target datalayout = "e-m:e-p270:32:32-p271:32:32-p272:64:64-i64:64-i128:128-f80:128-n8:16:32:64-S128"
target triple = "x86_64-unknown-linux-gnu"

%"class.icu_75::UMutex" = type { [40 x i8], %"struct.std::atomic", ptr }
%"struct.std::atomic" = type { %"struct.std::__atomic_base" }
%"struct.std::__atomic_base" = type { ptr }
%"class.icu_75::MaybeStackArray" = type <{ ptr, i32, i8, [40 x i8], [3 x i8] }>
%"class.icu_75::GMTOffsetField" = type <{ ptr, ptr, i32, i8, [3 x i8] }>
%"class.icu_75::UnicodeString" = type { %"class.icu_75::Replaceable", %"union.icu_75::UnicodeString::StackBufferOrFields" }
%"class.icu_75::Replaceable" = type { %"class.icu_75::UObject" }
%"class.icu_75::UObject" = type { ptr }
%"union.icu_75::UnicodeString::StackBufferOrFields" = type { %struct.anon.0, [32 x i8] }
%struct.anon.0 = type { i16, i32, i32, ptr }
%struct.anon = type { i16, [27 x i16] }
%"class.icu_75::CharString" = type { %"class.icu_75::MaybeStackArray", i32, [4 x i8] }
%"class.icu_75::CharStringByteSink" = type { %"class.icu_75::ByteSink", ptr }
%"class.icu_75::ByteSink" = type { ptr }
%"class.icu_75::ConstChar16Ptr" = type { ptr }
%"class.icu_75::TimeZoneFormat" = type { %"class.icu_75::Format.base", [6 x i8], %"class.icu_75::Locale", [4 x i8], ptr, ptr, %"class.icu_75::UnicodeString", [6 x %"class.icu_75::UnicodeString"], [10 x i32], %"class.icu_75::UnicodeString", i32, %"class.icu_75::UnicodeString", %"class.icu_75::UnicodeString", [6 x ptr], i8, ptr }
%"class.icu_75::Format.base" = type <{ %"class.icu_75::UObject", [157 x i8], [157 x i8] }>
%"class.icu_75::Locale" = type <{ %"class.icu_75::UObject", [12 x i8], [6 x i8], [4 x i8], [2 x i8], i32, [4 x i8], ptr, [157 x i8], [3 x i8], ptr, i8, [7 x i8] }>
%"class.icu_75::TimeZone" = type { %"class.icu_75::UObject", %"class.icu_75::UnicodeString" }
%"class.icu_75::FieldPosition" = type <{ %"class.icu_75::UObject", i32, i32, i32, [4 x i8] }>
%"class.icu_75::ParsePosition" = type { %"class.icu_75::UObject", i32, i32 }
%"class.icu_75::LocalPointer" = type { %"class.icu_75::LocalPointerBase" }
%"class.icu_75::LocalPointerBase" = type { ptr }
%"class.icu_75::LocalPointer.4" = type { %"class.icu_75::LocalPointerBase.5" }
%"class.icu_75::LocalPointerBase.5" = type { ptr }
%"class.icu_75::UVector" = type { %"class.icu_75::UObject", i32, i32, ptr, ptr, ptr }
%"class.icu_75::ZoneIdMatchHandler" = type { %"class.icu_75::TextTrieMapSearchResultHandler", i32, ptr }
%"class.icu_75::TextTrieMapSearchResultHandler" = type { ptr }
%"struct.icu_75::CharacterNode" = type { ptr, i16, i16, i16, i8, i8 }
%"struct.icu_75::UInitOnce" = type { %"struct.std::atomic.2", i32 }
%"struct.std::atomic.2" = type { %"struct.std::__atomic_base.3" }
%"struct.std::__atomic_base.3" = type { i32 }

$_ZN6icu_7515MaybeStackArrayIcLi40EEC5Ev = comdat any

$_ZN6icu_7515MaybeStackArrayIcLi40EEC5Ei10UErrorCode = comdat any

$_ZN6icu_7515MaybeStackArrayIcLi40EE6resizeEii = comdat any

$_ZN6icu_7515MaybeStackArrayIcLi40EED5Ev = comdat any

$_ZN6icu_7515MaybeStackArrayIcLi40EE12releaseArrayEv = comdat any

$__clang_call_terminate = comdat any

$_ZN6icu_7515MaybeStackArrayIcLi40EEC5EOS1_ = comdat any

$_ZN6icu_7515MaybeStackArrayIcLi40EE17resetToStackArrayEv = comdat any

$_ZN6icu_7515MaybeStackArrayIcLi40EEaSEOS1_ = comdat any

$_ZNK6icu_7515MaybeStackArrayIcLi40EE11getCapacityEv = comdat any

$_ZNK6icu_7515MaybeStackArrayIcLi40EE8getAliasEv = comdat any

$_ZNK6icu_7515MaybeStackArrayIcLi40EE13getArrayLimitEv = comdat any

$_ZNK6icu_7515MaybeStackArrayIcLi40EEixEl = comdat any

$_ZN6icu_7515MaybeStackArrayIcLi40EEixEl = comdat any

$_ZN6icu_7515MaybeStackArrayIcLi40EE12aliasInsteadEPci = comdat any

$_ZN6icu_7515MaybeStackArrayIcLi40EE13orphanOrCloneEiRi = comdat any

$_ZN6icu_7515MaybeStackArrayIcLi40EE8copyFromERKS1_R10UErrorCode = comdat any

$_ZNK6icu_7513UnicodeString6lengthEv = comdat any

$_ZNK6icu_7513UnicodeString9getBufferEv = comdat any

$_ZN6icu_7513UnicodeStringC2Ev = comdat any

$_ZNK6icu_756Locale10getCountryEv = comdat any

$_ZN6icu_7510CharStringC2Ev = comdat any

$_ZNK6icu_756Locale7getNameEv = comdat any

$_ZN6icu_7510CharString4dataEv = comdat any

$_ZN6icu_7510CharStringD2Ev = comdat any

$_ZN6icu_7514ConstChar16PtrC2EPKDs = comdat any

$_ZN6icu_7514ConstChar16PtrD2Ev = comdat any

$_ZNK6icu_7513UnicodeStringeqERKS0_ = comdat any

$_ZN6icu_7513UnicodeString5setToERKS0_ = comdat any

$_ZN6icu_7513UnicodeString6removeEv = comdat any

$_ZNK6icu_7513UnicodeString7isEmptyEv = comdat any

$_ZNK6icu_7513UnicodeStringneERKS0_ = comdat any

$_ZNK6icu_758TimeZone5getIDERNS_13UnicodeStringE = comdat any

$_ZN6icu_7513UnicodeString5setToEPKDsi = comdat any

$_ZNK6icu_758Calendar7getTimeER10UErrorCode = comdat any

$_ZN6icu_7513UnicodeString6appendERKS0_ = comdat any

$_ZNK6icu_7513FieldPosition8getFieldEv = comdat any

$_ZN6icu_7513FieldPosition13setBeginIndexEi = comdat any

$_ZN6icu_7513FieldPosition11setEndIndexEi = comdat any

$_ZNK6icu_7513ParsePosition8getIndexEv = comdat any

$_ZN6icu_7513ParsePositionC2Ei = comdat any

$_ZNK6icu_7513ParsePosition13getErrorIndexEv = comdat any

$_ZN6icu_7513ParsePosition8setIndexEi = comdat any

$_ZN6icu_7513ParsePosition13setErrorIndexEi = comdat any

$_ZN6icu_7512LocalPointerINS_13TimeZoneNames19MatchInfoCollectionEEC2EPS2_ = comdat any

$_ZNK6icu_7516LocalPointerBaseINS_13TimeZoneNames19MatchInfoCollectionEE6isNullEv = comdat any

$_ZNK6icu_7516LocalPointerBaseINS_13TimeZoneNames19MatchInfoCollectionEEptEv = comdat any

$_ZNK6icu_7516LocalPointerBaseINS_13TimeZoneNames19MatchInfoCollectionEE8getAliasEv = comdat any

$_ZN6icu_7512LocalPointerINS_13TimeZoneNames19MatchInfoCollectionEED2Ev = comdat any

$_ZN6icu_7513UnicodeString5setToEDs = comdat any

$_ZN6icu_7513UnicodeString6appendEDs = comdat any

$_ZNK6icu_757UVector4sizeEv = comdat any

$_ZNK6icu_7514GMTOffsetField7getTypeEv = comdat any

$_ZN6icu_7513UnicodeString6appendENS_14ConstChar16PtrEi = comdat any

$_ZNK6icu_7514GMTOffsetField14getPatternTextEv = comdat any

$_ZNK6icu_7513UnicodeString6charAtEi = comdat any

$_ZNK6icu_7513UnicodeString11caseCompareEiiRKS0_j = comdat any

$_ZNK6icu_7513UnicodeString11caseCompareEiiPKDsj = comdat any

$_ZNK6icu_7513UnicodeString7indexOfEPKDsii = comdat any

$_ZNK6icu_7513UnicodeString7indexOfEDs = comdat any

$_ZNK6icu_7513UnicodeString11lastIndexOfEDs = comdat any

$_ZNK6icu_7513UnicodeString11lastIndexOfEPKDsii = comdat any

$_ZNK6icu_7513UnicodeString11lastIndexOfEDsi = comdat any

$_ZN6icu_7530TextTrieMapSearchResultHandlerC2Ev = comdat any

$_ZNK6icu_7513CharacterNode9hasValuesEv = comdat any

$_ZNK6icu_7513CharacterNode8getValueEi = comdat any

$_ZN6icu_7513umtx_initOnceERNS_9UInitOnceEPFvR10UErrorCodeES3_ = comdat any

$_ZN6icu_7512LocalPointerINS_18ZoneIdMatchHandlerEEC2EPS1_ = comdat any

$_ZNK6icu_7516LocalPointerBaseINS_18ZoneIdMatchHandlerEE8getAliasEv = comdat any

$_ZNK6icu_7516LocalPointerBaseINS_18ZoneIdMatchHandlerEEptEv = comdat any

$_ZN6icu_7512LocalPointerINS_18ZoneIdMatchHandlerEED2Ev = comdat any

$_ZNK6icu_7513UnicodeString14hasShortLengthEv = comdat any

$_ZNK6icu_7513UnicodeString14getShortLengthEv = comdat any

$_ZN6icu_7511ReplaceableC2Ev = comdat any

$_ZN6icu_757UObjectC2Ev = comdat any

$_ZNK6icu_7513UnicodeString7isBogusEv = comdat any

$_ZN6icu_7513UnicodeString10setToEmptyEv = comdat any

$_ZN6icu_7513UnicodeString13setZeroLengthEv = comdat any

$_ZNK6icu_7514ConstChar16PtrcvPKDsEv = comdat any

$_ZNK6icu_7514ConstChar16Ptr3getEv = comdat any

$_ZNK6icu_7513UnicodeString8doCharAtEi = comdat any

$_ZNK6icu_7513UnicodeString13getArrayStartEv = comdat any

$_ZNK6icu_7513UnicodeString13doCaseCompareEiiRKS0_iij = comdat any

$_ZNK6icu_7513UnicodeString10pinIndicesERiS1_ = comdat any

$_ZNK6icu_7513UnicodeString8pinIndexERi = comdat any

$_ZN6icu_7516umtx_loadAcquireERSt6atomicIiE = comdat any

$_ZStanSt12memory_orderSt23__memory_order_modifier = comdat any

$_ZN6icu_759UInitOnce5resetEv = comdat any

$_ZNSt13__atomic_baseIiEaSEi = comdat any

$_ZN6icu_7516LocalPointerBaseINS_13TimeZoneNames19MatchInfoCollectionEEC2EPS2_ = comdat any

$_ZN6icu_7516LocalPointerBaseINS_13TimeZoneNames19MatchInfoCollectionEED2Ev = comdat any

$_ZN6icu_7516LocalPointerBaseINS_18ZoneIdMatchHandlerEEC2EPS1_ = comdat any

$_ZN6icu_7516LocalPointerBaseINS_18ZoneIdMatchHandlerEED2Ev = comdat any

$_ZTSN6icu_757UMemoryE = comdat any

$_ZTIN6icu_757UMemoryE = comdat any

@_ZTVN6icu_7514GMTOffsetFieldE = unnamed_addr constant { [4 x ptr] } { [4 x ptr] [ptr null, ptr @_ZTIN6icu_7514GMTOffsetFieldE, ptr @_ZN6icu_7514GMTOffsetFieldD1Ev, ptr @_ZN6icu_7514GMTOffsetFieldD0Ev] }, align 8
@_ZZN6icu_7514TimeZoneFormat16getStaticClassIDEvE7classID = internal global i8 0, align 1
@_ZTVN6icu_7514TimeZoneFormatE = unnamed_addr constant { [12 x ptr] } { [12 x ptr] [ptr null, ptr @_ZTIN6icu_7514TimeZoneFormatE, ptr @_ZN6icu_7514TimeZoneFormatD1Ev, ptr @_ZN6icu_7514TimeZoneFormatD0Ev, ptr @_ZNK6icu_7514TimeZoneFormat17getDynamicClassIDEv, ptr @_ZNK6icu_7514TimeZoneFormateqERKNS_6FormatE, ptr @_ZNK6icu_7514TimeZoneFormat5cloneEv, ptr @_ZNK6icu_7514TimeZoneFormat6formatERKNS_11FormattableERNS_13UnicodeStringERNS_13FieldPositionER10UErrorCode, ptr @_ZNK6icu_756Format6formatERKNS_11FormattableERNS_13UnicodeStringEPNS_21FieldPositionIteratorER10UErrorCode, ptr @_ZNK6icu_7514TimeZoneFormat11parseObjectERKNS_13UnicodeStringERNS_11FormattableERNS_13ParsePositionE, ptr @_ZNK6icu_7514TimeZoneFormat6formatE20UTimeZoneFormatStyleRKNS_8TimeZoneEdRNS_13UnicodeStringEP23UTimeZoneFormatTimeType, ptr @_ZNK6icu_7514TimeZoneFormat5parseE20UTimeZoneFormatStyleRKNS_13UnicodeStringERNS_13ParsePositionEiP23UTimeZoneFormatTimeType] }, align 8
@.str = private unnamed_addr constant [14 x i8] c"icudt75l-zone\00", align 1
@_ZN6icu_75L15gZoneStringsTagE = internal constant [12 x i8] c"zoneStrings\00", align 1
@_ZN6icu_75L13gGmtFormatTagE = internal constant [10 x i8] c"gmtFormat\00", align 1
@_ZN6icu_75L17gGmtZeroFormatTagE = internal constant [14 x i8] c"gmtZeroFormat\00", align 1
@_ZN6icu_75L14gHourFormatTagE = internal constant [11 x i8] c"hourFormat\00", align 1
@_ZN6icu_75L19DEFAULT_GMT_PATTERNE = internal constant [7 x i16] [i16 71, i16 77, i16 84, i16 123, i16 48, i16 125, i16 0], align 2
@_ZN6icu_75L22DEFAULT_GMT_POSITIVE_HE = internal constant [3 x i16] [i16 43, i16 72, i16 0], align 2
@_ZN6icu_75L23DEFAULT_GMT_POSITIVE_HME = internal constant [6 x i16] [i16 43, i16 72, i16 58, i16 109, i16 109, i16 0], align 2
@_ZN6icu_75L24DEFAULT_GMT_POSITIVE_HMSE = internal constant [9 x i16] [i16 43, i16 72, i16 58, i16 109, i16 109, i16 58, i16 115, i16 115, i16 0], align 16
@_ZN6icu_75L22DEFAULT_GMT_NEGATIVE_HE = internal constant [3 x i16] [i16 45, i16 72, i16 0], align 2
@_ZN6icu_75L23DEFAULT_GMT_NEGATIVE_HME = internal constant [6 x i16] [i16 45, i16 72, i16 58, i16 109, i16 109, i16 0], align 2
@_ZN6icu_75L24DEFAULT_GMT_NEGATIVE_HMSE = internal constant [9 x i16] [i16 45, i16 72, i16 58, i16 109, i16 109, i16 58, i16 115, i16 115, i16 0], align 16
@_ZN6icu_75L18DEFAULT_GMT_DIGITSE = internal constant [10 x i32] [i32 48, i32 49, i32 50, i32 51, i32 52, i32 53, i32 54, i32 55, i32 56, i32 57], align 16
@_ZN6icu_75L21UNKNOWN_SHORT_ZONE_IDE = internal constant [4 x i16] [i16 117, i16 110, i16 107, i16 0], align 2
@_ZTIN6icu_757UObjectE = external constant ptr
@_ZTIN6icu_758TimeZoneE = external constant ptr
@_ZTIN6icu_758CalendarE = external constant ptr
@_ZN6icu_75L17STYLE_PARSE_FLAGSE = internal constant [20 x i16] [i16 1, i16 2, i16 4, i16 8, i16 16, i16 32, i16 64, i16 128, i16 256, i16 128, i16 256, i16 128, i16 256, i16 128, i16 256, i16 128, i16 256, i16 512, i16 1024, i16 2048], align 16
@_ZN6icu_75L5gLockE = internal global %"class.icu_75::UMutex" zeroinitializer, align 8
@_ZN6icu_75L15UNKNOWN_ZONE_IDE = internal constant [12 x i16] [i16 69, i16 116, i16 99, i16 47, i16 85, i16 110, i16 107, i16 110, i16 111, i16 119, i16 110, i16 0], align 16
@_ZN6icu_75L16UNKNOWN_LOCATIONE = internal constant [8 x i16] [i16 85, i16 110, i16 107, i16 110, i16 111, i16 119, i16 110, i16 0], align 16
@_ZN6icu_75L10MAX_OFFSETE = internal global i32 86400000, align 4
@_ZN6icu_75L15ALT_GMT_STRINGSE = internal constant [4 x [4 x i16]] [[4 x i16] [i16 71, i16 77, i16 84, i16 0], [4 x i16] [i16 85, i16 84, i16 67, i16 0], [4 x i16] [i16 85, i16 84, i16 0, i16 0], [4 x i16] zeroinitializer], align 16
@_ZN6icu_75L22PARSE_GMT_OFFSET_TYPESE = internal constant [7 x i32] [i32 1, i32 3, i32 0, i32 2, i32 4, i32 5, i32 -1], align 16
@__const._ZN6icu_7514TimeZoneFormat22parseAsciiOffsetFieldsERKNS_13UnicodeStringERNS_13ParsePositionEDsNS0_12OffsetFieldsES6_.fieldLen = private unnamed_addr constant [3 x i32] [i32 0, i32 -1, i32 -1], align 4
@_ZN6icu_75L4ARG0E = internal constant [3 x i16] [i16 123, i16 48, i16 125], align 2
@_ZN6icu_75L33DEFAULT_GMT_OFFSET_MINUTE_PATTERNE = internal constant [3 x i16] [i16 109, i16 109, i16 0], align 2
@_ZN6icu_75L33DEFAULT_GMT_OFFSET_SECOND_PATTERNE = internal constant [3 x i16] [i16 115, i16 115, i16 0], align 2
@__const._ZN6icu_7514TimeZoneFormat21truncateOffsetPatternERKNS_13UnicodeStringERS1_R10UErrorCode.HH = private unnamed_addr constant [2 x i16] [i16 72, i16 72], align 2
@_ZN6icu_75L8TZID_GMTE = internal constant [8 x i16] [i16 69, i16 116, i16 99, i16 47, i16 71, i16 77, i16 84, i16 0], align 16
@_ZTVN6icu_7518ZoneIdMatchHandlerE = unnamed_addr constant { [5 x ptr] } { [5 x ptr] [ptr null, ptr @_ZTIN6icu_7518ZoneIdMatchHandlerE, ptr @_ZN6icu_7518ZoneIdMatchHandler11handleMatchEiPKNS_13CharacterNodeER10UErrorCode, ptr @_ZN6icu_7518ZoneIdMatchHandlerD1Ev, ptr @_ZN6icu_7518ZoneIdMatchHandlerD0Ev] }, align 8
@_ZN6icu_75L11gZoneIdTrieE = internal global ptr null, align 8
@_ZN6icu_75L16gShortZoneIdTrieE = internal global ptr null, align 8
@_ZTVN10__cxxabiv120__si_class_type_infoE = external global [0 x ptr]
@_ZTSN6icu_7514GMTOffsetFieldE = constant [26 x i8] c"N6icu_7514GMTOffsetFieldE\00", align 1
@_ZTVN10__cxxabiv117__class_type_infoE = external global [0 x ptr]
@_ZTSN6icu_757UMemoryE = linkonce_odr constant [18 x i8] c"N6icu_757UMemoryE\00", comdat, align 1
@_ZTIN6icu_757UMemoryE = linkonce_odr constant { ptr, ptr } { ptr getelementptr inbounds (ptr, ptr @_ZTVN10__cxxabiv117__class_type_infoE, i64 2), ptr @_ZTSN6icu_757UMemoryE }, comdat, align 8
@_ZTIN6icu_7514GMTOffsetFieldE = constant { ptr, ptr, ptr } { ptr getelementptr inbounds (ptr, ptr @_ZTVN10__cxxabiv120__si_class_type_infoE, i64 2), ptr @_ZTSN6icu_7514GMTOffsetFieldE, ptr @_ZTIN6icu_757UMemoryE }, align 8
@_ZTSN6icu_7514TimeZoneFormatE = constant [26 x i8] c"N6icu_7514TimeZoneFormatE\00", align 1
@_ZTIN6icu_756FormatE = external constant ptr
@_ZTIN6icu_7514TimeZoneFormatE = constant { ptr, ptr, ptr } { ptr getelementptr inbounds (ptr, ptr @_ZTVN10__cxxabiv120__si_class_type_infoE, i64 2), ptr @_ZTSN6icu_7514TimeZoneFormatE, ptr @_ZTIN6icu_756FormatE }, align 8
@_ZTSN6icu_7518ZoneIdMatchHandlerE = constant [30 x i8] c"N6icu_7518ZoneIdMatchHandlerE\00", align 1
@_ZTIN6icu_7530TextTrieMapSearchResultHandlerE = external constant ptr
@_ZTIN6icu_7518ZoneIdMatchHandlerE = constant { ptr, ptr, ptr } { ptr getelementptr inbounds (ptr, ptr @_ZTVN10__cxxabiv120__si_class_type_infoE, i64 2), ptr @_ZTSN6icu_7518ZoneIdMatchHandlerE, ptr @_ZTIN6icu_7530TextTrieMapSearchResultHandlerE }, align 8
@_ZTVN6icu_7513UnicodeStringE = external unnamed_addr constant { [13 x ptr] }, align 8
@_ZTVN6icu_7511ReplaceableE = external unnamed_addr constant { [13 x ptr] }, align 8
@_ZTVN6icu_757UObjectE = external unnamed_addr constant { [5 x ptr] }, align 8
@_ZTVN6icu_7513ParsePositionE = external unnamed_addr constant { [5 x ptr] }, align 8
@_ZTVN6icu_7530TextTrieMapSearchResultHandlerE = external unnamed_addr constant { [5 x ptr] }, align 8
@_ZN6icu_75L19gZoneIdTrieInitOnceE = internal global { { i32 }, i32 } zeroinitializer, align 4
@_ZN6icu_75L24gShortZoneIdTrieInitOnceE = internal global { { i32 }, i32 } zeroinitializer, align 4

@_ZN6icu_7515MaybeStackArrayIcLi40EEC1Ev = weak_odr unnamed_addr alias void (ptr), ptr @_ZN6icu_7515MaybeStackArrayIcLi40EEC2Ev
@_ZN6icu_7515MaybeStackArrayIcLi40EEC1Ei10UErrorCode = weak_odr unnamed_addr alias void (ptr, i32, i32), ptr @_ZN6icu_7515MaybeStackArrayIcLi40EEC2Ei10UErrorCode
@_ZN6icu_7515MaybeStackArrayIcLi40EED1Ev = weak_odr unnamed_addr alias void (ptr), ptr @_ZN6icu_7515MaybeStackArrayIcLi40EED2Ev
@_ZN6icu_7515MaybeStackArrayIcLi40EEC1EOS1_ = weak_odr unnamed_addr alias void (ptr, ptr), ptr @_ZN6icu_7515MaybeStackArrayIcLi40EEC2EOS1_
@_ZN6icu_7514GMTOffsetFieldC1Ev = unnamed_addr alias void (ptr), ptr @_ZN6icu_7514GMTOffsetFieldC2Ev
@_ZN6icu_7514GMTOffsetFieldD1Ev = unnamed_addr alias void (ptr), ptr @_ZN6icu_7514GMTOffsetFieldD2Ev
@_ZN6icu_7514TimeZoneFormatC1ERKNS_6LocaleER10UErrorCode = unnamed_addr alias void (ptr, ptr, ptr), ptr @_ZN6icu_7514TimeZoneFormatC2ERKNS_6LocaleER10UErrorCode
@_ZN6icu_7514TimeZoneFormatC1ERKS0_ = unnamed_addr alias void (ptr, ptr), ptr @_ZN6icu_7514TimeZoneFormatC2ERKS0_
@_ZN6icu_7514TimeZoneFormatD1Ev = unnamed_addr alias void (ptr), ptr @_ZN6icu_7514TimeZoneFormatD2Ev
@_ZN6icu_7518ZoneIdMatchHandlerC1Ev = unnamed_addr alias void (ptr), ptr @_ZN6icu_7518ZoneIdMatchHandlerC2Ev
@_ZN6icu_7518ZoneIdMatchHandlerD1Ev = unnamed_addr alias void (ptr), ptr @_ZN6icu_7518ZoneIdMatchHandlerD2Ev

; Function Attrs: mustprogress nounwind uwtable
define weak_odr void @_ZN6icu_7515MaybeStackArrayIcLi40EEC2Ev(ptr noundef nonnull align 8 dereferenceable(53) %this) unnamed_addr #0 comdat($_ZN6icu_7515MaybeStackArrayIcLi40EEC5Ev) align 2 {
entry:
  %this.addr = alloca ptr, align 8
  store ptr %this, ptr %this.addr, align 8
  %this1 = load ptr, ptr %this.addr, align 8
  %ptr = getelementptr inbounds %"class.icu_75::MaybeStackArray", ptr %this1, i32 0, i32 0
  %stackArray = getelementptr inbounds %"class.icu_75::MaybeStackArray", ptr %this1, i32 0, i32 3
  %arraydecay = getelementptr inbounds [40 x i8], ptr %stackArray, i64 0, i64 0
  store ptr %arraydecay, ptr %ptr, align 8
  %capacity = getelementptr inbounds %"class.icu_75::MaybeStackArray", ptr %this1, i32 0, i32 1
  store i32 40, ptr %capacity, align 8
  %needToRelease = getelementptr inbounds %"class.icu_75::MaybeStackArray", ptr %this1, i32 0, i32 2
  store i8 0, ptr %needToRelease, align 4
  ret void
}

; Function Attrs: mustprogress uwtable
define weak_odr void @_ZN6icu_7515MaybeStackArrayIcLi40EEC2Ei10UErrorCode(ptr noundef nonnull align 8 dereferenceable(53) %this, i32 noundef %newCapacity, i32 noundef %status) unnamed_addr #1 comdat($_ZN6icu_7515MaybeStackArrayIcLi40EEC5Ei10UErrorCode) align 2 personality ptr @__gxx_personality_v0 {
entry:
  %this.addr = alloca ptr, align 8
  %newCapacity.addr = alloca i32, align 4
  %status.addr = alloca i32, align 4
  %exn.slot = alloca ptr, align 8
  %ehselector.slot = alloca i32, align 4
  store ptr %this, ptr %this.addr, align 8
  store i32 %newCapacity, ptr %newCapacity.addr, align 4
  store i32 %status, ptr %status.addr, align 4
  %this1 = load ptr, ptr %this.addr, align 8
  call void @_ZN6icu_7515MaybeStackArrayIcLi40EEC2Ev(ptr noundef nonnull align 8 dereferenceable(53) %this1)
  %0 = load i32, ptr %status.addr, align 4
  %call = invoke noundef signext i8 @_ZL9U_FAILURE10UErrorCode(i32 noundef %0)
          to label %invoke.cont unwind label %lpad

invoke.cont:                                      ; preds = %entry
  %tobool = icmp ne i8 %call, 0
  br i1 %tobool, label %if.then, label %if.end

if.then:                                          ; preds = %invoke.cont
  br label %if.end8

lpad:                                             ; preds = %if.then2, %entry
  %1 = landingpad { ptr, i32 }
          cleanup
  %2 = extractvalue { ptr, i32 } %1, 0
  store ptr %2, ptr %exn.slot, align 8
  %3 = extractvalue { ptr, i32 } %1, 1
  store i32 %3, ptr %ehselector.slot, align 4
  call void @_ZN6icu_7515MaybeStackArrayIcLi40EED2Ev(ptr noundef nonnull align 8 dereferenceable(53) %this1) #11
  br label %eh.resume

if.end:                                           ; preds = %invoke.cont
  %capacity = getelementptr inbounds %"class.icu_75::MaybeStackArray", ptr %this1, i32 0, i32 1
  %4 = load i32, ptr %capacity, align 8
  %5 = load i32, ptr %newCapacity.addr, align 4
  %cmp = icmp slt i32 %4, %5
  br i1 %cmp, label %if.then2, label %if.end8

if.then2:                                         ; preds = %if.end
  %6 = load i32, ptr %newCapacity.addr, align 4
  %call4 = invoke noundef ptr @_ZN6icu_7515MaybeStackArrayIcLi40EE6resizeEii(ptr noundef nonnull align 8 dereferenceable(53) %this1, i32 noundef %6, i32 noundef 0)
          to label %invoke.cont3 unwind label %lpad

invoke.cont3:                                     ; preds = %if.then2
  %cmp5 = icmp eq ptr %call4, null
  br i1 %cmp5, label %if.then6, label %if.end7

if.then6:                                         ; preds = %invoke.cont3
  store i32 7, ptr %status.addr, align 4
  br label %if.end7

if.end7:                                          ; preds = %if.then6, %invoke.cont3
  br label %if.end8

if.end8:                                          ; preds = %if.end7, %if.end, %if.then
  ret void

eh.resume:                                        ; preds = %lpad
  %exn = load ptr, ptr %exn.slot, align 8
  %sel = load i32, ptr %ehselector.slot, align 4
  %lpad.val = insertvalue { ptr, i32 } poison, ptr %exn, 0
  %lpad.val9 = insertvalue { ptr, i32 } %lpad.val, i32 %sel, 1
  resume { ptr, i32 } %lpad.val9
}

; Function Attrs: mustprogress nounwind uwtable
define internal noundef signext i8 @_ZL9U_FAILURE10UErrorCode(i32 noundef %code) #0 {
entry:
  %code.addr = alloca i32, align 4
  store i32 %code, ptr %code.addr, align 4
  %0 = load i32, ptr %code.addr, align 4
  %cmp = icmp sgt i32 %0, 0
  %conv = zext i1 %cmp to i8
  ret i8 %conv
}

declare i32 @__gxx_personality_v0(...)

; Function Attrs: mustprogress uwtable
define weak_odr noundef ptr @_ZN6icu_7515MaybeStackArrayIcLi40EE6resizeEii(ptr noundef nonnull align 8 dereferenceable(53) %this, i32 noundef %newCapacity, i32 noundef %length) #1 comdat align 2 {
entry:
  %retval = alloca ptr, align 8
  %this.addr = alloca ptr, align 8
  %newCapacity.addr = alloca i32, align 4
  %length.addr = alloca i32, align 4
  %p = alloca ptr, align 8
  store ptr %this, ptr %this.addr, align 8
  store i32 %newCapacity, ptr %newCapacity.addr, align 4
  store i32 %length, ptr %length.addr, align 4
  %this1 = load ptr, ptr %this.addr, align 8
  %0 = load i32, ptr %newCapacity.addr, align 4
  %cmp = icmp sgt i32 %0, 0
  br i1 %cmp, label %if.then, label %if.else

if.then:                                          ; preds = %entry
  %1 = load i32, ptr %newCapacity.addr, align 4
  %conv = sext i32 %1 to i64
  %mul = mul i64 %conv, 1
  %call = call noalias ptr @uprv_malloc_75(i64 noundef %mul) #12
  store ptr %call, ptr %p, align 8
  %2 = load ptr, ptr %p, align 8
  %cmp2 = icmp ne ptr %2, null
  br i1 %cmp2, label %if.then3, label %if.end17

if.then3:                                         ; preds = %if.then
  %3 = load i32, ptr %length.addr, align 4
  %cmp4 = icmp sgt i32 %3, 0
  br i1 %cmp4, label %if.then5, label %if.end14

if.then5:                                         ; preds = %if.then3
  %4 = load i32, ptr %length.addr, align 4
  %capacity = getelementptr inbounds %"class.icu_75::MaybeStackArray", ptr %this1, i32 0, i32 1
  %5 = load i32, ptr %capacity, align 8
  %cmp6 = icmp sgt i32 %4, %5
  br i1 %cmp6, label %if.then7, label %if.end

if.then7:                                         ; preds = %if.then5
  %capacity8 = getelementptr inbounds %"class.icu_75::MaybeStackArray", ptr %this1, i32 0, i32 1
  %6 = load i32, ptr %capacity8, align 8
  store i32 %6, ptr %length.addr, align 4
  br label %if.end

if.end:                                           ; preds = %if.then7, %if.then5
  %7 = load i32, ptr %length.addr, align 4
  %8 = load i32, ptr %newCapacity.addr, align 4
  %cmp9 = icmp sgt i32 %7, %8
  br i1 %cmp9, label %if.then10, label %if.end11

if.then10:                                        ; preds = %if.end
  %9 = load i32, ptr %newCapacity.addr, align 4
  store i32 %9, ptr %length.addr, align 4
  br label %if.end11

if.end11:                                         ; preds = %if.then10, %if.end
  br label %do.body

do.body:                                          ; preds = %if.end11
  %10 = load ptr, ptr %p, align 8
  %ptr = getelementptr inbounds %"class.icu_75::MaybeStackArray", ptr %this1, i32 0, i32 0
  %11 = load ptr, ptr %ptr, align 8
  %12 = load i32, ptr %length.addr, align 4
  %conv12 = sext i32 %12 to i64
  %mul13 = mul i64 %conv12, 1
  call void @llvm.memcpy.p0.p0.i64(ptr align 1 %10, ptr align 1 %11, i64 %mul13, i1 false)
  br label %do.end

do.end:                                           ; preds = %do.body
  br label %if.end14

if.end14:                                         ; preds = %do.end, %if.then3
  call void @_ZN6icu_7515MaybeStackArrayIcLi40EE12releaseArrayEv(ptr noundef nonnull align 8 dereferenceable(53) %this1)
  %13 = load ptr, ptr %p, align 8
  %ptr15 = getelementptr inbounds %"class.icu_75::MaybeStackArray", ptr %this1, i32 0, i32 0
  store ptr %13, ptr %ptr15, align 8
  %14 = load i32, ptr %newCapacity.addr, align 4
  %capacity16 = getelementptr inbounds %"class.icu_75::MaybeStackArray", ptr %this1, i32 0, i32 1
  store i32 %14, ptr %capacity16, align 8
  %needToRelease = getelementptr inbounds %"class.icu_75::MaybeStackArray", ptr %this1, i32 0, i32 2
  store i8 1, ptr %needToRelease, align 4
  br label %if.end17

if.end17:                                         ; preds = %if.end14, %if.then
  %15 = load ptr, ptr %p, align 8
  store ptr %15, ptr %retval, align 8
  br label %return

if.else:                                          ; preds = %entry
  store ptr null, ptr %retval, align 8
  br label %return

return:                                           ; preds = %if.else, %if.end17
  %16 = load ptr, ptr %retval, align 8
  ret ptr %16
}

; Function Attrs: mustprogress nounwind uwtable
define weak_odr void @_ZN6icu_7515MaybeStackArrayIcLi40EED2Ev(ptr noundef nonnull align 8 dereferenceable(53) %this) unnamed_addr #0 comdat($_ZN6icu_7515MaybeStackArrayIcLi40EED5Ev) align 2 personality ptr @__gxx_personality_v0 {
entry:
  %this.addr = alloca ptr, align 8
  store ptr %this, ptr %this.addr, align 8
  %this1 = load ptr, ptr %this.addr, align 8
  invoke void @_ZN6icu_7515MaybeStackArrayIcLi40EE12releaseArrayEv(ptr noundef nonnull align 8 dereferenceable(53) %this1)
          to label %invoke.cont unwind label %terminate.lpad

invoke.cont:                                      ; preds = %entry
  ret void

terminate.lpad:                                   ; preds = %entry
  %0 = landingpad { ptr, i32 }
          catch ptr null
  %1 = extractvalue { ptr, i32 } %0, 0
  call void @__clang_call_terminate(ptr %1) #13
  unreachable
}

; Function Attrs: mustprogress uwtable
define weak_odr void @_ZN6icu_7515MaybeStackArrayIcLi40EE12releaseArrayEv(ptr noundef nonnull align 8 dereferenceable(53) %this) #1 comdat align 2 {
entry:
  %this.addr = alloca ptr, align 8
  store ptr %this, ptr %this.addr, align 8
  %this1 = load ptr, ptr %this.addr, align 8
  %needToRelease = getelementptr inbounds %"class.icu_75::MaybeStackArray", ptr %this1, i32 0, i32 2
  %0 = load i8, ptr %needToRelease, align 4
  %tobool = icmp ne i8 %0, 0
  br i1 %tobool, label %if.then, label %if.end

if.then:                                          ; preds = %entry
  %ptr = getelementptr inbounds %"class.icu_75::MaybeStackArray", ptr %this1, i32 0, i32 0
  %1 = load ptr, ptr %ptr, align 8
  call void @uprv_free_75(ptr noundef %1)
  br label %if.end

if.end:                                           ; preds = %if.then, %entry
  ret void
}

; Function Attrs: noreturn nounwind uwtable
define linkonce_odr hidden void @__clang_call_terminate(ptr noundef %0) #2 comdat {
  %2 = call ptr @__cxa_begin_catch(ptr %0) #11
  call void @_ZSt9terminatev() #13
  unreachable
}

declare ptr @__cxa_begin_catch(ptr)

declare void @_ZSt9terminatev()

; Function Attrs: mustprogress nounwind uwtable
define weak_odr void @_ZN6icu_7515MaybeStackArrayIcLi40EEC2EOS1_(ptr noundef nonnull align 8 dereferenceable(53) %this, ptr noundef nonnull align 8 dereferenceable(53) %src) unnamed_addr #0 comdat($_ZN6icu_7515MaybeStackArrayIcLi40EEC5EOS1_) align 2 personality ptr @__gxx_personality_v0 {
entry:
  %this.addr = alloca ptr, align 8
  %src.addr = alloca ptr, align 8
  store ptr %this, ptr %this.addr, align 8
  store ptr %src, ptr %src.addr, align 8
  %this1 = load ptr, ptr %this.addr, align 8
  %ptr = getelementptr inbounds %"class.icu_75::MaybeStackArray", ptr %this1, i32 0, i32 0
  %0 = load ptr, ptr %src.addr, align 8
  %ptr2 = getelementptr inbounds %"class.icu_75::MaybeStackArray", ptr %0, i32 0, i32 0
  %1 = load ptr, ptr %ptr2, align 8
  store ptr %1, ptr %ptr, align 8
  %capacity = getelementptr inbounds %"class.icu_75::MaybeStackArray", ptr %this1, i32 0, i32 1
  %2 = load ptr, ptr %src.addr, align 8
  %capacity3 = getelementptr inbounds %"class.icu_75::MaybeStackArray", ptr %2, i32 0, i32 1
  %3 = load i32, ptr %capacity3, align 8
  store i32 %3, ptr %capacity, align 8
  %needToRelease = getelementptr inbounds %"class.icu_75::MaybeStackArray", ptr %this1, i32 0, i32 2
  %4 = load ptr, ptr %src.addr, align 8
  %needToRelease4 = getelementptr inbounds %"class.icu_75::MaybeStackArray", ptr %4, i32 0, i32 2
  %5 = load i8, ptr %needToRelease4, align 4
  store i8 %5, ptr %needToRelease, align 4
  %6 = load ptr, ptr %src.addr, align 8
  %ptr5 = getelementptr inbounds %"class.icu_75::MaybeStackArray", ptr %6, i32 0, i32 0
  %7 = load ptr, ptr %ptr5, align 8
  %8 = load ptr, ptr %src.addr, align 8
  %stackArray = getelementptr inbounds %"class.icu_75::MaybeStackArray", ptr %8, i32 0, i32 3
  %arraydecay = getelementptr inbounds [40 x i8], ptr %stackArray, i64 0, i64 0
  %cmp = icmp eq ptr %7, %arraydecay
  br i1 %cmp, label %if.then, label %if.else

if.then:                                          ; preds = %entry
  %stackArray6 = getelementptr inbounds %"class.icu_75::MaybeStackArray", ptr %this1, i32 0, i32 3
  %arraydecay7 = getelementptr inbounds [40 x i8], ptr %stackArray6, i64 0, i64 0
  %ptr8 = getelementptr inbounds %"class.icu_75::MaybeStackArray", ptr %this1, i32 0, i32 0
  store ptr %arraydecay7, ptr %ptr8, align 8
  br label %do.body

do.body:                                          ; preds = %if.then
  %stackArray9 = getelementptr inbounds %"class.icu_75::MaybeStackArray", ptr %this1, i32 0, i32 3
  %arraydecay10 = getelementptr inbounds [40 x i8], ptr %stackArray9, i64 0, i64 0
  %9 = load ptr, ptr %src.addr, align 8
  %stackArray11 = getelementptr inbounds %"class.icu_75::MaybeStackArray", ptr %9, i32 0, i32 3
  %arraydecay12 = getelementptr inbounds [40 x i8], ptr %stackArray11, i64 0, i64 0
  %10 = load ptr, ptr %src.addr, align 8
  %capacity13 = getelementptr inbounds %"class.icu_75::MaybeStackArray", ptr %10, i32 0, i32 1
  %11 = load i32, ptr %capacity13, align 8
  %conv = sext i32 %11 to i64
  %mul = mul i64 1, %conv
  call void @llvm.memcpy.p0.p0.i64(ptr align 1 %arraydecay10, ptr align 1 %arraydecay12, i64 %mul, i1 false)
  br label %do.cond

do.cond:                                          ; preds = %do.body
  br label %do.end

do.end:                                           ; preds = %do.cond
  br label %if.end

if.else:                                          ; preds = %entry
  %12 = load ptr, ptr %src.addr, align 8
  invoke void @_ZN6icu_7515MaybeStackArrayIcLi40EE17resetToStackArrayEv(ptr noundef nonnull align 8 dereferenceable(53) %12)
          to label %invoke.cont unwind label %terminate.lpad

invoke.cont:                                      ; preds = %if.else
  br label %if.end

if.end:                                           ; preds = %invoke.cont, %do.end
  ret void

terminate.lpad:                                   ; preds = %if.else
  %13 = landingpad { ptr, i32 }
          catch ptr null
  %14 = extractvalue { ptr, i32 } %13, 0
  call void @__clang_call_terminate(ptr %14) #13
  unreachable
}

; Function Attrs: nocallback nofree nounwind willreturn memory(argmem: readwrite)
declare void @llvm.memcpy.p0.p0.i64(ptr noalias nocapture writeonly, ptr noalias nocapture readonly, i64, i1 immarg) #3

; Function Attrs: mustprogress nounwind uwtable
define weak_odr void @_ZN6icu_7515MaybeStackArrayIcLi40EE17resetToStackArrayEv(ptr noundef nonnull align 8 dereferenceable(53) %this) #0 comdat align 2 {
entry:
  %this.addr = alloca ptr, align 8
  store ptr %this, ptr %this.addr, align 8
  %this1 = load ptr, ptr %this.addr, align 8
  %stackArray = getelementptr inbounds %"class.icu_75::MaybeStackArray", ptr %this1, i32 0, i32 3
  %arraydecay = getelementptr inbounds [40 x i8], ptr %stackArray, i64 0, i64 0
  %ptr = getelementptr inbounds %"class.icu_75::MaybeStackArray", ptr %this1, i32 0, i32 0
  store ptr %arraydecay, ptr %ptr, align 8
  %capacity = getelementptr inbounds %"class.icu_75::MaybeStackArray", ptr %this1, i32 0, i32 1
  store i32 40, ptr %capacity, align 8
  %needToRelease = getelementptr inbounds %"class.icu_75::MaybeStackArray", ptr %this1, i32 0, i32 2
  store i8 0, ptr %needToRelease, align 4
  ret void
}

; Function Attrs: mustprogress nounwind uwtable
define weak_odr noundef nonnull align 8 dereferenceable(53) ptr @_ZN6icu_7515MaybeStackArrayIcLi40EEaSEOS1_(ptr noundef nonnull align 8 dereferenceable(53) %this, ptr noundef nonnull align 8 dereferenceable(53) %src) #0 comdat align 2 personality ptr @__gxx_personality_v0 {
entry:
  %this.addr = alloca ptr, align 8
  %src.addr = alloca ptr, align 8
  store ptr %this, ptr %this.addr, align 8
  store ptr %src, ptr %src.addr, align 8
  %this1 = load ptr, ptr %this.addr, align 8
  invoke void @_ZN6icu_7515MaybeStackArrayIcLi40EE12releaseArrayEv(ptr noundef nonnull align 8 dereferenceable(53) %this1)
          to label %invoke.cont unwind label %terminate.lpad

invoke.cont:                                      ; preds = %entry
  %0 = load ptr, ptr %src.addr, align 8
  %capacity = getelementptr inbounds %"class.icu_75::MaybeStackArray", ptr %0, i32 0, i32 1
  %1 = load i32, ptr %capacity, align 8
  %capacity2 = getelementptr inbounds %"class.icu_75::MaybeStackArray", ptr %this1, i32 0, i32 1
  store i32 %1, ptr %capacity2, align 8
  %2 = load ptr, ptr %src.addr, align 8
  %needToRelease = getelementptr inbounds %"class.icu_75::MaybeStackArray", ptr %2, i32 0, i32 2
  %3 = load i8, ptr %needToRelease, align 4
  %needToRelease3 = getelementptr inbounds %"class.icu_75::MaybeStackArray", ptr %this1, i32 0, i32 2
  store i8 %3, ptr %needToRelease3, align 4
  %4 = load ptr, ptr %src.addr, align 8
  %ptr = getelementptr inbounds %"class.icu_75::MaybeStackArray", ptr %4, i32 0, i32 0
  %5 = load ptr, ptr %ptr, align 8
  %6 = load ptr, ptr %src.addr, align 8
  %stackArray = getelementptr inbounds %"class.icu_75::MaybeStackArray", ptr %6, i32 0, i32 3
  %arraydecay = getelementptr inbounds [40 x i8], ptr %stackArray, i64 0, i64 0
  %cmp = icmp eq ptr %5, %arraydecay
  br i1 %cmp, label %if.then, label %if.else

if.then:                                          ; preds = %invoke.cont
  %stackArray4 = getelementptr inbounds %"class.icu_75::MaybeStackArray", ptr %this1, i32 0, i32 3
  %arraydecay5 = getelementptr inbounds [40 x i8], ptr %stackArray4, i64 0, i64 0
  %ptr6 = getelementptr inbounds %"class.icu_75::MaybeStackArray", ptr %this1, i32 0, i32 0
  store ptr %arraydecay5, ptr %ptr6, align 8
  br label %do.body

do.body:                                          ; preds = %if.then
  %stackArray7 = getelementptr inbounds %"class.icu_75::MaybeStackArray", ptr %this1, i32 0, i32 3
  %arraydecay8 = getelementptr inbounds [40 x i8], ptr %stackArray7, i64 0, i64 0
  %7 = load ptr, ptr %src.addr, align 8
  %stackArray9 = getelementptr inbounds %"class.icu_75::MaybeStackArray", ptr %7, i32 0, i32 3
  %arraydecay10 = getelementptr inbounds [40 x i8], ptr %stackArray9, i64 0, i64 0
  %8 = load ptr, ptr %src.addr, align 8
  %capacity11 = getelementptr inbounds %"class.icu_75::MaybeStackArray", ptr %8, i32 0, i32 1
  %9 = load i32, ptr %capacity11, align 8
  %conv = sext i32 %9 to i64
  %mul = mul i64 1, %conv
  call void @llvm.memcpy.p0.p0.i64(ptr align 1 %arraydecay8, ptr align 1 %arraydecay10, i64 %mul, i1 false)
  br label %do.cond

do.cond:                                          ; preds = %do.body
  br label %do.end

do.end:                                           ; preds = %do.cond
  br label %if.end

if.else:                                          ; preds = %invoke.cont
  %10 = load ptr, ptr %src.addr, align 8
  %ptr12 = getelementptr inbounds %"class.icu_75::MaybeStackArray", ptr %10, i32 0, i32 0
  %11 = load ptr, ptr %ptr12, align 8
  %ptr13 = getelementptr inbounds %"class.icu_75::MaybeStackArray", ptr %this1, i32 0, i32 0
  store ptr %11, ptr %ptr13, align 8
  %12 = load ptr, ptr %src.addr, align 8
  invoke void @_ZN6icu_7515MaybeStackArrayIcLi40EE17resetToStackArrayEv(ptr noundef nonnull align 8 dereferenceable(53) %12)
          to label %invoke.cont14 unwind label %terminate.lpad

invoke.cont14:                                    ; preds = %if.else
  br label %if.end

if.end:                                           ; preds = %invoke.cont14, %do.end
  ret ptr %this1

terminate.lpad:                                   ; preds = %if.else, %entry
  %13 = landingpad { ptr, i32 }
          catch ptr null
  %14 = extractvalue { ptr, i32 } %13, 0
  call void @__clang_call_terminate(ptr %14) #13
  unreachable
}

; Function Attrs: mustprogress nounwind uwtable
define weak_odr noundef i32 @_ZNK6icu_7515MaybeStackArrayIcLi40EE11getCapacityEv(ptr noundef nonnull align 8 dereferenceable(53) %this) #0 comdat align 2 {
entry:
  %this.addr = alloca ptr, align 8
  store ptr %this, ptr %this.addr, align 8
  %this1 = load ptr, ptr %this.addr, align 8
  %capacity = getelementptr inbounds %"class.icu_75::MaybeStackArray", ptr %this1, i32 0, i32 1
  %0 = load i32, ptr %capacity, align 8
  ret i32 %0
}

; Function Attrs: mustprogress nounwind uwtable
define weak_odr noundef ptr @_ZNK6icu_7515MaybeStackArrayIcLi40EE8getAliasEv(ptr noundef nonnull align 8 dereferenceable(53) %this) #0 comdat align 2 {
entry:
  %this.addr = alloca ptr, align 8
  store ptr %this, ptr %this.addr, align 8
  %this1 = load ptr, ptr %this.addr, align 8
  %ptr = getelementptr inbounds %"class.icu_75::MaybeStackArray", ptr %this1, i32 0, i32 0
  %0 = load ptr, ptr %ptr, align 8
  ret ptr %0
}

; Function Attrs: mustprogress nounwind uwtable
define weak_odr noundef ptr @_ZNK6icu_7515MaybeStackArrayIcLi40EE13getArrayLimitEv(ptr noundef nonnull align 8 dereferenceable(53) %this) #0 comdat align 2 {
entry:
  %this.addr = alloca ptr, align 8
  store ptr %this, ptr %this.addr, align 8
  %this1 = load ptr, ptr %this.addr, align 8
  %call = call noundef ptr @_ZNK6icu_7515MaybeStackArrayIcLi40EE8getAliasEv(ptr noundef nonnull align 8 dereferenceable(53) %this1)
  %capacity = getelementptr inbounds %"class.icu_75::MaybeStackArray", ptr %this1, i32 0, i32 1
  %0 = load i32, ptr %capacity, align 8
  %idx.ext = sext i32 %0 to i64
  %add.ptr = getelementptr inbounds i8, ptr %call, i64 %idx.ext
  ret ptr %add.ptr
}

; Function Attrs: mustprogress nounwind uwtable
define weak_odr noundef nonnull align 1 dereferenceable(1) ptr @_ZNK6icu_7515MaybeStackArrayIcLi40EEixEl(ptr noundef nonnull align 8 dereferenceable(53) %this, i64 noundef %i) #0 comdat align 2 {
entry:
  %this.addr = alloca ptr, align 8
  %i.addr = alloca i64, align 8
  store ptr %this, ptr %this.addr, align 8
  store i64 %i, ptr %i.addr, align 8
  %this1 = load ptr, ptr %this.addr, align 8
  %ptr = getelementptr inbounds %"class.icu_75::MaybeStackArray", ptr %this1, i32 0, i32 0
  %0 = load ptr, ptr %ptr, align 8
  %1 = load i64, ptr %i.addr, align 8
  %arrayidx = getelementptr inbounds i8, ptr %0, i64 %1
  ret ptr %arrayidx
}

; Function Attrs: mustprogress nounwind uwtable
define weak_odr noundef nonnull align 1 dereferenceable(1) ptr @_ZN6icu_7515MaybeStackArrayIcLi40EEixEl(ptr noundef nonnull align 8 dereferenceable(53) %this, i64 noundef %i) #0 comdat align 2 {
entry:
  %this.addr = alloca ptr, align 8
  %i.addr = alloca i64, align 8
  store ptr %this, ptr %this.addr, align 8
  store i64 %i, ptr %i.addr, align 8
  %this1 = load ptr, ptr %this.addr, align 8
  %ptr = getelementptr inbounds %"class.icu_75::MaybeStackArray", ptr %this1, i32 0, i32 0
  %0 = load ptr, ptr %ptr, align 8
  %1 = load i64, ptr %i.addr, align 8
  %arrayidx = getelementptr inbounds i8, ptr %0, i64 %1
  ret ptr %arrayidx
}

; Function Attrs: mustprogress uwtable
define weak_odr void @_ZN6icu_7515MaybeStackArrayIcLi40EE12aliasInsteadEPci(ptr noundef nonnull align 8 dereferenceable(53) %this, ptr noundef %otherArray, i32 noundef %otherCapacity) #1 comdat align 2 {
entry:
  %this.addr = alloca ptr, align 8
  %otherArray.addr = alloca ptr, align 8
  %otherCapacity.addr = alloca i32, align 4
  store ptr %this, ptr %this.addr, align 8
  store ptr %otherArray, ptr %otherArray.addr, align 8
  store i32 %otherCapacity, ptr %otherCapacity.addr, align 4
  %this1 = load ptr, ptr %this.addr, align 8
  %0 = load ptr, ptr %otherArray.addr, align 8
  %cmp = icmp ne ptr %0, null
  br i1 %cmp, label %land.lhs.true, label %if.end

land.lhs.true:                                    ; preds = %entry
  %1 = load i32, ptr %otherCapacity.addr, align 4
  %cmp2 = icmp sgt i32 %1, 0
  br i1 %cmp2, label %if.then, label %if.end

if.then:                                          ; preds = %land.lhs.true
  call void @_ZN6icu_7515MaybeStackArrayIcLi40EE12releaseArrayEv(ptr noundef nonnull align 8 dereferenceable(53) %this1)
  %2 = load ptr, ptr %otherArray.addr, align 8
  %ptr = getelementptr inbounds %"class.icu_75::MaybeStackArray", ptr %this1, i32 0, i32 0
  store ptr %2, ptr %ptr, align 8
  %3 = load i32, ptr %otherCapacity.addr, align 4
  %capacity = getelementptr inbounds %"class.icu_75::MaybeStackArray", ptr %this1, i32 0, i32 1
  store i32 %3, ptr %capacity, align 8
  %needToRelease = getelementptr inbounds %"class.icu_75::MaybeStackArray", ptr %this1, i32 0, i32 2
  store i8 0, ptr %needToRelease, align 4
  br label %if.end

if.end:                                           ; preds = %if.then, %land.lhs.true, %entry
  ret void
}

; Function Attrs: allocsize(0)
declare noalias ptr @uprv_malloc_75(i64 noundef) #4

; Function Attrs: mustprogress uwtable
define weak_odr noundef ptr @_ZN6icu_7515MaybeStackArrayIcLi40EE13orphanOrCloneEiRi(ptr noundef nonnull align 8 dereferenceable(53) %this, i32 noundef %length, ptr noundef nonnull align 4 dereferenceable(4) %resultCapacity) #1 comdat align 2 {
entry:
  %retval = alloca ptr, align 8
  %this.addr = alloca ptr, align 8
  %length.addr = alloca i32, align 4
  %resultCapacity.addr = alloca ptr, align 8
  %p = alloca ptr, align 8
  store ptr %this, ptr %this.addr, align 8
  store i32 %length, ptr %length.addr, align 4
  store ptr %resultCapacity, ptr %resultCapacity.addr, align 8
  %this1 = load ptr, ptr %this.addr, align 8
  %needToRelease = getelementptr inbounds %"class.icu_75::MaybeStackArray", ptr %this1, i32 0, i32 2
  %0 = load i8, ptr %needToRelease, align 4
  %tobool = icmp ne i8 %0, 0
  br i1 %tobool, label %if.then, label %if.else

if.then:                                          ; preds = %entry
  %ptr = getelementptr inbounds %"class.icu_75::MaybeStackArray", ptr %this1, i32 0, i32 0
  %1 = load ptr, ptr %ptr, align 8
  store ptr %1, ptr %p, align 8
  br label %if.end14

if.else:                                          ; preds = %entry
  %2 = load i32, ptr %length.addr, align 4
  %cmp = icmp sle i32 %2, 0
  br i1 %cmp, label %if.then2, label %if.else3

if.then2:                                         ; preds = %if.else
  store ptr null, ptr %retval, align 8
  br label %return

if.else3:                                         ; preds = %if.else
  %3 = load i32, ptr %length.addr, align 4
  %capacity = getelementptr inbounds %"class.icu_75::MaybeStackArray", ptr %this1, i32 0, i32 1
  %4 = load i32, ptr %capacity, align 8
  %cmp4 = icmp sgt i32 %3, %4
  br i1 %cmp4, label %if.then5, label %if.end

if.then5:                                         ; preds = %if.else3
  %capacity6 = getelementptr inbounds %"class.icu_75::MaybeStackArray", ptr %this1, i32 0, i32 1
  %5 = load i32, ptr %capacity6, align 8
  store i32 %5, ptr %length.addr, align 4
  br label %if.end

if.end:                                           ; preds = %if.then5, %if.else3
  %6 = load i32, ptr %length.addr, align 4
  %conv = sext i32 %6 to i64
  %mul = mul i64 %conv, 1
  %call = call noalias ptr @uprv_malloc_75(i64 noundef %mul) #12
  store ptr %call, ptr %p, align 8
  %7 = load ptr, ptr %p, align 8
  %cmp7 = icmp eq ptr %7, null
  br i1 %cmp7, label %if.then8, label %if.end9

if.then8:                                         ; preds = %if.end
  store ptr null, ptr %retval, align 8
  br label %return

if.end9:                                          ; preds = %if.end
  br label %do.body

do.body:                                          ; preds = %if.end9
  %8 = load ptr, ptr %p, align 8
  %ptr10 = getelementptr inbounds %"class.icu_75::MaybeStackArray", ptr %this1, i32 0, i32 0
  %9 = load ptr, ptr %ptr10, align 8
  %10 = load i32, ptr %length.addr, align 4
  %conv11 = sext i32 %10 to i64
  %mul12 = mul i64 %conv11, 1
  call void @llvm.memcpy.p0.p0.i64(ptr align 1 %8, ptr align 1 %9, i64 %mul12, i1 false)
  br label %do.end

do.end:                                           ; preds = %do.body
  br label %if.end13

if.end13:                                         ; preds = %do.end
  br label %if.end14

if.end14:                                         ; preds = %if.end13, %if.then
  %11 = load i32, ptr %length.addr, align 4
  %12 = load ptr, ptr %resultCapacity.addr, align 8
  store i32 %11, ptr %12, align 4
  call void @_ZN6icu_7515MaybeStackArrayIcLi40EE17resetToStackArrayEv(ptr noundef nonnull align 8 dereferenceable(53) %this1)
  %13 = load ptr, ptr %p, align 8
  store ptr %13, ptr %retval, align 8
  br label %return

return:                                           ; preds = %if.end14, %if.then8, %if.then2
  %14 = load ptr, ptr %retval, align 8
  ret ptr %14
}

; Function Attrs: mustprogress uwtable
define weak_odr void @_ZN6icu_7515MaybeStackArrayIcLi40EE8copyFromERKS1_R10UErrorCode(ptr noundef nonnull align 8 dereferenceable(53) %this, ptr noundef nonnull align 8 dereferenceable(53) %src, ptr noundef nonnull align 4 dereferenceable(4) %status) #1 comdat align 2 {
entry:
  %this.addr = alloca ptr, align 8
  %src.addr = alloca ptr, align 8
  %status.addr = alloca ptr, align 8
  store ptr %this, ptr %this.addr, align 8
  store ptr %src, ptr %src.addr, align 8
  store ptr %status, ptr %status.addr, align 8
  %this1 = load ptr, ptr %this.addr, align 8
  %0 = load ptr, ptr %status.addr, align 8
  %1 = load i32, ptr %0, align 4
  %call = call noundef signext i8 @_ZL9U_FAILURE10UErrorCode(i32 noundef %1)
  %tobool = icmp ne i8 %call, 0
  br i1 %tobool, label %if.then, label %if.end

if.then:                                          ; preds = %entry
  br label %do.end

if.end:                                           ; preds = %entry
  %2 = load ptr, ptr %src.addr, align 8
  %capacity = getelementptr inbounds %"class.icu_75::MaybeStackArray", ptr %2, i32 0, i32 1
  %3 = load i32, ptr %capacity, align 8
  %call2 = call noundef ptr @_ZN6icu_7515MaybeStackArrayIcLi40EE6resizeEii(ptr noundef nonnull align 8 dereferenceable(53) %this1, i32 noundef %3, i32 noundef 0)
  %cmp = icmp eq ptr %call2, null
  br i1 %cmp, label %if.then3, label %if.end4

if.then3:                                         ; preds = %if.end
  %4 = load ptr, ptr %status.addr, align 8
  store i32 7, ptr %4, align 4
  br label %do.end

if.end4:                                          ; preds = %if.end
  br label %do.body

do.body:                                          ; preds = %if.end4
  %ptr = getelementptr inbounds %"class.icu_75::MaybeStackArray", ptr %this1, i32 0, i32 0
  %5 = load ptr, ptr %ptr, align 8
  %6 = load ptr, ptr %src.addr, align 8
  %ptr5 = getelementptr inbounds %"class.icu_75::MaybeStackArray", ptr %6, i32 0, i32 0
  %7 = load ptr, ptr %ptr5, align 8
  %capacity6 = getelementptr inbounds %"class.icu_75::MaybeStackArray", ptr %this1, i32 0, i32 1
  %8 = load i32, ptr %capacity6, align 8
  %conv = sext i32 %8 to i64
  %mul = mul i64 %conv, 1
  call void @llvm.memcpy.p0.p0.i64(ptr align 1 %5, ptr align 1 %7, i64 %mul, i1 false)
  br label %do.end

do.end:                                           ; preds = %do.body, %if.then3, %if.then
  ret void
}

declare void @uprv_free_75(ptr noundef) #5

; Function Attrs: mustprogress nounwind uwtable
define void @_ZN6icu_7514GMTOffsetFieldC2Ev(ptr noundef nonnull align 8 dereferenceable(21) %this) unnamed_addr #0 align 2 {
entry:
  %this.addr = alloca ptr, align 8
  store ptr %this, ptr %this.addr, align 8
  %this1 = load ptr, ptr %this.addr, align 8
  store ptr getelementptr inbounds ({ [4 x ptr] }, ptr @_ZTVN6icu_7514GMTOffsetFieldE, i32 0, inrange i32 0, i32 2), ptr %this1, align 8
  %fText = getelementptr inbounds %"class.icu_75::GMTOffsetField", ptr %this1, i32 0, i32 1
  store ptr null, ptr %fText, align 8
  %fType = getelementptr inbounds %"class.icu_75::GMTOffsetField", ptr %this1, i32 0, i32 2
  store i32 0, ptr %fType, align 8
  %fWidth = getelementptr inbounds %"class.icu_75::GMTOffsetField", ptr %this1, i32 0, i32 3
  store i8 0, ptr %fWidth, align 4
  ret void
}

; Function Attrs: mustprogress nounwind uwtable
define void @_ZN6icu_7514GMTOffsetFieldD2Ev(ptr noundef nonnull align 8 dereferenceable(21) %this) unnamed_addr #0 align 2 personality ptr @__gxx_personality_v0 {
entry:
  %this.addr = alloca ptr, align 8
  store ptr %this, ptr %this.addr, align 8
  %this1 = load ptr, ptr %this.addr, align 8
  store ptr getelementptr inbounds ({ [4 x ptr] }, ptr @_ZTVN6icu_7514GMTOffsetFieldE, i32 0, inrange i32 0, i32 2), ptr %this1, align 8
  %fText = getelementptr inbounds %"class.icu_75::GMTOffsetField", ptr %this1, i32 0, i32 1
  %0 = load ptr, ptr %fText, align 8
  %tobool = icmp ne ptr %0, null
  br i1 %tobool, label %if.then, label %if.end

if.then:                                          ; preds = %entry
  %fText2 = getelementptr inbounds %"class.icu_75::GMTOffsetField", ptr %this1, i32 0, i32 1
  %1 = load ptr, ptr %fText2, align 8
  invoke void @uprv_free_75(ptr noundef %1)
          to label %invoke.cont unwind label %terminate.lpad

invoke.cont:                                      ; preds = %if.then
  br label %if.end

if.end:                                           ; preds = %invoke.cont, %entry
  ret void

terminate.lpad:                                   ; preds = %if.then
  %2 = landingpad { ptr, i32 }
          catch ptr null
  %3 = extractvalue { ptr, i32 } %2, 0
  call void @__clang_call_terminate(ptr %3) #13
  unreachable
}

; Function Attrs: mustprogress nounwind uwtable
define void @_ZN6icu_7514GMTOffsetFieldD0Ev(ptr noundef nonnull align 8 dereferenceable(21) %this) unnamed_addr #0 align 2 {
entry:
  %this.addr = alloca ptr, align 8
  store ptr %this, ptr %this.addr, align 8
  %this1 = load ptr, ptr %this.addr, align 8
  call void @_ZN6icu_7514GMTOffsetFieldD1Ev(ptr noundef nonnull align 8 dereferenceable(21) %this1) #11
  call void @_ZN6icu_757UMemorydlEPv(ptr noundef %this1) #11
  ret void
}

; Function Attrs: nounwind
declare void @_ZN6icu_757UMemorydlEPv(ptr noundef) #6

; Function Attrs: mustprogress uwtable
define noundef ptr @_ZN6icu_7514GMTOffsetField10createTextERKNS_13UnicodeStringER10UErrorCode(ptr noundef nonnull align 8 dereferenceable(64) %text, ptr noundef nonnull align 4 dereferenceable(4) %status) #1 align 2 personality ptr @__gxx_personality_v0 {
entry:
  %retval = alloca ptr, align 8
  %text.addr = alloca ptr, align 8
  %status.addr = alloca ptr, align 8
  %result = alloca ptr, align 8
  %saved-rvalue = alloca ptr, align 8
  %cleanup.cond = alloca i1, align 1
  %exn.slot = alloca ptr, align 8
  %ehselector.slot = alloca i32, align 4
  %len = alloca i32, align 4
  store ptr %text, ptr %text.addr, align 8
  store ptr %status, ptr %status.addr, align 8
  %0 = load ptr, ptr %status.addr, align 8
  %1 = load i32, ptr %0, align 4
  %call = call noundef signext i8 @_ZL9U_FAILURE10UErrorCode(i32 noundef %1)
  %tobool = icmp ne i8 %call, 0
  br i1 %tobool, label %if.then, label %if.end

if.then:                                          ; preds = %entry
  store ptr null, ptr %retval, align 8
  br label %return

if.end:                                           ; preds = %entry
  %call1 = call noundef ptr @_ZN6icu_757UMemorynwEm(i64 noundef 24) #11
  %new.isnull = icmp eq ptr %call1, null
  store i1 false, ptr %cleanup.cond, align 1
  br i1 %new.isnull, label %new.cont, label %new.notnull

new.notnull:                                      ; preds = %if.end
  store ptr %call1, ptr %saved-rvalue, align 8
  store i1 true, ptr %cleanup.cond, align 1
  invoke void @_ZN6icu_7514GMTOffsetFieldC1Ev(ptr noundef nonnull align 8 dereferenceable(21) %call1)
          to label %invoke.cont unwind label %lpad

invoke.cont:                                      ; preds = %new.notnull
  br label %new.cont

new.cont:                                         ; preds = %invoke.cont, %if.end
  %2 = phi ptr [ %call1, %invoke.cont ], [ null, %if.end ]
  store ptr %2, ptr %result, align 8
  %3 = load ptr, ptr %result, align 8
  %cmp = icmp eq ptr %3, null
  br i1 %cmp, label %if.then2, label %if.end3

if.then2:                                         ; preds = %new.cont
  %4 = load ptr, ptr %status.addr, align 8
  store i32 7, ptr %4, align 4
  store ptr null, ptr %retval, align 8
  br label %return

lpad:                                             ; preds = %new.notnull
  %5 = landingpad { ptr, i32 }
          cleanup
  %6 = extractvalue { ptr, i32 } %5, 0
  store ptr %6, ptr %exn.slot, align 8
  %7 = extractvalue { ptr, i32 } %5, 1
  store i32 %7, ptr %ehselector.slot, align 4
  %cleanup.is_active = load i1, ptr %cleanup.cond, align 1
  br i1 %cleanup.is_active, label %cleanup.action, label %cleanup.done

cleanup.action:                                   ; preds = %lpad
  %8 = load ptr, ptr %saved-rvalue, align 8
  call void @_ZN6icu_757UMemorydlEPv(ptr noundef %8) #11
  br label %cleanup.done

cleanup.done:                                     ; preds = %cleanup.action, %lpad
  br label %eh.resume

if.end3:                                          ; preds = %new.cont
  %9 = load ptr, ptr %text.addr, align 8
  %call4 = call noundef i32 @_ZNK6icu_7513UnicodeString6lengthEv(ptr noundef nonnull align 8 dereferenceable(64) %9)
  store i32 %call4, ptr %len, align 4
  %10 = load i32, ptr %len, align 4
  %add = add nsw i32 %10, 1
  %conv = sext i32 %add to i64
  %mul = mul i64 %conv, 2
  %call5 = call noalias ptr @uprv_malloc_75(i64 noundef %mul) #12
  %11 = load ptr, ptr %result, align 8
  %fText = getelementptr inbounds %"class.icu_75::GMTOffsetField", ptr %11, i32 0, i32 1
  store ptr %call5, ptr %fText, align 8
  %12 = load ptr, ptr %result, align 8
  %fText6 = getelementptr inbounds %"class.icu_75::GMTOffsetField", ptr %12, i32 0, i32 1
  %13 = load ptr, ptr %fText6, align 8
  %cmp7 = icmp eq ptr %13, null
  br i1 %cmp7, label %if.then8, label %if.end9

if.then8:                                         ; preds = %if.end3
  %14 = load ptr, ptr %status.addr, align 8
  store i32 7, ptr %14, align 4
  %15 = load ptr, ptr %result, align 8
  %isnull = icmp eq ptr %15, null
  br i1 %isnull, label %delete.end, label %delete.notnull

delete.notnull:                                   ; preds = %if.then8
  %vtable = load ptr, ptr %15, align 8
  %vfn = getelementptr inbounds ptr, ptr %vtable, i64 1
  %16 = load ptr, ptr %vfn, align 8
  call void %16(ptr noundef nonnull align 8 dereferenceable(21) %15) #11
  br label %delete.end

delete.end:                                       ; preds = %delete.notnull, %if.then8
  store ptr null, ptr %retval, align 8
  br label %return

if.end9:                                          ; preds = %if.end3
  %17 = load ptr, ptr %result, align 8
  %fText10 = getelementptr inbounds %"class.icu_75::GMTOffsetField", ptr %17, i32 0, i32 1
  %18 = load ptr, ptr %fText10, align 8
  %19 = load ptr, ptr %text.addr, align 8
  %call11 = call noundef ptr @_ZNK6icu_7513UnicodeString9getBufferEv(ptr noundef nonnull align 8 dereferenceable(64) %19)
  %20 = load i32, ptr %len, align 4
  %call12 = call ptr @u_strncpy_75(ptr noundef %18, ptr noundef %call11, i32 noundef %20)
  %21 = load ptr, ptr %result, align 8
  %fText13 = getelementptr inbounds %"class.icu_75::GMTOffsetField", ptr %21, i32 0, i32 1
  %22 = load ptr, ptr %fText13, align 8
  %23 = load i32, ptr %len, align 4
  %idxprom = sext i32 %23 to i64
  %arrayidx = getelementptr inbounds i16, ptr %22, i64 %idxprom
  store i16 0, ptr %arrayidx, align 2
  %24 = load ptr, ptr %result, align 8
  %fType = getelementptr inbounds %"class.icu_75::GMTOffsetField", ptr %24, i32 0, i32 2
  store i32 0, ptr %fType, align 8
  %25 = load ptr, ptr %result, align 8
  store ptr %25, ptr %retval, align 8
  br label %return

return:                                           ; preds = %if.end9, %delete.end, %if.then2, %if.then
  %26 = load ptr, ptr %retval, align 8
  ret ptr %26

eh.resume:                                        ; preds = %cleanup.done
  %exn = load ptr, ptr %exn.slot, align 8
  %sel = load i32, ptr %ehselector.slot, align 4
  %lpad.val = insertvalue { ptr, i32 } poison, ptr %exn, 0
  %lpad.val14 = insertvalue { ptr, i32 } %lpad.val, i32 %sel, 1
  resume { ptr, i32 } %lpad.val14
}

; Function Attrs: nounwind
declare noundef ptr @_ZN6icu_757UMemorynwEm(i64 noundef) #6

; Function Attrs: mustprogress uwtable
define linkonce_odr noundef i32 @_ZNK6icu_7513UnicodeString6lengthEv(ptr noundef nonnull align 8 dereferenceable(64) %this) #1 comdat align 2 {
entry:
  %this.addr = alloca ptr, align 8
  store ptr %this, ptr %this.addr, align 8
  %this1 = load ptr, ptr %this.addr, align 8
  %call = call noundef signext i8 @_ZNK6icu_7513UnicodeString14hasShortLengthEv(ptr noundef nonnull align 8 dereferenceable(64) %this1)
  %tobool = icmp ne i8 %call, 0
  br i1 %tobool, label %cond.true, label %cond.false

cond.true:                                        ; preds = %entry
  %call2 = call noundef i32 @_ZNK6icu_7513UnicodeString14getShortLengthEv(ptr noundef nonnull align 8 dereferenceable(64) %this1)
  br label %cond.end

cond.false:                                       ; preds = %entry
  %fUnion = getelementptr inbounds %"class.icu_75::UnicodeString", ptr %this1, i32 0, i32 1
  %fLength = getelementptr inbounds %struct.anon.0, ptr %fUnion, i32 0, i32 1
  %0 = load i32, ptr %fLength, align 4
  br label %cond.end

cond.end:                                         ; preds = %cond.false, %cond.true
  %cond = phi i32 [ %call2, %cond.true ], [ %0, %cond.false ]
  ret i32 %cond
}

declare ptr @u_strncpy_75(ptr noundef, ptr noundef, i32 noundef) #5

; Function Attrs: mustprogress nounwind uwtable
define linkonce_odr noundef ptr @_ZNK6icu_7513UnicodeString9getBufferEv(ptr noundef nonnull align 8 dereferenceable(64) %this) #0 comdat align 2 {
entry:
  %retval = alloca ptr, align 8
  %this.addr = alloca ptr, align 8
  store ptr %this, ptr %this.addr, align 8
  %this1 = load ptr, ptr %this.addr, align 8
  %fUnion = getelementptr inbounds %"class.icu_75::UnicodeString", ptr %this1, i32 0, i32 1
  %fLengthAndFlags = getelementptr inbounds %struct.anon.0, ptr %fUnion, i32 0, i32 0
  %0 = load i16, ptr %fLengthAndFlags, align 8
  %conv = sext i16 %0 to i32
  %and = and i32 %conv, 17
  %tobool = icmp ne i32 %and, 0
  br i1 %tobool, label %if.then, label %if.else

if.then:                                          ; preds = %entry
  store ptr null, ptr %retval, align 8
  br label %return

if.else:                                          ; preds = %entry
  %fUnion2 = getelementptr inbounds %"class.icu_75::UnicodeString", ptr %this1, i32 0, i32 1
  %fLengthAndFlags3 = getelementptr inbounds %struct.anon.0, ptr %fUnion2, i32 0, i32 0
  %1 = load i16, ptr %fLengthAndFlags3, align 8
  %conv4 = sext i16 %1 to i32
  %and5 = and i32 %conv4, 2
  %tobool6 = icmp ne i32 %and5, 0
  br i1 %tobool6, label %if.then7, label %if.else9

if.then7:                                         ; preds = %if.else
  %fUnion8 = getelementptr inbounds %"class.icu_75::UnicodeString", ptr %this1, i32 0, i32 1
  %fBuffer = getelementptr inbounds %struct.anon, ptr %fUnion8, i32 0, i32 1
  %arraydecay = getelementptr inbounds [27 x i16], ptr %fBuffer, i64 0, i64 0
  store ptr %arraydecay, ptr %retval, align 8
  br label %return

if.else9:                                         ; preds = %if.else
  %fUnion10 = getelementptr inbounds %"class.icu_75::UnicodeString", ptr %this1, i32 0, i32 1
  %fArray = getelementptr inbounds %struct.anon.0, ptr %fUnion10, i32 0, i32 3
  %2 = load ptr, ptr %fArray, align 8
  store ptr %2, ptr %retval, align 8
  br label %return

return:                                           ; preds = %if.else9, %if.then7, %if.then
  %3 = load ptr, ptr %retval, align 8
  ret ptr %3
}

; Function Attrs: mustprogress uwtable
define noundef ptr @_ZN6icu_7514GMTOffsetField15createTimeFieldENS0_9FieldTypeEhR10UErrorCode(i32 noundef %type, i8 noundef zeroext %width, ptr noundef nonnull align 4 dereferenceable(4) %status) #1 align 2 personality ptr @__gxx_personality_v0 {
entry:
  %retval = alloca ptr, align 8
  %type.addr = alloca i32, align 4
  %width.addr = alloca i8, align 1
  %status.addr = alloca ptr, align 8
  %result = alloca ptr, align 8
  %saved-rvalue = alloca ptr, align 8
  %cleanup.cond = alloca i1, align 1
  %exn.slot = alloca ptr, align 8
  %ehselector.slot = alloca i32, align 4
  store i32 %type, ptr %type.addr, align 4
  store i8 %width, ptr %width.addr, align 1
  store ptr %status, ptr %status.addr, align 8
  %0 = load ptr, ptr %status.addr, align 8
  %1 = load i32, ptr %0, align 4
  %call = call noundef signext i8 @_ZL9U_FAILURE10UErrorCode(i32 noundef %1)
  %tobool = icmp ne i8 %call, 0
  br i1 %tobool, label %if.then, label %if.end

if.then:                                          ; preds = %entry
  store ptr null, ptr %retval, align 8
  br label %return

if.end:                                           ; preds = %entry
  %call1 = call noundef ptr @_ZN6icu_757UMemorynwEm(i64 noundef 24) #11
  %new.isnull = icmp eq ptr %call1, null
  store i1 false, ptr %cleanup.cond, align 1
  br i1 %new.isnull, label %new.cont, label %new.notnull

new.notnull:                                      ; preds = %if.end
  store ptr %call1, ptr %saved-rvalue, align 8
  store i1 true, ptr %cleanup.cond, align 1
  invoke void @_ZN6icu_7514GMTOffsetFieldC1Ev(ptr noundef nonnull align 8 dereferenceable(21) %call1)
          to label %invoke.cont unwind label %lpad

invoke.cont:                                      ; preds = %new.notnull
  br label %new.cont

new.cont:                                         ; preds = %invoke.cont, %if.end
  %2 = phi ptr [ %call1, %invoke.cont ], [ null, %if.end ]
  store ptr %2, ptr %result, align 8
  %3 = load ptr, ptr %result, align 8
  %cmp = icmp eq ptr %3, null
  br i1 %cmp, label %if.then2, label %if.end3

if.then2:                                         ; preds = %new.cont
  %4 = load ptr, ptr %status.addr, align 8
  store i32 7, ptr %4, align 4
  store ptr null, ptr %retval, align 8
  br label %return

lpad:                                             ; preds = %new.notnull
  %5 = landingpad { ptr, i32 }
          cleanup
  %6 = extractvalue { ptr, i32 } %5, 0
  store ptr %6, ptr %exn.slot, align 8
  %7 = extractvalue { ptr, i32 } %5, 1
  store i32 %7, ptr %ehselector.slot, align 4
  %cleanup.is_active = load i1, ptr %cleanup.cond, align 1
  br i1 %cleanup.is_active, label %cleanup.action, label %cleanup.done

cleanup.action:                                   ; preds = %lpad
  %8 = load ptr, ptr %saved-rvalue, align 8
  call void @_ZN6icu_757UMemorydlEPv(ptr noundef %8) #11
  br label %cleanup.done

cleanup.done:                                     ; preds = %cleanup.action, %lpad
  br label %eh.resume

if.end3:                                          ; preds = %new.cont
  %9 = load i32, ptr %type.addr, align 4
  %10 = load ptr, ptr %result, align 8
  %fType = getelementptr inbounds %"class.icu_75::GMTOffsetField", ptr %10, i32 0, i32 2
  store i32 %9, ptr %fType, align 8
  %11 = load i8, ptr %width.addr, align 1
  %12 = load ptr, ptr %result, align 8
  %fWidth = getelementptr inbounds %"class.icu_75::GMTOffsetField", ptr %12, i32 0, i32 3
  store i8 %11, ptr %fWidth, align 4
  %13 = load ptr, ptr %result, align 8
  store ptr %13, ptr %retval, align 8
  br label %return

return:                                           ; preds = %if.end3, %if.then2, %if.then
  %14 = load ptr, ptr %retval, align 8
  ret ptr %14

eh.resume:                                        ; preds = %cleanup.done
  %exn = load ptr, ptr %exn.slot, align 8
  %sel = load i32, ptr %ehselector.slot, align 4
  %lpad.val = insertvalue { ptr, i32 } poison, ptr %exn, 0
  %lpad.val4 = insertvalue { ptr, i32 } %lpad.val, i32 %sel, 1
  resume { ptr, i32 } %lpad.val4
}

; Function Attrs: mustprogress nounwind uwtable
define noundef signext i8 @_ZN6icu_7514GMTOffsetField7isValidENS0_9FieldTypeEi(i32 noundef %type, i32 noundef %width) #0 align 2 {
entry:
  %retval = alloca i8, align 1
  %type.addr = alloca i32, align 4
  %width.addr = alloca i32, align 4
  store i32 %type, ptr %type.addr, align 4
  store i32 %width, ptr %width.addr, align 4
  %0 = load i32, ptr %type.addr, align 4
  switch i32 %0, label %sw.default [
    i32 1, label %sw.bb
    i32 2, label %sw.bb2
    i32 4, label %sw.bb2
  ]

sw.bb:                                            ; preds = %entry
  %1 = load i32, ptr %width.addr, align 4
  %cmp = icmp eq i32 %1, 1
  br i1 %cmp, label %lor.end, label %lor.rhs

lor.rhs:                                          ; preds = %sw.bb
  %2 = load i32, ptr %width.addr, align 4
  %cmp1 = icmp eq i32 %2, 2
  br label %lor.end

lor.end:                                          ; preds = %lor.rhs, %sw.bb
  %3 = phi i1 [ true, %sw.bb ], [ %cmp1, %lor.rhs ]
  %conv = zext i1 %3 to i8
  store i8 %conv, ptr %retval, align 1
  br label %return

sw.bb2:                                           ; preds = %entry, %entry
  %4 = load i32, ptr %width.addr, align 4
  %cmp3 = icmp eq i32 %4, 2
  %conv4 = zext i1 %cmp3 to i8
  store i8 %conv4, ptr %retval, align 1
  br label %return

sw.default:                                       ; preds = %entry
  call void @abort() #13
  unreachable

return:                                           ; preds = %sw.bb2, %lor.end
  %5 = load i8, ptr %retval, align 1
  ret i8 %5
}

; Function Attrs: noreturn nounwind
declare void @abort() #7

; Function Attrs: mustprogress nounwind uwtable
define noundef i32 @_ZN6icu_7514GMTOffsetField15getTypeByLetterEDs(i16 noundef zeroext %ch) #0 align 2 {
entry:
  %retval = alloca i32, align 4
  %ch.addr = alloca i16, align 2
  store i16 %ch, ptr %ch.addr, align 2
  %0 = load i16, ptr %ch.addr, align 2
  %conv = zext i16 %0 to i32
  %cmp = icmp eq i32 %conv, 72
  br i1 %cmp, label %if.then, label %if.else

if.then:                                          ; preds = %entry
  store i32 1, ptr %retval, align 4
  br label %return

if.else:                                          ; preds = %entry
  %1 = load i16, ptr %ch.addr, align 2
  %conv1 = zext i16 %1 to i32
  %cmp2 = icmp eq i32 %conv1, 109
  br i1 %cmp2, label %if.then3, label %if.else4

if.then3:                                         ; preds = %if.else
  store i32 2, ptr %retval, align 4
  br label %return

if.else4:                                         ; preds = %if.else
  %2 = load i16, ptr %ch.addr, align 2
  %conv5 = zext i16 %2 to i32
  %cmp6 = icmp eq i32 %conv5, 115
  br i1 %cmp6, label %if.then7, label %if.end

if.then7:                                         ; preds = %if.else4
  store i32 4, ptr %retval, align 4
  br label %return

if.end:                                           ; preds = %if.else4
  br label %if.end8

if.end8:                                          ; preds = %if.end
  br label %if.end9

if.end9:                                          ; preds = %if.end8
  store i32 0, ptr %retval, align 4
  br label %return

return:                                           ; preds = %if.end9, %if.then7, %if.then3, %if.then
  %3 = load i32, ptr %retval, align 4
  ret i32 %3
}

; Function Attrs: mustprogress nounwind uwtable
define noundef ptr @_ZN6icu_7514TimeZoneFormat16getStaticClassIDEv() #0 align 2 {
entry:
  ret ptr @_ZZN6icu_7514TimeZoneFormat16getStaticClassIDEvE7classID
}

; Function Attrs: mustprogress nounwind uwtable
define noundef ptr @_ZNK6icu_7514TimeZoneFormat17getDynamicClassIDEv(ptr noundef nonnull align 8 dereferenceable(1328) %this) unnamed_addr #0 align 2 {
entry:
  %this.addr = alloca ptr, align 8
  store ptr %this, ptr %this.addr, align 8
  %call = call noundef ptr @_ZN6icu_7514TimeZoneFormat16getStaticClassIDEv()
  ret ptr %call
}

; Function Attrs: mustprogress uwtable
define void @_ZN6icu_7514TimeZoneFormatC2ERKNS_6LocaleER10UErrorCode(ptr noundef nonnull align 8 dereferenceable(1328) %this, ptr noundef nonnull align 8 dereferenceable(217) %locale, ptr noundef nonnull align 4 dereferenceable(4) %status) unnamed_addr #1 align 2 personality ptr @__gxx_personality_v0 {
entry:
  %this.addr = alloca ptr, align 8
  %locale.addr = alloca ptr, align 8
  %status.addr = alloca ptr, align 8
  %exn.slot = alloca ptr, align 8
  %ehselector.slot = alloca i32, align 4
  %i = alloca i32, align 4
  %region = alloca ptr, align 8
  %regionLen = alloca i32, align 4
  %tempStatus = alloca i32, align 4
  %loc = alloca %"class.icu_75::CharString", align 8
  %sink = alloca %"class.icu_75::CharStringByteSink", align 8
  %gmtPattern = alloca ptr, align 8
  %hourFormats = alloca ptr, align 8
  %zoneBundle = alloca ptr, align 8
  %zoneStringsArray = alloca ptr, align 8
  %resStr = alloca ptr, align 8
  %len = alloca i32, align 4
  %agg.tmp = alloca %"class.icu_75::ConstChar16Ptr", align 8
  %ref.tmp = alloca %"class.icu_75::UnicodeString", align 8
  %agg.tmp94 = alloca %"class.icu_75::ConstChar16Ptr", align 8
  %useDefaultOffsetPatterns = alloca i8, align 1
  %sep = alloca ptr, align 8
  %tmpStatus = alloca i32, align 4
  %agg.tmp110 = alloca %"class.icu_75::ConstChar16Ptr", align 8
  %agg.tmp119 = alloca %"class.icu_75::ConstChar16Ptr", align 8
  %agg.tmp160 = alloca %"class.icu_75::ConstChar16Ptr", align 8
  %agg.tmp168 = alloca %"class.icu_75::ConstChar16Ptr", align 8
  %agg.tmp176 = alloca %"class.icu_75::ConstChar16Ptr", align 8
  %agg.tmp184 = alloca %"class.icu_75::ConstChar16Ptr", align 8
  %agg.tmp192 = alloca %"class.icu_75::ConstChar16Ptr", align 8
  %agg.tmp200 = alloca %"class.icu_75::ConstChar16Ptr", align 8
  %ns = alloca ptr, align 8
  %useDefDigits = alloca i8, align 1
  %digits = alloca %"class.icu_75::UnicodeString", align 8
  store ptr %this, ptr %this.addr, align 8
  store ptr %locale, ptr %locale.addr, align 8
  store ptr %status, ptr %status.addr, align 8
  %this1 = load ptr, ptr %this.addr, align 8
  call void @_ZN6icu_756FormatC2Ev(ptr noundef nonnull align 8 dereferenceable(322) %this1)
  store ptr getelementptr inbounds ({ [12 x ptr] }, ptr @_ZTVN6icu_7514TimeZoneFormatE, i32 0, inrange i32 0, i32 2), ptr %this1, align 8
  %fLocale = getelementptr inbounds %"class.icu_75::TimeZoneFormat", ptr %this1, i32 0, i32 2
  %0 = load ptr, ptr %locale.addr, align 8
  invoke void @_ZN6icu_756LocaleC1ERKS0_(ptr noundef nonnull align 8 dereferenceable(217) %fLocale, ptr noundef nonnull align 8 dereferenceable(217) %0)
          to label %invoke.cont unwind label %lpad

invoke.cont:                                      ; preds = %entry
  %fTimeZoneNames = getelementptr inbounds %"class.icu_75::TimeZoneFormat", ptr %this1, i32 0, i32 4
  store ptr null, ptr %fTimeZoneNames, align 8
  %fTimeZoneGenericNames = getelementptr inbounds %"class.icu_75::TimeZoneFormat", ptr %this1, i32 0, i32 5
  store ptr null, ptr %fTimeZoneGenericNames, align 8
  %fGMTPattern = getelementptr inbounds %"class.icu_75::TimeZoneFormat", ptr %this1, i32 0, i32 6
  invoke void @_ZN6icu_7513UnicodeStringC2Ev(ptr noundef nonnull align 8 dereferenceable(64) %fGMTPattern)
          to label %invoke.cont3 unwind label %lpad2

invoke.cont3:                                     ; preds = %invoke.cont
  %fGMTOffsetPatterns = getelementptr inbounds %"class.icu_75::TimeZoneFormat", ptr %this1, i32 0, i32 7
  %array.begin = getelementptr inbounds [6 x %"class.icu_75::UnicodeString"], ptr %fGMTOffsetPatterns, i32 0, i32 0
  %arrayctor.end = getelementptr inbounds %"class.icu_75::UnicodeString", ptr %array.begin, i64 6
  br label %arrayctor.loop

arrayctor.loop:                                   ; preds = %invoke.cont5, %invoke.cont3
  %arrayctor.cur = phi ptr [ %array.begin, %invoke.cont3 ], [ %arrayctor.next, %invoke.cont5 ]
  invoke void @_ZN6icu_7513UnicodeStringC2Ev(ptr noundef nonnull align 8 dereferenceable(64) %arrayctor.cur)
          to label %invoke.cont5 unwind label %lpad4

invoke.cont5:                                     ; preds = %arrayctor.loop
  %arrayctor.next = getelementptr inbounds %"class.icu_75::UnicodeString", ptr %arrayctor.cur, i64 1
  %arrayctor.done = icmp eq ptr %arrayctor.next, %arrayctor.end
  br i1 %arrayctor.done, label %arrayctor.cont, label %arrayctor.loop

arrayctor.cont:                                   ; preds = %invoke.cont5
  %fGMTZeroFormat = getelementptr inbounds %"class.icu_75::TimeZoneFormat", ptr %this1, i32 0, i32 9
  invoke void @_ZN6icu_7513UnicodeStringC2Ev(ptr noundef nonnull align 8 dereferenceable(64) %fGMTZeroFormat)
          to label %invoke.cont8 unwind label %lpad7

invoke.cont8:                                     ; preds = %arrayctor.cont
  %fDefParseOptionFlags = getelementptr inbounds %"class.icu_75::TimeZoneFormat", ptr %this1, i32 0, i32 10
  store i32 0, ptr %fDefParseOptionFlags, align 8
  %fGMTPatternPrefix = getelementptr inbounds %"class.icu_75::TimeZoneFormat", ptr %this1, i32 0, i32 11
  invoke void @_ZN6icu_7513UnicodeStringC2Ev(ptr noundef nonnull align 8 dereferenceable(64) %fGMTPatternPrefix)
          to label %invoke.cont10 unwind label %lpad9

invoke.cont10:                                    ; preds = %invoke.cont8
  %fGMTPatternSuffix = getelementptr inbounds %"class.icu_75::TimeZoneFormat", ptr %this1, i32 0, i32 12
  invoke void @_ZN6icu_7513UnicodeStringC2Ev(ptr noundef nonnull align 8 dereferenceable(64) %fGMTPatternSuffix)
          to label %invoke.cont12 unwind label %lpad11

invoke.cont12:                                    ; preds = %invoke.cont10
  %fTZDBTimeZoneNames = getelementptr inbounds %"class.icu_75::TimeZoneFormat", ptr %this1, i32 0, i32 15
  store ptr null, ptr %fTZDBTimeZoneNames, align 8
  store i32 0, ptr %i, align 4
  br label %for.cond

for.cond:                                         ; preds = %for.inc, %invoke.cont12
  %1 = load i32, ptr %i, align 4
  %cmp = icmp slt i32 %1, 6
  br i1 %cmp, label %for.body, label %for.end

for.body:                                         ; preds = %for.cond
  %fGMTOffsetPatternItems = getelementptr inbounds %"class.icu_75::TimeZoneFormat", ptr %this1, i32 0, i32 13
  %2 = load i32, ptr %i, align 4
  %idxprom = sext i32 %2 to i64
  %arrayidx = getelementptr inbounds [6 x ptr], ptr %fGMTOffsetPatternItems, i64 0, i64 %idxprom
  store ptr null, ptr %arrayidx, align 8
  br label %for.inc

for.inc:                                          ; preds = %for.body
  %3 = load i32, ptr %i, align 4
  %inc = add nsw i32 %3, 1
  store i32 %inc, ptr %i, align 4
  br label %for.cond, !llvm.loop !4

lpad:                                             ; preds = %entry
  %4 = landingpad { ptr, i32 }
          cleanup
  %5 = extractvalue { ptr, i32 } %4, 0
  store ptr %5, ptr %exn.slot, align 8
  %6 = extractvalue { ptr, i32 } %4, 1
  store i32 %6, ptr %ehselector.slot, align 4
  br label %ehcleanup243

lpad2:                                            ; preds = %invoke.cont
  %7 = landingpad { ptr, i32 }
          cleanup
  %8 = extractvalue { ptr, i32 } %7, 0
  store ptr %8, ptr %exn.slot, align 8
  %9 = extractvalue { ptr, i32 } %7, 1
  store i32 %9, ptr %ehselector.slot, align 4
  br label %ehcleanup242

lpad4:                                            ; preds = %arrayctor.loop
  %10 = landingpad { ptr, i32 }
          cleanup
  %11 = extractvalue { ptr, i32 } %10, 0
  store ptr %11, ptr %exn.slot, align 8
  %12 = extractvalue { ptr, i32 } %10, 1
  store i32 %12, ptr %ehselector.slot, align 4
  %arraydestroy.isempty = icmp eq ptr %array.begin, %arrayctor.cur
  br i1 %arraydestroy.isempty, label %arraydestroy.done6, label %arraydestroy.body

arraydestroy.body:                                ; preds = %arraydestroy.body, %lpad4
  %arraydestroy.elementPast = phi ptr [ %arrayctor.cur, %lpad4 ], [ %arraydestroy.element, %arraydestroy.body ]
  %arraydestroy.element = getelementptr inbounds %"class.icu_75::UnicodeString", ptr %arraydestroy.elementPast, i64 -1
  call void @_ZN6icu_7513UnicodeStringD1Ev(ptr noundef nonnull align 8 dereferenceable(64) %arraydestroy.element) #11
  %arraydestroy.done = icmp eq ptr %arraydestroy.element, %array.begin
  br i1 %arraydestroy.done, label %arraydestroy.done6, label %arraydestroy.body

arraydestroy.done6:                               ; preds = %arraydestroy.body, %lpad4
  br label %ehcleanup241

lpad7:                                            ; preds = %arrayctor.cont
  %13 = landingpad { ptr, i32 }
          cleanup
  %14 = extractvalue { ptr, i32 } %13, 0
  store ptr %14, ptr %exn.slot, align 8
  %15 = extractvalue { ptr, i32 } %13, 1
  store i32 %15, ptr %ehselector.slot, align 4
  br label %ehcleanup234

lpad9:                                            ; preds = %invoke.cont8
  %16 = landingpad { ptr, i32 }
          cleanup
  %17 = extractvalue { ptr, i32 } %16, 0
  store ptr %17, ptr %exn.slot, align 8
  %18 = extractvalue { ptr, i32 } %16, 1
  store i32 %18, ptr %ehselector.slot, align 4
  br label %ehcleanup233

lpad11:                                           ; preds = %invoke.cont10
  %19 = landingpad { ptr, i32 }
          cleanup
  %20 = extractvalue { ptr, i32 } %19, 0
  store ptr %20, ptr %exn.slot, align 8
  %21 = extractvalue { ptr, i32 } %19, 1
  store i32 %21, ptr %ehselector.slot, align 4
  br label %ehcleanup232

for.end:                                          ; preds = %for.cond
  %fLocale13 = getelementptr inbounds %"class.icu_75::TimeZoneFormat", ptr %this1, i32 0, i32 2
  %call = invoke noundef ptr @_ZNK6icu_756Locale10getCountryEv(ptr noundef nonnull align 8 dereferenceable(217) %fLocale13)
          to label %invoke.cont15 unwind label %lpad14

invoke.cont15:                                    ; preds = %for.end
  store ptr %call, ptr %region, align 8
  %22 = load ptr, ptr %region, align 8
  %call16 = call i64 @strlen(ptr noundef %22) #14
  %conv = trunc i64 %call16 to i32
  store i32 %conv, ptr %regionLen, align 4
  %23 = load i32, ptr %regionLen, align 4
  %cmp17 = icmp eq i32 %23, 0
  br i1 %cmp17, label %if.then, label %if.else38

if.then:                                          ; preds = %invoke.cont15
  store i32 0, ptr %tempStatus, align 4
  invoke void @_ZN6icu_7510CharStringC2Ev(ptr noundef nonnull align 8 dereferenceable(60) %loc)
          to label %invoke.cont18 unwind label %lpad14

invoke.cont18:                                    ; preds = %if.then
  invoke void @_ZN6icu_7518CharStringByteSinkC1EPNS_10CharStringE(ptr noundef nonnull align 8 dereferenceable(16) %sink, ptr noundef %loc)
          to label %invoke.cont20 unwind label %lpad19

invoke.cont20:                                    ; preds = %invoke.cont18
  %fLocale21 = getelementptr inbounds %"class.icu_75::TimeZoneFormat", ptr %this1, i32 0, i32 2
  %call24 = invoke noundef ptr @_ZNK6icu_756Locale7getNameEv(ptr noundef nonnull align 8 dereferenceable(217) %fLocale21)
          to label %invoke.cont23 unwind label %lpad22

invoke.cont23:                                    ; preds = %invoke.cont20
  invoke void @ulocimp_addLikelySubtags_75(ptr noundef %call24, ptr noundef nonnull align 8 dereferenceable(8) %sink, ptr noundef %tempStatus)
          to label %invoke.cont25 unwind label %lpad22

invoke.cont25:                                    ; preds = %invoke.cont23
  call void @_ZN6icu_7518CharStringByteSinkD1Ev(ptr noundef nonnull align 8 dereferenceable(16) %sink) #11
  %call27 = invoke noundef ptr @_ZN6icu_7510CharString4dataEv(ptr noundef nonnull align 8 dereferenceable(60) %loc)
          to label %invoke.cont26 unwind label %lpad19

invoke.cont26:                                    ; preds = %invoke.cont25
  %fTargetRegion = getelementptr inbounds %"class.icu_75::TimeZoneFormat", ptr %this1, i32 0, i32 3
  %arraydecay = getelementptr inbounds [4 x i8], ptr %fTargetRegion, i64 0, i64 0
  %call29 = invoke i32 @uloc_getCountry_75(ptr noundef %call27, ptr noundef %arraydecay, i32 noundef 4, ptr noundef %tempStatus)
          to label %invoke.cont28 unwind label %lpad19

invoke.cont28:                                    ; preds = %invoke.cont26
  store i32 %call29, ptr %regionLen, align 4
  %24 = load i32, ptr %tempStatus, align 4
  %call31 = invoke noundef signext i8 @_ZL9U_SUCCESS10UErrorCode(i32 noundef %24)
          to label %invoke.cont30 unwind label %lpad19

invoke.cont30:                                    ; preds = %invoke.cont28
  %tobool = icmp ne i8 %call31, 0
  br i1 %tobool, label %if.then32, label %if.else

if.then32:                                        ; preds = %invoke.cont30
  %fTargetRegion33 = getelementptr inbounds %"class.icu_75::TimeZoneFormat", ptr %this1, i32 0, i32 3
  %25 = load i32, ptr %regionLen, align 4
  %idxprom34 = sext i32 %25 to i64
  %arrayidx35 = getelementptr inbounds [4 x i8], ptr %fTargetRegion33, i64 0, i64 %idxprom34
  store i8 0, ptr %arrayidx35, align 1
  br label %if.end

lpad14:                                           ; preds = %if.then214, %land.lhs.true, %invoke.cont207, %if.end206, %invoke.cont195, %invoke.cont187, %invoke.cont179, %invoke.cont171, %invoke.cont163, %if.then157, %invoke.cont147, %invoke.cont141, %invoke.cont135, %invoke.cont129, %invoke.cont122, %invoke.cont114, %if.then107, %if.then103, %if.end93, %invoke.cont88, %if.end87, %if.end82, %if.then75, %if.end71, %if.then66, %invoke.cont61, %invoke.cont59, %invoke.cont57, %if.end56, %invoke.cont49, %if.end48, %if.then, %for.end
  %26 = landingpad { ptr, i32 }
          cleanup
  %27 = extractvalue { ptr, i32 } %26, 0
  store ptr %27, ptr %exn.slot, align 8
  %28 = extractvalue { ptr, i32 } %26, 1
  store i32 %28, ptr %ehselector.slot, align 4
  br label %ehcleanup231

lpad19:                                           ; preds = %invoke.cont28, %invoke.cont26, %invoke.cont25, %invoke.cont18
  %29 = landingpad { ptr, i32 }
          cleanup
  %30 = extractvalue { ptr, i32 } %29, 0
  store ptr %30, ptr %exn.slot, align 8
  %31 = extractvalue { ptr, i32 } %29, 1
  store i32 %31, ptr %ehselector.slot, align 4
  br label %ehcleanup

lpad22:                                           ; preds = %invoke.cont23, %invoke.cont20
  %32 = landingpad { ptr, i32 }
          cleanup
  %33 = extractvalue { ptr, i32 } %32, 0
  store ptr %33, ptr %exn.slot, align 8
  %34 = extractvalue { ptr, i32 } %32, 1
  store i32 %34, ptr %ehselector.slot, align 4
  call void @_ZN6icu_7518CharStringByteSinkD1Ev(ptr noundef nonnull align 8 dereferenceable(16) %sink) #11
  br label %ehcleanup

if.else:                                          ; preds = %invoke.cont30
  %fTargetRegion36 = getelementptr inbounds %"class.icu_75::TimeZoneFormat", ptr %this1, i32 0, i32 3
  %arrayidx37 = getelementptr inbounds [4 x i8], ptr %fTargetRegion36, i64 0, i64 0
  store i8 0, ptr %arrayidx37, align 8
  br label %if.end

if.end:                                           ; preds = %if.else, %if.then32
  call void @_ZN6icu_7510CharStringD2Ev(ptr noundef nonnull align 8 dereferenceable(60) %loc) #11
  br label %if.end48

ehcleanup:                                        ; preds = %lpad22, %lpad19
  call void @_ZN6icu_7510CharStringD2Ev(ptr noundef nonnull align 8 dereferenceable(60) %loc) #11
  br label %ehcleanup231

if.else38:                                        ; preds = %invoke.cont15
  %35 = load i32, ptr %regionLen, align 4
  %cmp39 = icmp slt i32 %35, 4
  br i1 %cmp39, label %if.then40, label %if.else44

if.then40:                                        ; preds = %if.else38
  %fTargetRegion41 = getelementptr inbounds %"class.icu_75::TimeZoneFormat", ptr %this1, i32 0, i32 3
  %arraydecay42 = getelementptr inbounds [4 x i8], ptr %fTargetRegion41, i64 0, i64 0
  %36 = load ptr, ptr %region, align 8
  %call43 = call ptr @strcpy(ptr noundef %arraydecay42, ptr noundef %36) #11
  br label %if.end47

if.else44:                                        ; preds = %if.else38
  %fTargetRegion45 = getelementptr inbounds %"class.icu_75::TimeZoneFormat", ptr %this1, i32 0, i32 3
  %arrayidx46 = getelementptr inbounds [4 x i8], ptr %fTargetRegion45, i64 0, i64 0
  store i8 0, ptr %arrayidx46, align 8
  br label %if.end47

if.end47:                                         ; preds = %if.else44, %if.then40
  br label %if.end48

if.end48:                                         ; preds = %if.end47, %if.end
  %37 = load ptr, ptr %locale.addr, align 8
  %38 = load ptr, ptr %status.addr, align 8
  %call50 = invoke noundef ptr @_ZN6icu_7513TimeZoneNames14createInstanceERKNS_6LocaleER10UErrorCode(ptr noundef nonnull align 8 dereferenceable(217) %37, ptr noundef nonnull align 4 dereferenceable(4) %38)
          to label %invoke.cont49 unwind label %lpad14

invoke.cont49:                                    ; preds = %if.end48
  %fTimeZoneNames51 = getelementptr inbounds %"class.icu_75::TimeZoneFormat", ptr %this1, i32 0, i32 4
  store ptr %call50, ptr %fTimeZoneNames51, align 8
  %39 = load ptr, ptr %status.addr, align 8
  %40 = load i32, ptr %39, align 4
  %call53 = invoke noundef signext i8 @_ZL9U_FAILURE10UErrorCode(i32 noundef %40)
          to label %invoke.cont52 unwind label %lpad14

invoke.cont52:                                    ; preds = %invoke.cont49
  %tobool54 = icmp ne i8 %call53, 0
  br i1 %tobool54, label %if.then55, label %if.end56

if.then55:                                        ; preds = %invoke.cont52
  br label %delete.end

if.end56:                                         ; preds = %invoke.cont52
  store ptr null, ptr %gmtPattern, align 8
  store ptr null, ptr %hourFormats, align 8
  %41 = load ptr, ptr %locale.addr, align 8
  %call58 = invoke noundef ptr @_ZNK6icu_756Locale7getNameEv(ptr noundef nonnull align 8 dereferenceable(217) %41)
          to label %invoke.cont57 unwind label %lpad14

invoke.cont57:                                    ; preds = %if.end56
  %42 = load ptr, ptr %status.addr, align 8
  %call60 = invoke ptr @ures_open_75(ptr noundef @.str, ptr noundef %call58, ptr noundef %42)
          to label %invoke.cont59 unwind label %lpad14

invoke.cont59:                                    ; preds = %invoke.cont57
  store ptr %call60, ptr %zoneBundle, align 8
  %43 = load ptr, ptr %zoneBundle, align 8
  %44 = load ptr, ptr %status.addr, align 8
  %call62 = invoke ptr @ures_getByKeyWithFallback_75(ptr noundef %43, ptr noundef @_ZN6icu_75L15gZoneStringsTagE, ptr noundef null, ptr noundef %44)
          to label %invoke.cont61 unwind label %lpad14

invoke.cont61:                                    ; preds = %invoke.cont59
  store ptr %call62, ptr %zoneStringsArray, align 8
  %45 = load ptr, ptr %status.addr, align 8
  %46 = load i32, ptr %45, align 4
  %call64 = invoke noundef signext i8 @_ZL9U_SUCCESS10UErrorCode(i32 noundef %46)
          to label %invoke.cont63 unwind label %lpad14

invoke.cont63:                                    ; preds = %invoke.cont61
  %tobool65 = icmp ne i8 %call64, 0
  br i1 %tobool65, label %if.then66, label %if.end90

if.then66:                                        ; preds = %invoke.cont63
  %47 = load ptr, ptr %zoneStringsArray, align 8
  %48 = load ptr, ptr %status.addr, align 8
  %call68 = invoke ptr @ures_getStringByKeyWithFallback_75(ptr noundef %47, ptr noundef @_ZN6icu_75L13gGmtFormatTagE, ptr noundef %len, ptr noundef %48)
          to label %invoke.cont67 unwind label %lpad14

invoke.cont67:                                    ; preds = %if.then66
  store ptr %call68, ptr %resStr, align 8
  %49 = load i32, ptr %len, align 4
  %cmp69 = icmp sgt i32 %49, 0
  br i1 %cmp69, label %if.then70, label %if.end71

if.then70:                                        ; preds = %invoke.cont67
  %50 = load ptr, ptr %resStr, align 8
  store ptr %50, ptr %gmtPattern, align 8
  br label %if.end71

if.end71:                                         ; preds = %if.then70, %invoke.cont67
  %51 = load ptr, ptr %zoneStringsArray, align 8
  %52 = load ptr, ptr %status.addr, align 8
  %call73 = invoke ptr @ures_getStringByKeyWithFallback_75(ptr noundef %51, ptr noundef @_ZN6icu_75L17gGmtZeroFormatTagE, ptr noundef %len, ptr noundef %52)
          to label %invoke.cont72 unwind label %lpad14

invoke.cont72:                                    ; preds = %if.end71
  store ptr %call73, ptr %resStr, align 8
  %53 = load i32, ptr %len, align 4
  %cmp74 = icmp sgt i32 %53, 0
  br i1 %cmp74, label %if.then75, label %if.end82

if.then75:                                        ; preds = %invoke.cont72
  %fGMTZeroFormat76 = getelementptr inbounds %"class.icu_75::TimeZoneFormat", ptr %this1, i32 0, i32 9
  %54 = load ptr, ptr %resStr, align 8
  invoke void @_ZN6icu_7514ConstChar16PtrC2EPKDs(ptr noundef nonnull align 8 dereferenceable(8) %agg.tmp, ptr noundef %54)
          to label %invoke.cont77 unwind label %lpad14

invoke.cont77:                                    ; preds = %if.then75
  %55 = load i32, ptr %len, align 4
  %call80 = invoke noundef nonnull align 8 dereferenceable(64) ptr @_ZN6icu_7513UnicodeString5setToEaNS_14ConstChar16PtrEi(ptr noundef nonnull align 8 dereferenceable(64) %fGMTZeroFormat76, i8 noundef signext 1, ptr noundef %agg.tmp, i32 noundef %55)
          to label %invoke.cont79 unwind label %lpad78

invoke.cont79:                                    ; preds = %invoke.cont77
  call void @_ZN6icu_7514ConstChar16PtrD2Ev(ptr noundef nonnull align 8 dereferenceable(8) %agg.tmp) #11
  br label %if.end82

lpad78:                                           ; preds = %invoke.cont77
  %56 = landingpad { ptr, i32 }
          cleanup
  %57 = extractvalue { ptr, i32 } %56, 0
  store ptr %57, ptr %exn.slot, align 8
  %58 = extractvalue { ptr, i32 } %56, 1
  store i32 %58, ptr %ehselector.slot, align 4
  call void @_ZN6icu_7514ConstChar16PtrD2Ev(ptr noundef nonnull align 8 dereferenceable(8) %agg.tmp) #11
  br label %ehcleanup231

if.end82:                                         ; preds = %invoke.cont79, %invoke.cont72
  %59 = load ptr, ptr %zoneStringsArray, align 8
  %60 = load ptr, ptr %status.addr, align 8
  %call84 = invoke ptr @ures_getStringByKeyWithFallback_75(ptr noundef %59, ptr noundef @_ZN6icu_75L14gHourFormatTagE, ptr noundef %len, ptr noundef %60)
          to label %invoke.cont83 unwind label %lpad14

invoke.cont83:                                    ; preds = %if.end82
  store ptr %call84, ptr %resStr, align 8
  %61 = load i32, ptr %len, align 4
  %cmp85 = icmp sgt i32 %61, 0
  br i1 %cmp85, label %if.then86, label %if.end87

if.then86:                                        ; preds = %invoke.cont83
  %62 = load ptr, ptr %resStr, align 8
  store ptr %62, ptr %hourFormats, align 8
  br label %if.end87

if.end87:                                         ; preds = %if.then86, %invoke.cont83
  %63 = load ptr, ptr %zoneStringsArray, align 8
  invoke void @ures_close_75(ptr noundef %63)
          to label %invoke.cont88 unwind label %lpad14

invoke.cont88:                                    ; preds = %if.end87
  %64 = load ptr, ptr %zoneBundle, align 8
  invoke void @ures_close_75(ptr noundef %64)
          to label %invoke.cont89 unwind label %lpad14

invoke.cont89:                                    ; preds = %invoke.cont88
  br label %if.end90

if.end90:                                         ; preds = %invoke.cont89, %invoke.cont63
  %65 = load ptr, ptr %gmtPattern, align 8
  %cmp91 = icmp eq ptr %65, null
  br i1 %cmp91, label %if.then92, label %if.end93

if.then92:                                        ; preds = %if.end90
  store ptr @_ZN6icu_75L19DEFAULT_GMT_PATTERNE, ptr %gmtPattern, align 8
  br label %if.end93

if.end93:                                         ; preds = %if.then92, %if.end90
  %66 = load ptr, ptr %gmtPattern, align 8
  invoke void @_ZN6icu_7514ConstChar16PtrC2EPKDs(ptr noundef nonnull align 8 dereferenceable(8) %agg.tmp94, ptr noundef %66)
          to label %invoke.cont95 unwind label %lpad14

invoke.cont95:                                    ; preds = %if.end93
  invoke void @_ZN6icu_7513UnicodeStringC1EaNS_14ConstChar16PtrEi(ptr noundef nonnull align 8 dereferenceable(64) %ref.tmp, i8 noundef signext 1, ptr noundef %agg.tmp94, i32 noundef -1)
          to label %invoke.cont97 unwind label %lpad96

invoke.cont97:                                    ; preds = %invoke.cont95
  %67 = load ptr, ptr %status.addr, align 8
  invoke void @_ZN6icu_7514TimeZoneFormat14initGMTPatternERKNS_13UnicodeStringER10UErrorCode(ptr noundef nonnull align 8 dereferenceable(1328) %this1, ptr noundef nonnull align 8 dereferenceable(64) %ref.tmp, ptr noundef nonnull align 4 dereferenceable(4) %67)
          to label %invoke.cont99 unwind label %lpad98

invoke.cont99:                                    ; preds = %invoke.cont97
  call void @_ZN6icu_7513UnicodeStringD1Ev(ptr noundef nonnull align 8 dereferenceable(64) %ref.tmp) #11
  call void @_ZN6icu_7514ConstChar16PtrD2Ev(ptr noundef nonnull align 8 dereferenceable(8) %agg.tmp94) #11
  store i8 1, ptr %useDefaultOffsetPatterns, align 1
  %68 = load ptr, ptr %hourFormats, align 8
  %tobool102 = icmp ne ptr %68, null
  br i1 %tobool102, label %if.then103, label %if.end155

if.then103:                                       ; preds = %invoke.cont99
  %69 = load ptr, ptr %hourFormats, align 8
  %call105 = invoke ptr @u_strchr_75(ptr noundef %69, i16 noundef zeroext 59)
          to label %invoke.cont104 unwind label %lpad14

invoke.cont104:                                   ; preds = %if.then103
  store ptr %call105, ptr %sep, align 8
  %70 = load ptr, ptr %sep, align 8
  %cmp106 = icmp ne ptr %70, null
  br i1 %cmp106, label %if.then107, label %if.end154

if.then107:                                       ; preds = %invoke.cont104
  store i32 0, ptr %tmpStatus, align 4
  %fGMTOffsetPatterns108 = getelementptr inbounds %"class.icu_75::TimeZoneFormat", ptr %this1, i32 0, i32 7
  %arrayidx109 = getelementptr inbounds [6 x %"class.icu_75::UnicodeString"], ptr %fGMTOffsetPatterns108, i64 0, i64 0
  %71 = load ptr, ptr %hourFormats, align 8
  invoke void @_ZN6icu_7514ConstChar16PtrC2EPKDs(ptr noundef nonnull align 8 dereferenceable(8) %agg.tmp110, ptr noundef %71)
          to label %invoke.cont111 unwind label %lpad14

invoke.cont111:                                   ; preds = %if.then107
  %72 = load ptr, ptr %sep, align 8
  %73 = load ptr, ptr %hourFormats, align 8
  %sub.ptr.lhs.cast = ptrtoint ptr %72 to i64
  %sub.ptr.rhs.cast = ptrtoint ptr %73 to i64
  %sub.ptr.sub = sub i64 %sub.ptr.lhs.cast, %sub.ptr.rhs.cast
  %sub.ptr.div = sdiv exact i64 %sub.ptr.sub, 2
  %conv112 = trunc i64 %sub.ptr.div to i32
  %call115 = invoke noundef nonnull align 8 dereferenceable(64) ptr @_ZN6icu_7513UnicodeString5setToEaNS_14ConstChar16PtrEi(ptr noundef nonnull align 8 dereferenceable(64) %arrayidx109, i8 noundef signext 0, ptr noundef %agg.tmp110, i32 noundef %conv112)
          to label %invoke.cont114 unwind label %lpad113

invoke.cont114:                                   ; preds = %invoke.cont111
  call void @_ZN6icu_7514ConstChar16PtrD2Ev(ptr noundef nonnull align 8 dereferenceable(8) %agg.tmp110) #11
  %fGMTOffsetPatterns117 = getelementptr inbounds %"class.icu_75::TimeZoneFormat", ptr %this1, i32 0, i32 7
  %arrayidx118 = getelementptr inbounds [6 x %"class.icu_75::UnicodeString"], ptr %fGMTOffsetPatterns117, i64 0, i64 2
  %74 = load ptr, ptr %sep, align 8
  %add.ptr = getelementptr inbounds i16, ptr %74, i64 1
  invoke void @_ZN6icu_7514ConstChar16PtrC2EPKDs(ptr noundef nonnull align 8 dereferenceable(8) %agg.tmp119, ptr noundef %add.ptr)
          to label %invoke.cont120 unwind label %lpad14

invoke.cont120:                                   ; preds = %invoke.cont114
  %call123 = invoke noundef nonnull align 8 dereferenceable(64) ptr @_ZN6icu_7513UnicodeString5setToEaNS_14ConstChar16PtrEi(ptr noundef nonnull align 8 dereferenceable(64) %arrayidx118, i8 noundef signext 1, ptr noundef %agg.tmp119, i32 noundef -1)
          to label %invoke.cont122 unwind label %lpad121

invoke.cont122:                                   ; preds = %invoke.cont120
  call void @_ZN6icu_7514ConstChar16PtrD2Ev(ptr noundef nonnull align 8 dereferenceable(8) %agg.tmp119) #11
  %fGMTOffsetPatterns125 = getelementptr inbounds %"class.icu_75::TimeZoneFormat", ptr %this1, i32 0, i32 7
  %arrayidx126 = getelementptr inbounds [6 x %"class.icu_75::UnicodeString"], ptr %fGMTOffsetPatterns125, i64 0, i64 0
  %fGMTOffsetPatterns127 = getelementptr inbounds %"class.icu_75::TimeZoneFormat", ptr %this1, i32 0, i32 7
  %arrayidx128 = getelementptr inbounds [6 x %"class.icu_75::UnicodeString"], ptr %fGMTOffsetPatterns127, i64 0, i64 1
  %call130 = invoke noundef nonnull align 8 dereferenceable(64) ptr @_ZN6icu_7514TimeZoneFormat19expandOffsetPatternERKNS_13UnicodeStringERS1_R10UErrorCode(ptr noundef nonnull align 8 dereferenceable(64) %arrayidx126, ptr noundef nonnull align 8 dereferenceable(64) %arrayidx128, ptr noundef nonnull align 4 dereferenceable(4) %tmpStatus)
          to label %invoke.cont129 unwind label %lpad14

invoke.cont129:                                   ; preds = %invoke.cont122
  %fGMTOffsetPatterns131 = getelementptr inbounds %"class.icu_75::TimeZoneFormat", ptr %this1, i32 0, i32 7
  %arrayidx132 = getelementptr inbounds [6 x %"class.icu_75::UnicodeString"], ptr %fGMTOffsetPatterns131, i64 0, i64 2
  %fGMTOffsetPatterns133 = getelementptr inbounds %"class.icu_75::TimeZoneFormat", ptr %this1, i32 0, i32 7
  %arrayidx134 = getelementptr inbounds [6 x %"class.icu_75::UnicodeString"], ptr %fGMTOffsetPatterns133, i64 0, i64 3
  %call136 = invoke noundef nonnull align 8 dereferenceable(64) ptr @_ZN6icu_7514TimeZoneFormat19expandOffsetPatternERKNS_13UnicodeStringERS1_R10UErrorCode(ptr noundef nonnull align 8 dereferenceable(64) %arrayidx132, ptr noundef nonnull align 8 dereferenceable(64) %arrayidx134, ptr noundef nonnull align 4 dereferenceable(4) %tmpStatus)
          to label %invoke.cont135 unwind label %lpad14

invoke.cont135:                                   ; preds = %invoke.cont129
  %fGMTOffsetPatterns137 = getelementptr inbounds %"class.icu_75::TimeZoneFormat", ptr %this1, i32 0, i32 7
  %arrayidx138 = getelementptr inbounds [6 x %"class.icu_75::UnicodeString"], ptr %fGMTOffsetPatterns137, i64 0, i64 0
  %fGMTOffsetPatterns139 = getelementptr inbounds %"class.icu_75::TimeZoneFormat", ptr %this1, i32 0, i32 7
  %arrayidx140 = getelementptr inbounds [6 x %"class.icu_75::UnicodeString"], ptr %fGMTOffsetPatterns139, i64 0, i64 4
  %call142 = invoke noundef nonnull align 8 dereferenceable(64) ptr @_ZN6icu_7514TimeZoneFormat21truncateOffsetPatternERKNS_13UnicodeStringERS1_R10UErrorCode(ptr noundef nonnull align 8 dereferenceable(64) %arrayidx138, ptr noundef nonnull align 8 dereferenceable(64) %arrayidx140, ptr noundef nonnull align 4 dereferenceable(4) %tmpStatus)
          to label %invoke.cont141 unwind label %lpad14

invoke.cont141:                                   ; preds = %invoke.cont135
  %fGMTOffsetPatterns143 = getelementptr inbounds %"class.icu_75::TimeZoneFormat", ptr %this1, i32 0, i32 7
  %arrayidx144 = getelementptr inbounds [6 x %"class.icu_75::UnicodeString"], ptr %fGMTOffsetPatterns143, i64 0, i64 2
  %fGMTOffsetPatterns145 = getelementptr inbounds %"class.icu_75::TimeZoneFormat", ptr %this1, i32 0, i32 7
  %arrayidx146 = getelementptr inbounds [6 x %"class.icu_75::UnicodeString"], ptr %fGMTOffsetPatterns145, i64 0, i64 5
  %call148 = invoke noundef nonnull align 8 dereferenceable(64) ptr @_ZN6icu_7514TimeZoneFormat21truncateOffsetPatternERKNS_13UnicodeStringERS1_R10UErrorCode(ptr noundef nonnull align 8 dereferenceable(64) %arrayidx144, ptr noundef nonnull align 8 dereferenceable(64) %arrayidx146, ptr noundef nonnull align 4 dereferenceable(4) %tmpStatus)
          to label %invoke.cont147 unwind label %lpad14

invoke.cont147:                                   ; preds = %invoke.cont141
  %75 = load i32, ptr %tmpStatus, align 4
  %call150 = invoke noundef signext i8 @_ZL9U_SUCCESS10UErrorCode(i32 noundef %75)
          to label %invoke.cont149 unwind label %lpad14

invoke.cont149:                                   ; preds = %invoke.cont147
  %tobool151 = icmp ne i8 %call150, 0
  br i1 %tobool151, label %if.then152, label %if.end153

if.then152:                                       ; preds = %invoke.cont149
  store i8 0, ptr %useDefaultOffsetPatterns, align 1
  br label %if.end153

lpad96:                                           ; preds = %invoke.cont95
  %76 = landingpad { ptr, i32 }
          cleanup
  %77 = extractvalue { ptr, i32 } %76, 0
  store ptr %77, ptr %exn.slot, align 8
  %78 = extractvalue { ptr, i32 } %76, 1
  store i32 %78, ptr %ehselector.slot, align 4
  br label %ehcleanup101

lpad98:                                           ; preds = %invoke.cont97
  %79 = landingpad { ptr, i32 }
          cleanup
  %80 = extractvalue { ptr, i32 } %79, 0
  store ptr %80, ptr %exn.slot, align 8
  %81 = extractvalue { ptr, i32 } %79, 1
  store i32 %81, ptr %ehselector.slot, align 4
  call void @_ZN6icu_7513UnicodeStringD1Ev(ptr noundef nonnull align 8 dereferenceable(64) %ref.tmp) #11
  br label %ehcleanup101

ehcleanup101:                                     ; preds = %lpad98, %lpad96
  call void @_ZN6icu_7514ConstChar16PtrD2Ev(ptr noundef nonnull align 8 dereferenceable(8) %agg.tmp94) #11
  br label %ehcleanup231

lpad113:                                          ; preds = %invoke.cont111
  %82 = landingpad { ptr, i32 }
          cleanup
  %83 = extractvalue { ptr, i32 } %82, 0
  store ptr %83, ptr %exn.slot, align 8
  %84 = extractvalue { ptr, i32 } %82, 1
  store i32 %84, ptr %ehselector.slot, align 4
  call void @_ZN6icu_7514ConstChar16PtrD2Ev(ptr noundef nonnull align 8 dereferenceable(8) %agg.tmp110) #11
  br label %ehcleanup231

lpad121:                                          ; preds = %invoke.cont120
  %85 = landingpad { ptr, i32 }
          cleanup
  %86 = extractvalue { ptr, i32 } %85, 0
  store ptr %86, ptr %exn.slot, align 8
  %87 = extractvalue { ptr, i32 } %85, 1
  store i32 %87, ptr %ehselector.slot, align 4
  call void @_ZN6icu_7514ConstChar16PtrD2Ev(ptr noundef nonnull align 8 dereferenceable(8) %agg.tmp119) #11
  br label %ehcleanup231

if.end153:                                        ; preds = %if.then152, %invoke.cont149
  br label %if.end154

if.end154:                                        ; preds = %if.end153, %invoke.cont104
  br label %if.end155

if.end155:                                        ; preds = %if.end154, %invoke.cont99
  %88 = load i8, ptr %useDefaultOffsetPatterns, align 1
  %tobool156 = icmp ne i8 %88, 0
  br i1 %tobool156, label %if.then157, label %if.end206

if.then157:                                       ; preds = %if.end155
  %fGMTOffsetPatterns158 = getelementptr inbounds %"class.icu_75::TimeZoneFormat", ptr %this1, i32 0, i32 7
  %arrayidx159 = getelementptr inbounds [6 x %"class.icu_75::UnicodeString"], ptr %fGMTOffsetPatterns158, i64 0, i64 4
  invoke void @_ZN6icu_7514ConstChar16PtrC2EPKDs(ptr noundef nonnull align 8 dereferenceable(8) %agg.tmp160, ptr noundef @_ZN6icu_75L22DEFAULT_GMT_POSITIVE_HE)
          to label %invoke.cont161 unwind label %lpad14

invoke.cont161:                                   ; preds = %if.then157
  %call164 = invoke noundef nonnull align 8 dereferenceable(64) ptr @_ZN6icu_7513UnicodeString5setToEaNS_14ConstChar16PtrEi(ptr noundef nonnull align 8 dereferenceable(64) %arrayidx159, i8 noundef signext 1, ptr noundef %agg.tmp160, i32 noundef -1)
          to label %invoke.cont163 unwind label %lpad162

invoke.cont163:                                   ; preds = %invoke.cont161
  call void @_ZN6icu_7514ConstChar16PtrD2Ev(ptr noundef nonnull align 8 dereferenceable(8) %agg.tmp160) #11
  %fGMTOffsetPatterns166 = getelementptr inbounds %"class.icu_75::TimeZoneFormat", ptr %this1, i32 0, i32 7
  %arrayidx167 = getelementptr inbounds [6 x %"class.icu_75::UnicodeString"], ptr %fGMTOffsetPatterns166, i64 0, i64 0
  invoke void @_ZN6icu_7514ConstChar16PtrC2EPKDs(ptr noundef nonnull align 8 dereferenceable(8) %agg.tmp168, ptr noundef @_ZN6icu_75L23DEFAULT_GMT_POSITIVE_HME)
          to label %invoke.cont169 unwind label %lpad14

invoke.cont169:                                   ; preds = %invoke.cont163
  %call172 = invoke noundef nonnull align 8 dereferenceable(64) ptr @_ZN6icu_7513UnicodeString5setToEaNS_14ConstChar16PtrEi(ptr noundef nonnull align 8 dereferenceable(64) %arrayidx167, i8 noundef signext 1, ptr noundef %agg.tmp168, i32 noundef -1)
          to label %invoke.cont171 unwind label %lpad170

invoke.cont171:                                   ; preds = %invoke.cont169
  call void @_ZN6icu_7514ConstChar16PtrD2Ev(ptr noundef nonnull align 8 dereferenceable(8) %agg.tmp168) #11
  %fGMTOffsetPatterns174 = getelementptr inbounds %"class.icu_75::TimeZoneFormat", ptr %this1, i32 0, i32 7
  %arrayidx175 = getelementptr inbounds [6 x %"class.icu_75::UnicodeString"], ptr %fGMTOffsetPatterns174, i64 0, i64 1
  invoke void @_ZN6icu_7514ConstChar16PtrC2EPKDs(ptr noundef nonnull align 8 dereferenceable(8) %agg.tmp176, ptr noundef @_ZN6icu_75L24DEFAULT_GMT_POSITIVE_HMSE)
          to label %invoke.cont177 unwind label %lpad14

invoke.cont177:                                   ; preds = %invoke.cont171
  %call180 = invoke noundef nonnull align 8 dereferenceable(64) ptr @_ZN6icu_7513UnicodeString5setToEaNS_14ConstChar16PtrEi(ptr noundef nonnull align 8 dereferenceable(64) %arrayidx175, i8 noundef signext 1, ptr noundef %agg.tmp176, i32 noundef -1)
          to label %invoke.cont179 unwind label %lpad178

invoke.cont179:                                   ; preds = %invoke.cont177
  call void @_ZN6icu_7514ConstChar16PtrD2Ev(ptr noundef nonnull align 8 dereferenceable(8) %agg.tmp176) #11
  %fGMTOffsetPatterns182 = getelementptr inbounds %"class.icu_75::TimeZoneFormat", ptr %this1, i32 0, i32 7
  %arrayidx183 = getelementptr inbounds [6 x %"class.icu_75::UnicodeString"], ptr %fGMTOffsetPatterns182, i64 0, i64 5
  invoke void @_ZN6icu_7514ConstChar16PtrC2EPKDs(ptr noundef nonnull align 8 dereferenceable(8) %agg.tmp184, ptr noundef @_ZN6icu_75L22DEFAULT_GMT_NEGATIVE_HE)
          to label %invoke.cont185 unwind label %lpad14

invoke.cont185:                                   ; preds = %invoke.cont179
  %call188 = invoke noundef nonnull align 8 dereferenceable(64) ptr @_ZN6icu_7513UnicodeString5setToEaNS_14ConstChar16PtrEi(ptr noundef nonnull align 8 dereferenceable(64) %arrayidx183, i8 noundef signext 1, ptr noundef %agg.tmp184, i32 noundef -1)
          to label %invoke.cont187 unwind label %lpad186

invoke.cont187:                                   ; preds = %invoke.cont185
  call void @_ZN6icu_7514ConstChar16PtrD2Ev(ptr noundef nonnull align 8 dereferenceable(8) %agg.tmp184) #11
  %fGMTOffsetPatterns190 = getelementptr inbounds %"class.icu_75::TimeZoneFormat", ptr %this1, i32 0, i32 7
  %arrayidx191 = getelementptr inbounds [6 x %"class.icu_75::UnicodeString"], ptr %fGMTOffsetPatterns190, i64 0, i64 2
  invoke void @_ZN6icu_7514ConstChar16PtrC2EPKDs(ptr noundef nonnull align 8 dereferenceable(8) %agg.tmp192, ptr noundef @_ZN6icu_75L23DEFAULT_GMT_NEGATIVE_HME)
          to label %invoke.cont193 unwind label %lpad14

invoke.cont193:                                   ; preds = %invoke.cont187
  %call196 = invoke noundef nonnull align 8 dereferenceable(64) ptr @_ZN6icu_7513UnicodeString5setToEaNS_14ConstChar16PtrEi(ptr noundef nonnull align 8 dereferenceable(64) %arrayidx191, i8 noundef signext 1, ptr noundef %agg.tmp192, i32 noundef -1)
          to label %invoke.cont195 unwind label %lpad194

invoke.cont195:                                   ; preds = %invoke.cont193
  call void @_ZN6icu_7514ConstChar16PtrD2Ev(ptr noundef nonnull align 8 dereferenceable(8) %agg.tmp192) #11
  %fGMTOffsetPatterns198 = getelementptr inbounds %"class.icu_75::TimeZoneFormat", ptr %this1, i32 0, i32 7
  %arrayidx199 = getelementptr inbounds [6 x %"class.icu_75::UnicodeString"], ptr %fGMTOffsetPatterns198, i64 0, i64 3
  invoke void @_ZN6icu_7514ConstChar16PtrC2EPKDs(ptr noundef nonnull align 8 dereferenceable(8) %agg.tmp200, ptr noundef @_ZN6icu_75L24DEFAULT_GMT_NEGATIVE_HMSE)
          to label %invoke.cont201 unwind label %lpad14

invoke.cont201:                                   ; preds = %invoke.cont195
  %call204 = invoke noundef nonnull align 8 dereferenceable(64) ptr @_ZN6icu_7513UnicodeString5setToEaNS_14ConstChar16PtrEi(ptr noundef nonnull align 8 dereferenceable(64) %arrayidx199, i8 noundef signext 1, ptr noundef %agg.tmp200, i32 noundef -1)
          to label %invoke.cont203 unwind label %lpad202

invoke.cont203:                                   ; preds = %invoke.cont201
  call void @_ZN6icu_7514ConstChar16PtrD2Ev(ptr noundef nonnull align 8 dereferenceable(8) %agg.tmp200) #11
  br label %if.end206

lpad162:                                          ; preds = %invoke.cont161
  %89 = landingpad { ptr, i32 }
          cleanup
  %90 = extractvalue { ptr, i32 } %89, 0
  store ptr %90, ptr %exn.slot, align 8
  %91 = extractvalue { ptr, i32 } %89, 1
  store i32 %91, ptr %ehselector.slot, align 4
  call void @_ZN6icu_7514ConstChar16PtrD2Ev(ptr noundef nonnull align 8 dereferenceable(8) %agg.tmp160) #11
  br label %ehcleanup231

lpad170:                                          ; preds = %invoke.cont169
  %92 = landingpad { ptr, i32 }
          cleanup
  %93 = extractvalue { ptr, i32 } %92, 0
  store ptr %93, ptr %exn.slot, align 8
  %94 = extractvalue { ptr, i32 } %92, 1
  store i32 %94, ptr %ehselector.slot, align 4
  call void @_ZN6icu_7514ConstChar16PtrD2Ev(ptr noundef nonnull align 8 dereferenceable(8) %agg.tmp168) #11
  br label %ehcleanup231

lpad178:                                          ; preds = %invoke.cont177
  %95 = landingpad { ptr, i32 }
          cleanup
  %96 = extractvalue { ptr, i32 } %95, 0
  store ptr %96, ptr %exn.slot, align 8
  %97 = extractvalue { ptr, i32 } %95, 1
  store i32 %97, ptr %ehselector.slot, align 4
  call void @_ZN6icu_7514ConstChar16PtrD2Ev(ptr noundef nonnull align 8 dereferenceable(8) %agg.tmp176) #11
  br label %ehcleanup231

lpad186:                                          ; preds = %invoke.cont185
  %98 = landingpad { ptr, i32 }
          cleanup
  %99 = extractvalue { ptr, i32 } %98, 0
  store ptr %99, ptr %exn.slot, align 8
  %100 = extractvalue { ptr, i32 } %98, 1
  store i32 %100, ptr %ehselector.slot, align 4
  call void @_ZN6icu_7514ConstChar16PtrD2Ev(ptr noundef nonnull align 8 dereferenceable(8) %agg.tmp184) #11
  br label %ehcleanup231

lpad194:                                          ; preds = %invoke.cont193
  %101 = landingpad { ptr, i32 }
          cleanup
  %102 = extractvalue { ptr, i32 } %101, 0
  store ptr %102, ptr %exn.slot, align 8
  %103 = extractvalue { ptr, i32 } %101, 1
  store i32 %103, ptr %ehselector.slot, align 4
  call void @_ZN6icu_7514ConstChar16PtrD2Ev(ptr noundef nonnull align 8 dereferenceable(8) %agg.tmp192) #11
  br label %ehcleanup231

lpad202:                                          ; preds = %invoke.cont201
  %104 = landingpad { ptr, i32 }
          cleanup
  %105 = extractvalue { ptr, i32 } %104, 0
  store ptr %105, ptr %exn.slot, align 8
  %106 = extractvalue { ptr, i32 } %104, 1
  store i32 %106, ptr %ehselector.slot, align 4
  call void @_ZN6icu_7514ConstChar16PtrD2Ev(ptr noundef nonnull align 8 dereferenceable(8) %agg.tmp200) #11
  br label %ehcleanup231

if.end206:                                        ; preds = %invoke.cont203, %if.end155
  %107 = load ptr, ptr %status.addr, align 8
  invoke void @_ZN6icu_7514TimeZoneFormat21initGMTOffsetPatternsER10UErrorCode(ptr noundef nonnull align 8 dereferenceable(1328) %this1, ptr noundef nonnull align 4 dereferenceable(4) %107)
          to label %invoke.cont207 unwind label %lpad14

invoke.cont207:                                   ; preds = %if.end206
  %108 = load ptr, ptr %locale.addr, align 8
  %109 = load ptr, ptr %status.addr, align 8
  %call209 = invoke noundef ptr @_ZN6icu_7515NumberingSystem14createInstanceERKNS_6LocaleER10UErrorCode(ptr noundef nonnull align 8 dereferenceable(217) %108, ptr noundef nonnull align 4 dereferenceable(4) %109)
          to label %invoke.cont208 unwind label %lpad14

invoke.cont208:                                   ; preds = %invoke.cont207
  store ptr %call209, ptr %ns, align 8
  store i8 1, ptr %useDefDigits, align 1
  %110 = load ptr, ptr %ns, align 8
  %tobool210 = icmp ne ptr %110, null
  br i1 %tobool210, label %land.lhs.true, label %if.end223

land.lhs.true:                                    ; preds = %invoke.cont208
  %111 = load ptr, ptr %ns, align 8
  %call212 = invoke noundef signext i8 @_ZNK6icu_7515NumberingSystem13isAlgorithmicEv(ptr noundef nonnull align 8 dereferenceable(86) %111)
          to label %invoke.cont211 unwind label %lpad14

invoke.cont211:                                   ; preds = %land.lhs.true
  %tobool213 = icmp ne i8 %call212, 0
  br i1 %tobool213, label %if.end223, label %if.then214

if.then214:                                       ; preds = %invoke.cont211
  %112 = load ptr, ptr %ns, align 8
  %vtable = load ptr, ptr %112, align 8
  %vfn = getelementptr inbounds ptr, ptr %vtable, i64 3
  %113 = load ptr, ptr %vfn, align 8
  invoke void %113(ptr sret(%"class.icu_75::UnicodeString") align 8 %digits, ptr noundef nonnull align 8 dereferenceable(86) %112)
          to label %invoke.cont215 unwind label %lpad14

invoke.cont215:                                   ; preds = %if.then214
  %fGMTOffsetDigits = getelementptr inbounds %"class.icu_75::TimeZoneFormat", ptr %this1, i32 0, i32 8
  %arraydecay216 = getelementptr inbounds [10 x i32], ptr %fGMTOffsetDigits, i64 0, i64 0
  %call219 = invoke noundef signext i8 @_ZN6icu_7514TimeZoneFormat12toCodePointsERKNS_13UnicodeStringEPii(ptr noundef nonnull align 8 dereferenceable(64) %digits, ptr noundef %arraydecay216, i32 noundef 10)
          to label %invoke.cont218 unwind label %lpad217

invoke.cont218:                                   ; preds = %invoke.cont215
  %tobool220 = icmp ne i8 %call219, 0
  %lnot = xor i1 %tobool220, true
  %conv221 = zext i1 %lnot to i8
  store i8 %conv221, ptr %useDefDigits, align 1
  call void @_ZN6icu_7513UnicodeStringD1Ev(ptr noundef nonnull align 8 dereferenceable(64) %digits) #11
  br label %if.end223

lpad217:                                          ; preds = %invoke.cont215
  %114 = landingpad { ptr, i32 }
          cleanup
  %115 = extractvalue { ptr, i32 } %114, 0
  store ptr %115, ptr %exn.slot, align 8
  %116 = extractvalue { ptr, i32 } %114, 1
  store i32 %116, ptr %ehselector.slot, align 4
  call void @_ZN6icu_7513UnicodeStringD1Ev(ptr noundef nonnull align 8 dereferenceable(64) %digits) #11
  br label %ehcleanup231

if.end223:                                        ; preds = %invoke.cont218, %invoke.cont211, %invoke.cont208
  %117 = load i8, ptr %useDefDigits, align 1
  %tobool224 = icmp ne i8 %117, 0
  br i1 %tobool224, label %if.then225, label %if.end228

if.then225:                                       ; preds = %if.end223
  br label %do.body

do.body:                                          ; preds = %if.then225
  %fGMTOffsetDigits226 = getelementptr inbounds %"class.icu_75::TimeZoneFormat", ptr %this1, i32 0, i32 8
  %arraydecay227 = getelementptr inbounds [10 x i32], ptr %fGMTOffsetDigits226, i64 0, i64 0
  call void @llvm.memcpy.p0.p0.i64(ptr align 8 %arraydecay227, ptr align 16 @_ZN6icu_75L18DEFAULT_GMT_DIGITSE, i64 40, i1 false)
  br label %do.cond

do.cond:                                          ; preds = %do.body
  br label %do.end

do.end:                                           ; preds = %do.cond
  br label %if.end228

if.end228:                                        ; preds = %do.end, %if.end223
  %118 = load ptr, ptr %ns, align 8
  %isnull = icmp eq ptr %118, null
  br i1 %isnull, label %delete.end, label %delete.notnull

delete.notnull:                                   ; preds = %if.end228
  %vtable229 = load ptr, ptr %118, align 8
  %vfn230 = getelementptr inbounds ptr, ptr %vtable229, i64 1
  %119 = load ptr, ptr %vfn230, align 8
  call void %119(ptr noundef nonnull align 8 dereferenceable(86) %118) #11
  br label %delete.end

delete.end:                                       ; preds = %delete.notnull, %if.end228, %if.then55
  ret void

ehcleanup231:                                     ; preds = %lpad217, %lpad202, %lpad194, %lpad186, %lpad178, %lpad170, %lpad162, %lpad121, %lpad113, %ehcleanup101, %lpad78, %ehcleanup, %lpad14
  call void @_ZN6icu_7513UnicodeStringD1Ev(ptr noundef nonnull align 8 dereferenceable(64) %fGMTPatternSuffix) #11
  br label %ehcleanup232

ehcleanup232:                                     ; preds = %ehcleanup231, %lpad11
  call void @_ZN6icu_7513UnicodeStringD1Ev(ptr noundef nonnull align 8 dereferenceable(64) %fGMTPatternPrefix) #11
  br label %ehcleanup233

ehcleanup233:                                     ; preds = %ehcleanup232, %lpad9
  call void @_ZN6icu_7513UnicodeStringD1Ev(ptr noundef nonnull align 8 dereferenceable(64) %fGMTZeroFormat) #11
  br label %ehcleanup234

ehcleanup234:                                     ; preds = %ehcleanup233, %lpad7
  %array.begin235 = getelementptr inbounds [6 x %"class.icu_75::UnicodeString"], ptr %fGMTOffsetPatterns, i32 0, i32 0
  %120 = getelementptr inbounds %"class.icu_75::UnicodeString", ptr %array.begin235, i64 6
  br label %arraydestroy.body236

arraydestroy.body236:                             ; preds = %arraydestroy.body236, %ehcleanup234
  %arraydestroy.elementPast237 = phi ptr [ %120, %ehcleanup234 ], [ %arraydestroy.element238, %arraydestroy.body236 ]
  %arraydestroy.element238 = getelementptr inbounds %"class.icu_75::UnicodeString", ptr %arraydestroy.elementPast237, i64 -1
  call void @_ZN6icu_7513UnicodeStringD1Ev(ptr noundef nonnull align 8 dereferenceable(64) %arraydestroy.element238) #11
  %arraydestroy.done239 = icmp eq ptr %arraydestroy.element238, %array.begin235
  br i1 %arraydestroy.done239, label %arraydestroy.done240, label %arraydestroy.body236

arraydestroy.done240:                             ; preds = %arraydestroy.body236
  br label %ehcleanup241

ehcleanup241:                                     ; preds = %arraydestroy.done240, %arraydestroy.done6
  call void @_ZN6icu_7513UnicodeStringD1Ev(ptr noundef nonnull align 8 dereferenceable(64) %fGMTPattern) #11
  br label %ehcleanup242

ehcleanup242:                                     ; preds = %ehcleanup241, %lpad2
  call void @_ZN6icu_756LocaleD1Ev(ptr noundef nonnull align 8 dereferenceable(217) %fLocale) #11
  br label %ehcleanup243

ehcleanup243:                                     ; preds = %ehcleanup242, %lpad
  call void @_ZN6icu_756FormatD2Ev(ptr noundef nonnull align 8 dereferenceable(322) %this1) #11
  br label %eh.resume

eh.resume:                                        ; preds = %ehcleanup243
  %exn = load ptr, ptr %exn.slot, align 8
  %sel = load i32, ptr %ehselector.slot, align 4
  %lpad.val = insertvalue { ptr, i32 } poison, ptr %exn, 0
  %lpad.val244 = insertvalue { ptr, i32 } %lpad.val, i32 %sel, 1
  resume { ptr, i32 } %lpad.val244
}

declare void @_ZN6icu_756FormatC2Ev(ptr noundef nonnull align 8 dereferenceable(322)) unnamed_addr #5

declare void @_ZN6icu_756LocaleC1ERKS0_(ptr noundef nonnull align 8 dereferenceable(217), ptr noundef nonnull align 8 dereferenceable(217)) unnamed_addr #5

; Function Attrs: mustprogress uwtable
define linkonce_odr void @_ZN6icu_7513UnicodeStringC2Ev(ptr noundef nonnull align 8 dereferenceable(64) %this) unnamed_addr #1 comdat align 2 {
entry:
  %this.addr = alloca ptr, align 8
  store ptr %this, ptr %this.addr, align 8
  %this1 = load ptr, ptr %this.addr, align 8
  call void @_ZN6icu_7511ReplaceableC2Ev(ptr noundef nonnull align 8 dereferenceable(8) %this1)
  store ptr getelementptr inbounds ({ [13 x ptr] }, ptr @_ZTVN6icu_7513UnicodeStringE, i32 0, inrange i32 0, i32 2), ptr %this1, align 8
  %fUnion2 = getelementptr inbounds %"class.icu_75::UnicodeString", ptr %this1, i32 0, i32 1
  %fLengthAndFlags = getelementptr inbounds %struct.anon, ptr %fUnion2, i32 0, i32 0
  store i16 2, ptr %fLengthAndFlags, align 8
  ret void
}

; Function Attrs: nounwind
declare void @_ZN6icu_7513UnicodeStringD1Ev(ptr noundef nonnull align 8 dereferenceable(64)) unnamed_addr #6

; Function Attrs: mustprogress nounwind uwtable
define linkonce_odr noundef ptr @_ZNK6icu_756Locale10getCountryEv(ptr noundef nonnull align 8 dereferenceable(217) %this) #0 comdat align 2 {
entry:
  %this.addr = alloca ptr, align 8
  store ptr %this, ptr %this.addr, align 8
  %this1 = load ptr, ptr %this.addr, align 8
  %country = getelementptr inbounds %"class.icu_75::Locale", ptr %this1, i32 0, i32 3
  %arraydecay = getelementptr inbounds [4 x i8], ptr %country, i64 0, i64 0
  ret ptr %arraydecay
}

; Function Attrs: nounwind willreturn memory(read)
declare i64 @strlen(ptr noundef) #8

; Function Attrs: mustprogress uwtable
define linkonce_odr void @_ZN6icu_7510CharStringC2Ev(ptr noundef nonnull align 8 dereferenceable(60) %this) unnamed_addr #1 comdat align 2 {
entry:
  %this.addr = alloca ptr, align 8
  store ptr %this, ptr %this.addr, align 8
  %this1 = load ptr, ptr %this.addr, align 8
  %buffer = getelementptr inbounds %"class.icu_75::CharString", ptr %this1, i32 0, i32 0
  call void @_ZN6icu_7515MaybeStackArrayIcLi40EEC1Ev(ptr noundef nonnull align 8 dereferenceable(53) %buffer)
  %len = getelementptr inbounds %"class.icu_75::CharString", ptr %this1, i32 0, i32 1
  store i32 0, ptr %len, align 8
  %buffer2 = getelementptr inbounds %"class.icu_75::CharString", ptr %this1, i32 0, i32 0
  %call = call noundef nonnull align 1 dereferenceable(1) ptr @_ZN6icu_7515MaybeStackArrayIcLi40EEixEl(ptr noundef nonnull align 8 dereferenceable(53) %buffer2, i64 noundef 0)
  store i8 0, ptr %call, align 1
  ret void
}

declare void @_ZN6icu_7518CharStringByteSinkC1EPNS_10CharStringE(ptr noundef nonnull align 8 dereferenceable(16), ptr noundef) unnamed_addr #5

declare void @ulocimp_addLikelySubtags_75(ptr noundef, ptr noundef nonnull align 8 dereferenceable(8), ptr noundef) #5

; Function Attrs: mustprogress nounwind uwtable
define linkonce_odr noundef ptr @_ZNK6icu_756Locale7getNameEv(ptr noundef nonnull align 8 dereferenceable(217) %this) #0 comdat align 2 {
entry:
  %this.addr = alloca ptr, align 8
  store ptr %this, ptr %this.addr, align 8
  %this1 = load ptr, ptr %this.addr, align 8
  %fullName = getelementptr inbounds %"class.icu_75::Locale", ptr %this1, i32 0, i32 7
  %0 = load ptr, ptr %fullName, align 8
  ret ptr %0
}

; Function Attrs: nounwind
declare void @_ZN6icu_7518CharStringByteSinkD1Ev(ptr noundef nonnull align 8 dereferenceable(16)) unnamed_addr #6

declare i32 @uloc_getCountry_75(ptr noundef, ptr noundef, i32 noundef, ptr noundef) #5

; Function Attrs: mustprogress nounwind uwtable
define linkonce_odr noundef ptr @_ZN6icu_7510CharString4dataEv(ptr noundef nonnull align 8 dereferenceable(60) %this) #0 comdat align 2 {
entry:
  %this.addr = alloca ptr, align 8
  store ptr %this, ptr %this.addr, align 8
  %this1 = load ptr, ptr %this.addr, align 8
  %buffer = getelementptr inbounds %"class.icu_75::CharString", ptr %this1, i32 0, i32 0
  %call = call noundef ptr @_ZNK6icu_7515MaybeStackArrayIcLi40EE8getAliasEv(ptr noundef nonnull align 8 dereferenceable(53) %buffer)
  ret ptr %call
}

; Function Attrs: mustprogress nounwind uwtable
define internal noundef signext i8 @_ZL9U_SUCCESS10UErrorCode(i32 noundef %code) #0 {
entry:
  %code.addr = alloca i32, align 4
  store i32 %code, ptr %code.addr, align 4
  %0 = load i32, ptr %code.addr, align 4
  %cmp = icmp sle i32 %0, 0
  %conv = zext i1 %cmp to i8
  ret i8 %conv
}

; Function Attrs: mustprogress nounwind uwtable
define linkonce_odr void @_ZN6icu_7510CharStringD2Ev(ptr noundef nonnull align 8 dereferenceable(60) %this) unnamed_addr #0 comdat align 2 {
entry:
  %this.addr = alloca ptr, align 8
  store ptr %this, ptr %this.addr, align 8
  %this1 = load ptr, ptr %this.addr, align 8
  %buffer = getelementptr inbounds %"class.icu_75::CharString", ptr %this1, i32 0, i32 0
  call void @_ZN6icu_7515MaybeStackArrayIcLi40EED1Ev(ptr noundef nonnull align 8 dereferenceable(53) %buffer) #11
  ret void
}

; Function Attrs: nounwind
declare ptr @strcpy(ptr noundef, ptr noundef) #6

declare noundef ptr @_ZN6icu_7513TimeZoneNames14createInstanceERKNS_6LocaleER10UErrorCode(ptr noundef nonnull align 8 dereferenceable(217), ptr noundef nonnull align 4 dereferenceable(4)) #5

declare ptr @ures_open_75(ptr noundef, ptr noundef, ptr noundef) #5

declare ptr @ures_getByKeyWithFallback_75(ptr noundef, ptr noundef, ptr noundef, ptr noundef) #5

declare ptr @ures_getStringByKeyWithFallback_75(ptr noundef, ptr noundef, ptr noundef, ptr noundef) #5

declare noundef nonnull align 8 dereferenceable(64) ptr @_ZN6icu_7513UnicodeString5setToEaNS_14ConstChar16PtrEi(ptr noundef nonnull align 8 dereferenceable(64), i8 noundef signext, ptr noundef, i32 noundef) #5

; Function Attrs: mustprogress nounwind uwtable
define linkonce_odr void @_ZN6icu_7514ConstChar16PtrC2EPKDs(ptr noundef nonnull align 8 dereferenceable(8) %this, ptr noundef %p) unnamed_addr #0 comdat align 2 {
entry:
  %this.addr = alloca ptr, align 8
  %p.addr = alloca ptr, align 8
  store ptr %this, ptr %this.addr, align 8
  store ptr %p, ptr %p.addr, align 8
  %this1 = load ptr, ptr %this.addr, align 8
  %p_ = getelementptr inbounds %"class.icu_75::ConstChar16Ptr", ptr %this1, i32 0, i32 0
  %0 = load ptr, ptr %p.addr, align 8
  store ptr %0, ptr %p_, align 8
  ret void
}

; Function Attrs: mustprogress nounwind uwtable
define linkonce_odr void @_ZN6icu_7514ConstChar16PtrD2Ev(ptr noundef nonnull align 8 dereferenceable(8) %this) unnamed_addr #0 comdat align 2 {
entry:
  %this.addr = alloca ptr, align 8
  store ptr %this, ptr %this.addr, align 8
  %this1 = load ptr, ptr %this.addr, align 8
  %p_ = getelementptr inbounds %"class.icu_75::ConstChar16Ptr", ptr %this1, i32 0, i32 0
  %0 = load ptr, ptr %p_, align 8
  call void asm sideeffect "", "rm,~{memory},~{dirflag},~{fpsr},~{flags}"(ptr %0) #11, !srcloc !6
  ret void
}

declare void @ures_close_75(ptr noundef) #5

; Function Attrs: mustprogress uwtable
define void @_ZN6icu_7514TimeZoneFormat14initGMTPatternERKNS_13UnicodeStringER10UErrorCode(ptr noundef nonnull align 8 dereferenceable(1328) %this, ptr noundef nonnull align 8 dereferenceable(64) %gmtPattern, ptr noundef nonnull align 4 dereferenceable(4) %status) #1 align 2 personality ptr @__gxx_personality_v0 {
entry:
  %this.addr = alloca ptr, align 8
  %gmtPattern.addr = alloca ptr, align 8
  %status.addr = alloca ptr, align 8
  %idx = alloca i32, align 4
  %ref.tmp = alloca %"class.icu_75::UnicodeString", align 8
  %exn.slot = alloca ptr, align 8
  %ehselector.slot = alloca i32, align 4
  %ref.tmp7 = alloca %"class.icu_75::UnicodeString", align 8
  store ptr %this, ptr %this.addr, align 8
  store ptr %gmtPattern, ptr %gmtPattern.addr, align 8
  store ptr %status, ptr %status.addr, align 8
  %this1 = load ptr, ptr %this.addr, align 8
  %0 = load ptr, ptr %status.addr, align 8
  %1 = load i32, ptr %0, align 4
  %call = call noundef signext i8 @_ZL9U_FAILURE10UErrorCode(i32 noundef %1)
  %tobool = icmp ne i8 %call, 0
  br i1 %tobool, label %if.then, label %if.end

if.then:                                          ; preds = %entry
  br label %return

if.end:                                           ; preds = %entry
  %2 = load ptr, ptr %gmtPattern.addr, align 8
  %call2 = call noundef i32 @_ZNK6icu_7513UnicodeString7indexOfEPKDsii(ptr noundef nonnull align 8 dereferenceable(64) %2, ptr noundef @_ZN6icu_75L4ARG0E, i32 noundef 3, i32 noundef 0)
  store i32 %call2, ptr %idx, align 4
  %3 = load i32, ptr %idx, align 4
  %cmp = icmp slt i32 %3, 0
  br i1 %cmp, label %if.then3, label %if.end4

if.then3:                                         ; preds = %if.end
  %4 = load ptr, ptr %status.addr, align 8
  store i32 1, ptr %4, align 4
  br label %return

if.end4:                                          ; preds = %if.end
  %fGMTPattern = getelementptr inbounds %"class.icu_75::TimeZoneFormat", ptr %this1, i32 0, i32 6
  %5 = load ptr, ptr %gmtPattern.addr, align 8
  %call5 = call noundef nonnull align 8 dereferenceable(64) ptr @_ZN6icu_7513UnicodeString5setToERKS0_(ptr noundef nonnull align 8 dereferenceable(64) %fGMTPattern, ptr noundef nonnull align 8 dereferenceable(64) %5)
  %6 = load ptr, ptr %gmtPattern.addr, align 8
  %7 = load i32, ptr %idx, align 4
  call void @_ZNK6icu_7513UnicodeString13tempSubStringEii(ptr sret(%"class.icu_75::UnicodeString") align 8 %ref.tmp, ptr noundef nonnull align 8 dereferenceable(64) %6, i32 noundef 0, i32 noundef %7)
  %fGMTPatternPrefix = getelementptr inbounds %"class.icu_75::TimeZoneFormat", ptr %this1, i32 0, i32 11
  %call6 = invoke noundef nonnull align 8 dereferenceable(64) ptr @_ZN6icu_7514TimeZoneFormat7unquoteERKNS_13UnicodeStringERS1_(ptr noundef nonnull align 8 dereferenceable(64) %ref.tmp, ptr noundef nonnull align 8 dereferenceable(64) %fGMTPatternPrefix)
          to label %invoke.cont unwind label %lpad

invoke.cont:                                      ; preds = %if.end4
  call void @_ZN6icu_7513UnicodeStringD1Ev(ptr noundef nonnull align 8 dereferenceable(64) %ref.tmp) #11
  %8 = load ptr, ptr %gmtPattern.addr, align 8
  %9 = load i32, ptr %idx, align 4
  %add = add nsw i32 %9, 3
  call void @_ZNK6icu_7513UnicodeString13tempSubStringEii(ptr sret(%"class.icu_75::UnicodeString") align 8 %ref.tmp7, ptr noundef nonnull align 8 dereferenceable(64) %8, i32 noundef %add, i32 noundef 2147483647)
  %fGMTPatternSuffix = getelementptr inbounds %"class.icu_75::TimeZoneFormat", ptr %this1, i32 0, i32 12
  %call10 = invoke noundef nonnull align 8 dereferenceable(64) ptr @_ZN6icu_7514TimeZoneFormat7unquoteERKNS_13UnicodeStringERS1_(ptr noundef nonnull align 8 dereferenceable(64) %ref.tmp7, ptr noundef nonnull align 8 dereferenceable(64) %fGMTPatternSuffix)
          to label %invoke.cont9 unwind label %lpad8

invoke.cont9:                                     ; preds = %invoke.cont
  call void @_ZN6icu_7513UnicodeStringD1Ev(ptr noundef nonnull align 8 dereferenceable(64) %ref.tmp7) #11
  br label %return

return:                                           ; preds = %invoke.cont9, %if.then3, %if.then
  ret void

lpad:                                             ; preds = %if.end4
  %10 = landingpad { ptr, i32 }
          cleanup
  %11 = extractvalue { ptr, i32 } %10, 0
  store ptr %11, ptr %exn.slot, align 8
  %12 = extractvalue { ptr, i32 } %10, 1
  store i32 %12, ptr %ehselector.slot, align 4
  call void @_ZN6icu_7513UnicodeStringD1Ev(ptr noundef nonnull align 8 dereferenceable(64) %ref.tmp) #11
  br label %eh.resume

lpad8:                                            ; preds = %invoke.cont
  %13 = landingpad { ptr, i32 }
          cleanup
  %14 = extractvalue { ptr, i32 } %13, 0
  store ptr %14, ptr %exn.slot, align 8
  %15 = extractvalue { ptr, i32 } %13, 1
  store i32 %15, ptr %ehselector.slot, align 4
  call void @_ZN6icu_7513UnicodeStringD1Ev(ptr noundef nonnull align 8 dereferenceable(64) %ref.tmp7) #11
  br label %eh.resume

eh.resume:                                        ; preds = %lpad8, %lpad
  %exn = load ptr, ptr %exn.slot, align 8
  %sel = load i32, ptr %ehselector.slot, align 4
  %lpad.val = insertvalue { ptr, i32 } poison, ptr %exn, 0
  %lpad.val11 = insertvalue { ptr, i32 } %lpad.val, i32 %sel, 1
  resume { ptr, i32 } %lpad.val11
}

declare void @_ZN6icu_7513UnicodeStringC1EaNS_14ConstChar16PtrEi(ptr noundef nonnull align 8 dereferenceable(64), i8 noundef signext, ptr noundef, i32 noundef) unnamed_addr #5

declare ptr @u_strchr_75(ptr noundef, i16 noundef zeroext) #5

; Function Attrs: mustprogress uwtable
define noundef nonnull align 8 dereferenceable(64) ptr @_ZN6icu_7514TimeZoneFormat19expandOffsetPatternERKNS_13UnicodeStringERS1_R10UErrorCode(ptr noundef nonnull align 8 dereferenceable(64) %offsetHM, ptr noundef nonnull align 8 dereferenceable(64) %result, ptr noundef nonnull align 4 dereferenceable(4) %status) #1 align 2 personality ptr @__gxx_personality_v0 {
entry:
  %retval = alloca ptr, align 8
  %offsetHM.addr = alloca ptr, align 8
  %result.addr = alloca ptr, align 8
  %status.addr = alloca ptr, align 8
  %idx_mm = alloca i32, align 4
  %sep = alloca %"class.icu_75::UnicodeString", align 8
  %idx_H = alloca i32, align 4
  %ref.tmp = alloca %"class.icu_75::UnicodeString", align 8
  %exn.slot = alloca ptr, align 8
  %ehselector.slot = alloca i32, align 4
  %ref.tmp9 = alloca %"class.icu_75::UnicodeString", align 8
  %ref.tmp14 = alloca %"class.icu_75::UnicodeString", align 8
  %agg.tmp = alloca %"class.icu_75::ConstChar16Ptr", align 8
  %ref.tmp26 = alloca %"class.icu_75::UnicodeString", align 8
  store ptr %offsetHM, ptr %offsetHM.addr, align 8
  store ptr %result, ptr %result.addr, align 8
  store ptr %status, ptr %status.addr, align 8
  %0 = load ptr, ptr %result.addr, align 8
  call void @_ZN6icu_7513UnicodeString10setToBogusEv(ptr noundef nonnull align 8 dereferenceable(64) %0)
  %1 = load ptr, ptr %status.addr, align 8
  %2 = load i32, ptr %1, align 4
  %call = call noundef signext i8 @_ZL9U_FAILURE10UErrorCode(i32 noundef %2)
  %tobool = icmp ne i8 %call, 0
  br i1 %tobool, label %if.then, label %if.end

if.then:                                          ; preds = %entry
  %3 = load ptr, ptr %result.addr, align 8
  store ptr %3, ptr %retval, align 8
  br label %return

if.end:                                           ; preds = %entry
  %4 = load ptr, ptr %offsetHM.addr, align 8
  %call1 = call noundef i32 @_ZNK6icu_7513UnicodeString7indexOfEPKDsii(ptr noundef nonnull align 8 dereferenceable(64) %4, ptr noundef @_ZN6icu_75L33DEFAULT_GMT_OFFSET_MINUTE_PATTERNE, i32 noundef 2, i32 noundef 0)
  store i32 %call1, ptr %idx_mm, align 4
  %5 = load i32, ptr %idx_mm, align 4
  %cmp = icmp slt i32 %5, 0
  br i1 %cmp, label %if.then2, label %if.end3

if.then2:                                         ; preds = %if.end
  %6 = load ptr, ptr %status.addr, align 8
  store i32 1, ptr %6, align 4
  %7 = load ptr, ptr %result.addr, align 8
  store ptr %7, ptr %retval, align 8
  br label %return

if.end3:                                          ; preds = %if.end
  call void @_ZN6icu_7513UnicodeStringC2Ev(ptr noundef nonnull align 8 dereferenceable(64) %sep)
  %8 = load ptr, ptr %offsetHM.addr, align 8
  %9 = load i32, ptr %idx_mm, align 4
  invoke void @_ZNK6icu_7513UnicodeString13tempSubStringEii(ptr sret(%"class.icu_75::UnicodeString") align 8 %ref.tmp, ptr noundef nonnull align 8 dereferenceable(64) %8, i32 noundef 0, i32 noundef %9)
          to label %invoke.cont unwind label %lpad

invoke.cont:                                      ; preds = %if.end3
  %call6 = invoke noundef i32 @_ZNK6icu_7513UnicodeString11lastIndexOfEDs(ptr noundef nonnull align 8 dereferenceable(64) %ref.tmp, i16 noundef zeroext 72)
          to label %invoke.cont5 unwind label %lpad4

invoke.cont5:                                     ; preds = %invoke.cont
  call void @_ZN6icu_7513UnicodeStringD1Ev(ptr noundef nonnull align 8 dereferenceable(64) %ref.tmp) #11
  store i32 %call6, ptr %idx_H, align 4
  %10 = load i32, ptr %idx_H, align 4
  %cmp7 = icmp sge i32 %10, 0
  br i1 %cmp7, label %if.then8, label %if.end13

if.then8:                                         ; preds = %invoke.cont5
  %11 = load ptr, ptr %offsetHM.addr, align 8
  %12 = load i32, ptr %idx_H, align 4
  %add = add nsw i32 %12, 1
  %13 = load i32, ptr %idx_mm, align 4
  %14 = load i32, ptr %idx_H, align 4
  %add10 = add nsw i32 %14, 1
  %sub = sub nsw i32 %13, %add10
  invoke void @_ZNK6icu_7513UnicodeString13tempSubStringEii(ptr sret(%"class.icu_75::UnicodeString") align 8 %ref.tmp9, ptr noundef nonnull align 8 dereferenceable(64) %11, i32 noundef %add, i32 noundef %sub)
          to label %invoke.cont11 unwind label %lpad

invoke.cont11:                                    ; preds = %if.then8
  %call12 = call noundef nonnull align 8 dereferenceable(64) ptr @_ZN6icu_7513UnicodeStringaSEOS0_(ptr noundef nonnull align 8 dereferenceable(64) %sep, ptr noundef nonnull align 8 dereferenceable(64) %ref.tmp9) #11
  call void @_ZN6icu_7513UnicodeStringD1Ev(ptr noundef nonnull align 8 dereferenceable(64) %ref.tmp9) #11
  br label %if.end13

lpad:                                             ; preds = %invoke.cont24, %invoke.cont20, %invoke.cont18, %if.end13, %if.then8, %if.end3
  %15 = landingpad { ptr, i32 }
          cleanup
  %16 = extractvalue { ptr, i32 } %15, 0
  store ptr %16, ptr %exn.slot, align 8
  %17 = extractvalue { ptr, i32 } %15, 1
  store i32 %17, ptr %ehselector.slot, align 4
  br label %ehcleanup

lpad4:                                            ; preds = %invoke.cont
  %18 = landingpad { ptr, i32 }
          cleanup
  %19 = extractvalue { ptr, i32 } %18, 0
  store ptr %19, ptr %exn.slot, align 8
  %20 = extractvalue { ptr, i32 } %18, 1
  store i32 %20, ptr %ehselector.slot, align 4
  call void @_ZN6icu_7513UnicodeStringD1Ev(ptr noundef nonnull align 8 dereferenceable(64) %ref.tmp) #11
  br label %ehcleanup

if.end13:                                         ; preds = %invoke.cont11, %invoke.cont5
  %21 = load ptr, ptr %result.addr, align 8
  %22 = load ptr, ptr %offsetHM.addr, align 8
  %23 = load i32, ptr %idx_mm, align 4
  %add15 = add nsw i32 %23, 2
  invoke void @_ZNK6icu_7513UnicodeString13tempSubStringEii(ptr sret(%"class.icu_75::UnicodeString") align 8 %ref.tmp14, ptr noundef nonnull align 8 dereferenceable(64) %22, i32 noundef 0, i32 noundef %add15)
          to label %invoke.cont16 unwind label %lpad

invoke.cont16:                                    ; preds = %if.end13
  %call19 = invoke noundef nonnull align 8 dereferenceable(64) ptr @_ZN6icu_7513UnicodeString5setToERKS0_(ptr noundef nonnull align 8 dereferenceable(64) %21, ptr noundef nonnull align 8 dereferenceable(64) %ref.tmp14)
          to label %invoke.cont18 unwind label %lpad17

invoke.cont18:                                    ; preds = %invoke.cont16
  call void @_ZN6icu_7513UnicodeStringD1Ev(ptr noundef nonnull align 8 dereferenceable(64) %ref.tmp14) #11
  %24 = load ptr, ptr %result.addr, align 8
  %call21 = invoke noundef nonnull align 8 dereferenceable(64) ptr @_ZN6icu_7513UnicodeString6appendERKS0_(ptr noundef nonnull align 8 dereferenceable(64) %24, ptr noundef nonnull align 8 dereferenceable(64) %sep)
          to label %invoke.cont20 unwind label %lpad

invoke.cont20:                                    ; preds = %invoke.cont18
  %25 = load ptr, ptr %result.addr, align 8
  invoke void @_ZN6icu_7514ConstChar16PtrC2EPKDs(ptr noundef nonnull align 8 dereferenceable(8) %agg.tmp, ptr noundef @_ZN6icu_75L33DEFAULT_GMT_OFFSET_SECOND_PATTERNE)
          to label %invoke.cont22 unwind label %lpad

invoke.cont22:                                    ; preds = %invoke.cont20
  %call25 = invoke noundef nonnull align 8 dereferenceable(64) ptr @_ZN6icu_7513UnicodeString6appendENS_14ConstChar16PtrEi(ptr noundef nonnull align 8 dereferenceable(64) %25, ptr noundef %agg.tmp, i32 noundef -1)
          to label %invoke.cont24 unwind label %lpad23

invoke.cont24:                                    ; preds = %invoke.cont22
  call void @_ZN6icu_7514ConstChar16PtrD2Ev(ptr noundef nonnull align 8 dereferenceable(8) %agg.tmp) #11
  %26 = load ptr, ptr %result.addr, align 8
  %27 = load ptr, ptr %offsetHM.addr, align 8
  %28 = load i32, ptr %idx_mm, align 4
  %add27 = add nsw i32 %28, 2
  invoke void @_ZNK6icu_7513UnicodeString13tempSubStringEii(ptr sret(%"class.icu_75::UnicodeString") align 8 %ref.tmp26, ptr noundef nonnull align 8 dereferenceable(64) %27, i32 noundef %add27, i32 noundef 2147483647)
          to label %invoke.cont28 unwind label %lpad

invoke.cont28:                                    ; preds = %invoke.cont24
  %call31 = invoke noundef nonnull align 8 dereferenceable(64) ptr @_ZN6icu_7513UnicodeString6appendERKS0_(ptr noundef nonnull align 8 dereferenceable(64) %26, ptr noundef nonnull align 8 dereferenceable(64) %ref.tmp26)
          to label %invoke.cont30 unwind label %lpad29

invoke.cont30:                                    ; preds = %invoke.cont28
  call void @_ZN6icu_7513UnicodeStringD1Ev(ptr noundef nonnull align 8 dereferenceable(64) %ref.tmp26) #11
  %29 = load ptr, ptr %result.addr, align 8
  store ptr %29, ptr %retval, align 8
  call void @_ZN6icu_7513UnicodeStringD1Ev(ptr noundef nonnull align 8 dereferenceable(64) %sep) #11
  br label %return

lpad17:                                           ; preds = %invoke.cont16
  %30 = landingpad { ptr, i32 }
          cleanup
  %31 = extractvalue { ptr, i32 } %30, 0
  store ptr %31, ptr %exn.slot, align 8
  %32 = extractvalue { ptr, i32 } %30, 1
  store i32 %32, ptr %ehselector.slot, align 4
  call void @_ZN6icu_7513UnicodeStringD1Ev(ptr noundef nonnull align 8 dereferenceable(64) %ref.tmp14) #11
  br label %ehcleanup

lpad23:                                           ; preds = %invoke.cont22
  %33 = landingpad { ptr, i32 }
          cleanup
  %34 = extractvalue { ptr, i32 } %33, 0
  store ptr %34, ptr %exn.slot, align 8
  %35 = extractvalue { ptr, i32 } %33, 1
  store i32 %35, ptr %ehselector.slot, align 4
  call void @_ZN6icu_7514ConstChar16PtrD2Ev(ptr noundef nonnull align 8 dereferenceable(8) %agg.tmp) #11
  br label %ehcleanup

lpad29:                                           ; preds = %invoke.cont28
  %36 = landingpad { ptr, i32 }
          cleanup
  %37 = extractvalue { ptr, i32 } %36, 0
  store ptr %37, ptr %exn.slot, align 8
  %38 = extractvalue { ptr, i32 } %36, 1
  store i32 %38, ptr %ehselector.slot, align 4
  call void @_ZN6icu_7513UnicodeStringD1Ev(ptr noundef nonnull align 8 dereferenceable(64) %ref.tmp26) #11
  br label %ehcleanup

ehcleanup:                                        ; preds = %lpad29, %lpad23, %lpad17, %lpad4, %lpad
  call void @_ZN6icu_7513UnicodeStringD1Ev(ptr noundef nonnull align 8 dereferenceable(64) %sep) #11
  br label %eh.resume

return:                                           ; preds = %invoke.cont30, %if.then2, %if.then
  %39 = load ptr, ptr %retval, align 8
  ret ptr %39

eh.resume:                                        ; preds = %ehcleanup
  %exn = load ptr, ptr %exn.slot, align 8
  %sel = load i32, ptr %ehselector.slot, align 4
  %lpad.val = insertvalue { ptr, i32 } poison, ptr %exn, 0
  %lpad.val32 = insertvalue { ptr, i32 } %lpad.val, i32 %sel, 1
  resume { ptr, i32 } %lpad.val32
}

; Function Attrs: mustprogress uwtable
define noundef nonnull align 8 dereferenceable(64) ptr @_ZN6icu_7514TimeZoneFormat21truncateOffsetPatternERKNS_13UnicodeStringERS1_R10UErrorCode(ptr noundef nonnull align 8 dereferenceable(64) %offsetHM, ptr noundef nonnull align 8 dereferenceable(64) %result, ptr noundef nonnull align 4 dereferenceable(4) %status) #1 align 2 personality ptr @__gxx_personality_v0 {
entry:
  %retval = alloca ptr, align 8
  %offsetHM.addr = alloca ptr, align 8
  %result.addr = alloca ptr, align 8
  %status.addr = alloca ptr, align 8
  %idx_mm = alloca i32, align 4
  %HH = alloca [2 x i16], align 2
  %idx_HH = alloca i32, align 4
  %ref.tmp = alloca %"class.icu_75::UnicodeString", align 8
  %exn.slot = alloca ptr, align 8
  %ehselector.slot = alloca i32, align 4
  %ref.tmp7 = alloca %"class.icu_75::UnicodeString", align 8
  %idx_H = alloca i32, align 4
  %ref.tmp12 = alloca %"class.icu_75::UnicodeString", align 8
  %ref.tmp18 = alloca %"class.icu_75::UnicodeString", align 8
  store ptr %offsetHM, ptr %offsetHM.addr, align 8
  store ptr %result, ptr %result.addr, align 8
  store ptr %status, ptr %status.addr, align 8
  %0 = load ptr, ptr %result.addr, align 8
  call void @_ZN6icu_7513UnicodeString10setToBogusEv(ptr noundef nonnull align 8 dereferenceable(64) %0)
  %1 = load ptr, ptr %status.addr, align 8
  %2 = load i32, ptr %1, align 4
  %call = call noundef signext i8 @_ZL9U_FAILURE10UErrorCode(i32 noundef %2)
  %tobool = icmp ne i8 %call, 0
  br i1 %tobool, label %if.then, label %if.end

if.then:                                          ; preds = %entry
  %3 = load ptr, ptr %result.addr, align 8
  store ptr %3, ptr %retval, align 8
  br label %return

if.end:                                           ; preds = %entry
  %4 = load ptr, ptr %offsetHM.addr, align 8
  %call1 = call noundef i32 @_ZNK6icu_7513UnicodeString7indexOfEPKDsii(ptr noundef nonnull align 8 dereferenceable(64) %4, ptr noundef @_ZN6icu_75L33DEFAULT_GMT_OFFSET_MINUTE_PATTERNE, i32 noundef 2, i32 noundef 0)
  store i32 %call1, ptr %idx_mm, align 4
  %5 = load i32, ptr %idx_mm, align 4
  %cmp = icmp slt i32 %5, 0
  br i1 %cmp, label %if.then2, label %if.end3

if.then2:                                         ; preds = %if.end
  %6 = load ptr, ptr %status.addr, align 8
  store i32 1, ptr %6, align 4
  %7 = load ptr, ptr %result.addr, align 8
  store ptr %7, ptr %retval, align 8
  br label %return

if.end3:                                          ; preds = %if.end
  call void @llvm.memcpy.p0.p0.i64(ptr align 2 %HH, ptr align 2 @__const._ZN6icu_7514TimeZoneFormat21truncateOffsetPatternERKNS_13UnicodeStringERS1_R10UErrorCode.HH, i64 4, i1 false)
  %8 = load ptr, ptr %offsetHM.addr, align 8
  %9 = load i32, ptr %idx_mm, align 4
  call void @_ZNK6icu_7513UnicodeString13tempSubStringEii(ptr sret(%"class.icu_75::UnicodeString") align 8 %ref.tmp, ptr noundef nonnull align 8 dereferenceable(64) %8, i32 noundef 0, i32 noundef %9)
  %arraydecay = getelementptr inbounds [2 x i16], ptr %HH, i64 0, i64 0
  %call4 = invoke noundef i32 @_ZNK6icu_7513UnicodeString11lastIndexOfEPKDsii(ptr noundef nonnull align 8 dereferenceable(64) %ref.tmp, ptr noundef %arraydecay, i32 noundef 2, i32 noundef 0)
          to label %invoke.cont unwind label %lpad

invoke.cont:                                      ; preds = %if.end3
  call void @_ZN6icu_7513UnicodeStringD1Ev(ptr noundef nonnull align 8 dereferenceable(64) %ref.tmp) #11
  store i32 %call4, ptr %idx_HH, align 4
  %10 = load i32, ptr %idx_HH, align 4
  %cmp5 = icmp sge i32 %10, 0
  br i1 %cmp5, label %if.then6, label %if.end11

if.then6:                                         ; preds = %invoke.cont
  %11 = load ptr, ptr %result.addr, align 8
  %12 = load ptr, ptr %offsetHM.addr, align 8
  %13 = load i32, ptr %idx_HH, align 4
  %add = add nsw i32 %13, 2
  call void @_ZNK6icu_7513UnicodeString13tempSubStringEii(ptr sret(%"class.icu_75::UnicodeString") align 8 %ref.tmp7, ptr noundef nonnull align 8 dereferenceable(64) %12, i32 noundef 0, i32 noundef %add)
  %call10 = invoke noundef nonnull align 8 dereferenceable(64) ptr @_ZN6icu_7513UnicodeString5setToERKS0_(ptr noundef nonnull align 8 dereferenceable(64) %11, ptr noundef nonnull align 8 dereferenceable(64) %ref.tmp7)
          to label %invoke.cont9 unwind label %lpad8

invoke.cont9:                                     ; preds = %if.then6
  store ptr %call10, ptr %retval, align 8
  call void @_ZN6icu_7513UnicodeStringD1Ev(ptr noundef nonnull align 8 dereferenceable(64) %ref.tmp7) #11
  br label %return

lpad:                                             ; preds = %if.end3
  %14 = landingpad { ptr, i32 }
          cleanup
  %15 = extractvalue { ptr, i32 } %14, 0
  store ptr %15, ptr %exn.slot, align 8
  %16 = extractvalue { ptr, i32 } %14, 1
  store i32 %16, ptr %ehselector.slot, align 4
  call void @_ZN6icu_7513UnicodeStringD1Ev(ptr noundef nonnull align 8 dereferenceable(64) %ref.tmp) #11
  br label %eh.resume

lpad8:                                            ; preds = %if.then6
  %17 = landingpad { ptr, i32 }
          cleanup
  %18 = extractvalue { ptr, i32 } %17, 0
  store ptr %18, ptr %exn.slot, align 8
  %19 = extractvalue { ptr, i32 } %17, 1
  store i32 %19, ptr %ehselector.slot, align 4
  call void @_ZN6icu_7513UnicodeStringD1Ev(ptr noundef nonnull align 8 dereferenceable(64) %ref.tmp7) #11
  br label %eh.resume

if.end11:                                         ; preds = %invoke.cont
  %20 = load ptr, ptr %offsetHM.addr, align 8
  %21 = load i32, ptr %idx_mm, align 4
  call void @_ZNK6icu_7513UnicodeString13tempSubStringEii(ptr sret(%"class.icu_75::UnicodeString") align 8 %ref.tmp12, ptr noundef nonnull align 8 dereferenceable(64) %20, i32 noundef 0, i32 noundef %21)
  %call15 = invoke noundef i32 @_ZNK6icu_7513UnicodeString11lastIndexOfEDsi(ptr noundef nonnull align 8 dereferenceable(64) %ref.tmp12, i16 noundef zeroext 72, i32 noundef 0)
          to label %invoke.cont14 unwind label %lpad13

invoke.cont14:                                    ; preds = %if.end11
  call void @_ZN6icu_7513UnicodeStringD1Ev(ptr noundef nonnull align 8 dereferenceable(64) %ref.tmp12) #11
  store i32 %call15, ptr %idx_H, align 4
  %22 = load i32, ptr %idx_H, align 4
  %cmp16 = icmp sge i32 %22, 0
  br i1 %cmp16, label %if.then17, label %if.end23

if.then17:                                        ; preds = %invoke.cont14
  %23 = load ptr, ptr %result.addr, align 8
  %24 = load ptr, ptr %offsetHM.addr, align 8
  %25 = load i32, ptr %idx_H, align 4
  %add19 = add nsw i32 %25, 1
  call void @_ZNK6icu_7513UnicodeString13tempSubStringEii(ptr sret(%"class.icu_75::UnicodeString") align 8 %ref.tmp18, ptr noundef nonnull align 8 dereferenceable(64) %24, i32 noundef 0, i32 noundef %add19)
  %call22 = invoke noundef nonnull align 8 dereferenceable(64) ptr @_ZN6icu_7513UnicodeString5setToERKS0_(ptr noundef nonnull align 8 dereferenceable(64) %23, ptr noundef nonnull align 8 dereferenceable(64) %ref.tmp18)
          to label %invoke.cont21 unwind label %lpad20

invoke.cont21:                                    ; preds = %if.then17
  store ptr %call22, ptr %retval, align 8
  call void @_ZN6icu_7513UnicodeStringD1Ev(ptr noundef nonnull align 8 dereferenceable(64) %ref.tmp18) #11
  br label %return

lpad13:                                           ; preds = %if.end11
  %26 = landingpad { ptr, i32 }
          cleanup
  %27 = extractvalue { ptr, i32 } %26, 0
  store ptr %27, ptr %exn.slot, align 8
  %28 = extractvalue { ptr, i32 } %26, 1
  store i32 %28, ptr %ehselector.slot, align 4
  call void @_ZN6icu_7513UnicodeStringD1Ev(ptr noundef nonnull align 8 dereferenceable(64) %ref.tmp12) #11
  br label %eh.resume

lpad20:                                           ; preds = %if.then17
  %29 = landingpad { ptr, i32 }
          cleanup
  %30 = extractvalue { ptr, i32 } %29, 0
  store ptr %30, ptr %exn.slot, align 8
  %31 = extractvalue { ptr, i32 } %29, 1
  store i32 %31, ptr %ehselector.slot, align 4
  call void @_ZN6icu_7513UnicodeStringD1Ev(ptr noundef nonnull align 8 dereferenceable(64) %ref.tmp18) #11
  br label %eh.resume

if.end23:                                         ; preds = %invoke.cont14
  %32 = load ptr, ptr %status.addr, align 8
  store i32 1, ptr %32, align 4
  %33 = load ptr, ptr %result.addr, align 8
  store ptr %33, ptr %retval, align 8
  br label %return

return:                                           ; preds = %if.end23, %invoke.cont21, %invoke.cont9, %if.then2, %if.then
  %34 = load ptr, ptr %retval, align 8
  ret ptr %34

eh.resume:                                        ; preds = %lpad20, %lpad13, %lpad8, %lpad
  %exn = load ptr, ptr %exn.slot, align 8
  %sel = load i32, ptr %ehselector.slot, align 4
  %lpad.val = insertvalue { ptr, i32 } poison, ptr %exn, 0
  %lpad.val24 = insertvalue { ptr, i32 } %lpad.val, i32 %sel, 1
  resume { ptr, i32 } %lpad.val24
}

; Function Attrs: mustprogress uwtable
define void @_ZN6icu_7514TimeZoneFormat21initGMTOffsetPatternsER10UErrorCode(ptr noundef nonnull align 8 dereferenceable(1328) %this, ptr noundef nonnull align 4 dereferenceable(4) %status) #1 align 2 {
entry:
  %this.addr = alloca ptr, align 8
  %status.addr = alloca ptr, align 8
  %type = alloca i32, align 4
  store ptr %this, ptr %this.addr, align 8
  store ptr %status, ptr %status.addr, align 8
  %this1 = load ptr, ptr %this.addr, align 8
  store i32 0, ptr %type, align 4
  br label %for.cond

for.cond:                                         ; preds = %for.inc, %entry
  %0 = load i32, ptr %type, align 4
  %cmp = icmp slt i32 %0, 6
  br i1 %cmp, label %for.body, label %for.end

for.body:                                         ; preds = %for.cond
  %1 = load i32, ptr %type, align 4
  switch i32 %1, label %sw.epilog [
    i32 4, label %sw.bb
    i32 5, label %sw.bb
    i32 0, label %sw.bb4
    i32 2, label %sw.bb4
    i32 1, label %sw.bb12
    i32 3, label %sw.bb12
  ]

sw.bb:                                            ; preds = %for.body, %for.body
  %fGMTOffsetPatterns = getelementptr inbounds %"class.icu_75::TimeZoneFormat", ptr %this1, i32 0, i32 7
  %2 = load i32, ptr %type, align 4
  %idxprom = sext i32 %2 to i64
  %arrayidx = getelementptr inbounds [6 x %"class.icu_75::UnicodeString"], ptr %fGMTOffsetPatterns, i64 0, i64 %idxprom
  %3 = load ptr, ptr %status.addr, align 8
  %call = call noundef ptr @_ZN6icu_7514TimeZoneFormat18parseOffsetPatternERKNS_13UnicodeStringENS0_12OffsetFieldsER10UErrorCode(ptr noundef nonnull align 8 dereferenceable(64) %arrayidx, i32 noundef 0, ptr noundef nonnull align 4 dereferenceable(4) %3)
  %fGMTOffsetPatternItems = getelementptr inbounds %"class.icu_75::TimeZoneFormat", ptr %this1, i32 0, i32 13
  %4 = load i32, ptr %type, align 4
  %idxprom2 = sext i32 %4 to i64
  %arrayidx3 = getelementptr inbounds [6 x ptr], ptr %fGMTOffsetPatternItems, i64 0, i64 %idxprom2
  store ptr %call, ptr %arrayidx3, align 8
  br label %sw.epilog

sw.bb4:                                           ; preds = %for.body, %for.body
  %fGMTOffsetPatterns5 = getelementptr inbounds %"class.icu_75::TimeZoneFormat", ptr %this1, i32 0, i32 7
  %5 = load i32, ptr %type, align 4
  %idxprom6 = sext i32 %5 to i64
  %arrayidx7 = getelementptr inbounds [6 x %"class.icu_75::UnicodeString"], ptr %fGMTOffsetPatterns5, i64 0, i64 %idxprom6
  %6 = load ptr, ptr %status.addr, align 8
  %call8 = call noundef ptr @_ZN6icu_7514TimeZoneFormat18parseOffsetPatternERKNS_13UnicodeStringENS0_12OffsetFieldsER10UErrorCode(ptr noundef nonnull align 8 dereferenceable(64) %arrayidx7, i32 noundef 1, ptr noundef nonnull align 4 dereferenceable(4) %6)
  %fGMTOffsetPatternItems9 = getelementptr inbounds %"class.icu_75::TimeZoneFormat", ptr %this1, i32 0, i32 13
  %7 = load i32, ptr %type, align 4
  %idxprom10 = sext i32 %7 to i64
  %arrayidx11 = getelementptr inbounds [6 x ptr], ptr %fGMTOffsetPatternItems9, i64 0, i64 %idxprom10
  store ptr %call8, ptr %arrayidx11, align 8
  br label %sw.epilog

sw.bb12:                                          ; preds = %for.body, %for.body
  %fGMTOffsetPatterns13 = getelementptr inbounds %"class.icu_75::TimeZoneFormat", ptr %this1, i32 0, i32 7
  %8 = load i32, ptr %type, align 4
  %idxprom14 = sext i32 %8 to i64
  %arrayidx15 = getelementptr inbounds [6 x %"class.icu_75::UnicodeString"], ptr %fGMTOffsetPatterns13, i64 0, i64 %idxprom14
  %9 = load ptr, ptr %status.addr, align 8
  %call16 = call noundef ptr @_ZN6icu_7514TimeZoneFormat18parseOffsetPatternERKNS_13UnicodeStringENS0_12OffsetFieldsER10UErrorCode(ptr noundef nonnull align 8 dereferenceable(64) %arrayidx15, i32 noundef 2, ptr noundef nonnull align 4 dereferenceable(4) %9)
  %fGMTOffsetPatternItems17 = getelementptr inbounds %"class.icu_75::TimeZoneFormat", ptr %this1, i32 0, i32 13
  %10 = load i32, ptr %type, align 4
  %idxprom18 = sext i32 %10 to i64
  %arrayidx19 = getelementptr inbounds [6 x ptr], ptr %fGMTOffsetPatternItems17, i64 0, i64 %idxprom18
  store ptr %call16, ptr %arrayidx19, align 8
  br label %sw.epilog

sw.epilog:                                        ; preds = %sw.bb12, %sw.bb4, %sw.bb, %for.body
  br label %for.inc

for.inc:                                          ; preds = %sw.epilog
  %11 = load i32, ptr %type, align 4
  %inc = add nsw i32 %11, 1
  store i32 %inc, ptr %type, align 4
  br label %for.cond, !llvm.loop !7

for.end:                                          ; preds = %for.cond
  %12 = load ptr, ptr %status.addr, align 8
  %13 = load i32, ptr %12, align 4
  %call20 = call noundef signext i8 @_ZL9U_FAILURE10UErrorCode(i32 noundef %13)
  %tobool = icmp ne i8 %call20, 0
  br i1 %tobool, label %if.then, label %if.end

if.then:                                          ; preds = %for.end
  br label %return

if.end:                                           ; preds = %for.end
  call void @_ZN6icu_7514TimeZoneFormat28checkAbuttingHoursAndMinutesEv(ptr noundef nonnull align 8 dereferenceable(1328) %this1)
  br label %return

return:                                           ; preds = %if.end, %if.then
  ret void
}

declare noundef ptr @_ZN6icu_7515NumberingSystem14createInstanceERKNS_6LocaleER10UErrorCode(ptr noundef nonnull align 8 dereferenceable(217), ptr noundef nonnull align 4 dereferenceable(4)) #5

declare noundef signext i8 @_ZNK6icu_7515NumberingSystem13isAlgorithmicEv(ptr noundef nonnull align 8 dereferenceable(86)) #5

; Function Attrs: mustprogress uwtable
define noundef signext i8 @_ZN6icu_7514TimeZoneFormat12toCodePointsERKNS_13UnicodeStringEPii(ptr noundef nonnull align 8 dereferenceable(64) %str, ptr noundef %codeArray, i32 noundef %size) #1 align 2 {
entry:
  %retval = alloca i8, align 1
  %str.addr = alloca ptr, align 8
  %codeArray.addr = alloca ptr, align 8
  %size.addr = alloca i32, align 4
  %count = alloca i32, align 4
  %idx = alloca i32, align 4
  %start = alloca i32, align 4
  store ptr %str, ptr %str.addr, align 8
  store ptr %codeArray, ptr %codeArray.addr, align 8
  store i32 %size, ptr %size.addr, align 4
  %0 = load ptr, ptr %str.addr, align 8
  %call = call noundef i32 @_ZNK6icu_7513UnicodeString11countChar32Eii(ptr noundef nonnull align 8 dereferenceable(64) %0, i32 noundef 0, i32 noundef 2147483647)
  store i32 %call, ptr %count, align 4
  %1 = load i32, ptr %count, align 4
  %2 = load i32, ptr %size.addr, align 4
  %cmp = icmp ne i32 %1, %2
  br i1 %cmp, label %if.then, label %if.end

if.then:                                          ; preds = %entry
  store i8 0, ptr %retval, align 1
  br label %return

if.end:                                           ; preds = %entry
  store i32 0, ptr %idx, align 4
  store i32 0, ptr %start, align 4
  br label %for.cond

for.cond:                                         ; preds = %for.inc, %if.end
  %3 = load i32, ptr %idx, align 4
  %4 = load i32, ptr %size.addr, align 4
  %cmp1 = icmp slt i32 %3, %4
  br i1 %cmp1, label %for.body, label %for.end

for.body:                                         ; preds = %for.cond
  %5 = load ptr, ptr %str.addr, align 8
  %6 = load i32, ptr %start, align 4
  %call2 = call noundef i32 @_ZNK6icu_7513UnicodeString8char32AtEi(ptr noundef nonnull align 8 dereferenceable(64) %5, i32 noundef %6)
  %7 = load ptr, ptr %codeArray.addr, align 8
  %8 = load i32, ptr %idx, align 4
  %idxprom = sext i32 %8 to i64
  %arrayidx = getelementptr inbounds i32, ptr %7, i64 %idxprom
  store i32 %call2, ptr %arrayidx, align 4
  %9 = load ptr, ptr %str.addr, align 8
  %10 = load i32, ptr %start, align 4
  %call3 = call noundef i32 @_ZNK6icu_7513UnicodeString11moveIndex32Eii(ptr noundef nonnull align 8 dereferenceable(64) %9, i32 noundef %10, i32 noundef 1)
  store i32 %call3, ptr %start, align 4
  br label %for.inc

for.inc:                                          ; preds = %for.body
  %11 = load i32, ptr %idx, align 4
  %inc = add nsw i32 %11, 1
  store i32 %inc, ptr %idx, align 4
  br label %for.cond, !llvm.loop !8

for.end:                                          ; preds = %for.cond
  store i8 1, ptr %retval, align 1
  br label %return

return:                                           ; preds = %for.end, %if.then
  %12 = load i8, ptr %retval, align 1
  ret i8 %12
}

; Function Attrs: nounwind
declare void @_ZN6icu_756LocaleD1Ev(ptr noundef nonnull align 8 dereferenceable(217)) unnamed_addr #6

; Function Attrs: nounwind
declare void @_ZN6icu_756FormatD2Ev(ptr noundef nonnull align 8 dereferenceable(322)) unnamed_addr #6

; Function Attrs: mustprogress uwtable
define void @_ZN6icu_7514TimeZoneFormatC2ERKS0_(ptr noundef nonnull align 8 dereferenceable(1328) %this, ptr noundef nonnull align 8 dereferenceable(1328) %other) unnamed_addr #1 align 2 personality ptr @__gxx_personality_v0 {
entry:
  %this.addr = alloca ptr, align 8
  %other.addr = alloca ptr, align 8
  %exn.slot = alloca ptr, align 8
  %ehselector.slot = alloca i32, align 4
  %i = alloca i32, align 4
  store ptr %this, ptr %this.addr, align 8
  store ptr %other, ptr %other.addr, align 8
  %this1 = load ptr, ptr %this.addr, align 8
  %0 = load ptr, ptr %other.addr, align 8
  call void @_ZN6icu_756FormatC2ERKS0_(ptr noundef nonnull align 8 dereferenceable(322) %this1, ptr noundef nonnull align 8 dereferenceable(322) %0)
  store ptr getelementptr inbounds ({ [12 x ptr] }, ptr @_ZTVN6icu_7514TimeZoneFormatE, i32 0, inrange i32 0, i32 2), ptr %this1, align 8
  %fLocale = getelementptr inbounds %"class.icu_75::TimeZoneFormat", ptr %this1, i32 0, i32 2
  invoke void @_ZN6icu_756LocaleC1Ev(ptr noundef nonnull align 8 dereferenceable(217) %fLocale)
          to label %invoke.cont unwind label %lpad

invoke.cont:                                      ; preds = %entry
  %fTimeZoneNames = getelementptr inbounds %"class.icu_75::TimeZoneFormat", ptr %this1, i32 0, i32 4
  store ptr null, ptr %fTimeZoneNames, align 8
  %fTimeZoneGenericNames = getelementptr inbounds %"class.icu_75::TimeZoneFormat", ptr %this1, i32 0, i32 5
  store ptr null, ptr %fTimeZoneGenericNames, align 8
  %fGMTPattern = getelementptr inbounds %"class.icu_75::TimeZoneFormat", ptr %this1, i32 0, i32 6
  invoke void @_ZN6icu_7513UnicodeStringC2Ev(ptr noundef nonnull align 8 dereferenceable(64) %fGMTPattern)
          to label %invoke.cont3 unwind label %lpad2

invoke.cont3:                                     ; preds = %invoke.cont
  %fGMTOffsetPatterns = getelementptr inbounds %"class.icu_75::TimeZoneFormat", ptr %this1, i32 0, i32 7
  %array.begin = getelementptr inbounds [6 x %"class.icu_75::UnicodeString"], ptr %fGMTOffsetPatterns, i32 0, i32 0
  %arrayctor.end = getelementptr inbounds %"class.icu_75::UnicodeString", ptr %array.begin, i64 6
  br label %arrayctor.loop

arrayctor.loop:                                   ; preds = %invoke.cont5, %invoke.cont3
  %arrayctor.cur = phi ptr [ %array.begin, %invoke.cont3 ], [ %arrayctor.next, %invoke.cont5 ]
  invoke void @_ZN6icu_7513UnicodeStringC2Ev(ptr noundef nonnull align 8 dereferenceable(64) %arrayctor.cur)
          to label %invoke.cont5 unwind label %lpad4

invoke.cont5:                                     ; preds = %arrayctor.loop
  %arrayctor.next = getelementptr inbounds %"class.icu_75::UnicodeString", ptr %arrayctor.cur, i64 1
  %arrayctor.done = icmp eq ptr %arrayctor.next, %arrayctor.end
  br i1 %arrayctor.done, label %arrayctor.cont, label %arrayctor.loop

arrayctor.cont:                                   ; preds = %invoke.cont5
  %fGMTZeroFormat = getelementptr inbounds %"class.icu_75::TimeZoneFormat", ptr %this1, i32 0, i32 9
  invoke void @_ZN6icu_7513UnicodeStringC2Ev(ptr noundef nonnull align 8 dereferenceable(64) %fGMTZeroFormat)
          to label %invoke.cont8 unwind label %lpad7

invoke.cont8:                                     ; preds = %arrayctor.cont
  %fGMTPatternPrefix = getelementptr inbounds %"class.icu_75::TimeZoneFormat", ptr %this1, i32 0, i32 11
  invoke void @_ZN6icu_7513UnicodeStringC2Ev(ptr noundef nonnull align 8 dereferenceable(64) %fGMTPatternPrefix)
          to label %invoke.cont10 unwind label %lpad9

invoke.cont10:                                    ; preds = %invoke.cont8
  %fGMTPatternSuffix = getelementptr inbounds %"class.icu_75::TimeZoneFormat", ptr %this1, i32 0, i32 12
  invoke void @_ZN6icu_7513UnicodeStringC2Ev(ptr noundef nonnull align 8 dereferenceable(64) %fGMTPatternSuffix)
          to label %invoke.cont12 unwind label %lpad11

invoke.cont12:                                    ; preds = %invoke.cont10
  %fTZDBTimeZoneNames = getelementptr inbounds %"class.icu_75::TimeZoneFormat", ptr %this1, i32 0, i32 15
  store ptr null, ptr %fTZDBTimeZoneNames, align 8
  store i32 0, ptr %i, align 4
  br label %for.cond

for.cond:                                         ; preds = %for.inc, %invoke.cont12
  %1 = load i32, ptr %i, align 4
  %cmp = icmp slt i32 %1, 6
  br i1 %cmp, label %for.body, label %for.end

for.body:                                         ; preds = %for.cond
  %fGMTOffsetPatternItems = getelementptr inbounds %"class.icu_75::TimeZoneFormat", ptr %this1, i32 0, i32 13
  %2 = load i32, ptr %i, align 4
  %idxprom = sext i32 %2 to i64
  %arrayidx = getelementptr inbounds [6 x ptr], ptr %fGMTOffsetPatternItems, i64 0, i64 %idxprom
  store ptr null, ptr %arrayidx, align 8
  br label %for.inc

for.inc:                                          ; preds = %for.body
  %3 = load i32, ptr %i, align 4
  %inc = add nsw i32 %3, 1
  store i32 %inc, ptr %i, align 4
  br label %for.cond, !llvm.loop !9

lpad:                                             ; preds = %entry
  %4 = landingpad { ptr, i32 }
          cleanup
  %5 = extractvalue { ptr, i32 } %4, 0
  store ptr %5, ptr %exn.slot, align 8
  %6 = extractvalue { ptr, i32 } %4, 1
  store i32 %6, ptr %ehselector.slot, align 4
  br label %ehcleanup25

lpad2:                                            ; preds = %invoke.cont
  %7 = landingpad { ptr, i32 }
          cleanup
  %8 = extractvalue { ptr, i32 } %7, 0
  store ptr %8, ptr %exn.slot, align 8
  %9 = extractvalue { ptr, i32 } %7, 1
  store i32 %9, ptr %ehselector.slot, align 4
  br label %ehcleanup24

lpad4:                                            ; preds = %arrayctor.loop
  %10 = landingpad { ptr, i32 }
          cleanup
  %11 = extractvalue { ptr, i32 } %10, 0
  store ptr %11, ptr %exn.slot, align 8
  %12 = extractvalue { ptr, i32 } %10, 1
  store i32 %12, ptr %ehselector.slot, align 4
  %arraydestroy.isempty = icmp eq ptr %array.begin, %arrayctor.cur
  br i1 %arraydestroy.isempty, label %arraydestroy.done6, label %arraydestroy.body

arraydestroy.body:                                ; preds = %arraydestroy.body, %lpad4
  %arraydestroy.elementPast = phi ptr [ %arrayctor.cur, %lpad4 ], [ %arraydestroy.element, %arraydestroy.body ]
  %arraydestroy.element = getelementptr inbounds %"class.icu_75::UnicodeString", ptr %arraydestroy.elementPast, i64 -1
  call void @_ZN6icu_7513UnicodeStringD1Ev(ptr noundef nonnull align 8 dereferenceable(64) %arraydestroy.element) #11
  %arraydestroy.done = icmp eq ptr %arraydestroy.element, %array.begin
  br i1 %arraydestroy.done, label %arraydestroy.done6, label %arraydestroy.body

arraydestroy.done6:                               ; preds = %arraydestroy.body, %lpad4
  br label %ehcleanup23

lpad7:                                            ; preds = %arrayctor.cont
  %13 = landingpad { ptr, i32 }
          cleanup
  %14 = extractvalue { ptr, i32 } %13, 0
  store ptr %14, ptr %exn.slot, align 8
  %15 = extractvalue { ptr, i32 } %13, 1
  store i32 %15, ptr %ehselector.slot, align 4
  br label %ehcleanup16

lpad9:                                            ; preds = %invoke.cont8
  %16 = landingpad { ptr, i32 }
          cleanup
  %17 = extractvalue { ptr, i32 } %16, 0
  store ptr %17, ptr %exn.slot, align 8
  %18 = extractvalue { ptr, i32 } %16, 1
  store i32 %18, ptr %ehselector.slot, align 4
  br label %ehcleanup15

lpad11:                                           ; preds = %invoke.cont10
  %19 = landingpad { ptr, i32 }
          cleanup
  %20 = extractvalue { ptr, i32 } %19, 0
  store ptr %20, ptr %exn.slot, align 8
  %21 = extractvalue { ptr, i32 } %19, 1
  store i32 %21, ptr %ehselector.slot, align 4
  br label %ehcleanup

for.end:                                          ; preds = %for.cond
  %22 = load ptr, ptr %other.addr, align 8
  %call = invoke noundef nonnull align 8 dereferenceable(1328) ptr @_ZN6icu_7514TimeZoneFormataSERKS0_(ptr noundef nonnull align 8 dereferenceable(1328) %this1, ptr noundef nonnull align 8 dereferenceable(1328) %22)
          to label %invoke.cont14 unwind label %lpad13

invoke.cont14:                                    ; preds = %for.end
  ret void

lpad13:                                           ; preds = %for.end
  %23 = landingpad { ptr, i32 }
          cleanup
  %24 = extractvalue { ptr, i32 } %23, 0
  store ptr %24, ptr %exn.slot, align 8
  %25 = extractvalue { ptr, i32 } %23, 1
  store i32 %25, ptr %ehselector.slot, align 4
  call void @_ZN6icu_7513UnicodeStringD1Ev(ptr noundef nonnull align 8 dereferenceable(64) %fGMTPatternSuffix) #11
  br label %ehcleanup

ehcleanup:                                        ; preds = %lpad13, %lpad11
  call void @_ZN6icu_7513UnicodeStringD1Ev(ptr noundef nonnull align 8 dereferenceable(64) %fGMTPatternPrefix) #11
  br label %ehcleanup15

ehcleanup15:                                      ; preds = %ehcleanup, %lpad9
  call void @_ZN6icu_7513UnicodeStringD1Ev(ptr noundef nonnull align 8 dereferenceable(64) %fGMTZeroFormat) #11
  br label %ehcleanup16

ehcleanup16:                                      ; preds = %ehcleanup15, %lpad7
  %array.begin17 = getelementptr inbounds [6 x %"class.icu_75::UnicodeString"], ptr %fGMTOffsetPatterns, i32 0, i32 0
  %26 = getelementptr inbounds %"class.icu_75::UnicodeString", ptr %array.begin17, i64 6
  br label %arraydestroy.body18

arraydestroy.body18:                              ; preds = %arraydestroy.body18, %ehcleanup16
  %arraydestroy.elementPast19 = phi ptr [ %26, %ehcleanup16 ], [ %arraydestroy.element20, %arraydestroy.body18 ]
  %arraydestroy.element20 = getelementptr inbounds %"class.icu_75::UnicodeString", ptr %arraydestroy.elementPast19, i64 -1
  call void @_ZN6icu_7513UnicodeStringD1Ev(ptr noundef nonnull align 8 dereferenceable(64) %arraydestroy.element20) #11
  %arraydestroy.done21 = icmp eq ptr %arraydestroy.element20, %array.begin17
  br i1 %arraydestroy.done21, label %arraydestroy.done22, label %arraydestroy.body18

arraydestroy.done22:                              ; preds = %arraydestroy.body18
  br label %ehcleanup23

ehcleanup23:                                      ; preds = %arraydestroy.done22, %arraydestroy.done6
  call void @_ZN6icu_7513UnicodeStringD1Ev(ptr noundef nonnull align 8 dereferenceable(64) %fGMTPattern) #11
  br label %ehcleanup24

ehcleanup24:                                      ; preds = %ehcleanup23, %lpad2
  call void @_ZN6icu_756LocaleD1Ev(ptr noundef nonnull align 8 dereferenceable(217) %fLocale) #11
  br label %ehcleanup25

ehcleanup25:                                      ; preds = %ehcleanup24, %lpad
  call void @_ZN6icu_756FormatD2Ev(ptr noundef nonnull align 8 dereferenceable(322) %this1) #11
  br label %eh.resume

eh.resume:                                        ; preds = %ehcleanup25
  %exn = load ptr, ptr %exn.slot, align 8
  %sel = load i32, ptr %ehselector.slot, align 4
  %lpad.val = insertvalue { ptr, i32 } poison, ptr %exn, 0
  %lpad.val26 = insertvalue { ptr, i32 } %lpad.val, i32 %sel, 1
  resume { ptr, i32 } %lpad.val26
}

declare void @_ZN6icu_756FormatC2ERKS0_(ptr noundef nonnull align 8 dereferenceable(322), ptr noundef nonnull align 8 dereferenceable(322)) unnamed_addr #5

declare void @_ZN6icu_756LocaleC1Ev(ptr noundef nonnull align 8 dereferenceable(217)) unnamed_addr #5

; Function Attrs: mustprogress uwtable
define noundef nonnull align 8 dereferenceable(1328) ptr @_ZN6icu_7514TimeZoneFormataSERKS0_(ptr noundef nonnull align 8 dereferenceable(1328) %this, ptr noundef nonnull align 8 dereferenceable(1328) %other) #1 align 2 {
entry:
  %retval = alloca ptr, align 8
  %this.addr = alloca ptr, align 8
  %other.addr = alloca ptr, align 8
  %status = alloca i32, align 4
  %i = alloca i32, align 4
  store ptr %this, ptr %this.addr, align 8
  store ptr %other, ptr %other.addr, align 8
  %this1 = load ptr, ptr %this.addr, align 8
  %0 = load ptr, ptr %other.addr, align 8
  %cmp = icmp eq ptr %this1, %0
  br i1 %cmp, label %if.then, label %if.end

if.then:                                          ; preds = %entry
  store ptr %this1, ptr %retval, align 8
  br label %return

if.end:                                           ; preds = %entry
  %fTimeZoneNames = getelementptr inbounds %"class.icu_75::TimeZoneFormat", ptr %this1, i32 0, i32 4
  %1 = load ptr, ptr %fTimeZoneNames, align 8
  %isnull = icmp eq ptr %1, null
  br i1 %isnull, label %delete.end, label %delete.notnull

delete.notnull:                                   ; preds = %if.end
  %vtable = load ptr, ptr %1, align 8
  %vfn = getelementptr inbounds ptr, ptr %vtable, i64 1
  %2 = load ptr, ptr %vfn, align 8
  call void %2(ptr noundef nonnull align 8 dereferenceable(8) %1) #11
  br label %delete.end

delete.end:                                       ; preds = %delete.notnull, %if.end
  %fTimeZoneGenericNames = getelementptr inbounds %"class.icu_75::TimeZoneFormat", ptr %this1, i32 0, i32 5
  %3 = load ptr, ptr %fTimeZoneGenericNames, align 8
  %isnull2 = icmp eq ptr %3, null
  br i1 %isnull2, label %delete.end6, label %delete.notnull3

delete.notnull3:                                  ; preds = %delete.end
  %vtable4 = load ptr, ptr %3, align 8
  %vfn5 = getelementptr inbounds ptr, ptr %vtable4, i64 1
  %4 = load ptr, ptr %vfn5, align 8
  call void %4(ptr noundef nonnull align 8 dereferenceable(16) %3) #11
  br label %delete.end6

delete.end6:                                      ; preds = %delete.notnull3, %delete.end
  %fTimeZoneGenericNames7 = getelementptr inbounds %"class.icu_75::TimeZoneFormat", ptr %this1, i32 0, i32 5
  store ptr null, ptr %fTimeZoneGenericNames7, align 8
  %fTZDBTimeZoneNames = getelementptr inbounds %"class.icu_75::TimeZoneFormat", ptr %this1, i32 0, i32 15
  %5 = load ptr, ptr %fTZDBTimeZoneNames, align 8
  %isnull8 = icmp eq ptr %5, null
  br i1 %isnull8, label %delete.end12, label %delete.notnull9

delete.notnull9:                                  ; preds = %delete.end6
  %vtable10 = load ptr, ptr %5, align 8
  %vfn11 = getelementptr inbounds ptr, ptr %vtable10, i64 1
  %6 = load ptr, ptr %vfn11, align 8
  call void %6(ptr noundef nonnull align 8 dereferenceable(236) %5) #11
  br label %delete.end12

delete.end12:                                     ; preds = %delete.notnull9, %delete.end6
  %fTZDBTimeZoneNames13 = getelementptr inbounds %"class.icu_75::TimeZoneFormat", ptr %this1, i32 0, i32 15
  store ptr null, ptr %fTZDBTimeZoneNames13, align 8
  %7 = load ptr, ptr %other.addr, align 8
  %fLocale = getelementptr inbounds %"class.icu_75::TimeZoneFormat", ptr %7, i32 0, i32 2
  %fLocale14 = getelementptr inbounds %"class.icu_75::TimeZoneFormat", ptr %this1, i32 0, i32 2
  %call = call noundef nonnull align 8 dereferenceable(217) ptr @_ZN6icu_756LocaleaSERKS0_(ptr noundef nonnull align 8 dereferenceable(217) %fLocale14, ptr noundef nonnull align 8 dereferenceable(217) %fLocale)
  br label %do.body

do.body:                                          ; preds = %delete.end12
  %fTargetRegion = getelementptr inbounds %"class.icu_75::TimeZoneFormat", ptr %this1, i32 0, i32 3
  %arraydecay = getelementptr inbounds [4 x i8], ptr %fTargetRegion, i64 0, i64 0
  %8 = load ptr, ptr %other.addr, align 8
  %fTargetRegion15 = getelementptr inbounds %"class.icu_75::TimeZoneFormat", ptr %8, i32 0, i32 3
  %arraydecay16 = getelementptr inbounds [4 x i8], ptr %fTargetRegion15, i64 0, i64 0
  call void @llvm.memcpy.p0.p0.i64(ptr align 8 %arraydecay, ptr align 8 %arraydecay16, i64 4, i1 false)
  br label %do.end

do.end:                                           ; preds = %do.body
  %9 = load ptr, ptr %other.addr, align 8
  %fTimeZoneNames17 = getelementptr inbounds %"class.icu_75::TimeZoneFormat", ptr %9, i32 0, i32 4
  %10 = load ptr, ptr %fTimeZoneNames17, align 8
  %vtable18 = load ptr, ptr %10, align 8
  %vfn19 = getelementptr inbounds ptr, ptr %vtable18, i64 4
  %11 = load ptr, ptr %vfn19, align 8
  %call20 = call noundef ptr %11(ptr noundef nonnull align 8 dereferenceable(8) %10)
  %fTimeZoneNames21 = getelementptr inbounds %"class.icu_75::TimeZoneFormat", ptr %this1, i32 0, i32 4
  store ptr %call20, ptr %fTimeZoneNames21, align 8
  %12 = load ptr, ptr %other.addr, align 8
  %fTimeZoneGenericNames22 = getelementptr inbounds %"class.icu_75::TimeZoneFormat", ptr %12, i32 0, i32 5
  %13 = load ptr, ptr %fTimeZoneGenericNames22, align 8
  %tobool = icmp ne ptr %13, null
  br i1 %tobool, label %if.then23, label %if.end29

if.then23:                                        ; preds = %do.end
  %14 = load ptr, ptr %other.addr, align 8
  %fTimeZoneGenericNames24 = getelementptr inbounds %"class.icu_75::TimeZoneFormat", ptr %14, i32 0, i32 5
  %15 = load ptr, ptr %fTimeZoneGenericNames24, align 8
  %vtable25 = load ptr, ptr %15, align 8
  %vfn26 = getelementptr inbounds ptr, ptr %vtable25, i64 4
  %16 = load ptr, ptr %vfn26, align 8
  %call27 = call noundef ptr %16(ptr noundef nonnull align 8 dereferenceable(16) %15)
  %fTimeZoneGenericNames28 = getelementptr inbounds %"class.icu_75::TimeZoneFormat", ptr %this1, i32 0, i32 5
  store ptr %call27, ptr %fTimeZoneGenericNames28, align 8
  br label %if.end29

if.end29:                                         ; preds = %if.then23, %do.end
  %17 = load ptr, ptr %other.addr, align 8
  %fGMTPattern = getelementptr inbounds %"class.icu_75::TimeZoneFormat", ptr %17, i32 0, i32 6
  %fGMTPattern30 = getelementptr inbounds %"class.icu_75::TimeZoneFormat", ptr %this1, i32 0, i32 6
  %call31 = call noundef nonnull align 8 dereferenceable(64) ptr @_ZN6icu_7513UnicodeStringaSERKS0_(ptr noundef nonnull align 8 dereferenceable(64) %fGMTPattern30, ptr noundef nonnull align 8 dereferenceable(64) %fGMTPattern)
  %18 = load ptr, ptr %other.addr, align 8
  %fGMTPatternPrefix = getelementptr inbounds %"class.icu_75::TimeZoneFormat", ptr %18, i32 0, i32 11
  %fGMTPatternPrefix32 = getelementptr inbounds %"class.icu_75::TimeZoneFormat", ptr %this1, i32 0, i32 11
  %call33 = call noundef nonnull align 8 dereferenceable(64) ptr @_ZN6icu_7513UnicodeStringaSERKS0_(ptr noundef nonnull align 8 dereferenceable(64) %fGMTPatternPrefix32, ptr noundef nonnull align 8 dereferenceable(64) %fGMTPatternPrefix)
  %19 = load ptr, ptr %other.addr, align 8
  %fGMTPatternSuffix = getelementptr inbounds %"class.icu_75::TimeZoneFormat", ptr %19, i32 0, i32 12
  %fGMTPatternSuffix34 = getelementptr inbounds %"class.icu_75::TimeZoneFormat", ptr %this1, i32 0, i32 12
  %call35 = call noundef nonnull align 8 dereferenceable(64) ptr @_ZN6icu_7513UnicodeStringaSERKS0_(ptr noundef nonnull align 8 dereferenceable(64) %fGMTPatternSuffix34, ptr noundef nonnull align 8 dereferenceable(64) %fGMTPatternSuffix)
  store i32 0, ptr %status, align 4
  store i32 0, ptr %i, align 4
  br label %for.cond

for.cond:                                         ; preds = %for.inc, %if.end29
  %20 = load i32, ptr %i, align 4
  %cmp36 = icmp slt i32 %20, 6
  br i1 %cmp36, label %for.body, label %for.end

for.body:                                         ; preds = %for.cond
  %21 = load ptr, ptr %other.addr, align 8
  %fGMTOffsetPatterns = getelementptr inbounds %"class.icu_75::TimeZoneFormat", ptr %21, i32 0, i32 7
  %22 = load i32, ptr %i, align 4
  %idxprom = sext i32 %22 to i64
  %arrayidx = getelementptr inbounds [6 x %"class.icu_75::UnicodeString"], ptr %fGMTOffsetPatterns, i64 0, i64 %idxprom
  %fGMTOffsetPatterns37 = getelementptr inbounds %"class.icu_75::TimeZoneFormat", ptr %this1, i32 0, i32 7
  %23 = load i32, ptr %i, align 4
  %idxprom38 = sext i32 %23 to i64
  %arrayidx39 = getelementptr inbounds [6 x %"class.icu_75::UnicodeString"], ptr %fGMTOffsetPatterns37, i64 0, i64 %idxprom38
  %call40 = call noundef nonnull align 8 dereferenceable(64) ptr @_ZN6icu_7513UnicodeStringaSERKS0_(ptr noundef nonnull align 8 dereferenceable(64) %arrayidx39, ptr noundef nonnull align 8 dereferenceable(64) %arrayidx)
  %fGMTOffsetPatternItems = getelementptr inbounds %"class.icu_75::TimeZoneFormat", ptr %this1, i32 0, i32 13
  %24 = load i32, ptr %i, align 4
  %idxprom41 = sext i32 %24 to i64
  %arrayidx42 = getelementptr inbounds [6 x ptr], ptr %fGMTOffsetPatternItems, i64 0, i64 %idxprom41
  %25 = load ptr, ptr %arrayidx42, align 8
  %isnull43 = icmp eq ptr %25, null
  br i1 %isnull43, label %delete.end47, label %delete.notnull44

delete.notnull44:                                 ; preds = %for.body
  %vtable45 = load ptr, ptr %25, align 8
  %vfn46 = getelementptr inbounds ptr, ptr %vtable45, i64 1
  %26 = load ptr, ptr %vfn46, align 8
  call void %26(ptr noundef nonnull align 8 dereferenceable(40) %25) #11
  br label %delete.end47

delete.end47:                                     ; preds = %delete.notnull44, %for.body
  %fGMTOffsetPatternItems48 = getelementptr inbounds %"class.icu_75::TimeZoneFormat", ptr %this1, i32 0, i32 13
  %27 = load i32, ptr %i, align 4
  %idxprom49 = sext i32 %27 to i64
  %arrayidx50 = getelementptr inbounds [6 x ptr], ptr %fGMTOffsetPatternItems48, i64 0, i64 %idxprom49
  store ptr null, ptr %arrayidx50, align 8
  br label %for.inc

for.inc:                                          ; preds = %delete.end47
  %28 = load i32, ptr %i, align 4
  %inc = add nsw i32 %28, 1
  store i32 %inc, ptr %i, align 4
  br label %for.cond, !llvm.loop !10

for.end:                                          ; preds = %for.cond
  call void @_ZN6icu_7514TimeZoneFormat21initGMTOffsetPatternsER10UErrorCode(ptr noundef nonnull align 8 dereferenceable(1328) %this1, ptr noundef nonnull align 4 dereferenceable(4) %status)
  %29 = load ptr, ptr %other.addr, align 8
  %fGMTZeroFormat = getelementptr inbounds %"class.icu_75::TimeZoneFormat", ptr %29, i32 0, i32 9
  %fGMTZeroFormat51 = getelementptr inbounds %"class.icu_75::TimeZoneFormat", ptr %this1, i32 0, i32 9
  %call52 = call noundef nonnull align 8 dereferenceable(64) ptr @_ZN6icu_7513UnicodeStringaSERKS0_(ptr noundef nonnull align 8 dereferenceable(64) %fGMTZeroFormat51, ptr noundef nonnull align 8 dereferenceable(64) %fGMTZeroFormat)
  br label %do.body53

do.body53:                                        ; preds = %for.end
  %fGMTOffsetDigits = getelementptr inbounds %"class.icu_75::TimeZoneFormat", ptr %this1, i32 0, i32 8
  %arraydecay54 = getelementptr inbounds [10 x i32], ptr %fGMTOffsetDigits, i64 0, i64 0
  %30 = load ptr, ptr %other.addr, align 8
  %fGMTOffsetDigits55 = getelementptr inbounds %"class.icu_75::TimeZoneFormat", ptr %30, i32 0, i32 8
  %arraydecay56 = getelementptr inbounds [10 x i32], ptr %fGMTOffsetDigits55, i64 0, i64 0
  call void @llvm.memcpy.p0.p0.i64(ptr align 8 %arraydecay54, ptr align 8 %arraydecay56, i64 40, i1 false)
  br label %do.end57

do.end57:                                         ; preds = %do.body53
  %31 = load ptr, ptr %other.addr, align 8
  %fDefParseOptionFlags = getelementptr inbounds %"class.icu_75::TimeZoneFormat", ptr %31, i32 0, i32 10
  %32 = load i32, ptr %fDefParseOptionFlags, align 8
  %fDefParseOptionFlags58 = getelementptr inbounds %"class.icu_75::TimeZoneFormat", ptr %this1, i32 0, i32 10
  store i32 %32, ptr %fDefParseOptionFlags58, align 8
  store ptr %this1, ptr %retval, align 8
  br label %return

return:                                           ; preds = %do.end57, %if.then
  %33 = load ptr, ptr %retval, align 8
  ret ptr %33
}

; Function Attrs: mustprogress nounwind uwtable
define void @_ZN6icu_7514TimeZoneFormatD2Ev(ptr noundef nonnull align 8 dereferenceable(1328) %this) unnamed_addr #0 align 2 {
entry:
  %this.addr = alloca ptr, align 8
  %i = alloca i32, align 4
  store ptr %this, ptr %this.addr, align 8
  %this1 = load ptr, ptr %this.addr, align 8
  store ptr getelementptr inbounds ({ [12 x ptr] }, ptr @_ZTVN6icu_7514TimeZoneFormatE, i32 0, inrange i32 0, i32 2), ptr %this1, align 8
  %fTimeZoneNames = getelementptr inbounds %"class.icu_75::TimeZoneFormat", ptr %this1, i32 0, i32 4
  %0 = load ptr, ptr %fTimeZoneNames, align 8
  %isnull = icmp eq ptr %0, null
  br i1 %isnull, label %delete.end, label %delete.notnull

delete.notnull:                                   ; preds = %entry
  %vtable = load ptr, ptr %0, align 8
  %vfn = getelementptr inbounds ptr, ptr %vtable, i64 1
  %1 = load ptr, ptr %vfn, align 8
  call void %1(ptr noundef nonnull align 8 dereferenceable(8) %0) #11
  br label %delete.end

delete.end:                                       ; preds = %delete.notnull, %entry
  %fTimeZoneGenericNames = getelementptr inbounds %"class.icu_75::TimeZoneFormat", ptr %this1, i32 0, i32 5
  %2 = load ptr, ptr %fTimeZoneGenericNames, align 8
  %isnull2 = icmp eq ptr %2, null
  br i1 %isnull2, label %delete.end6, label %delete.notnull3

delete.notnull3:                                  ; preds = %delete.end
  %vtable4 = load ptr, ptr %2, align 8
  %vfn5 = getelementptr inbounds ptr, ptr %vtable4, i64 1
  %3 = load ptr, ptr %vfn5, align 8
  call void %3(ptr noundef nonnull align 8 dereferenceable(16) %2) #11
  br label %delete.end6

delete.end6:                                      ; preds = %delete.notnull3, %delete.end
  %fTZDBTimeZoneNames = getelementptr inbounds %"class.icu_75::TimeZoneFormat", ptr %this1, i32 0, i32 15
  %4 = load ptr, ptr %fTZDBTimeZoneNames, align 8
  %isnull7 = icmp eq ptr %4, null
  br i1 %isnull7, label %delete.end11, label %delete.notnull8

delete.notnull8:                                  ; preds = %delete.end6
  %vtable9 = load ptr, ptr %4, align 8
  %vfn10 = getelementptr inbounds ptr, ptr %vtable9, i64 1
  %5 = load ptr, ptr %vfn10, align 8
  call void %5(ptr noundef nonnull align 8 dereferenceable(236) %4) #11
  br label %delete.end11

delete.end11:                                     ; preds = %delete.notnull8, %delete.end6
  store i32 0, ptr %i, align 4
  br label %for.cond

for.cond:                                         ; preds = %for.inc, %delete.end11
  %6 = load i32, ptr %i, align 4
  %cmp = icmp slt i32 %6, 6
  br i1 %cmp, label %for.body, label %for.end

for.body:                                         ; preds = %for.cond
  %fGMTOffsetPatternItems = getelementptr inbounds %"class.icu_75::TimeZoneFormat", ptr %this1, i32 0, i32 13
  %7 = load i32, ptr %i, align 4
  %idxprom = sext i32 %7 to i64
  %arrayidx = getelementptr inbounds [6 x ptr], ptr %fGMTOffsetPatternItems, i64 0, i64 %idxprom
  %8 = load ptr, ptr %arrayidx, align 8
  %isnull12 = icmp eq ptr %8, null
  br i1 %isnull12, label %delete.end16, label %delete.notnull13

delete.notnull13:                                 ; preds = %for.body
  %vtable14 = load ptr, ptr %8, align 8
  %vfn15 = getelementptr inbounds ptr, ptr %vtable14, i64 1
  %9 = load ptr, ptr %vfn15, align 8
  call void %9(ptr noundef nonnull align 8 dereferenceable(40) %8) #11
  br label %delete.end16

delete.end16:                                     ; preds = %delete.notnull13, %for.body
  br label %for.inc

for.inc:                                          ; preds = %delete.end16
  %10 = load i32, ptr %i, align 4
  %inc = add nsw i32 %10, 1
  store i32 %inc, ptr %i, align 4
  br label %for.cond, !llvm.loop !11

for.end:                                          ; preds = %for.cond
  %fGMTPatternSuffix = getelementptr inbounds %"class.icu_75::TimeZoneFormat", ptr %this1, i32 0, i32 12
  call void @_ZN6icu_7513UnicodeStringD1Ev(ptr noundef nonnull align 8 dereferenceable(64) %fGMTPatternSuffix) #11
  %fGMTPatternPrefix = getelementptr inbounds %"class.icu_75::TimeZoneFormat", ptr %this1, i32 0, i32 11
  call void @_ZN6icu_7513UnicodeStringD1Ev(ptr noundef nonnull align 8 dereferenceable(64) %fGMTPatternPrefix) #11
  %fGMTZeroFormat = getelementptr inbounds %"class.icu_75::TimeZoneFormat", ptr %this1, i32 0, i32 9
  call void @_ZN6icu_7513UnicodeStringD1Ev(ptr noundef nonnull align 8 dereferenceable(64) %fGMTZeroFormat) #11
  %fGMTOffsetPatterns = getelementptr inbounds %"class.icu_75::TimeZoneFormat", ptr %this1, i32 0, i32 7
  %array.begin = getelementptr inbounds [6 x %"class.icu_75::UnicodeString"], ptr %fGMTOffsetPatterns, i32 0, i32 0
  %11 = getelementptr inbounds %"class.icu_75::UnicodeString", ptr %array.begin, i64 6
  br label %arraydestroy.body

arraydestroy.body:                                ; preds = %arraydestroy.body, %for.end
  %arraydestroy.elementPast = phi ptr [ %11, %for.end ], [ %arraydestroy.element, %arraydestroy.body ]
  %arraydestroy.element = getelementptr inbounds %"class.icu_75::UnicodeString", ptr %arraydestroy.elementPast, i64 -1
  call void @_ZN6icu_7513UnicodeStringD1Ev(ptr noundef nonnull align 8 dereferenceable(64) %arraydestroy.element) #11
  %arraydestroy.done = icmp eq ptr %arraydestroy.element, %array.begin
  br i1 %arraydestroy.done, label %arraydestroy.done17, label %arraydestroy.body

arraydestroy.done17:                              ; preds = %arraydestroy.body
  %fGMTPattern = getelementptr inbounds %"class.icu_75::TimeZoneFormat", ptr %this1, i32 0, i32 6
  call void @_ZN6icu_7513UnicodeStringD1Ev(ptr noundef nonnull align 8 dereferenceable(64) %fGMTPattern) #11
  %fLocale = getelementptr inbounds %"class.icu_75::TimeZoneFormat", ptr %this1, i32 0, i32 2
  call void @_ZN6icu_756LocaleD1Ev(ptr noundef nonnull align 8 dereferenceable(217) %fLocale) #11
  call void @_ZN6icu_756FormatD2Ev(ptr noundef nonnull align 8 dereferenceable(322) %this1) #11
  ret void
}

; Function Attrs: mustprogress nounwind uwtable
define void @_ZN6icu_7514TimeZoneFormatD0Ev(ptr noundef nonnull align 8 dereferenceable(1328) %this) unnamed_addr #0 align 2 {
entry:
  %this.addr = alloca ptr, align 8
  store ptr %this, ptr %this.addr, align 8
  %this1 = load ptr, ptr %this.addr, align 8
  call void @_ZN6icu_7514TimeZoneFormatD1Ev(ptr noundef nonnull align 8 dereferenceable(1328) %this1) #11
  call void @_ZN6icu_757UMemorydlEPv(ptr noundef %this1) #11
  ret void
}

declare noundef nonnull align 8 dereferenceable(217) ptr @_ZN6icu_756LocaleaSERKS0_(ptr noundef nonnull align 8 dereferenceable(217), ptr noundef nonnull align 8 dereferenceable(217)) #5

declare noundef nonnull align 8 dereferenceable(64) ptr @_ZN6icu_7513UnicodeStringaSERKS0_(ptr noundef nonnull align 8 dereferenceable(64), ptr noundef nonnull align 8 dereferenceable(64)) #5

; Function Attrs: mustprogress uwtable
define noundef zeroext i1 @_ZNK6icu_7514TimeZoneFormateqERKNS_6FormatE(ptr noundef nonnull align 8 dereferenceable(1328) %this, ptr noundef nonnull align 8 dereferenceable(322) %other) unnamed_addr #1 align 2 {
entry:
  %this.addr = alloca ptr, align 8
  %other.addr = alloca ptr, align 8
  %tzfmt = alloca ptr, align 8
  %isEqual = alloca i8, align 1
  %i = alloca i32, align 4
  %i17 = alloca i32, align 4
  store ptr %this, ptr %this.addr, align 8
  store ptr %other, ptr %other.addr, align 8
  %this1 = load ptr, ptr %this.addr, align 8
  %0 = load ptr, ptr %other.addr, align 8
  store ptr %0, ptr %tzfmt, align 8
  %fLocale = getelementptr inbounds %"class.icu_75::TimeZoneFormat", ptr %this1, i32 0, i32 2
  %1 = load ptr, ptr %tzfmt, align 8
  %fLocale2 = getelementptr inbounds %"class.icu_75::TimeZoneFormat", ptr %1, i32 0, i32 2
  %call = call noundef zeroext i1 @_ZNK6icu_756LocaleeqERKS0_(ptr noundef nonnull align 8 dereferenceable(217) %fLocale, ptr noundef nonnull align 8 dereferenceable(217) %fLocale2)
  br i1 %call, label %land.lhs.true, label %land.end

land.lhs.true:                                    ; preds = %entry
  %fGMTPattern = getelementptr inbounds %"class.icu_75::TimeZoneFormat", ptr %this1, i32 0, i32 6
  %2 = load ptr, ptr %tzfmt, align 8
  %fGMTPattern3 = getelementptr inbounds %"class.icu_75::TimeZoneFormat", ptr %2, i32 0, i32 6
  %call4 = call noundef zeroext i1 @_ZNK6icu_7513UnicodeStringeqERKS0_(ptr noundef nonnull align 8 dereferenceable(64) %fGMTPattern, ptr noundef nonnull align 8 dereferenceable(64) %fGMTPattern3)
  br i1 %call4, label %land.lhs.true5, label %land.end

land.lhs.true5:                                   ; preds = %land.lhs.true
  %fGMTZeroFormat = getelementptr inbounds %"class.icu_75::TimeZoneFormat", ptr %this1, i32 0, i32 9
  %3 = load ptr, ptr %tzfmt, align 8
  %fGMTZeroFormat6 = getelementptr inbounds %"class.icu_75::TimeZoneFormat", ptr %3, i32 0, i32 9
  %call7 = call noundef zeroext i1 @_ZNK6icu_7513UnicodeStringeqERKS0_(ptr noundef nonnull align 8 dereferenceable(64) %fGMTZeroFormat, ptr noundef nonnull align 8 dereferenceable(64) %fGMTZeroFormat6)
  br i1 %call7, label %land.rhs, label %land.end

land.rhs:                                         ; preds = %land.lhs.true5
  %fTimeZoneNames = getelementptr inbounds %"class.icu_75::TimeZoneFormat", ptr %this1, i32 0, i32 4
  %4 = load ptr, ptr %fTimeZoneNames, align 8
  %5 = load ptr, ptr %tzfmt, align 8
  %fTimeZoneNames8 = getelementptr inbounds %"class.icu_75::TimeZoneFormat", ptr %5, i32 0, i32 4
  %6 = load ptr, ptr %fTimeZoneNames8, align 8
  %vtable = load ptr, ptr %4, align 8
  %vfn = getelementptr inbounds ptr, ptr %vtable, i64 3
  %7 = load ptr, ptr %vfn, align 8
  %call9 = call noundef zeroext i1 %7(ptr noundef nonnull align 8 dereferenceable(8) %4, ptr noundef nonnull align 8 dereferenceable(8) %6)
  br label %land.end

land.end:                                         ; preds = %land.rhs, %land.lhs.true5, %land.lhs.true, %entry
  %8 = phi i1 [ false, %land.lhs.true5 ], [ false, %land.lhs.true ], [ false, %entry ], [ %call9, %land.rhs ]
  %frombool = zext i1 %8 to i8
  store i8 %frombool, ptr %isEqual, align 1
  store i32 0, ptr %i, align 4
  br label %for.cond

for.cond:                                         ; preds = %for.inc, %land.end
  %9 = load i32, ptr %i, align 4
  %cmp = icmp slt i32 %9, 6
  br i1 %cmp, label %land.rhs10, label %land.end11

land.rhs10:                                       ; preds = %for.cond
  %10 = load i8, ptr %isEqual, align 1
  %tobool = trunc i8 %10 to i1
  br label %land.end11

land.end11:                                       ; preds = %land.rhs10, %for.cond
  %11 = phi i1 [ false, %for.cond ], [ %tobool, %land.rhs10 ]
  br i1 %11, label %for.body, label %for.end

for.body:                                         ; preds = %land.end11
  %fGMTOffsetPatterns = getelementptr inbounds %"class.icu_75::TimeZoneFormat", ptr %this1, i32 0, i32 7
  %12 = load i32, ptr %i, align 4
  %idxprom = sext i32 %12 to i64
  %arrayidx = getelementptr inbounds [6 x %"class.icu_75::UnicodeString"], ptr %fGMTOffsetPatterns, i64 0, i64 %idxprom
  %13 = load ptr, ptr %tzfmt, align 8
  %fGMTOffsetPatterns12 = getelementptr inbounds %"class.icu_75::TimeZoneFormat", ptr %13, i32 0, i32 7
  %14 = load i32, ptr %i, align 4
  %idxprom13 = sext i32 %14 to i64
  %arrayidx14 = getelementptr inbounds [6 x %"class.icu_75::UnicodeString"], ptr %fGMTOffsetPatterns12, i64 0, i64 %idxprom13
  %call15 = call noundef zeroext i1 @_ZNK6icu_7513UnicodeStringeqERKS0_(ptr noundef nonnull align 8 dereferenceable(64) %arrayidx, ptr noundef nonnull align 8 dereferenceable(64) %arrayidx14)
  %frombool16 = zext i1 %call15 to i8
  store i8 %frombool16, ptr %isEqual, align 1
  br label %for.inc

for.inc:                                          ; preds = %for.body
  %15 = load i32, ptr %i, align 4
  %inc = add nsw i32 %15, 1
  store i32 %inc, ptr %i, align 4
  br label %for.cond, !llvm.loop !12

for.end:                                          ; preds = %land.end11
  store i32 0, ptr %i17, align 4
  br label %for.cond18

for.cond18:                                       ; preds = %for.inc31, %for.end
  %16 = load i32, ptr %i17, align 4
  %cmp19 = icmp slt i32 %16, 10
  br i1 %cmp19, label %land.rhs20, label %land.end22

land.rhs20:                                       ; preds = %for.cond18
  %17 = load i8, ptr %isEqual, align 1
  %tobool21 = trunc i8 %17 to i1
  br label %land.end22

land.end22:                                       ; preds = %land.rhs20, %for.cond18
  %18 = phi i1 [ false, %for.cond18 ], [ %tobool21, %land.rhs20 ]
  br i1 %18, label %for.body23, label %for.end33

for.body23:                                       ; preds = %land.end22
  %fGMTOffsetDigits = getelementptr inbounds %"class.icu_75::TimeZoneFormat", ptr %this1, i32 0, i32 8
  %19 = load i32, ptr %i17, align 4
  %idxprom24 = sext i32 %19 to i64
  %arrayidx25 = getelementptr inbounds [10 x i32], ptr %fGMTOffsetDigits, i64 0, i64 %idxprom24
  %20 = load i32, ptr %arrayidx25, align 4
  %21 = load ptr, ptr %tzfmt, align 8
  %fGMTOffsetDigits26 = getelementptr inbounds %"class.icu_75::TimeZoneFormat", ptr %21, i32 0, i32 8
  %22 = load i32, ptr %i17, align 4
  %idxprom27 = sext i32 %22 to i64
  %arrayidx28 = getelementptr inbounds [10 x i32], ptr %fGMTOffsetDigits26, i64 0, i64 %idxprom27
  %23 = load i32, ptr %arrayidx28, align 4
  %cmp29 = icmp eq i32 %20, %23
  %frombool30 = zext i1 %cmp29 to i8
  store i8 %frombool30, ptr %isEqual, align 1
  br label %for.inc31

for.inc31:                                        ; preds = %for.body23
  %24 = load i32, ptr %i17, align 4
  %inc32 = add nsw i32 %24, 1
  store i32 %inc32, ptr %i17, align 4
  br label %for.cond18, !llvm.loop !13

for.end33:                                        ; preds = %land.end22
  %25 = load i8, ptr %isEqual, align 1
  %tobool34 = trunc i8 %25 to i1
  ret i1 %tobool34
}

declare noundef zeroext i1 @_ZNK6icu_756LocaleeqERKS0_(ptr noundef nonnull align 8 dereferenceable(217), ptr noundef nonnull align 8 dereferenceable(217)) #5

; Function Attrs: mustprogress uwtable
define linkonce_odr noundef zeroext i1 @_ZNK6icu_7513UnicodeStringeqERKS0_(ptr noundef nonnull align 8 dereferenceable(64) %this, ptr noundef nonnull align 8 dereferenceable(64) %text) #1 comdat align 2 {
entry:
  %retval = alloca i1, align 1
  %this.addr = alloca ptr, align 8
  %text.addr = alloca ptr, align 8
  %len = alloca i32, align 4
  %textLength = alloca i32, align 4
  store ptr %this, ptr %this.addr, align 8
  store ptr %text, ptr %text.addr, align 8
  %this1 = load ptr, ptr %this.addr, align 8
  %call = call noundef signext i8 @_ZNK6icu_7513UnicodeString7isBogusEv(ptr noundef nonnull align 8 dereferenceable(64) %this1)
  %tobool = icmp ne i8 %call, 0
  br i1 %tobool, label %if.then, label %if.else

if.then:                                          ; preds = %entry
  %0 = load ptr, ptr %text.addr, align 8
  %call2 = call noundef signext i8 @_ZNK6icu_7513UnicodeString7isBogusEv(ptr noundef nonnull align 8 dereferenceable(64) %0)
  %tobool3 = icmp ne i8 %call2, 0
  store i1 %tobool3, ptr %retval, align 1
  br label %return

if.else:                                          ; preds = %entry
  %call4 = call noundef i32 @_ZNK6icu_7513UnicodeString6lengthEv(ptr noundef nonnull align 8 dereferenceable(64) %this1)
  store i32 %call4, ptr %len, align 4
  %1 = load ptr, ptr %text.addr, align 8
  %call5 = call noundef i32 @_ZNK6icu_7513UnicodeString6lengthEv(ptr noundef nonnull align 8 dereferenceable(64) %1)
  store i32 %call5, ptr %textLength, align 4
  %2 = load ptr, ptr %text.addr, align 8
  %call6 = call noundef signext i8 @_ZNK6icu_7513UnicodeString7isBogusEv(ptr noundef nonnull align 8 dereferenceable(64) %2)
  %tobool7 = icmp ne i8 %call6, 0
  br i1 %tobool7, label %land.end, label %land.lhs.true

land.lhs.true:                                    ; preds = %if.else
  %3 = load i32, ptr %len, align 4
  %4 = load i32, ptr %textLength, align 4
  %cmp = icmp eq i32 %3, %4
  br i1 %cmp, label %land.rhs, label %land.end

land.rhs:                                         ; preds = %land.lhs.true
  %5 = load ptr, ptr %text.addr, align 8
  %6 = load i32, ptr %len, align 4
  %call8 = call noundef signext i8 @_ZNK6icu_7513UnicodeString8doEqualsERKS0_i(ptr noundef nonnull align 8 dereferenceable(64) %this1, ptr noundef nonnull align 8 dereferenceable(64) %5, i32 noundef %6)
  %tobool9 = icmp ne i8 %call8, 0
  br label %land.end

land.end:                                         ; preds = %land.rhs, %land.lhs.true, %if.else
  %7 = phi i1 [ false, %land.lhs.true ], [ false, %if.else ], [ %tobool9, %land.rhs ]
  store i1 %7, ptr %retval, align 1
  br label %return

return:                                           ; preds = %land.end, %if.then
  %8 = load i1, ptr %retval, align 1
  ret i1 %8
}

; Function Attrs: mustprogress uwtable
define noundef ptr @_ZNK6icu_7514TimeZoneFormat5cloneEv(ptr noundef nonnull align 8 dereferenceable(1328) %this) unnamed_addr #1 align 2 personality ptr @__gxx_personality_v0 {
entry:
  %this.addr = alloca ptr, align 8
  %cleanup.cond = alloca i1, align 1
  %exn.slot = alloca ptr, align 8
  %ehselector.slot = alloca i32, align 4
  store ptr %this, ptr %this.addr, align 8
  %this1 = load ptr, ptr %this.addr, align 8
  %call = call noundef ptr @_ZN6icu_757UMemorynwEm(i64 noundef 1328) #11
  %new.isnull = icmp eq ptr %call, null
  store i1 false, ptr %cleanup.cond, align 1
  br i1 %new.isnull, label %new.cont, label %new.notnull

new.notnull:                                      ; preds = %entry
  store i1 true, ptr %cleanup.cond, align 1
  invoke void @_ZN6icu_7514TimeZoneFormatC1ERKS0_(ptr noundef nonnull align 8 dereferenceable(1328) %call, ptr noundef nonnull align 8 dereferenceable(1328) %this1)
          to label %invoke.cont unwind label %lpad

invoke.cont:                                      ; preds = %new.notnull
  br label %new.cont

new.cont:                                         ; preds = %invoke.cont, %entry
  %0 = phi ptr [ %call, %invoke.cont ], [ null, %entry ]
  ret ptr %0

lpad:                                             ; preds = %new.notnull
  %1 = landingpad { ptr, i32 }
          cleanup
  %2 = extractvalue { ptr, i32 } %1, 0
  store ptr %2, ptr %exn.slot, align 8
  %3 = extractvalue { ptr, i32 } %1, 1
  store i32 %3, ptr %ehselector.slot, align 4
  %cleanup.is_active = load i1, ptr %cleanup.cond, align 1
  br i1 %cleanup.is_active, label %cleanup.action, label %cleanup.done

cleanup.action:                                   ; preds = %lpad
  call void @_ZN6icu_757UMemorydlEPv(ptr noundef %call) #11
  br label %cleanup.done

cleanup.done:                                     ; preds = %cleanup.action, %lpad
  br label %eh.resume

eh.resume:                                        ; preds = %cleanup.done
  %exn = load ptr, ptr %exn.slot, align 8
  %sel = load i32, ptr %ehselector.slot, align 4
  %lpad.val = insertvalue { ptr, i32 } poison, ptr %exn, 0
  %lpad.val2 = insertvalue { ptr, i32 } %lpad.val, i32 %sel, 1
  resume { ptr, i32 } %lpad.val2
}

; Function Attrs: mustprogress uwtable
define noundef ptr @_ZN6icu_7514TimeZoneFormat14createInstanceERKNS_6LocaleER10UErrorCode(ptr noundef nonnull align 8 dereferenceable(217) %locale, ptr noundef nonnull align 4 dereferenceable(4) %status) #1 align 2 personality ptr @__gxx_personality_v0 {
entry:
  %retval = alloca ptr, align 8
  %locale.addr = alloca ptr, align 8
  %status.addr = alloca ptr, align 8
  %tzfmt = alloca ptr, align 8
  %cleanup.cond = alloca i1, align 1
  %exn.slot = alloca ptr, align 8
  %ehselector.slot = alloca i32, align 4
  store ptr %locale, ptr %locale.addr, align 8
  store ptr %status, ptr %status.addr, align 8
  %call = call noundef ptr @_ZN6icu_757UMemorynwEm(i64 noundef 1328) #11
  %new.isnull = icmp eq ptr %call, null
  store i1 false, ptr %cleanup.cond, align 1
  br i1 %new.isnull, label %new.cont, label %new.notnull

new.notnull:                                      ; preds = %entry
  store i1 true, ptr %cleanup.cond, align 1
  %0 = load ptr, ptr %locale.addr, align 8
  %1 = load ptr, ptr %status.addr, align 8
  invoke void @_ZN6icu_7514TimeZoneFormatC1ERKNS_6LocaleER10UErrorCode(ptr noundef nonnull align 8 dereferenceable(1328) %call, ptr noundef nonnull align 8 dereferenceable(217) %0, ptr noundef nonnull align 4 dereferenceable(4) %1)
          to label %invoke.cont unwind label %lpad

invoke.cont:                                      ; preds = %new.notnull
  br label %new.cont

new.cont:                                         ; preds = %invoke.cont, %entry
  %2 = phi ptr [ %call, %invoke.cont ], [ null, %entry ]
  store ptr %2, ptr %tzfmt, align 8
  %3 = load ptr, ptr %status.addr, align 8
  %4 = load i32, ptr %3, align 4
  %call1 = call noundef signext i8 @_ZL9U_SUCCESS10UErrorCode(i32 noundef %4)
  %tobool = icmp ne i8 %call1, 0
  br i1 %tobool, label %if.then, label %if.end

if.then:                                          ; preds = %new.cont
  %5 = load ptr, ptr %tzfmt, align 8
  store ptr %5, ptr %retval, align 8
  br label %return

lpad:                                             ; preds = %new.notnull
  %6 = landingpad { ptr, i32 }
          cleanup
  %7 = extractvalue { ptr, i32 } %6, 0
  store ptr %7, ptr %exn.slot, align 8
  %8 = extractvalue { ptr, i32 } %6, 1
  store i32 %8, ptr %ehselector.slot, align 4
  %cleanup.is_active = load i1, ptr %cleanup.cond, align 1
  br i1 %cleanup.is_active, label %cleanup.action, label %cleanup.done

cleanup.action:                                   ; preds = %lpad
  call void @_ZN6icu_757UMemorydlEPv(ptr noundef %call) #11
  br label %cleanup.done

cleanup.done:                                     ; preds = %cleanup.action, %lpad
  br label %eh.resume

if.end:                                           ; preds = %new.cont
  %9 = load ptr, ptr %tzfmt, align 8
  %isnull = icmp eq ptr %9, null
  br i1 %isnull, label %delete.end, label %delete.notnull

delete.notnull:                                   ; preds = %if.end
  %vtable = load ptr, ptr %9, align 8
  %vfn = getelementptr inbounds ptr, ptr %vtable, i64 1
  %10 = load ptr, ptr %vfn, align 8
  call void %10(ptr noundef nonnull align 8 dereferenceable(1328) %9) #11
  br label %delete.end

delete.end:                                       ; preds = %delete.notnull, %if.end
  store ptr null, ptr %retval, align 8
  br label %return

return:                                           ; preds = %delete.end, %if.then
  %11 = load ptr, ptr %retval, align 8
  ret ptr %11

eh.resume:                                        ; preds = %cleanup.done
  %exn = load ptr, ptr %exn.slot, align 8
  %sel = load i32, ptr %ehselector.slot, align 4
  %lpad.val = insertvalue { ptr, i32 } poison, ptr %exn, 0
  %lpad.val2 = insertvalue { ptr, i32 } %lpad.val, i32 %sel, 1
  resume { ptr, i32 } %lpad.val2
}

; Function Attrs: mustprogress nounwind uwtable
define noundef ptr @_ZNK6icu_7514TimeZoneFormat16getTimeZoneNamesEv(ptr noundef nonnull align 8 dereferenceable(1328) %this) #0 align 2 {
entry:
  %this.addr = alloca ptr, align 8
  store ptr %this, ptr %this.addr, align 8
  %this1 = load ptr, ptr %this.addr, align 8
  %fTimeZoneNames = getelementptr inbounds %"class.icu_75::TimeZoneFormat", ptr %this1, i32 0, i32 4
  %0 = load ptr, ptr %fTimeZoneNames, align 8
  ret ptr %0
}

; Function Attrs: mustprogress nounwind uwtable
define void @_ZN6icu_7514TimeZoneFormat18adoptTimeZoneNamesEPNS_13TimeZoneNamesE(ptr noundef nonnull align 8 dereferenceable(1328) %this, ptr noundef %tznames) #0 align 2 {
entry:
  %this.addr = alloca ptr, align 8
  %tznames.addr = alloca ptr, align 8
  store ptr %this, ptr %this.addr, align 8
  store ptr %tznames, ptr %tznames.addr, align 8
  %this1 = load ptr, ptr %this.addr, align 8
  %fTimeZoneNames = getelementptr inbounds %"class.icu_75::TimeZoneFormat", ptr %this1, i32 0, i32 4
  %0 = load ptr, ptr %fTimeZoneNames, align 8
  %isnull = icmp eq ptr %0, null
  br i1 %isnull, label %delete.end, label %delete.notnull

delete.notnull:                                   ; preds = %entry
  %vtable = load ptr, ptr %0, align 8
  %vfn = getelementptr inbounds ptr, ptr %vtable, i64 1
  %1 = load ptr, ptr %vfn, align 8
  call void %1(ptr noundef nonnull align 8 dereferenceable(8) %0) #11
  br label %delete.end

delete.end:                                       ; preds = %delete.notnull, %entry
  %2 = load ptr, ptr %tznames.addr, align 8
  %fTimeZoneNames2 = getelementptr inbounds %"class.icu_75::TimeZoneFormat", ptr %this1, i32 0, i32 4
  store ptr %2, ptr %fTimeZoneNames2, align 8
  ret void
}

; Function Attrs: mustprogress uwtable
define void @_ZN6icu_7514TimeZoneFormat16setTimeZoneNamesERKNS_13TimeZoneNamesE(ptr noundef nonnull align 8 dereferenceable(1328) %this, ptr noundef nonnull align 8 dereferenceable(8) %tznames) #1 align 2 {
entry:
  %this.addr = alloca ptr, align 8
  %tznames.addr = alloca ptr, align 8
  store ptr %this, ptr %this.addr, align 8
  store ptr %tznames, ptr %tznames.addr, align 8
  %this1 = load ptr, ptr %this.addr, align 8
  %fTimeZoneNames = getelementptr inbounds %"class.icu_75::TimeZoneFormat", ptr %this1, i32 0, i32 4
  %0 = load ptr, ptr %fTimeZoneNames, align 8
  %isnull = icmp eq ptr %0, null
  br i1 %isnull, label %delete.end, label %delete.notnull

delete.notnull:                                   ; preds = %entry
  %vtable = load ptr, ptr %0, align 8
  %vfn = getelementptr inbounds ptr, ptr %vtable, i64 1
  %1 = load ptr, ptr %vfn, align 8
  call void %1(ptr noundef nonnull align 8 dereferenceable(8) %0) #11
  br label %delete.end

delete.end:                                       ; preds = %delete.notnull, %entry
  %2 = load ptr, ptr %tznames.addr, align 8
  %vtable2 = load ptr, ptr %2, align 8
  %vfn3 = getelementptr inbounds ptr, ptr %vtable2, i64 4
  %3 = load ptr, ptr %vfn3, align 8
  %call = call noundef ptr %3(ptr noundef nonnull align 8 dereferenceable(8) %2)
  %fTimeZoneNames4 = getelementptr inbounds %"class.icu_75::TimeZoneFormat", ptr %this1, i32 0, i32 4
  store ptr %call, ptr %fTimeZoneNames4, align 8
  ret void
}

; Function Attrs: mustprogress nounwind uwtable
define void @_ZN6icu_7514TimeZoneFormat22setDefaultParseOptionsEj(ptr noundef nonnull align 8 dereferenceable(1328) %this, i32 noundef %flags) #0 align 2 {
entry:
  %this.addr = alloca ptr, align 8
  %flags.addr = alloca i32, align 4
  store ptr %this, ptr %this.addr, align 8
  store i32 %flags, ptr %flags.addr, align 4
  %this1 = load ptr, ptr %this.addr, align 8
  %0 = load i32, ptr %flags.addr, align 4
  %fDefParseOptionFlags = getelementptr inbounds %"class.icu_75::TimeZoneFormat", ptr %this1, i32 0, i32 10
  store i32 %0, ptr %fDefParseOptionFlags, align 8
  ret void
}

; Function Attrs: mustprogress nounwind uwtable
define noundef i32 @_ZNK6icu_7514TimeZoneFormat22getDefaultParseOptionsEv(ptr noundef nonnull align 8 dereferenceable(1328) %this) #0 align 2 {
entry:
  %this.addr = alloca ptr, align 8
  store ptr %this, ptr %this.addr, align 8
  %this1 = load ptr, ptr %this.addr, align 8
  %fDefParseOptionFlags = getelementptr inbounds %"class.icu_75::TimeZoneFormat", ptr %this1, i32 0, i32 10
  %0 = load i32, ptr %fDefParseOptionFlags, align 8
  ret i32 %0
}

; Function Attrs: mustprogress uwtable
define noundef nonnull align 8 dereferenceable(64) ptr @_ZNK6icu_7514TimeZoneFormat13getGMTPatternERNS_13UnicodeStringE(ptr noundef nonnull align 8 dereferenceable(1328) %this, ptr noundef nonnull align 8 dereferenceable(64) %pattern) #1 align 2 {
entry:
  %this.addr = alloca ptr, align 8
  %pattern.addr = alloca ptr, align 8
  store ptr %this, ptr %this.addr, align 8
  store ptr %pattern, ptr %pattern.addr, align 8
  %this1 = load ptr, ptr %this.addr, align 8
  %0 = load ptr, ptr %pattern.addr, align 8
  %fGMTPattern = getelementptr inbounds %"class.icu_75::TimeZoneFormat", ptr %this1, i32 0, i32 6
  %call = call noundef nonnull align 8 dereferenceable(64) ptr @_ZN6icu_7513UnicodeString5setToERKS0_(ptr noundef nonnull align 8 dereferenceable(64) %0, ptr noundef nonnull align 8 dereferenceable(64) %fGMTPattern)
  ret ptr %call
}

; Function Attrs: mustprogress uwtable
define linkonce_odr noundef nonnull align 8 dereferenceable(64) ptr @_ZN6icu_7513UnicodeString5setToERKS0_(ptr noundef nonnull align 8 dereferenceable(64) %this, ptr noundef nonnull align 8 dereferenceable(64) %srcText) #1 comdat align 2 {
entry:
  %this.addr = alloca ptr, align 8
  %srcText.addr = alloca ptr, align 8
  store ptr %this, ptr %this.addr, align 8
  store ptr %srcText, ptr %srcText.addr, align 8
  %this1 = load ptr, ptr %this.addr, align 8
  %0 = load ptr, ptr %srcText.addr, align 8
  %call = call noundef nonnull align 8 dereferenceable(64) ptr @_ZN6icu_7513UnicodeString8copyFromERKS0_a(ptr noundef nonnull align 8 dereferenceable(64) %this1, ptr noundef nonnull align 8 dereferenceable(64) %0, i8 noundef signext 0)
  ret ptr %call
}

; Function Attrs: mustprogress uwtable
define void @_ZN6icu_7514TimeZoneFormat13setGMTPatternERKNS_13UnicodeStringER10UErrorCode(ptr noundef nonnull align 8 dereferenceable(1328) %this, ptr noundef nonnull align 8 dereferenceable(64) %pattern, ptr noundef nonnull align 4 dereferenceable(4) %status) #1 align 2 {
entry:
  %this.addr = alloca ptr, align 8
  %pattern.addr = alloca ptr, align 8
  %status.addr = alloca ptr, align 8
  store ptr %this, ptr %this.addr, align 8
  store ptr %pattern, ptr %pattern.addr, align 8
  store ptr %status, ptr %status.addr, align 8
  %this1 = load ptr, ptr %this.addr, align 8
  %0 = load ptr, ptr %pattern.addr, align 8
  %1 = load ptr, ptr %status.addr, align 8
  call void @_ZN6icu_7514TimeZoneFormat14initGMTPatternERKNS_13UnicodeStringER10UErrorCode(ptr noundef nonnull align 8 dereferenceable(1328) %this1, ptr noundef nonnull align 8 dereferenceable(64) %0, ptr noundef nonnull align 4 dereferenceable(4) %1)
  ret void
}

; Function Attrs: mustprogress uwtable
define noundef nonnull align 8 dereferenceable(64) ptr @_ZNK6icu_7514TimeZoneFormat19getGMTOffsetPatternE35UTimeZoneFormatGMTOffsetPatternTypeRNS_13UnicodeStringE(ptr noundef nonnull align 8 dereferenceable(1328) %this, i32 noundef %type, ptr noundef nonnull align 8 dereferenceable(64) %pattern) #1 align 2 {
entry:
  %this.addr = alloca ptr, align 8
  %type.addr = alloca i32, align 4
  %pattern.addr = alloca ptr, align 8
  store ptr %this, ptr %this.addr, align 8
  store i32 %type, ptr %type.addr, align 4
  store ptr %pattern, ptr %pattern.addr, align 8
  %this1 = load ptr, ptr %this.addr, align 8
  %0 = load ptr, ptr %pattern.addr, align 8
  %fGMTOffsetPatterns = getelementptr inbounds %"class.icu_75::TimeZoneFormat", ptr %this1, i32 0, i32 7
  %1 = load i32, ptr %type.addr, align 4
  %idxprom = zext i32 %1 to i64
  %arrayidx = getelementptr inbounds [6 x %"class.icu_75::UnicodeString"], ptr %fGMTOffsetPatterns, i64 0, i64 %idxprom
  %call = call noundef nonnull align 8 dereferenceable(64) ptr @_ZN6icu_7513UnicodeString5setToERKS0_(ptr noundef nonnull align 8 dereferenceable(64) %0, ptr noundef nonnull align 8 dereferenceable(64) %arrayidx)
  ret ptr %call
}

; Function Attrs: mustprogress uwtable
define void @_ZN6icu_7514TimeZoneFormat19setGMTOffsetPatternE35UTimeZoneFormatGMTOffsetPatternTypeRKNS_13UnicodeStringER10UErrorCode(ptr noundef nonnull align 8 dereferenceable(1328) %this, i32 noundef %type, ptr noundef nonnull align 8 dereferenceable(64) %pattern, ptr noundef nonnull align 4 dereferenceable(4) %status) #1 align 2 {
entry:
  %this.addr = alloca ptr, align 8
  %type.addr = alloca i32, align 4
  %pattern.addr = alloca ptr, align 8
  %status.addr = alloca ptr, align 8
  %required = alloca i32, align 4
  %patternItems = alloca ptr, align 8
  store ptr %this, ptr %this.addr, align 8
  store i32 %type, ptr %type.addr, align 4
  store ptr %pattern, ptr %pattern.addr, align 8
  store ptr %status, ptr %status.addr, align 8
  %this1 = load ptr, ptr %this.addr, align 8
  %0 = load ptr, ptr %status.addr, align 8
  %1 = load i32, ptr %0, align 4
  %call = call noundef signext i8 @_ZL9U_FAILURE10UErrorCode(i32 noundef %1)
  %tobool = icmp ne i8 %call, 0
  br i1 %tobool, label %if.then, label %if.end

if.then:                                          ; preds = %entry
  br label %return

if.end:                                           ; preds = %entry
  %2 = load ptr, ptr %pattern.addr, align 8
  %fGMTOffsetPatterns = getelementptr inbounds %"class.icu_75::TimeZoneFormat", ptr %this1, i32 0, i32 7
  %3 = load i32, ptr %type.addr, align 4
  %idxprom = zext i32 %3 to i64
  %arrayidx = getelementptr inbounds [6 x %"class.icu_75::UnicodeString"], ptr %fGMTOffsetPatterns, i64 0, i64 %idxprom
  %call2 = call noundef zeroext i1 @_ZNK6icu_7513UnicodeStringeqERKS0_(ptr noundef nonnull align 8 dereferenceable(64) %2, ptr noundef nonnull align 8 dereferenceable(64) %arrayidx)
  br i1 %call2, label %if.then3, label %if.end4

if.then3:                                         ; preds = %if.end
  br label %return

if.end4:                                          ; preds = %if.end
  store i32 1, ptr %required, align 4
  %4 = load i32, ptr %type.addr, align 4
  switch i32 %4, label %sw.default [
    i32 4, label %sw.bb
    i32 5, label %sw.bb
    i32 0, label %sw.bb5
    i32 2, label %sw.bb5
    i32 1, label %sw.bb6
    i32 3, label %sw.bb6
  ]

sw.bb:                                            ; preds = %if.end4, %if.end4
  store i32 0, ptr %required, align 4
  br label %sw.epilog

sw.bb5:                                           ; preds = %if.end4, %if.end4
  store i32 1, ptr %required, align 4
  br label %sw.epilog

sw.bb6:                                           ; preds = %if.end4, %if.end4
  store i32 2, ptr %required, align 4
  br label %sw.epilog

sw.default:                                       ; preds = %if.end4
  call void @abort() #13
  unreachable

sw.epilog:                                        ; preds = %sw.bb6, %sw.bb5, %sw.bb
  %5 = load ptr, ptr %pattern.addr, align 8
  %6 = load i32, ptr %required, align 4
  %7 = load ptr, ptr %status.addr, align 8
  %call7 = call noundef ptr @_ZN6icu_7514TimeZoneFormat18parseOffsetPatternERKNS_13UnicodeStringENS0_12OffsetFieldsER10UErrorCode(ptr noundef nonnull align 8 dereferenceable(64) %5, i32 noundef %6, ptr noundef nonnull align 4 dereferenceable(4) %7)
  store ptr %call7, ptr %patternItems, align 8
  %8 = load ptr, ptr %patternItems, align 8
  %cmp = icmp eq ptr %8, null
  br i1 %cmp, label %if.then8, label %if.end9

if.then8:                                         ; preds = %sw.epilog
  br label %return

if.end9:                                          ; preds = %sw.epilog
  %fGMTOffsetPatterns10 = getelementptr inbounds %"class.icu_75::TimeZoneFormat", ptr %this1, i32 0, i32 7
  %9 = load i32, ptr %type.addr, align 4
  %idxprom11 = zext i32 %9 to i64
  %arrayidx12 = getelementptr inbounds [6 x %"class.icu_75::UnicodeString"], ptr %fGMTOffsetPatterns10, i64 0, i64 %idxprom11
  %10 = load ptr, ptr %pattern.addr, align 8
  %call13 = call noundef nonnull align 8 dereferenceable(64) ptr @_ZN6icu_7513UnicodeString5setToERKS0_(ptr noundef nonnull align 8 dereferenceable(64) %arrayidx12, ptr noundef nonnull align 8 dereferenceable(64) %10)
  %fGMTOffsetPatternItems = getelementptr inbounds %"class.icu_75::TimeZoneFormat", ptr %this1, i32 0, i32 13
  %11 = load i32, ptr %type.addr, align 4
  %idxprom14 = zext i32 %11 to i64
  %arrayidx15 = getelementptr inbounds [6 x ptr], ptr %fGMTOffsetPatternItems, i64 0, i64 %idxprom14
  %12 = load ptr, ptr %arrayidx15, align 8
  %isnull = icmp eq ptr %12, null
  br i1 %isnull, label %delete.end, label %delete.notnull

delete.notnull:                                   ; preds = %if.end9
  %vtable = load ptr, ptr %12, align 8
  %vfn = getelementptr inbounds ptr, ptr %vtable, i64 1
  %13 = load ptr, ptr %vfn, align 8
  call void %13(ptr noundef nonnull align 8 dereferenceable(40) %12) #11
  br label %delete.end

delete.end:                                       ; preds = %delete.notnull, %if.end9
  %14 = load ptr, ptr %patternItems, align 8
  %fGMTOffsetPatternItems16 = getelementptr inbounds %"class.icu_75::TimeZoneFormat", ptr %this1, i32 0, i32 13
  %15 = load i32, ptr %type.addr, align 4
  %idxprom17 = zext i32 %15 to i64
  %arrayidx18 = getelementptr inbounds [6 x ptr], ptr %fGMTOffsetPatternItems16, i64 0, i64 %idxprom17
  store ptr %14, ptr %arrayidx18, align 8
  call void @_ZN6icu_7514TimeZoneFormat28checkAbuttingHoursAndMinutesEv(ptr noundef nonnull align 8 dereferenceable(1328) %this1)
  br label %return

return:                                           ; preds = %delete.end, %if.then8, %if.then3, %if.then
  ret void
}

; Function Attrs: mustprogress uwtable
define noundef ptr @_ZN6icu_7514TimeZoneFormat18parseOffsetPatternERKNS_13UnicodeStringENS0_12OffsetFieldsER10UErrorCode(ptr noundef nonnull align 8 dereferenceable(64) %pattern, i32 noundef %required, ptr noundef nonnull align 4 dereferenceable(4) %status) #1 align 2 personality ptr @__gxx_personality_v0 {
entry:
  %retval = alloca ptr, align 8
  %pattern.addr = alloca ptr, align 8
  %required.addr = alloca i32, align 4
  %status.addr = alloca ptr, align 8
  %result = alloca ptr, align 8
  %saved-rvalue = alloca ptr, align 8
  %cleanup.cond = alloca i1, align 1
  %exn.slot = alloca ptr, align 8
  %ehselector.slot = alloca i32, align 4
  %checkBits = alloca i32, align 4
  %isPrevQuote = alloca i8, align 1
  %inQuote = alloca i8, align 1
  %textBuf = alloca [32 x i16], align 16
  %text = alloca %"class.icu_75::UnicodeString", align 8
  %itemType = alloca i32, align 4
  %itemLength = alloca i32, align 4
  %i = alloca i32, align 4
  %ch = alloca i16, align 2
  %fld = alloca ptr, align 8
  %tmpType = alloca i32, align 4
  %textfld = alloca ptr, align 8
  %fld69 = alloca ptr, align 8
  %fld89 = alloca ptr, align 8
  %tfld = alloca ptr, align 8
  %fld126 = alloca ptr, align 8
  %reqBits = alloca i32, align 4
  %cleanup.dest.slot = alloca i32, align 4
  store ptr %pattern, ptr %pattern.addr, align 8
  store i32 %required, ptr %required.addr, align 4
  store ptr %status, ptr %status.addr, align 8
  %0 = load ptr, ptr %status.addr, align 8
  %1 = load i32, ptr %0, align 4
  %call = call noundef signext i8 @_ZL9U_FAILURE10UErrorCode(i32 noundef %1)
  %tobool = icmp ne i8 %call, 0
  br i1 %tobool, label %if.then, label %if.end

if.then:                                          ; preds = %entry
  store ptr null, ptr %retval, align 8
  br label %return

if.end:                                           ; preds = %entry
  %call1 = call noundef ptr @_ZN6icu_757UMemorynwEm(i64 noundef 40) #11
  %new.isnull = icmp eq ptr %call1, null
  store i1 false, ptr %cleanup.cond, align 1
  br i1 %new.isnull, label %new.cont, label %new.notnull

new.notnull:                                      ; preds = %if.end
  store ptr %call1, ptr %saved-rvalue, align 8
  store i1 true, ptr %cleanup.cond, align 1
  %2 = load ptr, ptr %status.addr, align 8
  invoke void @_ZN6icu_757UVectorC1EPFvPvEPFa8UElementS4_ER10UErrorCode(ptr noundef nonnull align 8 dereferenceable(40) %call1, ptr noundef @_ZN6icu_75L20deleteGMTOffsetFieldEPv, ptr noundef null, ptr noundef nonnull align 4 dereferenceable(4) %2)
          to label %invoke.cont unwind label %lpad

invoke.cont:                                      ; preds = %new.notnull
  br label %new.cont

new.cont:                                         ; preds = %invoke.cont, %if.end
  %3 = phi ptr [ %call1, %invoke.cont ], [ null, %if.end ]
  store ptr %3, ptr %result, align 8
  %4 = load ptr, ptr %result, align 8
  %cmp = icmp eq ptr %4, null
  br i1 %cmp, label %if.then2, label %if.end3

if.then2:                                         ; preds = %new.cont
  %5 = load ptr, ptr %status.addr, align 8
  store i32 7, ptr %5, align 4
  store ptr null, ptr %retval, align 8
  br label %return

lpad:                                             ; preds = %new.notnull
  %6 = landingpad { ptr, i32 }
          cleanup
  %7 = extractvalue { ptr, i32 } %6, 0
  store ptr %7, ptr %exn.slot, align 8
  %8 = extractvalue { ptr, i32 } %6, 1
  store i32 %8, ptr %ehselector.slot, align 4
  %cleanup.is_active = load i1, ptr %cleanup.cond, align 1
  br i1 %cleanup.is_active, label %cleanup.action, label %cleanup.done

cleanup.action:                                   ; preds = %lpad
  %9 = load ptr, ptr %saved-rvalue, align 8
  call void @_ZN6icu_757UMemorydlEPv(ptr noundef %9) #11
  br label %cleanup.done

cleanup.done:                                     ; preds = %cleanup.action, %lpad
  br label %eh.resume

if.end3:                                          ; preds = %new.cont
  store i32 0, ptr %checkBits, align 4
  store i8 0, ptr %isPrevQuote, align 1
  store i8 0, ptr %inQuote, align 1
  %arraydecay = getelementptr inbounds [32 x i16], ptr %textBuf, i64 0, i64 0
  call void @_ZN6icu_7513UnicodeStringC1EPDsii(ptr noundef nonnull align 8 dereferenceable(64) %text, ptr noundef %arraydecay, i32 noundef 0, i32 noundef 32)
  store i32 0, ptr %itemType, align 4
  store i32 1, ptr %itemLength, align 4
  store i32 0, ptr %i, align 4
  br label %for.cond

for.cond:                                         ; preds = %for.inc, %if.end3
  %10 = load i32, ptr %i, align 4
  %11 = load ptr, ptr %pattern.addr, align 8
  %call6 = invoke noundef i32 @_ZNK6icu_7513UnicodeString6lengthEv(ptr noundef nonnull align 8 dereferenceable(64) %11)
          to label %invoke.cont5 unwind label %lpad4

invoke.cont5:                                     ; preds = %for.cond
  %cmp7 = icmp slt i32 %10, %call6
  br i1 %cmp7, label %for.body, label %for.end

for.body:                                         ; preds = %invoke.cont5
  %12 = load ptr, ptr %pattern.addr, align 8
  %13 = load i32, ptr %i, align 4
  %call9 = invoke noundef zeroext i16 @_ZNK6icu_7513UnicodeString6charAtEi(ptr noundef nonnull align 8 dereferenceable(64) %12, i32 noundef %13)
          to label %invoke.cont8 unwind label %lpad4

invoke.cont8:                                     ; preds = %for.body
  store i16 %call9, ptr %ch, align 2
  %14 = load i16, ptr %ch, align 2
  %conv = zext i16 %14 to i32
  %cmp10 = icmp eq i32 %conv, 39
  br i1 %cmp10, label %if.then11, label %if.else36

if.then11:                                        ; preds = %invoke.cont8
  %15 = load i8, ptr %isPrevQuote, align 1
  %tobool12 = icmp ne i8 %15, 0
  br i1 %tobool12, label %if.then13, label %if.else

if.then13:                                        ; preds = %if.then11
  %call15 = invoke noundef nonnull align 8 dereferenceable(64) ptr @_ZN6icu_7513UnicodeString6appendEDs(ptr noundef nonnull align 8 dereferenceable(64) %text, i16 noundef zeroext 39)
          to label %invoke.cont14 unwind label %lpad4

invoke.cont14:                                    ; preds = %if.then13
  store i8 0, ptr %isPrevQuote, align 1
  br label %if.end33

lpad4:                                            ; preds = %if.end133, %invoke.cont128, %if.then125, %invoke.cont118, %if.then117, %if.then113, %for.end, %if.end101, %invoke.cont93, %invoke.cont91, %if.then88, %invoke.cont73, %invoke.cont71, %if.then68, %if.end61, %invoke.cont56, %invoke.cont54, %if.then53, %if.then49, %if.then38, %invoke.cont24, %invoke.cont22, %if.then20, %if.then13, %for.body, %for.cond
  %16 = landingpad { ptr, i32 }
          cleanup
  %17 = extractvalue { ptr, i32 } %16, 0
  store ptr %17, ptr %exn.slot, align 8
  %18 = extractvalue { ptr, i32 } %16, 1
  store i32 %18, ptr %ehselector.slot, align 4
  call void @_ZN6icu_7513UnicodeStringD1Ev(ptr noundef nonnull align 8 dereferenceable(64) %text) #11
  br label %eh.resume

if.else:                                          ; preds = %if.then11
  store i8 1, ptr %isPrevQuote, align 1
  %19 = load i32, ptr %itemType, align 4
  %cmp16 = icmp ne i32 %19, 0
  br i1 %cmp16, label %if.then17, label %if.end32

if.then17:                                        ; preds = %if.else
  %20 = load i32, ptr %itemType, align 4
  %21 = load i32, ptr %itemLength, align 4
  %call18 = call noundef signext i8 @_ZN6icu_7514GMTOffsetField7isValidENS0_9FieldTypeEi(i32 noundef %20, i32 noundef %21)
  %tobool19 = icmp ne i8 %call18, 0
  br i1 %tobool19, label %if.then20, label %if.else30

if.then20:                                        ; preds = %if.then17
  %22 = load i32, ptr %itemType, align 4
  %23 = load i32, ptr %itemLength, align 4
  %conv21 = trunc i32 %23 to i8
  %24 = load ptr, ptr %status.addr, align 8
  %call23 = invoke noundef ptr @_ZN6icu_7514GMTOffsetField15createTimeFieldENS0_9FieldTypeEhR10UErrorCode(i32 noundef %22, i8 noundef zeroext %conv21, ptr noundef nonnull align 4 dereferenceable(4) %24)
          to label %invoke.cont22 unwind label %lpad4

invoke.cont22:                                    ; preds = %if.then20
  store ptr %call23, ptr %fld, align 8
  %25 = load ptr, ptr %result, align 8
  %26 = load ptr, ptr %fld, align 8
  %27 = load ptr, ptr %status.addr, align 8
  invoke void @_ZN6icu_757UVector12adoptElementEPvR10UErrorCode(ptr noundef nonnull align 8 dereferenceable(40) %25, ptr noundef %26, ptr noundef nonnull align 4 dereferenceable(4) %27)
          to label %invoke.cont24 unwind label %lpad4

invoke.cont24:                                    ; preds = %invoke.cont22
  %28 = load ptr, ptr %status.addr, align 8
  %29 = load i32, ptr %28, align 4
  %call26 = invoke noundef signext i8 @_ZL9U_FAILURE10UErrorCode(i32 noundef %29)
          to label %invoke.cont25 unwind label %lpad4

invoke.cont25:                                    ; preds = %invoke.cont24
  %tobool27 = icmp ne i8 %call26, 0
  br i1 %tobool27, label %if.then28, label %if.end29

if.then28:                                        ; preds = %invoke.cont25
  br label %for.end

if.end29:                                         ; preds = %invoke.cont25
  br label %if.end31

if.else30:                                        ; preds = %if.then17
  %30 = load ptr, ptr %status.addr, align 8
  store i32 1, ptr %30, align 4
  br label %for.end

if.end31:                                         ; preds = %if.end29
  store i32 0, ptr %itemType, align 4
  br label %if.end32

if.end32:                                         ; preds = %if.end31, %if.else
  br label %if.end33

if.end33:                                         ; preds = %if.end32, %invoke.cont14
  %31 = load i8, ptr %inQuote, align 1
  %tobool34 = icmp ne i8 %31, 0
  %lnot = xor i1 %tobool34, true
  %conv35 = zext i1 %lnot to i8
  store i8 %conv35, ptr %inQuote, align 1
  br label %if.end106

if.else36:                                        ; preds = %invoke.cont8
  store i8 0, ptr %isPrevQuote, align 1
  %32 = load i8, ptr %inQuote, align 1
  %tobool37 = icmp ne i8 %32, 0
  br i1 %tobool37, label %if.then38, label %if.else41

if.then38:                                        ; preds = %if.else36
  %33 = load i16, ptr %ch, align 2
  %call40 = invoke noundef nonnull align 8 dereferenceable(64) ptr @_ZN6icu_7513UnicodeString6appendEDs(ptr noundef nonnull align 8 dereferenceable(64) %text, i16 noundef zeroext %33)
          to label %invoke.cont39 unwind label %lpad4

invoke.cont39:                                    ; preds = %if.then38
  br label %if.end105

if.else41:                                        ; preds = %if.else36
  %34 = load i16, ptr %ch, align 2
  %call42 = call noundef i32 @_ZN6icu_7514GMTOffsetField15getTypeByLetterEDs(i16 noundef zeroext %34)
  store i32 %call42, ptr %tmpType, align 4
  %35 = load i32, ptr %tmpType, align 4
  %cmp43 = icmp ne i32 %35, 0
  br i1 %cmp43, label %if.then44, label %if.else83

if.then44:                                        ; preds = %if.else41
  %36 = load i32, ptr %tmpType, align 4
  %37 = load i32, ptr %itemType, align 4
  %cmp45 = icmp eq i32 %36, %37
  br i1 %cmp45, label %if.then46, label %if.else47

if.then46:                                        ; preds = %if.then44
  %38 = load i32, ptr %itemLength, align 4
  %inc = add nsw i32 %38, 1
  store i32 %inc, ptr %itemLength, align 4
  br label %if.end82

if.else47:                                        ; preds = %if.then44
  %39 = load i32, ptr %itemType, align 4
  %cmp48 = icmp eq i32 %39, 0
  br i1 %cmp48, label %if.then49, label %if.else65

if.then49:                                        ; preds = %if.else47
  %call51 = invoke noundef i32 @_ZNK6icu_7513UnicodeString6lengthEv(ptr noundef nonnull align 8 dereferenceable(64) %text)
          to label %invoke.cont50 unwind label %lpad4

invoke.cont50:                                    ; preds = %if.then49
  %cmp52 = icmp sgt i32 %call51, 0
  br i1 %cmp52, label %if.then53, label %if.end64

if.then53:                                        ; preds = %invoke.cont50
  %40 = load ptr, ptr %status.addr, align 8
  %call55 = invoke noundef ptr @_ZN6icu_7514GMTOffsetField10createTextERKNS_13UnicodeStringER10UErrorCode(ptr noundef nonnull align 8 dereferenceable(64) %text, ptr noundef nonnull align 4 dereferenceable(4) %40)
          to label %invoke.cont54 unwind label %lpad4

invoke.cont54:                                    ; preds = %if.then53
  store ptr %call55, ptr %textfld, align 8
  %41 = load ptr, ptr %result, align 8
  %42 = load ptr, ptr %textfld, align 8
  %43 = load ptr, ptr %status.addr, align 8
  invoke void @_ZN6icu_757UVector12adoptElementEPvR10UErrorCode(ptr noundef nonnull align 8 dereferenceable(40) %41, ptr noundef %42, ptr noundef nonnull align 4 dereferenceable(4) %43)
          to label %invoke.cont56 unwind label %lpad4

invoke.cont56:                                    ; preds = %invoke.cont54
  %44 = load ptr, ptr %status.addr, align 8
  %45 = load i32, ptr %44, align 4
  %call58 = invoke noundef signext i8 @_ZL9U_FAILURE10UErrorCode(i32 noundef %45)
          to label %invoke.cont57 unwind label %lpad4

invoke.cont57:                                    ; preds = %invoke.cont56
  %tobool59 = icmp ne i8 %call58, 0
  br i1 %tobool59, label %if.then60, label %if.end61

if.then60:                                        ; preds = %invoke.cont57
  br label %for.end

if.end61:                                         ; preds = %invoke.cont57
  %call63 = invoke noundef nonnull align 8 dereferenceable(64) ptr @_ZN6icu_7513UnicodeString6removeEv(ptr noundef nonnull align 8 dereferenceable(64) %text)
          to label %invoke.cont62 unwind label %lpad4

invoke.cont62:                                    ; preds = %if.end61
  br label %if.end64

if.end64:                                         ; preds = %invoke.cont62, %invoke.cont50
  br label %if.end81

if.else65:                                        ; preds = %if.else47
  %46 = load i32, ptr %itemType, align 4
  %47 = load i32, ptr %itemLength, align 4
  %call66 = call noundef signext i8 @_ZN6icu_7514GMTOffsetField7isValidENS0_9FieldTypeEi(i32 noundef %46, i32 noundef %47)
  %tobool67 = icmp ne i8 %call66, 0
  br i1 %tobool67, label %if.then68, label %if.else79

if.then68:                                        ; preds = %if.else65
  %48 = load i32, ptr %itemType, align 4
  %49 = load i32, ptr %itemLength, align 4
  %conv70 = trunc i32 %49 to i8
  %50 = load ptr, ptr %status.addr, align 8
  %call72 = invoke noundef ptr @_ZN6icu_7514GMTOffsetField15createTimeFieldENS0_9FieldTypeEhR10UErrorCode(i32 noundef %48, i8 noundef zeroext %conv70, ptr noundef nonnull align 4 dereferenceable(4) %50)
          to label %invoke.cont71 unwind label %lpad4

invoke.cont71:                                    ; preds = %if.then68
  store ptr %call72, ptr %fld69, align 8
  %51 = load ptr, ptr %result, align 8
  %52 = load ptr, ptr %fld69, align 8
  %53 = load ptr, ptr %status.addr, align 8
  invoke void @_ZN6icu_757UVector12adoptElementEPvR10UErrorCode(ptr noundef nonnull align 8 dereferenceable(40) %51, ptr noundef %52, ptr noundef nonnull align 4 dereferenceable(4) %53)
          to label %invoke.cont73 unwind label %lpad4

invoke.cont73:                                    ; preds = %invoke.cont71
  %54 = load ptr, ptr %status.addr, align 8
  %55 = load i32, ptr %54, align 4
  %call75 = invoke noundef signext i8 @_ZL9U_FAILURE10UErrorCode(i32 noundef %55)
          to label %invoke.cont74 unwind label %lpad4

invoke.cont74:                                    ; preds = %invoke.cont73
  %tobool76 = icmp ne i8 %call75, 0
  br i1 %tobool76, label %if.then77, label %if.end78

if.then77:                                        ; preds = %invoke.cont74
  br label %for.end

if.end78:                                         ; preds = %invoke.cont74
  br label %if.end80

if.else79:                                        ; preds = %if.else65
  %56 = load ptr, ptr %status.addr, align 8
  store i32 1, ptr %56, align 4
  br label %for.end

if.end80:                                         ; preds = %if.end78
  br label %if.end81

if.end81:                                         ; preds = %if.end80, %if.end64
  %57 = load i32, ptr %tmpType, align 4
  store i32 %57, ptr %itemType, align 4
  store i32 1, ptr %itemLength, align 4
  %58 = load i32, ptr %tmpType, align 4
  %59 = load i32, ptr %checkBits, align 4
  %or = or i32 %59, %58
  store i32 %or, ptr %checkBits, align 4
  br label %if.end82

if.end82:                                         ; preds = %if.end81, %if.then46
  br label %if.end104

if.else83:                                        ; preds = %if.else41
  %60 = load i32, ptr %itemType, align 4
  %cmp84 = icmp ne i32 %60, 0
  br i1 %cmp84, label %if.then85, label %if.end101

if.then85:                                        ; preds = %if.else83
  %61 = load i32, ptr %itemType, align 4
  %62 = load i32, ptr %itemLength, align 4
  %call86 = call noundef signext i8 @_ZN6icu_7514GMTOffsetField7isValidENS0_9FieldTypeEi(i32 noundef %61, i32 noundef %62)
  %tobool87 = icmp ne i8 %call86, 0
  br i1 %tobool87, label %if.then88, label %if.else99

if.then88:                                        ; preds = %if.then85
  %63 = load i32, ptr %itemType, align 4
  %64 = load i32, ptr %itemLength, align 4
  %conv90 = trunc i32 %64 to i8
  %65 = load ptr, ptr %status.addr, align 8
  %call92 = invoke noundef ptr @_ZN6icu_7514GMTOffsetField15createTimeFieldENS0_9FieldTypeEhR10UErrorCode(i32 noundef %63, i8 noundef zeroext %conv90, ptr noundef nonnull align 4 dereferenceable(4) %65)
          to label %invoke.cont91 unwind label %lpad4

invoke.cont91:                                    ; preds = %if.then88
  store ptr %call92, ptr %fld89, align 8
  %66 = load ptr, ptr %result, align 8
  %67 = load ptr, ptr %fld89, align 8
  %68 = load ptr, ptr %status.addr, align 8
  invoke void @_ZN6icu_757UVector12adoptElementEPvR10UErrorCode(ptr noundef nonnull align 8 dereferenceable(40) %66, ptr noundef %67, ptr noundef nonnull align 4 dereferenceable(4) %68)
          to label %invoke.cont93 unwind label %lpad4

invoke.cont93:                                    ; preds = %invoke.cont91
  %69 = load ptr, ptr %status.addr, align 8
  %70 = load i32, ptr %69, align 4
  %call95 = invoke noundef signext i8 @_ZL9U_FAILURE10UErrorCode(i32 noundef %70)
          to label %invoke.cont94 unwind label %lpad4

invoke.cont94:                                    ; preds = %invoke.cont93
  %tobool96 = icmp ne i8 %call95, 0
  br i1 %tobool96, label %if.then97, label %if.end98

if.then97:                                        ; preds = %invoke.cont94
  br label %for.end

if.end98:                                         ; preds = %invoke.cont94
  br label %if.end100

if.else99:                                        ; preds = %if.then85
  %71 = load ptr, ptr %status.addr, align 8
  store i32 1, ptr %71, align 4
  br label %for.end

if.end100:                                        ; preds = %if.end98
  store i32 0, ptr %itemType, align 4
  br label %if.end101

if.end101:                                        ; preds = %if.end100, %if.else83
  %72 = load i16, ptr %ch, align 2
  %call103 = invoke noundef nonnull align 8 dereferenceable(64) ptr @_ZN6icu_7513UnicodeString6appendEDs(ptr noundef nonnull align 8 dereferenceable(64) %text, i16 noundef zeroext %72)
          to label %invoke.cont102 unwind label %lpad4

invoke.cont102:                                   ; preds = %if.end101
  br label %if.end104

if.end104:                                        ; preds = %invoke.cont102, %if.end82
  br label %if.end105

if.end105:                                        ; preds = %if.end104, %invoke.cont39
  br label %if.end106

if.end106:                                        ; preds = %if.end105, %if.end33
  br label %for.inc

for.inc:                                          ; preds = %if.end106
  %73 = load i32, ptr %i, align 4
  %inc107 = add nsw i32 %73, 1
  store i32 %inc107, ptr %i, align 4
  br label %for.cond, !llvm.loop !14

for.end:                                          ; preds = %if.else99, %if.then97, %if.else79, %if.then77, %if.then60, %if.else30, %if.then28, %invoke.cont5
  %74 = load ptr, ptr %status.addr, align 8
  %75 = load i32, ptr %74, align 4
  %call109 = invoke noundef signext i8 @_ZL9U_SUCCESS10UErrorCode(i32 noundef %75)
          to label %invoke.cont108 unwind label %lpad4

invoke.cont108:                                   ; preds = %for.end
  %tobool110 = icmp ne i8 %call109, 0
  br i1 %tobool110, label %if.then111, label %if.end144

if.then111:                                       ; preds = %invoke.cont108
  %76 = load i32, ptr %itemType, align 4
  %cmp112 = icmp eq i32 %76, 0
  br i1 %cmp112, label %if.then113, label %if.else122

if.then113:                                       ; preds = %if.then111
  %call115 = invoke noundef i32 @_ZNK6icu_7513UnicodeString6lengthEv(ptr noundef nonnull align 8 dereferenceable(64) %text)
          to label %invoke.cont114 unwind label %lpad4

invoke.cont114:                                   ; preds = %if.then113
  %cmp116 = icmp sgt i32 %call115, 0
  br i1 %cmp116, label %if.then117, label %if.end121

if.then117:                                       ; preds = %invoke.cont114
  %77 = load ptr, ptr %status.addr, align 8
  %call119 = invoke noundef ptr @_ZN6icu_7514GMTOffsetField10createTextERKNS_13UnicodeStringER10UErrorCode(ptr noundef nonnull align 8 dereferenceable(64) %text, ptr noundef nonnull align 4 dereferenceable(4) %77)
          to label %invoke.cont118 unwind label %lpad4

invoke.cont118:                                   ; preds = %if.then117
  store ptr %call119, ptr %tfld, align 8
  %78 = load ptr, ptr %result, align 8
  %79 = load ptr, ptr %tfld, align 8
  %80 = load ptr, ptr %status.addr, align 8
  invoke void @_ZN6icu_757UVector12adoptElementEPvR10UErrorCode(ptr noundef nonnull align 8 dereferenceable(40) %78, ptr noundef %79, ptr noundef nonnull align 4 dereferenceable(4) %80)
          to label %invoke.cont120 unwind label %lpad4

invoke.cont120:                                   ; preds = %invoke.cont118
  br label %if.end121

if.end121:                                        ; preds = %invoke.cont120, %invoke.cont114
  br label %if.end133

if.else122:                                       ; preds = %if.then111
  %81 = load i32, ptr %itemType, align 4
  %82 = load i32, ptr %itemLength, align 4
  %call123 = call noundef signext i8 @_ZN6icu_7514GMTOffsetField7isValidENS0_9FieldTypeEi(i32 noundef %81, i32 noundef %82)
  %tobool124 = icmp ne i8 %call123, 0
  br i1 %tobool124, label %if.then125, label %if.else131

if.then125:                                       ; preds = %if.else122
  %83 = load i32, ptr %itemType, align 4
  %84 = load i32, ptr %itemLength, align 4
  %conv127 = trunc i32 %84 to i8
  %85 = load ptr, ptr %status.addr, align 8
  %call129 = invoke noundef ptr @_ZN6icu_7514GMTOffsetField15createTimeFieldENS0_9FieldTypeEhR10UErrorCode(i32 noundef %83, i8 noundef zeroext %conv127, ptr noundef nonnull align 4 dereferenceable(4) %85)
          to label %invoke.cont128 unwind label %lpad4

invoke.cont128:                                   ; preds = %if.then125
  store ptr %call129, ptr %fld126, align 8
  %86 = load ptr, ptr %result, align 8
  %87 = load ptr, ptr %fld126, align 8
  %88 = load ptr, ptr %status.addr, align 8
  invoke void @_ZN6icu_757UVector12adoptElementEPvR10UErrorCode(ptr noundef nonnull align 8 dereferenceable(40) %86, ptr noundef %87, ptr noundef nonnull align 4 dereferenceable(4) %88)
          to label %invoke.cont130 unwind label %lpad4

invoke.cont130:                                   ; preds = %invoke.cont128
  br label %if.end132

if.else131:                                       ; preds = %if.else122
  %89 = load ptr, ptr %status.addr, align 8
  store i32 1, ptr %89, align 4
  br label %if.end132

if.end132:                                        ; preds = %if.else131, %invoke.cont130
  br label %if.end133

if.end133:                                        ; preds = %if.end132, %if.end121
  %90 = load ptr, ptr %status.addr, align 8
  %91 = load i32, ptr %90, align 4
  %call135 = invoke noundef signext i8 @_ZL9U_SUCCESS10UErrorCode(i32 noundef %91)
          to label %invoke.cont134 unwind label %lpad4

invoke.cont134:                                   ; preds = %if.end133
  %tobool136 = icmp ne i8 %call135, 0
  br i1 %tobool136, label %if.then137, label %if.end143

if.then137:                                       ; preds = %invoke.cont134
  store i32 0, ptr %reqBits, align 4
  %92 = load i32, ptr %required.addr, align 4
  switch i32 %92, label %sw.epilog [
    i32 0, label %sw.bb
    i32 1, label %sw.bb138
    i32 2, label %sw.bb139
  ]

sw.bb:                                            ; preds = %if.then137
  store i32 1, ptr %reqBits, align 4
  br label %sw.epilog

sw.bb138:                                         ; preds = %if.then137
  store i32 3, ptr %reqBits, align 4
  br label %sw.epilog

sw.bb139:                                         ; preds = %if.then137
  store i32 7, ptr %reqBits, align 4
  br label %sw.epilog

sw.epilog:                                        ; preds = %sw.bb139, %sw.bb138, %sw.bb, %if.then137
  %93 = load i32, ptr %checkBits, align 4
  %94 = load i32, ptr %reqBits, align 4
  %cmp140 = icmp eq i32 %93, %94
  br i1 %cmp140, label %if.then141, label %if.end142

if.then141:                                       ; preds = %sw.epilog
  %95 = load ptr, ptr %result, align 8
  store ptr %95, ptr %retval, align 8
  store i32 1, ptr %cleanup.dest.slot, align 4
  br label %cleanup

if.end142:                                        ; preds = %sw.epilog
  br label %if.end143

if.end143:                                        ; preds = %if.end142, %invoke.cont134
  br label %if.end144

if.end144:                                        ; preds = %if.end143, %invoke.cont108
  %96 = load ptr, ptr %result, align 8
  %isnull = icmp eq ptr %96, null
  br i1 %isnull, label %delete.end, label %delete.notnull

delete.notnull:                                   ; preds = %if.end144
  %vtable = load ptr, ptr %96, align 8
  %vfn = getelementptr inbounds ptr, ptr %vtable, i64 1
  %97 = load ptr, ptr %vfn, align 8
  call void %97(ptr noundef nonnull align 8 dereferenceable(40) %96) #11
  br label %delete.end

delete.end:                                       ; preds = %delete.notnull, %if.end144
  store ptr null, ptr %retval, align 8
  store i32 1, ptr %cleanup.dest.slot, align 4
  br label %cleanup

cleanup:                                          ; preds = %delete.end, %if.then141
  call void @_ZN6icu_7513UnicodeStringD1Ev(ptr noundef nonnull align 8 dereferenceable(64) %text) #11
  br label %return

return:                                           ; preds = %cleanup, %if.then2, %if.then
  %98 = load ptr, ptr %retval, align 8
  ret ptr %98

eh.resume:                                        ; preds = %lpad4, %cleanup.done
  %exn = load ptr, ptr %exn.slot, align 8
  %sel = load i32, ptr %ehselector.slot, align 4
  %lpad.val = insertvalue { ptr, i32 } poison, ptr %exn, 0
  %lpad.val145 = insertvalue { ptr, i32 } %lpad.val, i32 %sel, 1
  resume { ptr, i32 } %lpad.val145
}

; Function Attrs: mustprogress uwtable
define void @_ZN6icu_7514TimeZoneFormat28checkAbuttingHoursAndMinutesEv(ptr noundef nonnull align 8 dereferenceable(1328) %this) #1 align 2 {
entry:
  %this.addr = alloca ptr, align 8
  %type = alloca i32, align 4
  %afterH = alloca i8, align 1
  %items = alloca ptr, align 8
  %i = alloca i32, align 4
  %item = alloca ptr, align 8
  %fieldType = alloca i32, align 4
  store ptr %this, ptr %this.addr, align 8
  %this1 = load ptr, ptr %this.addr, align 8
  %fAbuttingOffsetHoursAndMinutes = getelementptr inbounds %"class.icu_75::TimeZoneFormat", ptr %this1, i32 0, i32 14
  store i8 0, ptr %fAbuttingOffsetHoursAndMinutes, align 8
  store i32 0, ptr %type, align 4
  br label %for.cond

for.cond:                                         ; preds = %for.inc22, %entry
  %0 = load i32, ptr %type, align 4
  %cmp = icmp slt i32 %0, 6
  br i1 %cmp, label %for.body, label %for.end24

for.body:                                         ; preds = %for.cond
  store i8 0, ptr %afterH, align 1
  %fGMTOffsetPatternItems = getelementptr inbounds %"class.icu_75::TimeZoneFormat", ptr %this1, i32 0, i32 13
  %1 = load i32, ptr %type, align 4
  %idxprom = sext i32 %1 to i64
  %arrayidx = getelementptr inbounds [6 x ptr], ptr %fGMTOffsetPatternItems, i64 0, i64 %idxprom
  %2 = load ptr, ptr %arrayidx, align 8
  store ptr %2, ptr %items, align 8
  store i32 0, ptr %i, align 4
  br label %for.cond2

for.cond2:                                        ; preds = %for.inc, %for.body
  %3 = load i32, ptr %i, align 4
  %4 = load ptr, ptr %items, align 8
  %call = call noundef i32 @_ZNK6icu_757UVector4sizeEv(ptr noundef nonnull align 8 dereferenceable(40) %4)
  %cmp3 = icmp slt i32 %3, %call
  br i1 %cmp3, label %for.body4, label %for.end

for.body4:                                        ; preds = %for.cond2
  %5 = load ptr, ptr %items, align 8
  %6 = load i32, ptr %i, align 4
  %call5 = call noundef ptr @_ZNK6icu_757UVector9elementAtEi(ptr noundef nonnull align 8 dereferenceable(40) %5, i32 noundef %6)
  store ptr %call5, ptr %item, align 8
  %7 = load ptr, ptr %item, align 8
