target datalayout = "e-m:e-p270:32:32-p271:32:32-p272:64:64-i64:64-i128:128-f80:128-n8:16:32:64-S128"
target triple = "x86_64-unknown-linux-gnu"

%"class.std::ios_base::Init" = type { i8 }
%"class.OpenColorIO_v2_4dev::CTFVersion" = type { i32, i32, i32 }
%"struct.OpenColorIO_v2_4dev::NumberUtils::Locale" = type { ptr }
%"class.OpenColorIO_v2_4dev::GradingBSplineCurveImpl" = type { %"class.OpenColorIO_v2_4dev::GradingBSplineCurve", %"class.std::vector.113", %"class.std::vector.78" }
%"class.OpenColorIO_v2_4dev::GradingBSplineCurve" = type { ptr }
%"class.std::vector.113" = type { %"struct.std::_Vector_base.114" }
%"struct.std::_Vector_base.114" = type { %"struct.std::_Vector_base<OpenColorIO_v2_4dev::GradingControlPoint, std::allocator<OpenColorIO_v2_4dev::GradingControlPoint>>::_Vector_impl" }
%"struct.std::_Vector_base<OpenColorIO_v2_4dev::GradingControlPoint, std::allocator<OpenColorIO_v2_4dev::GradingControlPoint>>::_Vector_impl" = type { %"struct.std::_Vector_base<OpenColorIO_v2_4dev::GradingControlPoint, std::allocator<OpenColorIO_v2_4dev::GradingControlPoint>>::_Vector_impl_data" }
%"struct.std::_Vector_base<OpenColorIO_v2_4dev::GradingControlPoint, std::allocator<OpenColorIO_v2_4dev::GradingControlPoint>>::_Vector_impl_data" = type { ptr, ptr, ptr }
%"class.std::vector.78" = type { %"struct.std::_Vector_base.79" }
%"struct.std::_Vector_base.79" = type { %"struct.std::_Vector_base<float, std::allocator<float>>::_Vector_impl" }
%"struct.std::_Vector_base<float, std::allocator<float>>::_Vector_impl" = type { %"struct.std::_Vector_base<float, std::allocator<float>>::_Vector_impl_data" }
%"struct.std::_Vector_base<float, std::allocator<float>>::_Vector_impl_data" = type { ptr, ptr, ptr }
%"class.std::vector.118" = type { %"struct.std::_Vector_base.119" }
%"struct.std::_Vector_base.119" = type { %"struct.std::_Vector_base<const char *, std::allocator<const char *>>::_Vector_impl" }
%"struct.std::_Vector_base<const char *, std::allocator<const char *>>::_Vector_impl" = type { %"struct.std::_Vector_base<const char *, std::allocator<const char *>>::_Vector_impl_data" }
%"struct.std::_Vector_base<const char *, std::allocator<const char *>>::_Vector_impl_data" = type { ptr, ptr, ptr }
%"class.__gnu_cxx::__normal_iterator" = type { ptr }
%"class.std::__cxx11::basic_ostringstream" = type { %"class.std::basic_ostream.base", %"class.std::__cxx11::basic_stringbuf", %"class.std::basic_ios" }
%"class.std::basic_ostream.base" = type { ptr }
%"class.std::__cxx11::basic_stringbuf" = type { %"class.std::basic_streambuf", i32, %"class.std::__cxx11::basic_string" }
%"class.std::basic_streambuf" = type { ptr, ptr, ptr, ptr, ptr, ptr, ptr, %"class.std::locale" }
%"class.std::locale" = type { ptr }
%"class.std::__cxx11::basic_string" = type { %"struct.std::__cxx11::basic_string<char>::_Alloc_hider", i64, %union.anon }
%"struct.std::__cxx11::basic_string<char>::_Alloc_hider" = type { ptr }
%union.anon = type { i64, [8 x i8] }
%"class.std::basic_ios" = type { %"class.std::ios_base", ptr, i8, i8, ptr, ptr, ptr, ptr }
%"class.std::ios_base" = type { ptr, i64, i64, i32, i32, i32, ptr, %"struct.std::ios_base::_Words", [8 x %"struct.std::ios_base::_Words"], i32, ptr, %"class.std::locale" }
%"struct.std::ios_base::_Words" = type { ptr, i64 }
%"class.std::allocator" = type { i8 }
%"class.OpenColorIO_v2_4dev::CTFReaderTransform" = type <{ %"class.std::__cxx11::basic_string", %"class.std::__cxx11::basic_string", %"class.std::__cxx11::basic_string", %"class.std::__cxx11::basic_string", %"class.std::__cxx11::basic_string", %"class.OpenColorIO_v2_4dev::FormatMetadataImpl", %"class.std::vector.9", %"class.std::vector.14", %"class.OpenColorIO_v2_4dev::CTFVersion", %"class.OpenColorIO_v2_4dev::CTFVersion", i32, [4 x i8] }>
%"class.OpenColorIO_v2_4dev::FormatMetadataImpl" = type { %"class.OpenColorIO_v2_4dev::FormatMetadata", %"class.std::__cxx11::basic_string", %"class.std::__cxx11::basic_string", %"class.std::vector", %"class.std::vector.4" }
%"class.OpenColorIO_v2_4dev::FormatMetadata" = type { ptr }
%"class.std::vector" = type { %"struct.std::_Vector_base" }
%"struct.std::_Vector_base" = type { %"struct.std::_Vector_base<std::pair<std::__cxx11::basic_string<char>, std::__cxx11::basic_string<char>>, std::allocator<std::pair<std::__cxx11::basic_string<char>, std::__cxx11::basic_string<char>>>>::_Vector_impl" }
%"struct.std::_Vector_base<std::pair<std::__cxx11::basic_string<char>, std::__cxx11::basic_string<char>>, std::allocator<std::pair<std::__cxx11::basic_string<char>, std::__cxx11::basic_string<char>>>>::_Vector_impl" = type { %"struct.std::_Vector_base<std::pair<std::__cxx11::basic_string<char>, std::__cxx11::basic_string<char>>, std::allocator<std::pair<std::__cxx11::basic_string<char>, std::__cxx11::basic_string<char>>>>::_Vector_impl_data" }
%"struct.std::_Vector_base<std::pair<std::__cxx11::basic_string<char>, std::__cxx11::basic_string<char>>, std::allocator<std::pair<std::__cxx11::basic_string<char>, std::__cxx11::basic_string<char>>>>::_Vector_impl_data" = type { ptr, ptr, ptr }
%"class.std::vector.4" = type { %"struct.std::_Vector_base.5" }
%"struct.std::_Vector_base.5" = type { %"struct.std::_Vector_base<OpenColorIO_v2_4dev::FormatMetadataImpl, std::allocator<OpenColorIO_v2_4dev::FormatMetadataImpl>>::_Vector_impl" }
%"struct.std::_Vector_base<OpenColorIO_v2_4dev::FormatMetadataImpl, std::allocator<OpenColorIO_v2_4dev::FormatMetadataImpl>>::_Vector_impl" = type { %"struct.std::_Vector_base<OpenColorIO_v2_4dev::FormatMetadataImpl, std::allocator<OpenColorIO_v2_4dev::FormatMetadataImpl>>::_Vector_impl_data" }
%"struct.std::_Vector_base<OpenColorIO_v2_4dev::FormatMetadataImpl, std::allocator<OpenColorIO_v2_4dev::FormatMetadataImpl>>::_Vector_impl_data" = type { ptr, ptr, ptr }
%"class.std::vector.9" = type { %"struct.std::_Vector_base.10" }
%"struct.std::_Vector_base.10" = type { %"struct.std::_Vector_base<std::shared_ptr<const OpenColorIO_v2_4dev::OpData>, std::allocator<std::shared_ptr<const OpenColorIO_v2_4dev::OpData>>>::_Vector_impl" }
%"struct.std::_Vector_base<std::shared_ptr<const OpenColorIO_v2_4dev::OpData>, std::allocator<std::shared_ptr<const OpenColorIO_v2_4dev::OpData>>>::_Vector_impl" = type { %"struct.std::_Vector_base<std::shared_ptr<const OpenColorIO_v2_4dev::OpData>, std::allocator<std::shared_ptr<const OpenColorIO_v2_4dev::OpData>>>::_Vector_impl_data" }
%"struct.std::_Vector_base<std::shared_ptr<const OpenColorIO_v2_4dev::OpData>, std::allocator<std::shared_ptr<const OpenColorIO_v2_4dev::OpData>>>::_Vector_impl_data" = type { ptr, ptr, ptr }
%"class.std::vector.14" = type { %"struct.std::_Vector_base.15" }
%"struct.std::_Vector_base.15" = type { %"struct.std::_Vector_base<std::__cxx11::basic_string<char>, std::allocator<std::__cxx11::basic_string<char>>>::_Vector_impl" }
%"struct.std::_Vector_base<std::__cxx11::basic_string<char>, std::allocator<std::__cxx11::basic_string<char>>>::_Vector_impl" = type { %"struct.std::_Vector_base<std::__cxx11::basic_string<char>, std::allocator<std::__cxx11::basic_string<char>>>::_Vector_impl_data" }
%"struct.std::_Vector_base<std::__cxx11::basic_string<char>, std::allocator<std::__cxx11::basic_string<char>>>::_Vector_impl_data" = type { ptr, ptr, ptr }
%"class.__gnu_cxx::__normal_iterator.24" = type { ptr }
%"class.std::shared_ptr" = type { %"class.std::__shared_ptr" }
%"class.std::__shared_ptr" = type { ptr, %"class.std::__shared_count" }
%"class.std::__shared_count" = type { ptr }
%"class.std::shared_ptr.28" = type { %"class.std::__shared_ptr.29" }
%"class.std::__shared_ptr.29" = type { ptr, %"class.std::__shared_count" }
%"class.__gnu_cxx::__normal_iterator.34" = type { ptr }
%"class.OpenColorIO_v2_4dev::OpRcPtrVec" = type { %"class.std::vector.19", %"class.OpenColorIO_v2_4dev::FormatMetadataImpl" }
%"class.std::vector.19" = type { %"struct.std::_Vector_base.20" }
%"struct.std::_Vector_base.20" = type { %"struct.std::_Vector_base<std::shared_ptr<OpenColorIO_v2_4dev::Op>, std::allocator<std::shared_ptr<OpenColorIO_v2_4dev::Op>>>::_Vector_impl" }
%"struct.std::_Vector_base<std::shared_ptr<OpenColorIO_v2_4dev::Op>, std::allocator<std::shared_ptr<OpenColorIO_v2_4dev::Op>>>::_Vector_impl" = type { %"struct.std::_Vector_base<std::shared_ptr<OpenColorIO_v2_4dev::Op>, std::allocator<std::shared_ptr<OpenColorIO_v2_4dev::Op>>>::_Vector_impl_data" }
%"struct.std::_Vector_base<std::shared_ptr<OpenColorIO_v2_4dev::Op>, std::allocator<std::shared_ptr<OpenColorIO_v2_4dev::Op>>>::_Vector_impl_data" = type { ptr, ptr, ptr }
%"class.OpenColorIO_v2_4dev::Op" = type { ptr, %"class.std::shared_ptr.31" }
%"class.std::shared_ptr.31" = type { %"class.std::__shared_ptr.32" }
%"class.std::__shared_ptr.32" = type { ptr, %"class.std::__shared_count" }
%"class.__gnu_cxx::__normal_iterator.143" = type { ptr }
%"class.std::shared_ptr.25" = type { %"class.std::__shared_ptr.26" }
%"class.std::__shared_ptr.26" = type { ptr, %"class.std::__shared_count" }
%"class.std::reverse_iterator" = type { %"class.__gnu_cxx::__normal_iterator.34" }
%"class.__gnu_cxx::__normal_iterator.35" = type { ptr }
%"class.__gnu_cxx::__normal_iterator.144" = type { ptr }
%"class.OpenColorIO_v2_4dev::TransformWriter" = type <{ %"class.OpenColorIO_v2_4dev::XmlElementWriter", %"class.std::shared_ptr.36", i8, [7 x i8] }>
%"class.OpenColorIO_v2_4dev::XmlElementWriter" = type { ptr, ptr }
%"class.std::shared_ptr.36" = type { %"class.std::__shared_ptr.37" }
%"class.std::__shared_ptr.37" = type { ptr, %"class.std::__shared_count" }
%"struct.std::pair" = type { %"class.std::__cxx11::basic_string", %"class.std::__cxx11::basic_string" }
%"class.__gnu_cxx::__normal_iterator.39" = type { ptr }
%"class.OpenColorIO_v2_4dev::XmlScopeIndent" = type { ptr }
%"class.std::shared_ptr.40" = type { %"class.std::__shared_ptr.41" }
%"class.std::__shared_ptr.41" = type { ptr, %"class.std::__shared_count" }
%"class.OpenColorIO_v2_4dev::(anonymous namespace)::CDLWriter" = type { %"class.OpenColorIO_v2_4dev::(anonymous namespace)::OpWriter", %"class.std::shared_ptr.40" }
%"class.OpenColorIO_v2_4dev::(anonymous namespace)::OpWriter" = type { %"class.OpenColorIO_v2_4dev::XmlElementWriter", i32, i32 }
%"class.std::shared_ptr.43" = type { %"class.std::__shared_ptr.44" }
%"class.std::__shared_ptr.44" = type { ptr, %"class.std::__shared_count" }
%"class.std::vector.46" = type { %"struct.std::_Vector_base.47" }
%"struct.std::_Vector_base.47" = type { %"struct.std::_Vector_base<double, std::allocator<double>>::_Vector_impl" }
%"struct.std::_Vector_base<double, std::allocator<double>>::_Vector_impl" = type { %"struct.std::_Vector_base<double, std::allocator<double>>::_Vector_impl_data" }
%"struct.std::_Vector_base<double, std::allocator<double>>::_Vector_impl_data" = type { ptr, ptr, ptr }
%"class.std::initializer_list" = type { ptr, i64 }
%"class.std::allocator.48" = type { i8 }
%"class.std::shared_ptr.51" = type { %"class.std::__shared_ptr.52" }
%"class.std::__shared_ptr.52" = type { ptr, %"class.std::__shared_count" }
%"class.OpenColorIO_v2_4dev::(anonymous namespace)::GammaWriter" = type { %"class.OpenColorIO_v2_4dev::(anonymous namespace)::OpWriter", %"class.OpenColorIO_v2_4dev::CTFVersion", %"class.std::shared_ptr.54" }
%"class.std::shared_ptr.54" = type { %"class.std::__shared_ptr.55" }
%"class.std::__shared_ptr.55" = type { ptr, %"class.std::__shared_count" }
%"class.std::shared_ptr.57" = type { %"class.std::__shared_ptr.58" }
%"class.std::__shared_ptr.58" = type { ptr, %"class.std::__shared_count" }
%"class.OpenColorIO_v2_4dev::(anonymous namespace)::ExposureContrastWriter" = type { %"class.OpenColorIO_v2_4dev::(anonymous namespace)::OpWriter", %"class.std::shared_ptr.57" }
%"class.std::shared_ptr.60" = type { %"class.std::__shared_ptr.61" }
%"class.std::__shared_ptr.61" = type { ptr, %"class.std::__shared_count" }
%"class.OpenColorIO_v2_4dev::(anonymous namespace)::FixedFunctionWriter" = type { %"class.OpenColorIO_v2_4dev::(anonymous namespace)::OpWriter", %"class.std::shared_ptr.60" }
%"class.std::shared_ptr.63" = type { %"class.std::__shared_ptr.64" }
%"class.std::__shared_ptr.64" = type { ptr, %"class.std::__shared_count" }
%"class.OpenColorIO_v2_4dev::(anonymous namespace)::GradingPrimaryWriter" = type { %"class.OpenColorIO_v2_4dev::(anonymous namespace)::OpWriter", %"class.std::shared_ptr.63" }
%"class.std::shared_ptr.66" = type { %"class.std::__shared_ptr.67" }
%"class.std::__shared_ptr.67" = type { ptr, %"class.std::__shared_count" }
%"class.OpenColorIO_v2_4dev::(anonymous namespace)::GradingRGBCurveWriter" = type { %"class.OpenColorIO_v2_4dev::(anonymous namespace)::OpWriter", %"class.std::shared_ptr.66" }
%"class.std::shared_ptr.69" = type { %"class.std::__shared_ptr.70" }
%"class.std::__shared_ptr.70" = type { ptr, %"class.std::__shared_count" }
%"class.OpenColorIO_v2_4dev::(anonymous namespace)::GradingToneWriter" = type { %"class.OpenColorIO_v2_4dev::(anonymous namespace)::OpWriter", %"class.std::shared_ptr.69" }
%"class.std::shared_ptr.72" = type { %"class.std::__shared_ptr.73" }
%"class.std::__shared_ptr.73" = type { ptr, %"class.std::__shared_count" }
%"class.OpenColorIO_v2_4dev::(anonymous namespace)::LogWriter" = type { %"class.OpenColorIO_v2_4dev::(anonymous namespace)::OpWriter", %"class.std::shared_ptr.72" }
%"class.std::shared_ptr.75" = type { %"class.std::__shared_ptr.76" }
%"class.std::__shared_ptr.76" = type { ptr, %"class.std::__shared_count" }
%"class.OpenColorIO_v2_4dev::(anonymous namespace)::Lut1DWriter" = type { %"class.OpenColorIO_v2_4dev::(anonymous namespace)::OpWriter", %"class.std::shared_ptr.75" }
%"class.std::shared_ptr.83" = type { %"class.std::__shared_ptr.84" }
%"class.std::__shared_ptr.84" = type { ptr, %"class.std::__shared_count" }
%"class.OpenColorIO_v2_4dev::(anonymous namespace)::Lut3DWriter" = type { %"class.OpenColorIO_v2_4dev::(anonymous namespace)::OpWriter", %"class.std::shared_ptr.83" }
%"class.std::shared_ptr.86" = type { %"class.std::__shared_ptr.87" }
%"class.std::__shared_ptr.87" = type { ptr, %"class.std::__shared_count" }
%"class.std::shared_ptr.90" = type { %"class.std::__shared_ptr.91" }
%"class.std::__shared_ptr.91" = type { ptr, %"class.std::__shared_count" }
%"class.OpenColorIO_v2_4dev::(anonymous namespace)::MatrixWriter" = type { %"class.OpenColorIO_v2_4dev::(anonymous namespace)::OpWriter", %"class.OpenColorIO_v2_4dev::CTFVersion", %"class.std::shared_ptr.86" }
%"class.std::shared_ptr.93" = type { %"class.std::__shared_ptr.94" }
%"class.std::__shared_ptr.94" = type { ptr, %"class.std::__shared_count" }
%"class.std::shared_ptr.96" = type { %"class.std::__shared_ptr.97" }
%"class.std::__shared_ptr.97" = type { ptr, %"class.std::__shared_count" }
%"class.OpenColorIO_v2_4dev::(anonymous namespace)::RangeWriter" = type { %"class.OpenColorIO_v2_4dev::(anonymous namespace)::OpWriter", %"class.std::shared_ptr.93" }
%"class.OpenColorIO_v2_4dev::ExponentOpData" = type { %"class.OpenColorIO_v2_4dev::OpData", [4 x double] }
%"class.OpenColorIO_v2_4dev::OpData" = type { ptr, %"class.std::mutex", %"class.OpenColorIO_v2_4dev::FormatMetadataImpl" }
%"class.std::mutex" = type { %"class.std::__mutex_base" }
%"class.std::__mutex_base" = type { %union.pthread_mutex_t }
%union.pthread_mutex_t = type { %struct.__pthread_mutex_s }
%struct.__pthread_mutex_s = type { i32, i32, i32, i32, i32, i16, i16, %struct.__pthread_internal_list }
%struct.__pthread_internal_list = type { ptr, ptr }
%"class.std::allocator.6" = type { i8 }
%"class.std::allocator.146" = type { i8 }
%"struct.std::_Sp_alloc_shared_tag" = type { ptr }
%"class.OpenColorIO_v2_4dev::Lut1DOpData" = type <{ %"class.OpenColorIO_v2_4dev::OpData", i32, [4 x i8], %"class.OpenColorIO_v2_4dev::Lut1DOpData::Lut3by1DArray", i32, i32, i32, [4 x i8], [3 x %"struct.OpenColorIO_v2_4dev::Lut1DOpData::ComponentProperties"], i32, [4 x i8] }>
%"class.OpenColorIO_v2_4dev::Lut1DOpData::Lut3by1DArray" = type { %"class.OpenColorIO_v2_4dev::ArrayT" }
%"class.OpenColorIO_v2_4dev::ArrayT" = type { %"class.OpenColorIO_v2_4dev::ArrayBase", i64, i64, %"class.std::vector.78" }
%"class.OpenColorIO_v2_4dev::ArrayBase" = type { ptr }
%"struct.OpenColorIO_v2_4dev::Lut1DOpData::ComponentProperties" = type { i8, i64, i64, i64, i64 }
%"class.OpenColorIO_v2_4dev::Lut3DOpData" = type { %"class.OpenColorIO_v2_4dev::OpData", i32, %"class.OpenColorIO_v2_4dev::Lut3DOpData::Lut3DArray", i32, i32 }
%"class.OpenColorIO_v2_4dev::Lut3DOpData::Lut3DArray" = type { %"class.OpenColorIO_v2_4dev::ArrayT" }
%"class.OpenColorIO_v2_4dev::MatrixOpData" = type <{ %"class.OpenColorIO_v2_4dev::OpData", %"class.OpenColorIO_v2_4dev::MatrixOpData::MatrixArray", %"class.OpenColorIO_v2_4dev::MatrixOpData::Offsets", i32, i32, i32, [4 x i8] }>
%"class.OpenColorIO_v2_4dev::MatrixOpData::MatrixArray" = type { %"class.OpenColorIO_v2_4dev::ArrayT.89" }
%"class.OpenColorIO_v2_4dev::ArrayT.89" = type { %"class.OpenColorIO_v2_4dev::ArrayBase", i64, i64, %"class.std::vector.46" }
%"class.OpenColorIO_v2_4dev::MatrixOpData::Offsets" = type { [4 x double] }
%"class.OpenColorIO_v2_4dev::RangeOpData" = type <{ %"class.OpenColorIO_v2_4dev::OpData", double, double, double, double, double, double, i32, i32, i32, [4 x i8] }>
%"class.std::_Sp_counted_base" = type { ptr, i32, i32 }
%"class.OpenColorIO_v2_4dev::ExposureContrastOpData" = type { %"class.OpenColorIO_v2_4dev::OpData", i32, %"class.std::shared_ptr.99", %"class.std::shared_ptr.99", %"class.std::shared_ptr.99", double, double, double }
%"class.std::shared_ptr.99" = type { %"class.std::__shared_ptr.100" }
%"class.std::__shared_ptr.100" = type { ptr, %"class.std::__shared_count" }
%"class.OpenColorIO_v2_4dev::FixedFunctionOpData" = type { %"class.OpenColorIO_v2_4dev::OpData", i32, %"class.std::vector.46" }
%"class.OpenColorIO_v2_4dev::GammaOpData" = type { %"class.OpenColorIO_v2_4dev::OpData", i32, %"class.std::vector.46", %"class.std::vector.46", %"class.std::vector.46", %"class.std::vector.46" }
%"struct.OpenColorIO_v2_4dev::CDLOpData::ChannelParams" = type { [3 x double] }
%"class.OpenColorIO_v2_4dev::CDLOpData" = type { %"class.OpenColorIO_v2_4dev::OpData", i32, %"struct.OpenColorIO_v2_4dev::CDLOpData::ChannelParams", %"struct.OpenColorIO_v2_4dev::CDLOpData::ChannelParams", %"struct.OpenColorIO_v2_4dev::CDLOpData::ChannelParams", double }
%"class.std::__cxx11::basic_stringstream" = type { %"class.std::basic_iostream.base", %"class.std::__cxx11::basic_stringbuf", %"class.std::basic_ios" }
%"class.std::basic_iostream.base" = type { %"class.std::basic_istream.base", %"class.std::basic_ostream.base" }
%"class.std::basic_istream.base" = type { ptr, i64 }
%"class.OpenColorIO_v2_4dev::DynamicPropertyImpl" = type <{ %"class.OpenColorIO_v2_4dev::DynamicProperty", i32, i8, [3 x i8] }>
%"class.OpenColorIO_v2_4dev::DynamicProperty" = type { ptr }
%"class.__gnu_cxx::__normal_iterator.102" = type { ptr }
%"struct.OpenColorIO_v2_4dev::GradingPrimary" = type { %"struct.OpenColorIO_v2_4dev::GradingRGBM", %"struct.OpenColorIO_v2_4dev::GradingRGBM", %"struct.OpenColorIO_v2_4dev::GradingRGBM", %"struct.OpenColorIO_v2_4dev::GradingRGBM", %"struct.OpenColorIO_v2_4dev::GradingRGBM", %"struct.OpenColorIO_v2_4dev::GradingRGBM", %"struct.OpenColorIO_v2_4dev::GradingRGBM", double, double, double, double, double, double }
%"struct.OpenColorIO_v2_4dev::GradingRGBM" = type { double, double, double, double }
%"class.OpenColorIO_v2_4dev::GradingPrimaryOpData" = type { %"class.OpenColorIO_v2_4dev::OpData", i32, %"class.std::shared_ptr.103" }
%"class.std::shared_ptr.103" = type { %"class.std::__shared_ptr.104" }
%"class.std::__shared_ptr.104" = type { ptr, %"class.std::__shared_count" }
%"class.__gnu_cxx::__normal_iterator.106" = type { ptr }
%"class.std::shared_ptr.110" = type { %"class.std::__shared_ptr.111" }
%"class.std::__shared_ptr.111" = type { ptr, %"class.std::__shared_count" }
%"class.std::initializer_list.123" = type { ptr, i64 }
%"class.std::allocator.120" = type { i8 }
%"class.std::shared_ptr.124" = type { %"class.std::__shared_ptr.125" }
%"class.std::__shared_ptr.125" = type { ptr, %"class.std::__shared_count" }
%"class.OpenColorIO_v2_4dev::GradingRGBCurveOpData" = type { %"class.OpenColorIO_v2_4dev::OpData", i32, %"class.std::shared_ptr.107", i8, i32 }
%"class.std::shared_ptr.107" = type { %"class.std::__shared_ptr.108" }
%"class.std::__shared_ptr.108" = type { ptr, %"class.std::__shared_count" }
%"struct.OpenColorIO_v2_4dev::GradingControlPoint" = type { float, float }
%"struct.OpenColorIO_v2_4dev::GradingTone" = type { %"struct.OpenColorIO_v2_4dev::GradingRGBMSW", %"struct.OpenColorIO_v2_4dev::GradingRGBMSW", %"struct.OpenColorIO_v2_4dev::GradingRGBMSW", %"struct.OpenColorIO_v2_4dev::GradingRGBMSW", %"struct.OpenColorIO_v2_4dev::GradingRGBMSW", double }
%"struct.OpenColorIO_v2_4dev::GradingRGBMSW" = type { double, double, double, double, double, double }
%"class.OpenColorIO_v2_4dev::GradingToneOpData" = type <{ %"class.OpenColorIO_v2_4dev::OpData", i32, [4 x i8], %"class.std::shared_ptr.132", i32, [4 x i8] }>
%"class.std::shared_ptr.132" = type { %"class.std::__shared_ptr.133" }
%"class.std::__shared_ptr.133" = type { ptr, %"class.std::__shared_count" }
%"class.OpenColorIO_v2_4dev::LogOpData" = type <{ %"class.OpenColorIO_v2_4dev::OpData", %"class.std::vector.46", %"class.std::vector.46", %"class.std::vector.46", double, i32, [4 x i8] }>
%"class.std::vector.135" = type { %"struct.std::_Vector_base.136" }
%"struct.std::_Vector_base.136" = type { %"struct.std::_Vector_base<unsigned int, std::allocator<unsigned int>>::_Vector_impl" }
%"struct.std::_Vector_base<unsigned int, std::allocator<unsigned int>>::_Vector_impl" = type { %"struct.std::_Vector_base<unsigned int, std::allocator<unsigned int>>::_Vector_impl_data" }
%"struct.std::_Vector_base<unsigned int, std::allocator<unsigned int>>::_Vector_impl_data" = type { ptr, ptr, ptr }
%"class.Imath_3_1::half" = type { i16 }
%"class.__gnu_cxx::__normal_iterator.140" = type { ptr }
%"class.__gnu_cxx::__normal_iterator.141" = type { ptr }
%union.imath_half_uif = type { i32 }
%"class.__gnu_cxx::__normal_iterator.142" = type { ptr }
%"class.__gnu_cxx::__normal_iterator.145" = type { ptr }
%"class.std::allocator.147" = type { i8 }
%"struct.std::__allocated_ptr" = type { ptr, ptr }
%"class.std::_Sp_counted_ptr_inplace" = type { %"class.std::_Sp_counted_base", %"class.std::_Sp_counted_ptr_inplace<OpenColorIO_v2_4dev::GammaOpData, std::allocator<void>, __gnu_cxx::_S_atomic>::_Impl" }
%"class.std::_Sp_counted_ptr_inplace<OpenColorIO_v2_4dev::GammaOpData, std::allocator<void>, __gnu_cxx::_S_atomic>::_Impl" = type { %"struct.__gnu_cxx::__aligned_buffer" }
%"struct.__gnu_cxx::__aligned_buffer" = type { %"union.std::aligned_storage<272, 8>::type" }
%"union.std::aligned_storage<272, 8>::type" = type { [272 x i8] }
%"class.std::type_info" = type { ptr, ptr }
%"class.std::allocator.150" = type { i8 }
%"struct.std::__allocated_ptr.153" = type { ptr, ptr }
%"class.std::_Sp_counted_ptr_inplace.154" = type { %"class.std::_Sp_counted_base", %"class.std::_Sp_counted_ptr_inplace<OpenColorIO_v2_4dev::MatrixOpData, std::allocator<void>, __gnu_cxx::_S_atomic>::_Impl" }
%"class.std::_Sp_counted_ptr_inplace<OpenColorIO_v2_4dev::MatrixOpData, std::allocator<void>, __gnu_cxx::_S_atomic>::_Impl" = type { %"struct.__gnu_cxx::__aligned_buffer.155" }
%"struct.__gnu_cxx::__aligned_buffer.155" = type { %"union.std::aligned_storage<264, 8>::type" }
%"union.std::aligned_storage<264, 8>::type" = type { [264 x i8] }

$_ZN19OpenColorIO_v2_4dev10CTFVersionC2Ejj = comdat any

$_ZN19OpenColorIO_v2_4dev10CTFVersionD2Ev = comdat any

$_ZN19OpenColorIO_v2_4dev10CTFVersionC2ERKS0_ = comdat any

$_ZN19OpenColorIO_v2_4dev11NumberUtils6LocaleC2Ev = comdat any

$_ZN19OpenColorIO_v2_4dev11NumberUtils6LocaleD2Ev = comdat any

$_ZN9__gnu_cxxneIPKcNSt7__cxx1112basic_stringIcSt11char_traitsIcESaIcEEEEEbRKNS_17__normal_iteratorIT_T0_EESE_ = comdat any

$_ZNK9__gnu_cxx17__normal_iteratorIPKcNSt7__cxx1112basic_stringIcSt11char_traitsIcESaIcEEEEdeEv = comdat any

$_ZN9__gnu_cxx17__normal_iteratorIPKcNSt7__cxx1112basic_stringIcSt11char_traitsIcESaIcEEEEppEv = comdat any

$_ZNK9__gnu_cxx17__normal_iteratorIPKcNSt7__cxx1112basic_stringIcSt11char_traitsIcESaIcEEEEixEl = comdat any

$_ZNSt6vectorISt10shared_ptrIKN19OpenColorIO_v2_4dev6OpDataEESaIS4_EEC2Ev = comdat any

$_ZNSt6vectorINSt7__cxx1112basic_stringIcSt11char_traitsIcESaIcEEESaIS5_EEC2Ev = comdat any

$_ZNSt6vectorINSt7__cxx1112basic_stringIcSt11char_traitsIcESaIcEEESaIS5_EED2Ev = comdat any

$_ZNSt6vectorISt10shared_ptrIKN19OpenColorIO_v2_4dev6OpDataEESaIS4_EED2Ev = comdat any

$_ZNK19OpenColorIO_v2_4dev10OpRcPtrVec5beginEv = comdat any

$_ZNK19OpenColorIO_v2_4dev10OpRcPtrVec3endEv = comdat any

$_ZN9__gnu_cxxneIPKSt10shared_ptrIN19OpenColorIO_v2_4dev2OpEESt6vectorIS4_SaIS4_EEEEbRKNS_17__normal_iteratorIT_T0_EESF_ = comdat any

$_ZNK9__gnu_cxx17__normal_iteratorIPKSt10shared_ptrIN19OpenColorIO_v2_4dev2OpEESt6vectorIS4_SaIS4_EEEdeEv = comdat any

$_ZNSt10shared_ptrIKN19OpenColorIO_v2_4dev2OpEEC2IS1_vEERKS_IT_E = comdat any

$_ZNKSt19__shared_ptr_accessIKN19OpenColorIO_v2_4dev2OpELN9__gnu_cxx12_Lock_policyE2ELb0ELb0EEptEv = comdat any

$_ZNK19OpenColorIO_v2_4dev2Op4dataEv = comdat any

$_ZNSt6vectorISt10shared_ptrIKN19OpenColorIO_v2_4dev6OpDataEESaIS4_EE9push_backERKS4_ = comdat any

$_ZNSt10shared_ptrIKN19OpenColorIO_v2_4dev6OpDataEED2Ev = comdat any

$_ZNSt10shared_ptrIKN19OpenColorIO_v2_4dev2OpEED2Ev = comdat any

$_ZN9__gnu_cxx17__normal_iteratorIPKSt10shared_ptrIN19OpenColorIO_v2_4dev2OpEESt6vectorIS4_SaIS4_EEEppEv = comdat any

$_ZNKSt6vectorIN19OpenColorIO_v2_4dev18FormatMetadataImplESaIS1_EE5beginEv = comdat any

$_ZNKSt6vectorIN19OpenColorIO_v2_4dev18FormatMetadataImplESaIS1_EE3endEv = comdat any

$_ZN9__gnu_cxxneIPKN19OpenColorIO_v2_4dev18FormatMetadataImplESt6vectorIS2_SaIS2_EEEEbRKNS_17__normal_iteratorIT_T0_EESD_ = comdat any

$_ZNK9__gnu_cxx17__normal_iteratorIPKN19OpenColorIO_v2_4dev18FormatMetadataImplESt6vectorIS2_SaIS2_EEEdeEv = comdat any

$_ZNSt6vectorINSt7__cxx1112basic_stringIcSt11char_traitsIcESaIcEEESaIS5_EE9push_backEOS5_ = comdat any

$_ZN9__gnu_cxx17__normal_iteratorIPKN19OpenColorIO_v2_4dev18FormatMetadataImplESt6vectorIS2_SaIS2_EEEppEv = comdat any

$_ZNK19OpenColorIO_v2_4dev18CTFReaderTransform7getNameB5cxx11Ev = comdat any

$_ZNK19OpenColorIO_v2_4dev18CTFReaderTransform5getIDB5cxx11Ev = comdat any

$_ZNK19OpenColorIO_v2_4dev18CTFReaderTransform14getInverseOfIdB5cxx11Ev = comdat any

$_ZNK19OpenColorIO_v2_4dev18CTFReaderTransform18getInputDescriptorB5cxx11Ev = comdat any

$_ZNK19OpenColorIO_v2_4dev18CTFReaderTransform19getOutputDescriptorB5cxx11Ev = comdat any

$_ZNKSt6vectorINSt7__cxx1112basic_stringIcSt11char_traitsIcESaIcEEESaIS5_EE5beginEv = comdat any

$_ZNKSt6vectorINSt7__cxx1112basic_stringIcSt11char_traitsIcESaIcEEESaIS5_EE3endEv = comdat any

$_ZN9__gnu_cxxneIPKNSt7__cxx1112basic_stringIcSt11char_traitsIcESaIcEEESt6vectorIS6_SaIS6_EEEEbRKNS_17__normal_iteratorIT_T0_EESH_ = comdat any

$_ZNK9__gnu_cxx17__normal_iteratorIPKNSt7__cxx1112basic_stringIcSt11char_traitsIcESaIcEEESt6vectorIS6_SaIS6_EEEdeEv = comdat any

$_ZN9__gnu_cxx17__normal_iteratorIPKNSt7__cxx1112basic_stringIcSt11char_traitsIcESaIcEEESt6vectorIS6_SaIS6_EEEppEv = comdat any

$_ZNSt6vectorIN19OpenColorIO_v2_4dev18FormatMetadataImplESaIS1_EE9push_backERKS1_ = comdat any

$_ZNSt10shared_ptrIKN19OpenColorIO_v2_4dev18CTFReaderTransformEEC2ERKS3_ = comdat any

$_ZNSt10shared_ptrIKN19OpenColorIO_v2_4dev18CTFReaderTransformEED2Ev = comdat any

$_ZNSt6vectorISt4pairINSt7__cxx1112basic_stringIcSt11char_traitsIcESaIcEEES6_ESaIS7_EEC2Ev = comdat any

$_ZNSt6vectorISt4pairINSt7__cxx1112basic_stringIcSt11char_traitsIcESaIcEEES6_ESaIS7_EE9push_backEOS7_ = comdat any

$_ZNSt4pairINSt7__cxx1112basic_stringIcSt11char_traitsIcESaIcEEES5_EC2IRA15_KcS5_TnNSt9enable_ifIXaaclsr5_PCCPE22_MoveConstructiblePairIT_T0_EEclsr5_PCCPE30_ImplicitlyMoveConvertiblePairISC_SD_EEEbE4typeELb1EEEOSC_OSD_ = comdat any

$_ZNSt4pairINSt7__cxx1112basic_stringIcSt11char_traitsIcESaIcEEES5_ED2Ev = comdat any

$_ZN19OpenColorIO_v2_4devlsERSoRKNS_10CTFVersionE = comdat any

$_ZNSt4pairINSt7__cxx1112basic_stringIcSt11char_traitsIcESaIcEEES5_EC2IRA8_KcS5_TnNSt9enable_ifIXaaclsr5_PCCPE22_MoveConstructiblePairIT_T0_EEclsr5_PCCPE30_ImplicitlyMoveConvertiblePairISC_SD_EEEbE4typeELb1EEEOSC_OSD_ = comdat any

$_ZNKSt19__shared_ptr_accessIKN19OpenColorIO_v2_4dev18CTFReaderTransformELN9__gnu_cxx12_Lock_policyE2ELb0ELb0EEptEv = comdat any

$_ZNK19OpenColorIO_v2_4dev18CTFReaderTransform6getOpsEv = comdat any

$_ZNKSt6vectorISt10shared_ptrIKN19OpenColorIO_v2_4dev6OpDataEESaIS4_EE5beginEv = comdat any

$_ZNKSt6vectorISt10shared_ptrIKN19OpenColorIO_v2_4dev6OpDataEESaIS4_EE3endEv = comdat any

$_ZN9__gnu_cxxneIPKSt10shared_ptrIKN19OpenColorIO_v2_4dev6OpDataEESt6vectorIS5_SaIS5_EEEEbRKNS_17__normal_iteratorIT_T0_EESG_ = comdat any

$_ZNK9__gnu_cxx17__normal_iteratorIPKSt10shared_ptrIKN19OpenColorIO_v2_4dev6OpDataEESt6vectorIS5_SaIS5_EEEdeEv = comdat any

$_ZNSt10shared_ptrIKN19OpenColorIO_v2_4dev6OpDataEEC2ERKS3_ = comdat any

$_ZNKSt19__shared_ptr_accessIKN19OpenColorIO_v2_4dev6OpDataELN9__gnu_cxx12_Lock_policyE2ELb0ELb0EEptEv = comdat any

$_ZN9__gnu_cxx17__normal_iteratorIPKSt10shared_ptrIKN19OpenColorIO_v2_4dev6OpDataEESt6vectorIS5_SaIS5_EEEppEv = comdat any

$_ZNSt4pairINSt7__cxx1112basic_stringIcSt11char_traitsIcESaIcEEES5_EC2IRA3_KcRS5_TnNSt9enable_ifIXaaclsr5_PCCPE22_MoveConstructiblePairIT_T0_EEclsr5_PCCPE30_ImplicitlyMoveConvertiblePairISD_SE_EEEbE4typeELb1EEEOSD_OSE_ = comdat any

$_ZNSt4pairINSt7__cxx1112basic_stringIcSt11char_traitsIcESaIcEEES5_EC2IRA5_KcRKS5_TnNSt9enable_ifIXaaclsr5_PCCPE22_MoveConstructiblePairIT_T0_EEclsr5_PCCPE30_ImplicitlyMoveConvertiblePairISE_SF_EEEbE4typeELb1EEEOSE_OSF_ = comdat any

$_ZNSt4pairINSt7__cxx1112basic_stringIcSt11char_traitsIcESaIcEEES5_EC2IRA10_KcRKS5_TnNSt9enable_ifIXaaclsr5_PCCPE22_MoveConstructiblePairIT_T0_EEclsr5_PCCPE30_ImplicitlyMoveConvertiblePairISE_SF_EEEbE4typeELb1EEEOSE_OSF_ = comdat any

$_ZNK19OpenColorIO_v2_4dev18CTFReaderTransform15getDescriptionsB5cxx11Ev = comdat any

$_ZNK19OpenColorIO_v2_4dev18CTFReaderTransform15getInfoMetadataEv = comdat any

$_ZNSt6vectorISt4pairINSt7__cxx1112basic_stringIcSt11char_traitsIcESaIcEEES6_ESaIS7_EED2Ev = comdat any

$_ZNKSt6vectorIN19OpenColorIO_v2_4dev18FormatMetadataImplESaIS1_EE4sizeEv = comdat any

$_ZNSt6vectorIN19OpenColorIO_v2_4dev18FormatMetadataImplESaIS1_EEC2ERKS3_ = comdat any

$_ZNSt6vectorIN19OpenColorIO_v2_4dev18FormatMetadataImplESaIS1_EED2Ev = comdat any

$_ZNKSt6vectorISt10shared_ptrIKN19OpenColorIO_v2_4dev6OpDataEESaIS4_EE4sizeEv = comdat any

$_ZNKSt6vectorISt10shared_ptrIKN19OpenColorIO_v2_4dev6OpDataEESaIS4_EEixEm = comdat any

$_ZSt20dynamic_pointer_castIKN19OpenColorIO_v2_4dev9CDLOpDataEKNS0_6OpDataEESt10shared_ptrIT_ERKS5_IT0_E = comdat any

$_ZNSt10shared_ptrIKN19OpenColorIO_v2_4dev9CDLOpDataEEC2ERKS3_ = comdat any

$_ZNSt10shared_ptrIKN19OpenColorIO_v2_4dev9CDLOpDataEED2Ev = comdat any

$_ZSt20dynamic_pointer_castIKN19OpenColorIO_v2_4dev14ExponentOpDataEKNS0_6OpDataEESt10shared_ptrIT_ERKS5_IT0_E = comdat any

$_ZNKSt19__shared_ptr_accessIKN19OpenColorIO_v2_4dev14ExponentOpDataELN9__gnu_cxx12_Lock_policyE2ELb0ELb0EEptEv = comdat any

$_ZNSaIdEC2Ev = comdat any

$_ZNSt6vectorIdSaIdEEC2ESt16initializer_listIdERKS0_ = comdat any

$_ZNSaIdED2Ev = comdat any

$_ZSt11make_sharedIN19OpenColorIO_v2_4dev11GammaOpDataEJNS1_5StyleERSt6vectorIdSaIdEES6_S6_S6_EESt10shared_ptrINSt9enable_ifIXntsr8is_arrayIT_EE5valueES9_E4typeEEDpOT0_ = comdat any

$_ZNK19OpenColorIO_v2_4dev6OpData17getFormatMetadataEv = comdat any

$_ZNKSt19__shared_ptr_accessIN19OpenColorIO_v2_4dev11GammaOpDataELN9__gnu_cxx12_Lock_policyE2ELb0ELb0EEptEv = comdat any

$_ZN19OpenColorIO_v2_4dev6OpData17getFormatMetadataEv = comdat any

$_ZNSt10shared_ptrIKN19OpenColorIO_v2_4dev11GammaOpDataEEC2IS1_vEERKS_IT_E = comdat any

$_ZNSt10shared_ptrIKN19OpenColorIO_v2_4dev11GammaOpDataEED2Ev = comdat any

$_ZNSt10shared_ptrIN19OpenColorIO_v2_4dev11GammaOpDataEED2Ev = comdat any

$_ZNSt6vectorIdSaIdEED2Ev = comdat any

$_ZNSt10shared_ptrIKN19OpenColorIO_v2_4dev14ExponentOpDataEED2Ev = comdat any

$_ZSt20dynamic_pointer_castIKN19OpenColorIO_v2_4dev22ExposureContrastOpDataEKNS0_6OpDataEESt10shared_ptrIT_ERKS5_IT0_E = comdat any

$_ZNSt10shared_ptrIKN19OpenColorIO_v2_4dev22ExposureContrastOpDataEEC2ERKS3_ = comdat any

$_ZNSt10shared_ptrIKN19OpenColorIO_v2_4dev22ExposureContrastOpDataEED2Ev = comdat any

$_ZSt20dynamic_pointer_castIKN19OpenColorIO_v2_4dev19FixedFunctionOpDataEKNS0_6OpDataEESt10shared_ptrIT_ERKS5_IT0_E = comdat any

$_ZNSt10shared_ptrIKN19OpenColorIO_v2_4dev19FixedFunctionOpDataEEC2ERKS3_ = comdat any

$_ZNSt10shared_ptrIKN19OpenColorIO_v2_4dev19FixedFunctionOpDataEED2Ev = comdat any

$_ZSt20dynamic_pointer_castIKN19OpenColorIO_v2_4dev11GammaOpDataEKNS0_6OpDataEESt10shared_ptrIT_ERKS5_IT0_E = comdat any

$_ZNKSt19__shared_ptr_accessIKN19OpenColorIO_v2_4dev11GammaOpDataELN9__gnu_cxx12_Lock_policyE2ELb0ELb0EEptEv = comdat any

$_ZNSt10shared_ptrIKN19OpenColorIO_v2_4dev11GammaOpDataEEC2ERKS3_ = comdat any

$_ZSt20dynamic_pointer_castIKN19OpenColorIO_v2_4dev20GradingPrimaryOpDataEKNS0_6OpDataEESt10shared_ptrIT_ERKS5_IT0_E = comdat any

$_ZNSt10shared_ptrIKN19OpenColorIO_v2_4dev20GradingPrimaryOpDataEEC2ERKS3_ = comdat any

$_ZNSt10shared_ptrIKN19OpenColorIO_v2_4dev20GradingPrimaryOpDataEED2Ev = comdat any

$_ZSt20dynamic_pointer_castIKN19OpenColorIO_v2_4dev21GradingRGBCurveOpDataEKNS0_6OpDataEESt10shared_ptrIT_ERKS5_IT0_E = comdat any

$_ZNSt10shared_ptrIKN19OpenColorIO_v2_4dev21GradingRGBCurveOpDataEEC2ERKS3_ = comdat any

$_ZNSt10shared_ptrIKN19OpenColorIO_v2_4dev21GradingRGBCurveOpDataEED2Ev = comdat any

$_ZSt20dynamic_pointer_castIKN19OpenColorIO_v2_4dev17GradingToneOpDataEKNS0_6OpDataEESt10shared_ptrIT_ERKS5_IT0_E = comdat any

$_ZNSt10shared_ptrIKN19OpenColorIO_v2_4dev17GradingToneOpDataEEC2ERKS3_ = comdat any

$_ZNSt10shared_ptrIKN19OpenColorIO_v2_4dev17GradingToneOpDataEED2Ev = comdat any

$_ZSt20dynamic_pointer_castIKN19OpenColorIO_v2_4dev9LogOpDataEKNS0_6OpDataEESt10shared_ptrIT_ERKS5_IT0_E = comdat any

$_ZNSt10shared_ptrIKN19OpenColorIO_v2_4dev9LogOpDataEEC2ERKS3_ = comdat any

$_ZNSt10shared_ptrIKN19OpenColorIO_v2_4dev9LogOpDataEED2Ev = comdat any

$_ZSt20dynamic_pointer_castIKN19OpenColorIO_v2_4dev11Lut1DOpDataEKNS0_6OpDataEESt10shared_ptrIT_ERKS5_IT0_E = comdat any

$_ZNKSt19__shared_ptr_accessIKN19OpenColorIO_v2_4dev11Lut1DOpDataELN9__gnu_cxx12_Lock_policyE2ELb0ELb0EEptEv = comdat any

$_ZNK19OpenColorIO_v2_4dev11Lut1DOpData12getDirectionEv = comdat any

$_ZNSt10shared_ptrIKN19OpenColorIO_v2_4dev11Lut1DOpDataEEC2ERKS3_ = comdat any

$_ZNSt10shared_ptrIKN19OpenColorIO_v2_4dev11Lut1DOpDataEED2Ev = comdat any

$_ZNK19OpenColorIO_v2_4dev11Lut1DOpData21getFileOutputBitDepthEv = comdat any

$_ZSt20dynamic_pointer_castIKN19OpenColorIO_v2_4dev11Lut3DOpDataEKNS0_6OpDataEESt10shared_ptrIT_ERKS5_IT0_E = comdat any

$_ZNKSt19__shared_ptr_accessIKN19OpenColorIO_v2_4dev11Lut3DOpDataELN9__gnu_cxx12_Lock_policyE2ELb0ELb0EEptEv = comdat any

$_ZNK19OpenColorIO_v2_4dev11Lut3DOpData12getDirectionEv = comdat any

$_ZNSt10shared_ptrIKN19OpenColorIO_v2_4dev11Lut3DOpDataEEC2ERKS3_ = comdat any

$_ZNSt10shared_ptrIKN19OpenColorIO_v2_4dev11Lut3DOpDataEED2Ev = comdat any

$_ZNK19OpenColorIO_v2_4dev11Lut3DOpData21getFileOutputBitDepthEv = comdat any

$_ZSt20dynamic_pointer_castIKN19OpenColorIO_v2_4dev12MatrixOpDataEKNS0_6OpDataEESt10shared_ptrIT_ERKS5_IT0_E = comdat any

$_ZNKSt19__shared_ptr_accessIKN19OpenColorIO_v2_4dev12MatrixOpDataELN9__gnu_cxx12_Lock_policyE2ELb0ELb0EEptEv = comdat any

$_ZNKSt19__shared_ptr_accessIN19OpenColorIO_v2_4dev12MatrixOpDataELN9__gnu_cxx12_Lock_policyE2ELb0ELb0EEptEv = comdat any

$_ZNK19OpenColorIO_v2_4dev12MatrixOpData21getFileOutputBitDepthEv = comdat any

$_ZNSt10shared_ptrIKN19OpenColorIO_v2_4dev12MatrixOpDataEEC2IS1_vEERKS_IT_E = comdat any

$_ZNSt10shared_ptrIKN19OpenColorIO_v2_4dev12MatrixOpDataEED2Ev = comdat any

$_ZNSt10shared_ptrIN19OpenColorIO_v2_4dev12MatrixOpDataEED2Ev = comdat any

$_ZSt20dynamic_pointer_castIKN19OpenColorIO_v2_4dev11RangeOpDataEKNS0_6OpDataEESt10shared_ptrIT_ERKS5_IT0_E = comdat any

$_ZNKSt19__shared_ptr_accessIKN19OpenColorIO_v2_4dev11RangeOpDataELN9__gnu_cxx12_Lock_policyE2ELb0ELb0EEptEv = comdat any

$_ZNKSt19__shared_ptr_accessIN19OpenColorIO_v2_4dev11RangeOpDataELN9__gnu_cxx12_Lock_policyE2ELb0ELb0EEptEv = comdat any

$_ZNK19OpenColorIO_v2_4dev11RangeOpData21getFileOutputBitDepthEv = comdat any

$_ZNSt10shared_ptrIKN19OpenColorIO_v2_4dev11RangeOpDataEEC2IS1_vEERKS_IT_E = comdat any

$_ZNSt10shared_ptrIKN19OpenColorIO_v2_4dev11RangeOpDataEED2Ev = comdat any

$_ZNSt10shared_ptrIN19OpenColorIO_v2_4dev11RangeOpDataEED2Ev = comdat any

$_ZSt11make_sharedIN19OpenColorIO_v2_4dev12MatrixOpDataEJEESt10shared_ptrINSt9enable_ifIXntsr8is_arrayIT_EE5valueES4_E4typeEEDpOT0_ = comdat any

$_ZNSt12_Vector_baseISt10shared_ptrIKN19OpenColorIO_v2_4dev6OpDataEESaIS4_EEC2Ev = comdat any

$_ZNSt12_Vector_baseISt10shared_ptrIKN19OpenColorIO_v2_4dev6OpDataEESaIS4_EE12_Vector_implC2Ev = comdat any

$_ZNSaISt10shared_ptrIKN19OpenColorIO_v2_4dev6OpDataEEEC2Ev = comdat any

$_ZNSt12_Vector_baseISt10shared_ptrIKN19OpenColorIO_v2_4dev6OpDataEESaIS4_EE17_Vector_impl_dataC2Ev = comdat any

$_ZNSt15__new_allocatorISt10shared_ptrIKN19OpenColorIO_v2_4dev6OpDataEEEC2Ev = comdat any

$_ZNSt12_Vector_baseINSt7__cxx1112basic_stringIcSt11char_traitsIcESaIcEEESaIS5_EEC2Ev = comdat any

$_ZNSt12_Vector_baseINSt7__cxx1112basic_stringIcSt11char_traitsIcESaIcEEESaIS5_EE12_Vector_implC2Ev = comdat any

$_ZNSaINSt7__cxx1112basic_stringIcSt11char_traitsIcESaIcEEEEC2Ev = comdat any

$_ZNSt12_Vector_baseINSt7__cxx1112basic_stringIcSt11char_traitsIcESaIcEEESaIS5_EE17_Vector_impl_dataC2Ev = comdat any

$_ZNSt15__new_allocatorINSt7__cxx1112basic_stringIcSt11char_traitsIcESaIcEEEEC2Ev = comdat any

$_ZNKSt6vectorISt10shared_ptrIN19OpenColorIO_v2_4dev2OpEESaIS3_EE5beginEv = comdat any

$_ZN9__gnu_cxx17__normal_iteratorIPKSt10shared_ptrIN19OpenColorIO_v2_4dev2OpEESt6vectorIS4_SaIS4_EEEC2ERKS6_ = comdat any

$_ZNKSt6vectorISt10shared_ptrIN19OpenColorIO_v2_4dev2OpEESaIS3_EE3endEv = comdat any

$_ZSt18const_pointer_castIKN19OpenColorIO_v2_4dev6OpDataES1_ESt10shared_ptrIT_ERKS3_IT0_E = comdat any

$_ZNKSt12__shared_ptrIN19OpenColorIO_v2_4dev6OpDataELN9__gnu_cxx12_Lock_policyE2EE3getEv = comdat any

$_ZNSt10shared_ptrIKN19OpenColorIO_v2_4dev6OpDataEEC2IS1_EERKS_IT_EPS2_ = comdat any

$_ZNSt12__shared_ptrIKN19OpenColorIO_v2_4dev6OpDataELN9__gnu_cxx12_Lock_policyE2EEC2IS1_EERKS_IT_LS4_2EEPS2_ = comdat any

$_ZNSt14__shared_countILN9__gnu_cxx12_Lock_policyE2EEC2ERKS2_ = comdat any

$_ZNSt16_Sp_counted_baseILN9__gnu_cxx12_Lock_policyE2EE15_M_add_ref_copyEv = comdat any

$__clang_call_terminate = comdat any

$_ZNSt12__shared_ptrIKN19OpenColorIO_v2_4dev6OpDataELN9__gnu_cxx12_Lock_policyE2EED2Ev = comdat any

$_ZNSt14__shared_countILN9__gnu_cxx12_Lock_policyE2EED2Ev = comdat any

$_ZNSt16_Sp_counted_baseILN9__gnu_cxx12_Lock_policyE2EE10_M_releaseEv = comdat any

$_ZNSt16_Sp_counted_baseILN9__gnu_cxx12_Lock_policyE2EE24_M_release_last_use_coldEv = comdat any

$_ZNSt16_Sp_counted_baseILN9__gnu_cxx12_Lock_policyE2EE19_M_release_last_useEv = comdat any

$_ZNSt12__shared_ptrIKN19OpenColorIO_v2_4dev2OpELN9__gnu_cxx12_Lock_policyE2EED2Ev = comdat any

$_ZNKSt6vectorIN19OpenColorIO_v2_4dev18FormatMetadataImplESaIS1_EE6rbeginEv = comdat any

$_ZStneIN9__gnu_cxx17__normal_iteratorIPKN19OpenColorIO_v2_4dev18FormatMetadataImplESt6vectorIS3_SaIS3_EEEEEbRKSt16reverse_iteratorIT_ESE_ = comdat any

$_ZNKSt6vectorIN19OpenColorIO_v2_4dev18FormatMetadataImplESaIS1_EE4rendEv = comdat any

$_ZNKSt16reverse_iteratorIN9__gnu_cxx17__normal_iteratorIPKN19OpenColorIO_v2_4dev18FormatMetadataImplESt6vectorIS3_SaIS3_EEEEEptEv = comdat any

$_ZNSt16reverse_iteratorIN9__gnu_cxx17__normal_iteratorIPKN19OpenColorIO_v2_4dev18FormatMetadataImplESt6vectorIS3_SaIS3_EEEEEppEv = comdat any

$_ZNSt16reverse_iteratorIN9__gnu_cxx17__normal_iteratorIPKN19OpenColorIO_v2_4dev18FormatMetadataImplESt6vectorIS3_SaIS3_EEEEEC2ES9_ = comdat any

$_ZSteqIN9__gnu_cxx17__normal_iteratorIPKN19OpenColorIO_v2_4dev18FormatMetadataImplESt6vectorIS3_SaIS3_EEEEEbRKSt16reverse_iteratorIT_ESE_ = comdat any

$_ZN9__gnu_cxxeqIPKN19OpenColorIO_v2_4dev18FormatMetadataImplESt6vectorIS2_SaIS2_EEEEbRKNS_17__normal_iteratorIT_T0_EESD_ = comdat any

$_ZNKSt16reverse_iteratorIN9__gnu_cxx17__normal_iteratorIPKN19OpenColorIO_v2_4dev18FormatMetadataImplESt6vectorIS3_SaIS3_EEEEE4baseEv = comdat any

$_ZNK9__gnu_cxx17__normal_iteratorIPKN19OpenColorIO_v2_4dev18FormatMetadataImplESt6vectorIS2_SaIS2_EEE4baseEv = comdat any

$_ZN9__gnu_cxx17__normal_iteratorIPKN19OpenColorIO_v2_4dev18FormatMetadataImplESt6vectorIS2_SaIS2_EEEmmEv = comdat any

$_ZNSt16reverse_iteratorIN9__gnu_cxx17__normal_iteratorIPKN19OpenColorIO_v2_4dev18FormatMetadataImplESt6vectorIS3_SaIS3_EEEEE13_S_to_pointerIS9_EES5_T_ = comdat any

$_ZNK9__gnu_cxx17__normal_iteratorIPKN19OpenColorIO_v2_4dev18FormatMetadataImplESt6vectorIS2_SaIS2_EEEptEv = comdat any

$_ZNSt12__shared_ptrIKN19OpenColorIO_v2_4dev18CTFReaderTransformELN9__gnu_cxx12_Lock_policyE2EEC2ERKS5_ = comdat any

$_ZNSt12__shared_ptrIKN19OpenColorIO_v2_4dev18CTFReaderTransformELN9__gnu_cxx12_Lock_policyE2EED2Ev = comdat any

$_ZNSt12_Vector_baseISt4pairINSt7__cxx1112basic_stringIcSt11char_traitsIcESaIcEEES6_ESaIS7_EEC2Ev = comdat any

$_ZNSt12_Vector_baseISt4pairINSt7__cxx1112basic_stringIcSt11char_traitsIcESaIcEEES6_ESaIS7_EE12_Vector_implC2Ev = comdat any

$_ZNSaISt4pairINSt7__cxx1112basic_stringIcSt11char_traitsIcESaIcEEES5_EEC2Ev = comdat any

$_ZNSt12_Vector_baseISt4pairINSt7__cxx1112basic_stringIcSt11char_traitsIcESaIcEEES6_ESaIS7_EE17_Vector_impl_dataC2Ev = comdat any

$_ZNSt15__new_allocatorISt4pairINSt7__cxx1112basic_stringIcSt11char_traitsIcESaIcEEES6_EEC2Ev = comdat any

$_ZNKSt19__shared_ptr_accessIKN19OpenColorIO_v2_4dev22ExposureContrastOpDataELN9__gnu_cxx12_Lock_policyE2ELb0ELb0EEptEv = comdat any

$_ZNK19OpenColorIO_v2_4dev22ExposureContrastOpData18getLogExposureStepEv = comdat any

$_ZNK19OpenColorIO_v2_4dev22ExposureContrastOpData13getLogMidGrayEv = comdat any

$_ZNKSt19__shared_ptr_accessIKN19OpenColorIO_v2_4dev19FixedFunctionOpDataELN9__gnu_cxx12_Lock_policyE2ELb0ELb0EEptEv = comdat any

$_ZNK19OpenColorIO_v2_4dev19FixedFunctionOpData8getStyleEv = comdat any

$_ZNK19OpenColorIO_v2_4dev11GammaOpData8getStyleEv = comdat any

$_ZNK19OpenColorIO_v2_4dev11Lut1DOpData12getHueAdjustEv = comdat any

$_ZNK19OpenColorIO_v2_4dev11Lut1DOpData17isInputHalfDomainEv = comdat any

$_ZNKSt19__shared_ptr_accessIKN19OpenColorIO_v2_4dev22ExposureContrastOpDataELN9__gnu_cxx12_Lock_policyE2ELb0ELb0EE6_M_getEv = comdat any

$_ZNKSt12__shared_ptrIKN19OpenColorIO_v2_4dev22ExposureContrastOpDataELN9__gnu_cxx12_Lock_policyE2EE3getEv = comdat any

$_ZNKSt19__shared_ptr_accessIKN19OpenColorIO_v2_4dev19FixedFunctionOpDataELN9__gnu_cxx12_Lock_policyE2ELb0ELb0EE6_M_getEv = comdat any

$_ZNKSt12__shared_ptrIKN19OpenColorIO_v2_4dev19FixedFunctionOpDataELN9__gnu_cxx12_Lock_policyE2EE3getEv = comdat any

$_ZN19OpenColorIO_v2_4dev11Lut1DOpData17IsInputHalfDomainENS0_9HalfFlagsE = comdat any

$_ZNSt12__shared_ptrIKN19OpenColorIO_v2_4dev6OpDataELN9__gnu_cxx12_Lock_policyE2EEC2ERKS5_ = comdat any

$_ZNK19OpenColorIO_v2_4dev12MatrixOpData20getFileInputBitDepthEv = comdat any

$_ZNK19OpenColorIO_v2_4dev11RangeOpData20getFileInputBitDepthEv = comdat any

$_ZNSt12__shared_ptrIKN19OpenColorIO_v2_4dev9CDLOpDataELN9__gnu_cxx12_Lock_policyE2EEC2ERKS5_ = comdat any

$_ZNSt4pairINSt7__cxx1112basic_stringIcSt11char_traitsIcESaIcEEES5_EC2IRA3_KcRKS5_TnNSt9enable_ifIXaaclsr5_PCCPE22_MoveConstructiblePairIT_T0_EEclsr5_PCCPE30_ImplicitlyMoveConvertiblePairISE_SF_EEEbE4typeELb1EEEOSE_OSF_ = comdat any

$_ZNSt4pairINSt7__cxx1112basic_stringIcSt11char_traitsIcESaIcEEES5_EC2IRA11_KcRPS8_TnNSt9enable_ifIXaaclsr5_PCCPE22_MoveConstructiblePairIT_T0_EEclsr5_PCCPE30_ImplicitlyMoveConvertiblePairISE_SF_EEEbE4typeELb1EEEOSE_OSF_ = comdat any

$_ZNSt4pairINSt7__cxx1112basic_stringIcSt11char_traitsIcESaIcEEES5_EC2IRA12_KcRPS8_TnNSt9enable_ifIXaaclsr5_PCCPE22_MoveConstructiblePairIT_T0_EEclsr5_PCCPE30_ImplicitlyMoveConvertiblePairISE_SF_EEEbE4typeELb1EEEOSE_OSF_ = comdat any

$_ZNSt10shared_ptrIKN19OpenColorIO_v2_4dev6OpDataEEC2IKNS0_9CDLOpDataEvEERKS_IT_E = comdat any

$_ZNSt12__shared_ptrIKN19OpenColorIO_v2_4dev6OpDataELN9__gnu_cxx12_Lock_policyE2EEC2IKNS0_9CDLOpDataEvEERKS_IT_LS4_2EE = comdat any

$_ZNKSt19__shared_ptr_accessIKN19OpenColorIO_v2_4dev9CDLOpDataELN9__gnu_cxx12_Lock_policyE2ELb0ELb0EEptEv = comdat any

$_ZNK19OpenColorIO_v2_4dev9CDLOpData8getStyleEv = comdat any

$_ZNSt4pairINSt7__cxx1112basic_stringIcSt11char_traitsIcESaIcEEES5_EC2IRA6_KcRKS5_TnNSt9enable_ifIXaaclsr5_PCCPE22_MoveConstructiblePairIT_T0_EEclsr5_PCCPE30_ImplicitlyMoveConvertiblePairISE_SF_EEEbE4typeELb1EEEOSE_OSF_ = comdat any

$_ZNKSt19__shared_ptr_accessIKN19OpenColorIO_v2_4dev9CDLOpDataELN9__gnu_cxx12_Lock_policyE2ELb0ELb0EE6_M_getEv = comdat any

$_ZNKSt12__shared_ptrIKN19OpenColorIO_v2_4dev9CDLOpDataELN9__gnu_cxx12_Lock_policyE2EE3getEv = comdat any

$_ZNSt8ios_base9precisionEl = comdat any

$_ZN19OpenColorIO_v2_4dev9CDLOpData13ChannelParamsC2Ev = comdat any

$_ZNK19OpenColorIO_v2_4dev9CDLOpData14getSlopeParamsEv = comdat any

$_ZN19OpenColorIO_v2_4dev9CDLOpData13ChannelParamsixEj = comdat any

$_ZNK19OpenColorIO_v2_4dev9CDLOpData15getOffsetParamsEv = comdat any

$_ZNK19OpenColorIO_v2_4dev9CDLOpData14getPowerParamsEv = comdat any

$_ZNK19OpenColorIO_v2_4dev9CDLOpData13getSaturationEv = comdat any

$_ZN19OpenColorIO_v2_4dev9CDLOpData13ChannelParams6setRGBEddd = comdat any

$_ZNSt6vectorINSt7__cxx1112basic_stringIcSt11char_traitsIcESaIcEEESaIS5_EE5clearEv = comdat any

$_ZNSt6vectorINSt7__cxx1112basic_stringIcSt11char_traitsIcESaIcEEESaIS5_EE15_M_erase_at_endEPS5_ = comdat any

$_ZSt8_DestroyIPNSt7__cxx1112basic_stringIcSt11char_traitsIcESaIcEEES5_EvT_S7_RSaIT0_E = comdat any

$_ZNSt12_Vector_baseINSt7__cxx1112basic_stringIcSt11char_traitsIcESaIcEEESaIS5_EE19_M_get_Tp_allocatorEv = comdat any

$_ZSt8_DestroyIPNSt7__cxx1112basic_stringIcSt11char_traitsIcESaIcEEEEvT_S7_ = comdat any

$_ZNSt12_Destroy_auxILb0EE9__destroyIPNSt7__cxx1112basic_stringIcSt11char_traitsIcESaIcEEEEEvT_S9_ = comdat any

$_ZSt8_DestroyINSt7__cxx1112basic_stringIcSt11char_traitsIcESaIcEEEEvPT_ = comdat any

$_ZNSt12__shared_ptrIKN19OpenColorIO_v2_4dev9CDLOpDataELN9__gnu_cxx12_Lock_policyE2EED2Ev = comdat any

$_ZNSt10shared_ptrIKN19OpenColorIO_v2_4dev6OpDataEEC2IKNS0_11GammaOpDataEvEERKS_IT_E = comdat any

$_ZNSt12__shared_ptrIKN19OpenColorIO_v2_4dev6OpDataELN9__gnu_cxx12_Lock_policyE2EEC2IKNS0_11GammaOpDataEvEERKS_IT_LS4_2EE = comdat any

$_ZNK19OpenColorIO_v2_4dev11GammaOpData12getRedParamsEv = comdat any

$_ZNSt4pairINSt7__cxx1112basic_stringIcSt11char_traitsIcESaIcEEES5_EC2IRA8_KcRA2_S8_TnNSt9enable_ifIXaaclsr5_PCCPE22_MoveConstructiblePairIT_T0_EEclsr5_PCCPE30_ImplicitlyMoveConvertiblePairISE_SF_EEEbE4typeELb1EEEOSE_OSF_ = comdat any

$_ZNK19OpenColorIO_v2_4dev11GammaOpData14getGreenParamsEv = comdat any

$_ZNK19OpenColorIO_v2_4dev11GammaOpData13getBlueParamsEv = comdat any

$_ZNK19OpenColorIO_v2_4dev11GammaOpData14getAlphaParamsEv = comdat any

$_ZNKSt6vectorIdSaIdEEixEm = comdat any

$_ZNSt4pairINSt7__cxx1112basic_stringIcSt11char_traitsIcESaIcEEES5_EC2IPKcS5_TnNSt9enable_ifIXaaclsr5_PCCPE22_MoveConstructiblePairIT_T0_EEclsr5_PCCPE30_ImplicitlyMoveConvertiblePairISB_SC_EEEbE4typeELb1EEEOSB_OSC_ = comdat any

$_ZNSt4pairINSt7__cxx1112basic_stringIcSt11char_traitsIcESaIcEEES5_EC2IRA7_KcS5_TnNSt9enable_ifIXaaclsr5_PCCPE22_MoveConstructiblePairIT_T0_EEclsr5_PCCPE30_ImplicitlyMoveConvertiblePairISC_SD_EEEbE4typeELb1EEEOSC_OSD_ = comdat any

$_ZNSt12__shared_ptrIKN19OpenColorIO_v2_4dev11GammaOpDataELN9__gnu_cxx12_Lock_policyE2EED2Ev = comdat any

$_ZNSt12__shared_ptrIN19OpenColorIO_v2_4dev11GammaOpDataELN9__gnu_cxx12_Lock_policyE2EED2Ev = comdat any

$_ZNSt12__shared_ptrIKN19OpenColorIO_v2_4dev14ExponentOpDataELN9__gnu_cxx12_Lock_policyE2EED2Ev = comdat any

$_ZNSt12__shared_ptrIKN19OpenColorIO_v2_4dev22ExposureContrastOpDataELN9__gnu_cxx12_Lock_policyE2EEC2ERKS5_ = comdat any

$_ZNSt10shared_ptrIKN19OpenColorIO_v2_4dev6OpDataEEC2IKNS0_22ExposureContrastOpDataEvEERKS_IT_E = comdat any

$_ZNSt12__shared_ptrIKN19OpenColorIO_v2_4dev6OpDataELN9__gnu_cxx12_Lock_policyE2EEC2IKNS0_22ExposureContrastOpDataEvEERKS_IT_LS4_2EE = comdat any

$_ZNK19OpenColorIO_v2_4dev22ExposureContrastOpData8getStyleEv = comdat any

$_ZNK19OpenColorIO_v2_4dev22ExposureContrastOpData11getExposureEv = comdat any

$_ZNSt4pairINSt7__cxx1112basic_stringIcSt11char_traitsIcESaIcEEES5_EC2IRA9_KcS5_TnNSt9enable_ifIXaaclsr5_PCCPE22_MoveConstructiblePairIT_T0_EEclsr5_PCCPE30_ImplicitlyMoveConvertiblePairISC_SD_EEEbE4typeELb1EEEOSC_OSD_ = comdat any

$_ZNK19OpenColorIO_v2_4dev22ExposureContrastOpData11getContrastEv = comdat any

$_ZNK19OpenColorIO_v2_4dev22ExposureContrastOpData8getGammaEv = comdat any

$_ZNSt4pairINSt7__cxx1112basic_stringIcSt11char_traitsIcESaIcEEES5_EC2IRA6_KcS5_TnNSt9enable_ifIXaaclsr5_PCCPE22_MoveConstructiblePairIT_T0_EEclsr5_PCCPE30_ImplicitlyMoveConvertiblePairISC_SD_EEEbE4typeELb1EEEOSC_OSD_ = comdat any

$_ZNK19OpenColorIO_v2_4dev22ExposureContrastOpData8getPivotEv = comdat any

$_ZNSt4pairINSt7__cxx1112basic_stringIcSt11char_traitsIcESaIcEEES5_EC2IRA16_KcS5_TnNSt9enable_ifIXaaclsr5_PCCPE22_MoveConstructiblePairIT_T0_EEclsr5_PCCPE30_ImplicitlyMoveConvertiblePairISC_SD_EEEbE4typeELb1EEEOSC_OSD_ = comdat any

$_ZNSt4pairINSt7__cxx1112basic_stringIcSt11char_traitsIcESaIcEEES5_EC2IRA11_KcS5_TnNSt9enable_ifIXaaclsr5_PCCPE22_MoveConstructiblePairIT_T0_EEclsr5_PCCPE30_ImplicitlyMoveConvertiblePairISC_SD_EEEbE4typeELb1EEEOSC_OSD_ = comdat any

$_ZNK19OpenColorIO_v2_4dev22ExposureContrastOpData19getExposurePropertyEv = comdat any

$_ZNKSt19__shared_ptr_accessIN19OpenColorIO_v2_4dev25DynamicPropertyDoubleImplELN9__gnu_cxx12_Lock_policyE2ELb0ELb0EEptEv = comdat any

$_ZNK19OpenColorIO_v2_4dev19DynamicPropertyImpl9isDynamicEv = comdat any

$_ZNSt10shared_ptrIN19OpenColorIO_v2_4dev25DynamicPropertyDoubleImplEED2Ev = comdat any

$_ZNSt6vectorISt4pairINSt7__cxx1112basic_stringIcSt11char_traitsIcESaIcEEES6_ESaIS7_EE5clearEv = comdat any

$_ZNSt4pairINSt7__cxx1112basic_stringIcSt11char_traitsIcESaIcEEES5_EC2IRA6_KcRA9_S8_TnNSt9enable_ifIXaaclsr5_PCCPE22_MoveConstructiblePairIT_T0_EEclsr5_PCCPE30_ImplicitlyMoveConvertiblePairISE_SF_EEEbE4typeELb1EEEOSE_OSF_ = comdat any

$_ZNK19OpenColorIO_v2_4dev22ExposureContrastOpData19getContrastPropertyEv = comdat any

$_ZNK19OpenColorIO_v2_4dev22ExposureContrastOpData16getGammaPropertyEv = comdat any

$_ZNSt4pairINSt7__cxx1112basic_stringIcSt11char_traitsIcESaIcEEES5_EC2IRA6_KcSA_TnNSt9enable_ifIXaaclsr5_PCCPE22_MoveConstructiblePairIT_T0_EEclsr5_PCCPE30_ImplicitlyMoveConvertiblePairISC_SD_EEEbE4typeELb1EEEOSC_OSD_ = comdat any

$_ZN19OpenColorIO_v2_4dev5IsNanIdEEbT_ = comdat any

$_ZNSt14numeric_limitsIdE8infinityEv = comdat any

$_ZSt5isnand = comdat any

$_ZNSt10shared_ptrIN19OpenColorIO_v2_4dev25DynamicPropertyDoubleImplEEC2ERKS2_ = comdat any

$_ZNSt12__shared_ptrIN19OpenColorIO_v2_4dev25DynamicPropertyDoubleImplELN9__gnu_cxx12_Lock_policyE2EEC2ERKS4_ = comdat any

$_ZNKSt19__shared_ptr_accessIN19OpenColorIO_v2_4dev25DynamicPropertyDoubleImplELN9__gnu_cxx12_Lock_policyE2ELb0ELb0EE6_M_getEv = comdat any

$_ZNKSt12__shared_ptrIN19OpenColorIO_v2_4dev25DynamicPropertyDoubleImplELN9__gnu_cxx12_Lock_policyE2EE3getEv = comdat any

$_ZNSt12__shared_ptrIN19OpenColorIO_v2_4dev25DynamicPropertyDoubleImplELN9__gnu_cxx12_Lock_policyE2EED2Ev = comdat any

$_ZNSt6vectorISt4pairINSt7__cxx1112basic_stringIcSt11char_traitsIcESaIcEEES6_ESaIS7_EE15_M_erase_at_endEPS7_ = comdat any

$_ZSt8_DestroyIPSt4pairINSt7__cxx1112basic_stringIcSt11char_traitsIcESaIcEEES6_ES7_EvT_S9_RSaIT0_E = comdat any

$_ZNSt12_Vector_baseISt4pairINSt7__cxx1112basic_stringIcSt11char_traitsIcESaIcEEES6_ESaIS7_EE19_M_get_Tp_allocatorEv = comdat any

$_ZSt8_DestroyIPSt4pairINSt7__cxx1112basic_stringIcSt11char_traitsIcESaIcEEES6_EEvT_S9_ = comdat any

$_ZNSt12_Destroy_auxILb0EE9__destroyIPSt4pairINSt7__cxx1112basic_stringIcSt11char_traitsIcESaIcEEES8_EEEvT_SB_ = comdat any

$_ZSt8_DestroyISt4pairINSt7__cxx1112basic_stringIcSt11char_traitsIcESaIcEEES6_EEvPT_ = comdat any

$_ZNSt12__shared_ptrIKN19OpenColorIO_v2_4dev22ExposureContrastOpDataELN9__gnu_cxx12_Lock_policyE2EED2Ev = comdat any

$_ZNSt12__shared_ptrIKN19OpenColorIO_v2_4dev19FixedFunctionOpDataELN9__gnu_cxx12_Lock_policyE2EEC2ERKS5_ = comdat any

$_ZNSt10shared_ptrIKN19OpenColorIO_v2_4dev6OpDataEEC2IKNS0_19FixedFunctionOpDataEvEERKS_IT_E = comdat any

$_ZNSt12__shared_ptrIKN19OpenColorIO_v2_4dev6OpDataELN9__gnu_cxx12_Lock_policyE2EEC2IKNS0_19FixedFunctionOpDataEvEERKS_IT_LS4_2EE = comdat any

$_ZNK19OpenColorIO_v2_4dev19FixedFunctionOpData9getParamsEv = comdat any

$_ZNSt6vectorIdSaIdEEC2ERKS1_ = comdat any

$_ZNKSt6vectorIdSaIdEE4sizeEv = comdat any

$_ZNSt6vectorIdSaIdEEixEm = comdat any

$_ZN9__gnu_cxx14__alloc_traitsISaIdEdE17_S_select_on_copyERKS1_ = comdat any

$_ZNKSt12_Vector_baseIdSaIdEE19_M_get_Tp_allocatorEv = comdat any

$_ZNSt12_Vector_baseIdSaIdEEC2EmRKS0_ = comdat any

$_ZSt22__uninitialized_copy_aIN9__gnu_cxx17__normal_iteratorIPKdSt6vectorIdSaIdEEEEPddET0_T_SA_S9_RSaIT1_E = comdat any

$_ZNKSt6vectorIdSaIdEE5beginEv = comdat any

$_ZNKSt6vectorIdSaIdEE3endEv = comdat any

$_ZNSt12_Vector_baseIdSaIdEE19_M_get_Tp_allocatorEv = comdat any

$_ZNSt12_Vector_baseIdSaIdEED2Ev = comdat any

$_ZNSt16allocator_traitsISaIdEE37select_on_container_copy_constructionERKS0_ = comdat any

$_ZNSaIdEC2ERKS_ = comdat any

$_ZNSt15__new_allocatorIdEC2ERKS0_ = comdat any

$_ZNSt12_Vector_baseIdSaIdEE12_Vector_implC2ERKS0_ = comdat any

$_ZNSt12_Vector_baseIdSaIdEE17_M_create_storageEm = comdat any

$_ZNSt12_Vector_baseIdSaIdEE12_Vector_implD2Ev = comdat any

$_ZNSt12_Vector_baseIdSaIdEE17_Vector_impl_dataC2Ev = comdat any

$_ZNSt12_Vector_baseIdSaIdEE11_M_allocateEm = comdat any

$_ZNSt16allocator_traitsISaIdEE8allocateERS0_m = comdat any

$_ZNSt15__new_allocatorIdE8allocateEmPKv = comdat any

$_ZNKSt15__new_allocatorIdE11_M_max_sizeEv = comdat any

$_ZNSt15__new_allocatorIdED2Ev = comdat any

$_ZSt18uninitialized_copyIN9__gnu_cxx17__normal_iteratorIPKdSt6vectorIdSaIdEEEEPdET0_T_SA_S9_ = comdat any

$_ZNSt20__uninitialized_copyILb1EE13__uninit_copyIN9__gnu_cxx17__normal_iteratorIPKdSt6vectorIdSaIdEEEEPdEET0_T_SC_SB_ = comdat any

$_ZSt4copyIN9__gnu_cxx17__normal_iteratorIPKdSt6vectorIdSaIdEEEEPdET0_T_SA_S9_ = comdat any

$_ZSt13__copy_move_aILb0EN9__gnu_cxx17__normal_iteratorIPKdSt6vectorIdSaIdEEEEPdET1_T0_SA_S9_ = comdat any

$_ZSt12__miter_baseIN9__gnu_cxx17__normal_iteratorIPKdSt6vectorIdSaIdEEEEET_S8_ = comdat any

$_ZSt12__niter_wrapIPdET_RKS1_S1_ = comdat any

$_ZSt14__copy_move_a1ILb0EPKdPdET1_T0_S4_S3_ = comdat any

$_ZSt12__niter_baseIPKdSt6vectorIdSaIdEEET_N9__gnu_cxx17__normal_iteratorIS5_T0_EE = comdat any

$_ZSt12__niter_baseIPdET_S1_ = comdat any

$_ZSt14__copy_move_a2ILb0EPKdPdET1_T0_S4_S3_ = comdat any

$_ZNSt11__copy_moveILb0ELb1ESt26random_access_iterator_tagE8__copy_mIdEEPT_PKS3_S6_S4_ = comdat any

$_ZNK9__gnu_cxx17__normal_iteratorIPKdSt6vectorIdSaIdEEE4baseEv = comdat any

$_ZN9__gnu_cxx17__normal_iteratorIPKdSt6vectorIdSaIdEEEC2ERKS2_ = comdat any

$_ZNSt12_Vector_baseIdSaIdEE13_M_deallocateEPdm = comdat any

$_ZNSt16allocator_traitsISaIdEE10deallocateERS0_Pdm = comdat any

$_ZNSt15__new_allocatorIdE10deallocateEPdm = comdat any

$_ZNSt12__shared_ptrIKN19OpenColorIO_v2_4dev19FixedFunctionOpDataELN9__gnu_cxx12_Lock_policyE2EED2Ev = comdat any

$_ZNSt12__shared_ptrIKN19OpenColorIO_v2_4dev11GammaOpDataELN9__gnu_cxx12_Lock_policyE2EEC2ERKS5_ = comdat any

$_ZNSt12__shared_ptrIKN19OpenColorIO_v2_4dev20GradingPrimaryOpDataELN9__gnu_cxx12_Lock_policyE2EEC2ERKS5_ = comdat any

$_ZNSt10shared_ptrIKN19OpenColorIO_v2_4dev6OpDataEEC2IKNS0_20GradingPrimaryOpDataEvEERKS_IT_E = comdat any

$_ZNSt12__shared_ptrIKN19OpenColorIO_v2_4dev6OpDataELN9__gnu_cxx12_Lock_policyE2EEC2IKNS0_20GradingPrimaryOpDataEvEERKS_IT_LS4_2EE = comdat any

$_ZNKSt19__shared_ptr_accessIKN19OpenColorIO_v2_4dev20GradingPrimaryOpDataELN9__gnu_cxx12_Lock_policyE2ELb0ELb0EEptEv = comdat any

$_ZNK19OpenColorIO_v2_4dev20GradingPrimaryOpData8getStyleEv = comdat any

$_ZNSt4pairINSt7__cxx1112basic_stringIcSt11char_traitsIcESaIcEEES5_EC2IRA6_KcRKPS8_TnNSt9enable_ifIXaaclsr5_PCCPE22_MoveConstructiblePairIT_T0_EEclsr5_PCCPE30_ImplicitlyMoveConvertiblePairISF_SG_EEEbE4typeELb1EEEOSF_OSG_ = comdat any

$_ZNKSt19__shared_ptr_accessIKN19OpenColorIO_v2_4dev20GradingPrimaryOpDataELN9__gnu_cxx12_Lock_policyE2ELb0ELb0EE6_M_getEv = comdat any

$_ZNKSt12__shared_ptrIKN19OpenColorIO_v2_4dev20GradingPrimaryOpDataELN9__gnu_cxx12_Lock_policyE2EE3getEv = comdat any

$_ZNK19OpenColorIO_v2_4dev20GradingPrimaryOpData8getValueEv = comdat any

$_ZN19OpenColorIO_v2_4dev14GradingPrimaryC2ENS_12GradingStyleE = comdat any

$_ZNKSt6vectorISt4pairINSt7__cxx1112basic_stringIcSt11char_traitsIcESaIcEEES6_ESaIS7_EE5emptyEv = comdat any

$_ZNSt4pairINSt7__cxx1112basic_stringIcSt11char_traitsIcESaIcEEES5_EC2IRA6_KcRA8_S8_TnNSt9enable_ifIXaaclsr5_PCCPE22_MoveConstructiblePairIT_T0_EEclsr5_PCCPE30_ImplicitlyMoveConvertiblePairISE_SF_EEEbE4typeELb1EEEOSE_OSF_ = comdat any

$_ZNKSt19__shared_ptr_accessIN19OpenColorIO_v2_4dev33DynamicPropertyGradingPrimaryImplELN9__gnu_cxx12_Lock_policyE2ELb0ELb0EEptEv = comdat any

$_ZNKSt19__shared_ptr_accessIN19OpenColorIO_v2_4dev33DynamicPropertyGradingPrimaryImplELN9__gnu_cxx12_Lock_policyE2ELb0ELb0EE6_M_getEv = comdat any

$_ZNKSt12__shared_ptrIN19OpenColorIO_v2_4dev33DynamicPropertyGradingPrimaryImplELN9__gnu_cxx12_Lock_policyE2EE3getEv = comdat any

$_ZN19OpenColorIO_v2_4dev11GradingRGBMC2Edddd = comdat any

$_ZNSt4pairINSt7__cxx1112basic_stringIcSt11char_traitsIcESaIcEEES5_EC2IRA4_KcS5_TnNSt9enable_ifIXaaclsr5_PCCPE22_MoveConstructiblePairIT_T0_EEclsr5_PCCPE30_ImplicitlyMoveConvertiblePairISC_SD_EEEbE4typeELb1EEEOSC_OSD_ = comdat any

$_ZNSt4pairINSt7__cxx1112basic_stringIcSt11char_traitsIcESaIcEEES5_EC2IRPKcS5_TnNSt9enable_ifIXaaclsr5_PCCPE22_MoveConstructiblePairIT_T0_EEclsr5_PCCPE30_ImplicitlyMoveConvertiblePairISC_SD_EEEbE4typeELb1EEEOSC_OSD_ = comdat any

$_ZN9__gnu_cxxeqIPKSt4pairINSt7__cxx1112basic_stringIcSt11char_traitsIcESaIcEEES7_ESt6vectorIS8_SaIS8_EEEEbRKNS_17__normal_iteratorIT_T0_EESJ_ = comdat any

$_ZNKSt6vectorISt4pairINSt7__cxx1112basic_stringIcSt11char_traitsIcESaIcEEES6_ESaIS7_EE5beginEv = comdat any

$_ZNKSt6vectorISt4pairINSt7__cxx1112basic_stringIcSt11char_traitsIcESaIcEEES6_ESaIS7_EE3endEv = comdat any

$_ZNK9__gnu_cxx17__normal_iteratorIPKSt4pairINSt7__cxx1112basic_stringIcSt11char_traitsIcESaIcEEES7_ESt6vectorIS8_SaIS8_EEE4baseEv = comdat any

$_ZN9__gnu_cxx17__normal_iteratorIPKSt4pairINSt7__cxx1112basic_stringIcSt11char_traitsIcESaIcEEES7_ESt6vectorIS8_SaIS8_EEEC2ERKSA_ = comdat any

$_ZNSt12__shared_ptrIKN19OpenColorIO_v2_4dev20GradingPrimaryOpDataELN9__gnu_cxx12_Lock_policyE2EED2Ev = comdat any

$_ZNSt12__shared_ptrIKN19OpenColorIO_v2_4dev21GradingRGBCurveOpDataELN9__gnu_cxx12_Lock_policyE2EEC2ERKS5_ = comdat any

$_ZNSt10shared_ptrIKN19OpenColorIO_v2_4dev6OpDataEEC2IKNS0_21GradingRGBCurveOpDataEvEERKS_IT_E = comdat any

$_ZNSt12__shared_ptrIKN19OpenColorIO_v2_4dev6OpDataELN9__gnu_cxx12_Lock_policyE2EEC2IKNS0_21GradingRGBCurveOpDataEvEERKS_IT_LS4_2EE = comdat any

$_ZNKSt19__shared_ptr_accessIKN19OpenColorIO_v2_4dev21GradingRGBCurveOpDataELN9__gnu_cxx12_Lock_policyE2ELb0ELb0EEptEv = comdat any

$_ZNK19OpenColorIO_v2_4dev21GradingRGBCurveOpData8getStyleEv = comdat any

$_ZNK19OpenColorIO_v2_4dev21GradingRGBCurveOpData17getBypassLinToLogEv = comdat any

$_ZNSt4pairINSt7__cxx1112basic_stringIcSt11char_traitsIcESaIcEEES5_EC2IRA15_KcRA5_S8_TnNSt9enable_ifIXaaclsr5_PCCPE22_MoveConstructiblePairIT_T0_EEclsr5_PCCPE30_ImplicitlyMoveConvertiblePairISE_SF_EEEbE4typeELb1EEEOSE_OSF_ = comdat any

$_ZNKSt19__shared_ptr_accessIKN19OpenColorIO_v2_4dev21GradingRGBCurveOpDataELN9__gnu_cxx12_Lock_policyE2ELb0ELb0EE6_M_getEv = comdat any

$_ZNKSt12__shared_ptrIKN19OpenColorIO_v2_4dev21GradingRGBCurveOpDataELN9__gnu_cxx12_Lock_policyE2EE3getEv = comdat any

$_ZNK19OpenColorIO_v2_4dev21GradingRGBCurveOpData8getValueEv = comdat any

$_ZNSaIPKcEC2Ev = comdat any

$_ZNSt6vectorIPKcSaIS1_EEC2ESt16initializer_listIS1_ERKS2_ = comdat any

$_ZNSaIPKcED2Ev = comdat any

$_ZNSt6vectorIPKcSaIS1_EED2Ev = comdat any

$_ZNKSt19__shared_ptr_accessIKN19OpenColorIO_v2_4dev15GradingRGBCurveELN9__gnu_cxx12_Lock_policyE2ELb0ELb0EEptEv = comdat any

$_ZNKSt19__shared_ptr_accessIKN19OpenColorIO_v2_4dev19GradingBSplineCurveELN9__gnu_cxx12_Lock_policyE2ELb0ELb0EEdeEv = comdat any

$_ZNKSt19__shared_ptr_accessIKN19OpenColorIO_v2_4dev19GradingBSplineCurveELN9__gnu_cxx12_Lock_policyE2ELb0ELb0EEptEv = comdat any

$_ZNKSt6vectorIPKcSaIS1_EEixEm = comdat any

$_ZNSt10shared_ptrIKN19OpenColorIO_v2_4dev19GradingBSplineCurveEED2Ev = comdat any

$_ZNSt4pairINSt7__cxx1112basic_stringIcSt11char_traitsIcESaIcEEES5_EC2IRA6_KcRA10_S8_TnNSt9enable_ifIXaaclsr5_PCCPE22_MoveConstructiblePairIT_T0_EEclsr5_PCCPE30_ImplicitlyMoveConvertiblePairISE_SF_EEEbE4typeELb1EEEOSE_OSF_ = comdat any

$_ZNSt10shared_ptrIKN19OpenColorIO_v2_4dev15GradingRGBCurveEED2Ev = comdat any

$_ZNKSt19__shared_ptr_accessIN19OpenColorIO_v2_4dev34DynamicPropertyGradingRGBCurveImplELN9__gnu_cxx12_Lock_policyE2ELb0ELb0EEptEv = comdat any

$_ZNSt10shared_ptrIKN19OpenColorIO_v2_4dev15GradingRGBCurveEEC2ERKS3_ = comdat any

$_ZNKSt19__shared_ptr_accessIN19OpenColorIO_v2_4dev34DynamicPropertyGradingRGBCurveImplELN9__gnu_cxx12_Lock_policyE2ELb0ELb0EE6_M_getEv = comdat any

$_ZNKSt12__shared_ptrIN19OpenColorIO_v2_4dev34DynamicPropertyGradingRGBCurveImplELN9__gnu_cxx12_Lock_policyE2EE3getEv = comdat any

$_ZNSt12__shared_ptrIKN19OpenColorIO_v2_4dev15GradingRGBCurveELN9__gnu_cxx12_Lock_policyE2EEC2ERKS5_ = comdat any

$_ZNSt15__new_allocatorIPKcEC2Ev = comdat any

$_ZNSt12_Vector_baseIPKcSaIS1_EEC2ERKS2_ = comdat any

$_ZNSt6vectorIPKcSaIS1_EE19_M_range_initializeIPKS1_EEvT_S7_St20forward_iterator_tag = comdat any

$_ZNKSt16initializer_listIPKcE5beginEv = comdat any

$_ZNKSt16initializer_listIPKcE3endEv = comdat any

$_ZNSt12_Vector_baseIPKcSaIS1_EED2Ev = comdat any

$_ZNSt12_Vector_baseIPKcSaIS1_EE12_Vector_implC2ERKS2_ = comdat any

$_ZNSt12_Vector_baseIPKcSaIS1_EE17_Vector_impl_dataC2Ev = comdat any

$_ZNSt15__new_allocatorIPKcEC2ERKS2_ = comdat any

$_ZSt8distanceIPKPKcENSt15iterator_traitsIT_E15difference_typeES5_S5_ = comdat any

$_ZNSt12_Vector_baseIPKcSaIS1_EE11_M_allocateEm = comdat any

$_ZNSt6vectorIPKcSaIS1_EE17_S_check_init_lenEmRKS2_ = comdat any

$_ZNSt12_Vector_baseIPKcSaIS1_EE19_M_get_Tp_allocatorEv = comdat any

$_ZSt22__uninitialized_copy_aIPKPKcPS1_S1_ET0_T_S6_S5_RSaIT1_E = comdat any

$_ZSt10__distanceIPKPKcENSt15iterator_traitsIT_E15difference_typeES5_S5_St26random_access_iterator_tag = comdat any

$_ZSt19__iterator_categoryIPKPKcENSt15iterator_traitsIT_E17iterator_categoryERKS5_ = comdat any

$_ZNSt16allocator_traitsISaIPKcEE8allocateERS2_m = comdat any

$_ZNSt15__new_allocatorIPKcE8allocateEmPKv = comdat any

$_ZNKSt15__new_allocatorIPKcE11_M_max_sizeEv = comdat any

$_ZNSt6vectorIPKcSaIS1_EE11_S_max_sizeERKS2_ = comdat any

$_ZNSaIPKcEC2ERKS1_ = comdat any

$_ZNSt16allocator_traitsISaIPKcEE8max_sizeERKS2_ = comdat any

$_ZSt3minImERKT_S2_S2_ = comdat any

$_ZNKSt15__new_allocatorIPKcE8max_sizeEv = comdat any

$_ZSt18uninitialized_copyIPKPKcPS1_ET0_T_S6_S5_ = comdat any

$_ZNSt20__uninitialized_copyILb1EE13__uninit_copyIPKPKcPS3_EET0_T_S8_S7_ = comdat any

$_ZSt4copyIPKPKcPS1_ET0_T_S6_S5_ = comdat any

$_ZSt13__copy_move_aILb0EPKPKcPS1_ET1_T0_S6_S5_ = comdat any

$_ZSt12__miter_baseIPKPKcET_S4_ = comdat any

$_ZSt12__niter_wrapIPPKcET_RKS3_S3_ = comdat any

$_ZSt14__copy_move_a1ILb0EPKPKcPS1_ET1_T0_S6_S5_ = comdat any

$_ZSt12__niter_baseIPKPKcET_S4_ = comdat any

$_ZSt12__niter_baseIPPKcET_S3_ = comdat any

$_ZSt14__copy_move_a2ILb0EPKPKcPS1_ET1_T0_S6_S5_ = comdat any

$_ZNSt11__copy_moveILb0ELb1ESt26random_access_iterator_tagE8__copy_mIPKcEEPT_PKS5_S8_S6_ = comdat any

$_ZNKSt16initializer_listIPKcE4sizeEv = comdat any

$_ZNSt12_Vector_baseIPKcSaIS1_EE13_M_deallocateEPS1_m = comdat any

$_ZNSt12_Vector_baseIPKcSaIS1_EE12_Vector_implD2Ev = comdat any

$_ZNSt16allocator_traitsISaIPKcEE10deallocateERS2_PS1_m = comdat any

$_ZNSt15__new_allocatorIPKcE10deallocateEPS1_m = comdat any

$_ZNSt15__new_allocatorIPKcED2Ev = comdat any

$_ZSt8_DestroyIPPKcS1_EvT_S3_RSaIT0_E = comdat any

$_ZSt8_DestroyIPPKcEvT_S3_ = comdat any

$_ZNSt12_Destroy_auxILb1EE9__destroyIPPKcEEvT_S5_ = comdat any

$_ZNKSt19__shared_ptr_accessIKN19OpenColorIO_v2_4dev15GradingRGBCurveELN9__gnu_cxx12_Lock_policyE2ELb0ELb0EE6_M_getEv = comdat any

$_ZNKSt12__shared_ptrIKN19OpenColorIO_v2_4dev15GradingRGBCurveELN9__gnu_cxx12_Lock_policyE2EE3getEv = comdat any

$_ZNKSt19__shared_ptr_accessIKN19OpenColorIO_v2_4dev19GradingBSplineCurveELN9__gnu_cxx12_Lock_policyE2ELb0ELb0EE6_M_getEv = comdat any

$_ZNKSt12__shared_ptrIKN19OpenColorIO_v2_4dev19GradingBSplineCurveELN9__gnu_cxx12_Lock_policyE2EE3getEv = comdat any

$_ZNSt8ios_base5widthEl = comdat any

$_ZNSt12__shared_ptrIKN19OpenColorIO_v2_4dev19GradingBSplineCurveELN9__gnu_cxx12_Lock_policyE2EED2Ev = comdat any

$_ZNSt12__shared_ptrIKN19OpenColorIO_v2_4dev15GradingRGBCurveELN9__gnu_cxx12_Lock_policyE2EED2Ev = comdat any

$_ZNSt12__shared_ptrIKN19OpenColorIO_v2_4dev21GradingRGBCurveOpDataELN9__gnu_cxx12_Lock_policyE2EED2Ev = comdat any

$_ZNSt12__shared_ptrIKN19OpenColorIO_v2_4dev17GradingToneOpDataELN9__gnu_cxx12_Lock_policyE2EEC2ERKS5_ = comdat any

$_ZNSt10shared_ptrIKN19OpenColorIO_v2_4dev6OpDataEEC2IKNS0_17GradingToneOpDataEvEERKS_IT_E = comdat any

$_ZNSt12__shared_ptrIKN19OpenColorIO_v2_4dev6OpDataELN9__gnu_cxx12_Lock_policyE2EEC2IKNS0_17GradingToneOpDataEvEERKS_IT_LS4_2EE = comdat any

$_ZNKSt19__shared_ptr_accessIKN19OpenColorIO_v2_4dev17GradingToneOpDataELN9__gnu_cxx12_Lock_policyE2ELb0ELb0EEptEv = comdat any

$_ZNK19OpenColorIO_v2_4dev17GradingToneOpData8getStyleEv = comdat any

$_ZNKSt19__shared_ptr_accessIKN19OpenColorIO_v2_4dev17GradingToneOpDataELN9__gnu_cxx12_Lock_policyE2ELb0ELb0EE6_M_getEv = comdat any

$_ZNKSt12__shared_ptrIKN19OpenColorIO_v2_4dev17GradingToneOpDataELN9__gnu_cxx12_Lock_policyE2EE3getEv = comdat any

$_ZNK19OpenColorIO_v2_4dev17GradingToneOpData8getValueEv = comdat any

$_ZN19OpenColorIO_v2_4dev11GradingToneC2ENS_12GradingStyleE = comdat any

$_ZNSt4pairINSt7__cxx1112basic_stringIcSt11char_traitsIcESaIcEEES5_EC2IRA6_KcRA5_S8_TnNSt9enable_ifIXaaclsr5_PCCPE22_MoveConstructiblePairIT_T0_EEclsr5_PCCPE30_ImplicitlyMoveConvertiblePairISE_SF_EEEbE4typeELb1EEEOSE_OSF_ = comdat any

$_ZNKSt19__shared_ptr_accessIN19OpenColorIO_v2_4dev30DynamicPropertyGradingToneImplELN9__gnu_cxx12_Lock_policyE2ELb0ELb0EEptEv = comdat any

$_ZNKSt19__shared_ptr_accessIN19OpenColorIO_v2_4dev30DynamicPropertyGradingToneImplELN9__gnu_cxx12_Lock_policyE2ELb0ELb0EE6_M_getEv = comdat any

$_ZNKSt12__shared_ptrIN19OpenColorIO_v2_4dev30DynamicPropertyGradingToneImplELN9__gnu_cxx12_Lock_policyE2EE3getEv = comdat any

$_ZN19OpenColorIO_v2_4dev13GradingRGBMSWC2Edd = comdat any

$_ZNSt12__shared_ptrIKN19OpenColorIO_v2_4dev17GradingToneOpDataELN9__gnu_cxx12_Lock_policyE2EED2Ev = comdat any

$_ZNSt12__shared_ptrIKN19OpenColorIO_v2_4dev9LogOpDataELN9__gnu_cxx12_Lock_policyE2EEC2ERKS5_ = comdat any

$_ZNSt10shared_ptrIKN19OpenColorIO_v2_4dev6OpDataEEC2IKNS0_9LogOpDataEvEERKS_IT_E = comdat any

$_ZNSt12__shared_ptrIKN19OpenColorIO_v2_4dev6OpDataELN9__gnu_cxx12_Lock_policyE2EEC2IKNS0_9LogOpDataEvEERKS_IT_LS4_2EE = comdat any

$_ZNKSt19__shared_ptr_accessIKN19OpenColorIO_v2_4dev9LogOpDataELN9__gnu_cxx12_Lock_policyE2ELb0ELb0EEptEv = comdat any

$_ZNK19OpenColorIO_v2_4dev9LogOpData12getDirectionEv = comdat any

$_ZNSt4pairINSt7__cxx1112basic_stringIcSt11char_traitsIcESaIcEEES5_EC2IRA6_KcRS5_TnNSt9enable_ifIXaaclsr5_PCCPE22_MoveConstructiblePairIT_T0_EEclsr5_PCCPE30_ImplicitlyMoveConvertiblePairISD_SE_EEEbE4typeELb1EEEOSD_OSE_ = comdat any

$_ZNKSt19__shared_ptr_accessIKN19OpenColorIO_v2_4dev9LogOpDataELN9__gnu_cxx12_Lock_policyE2ELb0ELb0EE6_M_getEv = comdat any

$_ZNKSt12__shared_ptrIKN19OpenColorIO_v2_4dev9LogOpDataELN9__gnu_cxx12_Lock_policyE2EE3getEv = comdat any

$_ZNK19OpenColorIO_v2_4dev9LogOpData12getRedParamsEv = comdat any

$_ZNK19OpenColorIO_v2_4dev9LogOpData14getGreenParamsEv = comdat any

$_ZNK19OpenColorIO_v2_4dev9LogOpData13getBlueParamsEv = comdat any

$_ZNSt12__shared_ptrIKN19OpenColorIO_v2_4dev9LogOpDataELN9__gnu_cxx12_Lock_policyE2EED2Ev = comdat any

$_ZNSt12__shared_ptrIKN19OpenColorIO_v2_4dev11Lut1DOpDataELN9__gnu_cxx12_Lock_policyE2EEC2ERKS5_ = comdat any

$_ZNSt10shared_ptrIKN19OpenColorIO_v2_4dev6OpDataEEC2IKNS0_11Lut1DOpDataEvEERKS_IT_E = comdat any

$_ZNSt12__shared_ptrIKN19OpenColorIO_v2_4dev6OpDataELN9__gnu_cxx12_Lock_policyE2EEC2IKNS0_11Lut1DOpDataEvEERKS_IT_LS4_2EE = comdat any

$_ZNK19OpenColorIO_v2_4dev11Lut1DOpData16getInterpolationEv = comdat any

$_ZNSt4pairINSt7__cxx1112basic_stringIcSt11char_traitsIcESaIcEEES5_EC2IRA14_KcRPS8_TnNSt9enable_ifIXaaclsr5_PCCPE22_MoveConstructiblePairIT_T0_EEclsr5_PCCPE30_ImplicitlyMoveConvertiblePairISE_SF_EEEbE4typeELb1EEEOSE_OSF_ = comdat any

$_ZNSt4pairINSt7__cxx1112basic_stringIcSt11char_traitsIcESaIcEEES5_EC2IRA11_KcRA5_S8_TnNSt9enable_ifIXaaclsr5_PCCPE22_MoveConstructiblePairIT_T0_EEclsr5_PCCPE30_ImplicitlyMoveConvertiblePairISE_SF_EEEbE4typeELb1EEEOSE_OSF_ = comdat any

$_ZNK19OpenColorIO_v2_4dev11Lut1DOpData16isOutputRawHalfsEv = comdat any

$_ZNSt4pairINSt7__cxx1112basic_stringIcSt11char_traitsIcESaIcEEES5_EC2IRA9_KcRA5_S8_TnNSt9enable_ifIXaaclsr5_PCCPE22_MoveConstructiblePairIT_T0_EEclsr5_PCCPE30_ImplicitlyMoveConvertiblePairISE_SF_EEEbE4typeELb1EEEOSE_OSF_ = comdat any

$_ZNSt4pairINSt7__cxx1112basic_stringIcSt11char_traitsIcESaIcEEES5_EC2IRA10_KcRA4_S8_TnNSt9enable_ifIXaaclsr5_PCCPE22_MoveConstructiblePairIT_T0_EEclsr5_PCCPE30_ImplicitlyMoveConvertiblePairISE_SF_EEEbE4typeELb1EEEOSE_OSF_ = comdat any

$_ZNK19OpenColorIO_v2_4dev11Lut1DOpData8getArrayEv = comdat any

$_ZNSt6vectorIjSaIjEEC2Ev = comdat any

$_ZNSt6vectorIjSaIjEE6resizeEm = comdat any

$_ZNK19OpenColorIO_v2_4dev6ArrayTIfE9getValuesEv = comdat any

$_ZNKSt6vectorIfSaIfEEixEm = comdat any

$_ZN9Imath_3_14halfC2Ef = comdat any

$_ZNK9Imath_3_14half4bitsEv = comdat any

$_ZNSt6vectorIjSaIjEEixEm = comdat any

$_ZNSt6vectorIjSaIjEE5beginEv = comdat any

$_ZNSt6vectorIjSaIjEE3endEv = comdat any

$_ZNSt6vectorIjSaIjEED2Ev = comdat any

$_ZNKSt6vectorIfSaIfEE5beginEv = comdat any

$_ZNKSt6vectorIfSaIfEE3endEv = comdat any

$_ZNSt12_Vector_baseIjSaIjEEC2Ev = comdat any

$_ZNSt12_Vector_baseIjSaIjEE12_Vector_implC2Ev = comdat any

$_ZNSaIjEC2Ev = comdat any

$_ZNSt12_Vector_baseIjSaIjEE17_Vector_impl_dataC2Ev = comdat any

$_ZNSt15__new_allocatorIjEC2Ev = comdat any

$_ZNKSt6vectorIjSaIjEE4sizeEv = comdat any

$_ZNSt6vectorIjSaIjEE17_M_default_appendEm = comdat any

$_ZNSt6vectorIjSaIjEE15_M_erase_at_endEPj = comdat any

$_ZNKSt6vectorIjSaIjEE8max_sizeEv = comdat any

$_ZSt27__uninitialized_default_n_aIPjmjET_S1_T0_RSaIT1_E = comdat any

$_ZNSt12_Vector_baseIjSaIjEE19_M_get_Tp_allocatorEv = comdat any

$_ZNKSt6vectorIjSaIjEE12_M_check_lenEmPKc = comdat any

$_ZNSt12_Vector_baseIjSaIjEE11_M_allocateEm = comdat any

$_ZNSt12_Vector_baseIjSaIjEE13_M_deallocateEPjm = comdat any

$_ZNSt6vectorIjSaIjEE11_S_relocateEPjS2_S2_RS0_ = comdat any

$_ZNSt6vectorIjSaIjEE11_S_max_sizeERKS0_ = comdat any

$_ZNKSt12_Vector_baseIjSaIjEE19_M_get_Tp_allocatorEv = comdat any

$_ZNSt16allocator_traitsISaIjEE8max_sizeERKS0_ = comdat any

$_ZNKSt15__new_allocatorIjE8max_sizeEv = comdat any

$_ZNKSt15__new_allocatorIjE11_M_max_sizeEv = comdat any

$_ZSt25__uninitialized_default_nIPjmET_S1_T0_ = comdat any

$_ZNSt27__uninitialized_default_n_1ILb1EE18__uninit_default_nIPjmEET_S3_T0_ = comdat any

$_ZSt10_ConstructIjJEEvPT_DpOT0_ = comdat any

$_ZSt6fill_nIPjmjET_S1_T0_RKT1_ = comdat any

$_ZSt10__fill_n_aIPjmjET_S1_T0_RKT1_St26random_access_iterator_tag = comdat any

$_ZSt17__size_to_integerm = comdat any

$_ZSt19__iterator_categoryIPjENSt15iterator_traitsIT_E17iterator_categoryERKS2_ = comdat any

$_ZSt8__fill_aIPjjEvT_S1_RKT0_ = comdat any

$_ZSt9__fill_a1IPjjEN9__gnu_cxx11__enable_ifIXsr11__is_scalarIT0_EE7__valueEvE6__typeET_S6_RKS3_ = comdat any

$_ZSt3maxImERKT_S2_S2_ = comdat any

$_ZNSt16allocator_traitsISaIjEE8allocateERS0_m = comdat any

$_ZNSt15__new_allocatorIjE8allocateEmPKv = comdat any

$_ZNSt16allocator_traitsISaIjEE10deallocateERS0_Pjm = comdat any

$_ZNSt15__new_allocatorIjE10deallocateEPjm = comdat any

$_ZNSt6vectorIjSaIjEE14_S_do_relocateEPjS2_S2_RS0_St17integral_constantIbLb1EE = comdat any

$_ZSt12__relocate_aIPjS0_SaIjEET0_T_S3_S2_RT1_ = comdat any

$_ZSt14__relocate_a_1IjjENSt9enable_ifIXsr3std24__is_bitwise_relocatableIT_EE5valueEPS1_E4typeES2_S2_S2_RSaIT0_E = comdat any

$_ZSt12__niter_baseIPjET_S1_ = comdat any

$_ZSt8_DestroyIPjjEvT_S1_RSaIT0_E = comdat any

$_ZSt8_DestroyIPjEvT_S1_ = comdat any

$_ZNSt12_Destroy_auxILb1EE9__destroyIPjEEvT_S3_ = comdat any

$_ZNK9__gnu_cxx17__normal_iteratorIPjSt6vectorIjSaIjEEEdeEv = comdat any

$_ZN9__gnu_cxxneIPjSt6vectorIjSaIjEEEEbRKNS_17__normal_iteratorIT_T0_EESA_ = comdat any

$_ZNKSt8ios_base5widthEv = comdat any

$_ZSt8distanceIN9__gnu_cxx17__normal_iteratorIPjSt6vectorIjSaIjEEEEENSt15iterator_traitsIT_E15difference_typeES8_S8_ = comdat any

$_ZN9__gnu_cxx17__normal_iteratorIPjSt6vectorIjSaIjEEEpLEl = comdat any

$_ZNK9__gnu_cxx17__normal_iteratorIPjSt6vectorIjSaIjEEE4baseEv = comdat any

$_ZN19OpenColorIO_v2_4dev5IsNanIfEEbT_ = comdat any

$_ZNSt14numeric_limitsIfE8infinityEv = comdat any

$_ZSt5isnanf = comdat any

$_ZSt10__distanceIN9__gnu_cxx17__normal_iteratorIPjSt6vectorIjSaIjEEEEENSt15iterator_traitsIT_E15difference_typeES8_S8_St26random_access_iterator_tag = comdat any

$_ZSt19__iterator_categoryIN9__gnu_cxx17__normal_iteratorIPjSt6vectorIjSaIjEEEEENSt15iterator_traitsIT_E17iterator_categoryERKS8_ = comdat any

$_ZN9__gnu_cxxmiIPjSt6vectorIjSaIjEEEENS_17__normal_iteratorIT_T0_E15difference_typeERKS8_SB_ = comdat any

$_ZN9__gnu_cxx17__normal_iteratorIPjSt6vectorIjSaIjEEEC2ERKS1_ = comdat any

$_ZNSt12_Vector_baseIjSaIjEED2Ev = comdat any

$_ZNSt12_Vector_baseIjSaIjEE12_Vector_implD2Ev = comdat any

$_ZNSaIjED2Ev = comdat any

$_ZNSt15__new_allocatorIjED2Ev = comdat any

$_ZNK9__gnu_cxx17__normal_iteratorIPKfSt6vectorIfSaIfEEEdeEv = comdat any

$_ZN9__gnu_cxxneIPKfSt6vectorIfSaIfEEEEbRKNS_17__normal_iteratorIT_T0_EESB_ = comdat any

$_ZSt8distanceIN9__gnu_cxx17__normal_iteratorIPKfSt6vectorIfSaIfEEEEENSt15iterator_traitsIT_E15difference_typeES9_S9_ = comdat any

$_ZN9__gnu_cxx17__normal_iteratorIPKfSt6vectorIfSaIfEEEpLEl = comdat any

$_ZNK9__gnu_cxx17__normal_iteratorIPKfSt6vectorIfSaIfEEE4baseEv = comdat any

$_ZSt10__distanceIN9__gnu_cxx17__normal_iteratorIPKfSt6vectorIfSaIfEEEEENSt15iterator_traitsIT_E15difference_typeES9_S9_St26random_access_iterator_tag = comdat any

$_ZSt19__iterator_categoryIN9__gnu_cxx17__normal_iteratorIPKfSt6vectorIfSaIfEEEEENSt15iterator_traitsIT_E17iterator_categoryERKS9_ = comdat any

$_ZN9__gnu_cxxmiIPKfSt6vectorIfSaIfEEEENS_17__normal_iteratorIT_T0_E15difference_typeERKS9_SC_ = comdat any

$_ZN9__gnu_cxx17__normal_iteratorIPKfSt6vectorIfSaIfEEEC2ERKS2_ = comdat any

$_ZNSt12__shared_ptrIKN19OpenColorIO_v2_4dev11Lut1DOpDataELN9__gnu_cxx12_Lock_policyE2EED2Ev = comdat any

$_ZNSt12__shared_ptrIKN19OpenColorIO_v2_4dev11Lut3DOpDataELN9__gnu_cxx12_Lock_policyE2EEC2ERKS5_ = comdat any

$_ZNSt10shared_ptrIKN19OpenColorIO_v2_4dev6OpDataEEC2IKNS0_11Lut3DOpDataEvEERKS_IT_E = comdat any

$_ZNSt12__shared_ptrIKN19OpenColorIO_v2_4dev6OpDataELN9__gnu_cxx12_Lock_policyE2EEC2IKNS0_11Lut3DOpDataEvEERKS_IT_LS4_2EE = comdat any

$_ZNK19OpenColorIO_v2_4dev11Lut3DOpData16getInterpolationEv = comdat any

$_ZNK19OpenColorIO_v2_4dev11Lut3DOpData8getArrayEv = comdat any

$_ZNSt12__shared_ptrIKN19OpenColorIO_v2_4dev11Lut3DOpDataELN9__gnu_cxx12_Lock_policyE2EED2Ev = comdat any

$_ZNSt10shared_ptrIKN19OpenColorIO_v2_4dev12MatrixOpDataEEC2ERKS3_ = comdat any

$_ZNSt12__shared_ptrIKN19OpenColorIO_v2_4dev12MatrixOpDataELN9__gnu_cxx12_Lock_policyE2EEC2ERKS5_ = comdat any

$_ZNSt10shared_ptrIKN19OpenColorIO_v2_4dev6OpDataEEC2IKNS0_12MatrixOpDataEvEERKS_IT_E = comdat any

$_ZNSt12__shared_ptrIKN19OpenColorIO_v2_4dev6OpDataELN9__gnu_cxx12_Lock_policyE2EEC2IKNS0_12MatrixOpDataEvEERKS_IT_LS4_2EE = comdat any

$_ZNK19OpenColorIO_v2_4dev12MatrixOpData12getDirectionEv = comdat any

$_ZNSt10shared_ptrIKN19OpenColorIO_v2_4dev12MatrixOpDataEEaSIS1_EENSt9enable_ifIXsr13is_assignableIRSt12__shared_ptrIS2_LN9__gnu_cxx12_Lock_policyE2EES_IT_EEE5valueERS3_E4typeEOSC_ = comdat any

$_ZNK19OpenColorIO_v2_4dev12MatrixOpData10hasOffsetsEv = comdat any

$_ZNK19OpenColorIO_v2_4dev12MatrixOpData8getArrayEv = comdat any

$_ZNK19OpenColorIO_v2_4dev6ArrayTIdE9getValuesEv = comdat any

$_ZNK19OpenColorIO_v2_4dev12MatrixOpData10getOffsetsEv = comdat any

$_ZNK19OpenColorIO_v2_4dev12MatrixOpData7OffsetsixEm = comdat any

$_ZNSt12__shared_ptrIKN19OpenColorIO_v2_4dev12MatrixOpDataELN9__gnu_cxx12_Lock_policyE2EEaSIS1_EENSt9enable_ifIXsr20__sp_compatible_withIPT_PS2_EE5valueERS5_E4typeEOS_IS8_LS4_2EE = comdat any

$_ZNSt12__shared_ptrIKN19OpenColorIO_v2_4dev12MatrixOpDataELN9__gnu_cxx12_Lock_policyE2EEC2IS1_vEEOS_IT_LS4_2EE = comdat any

$_ZNSt12__shared_ptrIKN19OpenColorIO_v2_4dev12MatrixOpDataELN9__gnu_cxx12_Lock_policyE2EE4swapERS5_ = comdat any

$_ZNSt12__shared_ptrIKN19OpenColorIO_v2_4dev12MatrixOpDataELN9__gnu_cxx12_Lock_policyE2EED2Ev = comdat any

$_ZNSt14__shared_countILN9__gnu_cxx12_Lock_policyE2EEC2Ev = comdat any

$_ZNSt14__shared_countILN9__gnu_cxx12_Lock_policyE2EE7_M_swapERS2_ = comdat any

$_ZSt4swapIPKN19OpenColorIO_v2_4dev12MatrixOpDataEENSt9enable_ifIXsr6__and_ISt6__not_ISt15__is_tuple_likeIT_EESt21is_move_constructibleIS7_ESt18is_move_assignableIS7_EEE5valueEvE4typeERS7_SG_ = comdat any

$_ZSt8distanceIPKdENSt15iterator_traitsIT_E15difference_typeES3_S3_ = comdat any

$_ZSt10__distanceIPKdENSt15iterator_traitsIT_E15difference_typeES3_S3_St26random_access_iterator_tag = comdat any

$_ZSt19__iterator_categoryIPKdENSt15iterator_traitsIT_E17iterator_categoryERKS3_ = comdat any

$_ZNSt12__shared_ptrIN19OpenColorIO_v2_4dev12MatrixOpDataELN9__gnu_cxx12_Lock_policyE2EED2Ev = comdat any

$_ZNSt10shared_ptrIKN19OpenColorIO_v2_4dev11RangeOpDataEEC2ERKS3_ = comdat any

$_ZNSt12__shared_ptrIKN19OpenColorIO_v2_4dev11RangeOpDataELN9__gnu_cxx12_Lock_policyE2EEC2ERKS5_ = comdat any

$_ZNSt10shared_ptrIKN19OpenColorIO_v2_4dev6OpDataEEC2IKNS0_11RangeOpDataEvEERKS_IT_E = comdat any

$_ZNSt12__shared_ptrIKN19OpenColorIO_v2_4dev6OpDataELN9__gnu_cxx12_Lock_policyE2EEC2IKNS0_11RangeOpDataEvEERKS_IT_LS4_2EE = comdat any

$_ZNK19OpenColorIO_v2_4dev11RangeOpData12getDirectionEv = comdat any

$_ZNSt10shared_ptrIKN19OpenColorIO_v2_4dev11RangeOpDataEEaSIS1_EENSt9enable_ifIXsr13is_assignableIRSt12__shared_ptrIS2_LN9__gnu_cxx12_Lock_policyE2EES_IT_EEE5valueERS3_E4typeEOSC_ = comdat any

$_ZNK19OpenColorIO_v2_4dev11RangeOpData13getMinInValueEv = comdat any

$_ZNK19OpenColorIO_v2_4dev11RangeOpData13getMaxInValueEv = comdat any

$_ZNK19OpenColorIO_v2_4dev11RangeOpData14getMinOutValueEv = comdat any

$_ZNK19OpenColorIO_v2_4dev11RangeOpData14getMaxOutValueEv = comdat any

$_ZNSt12__shared_ptrIKN19OpenColorIO_v2_4dev11RangeOpDataELN9__gnu_cxx12_Lock_policyE2EEaSIS1_EENSt9enable_ifIXsr20__sp_compatible_withIPT_PS2_EE5valueERS5_E4typeEOS_IS8_LS4_2EE = comdat any

$_ZNSt12__shared_ptrIKN19OpenColorIO_v2_4dev11RangeOpDataELN9__gnu_cxx12_Lock_policyE2EEC2IS1_vEEOS_IT_LS4_2EE = comdat any

$_ZNSt12__shared_ptrIKN19OpenColorIO_v2_4dev11RangeOpDataELN9__gnu_cxx12_Lock_policyE2EE4swapERS5_ = comdat any

$_ZNSt12__shared_ptrIKN19OpenColorIO_v2_4dev11RangeOpDataELN9__gnu_cxx12_Lock_policyE2EED2Ev = comdat any

$_ZSt4swapIPKN19OpenColorIO_v2_4dev11RangeOpDataEENSt9enable_ifIXsr6__and_ISt6__not_ISt15__is_tuple_likeIT_EESt21is_move_constructibleIS7_ESt18is_move_assignableIS7_EEE5valueEvE4typeERS7_SG_ = comdat any

$_ZStplIcSt11char_traitsIcESaIcEENSt7__cxx1112basic_stringIT_T0_T1_EEOS8_S5_ = comdat any

$_ZStplIcSt11char_traitsIcESaIcEENSt7__cxx1112basic_stringIT_T0_T1_EES5_OS8_ = comdat any

$_ZNSt12__shared_ptrIN19OpenColorIO_v2_4dev11RangeOpDataELN9__gnu_cxx12_Lock_policyE2EED2Ev = comdat any

$_ZNSt12_Vector_baseINSt7__cxx1112basic_stringIcSt11char_traitsIcESaIcEEESaIS5_EED2Ev = comdat any

$_ZNSt12_Vector_baseINSt7__cxx1112basic_stringIcSt11char_traitsIcESaIcEEESaIS5_EE13_M_deallocateEPS5_m = comdat any

$_ZNSt12_Vector_baseINSt7__cxx1112basic_stringIcSt11char_traitsIcESaIcEEESaIS5_EE12_Vector_implD2Ev = comdat any

$_ZNSt16allocator_traitsISaINSt7__cxx1112basic_stringIcSt11char_traitsIcESaIcEEEEE10deallocateERS6_PS5_m = comdat any

$_ZNSt15__new_allocatorINSt7__cxx1112basic_stringIcSt11char_traitsIcESaIcEEEE10deallocateEPS5_m = comdat any

$_ZNSaINSt7__cxx1112basic_stringIcSt11char_traitsIcESaIcEEEED2Ev = comdat any

$_ZNSt15__new_allocatorINSt7__cxx1112basic_stringIcSt11char_traitsIcESaIcEEEED2Ev = comdat any

$_ZNSt6vectorINSt7__cxx1112basic_stringIcSt11char_traitsIcESaIcEEESaIS5_EE12emplace_backIJS5_EEEvDpOT_ = comdat any

$_ZNSt16allocator_traitsISaINSt7__cxx1112basic_stringIcSt11char_traitsIcESaIcEEEEE9constructIS5_JS5_EEEvRS6_PT_DpOT0_ = comdat any

$_ZNSt6vectorINSt7__cxx1112basic_stringIcSt11char_traitsIcESaIcEEESaIS5_EE17_M_realloc_insertIJS5_EEEvN9__gnu_cxx17__normal_iteratorIPS5_S7_EEDpOT_ = comdat any

$_ZNSt6vectorINSt7__cxx1112basic_stringIcSt11char_traitsIcESaIcEEESaIS5_EE3endEv = comdat any

$_ZNSt15__new_allocatorINSt7__cxx1112basic_stringIcSt11char_traitsIcESaIcEEEE9constructIS5_JS5_EEEvPT_DpOT0_ = comdat any

$_ZNKSt6vectorINSt7__cxx1112basic_stringIcSt11char_traitsIcESaIcEEESaIS5_EE12_M_check_lenEmPKc = comdat any

$_ZN9__gnu_cxxmiIPNSt7__cxx1112basic_stringIcSt11char_traitsIcESaIcEEESt6vectorIS6_SaIS6_EEEENS_17__normal_iteratorIT_T0_E15difference_typeERKSE_SH_ = comdat any

$_ZNSt6vectorINSt7__cxx1112basic_stringIcSt11char_traitsIcESaIcEEESaIS5_EE5beginEv = comdat any

$_ZNSt12_Vector_baseINSt7__cxx1112basic_stringIcSt11char_traitsIcESaIcEEESaIS5_EE11_M_allocateEm = comdat any

$_ZNSt6vectorINSt7__cxx1112basic_stringIcSt11char_traitsIcESaIcEEESaIS5_EE11_S_relocateEPS5_S8_S8_RS6_ = comdat any

$_ZNK9__gnu_cxx17__normal_iteratorIPNSt7__cxx1112basic_stringIcSt11char_traitsIcESaIcEEESt6vectorIS6_SaIS6_EEE4baseEv = comdat any

$_ZNKSt6vectorINSt7__cxx1112basic_stringIcSt11char_traitsIcESaIcEEESaIS5_EE8max_sizeEv = comdat any

$_ZNKSt6vectorINSt7__cxx1112basic_stringIcSt11char_traitsIcESaIcEEESaIS5_EE4sizeEv = comdat any

$_ZNSt6vectorINSt7__cxx1112basic_stringIcSt11char_traitsIcESaIcEEESaIS5_EE11_S_max_sizeERKS6_ = comdat any

$_ZNKSt12_Vector_baseINSt7__cxx1112basic_stringIcSt11char_traitsIcESaIcEEESaIS5_EE19_M_get_Tp_allocatorEv = comdat any

$_ZNSt16allocator_traitsISaINSt7__cxx1112basic_stringIcSt11char_traitsIcESaIcEEEEE8max_sizeERKS6_ = comdat any

$_ZNKSt15__new_allocatorINSt7__cxx1112basic_stringIcSt11char_traitsIcESaIcEEEE8max_sizeEv = comdat any

$_ZNKSt15__new_allocatorINSt7__cxx1112basic_stringIcSt11char_traitsIcESaIcEEEE11_M_max_sizeEv = comdat any

$_ZN9__gnu_cxx17__normal_iteratorIPNSt7__cxx1112basic_stringIcSt11char_traitsIcESaIcEEESt6vectorIS6_SaIS6_EEEC2ERKS7_ = comdat any

$_ZNSt16allocator_traitsISaINSt7__cxx1112basic_stringIcSt11char_traitsIcESaIcEEEEE8allocateERS6_m = comdat any

$_ZNSt15__new_allocatorINSt7__cxx1112basic_stringIcSt11char_traitsIcESaIcEEEE8allocateEmPKv = comdat any

$_ZNSt6vectorINSt7__cxx1112basic_stringIcSt11char_traitsIcESaIcEEESaIS5_EE14_S_do_relocateEPS5_S8_S8_RS6_St17integral_constantIbLb1EE = comdat any

$_ZSt12__relocate_aIPNSt7__cxx1112basic_stringIcSt11char_traitsIcESaIcEEES6_SaIS5_EET0_T_S9_S8_RT1_ = comdat any

$_ZSt14__relocate_a_1IPNSt7__cxx1112basic_stringIcSt11char_traitsIcESaIcEEES6_SaIS5_EET0_T_S9_S8_RT1_ = comdat any

$_ZSt12__niter_baseIPNSt7__cxx1112basic_stringIcSt11char_traitsIcESaIcEEEET_S7_ = comdat any

$_ZSt19__relocate_object_aINSt7__cxx1112basic_stringIcSt11char_traitsIcESaIcEEES5_SaIS5_EEvPT_PT0_RT1_ = comdat any

$_ZNSt16allocator_traitsISaINSt7__cxx1112basic_stringIcSt11char_traitsIcESaIcEEEEE7destroyIS5_EEvRS6_PT_ = comdat any

$_ZNSt15__new_allocatorINSt7__cxx1112basic_stringIcSt11char_traitsIcESaIcEEEE7destroyIS5_EEvPT_ = comdat any

$_ZN9__gnu_cxx17__normal_iteratorIPKNSt7__cxx1112basic_stringIcSt11char_traitsIcESaIcEEESt6vectorIS6_SaIS6_EEEC2ERKS8_ = comdat any

$_ZNK9__gnu_cxx17__normal_iteratorIPKNSt7__cxx1112basic_stringIcSt11char_traitsIcESaIcEEESt6vectorIS6_SaIS6_EEE4baseEv = comdat any

$_ZSt8_DestroyIPSt10shared_ptrIKN19OpenColorIO_v2_4dev6OpDataEES4_EvT_S6_RSaIT0_E = comdat any

$_ZNSt12_Vector_baseISt10shared_ptrIKN19OpenColorIO_v2_4dev6OpDataEESaIS4_EE19_M_get_Tp_allocatorEv = comdat any

$_ZNSt12_Vector_baseISt10shared_ptrIKN19OpenColorIO_v2_4dev6OpDataEESaIS4_EED2Ev = comdat any

$_ZSt8_DestroyIPSt10shared_ptrIKN19OpenColorIO_v2_4dev6OpDataEEEvT_S6_ = comdat any

$_ZNSt12_Destroy_auxILb0EE9__destroyIPSt10shared_ptrIKN19OpenColorIO_v2_4dev6OpDataEEEEvT_S8_ = comdat any

$_ZSt8_DestroyISt10shared_ptrIKN19OpenColorIO_v2_4dev6OpDataEEEvPT_ = comdat any

$_ZNSt12_Vector_baseISt10shared_ptrIKN19OpenColorIO_v2_4dev6OpDataEESaIS4_EE13_M_deallocateEPS4_m = comdat any

$_ZNSt12_Vector_baseISt10shared_ptrIKN19OpenColorIO_v2_4dev6OpDataEESaIS4_EE12_Vector_implD2Ev = comdat any

$_ZNSt16allocator_traitsISaISt10shared_ptrIKN19OpenColorIO_v2_4dev6OpDataEEEE10deallocateERS5_PS4_m = comdat any

$_ZNSt15__new_allocatorISt10shared_ptrIKN19OpenColorIO_v2_4dev6OpDataEEE10deallocateEPS4_m = comdat any

$_ZNSaISt10shared_ptrIKN19OpenColorIO_v2_4dev6OpDataEEED2Ev = comdat any

$_ZNSt15__new_allocatorISt10shared_ptrIKN19OpenColorIO_v2_4dev6OpDataEEED2Ev = comdat any

$_ZNSt15__new_allocatorIdEC2Ev = comdat any

$_ZNSt12_Vector_baseIdSaIdEEC2ERKS0_ = comdat any

$_ZNSt6vectorIdSaIdEE19_M_range_initializeIPKdEEvT_S5_St20forward_iterator_tag = comdat any

$_ZNKSt16initializer_listIdE5beginEv = comdat any

$_ZNKSt16initializer_listIdE3endEv = comdat any

$_ZNSt6vectorIdSaIdEE17_S_check_init_lenEmRKS0_ = comdat any

$_ZSt22__uninitialized_copy_aIPKdPddET0_T_S4_S3_RSaIT1_E = comdat any

$_ZNSt6vectorIdSaIdEE11_S_max_sizeERKS0_ = comdat any

$_ZNSt16allocator_traitsISaIdEE8max_sizeERKS0_ = comdat any

$_ZNKSt15__new_allocatorIdE8max_sizeEv = comdat any

$_ZSt18uninitialized_copyIPKdPdET0_T_S4_S3_ = comdat any

$_ZNSt20__uninitialized_copyILb1EE13__uninit_copyIPKdPdEET0_T_S6_S5_ = comdat any

$_ZSt4copyIPKdPdET0_T_S4_S3_ = comdat any

$_ZSt13__copy_move_aILb0EPKdPdET1_T0_S4_S3_ = comdat any

$_ZSt12__miter_baseIPKdET_S2_ = comdat any

$_ZSt12__niter_baseIPKdET_S2_ = comdat any

$_ZNKSt16initializer_listIdE4sizeEv = comdat any

$_ZSt8_DestroyIPddEvT_S1_RSaIT0_E = comdat any

$_ZSt8_DestroyIPdEvT_S1_ = comdat any

$_ZNSt12_Destroy_auxILb1EE9__destroyIPdEEvT_S3_ = comdat any

$_ZNK9__gnu_cxx17__normal_iteratorIPKcNSt7__cxx1112basic_stringIcSt11char_traitsIcESaIcEEEE4baseEv = comdat any

$_ZNK9__gnu_cxx17__normal_iteratorIPKSt10shared_ptrIN19OpenColorIO_v2_4dev2OpEESt6vectorIS4_SaIS4_EEE4baseEv = comdat any

$_ZNSt12__shared_ptrIKN19OpenColorIO_v2_4dev2OpELN9__gnu_cxx12_Lock_policyE2EEC2IS1_vEERKS_IT_LS4_2EE = comdat any

$_ZNKSt19__shared_ptr_accessIKN19OpenColorIO_v2_4dev2OpELN9__gnu_cxx12_Lock_policyE2ELb0ELb0EE6_M_getEv = comdat any

$_ZNKSt12__shared_ptrIKN19OpenColorIO_v2_4dev2OpELN9__gnu_cxx12_Lock_policyE2EE3getEv = comdat any

$_ZNSt16allocator_traitsISaISt10shared_ptrIKN19OpenColorIO_v2_4dev6OpDataEEEE9constructIS4_JRKS4_EEEvRS5_PT_DpOT0_ = comdat any

$_ZNSt6vectorISt10shared_ptrIKN19OpenColorIO_v2_4dev6OpDataEESaIS4_EE17_M_realloc_insertIJRKS4_EEEvN9__gnu_cxx17__normal_iteratorIPS4_S6_EEDpOT_ = comdat any

$_ZNSt6vectorISt10shared_ptrIKN19OpenColorIO_v2_4dev6OpDataEESaIS4_EE3endEv = comdat any

$_ZNSt15__new_allocatorISt10shared_ptrIKN19OpenColorIO_v2_4dev6OpDataEEE9constructIS4_JRKS4_EEEvPT_DpOT0_ = comdat any

$_ZNKSt6vectorISt10shared_ptrIKN19OpenColorIO_v2_4dev6OpDataEESaIS4_EE12_M_check_lenEmPKc = comdat any

$_ZN9__gnu_cxxmiIPSt10shared_ptrIKN19OpenColorIO_v2_4dev6OpDataEESt6vectorIS5_SaIS5_EEEENS_17__normal_iteratorIT_T0_E15difference_typeERKSD_SG_ = comdat any

$_ZNSt6vectorISt10shared_ptrIKN19OpenColorIO_v2_4dev6OpDataEESaIS4_EE5beginEv = comdat any

$_ZNSt12_Vector_baseISt10shared_ptrIKN19OpenColorIO_v2_4dev6OpDataEESaIS4_EE11_M_allocateEm = comdat any

$_ZNSt6vectorISt10shared_ptrIKN19OpenColorIO_v2_4dev6OpDataEESaIS4_EE11_S_relocateEPS4_S7_S7_RS5_ = comdat any

$_ZNK9__gnu_cxx17__normal_iteratorIPSt10shared_ptrIKN19OpenColorIO_v2_4dev6OpDataEESt6vectorIS5_SaIS5_EEE4baseEv = comdat any

$_ZNKSt6vectorISt10shared_ptrIKN19OpenColorIO_v2_4dev6OpDataEESaIS4_EE8max_sizeEv = comdat any

$_ZNSt6vectorISt10shared_ptrIKN19OpenColorIO_v2_4dev6OpDataEESaIS4_EE11_S_max_sizeERKS5_ = comdat any

$_ZNKSt12_Vector_baseISt10shared_ptrIKN19OpenColorIO_v2_4dev6OpDataEESaIS4_EE19_M_get_Tp_allocatorEv = comdat any

$_ZNSt16allocator_traitsISaISt10shared_ptrIKN19OpenColorIO_v2_4dev6OpDataEEEE8max_sizeERKS5_ = comdat any

$_ZNKSt15__new_allocatorISt10shared_ptrIKN19OpenColorIO_v2_4dev6OpDataEEE8max_sizeEv = comdat any

$_ZNKSt15__new_allocatorISt10shared_ptrIKN19OpenColorIO_v2_4dev6OpDataEEE11_M_max_sizeEv = comdat any

$_ZN9__gnu_cxx17__normal_iteratorIPSt10shared_ptrIKN19OpenColorIO_v2_4dev6OpDataEESt6vectorIS5_SaIS5_EEEC2ERKS6_ = comdat any

$_ZNSt16allocator_traitsISaISt10shared_ptrIKN19OpenColorIO_v2_4dev6OpDataEEEE8allocateERS5_m = comdat any

$_ZNSt15__new_allocatorISt10shared_ptrIKN19OpenColorIO_v2_4dev6OpDataEEE8allocateEmPKv = comdat any

$_ZNSt6vectorISt10shared_ptrIKN19OpenColorIO_v2_4dev6OpDataEESaIS4_EE14_S_do_relocateEPS4_S7_S7_RS5_St17integral_constantIbLb1EE = comdat any

$_ZSt12__relocate_aIPSt10shared_ptrIKN19OpenColorIO_v2_4dev6OpDataEES5_SaIS4_EET0_T_S8_S7_RT1_ = comdat any

$_ZSt14__relocate_a_1IPSt10shared_ptrIKN19OpenColorIO_v2_4dev6OpDataEES5_SaIS4_EET0_T_S8_S7_RT1_ = comdat any

$_ZSt12__niter_baseIPSt10shared_ptrIKN19OpenColorIO_v2_4dev6OpDataEEET_S6_ = comdat any

$_ZSt19__relocate_object_aISt10shared_ptrIKN19OpenColorIO_v2_4dev6OpDataEES4_SaIS4_EEvPT_PT0_RT1_ = comdat any

$_ZNSt16allocator_traitsISaISt10shared_ptrIKN19OpenColorIO_v2_4dev6OpDataEEEE9constructIS4_JS4_EEEvRS5_PT_DpOT0_ = comdat any

$_ZNSt16allocator_traitsISaISt10shared_ptrIKN19OpenColorIO_v2_4dev6OpDataEEEE7destroyIS4_EEvRS5_PT_ = comdat any

$_ZNSt15__new_allocatorISt10shared_ptrIKN19OpenColorIO_v2_4dev6OpDataEEE9constructIS4_JS4_EEEvPT_DpOT0_ = comdat any

$_ZNSt10shared_ptrIKN19OpenColorIO_v2_4dev6OpDataEEC2EOS3_ = comdat any

$_ZNSt12__shared_ptrIKN19OpenColorIO_v2_4dev6OpDataELN9__gnu_cxx12_Lock_policyE2EEC2EOS5_ = comdat any

$_ZNSt15__new_allocatorISt10shared_ptrIKN19OpenColorIO_v2_4dev6OpDataEEE7destroyIS4_EEvPT_ = comdat any

$_ZN9__gnu_cxx17__normal_iteratorIPKN19OpenColorIO_v2_4dev18FormatMetadataImplESt6vectorIS2_SaIS2_EEEC2ERKS4_ = comdat any

$_ZNKSt19__shared_ptr_accessIKN19OpenColorIO_v2_4dev6OpDataELN9__gnu_cxx12_Lock_policyE2ELb0ELb0EE6_M_getEv = comdat any

$_ZNKSt12__shared_ptrIKN19OpenColorIO_v2_4dev6OpDataELN9__gnu_cxx12_Lock_policyE2EE3getEv = comdat any

$_ZNSt10shared_ptrIKN19OpenColorIO_v2_4dev22ExposureContrastOpDataEEC2IKNS0_6OpDataEEERKS_IT_EPS2_ = comdat any

$_ZNSt10shared_ptrIKN19OpenColorIO_v2_4dev22ExposureContrastOpDataEEC2Ev = comdat any

$_ZNSt12__shared_ptrIKN19OpenColorIO_v2_4dev22ExposureContrastOpDataELN9__gnu_cxx12_Lock_policyE2EEC2IKNS0_6OpDataEEERKS_IT_LS4_2EEPS2_ = comdat any

$_ZNSt12__shared_ptrIKN19OpenColorIO_v2_4dev22ExposureContrastOpDataELN9__gnu_cxx12_Lock_policyE2EEC2Ev = comdat any

$_ZNSt10shared_ptrIKN19OpenColorIO_v2_4dev19FixedFunctionOpDataEEC2IKNS0_6OpDataEEERKS_IT_EPS2_ = comdat any

$_ZNSt10shared_ptrIKN19OpenColorIO_v2_4dev19FixedFunctionOpDataEEC2Ev = comdat any

$_ZNSt12__shared_ptrIKN19OpenColorIO_v2_4dev19FixedFunctionOpDataELN9__gnu_cxx12_Lock_policyE2EEC2IKNS0_6OpDataEEERKS_IT_LS4_2EEPS2_ = comdat any

$_ZNSt12__shared_ptrIKN19OpenColorIO_v2_4dev19FixedFunctionOpDataELN9__gnu_cxx12_Lock_policyE2EEC2Ev = comdat any

$_ZNSt10shared_ptrIKN19OpenColorIO_v2_4dev14ExponentOpDataEEC2IKNS0_6OpDataEEERKS_IT_EPS2_ = comdat any

$_ZNSt10shared_ptrIKN19OpenColorIO_v2_4dev14ExponentOpDataEEC2Ev = comdat any

$_ZNSt12__shared_ptrIKN19OpenColorIO_v2_4dev14ExponentOpDataELN9__gnu_cxx12_Lock_policyE2EEC2IKNS0_6OpDataEEERKS_IT_LS4_2EEPS2_ = comdat any

$_ZNSt12__shared_ptrIKN19OpenColorIO_v2_4dev14ExponentOpDataELN9__gnu_cxx12_Lock_policyE2EEC2Ev = comdat any

$_ZNKSt19__shared_ptr_accessIKN19OpenColorIO_v2_4dev14ExponentOpDataELN9__gnu_cxx12_Lock_policyE2ELb0ELb0EE6_M_getEv = comdat any

$_ZNKSt12__shared_ptrIKN19OpenColorIO_v2_4dev14ExponentOpDataELN9__gnu_cxx12_Lock_policyE2EE3getEv = comdat any

$_ZNSt10shared_ptrIKN19OpenColorIO_v2_4dev11GammaOpDataEEC2IKNS0_6OpDataEEERKS_IT_EPS2_ = comdat any

$_ZNSt10shared_ptrIKN19OpenColorIO_v2_4dev11GammaOpDataEEC2Ev = comdat any

$_ZNSt12__shared_ptrIKN19OpenColorIO_v2_4dev11GammaOpDataELN9__gnu_cxx12_Lock_policyE2EEC2IKNS0_6OpDataEEERKS_IT_LS4_2EEPS2_ = comdat any

$_ZNSt12__shared_ptrIKN19OpenColorIO_v2_4dev11GammaOpDataELN9__gnu_cxx12_Lock_policyE2EEC2Ev = comdat any

$_ZNKSt19__shared_ptr_accessIKN19OpenColorIO_v2_4dev11GammaOpDataELN9__gnu_cxx12_Lock_policyE2ELb0ELb0EE6_M_getEv = comdat any

$_ZNKSt12__shared_ptrIKN19OpenColorIO_v2_4dev11GammaOpDataELN9__gnu_cxx12_Lock_policyE2EE3getEv = comdat any

$_ZNSt10shared_ptrIKN19OpenColorIO_v2_4dev11Lut1DOpDataEEC2IKNS0_6OpDataEEERKS_IT_EPS2_ = comdat any

$_ZNSt10shared_ptrIKN19OpenColorIO_v2_4dev11Lut1DOpDataEEC2Ev = comdat any

$_ZNSt12__shared_ptrIKN19OpenColorIO_v2_4dev11Lut1DOpDataELN9__gnu_cxx12_Lock_policyE2EEC2IKNS0_6OpDataEEERKS_IT_LS4_2EEPS2_ = comdat any

$_ZNSt12__shared_ptrIKN19OpenColorIO_v2_4dev11Lut1DOpDataELN9__gnu_cxx12_Lock_policyE2EEC2Ev = comdat any

$_ZNKSt19__shared_ptr_accessIKN19OpenColorIO_v2_4dev11Lut1DOpDataELN9__gnu_cxx12_Lock_policyE2ELb0ELb0EE6_M_getEv = comdat any

$_ZNKSt12__shared_ptrIKN19OpenColorIO_v2_4dev11Lut1DOpDataELN9__gnu_cxx12_Lock_policyE2EE3getEv = comdat any

$_ZNSt10shared_ptrIKN19OpenColorIO_v2_4dev11Lut3DOpDataEEC2IKNS0_6OpDataEEERKS_IT_EPS2_ = comdat any

$_ZNSt10shared_ptrIKN19OpenColorIO_v2_4dev11Lut3DOpDataEEC2Ev = comdat any

$_ZNSt12__shared_ptrIKN19OpenColorIO_v2_4dev11Lut3DOpDataELN9__gnu_cxx12_Lock_policyE2EEC2IKNS0_6OpDataEEERKS_IT_LS4_2EEPS2_ = comdat any

$_ZNSt12__shared_ptrIKN19OpenColorIO_v2_4dev11Lut3DOpDataELN9__gnu_cxx12_Lock_policyE2EEC2Ev = comdat any

$_ZNKSt19__shared_ptr_accessIKN19OpenColorIO_v2_4dev11Lut3DOpDataELN9__gnu_cxx12_Lock_policyE2ELb0ELb0EE6_M_getEv = comdat any

$_ZNKSt12__shared_ptrIKN19OpenColorIO_v2_4dev11Lut3DOpDataELN9__gnu_cxx12_Lock_policyE2EE3getEv = comdat any

$_ZNKSt19__shared_ptr_accessIKN19OpenColorIO_v2_4dev18CTFReaderTransformELN9__gnu_cxx12_Lock_policyE2ELb0ELb0EE6_M_getEv = comdat any

$_ZNKSt12__shared_ptrIKN19OpenColorIO_v2_4dev18CTFReaderTransformELN9__gnu_cxx12_Lock_policyE2EE3getEv = comdat any

$_ZN9__gnu_cxx17__normal_iteratorIPKSt10shared_ptrIKN19OpenColorIO_v2_4dev6OpDataEESt6vectorIS5_SaIS5_EEEC2ERKS7_ = comdat any

$_ZNK9__gnu_cxx17__normal_iteratorIPKSt10shared_ptrIKN19OpenColorIO_v2_4dev6OpDataEESt6vectorIS5_SaIS5_EEE4baseEv = comdat any

$_ZNSt16allocator_traitsISaIN19OpenColorIO_v2_4dev18FormatMetadataImplEEE9constructIS1_JRKS1_EEEvRS2_PT_DpOT0_ = comdat any

$_ZNSt6vectorIN19OpenColorIO_v2_4dev18FormatMetadataImplESaIS1_EE17_M_realloc_insertIJRKS1_EEEvN9__gnu_cxx17__normal_iteratorIPS1_S3_EEDpOT_ = comdat any

$_ZNSt6vectorIN19OpenColorIO_v2_4dev18FormatMetadataImplESaIS1_EE3endEv = comdat any

$_ZNSt15__new_allocatorIN19OpenColorIO_v2_4dev18FormatMetadataImplEE9constructIS1_JRKS1_EEEvPT_DpOT0_ = comdat any

$_ZNKSt6vectorIN19OpenColorIO_v2_4dev18FormatMetadataImplESaIS1_EE12_M_check_lenEmPKc = comdat any

$_ZN9__gnu_cxxmiIPN19OpenColorIO_v2_4dev18FormatMetadataImplESt6vectorIS2_SaIS2_EEEENS_17__normal_iteratorIT_T0_E15difference_typeERKSA_SD_ = comdat any

$_ZNSt6vectorIN19OpenColorIO_v2_4dev18FormatMetadataImplESaIS1_EE5beginEv = comdat any

$_ZNSt12_Vector_baseIN19OpenColorIO_v2_4dev18FormatMetadataImplESaIS1_EE11_M_allocateEm = comdat any

$_ZSt34__uninitialized_move_if_noexcept_aIPN19OpenColorIO_v2_4dev18FormatMetadataImplES2_SaIS1_EET0_T_S5_S4_RT1_ = comdat any

$_ZNK9__gnu_cxx17__normal_iteratorIPN19OpenColorIO_v2_4dev18FormatMetadataImplESt6vectorIS2_SaIS2_EEE4baseEv = comdat any

$_ZNSt12_Vector_baseIN19OpenColorIO_v2_4dev18FormatMetadataImplESaIS1_EE19_M_get_Tp_allocatorEv = comdat any

$_ZNSt16allocator_traitsISaIN19OpenColorIO_v2_4dev18FormatMetadataImplEEE7destroyIS1_EEvRS2_PT_ = comdat any

$_ZSt8_DestroyIPN19OpenColorIO_v2_4dev18FormatMetadataImplES1_EvT_S3_RSaIT0_E = comdat any

$_ZNSt12_Vector_baseIN19OpenColorIO_v2_4dev18FormatMetadataImplESaIS1_EE13_M_deallocateEPS1_m = comdat any

$_ZNKSt6vectorIN19OpenColorIO_v2_4dev18FormatMetadataImplESaIS1_EE8max_sizeEv = comdat any

$_ZNSt6vectorIN19OpenColorIO_v2_4dev18FormatMetadataImplESaIS1_EE11_S_max_sizeERKS2_ = comdat any

$_ZNKSt12_Vector_baseIN19OpenColorIO_v2_4dev18FormatMetadataImplESaIS1_EE19_M_get_Tp_allocatorEv = comdat any

$_ZNSt16allocator_traitsISaIN19OpenColorIO_v2_4dev18FormatMetadataImplEEE8max_sizeERKS2_ = comdat any

$_ZNKSt15__new_allocatorIN19OpenColorIO_v2_4dev18FormatMetadataImplEE8max_sizeEv = comdat any

$_ZNKSt15__new_allocatorIN19OpenColorIO_v2_4dev18FormatMetadataImplEE11_M_max_sizeEv = comdat any

$_ZN9__gnu_cxx17__normal_iteratorIPN19OpenColorIO_v2_4dev18FormatMetadataImplESt6vectorIS2_SaIS2_EEEC2ERKS3_ = comdat any

$_ZNSt16allocator_traitsISaIN19OpenColorIO_v2_4dev18FormatMetadataImplEEE8allocateERS2_m = comdat any

$_ZNSt15__new_allocatorIN19OpenColorIO_v2_4dev18FormatMetadataImplEE8allocateEmPKv = comdat any

$_ZSt22__uninitialized_copy_aIPKN19OpenColorIO_v2_4dev18FormatMetadataImplEPS1_S1_ET0_T_S6_S5_RSaIT1_E = comdat any

$_ZSt32__make_move_if_noexcept_iteratorIN19OpenColorIO_v2_4dev18FormatMetadataImplEPKS1_ET0_PT_ = comdat any

$_ZSt18uninitialized_copyIPKN19OpenColorIO_v2_4dev18FormatMetadataImplEPS1_ET0_T_S6_S5_ = comdat any

$_ZNSt20__uninitialized_copyILb0EE13__uninit_copyIPKN19OpenColorIO_v2_4dev18FormatMetadataImplEPS3_EET0_T_S8_S7_ = comdat any

$_ZSt16__do_uninit_copyIPKN19OpenColorIO_v2_4dev18FormatMetadataImplEPS1_ET0_T_S6_S5_ = comdat any

$_ZSt10_ConstructIN19OpenColorIO_v2_4dev18FormatMetadataImplEJRKS1_EEvPT_DpOT0_ = comdat any

$_ZSt8_DestroyIPN19OpenColorIO_v2_4dev18FormatMetadataImplEEvT_S3_ = comdat any

$_ZNSt12_Destroy_auxILb0EE9__destroyIPN19OpenColorIO_v2_4dev18FormatMetadataImplEEEvT_S5_ = comdat any

$_ZSt8_DestroyIN19OpenColorIO_v2_4dev18FormatMetadataImplEEvPT_ = comdat any

$_ZNSt15__new_allocatorIN19OpenColorIO_v2_4dev18FormatMetadataImplEE7destroyIS1_EEvPT_ = comdat any

$_ZNSt16allocator_traitsISaIN19OpenColorIO_v2_4dev18FormatMetadataImplEEE10deallocateERS2_PS1_m = comdat any

$_ZNSt15__new_allocatorIN19OpenColorIO_v2_4dev18FormatMetadataImplEE10deallocateEPS1_m = comdat any

$_ZNSt12_Vector_baseISt4pairINSt7__cxx1112basic_stringIcSt11char_traitsIcESaIcEEES6_ESaIS7_EED2Ev = comdat any

$_ZNSt12_Vector_baseISt4pairINSt7__cxx1112basic_stringIcSt11char_traitsIcESaIcEEES6_ESaIS7_EE13_M_deallocateEPS7_m = comdat any

$_ZNSt12_Vector_baseISt4pairINSt7__cxx1112basic_stringIcSt11char_traitsIcESaIcEEES6_ESaIS7_EE12_Vector_implD2Ev = comdat any

$_ZNSt16allocator_traitsISaISt4pairINSt7__cxx1112basic_stringIcSt11char_traitsIcESaIcEEES6_EEE10deallocateERS8_PS7_m = comdat any

$_ZNSt15__new_allocatorISt4pairINSt7__cxx1112basic_stringIcSt11char_traitsIcESaIcEEES6_EE10deallocateEPS7_m = comdat any

$_ZNSaISt4pairINSt7__cxx1112basic_stringIcSt11char_traitsIcESaIcEEES5_EED2Ev = comdat any

$_ZNSt15__new_allocatorISt4pairINSt7__cxx1112basic_stringIcSt11char_traitsIcESaIcEEES6_EED2Ev = comdat any

$_ZNSt6vectorISt4pairINSt7__cxx1112basic_stringIcSt11char_traitsIcESaIcEEES6_ESaIS7_EE12emplace_backIJS7_EEEvDpOT_ = comdat any

$_ZNSt16allocator_traitsISaISt4pairINSt7__cxx1112basic_stringIcSt11char_traitsIcESaIcEEES6_EEE9constructIS7_JS7_EEEvRS8_PT_DpOT0_ = comdat any

$_ZNSt6vectorISt4pairINSt7__cxx1112basic_stringIcSt11char_traitsIcESaIcEEES6_ESaIS7_EE17_M_realloc_insertIJS7_EEEvN9__gnu_cxx17__normal_iteratorIPS7_S9_EEDpOT_ = comdat any

$_ZNSt6vectorISt4pairINSt7__cxx1112basic_stringIcSt11char_traitsIcESaIcEEES6_ESaIS7_EE3endEv = comdat any

$_ZNSt15__new_allocatorISt4pairINSt7__cxx1112basic_stringIcSt11char_traitsIcESaIcEEES6_EE9constructIS7_JS7_EEEvPT_DpOT0_ = comdat any

$_ZNSt4pairINSt7__cxx1112basic_stringIcSt11char_traitsIcESaIcEEES5_EC2EOS6_ = comdat any

$_ZNKSt6vectorISt4pairINSt7__cxx1112basic_stringIcSt11char_traitsIcESaIcEEES6_ESaIS7_EE12_M_check_lenEmPKc = comdat any

$_ZN9__gnu_cxxmiIPSt4pairINSt7__cxx1112basic_stringIcSt11char_traitsIcESaIcEEES7_ESt6vectorIS8_SaIS8_EEEENS_17__normal_iteratorIT_T0_E15difference_typeERKSG_SJ_ = comdat any

$_ZNSt6vectorISt4pairINSt7__cxx1112basic_stringIcSt11char_traitsIcESaIcEEES6_ESaIS7_EE5beginEv = comdat any

$_ZNSt12_Vector_baseISt4pairINSt7__cxx1112basic_stringIcSt11char_traitsIcESaIcEEES6_ESaIS7_EE11_M_allocateEm = comdat any

$_ZNSt6vectorISt4pairINSt7__cxx1112basic_stringIcSt11char_traitsIcESaIcEEES6_ESaIS7_EE11_S_relocateEPS7_SA_SA_RS8_ = comdat any

$_ZNK9__gnu_cxx17__normal_iteratorIPSt4pairINSt7__cxx1112basic_stringIcSt11char_traitsIcESaIcEEES7_ESt6vectorIS8_SaIS8_EEE4baseEv = comdat any

$_ZNKSt6vectorISt4pairINSt7__cxx1112basic_stringIcSt11char_traitsIcESaIcEEES6_ESaIS7_EE8max_sizeEv = comdat any

$_ZNKSt6vectorISt4pairINSt7__cxx1112basic_stringIcSt11char_traitsIcESaIcEEES6_ESaIS7_EE4sizeEv = comdat any

$_ZNSt6vectorISt4pairINSt7__cxx1112basic_stringIcSt11char_traitsIcESaIcEEES6_ESaIS7_EE11_S_max_sizeERKS8_ = comdat any

$_ZNKSt12_Vector_baseISt4pairINSt7__cxx1112basic_stringIcSt11char_traitsIcESaIcEEES6_ESaIS7_EE19_M_get_Tp_allocatorEv = comdat any

$_ZNSt16allocator_traitsISaISt4pairINSt7__cxx1112basic_stringIcSt11char_traitsIcESaIcEEES6_EEE8max_sizeERKS8_ = comdat any

$_ZNKSt15__new_allocatorISt4pairINSt7__cxx1112basic_stringIcSt11char_traitsIcESaIcEEES6_EE8max_sizeEv = comdat any

$_ZNKSt15__new_allocatorISt4pairINSt7__cxx1112basic_stringIcSt11char_traitsIcESaIcEEES6_EE11_M_max_sizeEv = comdat any

$_ZN9__gnu_cxx17__normal_iteratorIPSt4pairINSt7__cxx1112basic_stringIcSt11char_traitsIcESaIcEEES7_ESt6vectorIS8_SaIS8_EEEC2ERKS9_ = comdat any

$_ZNSt16allocator_traitsISaISt4pairINSt7__cxx1112basic_stringIcSt11char_traitsIcESaIcEEES6_EEE8allocateERS8_m = comdat any

$_ZNSt15__new_allocatorISt4pairINSt7__cxx1112basic_stringIcSt11char_traitsIcESaIcEEES6_EE8allocateEmPKv = comdat any

$_ZNSt6vectorISt4pairINSt7__cxx1112basic_stringIcSt11char_traitsIcESaIcEEES6_ESaIS7_EE14_S_do_relocateEPS7_SA_SA_RS8_St17integral_constantIbLb1EE = comdat any

$_ZSt12__relocate_aIPSt4pairINSt7__cxx1112basic_stringIcSt11char_traitsIcESaIcEEES6_ES8_SaIS7_EET0_T_SB_SA_RT1_ = comdat any

$_ZSt14__relocate_a_1IPSt4pairINSt7__cxx1112basic_stringIcSt11char_traitsIcESaIcEEES6_ES8_SaIS7_EET0_T_SB_SA_RT1_ = comdat any

$_ZSt12__niter_baseIPSt4pairINSt7__cxx1112basic_stringIcSt11char_traitsIcESaIcEEES6_EET_S9_ = comdat any

$_ZSt19__relocate_object_aISt4pairINSt7__cxx1112basic_stringIcSt11char_traitsIcESaIcEEES6_ES7_SaIS7_EEvPT_PT0_RT1_ = comdat any

$_ZNSt16allocator_traitsISaISt4pairINSt7__cxx1112basic_stringIcSt11char_traitsIcESaIcEEES6_EEE7destroyIS7_EEvRS8_PT_ = comdat any

$_ZNSt15__new_allocatorISt4pairINSt7__cxx1112basic_stringIcSt11char_traitsIcESaIcEEES6_EE7destroyIS7_EEvPT_ = comdat any

$_ZNKSt19__shared_ptr_accessIKN19OpenColorIO_v2_4dev12MatrixOpDataELN9__gnu_cxx12_Lock_policyE2ELb0ELb0EE6_M_getEv = comdat any

$_ZNKSt12__shared_ptrIKN19OpenColorIO_v2_4dev12MatrixOpDataELN9__gnu_cxx12_Lock_policyE2EE3getEv = comdat any

$_ZNKSt19__shared_ptr_accessIKN19OpenColorIO_v2_4dev11RangeOpDataELN9__gnu_cxx12_Lock_policyE2ELb0ELb0EE6_M_getEv = comdat any

$_ZNKSt12__shared_ptrIKN19OpenColorIO_v2_4dev11RangeOpDataELN9__gnu_cxx12_Lock_policyE2EE3getEv = comdat any

$_ZN9__gnu_cxx14__alloc_traitsISaIN19OpenColorIO_v2_4dev18FormatMetadataImplEES2_E17_S_select_on_copyERKS3_ = comdat any

$_ZNSt12_Vector_baseIN19OpenColorIO_v2_4dev18FormatMetadataImplESaIS1_EEC2EmRKS2_ = comdat any

$_ZNSaIN19OpenColorIO_v2_4dev18FormatMetadataImplEED2Ev = comdat any

$_ZSt22__uninitialized_copy_aIN9__gnu_cxx17__normal_iteratorIPKN19OpenColorIO_v2_4dev18FormatMetadataImplESt6vectorIS3_SaIS3_EEEEPS3_S3_ET0_T_SC_SB_RSaIT1_E = comdat any

$_ZNSt12_Vector_baseIN19OpenColorIO_v2_4dev18FormatMetadataImplESaIS1_EED2Ev = comdat any

$_ZNSt16allocator_traitsISaIN19OpenColorIO_v2_4dev18FormatMetadataImplEEE37select_on_container_copy_constructionERKS2_ = comdat any

$_ZNSaIN19OpenColorIO_v2_4dev18FormatMetadataImplEEC2ERKS1_ = comdat any

$_ZNSt15__new_allocatorIN19OpenColorIO_v2_4dev18FormatMetadataImplEEC2ERKS2_ = comdat any

$_ZNSt12_Vector_baseIN19OpenColorIO_v2_4dev18FormatMetadataImplESaIS1_EE12_Vector_implC2ERKS2_ = comdat any

$_ZNSt12_Vector_baseIN19OpenColorIO_v2_4dev18FormatMetadataImplESaIS1_EE17_M_create_storageEm = comdat any

$_ZNSt12_Vector_baseIN19OpenColorIO_v2_4dev18FormatMetadataImplESaIS1_EE12_Vector_implD2Ev = comdat any

$_ZNSt12_Vector_baseIN19OpenColorIO_v2_4dev18FormatMetadataImplESaIS1_EE17_Vector_impl_dataC2Ev = comdat any

$_ZNSt15__new_allocatorIN19OpenColorIO_v2_4dev18FormatMetadataImplEED2Ev = comdat any

$_ZSt18uninitialized_copyIN9__gnu_cxx17__normal_iteratorIPKN19OpenColorIO_v2_4dev18FormatMetadataImplESt6vectorIS3_SaIS3_EEEEPS3_ET0_T_SC_SB_ = comdat any

$_ZNSt20__uninitialized_copyILb0EE13__uninit_copyIN9__gnu_cxx17__normal_iteratorIPKN19OpenColorIO_v2_4dev18FormatMetadataImplESt6vectorIS5_SaIS5_EEEEPS5_EET0_T_SE_SD_ = comdat any

$_ZSt16__do_uninit_copyIN9__gnu_cxx17__normal_iteratorIPKN19OpenColorIO_v2_4dev18FormatMetadataImplESt6vectorIS3_SaIS3_EEEEPS3_ET0_T_SC_SB_ = comdat any

$_ZNSt10shared_ptrIKN19OpenColorIO_v2_4dev12MatrixOpDataEEC2IKNS0_6OpDataEEERKS_IT_EPS2_ = comdat any

$_ZNSt10shared_ptrIKN19OpenColorIO_v2_4dev12MatrixOpDataEEC2Ev = comdat any

$_ZNSt12__shared_ptrIKN19OpenColorIO_v2_4dev12MatrixOpDataELN9__gnu_cxx12_Lock_policyE2EEC2IKNS0_6OpDataEEERKS_IT_LS4_2EEPS2_ = comdat any

$_ZNSt12__shared_ptrIKN19OpenColorIO_v2_4dev12MatrixOpDataELN9__gnu_cxx12_Lock_policyE2EEC2Ev = comdat any

$_ZNSt10shared_ptrIKN19OpenColorIO_v2_4dev11RangeOpDataEEC2IKNS0_6OpDataEEERKS_IT_EPS2_ = comdat any

$_ZNSt10shared_ptrIKN19OpenColorIO_v2_4dev11RangeOpDataEEC2Ev = comdat any

$_ZNSt12__shared_ptrIKN19OpenColorIO_v2_4dev11RangeOpDataELN9__gnu_cxx12_Lock_policyE2EEC2IKNS0_6OpDataEEERKS_IT_LS4_2EEPS2_ = comdat any

$_ZNSt12__shared_ptrIKN19OpenColorIO_v2_4dev11RangeOpDataELN9__gnu_cxx12_Lock_policyE2EEC2Ev = comdat any

$_ZNSt10shared_ptrIKN19OpenColorIO_v2_4dev9CDLOpDataEEC2IKNS0_6OpDataEEERKS_IT_EPS2_ = comdat any

$_ZNSt10shared_ptrIKN19OpenColorIO_v2_4dev9CDLOpDataEEC2Ev = comdat any

$_ZNSt12__shared_ptrIKN19OpenColorIO_v2_4dev9CDLOpDataELN9__gnu_cxx12_Lock_policyE2EEC2IKNS0_6OpDataEEERKS_IT_LS4_2EEPS2_ = comdat any

$_ZNSt12__shared_ptrIKN19OpenColorIO_v2_4dev9CDLOpDataELN9__gnu_cxx12_Lock_policyE2EEC2Ev = comdat any

$_ZNSt10shared_ptrIN19OpenColorIO_v2_4dev11GammaOpDataEEC2ISaIvEJNS1_5StyleERSt6vectorIdSaIdEES9_S9_S9_EEESt20_Sp_alloc_shared_tagIT_EDpOT0_ = comdat any

$_ZNSt12__shared_ptrIN19OpenColorIO_v2_4dev11GammaOpDataELN9__gnu_cxx12_Lock_policyE2EEC2ISaIvEJNS1_5StyleERSt6vectorIdSaIdEESB_SB_SB_EEESt20_Sp_alloc_shared_tagIT_EDpOT0_ = comdat any

$_ZNSt14__shared_countILN9__gnu_cxx12_Lock_policyE2EEC2IN19OpenColorIO_v2_4dev11GammaOpDataESaIvEJNS5_5StyleERSt6vectorIdSaIdEESB_SB_SB_EEERPT_St20_Sp_alloc_shared_tagIT0_EDpOT1_ = comdat any

$_ZNSt12__shared_ptrIN19OpenColorIO_v2_4dev11GammaOpDataELN9__gnu_cxx12_Lock_policyE2EE31_M_enable_shared_from_this_withIS1_S1_EENSt9enable_ifIXntsr15__has_esft_baseIT0_EE5valueEvE4typeEPT_ = comdat any

$_ZNSaISt23_Sp_counted_ptr_inplaceIN19OpenColorIO_v2_4dev11GammaOpDataESaIvELN9__gnu_cxx12_Lock_policyE2EEEC2IvEERKSaIT_E = comdat any

$_ZSt18__allocate_guardedISaISt23_Sp_counted_ptr_inplaceIN19OpenColorIO_v2_4dev11GammaOpDataESaIvELN9__gnu_cxx12_Lock_policyE2EEEESt15__allocated_ptrIT_ERS9_ = comdat any

$_ZNSt15__allocated_ptrISaISt23_Sp_counted_ptr_inplaceIN19OpenColorIO_v2_4dev11GammaOpDataESaIvELN9__gnu_cxx12_Lock_policyE2EEEE3getEv = comdat any

$_ZNSt23_Sp_counted_ptr_inplaceIN19OpenColorIO_v2_4dev11GammaOpDataESaIvELN9__gnu_cxx12_Lock_policyE2EEC2IJNS1_5StyleERSt6vectorIdSaIdEESB_SB_SB_EEES2_DpOT_ = comdat any

$_ZNSt15__allocated_ptrISaISt23_Sp_counted_ptr_inplaceIN19OpenColorIO_v2_4dev11GammaOpDataESaIvELN9__gnu_cxx12_Lock_policyE2EEEEaSEDn = comdat any

$_ZNSt23_Sp_counted_ptr_inplaceIN19OpenColorIO_v2_4dev11GammaOpDataESaIvELN9__gnu_cxx12_Lock_policyE2EE6_M_ptrEv = comdat any

$_ZNSt15__allocated_ptrISaISt23_Sp_counted_ptr_inplaceIN19OpenColorIO_v2_4dev11GammaOpDataESaIvELN9__gnu_cxx12_Lock_policyE2EEEED2Ev = comdat any

$_ZNSaISt23_Sp_counted_ptr_inplaceIN19OpenColorIO_v2_4dev11GammaOpDataESaIvELN9__gnu_cxx12_Lock_policyE2EEED2Ev = comdat any

$_ZNSt15__new_allocatorISt23_Sp_counted_ptr_inplaceIN19OpenColorIO_v2_4dev11GammaOpDataESaIvELN9__gnu_cxx12_Lock_policyE2EEEC2Ev = comdat any

$_ZNSt16allocator_traitsISaISt23_Sp_counted_ptr_inplaceIN19OpenColorIO_v2_4dev11GammaOpDataESaIvELN9__gnu_cxx12_Lock_policyE2EEEE8allocateERS7_m = comdat any

$_ZNSt15__allocated_ptrISaISt23_Sp_counted_ptr_inplaceIN19OpenColorIO_v2_4dev11GammaOpDataESaIvELN9__gnu_cxx12_Lock_policyE2EEEEC2ERS7_PS6_ = comdat any

$_ZNSt15__new_allocatorISt23_Sp_counted_ptr_inplaceIN19OpenColorIO_v2_4dev11GammaOpDataESaIvELN9__gnu_cxx12_Lock_policyE2EEE8allocateEmPKv = comdat any

$_ZNKSt15__new_allocatorISt23_Sp_counted_ptr_inplaceIN19OpenColorIO_v2_4dev11GammaOpDataESaIvELN9__gnu_cxx12_Lock_policyE2EEE11_M_max_sizeEv = comdat any

$_ZSt12__to_addressISt23_Sp_counted_ptr_inplaceIN19OpenColorIO_v2_4dev11GammaOpDataESaIvELN9__gnu_cxx12_Lock_policyE2EEEPT_S8_ = comdat any

$_ZNSt16_Sp_counted_baseILN9__gnu_cxx12_Lock_policyE2EEC2Ev = comdat any

$_ZNSt23_Sp_counted_ptr_inplaceIN19OpenColorIO_v2_4dev11GammaOpDataESaIvELN9__gnu_cxx12_Lock_policyE2EE5_ImplC2ES2_ = comdat any

$_ZNSt16allocator_traitsISaIvEE9constructIN19OpenColorIO_v2_4dev11GammaOpDataEJNS4_5StyleERSt6vectorIdSaIdEES9_S9_S9_EEEvRS0_PT_DpOT0_ = comdat any

$_ZNSt23_Sp_counted_ptr_inplaceIN19OpenColorIO_v2_4dev11GammaOpDataESaIvELN9__gnu_cxx12_Lock_policyE2EED2Ev = comdat any

$_ZNSt23_Sp_counted_ptr_inplaceIN19OpenColorIO_v2_4dev11GammaOpDataESaIvELN9__gnu_cxx12_Lock_policyE2EED0Ev = comdat any

$_ZNSt23_Sp_counted_ptr_inplaceIN19OpenColorIO_v2_4dev11GammaOpDataESaIvELN9__gnu_cxx12_Lock_policyE2EE10_M_disposeEv = comdat any

$_ZNSt23_Sp_counted_ptr_inplaceIN19OpenColorIO_v2_4dev11GammaOpDataESaIvELN9__gnu_cxx12_Lock_policyE2EE10_M_destroyEv = comdat any

$_ZNSt23_Sp_counted_ptr_inplaceIN19OpenColorIO_v2_4dev11GammaOpDataESaIvELN9__gnu_cxx12_Lock_policyE2EE14_M_get_deleterERKSt9type_info = comdat any

$_ZNSt16_Sp_counted_baseILN9__gnu_cxx12_Lock_policyE2EED2Ev = comdat any

$_ZNSt16_Sp_counted_baseILN9__gnu_cxx12_Lock_policyE2EED0Ev = comdat any

$_ZNSt16_Sp_counted_baseILN9__gnu_cxx12_Lock_policyE2EE10_M_destroyEv = comdat any

$_ZNSt14_Sp_ebo_helperILi0ESaIvELb1EEC2ERKS0_ = comdat any

$_ZSt10_ConstructIN19OpenColorIO_v2_4dev11GammaOpDataEJNS1_5StyleERSt6vectorIdSaIdEES6_S6_S6_EEvPT_DpOT0_ = comdat any

$_ZNSt16allocator_traitsISaIvEE7destroyIN19OpenColorIO_v2_4dev11GammaOpDataEEEvRS0_PT_ = comdat any

$_ZNSt23_Sp_counted_ptr_inplaceIN19OpenColorIO_v2_4dev11GammaOpDataESaIvELN9__gnu_cxx12_Lock_policyE2EE5_Impl8_M_allocEv = comdat any

$_ZSt8_DestroyIN19OpenColorIO_v2_4dev11GammaOpDataEEvPT_ = comdat any

$_ZNSt14_Sp_ebo_helperILi0ESaIvELb1EE6_S_getERS1_ = comdat any

$_ZNSt19_Sp_make_shared_tag5_S_tiEv = comdat any

$_ZNKSt9type_infoeqERKS_ = comdat any

$_ZNKSt9type_info4nameEv = comdat any

$_ZN9__gnu_cxx16__aligned_bufferIN19OpenColorIO_v2_4dev11GammaOpDataEE6_M_ptrEv = comdat any

$_ZN9__gnu_cxx16__aligned_bufferIN19OpenColorIO_v2_4dev11GammaOpDataEE7_M_addrEv = comdat any

$_ZNSt16allocator_traitsISaISt23_Sp_counted_ptr_inplaceIN19OpenColorIO_v2_4dev11GammaOpDataESaIvELN9__gnu_cxx12_Lock_policyE2EEEE10deallocateERS7_PS6_m = comdat any

$_ZNSt15__new_allocatorISt23_Sp_counted_ptr_inplaceIN19OpenColorIO_v2_4dev11GammaOpDataESaIvELN9__gnu_cxx12_Lock_policyE2EEE10deallocateEPS6_m = comdat any

$_ZNSt15__new_allocatorISt23_Sp_counted_ptr_inplaceIN19OpenColorIO_v2_4dev11GammaOpDataESaIvELN9__gnu_cxx12_Lock_policyE2EEED2Ev = comdat any

$_ZNKSt19__shared_ptr_accessIN19OpenColorIO_v2_4dev11GammaOpDataELN9__gnu_cxx12_Lock_policyE2ELb0ELb0EE6_M_getEv = comdat any

$_ZNKSt12__shared_ptrIN19OpenColorIO_v2_4dev11GammaOpDataELN9__gnu_cxx12_Lock_policyE2EE3getEv = comdat any

$_ZNSt12__shared_ptrIKN19OpenColorIO_v2_4dev11GammaOpDataELN9__gnu_cxx12_Lock_policyE2EEC2IS1_vEERKS_IT_LS4_2EE = comdat any

$_ZNSt10shared_ptrIKN19OpenColorIO_v2_4dev20GradingPrimaryOpDataEEC2IKNS0_6OpDataEEERKS_IT_EPS2_ = comdat any

$_ZNSt10shared_ptrIKN19OpenColorIO_v2_4dev20GradingPrimaryOpDataEEC2Ev = comdat any

$_ZNSt12__shared_ptrIKN19OpenColorIO_v2_4dev20GradingPrimaryOpDataELN9__gnu_cxx12_Lock_policyE2EEC2IKNS0_6OpDataEEERKS_IT_LS4_2EEPS2_ = comdat any

$_ZNSt12__shared_ptrIKN19OpenColorIO_v2_4dev20GradingPrimaryOpDataELN9__gnu_cxx12_Lock_policyE2EEC2Ev = comdat any

$_ZNSt10shared_ptrIKN19OpenColorIO_v2_4dev21GradingRGBCurveOpDataEEC2IKNS0_6OpDataEEERKS_IT_EPS2_ = comdat any

$_ZNSt10shared_ptrIKN19OpenColorIO_v2_4dev21GradingRGBCurveOpDataEEC2Ev = comdat any

$_ZNSt12__shared_ptrIKN19OpenColorIO_v2_4dev21GradingRGBCurveOpDataELN9__gnu_cxx12_Lock_policyE2EEC2IKNS0_6OpDataEEERKS_IT_LS4_2EEPS2_ = comdat any

$_ZNSt12__shared_ptrIKN19OpenColorIO_v2_4dev21GradingRGBCurveOpDataELN9__gnu_cxx12_Lock_policyE2EEC2Ev = comdat any

$_ZNSt10shared_ptrIKN19OpenColorIO_v2_4dev17GradingToneOpDataEEC2IKNS0_6OpDataEEERKS_IT_EPS2_ = comdat any

$_ZNSt10shared_ptrIKN19OpenColorIO_v2_4dev17GradingToneOpDataEEC2Ev = comdat any

$_ZNSt12__shared_ptrIKN19OpenColorIO_v2_4dev17GradingToneOpDataELN9__gnu_cxx12_Lock_policyE2EEC2IKNS0_6OpDataEEERKS_IT_LS4_2EEPS2_ = comdat any

$_ZNSt12__shared_ptrIKN19OpenColorIO_v2_4dev17GradingToneOpDataELN9__gnu_cxx12_Lock_policyE2EEC2Ev = comdat any

$_ZNSt10shared_ptrIKN19OpenColorIO_v2_4dev9LogOpDataEEC2IKNS0_6OpDataEEERKS_IT_EPS2_ = comdat any

$_ZNSt10shared_ptrIKN19OpenColorIO_v2_4dev9LogOpDataEEC2Ev = comdat any

$_ZNSt12__shared_ptrIKN19OpenColorIO_v2_4dev9LogOpDataELN9__gnu_cxx12_Lock_policyE2EEC2IKNS0_6OpDataEEERKS_IT_LS4_2EEPS2_ = comdat any

$_ZNSt12__shared_ptrIKN19OpenColorIO_v2_4dev9LogOpDataELN9__gnu_cxx12_Lock_policyE2EEC2Ev = comdat any

$_ZNKSt19__shared_ptr_accessIN19OpenColorIO_v2_4dev12MatrixOpDataELN9__gnu_cxx12_Lock_policyE2ELb0ELb0EE6_M_getEv = comdat any

$_ZNKSt12__shared_ptrIN19OpenColorIO_v2_4dev12MatrixOpDataELN9__gnu_cxx12_Lock_policyE2EE3getEv = comdat any

$_ZNSt12__shared_ptrIKN19OpenColorIO_v2_4dev12MatrixOpDataELN9__gnu_cxx12_Lock_policyE2EEC2IS1_vEERKS_IT_LS4_2EE = comdat any

$_ZNKSt19__shared_ptr_accessIN19OpenColorIO_v2_4dev11RangeOpDataELN9__gnu_cxx12_Lock_policyE2ELb0ELb0EE6_M_getEv = comdat any

$_ZNKSt12__shared_ptrIN19OpenColorIO_v2_4dev11RangeOpDataELN9__gnu_cxx12_Lock_policyE2EE3getEv = comdat any

$_ZNSt12__shared_ptrIKN19OpenColorIO_v2_4dev11RangeOpDataELN9__gnu_cxx12_Lock_policyE2EEC2IS1_vEERKS_IT_LS4_2EE = comdat any

$_ZNSt10shared_ptrIN19OpenColorIO_v2_4dev12MatrixOpDataEEC2ISaIvEJEEESt20_Sp_alloc_shared_tagIT_EDpOT0_ = comdat any

$_ZNSt12__shared_ptrIN19OpenColorIO_v2_4dev12MatrixOpDataELN9__gnu_cxx12_Lock_policyE2EEC2ISaIvEJEEESt20_Sp_alloc_shared_tagIT_EDpOT0_ = comdat any

$_ZNSt14__shared_countILN9__gnu_cxx12_Lock_policyE2EEC2IN19OpenColorIO_v2_4dev12MatrixOpDataESaIvEJEEERPT_St20_Sp_alloc_shared_tagIT0_EDpOT1_ = comdat any

$_ZNSt12__shared_ptrIN19OpenColorIO_v2_4dev12MatrixOpDataELN9__gnu_cxx12_Lock_policyE2EE31_M_enable_shared_from_this_withIS1_S1_EENSt9enable_ifIXntsr15__has_esft_baseIT0_EE5valueEvE4typeEPT_ = comdat any

$_ZNSaISt23_Sp_counted_ptr_inplaceIN19OpenColorIO_v2_4dev12MatrixOpDataESaIvELN9__gnu_cxx12_Lock_policyE2EEEC2IvEERKSaIT_E = comdat any

$_ZSt18__allocate_guardedISaISt23_Sp_counted_ptr_inplaceIN19OpenColorIO_v2_4dev12MatrixOpDataESaIvELN9__gnu_cxx12_Lock_policyE2EEEESt15__allocated_ptrIT_ERS9_ = comdat any

$_ZNSt15__allocated_ptrISaISt23_Sp_counted_ptr_inplaceIN19OpenColorIO_v2_4dev12MatrixOpDataESaIvELN9__gnu_cxx12_Lock_policyE2EEEE3getEv = comdat any

$_ZNSt23_Sp_counted_ptr_inplaceIN19OpenColorIO_v2_4dev12MatrixOpDataESaIvELN9__gnu_cxx12_Lock_policyE2EEC2IJEEES2_DpOT_ = comdat any

$_ZNSt15__allocated_ptrISaISt23_Sp_counted_ptr_inplaceIN19OpenColorIO_v2_4dev12MatrixOpDataESaIvELN9__gnu_cxx12_Lock_policyE2EEEEaSEDn = comdat any

$_ZNSt23_Sp_counted_ptr_inplaceIN19OpenColorIO_v2_4dev12MatrixOpDataESaIvELN9__gnu_cxx12_Lock_policyE2EE6_M_ptrEv = comdat any

$_ZNSt15__allocated_ptrISaISt23_Sp_counted_ptr_inplaceIN19OpenColorIO_v2_4dev12MatrixOpDataESaIvELN9__gnu_cxx12_Lock_policyE2EEEED2Ev = comdat any

$_ZNSaISt23_Sp_counted_ptr_inplaceIN19OpenColorIO_v2_4dev12MatrixOpDataESaIvELN9__gnu_cxx12_Lock_policyE2EEED2Ev = comdat any

$_ZNSt15__new_allocatorISt23_Sp_counted_ptr_inplaceIN19OpenColorIO_v2_4dev12MatrixOpDataESaIvELN9__gnu_cxx12_Lock_policyE2EEEC2Ev = comdat any

$_ZNSt16allocator_traitsISaISt23_Sp_counted_ptr_inplaceIN19OpenColorIO_v2_4dev12MatrixOpDataESaIvELN9__gnu_cxx12_Lock_policyE2EEEE8allocateERS7_m = comdat any

$_ZNSt15__allocated_ptrISaISt23_Sp_counted_ptr_inplaceIN19OpenColorIO_v2_4dev12MatrixOpDataESaIvELN9__gnu_cxx12_Lock_policyE2EEEEC2ERS7_PS6_ = comdat any

$_ZNSt15__new_allocatorISt23_Sp_counted_ptr_inplaceIN19OpenColorIO_v2_4dev12MatrixOpDataESaIvELN9__gnu_cxx12_Lock_policyE2EEE8allocateEmPKv = comdat any

$_ZNKSt15__new_allocatorISt23_Sp_counted_ptr_inplaceIN19OpenColorIO_v2_4dev12MatrixOpDataESaIvELN9__gnu_cxx12_Lock_policyE2EEE11_M_max_sizeEv = comdat any

$_ZSt12__to_addressISt23_Sp_counted_ptr_inplaceIN19OpenColorIO_v2_4dev12MatrixOpDataESaIvELN9__gnu_cxx12_Lock_policyE2EEEPT_S8_ = comdat any

$_ZNSt23_Sp_counted_ptr_inplaceIN19OpenColorIO_v2_4dev12MatrixOpDataESaIvELN9__gnu_cxx12_Lock_policyE2EE5_ImplC2ES2_ = comdat any

$_ZNSt16allocator_traitsISaIvEE9constructIN19OpenColorIO_v2_4dev12MatrixOpDataEJEEEvRS0_PT_DpOT0_ = comdat any

$_ZNSt23_Sp_counted_ptr_inplaceIN19OpenColorIO_v2_4dev12MatrixOpDataESaIvELN9__gnu_cxx12_Lock_policyE2EED2Ev = comdat any

$_ZNSt23_Sp_counted_ptr_inplaceIN19OpenColorIO_v2_4dev12MatrixOpDataESaIvELN9__gnu_cxx12_Lock_policyE2EED0Ev = comdat any

$_ZNSt23_Sp_counted_ptr_inplaceIN19OpenColorIO_v2_4dev12MatrixOpDataESaIvELN9__gnu_cxx12_Lock_policyE2EE10_M_disposeEv = comdat any

$_ZNSt23_Sp_counted_ptr_inplaceIN19OpenColorIO_v2_4dev12MatrixOpDataESaIvELN9__gnu_cxx12_Lock_policyE2EE10_M_destroyEv = comdat any

$_ZNSt23_Sp_counted_ptr_inplaceIN19OpenColorIO_v2_4dev12MatrixOpDataESaIvELN9__gnu_cxx12_Lock_policyE2EE14_M_get_deleterERKSt9type_info = comdat any

$_ZSt10_ConstructIN19OpenColorIO_v2_4dev12MatrixOpDataEJEEvPT_DpOT0_ = comdat any

$_ZNSt16allocator_traitsISaIvEE7destroyIN19OpenColorIO_v2_4dev12MatrixOpDataEEEvRS0_PT_ = comdat any

$_ZNSt23_Sp_counted_ptr_inplaceIN19OpenColorIO_v2_4dev12MatrixOpDataESaIvELN9__gnu_cxx12_Lock_policyE2EE5_Impl8_M_allocEv = comdat any

$_ZSt8_DestroyIN19OpenColorIO_v2_4dev12MatrixOpDataEEvPT_ = comdat any

$_ZN9__gnu_cxx16__aligned_bufferIN19OpenColorIO_v2_4dev12MatrixOpDataEE6_M_ptrEv = comdat any

$_ZN9__gnu_cxx16__aligned_bufferIN19OpenColorIO_v2_4dev12MatrixOpDataEE7_M_addrEv = comdat any

$_ZNSt16allocator_traitsISaISt23_Sp_counted_ptr_inplaceIN19OpenColorIO_v2_4dev12MatrixOpDataESaIvELN9__gnu_cxx12_Lock_policyE2EEEE10deallocateERS7_PS6_m = comdat any

$_ZNSt15__new_allocatorISt23_Sp_counted_ptr_inplaceIN19OpenColorIO_v2_4dev12MatrixOpDataESaIvELN9__gnu_cxx12_Lock_policyE2EEE10deallocateEPS6_m = comdat any

$_ZNSt15__new_allocatorISt23_Sp_counted_ptr_inplaceIN19OpenColorIO_v2_4dev12MatrixOpDataESaIvELN9__gnu_cxx12_Lock_policyE2EEED2Ev = comdat any

$_ZTVSt23_Sp_counted_ptr_inplaceIN19OpenColorIO_v2_4dev11GammaOpDataESaIvELN9__gnu_cxx12_Lock_policyE2EE = comdat any

$_ZTSSt23_Sp_counted_ptr_inplaceIN19OpenColorIO_v2_4dev11GammaOpDataESaIvELN9__gnu_cxx12_Lock_policyE2EE = comdat any

$_ZTSSt16_Sp_counted_baseILN9__gnu_cxx12_Lock_policyE2EE = comdat any

$_ZTSSt11_Mutex_baseILN9__gnu_cxx12_Lock_policyE2EE = comdat any

$_ZTISt11_Mutex_baseILN9__gnu_cxx12_Lock_policyE2EE = comdat any

$_ZTISt16_Sp_counted_baseILN9__gnu_cxx12_Lock_policyE2EE = comdat any

$_ZTISt23_Sp_counted_ptr_inplaceIN19OpenColorIO_v2_4dev11GammaOpDataESaIvELN9__gnu_cxx12_Lock_policyE2EE = comdat any

$_ZTVSt16_Sp_counted_baseILN9__gnu_cxx12_Lock_policyE2EE = comdat any

$_ZTSSt19_Sp_make_shared_tag = comdat any

$_ZTISt19_Sp_make_shared_tag = comdat any

$_ZZNSt19_Sp_make_shared_tag5_S_tiEvE5__tag = comdat any

$_ZTVSt23_Sp_counted_ptr_inplaceIN19OpenColorIO_v2_4dev12MatrixOpDataESaIvELN9__gnu_cxx12_Lock_policyE2EE = comdat any

$_ZTSSt23_Sp_counted_ptr_inplaceIN19OpenColorIO_v2_4dev12MatrixOpDataESaIvELN9__gnu_cxx12_Lock_policyE2EE = comdat any

$_ZTISt23_Sp_counted_ptr_inplaceIN19OpenColorIO_v2_4dev12MatrixOpDataESaIvELN9__gnu_cxx12_Lock_policyE2EE = comdat any

@_ZStL8__ioinit = internal global %"class.std::ios_base::Init" zeroinitializer, align 1
@__dso_handle = external hidden global i8
@_ZN19OpenColorIO_v2_4devL28CTF_PROCESS_LIST_VERSION_1_2E = internal global %"class.OpenColorIO_v2_4dev::CTFVersion" zeroinitializer, align 4
@_ZN19OpenColorIO_v2_4devL28CTF_PROCESS_LIST_VERSION_1_3E = internal global %"class.OpenColorIO_v2_4dev::CTFVersion" zeroinitializer, align 4
@_ZN19OpenColorIO_v2_4devL28CTF_PROCESS_LIST_VERSION_1_4E = internal global %"class.OpenColorIO_v2_4dev::CTFVersion" zeroinitializer, align 4
@_ZN19OpenColorIO_v2_4devL28CTF_PROCESS_LIST_VERSION_1_5E = internal global %"class.OpenColorIO_v2_4dev::CTFVersion" zeroinitializer, align 4
@_ZN19OpenColorIO_v2_4devL28CTF_PROCESS_LIST_VERSION_1_6E = internal global %"class.OpenColorIO_v2_4dev::CTFVersion" zeroinitializer, align 4
@_ZN19OpenColorIO_v2_4devL28CTF_PROCESS_LIST_VERSION_1_7E = internal global %"class.OpenColorIO_v2_4dev::CTFVersion" zeroinitializer, align 4
@_ZN19OpenColorIO_v2_4devL28CTF_PROCESS_LIST_VERSION_1_8E = internal global %"class.OpenColorIO_v2_4dev::CTFVersion" zeroinitializer, align 4
@_ZN19OpenColorIO_v2_4devL28CTF_PROCESS_LIST_VERSION_2_0E = internal global %"class.OpenColorIO_v2_4dev::CTFVersion" zeroinitializer, align 4
@_ZN19OpenColorIO_v2_4devL28CTF_PROCESS_LIST_VERSION_2_1E = internal global %"class.OpenColorIO_v2_4dev::CTFVersion" zeroinitializer, align 4
@_ZN19OpenColorIO_v2_4devL24CTF_PROCESS_LIST_VERSIONE = internal global %"class.OpenColorIO_v2_4dev::CTFVersion" zeroinitializer, align 4
@_ZN19OpenColorIO_v2_4dev11NumberUtilsL3locE = internal global %"struct.OpenColorIO_v2_4dev::NumberUtils::Locale" zeroinitializer, align 8
@.str = private unnamed_addr constant [2 x i8] c"'\00", align 1
@.str.12 = private unnamed_addr constant [27 x i8] c"' is not a valid version. \00", align 1
@.str.13 = private unnamed_addr constant [36 x i8] c"Expecting MAJOR[.MINOR[.REVISION]] \00", align 1
@_ZTIN19OpenColorIO_v2_4dev9ExceptionE = external constant ptr
@.str.14 = private unnamed_addr constant [9 x i8] c"%d.%d.%d\00", align 1
@_ZN19OpenColorIO_v2_4dev13METADATA_INFOE = external global ptr, align 8
@.str.15 = private unnamed_addr constant [1 x i8] zeroinitializer, align 1
@_ZN19OpenColorIO_v2_4dev13METADATA_NAMEE = external global ptr, align 8
@_ZN19OpenColorIO_v2_4dev11METADATA_IDE = external global ptr, align 8
@_ZN19OpenColorIO_v2_4devL15ATTR_INVERSE_OFE = internal constant [10 x i8] c"inverseOf\00", align 1
@_ZN19OpenColorIO_v2_4dev25METADATA_INPUT_DESCRIPTORE = external global ptr, align 8
@_ZN19OpenColorIO_v2_4dev26METADATA_OUTPUT_DESCRIPTORE = external global ptr, align 8
@_ZN19OpenColorIO_v2_4dev20METADATA_DESCRIPTIONE = external global ptr, align 8
@_ZTVN19OpenColorIO_v2_4dev15TransformWriterE = hidden unnamed_addr constant { [5 x ptr] } { [5 x ptr] [ptr null, ptr @_ZTIN19OpenColorIO_v2_4dev15TransformWriterE, ptr @_ZN19OpenColorIO_v2_4dev15TransformWriterD1Ev, ptr @_ZN19OpenColorIO_v2_4dev15TransformWriterD0Ev, ptr @_ZNK19OpenColorIO_v2_4dev15TransformWriter5writeEv] }, align 8
@_ZN19OpenColorIO_v2_4devL16TAG_PROCESS_LISTE = internal constant [12 x i8] c"ProcessList\00", align 1
@_ZN19OpenColorIO_v2_4devL21ATTR_COMP_CLF_VERSIONE = internal constant [15 x i8] c"compCLFversion\00", align 1
@_ZN19OpenColorIO_v2_4devL12ATTR_VERSIONE = internal constant [8 x i8] c"version\00", align 1
@_ZN19OpenColorIO_v2_4devL7ATTR_IDE = internal constant [3 x i8] c"id\00", align 1
@_ZN19OpenColorIO_v2_4devL9ATTR_NAMEE = internal constant [5 x i8] c"name\00", align 1
@_ZN19OpenColorIO_v2_4devL15TAG_DESCRIPTIONE = internal constant [12 x i8] c"Description\00", align 1
@.str.16 = private unnamed_addr constant [20 x i8] c"Exponent with alpha\00", align 1
@.str.17 = private unnamed_addr constant [17 x i8] c"ExposureContrast\00", align 1
@.str.18 = private unnamed_addr constant [14 x i8] c"FixedFunction\00", align 1
@.str.19 = private unnamed_addr constant [27 x i8] c"Gamma with alpha component\00", align 1
@.str.20 = private unnamed_addr constant [15 x i8] c"GradingPrimary\00", align 1
@.str.21 = private unnamed_addr constant [16 x i8] c"GradingRGBCurve\00", align 1
@.str.22 = private unnamed_addr constant [12 x i8] c"GradingTone\00", align 1
@.str.23 = private unnamed_addr constant [13 x i8] c"InverseLUT1D\00", align 1
@.str.24 = private unnamed_addr constant [13 x i8] c"InverseLUT3D\00", align 1
@.str.25 = private unnamed_addr constant [28 x i8] c"Matrix with alpha component\00", align 1
@.str.26 = private unnamed_addr constant [58 x i8] c"Reference ops should have been replaced by their content.\00", align 1
@.str.27 = private unnamed_addr constant [35 x i8] c"Noop ops should have been removed.\00", align 1
@_ZTVN10__cxxabiv120__si_class_type_infoE = external global [0 x ptr]
@_ZTSN19OpenColorIO_v2_4dev15TransformWriterE = hidden constant [41 x i8] c"N19OpenColorIO_v2_4dev15TransformWriterE\00", align 1
@_ZTIN19OpenColorIO_v2_4dev16XmlElementWriterE = external constant ptr
@_ZTIN19OpenColorIO_v2_4dev15TransformWriterE = hidden constant { ptr, ptr, ptr } { ptr getelementptr inbounds (ptr, ptr @_ZTVN10__cxxabiv120__si_class_type_infoE, i64 2), ptr @_ZTSN19OpenColorIO_v2_4dev15TransformWriterE, ptr @_ZTIN19OpenColorIO_v2_4dev16XmlElementWriterE }, align 8
@.str.28 = private unnamed_addr constant [2 x i8] c"C\00", align 1
@__libc_single_threaded = external global i8, align 1
@.str.29 = private unnamed_addr constant [2 x i8] c".\00", align 1
@_ZTVN19OpenColorIO_v2_4dev12_GLOBAL__N_19CDLWriterE = internal unnamed_addr constant { [10 x ptr] } { [10 x ptr] [ptr null, ptr @_ZTIN19OpenColorIO_v2_4dev12_GLOBAL__N_19CDLWriterE, ptr @_ZN19OpenColorIO_v2_4dev12_GLOBAL__N_19CDLWriterD2Ev, ptr @_ZN19OpenColorIO_v2_4dev12_GLOBAL__N_19CDLWriterD0Ev, ptr @_ZNK19OpenColorIO_v2_4dev12_GLOBAL__N_18OpWriter5writeEv, ptr @_ZNK19OpenColorIO_v2_4dev12_GLOBAL__N_19CDLWriter5getOpEv, ptr @_ZNK19OpenColorIO_v2_4dev12_GLOBAL__N_19CDLWriter10getTagNameEv, ptr @_ZNK19OpenColorIO_v2_4dev12_GLOBAL__N_19CDLWriter13getAttributesERSt6vectorISt4pairINSt7__cxx1112basic_stringIcSt11char_traitsIcESaIcEEES9_ESaISA_EE, ptr @_ZNK19OpenColorIO_v2_4dev12_GLOBAL__N_19CDLWriter12writeContentEv, ptr @_ZNK19OpenColorIO_v2_4dev12_GLOBAL__N_19CDLWriter19writeFormatMetadataEv] }, align 8
@_ZTSN19OpenColorIO_v2_4dev12_GLOBAL__N_19CDLWriterE = internal constant [48 x i8] c"N19OpenColorIO_v2_4dev12_GLOBAL__N_19CDLWriterE\00", align 1
@_ZTSN19OpenColorIO_v2_4dev12_GLOBAL__N_18OpWriterE = internal constant [47 x i8] c"N19OpenColorIO_v2_4dev12_GLOBAL__N_18OpWriterE\00", align 1
@_ZTIN19OpenColorIO_v2_4dev12_GLOBAL__N_18OpWriterE = internal constant { ptr, ptr, ptr } { ptr getelementptr inbounds (ptr, ptr @_ZTVN10__cxxabiv120__si_class_type_infoE, i64 2), ptr @_ZTSN19OpenColorIO_v2_4dev12_GLOBAL__N_18OpWriterE, ptr @_ZTIN19OpenColorIO_v2_4dev16XmlElementWriterE }, align 8
@_ZTIN19OpenColorIO_v2_4dev12_GLOBAL__N_19CDLWriterE = internal constant { ptr, ptr, ptr } { ptr getelementptr inbounds (ptr, ptr @_ZTVN10__cxxabiv120__si_class_type_infoE, i64 2), ptr @_ZTSN19OpenColorIO_v2_4dev12_GLOBAL__N_19CDLWriterE, ptr @_ZTIN19OpenColorIO_v2_4dev12_GLOBAL__N_18OpWriterE }, align 8
@_ZTVN19OpenColorIO_v2_4dev12_GLOBAL__N_18OpWriterE = internal unnamed_addr constant { [10 x ptr] } { [10 x ptr] [ptr null, ptr @_ZTIN19OpenColorIO_v2_4dev12_GLOBAL__N_18OpWriterE, ptr @_ZN19OpenColorIO_v2_4dev12_GLOBAL__N_18OpWriterD2Ev, ptr @_ZN19OpenColorIO_v2_4dev12_GLOBAL__N_18OpWriterD0Ev, ptr @_ZNK19OpenColorIO_v2_4dev12_GLOBAL__N_18OpWriter5writeEv, ptr @__cxa_pure_virtual, ptr @__cxa_pure_virtual, ptr @_ZNK19OpenColorIO_v2_4dev12_GLOBAL__N_18OpWriter13getAttributesERSt6vectorISt4pairINSt7__cxx1112basic_stringIcSt11char_traitsIcESaIcEEES9_ESaISA_EE, ptr @__cxa_pure_virtual, ptr @_ZNK19OpenColorIO_v2_4dev12_GLOBAL__N_18OpWriter19writeFormatMetadataEv] }, align 8
@_ZN19OpenColorIO_v2_4devL16ATTR_BITDEPTH_INE = internal constant [11 x i8] c"inBitDepth\00", align 1
@_ZN19OpenColorIO_v2_4devL17ATTR_BITDEPTH_OUTE = internal constant [12 x i8] c"outBitDepth\00", align 1
@.str.30 = private unnamed_addr constant [3 x i8] c"8i\00", align 1
@.str.31 = private unnamed_addr constant [4 x i8] c"10i\00", align 1
@.str.32 = private unnamed_addr constant [4 x i8] c"12i\00", align 1
@.str.33 = private unnamed_addr constant [4 x i8] c"16i\00", align 1
@.str.34 = private unnamed_addr constant [4 x i8] c"16f\00", align 1
@.str.35 = private unnamed_addr constant [4 x i8] c"32f\00", align 1
@.str.36 = private unnamed_addr constant [49 x i8] c"Bitdepth has been validated before calling this.\00", align 1
@_ZN19OpenColorIO_v2_4devL7TAG_CDLE = internal constant [8 x i8] c"ASC_CDL\00", align 1
@_ZN19OpenColorIO_v2_4devL10ATTR_STYLEE = internal constant [6 x i8] c"style\00", align 1
@_ZN19OpenColorIO_v2_4devL11TAG_SOPNODEE = internal constant [8 x i8] c"SOPNode\00", align 1
@_ZN19OpenColorIO_v2_4devL24METADATA_SOP_DESCRIPTIONE = internal constant [15 x i8] c"SOPDescription\00", align 1
@.str.37 = private unnamed_addr constant [2 x i8] c" \00", align 1
@_ZN19OpenColorIO_v2_4devL9TAG_SLOPEE = internal constant [6 x i8] c"Slope\00", align 1
@_ZN19OpenColorIO_v2_4devL10TAG_OFFSETE = internal constant [7 x i8] c"Offset\00", align 1
@_ZN19OpenColorIO_v2_4devL9TAG_POWERE = internal constant [6 x i8] c"Power\00", align 1
@_ZN19OpenColorIO_v2_4devL11TAG_SATNODEE = internal constant [8 x i8] c"SatNode\00", align 1
@_ZN19OpenColorIO_v2_4devL24METADATA_SAT_DESCRIPTIONE = internal constant [15 x i8] c"SATDescription\00", align 1
@_ZN19OpenColorIO_v2_4devL14TAG_SATURATIONE = internal constant [11 x i8] c"Saturation\00", align 1
@.str.38 = private unnamed_addr constant [22 x i8] c"Index is out of range\00", align 1
@_ZN19OpenColorIO_v2_4devL26METADATA_INPUT_DESCRIPTIONE = internal constant [17 x i8] c"InputDescription\00", align 16
@_ZN19OpenColorIO_v2_4devL28METADATA_VIEWING_DESCRIPTIONE = internal constant [19 x i8] c"ViewingDescription\00", align 16
@.str.39 = private unnamed_addr constant [21 x i8] c"Transform uses the '\00", align 1
@.str.40 = private unnamed_addr constant [76 x i8] c"' op which cannot be written as CLF.  Use CTF format or Bake the transform.\00", align 1
@_ZTVN19OpenColorIO_v2_4dev12_GLOBAL__N_111GammaWriterE = internal unnamed_addr constant { [10 x ptr] } { [10 x ptr] [ptr null, ptr @_ZTIN19OpenColorIO_v2_4dev12_GLOBAL__N_111GammaWriterE, ptr @_ZN19OpenColorIO_v2_4dev12_GLOBAL__N_111GammaWriterD2Ev, ptr @_ZN19OpenColorIO_v2_4dev12_GLOBAL__N_111GammaWriterD0Ev, ptr @_ZNK19OpenColorIO_v2_4dev12_GLOBAL__N_18OpWriter5writeEv, ptr @_ZNK19OpenColorIO_v2_4dev12_GLOBAL__N_111GammaWriter5getOpEv, ptr @_ZNK19OpenColorIO_v2_4dev12_GLOBAL__N_111GammaWriter10getTagNameEv, ptr @_ZNK19OpenColorIO_v2_4dev12_GLOBAL__N_111GammaWriter13getAttributesERSt6vectorISt4pairINSt7__cxx1112basic_stringIcSt11char_traitsIcESaIcEEES9_ESaISA_EE, ptr @_ZNK19OpenColorIO_v2_4dev12_GLOBAL__N_111GammaWriter12writeContentEv, ptr @_ZNK19OpenColorIO_v2_4dev12_GLOBAL__N_18OpWriter19writeFormatMetadataEv] }, align 8
@_ZTSN19OpenColorIO_v2_4dev12_GLOBAL__N_111GammaWriterE = internal constant [51 x i8] c"N19OpenColorIO_v2_4dev12_GLOBAL__N_111GammaWriterE\00", align 1
@_ZTIN19OpenColorIO_v2_4dev12_GLOBAL__N_111GammaWriterE = internal constant { ptr, ptr, ptr } { ptr getelementptr inbounds (ptr, ptr @_ZTVN10__cxxabiv120__si_class_type_infoE, i64 2), ptr @_ZTSN19OpenColorIO_v2_4dev12_GLOBAL__N_111GammaWriterE, ptr @_ZTIN19OpenColorIO_v2_4dev12_GLOBAL__N_18OpWriterE }, align 8
@_ZN19OpenColorIO_v2_4devL9TAG_GAMMAE = internal constant [6 x i8] c"Gamma\00", align 1
@_ZN19OpenColorIO_v2_4devL12TAG_EXPONENTE = internal constant [9 x i8] c"Exponent\00", align 1
@_ZN19OpenColorIO_v2_4devL16TAG_GAMMA_PARAMSE = internal constant [12 x i8] c"GammaParams\00", align 1
@_ZN19OpenColorIO_v2_4devL19TAG_EXPONENT_PARAMSE = internal constant [15 x i8] c"ExponentParams\00", align 1
@_ZN19OpenColorIO_v2_4devL9ATTR_CHANE = internal constant [8 x i8] c"channel\00", align 1
@.str.41 = private unnamed_addr constant [2 x i8] c"R\00", align 1
@.str.42 = private unnamed_addr constant [2 x i8] c"G\00", align 1
@.str.43 = private unnamed_addr constant [2 x i8] c"B\00", align 1
@.str.44 = private unnamed_addr constant [2 x i8] c"A\00", align 1
@_ZN19OpenColorIO_v2_4devL10ATTR_GAMMAE = internal constant [6 x i8] c"gamma\00", align 1
@_ZN19OpenColorIO_v2_4devL13ATTR_EXPONENTE = internal constant [9 x i8] c"exponent\00", align 1
@_ZN19OpenColorIO_v2_4devL11ATTR_OFFSETE = internal constant [7 x i8] c"offset\00", align 1
@_ZTVN19OpenColorIO_v2_4dev12_GLOBAL__N_122ExposureContrastWriterE = internal unnamed_addr constant { [10 x ptr] } { [10 x ptr] [ptr null, ptr @_ZTIN19OpenColorIO_v2_4dev12_GLOBAL__N_122ExposureContrastWriterE, ptr @_ZN19OpenColorIO_v2_4dev12_GLOBAL__N_122ExposureContrastWriterD2Ev, ptr @_ZN19OpenColorIO_v2_4dev12_GLOBAL__N_122ExposureContrastWriterD0Ev, ptr @_ZNK19OpenColorIO_v2_4dev12_GLOBAL__N_18OpWriter5writeEv, ptr @_ZNK19OpenColorIO_v2_4dev12_GLOBAL__N_122ExposureContrastWriter5getOpEv, ptr @_ZNK19OpenColorIO_v2_4dev12_GLOBAL__N_122ExposureContrastWriter10getTagNameEv, ptr @_ZNK19OpenColorIO_v2_4dev12_GLOBAL__N_122ExposureContrastWriter13getAttributesERSt6vectorISt4pairINSt7__cxx1112basic_stringIcSt11char_traitsIcESaIcEEES9_ESaISA_EE, ptr @_ZNK19OpenColorIO_v2_4dev12_GLOBAL__N_122ExposureContrastWriter12writeContentEv, ptr @_ZNK19OpenColorIO_v2_4dev12_GLOBAL__N_18OpWriter19writeFormatMetadataEv] }, align 8
@_ZTSN19OpenColorIO_v2_4dev12_GLOBAL__N_122ExposureContrastWriterE = internal constant [62 x i8] c"N19OpenColorIO_v2_4dev12_GLOBAL__N_122ExposureContrastWriterE\00", align 1
@_ZTIN19OpenColorIO_v2_4dev12_GLOBAL__N_122ExposureContrastWriterE = internal constant { ptr, ptr, ptr } { ptr getelementptr inbounds (ptr, ptr @_ZTVN10__cxxabiv120__si_class_type_infoE, i64 2), ptr @_ZTSN19OpenColorIO_v2_4dev12_GLOBAL__N_122ExposureContrastWriterE, ptr @_ZTIN19OpenColorIO_v2_4dev12_GLOBAL__N_18OpWriterE }, align 8
@_ZN19OpenColorIO_v2_4devL21TAG_EXPOSURE_CONTRASTE = internal constant [17 x i8] c"ExposureContrast\00", align 16
@_ZN19OpenColorIO_v2_4devL13ATTR_EXPOSUREE = internal constant [9 x i8] c"exposure\00", align 1
@_ZN19OpenColorIO_v2_4devL13ATTR_CONTRASTE = internal constant [9 x i8] c"contrast\00", align 1
@_ZN19OpenColorIO_v2_4devL10ATTR_PIVOTE = internal constant [6 x i8] c"pivot\00", align 1
@_ZN19OpenColorIO_v2_4devL20ATTR_LOGEXPOSURESTEPE = internal constant [16 x i8] c"logExposureStep\00", align 16
@_ZN19OpenColorIO_v2_4devL15ATTR_LOGMIDGRAYE = internal constant [11 x i8] c"logMidGray\00", align 1
@_ZN19OpenColorIO_v2_4devL13TAG_EC_PARAMSE = internal constant [9 x i8] c"ECParams\00", align 1
@_ZN19OpenColorIO_v2_4devL10ATTR_PARAME = internal constant [6 x i8] c"param\00", align 1
@_ZN19OpenColorIO_v2_4devL21TAG_DYN_PROP_EXPOSUREE = internal constant [9 x i8] c"EXPOSURE\00", align 1
@_ZN19OpenColorIO_v2_4devL21TAG_DYNAMIC_PARAMETERE = internal constant [17 x i8] c"DynamicParameter\00", align 16
@_ZN19OpenColorIO_v2_4devL21TAG_DYN_PROP_CONTRASTE = internal constant [9 x i8] c"CONTRAST\00", align 1
@_ZN19OpenColorIO_v2_4devL18TAG_DYN_PROP_GAMMAE = internal constant [6 x i8] c"GAMMA\00", align 1
@.str.45 = private unnamed_addr constant [4 x i8] c"nan\00", align 1
@.str.46 = private unnamed_addr constant [4 x i8] c"inf\00", align 1
@.str.47 = private unnamed_addr constant [5 x i8] c"-inf\00", align 1
@_ZTVN19OpenColorIO_v2_4dev12_GLOBAL__N_119FixedFunctionWriterE = internal unnamed_addr constant { [10 x ptr] } { [10 x ptr] [ptr null, ptr @_ZTIN19OpenColorIO_v2_4dev12_GLOBAL__N_119FixedFunctionWriterE, ptr @_ZN19OpenColorIO_v2_4dev12_GLOBAL__N_119FixedFunctionWriterD2Ev, ptr @_ZN19OpenColorIO_v2_4dev12_GLOBAL__N_119FixedFunctionWriterD0Ev, ptr @_ZNK19OpenColorIO_v2_4dev12_GLOBAL__N_18OpWriter5writeEv, ptr @_ZNK19OpenColorIO_v2_4dev12_GLOBAL__N_119FixedFunctionWriter5getOpEv, ptr @_ZNK19OpenColorIO_v2_4dev12_GLOBAL__N_119FixedFunctionWriter10getTagNameEv, ptr @_ZNK19OpenColorIO_v2_4dev12_GLOBAL__N_119FixedFunctionWriter13getAttributesERSt6vectorISt4pairINSt7__cxx1112basic_stringIcSt11char_traitsIcESaIcEEES9_ESaISA_EE, ptr @_ZNK19OpenColorIO_v2_4dev12_GLOBAL__N_119FixedFunctionWriter12writeContentEv, ptr @_ZNK19OpenColorIO_v2_4dev12_GLOBAL__N_18OpWriter19writeFormatMetadataEv] }, align 8
@_ZTSN19OpenColorIO_v2_4dev12_GLOBAL__N_119FixedFunctionWriterE = internal constant [59 x i8] c"N19OpenColorIO_v2_4dev12_GLOBAL__N_119FixedFunctionWriterE\00", align 1
@_ZTIN19OpenColorIO_v2_4dev12_GLOBAL__N_119FixedFunctionWriterE = internal constant { ptr, ptr, ptr } { ptr getelementptr inbounds (ptr, ptr @_ZTVN10__cxxabiv120__si_class_type_infoE, i64 2), ptr @_ZTSN19OpenColorIO_v2_4dev12_GLOBAL__N_119FixedFunctionWriterE, ptr @_ZTIN19OpenColorIO_v2_4dev12_GLOBAL__N_18OpWriterE }, align 8
@_ZN19OpenColorIO_v2_4devL18TAG_FIXED_FUNCTIONE = internal constant [14 x i8] c"FixedFunction\00", align 1
@_ZN19OpenColorIO_v2_4devL11ATTR_PARAMSE = internal constant [7 x i8] c"params\00", align 1
@_ZTVN19OpenColorIO_v2_4dev12_GLOBAL__N_120GradingPrimaryWriterE = internal unnamed_addr constant { [10 x ptr] } { [10 x ptr] [ptr null, ptr @_ZTIN19OpenColorIO_v2_4dev12_GLOBAL__N_120GradingPrimaryWriterE, ptr @_ZN19OpenColorIO_v2_4dev12_GLOBAL__N_120GradingPrimaryWriterD2Ev, ptr @_ZN19OpenColorIO_v2_4dev12_GLOBAL__N_120GradingPrimaryWriterD0Ev, ptr @_ZNK19OpenColorIO_v2_4dev12_GLOBAL__N_18OpWriter5writeEv, ptr @_ZNK19OpenColorIO_v2_4dev12_GLOBAL__N_120GradingPrimaryWriter5getOpEv, ptr @_ZNK19OpenColorIO_v2_4dev12_GLOBAL__N_120GradingPrimaryWriter10getTagNameEv, ptr @_ZNK19OpenColorIO_v2_4dev12_GLOBAL__N_120GradingPrimaryWriter13getAttributesERSt6vectorISt4pairINSt7__cxx1112basic_stringIcSt11char_traitsIcESaIcEEES9_ESaISA_EE, ptr @_ZNK19OpenColorIO_v2_4dev12_GLOBAL__N_120GradingPrimaryWriter12writeContentEv, ptr @_ZNK19OpenColorIO_v2_4dev12_GLOBAL__N_18OpWriter19writeFormatMetadataEv] }, align 8
@_ZTSN19OpenColorIO_v2_4dev12_GLOBAL__N_120GradingPrimaryWriterE = internal constant [60 x i8] c"N19OpenColorIO_v2_4dev12_GLOBAL__N_120GradingPrimaryWriterE\00", align 1
@_ZTIN19OpenColorIO_v2_4dev12_GLOBAL__N_120GradingPrimaryWriterE = internal constant { ptr, ptr, ptr } { ptr getelementptr inbounds (ptr, ptr @_ZTVN10__cxxabiv120__si_class_type_infoE, i64 2), ptr @_ZTSN19OpenColorIO_v2_4dev12_GLOBAL__N_120GradingPrimaryWriterE, ptr @_ZTIN19OpenColorIO_v2_4dev12_GLOBAL__N_18OpWriterE }, align 8
@_ZN19OpenColorIO_v2_4devL11TAG_PRIMARYE = internal constant [15 x i8] c"GradingPrimary\00", align 1
@_ZN19OpenColorIO_v2_4devL22TAG_PRIMARY_BRIGHTNESSE = internal constant [11 x i8] c"Brightness\00", align 1
@_ZN19OpenColorIO_v2_4devL20TAG_PRIMARY_CONTRASTE = internal constant [9 x i8] c"Contrast\00", align 1
@_ZN19OpenColorIO_v2_4devL17TAG_PRIMARY_GAMMAE = internal constant [6 x i8] c"Gamma\00", align 1
@_ZN19OpenColorIO_v2_4devL22TAG_PRIMARY_SATURATIONE = internal constant [11 x i8] c"Saturation\00", align 1
@_ZN19OpenColorIO_v2_4devL21ATTR_PRIMARY_CONTRASTE = internal constant [9 x i8] c"contrast\00", align 1
@_ZN19OpenColorIO_v2_4devL18ATTR_PRIMARY_BLACKE = internal constant [6 x i8] c"black\00", align 1
@_ZN19OpenColorIO_v2_4devL18ATTR_PRIMARY_WHITEE = internal constant [6 x i8] c"white\00", align 1
@_ZN19OpenColorIO_v2_4devL17TAG_PRIMARY_PIVOTE = internal constant [6 x i8] c"Pivot\00", align 1
@_ZN19OpenColorIO_v2_4devL18TAG_PRIMARY_OFFSETE = internal constant [7 x i8] c"Offset\00", align 1
@_ZN19OpenColorIO_v2_4devL20TAG_PRIMARY_EXPOSUREE = internal constant [9 x i8] c"Exposure\00", align 1
@_ZN19OpenColorIO_v2_4devL16TAG_PRIMARY_LIFTE = internal constant [5 x i8] c"Lift\00", align 1
@_ZN19OpenColorIO_v2_4devL16TAG_PRIMARY_GAINE = internal constant [5 x i8] c"Gain\00", align 1
@_ZN19OpenColorIO_v2_4devL17TAG_PRIMARY_CLAMPE = internal constant [6 x i8] c"Clamp\00", align 1
@_ZN19OpenColorIO_v2_4devL20TAG_DYN_PROP_PRIMARYE = internal constant [8 x i8] c"PRIMARY\00", align 1
@_ZN19OpenColorIO_v2_4devL8ATTR_RGBE = internal constant [4 x i8] c"rgb\00", align 1
@_ZN19OpenColorIO_v2_4devL11ATTR_MASTERE = internal constant [7 x i8] c"master\00", align 1
@_ZTVN19OpenColorIO_v2_4dev12_GLOBAL__N_121GradingRGBCurveWriterE = internal unnamed_addr constant { [10 x ptr] } { [10 x ptr] [ptr null, ptr @_ZTIN19OpenColorIO_v2_4dev12_GLOBAL__N_121GradingRGBCurveWriterE, ptr @_ZN19OpenColorIO_v2_4dev12_GLOBAL__N_121GradingRGBCurveWriterD2Ev, ptr @_ZN19OpenColorIO_v2_4dev12_GLOBAL__N_121GradingRGBCurveWriterD0Ev, ptr @_ZNK19OpenColorIO_v2_4dev12_GLOBAL__N_18OpWriter5writeEv, ptr @_ZNK19OpenColorIO_v2_4dev12_GLOBAL__N_121GradingRGBCurveWriter5getOpEv, ptr @_ZNK19OpenColorIO_v2_4dev12_GLOBAL__N_121GradingRGBCurveWriter10getTagNameEv, ptr @_ZNK19OpenColorIO_v2_4dev12_GLOBAL__N_121GradingRGBCurveWriter13getAttributesERSt6vectorISt4pairINSt7__cxx1112basic_stringIcSt11char_traitsIcESaIcEEES9_ESaISA_EE, ptr @_ZNK19OpenColorIO_v2_4dev12_GLOBAL__N_121GradingRGBCurveWriter12writeContentEv, ptr @_ZNK19OpenColorIO_v2_4dev12_GLOBAL__N_18OpWriter19writeFormatMetadataEv] }, align 8
@_ZTSN19OpenColorIO_v2_4dev12_GLOBAL__N_121GradingRGBCurveWriterE = internal constant [61 x i8] c"N19OpenColorIO_v2_4dev12_GLOBAL__N_121GradingRGBCurveWriterE\00", align 1
@_ZTIN19OpenColorIO_v2_4dev12_GLOBAL__N_121GradingRGBCurveWriterE = internal constant { ptr, ptr, ptr } { ptr getelementptr inbounds (ptr, ptr @_ZTVN10__cxxabiv120__si_class_type_infoE, i64 2), ptr @_ZTSN19OpenColorIO_v2_4dev12_GLOBAL__N_121GradingRGBCurveWriterE, ptr @_ZTIN19OpenColorIO_v2_4dev12_GLOBAL__N_18OpWriterE }, align 8
@_ZN19OpenColorIO_v2_4devL13TAG_RGB_CURVEE = internal constant [16 x i8] c"GradingRGBCurve\00", align 16
@_ZN19OpenColorIO_v2_4devL22ATTR_BYPASS_LIN_TO_LOGE = internal constant [15 x i8] c"bypassLinToLog\00", align 1
@.str.48 = private unnamed_addr constant [5 x i8] c"true\00", align 1
@_ZN19OpenColorIO_v2_4dev19GradingRGBCurveImpl10DefaultLinE = external global %"class.OpenColorIO_v2_4dev::GradingBSplineCurveImpl", align 8
@_ZN19OpenColorIO_v2_4dev19GradingRGBCurveImpl7DefaultE = external global %"class.OpenColorIO_v2_4dev::GradingBSplineCurveImpl", align 8
@_ZZNK19OpenColorIO_v2_4dev12_GLOBAL__N_121GradingRGBCurveWriter12writeContentEvE9curveTags = internal global %"class.std::vector.118" zeroinitializer, align 8
@_ZGVZNK19OpenColorIO_v2_4dev12_GLOBAL__N_121GradingRGBCurveWriter12writeContentEvE9curveTags = internal global i64 0, align 8
@_ZN19OpenColorIO_v2_4devL17TAG_RGB_CURVE_REDE = internal constant [4 x i8] c"Red\00", align 1
@_ZN19OpenColorIO_v2_4devL19TAG_RGB_CURVE_GREENE = internal constant [6 x i8] c"Green\00", align 1
@_ZN19OpenColorIO_v2_4devL18TAG_RGB_CURVE_BLUEE = internal constant [5 x i8] c"Blue\00", align 1
@_ZN19OpenColorIO_v2_4devL20TAG_RGB_CURVE_MASTERE = internal constant [7 x i8] c"Master\00", align 1
@constinit = private constant [4 x ptr] [ptr @_ZN19OpenColorIO_v2_4devL17TAG_RGB_CURVE_REDE, ptr @_ZN19OpenColorIO_v2_4devL19TAG_RGB_CURVE_GREENE, ptr @_ZN19OpenColorIO_v2_4devL18TAG_RGB_CURVE_BLUEE, ptr @_ZN19OpenColorIO_v2_4devL20TAG_RGB_CURVE_MASTERE], align 8
@_ZN19OpenColorIO_v2_4devL21TAG_DYN_PROP_RGBCURVEE = internal constant [10 x i8] c"RGB_CURVE\00", align 1
@.str.49 = private unnamed_addr constant [49 x i8] c"cannot create std::vector larger than max_size()\00", align 1
@_ZN19OpenColorIO_v2_4devL19TAG_CURVE_CTRL_PNTSE = internal constant [14 x i8] c"ControlPoints\00", align 1
@_ZN19OpenColorIO_v2_4devL16TAG_CURVE_SLOPESE = internal constant [7 x i8] c"Slopes\00", align 1
@_ZTVN19OpenColorIO_v2_4dev12_GLOBAL__N_117GradingToneWriterE = internal unnamed_addr constant { [10 x ptr] } { [10 x ptr] [ptr null, ptr @_ZTIN19OpenColorIO_v2_4dev12_GLOBAL__N_117GradingToneWriterE, ptr @_ZN19OpenColorIO_v2_4dev12_GLOBAL__N_117GradingToneWriterD2Ev, ptr @_ZN19OpenColorIO_v2_4dev12_GLOBAL__N_117GradingToneWriterD0Ev, ptr @_ZNK19OpenColorIO_v2_4dev12_GLOBAL__N_18OpWriter5writeEv, ptr @_ZNK19OpenColorIO_v2_4dev12_GLOBAL__N_117GradingToneWriter5getOpEv, ptr @_ZNK19OpenColorIO_v2_4dev12_GLOBAL__N_117GradingToneWriter10getTagNameEv, ptr @_ZNK19OpenColorIO_v2_4dev12_GLOBAL__N_117GradingToneWriter13getAttributesERSt6vectorISt4pairINSt7__cxx1112basic_stringIcSt11char_traitsIcESaIcEEES9_ESaISA_EE, ptr @_ZNK19OpenColorIO_v2_4dev12_GLOBAL__N_117GradingToneWriter12writeContentEv, ptr @_ZNK19OpenColorIO_v2_4dev12_GLOBAL__N_18OpWriter19writeFormatMetadataEv] }, align 8
@_ZTSN19OpenColorIO_v2_4dev12_GLOBAL__N_117GradingToneWriterE = internal constant [57 x i8] c"N19OpenColorIO_v2_4dev12_GLOBAL__N_117GradingToneWriterE\00", align 1
@_ZTIN19OpenColorIO_v2_4dev12_GLOBAL__N_117GradingToneWriterE = internal constant { ptr, ptr, ptr } { ptr getelementptr inbounds (ptr, ptr @_ZTVN10__cxxabiv120__si_class_type_infoE, i64 2), ptr @_ZTSN19OpenColorIO_v2_4dev12_GLOBAL__N_117GradingToneWriterE, ptr @_ZTIN19OpenColorIO_v2_4dev12_GLOBAL__N_18OpWriterE }, align 8
@_ZN19OpenColorIO_v2_4devL8TAG_TONEE = internal constant [12 x i8] c"GradingTone\00", align 1
@_ZN19OpenColorIO_v2_4devL15TAG_TONE_BLACKSE = internal constant [7 x i8] c"Blacks\00", align 1
@_ZN19OpenColorIO_v2_4devL16TAG_TONE_SHADOWSE = internal constant [8 x i8] c"Shadows\00", align 1
@_ZN19OpenColorIO_v2_4devL17TAG_TONE_MIDTONESE = internal constant [9 x i8] c"Midtones\00", align 1
@_ZN19OpenColorIO_v2_4devL19TAG_TONE_HIGHLIGHTSE = internal constant [11 x i8] c"Highlights\00", align 1
@_ZN19OpenColorIO_v2_4devL15TAG_TONE_WHITESE = internal constant [7 x i8] c"Whites\00", align 1
@_ZN19OpenColorIO_v2_4devL18TAG_TONE_SCONTRASTE = internal constant [10 x i8] c"SContrast\00", align 1
@_ZN19OpenColorIO_v2_4devL17TAG_DYN_PROP_TONEE = internal constant [5 x i8] c"TONE\00", align 1
@_ZN19OpenColorIO_v2_4devL11ATTR_CENTERE = internal constant [7 x i8] c"center\00", align 1
@_ZN19OpenColorIO_v2_4devL10ATTR_STARTE = internal constant [6 x i8] c"start\00", align 1
@_ZN19OpenColorIO_v2_4devL10ATTR_WIDTHE = internal constant [6 x i8] c"width\00", align 1
@_ZTVN19OpenColorIO_v2_4dev12_GLOBAL__N_19LogWriterE = internal unnamed_addr constant { [10 x ptr] } { [10 x ptr] [ptr null, ptr @_ZTIN19OpenColorIO_v2_4dev12_GLOBAL__N_19LogWriterE, ptr @_ZN19OpenColorIO_v2_4dev12_GLOBAL__N_19LogWriterD2Ev, ptr @_ZN19OpenColorIO_v2_4dev12_GLOBAL__N_19LogWriterD0Ev, ptr @_ZNK19OpenColorIO_v2_4dev12_GLOBAL__N_18OpWriter5writeEv, ptr @_ZNK19OpenColorIO_v2_4dev12_GLOBAL__N_19LogWriter5getOpEv, ptr @_ZNK19OpenColorIO_v2_4dev12_GLOBAL__N_19LogWriter10getTagNameEv, ptr @_ZNK19OpenColorIO_v2_4dev12_GLOBAL__N_19LogWriter13getAttributesERSt6vectorISt4pairINSt7__cxx1112basic_stringIcSt11char_traitsIcESaIcEEES9_ESaISA_EE, ptr @_ZNK19OpenColorIO_v2_4dev12_GLOBAL__N_19LogWriter12writeContentEv, ptr @_ZNK19OpenColorIO_v2_4dev12_GLOBAL__N_18OpWriter19writeFormatMetadataEv] }, align 8
@_ZTSN19OpenColorIO_v2_4dev12_GLOBAL__N_19LogWriterE = internal constant [48 x i8] c"N19OpenColorIO_v2_4dev12_GLOBAL__N_19LogWriterE\00", align 1
@_ZTIN19OpenColorIO_v2_4dev12_GLOBAL__N_19LogWriterE = internal constant { ptr, ptr, ptr } { ptr getelementptr inbounds (ptr, ptr @_ZTVN10__cxxabiv120__si_class_type_infoE, i64 2), ptr @_ZTSN19OpenColorIO_v2_4dev12_GLOBAL__N_19LogWriterE, ptr @_ZTIN19OpenColorIO_v2_4dev12_GLOBAL__N_18OpWriterE }, align 8
@_ZN19OpenColorIO_v2_4devL7TAG_LOGE = internal constant [4 x i8] c"Log\00", align 1
@_ZN19OpenColorIO_v2_4dev7LogUtilL8LOG2_STRE = internal constant [5 x i8] c"log2\00", align 1
@_ZN19OpenColorIO_v2_4dev7LogUtilL13ANTI_LOG2_STRE = internal constant [9 x i8] c"antiLog2\00", align 1
@_ZN19OpenColorIO_v2_4dev7LogUtilL9LOG10_STRE = internal constant [6 x i8] c"log10\00", align 1
@_ZN19OpenColorIO_v2_4dev7LogUtilL14ANTI_LOG10_STRE = internal constant [10 x i8] c"antiLog10\00", align 1
@_ZN19OpenColorIO_v2_4dev7LogUtilL21CAMERA_LIN_TO_LOG_STRE = internal constant [15 x i8] c"cameraLinToLog\00", align 1
@_ZN19OpenColorIO_v2_4dev7LogUtilL21CAMERA_LOG_TO_LIN_STRE = internal constant [15 x i8] c"cameraLogToLin\00", align 1
@_ZN19OpenColorIO_v2_4dev7LogUtilL14LIN_TO_LOG_STRE = internal constant [9 x i8] c"linToLog\00", align 1
@_ZN19OpenColorIO_v2_4dev7LogUtilL14LOG_TO_LIN_STRE = internal constant [9 x i8] c"logToLin\00", align 1
@_ZN19OpenColorIO_v2_4devL14TAG_LOG_PARAMSE = internal constant [10 x i8] c"LogParams\00", align 1
@_ZN19OpenColorIO_v2_4devL9ATTR_BASEE = internal constant [5 x i8] c"base\00", align 1
@_ZN19OpenColorIO_v2_4devL17ATTR_LINSIDESLOPEE = internal constant [13 x i8] c"linSideSlope\00", align 1
@_ZN19OpenColorIO_v2_4devL18ATTR_LINSIDEOFFSETE = internal constant [14 x i8] c"linSideOffset\00", align 1
@_ZN19OpenColorIO_v2_4devL17ATTR_LOGSIDESLOPEE = internal constant [13 x i8] c"logSideSlope\00", align 1
@_ZN19OpenColorIO_v2_4devL18ATTR_LOGSIDEOFFSETE = internal constant [14 x i8] c"logSideOffset\00", align 1
@_ZN19OpenColorIO_v2_4devL17ATTR_LINSIDEBREAKE = internal constant [13 x i8] c"linSideBreak\00", align 1
@_ZN19OpenColorIO_v2_4devL16ATTR_LINEARSLOPEE = internal constant [12 x i8] c"linearSlope\00", align 1
@_ZTVN19OpenColorIO_v2_4dev12_GLOBAL__N_111Lut1DWriterE = internal unnamed_addr constant { [10 x ptr] } { [10 x ptr] [ptr null, ptr @_ZTIN19OpenColorIO_v2_4dev12_GLOBAL__N_111Lut1DWriterE, ptr @_ZN19OpenColorIO_v2_4dev12_GLOBAL__N_111Lut1DWriterD2Ev, ptr @_ZN19OpenColorIO_v2_4dev12_GLOBAL__N_111Lut1DWriterD0Ev, ptr @_ZNK19OpenColorIO_v2_4dev12_GLOBAL__N_18OpWriter5writeEv, ptr @_ZNK19OpenColorIO_v2_4dev12_GLOBAL__N_111Lut1DWriter5getOpEv, ptr @_ZNK19OpenColorIO_v2_4dev12_GLOBAL__N_111Lut1DWriter10getTagNameEv, ptr @_ZNK19OpenColorIO_v2_4dev12_GLOBAL__N_111Lut1DWriter13getAttributesERSt6vectorISt4pairINSt7__cxx1112basic_stringIcSt11char_traitsIcESaIcEEES9_ESaISA_EE, ptr @_ZNK19OpenColorIO_v2_4dev12_GLOBAL__N_111Lut1DWriter12writeContentEv, ptr @_ZNK19OpenColorIO_v2_4dev12_GLOBAL__N_18OpWriter19writeFormatMetadataEv] }, align 8
@_ZTSN19OpenColorIO_v2_4dev12_GLOBAL__N_111Lut1DWriterE = internal constant [51 x i8] c"N19OpenColorIO_v2_4dev12_GLOBAL__N_111Lut1DWriterE\00", align 1
@_ZTIN19OpenColorIO_v2_4dev12_GLOBAL__N_111Lut1DWriterE = internal constant { ptr, ptr, ptr } { ptr getelementptr inbounds (ptr, ptr @_ZTVN10__cxxabiv120__si_class_type_infoE, i64 2), ptr @_ZTSN19OpenColorIO_v2_4dev12_GLOBAL__N_111Lut1DWriterE, ptr @_ZTIN19OpenColorIO_v2_4dev12_GLOBAL__N_18OpWriterE }, align 8
@_ZN19OpenColorIO_v2_4devL9TAG_LUT1DE = internal constant [6 x i8] c"LUT1D\00", align 1
@_ZN19OpenColorIO_v2_4devL12TAG_INVLUT1DE = internal constant [13 x i8] c"InverseLUT1D\00", align 1
@_ZN19OpenColorIO_v2_4devL18ATTR_INTERPOLATIONE = internal constant [14 x i8] c"interpolation\00", align 1
@_ZN19OpenColorIO_v2_4devL16ATTR_HALF_DOMAINE = internal constant [11 x i8] c"halfDomain\00", align 1
@_ZN19OpenColorIO_v2_4devL14ATTR_RAW_HALFSE = internal constant [9 x i8] c"rawHalfs\00", align 1
@_ZN19OpenColorIO_v2_4devL15ATTR_HUE_ADJUSTE = internal constant [10 x i8] c"hueAdjust\00", align 1
@.str.50 = private unnamed_addr constant [4 x i8] c"dw3\00", align 1
@_ZN19OpenColorIO_v2_4devL14ATTR_DIMENSIONE = internal constant [4 x i8] c"dim\00", align 1
@_ZN19OpenColorIO_v2_4devL9TAG_ARRAYE = internal constant [6 x i8] c"Array\00", align 1
@.str.51 = private unnamed_addr constant [26 x i8] c"vector::_M_default_append\00", align 1
@.str.52 = private unnamed_addr constant [22 x i8] c"Unsupported bitdepth.\00", align 1
@.str.53 = private unnamed_addr constant [18 x i8] c"Unknown bitdepth.\00", align 1
@.str.54 = private unnamed_addr constant [2 x i8] c"\0A\00", align 1
@.str.55 = private unnamed_addr constant [4 x i8] c"Op \00", align 1
@.str.56 = private unnamed_addr constant [14 x i8] c". Bit-depth: \00", align 1
@.str.57 = private unnamed_addr constant [42 x i8] c" is not supported for writing to CLF/CTF.\00", align 1
@_ZTVN19OpenColorIO_v2_4dev12_GLOBAL__N_111Lut3DWriterE = internal unnamed_addr constant { [10 x ptr] } { [10 x ptr] [ptr null, ptr @_ZTIN19OpenColorIO_v2_4dev12_GLOBAL__N_111Lut3DWriterE, ptr @_ZN19OpenColorIO_v2_4dev12_GLOBAL__N_111Lut3DWriterD2Ev, ptr @_ZN19OpenColorIO_v2_4dev12_GLOBAL__N_111Lut3DWriterD0Ev, ptr @_ZNK19OpenColorIO_v2_4dev12_GLOBAL__N_18OpWriter5writeEv, ptr @_ZNK19OpenColorIO_v2_4dev12_GLOBAL__N_111Lut3DWriter5getOpEv, ptr @_ZNK19OpenColorIO_v2_4dev12_GLOBAL__N_111Lut3DWriter10getTagNameEv, ptr @_ZNK19OpenColorIO_v2_4dev12_GLOBAL__N_111Lut3DWriter13getAttributesERSt6vectorISt4pairINSt7__cxx1112basic_stringIcSt11char_traitsIcESaIcEEES9_ESaISA_EE, ptr @_ZNK19OpenColorIO_v2_4dev12_GLOBAL__N_111Lut3DWriter12writeContentEv, ptr @_ZNK19OpenColorIO_v2_4dev12_GLOBAL__N_18OpWriter19writeFormatMetadataEv] }, align 8
@_ZTSN19OpenColorIO_v2_4dev12_GLOBAL__N_111Lut3DWriterE = internal constant [51 x i8] c"N19OpenColorIO_v2_4dev12_GLOBAL__N_111Lut3DWriterE\00", align 1
@_ZTIN19OpenColorIO_v2_4dev12_GLOBAL__N_111Lut3DWriterE = internal constant { ptr, ptr, ptr } { ptr getelementptr inbounds (ptr, ptr @_ZTVN10__cxxabiv120__si_class_type_infoE, i64 2), ptr @_ZTSN19OpenColorIO_v2_4dev12_GLOBAL__N_111Lut3DWriterE, ptr @_ZTIN19OpenColorIO_v2_4dev12_GLOBAL__N_18OpWriterE }, align 8
@_ZN19OpenColorIO_v2_4devL9TAG_LUT3DE = internal constant [6 x i8] c"LUT3D\00", align 1
@_ZN19OpenColorIO_v2_4devL12TAG_INVLUT3DE = internal constant [13 x i8] c"InverseLUT3D\00", align 1
@_ZTVN19OpenColorIO_v2_4dev12_GLOBAL__N_112MatrixWriterE = internal unnamed_addr constant { [10 x ptr] } { [10 x ptr] [ptr null, ptr @_ZTIN19OpenColorIO_v2_4dev12_GLOBAL__N_112MatrixWriterE, ptr @_ZN19OpenColorIO_v2_4dev12_GLOBAL__N_112MatrixWriterD2Ev, ptr @_ZN19OpenColorIO_v2_4dev12_GLOBAL__N_112MatrixWriterD0Ev, ptr @_ZNK19OpenColorIO_v2_4dev12_GLOBAL__N_18OpWriter5writeEv, ptr @_ZNK19OpenColorIO_v2_4dev12_GLOBAL__N_112MatrixWriter5getOpEv, ptr @_ZNK19OpenColorIO_v2_4dev12_GLOBAL__N_112MatrixWriter10getTagNameEv, ptr @_ZNK19OpenColorIO_v2_4dev12_GLOBAL__N_18OpWriter13getAttributesERSt6vectorISt4pairINSt7__cxx1112basic_stringIcSt11char_traitsIcESaIcEEES9_ESaISA_EE, ptr @_ZNK19OpenColorIO_v2_4dev12_GLOBAL__N_112MatrixWriter12writeContentEv, ptr @_ZNK19OpenColorIO_v2_4dev12_GLOBAL__N_18OpWriter19writeFormatMetadataEv] }, align 8
@_ZTSN19OpenColorIO_v2_4dev12_GLOBAL__N_112MatrixWriterE = internal constant [52 x i8] c"N19OpenColorIO_v2_4dev12_GLOBAL__N_112MatrixWriterE\00", align 1
@_ZTIN19OpenColorIO_v2_4dev12_GLOBAL__N_112MatrixWriterE = internal constant { ptr, ptr, ptr } { ptr getelementptr inbounds (ptr, ptr @_ZTVN10__cxxabiv120__si_class_type_infoE, i64 2), ptr @_ZTSN19OpenColorIO_v2_4dev12_GLOBAL__N_112MatrixWriterE, ptr @_ZTIN19OpenColorIO_v2_4dev12_GLOBAL__N_18OpWriterE }, align 8
@_ZN19OpenColorIO_v2_4devL10TAG_MATRIXE = internal constant [7 x i8] c"Matrix\00", align 1
@.str.58 = private unnamed_addr constant [6 x i8] c"4 5 4\00", align 1
@.str.59 = private unnamed_addr constant [4 x i8] c"4 5\00", align 1
@.str.60 = private unnamed_addr constant [6 x i8] c"4 4 4\00", align 1
@.str.61 = private unnamed_addr constant [4 x i8] c"4 4\00", align 1
@.str.62 = private unnamed_addr constant [6 x i8] c"3 4 3\00", align 1
@.str.63 = private unnamed_addr constant [4 x i8] c"3 4\00", align 1
@.str.64 = private unnamed_addr constant [6 x i8] c"3 3 3\00", align 1
@.str.65 = private unnamed_addr constant [4 x i8] c"3 3\00", align 1
@_ZTVN19OpenColorIO_v2_4dev12_GLOBAL__N_111RangeWriterE = internal unnamed_addr constant { [10 x ptr] } { [10 x ptr] [ptr null, ptr @_ZTIN19OpenColorIO_v2_4dev12_GLOBAL__N_111RangeWriterE, ptr @_ZN19OpenColorIO_v2_4dev12_GLOBAL__N_111RangeWriterD2Ev, ptr @_ZN19OpenColorIO_v2_4dev12_GLOBAL__N_111RangeWriterD0Ev, ptr @_ZNK19OpenColorIO_v2_4dev12_GLOBAL__N_18OpWriter5writeEv, ptr @_ZNK19OpenColorIO_v2_4dev12_GLOBAL__N_111RangeWriter5getOpEv, ptr @_ZNK19OpenColorIO_v2_4dev12_GLOBAL__N_111RangeWriter10getTagNameEv, ptr @_ZNK19OpenColorIO_v2_4dev12_GLOBAL__N_18OpWriter13getAttributesERSt6vectorISt4pairINSt7__cxx1112basic_stringIcSt11char_traitsIcESaIcEEES9_ESaISA_EE, ptr @_ZNK19OpenColorIO_v2_4dev12_GLOBAL__N_111RangeWriter12writeContentEv, ptr @_ZNK19OpenColorIO_v2_4dev12_GLOBAL__N_18OpWriter19writeFormatMetadataEv] }, align 8
@_ZTSN19OpenColorIO_v2_4dev12_GLOBAL__N_111RangeWriterE = internal constant [51 x i8] c"N19OpenColorIO_v2_4dev12_GLOBAL__N_111RangeWriterE\00", align 1
@_ZTIN19OpenColorIO_v2_4dev12_GLOBAL__N_111RangeWriterE = internal constant { ptr, ptr, ptr } { ptr getelementptr inbounds (ptr, ptr @_ZTVN10__cxxabiv120__si_class_type_infoE, i64 2), ptr @_ZTSN19OpenColorIO_v2_4dev12_GLOBAL__N_111RangeWriterE, ptr @_ZTIN19OpenColorIO_v2_4dev12_GLOBAL__N_18OpWriterE }, align 8
@_ZN19OpenColorIO_v2_4devL9TAG_RANGEE = internal constant [6 x i8] c"Range\00", align 1
@_ZN19OpenColorIO_v2_4devL16TAG_MIN_IN_VALUEE = internal constant [11 x i8] c"minInValue\00", align 1
@_ZN19OpenColorIO_v2_4devL16TAG_MAX_IN_VALUEE = internal constant [11 x i8] c"maxInValue\00", align 1
@_ZN19OpenColorIO_v2_4devL17TAG_MIN_OUT_VALUEE = internal constant [12 x i8] c"minOutValue\00", align 1
@_ZN19OpenColorIO_v2_4devL17TAG_MAX_OUT_VALUEE = internal constant [12 x i8] c"maxOutValue\00", align 1
@.str.66 = private unnamed_addr constant [26 x i8] c"vector::_M_realloc_insert\00", align 1
@_ZTIN19OpenColorIO_v2_4dev6OpDataE = external constant ptr
@_ZTIN19OpenColorIO_v2_4dev22ExposureContrastOpDataE = external constant ptr
@_ZTIN19OpenColorIO_v2_4dev19FixedFunctionOpDataE = external constant ptr
@_ZTIN19OpenColorIO_v2_4dev14ExponentOpDataE = external constant ptr
@_ZTIN19OpenColorIO_v2_4dev11GammaOpDataE = external constant ptr
@_ZTIN19OpenColorIO_v2_4dev11Lut1DOpDataE = external constant ptr
@_ZTIN19OpenColorIO_v2_4dev11Lut3DOpDataE = external constant ptr
@_ZTIN19OpenColorIO_v2_4dev12MatrixOpDataE = external constant ptr
@_ZTIN19OpenColorIO_v2_4dev11RangeOpDataE = external constant ptr
@_ZTIN19OpenColorIO_v2_4dev9CDLOpDataE = external constant ptr
@_ZTVSt23_Sp_counted_ptr_inplaceIN19OpenColorIO_v2_4dev11GammaOpDataESaIvELN9__gnu_cxx12_Lock_policyE2EE = linkonce_odr hidden unnamed_addr constant { [7 x ptr] } { [7 x ptr] [ptr null, ptr @_ZTISt23_Sp_counted_ptr_inplaceIN19OpenColorIO_v2_4dev11GammaOpDataESaIvELN9__gnu_cxx12_Lock_policyE2EE, ptr @_ZNSt23_Sp_counted_ptr_inplaceIN19OpenColorIO_v2_4dev11GammaOpDataESaIvELN9__gnu_cxx12_Lock_policyE2EED2Ev, ptr @_ZNSt23_Sp_counted_ptr_inplaceIN19OpenColorIO_v2_4dev11GammaOpDataESaIvELN9__gnu_cxx12_Lock_policyE2EED0Ev, ptr @_ZNSt23_Sp_counted_ptr_inplaceIN19OpenColorIO_v2_4dev11GammaOpDataESaIvELN9__gnu_cxx12_Lock_policyE2EE10_M_disposeEv, ptr @_ZNSt23_Sp_counted_ptr_inplaceIN19OpenColorIO_v2_4dev11GammaOpDataESaIvELN9__gnu_cxx12_Lock_policyE2EE10_M_destroyEv, ptr @_ZNSt23_Sp_counted_ptr_inplaceIN19OpenColorIO_v2_4dev11GammaOpDataESaIvELN9__gnu_cxx12_Lock_policyE2EE14_M_get_deleterERKSt9type_info] }, comdat, align 8
@_ZTSSt23_Sp_counted_ptr_inplaceIN19OpenColorIO_v2_4dev11GammaOpDataESaIvELN9__gnu_cxx12_Lock_policyE2EE = linkonce_odr hidden constant [100 x i8] c"St23_Sp_counted_ptr_inplaceIN19OpenColorIO_v2_4dev11GammaOpDataESaIvELN9__gnu_cxx12_Lock_policyE2EE\00", comdat, align 1
@_ZTSSt16_Sp_counted_baseILN9__gnu_cxx12_Lock_policyE2EE = linkonce_odr constant [52 x i8] c"St16_Sp_counted_baseILN9__gnu_cxx12_Lock_policyE2EE\00", comdat, align 1
@_ZTVN10__cxxabiv117__class_type_infoE = external global [0 x ptr]
@_ZTSSt11_Mutex_baseILN9__gnu_cxx12_Lock_policyE2EE = linkonce_odr constant [47 x i8] c"St11_Mutex_baseILN9__gnu_cxx12_Lock_policyE2EE\00", comdat, align 1
@_ZTISt11_Mutex_baseILN9__gnu_cxx12_Lock_policyE2EE = linkonce_odr constant { ptr, ptr } { ptr getelementptr inbounds (ptr, ptr @_ZTVN10__cxxabiv117__class_type_infoE, i64 2), ptr @_ZTSSt11_Mutex_baseILN9__gnu_cxx12_Lock_policyE2EE }, comdat, align 8
@_ZTISt16_Sp_counted_baseILN9__gnu_cxx12_Lock_policyE2EE = linkonce_odr constant { ptr, ptr, ptr } { ptr getelementptr inbounds (ptr, ptr @_ZTVN10__cxxabiv120__si_class_type_infoE, i64 2), ptr @_ZTSSt16_Sp_counted_baseILN9__gnu_cxx12_Lock_policyE2EE, ptr @_ZTISt11_Mutex_baseILN9__gnu_cxx12_Lock_policyE2EE }, comdat, align 8
@_ZTISt23_Sp_counted_ptr_inplaceIN19OpenColorIO_v2_4dev11GammaOpDataESaIvELN9__gnu_cxx12_Lock_policyE2EE = linkonce_odr hidden constant { ptr, ptr, ptr } { ptr getelementptr inbounds (ptr, ptr @_ZTVN10__cxxabiv120__si_class_type_infoE, i64 2), ptr @_ZTSSt23_Sp_counted_ptr_inplaceIN19OpenColorIO_v2_4dev11GammaOpDataESaIvELN9__gnu_cxx12_Lock_policyE2EE, ptr @_ZTISt16_Sp_counted_baseILN9__gnu_cxx12_Lock_policyE2EE }, comdat, align 8
@_ZTVSt16_Sp_counted_baseILN9__gnu_cxx12_Lock_policyE2EE = linkonce_odr unnamed_addr constant { [7 x ptr] } { [7 x ptr] [ptr null, ptr @_ZTISt16_Sp_counted_baseILN9__gnu_cxx12_Lock_policyE2EE, ptr @_ZNSt16_Sp_counted_baseILN9__gnu_cxx12_Lock_policyE2EED2Ev, ptr @_ZNSt16_Sp_counted_baseILN9__gnu_cxx12_Lock_policyE2EED0Ev, ptr @__cxa_pure_virtual, ptr @_ZNSt16_Sp_counted_baseILN9__gnu_cxx12_Lock_policyE2EE10_M_destroyEv, ptr @__cxa_pure_virtual] }, comdat, align 8
@_ZTSSt19_Sp_make_shared_tag = linkonce_odr constant [24 x i8] c"St19_Sp_make_shared_tag\00", comdat, align 1
@_ZTISt19_Sp_make_shared_tag = linkonce_odr constant { ptr, ptr } { ptr getelementptr inbounds (ptr, ptr @_ZTVN10__cxxabiv117__class_type_infoE, i64 2), ptr @_ZTSSt19_Sp_make_shared_tag }, comdat, align 8
@_ZZNSt19_Sp_make_shared_tag5_S_tiEvE5__tag = linkonce_odr constant [16 x i8] zeroinitializer, comdat, align 8
@_ZTIN19OpenColorIO_v2_4dev20GradingPrimaryOpDataE = external constant ptr
@_ZTIN19OpenColorIO_v2_4dev21GradingRGBCurveOpDataE = external constant ptr
@_ZTIN19OpenColorIO_v2_4dev17GradingToneOpDataE = external constant ptr
@_ZTIN19OpenColorIO_v2_4dev9LogOpDataE = external constant ptr
@_ZTVSt23_Sp_counted_ptr_inplaceIN19OpenColorIO_v2_4dev12MatrixOpDataESaIvELN9__gnu_cxx12_Lock_policyE2EE = linkonce_odr hidden unnamed_addr constant { [7 x ptr] } { [7 x ptr] [ptr null, ptr @_ZTISt23_Sp_counted_ptr_inplaceIN19OpenColorIO_v2_4dev12MatrixOpDataESaIvELN9__gnu_cxx12_Lock_policyE2EE, ptr @_ZNSt23_Sp_counted_ptr_inplaceIN19OpenColorIO_v2_4dev12MatrixOpDataESaIvELN9__gnu_cxx12_Lock_policyE2EED2Ev, ptr @_ZNSt23_Sp_counted_ptr_inplaceIN19OpenColorIO_v2_4dev12MatrixOpDataESaIvELN9__gnu_cxx12_Lock_policyE2EED0Ev, ptr @_ZNSt23_Sp_counted_ptr_inplaceIN19OpenColorIO_v2_4dev12MatrixOpDataESaIvELN9__gnu_cxx12_Lock_policyE2EE10_M_disposeEv, ptr @_ZNSt23_Sp_counted_ptr_inplaceIN19OpenColorIO_v2_4dev12MatrixOpDataESaIvELN9__gnu_cxx12_Lock_policyE2EE10_M_destroyEv, ptr @_ZNSt23_Sp_counted_ptr_inplaceIN19OpenColorIO_v2_4dev12MatrixOpDataESaIvELN9__gnu_cxx12_Lock_policyE2EE14_M_get_deleterERKSt9type_info] }, comdat, align 8
@_ZTSSt23_Sp_counted_ptr_inplaceIN19OpenColorIO_v2_4dev12MatrixOpDataESaIvELN9__gnu_cxx12_Lock_policyE2EE = linkonce_odr hidden constant [101 x i8] c"St23_Sp_counted_ptr_inplaceIN19OpenColorIO_v2_4dev12MatrixOpDataESaIvELN9__gnu_cxx12_Lock_policyE2EE\00", comdat, align 1
@_ZTISt23_Sp_counted_ptr_inplaceIN19OpenColorIO_v2_4dev12MatrixOpDataESaIvELN9__gnu_cxx12_Lock_policyE2EE = linkonce_odr hidden constant { ptr, ptr, ptr } { ptr getelementptr inbounds (ptr, ptr @_ZTVN10__cxxabiv120__si_class_type_infoE, i64 2), ptr @_ZTSSt23_Sp_counted_ptr_inplaceIN19OpenColorIO_v2_4dev12MatrixOpDataESaIvELN9__gnu_cxx12_Lock_policyE2EE, ptr @_ZTISt16_Sp_counted_baseILN9__gnu_cxx12_Lock_policyE2EE }, comdat, align 8
@llvm.global_ctors = appending global [1 x { i32, ptr, ptr }] [{ i32, ptr, ptr } { i32 65535, ptr @_GLOBAL__sub_I_CTFTransform.cpp, ptr null }]

@_ZN19OpenColorIO_v2_4dev18CTFReaderTransformC1Ev = hidden unnamed_addr alias void (ptr), ptr @_ZN19OpenColorIO_v2_4dev18CTFReaderTransformC2Ev
@_ZN19OpenColorIO_v2_4dev18CTFReaderTransformC1ERKNS_10OpRcPtrVecERKNS_18FormatMetadataImplE = hidden unnamed_addr alias void (ptr, ptr, ptr), ptr @_ZN19OpenColorIO_v2_4dev18CTFReaderTransformC2ERKNS_10OpRcPtrVecERKNS_18FormatMetadataImplE
@_ZN19OpenColorIO_v2_4dev15TransformWriterC1ERNS_12XmlFormatterESt10shared_ptrIKNS_18CTFReaderTransformEEb = hidden unnamed_addr alias void (ptr, ptr, ptr, i1), ptr @_ZN19OpenColorIO_v2_4dev15TransformWriterC2ERNS_12XmlFormatterESt10shared_ptrIKNS_18CTFReaderTransformEEb
@_ZN19OpenColorIO_v2_4dev15TransformWriterD1Ev = hidden unnamed_addr alias void (ptr), ptr @_ZN19OpenColorIO_v2_4dev15TransformWriterD2Ev

; Function Attrs: uwtable
define internal void @__cxx_global_var_init() #0 section ".text.startup" {
entry:
  call void @_ZNSt8ios_base4InitC1Ev(ptr noundef nonnull align 1 dereferenceable(1) @_ZStL8__ioinit)
  %0 = call i32 @__cxa_atexit(ptr @_ZNSt8ios_base4InitD1Ev, ptr @_ZStL8__ioinit, ptr @__dso_handle) #3
  ret void
}

declare void @_ZNSt8ios_base4InitC1Ev(ptr noundef nonnull align 1 dereferenceable(1)) unnamed_addr #1

; Function Attrs: nounwind
declare void @_ZNSt8ios_base4InitD1Ev(ptr noundef nonnull align 1 dereferenceable(1)) unnamed_addr #2

; Function Attrs: nounwind
declare i32 @__cxa_atexit(ptr, ptr, ptr) #3

; Function Attrs: uwtable
define internal void @__cxx_global_var_init.1() #0 section ".text.startup" {
entry:
  call void @_ZN19OpenColorIO_v2_4dev10CTFVersionC2Ejj(ptr noundef nonnull align 4 dereferenceable(12) @_ZN19OpenColorIO_v2_4devL28CTF_PROCESS_LIST_VERSION_1_2E, i32 noundef 1, i32 noundef 2)
  %0 = call i32 @__cxa_atexit(ptr @_ZN19OpenColorIO_v2_4dev10CTFVersionD2Ev, ptr @_ZN19OpenColorIO_v2_4devL28CTF_PROCESS_LIST_VERSION_1_2E, ptr @__dso_handle) #3
  ret void
}

; Function Attrs: mustprogress nounwind uwtable
define linkonce_odr hidden void @_ZN19OpenColorIO_v2_4dev10CTFVersionC2Ejj(ptr noundef nonnull align 4 dereferenceable(12) %this, i32 noundef %major, i32 noundef %minor) unnamed_addr #4 comdat align 2 {
entry:
  %this.addr = alloca ptr, align 8
  %major.addr = alloca i32, align 4
  %minor.addr = alloca i32, align 4
  store ptr %this, ptr %this.addr, align 8
  store i32 %major, ptr %major.addr, align 4
  store i32 %minor, ptr %minor.addr, align 4
  %this1 = load ptr, ptr %this.addr, align 8
  %m_major = getelementptr inbounds %"class.OpenColorIO_v2_4dev::CTFVersion", ptr %this1, i32 0, i32 0
  %0 = load i32, ptr %major.addr, align 4
  store i32 %0, ptr %m_major, align 4
  %m_minor = getelementptr inbounds %"class.OpenColorIO_v2_4dev::CTFVersion", ptr %this1, i32 0, i32 1
  %1 = load i32, ptr %minor.addr, align 4
  store i32 %1, ptr %m_minor, align 4
  %m_revision = getelementptr inbounds %"class.OpenColorIO_v2_4dev::CTFVersion", ptr %this1, i32 0, i32 2
  store i32 0, ptr %m_revision, align 4
  ret void
}

; Function Attrs: mustprogress nounwind uwtable
define linkonce_odr hidden void @_ZN19OpenColorIO_v2_4dev10CTFVersionD2Ev(ptr noundef nonnull align 4 dereferenceable(12) %this) unnamed_addr #4 comdat align 2 {
entry:
  %this.addr = alloca ptr, align 8
  store ptr %this, ptr %this.addr, align 8
  ret void
}

; Function Attrs: uwtable
define internal void @__cxx_global_var_init.2() #0 section ".text.startup" {
entry:
  call void @_ZN19OpenColorIO_v2_4dev10CTFVersionC2Ejj(ptr noundef nonnull align 4 dereferenceable(12) @_ZN19OpenColorIO_v2_4devL28CTF_PROCESS_LIST_VERSION_1_3E, i32 noundef 1, i32 noundef 3)
  %0 = call i32 @__cxa_atexit(ptr @_ZN19OpenColorIO_v2_4dev10CTFVersionD2Ev, ptr @_ZN19OpenColorIO_v2_4devL28CTF_PROCESS_LIST_VERSION_1_3E, ptr @__dso_handle) #3
  ret void
}

; Function Attrs: uwtable
define internal void @__cxx_global_var_init.3() #0 section ".text.startup" {
entry:
  call void @_ZN19OpenColorIO_v2_4dev10CTFVersionC2Ejj(ptr noundef nonnull align 4 dereferenceable(12) @_ZN19OpenColorIO_v2_4devL28CTF_PROCESS_LIST_VERSION_1_4E, i32 noundef 1, i32 noundef 4)
  %0 = call i32 @__cxa_atexit(ptr @_ZN19OpenColorIO_v2_4dev10CTFVersionD2Ev, ptr @_ZN19OpenColorIO_v2_4devL28CTF_PROCESS_LIST_VERSION_1_4E, ptr @__dso_handle) #3
  ret void
}

; Function Attrs: uwtable
define internal void @__cxx_global_var_init.4() #0 section ".text.startup" {
entry:
  call void @_ZN19OpenColorIO_v2_4dev10CTFVersionC2Ejj(ptr noundef nonnull align 4 dereferenceable(12) @_ZN19OpenColorIO_v2_4devL28CTF_PROCESS_LIST_VERSION_1_5E, i32 noundef 1, i32 noundef 5)
  %0 = call i32 @__cxa_atexit(ptr @_ZN19OpenColorIO_v2_4dev10CTFVersionD2Ev, ptr @_ZN19OpenColorIO_v2_4devL28CTF_PROCESS_LIST_VERSION_1_5E, ptr @__dso_handle) #3
  ret void
}

; Function Attrs: uwtable
define internal void @__cxx_global_var_init.5() #0 section ".text.startup" {
entry:
  call void @_ZN19OpenColorIO_v2_4dev10CTFVersionC2Ejj(ptr noundef nonnull align 4 dereferenceable(12) @_ZN19OpenColorIO_v2_4devL28CTF_PROCESS_LIST_VERSION_1_6E, i32 noundef 1, i32 noundef 6)
  %0 = call i32 @__cxa_atexit(ptr @_ZN19OpenColorIO_v2_4dev10CTFVersionD2Ev, ptr @_ZN19OpenColorIO_v2_4devL28CTF_PROCESS_LIST_VERSION_1_6E, ptr @__dso_handle) #3
  ret void
}

; Function Attrs: uwtable
define internal void @__cxx_global_var_init.6() #0 section ".text.startup" {
entry:
  call void @_ZN19OpenColorIO_v2_4dev10CTFVersionC2Ejj(ptr noundef nonnull align 4 dereferenceable(12) @_ZN19OpenColorIO_v2_4devL28CTF_PROCESS_LIST_VERSION_1_7E, i32 noundef 1, i32 noundef 7)
  %0 = call i32 @__cxa_atexit(ptr @_ZN19OpenColorIO_v2_4dev10CTFVersionD2Ev, ptr @_ZN19OpenColorIO_v2_4devL28CTF_PROCESS_LIST_VERSION_1_7E, ptr @__dso_handle) #3
  ret void
}

; Function Attrs: uwtable
define internal void @__cxx_global_var_init.7() #0 section ".text.startup" {
entry:
  call void @_ZN19OpenColorIO_v2_4dev10CTFVersionC2Ejj(ptr noundef nonnull align 4 dereferenceable(12) @_ZN19OpenColorIO_v2_4devL28CTF_PROCESS_LIST_VERSION_1_8E, i32 noundef 1, i32 noundef 8)
  %0 = call i32 @__cxa_atexit(ptr @_ZN19OpenColorIO_v2_4dev10CTFVersionD2Ev, ptr @_ZN19OpenColorIO_v2_4devL28CTF_PROCESS_LIST_VERSION_1_8E, ptr @__dso_handle) #3
  ret void
}

; Function Attrs: uwtable
define internal void @__cxx_global_var_init.8() #0 section ".text.startup" {
entry:
  call void @_ZN19OpenColorIO_v2_4dev10CTFVersionC2Ejj(ptr noundef nonnull align 4 dereferenceable(12) @_ZN19OpenColorIO_v2_4devL28CTF_PROCESS_LIST_VERSION_2_0E, i32 noundef 2, i32 noundef 0)
  %0 = call i32 @__cxa_atexit(ptr @_ZN19OpenColorIO_v2_4dev10CTFVersionD2Ev, ptr @_ZN19OpenColorIO_v2_4devL28CTF_PROCESS_LIST_VERSION_2_0E, ptr @__dso_handle) #3
  ret void
}

; Function Attrs: uwtable
define internal void @__cxx_global_var_init.9() #0 section ".text.startup" {
entry:
  call void @_ZN19OpenColorIO_v2_4dev10CTFVersionC2Ejj(ptr noundef nonnull align 4 dereferenceable(12) @_ZN19OpenColorIO_v2_4devL28CTF_PROCESS_LIST_VERSION_2_1E, i32 noundef 2, i32 noundef 1)
  %0 = call i32 @__cxa_atexit(ptr @_ZN19OpenColorIO_v2_4dev10CTFVersionD2Ev, ptr @_ZN19OpenColorIO_v2_4devL28CTF_PROCESS_LIST_VERSION_2_1E, ptr @__dso_handle) #3
  ret void
}

; Function Attrs: uwtable
define internal void @__cxx_global_var_init.10() #0 section ".text.startup" {
entry:
  call void @_ZN19OpenColorIO_v2_4dev10CTFVersionC2ERKS0_(ptr noundef nonnull align 4 dereferenceable(12) @_ZN19OpenColorIO_v2_4devL24CTF_PROCESS_LIST_VERSIONE, ptr noundef nonnull align 4 dereferenceable(12) @_ZN19OpenColorIO_v2_4devL28CTF_PROCESS_LIST_VERSION_2_1E)
  %0 = call i32 @__cxa_atexit(ptr @_ZN19OpenColorIO_v2_4dev10CTFVersionD2Ev, ptr @_ZN19OpenColorIO_v2_4devL24CTF_PROCESS_LIST_VERSIONE, ptr @__dso_handle) #3
  ret void
}

; Function Attrs: mustprogress nounwind uwtable
define linkonce_odr hidden void @_ZN19OpenColorIO_v2_4dev10CTFVersionC2ERKS0_(ptr noundef nonnull align 4 dereferenceable(12) %this, ptr noundef nonnull align 4 dereferenceable(12) %otherVersion) unnamed_addr #4 comdat align 2 {
entry:
  %this.addr = alloca ptr, align 8
  %otherVersion.addr = alloca ptr, align 8
  store ptr %this, ptr %this.addr, align 8
  store ptr %otherVersion, ptr %otherVersion.addr, align 8
  %this1 = load ptr, ptr %this.addr, align 8
  %m_major = getelementptr inbounds %"class.OpenColorIO_v2_4dev::CTFVersion", ptr %this1, i32 0, i32 0
  %0 = load ptr, ptr %otherVersion.addr, align 8
  %m_major2 = getelementptr inbounds %"class.OpenColorIO_v2_4dev::CTFVersion", ptr %0, i32 0, i32 0
  %1 = load i32, ptr %m_major2, align 4
  store i32 %1, ptr %m_major, align 4
  %m_minor = getelementptr inbounds %"class.OpenColorIO_v2_4dev::CTFVersion", ptr %this1, i32 0, i32 1
  %2 = load ptr, ptr %otherVersion.addr, align 8
  %m_minor3 = getelementptr inbounds %"class.OpenColorIO_v2_4dev::CTFVersion", ptr %2, i32 0, i32 1
  %3 = load i32, ptr %m_minor3, align 4
  store i32 %3, ptr %m_minor, align 4
  %m_revision = getelementptr inbounds %"class.OpenColorIO_v2_4dev::CTFVersion", ptr %this1, i32 0, i32 2
  %4 = load ptr, ptr %otherVersion.addr, align 8
  %m_revision4 = getelementptr inbounds %"class.OpenColorIO_v2_4dev::CTFVersion", ptr %4, i32 0, i32 2
  %5 = load i32, ptr %m_revision4, align 4
  store i32 %5, ptr %m_revision, align 4
  ret void
}

; Function Attrs: uwtable
define internal void @__cxx_global_var_init.11() #0 section ".text.startup" {
entry:
  call void @_ZN19OpenColorIO_v2_4dev11NumberUtils6LocaleC2Ev(ptr noundef nonnull align 8 dereferenceable(8) @_ZN19OpenColorIO_v2_4dev11NumberUtilsL3locE)
  %0 = call i32 @__cxa_atexit(ptr @_ZN19OpenColorIO_v2_4dev11NumberUtils6LocaleD2Ev, ptr @_ZN19OpenColorIO_v2_4dev11NumberUtilsL3locE, ptr @__dso_handle) #3
  ret void
}

; Function Attrs: mustprogress nounwind uwtable
define linkonce_odr hidden void @_ZN19OpenColorIO_v2_4dev11NumberUtils6LocaleC2Ev(ptr noundef nonnull align 8 dereferenceable(8) %this) unnamed_addr #4 comdat align 2 {
entry:
  %this.addr = alloca ptr, align 8
  store ptr %this, ptr %this.addr, align 8
  %this1 = load ptr, ptr %this.addr, align 8
  %local = getelementptr inbounds %"struct.OpenColorIO_v2_4dev::NumberUtils::Locale", ptr %this1, i32 0, i32 0
  %call = call ptr @newlocale(i32 noundef 8127, ptr noundef @.str.28, ptr noundef null) #3
  store ptr %call, ptr %local, align 8
  ret void
}

; Function Attrs: mustprogress nounwind uwtable
define linkonce_odr hidden void @_ZN19OpenColorIO_v2_4dev11NumberUtils6LocaleD2Ev(ptr noundef nonnull align 8 dereferenceable(8) %this) unnamed_addr #4 comdat align 2 {
entry:
  %this.addr = alloca ptr, align 8
  store ptr %this, ptr %this.addr, align 8
  %this1 = load ptr, ptr %this.addr, align 8
  %local = getelementptr inbounds %"struct.OpenColorIO_v2_4dev::NumberUtils::Locale", ptr %this1, i32 0, i32 0
  %0 = load ptr, ptr %local, align 8
  call void @freelocale(ptr noundef %0) #3
  ret void
}

; Function Attrs: mustprogress uwtable
define hidden void @_ZN19OpenColorIO_v2_4dev10CTFVersion11ReadVersionERKNSt7__cxx1112basic_stringIcSt11char_traitsIcESaIcEEERS0_(ptr noundef nonnull align 8 dereferenceable(32) %versionString, ptr noundef nonnull align 4 dereferenceable(12) %versionOut) #5 align 2 personality ptr @__gxx_personality_v0 {
entry:
  %versionString.addr = alloca ptr, align 8
  %versionOut.addr = alloca ptr, align 8
  %numDot = alloca i32, align 4
  %numInt = alloca i32, align 4
  %canBeDot = alloca i8, align 1
  %it = alloca %"class.__gnu_cxx::__normal_iterator", align 8
  %ref.tmp = alloca %"class.__gnu_cxx::__normal_iterator", align 8
  %ref.tmp16 = alloca %"class.__gnu_cxx::__normal_iterator", align 8
  %os = alloca %"class.std::__cxx11::basic_ostringstream", align 8
  %exn.slot = alloca ptr, align 8
  %ehselector.slot = alloca i32, align 4
  %ref.tmp33 = alloca %"class.std::__cxx11::basic_string", align 8
  %cleanup.isactive = alloca i1, align 1
  store ptr %versionString, ptr %versionString.addr, align 8
  store ptr %versionOut, ptr %versionOut.addr, align 8
  store i32 0, ptr %numDot, align 4
  store i32 0, ptr %numInt, align 4
  store i8 0, ptr %canBeDot, align 1
  %0 = load ptr, ptr %versionString.addr, align 8
  %call = call ptr @_ZNKSt7__cxx1112basic_stringIcSt11char_traitsIcESaIcEE5beginEv(ptr noundef nonnull align 8 dereferenceable(32) %0) #3
  %coerce.dive = getelementptr inbounds %"class.__gnu_cxx::__normal_iterator", ptr %it, i32 0, i32 0
  store ptr %call, ptr %coerce.dive, align 8
  br label %while.cond

while.cond:                                       ; preds = %if.end14, %entry
  %1 = load ptr, ptr %versionString.addr, align 8
  %call1 = call ptr @_ZNKSt7__cxx1112basic_stringIcSt11char_traitsIcESaIcEE3endEv(ptr noundef nonnull align 8 dereferenceable(32) %1) #3
  %coerce.dive2 = getelementptr inbounds %"class.__gnu_cxx::__normal_iterator", ptr %ref.tmp, i32 0, i32 0
  store ptr %call1, ptr %coerce.dive2, align 8
  %call3 = call noundef zeroext i1 @_ZN9__gnu_cxxneIPKcNSt7__cxx1112basic_stringIcSt11char_traitsIcESaIcEEEEEbRKNS_17__normal_iteratorIT_T0_EESE_(ptr noundef nonnull align 8 dereferenceable(8) %it, ptr noundef nonnull align 8 dereferenceable(8) %ref.tmp) #3
  br i1 %call3, label %while.body, label %while.end

while.body:                                       ; preds = %while.cond
  %call4 = call noundef nonnull align 1 dereferenceable(1) ptr @_ZNK9__gnu_cxx17__normal_iteratorIPKcNSt7__cxx1112basic_stringIcSt11char_traitsIcESaIcEEEEdeEv(ptr noundef nonnull align 8 dereferenceable(8) %it) #3
  %2 = load i8, ptr %call4, align 1
  %conv = sext i8 %2 to i32
  %call5 = call i32 @isdigit(i32 noundef %conv) #16
  %tobool = icmp ne i32 %call5, 0
  br i1 %tobool, label %if.then, label %if.else

if.then:                                          ; preds = %while.body
  %3 = load i32, ptr %numDot, align 4
  %add = add i32 %3, 1
  store i32 %add, ptr %numInt, align 4
  store i8 1, ptr %canBeDot, align 1
  %call6 = call noundef nonnull align 8 dereferenceable(8) ptr @_ZN9__gnu_cxx17__normal_iteratorIPKcNSt7__cxx1112basic_stringIcSt11char_traitsIcESaIcEEEEppEv(ptr noundef nonnull align 8 dereferenceable(8) %it) #3
  br label %if.end14

if.else:                                          ; preds = %while.body
  %call7 = call noundef nonnull align 1 dereferenceable(1) ptr @_ZNK9__gnu_cxx17__normal_iteratorIPKcNSt7__cxx1112basic_stringIcSt11char_traitsIcESaIcEEEEixEl(ptr noundef nonnull align 8 dereferenceable(8) %it, i64 noundef 0) #3
  %4 = load i8, ptr %call7, align 1
  %conv8 = sext i8 %4 to i32
  %cmp = icmp eq i32 %conv8, 46
  br i1 %cmp, label %land.lhs.true, label %if.else13

land.lhs.true:                                    ; preds = %if.else
  %5 = load i8, ptr %canBeDot, align 1
  %tobool9 = trunc i8 %5 to i1
  br i1 %tobool9, label %if.then10, label %if.else13

if.then10:                                        ; preds = %land.lhs.true
  store i8 0, ptr %canBeDot, align 1
  %6 = load i32, ptr %numDot, align 4
  %add11 = add i32 %6, 1
  store i32 %add11, ptr %numDot, align 4
  %call12 = call noundef nonnull align 8 dereferenceable(8) ptr @_ZN9__gnu_cxx17__normal_iteratorIPKcNSt7__cxx1112basic_stringIcSt11char_traitsIcESaIcEEEEppEv(ptr noundef nonnull align 8 dereferenceable(8) %it) #3
  br label %if.end

if.else13:                                        ; preds = %land.lhs.true, %if.else
  br label %while.end

if.end:                                           ; preds = %if.then10
  br label %if.end14

if.end14:                                         ; preds = %if.end, %if.then
  br label %while.cond, !llvm.loop !4

while.end:                                        ; preds = %if.else13, %while.cond
  %7 = load ptr, ptr %versionString.addr, align 8
  %call15 = call noundef zeroext i1 @_ZNKSt7__cxx1112basic_stringIcSt11char_traitsIcESaIcEE5emptyEv(ptr noundef nonnull align 8 dereferenceable(32) %7) #3
  br i1 %call15, label %lor.end, label %lor.lhs.false

lor.lhs.false:                                    ; preds = %while.end
  %8 = load ptr, ptr %versionString.addr, align 8
  %call17 = call ptr @_ZNKSt7__cxx1112basic_stringIcSt11char_traitsIcESaIcEE3endEv(ptr noundef nonnull align 8 dereferenceable(32) %8) #3
  %coerce.dive18 = getelementptr inbounds %"class.__gnu_cxx::__normal_iterator", ptr %ref.tmp16, i32 0, i32 0
  store ptr %call17, ptr %coerce.dive18, align 8
  %call19 = call noundef zeroext i1 @_ZN9__gnu_cxxneIPKcNSt7__cxx1112basic_stringIcSt11char_traitsIcESaIcEEEEEbRKNS_17__normal_iteratorIT_T0_EESE_(ptr noundef nonnull align 8 dereferenceable(8) %it, ptr noundef nonnull align 8 dereferenceable(8) %ref.tmp16) #3
  br i1 %call19, label %lor.end, label %lor.lhs.false20

lor.lhs.false20:                                  ; preds = %lor.lhs.false
  %9 = load i32, ptr %numInt, align 4
  %cmp21 = icmp eq i32 %9, 0
  br i1 %cmp21, label %lor.end, label %lor.lhs.false22

lor.lhs.false22:                                  ; preds = %lor.lhs.false20
  %10 = load i32, ptr %numInt, align 4
  %cmp23 = icmp ugt i32 %10, 3
  br i1 %cmp23, label %lor.end, label %lor.rhs

lor.rhs:                                          ; preds = %lor.lhs.false22
  %11 = load i32, ptr %numInt, align 4
  %12 = load i32, ptr %numDot, align 4
  %cmp24 = icmp eq i32 %11, %12
  br label %lor.end

lor.end:                                          ; preds = %lor.rhs, %lor.lhs.false22, %lor.lhs.false20, %lor.lhs.false, %while.end
  %13 = phi i1 [ true, %lor.lhs.false22 ], [ true, %lor.lhs.false20 ], [ true, %lor.lhs.false ], [ true, %while.end ], [ %cmp24, %lor.rhs ]
  br i1 %13, label %if.then25, label %if.end40

if.then25:                                        ; preds = %lor.end
  call void @_ZNSt7__cxx1119basic_ostringstreamIcSt11char_traitsIcESaIcEEC1Ev(ptr noundef nonnull align 8 dereferenceable(112) %os)
  %call26 = invoke noundef nonnull align 8 dereferenceable(8) ptr @_ZStlsISt11char_traitsIcEERSt13basic_ostreamIcT_ES5_PKc(ptr noundef nonnull align 8 dereferenceable(8) %os, ptr noundef @.str)
          to label %invoke.cont unwind label %lpad

invoke.cont:                                      ; preds = %if.then25
  %14 = load ptr, ptr %versionString.addr, align 8
  %call28 = invoke noundef nonnull align 8 dereferenceable(8) ptr @_ZStlsIcSt11char_traitsIcESaIcEERSt13basic_ostreamIT_T0_ES7_RKNSt7__cxx1112basic_stringIS4_S5_T1_EE(ptr noundef nonnull align 8 dereferenceable(8) %os, ptr noundef nonnull align 8 dereferenceable(32) %14)
          to label %invoke.cont27 unwind label %lpad

invoke.cont27:                                    ; preds = %invoke.cont
  %call30 = invoke noundef nonnull align 8 dereferenceable(8) ptr @_ZStlsISt11char_traitsIcEERSt13basic_ostreamIcT_ES5_PKc(ptr noundef nonnull align 8 dereferenceable(8) %os, ptr noundef @.str.12)
          to label %invoke.cont29 unwind label %lpad

invoke.cont29:                                    ; preds = %invoke.cont27
  %call32 = invoke noundef nonnull align 8 dereferenceable(8) ptr @_ZStlsISt11char_traitsIcEERSt13basic_ostreamIcT_ES5_PKc(ptr noundef nonnull align 8 dereferenceable(8) %os, ptr noundef @.str.13)
          to label %invoke.cont31 unwind label %lpad

invoke.cont31:                                    ; preds = %invoke.cont29
  store i1 true, ptr %cleanup.isactive, align 1
  %exception = call ptr @__cxa_allocate_exception(i64 16) #3
  invoke void @_ZNKSt7__cxx1119basic_ostringstreamIcSt11char_traitsIcESaIcEE3strEv(ptr sret(%"class.std::__cxx11::basic_string") align 8 %ref.tmp33, ptr noundef nonnull align 8 dereferenceable(112) %os)
          to label %invoke.cont35 unwind label %lpad34

invoke.cont35:                                    ; preds = %invoke.cont31
  %call36 = call noundef ptr @_ZNKSt7__cxx1112basic_stringIcSt11char_traitsIcESaIcEE5c_strEv(ptr noundef nonnull align 8 dereferenceable(32) %ref.tmp33) #3
  invoke void @_ZN19OpenColorIO_v2_4dev9ExceptionC1EPKc(ptr noundef nonnull align 8 dereferenceable(16) %exception, ptr noundef %call36)
          to label %invoke.cont38 unwind label %lpad37

invoke.cont38:                                    ; preds = %invoke.cont35
  store i1 false, ptr %cleanup.isactive, align 1
  invoke void @__cxa_throw(ptr %exception, ptr @_ZTIN19OpenColorIO_v2_4dev9ExceptionE, ptr @_ZN19OpenColorIO_v2_4dev9ExceptionD1Ev) #17
          to label %unreachable unwind label %lpad37

lpad:                                             ; preds = %invoke.cont29, %invoke.cont27, %invoke.cont, %if.then25
  %15 = landingpad { ptr, i32 }
          cleanup
  %16 = extractvalue { ptr, i32 } %15, 0
  store ptr %16, ptr %exn.slot, align 8
  %17 = extractvalue { ptr, i32 } %15, 1
  store i32 %17, ptr %ehselector.slot, align 4
  br label %ehcleanup39

lpad34:                                           ; preds = %invoke.cont31
  %18 = landingpad { ptr, i32 }
          cleanup
  %19 = extractvalue { ptr, i32 } %18, 0
  store ptr %19, ptr %exn.slot, align 8
  %20 = extractvalue { ptr, i32 } %18, 1
  store i32 %20, ptr %ehselector.slot, align 4
  br label %ehcleanup

lpad37:                                           ; preds = %invoke.cont38, %invoke.cont35
  %21 = landingpad { ptr, i32 }
          cleanup
  %22 = extractvalue { ptr, i32 } %21, 0
  store ptr %22, ptr %exn.slot, align 8
  %23 = extractvalue { ptr, i32 } %21, 1
  store i32 %23, ptr %ehselector.slot, align 4
  call void @_ZNSt7__cxx1112basic_stringIcSt11char_traitsIcESaIcEED1Ev(ptr noundef nonnull align 8 dereferenceable(32) %ref.tmp33) #3
  br label %ehcleanup

ehcleanup:                                        ; preds = %lpad37, %lpad34
  %cleanup.is_active = load i1, ptr %cleanup.isactive, align 1
  br i1 %cleanup.is_active, label %cleanup.action, label %cleanup.done

cleanup.action:                                   ; preds = %ehcleanup
  call void @__cxa_free_exception(ptr %exception) #3
  br label %cleanup.done

cleanup.done:                                     ; preds = %cleanup.action, %ehcleanup
  br label %ehcleanup39

ehcleanup39:                                      ; preds = %cleanup.done, %lpad
  call void @_ZNSt7__cxx1119basic_ostringstreamIcSt11char_traitsIcESaIcEED1Ev(ptr noundef nonnull align 8 dereferenceable(112) %os) #3
  br label %eh.resume

if.end40:                                         ; preds = %lor.end
  %24 = load ptr, ptr %versionOut.addr, align 8
  %m_major = getelementptr inbounds %"class.OpenColorIO_v2_4dev::CTFVersion", ptr %24, i32 0, i32 0
  store i32 0, ptr %m_major, align 4
  %25 = load ptr, ptr %versionOut.addr, align 8
  %m_minor = getelementptr inbounds %"class.OpenColorIO_v2_4dev::CTFVersion", ptr %25, i32 0, i32 1
  store i32 0, ptr %m_minor, align 4
  %26 = load ptr, ptr %versionOut.addr, align 8
  %m_revision = getelementptr inbounds %"class.OpenColorIO_v2_4dev::CTFVersion", ptr %26, i32 0, i32 2
  store i32 0, ptr %m_revision, align 4
  %27 = load ptr, ptr %versionString.addr, align 8
  %call41 = call noundef ptr @_ZNKSt7__cxx1112basic_stringIcSt11char_traitsIcESaIcEE5c_strEv(ptr noundef nonnull align 8 dereferenceable(32) %27) #3
  %28 = load ptr, ptr %versionOut.addr, align 8
  %m_major42 = getelementptr inbounds %"class.OpenColorIO_v2_4dev::CTFVersion", ptr %28, i32 0, i32 0
  %29 = load ptr, ptr %versionOut.addr, align 8
  %m_minor43 = getelementptr inbounds %"class.OpenColorIO_v2_4dev::CTFVersion", ptr %29, i32 0, i32 1
  %30 = load ptr, ptr %versionOut.addr, align 8
  %m_revision44 = getelementptr inbounds %"class.OpenColorIO_v2_4dev::CTFVersion", ptr %30, i32 0, i32 2
  %call45 = call i32 (ptr, ptr, ...) @__isoc99_sscanf(ptr noundef %call41, ptr noundef @.str.14, ptr noundef %m_major42, ptr noundef %m_minor43, ptr noundef %m_revision44) #3
  ret void

eh.resume:                                        ; preds = %ehcleanup39
  %exn = load ptr, ptr %exn.slot, align 8
  %sel = load i32, ptr %ehselector.slot, align 4
  %lpad.val = insertvalue { ptr, i32 } poison, ptr %exn, 0
  %lpad.val46 = insertvalue { ptr, i32 } %lpad.val, i32 %sel, 1
  resume { ptr, i32 } %lpad.val46

unreachable:                                      ; preds = %invoke.cont38
  unreachable
}

; Function Attrs: nounwind
declare ptr @_ZNKSt7__cxx1112basic_stringIcSt11char_traitsIcESaIcEE5beginEv(ptr noundef nonnull align 8 dereferenceable(32)) #2

; Function Attrs: mustprogress nounwind uwtable
define linkonce_odr noundef zeroext i1 @_ZN9__gnu_cxxneIPKcNSt7__cxx1112basic_stringIcSt11char_traitsIcESaIcEEEEEbRKNS_17__normal_iteratorIT_T0_EESE_(ptr noundef nonnull align 8 dereferenceable(8) %__lhs, ptr noundef nonnull align 8 dereferenceable(8) %__rhs) #4 comdat {
entry:
  %__lhs.addr = alloca ptr, align 8
  %__rhs.addr = alloca ptr, align 8
  store ptr %__lhs, ptr %__lhs.addr, align 8
  store ptr %__rhs, ptr %__rhs.addr, align 8
  %0 = load ptr, ptr %__lhs.addr, align 8
  %call = call noundef nonnull align 8 dereferenceable(8) ptr @_ZNK9__gnu_cxx17__normal_iteratorIPKcNSt7__cxx1112basic_stringIcSt11char_traitsIcESaIcEEEE4baseEv(ptr noundef nonnull align 8 dereferenceable(8) %0) #3
  %1 = load ptr, ptr %call, align 8
  %2 = load ptr, ptr %__rhs.addr, align 8
  %call1 = call noundef nonnull align 8 dereferenceable(8) ptr @_ZNK9__gnu_cxx17__normal_iteratorIPKcNSt7__cxx1112basic_stringIcSt11char_traitsIcESaIcEEEE4baseEv(ptr noundef nonnull align 8 dereferenceable(8) %2) #3
  %3 = load ptr, ptr %call1, align 8
  %cmp = icmp ne ptr %1, %3
  ret i1 %cmp
}

; Function Attrs: nounwind
declare ptr @_ZNKSt7__cxx1112basic_stringIcSt11char_traitsIcESaIcEE3endEv(ptr noundef nonnull align 8 dereferenceable(32)) #2

; Function Attrs: nounwind willreturn memory(read)
declare i32 @isdigit(i32 noundef) #6

; Function Attrs: mustprogress nounwind uwtable
define linkonce_odr hidden noundef nonnull align 1 dereferenceable(1) ptr @_ZNK9__gnu_cxx17__normal_iteratorIPKcNSt7__cxx1112basic_stringIcSt11char_traitsIcESaIcEEEEdeEv(ptr noundef nonnull align 8 dereferenceable(8) %this) #4 comdat align 2 {
entry:
  %this.addr = alloca ptr, align 8
  store ptr %this, ptr %this.addr, align 8
  %this1 = load ptr, ptr %this.addr, align 8
  %_M_current = getelementptr inbounds %"class.__gnu_cxx::__normal_iterator", ptr %this1, i32 0, i32 0
  %0 = load ptr, ptr %_M_current, align 8
  ret ptr %0
}

; Function Attrs: mustprogress nounwind uwtable
define linkonce_odr hidden noundef nonnull align 8 dereferenceable(8) ptr @_ZN9__gnu_cxx17__normal_iteratorIPKcNSt7__cxx1112basic_stringIcSt11char_traitsIcESaIcEEEEppEv(ptr noundef nonnull align 8 dereferenceable(8) %this) #4 comdat align 2 {
entry:
  %this.addr = alloca ptr, align 8
  store ptr %this, ptr %this.addr, align 8
  %this1 = load ptr, ptr %this.addr, align 8
  %_M_current = getelementptr inbounds %"class.__gnu_cxx::__normal_iterator", ptr %this1, i32 0, i32 0
  %0 = load ptr, ptr %_M_current, align 8
  %incdec.ptr = getelementptr inbounds i8, ptr %0, i32 1
  store ptr %incdec.ptr, ptr %_M_current, align 8
  ret ptr %this1
}

; Function Attrs: mustprogress nounwind uwtable
define linkonce_odr hidden noundef nonnull align 1 dereferenceable(1) ptr @_ZNK9__gnu_cxx17__normal_iteratorIPKcNSt7__cxx1112basic_stringIcSt11char_traitsIcESaIcEEEEixEl(ptr noundef nonnull align 8 dereferenceable(8) %this, i64 noundef %__n) #4 comdat align 2 {
entry:
  %this.addr = alloca ptr, align 8
  %__n.addr = alloca i64, align 8
  store ptr %this, ptr %this.addr, align 8
  store i64 %__n, ptr %__n.addr, align 8
  %this1 = load ptr, ptr %this.addr, align 8
  %_M_current = getelementptr inbounds %"class.__gnu_cxx::__normal_iterator", ptr %this1, i32 0, i32 0
  %0 = load ptr, ptr %_M_current, align 8
  %1 = load i64, ptr %__n.addr, align 8
  %arrayidx = getelementptr inbounds i8, ptr %0, i64 %1
  ret ptr %arrayidx
}

; Function Attrs: nounwind
declare noundef zeroext i1 @_ZNKSt7__cxx1112basic_stringIcSt11char_traitsIcESaIcEE5emptyEv(ptr noundef nonnull align 8 dereferenceable(32)) #2

declare void @_ZNSt7__cxx1119basic_ostringstreamIcSt11char_traitsIcESaIcEEC1Ev(ptr noundef nonnull align 8 dereferenceable(112)) unnamed_addr #1

declare noundef nonnull align 8 dereferenceable(8) ptr @_ZStlsISt11char_traitsIcEERSt13basic_ostreamIcT_ES5_PKc(ptr noundef nonnull align 8 dereferenceable(8), ptr noundef) #1

declare i32 @__gxx_personality_v0(...)

declare noundef nonnull align 8 dereferenceable(8) ptr @_ZStlsIcSt11char_traitsIcESaIcEERSt13basic_ostreamIT_T0_ES7_RKNSt7__cxx1112basic_stringIS4_S5_T1_EE(ptr noundef nonnull align 8 dereferenceable(8), ptr noundef nonnull align 8 dereferenceable(32)) #1

declare ptr @__cxa_allocate_exception(i64)

declare void @_ZNKSt7__cxx1119basic_ostringstreamIcSt11char_traitsIcESaIcEE3strEv(ptr sret(%"class.std::__cxx11::basic_string") align 8, ptr noundef nonnull align 8 dereferenceable(112)) #1

; Function Attrs: nounwind
declare noundef ptr @_ZNKSt7__cxx1112basic_stringIcSt11char_traitsIcESaIcEE5c_strEv(ptr noundef nonnull align 8 dereferenceable(32)) #2

declare void @_ZN19OpenColorIO_v2_4dev9ExceptionC1EPKc(ptr noundef nonnull align 8 dereferenceable(16), ptr noundef) unnamed_addr #1

; Function Attrs: nounwind
declare void @_ZN19OpenColorIO_v2_4dev9ExceptionD1Ev(ptr noundef nonnull align 8 dereferenceable(16)) unnamed_addr #2

declare void @__cxa_throw(ptr, ptr, ptr)

; Function Attrs: nounwind
declare void @_ZNSt7__cxx1112basic_stringIcSt11char_traitsIcESaIcEED1Ev(ptr noundef nonnull align 8 dereferenceable(32)) unnamed_addr #2

declare void @__cxa_free_exception(ptr)

; Function Attrs: nounwind
declare void @_ZNSt7__cxx1119basic_ostringstreamIcSt11char_traitsIcESaIcEED1Ev(ptr noundef nonnull align 8 dereferenceable(112)) unnamed_addr #2

; Function Attrs: nounwind
declare i32 @__isoc99_sscanf(ptr noundef, ptr noundef, ...) #2

; Function Attrs: mustprogress nounwind uwtable
define hidden noundef nonnull align 4 dereferenceable(12) ptr @_ZN19OpenColorIO_v2_4dev10CTFVersionaSERKS0_(ptr noundef nonnull align 4 dereferenceable(12) %this, ptr noundef nonnull align 4 dereferenceable(12) %rhs) #4 align 2 {
entry:
  %this.addr = alloca ptr, align 8
  %rhs.addr = alloca ptr, align 8
  store ptr %this, ptr %this.addr, align 8
  store ptr %rhs, ptr %rhs.addr, align 8
  %this1 = load ptr, ptr %this.addr, align 8
  %0 = load ptr, ptr %rhs.addr, align 8
  %cmp = icmp ne ptr %this1, %0
  br i1 %cmp, label %if.then, label %if.end

if.then:                                          ; preds = %entry
  %1 = load ptr, ptr %rhs.addr, align 8
  %m_major = getelementptr inbounds %"class.OpenColorIO_v2_4dev::CTFVersion", ptr %1, i32 0, i32 0
  %2 = load i32, ptr %m_major, align 4
  %m_major2 = getelementptr inbounds %"class.OpenColorIO_v2_4dev::CTFVersion", ptr %this1, i32 0, i32 0
  store i32 %2, ptr %m_major2, align 4
  %3 = load ptr, ptr %rhs.addr, align 8
  %m_minor = getelementptr inbounds %"class.OpenColorIO_v2_4dev::CTFVersion", ptr %3, i32 0, i32 1
  %4 = load i32, ptr %m_minor, align 4
  %m_minor3 = getelementptr inbounds %"class.OpenColorIO_v2_4dev::CTFVersion", ptr %this1, i32 0, i32 1
  store i32 %4, ptr %m_minor3, align 4
  %5 = load ptr, ptr %rhs.addr, align 8
  %m_revision = getelementptr inbounds %"class.OpenColorIO_v2_4dev::CTFVersion", ptr %5, i32 0, i32 2
  %6 = load i32, ptr %m_revision, align 4
  %m_revision4 = getelementptr inbounds %"class.OpenColorIO_v2_4dev::CTFVersion", ptr %this1, i32 0, i32 2
  store i32 %6, ptr %m_revision4, align 4
  br label %if.end

if.end:                                           ; preds = %if.then, %entry
  ret ptr %this1
}

; Function Attrs: mustprogress nounwind uwtable
define hidden noundef zeroext i1 @_ZNK19OpenColorIO_v2_4dev10CTFVersioneqERKS0_(ptr noundef nonnull align 4 dereferenceable(12) %this, ptr noundef nonnull align 4 dereferenceable(12) %rhs) #4 align 2 {
entry:
  %retval = alloca i1, align 1
  %this.addr = alloca ptr, align 8
  %rhs.addr = alloca ptr, align 8
  store ptr %this, ptr %this.addr, align 8
  store ptr %rhs, ptr %rhs.addr, align 8
  %this1 = load ptr, ptr %this.addr, align 8
  %0 = load ptr, ptr %rhs.addr, align 8
  %cmp = icmp eq ptr %this1, %0
  br i1 %cmp, label %if.then, label %if.end

if.then:                                          ; preds = %entry
  store i1 true, ptr %retval, align 1
  br label %return

if.end:                                           ; preds = %entry
  %m_major = getelementptr inbounds %"class.OpenColorIO_v2_4dev::CTFVersion", ptr %this1, i32 0, i32 0
  %1 = load i32, ptr %m_major, align 4
  %2 = load ptr, ptr %rhs.addr, align 8
  %m_major2 = getelementptr inbounds %"class.OpenColorIO_v2_4dev::CTFVersion", ptr %2, i32 0, i32 0
  %3 = load i32, ptr %m_major2, align 4
  %cmp3 = icmp eq i32 %1, %3
  br i1 %cmp3, label %land.lhs.true, label %land.end

land.lhs.true:                                    ; preds = %if.end
  %m_minor = getelementptr inbounds %"class.OpenColorIO_v2_4dev::CTFVersion", ptr %this1, i32 0, i32 1
  %4 = load i32, ptr %m_minor, align 4
  %5 = load ptr, ptr %rhs.addr, align 8
  %m_minor4 = getelementptr inbounds %"class.OpenColorIO_v2_4dev::CTFVersion", ptr %5, i32 0, i32 1
  %6 = load i32, ptr %m_minor4, align 4
  %cmp5 = icmp eq i32 %4, %6
  br i1 %cmp5, label %land.rhs, label %land.end

land.rhs:                                         ; preds = %land.lhs.true
  %m_revision = getelementptr inbounds %"class.OpenColorIO_v2_4dev::CTFVersion", ptr %this1, i32 0, i32 2
  %7 = load i32, ptr %m_revision, align 4
  %8 = load ptr, ptr %rhs.addr, align 8
  %m_revision6 = getelementptr inbounds %"class.OpenColorIO_v2_4dev::CTFVersion", ptr %8, i32 0, i32 2
  %9 = load i32, ptr %m_revision6, align 4
  %cmp7 = icmp eq i32 %7, %9
  br label %land.end

land.end:                                         ; preds = %land.rhs, %land.lhs.true, %if.end
  %10 = phi i1 [ false, %land.lhs.true ], [ false, %if.end ], [ %cmp7, %land.rhs ]
  store i1 %10, ptr %retval, align 1
  br label %return

return:                                           ; preds = %land.end, %if.then
  %11 = load i1, ptr %retval, align 1
  ret i1 %11
}

; Function Attrs: mustprogress uwtable
define hidden noundef zeroext i1 @_ZNK19OpenColorIO_v2_4dev10CTFVersionleERKS0_(ptr noundef nonnull align 4 dereferenceable(12) %this, ptr noundef nonnull align 4 dereferenceable(12) %rhs) #5 align 2 {
entry:
  %retval = alloca i1, align 1
  %this.addr = alloca ptr, align 8
  %rhs.addr = alloca ptr, align 8
  store ptr %this, ptr %this.addr, align 8
  store ptr %rhs, ptr %rhs.addr, align 8
  %this1 = load ptr, ptr %this.addr, align 8
  %0 = load ptr, ptr %rhs.addr, align 8
  %call = call noundef zeroext i1 @_ZNK19OpenColorIO_v2_4dev10CTFVersioneqERKS0_(ptr noundef nonnull align 4 dereferenceable(12) %this1, ptr noundef nonnull align 4 dereferenceable(12) %0)
  br i1 %call, label %if.then, label %if.end

if.then:                                          ; preds = %entry
  store i1 true, ptr %retval, align 1
  br label %return

if.end:                                           ; preds = %entry
  %1 = load ptr, ptr %rhs.addr, align 8
  %call2 = call noundef zeroext i1 @_ZNK19OpenColorIO_v2_4dev10CTFVersionltERKS0_(ptr noundef nonnull align 4 dereferenceable(12) %this1, ptr noundef nonnull align 4 dereferenceable(12) %1)
  store i1 %call2, ptr %retval, align 1
  br label %return

return:                                           ; preds = %if.end, %if.then
  %2 = load i1, ptr %retval, align 1
  ret i1 %2
}

; Function Attrs: mustprogress nounwind uwtable
define hidden noundef zeroext i1 @_ZNK19OpenColorIO_v2_4dev10CTFVersionltERKS0_(ptr noundef nonnull align 4 dereferenceable(12) %this, ptr noundef nonnull align 4 dereferenceable(12) %rhs) #4 align 2 {
entry:
  %retval = alloca i1, align 1
  %this.addr = alloca ptr, align 8
  %rhs.addr = alloca ptr, align 8
  store ptr %this, ptr %this.addr, align 8
  store ptr %rhs, ptr %rhs.addr, align 8
  %this1 = load ptr, ptr %this.addr, align 8
  %0 = load ptr, ptr %rhs.addr, align 8
  %cmp = icmp eq ptr %this1, %0
  br i1 %cmp, label %if.then, label %if.end

if.then:                                          ; preds = %entry
  store i1 false, ptr %retval, align 1
  br label %return

if.end:                                           ; preds = %entry
  %m_major = getelementptr inbounds %"class.OpenColorIO_v2_4dev::CTFVersion", ptr %this1, i32 0, i32 0
  %1 = load i32, ptr %m_major, align 4
  %2 = load ptr, ptr %rhs.addr, align 8
  %m_major2 = getelementptr inbounds %"class.OpenColorIO_v2_4dev::CTFVersion", ptr %2, i32 0, i32 0
  %3 = load i32, ptr %m_major2, align 4
  %cmp3 = icmp ult i32 %1, %3
  br i1 %cmp3, label %if.then4, label %if.else

if.then4:                                         ; preds = %if.end
  store i1 true, ptr %retval, align 1
  br label %return

if.else:                                          ; preds = %if.end
  %m_major5 = getelementptr inbounds %"class.OpenColorIO_v2_4dev::CTFVersion", ptr %this1, i32 0, i32 0
  %4 = load i32, ptr %m_major5, align 4
  %5 = load ptr, ptr %rhs.addr, align 8
  %m_major6 = getelementptr inbounds %"class.OpenColorIO_v2_4dev::CTFVersion", ptr %5, i32 0, i32 0
  %6 = load i32, ptr %m_major6, align 4
  %cmp7 = icmp ugt i32 %4, %6
  br i1 %cmp7, label %if.then8, label %if.else9

if.then8:                                         ; preds = %if.else
  store i1 false, ptr %retval, align 1
  br label %return

if.else9:                                         ; preds = %if.else
  %m_minor = getelementptr inbounds %"class.OpenColorIO_v2_4dev::CTFVersion", ptr %this1, i32 0, i32 1
  %7 = load i32, ptr %m_minor, align 4
  %8 = load ptr, ptr %rhs.addr, align 8
  %m_minor10 = getelementptr inbounds %"class.OpenColorIO_v2_4dev::CTFVersion", ptr %8, i32 0, i32 1
  %9 = load i32, ptr %m_minor10, align 4
  %cmp11 = icmp ult i32 %7, %9
  br i1 %cmp11, label %if.then12, label %if.else13

if.then12:                                        ; preds = %if.else9
  store i1 true, ptr %retval, align 1
  br label %return

if.else13:                                        ; preds = %if.else9
  %m_minor14 = getelementptr inbounds %"class.OpenColorIO_v2_4dev::CTFVersion", ptr %this1, i32 0, i32 1
  %10 = load i32, ptr %m_minor14, align 4
  %11 = load ptr, ptr %rhs.addr, align 8
  %m_minor15 = getelementptr inbounds %"class.OpenColorIO_v2_4dev::CTFVersion", ptr %11, i32 0, i32 1
  %12 = load i32, ptr %m_minor15, align 4
  %cmp16 = icmp ugt i32 %10, %12
  br i1 %cmp16, label %if.then17, label %if.else18

if.then17:                                        ; preds = %if.else13
  store i1 false, ptr %retval, align 1
  br label %return

if.else18:                                        ; preds = %if.else13
  %m_revision = getelementptr inbounds %"class.OpenColorIO_v2_4dev::CTFVersion", ptr %this1, i32 0, i32 2
  %13 = load i32, ptr %m_revision, align 4
  %14 = load ptr, ptr %rhs.addr, align 8
  %m_revision19 = getelementptr inbounds %"class.OpenColorIO_v2_4dev::CTFVersion", ptr %14, i32 0, i32 2
  %15 = load i32, ptr %m_revision19, align 4
  %cmp20 = icmp ult i32 %13, %15
  br i1 %cmp20, label %if.then21, label %if.end22

if.then21:                                        ; preds = %if.else18
  store i1 true, ptr %retval, align 1
  br label %return

if.end22:                                         ; preds = %if.else18
  store i1 false, ptr %retval, align 1
  br label %return

return:                                           ; preds = %if.end22, %if.then21, %if.then17, %if.then12, %if.then8, %if.then4, %if.then
  %16 = load i1, ptr %retval, align 1
  ret i1 %16
}

; Function Attrs: mustprogress uwtable
define hidden noundef zeroext i1 @_ZNK19OpenColorIO_v2_4dev10CTFVersiongeERKS0_(ptr noundef nonnull align 4 dereferenceable(12) %this, ptr noundef nonnull align 4 dereferenceable(12) %rhs) #5 align 2 {
entry:
  %this.addr = alloca ptr, align 8
  %rhs.addr = alloca ptr, align 8
  store ptr %this, ptr %this.addr, align 8
  store ptr %rhs, ptr %rhs.addr, align 8
  %this1 = load ptr, ptr %this.addr, align 8
  %0 = load ptr, ptr %rhs.addr, align 8
  %call = call noundef zeroext i1 @_ZNK19OpenColorIO_v2_4dev10CTFVersionleERKS0_(ptr noundef nonnull align 4 dereferenceable(12) %0, ptr noundef nonnull align 4 dereferenceable(12) %this1)
  ret i1 %call
}

; Function Attrs: mustprogress nounwind uwtable
define hidden noundef zeroext i1 @_ZNK19OpenColorIO_v2_4dev10CTFVersiongtERKS0_(ptr noundef nonnull align 4 dereferenceable(12) %this, ptr noundef nonnull align 4 dereferenceable(12) %rhs) #4 align 2 {
entry:
  %this.addr = alloca ptr, align 8
  %rhs.addr = alloca ptr, align 8
  store ptr %this, ptr %this.addr, align 8
  store ptr %rhs, ptr %rhs.addr, align 8
  %this1 = load ptr, ptr %this.addr, align 8
  %0 = load ptr, ptr %rhs.addr, align 8
  %call = call noundef zeroext i1 @_ZNK19OpenColorIO_v2_4dev10CTFVersionltERKS0_(ptr noundef nonnull align 4 dereferenceable(12) %0, ptr noundef nonnull align 4 dereferenceable(12) %this1)
  ret i1 %call
}

; Function Attrs: mustprogress uwtable
define hidden void @_ZN19OpenColorIO_v2_4dev18CTFReaderTransformC2Ev(ptr noundef nonnull align 8 dereferenceable(356) %this) unnamed_addr #5 align 2 personality ptr @__gxx_personality_v0 {
entry:
  %this.addr = alloca ptr, align 8
  %ref.tmp = alloca %"class.std::__cxx11::basic_string", align 8
  %ref.tmp2 = alloca %"class.std::allocator", align 1
  %exn.slot = alloca ptr, align 8
  %ehselector.slot = alloca i32, align 4
  %ref.tmp3 = alloca %"class.std::__cxx11::basic_string", align 8
  %ref.tmp4 = alloca %"class.std::allocator", align 1
  store ptr %this, ptr %this.addr, align 8
  %this1 = load ptr, ptr %this.addr, align 8
  %m_id = getelementptr inbounds %"class.OpenColorIO_v2_4dev::CTFReaderTransform", ptr %this1, i32 0, i32 0
  call void @_ZNSt7__cxx1112basic_stringIcSt11char_traitsIcESaIcEEC1Ev(ptr noundef nonnull align 8 dereferenceable(32) %m_id) #3
  %m_name = getelementptr inbounds %"class.OpenColorIO_v2_4dev::CTFReaderTransform", ptr %this1, i32 0, i32 1
  call void @_ZNSt7__cxx1112basic_stringIcSt11char_traitsIcESaIcEEC1Ev(ptr noundef nonnull align 8 dereferenceable(32) %m_name) #3
  %m_inverseOfId = getelementptr inbounds %"class.OpenColorIO_v2_4dev::CTFReaderTransform", ptr %this1, i32 0, i32 2
  call void @_ZNSt7__cxx1112basic_stringIcSt11char_traitsIcESaIcEEC1Ev(ptr noundef nonnull align 8 dereferenceable(32) %m_inverseOfId) #3
  %m_inDescriptor = getelementptr inbounds %"class.OpenColorIO_v2_4dev::CTFReaderTransform", ptr %this1, i32 0, i32 3
  call void @_ZNSt7__cxx1112basic_stringIcSt11char_traitsIcESaIcEEC1Ev(ptr noundef nonnull align 8 dereferenceable(32) %m_inDescriptor) #3
  %m_outDescriptor = getelementptr inbounds %"class.OpenColorIO_v2_4dev::CTFReaderTransform", ptr %this1, i32 0, i32 4
  call void @_ZNSt7__cxx1112basic_stringIcSt11char_traitsIcESaIcEEC1Ev(ptr noundef nonnull align 8 dereferenceable(32) %m_outDescriptor) #3
  %m_infoMetadata = getelementptr inbounds %"class.OpenColorIO_v2_4dev::CTFReaderTransform", ptr %this1, i32 0, i32 5
  %0 = load ptr, ptr @_ZN19OpenColorIO_v2_4dev13METADATA_INFOE, align 8
  call void @_ZNSaIcEC1Ev(ptr noundef nonnull align 1 dereferenceable(1) %ref.tmp2) #3
  invoke void @_ZNSt7__cxx1112basic_stringIcSt11char_traitsIcESaIcEEC1EPKcRKS3_(ptr noundef nonnull align 8 dereferenceable(32) %ref.tmp, ptr noundef %0, ptr noundef nonnull align 1 dereferenceable(1) %ref.tmp2)
          to label %invoke.cont unwind label %lpad

invoke.cont:                                      ; preds = %entry
  call void @_ZNSaIcEC1Ev(ptr noundef nonnull align 1 dereferenceable(1) %ref.tmp4) #3
  invoke void @_ZNSt7__cxx1112basic_stringIcSt11char_traitsIcESaIcEEC1EPKcRKS3_(ptr noundef nonnull align 8 dereferenceable(32) %ref.tmp3, ptr noundef @.str.15, ptr noundef nonnull align 1 dereferenceable(1) %ref.tmp4)
          to label %invoke.cont6 unwind label %lpad5

invoke.cont6:                                     ; preds = %invoke.cont
  invoke void @_ZN19OpenColorIO_v2_4dev18FormatMetadataImplC1ERKNSt7__cxx1112basic_stringIcSt11char_traitsIcESaIcEEES8_(ptr noundef nonnull align 8 dereferenceable(120) %m_infoMetadata, ptr noundef nonnull align 8 dereferenceable(32) %ref.tmp, ptr noundef nonnull align 8 dereferenceable(32) %ref.tmp3)
          to label %invoke.cont8 unwind label %lpad7

invoke.cont8:                                     ; preds = %invoke.cont6
  call void @_ZNSt7__cxx1112basic_stringIcSt11char_traitsIcESaIcEED1Ev(ptr noundef nonnull align 8 dereferenceable(32) %ref.tmp3) #3
  call void @_ZNSaIcED1Ev(ptr noundef nonnull align 1 dereferenceable(1) %ref.tmp4) #3
  call void @_ZNSt7__cxx1112basic_stringIcSt11char_traitsIcESaIcEED1Ev(ptr noundef nonnull align 8 dereferenceable(32) %ref.tmp) #3
  call void @_ZNSaIcED1Ev(ptr noundef nonnull align 1 dereferenceable(1) %ref.tmp2) #3
  %m_ops = getelementptr inbounds %"class.OpenColorIO_v2_4dev::CTFReaderTransform", ptr %this1, i32 0, i32 6
  call void @_ZNSt6vectorISt10shared_ptrIKN19OpenColorIO_v2_4dev6OpDataEESaIS4_EEC2Ev(ptr noundef nonnull align 8 dereferenceable(24) %m_ops) #3
  %m_descriptions = getelementptr inbounds %"class.OpenColorIO_v2_4dev::CTFReaderTransform", ptr %this1, i32 0, i32 7
  call void @_ZNSt6vectorINSt7__cxx1112basic_stringIcSt11char_traitsIcESaIcEEESaIS5_EEC2Ev(ptr noundef nonnull align 8 dereferenceable(24) %m_descriptions) #3
  %m_version = getelementptr inbounds %"class.OpenColorIO_v2_4dev::CTFReaderTransform", ptr %this1, i32 0, i32 8
  invoke void @_ZN19OpenColorIO_v2_4dev10CTFVersionC2ERKS0_(ptr noundef nonnull align 4 dereferenceable(12) %m_version, ptr noundef nonnull align 4 dereferenceable(12) @_ZN19OpenColorIO_v2_4devL24CTF_PROCESS_LIST_VERSIONE)
          to label %invoke.cont12 unwind label %lpad11

invoke.cont12:                                    ; preds = %invoke.cont8
  %m_versionCLF = getelementptr inbounds %"class.OpenColorIO_v2_4dev::CTFReaderTransform", ptr %this1, i32 0, i32 9
  invoke void @_ZN19OpenColorIO_v2_4dev10CTFVersionC2Ejj(ptr noundef nonnull align 4 dereferenceable(12) %m_versionCLF, i32 noundef 0, i32 noundef 0)
          to label %invoke.cont14 unwind label %lpad13

invoke.cont14:                                    ; preds = %invoke.cont12
  %m_prevOutBD = getelementptr inbounds %"class.OpenColorIO_v2_4dev::CTFReaderTransform", ptr %this1, i32 0, i32 10
  store i32 0, ptr %m_prevOutBD, align 8
  ret void

lpad:                                             ; preds = %entry
  %1 = landingpad { ptr, i32 }
          cleanup
  %2 = extractvalue { ptr, i32 } %1, 0
  store ptr %2, ptr %exn.slot, align 8
  %3 = extractvalue { ptr, i32 } %1, 1
  store i32 %3, ptr %ehselector.slot, align 4
  br label %ehcleanup10

lpad5:                                            ; preds = %invoke.cont
  %4 = landingpad { ptr, i32 }
          cleanup
  %5 = extractvalue { ptr, i32 } %4, 0
  store ptr %5, ptr %exn.slot, align 8
  %6 = extractvalue { ptr, i32 } %4, 1
  store i32 %6, ptr %ehselector.slot, align 4
  br label %ehcleanup

lpad7:                                            ; preds = %invoke.cont6
  %7 = landingpad { ptr, i32 }
          cleanup
  %8 = extractvalue { ptr, i32 } %7, 0
  store ptr %8, ptr %exn.slot, align 8
  %9 = extractvalue { ptr, i32 } %7, 1
  store i32 %9, ptr %ehselector.slot, align 4
  call void @_ZNSt7__cxx1112basic_stringIcSt11char_traitsIcESaIcEED1Ev(ptr noundef nonnull align 8 dereferenceable(32) %ref.tmp3) #3
  br label %ehcleanup

ehcleanup:                                        ; preds = %lpad7, %lpad5
  call void @_ZNSaIcED1Ev(ptr noundef nonnull align 1 dereferenceable(1) %ref.tmp4) #3
  call void @_ZNSt7__cxx1112basic_stringIcSt11char_traitsIcESaIcEED1Ev(ptr noundef nonnull align 8 dereferenceable(32) %ref.tmp) #3
  br label %ehcleanup10

ehcleanup10:                                      ; preds = %ehcleanup, %lpad
  call void @_ZNSaIcED1Ev(ptr noundef nonnull align 1 dereferenceable(1) %ref.tmp2) #3
  br label %ehcleanup19

lpad11:                                           ; preds = %invoke.cont8
  %10 = landingpad { ptr, i32 }
          cleanup
  %11 = extractvalue { ptr, i32 } %10, 0
  store ptr %11, ptr %exn.slot, align 8
  %12 = extractvalue { ptr, i32 } %10, 1
  store i32 %12, ptr %ehselector.slot, align 4
  br label %ehcleanup16

lpad13:                                           ; preds = %invoke.cont12
  %13 = landingpad { ptr, i32 }
          cleanup
  %14 = extractvalue { ptr, i32 } %13, 0
  store ptr %14, ptr %exn.slot, align 8
  %15 = extractvalue { ptr, i32 } %13, 1
  store i32 %15, ptr %ehselector.slot, align 4
  call void @_ZN19OpenColorIO_v2_4dev10CTFVersionD2Ev(ptr noundef nonnull align 4 dereferenceable(12) %m_version) #3
  br label %ehcleanup16

ehcleanup16:                                      ; preds = %lpad13, %lpad11
  call void @_ZNSt6vectorINSt7__cxx1112basic_stringIcSt11char_traitsIcESaIcEEESaIS5_EED2Ev(ptr noundef nonnull align 8 dereferenceable(24) %m_descriptions) #3
  call void @_ZNSt6vectorISt10shared_ptrIKN19OpenColorIO_v2_4dev6OpDataEESaIS4_EED2Ev(ptr noundef nonnull align 8 dereferenceable(24) %m_ops) #3
  call void @_ZN19OpenColorIO_v2_4dev18FormatMetadataImplD1Ev(ptr noundef nonnull align 8 dereferenceable(120) %m_infoMetadata) #3
  br label %ehcleanup19

ehcleanup19:                                      ; preds = %ehcleanup16, %ehcleanup10
  call void @_ZNSt7__cxx1112basic_stringIcSt11char_traitsIcESaIcEED1Ev(ptr noundef nonnull align 8 dereferenceable(32) %m_outDescriptor) #3
  call void @_ZNSt7__cxx1112basic_stringIcSt11char_traitsIcESaIcEED1Ev(ptr noundef nonnull align 8 dereferenceable(32) %m_inDescriptor) #3
  call void @_ZNSt7__cxx1112basic_stringIcSt11char_traitsIcESaIcEED1Ev(ptr noundef nonnull align 8 dereferenceable(32) %m_inverseOfId) #3
  call void @_ZNSt7__cxx1112basic_stringIcSt11char_traitsIcESaIcEED1Ev(ptr noundef nonnull align 8 dereferenceable(32) %m_name) #3
  call void @_ZNSt7__cxx1112basic_stringIcSt11char_traitsIcESaIcEED1Ev(ptr noundef nonnull align 8 dereferenceable(32) %m_id) #3
  br label %eh.resume

eh.resume:                                        ; preds = %ehcleanup19
  %exn = load ptr, ptr %exn.slot, align 8
  %sel = load i32, ptr %ehselector.slot, align 4
  %lpad.val = insertvalue { ptr, i32 } poison, ptr %exn, 0
  %lpad.val24 = insertvalue { ptr, i32 } %lpad.val, i32 %sel, 1
  resume { ptr, i32 } %lpad.val24
}

; Function Attrs: nounwind
declare void @_ZNSt7__cxx1112basic_stringIcSt11char_traitsIcESaIcEEC1Ev(ptr noundef nonnull align 8 dereferenceable(32)) unnamed_addr #2

; Function Attrs: nounwind
declare void @_ZNSaIcEC1Ev(ptr noundef nonnull align 1 dereferenceable(1)) unnamed_addr #2

declare void @_ZNSt7__cxx1112basic_stringIcSt11char_traitsIcESaIcEEC1EPKcRKS3_(ptr noundef nonnull align 8 dereferenceable(32), ptr noundef, ptr noundef nonnull align 1 dereferenceable(1)) unnamed_addr #1

declare void @_ZN19OpenColorIO_v2_4dev18FormatMetadataImplC1ERKNSt7__cxx1112basic_stringIcSt11char_traitsIcESaIcEEES8_(ptr noundef nonnull align 8 dereferenceable(120), ptr noundef nonnull align 8 dereferenceable(32), ptr noundef nonnull align 8 dereferenceable(32)) unnamed_addr #1

; Function Attrs: nounwind
declare void @_ZNSaIcED1Ev(ptr noundef nonnull align 1 dereferenceable(1)) unnamed_addr #2

; Function Attrs: mustprogress nounwind uwtable
define linkonce_odr hidden void @_ZNSt6vectorISt10shared_ptrIKN19OpenColorIO_v2_4dev6OpDataEESaIS4_EEC2Ev(ptr noundef nonnull align 8 dereferenceable(24) %this) unnamed_addr #4 comdat align 2 {
entry:
  %this.addr = alloca ptr, align 8
  store ptr %this, ptr %this.addr, align 8
  %this1 = load ptr, ptr %this.addr, align 8
  call void @_ZNSt12_Vector_baseISt10shared_ptrIKN19OpenColorIO_v2_4dev6OpDataEESaIS4_EEC2Ev(ptr noundef nonnull align 8 dereferenceable(24) %this1) #3
  ret void
}

; Function Attrs: mustprogress nounwind uwtable
define linkonce_odr hidden void @_ZNSt6vectorINSt7__cxx1112basic_stringIcSt11char_traitsIcESaIcEEESaIS5_EEC2Ev(ptr noundef nonnull align 8 dereferenceable(24) %this) unnamed_addr #4 comdat align 2 {
entry:
  %this.addr = alloca ptr, align 8
  store ptr %this, ptr %this.addr, align 8
  %this1 = load ptr, ptr %this.addr, align 8
  call void @_ZNSt12_Vector_baseINSt7__cxx1112basic_stringIcSt11char_traitsIcESaIcEEESaIS5_EEC2Ev(ptr noundef nonnull align 8 dereferenceable(24) %this1) #3
  ret void
}

; Function Attrs: mustprogress nounwind uwtable
define linkonce_odr hidden void @_ZNSt6vectorINSt7__cxx1112basic_stringIcSt11char_traitsIcESaIcEEESaIS5_EED2Ev(ptr noundef nonnull align 8 dereferenceable(24) %this) unnamed_addr #4 comdat align 2 personality ptr @__gxx_personality_v0 {
entry:
  %this.addr = alloca ptr, align 8
  store ptr %this, ptr %this.addr, align 8
  %this1 = load ptr, ptr %this.addr, align 8
  %_M_impl = getelementptr inbounds %"struct.std::_Vector_base.15", ptr %this1, i32 0, i32 0
  %_M_start = getelementptr inbounds %"struct.std::_Vector_base<std::__cxx11::basic_string<char>, std::allocator<std::__cxx11::basic_string<char>>>::_Vector_impl_data", ptr %_M_impl, i32 0, i32 0
  %0 = load ptr, ptr %_M_start, align 8
  %_M_impl2 = getelementptr inbounds %"struct.std::_Vector_base.15", ptr %this1, i32 0, i32 0
  %_M_finish = getelementptr inbounds %"struct.std::_Vector_base<std::__cxx11::basic_string<char>, std::allocator<std::__cxx11::basic_string<char>>>::_Vector_impl_data", ptr %_M_impl2, i32 0, i32 1
  %1 = load ptr, ptr %_M_finish, align 8
  %call = call noundef nonnull align 1 dereferenceable(1) ptr @_ZNSt12_Vector_baseINSt7__cxx1112basic_stringIcSt11char_traitsIcESaIcEEESaIS5_EE19_M_get_Tp_allocatorEv(ptr noundef nonnull align 8 dereferenceable(24) %this1) #3
  invoke void @_ZSt8_DestroyIPNSt7__cxx1112basic_stringIcSt11char_traitsIcESaIcEEES5_EvT_S7_RSaIT0_E(ptr noundef %0, ptr noundef %1, ptr noundef nonnull align 1 dereferenceable(1) %call)
          to label %invoke.cont unwind label %terminate.lpad

invoke.cont:                                      ; preds = %entry
  call void @_ZNSt12_Vector_baseINSt7__cxx1112basic_stringIcSt11char_traitsIcESaIcEEESaIS5_EED2Ev(ptr noundef nonnull align 8 dereferenceable(24) %this1) #3
  ret void

terminate.lpad:                                   ; preds = %entry
  %2 = landingpad { ptr, i32 }
          catch ptr null
  %3 = extractvalue { ptr, i32 } %2, 0
  call void @__clang_call_terminate(ptr %3) #18
  unreachable
}

; Function Attrs: mustprogress nounwind uwtable
define linkonce_odr hidden void @_ZNSt6vectorISt10shared_ptrIKN19OpenColorIO_v2_4dev6OpDataEESaIS4_EED2Ev(ptr noundef nonnull align 8 dereferenceable(24) %this) unnamed_addr #4 comdat align 2 personality ptr @__gxx_personality_v0 {
entry:
  %this.addr = alloca ptr, align 8
  store ptr %this, ptr %this.addr, align 8
  %this1 = load ptr, ptr %this.addr, align 8
  %_M_impl = getelementptr inbounds %"struct.std::_Vector_base.10", ptr %this1, i32 0, i32 0
  %_M_start = getelementptr inbounds %"struct.std::_Vector_base<std::shared_ptr<const OpenColorIO_v2_4dev::OpData>, std::allocator<std::shared_ptr<const OpenColorIO_v2_4dev::OpData>>>::_Vector_impl_data", ptr %_M_impl, i32 0, i32 0
  %0 = load ptr, ptr %_M_start, align 8
  %_M_impl2 = getelementptr inbounds %"struct.std::_Vector_base.10", ptr %this1, i32 0, i32 0
  %_M_finish = getelementptr inbounds %"struct.std::_Vector_base<std::shared_ptr<const OpenColorIO_v2_4dev::OpData>, std::allocator<std::shared_ptr<const OpenColorIO_v2_4dev::OpData>>>::_Vector_impl_data", ptr %_M_impl2, i32 0, i32 1
  %1 = load ptr, ptr %_M_finish, align 8
  %call = call noundef nonnull align 1 dereferenceable(1) ptr @_ZNSt12_Vector_baseISt10shared_ptrIKN19OpenColorIO_v2_4dev6OpDataEESaIS4_EE19_M_get_Tp_allocatorEv(ptr noundef nonnull align 8 dereferenceable(24) %this1) #3
  invoke void @_ZSt8_DestroyIPSt10shared_ptrIKN19OpenColorIO_v2_4dev6OpDataEES4_EvT_S6_RSaIT0_E(ptr noundef %0, ptr noundef %1, ptr noundef nonnull align 1 dereferenceable(1) %call)
          to label %invoke.cont unwind label %terminate.lpad

invoke.cont:                                      ; preds = %entry
  call void @_ZNSt12_Vector_baseISt10shared_ptrIKN19OpenColorIO_v2_4dev6OpDataEESaIS4_EED2Ev(ptr noundef nonnull align 8 dereferenceable(24) %this1) #3
  ret void

terminate.lpad:                                   ; preds = %entry
  %2 = landingpad { ptr, i32 }
          catch ptr null
  %3 = extractvalue { ptr, i32 } %2, 0
  call void @__clang_call_terminate(ptr %3) #18
  unreachable
}

; Function Attrs: nounwind
declare void @_ZN19OpenColorIO_v2_4dev18FormatMetadataImplD1Ev(ptr noundef nonnull align 8 dereferenceable(120)) unnamed_addr #2

; Function Attrs: mustprogress uwtable
define hidden void @_ZN19OpenColorIO_v2_4dev18CTFReaderTransformC2ERKNS_10OpRcPtrVecERKNS_18FormatMetadataImplE(ptr noundef nonnull align 8 dereferenceable(356) %this, ptr noundef nonnull align 8 dereferenceable(144) %ops, ptr noundef nonnull align 8 dereferenceable(120) %metadata) unnamed_addr #5 align 2 personality ptr @__gxx_personality_v0 {
entry:
  %this.addr = alloca ptr, align 8
  %ops.addr = alloca ptr, align 8
  %metadata.addr = alloca ptr, align 8
  %ref.tmp = alloca %"class.std::__cxx11::basic_string", align 8
  %ref.tmp2 = alloca %"class.std::allocator", align 1
  %exn.slot = alloca ptr, align 8
  %ehselector.slot = alloca i32, align 4
  %ref.tmp3 = alloca %"class.std::__cxx11::basic_string", align 8
  %ref.tmp4 = alloca %"class.std::allocator", align 1
  %__range1 = alloca ptr, align 8
  %__begin1 = alloca %"class.__gnu_cxx::__normal_iterator.24", align 8
  %__end1 = alloca %"class.__gnu_cxx::__normal_iterator.24", align 8
  %op = alloca %"class.std::shared_ptr", align 8
  %opData = alloca %"class.std::shared_ptr.28", align 8
  store ptr %this, ptr %this.addr, align 8
  store ptr %ops, ptr %ops.addr, align 8
  store ptr %metadata, ptr %metadata.addr, align 8
  %this1 = load ptr, ptr %this.addr, align 8
  %m_id = getelementptr inbounds %"class.OpenColorIO_v2_4dev::CTFReaderTransform", ptr %this1, i32 0, i32 0
  call void @_ZNSt7__cxx1112basic_stringIcSt11char_traitsIcESaIcEEC1Ev(ptr noundef nonnull align 8 dereferenceable(32) %m_id) #3
  %m_name = getelementptr inbounds %"class.OpenColorIO_v2_4dev::CTFReaderTransform", ptr %this1, i32 0, i32 1
  call void @_ZNSt7__cxx1112basic_stringIcSt11char_traitsIcESaIcEEC1Ev(ptr noundef nonnull align 8 dereferenceable(32) %m_name) #3
  %m_inverseOfId = getelementptr inbounds %"class.OpenColorIO_v2_4dev::CTFReaderTransform", ptr %this1, i32 0, i32 2
  call void @_ZNSt7__cxx1112basic_stringIcSt11char_traitsIcESaIcEEC1Ev(ptr noundef nonnull align 8 dereferenceable(32) %m_inverseOfId) #3
  %m_inDescriptor = getelementptr inbounds %"class.OpenColorIO_v2_4dev::CTFReaderTransform", ptr %this1, i32 0, i32 3
  call void @_ZNSt7__cxx1112basic_stringIcSt11char_traitsIcESaIcEEC1Ev(ptr noundef nonnull align 8 dereferenceable(32) %m_inDescriptor) #3
  %m_outDescriptor = getelementptr inbounds %"class.OpenColorIO_v2_4dev::CTFReaderTransform", ptr %this1, i32 0, i32 4
  call void @_ZNSt7__cxx1112basic_stringIcSt11char_traitsIcESaIcEEC1Ev(ptr noundef nonnull align 8 dereferenceable(32) %m_outDescriptor) #3
  %m_infoMetadata = getelementptr inbounds %"class.OpenColorIO_v2_4dev::CTFReaderTransform", ptr %this1, i32 0, i32 5
  %0 = load ptr, ptr @_ZN19OpenColorIO_v2_4dev13METADATA_INFOE, align 8
  call void @_ZNSaIcEC1Ev(ptr noundef nonnull align 1 dereferenceable(1) %ref.tmp2) #3
  invoke void @_ZNSt7__cxx1112basic_stringIcSt11char_traitsIcESaIcEEC1EPKcRKS3_(ptr noundef nonnull align 8 dereferenceable(32) %ref.tmp, ptr noundef %0, ptr noundef nonnull align 1 dereferenceable(1) %ref.tmp2)
          to label %invoke.cont unwind label %lpad

invoke.cont:                                      ; preds = %entry
  call void @_ZNSaIcEC1Ev(ptr noundef nonnull align 1 dereferenceable(1) %ref.tmp4) #3
  invoke void @_ZNSt7__cxx1112basic_stringIcSt11char_traitsIcESaIcEEC1EPKcRKS3_(ptr noundef nonnull align 8 dereferenceable(32) %ref.tmp3, ptr noundef @.str.15, ptr noundef nonnull align 1 dereferenceable(1) %ref.tmp4)
          to label %invoke.cont6 unwind label %lpad5

invoke.cont6:                                     ; preds = %invoke.cont
  invoke void @_ZN19OpenColorIO_v2_4dev18FormatMetadataImplC1ERKNSt7__cxx1112basic_stringIcSt11char_traitsIcESaIcEEES8_(ptr noundef nonnull align 8 dereferenceable(120) %m_infoMetadata, ptr noundef nonnull align 8 dereferenceable(32) %ref.tmp, ptr noundef nonnull align 8 dereferenceable(32) %ref.tmp3)
          to label %invoke.cont8 unwind label %lpad7

invoke.cont8:                                     ; preds = %invoke.cont6
  call void @_ZNSt7__cxx1112basic_stringIcSt11char_traitsIcESaIcEED1Ev(ptr noundef nonnull align 8 dereferenceable(32) %ref.tmp3) #3
  call void @_ZNSaIcED1Ev(ptr noundef nonnull align 1 dereferenceable(1) %ref.tmp4) #3
  call void @_ZNSt7__cxx1112basic_stringIcSt11char_traitsIcESaIcEED1Ev(ptr noundef nonnull align 8 dereferenceable(32) %ref.tmp) #3
  call void @_ZNSaIcED1Ev(ptr noundef nonnull align 1 dereferenceable(1) %ref.tmp2) #3
  %m_ops = getelementptr inbounds %"class.OpenColorIO_v2_4dev::CTFReaderTransform", ptr %this1, i32 0, i32 6
  call void @_ZNSt6vectorISt10shared_ptrIKN19OpenColorIO_v2_4dev6OpDataEESaIS4_EEC2Ev(ptr noundef nonnull align 8 dereferenceable(24) %m_ops) #3
  %m_descriptions = getelementptr inbounds %"class.OpenColorIO_v2_4dev::CTFReaderTransform", ptr %this1, i32 0, i32 7
  call void @_ZNSt6vectorINSt7__cxx1112basic_stringIcSt11char_traitsIcESaIcEEESaIS5_EEC2Ev(ptr noundef nonnull align 8 dereferenceable(24) %m_descriptions) #3
  %m_version = getelementptr inbounds %"class.OpenColorIO_v2_4dev::CTFReaderTransform", ptr %this1, i32 0, i32 8
  invoke void @_ZN19OpenColorIO_v2_4dev10CTFVersionC2ERKS0_(ptr noundef nonnull align 4 dereferenceable(12) %m_version, ptr noundef nonnull align 4 dereferenceable(12) @_ZN19OpenColorIO_v2_4devL24CTF_PROCESS_LIST_VERSIONE)
          to label %invoke.cont12 unwind label %lpad11

invoke.cont12:                                    ; preds = %invoke.cont8
  %m_versionCLF = getelementptr inbounds %"class.OpenColorIO_v2_4dev::CTFReaderTransform", ptr %this1, i32 0, i32 9
  invoke void @_ZN19OpenColorIO_v2_4dev10CTFVersionC2Ejj(ptr noundef nonnull align 4 dereferenceable(12) %m_versionCLF, i32 noundef 0, i32 noundef 0)
          to label %invoke.cont14 unwind label %lpad13

invoke.cont14:                                    ; preds = %invoke.cont12
  %m_prevOutBD = getelementptr inbounds %"class.OpenColorIO_v2_4dev::CTFReaderTransform", ptr %this1, i32 0, i32 10
  store i32 0, ptr %m_prevOutBD, align 8
  %1 = load ptr, ptr %metadata.addr, align 8
  invoke void @_ZN19OpenColorIO_v2_4dev18CTFReaderTransform12fromMetadataERKNS_18FormatMetadataImplE(ptr noundef nonnull align 8 dereferenceable(356) %this1, ptr noundef nonnull align 8 dereferenceable(120) %1)
          to label %invoke.cont16 unwind label %lpad15

invoke.cont16:                                    ; preds = %invoke.cont14
  %2 = load ptr, ptr %ops.addr, align 8
  store ptr %2, ptr %__range1, align 8
  %3 = load ptr, ptr %__range1, align 8
  %call = call ptr @_ZNK19OpenColorIO_v2_4dev10OpRcPtrVec5beginEv(ptr noundef nonnull align 8 dereferenceable(144) %3) #3
  %coerce.dive = getelementptr inbounds %"class.__gnu_cxx::__normal_iterator.24", ptr %__begin1, i32 0, i32 0
  store ptr %call, ptr %coerce.dive, align 8
  %4 = load ptr, ptr %__range1, align 8
  %call17 = call ptr @_ZNK19OpenColorIO_v2_4dev10OpRcPtrVec3endEv(ptr noundef nonnull align 8 dereferenceable(144) %4) #3
  %coerce.dive18 = getelementptr inbounds %"class.__gnu_cxx::__normal_iterator.24", ptr %__end1, i32 0, i32 0
  store ptr %call17, ptr %coerce.dive18, align 8
  br label %for.cond

for.cond:                                         ; preds = %for.inc, %invoke.cont16
  %call19 = call noundef zeroext i1 @_ZN9__gnu_cxxneIPKSt10shared_ptrIN19OpenColorIO_v2_4dev2OpEESt6vectorIS4_SaIS4_EEEEbRKNS_17__normal_iteratorIT_T0_EESF_(ptr noundef nonnull align 8 dereferenceable(8) %__begin1, ptr noundef nonnull align 8 dereferenceable(8) %__end1) #3
  br i1 %call19, label %for.body, label %for.end

for.body:                                         ; preds = %for.cond
  %call20 = call noundef nonnull align 8 dereferenceable(16) ptr @_ZNK9__gnu_cxx17__normal_iteratorIPKSt10shared_ptrIN19OpenColorIO_v2_4dev2OpEESt6vectorIS4_SaIS4_EEEdeEv(ptr noundef nonnull align 8 dereferenceable(8) %__begin1) #3
  call void @_ZNSt10shared_ptrIKN19OpenColorIO_v2_4dev2OpEEC2IS1_vEERKS_IT_E(ptr noundef nonnull align 8 dereferenceable(16) %op, ptr noundef nonnull align 8 dereferenceable(16) %call20) #3
  %call21 = call noundef ptr @_ZNKSt19__shared_ptr_accessIKN19OpenColorIO_v2_4dev2OpELN9__gnu_cxx12_Lock_policyE2ELb0ELb0EEptEv(ptr noundef nonnull align 1 dereferenceable(1) %op) #3
  invoke void @_ZNK19OpenColorIO_v2_4dev2Op4dataEv(ptr sret(%"class.std::shared_ptr.28") align 8 %opData, ptr noundef nonnull align 8 dereferenceable(24) %call21)
          to label %invoke.cont23 unwind label %lpad22

invoke.cont23:                                    ; preds = %for.body
  %m_ops24 = getelementptr inbounds %"class.OpenColorIO_v2_4dev::CTFReaderTransform", ptr %this1, i32 0, i32 6
  invoke void @_ZNSt6vectorISt10shared_ptrIKN19OpenColorIO_v2_4dev6OpDataEESaIS4_EE9push_backERKS4_(ptr noundef nonnull align 8 dereferenceable(24) %m_ops24, ptr noundef nonnull align 8 dereferenceable(16) %opData)
          to label %invoke.cont26 unwind label %lpad25

invoke.cont26:                                    ; preds = %invoke.cont23
  call void @_ZNSt10shared_ptrIKN19OpenColorIO_v2_4dev6OpDataEED2Ev(ptr noundef nonnull align 8 dereferenceable(16) %opData) #3
  call void @_ZNSt10shared_ptrIKN19OpenColorIO_v2_4dev2OpEED2Ev(ptr noundef nonnull align 8 dereferenceable(16) %op) #3
  br label %for.inc

for.inc:                                          ; preds = %invoke.cont26
  %call29 = call noundef nonnull align 8 dereferenceable(8) ptr @_ZN9__gnu_cxx17__normal_iteratorIPKSt10shared_ptrIN19OpenColorIO_v2_4dev2OpEESt6vectorIS4_SaIS4_EEEppEv(ptr noundef nonnull align 8 dereferenceable(8) %__begin1) #3
  br label %for.cond

lpad:                                             ; preds = %entry
  %5 = landingpad { ptr, i32 }
          cleanup
  %6 = extractvalue { ptr, i32 } %5, 0
  store ptr %6, ptr %exn.slot, align 8
  %7 = extractvalue { ptr, i32 } %5, 1
  store i32 %7, ptr %ehselector.slot, align 4
  br label %ehcleanup10

lpad5:                                            ; preds = %invoke.cont
  %8 = landingpad { ptr, i32 }
          cleanup
  %9 = extractvalue { ptr, i32 } %8, 0
  store ptr %9, ptr %exn.slot, align 8
  %10 = extractvalue { ptr, i32 } %8, 1
  store i32 %10, ptr %ehselector.slot, align 4
  br label %ehcleanup

lpad7:                                            ; preds = %invoke.cont6
  %11 = landingpad { ptr, i32 }
          cleanup
  %12 = extractvalue { ptr, i32 } %11, 0
  store ptr %12, ptr %exn.slot, align 8
  %13 = extractvalue { ptr, i32 } %11, 1
  store i32 %13, ptr %ehselector.slot, align 4
  call void @_ZNSt7__cxx1112basic_stringIcSt11char_traitsIcESaIcEED1Ev(ptr noundef nonnull align 8 dereferenceable(32) %ref.tmp3) #3
  br label %ehcleanup

ehcleanup:                                        ; preds = %lpad7, %lpad5
  call void @_ZNSaIcED1Ev(ptr noundef nonnull align 1 dereferenceable(1) %ref.tmp4) #3
  call void @_ZNSt7__cxx1112basic_stringIcSt11char_traitsIcESaIcEED1Ev(ptr noundef nonnull align 8 dereferenceable(32) %ref.tmp) #3
  br label %ehcleanup10

ehcleanup10:                                      ; preds = %ehcleanup, %lpad
  call void @_ZNSaIcED1Ev(ptr noundef nonnull align 1 dereferenceable(1) %ref.tmp2) #3
  br label %ehcleanup35

lpad11:                                           ; preds = %invoke.cont8
  %14 = landingpad { ptr, i32 }
          cleanup
  %15 = extractvalue { ptr, i32 } %14, 0
  store ptr %15, ptr %exn.slot, align 8
  %16 = extractvalue { ptr, i32 } %14, 1
  store i32 %16, ptr %ehselector.slot, align 4
  br label %ehcleanup32

lpad13:                                           ; preds = %invoke.cont12
  %17 = landingpad { ptr, i32 }
          cleanup
  %18 = extractvalue { ptr, i32 } %17, 0
  store ptr %18, ptr %exn.slot, align 8
  %19 = extractvalue { ptr, i32 } %17, 1
  store i32 %19, ptr %ehselector.slot, align 4
  br label %ehcleanup31

lpad15:                                           ; preds = %invoke.cont14
  %20 = landingpad { ptr, i32 }
          cleanup
  %21 = extractvalue { ptr, i32 } %20, 0
  store ptr %21, ptr %exn.slot, align 8
  %22 = extractvalue { ptr, i32 } %20, 1
  store i32 %22, ptr %ehselector.slot, align 4
  br label %ehcleanup30

lpad22:                                           ; preds = %for.body
  %23 = landingpad { ptr, i32 }
          cleanup
  %24 = extractvalue { ptr, i32 } %23, 0
  store ptr %24, ptr %exn.slot, align 8
  %25 = extractvalue { ptr, i32 } %23, 1
  store i32 %25, ptr %ehselector.slot, align 4
  br label %ehcleanup28

lpad25:                                           ; preds = %invoke.cont23
  %26 = landingpad { ptr, i32 }
          cleanup
  %27 = extractvalue { ptr, i32 } %26, 0
  store ptr %27, ptr %exn.slot, align 8
  %28 = extractvalue { ptr, i32 } %26, 1
  store i32 %28, ptr %ehselector.slot, align 4
  call void @_ZNSt10shared_ptrIKN19OpenColorIO_v2_4dev6OpDataEED2Ev(ptr noundef nonnull align 8 dereferenceable(16) %opData) #3
  br label %ehcleanup28

ehcleanup28:                                      ; preds = %lpad25, %lpad22
  call void @_ZNSt10shared_ptrIKN19OpenColorIO_v2_4dev2OpEED2Ev(ptr noundef nonnull align 8 dereferenceable(16) %op) #3
  br label %ehcleanup30

for.end:                                          ; preds = %for.cond
  ret void

ehcleanup30:                                      ; preds = %ehcleanup28, %lpad15
  call void @_ZN19OpenColorIO_v2_4dev10CTFVersionD2Ev(ptr noundef nonnull align 4 dereferenceable(12) %m_versionCLF) #3
  br label %ehcleanup31

ehcleanup31:                                      ; preds = %ehcleanup30, %lpad13
  call void @_ZN19OpenColorIO_v2_4dev10CTFVersionD2Ev(ptr noundef nonnull align 4 dereferenceable(12) %m_version) #3
  br label %ehcleanup32

ehcleanup32:                                      ; preds = %ehcleanup31, %lpad11
  call void @_ZNSt6vectorINSt7__cxx1112basic_stringIcSt11char_traitsIcESaIcEEESaIS5_EED2Ev(ptr noundef nonnull align 8 dereferenceable(24) %m_descriptions) #3
  call void @_ZNSt6vectorISt10shared_ptrIKN19OpenColorIO_v2_4dev6OpDataEESaIS4_EED2Ev(ptr noundef nonnull align 8 dereferenceable(24) %m_ops) #3
  call void @_ZN19OpenColorIO_v2_4dev18FormatMetadataImplD1Ev(ptr noundef nonnull align 8 dereferenceable(120) %m_infoMetadata) #3
  br label %ehcleanup35

ehcleanup35:                                      ; preds = %ehcleanup32, %ehcleanup10
  call void @_ZNSt7__cxx1112basic_stringIcSt11char_traitsIcESaIcEED1Ev(ptr noundef nonnull align 8 dereferenceable(32) %m_outDescriptor) #3
  call void @_ZNSt7__cxx1112basic_stringIcSt11char_traitsIcESaIcEED1Ev(ptr noundef nonnull align 8 dereferenceable(32) %m_inDescriptor) #3
  call void @_ZNSt7__cxx1112basic_stringIcSt11char_traitsIcESaIcEED1Ev(ptr noundef nonnull align 8 dereferenceable(32) %m_inverseOfId) #3
  call void @_ZNSt7__cxx1112basic_stringIcSt11char_traitsIcESaIcEED1Ev(ptr noundef nonnull align 8 dereferenceable(32) %m_name) #3
  call void @_ZNSt7__cxx1112basic_stringIcSt11char_traitsIcESaIcEED1Ev(ptr noundef nonnull align 8 dereferenceable(32) %m_id) #3
  br label %eh.resume

eh.resume:                                        ; preds = %ehcleanup35
  %exn = load ptr, ptr %exn.slot, align 8
  %sel = load i32, ptr %ehselector.slot, align 4
  %lpad.val = insertvalue { ptr, i32 } poison, ptr %exn, 0
  %lpad.val40 = insertvalue { ptr, i32 } %lpad.val, i32 %sel, 1
  resume { ptr, i32 } %lpad.val40
}

; Function Attrs: mustprogress uwtable
define hidden void @_ZN19OpenColorIO_v2_4dev18CTFReaderTransform12fromMetadataERKNS_18FormatMetadataImplE(ptr noundef nonnull align 8 dereferenceable(356) %this, ptr noundef nonnull align 8 dereferenceable(120) %metadata) #5 align 2 personality ptr @__gxx_personality_v0 {
entry:
  %this.addr = alloca ptr, align 8
  %metadata.addr = alloca ptr, align 8
  %ref.tmp = alloca %"class.std::__cxx11::basic_string", align 8
  %ref.tmp8 = alloca %"class.std::allocator", align 1
  %exn.slot = alloca ptr, align 8
  %ehselector.slot = alloca i32, align 4
  %ref.tmp15 = alloca %"class.std::__cxx11::basic_string", align 8
  %ref.tmp16 = alloca %"class.std::allocator", align 1
  %ref.tmp27 = alloca %"class.std::__cxx11::basic_string", align 8
  %ref.tmp28 = alloca %"class.std::allocator", align 1
  %__range1 = alloca ptr, align 8
  %__begin1 = alloca %"class.__gnu_cxx::__normal_iterator.34", align 8
  %__end1 = alloca %"class.__gnu_cxx::__normal_iterator.34", align 8
  %elt = alloca %"class.OpenColorIO_v2_4dev::FormatMetadataImpl", align 8
  store ptr %this, ptr %this.addr, align 8
  store ptr %metadata, ptr %metadata.addr, align 8
  %this1 = load ptr, ptr %this.addr, align 8
  %0 = load ptr, ptr %metadata.addr, align 8
  %1 = load ptr, ptr @_ZN19OpenColorIO_v2_4dev13METADATA_NAMEE, align 8
  %call = call noundef nonnull align 8 dereferenceable(32) ptr @_ZNK19OpenColorIO_v2_4dev18FormatMetadataImpl23getAttributeValueStringB5cxx11EPKc(ptr noundef nonnull align 8 dereferenceable(120) %0, ptr noundef %1) #3
  %m_name = getelementptr inbounds %"class.OpenColorIO_v2_4dev::CTFReaderTransform", ptr %this1, i32 0, i32 1
  %call2 = call noundef nonnull align 8 dereferenceable(32) ptr @_ZNSt7__cxx1112basic_stringIcSt11char_traitsIcESaIcEEaSERKS4_(ptr noundef nonnull align 8 dereferenceable(32) %m_name, ptr noundef nonnull align 8 dereferenceable(32) %call)
  %2 = load ptr, ptr %metadata.addr, align 8
  %3 = load ptr, ptr @_ZN19OpenColorIO_v2_4dev11METADATA_IDE, align 8
  %call3 = call noundef nonnull align 8 dereferenceable(32) ptr @_ZNK19OpenColorIO_v2_4dev18FormatMetadataImpl23getAttributeValueStringB5cxx11EPKc(ptr noundef nonnull align 8 dereferenceable(120) %2, ptr noundef %3) #3
  %m_id = getelementptr inbounds %"class.OpenColorIO_v2_4dev::CTFReaderTransform", ptr %this1, i32 0, i32 0
  %call4 = call noundef nonnull align 8 dereferenceable(32) ptr @_ZNSt7__cxx1112basic_stringIcSt11char_traitsIcESaIcEEaSERKS4_(ptr noundef nonnull align 8 dereferenceable(32) %m_id, ptr noundef nonnull align 8 dereferenceable(32) %call3)
  %4 = load ptr, ptr %metadata.addr, align 8
  %call5 = call noundef nonnull align 8 dereferenceable(32) ptr @_ZNK19OpenColorIO_v2_4dev18FormatMetadataImpl23getAttributeValueStringB5cxx11EPKc(ptr noundef nonnull align 8 dereferenceable(120) %4, ptr noundef @_ZN19OpenColorIO_v2_4devL15ATTR_INVERSE_OFE) #3
  %m_inverseOfId = getelementptr inbounds %"class.OpenColorIO_v2_4dev::CTFReaderTransform", ptr %this1, i32 0, i32 2
  %call6 = call noundef nonnull align 8 dereferenceable(32) ptr @_ZNSt7__cxx1112basic_stringIcSt11char_traitsIcESaIcEEaSERKS4_(ptr noundef nonnull align 8 dereferenceable(32) %m_inverseOfId, ptr noundef nonnull align 8 dereferenceable(32) %call5)
  %5 = load ptr, ptr %metadata.addr, align 8
  %call7 = call noundef nonnull align 8 dereferenceable(24) ptr @_ZNK19OpenColorIO_v2_4dev18FormatMetadataImpl19getChildrenElementsEv(ptr noundef nonnull align 8 dereferenceable(120) %5) #3
  %6 = load ptr, ptr @_ZN19OpenColorIO_v2_4dev25METADATA_INPUT_DESCRIPTORE, align 8
  call void @_ZNSaIcEC1Ev(ptr noundef nonnull align 1 dereferenceable(1) %ref.tmp8) #3
  invoke void @_ZNSt7__cxx1112basic_stringIcSt11char_traitsIcESaIcEEC1EPKcRKS3_(ptr noundef nonnull align 8 dereferenceable(32) %ref.tmp, ptr noundef %6, ptr noundef nonnull align 1 dereferenceable(1) %ref.tmp8)
          to label %invoke.cont unwind label %lpad

invoke.cont:                                      ; preds = %entry
  %call11 = invoke noundef ptr @_ZN19OpenColorIO_v2_4dev12_GLOBAL__N_120GetFirstElementValueERKSt6vectorINS_18FormatMetadataImplESaIS2_EERKNSt7__cxx1112basic_stringIcSt11char_traitsIcESaIcEEE(ptr noundef nonnull align 8 dereferenceable(24) %call7, ptr noundef nonnull align 8 dereferenceable(32) %ref.tmp)
          to label %invoke.cont10 unwind label %lpad9

invoke.cont10:                                    ; preds = %invoke.cont
  %m_inDescriptor = getelementptr inbounds %"class.OpenColorIO_v2_4dev::CTFReaderTransform", ptr %this1, i32 0, i32 3
  %call13 = invoke noundef nonnull align 8 dereferenceable(32) ptr @_ZNSt7__cxx1112basic_stringIcSt11char_traitsIcESaIcEEaSEPKc(ptr noundef nonnull align 8 dereferenceable(32) %m_inDescriptor, ptr noundef %call11)
          to label %invoke.cont12 unwind label %lpad9

invoke.cont12:                                    ; preds = %invoke.cont10
  call void @_ZNSt7__cxx1112basic_stringIcSt11char_traitsIcESaIcEED1Ev(ptr noundef nonnull align 8 dereferenceable(32) %ref.tmp) #3
  call void @_ZNSaIcED1Ev(ptr noundef nonnull align 1 dereferenceable(1) %ref.tmp8) #3
  %7 = load ptr, ptr %metadata.addr, align 8
  %call14 = call noundef nonnull align 8 dereferenceable(24) ptr @_ZNK19OpenColorIO_v2_4dev18FormatMetadataImpl19getChildrenElementsEv(ptr noundef nonnull align 8 dereferenceable(120) %7) #3
  %8 = load ptr, ptr @_ZN19OpenColorIO_v2_4dev26METADATA_OUTPUT_DESCRIPTORE, align 8
  call void @_ZNSaIcEC1Ev(ptr noundef nonnull align 1 dereferenceable(1) %ref.tmp16) #3
  invoke void @_ZNSt7__cxx1112basic_stringIcSt11char_traitsIcESaIcEEC1EPKcRKS3_(ptr noundef nonnull align 8 dereferenceable(32) %ref.tmp15, ptr noundef %8, ptr noundef nonnull align 1 dereferenceable(1) %ref.tmp16)
          to label %invoke.cont18 unwind label %lpad17

invoke.cont18:                                    ; preds = %invoke.cont12
  %call21 = invoke noundef ptr @_ZN19OpenColorIO_v2_4dev12_GLOBAL__N_119GetLastElementValueERKSt6vectorINS_18FormatMetadataImplESaIS2_EERKNSt7__cxx1112basic_stringIcSt11char_traitsIcESaIcEEE(ptr noundef nonnull align 8 dereferenceable(24) %call14, ptr noundef nonnull align 8 dereferenceable(32) %ref.tmp15)
          to label %invoke.cont20 unwind label %lpad19

invoke.cont20:                                    ; preds = %invoke.cont18
  %m_outDescriptor = getelementptr inbounds %"class.OpenColorIO_v2_4dev::CTFReaderTransform", ptr %this1, i32 0, i32 4
  %call23 = invoke noundef nonnull align 8 dereferenceable(32) ptr @_ZNSt7__cxx1112basic_stringIcSt11char_traitsIcESaIcEEaSEPKc(ptr noundef nonnull align 8 dereferenceable(32) %m_outDescriptor, ptr noundef %call21)
          to label %invoke.cont22 unwind label %lpad19

invoke.cont22:                                    ; preds = %invoke.cont20
  call void @_ZNSt7__cxx1112basic_stringIcSt11char_traitsIcESaIcEED1Ev(ptr noundef nonnull align 8 dereferenceable(32) %ref.tmp15) #3
  call void @_ZNSaIcED1Ev(ptr noundef nonnull align 1 dereferenceable(1) %ref.tmp16) #3
  %9 = load ptr, ptr %metadata.addr, align 8
  %call26 = call noundef nonnull align 8 dereferenceable(24) ptr @_ZNK19OpenColorIO_v2_4dev18FormatMetadataImpl19getChildrenElementsEv(ptr noundef nonnull align 8 dereferenceable(120) %9) #3
  %10 = load ptr, ptr @_ZN19OpenColorIO_v2_4dev20METADATA_DESCRIPTIONE, align 8
  call void @_ZNSaIcEC1Ev(ptr noundef nonnull align 1 dereferenceable(1) %ref.tmp28) #3
  invoke void @_ZNSt7__cxx1112basic_stringIcSt11char_traitsIcESaIcEEC1EPKcRKS3_(ptr noundef nonnull align 8 dereferenceable(32) %ref.tmp27, ptr noundef %10, ptr noundef nonnull align 1 dereferenceable(1) %ref.tmp28)
          to label %invoke.cont30 unwind label %lpad29

invoke.cont30:                                    ; preds = %invoke.cont22
  %m_descriptions = getelementptr inbounds %"class.OpenColorIO_v2_4dev::CTFReaderTransform", ptr %this1, i32 0, i32 7
  invoke void @_ZN19OpenColorIO_v2_4dev17GetElementsValuesERKSt6vectorINS_18FormatMetadataImplESaIS1_EERKNSt7__cxx1112basic_stringIcSt11char_traitsIcESaIcEEERS0_ISB_SaISB_EE(ptr noundef nonnull align 8 dereferenceable(24) %call26, ptr noundef nonnull align 8 dereferenceable(32) %ref.tmp27, ptr noundef nonnull align 8 dereferenceable(24) %m_descriptions)
          to label %invoke.cont32 unwind label %lpad31

invoke.cont32:                                    ; preds = %invoke.cont30
  call void @_ZNSt7__cxx1112basic_stringIcSt11char_traitsIcESaIcEED1Ev(ptr noundef nonnull align 8 dereferenceable(32) %ref.tmp27) #3
  call void @_ZNSaIcED1Ev(ptr noundef nonnull align 1 dereferenceable(1) %ref.tmp28) #3
  %11 = load ptr, ptr %metadata.addr, align 8
  %call35 = call noundef nonnull align 8 dereferenceable(24) ptr @_ZNK19OpenColorIO_v2_4dev18FormatMetadataImpl19getChildrenElementsEv(ptr noundef nonnull align 8 dereferenceable(120) %11) #3
  store ptr %call35, ptr %__range1, align 8
  %12 = load ptr, ptr %__range1, align 8
  %call36 = call ptr @_ZNKSt6vectorIN19OpenColorIO_v2_4dev18FormatMetadataImplESaIS1_EE5beginEv(ptr noundef nonnull align 8 dereferenceable(24) %12) #3
  %coerce.dive = getelementptr inbounds %"class.__gnu_cxx::__normal_iterator.34", ptr %__begin1, i32 0, i32 0
  store ptr %call36, ptr %coerce.dive, align 8
  %13 = load ptr, ptr %__range1, align 8
  %call37 = call ptr @_ZNKSt6vectorIN19OpenColorIO_v2_4dev18FormatMetadataImplESaIS1_EE3endEv(ptr noundef nonnull align 8 dereferenceable(24) %13) #3
  %coerce.dive38 = getelementptr inbounds %"class.__gnu_cxx::__normal_iterator.34", ptr %__end1, i32 0, i32 0
  store ptr %call37, ptr %coerce.dive38, align 8
  br label %for.cond

for.cond:                                         ; preds = %for.inc, %invoke.cont32
  %call39 = call noundef zeroext i1 @_ZN9__gnu_cxxneIPKN19OpenColorIO_v2_4dev18FormatMetadataImplESt6vectorIS2_SaIS2_EEEEbRKNS_17__normal_iteratorIT_T0_EESD_(ptr noundef nonnull align 8 dereferenceable(8) %__begin1, ptr noundef nonnull align 8 dereferenceable(8) %__end1) #3
  br i1 %call39, label %for.body, label %for.end

for.body:                                         ; preds = %for.cond
  %call40 = call noundef nonnull align 8 dereferenceable(120) ptr @_ZNK9__gnu_cxx17__normal_iteratorIPKN19OpenColorIO_v2_4dev18FormatMetadataImplESt6vectorIS2_SaIS2_EEEdeEv(ptr noundef nonnull align 8 dereferenceable(8) %__begin1) #3
  call void @_ZN19OpenColorIO_v2_4dev18FormatMetadataImplC1ERKS0_(ptr noundef nonnull align 8 dereferenceable(120) %elt, ptr noundef nonnull align 8 dereferenceable(120) %call40)
  %call41 = call noundef ptr @_ZNK19OpenColorIO_v2_4dev18FormatMetadataImpl14getElementNameEv(ptr noundef nonnull align 8 dereferenceable(120) %elt) #3
  %14 = load ptr, ptr @_ZN19OpenColorIO_v2_4dev13METADATA_INFOE, align 8
  %call44 = invoke noundef i32 @_ZN19OpenColorIO_v2_4dev8Platform10StrcasecmpEPKcS2_(ptr noundef %call41, ptr noundef %14)
          to label %invoke.cont43 unwind label %lpad42

invoke.cont43:                                    ; preds = %for.body
  %cmp = icmp eq i32 0, %call44
  br i1 %cmp, label %if.then, label %if.end

if.then:                                          ; preds = %invoke.cont43
  %m_infoMetadata = getelementptr inbounds %"class.OpenColorIO_v2_4dev::CTFReaderTransform", ptr %this1, i32 0, i32 5
  invoke void @_ZN19OpenColorIO_v2_4dev18FormatMetadataImpl7combineERKS0_(ptr noundef nonnull align 8 dereferenceable(120) %m_infoMetadata, ptr noundef nonnull align 8 dereferenceable(120) %elt)
          to label %invoke.cont45 unwind label %lpad42

invoke.cont45:                                    ; preds = %if.then
  br label %if.end

lpad:                                             ; preds = %entry
  %15 = landingpad { ptr, i32 }
          cleanup
  %16 = extractvalue { ptr, i32 } %15, 0
  store ptr %16, ptr %exn.slot, align 8
  %17 = extractvalue { ptr, i32 } %15, 1
  store i32 %17, ptr %ehselector.slot, align 4
  br label %ehcleanup

lpad9:                                            ; preds = %invoke.cont10, %invoke.cont
  %18 = landingpad { ptr, i32 }
          cleanup
  %19 = extractvalue { ptr, i32 } %18, 0
  store ptr %19, ptr %exn.slot, align 8
  %20 = extractvalue { ptr, i32 } %18, 1
  store i32 %20, ptr %ehselector.slot, align 4
  call void @_ZNSt7__cxx1112basic_stringIcSt11char_traitsIcESaIcEED1Ev(ptr noundef nonnull align 8 dereferenceable(32) %ref.tmp) #3
  br label %ehcleanup

ehcleanup:                                        ; preds = %lpad9, %lpad
  call void @_ZNSaIcED1Ev(ptr noundef nonnull align 1 dereferenceable(1) %ref.tmp8) #3
  br label %eh.resume

lpad17:                                           ; preds = %invoke.cont12
  %21 = landingpad { ptr, i32 }
          cleanup
  %22 = extractvalue { ptr, i32 } %21, 0
  store ptr %22, ptr %exn.slot, align 8
  %23 = extractvalue { ptr, i32 } %21, 1
  store i32 %23, ptr %ehselector.slot, align 4
  br label %ehcleanup25

lpad19:                                           ; preds = %invoke.cont20, %invoke.cont18
  %24 = landingpad { ptr, i32 }
          cleanup
  %25 = extractvalue { ptr, i32 } %24, 0
  store ptr %25, ptr %exn.slot, align 8
  %26 = extractvalue { ptr, i32 } %24, 1
  store i32 %26, ptr %ehselector.slot, align 4
  call void @_ZNSt7__cxx1112basic_stringIcSt11char_traitsIcESaIcEED1Ev(ptr noundef nonnull align 8 dereferenceable(32) %ref.tmp15) #3
  br label %ehcleanup25

ehcleanup25:                                      ; preds = %lpad19, %lpad17
  call void @_ZNSaIcED1Ev(ptr noundef nonnull align 1 dereferenceable(1) %ref.tmp16) #3
  br label %eh.resume

lpad29:                                           ; preds = %invoke.cont22
  %27 = landingpad { ptr, i32 }
          cleanup
  %28 = extractvalue { ptr, i32 } %27, 0
  store ptr %28, ptr %exn.slot, align 8
  %29 = extractvalue { ptr, i32 } %27, 1
  store i32 %29, ptr %ehselector.slot, align 4
  br label %ehcleanup34

lpad31:                                           ; preds = %invoke.cont30
  %30 = landingpad { ptr, i32 }
          cleanup
  %31 = extractvalue { ptr, i32 } %30, 0
  store ptr %31, ptr %exn.slot, align 8
  %32 = extractvalue { ptr, i32 } %30, 1
  store i32 %32, ptr %ehselector.slot, align 4
  call void @_ZNSt7__cxx1112basic_stringIcSt11char_traitsIcESaIcEED1Ev(ptr noundef nonnull align 8 dereferenceable(32) %ref.tmp27) #3
  br label %ehcleanup34

ehcleanup34:                                      ; preds = %lpad31, %lpad29
  call void @_ZNSaIcED1Ev(ptr noundef nonnull align 1 dereferenceable(1) %ref.tmp28) #3
  br label %eh.resume

lpad42:                                           ; preds = %if.then, %for.body
  %33 = landingpad { ptr, i32 }
          cleanup
  %34 = extractvalue { ptr, i32 } %33, 0
  store ptr %34, ptr %exn.slot, align 8
  %35 = extractvalue { ptr, i32 } %33, 1
  store i32 %35, ptr %ehselector.slot, align 4
  call void @_ZN19OpenColorIO_v2_4dev18FormatMetadataImplD1Ev(ptr noundef nonnull align 8 dereferenceable(120) %elt) #3
  br label %eh.resume

if.end:                                           ; preds = %invoke.cont45, %invoke.cont43
  call void @_ZN19OpenColorIO_v2_4dev18FormatMetadataImplD1Ev(ptr noundef nonnull align 8 dereferenceable(120) %elt) #3
  br label %for.inc

for.inc:                                          ; preds = %if.end
  %call47 = call noundef nonnull align 8 dereferenceable(8) ptr @_ZN9__gnu_cxx17__normal_iteratorIPKN19OpenColorIO_v2_4dev18FormatMetadataImplESt6vectorIS2_SaIS2_EEEppEv(ptr noundef nonnull align 8 dereferenceable(8) %__begin1) #3
  br label %for.cond

for.end:                                          ; preds = %for.cond
  ret void

eh.resume:                                        ; preds = %lpad42, %ehcleanup34, %ehcleanup25, %ehcleanup
  %exn = load ptr, ptr %exn.slot, align 8
  %sel = load i32, ptr %ehselector.slot, align 4
  %lpad.val = insertvalue { ptr, i32 } poison, ptr %exn, 0
  %lpad.val48 = insertvalue { ptr, i32 } %lpad.val, i32 %sel, 1
  resume { ptr, i32 } %lpad.val48
}

; Function Attrs: mustprogress nounwind uwtable
define linkonce_odr hidden ptr @_ZNK19OpenColorIO_v2_4dev10OpRcPtrVec5beginEv(ptr noundef nonnull align 8 dereferenceable(144) %this) #4 comdat align 2 {
entry:
  %retval = alloca %"class.__gnu_cxx::__normal_iterator.24", align 8
  %this.addr = alloca ptr, align 8
  store ptr %this, ptr %this.addr, align 8
  %this1 = load ptr, ptr %this.addr, align 8
  %m_ops = getelementptr inbounds %"class.OpenColorIO_v2_4dev::OpRcPtrVec", ptr %this1, i32 0, i32 0
  %call = call ptr @_ZNKSt6vectorISt10shared_ptrIN19OpenColorIO_v2_4dev2OpEESaIS3_EE5beginEv(ptr noundef nonnull align 8 dereferenceable(24) %m_ops) #3
  %coerce.dive = getelementptr inbounds %"class.__gnu_cxx::__normal_iterator.24", ptr %retval, i32 0, i32 0
  store ptr %call, ptr %coerce.dive, align 8
  %coerce.dive2 = getelementptr inbounds %"class.__gnu_cxx::__normal_iterator.24", ptr %retval, i32 0, i32 0
  %0 = load ptr, ptr %coerce.dive2, align 8
  ret ptr %0
}

; Function Attrs: mustprogress nounwind uwtable
define linkonce_odr hidden ptr @_ZNK19OpenColorIO_v2_4dev10OpRcPtrVec3endEv(ptr noundef nonnull align 8 dereferenceable(144) %this) #4 comdat align 2 {
entry:
  %retval = alloca %"class.__gnu_cxx::__normal_iterator.24", align 8
  %this.addr = alloca ptr, align 8
  store ptr %this, ptr %this.addr, align 8
  %this1 = load ptr, ptr %this.addr, align 8
  %m_ops = getelementptr inbounds %"class.OpenColorIO_v2_4dev::OpRcPtrVec", ptr %this1, i32 0, i32 0
  %call = call ptr @_ZNKSt6vectorISt10shared_ptrIN19OpenColorIO_v2_4dev2OpEESaIS3_EE3endEv(ptr noundef nonnull align 8 dereferenceable(24) %m_ops) #3
  %coerce.dive = getelementptr inbounds %"class.__gnu_cxx::__normal_iterator.24", ptr %retval, i32 0, i32 0
  store ptr %call, ptr %coerce.dive, align 8
  %coerce.dive2 = getelementptr inbounds %"class.__gnu_cxx::__normal_iterator.24", ptr %retval, i32 0, i32 0
  %0 = load ptr, ptr %coerce.dive2, align 8
  ret ptr %0
}

; Function Attrs: mustprogress nounwind uwtable
define linkonce_odr hidden noundef zeroext i1 @_ZN9__gnu_cxxneIPKSt10shared_ptrIN19OpenColorIO_v2_4dev2OpEESt6vectorIS4_SaIS4_EEEEbRKNS_17__normal_iteratorIT_T0_EESF_(ptr noundef nonnull align 8 dereferenceable(8) %__lhs, ptr noundef nonnull align 8 dereferenceable(8) %__rhs) #4 comdat {
entry:
  %__lhs.addr = alloca ptr, align 8
  %__rhs.addr = alloca ptr, align 8
  store ptr %__lhs, ptr %__lhs.addr, align 8
  store ptr %__rhs, ptr %__rhs.addr, align 8
  %0 = load ptr, ptr %__lhs.addr, align 8
  %call = call noundef nonnull align 8 dereferenceable(8) ptr @_ZNK9__gnu_cxx17__normal_iteratorIPKSt10shared_ptrIN19OpenColorIO_v2_4dev2OpEESt6vectorIS4_SaIS4_EEE4baseEv(ptr noundef nonnull align 8 dereferenceable(8) %0) #3
  %1 = load ptr, ptr %call, align 8
  %2 = load ptr, ptr %__rhs.addr, align 8
  %call1 = call noundef nonnull align 8 dereferenceable(8) ptr @_ZNK9__gnu_cxx17__normal_iteratorIPKSt10shared_ptrIN19OpenColorIO_v2_4dev2OpEESt6vectorIS4_SaIS4_EEE4baseEv(ptr noundef nonnull align 8 dereferenceable(8) %2) #3
  %3 = load ptr, ptr %call1, align 8
  %cmp = icmp ne ptr %1, %3
  ret i1 %cmp
}

; Function Attrs: mustprogress nounwind uwtable
define linkonce_odr hidden noundef nonnull align 8 dereferenceable(16) ptr @_ZNK9__gnu_cxx17__normal_iteratorIPKSt10shared_ptrIN19OpenColorIO_v2_4dev2OpEESt6vectorIS4_SaIS4_EEEdeEv(ptr noundef nonnull align 8 dereferenceable(8) %this) #4 comdat align 2 {
entry:
  %this.addr = alloca ptr, align 8
  store ptr %this, ptr %this.addr, align 8
  %this1 = load ptr, ptr %this.addr, align 8
  %_M_current = getelementptr inbounds %"class.__gnu_cxx::__normal_iterator.24", ptr %this1, i32 0, i32 0
  %0 = load ptr, ptr %_M_current, align 8
  ret ptr %0
}

; Function Attrs: mustprogress nounwind uwtable
define linkonce_odr hidden void @_ZNSt10shared_ptrIKN19OpenColorIO_v2_4dev2OpEEC2IS1_vEERKS_IT_E(ptr noundef nonnull align 8 dereferenceable(16) %this, ptr noundef nonnull align 8 dereferenceable(16) %__r) unnamed_addr #4 comdat align 2 {
entry:
  %this.addr = alloca ptr, align 8
  %__r.addr = alloca ptr, align 8
  store ptr %this, ptr %this.addr, align 8
  store ptr %__r, ptr %__r.addr, align 8
  %this1 = load ptr, ptr %this.addr, align 8
  %0 = load ptr, ptr %__r.addr, align 8
  call void @_ZNSt12__shared_ptrIKN19OpenColorIO_v2_4dev2OpELN9__gnu_cxx12_Lock_policyE2EEC2IS1_vEERKS_IT_LS4_2EE(ptr noundef nonnull align 8 dereferenceable(16) %this1, ptr noundef nonnull align 8 dereferenceable(16) %0) #3
  ret void
}

; Function Attrs: mustprogress nounwind uwtable
define linkonce_odr hidden noundef ptr @_ZNKSt19__shared_ptr_accessIKN19OpenColorIO_v2_4dev2OpELN9__gnu_cxx12_Lock_policyE2ELb0ELb0EEptEv(ptr noundef nonnull align 1 dereferenceable(1) %this) #4 comdat align 2 {
entry:
  %this.addr = alloca ptr, align 8
  store ptr %this, ptr %this.addr, align 8
  %this1 = load ptr, ptr %this.addr, align 8
  %call = call noundef ptr @_ZNKSt19__shared_ptr_accessIKN19OpenColorIO_v2_4dev2OpELN9__gnu_cxx12_Lock_policyE2ELb0ELb0EE6_M_getEv(ptr noundef nonnull align 1 dereferenceable(1) %this1) #3
  ret ptr %call
}

; Function Attrs: mustprogress nounwind uwtable
define linkonce_odr hidden void @_ZNK19OpenColorIO_v2_4dev2Op4dataEv(ptr noalias sret(%"class.std::shared_ptr.28") align 8 %agg.result, ptr noundef nonnull align 8 dereferenceable(24) %this) #4 comdat align 2 {
entry:
  %result.ptr = alloca ptr, align 8
  %this.addr = alloca ptr, align 8
  store ptr %agg.result, ptr %result.ptr, align 8
  store ptr %this, ptr %this.addr, align 8
  %this1 = load ptr, ptr %this.addr, align 8
  %m_data = getelementptr inbounds %"class.OpenColorIO_v2_4dev::Op", ptr %this1, i32 0, i32 1
  call void @_ZSt18const_pointer_castIKN19OpenColorIO_v2_4dev6OpDataES1_ESt10shared_ptrIT_ERKS3_IT0_E(ptr sret(%"class.std::shared_ptr.28") align 8 %agg.result, ptr noundef nonnull align 8 dereferenceable(16) %m_data) #3
  ret void
}

; Function Attrs: mustprogress uwtable
define linkonce_odr hidden void @_ZNSt6vectorISt10shared_ptrIKN19OpenColorIO_v2_4dev6OpDataEESaIS4_EE9push_backERKS4_(ptr noundef nonnull align 8 dereferenceable(24) %this, ptr noundef nonnull align 8 dereferenceable(16) %__x) #5 comdat align 2 {
entry:
  %this.addr = alloca ptr, align 8
  %__x.addr = alloca ptr, align 8
  %agg.tmp = alloca %"class.__gnu_cxx::__normal_iterator.143", align 8
  store ptr %this, ptr %this.addr, align 8
  store ptr %__x, ptr %__x.addr, align 8
  %this1 = load ptr, ptr %this.addr, align 8
  %_M_impl = getelementptr inbounds %"struct.std::_Vector_base.10", ptr %this1, i32 0, i32 0
  %_M_finish = getelementptr inbounds %"struct.std::_Vector_base<std::shared_ptr<const OpenColorIO_v2_4dev::OpData>, std::allocator<std::shared_ptr<const OpenColorIO_v2_4dev::OpData>>>::_Vector_impl_data", ptr %_M_impl, i32 0, i32 1
  %0 = load ptr, ptr %_M_finish, align 8
  %_M_impl2 = getelementptr inbounds %"struct.std::_Vector_base.10", ptr %this1, i32 0, i32 0
  %_M_end_of_storage = getelementptr inbounds %"struct.std::_Vector_base<std::shared_ptr<const OpenColorIO_v2_4dev::OpData>, std::allocator<std::shared_ptr<const OpenColorIO_v2_4dev::OpData>>>::_Vector_impl_data", ptr %_M_impl2, i32 0, i32 2
  %1 = load ptr, ptr %_M_end_of_storage, align 8
  %cmp = icmp ne ptr %0, %1
  br i1 %cmp, label %if.then, label %if.else

if.then:                                          ; preds = %entry
  %_M_impl3 = getelementptr inbounds %"struct.std::_Vector_base.10", ptr %this1, i32 0, i32 0
  %_M_impl4 = getelementptr inbounds %"struct.std::_Vector_base.10", ptr %this1, i32 0, i32 0
  %_M_finish5 = getelementptr inbounds %"struct.std::_Vector_base<std::shared_ptr<const OpenColorIO_v2_4dev::OpData>, std::allocator<std::shared_ptr<const OpenColorIO_v2_4dev::OpData>>>::_Vector_impl_data", ptr %_M_impl4, i32 0, i32 1
  %2 = load ptr, ptr %_M_finish5, align 8
  %3 = load ptr, ptr %__x.addr, align 8
  call void @_ZNSt16allocator_traitsISaISt10shared_ptrIKN19OpenColorIO_v2_4dev6OpDataEEEE9constructIS4_JRKS4_EEEvRS5_PT_DpOT0_(ptr noundef nonnull align 1 dereferenceable(1) %_M_impl3, ptr noundef %2, ptr noundef nonnull align 8 dereferenceable(16) %3) #3
  %_M_impl6 = getelementptr inbounds %"struct.std::_Vector_base.10", ptr %this1, i32 0, i32 0
  %_M_finish7 = getelementptr inbounds %"struct.std::_Vector_base<std::shared_ptr<const OpenColorIO_v2_4dev::OpData>, std::allocator<std::shared_ptr<const OpenColorIO_v2_4dev::OpData>>>::_Vector_impl_data", ptr %_M_impl6, i32 0, i32 1
  %4 = load ptr, ptr %_M_finish7, align 8
  %incdec.ptr = getelementptr inbounds %"class.std::shared_ptr.28", ptr %4, i32 1
  store ptr %incdec.ptr, ptr %_M_finish7, align 8
  br label %if.end

if.else:                                          ; preds = %entry
  %call = call ptr @_ZNSt6vectorISt10shared_ptrIKN19OpenColorIO_v2_4dev6OpDataEESaIS4_EE3endEv(ptr noundef nonnull align 8 dereferenceable(24) %this1) #3
  %coerce.dive = getelementptr inbounds %"class.__gnu_cxx::__normal_iterator.143", ptr %agg.tmp, i32 0, i32 0
  store ptr %call, ptr %coerce.dive, align 8
  %5 = load ptr, ptr %__x.addr, align 8
  %coerce.dive8 = getelementptr inbounds %"class.__gnu_cxx::__normal_iterator.143", ptr %agg.tmp, i32 0, i32 0
  %6 = load ptr, ptr %coerce.dive8, align 8
  call void @_ZNSt6vectorISt10shared_ptrIKN19OpenColorIO_v2_4dev6OpDataEESaIS4_EE17_M_realloc_insertIJRKS4_EEEvN9__gnu_cxx17__normal_iteratorIPS4_S6_EEDpOT_(ptr noundef nonnull align 8 dereferenceable(24) %this1, ptr %6, ptr noundef nonnull align 8 dereferenceable(16) %5)
  br label %if.end

if.end:                                           ; preds = %if.else, %if.then
  ret void
}

; Function Attrs: mustprogress nounwind uwtable
define linkonce_odr hidden void @_ZNSt10shared_ptrIKN19OpenColorIO_v2_4dev6OpDataEED2Ev(ptr noundef nonnull align 8 dereferenceable(16) %this) unnamed_addr #4 comdat align 2 {
entry:
  %this.addr = alloca ptr, align 8
  store ptr %this, ptr %this.addr, align 8
  %this1 = load ptr, ptr %this.addr, align 8
  call void @_ZNSt12__shared_ptrIKN19OpenColorIO_v2_4dev6OpDataELN9__gnu_cxx12_Lock_policyE2EED2Ev(ptr noundef nonnull align 8 dereferenceable(16) %this1) #3
  ret void
}

; Function Attrs: mustprogress nounwind uwtable
define linkonce_odr hidden void @_ZNSt10shared_ptrIKN19OpenColorIO_v2_4dev2OpEED2Ev(ptr noundef nonnull align 8 dereferenceable(16) %this) unnamed_addr #4 comdat align 2 {
entry:
  %this.addr = alloca ptr, align 8
  store ptr %this, ptr %this.addr, align 8
  %this1 = load ptr, ptr %this.addr, align 8
  call void @_ZNSt12__shared_ptrIKN19OpenColorIO_v2_4dev2OpELN9__gnu_cxx12_Lock_policyE2EED2Ev(ptr noundef nonnull align 8 dereferenceable(16) %this1) #3
  ret void
}

; Function Attrs: mustprogress nounwind uwtable
define linkonce_odr hidden noundef nonnull align 8 dereferenceable(8) ptr @_ZN9__gnu_cxx17__normal_iteratorIPKSt10shared_ptrIN19OpenColorIO_v2_4dev2OpEESt6vectorIS4_SaIS4_EEEppEv(ptr noundef nonnull align 8 dereferenceable(8) %this) #4 comdat align 2 {
entry:
  %this.addr = alloca ptr, align 8
  store ptr %this, ptr %this.addr, align 8
  %this1 = load ptr, ptr %this.addr, align 8
  %_M_current = getelementptr inbounds %"class.__gnu_cxx::__normal_iterator.24", ptr %this1, i32 0, i32 0
  %0 = load ptr, ptr %_M_current, align 8
  %incdec.ptr = getelementptr inbounds %"class.std::shared_ptr.25", ptr %0, i32 1
  store ptr %incdec.ptr, ptr %_M_current, align 8
  ret ptr %this1
}

; Function Attrs: mustprogress nounwind uwtable
define hidden void @_ZN19OpenColorIO_v2_4dev18CTFReaderTransform13setCTFVersionERKNS_10CTFVersionE(ptr noundef nonnull align 8 dereferenceable(356) %this, ptr noundef nonnull align 4 dereferenceable(12) %ver) #4 align 2 {
entry:
  %this.addr = alloca ptr, align 8
  %ver.addr = alloca ptr, align 8
  store ptr %this, ptr %this.addr, align 8
  store ptr %ver, ptr %ver.addr, align 8
  %this1 = load ptr, ptr %this.addr, align 8
  %0 = load ptr, ptr %ver.addr, align 8
  %m_version = getelementptr inbounds %"class.OpenColorIO_v2_4dev::CTFReaderTransform", ptr %this1, i32 0, i32 8
  %call = call noundef nonnull align 4 dereferenceable(12) ptr @_ZN19OpenColorIO_v2_4dev10CTFVersionaSERKS0_(ptr noundef nonnull align 4 dereferenceable(12) %m_version, ptr noundef nonnull align 4 dereferenceable(12) %0)
  ret void
}

; Function Attrs: mustprogress nounwind uwtable
define hidden void @_ZN19OpenColorIO_v2_4dev18CTFReaderTransform13setCLFVersionERKNS_10CTFVersionE(ptr noundef nonnull align 8 dereferenceable(356) %this, ptr noundef nonnull align 4 dereferenceable(12) %ver) #4 align 2 {
entry:
  %this.addr = alloca ptr, align 8
  %ver.addr = alloca ptr, align 8
  store ptr %this, ptr %this.addr, align 8
  store ptr %ver, ptr %ver.addr, align 8
  %this1 = load ptr, ptr %this.addr, align 8
  %0 = load ptr, ptr %ver.addr, align 8
  %m_versionCLF = getelementptr inbounds %"class.OpenColorIO_v2_4dev::CTFReaderTransform", ptr %this1, i32 0, i32 9
  %call = call noundef nonnull align 4 dereferenceable(12) ptr @_ZN19OpenColorIO_v2_4dev10CTFVersionaSERKS0_(ptr noundef nonnull align 4 dereferenceable(12) %m_versionCLF, ptr noundef nonnull align 4 dereferenceable(12) %0)
  ret void
}

; Function Attrs: mustprogress nounwind uwtable
define hidden noundef nonnull align 4 dereferenceable(12) ptr @_ZNK19OpenColorIO_v2_4dev18CTFReaderTransform13getCTFVersionEv(ptr noundef nonnull align 8 dereferenceable(356) %this) #4 align 2 {
entry:
  %this.addr = alloca ptr, align 8
  store ptr %this, ptr %this.addr, align 8
  %this1 = load ptr, ptr %this.addr, align 8
  %m_version = getelementptr inbounds %"class.OpenColorIO_v2_4dev::CTFReaderTransform", ptr %this1, i32 0, i32 8
  ret ptr %m_version
}

; Function Attrs: mustprogress nounwind uwtable
define hidden noundef nonnull align 4 dereferenceable(12) ptr @_ZNK19OpenColorIO_v2_4dev18CTFReaderTransform13getCLFVersionEv(ptr noundef nonnull align 8 dereferenceable(356) %this) #4 align 2 {
entry:
  %this.addr = alloca ptr, align 8
  store ptr %this, ptr %this.addr, align 8
  %this1 = load ptr, ptr %this.addr, align 8
  %m_versionCLF = getelementptr inbounds %"class.OpenColorIO_v2_4dev::CTFReaderTransform", ptr %this1, i32 0, i32 9
  ret ptr %m_versionCLF
}

; Function Attrs: mustprogress uwtable
define hidden noundef zeroext i1 @_ZNK19OpenColorIO_v2_4dev18CTFReaderTransform5isCLFEv(ptr noundef nonnull align 8 dereferenceable(356) %this) #5 align 2 {
entry:
  %this.addr = alloca ptr, align 8
  %ref.tmp = alloca %"class.OpenColorIO_v2_4dev::CTFVersion", align 4
  store ptr %this, ptr %this.addr, align 8
  %this1 = load ptr, ptr %this.addr, align 8
  %m_versionCLF = getelementptr inbounds %"class.OpenColorIO_v2_4dev::CTFReaderTransform", ptr %this1, i32 0, i32 9
  call void @_ZN19OpenColorIO_v2_4dev10CTFVersionC2Ejj(ptr noundef nonnull align 4 dereferenceable(12) %ref.tmp, i32 noundef 0, i32 noundef 0)
  %call = call noundef zeroext i1 @_ZNK19OpenColorIO_v2_4dev10CTFVersioneqERKS0_(ptr noundef nonnull align 4 dereferenceable(12) %m_versionCLF, ptr noundef nonnull align 4 dereferenceable(12) %ref.tmp)
  %lnot = xor i1 %call, true
  call void @_ZN19OpenColorIO_v2_4dev10CTFVersionD2Ev(ptr noundef nonnull align 4 dereferenceable(12) %ref.tmp) #3
  ret i1 %lnot
}

; Function Attrs: mustprogress uwtable
define hidden void @_ZN19OpenColorIO_v2_4dev17GetElementsValuesERKSt6vectorINS_18FormatMetadataImplESaIS1_EERKNSt7__cxx1112basic_stringIcSt11char_traitsIcESaIcEEERS0_ISB_SaISB_EE(ptr noundef nonnull align 8 dereferenceable(24) %elements, ptr noundef nonnull align 8 dereferenceable(32) %name, ptr noundef nonnull align 8 dereferenceable(24) %values) #5 personality ptr @__gxx_personality_v0 {
entry:
  %elements.addr = alloca ptr, align 8
  %name.addr = alloca ptr, align 8
  %values.addr = alloca ptr, align 8
  %__range1 = alloca ptr, align 8
  %__begin1 = alloca %"class.__gnu_cxx::__normal_iterator.34", align 8
  %__end1 = alloca %"class.__gnu_cxx::__normal_iterator.34", align 8
  %element = alloca ptr, align 8
  %ref.tmp = alloca %"class.std::__cxx11::basic_string", align 8
  %ref.tmp11 = alloca %"class.std::allocator", align 1
  %exn.slot = alloca ptr, align 8
  %ehselector.slot = alloca i32, align 4
  store ptr %elements, ptr %elements.addr, align 8
  store ptr %name, ptr %name.addr, align 8
  store ptr %values, ptr %values.addr, align 8
  %0 = load ptr, ptr %elements.addr, align 8
  store ptr %0, ptr %__range1, align 8
  %1 = load ptr, ptr %__range1, align 8
  %call = call ptr @_ZNKSt6vectorIN19OpenColorIO_v2_4dev18FormatMetadataImplESaIS1_EE5beginEv(ptr noundef nonnull align 8 dereferenceable(24) %1) #3
  %coerce.dive = getelementptr inbounds %"class.__gnu_cxx::__normal_iterator.34", ptr %__begin1, i32 0, i32 0
  store ptr %call, ptr %coerce.dive, align 8
  %2 = load ptr, ptr %__range1, align 8
  %call1 = call ptr @_ZNKSt6vectorIN19OpenColorIO_v2_4dev18FormatMetadataImplESaIS1_EE3endEv(ptr noundef nonnull align 8 dereferenceable(24) %2) #3
  %coerce.dive2 = getelementptr inbounds %"class.__gnu_cxx::__normal_iterator.34", ptr %__end1, i32 0, i32 0
  store ptr %call1, ptr %coerce.dive2, align 8
  br label %for.cond

for.cond:                                         ; preds = %for.inc, %entry
  %call3 = call noundef zeroext i1 @_ZN9__gnu_cxxneIPKN19OpenColorIO_v2_4dev18FormatMetadataImplESt6vectorIS2_SaIS2_EEEEbRKNS_17__normal_iteratorIT_T0_EESD_(ptr noundef nonnull align 8 dereferenceable(8) %__begin1, ptr noundef nonnull align 8 dereferenceable(8) %__end1) #3
  br i1 %call3, label %for.body, label %for.end

for.body:                                         ; preds = %for.cond
  %call4 = call noundef nonnull align 8 dereferenceable(120) ptr @_ZNK9__gnu_cxx17__normal_iteratorIPKN19OpenColorIO_v2_4dev18FormatMetadataImplESt6vectorIS2_SaIS2_EEEdeEv(ptr noundef nonnull align 8 dereferenceable(8) %__begin1) #3
  store ptr %call4, ptr %element, align 8
  %3 = load ptr, ptr %name.addr, align 8
  %call5 = call noundef ptr @_ZNKSt7__cxx1112basic_stringIcSt11char_traitsIcESaIcEE5c_strEv(ptr noundef nonnull align 8 dereferenceable(32) %3) #3
  %4 = load ptr, ptr %element, align 8
  %vtable = load ptr, ptr %4, align 8
  %vfn = getelementptr inbounds ptr, ptr %vtable, i64 0
  %5 = load ptr, ptr %vfn, align 8
  %call6 = call noundef ptr %5(ptr noundef nonnull align 8 dereferenceable(120) %4) #3
  %call7 = call noundef i32 @_ZN19OpenColorIO_v2_4dev8Platform10StrcasecmpEPKcS2_(ptr noundef %call5, ptr noundef %call6)
  %cmp = icmp eq i32 0, %call7
  br i1 %cmp, label %if.then, label %if.end

if.then:                                          ; preds = %for.body
  %6 = load ptr, ptr %values.addr, align 8
  %7 = load ptr, ptr %element, align 8
  %vtable8 = load ptr, ptr %7, align 8
  %vfn9 = getelementptr inbounds ptr, ptr %vtable8, i64 2
  %8 = load ptr, ptr %vfn9, align 8
  %call10 = call noundef ptr %8(ptr noundef nonnull align 8 dereferenceable(120) %7) #3
  call void @_ZNSaIcEC1Ev(ptr noundef nonnull align 1 dereferenceable(1) %ref.tmp11) #3
  invoke void @_ZNSt7__cxx1112basic_stringIcSt11char_traitsIcESaIcEEC1EPKcRKS3_(ptr noundef nonnull align 8 dereferenceable(32) %ref.tmp, ptr noundef %call10, ptr noundef nonnull align 1 dereferenceable(1) %ref.tmp11)
          to label %invoke.cont unwind label %lpad

invoke.cont:                                      ; preds = %if.then
  invoke void @_ZNSt6vectorINSt7__cxx1112basic_stringIcSt11char_traitsIcESaIcEEESaIS5_EE9push_backEOS5_(ptr noundef nonnull align 8 dereferenceable(24) %6, ptr noundef nonnull align 8 dereferenceable(32) %ref.tmp)
          to label %invoke.cont13 unwind label %lpad12

invoke.cont13:                                    ; preds = %invoke.cont
  call void @_ZNSt7__cxx1112basic_stringIcSt11char_traitsIcESaIcEED1Ev(ptr noundef nonnull align 8 dereferenceable(32) %ref.tmp) #3
  call void @_ZNSaIcED1Ev(ptr noundef nonnull align 1 dereferenceable(1) %ref.tmp11) #3
  br label %if.end

lpad:                                             ; preds = %if.then
  %9 = landingpad { ptr, i32 }
          cleanup
  %10 = extractvalue { ptr, i32 } %9, 0
  store ptr %10, ptr %exn.slot, align 8
  %11 = extractvalue { ptr, i32 } %9, 1
  store i32 %11, ptr %ehselector.slot, align 4
  br label %ehcleanup

lpad12:                                           ; preds = %invoke.cont
  %12 = landingpad { ptr, i32 }
          cleanup
  %13 = extractvalue { ptr, i32 } %12, 0
  store ptr %13, ptr %exn.slot, align 8
  %14 = extractvalue { ptr, i32 } %12, 1
  store i32 %14, ptr %ehselector.slot, align 4
  call void @_ZNSt7__cxx1112basic_stringIcSt11char_traitsIcESaIcEED1Ev(ptr noundef nonnull align 8 dereferenceable(32) %ref.tmp) #3
  br label %ehcleanup

ehcleanup:                                        ; preds = %lpad12, %lpad
  call void @_ZNSaIcED1Ev(ptr noundef nonnull align 1 dereferenceable(1) %ref.tmp11) #3
  br label %eh.resume

if.end:                                           ; preds = %invoke.cont13, %for.body
  br label %for.inc

for.inc:                                          ; preds = %if.end
  %call14 = call noundef nonnull align 8 dereferenceable(8) ptr @_ZN9__gnu_cxx17__normal_iteratorIPKN19OpenColorIO_v2_4dev18FormatMetadataImplESt6vectorIS2_SaIS2_EEEppEv(ptr noundef nonnull align 8 dereferenceable(8) %__begin1) #3
  br label %for.cond

for.end:                                          ; preds = %for.cond
  ret void

eh.resume:                                        ; preds = %ehcleanup
  %exn = load ptr, ptr %exn.slot, align 8
  %sel = load i32, ptr %ehselector.slot, align 4
  %lpad.val = insertvalue { ptr, i32 } poison, ptr %exn, 0
  %lpad.val15 = insertvalue { ptr, i32 } %lpad.val, i32 %sel, 1
  resume { ptr, i32 } %lpad.val15
}

; Function Attrs: mustprogress nounwind uwtable
define linkonce_odr hidden ptr @_ZNKSt6vectorIN19OpenColorIO_v2_4dev18FormatMetadataImplESaIS1_EE5beginEv(ptr noundef nonnull align 8 dereferenceable(24) %this) #4 comdat align 2 {
entry:
  %retval = alloca %"class.__gnu_cxx::__normal_iterator.34", align 8
  %this.addr = alloca ptr, align 8
  store ptr %this, ptr %this.addr, align 8
  %this1 = load ptr, ptr %this.addr, align 8
  %_M_impl = getelementptr inbounds %"struct.std::_Vector_base.5", ptr %this1, i32 0, i32 0
  %_M_start = getelementptr inbounds %"struct.std::_Vector_base<OpenColorIO_v2_4dev::FormatMetadataImpl, std::allocator<OpenColorIO_v2_4dev::FormatMetadataImpl>>::_Vector_impl_data", ptr %_M_impl, i32 0, i32 0
  call void @_ZN9__gnu_cxx17__normal_iteratorIPKN19OpenColorIO_v2_4dev18FormatMetadataImplESt6vectorIS2_SaIS2_EEEC2ERKS4_(ptr noundef nonnull align 8 dereferenceable(8) %retval, ptr noundef nonnull align 8 dereferenceable(8) %_M_start) #3
  %coerce.dive = getelementptr inbounds %"class.__gnu_cxx::__normal_iterator.34", ptr %retval, i32 0, i32 0
  %0 = load ptr, ptr %coerce.dive, align 8
  ret ptr %0
}

; Function Attrs: mustprogress nounwind uwtable
define linkonce_odr hidden ptr @_ZNKSt6vectorIN19OpenColorIO_v2_4dev18FormatMetadataImplESaIS1_EE3endEv(ptr noundef nonnull align 8 dereferenceable(24) %this) #4 comdat align 2 {
entry:
  %retval = alloca %"class.__gnu_cxx::__normal_iterator.34", align 8
  %this.addr = alloca ptr, align 8
  store ptr %this, ptr %this.addr, align 8
  %this1 = load ptr, ptr %this.addr, align 8
  %_M_impl = getelementptr inbounds %"struct.std::_Vector_base.5", ptr %this1, i32 0, i32 0
  %_M_finish = getelementptr inbounds %"struct.std::_Vector_base<OpenColorIO_v2_4dev::FormatMetadataImpl, std::allocator<OpenColorIO_v2_4dev::FormatMetadataImpl>>::_Vector_impl_data", ptr %_M_impl, i32 0, i32 1
  call void @_ZN9__gnu_cxx17__normal_iteratorIPKN19OpenColorIO_v2_4dev18FormatMetadataImplESt6vectorIS2_SaIS2_EEEC2ERKS4_(ptr noundef nonnull align 8 dereferenceable(8) %retval, ptr noundef nonnull align 8 dereferenceable(8) %_M_finish) #3
  %coerce.dive = getelementptr inbounds %"class.__gnu_cxx::__normal_iterator.34", ptr %retval, i32 0, i32 0
  %0 = load ptr, ptr %coerce.dive, align 8
  ret ptr %0
}

; Function Attrs: mustprogress nounwind uwtable
define linkonce_odr hidden noundef zeroext i1 @_ZN9__gnu_cxxneIPKN19OpenColorIO_v2_4dev18FormatMetadataImplESt6vectorIS2_SaIS2_EEEEbRKNS_17__normal_iteratorIT_T0_EESD_(ptr noundef nonnull align 8 dereferenceable(8) %__lhs, ptr noundef nonnull align 8 dereferenceable(8) %__rhs) #4 comdat {
entry:
  %__lhs.addr = alloca ptr, align 8
  %__rhs.addr = alloca ptr, align 8
  store ptr %__lhs, ptr %__lhs.addr, align 8
  store ptr %__rhs, ptr %__rhs.addr, align 8
  %0 = load ptr, ptr %__lhs.addr, align 8
  %call = call noundef nonnull align 8 dereferenceable(8) ptr @_ZNK9__gnu_cxx17__normal_iteratorIPKN19OpenColorIO_v2_4dev18FormatMetadataImplESt6vectorIS2_SaIS2_EEE4baseEv(ptr noundef nonnull align 8 dereferenceable(8) %0) #3
  %1 = load ptr, ptr %call, align 8
  %2 = load ptr, ptr %__rhs.addr, align 8
  %call1 = call noundef nonnull align 8 dereferenceable(8) ptr @_ZNK9__gnu_cxx17__normal_iteratorIPKN19OpenColorIO_v2_4dev18FormatMetadataImplESt6vectorIS2_SaIS2_EEE4baseEv(ptr noundef nonnull align 8 dereferenceable(8) %2) #3
  %3 = load ptr, ptr %call1, align 8
  %cmp = icmp ne ptr %1, %3
  ret i1 %cmp
}

; Function Attrs: mustprogress nounwind uwtable
define linkonce_odr hidden noundef nonnull align 8 dereferenceable(120) ptr @_ZNK9__gnu_cxx17__normal_iteratorIPKN19OpenColorIO_v2_4dev18FormatMetadataImplESt6vectorIS2_SaIS2_EEEdeEv(ptr noundef nonnull align 8 dereferenceable(8) %this) #4 comdat align 2 {
entry:
  %this.addr = alloca ptr, align 8
  store ptr %this, ptr %this.addr, align 8
  %this1 = load ptr, ptr %this.addr, align 8
  %_M_current = getelementptr inbounds %"class.__gnu_cxx::__normal_iterator.34", ptr %this1, i32 0, i32 0
  %0 = load ptr, ptr %_M_current, align 8
  ret ptr %0
}

declare noundef i32 @_ZN19OpenColorIO_v2_4dev8Platform10StrcasecmpEPKcS2_(ptr noundef, ptr noundef) #1

; Function Attrs: mustprogress uwtable
define linkonce_odr hidden void @_ZNSt6vectorINSt7__cxx1112basic_stringIcSt11char_traitsIcESaIcEEESaIS5_EE9push_backEOS5_(ptr noundef nonnull align 8 dereferenceable(24) %this, ptr noundef nonnull align 8 dereferenceable(32) %__x) #5 comdat align 2 {
entry:
  %this.addr = alloca ptr, align 8
  %__x.addr = alloca ptr, align 8
  store ptr %this, ptr %this.addr, align 8
  store ptr %__x, ptr %__x.addr, align 8
  %this1 = load ptr, ptr %this.addr, align 8
  %0 = load ptr, ptr %__x.addr, align 8
  call void @_ZNSt6vectorINSt7__cxx1112basic_stringIcSt11char_traitsIcESaIcEEESaIS5_EE12emplace_backIJS5_EEEvDpOT_(ptr noundef nonnull align 8 dereferenceable(24) %this1, ptr noundef nonnull align 8 dereferenceable(32) %0)
  ret void
}

; Function Attrs: mustprogress nounwind uwtable
define linkonce_odr hidden noundef nonnull align 8 dereferenceable(8) ptr @_ZN9__gnu_cxx17__normal_iteratorIPKN19OpenColorIO_v2_4dev18FormatMetadataImplESt6vectorIS2_SaIS2_EEEppEv(ptr noundef nonnull align 8 dereferenceable(8) %this) #4 comdat align 2 {
entry:
  %this.addr = alloca ptr, align 8
  store ptr %this, ptr %this.addr, align 8
  %this1 = load ptr, ptr %this.addr, align 8
  %_M_current = getelementptr inbounds %"class.__gnu_cxx::__normal_iterator.34", ptr %this1, i32 0, i32 0
  %0 = load ptr, ptr %_M_current, align 8
  %incdec.ptr = getelementptr inbounds %"class.OpenColorIO_v2_4dev::FormatMetadataImpl", ptr %0, i32 1
  store ptr %incdec.ptr, ptr %_M_current, align 8
  ret ptr %this1
}

; Function Attrs: nounwind
declare noundef nonnull align 8 dereferenceable(32) ptr @_ZNK19OpenColorIO_v2_4dev18FormatMetadataImpl23getAttributeValueStringB5cxx11EPKc(ptr noundef nonnull align 8 dereferenceable(120), ptr noundef) #2

declare noundef nonnull align 8 dereferenceable(32) ptr @_ZNSt7__cxx1112basic_stringIcSt11char_traitsIcESaIcEEaSERKS4_(ptr noundef nonnull align 8 dereferenceable(32), ptr noundef nonnull align 8 dereferenceable(32)) #1

; Function Attrs: mustprogress uwtable
define internal noundef ptr @_ZN19OpenColorIO_v2_4dev12_GLOBAL__N_120GetFirstElementValueERKSt6vectorINS_18FormatMetadataImplESaIS2_EERKNSt7__cxx1112basic_stringIcSt11char_traitsIcESaIcEEE(ptr noundef nonnull align 8 dereferenceable(24) %elements, ptr noundef nonnull align 8 dereferenceable(32) %name) #5 {
entry:
  %retval = alloca ptr, align 8
  %elements.addr = alloca ptr, align 8
  %name.addr = alloca ptr, align 8
  %__range2 = alloca ptr, align 8
  %__begin2 = alloca %"class.__gnu_cxx::__normal_iterator.34", align 8
  %__end2 = alloca %"class.__gnu_cxx::__normal_iterator.34", align 8
  %it = alloca ptr, align 8
  store ptr %elements, ptr %elements.addr, align 8
  store ptr %name, ptr %name.addr, align 8
  %0 = load ptr, ptr %elements.addr, align 8
  store ptr %0, ptr %__range2, align 8
  %1 = load ptr, ptr %__range2, align 8
  %call = call ptr @_ZNKSt6vectorIN19OpenColorIO_v2_4dev18FormatMetadataImplESaIS1_EE5beginEv(ptr noundef nonnull align 8 dereferenceable(24) %1) #3
  %coerce.dive = getelementptr inbounds %"class.__gnu_cxx::__normal_iterator.34", ptr %__begin2, i32 0, i32 0
  store ptr %call, ptr %coerce.dive, align 8
  %2 = load ptr, ptr %__range2, align 8
  %call1 = call ptr @_ZNKSt6vectorIN19OpenColorIO_v2_4dev18FormatMetadataImplESaIS1_EE3endEv(ptr noundef nonnull align 8 dereferenceable(24) %2) #3
  %coerce.dive2 = getelementptr inbounds %"class.__gnu_cxx::__normal_iterator.34", ptr %__end2, i32 0, i32 0
  store ptr %call1, ptr %coerce.dive2, align 8
  br label %for.cond

for.cond:                                         ; preds = %for.inc, %entry
  %call3 = call noundef zeroext i1 @_ZN9__gnu_cxxneIPKN19OpenColorIO_v2_4dev18FormatMetadataImplESt6vectorIS2_SaIS2_EEEEbRKNS_17__normal_iteratorIT_T0_EESD_(ptr noundef nonnull align 8 dereferenceable(8) %__begin2, ptr noundef nonnull align 8 dereferenceable(8) %__end2) #3
  br i1 %call3, label %for.body, label %for.end

for.body:                                         ; preds = %for.cond
  %call4 = call noundef nonnull align 8 dereferenceable(120) ptr @_ZNK9__gnu_cxx17__normal_iteratorIPKN19OpenColorIO_v2_4dev18FormatMetadataImplESt6vectorIS2_SaIS2_EEEdeEv(ptr noundef nonnull align 8 dereferenceable(8) %__begin2) #3
  store ptr %call4, ptr %it, align 8
  %3 = load ptr, ptr %name.addr, align 8
  %call5 = call noundef ptr @_ZNKSt7__cxx1112basic_stringIcSt11char_traitsIcESaIcEE5c_strEv(ptr noundef nonnull align 8 dereferenceable(32) %3) #3
  %4 = load ptr, ptr %it, align 8
  %vtable = load ptr, ptr %4, align 8
  %vfn = getelementptr inbounds ptr, ptr %vtable, i64 0
  %5 = load ptr, ptr %vfn, align 8
  %call6 = call noundef ptr %5(ptr noundef nonnull align 8 dereferenceable(120) %4) #3
  %call7 = call noundef i32 @_ZN19OpenColorIO_v2_4dev8Platform10StrcasecmpEPKcS2_(ptr noundef %call5, ptr noundef %call6)
  %cmp = icmp eq i32 0, %call7
  br i1 %cmp, label %if.then, label %if.end

if.then:                                          ; preds = %for.body
  %6 = load ptr, ptr %it, align 8
  %vtable8 = load ptr, ptr %6, align 8
  %vfn9 = getelementptr inbounds ptr, ptr %vtable8, i64 2
  %7 = load ptr, ptr %vfn9, align 8
  %call10 = call noundef ptr %7(ptr noundef nonnull align 8 dereferenceable(120) %6) #3
  store ptr %call10, ptr %retval, align 8
  br label %return

if.end:                                           ; preds = %for.body
  br label %for.inc

for.inc:                                          ; preds = %if.end
  %call11 = call noundef nonnull align 8 dereferenceable(8) ptr @_ZN9__gnu_cxx17__normal_iteratorIPKN19OpenColorIO_v2_4dev18FormatMetadataImplESt6vectorIS2_SaIS2_EEEppEv(ptr noundef nonnull align 8 dereferenceable(8) %__begin2) #3
  br label %for.cond

for.end:                                          ; preds = %for.cond
  store ptr @.str.15, ptr %retval, align 8
  br label %return

return:                                           ; preds = %for.end, %if.then
  %8 = load ptr, ptr %retval, align 8
  ret ptr %8
}

; Function Attrs: nounwind
declare noundef nonnull align 8 dereferenceable(24) ptr @_ZNK19OpenColorIO_v2_4dev18FormatMetadataImpl19getChildrenElementsEv(ptr noundef nonnull align 8 dereferenceable(120)) #2

declare noundef nonnull align 8 dereferenceable(32) ptr @_ZNSt7__cxx1112basic_stringIcSt11char_traitsIcESaIcEEaSEPKc(ptr noundef nonnull align 8 dereferenceable(32), ptr noundef) #1

; Function Attrs: mustprogress uwtable
define internal noundef ptr @_ZN19OpenColorIO_v2_4dev12_GLOBAL__N_119GetLastElementValueERKSt6vectorINS_18FormatMetadataImplESaIS2_EERKNSt7__cxx1112basic_stringIcSt11char_traitsIcESaIcEEE(ptr noundef nonnull align 8 dereferenceable(24) %elements, ptr noundef nonnull align 8 dereferenceable(32) %name) #5 {
entry:
  %retval = alloca ptr, align 8
  %elements.addr = alloca ptr, align 8
  %name.addr = alloca ptr, align 8
  %it = alloca %"class.std::reverse_iterator", align 8
  %ref.tmp = alloca %"class.std::reverse_iterator", align 8
  store ptr %elements, ptr %elements.addr, align 8
  store ptr %name, ptr %name.addr, align 8
  %0 = load ptr, ptr %elements.addr, align 8
  call void @_ZNKSt6vectorIN19OpenColorIO_v2_4dev18FormatMetadataImplESaIS1_EE6rbeginEv(ptr sret(%"class.std::reverse_iterator") align 8 %it, ptr noundef nonnull align 8 dereferenceable(24) %0) #3
  br label %for.cond

for.cond:                                         ; preds = %for.inc, %entry
  %1 = load ptr, ptr %elements.addr, align 8
  call void @_ZNKSt6vectorIN19OpenColorIO_v2_4dev18FormatMetadataImplESaIS1_EE4rendEv(ptr sret(%"class.std::reverse_iterator") align 8 %ref.tmp, ptr noundef nonnull align 8 dereferenceable(24) %1) #3
  %call = call noundef zeroext i1 @_ZStneIN9__gnu_cxx17__normal_iteratorIPKN19OpenColorIO_v2_4dev18FormatMetadataImplESt6vectorIS3_SaIS3_EEEEEbRKSt16reverse_iteratorIT_ESE_(ptr noundef nonnull align 8 dereferenceable(8) %it, ptr noundef nonnull align 8 dereferenceable(8) %ref.tmp)
  br i1 %call, label %for.body, label %for.end

for.body:                                         ; preds = %for.cond
  %2 = load ptr, ptr %name.addr, align 8
  %call1 = call noundef ptr @_ZNKSt7__cxx1112basic_stringIcSt11char_traitsIcESaIcEE5c_strEv(ptr noundef nonnull align 8 dereferenceable(32) %2) #3
  %call2 = call noundef ptr @_ZNKSt16reverse_iteratorIN9__gnu_cxx17__normal_iteratorIPKN19OpenColorIO_v2_4dev18FormatMetadataImplESt6vectorIS3_SaIS3_EEEEEptEv(ptr noundef nonnull align 8 dereferenceable(8) %it)
  %vtable = load ptr, ptr %call2, align 8
  %vfn = getelementptr inbounds ptr, ptr %vtable, i64 0
  %3 = load ptr, ptr %vfn, align 8
  %call3 = call noundef ptr %3(ptr noundef nonnull align 8 dereferenceable(120) %call2) #3
  %call4 = call noundef i32 @_ZN19OpenColorIO_v2_4dev8Platform10StrcasecmpEPKcS2_(ptr noundef %call1, ptr noundef %call3)
  %cmp = icmp eq i32 0, %call4
  br i1 %cmp, label %if.then, label %if.end

if.then:                                          ; preds = %for.body
  %call5 = call noundef ptr @_ZNKSt16reverse_iteratorIN9__gnu_cxx17__normal_iteratorIPKN19OpenColorIO_v2_4dev18FormatMetadataImplESt6vectorIS3_SaIS3_EEEEEptEv(ptr noundef nonnull align 8 dereferenceable(8) %it)
  %vtable6 = load ptr, ptr %call5, align 8
  %vfn7 = getelementptr inbounds ptr, ptr %vtable6, i64 2
  %4 = load ptr, ptr %vfn7, align 8
  %call8 = call noundef ptr %4(ptr noundef nonnull align 8 dereferenceable(120) %call5) #3
  store ptr %call8, ptr %retval, align 8
  br label %return

if.end:                                           ; preds = %for.body
  br label %for.inc

for.inc:                                          ; preds = %if.end
  %call9 = call noundef nonnull align 8 dereferenceable(8) ptr @_ZNSt16reverse_iteratorIN9__gnu_cxx17__normal_iteratorIPKN19OpenColorIO_v2_4dev18FormatMetadataImplESt6vectorIS3_SaIS3_EEEEEppEv(ptr noundef nonnull align 8 dereferenceable(8) %it)
  br label %for.cond, !llvm.loop !6

for.end:                                          ; preds = %for.cond
  store ptr @.str.15, ptr %retval, align 8
  br label %return

return:                                           ; preds = %for.end, %if.then
  %5 = load ptr, ptr %retval, align 8
  ret ptr %5
}

declare void @_ZN19OpenColorIO_v2_4dev18FormatMetadataImplC1ERKS0_(ptr noundef nonnull align 8 dereferenceable(120), ptr noundef nonnull align 8 dereferenceable(120)) unnamed_addr #1

; Function Attrs: nounwind
declare noundef ptr @_ZNK19OpenColorIO_v2_4dev18FormatMetadataImpl14getElementNameEv(ptr noundef nonnull align 8 dereferenceable(120)) unnamed_addr #2

declare void @_ZN19OpenColorIO_v2_4dev18FormatMetadataImpl7combineERKS0_(ptr noundef nonnull align 8 dereferenceable(120), ptr noundef nonnull align 8 dereferenceable(120)) #1

; Function Attrs: mustprogress uwtable
define hidden void @_ZNK19OpenColorIO_v2_4dev18CTFReaderTransform10toMetadataERNS_18FormatMetadataImplE(ptr noundef nonnull align 8 dereferenceable(356) %this, ptr noundef nonnull align 8 dereferenceable(120) %metadata) #5 align 2 personality ptr @__gxx_personality_v0 {
entry:
  %this.addr = alloca ptr, align 8
  %metadata.addr = alloca ptr, align 8
  %__range1 = alloca ptr, align 8
  %__begin1 = alloca %"class.__gnu_cxx::__normal_iterator.35", align 8
  %__end1 = alloca %"class.__gnu_cxx::__normal_iterator.35", align 8
  %desc = alloca ptr, align 8
  %infoValue = alloca %"class.std::__cxx11::basic_string", align 8
  %ref.tmp = alloca %"class.std::allocator", align 1
  %exn.slot = alloca ptr, align 8
  %ehselector.slot = alloca i32, align 4
  store ptr %this, ptr %this.addr, align 8
  store ptr %metadata, ptr %metadata.addr, align 8
  %this1 = load ptr, ptr %this.addr, align 8
  %0 = load ptr, ptr %metadata.addr, align 8
  %1 = load ptr, ptr @_ZN19OpenColorIO_v2_4dev13METADATA_NAMEE, align 8
  %call = call noundef nonnull align 8 dereferenceable(32) ptr @_ZNK19OpenColorIO_v2_4dev18CTFReaderTransform7getNameB5cxx11Ev(ptr noundef nonnull align 8 dereferenceable(356) %this1)
  call void @_ZN19OpenColorIO_v2_4dev12_GLOBAL__N_120AddNonEmptyAttributeERNS_18FormatMetadataImplEPKcRKNSt7__cxx1112basic_stringIcSt11char_traitsIcESaIcEEE(ptr noundef nonnull align 8 dereferenceable(120) %0, ptr noundef %1, ptr noundef nonnull align 8 dereferenceable(32) %call)
  %2 = load ptr, ptr %metadata.addr, align 8
  %3 = load ptr, ptr @_ZN19OpenColorIO_v2_4dev11METADATA_IDE, align 8
  %call2 = call noundef nonnull align 8 dereferenceable(32) ptr @_ZNK19OpenColorIO_v2_4dev18CTFReaderTransform5getIDB5cxx11Ev(ptr noundef nonnull align 8 dereferenceable(356) %this1)
  call void @_ZN19OpenColorIO_v2_4dev12_GLOBAL__N_120AddNonEmptyAttributeERNS_18FormatMetadataImplEPKcRKNSt7__cxx1112basic_stringIcSt11char_traitsIcESaIcEEE(ptr noundef nonnull align 8 dereferenceable(120) %2, ptr noundef %3, ptr noundef nonnull align 8 dereferenceable(32) %call2)
  %4 = load ptr, ptr %metadata.addr, align 8
  %call3 = call noundef nonnull align 8 dereferenceable(32) ptr @_ZNK19OpenColorIO_v2_4dev18CTFReaderTransform14getInverseOfIdB5cxx11Ev(ptr noundef nonnull align 8 dereferenceable(356) %this1)
  call void @_ZN19OpenColorIO_v2_4dev12_GLOBAL__N_120AddNonEmptyAttributeERNS_18FormatMetadataImplEPKcRKNSt7__cxx1112basic_stringIcSt11char_traitsIcESaIcEEE(ptr noundef nonnull align 8 dereferenceable(120) %4, ptr noundef @_ZN19OpenColorIO_v2_4devL15ATTR_INVERSE_OFE, ptr noundef nonnull align 8 dereferenceable(32) %call3)
  %5 = load ptr, ptr %metadata.addr, align 8
  %6 = load ptr, ptr @_ZN19OpenColorIO_v2_4dev25METADATA_INPUT_DESCRIPTORE, align 8
  %call4 = call noundef nonnull align 8 dereferenceable(32) ptr @_ZNK19OpenColorIO_v2_4dev18CTFReaderTransform18getInputDescriptorB5cxx11Ev(ptr noundef nonnull align 8 dereferenceable(356) %this1)
  call void @_ZN19OpenColorIO_v2_4dev12_GLOBAL__N_118AddNonEmptyElementERNS_18FormatMetadataImplEPKcRKNSt7__cxx1112basic_stringIcSt11char_traitsIcESaIcEEE(ptr noundef nonnull align 8 dereferenceable(120) %5, ptr noundef %6, ptr noundef nonnull align 8 dereferenceable(32) %call4)
  %7 = load ptr, ptr %metadata.addr, align 8
  %8 = load ptr, ptr @_ZN19OpenColorIO_v2_4dev26METADATA_OUTPUT_DESCRIPTORE, align 8
  %call5 = call noundef nonnull align 8 dereferenceable(32) ptr @_ZNK19OpenColorIO_v2_4dev18CTFReaderTransform19getOutputDescriptorB5cxx11Ev(ptr noundef nonnull align 8 dereferenceable(356) %this1)
  call void @_ZN19OpenColorIO_v2_4dev12_GLOBAL__N_118AddNonEmptyElementERNS_18FormatMetadataImplEPKcRKNSt7__cxx1112basic_stringIcSt11char_traitsIcESaIcEEE(ptr noundef nonnull align 8 dereferenceable(120) %7, ptr noundef %8, ptr noundef nonnull align 8 dereferenceable(32) %call5)
  %m_descriptions = getelementptr inbounds %"class.OpenColorIO_v2_4dev::CTFReaderTransform", ptr %this1, i32 0, i32 7
  store ptr %m_descriptions, ptr %__range1, align 8
  %9 = load ptr, ptr %__range1, align 8
  %call6 = call ptr @_ZNKSt6vectorINSt7__cxx1112basic_stringIcSt11char_traitsIcESaIcEEESaIS5_EE5beginEv(ptr noundef nonnull align 8 dereferenceable(24) %9) #3
  %coerce.dive = getelementptr inbounds %"class.__gnu_cxx::__normal_iterator.35", ptr %__begin1, i32 0, i32 0
  store ptr %call6, ptr %coerce.dive, align 8
  %10 = load ptr, ptr %__range1, align 8
  %call7 = call ptr @_ZNKSt6vectorINSt7__cxx1112basic_stringIcSt11char_traitsIcESaIcEEESaIS5_EE3endEv(ptr noundef nonnull align 8 dereferenceable(24) %10) #3
  %coerce.dive8 = getelementptr inbounds %"class.__gnu_cxx::__normal_iterator.35", ptr %__end1, i32 0, i32 0
  store ptr %call7, ptr %coerce.dive8, align 8
  br label %for.cond

for.cond:                                         ; preds = %for.inc, %entry
  %call9 = call noundef zeroext i1 @_ZN9__gnu_cxxneIPKNSt7__cxx1112basic_stringIcSt11char_traitsIcESaIcEEESt6vectorIS6_SaIS6_EEEEbRKNS_17__normal_iteratorIT_T0_EESH_(ptr noundef nonnull align 8 dereferenceable(8) %__begin1, ptr noundef nonnull align 8 dereferenceable(8) %__end1) #3
  br i1 %call9, label %for.body, label %for.end

for.body:                                         ; preds = %for.cond
  %call10 = call noundef nonnull align 8 dereferenceable(32) ptr @_ZNK9__gnu_cxx17__normal_iteratorIPKNSt7__cxx1112basic_stringIcSt11char_traitsIcESaIcEEESt6vectorIS6_SaIS6_EEEdeEv(ptr noundef nonnull align 8 dereferenceable(8) %__begin1) #3
  store ptr %call10, ptr %desc, align 8
  %11 = load ptr, ptr %metadata.addr, align 8
  %12 = load ptr, ptr @_ZN19OpenColorIO_v2_4dev20METADATA_DESCRIPTIONE, align 8
  %13 = load ptr, ptr %desc, align 8
  %call11 = call noundef ptr @_ZNKSt7__cxx1112basic_stringIcSt11char_traitsIcESaIcEE5c_strEv(ptr noundef nonnull align 8 dereferenceable(32) %13) #3
  %vtable = load ptr, ptr %11, align 8
  %vfn = getelementptr inbounds ptr, ptr %vtable, i64 12
  %14 = load ptr, ptr %vfn, align 8
  call void %14(ptr noundef nonnull align 8 dereferenceable(120) %11, ptr noundef %12, ptr noundef %call11)
  br label %for.inc

for.inc:                                          ; preds = %for.body
  %call12 = call noundef nonnull align 8 dereferenceable(8) ptr @_ZN9__gnu_cxx17__normal_iteratorIPKNSt7__cxx1112basic_stringIcSt11char_traitsIcESaIcEEESt6vectorIS6_SaIS6_EEEppEv(ptr noundef nonnull align 8 dereferenceable(8) %__begin1) #3
  br label %for.cond

for.end:                                          ; preds = %for.cond
  %m_infoMetadata = getelementptr inbounds %"class.OpenColorIO_v2_4dev::CTFReaderTransform", ptr %this1, i32 0, i32 5
  %call13 = call noundef ptr @_ZNK19OpenColorIO_v2_4dev18FormatMetadataImpl15getElementValueEv(ptr noundef nonnull align 8 dereferenceable(120) %m_infoMetadata) #3
  call void @_ZNSaIcEC1Ev(ptr noundef nonnull align 1 dereferenceable(1) %ref.tmp) #3
  invoke void @_ZNSt7__cxx1112basic_stringIcSt11char_traitsIcESaIcEEC1EPKcRKS3_(ptr noundef nonnull align 8 dereferenceable(32) %infoValue, ptr noundef %call13, ptr noundef nonnull align 1 dereferenceable(1) %ref.tmp)
          to label %invoke.cont unwind label %lpad

invoke.cont:                                      ; preds = %for.end
  call void @_ZNSaIcED1Ev(ptr noundef nonnull align 1 dereferenceable(1) %ref.tmp) #3
  %m_infoMetadata14 = getelementptr inbounds %"class.OpenColorIO_v2_4dev::CTFReaderTransform", ptr %this1, i32 0, i32 5
  %call15 = call noundef i32 @_ZNK19OpenColorIO_v2_4dev18FormatMetadataImpl16getNumAttributesEv(ptr noundef nonnull align 8 dereferenceable(120) %m_infoMetadata14) #3
  %tobool = icmp ne i32 %call15, 0
  br i1 %tobool, label %if.then, label %lor.lhs.false

lor.lhs.false:                                    ; preds = %invoke.cont
  %m_infoMetadata16 = getelementptr inbounds %"class.OpenColorIO_v2_4dev::CTFReaderTransform", ptr %this1, i32 0, i32 5
  %call17 = call noundef i32 @_ZNK19OpenColorIO_v2_4dev18FormatMetadataImpl22getNumChildrenElementsEv(ptr noundef nonnull align 8 dereferenceable(120) %m_infoMetadata16) #3
  %tobool18 = icmp ne i32 %call17, 0
  br i1 %tobool18, label %if.then, label %lor.lhs.false19

lor.lhs.false19:                                  ; preds = %lor.lhs.false
  %call20 = call noundef zeroext i1 @_ZNKSt7__cxx1112basic_stringIcSt11char_traitsIcESaIcEE5emptyEv(ptr noundef nonnull align 8 dereferenceable(32) %infoValue) #3
  br i1 %call20, label %if.end, label %if.then

if.then:                                          ; preds = %lor.lhs.false19, %lor.lhs.false, %invoke.cont
  %15 = load ptr, ptr %metadata.addr, align 8
  %call21 = call noundef nonnull align 8 dereferenceable(24) ptr @_ZN19OpenColorIO_v2_4dev18FormatMetadataImpl19getChildrenElementsEv(ptr noundef nonnull align 8 dereferenceable(120) %15) #3
  %m_infoMetadata22 = getelementptr inbounds %"class.OpenColorIO_v2_4dev::CTFReaderTransform", ptr %this1, i32 0, i32 5
  invoke void @_ZNSt6vectorIN19OpenColorIO_v2_4dev18FormatMetadataImplESaIS1_EE9push_backERKS1_(ptr noundef nonnull align 8 dereferenceable(24) %call21, ptr noundef nonnull align 8 dereferenceable(120) %m_infoMetadata22)
          to label %invoke.cont24 unwind label %lpad23

invoke.cont24:                                    ; preds = %if.then
  br label %if.end

lpad:                                             ; preds = %for.end
  %16 = landingpad { ptr, i32 }
          cleanup
  %17 = extractvalue { ptr, i32 } %16, 0
  store ptr %17, ptr %exn.slot, align 8
  %18 = extractvalue { ptr, i32 } %16, 1
  store i32 %18, ptr %ehselector.slot, align 4
  call void @_ZNSaIcED1Ev(ptr noundef nonnull align 1 dereferenceable(1) %ref.tmp) #3
  br label %eh.resume

lpad23:                                           ; preds = %if.then
  %19 = landingpad { ptr, i32 }
          cleanup
  %20 = extractvalue { ptr, i32 } %19, 0
  store ptr %20, ptr %exn.slot, align 8
  %21 = extractvalue { ptr, i32 } %19, 1
  store i32 %21, ptr %ehselector.slot, align 4
  call void @_ZNSt7__cxx1112basic_stringIcSt11char_traitsIcESaIcEED1Ev(ptr noundef nonnull align 8 dereferenceable(32) %infoValue) #3
  br label %eh.resume

if.end:                                           ; preds = %invoke.cont24, %lor.lhs.false19
  call void @_ZNSt7__cxx1112basic_stringIcSt11char_traitsIcESaIcEED1Ev(ptr noundef nonnull align 8 dereferenceable(32) %infoValue) #3
  ret void

eh.resume:                                        ; preds = %lpad23, %lpad
  %exn = load ptr, ptr %exn.slot, align 8
  %sel = load i32, ptr %ehselector.slot, align 4
  %lpad.val = insertvalue { ptr, i32 } poison, ptr %exn, 0
  %lpad.val25 = insertvalue { ptr, i32 } %lpad.val, i32 %sel, 1
  resume { ptr, i32 } %lpad.val25
}

; Function Attrs: mustprogress uwtable
define internal void @_ZN19OpenColorIO_v2_4dev12_GLOBAL__N_120AddNonEmptyAttributeERNS_18FormatMetadataImplEPKcRKNSt7__cxx1112basic_stringIcSt11char_traitsIcESaIcEEE(ptr noundef nonnull align 8 dereferenceable(120) %metadata, ptr noundef %name, ptr noundef nonnull align 8 dereferenceable(32) %value) #5 {
entry:
  %metadata.addr = alloca ptr, align 8
  %name.addr = alloca ptr, align 8
  %value.addr = alloca ptr, align 8
  store ptr %metadata, ptr %metadata.addr, align 8
  store ptr %name, ptr %name.addr, align 8
  store ptr %value, ptr %value.addr, align 8
  %0 = load ptr, ptr %value.addr, align 8
  %call = call noundef zeroext i1 @_ZNKSt7__cxx1112basic_stringIcSt11char_traitsIcESaIcEE5emptyEv(ptr noundef nonnull align 8 dereferenceable(32) %0) #3
  br i1 %call, label %if.end, label %if.then

if.then:                                          ; preds = %entry
  %1 = load ptr, ptr %metadata.addr, align 8
  %2 = load ptr, ptr %name.addr, align 8
  %3 = load ptr, ptr %value.addr, align 8
  %call1 = call noundef ptr @_ZNKSt7__cxx1112basic_stringIcSt11char_traitsIcESaIcEE5c_strEv(ptr noundef nonnull align 8 dereferenceable(32) %3) #3
  %vtable = load ptr, ptr %1, align 8
  %vfn = getelementptr inbounds ptr, ptr %vtable, i64 8
  %4 = load ptr, ptr %vfn, align 8
  call void %4(ptr noundef nonnull align 8 dereferenceable(120) %1, ptr noundef %2, ptr noundef %call1)
  br label %if.end

if.end:                                           ; preds = %if.then, %entry
  ret void
}

; Function Attrs: mustprogress nounwind uwtable
define linkonce_odr hidden noundef nonnull align 8 dereferenceable(32) ptr @_ZNK19OpenColorIO_v2_4dev18CTFReaderTransform7getNameB5cxx11Ev(ptr noundef nonnull align 8 dereferenceable(356) %this) #4 comdat align 2 {
entry:
  %this.addr = alloca ptr, align 8
  store ptr %this, ptr %this.addr, align 8
  %this1 = load ptr, ptr %this.addr, align 8
  %m_name = getelementptr inbounds %"class.OpenColorIO_v2_4dev::CTFReaderTransform", ptr %this1, i32 0, i32 1
  ret ptr %m_name
}

; Function Attrs: mustprogress nounwind uwtable
define linkonce_odr hidden noundef nonnull align 8 dereferenceable(32) ptr @_ZNK19OpenColorIO_v2_4dev18CTFReaderTransform5getIDB5cxx11Ev(ptr noundef nonnull align 8 dereferenceable(356) %this) #4 comdat align 2 {
entry:
  %this.addr = alloca ptr, align 8
  store ptr %this, ptr %this.addr, align 8
  %this1 = load ptr, ptr %this.addr, align 8
  %m_id = getelementptr inbounds %"class.OpenColorIO_v2_4dev::CTFReaderTransform", ptr %this1, i32 0, i32 0
  ret ptr %m_id
}

; Function Attrs: mustprogress nounwind uwtable
define linkonce_odr hidden noundef nonnull align 8 dereferenceable(32) ptr @_ZNK19OpenColorIO_v2_4dev18CTFReaderTransform14getInverseOfIdB5cxx11Ev(ptr noundef nonnull align 8 dereferenceable(356) %this) #4 comdat align 2 {
entry:
  %this.addr = alloca ptr, align 8
  store ptr %this, ptr %this.addr, align 8
  %this1 = load ptr, ptr %this.addr, align 8
  %m_inverseOfId = getelementptr inbounds %"class.OpenColorIO_v2_4dev::CTFReaderTransform", ptr %this1, i32 0, i32 2
  ret ptr %m_inverseOfId
}

; Function Attrs: mustprogress uwtable
define internal void @_ZN19OpenColorIO_v2_4dev12_GLOBAL__N_118AddNonEmptyElementERNS_18FormatMetadataImplEPKcRKNSt7__cxx1112basic_stringIcSt11char_traitsIcESaIcEEE(ptr noundef nonnull align 8 dereferenceable(120) %metadata, ptr noundef %name, ptr noundef nonnull align 8 dereferenceable(32) %value) #5 {
entry:
  %metadata.addr = alloca ptr, align 8
  %name.addr = alloca ptr, align 8
  %value.addr = alloca ptr, align 8
  store ptr %metadata, ptr %metadata.addr, align 8
  store ptr %name, ptr %name.addr, align 8
  store ptr %value, ptr %value.addr, align 8
  %0 = load ptr, ptr %value.addr, align 8
  %call = call noundef zeroext i1 @_ZNKSt7__cxx1112basic_stringIcSt11char_traitsIcESaIcEE5emptyEv(ptr noundef nonnull align 8 dereferenceable(32) %0) #3
  br i1 %call, label %if.end, label %if.then

if.then:                                          ; preds = %entry
  %1 = load ptr, ptr %metadata.addr, align 8
  %2 = load ptr, ptr %name.addr, align 8
  %3 = load ptr, ptr %value.addr, align 8
  %call1 = call noundef ptr @_ZNKSt7__cxx1112basic_stringIcSt11char_traitsIcESaIcEE5c_strEv(ptr noundef nonnull align 8 dereferenceable(32) %3) #3
  %vtable = load ptr, ptr %1, align 8
  %vfn = getelementptr inbounds ptr, ptr %vtable, i64 12
  %4 = load ptr, ptr %vfn, align 8
  call void %4(ptr noundef nonnull align 8 dereferenceable(120) %1, ptr noundef %2, ptr noundef %call1)
  br label %if.end

if.end:                                           ; preds = %if.then, %entry
  ret void
}

; Function Attrs: mustprogress nounwind uwtable
define linkonce_odr hidden noundef nonnull align 8 dereferenceable(32) ptr @_ZNK19OpenColorIO_v2_4dev18CTFReaderTransform18getInputDescriptorB5cxx11Ev(ptr noundef nonnull align 8 dereferenceable(356) %this) #4 comdat align 2 {
entry:
  %this.addr = alloca ptr, align 8
  store ptr %this, ptr %this.addr, align 8
  %this1 = load ptr, ptr %this.addr, align 8
  %m_inDescriptor = getelementptr inbounds %"class.OpenColorIO_v2_4dev::CTFReaderTransform", ptr %this1, i32 0, i32 3
  ret ptr %m_inDescriptor
}

; Function Attrs: mustprogress nounwind uwtable
define linkonce_odr hidden noundef nonnull align 8 dereferenceable(32) ptr @_ZNK19OpenColorIO_v2_4dev18CTFReaderTransform19getOutputDescriptorB5cxx11Ev(ptr noundef nonnull align 8 dereferenceable(356) %this) #4 comdat align 2 {
entry:
  %this.addr = alloca ptr, align 8
  store ptr %this, ptr %this.addr, align 8
  %this1 = load ptr, ptr %this.addr, align 8
  %m_outDescriptor = getelementptr inbounds %"class.OpenColorIO_v2_4dev::CTFReaderTransform", ptr %this1, i32 0, i32 4
  ret ptr %m_outDescriptor
}

; Function Attrs: mustprogress nounwind uwtable
define linkonce_odr hidden ptr @_ZNKSt6vectorINSt7__cxx1112basic_stringIcSt11char_traitsIcESaIcEEESaIS5_EE5beginEv(ptr noundef nonnull align 8 dereferenceable(24) %this) #4 comdat align 2 {
entry:
  %retval = alloca %"class.__gnu_cxx::__normal_iterator.35", align 8
  %this.addr = alloca ptr, align 8
  store ptr %this, ptr %this.addr, align 8
  %this1 = load ptr, ptr %this.addr, align 8
  %_M_impl = getelementptr inbounds %"struct.std::_Vector_base.15", ptr %this1, i32 0, i32 0
  %_M_start = getelementptr inbounds %"struct.std::_Vector_base<std::__cxx11::basic_string<char>, std::allocator<std::__cxx11::basic_string<char>>>::_Vector_impl_data", ptr %_M_impl, i32 0, i32 0
  call void @_ZN9__gnu_cxx17__normal_iteratorIPKNSt7__cxx1112basic_stringIcSt11char_traitsIcESaIcEEESt6vectorIS6_SaIS6_EEEC2ERKS8_(ptr noundef nonnull align 8 dereferenceable(8) %retval, ptr noundef nonnull align 8 dereferenceable(8) %_M_start) #3
  %coerce.dive = getelementptr inbounds %"class.__gnu_cxx::__normal_iterator.35", ptr %retval, i32 0, i32 0
  %0 = load ptr, ptr %coerce.dive, align 8
  ret ptr %0
}

; Function Attrs: mustprogress nounwind uwtable
define linkonce_odr hidden ptr @_ZNKSt6vectorINSt7__cxx1112basic_stringIcSt11char_traitsIcESaIcEEESaIS5_EE3endEv(ptr noundef nonnull align 8 dereferenceable(24) %this) #4 comdat align 2 {
entry:
  %retval = alloca %"class.__gnu_cxx::__normal_iterator.35", align 8
  %this.addr = alloca ptr, align 8
  store ptr %this, ptr %this.addr, align 8
  %this1 = load ptr, ptr %this.addr, align 8
  %_M_impl = getelementptr inbounds %"struct.std::_Vector_base.15", ptr %this1, i32 0, i32 0
  %_M_finish = getelementptr inbounds %"struct.std::_Vector_base<std::__cxx11::basic_string<char>, std::allocator<std::__cxx11::basic_string<char>>>::_Vector_impl_data", ptr %_M_impl, i32 0, i32 1
  call void @_ZN9__gnu_cxx17__normal_iteratorIPKNSt7__cxx1112basic_stringIcSt11char_traitsIcESaIcEEESt6vectorIS6_SaIS6_EEEC2ERKS8_(ptr noundef nonnull align 8 dereferenceable(8) %retval, ptr noundef nonnull align 8 dereferenceable(8) %_M_finish) #3
  %coerce.dive = getelementptr inbounds %"class.__gnu_cxx::__normal_iterator.35", ptr %retval, i32 0, i32 0
  %0 = load ptr, ptr %coerce.dive, align 8
  ret ptr %0
}

; Function Attrs: mustprogress nounwind uwtable
define linkonce_odr noundef zeroext i1 @_ZN9__gnu_cxxneIPKNSt7__cxx1112basic_stringIcSt11char_traitsIcESaIcEEESt6vectorIS6_SaIS6_EEEEbRKNS_17__normal_iteratorIT_T0_EESH_(ptr noundef nonnull align 8 dereferenceable(8) %__lhs, ptr noundef nonnull align 8 dereferenceable(8) %__rhs) #4 comdat {
entry:
  %__lhs.addr = alloca ptr, align 8
  %__rhs.addr = alloca ptr, align 8
  store ptr %__lhs, ptr %__lhs.addr, align 8
  store ptr %__rhs, ptr %__rhs.addr, align 8
  %0 = load ptr, ptr %__lhs.addr, align 8
  %call = call noundef nonnull align 8 dereferenceable(8) ptr @_ZNK9__gnu_cxx17__normal_iteratorIPKNSt7__cxx1112basic_stringIcSt11char_traitsIcESaIcEEESt6vectorIS6_SaIS6_EEE4baseEv(ptr noundef nonnull align 8 dereferenceable(8) %0) #3
  %1 = load ptr, ptr %call, align 8
  %2 = load ptr, ptr %__rhs.addr, align 8
  %call1 = call noundef nonnull align 8 dereferenceable(8) ptr @_ZNK9__gnu_cxx17__normal_iteratorIPKNSt7__cxx1112basic_stringIcSt11char_traitsIcESaIcEEESt6vectorIS6_SaIS6_EEE4baseEv(ptr noundef nonnull align 8 dereferenceable(8) %2) #3
  %3 = load ptr, ptr %call1, align 8
  %cmp = icmp ne ptr %1, %3
  ret i1 %cmp
}

; Function Attrs: mustprogress nounwind uwtable
define linkonce_odr hidden noundef nonnull align 8 dereferenceable(32) ptr @_ZNK9__gnu_cxx17__normal_iteratorIPKNSt7__cxx1112basic_stringIcSt11char_traitsIcESaIcEEESt6vectorIS6_SaIS6_EEEdeEv(ptr noundef nonnull align 8 dereferenceable(8) %this) #4 comdat align 2 {
entry:
  %this.addr = alloca ptr, align 8
  store ptr %this, ptr %this.addr, align 8
  %this1 = load ptr, ptr %this.addr, align 8
  %_M_current = getelementptr inbounds %"class.__gnu_cxx::__normal_iterator.35", ptr %this1, i32 0, i32 0
  %0 = load ptr, ptr %_M_current, align 8
  ret ptr %0
}

; Function Attrs: mustprogress nounwind uwtable
define linkonce_odr hidden noundef nonnull align 8 dereferenceable(8) ptr @_ZN9__gnu_cxx17__normal_iteratorIPKNSt7__cxx1112basic_stringIcSt11char_traitsIcESaIcEEESt6vectorIS6_SaIS6_EEEppEv(ptr noundef nonnull align 8 dereferenceable(8) %this) #4 comdat align 2 {
entry:
  %this.addr = alloca ptr, align 8
  store ptr %this, ptr %this.addr, align 8
  %this1 = load ptr, ptr %this.addr, align 8
  %_M_current = getelementptr inbounds %"class.__gnu_cxx::__normal_iterator.35", ptr %this1, i32 0, i32 0
  %0 = load ptr, ptr %_M_current, align 8
  %incdec.ptr = getelementptr inbounds %"class.std::__cxx11::basic_string", ptr %0, i32 1
  store ptr %incdec.ptr, ptr %_M_current, align 8
  ret ptr %this1
}

; Function Attrs: nounwind
declare noundef ptr @_ZNK19OpenColorIO_v2_4dev18FormatMetadataImpl15getElementValueEv(ptr noundef nonnull align 8 dereferenceable(120)) unnamed_addr #2

; Function Attrs: nounwind
declare noundef i32 @_ZNK19OpenColorIO_v2_4dev18FormatMetadataImpl16getNumAttributesEv(ptr noundef nonnull align 8 dereferenceable(120)) unnamed_addr #2

; Function Attrs: nounwind
declare noundef i32 @_ZNK19OpenColorIO_v2_4dev18FormatMetadataImpl22getNumChildrenElementsEv(ptr noundef nonnull align 8 dereferenceable(120)) unnamed_addr #2

; Function Attrs: nounwind
declare noundef nonnull align 8 dereferenceable(24) ptr @_ZN19OpenColorIO_v2_4dev18FormatMetadataImpl19getChildrenElementsEv(ptr noundef nonnull align 8 dereferenceable(120)) #2

; Function Attrs: mustprogress uwtable
define linkonce_odr hidden void @_ZNSt6vectorIN19OpenColorIO_v2_4dev18FormatMetadataImplESaIS1_EE9push_backERKS1_(ptr noundef nonnull align 8 dereferenceable(24) %this, ptr noundef nonnull align 8 dereferenceable(120) %__x) #5 comdat align 2 {
entry:
  %this.addr = alloca ptr, align 8
  %__x.addr = alloca ptr, align 8
  %agg.tmp = alloca %"class.__gnu_cxx::__normal_iterator.144", align 8
  store ptr %this, ptr %this.addr, align 8
  store ptr %__x, ptr %__x.addr, align 8
  %this1 = load ptr, ptr %this.addr, align 8
  %_M_impl = getelementptr inbounds %"struct.std::_Vector_base.5", ptr %this1, i32 0, i32 0
  %_M_finish = getelementptr inbounds %"struct.std::_Vector_base<OpenColorIO_v2_4dev::FormatMetadataImpl, std::allocator<OpenColorIO_v2_4dev::FormatMetadataImpl>>::_Vector_impl_data", ptr %_M_impl, i32 0, i32 1
  %0 = load ptr, ptr %_M_finish, align 8
  %_M_impl2 = getelementptr inbounds %"struct.std::_Vector_base.5", ptr %this1, i32 0, i32 0
  %_M_end_of_storage = getelementptr inbounds %"struct.std::_Vector_base<OpenColorIO_v2_4dev::FormatMetadataImpl, std::allocator<OpenColorIO_v2_4dev::FormatMetadataImpl>>::_Vector_impl_data", ptr %_M_impl2, i32 0, i32 2
  %1 = load ptr, ptr %_M_end_of_storage, align 8
  %cmp = icmp ne ptr %0, %1
  br i1 %cmp, label %if.then, label %if.else

if.then:                                          ; preds = %entry
  %_M_impl3 = getelementptr inbounds %"struct.std::_Vector_base.5", ptr %this1, i32 0, i32 0
  %_M_impl4 = getelementptr inbounds %"struct.std::_Vector_base.5", ptr %this1, i32 0, i32 0
  %_M_finish5 = getelementptr inbounds %"struct.std::_Vector_base<OpenColorIO_v2_4dev::FormatMetadataImpl, std::allocator<OpenColorIO_v2_4dev::FormatMetadataImpl>>::_Vector_impl_data", ptr %_M_impl4, i32 0, i32 1
  %2 = load ptr, ptr %_M_finish5, align 8
  %3 = load ptr, ptr %__x.addr, align 8
  call void @_ZNSt16allocator_traitsISaIN19OpenColorIO_v2_4dev18FormatMetadataImplEEE9constructIS1_JRKS1_EEEvRS2_PT_DpOT0_(ptr noundef nonnull align 1 dereferenceable(1) %_M_impl3, ptr noundef %2, ptr noundef nonnull align 8 dereferenceable(120) %3)
  %_M_impl6 = getelementptr inbounds %"struct.std::_Vector_base.5", ptr %this1, i32 0, i32 0
  %_M_finish7 = getelementptr inbounds %"struct.std::_Vector_base<OpenColorIO_v2_4dev::FormatMetadataImpl, std::allocator<OpenColorIO_v2_4dev::FormatMetadataImpl>>::_Vector_impl_data", ptr %_M_impl6, i32 0, i32 1
  %4 = load ptr, ptr %_M_finish7, align 8
  %incdec.ptr = getelementptr inbounds %"class.OpenColorIO_v2_4dev::FormatMetadataImpl", ptr %4, i32 1
  store ptr %incdec.ptr, ptr %_M_finish7, align 8
  br label %if.end

if.else:                                          ; preds = %entry
  %call = call ptr @_ZNSt6vectorIN19OpenColorIO_v2_4dev18FormatMetadataImplESaIS1_EE3endEv(ptr noundef nonnull align 8 dereferenceable(24) %this1) #3
  %coerce.dive = getelementptr inbounds %"class.__gnu_cxx::__normal_iterator.144", ptr %agg.tmp, i32 0, i32 0
  store ptr %call, ptr %coerce.dive, align 8
  %5 = load ptr, ptr %__x.addr, align 8
  %coerce.dive8 = getelementptr inbounds %"class.__gnu_cxx::__normal_iterator.144", ptr %agg.tmp, i32 0, i32 0
  %6 = load ptr, ptr %coerce.dive8, align 8
  call void @_ZNSt6vectorIN19OpenColorIO_v2_4dev18FormatMetadataImplESaIS1_EE17_M_realloc_insertIJRKS1_EEEvN9__gnu_cxx17__normal_iteratorIPS1_S3_EEDpOT_(ptr noundef nonnull align 8 dereferenceable(24) %this1, ptr %6, ptr noundef nonnull align 8 dereferenceable(120) %5)
  br label %if.end

if.end:                                           ; preds = %if.else, %if.then
  ret void
}

; Function Attrs: mustprogress uwtable
define hidden void @_ZN19OpenColorIO_v2_4dev15TransformWriterC2ERNS_12XmlFormatterESt10shared_ptrIKNS_18CTFReaderTransformEEb(ptr noundef nonnull align 8 dereferenceable(33) %this, ptr noundef nonnull align 8 dereferenceable(16) %formatter, ptr noundef %transform, i1 noundef zeroext %isCLF) unnamed_addr #5 align 2 {
entry:
  %this.addr = alloca ptr, align 8
  %formatter.addr = alloca ptr, align 8
  %transform.indirect_addr = alloca ptr, align 8
  %isCLF.addr = alloca i8, align 1
  store ptr %this, ptr %this.addr, align 8
  store ptr %formatter, ptr %formatter.addr, align 8
  store ptr %transform, ptr %transform.indirect_addr, align 8
  %frombool = zext i1 %isCLF to i8
  store i8 %frombool, ptr %isCLF.addr, align 1
  %this1 = load ptr, ptr %this.addr, align 8
  %0 = load ptr, ptr %formatter.addr, align 8
  call void @_ZN19OpenColorIO_v2_4dev16XmlElementWriterC2ERNS_12XmlFormatterE(ptr noundef nonnull align 8 dereferenceable(16) %this1, ptr noundef nonnull align 8 dereferenceable(16) %0)
  store ptr getelementptr inbounds ({ [5 x ptr] }, ptr @_ZTVN19OpenColorIO_v2_4dev15TransformWriterE, i32 0, inrange i32 0, i32 2), ptr %this1, align 8
  %m_transform = getelementptr inbounds %"class.OpenColorIO_v2_4dev::TransformWriter", ptr %this1, i32 0, i32 1
  call void @_ZNSt10shared_ptrIKN19OpenColorIO_v2_4dev18CTFReaderTransformEEC2ERKS3_(ptr noundef nonnull align 8 dereferenceable(16) %m_transform, ptr noundef nonnull align 8 dereferenceable(16) %transform) #3
  %m_isCLF = getelementptr inbounds %"class.OpenColorIO_v2_4dev::TransformWriter", ptr %this1, i32 0, i32 2
  %1 = load i8, ptr %isCLF.addr, align 1
  %tobool = trunc i8 %1 to i1
  %frombool2 = zext i1 %tobool to i8
  store i8 %frombool2, ptr %m_isCLF, align 8
  ret void
}

declare void @_ZN19OpenColorIO_v2_4dev16XmlElementWriterC2ERNS_12XmlFormatterE(ptr noundef nonnull align 8 dereferenceable(16), ptr noundef nonnull align 8 dereferenceable(16)) unnamed_addr #1

; Function Attrs: mustprogress nounwind uwtable
define linkonce_odr hidden void @_ZNSt10shared_ptrIKN19OpenColorIO_v2_4dev18CTFReaderTransformEEC2ERKS3_(ptr noundef nonnull align 8 dereferenceable(16) %this, ptr noundef nonnull align 8 dereferenceable(16) %0) unnamed_addr #4 comdat align 2 {
entry:
  %this.addr = alloca ptr, align 8
  %.addr = alloca ptr, align 8
  store ptr %this, ptr %this.addr, align 8
  store ptr %0, ptr %.addr, align 8
  %this1 = load ptr, ptr %this.addr, align 8
  %1 = load ptr, ptr %.addr, align 8
  call void @_ZNSt12__shared_ptrIKN19OpenColorIO_v2_4dev18CTFReaderTransformELN9__gnu_cxx12_Lock_policyE2EEC2ERKS5_(ptr noundef nonnull align 8 dereferenceable(16) %this1, ptr noundef nonnull align 8 dereferenceable(16) %1) #3
  ret void
}

; Function Attrs: mustprogress nounwind uwtable
define hidden void @_ZN19OpenColorIO_v2_4dev15TransformWriterD2Ev(ptr noundef nonnull align 8 dereferenceable(33) %this) unnamed_addr #4 align 2 {
entry:
  %this.addr = alloca ptr, align 8
  store ptr %this, ptr %this.addr, align 8
  %this1 = load ptr, ptr %this.addr, align 8
  store ptr getelementptr inbounds ({ [5 x ptr] }, ptr @_ZTVN19OpenColorIO_v2_4dev15TransformWriterE, i32 0, inrange i32 0, i32 2), ptr %this1, align 8
  %m_transform = getelementptr inbounds %"class.OpenColorIO_v2_4dev::TransformWriter", ptr %this1, i32 0, i32 1
  call void @_ZNSt10shared_ptrIKN19OpenColorIO_v2_4dev18CTFReaderTransformEED2Ev(ptr noundef nonnull align 8 dereferenceable(16) %m_transform) #3
  call void @_ZN19OpenColorIO_v2_4dev16XmlElementWriterD2Ev(ptr noundef nonnull align 8 dereferenceable(16) %this1) #3
  ret void
}

; Function Attrs: mustprogress nounwind uwtable
define linkonce_odr hidden void @_ZNSt10shared_ptrIKN19OpenColorIO_v2_4dev18CTFReaderTransformEED2Ev(ptr noundef nonnull align 8 dereferenceable(16) %this) unnamed_addr #4 comdat align 2 {
entry:
  %this.addr = alloca ptr, align 8
  store ptr %this, ptr %this.addr, align 8
  %this1 = load ptr, ptr %this.addr, align 8
  call void @_ZNSt12__shared_ptrIKN19OpenColorIO_v2_4dev18CTFReaderTransformELN9__gnu_cxx12_Lock_policyE2EED2Ev(ptr noundef nonnull align 8 dereferenceable(16) %this1) #3
  ret void
}

; Function Attrs: nounwind
declare void @_ZN19OpenColorIO_v2_4dev16XmlElementWriterD2Ev(ptr noundef nonnull align 8 dereferenceable(16)) unnamed_addr #2

; Function Attrs: mustprogress nounwind uwtable
define hidden void @_ZN19OpenColorIO_v2_4dev15TransformWriterD0Ev(ptr noundef nonnull align 8 dereferenceable(33) %this) unnamed_addr #4 align 2 {
entry:
  %this.addr = alloca ptr, align 8
  store ptr %this, ptr %this.addr, align 8
  %this1 = load ptr, ptr %this.addr, align 8
  call void @_ZN19OpenColorIO_v2_4dev15TransformWriterD1Ev(ptr noundef nonnull align 8 dereferenceable(33) %this1) #3
  call void @_ZdlPv(ptr noundef %this1) #19
  ret void
}

; Function Attrs: nobuiltin nounwind
declare void @_ZdlPv(ptr noundef) #7

; Function Attrs: mustprogress uwtable
define hidden void @_ZNK19OpenColorIO_v2_4dev15TransformWriter5writeEv(ptr noundef nonnull align 8 dereferenceable(33) %this) unnamed_addr #5 align 2 personality ptr @__gxx_personality_v0 {
entry:
  %this.addr = alloca ptr, align 8
  %processListTag = alloca %"class.std::__cxx11::basic_string", align 8
  %ref.tmp = alloca %"class.std::allocator", align 1
  %exn.slot = alloca ptr, align 8
  %ehselector.slot = alloca i32, align 4
  %attributes = alloca %"class.std::vector", align 8
  %writeVersion = alloca %"class.OpenColorIO_v2_4dev::CTFVersion", align 4
  %fversion = alloca %"class.std::__cxx11::basic_ostringstream", align 8
  %ref.tmp8 = alloca %"struct.std::pair", align 8
  %ref.tmp9 = alloca %"class.std::__cxx11::basic_string", align 8
  %ref.tmp15 = alloca %"class.OpenColorIO_v2_4dev::CTFVersion", align 4
  %ref.tmp20 = alloca %"struct.std::pair", align 8
  %ref.tmp21 = alloca %"class.std::__cxx11::basic_string", align 8
  %id = alloca %"class.std::__cxx11::basic_string", align 8
  %ops = alloca ptr, align 8
  %__range2 = alloca ptr, align 8
  %__begin2 = alloca %"class.__gnu_cxx::__normal_iterator.39", align 8
  %__end2 = alloca %"class.__gnu_cxx::__normal_iterator.39", align 8
  %op = alloca %"class.std::shared_ptr.28", align 8
  %ref.tmp46 = alloca %"class.std::__cxx11::basic_string", align 8
  %ref.tmp56 = alloca %"class.std::__cxx11::basic_string", align 8
  %ref.tmp62 = alloca %"struct.std::pair", align 8
  %name = alloca ptr, align 8
  %ref.tmp73 = alloca %"struct.std::pair", align 8
  %inverseOfId = alloca ptr, align 8
  %ref.tmp85 = alloca %"struct.std::pair", align 8
  %scopeIndent = alloca %"class.OpenColorIO_v2_4dev::XmlScopeIndent", align 8
  %inputDesc = alloca ptr, align 8
  %ref.tmp108 = alloca %"class.std::__cxx11::basic_string", align 8
  %ref.tmp109 = alloca %"class.std::allocator", align 1
  %outputDesc = alloca ptr, align 8
  %ref.tmp124 = alloca %"class.std::__cxx11::basic_string", align 8
  %ref.tmp125 = alloca %"class.std::allocator", align 1
  %info = alloca ptr, align 8
  store ptr %this, ptr %this.addr, align 8
  %this1 = load ptr, ptr %this.addr, align 8
  call void @_ZNSaIcEC1Ev(ptr noundef nonnull align 1 dereferenceable(1) %ref.tmp) #3
  invoke void @_ZNSt7__cxx1112basic_stringIcSt11char_traitsIcESaIcEEC1EPKcRKS3_(ptr noundef nonnull align 8 dereferenceable(32) %processListTag, ptr noundef @_ZN19OpenColorIO_v2_4devL16TAG_PROCESS_LISTE, ptr noundef nonnull align 1 dereferenceable(1) %ref.tmp)
          to label %invoke.cont unwind label %lpad

invoke.cont:                                      ; preds = %entry
  call void @_ZNSaIcED1Ev(ptr noundef nonnull align 1 dereferenceable(1) %ref.tmp) #3
  call void @_ZNSt6vectorISt4pairINSt7__cxx1112basic_stringIcSt11char_traitsIcESaIcEEES6_ESaIS7_EEC2Ev(ptr noundef nonnull align 8 dereferenceable(24) %attributes) #3
  invoke void @_ZN19OpenColorIO_v2_4dev10CTFVersionC2ERKS0_(ptr noundef nonnull align 4 dereferenceable(12) %writeVersion, ptr noundef nonnull align 4 dereferenceable(12) @_ZN19OpenColorIO_v2_4devL28CTF_PROCESS_LIST_VERSION_2_0E)
          to label %invoke.cont3 unwind label %lpad2

invoke.cont3:                                     ; preds = %invoke.cont
  invoke void @_ZNSt7__cxx1119basic_ostringstreamIcSt11char_traitsIcESaIcEEC1Ev(ptr noundef nonnull align 8 dereferenceable(112) %fversion)
          to label %invoke.cont5 unwind label %lpad4

invoke.cont5:                                     ; preds = %invoke.cont3
  %m_isCLF = getelementptr inbounds %"class.OpenColorIO_v2_4dev::TransformWriter", ptr %this1, i32 0, i32 2
  %0 = load i8, ptr %m_isCLF, align 8
  %tobool = trunc i8 %0 to i1
  br i1 %tobool, label %if.then, label %if.else

if.then:                                          ; preds = %invoke.cont5
  %call = invoke noundef nonnull align 8 dereferenceable(8) ptr @_ZNSolsEi(ptr noundef nonnull align 8 dereferenceable(8) %fversion, i32 noundef 3)
          to label %invoke.cont7 unwind label %lpad6

invoke.cont7:                                     ; preds = %if.then
  invoke void @_ZNKSt7__cxx1119basic_ostringstreamIcSt11char_traitsIcESaIcEE3strEv(ptr sret(%"class.std::__cxx11::basic_string") align 8 %ref.tmp9, ptr noundef nonnull align 8 dereferenceable(112) %fversion)
          to label %invoke.cont10 unwind label %lpad6

invoke.cont10:                                    ; preds = %invoke.cont7
  invoke void @_ZNSt4pairINSt7__cxx1112basic_stringIcSt11char_traitsIcESaIcEEES5_EC2IRA15_KcS5_TnNSt9enable_ifIXaaclsr5_PCCPE22_MoveConstructiblePairIT_T0_EEclsr5_PCCPE30_ImplicitlyMoveConvertiblePairISC_SD_EEEbE4typeELb1EEEOSC_OSD_(ptr noundef nonnull align 8 dereferenceable(64) %ref.tmp8, ptr noundef nonnull align 1 dereferenceable(15) @_ZN19OpenColorIO_v2_4devL21ATTR_COMP_CLF_VERSIONE, ptr noundef nonnull align 8 dereferenceable(32) %ref.tmp9)
          to label %invoke.cont12 unwind label %lpad11

invoke.cont12:                                    ; preds = %invoke.cont10
  invoke void @_ZNSt6vectorISt4pairINSt7__cxx1112basic_stringIcSt11char_traitsIcESaIcEEES6_ESaIS7_EE9push_backEOS7_(ptr noundef nonnull align 8 dereferenceable(24) %attributes, ptr noundef nonnull align 8 dereferenceable(64) %ref.tmp8)
          to label %invoke.cont14 unwind label %lpad13

invoke.cont14:                                    ; preds = %invoke.cont12
  call void @_ZNSt4pairINSt7__cxx1112basic_stringIcSt11char_traitsIcESaIcEEES5_ED2Ev(ptr noundef nonnull align 8 dereferenceable(64) %ref.tmp8) #3
  call void @_ZNSt7__cxx1112basic_stringIcSt11char_traitsIcESaIcEED1Ev(ptr noundef nonnull align 8 dereferenceable(32) %ref.tmp9) #3
  br label %if.end

lpad:                                             ; preds = %entry
  %1 = landingpad { ptr, i32 }
          cleanup
  %2 = extractvalue { ptr, i32 } %1, 0
  store ptr %2, ptr %exn.slot, align 8
  %3 = extractvalue { ptr, i32 } %1, 1
  store i32 %3, ptr %ehselector.slot, align 4
  call void @_ZNSaIcED1Ev(ptr noundef nonnull align 1 dereferenceable(1) %ref.tmp) #3
  br label %eh.resume

lpad2:                                            ; preds = %invoke.cont
  %4 = landingpad { ptr, i32 }
          cleanup
  %5 = extractvalue { ptr, i32 } %4, 0
  store ptr %5, ptr %exn.slot, align 8
  %6 = extractvalue { ptr, i32 } %4, 1
  store i32 %6, ptr %ehselector.slot, align 4
  br label %ehcleanup145

lpad4:                                            ; preds = %invoke.cont3
  %7 = landingpad { ptr, i32 }
          cleanup
  %8 = extractvalue { ptr, i32 } %7, 0
  store ptr %8, ptr %exn.slot, align 8
  %9 = extractvalue { ptr, i32 } %7, 1
  store i32 %9, ptr %ehselector.slot, align 4
  br label %ehcleanup144

lpad6:                                            ; preds = %invoke.cont31, %if.end, %invoke.cont18, %invoke.cont16, %if.else, %invoke.cont7, %if.then
  %10 = landingpad { ptr, i32 }
          cleanup
  %11 = extractvalue { ptr, i32 } %10, 0
  store ptr %11, ptr %exn.slot, align 8
  %12 = extractvalue { ptr, i32 } %10, 1
  store i32 %12, ptr %ehselector.slot, align 4
  br label %ehcleanup143

lpad11:                                           ; preds = %invoke.cont10
  %13 = landingpad { ptr, i32 }
          cleanup
  %14 = extractvalue { ptr, i32 } %13, 0
  store ptr %14, ptr %exn.slot, align 8
  %15 = extractvalue { ptr, i32 } %13, 1
  store i32 %15, ptr %ehselector.slot, align 4
  br label %ehcleanup

lpad13:                                           ; preds = %invoke.cont12
  %16 = landingpad { ptr, i32 }
          cleanup
  %17 = extractvalue { ptr, i32 } %16, 0
  store ptr %17, ptr %exn.slot, align 8
  %18 = extractvalue { ptr, i32 } %16, 1
  store i32 %18, ptr %ehselector.slot, align 4
  call void @_ZNSt4pairINSt7__cxx1112basic_stringIcSt11char_traitsIcESaIcEEES5_ED2Ev(ptr noundef nonnull align 8 dereferenceable(64) %ref.tmp8) #3
  br label %ehcleanup

ehcleanup:                                        ; preds = %lpad13, %lpad11
  call void @_ZNSt7__cxx1112basic_stringIcSt11char_traitsIcESaIcEED1Ev(ptr noundef nonnull align 8 dereferenceable(32) %ref.tmp9) #3
  br label %ehcleanup143

if.else:                                          ; preds = %invoke.cont5
  %m_transform = getelementptr inbounds %"class.OpenColorIO_v2_4dev::TransformWriter", ptr %this1, i32 0, i32 1
  invoke void @_ZN19OpenColorIO_v2_4dev12_GLOBAL__N_117GetMinimumVersionERKSt10shared_ptrIKNS_18CTFReaderTransformEE(ptr sret(%"class.OpenColorIO_v2_4dev::CTFVersion") align 4 %ref.tmp15, ptr noundef nonnull align 8 dereferenceable(16) %m_transform)
          to label %invoke.cont16 unwind label %lpad6

invoke.cont16:                                    ; preds = %if.else
  %call17 = call noundef nonnull align 4 dereferenceable(12) ptr @_ZN19OpenColorIO_v2_4dev10CTFVersionaSERKS0_(ptr noundef nonnull align 4 dereferenceable(12) %writeVersion, ptr noundef nonnull align 4 dereferenceable(12) %ref.tmp15)
  call void @_ZN19OpenColorIO_v2_4dev10CTFVersionD2Ev(ptr noundef nonnull align 4 dereferenceable(12) %ref.tmp15) #3
  %call19 = invoke noundef nonnull align 8 dereferenceable(8) ptr @_ZN19OpenColorIO_v2_4devlsERSoRKNS_10CTFVersionE(ptr noundef nonnull align 8 dereferenceable(8) %fversion, ptr noundef nonnull align 4 dereferenceable(12) %writeVersion)
          to label %invoke.cont18 unwind label %lpad6

invoke.cont18:                                    ; preds = %invoke.cont16
  invoke void @_ZNKSt7__cxx1119basic_ostringstreamIcSt11char_traitsIcESaIcEE3strEv(ptr sret(%"class.std::__cxx11::basic_string") align 8 %ref.tmp21, ptr noundef nonnull align 8 dereferenceable(112) %fversion)
          to label %invoke.cont22 unwind label %lpad6

invoke.cont22:                                    ; preds = %invoke.cont18
  invoke void @_ZNSt4pairINSt7__cxx1112basic_stringIcSt11char_traitsIcESaIcEEES5_EC2IRA8_KcS5_TnNSt9enable_ifIXaaclsr5_PCCPE22_MoveConstructiblePairIT_T0_EEclsr5_PCCPE30_ImplicitlyMoveConvertiblePairISC_SD_EEEbE4typeELb1EEEOSC_OSD_(ptr noundef nonnull align 8 dereferenceable(64) %ref.tmp20, ptr noundef nonnull align 1 dereferenceable(8) @_ZN19OpenColorIO_v2_4devL12ATTR_VERSIONE, ptr noundef nonnull align 8 dereferenceable(32) %ref.tmp21)
          to label %invoke.cont24 unwind label %lpad23

invoke.cont24:                                    ; preds = %invoke.cont22
  invoke void @_ZNSt6vectorISt4pairINSt7__cxx1112basic_stringIcSt11char_traitsIcESaIcEEES6_ESaIS7_EE9push_backEOS7_(ptr noundef nonnull align 8 dereferenceable(24) %attributes, ptr noundef nonnull align 8 dereferenceable(64) %ref.tmp20)
          to label %invoke.cont26 unwind label %lpad25

invoke.cont26:                                    ; preds = %invoke.cont24
  call void @_ZNSt4pairINSt7__cxx1112basic_stringIcSt11char_traitsIcESaIcEEES5_ED2Ev(ptr noundef nonnull align 8 dereferenceable(64) %ref.tmp20) #3
  call void @_ZNSt7__cxx1112basic_stringIcSt11char_traitsIcESaIcEED1Ev(ptr noundef nonnull align 8 dereferenceable(32) %ref.tmp21) #3
  br label %if.end

lpad23:                                           ; preds = %invoke.cont22
  %19 = landingpad { ptr, i32 }
          cleanup
  %20 = extractvalue { ptr, i32 } %19, 0
  store ptr %20, ptr %exn.slot, align 8
  %21 = extractvalue { ptr, i32 } %19, 1
  store i32 %21, ptr %ehselector.slot, align 4
  br label %ehcleanup28

lpad25:                                           ; preds = %invoke.cont24
  %22 = landingpad { ptr, i32 }
          cleanup
  %23 = extractvalue { ptr, i32 } %22, 0
  store ptr %23, ptr %exn.slot, align 8
  %24 = extractvalue { ptr, i32 } %22, 1
  store i32 %24, ptr %ehselector.slot, align 4
  call void @_ZNSt4pairINSt7__cxx1112basic_stringIcSt11char_traitsIcESaIcEEES5_ED2Ev(ptr noundef nonnull align 8 dereferenceable(64) %ref.tmp20) #3
  br label %ehcleanup28

ehcleanup28:                                      ; preds = %lpad25, %lpad23
  call void @_ZNSt7__cxx1112basic_stringIcSt11char_traitsIcESaIcEED1Ev(ptr noundef nonnull align 8 dereferenceable(32) %ref.tmp21) #3
  br label %ehcleanup143

if.end:                                           ; preds = %invoke.cont26, %invoke.cont14
  %m_transform29 = getelementptr inbounds %"class.OpenColorIO_v2_4dev::TransformWriter", ptr %this1, i32 0, i32 1
  %call30 = call noundef ptr @_ZNKSt19__shared_ptr_accessIKN19OpenColorIO_v2_4dev18CTFReaderTransformELN9__gnu_cxx12_Lock_policyE2ELb0ELb0EEptEv(ptr noundef nonnull align 1 dereferenceable(1) %m_transform29) #3
  %call32 = invoke noundef nonnull align 8 dereferenceable(32) ptr @_ZNK19OpenColorIO_v2_4dev18CTFReaderTransform5getIDB5cxx11Ev(ptr noundef nonnull align 8 dereferenceable(356) %call30)
          to label %invoke.cont31 unwind label %lpad6

invoke.cont31:                                    ; preds = %if.end
  invoke void @_ZNSt7__cxx1112basic_stringIcSt11char_traitsIcESaIcEEC1ERKS4_(ptr noundef nonnull align 8 dereferenceable(32) %id, ptr noundef nonnull align 8 dereferenceable(32) %call32)
          to label %invoke.cont33 unwind label %lpad6

invoke.cont33:                                    ; preds = %invoke.cont31
  %call34 = call noundef zeroext i1 @_ZNKSt7__cxx1112basic_stringIcSt11char_traitsIcESaIcEE5emptyEv(ptr noundef nonnull align 8 dereferenceable(32) %id) #3
  br i1 %call34, label %if.then35, label %if.end61

if.then35:                                        ; preds = %invoke.cont33
  %m_transform36 = getelementptr inbounds %"class.OpenColorIO_v2_4dev::TransformWriter", ptr %this1, i32 0, i32 1
  %call37 = call noundef ptr @_ZNKSt19__shared_ptr_accessIKN19OpenColorIO_v2_4dev18CTFReaderTransformELN9__gnu_cxx12_Lock_policyE2ELb0ELb0EEptEv(ptr noundef nonnull align 1 dereferenceable(1) %m_transform36) #3
  %call40 = invoke noundef nonnull align 8 dereferenceable(24) ptr @_ZNK19OpenColorIO_v2_4dev18CTFReaderTransform6getOpsEv(ptr noundef nonnull align 8 dereferenceable(356) %call37)
          to label %invoke.cont39 unwind label %lpad38

invoke.cont39:                                    ; preds = %if.then35
  store ptr %call40, ptr %ops, align 8
  %25 = load ptr, ptr %ops, align 8
  store ptr %25, ptr %__range2, align 8
  %26 = load ptr, ptr %__range2, align 8
  %call41 = call ptr @_ZNKSt6vectorISt10shared_ptrIKN19OpenColorIO_v2_4dev6OpDataEESaIS4_EE5beginEv(ptr noundef nonnull align 8 dereferenceable(24) %26) #3
  %coerce.dive = getelementptr inbounds %"class.__gnu_cxx::__normal_iterator.39", ptr %__begin2, i32 0, i32 0
  store ptr %call41, ptr %coerce.dive, align 8
  %27 = load ptr, ptr %__range2, align 8
  %call42 = call ptr @_ZNKSt6vectorISt10shared_ptrIKN19OpenColorIO_v2_4dev6OpDataEESaIS4_EE3endEv(ptr noundef nonnull align 8 dereferenceable(24) %27) #3
  %coerce.dive43 = getelementptr inbounds %"class.__gnu_cxx::__normal_iterator.39", ptr %__end2, i32 0, i32 0
  store ptr %call42, ptr %coerce.dive43, align 8
  br label %for.cond

for.cond:                                         ; preds = %for.inc, %invoke.cont39
  %call44 = call noundef zeroext i1 @_ZN9__gnu_cxxneIPKSt10shared_ptrIKN19OpenColorIO_v2_4dev6OpDataEESt6vectorIS5_SaIS5_EEEEbRKNS_17__normal_iteratorIT_T0_EESG_(ptr noundef nonnull align 8 dereferenceable(8) %__begin2, ptr noundef nonnull align 8 dereferenceable(8) %__end2) #3
  br i1 %call44, label %for.body, label %for.end

for.body:                                         ; preds = %for.cond
  %call45 = call noundef nonnull align 8 dereferenceable(16) ptr @_ZNK9__gnu_cxx17__normal_iteratorIPKSt10shared_ptrIKN19OpenColorIO_v2_4dev6OpDataEESt6vectorIS5_SaIS5_EEEdeEv(ptr noundef nonnull align 8 dereferenceable(8) %__begin2) #3
  call void @_ZNSt10shared_ptrIKN19OpenColorIO_v2_4dev6OpDataEEC2ERKS3_(ptr noundef nonnull align 8 dereferenceable(16) %op, ptr noundef nonnull align 8 dereferenceable(16) %call45) #3
  %call47 = call noundef ptr @_ZNKSt19__shared_ptr_accessIKN19OpenColorIO_v2_4dev6OpDataELN9__gnu_cxx12_Lock_policyE2ELb0ELb0EEptEv(ptr noundef nonnull align 1 dereferenceable(1) %op) #3
  %vtable = load ptr, ptr %call47, align 8
  %vfn = getelementptr inbounds ptr, ptr %vtable, i64 10
  %28 = load ptr, ptr %vfn, align 8
  invoke void %28(ptr sret(%"class.std::__cxx11::basic_string") align 8 %ref.tmp46, ptr noundef nonnull align 8 dereferenceable(168) %call47)
          to label %invoke.cont49 unwind label %lpad48

invoke.cont49:                                    ; preds = %for.body
  %call52 = invoke noundef nonnull align 8 dereferenceable(32) ptr @_ZNSt7__cxx1112basic_stringIcSt11char_traitsIcESaIcEEpLERKS4_(ptr noundef nonnull align 8 dereferenceable(32) %id, ptr noundef nonnull align 8 dereferenceable(32) %ref.tmp46)
          to label %invoke.cont51 unwind label %lpad50

invoke.cont51:                                    ; preds = %invoke.cont49
  call void @_ZNSt7__cxx1112basic_stringIcSt11char_traitsIcESaIcEED1Ev(ptr noundef nonnull align 8 dereferenceable(32) %ref.tmp46) #3
  call void @_ZNSt10shared_ptrIKN19OpenColorIO_v2_4dev6OpDataEED2Ev(ptr noundef nonnull align 8 dereferenceable(16) %op) #3
  br label %for.inc

for.inc:                                          ; preds = %invoke.cont51
  %call55 = call noundef nonnull align 8 dereferenceable(8) ptr @_ZN9__gnu_cxx17__normal_iteratorIPKSt10shared_ptrIKN19OpenColorIO_v2_4dev6OpDataEESt6vectorIS5_SaIS5_EEEppEv(ptr noundef nonnull align 8 dereferenceable(8) %__begin2) #3
  br label %for.cond

lpad38:                                           ; preds = %invoke.cont138, %invoke.cont91, %if.end90, %if.then84, %if.end78, %if.then72, %invoke.cont65, %if.end61, %for.end, %if.then35
  %29 = landingpad { ptr, i32 }
          cleanup
  %30 = extractvalue { ptr, i32 } %29, 0
  store ptr %30, ptr %exn.slot, align 8
  %31 = extractvalue { ptr, i32 } %29, 1
  store i32 %31, ptr %ehselector.slot, align 4
  br label %ehcleanup142

lpad48:                                           ; preds = %for.body
  %32 = landingpad { ptr, i32 }
          cleanup
  %33 = extractvalue { ptr, i32 } %32, 0
  store ptr %33, ptr %exn.slot, align 8
  %34 = extractvalue { ptr, i32 } %32, 1
  store i32 %34, ptr %ehselector.slot, align 4
  br label %ehcleanup54

lpad50:                                           ; preds = %invoke.cont49
  %35 = landingpad { ptr, i32 }
          cleanup
  %36 = extractvalue { ptr, i32 } %35, 0
  store ptr %36, ptr %exn.slot, align 8
  %37 = extractvalue { ptr, i32 } %35, 1
  store i32 %37, ptr %ehselector.slot, align 4
  call void @_ZNSt7__cxx1112basic_stringIcSt11char_traitsIcESaIcEED1Ev(ptr noundef nonnull align 8 dereferenceable(32) %ref.tmp46) #3
  br label %ehcleanup54

ehcleanup54:                                      ; preds = %lpad50, %lpad48
  call void @_ZNSt10shared_ptrIKN19OpenColorIO_v2_4dev6OpDataEED2Ev(ptr noundef nonnull align 8 dereferenceable(16) %op) #3
  br label %ehcleanup142

for.end:                                          ; preds = %for.cond
  %call57 = call noundef ptr @_ZNKSt7__cxx1112basic_stringIcSt11char_traitsIcESaIcEE5c_strEv(ptr noundef nonnull align 8 dereferenceable(32) %id) #3
  %call58 = call noundef i64 @_ZNKSt7__cxx1112basic_stringIcSt11char_traitsIcESaIcEE4sizeEv(ptr noundef nonnull align 8 dereferenceable(32) %id) #3
  invoke void @_ZN19OpenColorIO_v2_4dev11CacheIDHashB5cxx11EPKcm(ptr sret(%"class.std::__cxx11::basic_string") align 8 %ref.tmp56, ptr noundef %call57, i64 noundef %call58)
          to label %invoke.cont59 unwind label %lpad38

invoke.cont59:                                    ; preds = %for.end
  %call60 = call noundef nonnull align 8 dereferenceable(32) ptr @_ZNSt7__cxx1112basic_stringIcSt11char_traitsIcESaIcEEaSEOS4_(ptr noundef nonnull align 8 dereferenceable(32) %id, ptr noundef nonnull align 8 dereferenceable(32) %ref.tmp56) #3
  call void @_ZNSt7__cxx1112basic_stringIcSt11char_traitsIcESaIcEED1Ev(ptr noundef nonnull align 8 dereferenceable(32) %ref.tmp56) #3
  br label %if.end61

if.end61:                                         ; preds = %invoke.cont59, %invoke.cont33
  invoke void @_ZNSt4pairINSt7__cxx1112basic_stringIcSt11char_traitsIcESaIcEEES5_EC2IRA3_KcRS5_TnNSt9enable_ifIXaaclsr5_PCCPE22_MoveConstructiblePairIT_T0_EEclsr5_PCCPE30_ImplicitlyMoveConvertiblePairISD_SE_EEEbE4typeELb1EEEOSD_OSE_(ptr noundef nonnull align 8 dereferenceable(64) %ref.tmp62, ptr noundef nonnull align 1 dereferenceable(3) @_ZN19OpenColorIO_v2_4devL7ATTR_IDE, ptr noundef nonnull align 8 dereferenceable(32) %id)
          to label %invoke.cont63 unwind label %lpad38

invoke.cont63:                                    ; preds = %if.end61
  invoke void @_ZNSt6vectorISt4pairINSt7__cxx1112basic_stringIcSt11char_traitsIcESaIcEEES6_ESaIS7_EE9push_backEOS7_(ptr noundef nonnull align 8 dereferenceable(24) %attributes, ptr noundef nonnull align 8 dereferenceable(64) %ref.tmp62)
          to label %invoke.cont65 unwind label %lpad64

invoke.cont65:                                    ; preds = %invoke.cont63
  call void @_ZNSt4pairINSt7__cxx1112basic_stringIcSt11char_traitsIcESaIcEEES5_ED2Ev(ptr noundef nonnull align 8 dereferenceable(64) %ref.tmp62) #3
  %m_transform67 = getelementptr inbounds %"class.OpenColorIO_v2_4dev::TransformWriter", ptr %this1, i32 0, i32 1
  %call68 = call noundef ptr @_ZNKSt19__shared_ptr_accessIKN19OpenColorIO_v2_4dev18CTFReaderTransformELN9__gnu_cxx12_Lock_policyE2ELb0ELb0EEptEv(ptr noundef nonnull align 1 dereferenceable(1) %m_transform67) #3
  %call70 = invoke noundef nonnull align 8 dereferenceable(32) ptr @_ZNK19OpenColorIO_v2_4dev18CTFReaderTransform7getNameB5cxx11Ev(ptr noundef nonnull align 8 dereferenceable(356) %call68)
          to label %invoke.cont69 unwind label %lpad38

invoke.cont69:                                    ; preds = %invoke.cont65
  store ptr %call70, ptr %name, align 8
  %38 = load ptr, ptr %name, align 8
  %call71 = call noundef zeroext i1 @_ZNKSt7__cxx1112basic_stringIcSt11char_traitsIcESaIcEE5emptyEv(ptr noundef nonnull align 8 dereferenceable(32) %38) #3
  br i1 %call71, label %if.end78, label %if.then72

if.then72:                                        ; preds = %invoke.cont69
  %39 = load ptr, ptr %name, align 8
  invoke void @_ZNSt4pairINSt7__cxx1112basic_stringIcSt11char_traitsIcESaIcEEES5_EC2IRA5_KcRKS5_TnNSt9enable_ifIXaaclsr5_PCCPE22_MoveConstructiblePairIT_T0_EEclsr5_PCCPE30_ImplicitlyMoveConvertiblePairISE_SF_EEEbE4typeELb1EEEOSE_OSF_(ptr noundef nonnull align 8 dereferenceable(64) %ref.tmp73, ptr noundef nonnull align 1 dereferenceable(5) @_ZN19OpenColorIO_v2_4devL9ATTR_NAMEE, ptr noundef nonnull align 8 dereferenceable(32) %39)
          to label %invoke.cont74 unwind label %lpad38

invoke.cont74:                                    ; preds = %if.then72
  invoke void @_ZNSt6vectorISt4pairINSt7__cxx1112basic_stringIcSt11char_traitsIcESaIcEEES6_ESaIS7_EE9push_backEOS7_(ptr noundef nonnull align 8 dereferenceable(24) %attributes, ptr noundef nonnull align 8 dereferenceable(64) %ref.tmp73)
          to label %invoke.cont76 unwind label %lpad75

invoke.cont76:                                    ; preds = %invoke.cont74
  call void @_ZNSt4pairINSt7__cxx1112basic_stringIcSt11char_traitsIcESaIcEEES5_ED2Ev(ptr noundef nonnull align 8 dereferenceable(64) %ref.tmp73) #3
  br label %if.end78

lpad64:                                           ; preds = %invoke.cont63
  %40 = landingpad { ptr, i32 }
          cleanup
  %41 = extractvalue { ptr, i32 } %40, 0
  store ptr %41, ptr %exn.slot, align 8
  %42 = extractvalue { ptr, i32 } %40, 1
  store i32 %42, ptr %ehselector.slot, align 4
  call void @_ZNSt4pairINSt7__cxx1112basic_stringIcSt11char_traitsIcESaIcEEES5_ED2Ev(ptr noundef nonnull align 8 dereferenceable(64) %ref.tmp62) #3
  br label %ehcleanup142

lpad75:                                           ; preds = %invoke.cont74
  %43 = landingpad { ptr, i32 }
          cleanup
  %44 = extractvalue { ptr, i32 } %43, 0
  store ptr %44, ptr %exn.slot, align 8
  %45 = extractvalue { ptr, i32 } %43, 1
  store i32 %45, ptr %ehselector.slot, align 4
  call void @_ZNSt4pairINSt7__cxx1112basic_stringIcSt11char_traitsIcESaIcEEES5_ED2Ev(ptr noundef nonnull align 8 dereferenceable(64) %ref.tmp73) #3
  br label %ehcleanup142

if.end78:                                         ; preds = %invoke.cont76, %invoke.cont69
  %m_transform79 = getelementptr inbounds %"class.OpenColorIO_v2_4dev::TransformWriter", ptr %this1, i32 0, i32 1
  %call80 = call noundef ptr @_ZNKSt19__shared_ptr_accessIKN19OpenColorIO_v2_4dev18CTFReaderTransformELN9__gnu_cxx12_Lock_policyE2ELb0ELb0EEptEv(ptr noundef nonnull align 1 dereferenceable(1) %m_transform79) #3
  %call82 = invoke noundef nonnull align 8 dereferenceable(32) ptr @_ZNK19OpenColorIO_v2_4dev18CTFReaderTransform14getInverseOfIdB5cxx11Ev(ptr noundef nonnull align 8 dereferenceable(356) %call80)
          to label %invoke.cont81 unwind label %lpad38

invoke.cont81:                                    ; preds = %if.end78
  store ptr %call82, ptr %inverseOfId, align 8
  %46 = load ptr, ptr %inverseOfId, align 8
  %call83 = call noundef zeroext i1 @_ZNKSt7__cxx1112basic_stringIcSt11char_traitsIcESaIcEE5emptyEv(ptr noundef nonnull align 8 dereferenceable(32) %46) #3
  br i1 %call83, label %if.end90, label %if.then84

if.then84:                                        ; preds = %invoke.cont81
  %47 = load ptr, ptr %inverseOfId, align 8
  invoke void @_ZNSt4pairINSt7__cxx1112basic_stringIcSt11char_traitsIcESaIcEEES5_EC2IRA10_KcRKS5_TnNSt9enable_ifIXaaclsr5_PCCPE22_MoveConstructiblePairIT_T0_EEclsr5_PCCPE30_ImplicitlyMoveConvertiblePairISE_SF_EEEbE4typeELb1EEEOSE_OSF_(ptr noundef nonnull align 8 dereferenceable(64) %ref.tmp85, ptr noundef nonnull align 1 dereferenceable(10) @_ZN19OpenColorIO_v2_4devL15ATTR_INVERSE_OFE, ptr noundef nonnull align 8 dereferenceable(32) %47)
          to label %invoke.cont86 unwind label %lpad38

invoke.cont86:                                    ; preds = %if.then84
  invoke void @_ZNSt6vectorISt4pairINSt7__cxx1112basic_stringIcSt11char_traitsIcESaIcEEES6_ESaIS7_EE9push_backEOS7_(ptr noundef nonnull align 8 dereferenceable(24) %attributes, ptr noundef nonnull align 8 dereferenceable(64) %ref.tmp85)
          to label %invoke.cont88 unwind label %lpad87

invoke.cont88:                                    ; preds = %invoke.cont86
  call void @_ZNSt4pairINSt7__cxx1112basic_stringIcSt11char_traitsIcESaIcEEES5_ED2Ev(ptr noundef nonnull align 8 dereferenceable(64) %ref.tmp85) #3
  br label %if.end90

lpad87:                                           ; preds = %invoke.cont86
  %48 = landingpad { ptr, i32 }
          cleanup
  %49 = extractvalue { ptr, i32 } %48, 0
  store ptr %49, ptr %exn.slot, align 8
  %50 = extractvalue { ptr, i32 } %48, 1
  store i32 %50, ptr %ehselector.slot, align 4
  call void @_ZNSt4pairINSt7__cxx1112basic_stringIcSt11char_traitsIcESaIcEEES5_ED2Ev(ptr noundef nonnull align 8 dereferenceable(64) %ref.tmp85) #3
  br label %ehcleanup142

if.end90:                                         ; preds = %invoke.cont88, %invoke.cont81
  %m_formatter = getelementptr inbounds %"class.OpenColorIO_v2_4dev::XmlElementWriter", ptr %this1, i32 0, i32 1
  %51 = load ptr, ptr %m_formatter, align 8
  invoke void @_ZN19OpenColorIO_v2_4dev12XmlFormatter13writeStartTagERKNSt7__cxx1112basic_stringIcSt11char_traitsIcESaIcEEERKSt6vectorISt4pairIS6_S6_ESaISB_EE(ptr noundef nonnull align 8 dereferenceable(16) %51, ptr noundef nonnull align 8 dereferenceable(32) %processListTag, ptr noundef nonnull align 8 dereferenceable(24) %attributes)
          to label %invoke.cont91 unwind label %lpad38

invoke.cont91:                                    ; preds = %if.end90
  %m_formatter92 = getelementptr inbounds %"class.OpenColorIO_v2_4dev::XmlElementWriter", ptr %this1, i32 0, i32 1
  %52 = load ptr, ptr %m_formatter92, align 8
  invoke void @_ZN19OpenColorIO_v2_4dev14XmlScopeIndentC1ERNS_12XmlFormatterE(ptr noundef nonnull align 8 dereferenceable(8) %scopeIndent, ptr noundef nonnull align 8 dereferenceable(16) %52)
          to label %invoke.cont93 unwind label %lpad38

invoke.cont93:                                    ; preds = %invoke.cont91
  %m_formatter94 = getelementptr inbounds %"class.OpenColorIO_v2_4dev::XmlElementWriter", ptr %this1, i32 0, i32 1
  %53 = load ptr, ptr %m_formatter94, align 8
  %m_transform95 = getelementptr inbounds %"class.OpenColorIO_v2_4dev::TransformWriter", ptr %this1, i32 0, i32 1
  %call96 = call noundef ptr @_ZNKSt19__shared_ptr_accessIKN19OpenColorIO_v2_4dev18CTFReaderTransformELN9__gnu_cxx12_Lock_policyE2ELb0ELb0EEptEv(ptr noundef nonnull align 1 dereferenceable(1) %m_transform95) #3
  %call99 = invoke noundef nonnull align 8 dereferenceable(24) ptr @_ZNK19OpenColorIO_v2_4dev18CTFReaderTransform15getDescriptionsB5cxx11Ev(ptr noundef nonnull align 8 dereferenceable(356) %call96)
          to label %invoke.cont98 unwind label %lpad97

invoke.cont98:                                    ; preds = %invoke.cont93
  invoke void @_ZN19OpenColorIO_v2_4dev12_GLOBAL__N_117WriteDescriptionsERNS_12XmlFormatterEPKcRKSt6vectorINSt7__cxx1112basic_stringIcSt11char_traitsIcESaIcEEESaISB_EE(ptr noundef nonnull align 8 dereferenceable(16) %53, ptr noundef @_ZN19OpenColorIO_v2_4devL15TAG_DESCRIPTIONE, ptr noundef nonnull align 8 dereferenceable(24) %call99)
          to label %invoke.cont100 unwind label %lpad97

invoke.cont100:                                   ; preds = %invoke.cont98
  %m_transform101 = getelementptr inbounds %"class.OpenColorIO_v2_4dev::TransformWriter", ptr %this1, i32 0, i32 1
  %call102 = call noundef ptr @_ZNKSt19__shared_ptr_accessIKN19OpenColorIO_v2_4dev18CTFReaderTransformELN9__gnu_cxx12_Lock_policyE2ELb0ELb0EEptEv(ptr noundef nonnull align 1 dereferenceable(1) %m_transform101) #3
  %call104 = invoke noundef nonnull align 8 dereferenceable(32) ptr @_ZNK19OpenColorIO_v2_4dev18CTFReaderTransform18getInputDescriptorB5cxx11Ev(ptr noundef nonnull align 8 dereferenceable(356) %call102)
          to label %invoke.cont103 unwind label %lpad97

invoke.cont103:                                   ; preds = %invoke.cont100
  store ptr %call104, ptr %inputDesc, align 8
  %54 = load ptr, ptr %inputDesc, align 8
  %call105 = call noundef zeroext i1 @_ZNKSt7__cxx1112basic_stringIcSt11char_traitsIcESaIcEE5emptyEv(ptr noundef nonnull align 8 dereferenceable(32) %54) #3
  br i1 %call105, label %if.end116, label %if.then106

if.then106:                                       ; preds = %invoke.cont103
  %m_formatter107 = getelementptr inbounds %"class.OpenColorIO_v2_4dev::XmlElementWriter", ptr %this1, i32 0, i32 1
  %55 = load ptr, ptr %m_formatter107, align 8
  %56 = load ptr, ptr @_ZN19OpenColorIO_v2_4dev25METADATA_INPUT_DESCRIPTORE, align 8
  call void @_ZNSaIcEC1Ev(ptr noundef nonnull align 1 dereferenceable(1) %ref.tmp109) #3
  invoke void @_ZNSt7__cxx1112basic_stringIcSt11char_traitsIcESaIcEEC1EPKcRKS3_(ptr noundef nonnull align 8 dereferenceable(32) %ref.tmp108, ptr noundef %56, ptr noundef nonnull align 1 dereferenceable(1) %ref.tmp109)
          to label %invoke.cont111 unwind label %lpad110

invoke.cont111:                                   ; preds = %if.then106
  %57 = load ptr, ptr %inputDesc, align 8
  invoke void @_ZN19OpenColorIO_v2_4dev12XmlFormatter15writeContentTagERKNSt7__cxx1112basic_stringIcSt11char_traitsIcESaIcEEES8_(ptr noundef nonnull align 8 dereferenceable(16) %55, ptr noundef nonnull align 8 dereferenceable(32) %ref.tmp108, ptr noundef nonnull align 8 dereferenceable(32) %57)
          to label %invoke.cont113 unwind label %lpad112

invoke.cont113:                                   ; preds = %invoke.cont111
  call void @_ZNSt7__cxx1112basic_stringIcSt11char_traitsIcESaIcEED1Ev(ptr noundef nonnull align 8 dereferenceable(32) %ref.tmp108) #3
  call void @_ZNSaIcED1Ev(ptr noundef nonnull align 1 dereferenceable(1) %ref.tmp109) #3
  br label %if.end116

lpad97:                                           ; preds = %invoke.cont137, %invoke.cont135, %if.end132, %if.end116, %invoke.cont100, %invoke.cont98, %invoke.cont93
  %58 = landingpad { ptr, i32 }
          cleanup
  %59 = extractvalue { ptr, i32 } %58, 0
  store ptr %59, ptr %exn.slot, align 8
  %60 = extractvalue { ptr, i32 } %58, 1
  store i32 %60, ptr %ehselector.slot, align 4
  br label %ehcleanup139

lpad110:                                          ; preds = %if.then106
  %61 = landingpad { ptr, i32 }
          cleanup
  %62 = extractvalue { ptr, i32 } %61, 0
  store ptr %62, ptr %exn.slot, align 8
  %63 = extractvalue { ptr, i32 } %61, 1
  store i32 %63, ptr %ehselector.slot, align 4
  br label %ehcleanup115

lpad112:                                          ; preds = %invoke.cont111
  %64 = landingpad { ptr, i32 }
          cleanup
  %65 = extractvalue { ptr, i32 } %64, 0
  store ptr %65, ptr %exn.slot, align 8
  %66 = extractvalue { ptr, i32 } %64, 1
  store i32 %66, ptr %ehselector.slot, align 4
  call void @_ZNSt7__cxx1112basic_stringIcSt11char_traitsIcESaIcEED1Ev(ptr noundef nonnull align 8 dereferenceable(32) %ref.tmp108) #3
  br label %ehcleanup115

ehcleanup115:                                     ; preds = %lpad112, %lpad110
  call void @_ZNSaIcED1Ev(ptr noundef nonnull align 1 dereferenceable(1) %ref.tmp109) #3
  br label %ehcleanup139

if.end116:                                        ; preds = %invoke.cont113, %invoke.cont103
  %m_transform117 = getelementptr inbounds %"class.OpenColorIO_v2_4dev::TransformWriter", ptr %this1, i32 0, i32 1
  %call118 = call noundef ptr @_ZNKSt19__shared_ptr_accessIKN19OpenColorIO_v2_4dev18CTFReaderTransformELN9__gnu_cxx12_Lock_policyE2ELb0ELb0EEptEv(ptr noundef nonnull align 1 dereferenceable(1) %m_transform117) #3
  %call120 = invoke noundef nonnull align 8 dereferenceable(32) ptr @_ZNK19OpenColorIO_v2_4dev18CTFReaderTransform19getOutputDescriptorB5cxx11Ev(ptr noundef nonnull align 8 dereferenceable(356) %call118)
          to label %invoke.cont119 unwind label %lpad97

invoke.cont119:                                   ; preds = %if.end116
  store ptr %call120, ptr %outputDesc, align 8
  %67 = load ptr, ptr %outputDesc, align 8
  %call121 = call noundef zeroext i1 @_ZNKSt7__cxx1112basic_stringIcSt11char_traitsIcESaIcEE5emptyEv(ptr noundef nonnull align 8 dereferenceable(32) %67) #3
  br i1 %call121, label %if.end132, label %if.then122

if.then122:                                       ; preds = %invoke.cont119
  %m_formatter123 = getelementptr inbounds %"class.OpenColorIO_v2_4dev::XmlElementWriter", ptr %this1, i32 0, i32 1
  %68 = load ptr, ptr %m_formatter123, align 8
  %69 = load ptr, ptr @_ZN19OpenColorIO_v2_4dev26METADATA_OUTPUT_DESCRIPTORE, align 8
  call void @_ZNSaIcEC1Ev(ptr noundef nonnull align 1 dereferenceable(1) %ref.tmp125) #3
  invoke void @_ZNSt7__cxx1112basic_stringIcSt11char_traitsIcESaIcEEC1EPKcRKS3_(ptr noundef nonnull align 8 dereferenceable(32) %ref.tmp124, ptr noundef %69, ptr noundef nonnull align 1 dereferenceable(1) %ref.tmp125)
          to label %invoke.cont127 unwind label %lpad126

invoke.cont127:                                   ; preds = %if.then122
  %70 = load ptr, ptr %outputDesc, align 8
  invoke void @_ZN19OpenColorIO_v2_4dev12XmlFormatter15writeContentTagERKNSt7__cxx1112basic_stringIcSt11char_traitsIcESaIcEEES8_(ptr noundef nonnull align 8 dereferenceable(16) %68, ptr noundef nonnull align 8 dereferenceable(32) %ref.tmp124, ptr noundef nonnull align 8 dereferenceable(32) %70)
          to label %invoke.cont129 unwind label %lpad128

invoke.cont129:                                   ; preds = %invoke.cont127
  call void @_ZNSt7__cxx1112basic_stringIcSt11char_traitsIcESaIcEED1Ev(ptr noundef nonnull align 8 dereferenceable(32) %ref.tmp124) #3
  call void @_ZNSaIcED1Ev(ptr noundef nonnull align 1 dereferenceable(1) %ref.tmp125) #3
  br label %if.end132

lpad126:                                          ; preds = %if.then122
  %71 = landingpad { ptr, i32 }
          cleanup
  %72 = extractvalue { ptr, i32 } %71, 0
  store ptr %72, ptr %exn.slot, align 8
  %73 = extractvalue { ptr, i32 } %71, 1
  store i32 %73, ptr %ehselector.slot, align 4
  br label %ehcleanup131

lpad128:                                          ; preds = %invoke.cont127
  %74 = landingpad { ptr, i32 }
          cleanup
  %75 = extractvalue { ptr, i32 } %74, 0
  store ptr %75, ptr %exn.slot, align 8
  %76 = extractvalue { ptr, i32 } %74, 1
  store i32 %76, ptr %ehselector.slot, align 4
  call void @_ZNSt7__cxx1112basic_stringIcSt11char_traitsIcESaIcEED1Ev(ptr noundef nonnull align 8 dereferenceable(32) %ref.tmp124) #3
  br label %ehcleanup131

ehcleanup131:                                     ; preds = %lpad128, %lpad126
  call void @_ZNSaIcED1Ev(ptr noundef nonnull align 1 dereferenceable(1) %ref.tmp125) #3
  br label %ehcleanup139

if.end132:                                        ; preds = %invoke.cont129, %invoke.cont119
  %m_transform133 = getelementptr inbounds %"class.OpenColorIO_v2_4dev::TransformWriter", ptr %this1, i32 0, i32 1
  %call134 = call noundef ptr @_ZNKSt19__shared_ptr_accessIKN19OpenColorIO_v2_4dev18CTFReaderTransformELN9__gnu_cxx12_Lock_policyE2ELb0ELb0EEptEv(ptr noundef nonnull align 1 dereferenceable(1) %m_transform133) #3
  %call136 = invoke noundef nonnull align 8 dereferenceable(120) ptr @_ZNK19OpenColorIO_v2_4dev18CTFReaderTransform15getInfoMetadataEv(ptr noundef nonnull align 8 dereferenceable(356) %call134)
          to label %invoke.cont135 unwind label %lpad97

invoke.cont135:                                   ; preds = %if.end132
  store ptr %call136, ptr %info, align 8
  %77 = load ptr, ptr %info, align 8
  invoke void @_ZNK19OpenColorIO_v2_4dev15TransformWriter24writeProcessListMetadataERKNS_18FormatMetadataImplE(ptr noundef nonnull align 8 dereferenceable(33) %this1, ptr noundef nonnull align 8 dereferenceable(120) %77)
          to label %invoke.cont137 unwind label %lpad97

invoke.cont137:                                   ; preds = %invoke.cont135
  invoke void @_ZNK19OpenColorIO_v2_4dev15TransformWriter8writeOpsERKNS_10CTFVersionE(ptr noundef nonnull align 8 dereferenceable(33) %this1, ptr noundef nonnull align 4 dereferenceable(12) %writeVersion)
          to label %invoke.cont138 unwind label %lpad97

invoke.cont138:                                   ; preds = %invoke.cont137
  call void @_ZN19OpenColorIO_v2_4dev14XmlScopeIndentD1Ev(ptr noundef nonnull align 8 dereferenceable(8) %scopeIndent) #3
  %m_formatter140 = getelementptr inbounds %"class.OpenColorIO_v2_4dev::XmlElementWriter", ptr %this1, i32 0, i32 1
  %78 = load ptr, ptr %m_formatter140, align 8
  invoke void @_ZN19OpenColorIO_v2_4dev12XmlFormatter11writeEndTagERKNSt7__cxx1112basic_stringIcSt11char_traitsIcESaIcEEE(ptr noundef nonnull align 8 dereferenceable(16) %78, ptr noundef nonnull align 8 dereferenceable(32) %processListTag)
          to label %invoke.cont141 unwind label %lpad38

invoke.cont141:                                   ; preds = %invoke.cont138
  call void @_ZNSt7__cxx1112basic_stringIcSt11char_traitsIcESaIcEED1Ev(ptr noundef nonnull align 8 dereferenceable(32) %id) #3
  call void @_ZNSt7__cxx1119basic_ostringstreamIcSt11char_traitsIcESaIcEED1Ev(ptr noundef nonnull align 8 dereferenceable(112) %fversion) #3
  call void @_ZN19OpenColorIO_v2_4dev10CTFVersionD2Ev(ptr noundef nonnull align 4 dereferenceable(12) %writeVersion) #3
  call void @_ZNSt6vectorISt4pairINSt7__cxx1112basic_stringIcSt11char_traitsIcESaIcEEES6_ESaIS7_EED2Ev(ptr noundef nonnull align 8 dereferenceable(24) %attributes) #3
  call void @_ZNSt7__cxx1112basic_stringIcSt11char_traitsIcESaIcEED1Ev(ptr noundef nonnull align 8 dereferenceable(32) %processListTag) #3
  ret void

ehcleanup139:                                     ; preds = %ehcleanup131, %ehcleanup115, %lpad97
  call void @_ZN19OpenColorIO_v2_4dev14XmlScopeIndentD1Ev(ptr noundef nonnull align 8 dereferenceable(8) %scopeIndent) #3
  br label %ehcleanup142

ehcleanup142:                                     ; preds = %ehcleanup139, %lpad87, %lpad75, %lpad64, %ehcleanup54, %lpad38
  call void @_ZNSt7__cxx1112basic_stringIcSt11char_traitsIcESaIcEED1Ev(ptr noundef nonnull align 8 dereferenceable(32) %id) #3
  br label %ehcleanup143

ehcleanup143:                                     ; preds = %ehcleanup142, %ehcleanup28, %ehcleanup, %lpad6
  call void @_ZNSt7__cxx1119basic_ostringstreamIcSt11char_traitsIcESaIcEED1Ev(ptr noundef nonnull align 8 dereferenceable(112) %fversion) #3
  br label %ehcleanup144

ehcleanup144:                                     ; preds = %ehcleanup143, %lpad4
  call void @_ZN19OpenColorIO_v2_4dev10CTFVersionD2Ev(ptr noundef nonnull align 4 dereferenceable(12) %writeVersion) #3
  br label %ehcleanup145

ehcleanup145:                                     ; preds = %ehcleanup144, %lpad2
  call void @_ZNSt6vectorISt4pairINSt7__cxx1112basic_stringIcSt11char_traitsIcESaIcEEES6_ESaIS7_EED2Ev(ptr noundef nonnull align 8 dereferenceable(24) %attributes) #3
  call void @_ZNSt7__cxx1112basic_stringIcSt11char_traitsIcESaIcEED1Ev(ptr noundef nonnull align 8 dereferenceable(32) %processListTag) #3
  br label %eh.resume

eh.resume:                                        ; preds = %ehcleanup145, %lpad
  %exn = load ptr, ptr %exn.slot, align 8
  %sel = load i32, ptr %ehselector.slot, align 4
  %lpad.val = insertvalue { ptr, i32 } poison, ptr %exn, 0
  %lpad.val147 = insertvalue { ptr, i32 } %lpad.val, i32 %sel, 1
  resume { ptr, i32 } %lpad.val147
}

; Function Attrs: mustprogress nounwind uwtable
define linkonce_odr hidden void @_ZNSt6vectorISt4pairINSt7__cxx1112basic_stringIcSt11char_traitsIcESaIcEEES6_ESaIS7_EEC2Ev(ptr noundef nonnull align 8 dereferenceable(24) %this) unnamed_addr #4 comdat align 2 {
entry:
  %this.addr = alloca ptr, align 8
  store ptr %this, ptr %this.addr, align 8
  %this1 = load ptr, ptr %this.addr, align 8
  call void @_ZNSt12_Vector_baseISt4pairINSt7__cxx1112basic_stringIcSt11char_traitsIcESaIcEEES6_ESaIS7_EEC2Ev(ptr noundef nonnull align 8 dereferenceable(24) %this1) #3
  ret void
}

declare noundef nonnull align 8 dereferenceable(8) ptr @_ZNSolsEi(ptr noundef nonnull align 8 dereferenceable(8), i32 noundef) #1

; Function Attrs: mustprogress uwtable
define linkonce_odr hidden void @_ZNSt6vectorISt4pairINSt7__cxx1112basic_stringIcSt11char_traitsIcESaIcEEES6_ESaIS7_EE9push_backEOS7_(ptr noundef nonnull align 8 dereferenceable(24) %this, ptr noundef nonnull align 8 dereferenceable(64) %__x) #5 comdat align 2 {
entry:
  %this.addr = alloca ptr, align 8
  %__x.addr = alloca ptr, align 8
  store ptr %this, ptr %this.addr, align 8
  store ptr %__x, ptr %__x.addr, align 8
  %this1 = load ptr, ptr %this.addr, align 8
  %0 = load ptr, ptr %__x.addr, align 8
  call void @_ZNSt6vectorISt4pairINSt7__cxx1112basic_stringIcSt11char_traitsIcESaIcEEES6_ESaIS7_EE12emplace_backIJS7_EEEvDpOT_(ptr noundef nonnull align 8 dereferenceable(24) %this1, ptr noundef nonnull align 8 dereferenceable(64) %0)
  ret void
}

; Function Attrs: mustprogress uwtable
define linkonce_odr hidden void @_ZNSt4pairINSt7__cxx1112basic_stringIcSt11char_traitsIcESaIcEEES5_EC2IRA15_KcS5_TnNSt9enable_ifIXaaclsr5_PCCPE22_MoveConstructiblePairIT_T0_EEclsr5_PCCPE30_ImplicitlyMoveConvertiblePairISC_SD_EEEbE4typeELb1EEEOSC_OSD_(ptr noundef nonnull align 8 dereferenceable(64) %this, ptr noundef nonnull align 1 dereferenceable(15) %__x, ptr noundef nonnull align 8 dereferenceable(32) %__y) unnamed_addr #5 comdat align 2 personality ptr @__gxx_personality_v0 {
entry:
  %this.addr = alloca ptr, align 8
  %__x.addr = alloca ptr, align 8
  %__y.addr = alloca ptr, align 8
  %ref.tmp = alloca %"class.std::allocator", align 1
  %exn.slot = alloca ptr, align 8
  %ehselector.slot = alloca i32, align 4
  store ptr %this, ptr %this.addr, align 8
  store ptr %__x, ptr %__x.addr, align 8
  store ptr %__y, ptr %__y.addr, align 8
  %this1 = load ptr, ptr %this.addr, align 8
  %first = getelementptr inbounds %"struct.std::pair", ptr %this1, i32 0, i32 0
  %0 = load ptr, ptr %__x.addr, align 8
  %arraydecay = getelementptr inbounds [15 x i8], ptr %0, i64 0, i64 0
  call void @_ZNSaIcEC1Ev(ptr noundef nonnull align 1 dereferenceable(1) %ref.tmp) #3
  invoke void @_ZNSt7__cxx1112basic_stringIcSt11char_traitsIcESaIcEEC1EPKcRKS3_(ptr noundef nonnull align 8 dereferenceable(32) %first, ptr noundef %arraydecay, ptr noundef nonnull align 1 dereferenceable(1) %ref.tmp)
          to label %invoke.cont unwind label %lpad

invoke.cont:                                      ; preds = %entry
  call void @_ZNSaIcED1Ev(ptr noundef nonnull align 1 dereferenceable(1) %ref.tmp) #3
  %second = getelementptr inbounds %"struct.std::pair", ptr %this1, i32 0, i32 1
  %1 = load ptr, ptr %__y.addr, align 8
  call void @_ZNSt7__cxx1112basic_stringIcSt11char_traitsIcESaIcEEC1EOS4_(ptr noundef nonnull align 8 dereferenceable(32) %second, ptr noundef nonnull align 8 dereferenceable(32) %1) #3
  ret void

lpad:                                             ; preds = %entry
  %2 = landingpad { ptr, i32 }
          cleanup
  %3 = extractvalue { ptr, i32 } %2, 0
  store ptr %3, ptr %exn.slot, align 8
  %4 = extractvalue { ptr, i32 } %2, 1
  store i32 %4, ptr %ehselector.slot, align 4
  call void @_ZNSaIcED1Ev(ptr noundef nonnull align 1 dereferenceable(1) %ref.tmp) #3
  br label %eh.resume

eh.resume:                                        ; preds = %lpad
  %exn = load ptr, ptr %exn.slot, align 8
  %sel = load i32, ptr %ehselector.slot, align 4
  %lpad.val = insertvalue { ptr, i32 } poison, ptr %exn, 0
  %lpad.val2 = insertvalue { ptr, i32 } %lpad.val, i32 %sel, 1
  resume { ptr, i32 } %lpad.val2
}

; Function Attrs: mustprogress nounwind uwtable
define linkonce_odr hidden void @_ZNSt4pairINSt7__cxx1112basic_stringIcSt11char_traitsIcESaIcEEES5_ED2Ev(ptr noundef nonnull align 8 dereferenceable(64) %this) unnamed_addr #4 comdat align 2 {
entry:
  %this.addr = alloca ptr, align 8
  store ptr %this, ptr %this.addr, align 8
  %this1 = load ptr, ptr %this.addr, align 8
  %second = getelementptr inbounds %"struct.std::pair", ptr %this1, i32 0, i32 1
  call void @_ZNSt7__cxx1112basic_stringIcSt11char_traitsIcESaIcEED1Ev(ptr noundef nonnull align 8 dereferenceable(32) %second) #3
  %first = getelementptr inbounds %"struct.std::pair", ptr %this1, i32 0, i32 0
  call void @_ZNSt7__cxx1112basic_stringIcSt11char_traitsIcESaIcEED1Ev(ptr noundef nonnull align 8 dereferenceable(32) %first) #3
  ret void
}

; Function Attrs: mustprogress uwtable
define internal void @_ZN19OpenColorIO_v2_4dev12_GLOBAL__N_117GetMinimumVersionERKSt10shared_ptrIKNS_18CTFReaderTransformEE(ptr noalias sret(%"class.OpenColorIO_v2_4dev::CTFVersion") align 4 %agg.result, ptr noundef nonnull align 8 dereferenceable(16) %transform) #5 personality ptr @__gxx_personality_v0 {
entry:
  %result.ptr = alloca ptr, align 8
  %transform.addr = alloca ptr, align 8
  %opList = alloca ptr, align 8
  %nrvo = alloca i1, align 1
  %__range2 = alloca ptr, align 8
  %__begin2 = alloca %"class.__gnu_cxx::__normal_iterator.39", align 8
  %__end2 = alloca %"class.__gnu_cxx::__normal_iterator.39", align 8
  %op = alloca ptr, align 8
  %version = alloca %"class.OpenColorIO_v2_4dev::CTFVersion", align 4
  %exn.slot = alloca ptr, align 8
  %ehselector.slot = alloca i32, align 4
  store ptr %agg.result, ptr %result.ptr, align 8
  store ptr %transform, ptr %transform.addr, align 8
  %0 = load ptr, ptr %transform.addr, align 8
  %call = call noundef ptr @_ZNKSt19__shared_ptr_accessIKN19OpenColorIO_v2_4dev18CTFReaderTransformELN9__gnu_cxx12_Lock_policyE2ELb0ELb0EEptEv(ptr noundef nonnull align 1 dereferenceable(1) %0) #3
  %call1 = call noundef nonnull align 8 dereferenceable(24) ptr @_ZNK19OpenColorIO_v2_4dev18CTFReaderTransform6getOpsEv(ptr noundef nonnull align 8 dereferenceable(356) %call)
  store ptr %call1, ptr %opList, align 8
  store i1 false, ptr %nrvo, align 1
  call void @_ZN19OpenColorIO_v2_4dev10CTFVersionC2ERKS0_(ptr noundef nonnull align 4 dereferenceable(12) %agg.result, ptr noundef nonnull align 4 dereferenceable(12) @_ZN19OpenColorIO_v2_4devL28CTF_PROCESS_LIST_VERSION_1_3E)
  %1 = load ptr, ptr %opList, align 8
  store ptr %1, ptr %__range2, align 8
  %2 = load ptr, ptr %__range2, align 8
  %call2 = call ptr @_ZNKSt6vectorISt10shared_ptrIKN19OpenColorIO_v2_4dev6OpDataEESaIS4_EE5beginEv(ptr noundef nonnull align 8 dereferenceable(24) %2) #3
  %coerce.dive = getelementptr inbounds %"class.__gnu_cxx::__normal_iterator.39", ptr %__begin2, i32 0, i32 0
  store ptr %call2, ptr %coerce.dive, align 8
  %3 = load ptr, ptr %__range2, align 8
  %call3 = call ptr @_ZNKSt6vectorISt10shared_ptrIKN19OpenColorIO_v2_4dev6OpDataEESaIS4_EE3endEv(ptr noundef nonnull align 8 dereferenceable(24) %3) #3
  %coerce.dive4 = getelementptr inbounds %"class.__gnu_cxx::__normal_iterator.39", ptr %__end2, i32 0, i32 0
  store ptr %call3, ptr %coerce.dive4, align 8
  br label %for.cond

for.cond:                                         ; preds = %for.inc, %entry
  %call5 = call noundef zeroext i1 @_ZN9__gnu_cxxneIPKSt10shared_ptrIKN19OpenColorIO_v2_4dev6OpDataEESt6vectorIS5_SaIS5_EEEEbRKNS_17__normal_iteratorIT_T0_EESG_(ptr noundef nonnull align 8 dereferenceable(8) %__begin2, ptr noundef nonnull align 8 dereferenceable(8) %__end2) #3
  br i1 %call5, label %for.body, label %for.end

for.body:                                         ; preds = %for.cond
  %call6 = call noundef nonnull align 8 dereferenceable(16) ptr @_ZNK9__gnu_cxx17__normal_iteratorIPKSt10shared_ptrIKN19OpenColorIO_v2_4dev6OpDataEESt6vectorIS5_SaIS5_EEEdeEv(ptr noundef nonnull align 8 dereferenceable(8) %__begin2) #3
  store ptr %call6, ptr %op, align 8
  %4 = load ptr, ptr %op, align 8
  invoke void @_ZN19OpenColorIO_v2_4dev12_GLOBAL__N_119GetOpMinimumVersionERKSt10shared_ptrIKNS_6OpDataEE(ptr sret(%"class.OpenColorIO_v2_4dev::CTFVersion") align 4 %version, ptr noundef nonnull align 8 dereferenceable(16) %4)
          to label %invoke.cont unwind label %lpad

invoke.cont:                                      ; preds = %for.body
  %call7 = call noundef zeroext i1 @_ZNK19OpenColorIO_v2_4dev10CTFVersiongtERKS0_(ptr noundef nonnull align 4 dereferenceable(12) %version, ptr noundef nonnull align 4 dereferenceable(12) %agg.result)
  br i1 %call7, label %if.then, label %if.end

if.then:                                          ; preds = %invoke.cont
  %call8 = call noundef nonnull align 4 dereferenceable(12) ptr @_ZN19OpenColorIO_v2_4dev10CTFVersionaSERKS0_(ptr noundef nonnull align 4 dereferenceable(12) %agg.result, ptr noundef nonnull align 4 dereferenceable(12) %version)
  br label %if.end

lpad:                                             ; preds = %for.body
  %5 = landingpad { ptr, i32 }
          cleanup
  %6 = extractvalue { ptr, i32 } %5, 0
  store ptr %6, ptr %exn.slot, align 8
  %7 = extractvalue { ptr, i32 } %5, 1
  store i32 %7, ptr %ehselector.slot, align 4
  call void @_ZN19OpenColorIO_v2_4dev10CTFVersionD2Ev(ptr noundef nonnull align 4 dereferenceable(12) %agg.result) #3
  br label %eh.resume

if.end:                                           ; preds = %if.then, %invoke.cont
  call void @_ZN19OpenColorIO_v2_4dev10CTFVersionD2Ev(ptr noundef nonnull align 4 dereferenceable(12) %version) #3
  br label %for.inc

for.inc:                                          ; preds = %if.end
  %call9 = call noundef nonnull align 8 dereferenceable(8) ptr @_ZN9__gnu_cxx17__normal_iteratorIPKSt10shared_ptrIKN19OpenColorIO_v2_4dev6OpDataEESt6vectorIS5_SaIS5_EEEppEv(ptr noundef nonnull align 8 dereferenceable(8) %__begin2) #3
  br label %for.cond

for.end:                                          ; preds = %for.cond
  store i1 true, ptr %nrvo, align 1
  %nrvo.val = load i1, ptr %nrvo, align 1
  br i1 %nrvo.val, label %nrvo.skipdtor, label %nrvo.unused

nrvo.unused:                                      ; preds = %for.end
  call void @_ZN19OpenColorIO_v2_4dev10CTFVersionD2Ev(ptr noundef nonnull align 4 dereferenceable(12) %agg.result) #3
  br label %nrvo.skipdtor

nrvo.skipdtor:                                    ; preds = %nrvo.unused, %for.end
  ret void

eh.resume:                                        ; preds = %lpad
  %exn = load ptr, ptr %exn.slot, align 8
  %sel = load i32, ptr %ehselector.slot, align 4
  %lpad.val = insertvalue { ptr, i32 } poison, ptr %exn, 0
  %lpad.val10 = insertvalue { ptr, i32 } %lpad.val, i32 %sel, 1
  resume { ptr, i32 } %lpad.val10
}

; Function Attrs: mustprogress uwtable
define linkonce_odr hidden noundef nonnull align 8 dereferenceable(8) ptr @_ZN19OpenColorIO_v2_4devlsERSoRKNS_10CTFVersionE(ptr noundef nonnull align 8 dereferenceable(8) %stream, ptr noundef nonnull align 4 dereferenceable(12) %rhs) #5 comdat {
entry:
  %stream.addr = alloca ptr, align 8
  %rhs.addr = alloca ptr, align 8
  store ptr %stream, ptr %stream.addr, align 8
  store ptr %rhs, ptr %rhs.addr, align 8
  %0 = load ptr, ptr %stream.addr, align 8
  %1 = load ptr, ptr %rhs.addr, align 8
  %m_major = getelementptr inbounds %"class.OpenColorIO_v2_4dev::CTFVersion", ptr %1, i32 0, i32 0
  %2 = load i32, ptr %m_major, align 4
  %call = call noundef nonnull align 8 dereferenceable(8) ptr @_ZNSolsEj(ptr noundef nonnull align 8 dereferenceable(8) %0, i32 noundef %2)
  %3 = load ptr, ptr %rhs.addr, align 8
  %m_minor = getelementptr inbounds %"class.OpenColorIO_v2_4dev::CTFVersion", ptr %3, i32 0, i32 1
  %4 = load i32, ptr %m_minor, align 4
  %cmp = icmp ne i32 %4, 0
  br i1 %cmp, label %if.then, label %lor.lhs.false

lor.lhs.false:                                    ; preds = %entry
  %5 = load ptr, ptr %rhs.addr, align 8
  %m_revision = getelementptr inbounds %"class.OpenColorIO_v2_4dev::CTFVersion", ptr %5, i32 0, i32 2
  %6 = load i32, ptr %m_revision, align 4
  %cmp1 = icmp ne i32 %6, 0
  br i1 %cmp1, label %if.then, label %if.end11

if.then:                                          ; preds = %lor.lhs.false, %entry
  %7 = load ptr, ptr %stream.addr, align 8
  %call2 = call noundef nonnull align 8 dereferenceable(8) ptr @_ZStlsISt11char_traitsIcEERSt13basic_ostreamIcT_ES5_PKc(ptr noundef nonnull align 8 dereferenceable(8) %7, ptr noundef @.str.29)
  %8 = load ptr, ptr %rhs.addr, align 8
  %m_minor3 = getelementptr inbounds %"class.OpenColorIO_v2_4dev::CTFVersion", ptr %8, i32 0, i32 1
  %9 = load i32, ptr %m_minor3, align 4
  %call4 = call noundef nonnull align 8 dereferenceable(8) ptr @_ZNSolsEj(ptr noundef nonnull align 8 dereferenceable(8) %call2, i32 noundef %9)
  %10 = load ptr, ptr %rhs.addr, align 8
  %m_revision5 = getelementptr inbounds %"class.OpenColorIO_v2_4dev::CTFVersion", ptr %10, i32 0, i32 2
  %11 = load i32, ptr %m_revision5, align 4
  %cmp6 = icmp ne i32 %11, 0
  br i1 %cmp6, label %if.then7, label %if.end

if.then7:                                         ; preds = %if.then
  %12 = load ptr, ptr %stream.addr, align 8
  %call8 = call noundef nonnull align 8 dereferenceable(8) ptr @_ZStlsISt11char_traitsIcEERSt13basic_ostreamIcT_ES5_PKc(ptr noundef nonnull align 8 dereferenceable(8) %12, ptr noundef @.str.29)
  %13 = load ptr, ptr %rhs.addr, align 8
  %m_revision9 = getelementptr inbounds %"class.OpenColorIO_v2_4dev::CTFVersion", ptr %13, i32 0, i32 2
  %14 = load i32, ptr %m_revision9, align 4
  %call10 = call noundef nonnull align 8 dereferenceable(8) ptr @_ZNSolsEj(ptr noundef nonnull align 8 dereferenceable(8) %call8, i32 noundef %14)
  br label %if.end

if.end:                                           ; preds = %if.then7, %if.then
  br label %if.end11

if.end11:                                         ; preds = %if.end, %lor.lhs.false
  %15 = load ptr, ptr %stream.addr, align 8
  ret ptr %15
}

; Function Attrs: mustprogress uwtable
define linkonce_odr hidden void @_ZNSt4pairINSt7__cxx1112basic_stringIcSt11char_traitsIcESaIcEEES5_EC2IRA8_KcS5_TnNSt9enable_ifIXaaclsr5_PCCPE22_MoveConstructiblePairIT_T0_EEclsr5_PCCPE30_ImplicitlyMoveConvertiblePairISC_SD_EEEbE4typeELb1EEEOSC_OSD_(ptr noundef nonnull align 8 dereferenceable(64) %this, ptr noundef nonnull align 1 dereferenceable(8) %__x, ptr noundef nonnull align 8 dereferenceable(32) %__y) unnamed_addr #5 comdat align 2 personality ptr @__gxx_personality_v0 {
entry:
  %this.addr = alloca ptr, align 8
  %__x.addr = alloca ptr, align 8
  %__y.addr = alloca ptr, align 8
  %ref.tmp = alloca %"class.std::allocator", align 1
  %exn.slot = alloca ptr, align 8
  %ehselector.slot = alloca i32, align 4
  store ptr %this, ptr %this.addr, align 8
  store ptr %__x, ptr %__x.addr, align 8
  store ptr %__y, ptr %__y.addr, align 8
  %this1 = load ptr, ptr %this.addr, align 8
  %first = getelementptr inbounds %"struct.std::pair", ptr %this1, i32 0, i32 0
  %0 = load ptr, ptr %__x.addr, align 8
  %arraydecay = getelementptr inbounds [8 x i8], ptr %0, i64 0, i64 0
  call void @_ZNSaIcEC1Ev(ptr noundef nonnull align 1 dereferenceable(1) %ref.tmp) #3
  invoke void @_ZNSt7__cxx1112basic_stringIcSt11char_traitsIcESaIcEEC1EPKcRKS3_(ptr noundef nonnull align 8 dereferenceable(32) %first, ptr noundef %arraydecay, ptr noundef nonnull align 1 dereferenceable(1) %ref.tmp)
          to label %invoke.cont unwind label %lpad

invoke.cont:                                      ; preds = %entry
  call void @_ZNSaIcED1Ev(ptr noundef nonnull align 1 dereferenceable(1) %ref.tmp) #3
  %second = getelementptr inbounds %"struct.std::pair", ptr %this1, i32 0, i32 1
  %1 = load ptr, ptr %__y.addr, align 8
  call void @_ZNSt7__cxx1112basic_stringIcSt11char_traitsIcESaIcEEC1EOS4_(ptr noundef nonnull align 8 dereferenceable(32) %second, ptr noundef nonnull align 8 dereferenceable(32) %1) #3
  ret void

lpad:                                             ; preds = %entry
  %2 = landingpad { ptr, i32 }
          cleanup
  %3 = extractvalue { ptr, i32 } %2, 0
  store ptr %3, ptr %exn.slot, align 8
  %4 = extractvalue { ptr, i32 } %2, 1
  store i32 %4, ptr %ehselector.slot, align 4
  call void @_ZNSaIcED1Ev(ptr noundef nonnull align 1 dereferenceable(1) %ref.tmp) #3
  br label %eh.resume

eh.resume:                                        ; preds = %lpad
  %exn = load ptr, ptr %exn.slot, align 8
  %sel = load i32, ptr %ehselector.slot, align 4
  %lpad.val = insertvalue { ptr, i32 } poison, ptr %exn, 0
  %lpad.val2 = insertvalue { ptr, i32 } %lpad.val, i32 %sel, 1
  resume { ptr, i32 } %lpad.val2
}

; Function Attrs: mustprogress nounwind uwtable
define linkonce_odr hidden noundef ptr @_ZNKSt19__shared_ptr_accessIKN19OpenColorIO_v2_4dev18CTFReaderTransformELN9__gnu_cxx12_Lock_policyE2ELb0ELb0EEptEv(ptr noundef nonnull align 1 dereferenceable(1) %this) #4 comdat align 2 {
entry:
  %this.addr = alloca ptr, align 8
  store ptr %this, ptr %this.addr, align 8
  %this1 = load ptr, ptr %this.addr, align 8
  %call = call noundef ptr @_ZNKSt19__shared_ptr_accessIKN19OpenColorIO_v2_4dev18CTFReaderTransformELN9__gnu_cxx12_Lock_policyE2ELb0ELb0EE6_M_getEv(ptr noundef nonnull align 1 dereferenceable(1) %this1) #3
  ret ptr %call
}

declare void @_ZNSt7__cxx1112basic_stringIcSt11char_traitsIcESaIcEEC1ERKS4_(ptr noundef nonnull align 8 dereferenceable(32), ptr noundef nonnull align 8 dereferenceable(32)) unnamed_addr #1

; Function Attrs: mustprogress nounwind uwtable
define linkonce_odr hidden noundef nonnull align 8 dereferenceable(24) ptr @_ZNK19OpenColorIO_v2_4dev18CTFReaderTransform6getOpsEv(ptr noundef nonnull align 8 dereferenceable(356) %this) #4 comdat align 2 {
entry:
  %this.addr = alloca ptr, align 8
  store ptr %this, ptr %this.addr, align 8
  %this1 = load ptr, ptr %this.addr, align 8
  %m_ops = getelementptr inbounds %"class.OpenColorIO_v2_4dev::CTFReaderTransform", ptr %this1, i32 0, i32 6
  ret ptr %m_ops
}

; Function Attrs: mustprogress nounwind uwtable
define linkonce_odr hidden ptr @_ZNKSt6vectorISt10shared_ptrIKN19OpenColorIO_v2_4dev6OpDataEESaIS4_EE5beginEv(ptr noundef nonnull align 8 dereferenceable(24) %this) #4 comdat align 2 {
entry:
  %retval = alloca %"class.__gnu_cxx::__normal_iterator.39", align 8
  %this.addr = alloca ptr, align 8
  store ptr %this, ptr %this.addr, align 8
  %this1 = load ptr, ptr %this.addr, align 8
  %_M_impl = getelementptr inbounds %"struct.std::_Vector_base.10", ptr %this1, i32 0, i32 0
  %_M_start = getelementptr inbounds %"struct.std::_Vector_base<std::shared_ptr<const OpenColorIO_v2_4dev::OpData>, std::allocator<std::shared_ptr<const OpenColorIO_v2_4dev::OpData>>>::_Vector_impl_data", ptr %_M_impl, i32 0, i32 0
  call void @_ZN9__gnu_cxx17__normal_iteratorIPKSt10shared_ptrIKN19OpenColorIO_v2_4dev6OpDataEESt6vectorIS5_SaIS5_EEEC2ERKS7_(ptr noundef nonnull align 8 dereferenceable(8) %retval, ptr noundef nonnull align 8 dereferenceable(8) %_M_start) #3
  %coerce.dive = getelementptr inbounds %"class.__gnu_cxx::__normal_iterator.39", ptr %retval, i32 0, i32 0
  %0 = load ptr, ptr %coerce.dive, align 8
  ret ptr %0
}

; Function Attrs: mustprogress nounwind uwtable
define linkonce_odr hidden ptr @_ZNKSt6vectorISt10shared_ptrIKN19OpenColorIO_v2_4dev6OpDataEESaIS4_EE3endEv(ptr noundef nonnull align 8 dereferenceable(24) %this) #4 comdat align 2 {
entry:
  %retval = alloca %"class.__gnu_cxx::__normal_iterator.39", align 8
  %this.addr = alloca ptr, align 8
  store ptr %this, ptr %this.addr, align 8
  %this1 = load ptr, ptr %this.addr, align 8
  %_M_impl = getelementptr inbounds %"struct.std::_Vector_base.10", ptr %this1, i32 0, i32 0
  %_M_finish = getelementptr inbounds %"struct.std::_Vector_base<std::shared_ptr<const OpenColorIO_v2_4dev::OpData>, std::allocator<std::shared_ptr<const OpenColorIO_v2_4dev::OpData>>>::_Vector_impl_data", ptr %_M_impl, i32 0, i32 1
  call void @_ZN9__gnu_cxx17__normal_iteratorIPKSt10shared_ptrIKN19OpenColorIO_v2_4dev6OpDataEESt6vectorIS5_SaIS5_EEEC2ERKS7_(ptr noundef nonnull align 8 dereferenceable(8) %retval, ptr noundef nonnull align 8 dereferenceable(8) %_M_finish) #3
  %coerce.dive = getelementptr inbounds %"class.__gnu_cxx::__normal_iterator.39", ptr %retval, i32 0, i32 0
  %0 = load ptr, ptr %coerce.dive, align 8
  ret ptr %0
}

; Function Attrs: mustprogress nounwind uwtable
define linkonce_odr hidden noundef zeroext i1 @_ZN9__gnu_cxxneIPKSt10shared_ptrIKN19OpenColorIO_v2_4dev6OpDataEESt6vectorIS5_SaIS5_EEEEbRKNS_17__normal_iteratorIT_T0_EESG_(ptr noundef nonnull align 8 dereferenceable(8) %__lhs, ptr noundef nonnull align 8 dereferenceable(8) %__rhs) #4 comdat {
entry:
  %__lhs.addr = alloca ptr, align 8
  %__rhs.addr = alloca ptr, align 8
  store ptr %__lhs, ptr %__lhs.addr, align 8
  store ptr %__rhs, ptr %__rhs.addr, align 8
  %0 = load ptr, ptr %__lhs.addr, align 8
  %call = call noundef nonnull align 8 dereferenceable(8) ptr @_ZNK9__gnu_cxx17__normal_iteratorIPKSt10shared_ptrIKN19OpenColorIO_v2_4dev6OpDataEESt6vectorIS5_SaIS5_EEE4baseEv(ptr noundef nonnull align 8 dereferenceable(8) %0) #3
  %1 = load ptr, ptr %call, align 8
  %2 = load ptr, ptr %__rhs.addr, align 8
  %call1 = call noundef nonnull align 8 dereferenceable(8) ptr @_ZNK9__gnu_cxx17__normal_iteratorIPKSt10shared_ptrIKN19OpenColorIO_v2_4dev6OpDataEESt6vectorIS5_SaIS5_EEE4baseEv(ptr noundef nonnull align 8 dereferenceable(8) %2) #3
  %3 = load ptr, ptr %call1, align 8
  %cmp = icmp ne ptr %1, %3
  ret i1 %cmp
}

; Function Attrs: mustprogress nounwind uwtable
define linkonce_odr hidden noundef nonnull align 8 dereferenceable(16) ptr @_ZNK9__gnu_cxx17__normal_iteratorIPKSt10shared_ptrIKN19OpenColorIO_v2_4dev6OpDataEESt6vectorIS5_SaIS5_EEEdeEv(ptr noundef nonnull align 8 dereferenceable(8) %this) #4 comdat align 2 {
entry:
  %this.addr = alloca ptr, align 8
  store ptr %this, ptr %this.addr, align 8
  %this1 = load ptr, ptr %this.addr, align 8
  %_M_current = getelementptr inbounds %"class.__gnu_cxx::__normal_iterator.39", ptr %this1, i32 0, i32 0
  %0 = load ptr, ptr %_M_current, align 8
  ret ptr %0
}

; Function Attrs: mustprogress nounwind uwtable
define linkonce_odr hidden void @_ZNSt10shared_ptrIKN19OpenColorIO_v2_4dev6OpDataEEC2ERKS3_(ptr noundef nonnull align 8 dereferenceable(16) %this, ptr noundef nonnull align 8 dereferenceable(16) %0) unnamed_addr #4 comdat align 2 {
entry:
  %this.addr = alloca ptr, align 8
  %.addr = alloca ptr, align 8
  store ptr %this, ptr %this.addr, align 8
  store ptr %0, ptr %.addr, align 8
  %this1 = load ptr, ptr %this.addr, align 8
  %1 = load ptr, ptr %.addr, align 8
  call void @_ZNSt12__shared_ptrIKN19OpenColorIO_v2_4dev6OpDataELN9__gnu_cxx12_Lock_policyE2EEC2ERKS5_(ptr noundef nonnull align 8 dereferenceable(16) %this1, ptr noundef nonnull align 8 dereferenceable(16) %1) #3
  ret void
}

; Function Attrs: mustprogress nounwind uwtable
define linkonce_odr hidden noundef ptr @_ZNKSt19__shared_ptr_accessIKN19OpenColorIO_v2_4dev6OpDataELN9__gnu_cxx12_Lock_policyE2ELb0ELb0EEptEv(ptr noundef nonnull align 1 dereferenceable(1) %this) #4 comdat align 2 {
entry:
  %this.addr = alloca ptr, align 8
  store ptr %this, ptr %this.addr, align 8
  %this1 = load ptr, ptr %this.addr, align 8
  %call = call noundef ptr @_ZNKSt19__shared_ptr_accessIKN19OpenColorIO_v2_4dev6OpDataELN9__gnu_cxx12_Lock_policyE2ELb0ELb0EE6_M_getEv(ptr noundef nonnull align 1 dereferenceable(1) %this1) #3
  ret ptr %call
}

declare noundef nonnull align 8 dereferenceable(32) ptr @_ZNSt7__cxx1112basic_stringIcSt11char_traitsIcESaIcEEpLERKS4_(ptr noundef nonnull align 8 dereferenceable(32), ptr noundef nonnull align 8 dereferenceable(32)) #1

; Function Attrs: mustprogress nounwind uwtable
define linkonce_odr hidden noundef nonnull align 8 dereferenceable(8) ptr @_ZN9__gnu_cxx17__normal_iteratorIPKSt10shared_ptrIKN19OpenColorIO_v2_4dev6OpDataEESt6vectorIS5_SaIS5_EEEppEv(ptr noundef nonnull align 8 dereferenceable(8) %this) #4 comdat align 2 {
entry:
  %this.addr = alloca ptr, align 8
  store ptr %this, ptr %this.addr, align 8
  %this1 = load ptr, ptr %this.addr, align 8
  %_M_current = getelementptr inbounds %"class.__gnu_cxx::__normal_iterator.39", ptr %this1, i32 0, i32 0
  %0 = load ptr, ptr %_M_current, align 8
  %incdec.ptr = getelementptr inbounds %"class.std::shared_ptr.28", ptr %0, i32 1
  store ptr %incdec.ptr, ptr %_M_current, align 8
  ret ptr %this1
}

declare void @_ZN19OpenColorIO_v2_4dev11CacheIDHashB5cxx11EPKcm(ptr sret(%"class.std::__cxx11::basic_string") align 8, ptr noundef, i64 noundef) #1

; Function Attrs: nounwind
declare noundef i64 @_ZNKSt7__cxx1112basic_stringIcSt11char_traitsIcESaIcEE4sizeEv(ptr noundef nonnull align 8 dereferenceable(32)) #2

; Function Attrs: nounwind
declare noundef nonnull align 8 dereferenceable(32) ptr @_ZNSt7__cxx1112basic_stringIcSt11char_traitsIcESaIcEEaSEOS4_(ptr noundef nonnull align 8 dereferenceable(32), ptr noundef nonnull align 8 dereferenceable(32)) #2

; Function Attrs: mustprogress uwtable
define linkonce_odr hidden void @_ZNSt4pairINSt7__cxx1112basic_stringIcSt11char_traitsIcESaIcEEES5_EC2IRA3_KcRS5_TnNSt9enable_ifIXaaclsr5_PCCPE22_MoveConstructiblePairIT_T0_EEclsr5_PCCPE30_ImplicitlyMoveConvertiblePairISD_SE_EEEbE4typeELb1EEEOSD_OSE_(ptr noundef nonnull align 8 dereferenceable(64) %this, ptr noundef nonnull align 1 dereferenceable(3) %__x, ptr noundef nonnull align 8 dereferenceable(32) %__y) unnamed_addr #5 comdat align 2 personality ptr @__gxx_personality_v0 {
entry:
  %this.addr = alloca ptr, align 8
  %__x.addr = alloca ptr, align 8
  %__y.addr = alloca ptr, align 8
  %ref.tmp = alloca %"class.std::allocator", align 1
  %exn.slot = alloca ptr, align 8
  %ehselector.slot = alloca i32, align 4
  store ptr %this, ptr %this.addr, align 8
  store ptr %__x, ptr %__x.addr, align 8
  store ptr %__y, ptr %__y.addr, align 8
  %this1 = load ptr, ptr %this.addr, align 8
  %first = getelementptr inbounds %"struct.std::pair", ptr %this1, i32 0, i32 0
  %0 = load ptr, ptr %__x.addr, align 8
  %arraydecay = getelementptr inbounds [3 x i8], ptr %0, i64 0, i64 0
  call void @_ZNSaIcEC1Ev(ptr noundef nonnull align 1 dereferenceable(1) %ref.tmp) #3
  invoke void @_ZNSt7__cxx1112basic_stringIcSt11char_traitsIcESaIcEEC1EPKcRKS3_(ptr noundef nonnull align 8 dereferenceable(32) %first, ptr noundef %arraydecay, ptr noundef nonnull align 1 dereferenceable(1) %ref.tmp)
          to label %invoke.cont unwind label %lpad

invoke.cont:                                      ; preds = %entry
  call void @_ZNSaIcED1Ev(ptr noundef nonnull align 1 dereferenceable(1) %ref.tmp) #3
  %second = getelementptr inbounds %"struct.std::pair", ptr %this1, i32 0, i32 1
  %1 = load ptr, ptr %__y.addr, align 8
  invoke void @_ZNSt7__cxx1112basic_stringIcSt11char_traitsIcESaIcEEC1ERKS4_(ptr noundef nonnull align 8 dereferenceable(32) %second, ptr noundef nonnull align 8 dereferenceable(32) %1)
          to label %invoke.cont3 unwind label %lpad2

invoke.cont3:                                     ; preds = %invoke.cont
  ret void

lpad:                                             ; preds = %entry
  %2 = landingpad { ptr, i32 }
          cleanup
  %3 = extractvalue { ptr, i32 } %2, 0
  store ptr %3, ptr %exn.slot, align 8
  %4 = extractvalue { ptr, i32 } %2, 1
  store i32 %4, ptr %ehselector.slot, align 4
  call void @_ZNSaIcED1Ev(ptr noundef nonnull align 1 dereferenceable(1) %ref.tmp) #3
  br label %eh.resume

lpad2:                                            ; preds = %invoke.cont
  %5 = landingpad { ptr, i32 }
          cleanup
  %6 = extractvalue { ptr, i32 } %5, 0
  store ptr %6, ptr %exn.slot, align 8
  %7 = extractvalue { ptr, i32 } %5, 1
  store i32 %7, ptr %ehselector.slot, align 4
  call void @_ZNSt7__cxx1112basic_stringIcSt11char_traitsIcESaIcEED1Ev(ptr noundef nonnull align 8 dereferenceable(32) %first) #3
  br label %eh.resume

eh.resume:                                        ; preds = %lpad2, %lpad
  %exn = load ptr, ptr %exn.slot, align 8
  %sel = load i32, ptr %ehselector.slot, align 4
  %lpad.val = insertvalue { ptr, i32 } poison, ptr %exn, 0
  %lpad.val4 = insertvalue { ptr, i32 } %lpad.val, i32 %sel, 1
  resume { ptr, i32 } %lpad.val4
}

; Function Attrs: mustprogress uwtable
define linkonce_odr hidden void @_ZNSt4pairINSt7__cxx1112basic_stringIcSt11char_traitsIcESaIcEEES5_EC2IRA5_KcRKS5_TnNSt9enable_ifIXaaclsr5_PCCPE22_MoveConstructiblePairIT_T0_EEclsr5_PCCPE30_ImplicitlyMoveConvertiblePairISE_SF_EEEbE4typeELb1EEEOSE_OSF_(ptr noundef nonnull align 8 dereferenceable(64) %this, ptr noundef nonnull align 1 dereferenceable(5) %__x, ptr noundef nonnull align 8 dereferenceable(32) %__y) unnamed_addr #5 comdat align 2 personality ptr @__gxx_personality_v0 {
entry:
  %this.addr = alloca ptr, align 8
  %__x.addr = alloca ptr, align 8
  %__y.addr = alloca ptr, align 8
  %ref.tmp = alloca %"class.std::allocator", align 1
  %exn.slot = alloca ptr, align 8
  %ehselector.slot = alloca i32, align 4
  store ptr %this, ptr %this.addr, align 8
  store ptr %__x, ptr %__x.addr, align 8
  store ptr %__y, ptr %__y.addr, align 8
  %this1 = load ptr, ptr %this.addr, align 8
  %first = getelementptr inbounds %"struct.std::pair", ptr %this1, i32 0, i32 0
  %0 = load ptr, ptr %__x.addr, align 8
  %arraydecay = getelementptr inbounds [5 x i8], ptr %0, i64 0, i64 0
  call void @_ZNSaIcEC1Ev(ptr noundef nonnull align 1 dereferenceable(1) %ref.tmp) #3
  invoke void @_ZNSt7__cxx1112basic_stringIcSt11char_traitsIcESaIcEEC1EPKcRKS3_(ptr noundef nonnull align 8 dereferenceable(32) %first, ptr noundef %arraydecay, ptr noundef nonnull align 1 dereferenceable(1) %ref.tmp)
          to label %invoke.cont unwind label %lpad

invoke.cont:                                      ; preds = %entry
  call void @_ZNSaIcED1Ev(ptr noundef nonnull align 1 dereferenceable(1) %ref.tmp) #3
  %second = getelementptr inbounds %"struct.std::pair", ptr %this1, i32 0, i32 1
  %1 = load ptr, ptr %__y.addr, align 8
  invoke void @_ZNSt7__cxx1112basic_stringIcSt11char_traitsIcESaIcEEC1ERKS4_(ptr noundef nonnull align 8 dereferenceable(32) %second, ptr noundef nonnull align 8 dereferenceable(32) %1)
          to label %invoke.cont3 unwind label %lpad2

invoke.cont3:                                     ; preds = %invoke.cont
  ret void

lpad:                                             ; preds = %entry
  %2 = landingpad { ptr, i32 }
          cleanup
  %3 = extractvalue { ptr, i32 } %2, 0
  store ptr %3, ptr %exn.slot, align 8
  %4 = extractvalue { ptr, i32 } %2, 1
  store i32 %4, ptr %ehselector.slot, align 4
  call void @_ZNSaIcED1Ev(ptr noundef nonnull align 1 dereferenceable(1) %ref.tmp) #3
  br label %eh.resume

lpad2:                                            ; preds = %invoke.cont
  %5 = landingpad { ptr, i32 }
          cleanup
  %6 = extractvalue { ptr, i32 } %5, 0
  store ptr %6, ptr %exn.slot, align 8
  %7 = extractvalue { ptr, i32 } %5, 1
  store i32 %7, ptr %ehselector.slot, align 4
  call void @_ZNSt7__cxx1112basic_stringIcSt11char_traitsIcESaIcEED1Ev(ptr noundef nonnull align 8 dereferenceable(32) %first) #3
  br label %eh.resume

eh.resume:                                        ; preds = %lpad2, %lpad
  %exn = load ptr, ptr %exn.slot, align 8
  %sel = load i32, ptr %ehselector.slot, align 4
  %lpad.val = insertvalue { ptr, i32 } poison, ptr %exn, 0
  %lpad.val4 = insertvalue { ptr, i32 } %lpad.val, i32 %sel, 1
  resume { ptr, i32 } %lpad.val4
}

; Function Attrs: mustprogress uwtable
define linkonce_odr hidden void @_ZNSt4pairINSt7__cxx1112basic_stringIcSt11char_traitsIcESaIcEEES5_EC2IRA10_KcRKS5_TnNSt9enable_ifIXaaclsr5_PCCPE22_MoveConstructiblePairIT_T0_EEclsr5_PCCPE30_ImplicitlyMoveConvertiblePairISE_SF_EEEbE4typeELb1EEEOSE_OSF_(ptr noundef nonnull align 8 dereferenceable(64) %this, ptr noundef nonnull align 1 dereferenceable(10) %__x, ptr noundef nonnull align 8 dereferenceable(32) %__y) unnamed_addr #5 comdat align 2 personality ptr @__gxx_personality_v0 {
entry:
  %this.addr = alloca ptr, align 8
  %__x.addr = alloca ptr, align 8
  %__y.addr = alloca ptr, align 8
  %ref.tmp = alloca %"class.std::allocator", align 1
  %exn.slot = alloca ptr, align 8
  %ehselector.slot = alloca i32, align 4
  store ptr %this, ptr %this.addr, align 8
  store ptr %__x, ptr %__x.addr, align 8
  store ptr %__y, ptr %__y.addr, align 8
  %this1 = load ptr, ptr %this.addr, align 8
  %first = getelementptr inbounds %"struct.std::pair", ptr %this1, i32 0, i32 0
  %0 = load ptr, ptr %__x.addr, align 8
  %arraydecay = getelementptr inbounds [10 x i8], ptr %0, i64 0, i64 0
  call void @_ZNSaIcEC1Ev(ptr noundef nonnull align 1 dereferenceable(1) %ref.tmp) #3
  invoke void @_ZNSt7__cxx1112basic_stringIcSt11char_traitsIcESaIcEEC1EPKcRKS3_(ptr noundef nonnull align 8 dereferenceable(32) %first, ptr noundef %arraydecay, ptr noundef nonnull align 1 dereferenceable(1) %ref.tmp)
          to label %invoke.cont unwind label %lpad

invoke.cont:                                      ; preds = %entry
  call void @_ZNSaIcED1Ev(ptr noundef nonnull align 1 dereferenceable(1) %ref.tmp) #3
  %second = getelementptr inbounds %"struct.std::pair", ptr %this1, i32 0, i32 1
  %1 = load ptr, ptr %__y.addr, align 8
  invoke void @_ZNSt7__cxx1112basic_stringIcSt11char_traitsIcESaIcEEC1ERKS4_(ptr noundef nonnull align 8 dereferenceable(32) %second, ptr noundef nonnull align 8 dereferenceable(32) %1)
          to label %invoke.cont3 unwind label %lpad2

invoke.cont3:                                     ; preds = %invoke.cont
  ret void

lpad:                                             ; preds = %entry
  %2 = landingpad { ptr, i32 }
          cleanup
  %3 = extractvalue { ptr, i32 } %2, 0
  store ptr %3, ptr %exn.slot, align 8
  %4 = extractvalue { ptr, i32 } %2, 1
  store i32 %4, ptr %ehselector.slot, align 4
  call void @_ZNSaIcED1Ev(ptr noundef nonnull align 1 dereferenceable(1) %ref.tmp) #3
  br label %eh.resume

lpad2:                                            ; preds = %invoke.cont
  %5 = landingpad { ptr, i32 }
          cleanup
  %6 = extractvalue { ptr, i32 } %5, 0
  store ptr %6, ptr %exn.slot, align 8
  %7 = extractvalue { ptr, i32 } %5, 1
  store i32 %7, ptr %ehselector.slot, align 4
  call void @_ZNSt7__cxx1112basic_stringIcSt11char_traitsIcESaIcEED1Ev(ptr noundef nonnull align 8 dereferenceable(32) %first) #3
  br label %eh.resume

eh.resume:                                        ; preds = %lpad2, %lpad
  %exn = load ptr, ptr %exn.slot, align 8
  %sel = load i32, ptr %ehselector.slot, align 4
  %lpad.val = insertvalue { ptr, i32 } poison, ptr %exn, 0
  %lpad.val4 = insertvalue { ptr, i32 } %lpad.val, i32 %sel, 1
  resume { ptr, i32 } %lpad.val4
}

declare void @_ZN19OpenColorIO_v2_4dev12XmlFormatter13writeStartTagERKNSt7__cxx1112basic_stringIcSt11char_traitsIcESaIcEEERKSt6vectorISt4pairIS6_S6_ESaISB_EE(ptr noundef nonnull align 8 dereferenceable(16), ptr noundef nonnull align 8 dereferenceable(32), ptr noundef nonnull align 8 dereferenceable(24)) #1

declare void @_ZN19OpenColorIO_v2_4dev14XmlScopeIndentC1ERNS_12XmlFormatterE(ptr noundef nonnull align 8 dereferenceable(8), ptr noundef nonnull align 8 dereferenceable(16)) unnamed_addr #1

; Function Attrs: mustprogress uwtable
define internal void @_ZN19OpenColorIO_v2_4dev12_GLOBAL__N_117WriteDescriptionsERNS_12XmlFormatterEPKcRKSt6vectorINSt7__cxx1112basic_stringIcSt11char_traitsIcESaIcEEESaISB_EE(ptr noundef nonnull align 8 dereferenceable(16) %fmt, ptr noundef %tag, ptr noundef nonnull align 8 dereferenceable(24) %descriptions) #5 personality ptr @__gxx_personality_v0 {
entry:
  %fmt.addr = alloca ptr, align 8
  %tag.addr = alloca ptr, align 8
  %descriptions.addr = alloca ptr, align 8
  %__range2 = alloca ptr, align 8
  %__begin2 = alloca %"class.__gnu_cxx::__normal_iterator.35", align 8
  %__end2 = alloca %"class.__gnu_cxx::__normal_iterator.35", align 8
  %it = alloca ptr, align 8
  %ref.tmp = alloca %"class.std::__cxx11::basic_string", align 8
  %ref.tmp5 = alloca %"class.std::allocator", align 1
  %exn.slot = alloca ptr, align 8
  %ehselector.slot = alloca i32, align 4
  store ptr %fmt, ptr %fmt.addr, align 8
  store ptr %tag, ptr %tag.addr, align 8
  store ptr %descriptions, ptr %descriptions.addr, align 8
  %0 = load ptr, ptr %descriptions.addr, align 8
  store ptr %0, ptr %__range2, align 8
  %1 = load ptr, ptr %__range2, align 8
  %call = call ptr @_ZNKSt6vectorINSt7__cxx1112basic_stringIcSt11char_traitsIcESaIcEEESaIS5_EE5beginEv(ptr noundef nonnull align 8 dereferenceable(24) %1) #3
  %coerce.dive = getelementptr inbounds %"class.__gnu_cxx::__normal_iterator.35", ptr %__begin2, i32 0, i32 0
  store ptr %call, ptr %coerce.dive, align 8
  %2 = load ptr, ptr %__range2, align 8
  %call1 = call ptr @_ZNKSt6vectorINSt7__cxx1112basic_stringIcSt11char_traitsIcESaIcEEESaIS5_EE3endEv(ptr noundef nonnull align 8 dereferenceable(24) %2) #3
  %coerce.dive2 = getelementptr inbounds %"class.__gnu_cxx::__normal_iterator.35", ptr %__end2, i32 0, i32 0
  store ptr %call1, ptr %coerce.dive2, align 8
  br label %for.cond

for.cond:                                         ; preds = %for.inc, %entry
  %call3 = call noundef zeroext i1 @_ZN9__gnu_cxxneIPKNSt7__cxx1112basic_stringIcSt11char_traitsIcESaIcEEESt6vectorIS6_SaIS6_EEEEbRKNS_17__normal_iteratorIT_T0_EESH_(ptr noundef nonnull align 8 dereferenceable(8) %__begin2, ptr noundef nonnull align 8 dereferenceable(8) %__end2) #3
  br i1 %call3, label %for.body, label %for.end

for.body:                                         ; preds = %for.cond
  %call4 = call noundef nonnull align 8 dereferenceable(32) ptr @_ZNK9__gnu_cxx17__normal_iteratorIPKNSt7__cxx1112basic_stringIcSt11char_traitsIcESaIcEEESt6vectorIS6_SaIS6_EEEdeEv(ptr noundef nonnull align 8 dereferenceable(8) %__begin2) #3
  store ptr %call4, ptr %it, align 8
  %3 = load ptr, ptr %fmt.addr, align 8
  %4 = load ptr, ptr %tag.addr, align 8
  call void @_ZNSaIcEC1Ev(ptr noundef nonnull align 1 dereferenceable(1) %ref.tmp5) #3
  invoke void @_ZNSt7__cxx1112basic_stringIcSt11char_traitsIcESaIcEEC1EPKcRKS3_(ptr noundef nonnull align 8 dereferenceable(32) %ref.tmp, ptr noundef %4, ptr noundef nonnull align 1 dereferenceable(1) %ref.tmp5)
          to label %invoke.cont unwind label %lpad

invoke.cont:                                      ; preds = %for.body
  %5 = load ptr, ptr %it, align 8
  invoke void @_ZN19OpenColorIO_v2_4dev12XmlFormatter15writeContentTagERKNSt7__cxx1112basic_stringIcSt11char_traitsIcESaIcEEES8_(ptr noundef nonnull align 8 dereferenceable(16) %3, ptr noundef nonnull align 8 dereferenceable(32) %ref.tmp, ptr noundef nonnull align 8 dereferenceable(32) %5)
          to label %invoke.cont7 unwind label %lpad6

invoke.cont7:                                     ; preds = %invoke.cont
  call void @_ZNSt7__cxx1112basic_stringIcSt11char_traitsIcESaIcEED1Ev(ptr noundef nonnull align 8 dereferenceable(32) %ref.tmp) #3
  call void @_ZNSaIcED1Ev(ptr noundef nonnull align 1 dereferenceable(1) %ref.tmp5) #3
  br label %for.inc

for.inc:                                          ; preds = %invoke.cont7
  %call8 = call noundef nonnull align 8 dereferenceable(8) ptr @_ZN9__gnu_cxx17__normal_iteratorIPKNSt7__cxx1112basic_stringIcSt11char_traitsIcESaIcEEESt6vectorIS6_SaIS6_EEEppEv(ptr noundef nonnull align 8 dereferenceable(8) %__begin2) #3
  br label %for.cond

lpad:                                             ; preds = %for.body
  %6 = landingpad { ptr, i32 }
          cleanup
  %7 = extractvalue { ptr, i32 } %6, 0
  store ptr %7, ptr %exn.slot, align 8
  %8 = extractvalue { ptr, i32 } %6, 1
  store i32 %8, ptr %ehselector.slot, align 4
  br label %ehcleanup

lpad6:                                            ; preds = %invoke.cont
  %9 = landingpad { ptr, i32 }
          cleanup
  %10 = extractvalue { ptr, i32 } %9, 0
  store ptr %10, ptr %exn.slot, align 8
  %11 = extractvalue { ptr, i32 } %9, 1
  store i32 %11, ptr %ehselector.slot, align 4
  call void @_ZNSt7__cxx1112basic_stringIcSt11char_traitsIcESaIcEED1Ev(ptr noundef nonnull align 8 dereferenceable(32) %ref.tmp) #3
  br label %ehcleanup

ehcleanup:                                        ; preds = %lpad6, %lpad
  call void @_ZNSaIcED1Ev(ptr noundef nonnull align 1 dereferenceable(1) %ref.tmp5) #3
  br label %eh.resume

for.end:                                          ; preds = %for.cond
  ret void

eh.resume:                                        ; preds = %ehcleanup
  %exn = load ptr, ptr %exn.slot, align 8
  %sel = load i32, ptr %ehselector.slot, align 4
  %lpad.val = insertvalue { ptr, i32 } poison, ptr %exn, 0
  %lpad.val9 = insertvalue { ptr, i32 } %lpad.val, i32 %sel, 1
  resume { ptr, i32 } %lpad.val9
}

; Function Attrs: mustprogress nounwind uwtable
define linkonce_odr hidden noundef nonnull align 8 dereferenceable(24) ptr @_ZNK19OpenColorIO_v2_4dev18CTFReaderTransform15getDescriptionsB5cxx11Ev(ptr noundef nonnull align 8 dereferenceable(356) %this) #4 comdat align 2 {
entry:
  %this.addr = alloca ptr, align 8
  store ptr %this, ptr %this.addr, align 8
  %this1 = load ptr, ptr %this.addr, align 8
  %m_descriptions = getelementptr inbounds %"class.OpenColorIO_v2_4dev::CTFReaderTransform", ptr %this1, i32 0, i32 7
  ret ptr %m_descriptions
}

declare void @_ZN19OpenColorIO_v2_4dev12XmlFormatter15writeContentTagERKNSt7__cxx1112basic_stringIcSt11char_traitsIcESaIcEEES8_(ptr noundef nonnull align 8 dereferenceable(16), ptr noundef nonnull align 8 dereferenceable(32), ptr noundef nonnull align 8 dereferenceable(32)) #1

; Function Attrs: mustprogress nounwind uwtable
define linkonce_odr hidden noundef nonnull align 8 dereferenceable(120) ptr @_ZNK19OpenColorIO_v2_4dev18CTFReaderTransform15getInfoMetadataEv(ptr noundef nonnull align 8 dereferenceable(356) %this) #4 comdat align 2 {
entry:
  %this.addr = alloca ptr, align 8
  store ptr %this, ptr %this.addr, align 8
  %this1 = load ptr, ptr %this.addr, align 8
  %m_infoMetadata = getelementptr inbounds %"class.OpenColorIO_v2_4dev::CTFReaderTransform", ptr %this1, i32 0, i32 5
  ret ptr %m_infoMetadata
}

; Function Attrs: mustprogress uwtable
define hidden void @_ZNK19OpenColorIO_v2_4dev15TransformWriter24writeProcessListMetadataERKNS_18FormatMetadataImplE(ptr noundef nonnull align 8 dereferenceable(33) %this, ptr noundef nonnull align 8 dereferenceable(120) %m) #5 align 2 personality ptr @__gxx_personality_v0 {
entry:
  %this.addr = alloca ptr, align 8
  %m.addr = alloca ptr, align 8
  %infoValue = alloca %"class.std::__cxx11::basic_string", align 8
  %ref.tmp = alloca %"class.std::allocator", align 1
  %exn.slot = alloca ptr, align 8
  %ehselector.slot = alloca i32, align 4
  %ref.tmp9 = alloca %"class.std::__cxx11::basic_string", align 8
  %ref.tmp13 = alloca %"class.std::allocator", align 1
  %ref.tmp17 = alloca %"class.std::__cxx11::basic_string", align 8
  %ref.tmp21 = alloca %"class.std::allocator", align 1
  %ref.tmp30 = alloca %"class.std::__cxx11::basic_string", align 8
  %ref.tmp34 = alloca %"class.std::allocator", align 1
  %value = alloca %"class.std::__cxx11::basic_string", align 8
  %ref.tmp45 = alloca %"class.std::allocator", align 1
  %ref.tmp52 = alloca %"class.std::__cxx11::basic_string", align 8
  %ref.tmp56 = alloca %"class.std::allocator", align 1
  %items = alloca %"class.std::vector.4", align 8
  %it = alloca %"class.__gnu_cxx::__normal_iterator.34", align 8
  %end = alloca %"class.__gnu_cxx::__normal_iterator.34", align 8
  %scopeIndent = alloca %"class.OpenColorIO_v2_4dev::XmlScopeIndent", align 8
  %ref.tmp80 = alloca %"class.std::__cxx11::basic_string", align 8
  %ref.tmp84 = alloca %"class.std::allocator", align 1
  store ptr %this, ptr %this.addr, align 8
  store ptr %m, ptr %m.addr, align 8
  %this1 = load ptr, ptr %this.addr, align 8
  %0 = load ptr, ptr %m.addr, align 8
  %call = call noundef nonnull align 8 dereferenceable(24) ptr @_ZNK19OpenColorIO_v2_4dev18FormatMetadataImpl19getChildrenElementsEv(ptr noundef nonnull align 8 dereferenceable(120) %0) #3
  %call2 = call noundef i64 @_ZNKSt6vectorIN19OpenColorIO_v2_4dev18FormatMetadataImplESaIS1_EE4sizeEv(ptr noundef nonnull align 8 dereferenceable(24) %call) #3
  %cmp = icmp eq i64 %call2, 0
  br i1 %cmp, label %if.then, label %if.else

if.then:                                          ; preds = %entry
  %1 = load ptr, ptr %m.addr, align 8
  %vtable = load ptr, ptr %1, align 8
  %vfn = getelementptr inbounds ptr, ptr %vtable, i64 2
  %2 = load ptr, ptr %vfn, align 8
  %call3 = call noundef ptr %2(ptr noundef nonnull align 8 dereferenceable(120) %1) #3
  call void @_ZNSaIcEC1Ev(ptr noundef nonnull align 1 dereferenceable(1) %ref.tmp) #3
  invoke void @_ZNSt7__cxx1112basic_stringIcSt11char_traitsIcESaIcEEC1EPKcRKS3_(ptr noundef nonnull align 8 dereferenceable(32) %infoValue, ptr noundef %call3, ptr noundef nonnull align 1 dereferenceable(1) %ref.tmp)
          to label %invoke.cont unwind label %lpad

invoke.cont:                                      ; preds = %if.then
  call void @_ZNSaIcED1Ev(ptr noundef nonnull align 1 dereferenceable(1) %ref.tmp) #3
  %3 = load ptr, ptr %m.addr, align 8
  %vtable4 = load ptr, ptr %3, align 8
  %vfn5 = getelementptr inbounds ptr, ptr %vtable4, i64 4
  %4 = load ptr, ptr %vfn5, align 8
  %call6 = call noundef i32 %4(ptr noundef nonnull align 8 dereferenceable(120) %3) #3
  %tobool = icmp ne i32 %call6, 0
  br i1 %tobool, label %if.then8, label %lor.lhs.false

lor.lhs.false:                                    ; preds = %invoke.cont
  %call7 = call noundef zeroext i1 @_ZNKSt7__cxx1112basic_stringIcSt11char_traitsIcESaIcEE5emptyEv(ptr noundef nonnull align 8 dereferenceable(32) %infoValue) #3
  br i1 %call7, label %if.end, label %if.then8

if.then8:                                         ; preds = %lor.lhs.false, %invoke.cont
  %m_formatter = getelementptr inbounds %"class.OpenColorIO_v2_4dev::XmlElementWriter", ptr %this1, i32 0, i32 1
  %5 = load ptr, ptr %m_formatter, align 8
  %6 = load ptr, ptr %m.addr, align 8
  %vtable10 = load ptr, ptr %6, align 8
  %vfn11 = getelementptr inbounds ptr, ptr %vtable10, i64 0
  %7 = load ptr, ptr %vfn11, align 8
  %call12 = call noundef ptr %7(ptr noundef nonnull align 8 dereferenceable(120) %6) #3
  call void @_ZNSaIcEC1Ev(ptr noundef nonnull align 1 dereferenceable(1) %ref.tmp13) #3
  invoke void @_ZNSt7__cxx1112basic_stringIcSt11char_traitsIcESaIcEEC1EPKcRKS3_(ptr noundef nonnull align 8 dereferenceable(32) %ref.tmp9, ptr noundef %call12, ptr noundef nonnull align 1 dereferenceable(1) %ref.tmp13)
          to label %invoke.cont15 unwind label %lpad14

invoke.cont15:                                    ; preds = %if.then8
  %8 = load ptr, ptr %m.addr, align 8
  %call16 = call noundef nonnull align 8 dereferenceable(24) ptr @_ZNK19OpenColorIO_v2_4dev18FormatMetadataImpl13getAttributesB5cxx11Ev(ptr noundef nonnull align 8 dereferenceable(120) %8) #3
  %9 = load ptr, ptr %m.addr, align 8
  %vtable18 = load ptr, ptr %9, align 8
  %vfn19 = getelementptr inbounds ptr, ptr %vtable18, i64 2
  %10 = load ptr, ptr %vfn19, align 8
  %call20 = call noundef ptr %10(ptr noundef nonnull align 8 dereferenceable(120) %9) #3
  call void @_ZNSaIcEC1Ev(ptr noundef nonnull align 1 dereferenceable(1) %ref.tmp21) #3
  invoke void @_ZNSt7__cxx1112basic_stringIcSt11char_traitsIcESaIcEEC1EPKcRKS3_(ptr noundef nonnull align 8 dereferenceable(32) %ref.tmp17, ptr noundef %call20, ptr noundef nonnull align 1 dereferenceable(1) %ref.tmp21)
          to label %invoke.cont23 unwind label %lpad22

invoke.cont23:                                    ; preds = %invoke.cont15
  invoke void @_ZN19OpenColorIO_v2_4dev12XmlFormatter15writeContentTagERKNSt7__cxx1112basic_stringIcSt11char_traitsIcESaIcEEERKSt6vectorISt4pairIS6_S6_ESaISB_EES8_(ptr noundef nonnull align 8 dereferenceable(16) %5, ptr noundef nonnull align 8 dereferenceable(32) %ref.tmp9, ptr noundef nonnull align 8 dereferenceable(24) %call16, ptr noundef nonnull align 8 dereferenceable(32) %ref.tmp17)
          to label %invoke.cont25 unwind label %lpad24

invoke.cont25:                                    ; preds = %invoke.cont23
  call void @_ZNSt7__cxx1112basic_stringIcSt11char_traitsIcESaIcEED1Ev(ptr noundef nonnull align 8 dereferenceable(32) %ref.tmp17) #3
  call void @_ZNSaIcED1Ev(ptr noundef nonnull align 1 dereferenceable(1) %ref.tmp21) #3
  call void @_ZNSt7__cxx1112basic_stringIcSt11char_traitsIcESaIcEED1Ev(ptr noundef nonnull align 8 dereferenceable(32) %ref.tmp9) #3
  call void @_ZNSaIcED1Ev(ptr noundef nonnull align 1 dereferenceable(1) %ref.tmp13) #3
  br label %if.end

lpad:                                             ; preds = %if.then
  %11 = landingpad { ptr, i32 }
          cleanup
  %12 = extractvalue { ptr, i32 } %11, 0
  store ptr %12, ptr %exn.slot, align 8
  %13 = extractvalue { ptr, i32 } %11, 1
  store i32 %13, ptr %ehselector.slot, align 4
  call void @_ZNSaIcED1Ev(ptr noundef nonnull align 1 dereferenceable(1) %ref.tmp) #3
  br label %eh.resume

lpad14:                                           ; preds = %if.then8
  %14 = landingpad { ptr, i32 }
          cleanup
  %15 = extractvalue { ptr, i32 } %14, 0
  store ptr %15, ptr %exn.slot, align 8
  %16 = extractvalue { ptr, i32 } %14, 1
  store i32 %16, ptr %ehselector.slot, align 4
  br label %ehcleanup27

lpad22:                                           ; preds = %invoke.cont15
  %17 = landingpad { ptr, i32 }
          cleanup
  %18 = extractvalue { ptr, i32 } %17, 0
  store ptr %18, ptr %exn.slot, align 8
  %19 = extractvalue { ptr, i32 } %17, 1
  store i32 %19, ptr %ehselector.slot, align 4
  br label %ehcleanup

lpad24:                                           ; preds = %invoke.cont23
  %20 = landingpad { ptr, i32 }
          cleanup
  %21 = extractvalue { ptr, i32 } %20, 0
  store ptr %21, ptr %exn.slot, align 8
  %22 = extractvalue { ptr, i32 } %20, 1
  store i32 %22, ptr %ehselector.slot, align 4
  call void @_ZNSt7__cxx1112basic_stringIcSt11char_traitsIcESaIcEED1Ev(ptr noundef nonnull align 8 dereferenceable(32) %ref.tmp17) #3
  br label %ehcleanup

ehcleanup:                                        ; preds = %lpad24, %lpad22
  call void @_ZNSaIcED1Ev(ptr noundef nonnull align 1 dereferenceable(1) %ref.tmp21) #3
  call void @_ZNSt7__cxx1112basic_stringIcSt11char_traitsIcESaIcEED1Ev(ptr noundef nonnull align 8 dereferenceable(32) %ref.tmp9) #3
  br label %ehcleanup27

ehcleanup27:                                      ; preds = %ehcleanup, %lpad14
  call void @_ZNSaIcED1Ev(ptr noundef nonnull align 1 dereferenceable(1) %ref.tmp13) #3
  call void @_ZNSt7__cxx1112basic_stringIcSt11char_traitsIcESaIcEED1Ev(ptr noundef nonnull align 8 dereferenceable(32) %infoValue) #3
  br label %eh.resume

if.end:                                           ; preds = %invoke.cont25, %lor.lhs.false
  call void @_ZNSt7__cxx1112basic_stringIcSt11char_traitsIcESaIcEED1Ev(ptr noundef nonnull align 8 dereferenceable(32) %infoValue) #3
  br label %if.end93

if.else:                                          ; preds = %entry
  %m_formatter29 = getelementptr inbounds %"class.OpenColorIO_v2_4dev::XmlElementWriter", ptr %this1, i32 0, i32 1
  %23 = load ptr, ptr %m_formatter29, align 8
  %24 = load ptr, ptr %m.addr, align 8
  %vtable31 = load ptr, ptr %24, align 8
  %vfn32 = getelementptr inbounds ptr, ptr %vtable31, i64 0
  %25 = load ptr, ptr %vfn32, align 8
  %call33 = call noundef ptr %25(ptr noundef nonnull align 8 dereferenceable(120) %24) #3
  call void @_ZNSaIcEC1Ev(ptr noundef nonnull align 1 dereferenceable(1) %ref.tmp34) #3
  invoke void @_ZNSt7__cxx1112basic_stringIcSt11char_traitsIcESaIcEEC1EPKcRKS3_(ptr noundef nonnull align 8 dereferenceable(32) %ref.tmp30, ptr noundef %call33, ptr noundef nonnull align 1 dereferenceable(1) %ref.tmp34)
          to label %invoke.cont36 unwind label %lpad35

invoke.cont36:                                    ; preds = %if.else
  %26 = load ptr, ptr %m.addr, align 8
  %call37 = call noundef nonnull align 8 dereferenceable(24) ptr @_ZNK19OpenColorIO_v2_4dev18FormatMetadataImpl13getAttributesB5cxx11Ev(ptr noundef nonnull align 8 dereferenceable(120) %26) #3
  invoke void @_ZN19OpenColorIO_v2_4dev12XmlFormatter13writeStartTagERKNSt7__cxx1112basic_stringIcSt11char_traitsIcESaIcEEERKSt6vectorISt4pairIS6_S6_ESaISB_EE(ptr noundef nonnull align 8 dereferenceable(16) %23, ptr noundef nonnull align 8 dereferenceable(32) %ref.tmp30, ptr noundef nonnull align 8 dereferenceable(24) %call37)
          to label %invoke.cont39 unwind label %lpad38

invoke.cont39:                                    ; preds = %invoke.cont36
  call void @_ZNSt7__cxx1112basic_stringIcSt11char_traitsIcESaIcEED1Ev(ptr noundef nonnull align 8 dereferenceable(32) %ref.tmp30) #3
  call void @_ZNSaIcED1Ev(ptr noundef nonnull align 1 dereferenceable(1) %ref.tmp34) #3
  %27 = load ptr, ptr %m.addr, align 8
  %vtable42 = load ptr, ptr %27, align 8
  %vfn43 = getelementptr inbounds ptr, ptr %vtable42, i64 2
  %28 = load ptr, ptr %vfn43, align 8
  %call44 = call noundef ptr %28(ptr noundef nonnull align 8 dereferenceable(120) %27) #3
  call void @_ZNSaIcEC1Ev(ptr noundef nonnull align 1 dereferenceable(1) %ref.tmp45) #3
  invoke void @_ZNSt7__cxx1112basic_stringIcSt11char_traitsIcESaIcEEC1EPKcRKS3_(ptr noundef nonnull align 8 dereferenceable(32) %value, ptr noundef %call44, ptr noundef nonnull align 1 dereferenceable(1) %ref.tmp45)
          to label %invoke.cont47 unwind label %lpad46

invoke.cont47:                                    ; preds = %invoke.cont39
  call void @_ZNSaIcED1Ev(ptr noundef nonnull align 1 dereferenceable(1) %ref.tmp45) #3
  %call49 = call noundef zeroext i1 @_ZNKSt7__cxx1112basic_stringIcSt11char_traitsIcESaIcEE5emptyEv(ptr noundef nonnull align 8 dereferenceable(32) %value) #3
  br i1 %call49, label %if.end63, label %if.then50

if.then50:                                        ; preds = %invoke.cont47
  %m_formatter51 = getelementptr inbounds %"class.OpenColorIO_v2_4dev::XmlElementWriter", ptr %this1, i32 0, i32 1
  %29 = load ptr, ptr %m_formatter51, align 8
  %30 = load ptr, ptr %m.addr, align 8
  %vtable53 = load ptr, ptr %30, align 8
  %vfn54 = getelementptr inbounds ptr, ptr %vtable53, i64 2
  %31 = load ptr, ptr %vfn54, align 8
  %call55 = call noundef ptr %31(ptr noundef nonnull align 8 dereferenceable(120) %30) #3
  call void @_ZNSaIcEC1Ev(ptr noundef nonnull align 1 dereferenceable(1) %ref.tmp56) #3
  invoke void @_ZNSt7__cxx1112basic_stringIcSt11char_traitsIcESaIcEEC1EPKcRKS3_(ptr noundef nonnull align 8 dereferenceable(32) %ref.tmp52, ptr noundef %call55, ptr noundef nonnull align 1 dereferenceable(1) %ref.tmp56)
          to label %invoke.cont58 unwind label %lpad57

invoke.cont58:                                    ; preds = %if.then50
  invoke void @_ZN19OpenColorIO_v2_4dev12XmlFormatter12writeContentERKNSt7__cxx1112basic_stringIcSt11char_traitsIcESaIcEEE(ptr noundef nonnull align 8 dereferenceable(16) %29, ptr noundef nonnull align 8 dereferenceable(32) %ref.tmp52)
          to label %invoke.cont60 unwind label %lpad59

invoke.cont60:                                    ; preds = %invoke.cont58
  call void @_ZNSt7__cxx1112basic_stringIcSt11char_traitsIcESaIcEED1Ev(ptr noundef nonnull align 8 dereferenceable(32) %ref.tmp52) #3
  call void @_ZNSaIcED1Ev(ptr noundef nonnull align 1 dereferenceable(1) %ref.tmp56) #3
  br label %if.end63

lpad35:                                           ; preds = %if.else
  %32 = landingpad { ptr, i32 }
          cleanup
  %33 = extractvalue { ptr, i32 } %32, 0
  store ptr %33, ptr %exn.slot, align 8
  %34 = extractvalue { ptr, i32 } %32, 1
  store i32 %34, ptr %ehselector.slot, align 4
  br label %ehcleanup41

lpad38:                                           ; preds = %invoke.cont36
  %35 = landingpad { ptr, i32 }
          cleanup
  %36 = extractvalue { ptr, i32 } %35, 0
  store ptr %36, ptr %exn.slot, align 8
  %37 = extractvalue { ptr, i32 } %35, 1
  store i32 %37, ptr %ehselector.slot, align 4
  call void @_ZNSt7__cxx1112basic_stringIcSt11char_traitsIcESaIcEED1Ev(ptr noundef nonnull align 8 dereferenceable(32) %ref.tmp30) #3
  br label %ehcleanup41

ehcleanup41:                                      ; preds = %lpad38, %lpad35
  call void @_ZNSaIcED1Ev(ptr noundef nonnull align 1 dereferenceable(1) %ref.tmp34) #3
  br label %eh.resume

lpad46:                                           ; preds = %invoke.cont39
  %38 = landingpad { ptr, i32 }
          cleanup
  %39 = extractvalue { ptr, i32 } %38, 0
  store ptr %39, ptr %exn.slot, align 8
  %40 = extractvalue { ptr, i32 } %38, 1
  store i32 %40, ptr %ehselector.slot, align 4
  call void @_ZNSaIcED1Ev(ptr noundef nonnull align 1 dereferenceable(1) %ref.tmp45) #3
  br label %eh.resume

lpad57:                                           ; preds = %if.then50
  %41 = landingpad { ptr, i32 }
          cleanup
  %42 = extractvalue { ptr, i32 } %41, 0
  store ptr %42, ptr %exn.slot, align 8
  %43 = extractvalue { ptr, i32 } %41, 1
  store i32 %43, ptr %ehselector.slot, align 4
  br label %ehcleanup62

lpad59:                                           ; preds = %invoke.cont58
  %44 = landingpad { ptr, i32 }
          cleanup
  %45 = extractvalue { ptr, i32 } %44, 0
  store ptr %45, ptr %exn.slot, align 8
  %46 = extractvalue { ptr, i32 } %44, 1
  store i32 %46, ptr %ehselector.slot, align 4
  call void @_ZNSt7__cxx1112basic_stringIcSt11char_traitsIcESaIcEED1Ev(ptr noundef nonnull align 8 dereferenceable(32) %ref.tmp52) #3
  br label %ehcleanup62

ehcleanup62:                                      ; preds = %lpad59, %lpad57
  call void @_ZNSaIcED1Ev(ptr noundef nonnull align 1 dereferenceable(1) %ref.tmp56) #3
  br label %ehcleanup92

if.end63:                                         ; preds = %invoke.cont60, %invoke.cont47
  %47 = load ptr, ptr %m.addr, align 8
  %call64 = call noundef nonnull align 8 dereferenceable(24) ptr @_ZNK19OpenColorIO_v2_4dev18FormatMetadataImpl19getChildrenElementsEv(ptr noundef nonnull align 8 dereferenceable(120) %47) #3
  invoke void @_ZNSt6vectorIN19OpenColorIO_v2_4dev18FormatMetadataImplESaIS1_EEC2ERKS3_(ptr noundef nonnull align 8 dereferenceable(24) %items, ptr noundef nonnull align 8 dereferenceable(24) %call64)
          to label %invoke.cont66 unwind label %lpad65

invoke.cont66:                                    ; preds = %if.end63
  %call67 = call ptr @_ZNKSt6vectorIN19OpenColorIO_v2_4dev18FormatMetadataImplESaIS1_EE5beginEv(ptr noundef nonnull align 8 dereferenceable(24) %items) #3
  %coerce.dive = getelementptr inbounds %"class.__gnu_cxx::__normal_iterator.34", ptr %it, i32 0, i32 0
  store ptr %call67, ptr %coerce.dive, align 8
  %call68 = call ptr @_ZNKSt6vectorIN19OpenColorIO_v2_4dev18FormatMetadataImplESaIS1_EE3endEv(ptr noundef nonnull align 8 dereferenceable(24) %items) #3
  %coerce.dive69 = getelementptr inbounds %"class.__gnu_cxx::__normal_iterator.34", ptr %end, i32 0, i32 0
  store ptr %call68, ptr %coerce.dive69, align 8
  br label %for.cond

for.cond:                                         ; preds = %for.inc, %invoke.cont66
  %call70 = call noundef zeroext i1 @_ZN9__gnu_cxxneIPKN19OpenColorIO_v2_4dev18FormatMetadataImplESt6vectorIS2_SaIS2_EEEEbRKNS_17__normal_iteratorIT_T0_EESD_(ptr noundef nonnull align 8 dereferenceable(8) %it, ptr noundef nonnull align 8 dereferenceable(8) %end) #3
  br i1 %call70, label %for.body, label %for.end

for.body:                                         ; preds = %for.cond
  %m_formatter71 = getelementptr inbounds %"class.OpenColorIO_v2_4dev::XmlElementWriter", ptr %this1, i32 0, i32 1
  %48 = load ptr, ptr %m_formatter71, align 8
  invoke void @_ZN19OpenColorIO_v2_4dev14XmlScopeIndentC1ERNS_12XmlFormatterE(ptr noundef nonnull align 8 dereferenceable(8) %scopeIndent, ptr noundef nonnull align 8 dereferenceable(16) %48)
          to label %invoke.cont73 unwind label %lpad72

invoke.cont73:                                    ; preds = %for.body
  %call74 = call noundef nonnull align 8 dereferenceable(120) ptr @_ZNK9__gnu_cxx17__normal_iteratorIPKN19OpenColorIO_v2_4dev18FormatMetadataImplESt6vectorIS2_SaIS2_EEEdeEv(ptr noundef nonnull align 8 dereferenceable(8) %it) #3
  invoke void @_ZNK19OpenColorIO_v2_4dev15TransformWriter24writeProcessListMetadataERKNS_18FormatMetadataImplE(ptr noundef nonnull align 8 dereferenceable(33) %this1, ptr noundef nonnull align 8 dereferenceable(120) %call74)
          to label %invoke.cont76 unwind label %lpad75

invoke.cont76:                                    ; preds = %invoke.cont73
  call void @_ZN19OpenColorIO_v2_4dev14XmlScopeIndentD1Ev(ptr noundef nonnull align 8 dereferenceable(8) %scopeIndent) #3
  br label %for.inc

for.inc:                                          ; preds = %invoke.cont76
  %call78 = call noundef nonnull align 8 dereferenceable(8) ptr @_ZN9__gnu_cxx17__normal_iteratorIPKN19OpenColorIO_v2_4dev18FormatMetadataImplESt6vectorIS2_SaIS2_EEEppEv(ptr noundef nonnull align 8 dereferenceable(8) %it) #3
  br label %for.cond, !llvm.loop !7

lpad65:                                           ; preds = %if.end63
  %49 = landingpad { ptr, i32 }
          cleanup
  %50 = extractvalue { ptr, i32 } %49, 0
  store ptr %50, ptr %exn.slot, align 8
  %51 = extractvalue { ptr, i32 } %49, 1
  store i32 %51, ptr %ehselector.slot, align 4
  br label %ehcleanup92

lpad72:                                           ; preds = %for.body
  %52 = landingpad { ptr, i32 }
          cleanup
  %53 = extractvalue { ptr, i32 } %52, 0
  store ptr %53, ptr %exn.slot, align 8
  %54 = extractvalue { ptr, i32 } %52, 1
  store i32 %54, ptr %ehselector.slot, align 4
  br label %ehcleanup91

lpad75:                                           ; preds = %invoke.cont73
  %55 = landingpad { ptr, i32 }
          cleanup
  %56 = extractvalue { ptr, i32 } %55, 0
  store ptr %56, ptr %exn.slot, align 8
  %57 = extractvalue { ptr, i32 } %55, 1
  store i32 %57, ptr %ehselector.slot, align 4
  call void @_ZN19OpenColorIO_v2_4dev14XmlScopeIndentD1Ev(ptr noundef nonnull align 8 dereferenceable(8) %scopeIndent) #3
  br label %ehcleanup91

for.end:                                          ; preds = %for.cond
  %m_formatter79 = getelementptr inbounds %"class.OpenColorIO_v2_4dev::XmlElementWriter", ptr %this1, i32 0, i32 1
  %58 = load ptr, ptr %m_formatter79, align 8
  %59 = load ptr, ptr %m.addr, align 8
  %vtable81 = load ptr, ptr %59, align 8
  %vfn82 = getelementptr inbounds ptr, ptr %vtable81, i64 0
  %60 = load ptr, ptr %vfn82, align 8
  %call83 = call noundef ptr %60(ptr noundef nonnull align 8 dereferenceable(120) %59) #3
  call void @_ZNSaIcEC1Ev(ptr noundef nonnull align 1 dereferenceable(1) %ref.tmp84) #3
  invoke void @_ZNSt7__cxx1112basic_stringIcSt11char_traitsIcESaIcEEC1EPKcRKS3_(ptr noundef nonnull align 8 dereferenceable(32) %ref.tmp80, ptr noundef %call83, ptr noundef nonnull align 1 dereferenceable(1) %ref.tmp84)
          to label %invoke.cont86 unwind label %lpad85

invoke.cont86:                                    ; preds = %for.end
  invoke void @_ZN19OpenColorIO_v2_4dev12XmlFormatter11writeEndTagERKNSt7__cxx1112basic_stringIcSt11char_traitsIcESaIcEEE(ptr noundef nonnull align 8 dereferenceable(16) %58, ptr noundef nonnull align 8 dereferenceable(32) %ref.tmp80)
          to label %invoke.cont88 unwind label %lpad87

invoke.cont88:                                    ; preds = %invoke.cont86
  call void @_ZNSt7__cxx1112basic_stringIcSt11char_traitsIcESaIcEED1Ev(ptr noundef nonnull align 8 dereferenceable(32) %ref.tmp80) #3
  call void @_ZNSaIcED1Ev(ptr noundef nonnull align 1 dereferenceable(1) %ref.tmp84) #3
  call void @_ZNSt6vectorIN19OpenColorIO_v2_4dev18FormatMetadataImplESaIS1_EED2Ev(ptr noundef nonnull align 8 dereferenceable(24) %items) #3
  call void @_ZNSt7__cxx1112basic_stringIcSt11char_traitsIcESaIcEED1Ev(ptr noundef nonnull align 8 dereferenceable(32) %value) #3
  br label %if.end93

lpad85:                                           ; preds = %for.end
  %61 = landingpad { ptr, i32 }
          cleanup
  %62 = extractvalue { ptr, i32 } %61, 0
  store ptr %62, ptr %exn.slot, align 8
  %63 = extractvalue { ptr, i32 } %61, 1
  store i32 %63, ptr %ehselector.slot, align 4
  br label %ehcleanup90

lpad87:                                           ; preds = %invoke.cont86
  %64 = landingpad { ptr, i32 }
          cleanup
  %65 = extractvalue { ptr, i32 } %64, 0
  store ptr %65, ptr %exn.slot, align 8
  %66 = extractvalue { ptr, i32 } %64, 1
  store i32 %66, ptr %ehselector.slot, align 4
  call void @_ZNSt7__cxx1112basic_stringIcSt11char_traitsIcESaIcEED1Ev(ptr noundef nonnull align 8 dereferenceable(32) %ref.tmp80) #3
  br label %ehcleanup90

ehcleanup90:                                      ; preds = %lpad87, %lpad85
  call void @_ZNSaIcED1Ev(ptr noundef nonnull align 1 dereferenceable(1) %ref.tmp84) #3
  br label %ehcleanup91

ehcleanup91:                                      ; preds = %ehcleanup90, %lpad75, %lpad72
  call void @_ZNSt6vectorIN19OpenColorIO_v2_4dev18FormatMetadataImplESaIS1_EED2Ev(ptr noundef nonnull align 8 dereferenceable(24) %items) #3
  br label %ehcleanup92

ehcleanup92:                                      ; preds = %ehcleanup91, %lpad65, %ehcleanup62
  call void @_ZNSt7__cxx1112basic_stringIcSt11char_traitsIcESaIcEED1Ev(ptr noundef nonnull align 8 dereferenceable(32) %value) #3
  br label %eh.resume

if.end93:                                         ; preds = %invoke.cont88, %if.end
  ret void

eh.resume:                                        ; preds = %ehcleanup92, %lpad46, %ehcleanup41, %ehcleanup27, %lpad
  %exn = load ptr, ptr %exn.slot, align 8
  %sel = load i32, ptr %ehselector.slot, align 4
  %lpad.val = insertvalue { ptr, i32 } poison, ptr %exn, 0
  %lpad.val94 = insertvalue { ptr, i32 } %lpad.val, i32 %sel, 1
  resume { ptr, i32 } %lpad.val94
}

; Function Attrs: mustprogress uwtable
define hidden void @_ZNK19OpenColorIO_v2_4dev15TransformWriter8writeOpsERKNS_10CTFVersionE(ptr noundef nonnull align 8 dereferenceable(33) %this, ptr noundef nonnull align 4 dereferenceable(12) %version) #5 align 2 personality ptr @__gxx_personality_v0 {
entry:
  %this.addr = alloca ptr, align 8
  %version.addr = alloca ptr, align 8
  %inBD = alloca i32, align 4
  %outBD = alloca i32, align 4
  %ops = alloca ptr, align 8
  %numOps = alloca i64, align 8
  %numSavedOps = alloca i64, align 8
  %agg.tmp = alloca %"class.std::shared_ptr.28", align 8
  %exn.slot = alloca ptr, align 8
  %ehselector.slot = alloca i32, align 4
  %i = alloca i64, align 8
  %op = alloca ptr, align 8
  %nextOp = alloca ptr, align 8
  %agg.tmp11 = alloca %"class.std::shared_ptr.28", align 8
  %type = alloca i32, align 4
  %cdl = alloca %"class.std::shared_ptr.40", align 8
  %opWriter = alloca %"class.OpenColorIO_v2_4dev::(anonymous namespace)::CDLWriter", align 8
  %agg.tmp23 = alloca %"class.std::shared_ptr.40", align 8
  %exp = alloca %"class.std::shared_ptr.43", align 8
  %paramR = alloca %"class.std::vector.46", align 8
  %agg.tmp31 = alloca %"class.std::initializer_list", align 8
  %ref.tmp = alloca [1 x double], align 8
  %ref.tmp33 = alloca %"class.std::allocator.48", align 1
  %paramG = alloca %"class.std::vector.46", align 8
  %agg.tmp37 = alloca %"class.std::initializer_list", align 8
  %ref.tmp38 = alloca [1 x double], align 8
  %ref.tmp46 = alloca %"class.std::allocator.48", align 1
  %paramB = alloca %"class.std::vector.46", align 8
  %agg.tmp50 = alloca %"class.std::initializer_list", align 8
  %ref.tmp51 = alloca [1 x double], align 8
  %ref.tmp59 = alloca %"class.std::allocator.48", align 1
  %paramA = alloca %"class.std::vector.46", align 8
  %agg.tmp63 = alloca %"class.std::initializer_list", align 8
  %ref.tmp64 = alloca [1 x double], align 8
  %ref.tmp72 = alloca %"class.std::allocator.48", align 1
  %gammaData = alloca %"class.std::shared_ptr.51", align 8
  %ref.tmp76 = alloca i32, align 4
  %ref.tmp93 = alloca %"class.std::__cxx11::basic_string", align 8
  %ref.tmp94 = alloca %"class.std::allocator", align 1
  %opWriter102 = alloca %"class.OpenColorIO_v2_4dev::(anonymous namespace)::GammaWriter", align 8
  %agg.tmp104 = alloca %"class.std::shared_ptr.54", align 8
  %ref.tmp123 = alloca %"class.std::__cxx11::basic_string", align 8
  %ref.tmp124 = alloca %"class.std::allocator", align 1
  %ec = alloca %"class.std::shared_ptr.57", align 8
  %opWriter132 = alloca %"class.OpenColorIO_v2_4dev::(anonymous namespace)::ExposureContrastWriter", align 8
  %agg.tmp134 = alloca %"class.std::shared_ptr.57", align 8
  %ref.tmp148 = alloca %"class.std::__cxx11::basic_string", align 8
  %ref.tmp149 = alloca %"class.std::allocator", align 1
  %ff = alloca %"class.std::shared_ptr.60", align 8
  %opWriter157 = alloca %"class.OpenColorIO_v2_4dev::(anonymous namespace)::FixedFunctionWriter", align 8
  %agg.tmp159 = alloca %"class.std::shared_ptr.60", align 8
  %gamma = alloca %"class.std::shared_ptr.54", align 8
  %ref.tmp178 = alloca %"class.std::__cxx11::basic_string", align 8
  %ref.tmp179 = alloca %"class.std::allocator", align 1
  %opWriter188 = alloca %"class.OpenColorIO_v2_4dev::(anonymous namespace)::GammaWriter", align 8
  %agg.tmp190 = alloca %"class.std::shared_ptr.54", align 8
  %ref.tmp204 = alloca %"class.std::__cxx11::basic_string", align 8
  %ref.tmp205 = alloca %"class.std::allocator", align 1
  %prim = alloca %"class.std::shared_ptr.63", align 8
  %opWriter213 = alloca %"class.OpenColorIO_v2_4dev::(anonymous namespace)::GradingPrimaryWriter", align 8
  %agg.tmp215 = alloca %"class.std::shared_ptr.63", align 8
  %ref.tmp229 = alloca %"class.std::__cxx11::basic_string", align 8
  %ref.tmp230 = alloca %"class.std::allocator", align 1
  %rgb = alloca %"class.std::shared_ptr.66", align 8
  %opWriter238 = alloca %"class.OpenColorIO_v2_4dev::(anonymous namespace)::GradingRGBCurveWriter", align 8
  %agg.tmp240 = alloca %"class.std::shared_ptr.66", align 8
  %ref.tmp254 = alloca %"class.std::__cxx11::basic_string", align 8
  %ref.tmp255 = alloca %"class.std::allocator", align 1
  %tone = alloca %"class.std::shared_ptr.69", align 8
  %opWriter263 = alloca %"class.OpenColorIO_v2_4dev::(anonymous namespace)::GradingToneWriter", align 8
  %agg.tmp265 = alloca %"class.std::shared_ptr.69", align 8
  %log = alloca %"class.std::shared_ptr.72", align 8
  %opWriter276 = alloca %"class.OpenColorIO_v2_4dev::(anonymous namespace)::LogWriter", align 8
  %agg.tmp278 = alloca %"class.std::shared_ptr.72", align 8
  %lut = alloca %"class.std::shared_ptr.75", align 8
  %ref.tmp298 = alloca %"class.std::__cxx11::basic_string", align 8
  %ref.tmp299 = alloca %"class.std::allocator", align 1
  %opWriter308 = alloca %"class.OpenColorIO_v2_4dev::(anonymous namespace)::Lut1DWriter", align 8
  %agg.tmp310 = alloca %"class.std::shared_ptr.75", align 8
  %lut326 = alloca %"class.std::shared_ptr.83", align 8
  %ref.tmp336 = alloca %"class.std::__cxx11::basic_string", align 8
  %ref.tmp337 = alloca %"class.std::allocator", align 1
  %opWriter346 = alloca %"class.OpenColorIO_v2_4dev::(anonymous namespace)::Lut3DWriter", align 8
  %agg.tmp348 = alloca %"class.std::shared_ptr.83", align 8
  %matSrc = alloca %"class.std::shared_ptr.86", align 8
  %ref.tmp372 = alloca %"class.std::__cxx11::basic_string", align 8
  %ref.tmp373 = alloca %"class.std::allocator", align 1
  %mat = alloca %"class.std::shared_ptr.90", align 8
  %opWriter390 = alloca %"class.OpenColorIO_v2_4dev::(anonymous namespace)::MatrixWriter", align 8
  %agg.tmp392 = alloca %"class.std::shared_ptr.86", align 8
  %rangeSrc = alloca %"class.std::shared_ptr.93", align 8
  %range = alloca %"class.std::shared_ptr.96", align 8
  %opWriter413 = alloca %"class.OpenColorIO_v2_4dev::(anonymous namespace)::RangeWriter", align 8
  %agg.tmp415 = alloca %"class.std::shared_ptr.93", align 8
  %mat439 = alloca %"class.std::shared_ptr.90", align 8
  %opWriter440 = alloca %"class.OpenColorIO_v2_4dev::(anonymous namespace)::MatrixWriter", align 8
  %agg.tmp442 = alloca %"class.std::shared_ptr.86", align 8
  store ptr %this, ptr %this.addr, align 8
  store ptr %version, ptr %version.addr, align 8
  %this1 = load ptr, ptr %this.addr, align 8
  store i32 8, ptr %inBD, align 4
  store i32 8, ptr %outBD, align 4
  %m_transform = getelementptr inbounds %"class.OpenColorIO_v2_4dev::TransformWriter", ptr %this1, i32 0, i32 1
  %call = call noundef ptr @_ZNKSt19__shared_ptr_accessIKN19OpenColorIO_v2_4dev18CTFReaderTransformELN9__gnu_cxx12_Lock_policyE2ELb0ELb0EEptEv(ptr noundef nonnull align 1 dereferenceable(1) %m_transform) #3
  %call2 = call noundef nonnull align 8 dereferenceable(24) ptr @_ZNK19OpenColorIO_v2_4dev18CTFReaderTransform6getOpsEv(ptr noundef nonnull align 8 dereferenceable(356) %call)
  store ptr %call2, ptr %ops, align 8
  %0 = load ptr, ptr %ops, align 8
  %call3 = call noundef i64 @_ZNKSt6vectorISt10shared_ptrIKN19OpenColorIO_v2_4dev6OpDataEESaIS4_EE4sizeEv(ptr noundef nonnull align 8 dereferenceable(24) %0) #3
  store i64 %call3, ptr %numOps, align 8
  store i64 0, ptr %numSavedOps, align 8
  %1 = load i64, ptr %numOps, align 8
  %tobool = icmp ne i64 %1, 0
  br i1 %tobool, label %if.then, label %if.end436

if.then:                                          ; preds = %entry
  %2 = load ptr, ptr %ops, align 8
  %call4 = call noundef nonnull align 8 dereferenceable(16) ptr @_ZNKSt6vectorISt10shared_ptrIKN19OpenColorIO_v2_4dev6OpDataEESaIS4_EEixEm(ptr noundef nonnull align 8 dereferenceable(24) %2, i64 noundef 0) #3
  call void @_ZNSt10shared_ptrIKN19OpenColorIO_v2_4dev6OpDataEEC2ERKS3_(ptr noundef nonnull align 8 dereferenceable(16) %agg.tmp, ptr noundef nonnull align 8 dereferenceable(16) %call4) #3
  %call5 = invoke noundef i32 @_ZN19OpenColorIO_v2_4dev12_GLOBAL__N_114GetInputFileBDESt10shared_ptrIKNS_6OpDataEE(ptr noundef %agg.tmp)
          to label %invoke.cont unwind label %lpad

invoke.cont:                                      ; preds = %if.then
  store i32 %call5, ptr %inBD, align 4
  call void @_ZNSt10shared_ptrIKN19OpenColorIO_v2_4dev6OpDataEED2Ev(ptr noundef nonnull align 8 dereferenceable(16) %agg.tmp) #3
  store i64 0, ptr %i, align 8
  br label %for.cond

for.cond:                                         ; preds = %for.inc, %invoke.cont
  %3 = load i64, ptr %i, align 8
  %4 = load i64, ptr %numOps, align 8
  %cmp = icmp ult i64 %3, %4
  br i1 %cmp, label %for.body, label %for.end

for.body:                                         ; preds = %for.cond
  %5 = load ptr, ptr %ops, align 8
  %6 = load i64, ptr %i, align 8
  %call6 = call noundef nonnull align 8 dereferenceable(16) ptr @_ZNKSt6vectorISt10shared_ptrIKN19OpenColorIO_v2_4dev6OpDataEESaIS4_EEixEm(ptr noundef nonnull align 8 dereferenceable(24) %5, i64 noundef %6) #3
  store ptr %call6, ptr %op, align 8
  %7 = load i64, ptr %i, align 8
  %add = add i64 %7, 1
  %8 = load i64, ptr %numOps, align 8
  %cmp7 = icmp ult i64 %add, %8
  br i1 %cmp7, label %if.then8, label %if.end

if.then8:                                         ; preds = %for.body
  %9 = load ptr, ptr %ops, align 8
  %10 = load i64, ptr %i, align 8
  %add9 = add i64 %10, 1
  %call10 = call noundef nonnull align 8 dereferenceable(16) ptr @_ZNKSt6vectorISt10shared_ptrIKN19OpenColorIO_v2_4dev6OpDataEESaIS4_EEixEm(ptr noundef nonnull align 8 dereferenceable(24) %9, i64 noundef %add9) #3
  store ptr %call10, ptr %nextOp, align 8
  %11 = load ptr, ptr %nextOp, align 8
  call void @_ZNSt10shared_ptrIKN19OpenColorIO_v2_4dev6OpDataEEC2ERKS3_(ptr noundef nonnull align 8 dereferenceable(16) %agg.tmp11, ptr noundef nonnull align 8 dereferenceable(16) %11) #3
  %call14 = invoke noundef i32 @_ZN19OpenColorIO_v2_4dev12_GLOBAL__N_114GetInputFileBDESt10shared_ptrIKNS_6OpDataEE(ptr noundef %agg.tmp11)
          to label %invoke.cont13 unwind label %lpad12

invoke.cont13:                                    ; preds = %if.then8
  store i32 %call14, ptr %outBD, align 4
  call void @_ZNSt10shared_ptrIKN19OpenColorIO_v2_4dev6OpDataEED2Ev(ptr noundef nonnull align 8 dereferenceable(16) %agg.tmp11) #3
  br label %if.end

lpad:                                             ; preds = %if.then
  %12 = landingpad { ptr, i32 }
          cleanup
  %13 = extractvalue { ptr, i32 } %12, 0
  store ptr %13, ptr %exn.slot, align 8
  %14 = extractvalue { ptr, i32 } %12, 1
  store i32 %14, ptr %ehselector.slot, align 4
  call void @_ZNSt10shared_ptrIKN19OpenColorIO_v2_4dev6OpDataEED2Ev(ptr noundef nonnull align 8 dereferenceable(16) %agg.tmp) #3
  br label %eh.resume

lpad12:                                           ; preds = %if.then8
  %15 = landingpad { ptr, i32 }
          cleanup
  %16 = extractvalue { ptr, i32 } %15, 0
  store ptr %16, ptr %exn.slot, align 8
  %17 = extractvalue { ptr, i32 } %15, 1
  store i32 %17, ptr %ehselector.slot, align 4
  call void @_ZNSt10shared_ptrIKN19OpenColorIO_v2_4dev6OpDataEED2Ev(ptr noundef nonnull align 8 dereferenceable(16) %agg.tmp11) #3
  br label %eh.resume

if.end:                                           ; preds = %invoke.cont13, %for.body
  %18 = load ptr, ptr %op, align 8
  %call15 = call noundef ptr @_ZNKSt19__shared_ptr_accessIKN19OpenColorIO_v2_4dev6OpDataELN9__gnu_cxx12_Lock_policyE2ELb0ELb0EEptEv(ptr noundef nonnull align 1 dereferenceable(1) %18) #3
  %vtable = load ptr, ptr %call15, align 8
  %vfn = getelementptr inbounds ptr, ptr %vtable, i64 3
  %19 = load ptr, ptr %vfn, align 8
  %call16 = call noundef i32 %19(ptr noundef nonnull align 8 dereferenceable(168) %call15)
  store i32 %call16, ptr %type, align 4
  %20 = load i32, ptr %type, align 4
  %cmp17 = icmp ne i32 %20, 14
  br i1 %cmp17, label %if.then18, label %if.end22

if.then18:                                        ; preds = %if.end
  %21 = load ptr, ptr %op, align 8
  %call19 = call noundef ptr @_ZNKSt19__shared_ptr_accessIKN19OpenColorIO_v2_4dev6OpDataELN9__gnu_cxx12_Lock_policyE2ELb0ELb0EEptEv(ptr noundef nonnull align 1 dereferenceable(1) %21) #3
  %vtable20 = load ptr, ptr %call19, align 8
  %vfn21 = getelementptr inbounds ptr, ptr %vtable20, i64 2
  %22 = load ptr, ptr %vfn21, align 8
  call void %22(ptr noundef nonnull align 8 dereferenceable(168) %call19)
  %23 = load i64, ptr %numSavedOps, align 8
  %inc = add i64 %23, 1
  store i64 %inc, ptr %numSavedOps, align 8
  br label %if.end22

if.end22:                                         ; preds = %if.then18, %if.end
  %24 = load i32, ptr %type, align 4
  switch i32 %24, label %sw.epilog [
    i32 0, label %sw.bb
    i32 1, label %sw.bb30
    i32 2, label %sw.bb119
    i32 3, label %sw.bb144
    i32 4, label %sw.bb169
    i32 5, label %sw.bb200
    i32 6, label %sw.bb225
    i32 7, label %sw.bb250
    i32 8, label %sw.bb275
    i32 9, label %sw.bb288
    i32 10, label %sw.bb325
    i32 11, label %sw.bb363
    i32 12, label %sw.bb403
    i32 13, label %sw.bb426
    i32 14, label %sw.bb430
  ]

sw.bb:                                            ; preds = %if.end22
  %25 = load ptr, ptr %op, align 8
  call void @_ZSt20dynamic_pointer_castIKN19OpenColorIO_v2_4dev9CDLOpDataEKNS0_6OpDataEESt10shared_ptrIT_ERKS5_IT0_E(ptr sret(%"class.std::shared_ptr.40") align 8 %cdl, ptr noundef nonnull align 8 dereferenceable(16) %25) #3
  %m_formatter = getelementptr inbounds %"class.OpenColorIO_v2_4dev::XmlElementWriter", ptr %this1, i32 0, i32 1
  %26 = load ptr, ptr %m_formatter, align 8
  call void @_ZNSt10shared_ptrIKN19OpenColorIO_v2_4dev9CDLOpDataEEC2ERKS3_(ptr noundef nonnull align 8 dereferenceable(16) %agg.tmp23, ptr noundef nonnull align 8 dereferenceable(16) %cdl) #3
  invoke void @_ZN19OpenColorIO_v2_4dev12_GLOBAL__N_19CDLWriterC2ERNS_12XmlFormatterESt10shared_ptrIKNS_9CDLOpDataEE(ptr noundef nonnull align 8 dereferenceable(40) %opWriter, ptr noundef nonnull align 8 dereferenceable(16) %26, ptr noundef %agg.tmp23)
          to label %invoke.cont25 unwind label %lpad24

invoke.cont25:                                    ; preds = %sw.bb
  call void @_ZNSt10shared_ptrIKN19OpenColorIO_v2_4dev9CDLOpDataEED2Ev(ptr noundef nonnull align 8 dereferenceable(16) %agg.tmp23) #3
  %27 = load i32, ptr %inBD, align 4
  invoke void @_ZN19OpenColorIO_v2_4dev12_GLOBAL__N_18OpWriter16setInputBitdepthENS_8BitDepthE(ptr noundef nonnull align 8 dereferenceable(24) %opWriter, i32 noundef %27)
          to label %invoke.cont27 unwind label %lpad26

invoke.cont27:                                    ; preds = %invoke.cont25
  %28 = load i32, ptr %outBD, align 4
  invoke void @_ZN19OpenColorIO_v2_4dev12_GLOBAL__N_18OpWriter17setOutputBitdepthENS_8BitDepthE(ptr noundef nonnull align 8 dereferenceable(24) %opWriter, i32 noundef %28)
          to label %invoke.cont28 unwind label %lpad26

invoke.cont28:                                    ; preds = %invoke.cont27
  invoke void @_ZNK19OpenColorIO_v2_4dev12_GLOBAL__N_18OpWriter5writeEv(ptr noundef nonnull align 8 dereferenceable(24) %opWriter)
          to label %invoke.cont29 unwind label %lpad26

invoke.cont29:                                    ; preds = %invoke.cont28
  call void @_ZN19OpenColorIO_v2_4dev12_GLOBAL__N_19CDLWriterD2Ev(ptr noundef nonnull align 8 dereferenceable(40) %opWriter) #3
  call void @_ZNSt10shared_ptrIKN19OpenColorIO_v2_4dev9CDLOpDataEED2Ev(ptr noundef nonnull align 8 dereferenceable(16) %cdl) #3
  br label %sw.epilog

lpad24:                                           ; preds = %sw.bb
  %29 = landingpad { ptr, i32 }
          cleanup
  %30 = extractvalue { ptr, i32 } %29, 0
  store ptr %30, ptr %exn.slot, align 8
  %31 = extractvalue { ptr, i32 } %29, 1
  store i32 %31, ptr %ehselector.slot, align 4
  call void @_ZNSt10shared_ptrIKN19OpenColorIO_v2_4dev9CDLOpDataEED2Ev(ptr noundef nonnull align 8 dereferenceable(16) %agg.tmp23) #3
  br label %ehcleanup

lpad26:                                           ; preds = %invoke.cont28, %invoke.cont27, %invoke.cont25
  %32 = landingpad { ptr, i32 }
          cleanup
  %33 = extractvalue { ptr, i32 } %32, 0
  store ptr %33, ptr %exn.slot, align 8
  %34 = extractvalue { ptr, i32 } %32, 1
  store i32 %34, ptr %ehselector.slot, align 4
  call void @_ZN19OpenColorIO_v2_4dev12_GLOBAL__N_19CDLWriterD2Ev(ptr noundef nonnull align 8 dereferenceable(40) %opWriter) #3
  br label %ehcleanup

ehcleanup:                                        ; preds = %lpad26, %lpad24
  call void @_ZNSt10shared_ptrIKN19OpenColorIO_v2_4dev9CDLOpDataEED2Ev(ptr noundef nonnull align 8 dereferenceable(16) %cdl) #3
  br label %eh.resume

sw.bb30:                                          ; preds = %if.end22
  %35 = load ptr, ptr %op, align 8
  call void @_ZSt20dynamic_pointer_castIKN19OpenColorIO_v2_4dev14ExponentOpDataEKNS0_6OpDataEESt10shared_ptrIT_ERKS5_IT0_E(ptr sret(%"class.std::shared_ptr.43") align 8 %exp, ptr noundef nonnull align 8 dereferenceable(16) %35) #3
  %arrayinit.begin = getelementptr inbounds [1 x double], ptr %ref.tmp, i64 0, i64 0
  %call32 = call noundef ptr @_ZNKSt19__shared_ptr_accessIKN19OpenColorIO_v2_4dev14ExponentOpDataELN9__gnu_cxx12_Lock_policyE2ELb0ELb0EEptEv(ptr noundef nonnull align 1 dereferenceable(1) %exp) #3
  %m_exp4 = getelementptr inbounds %"class.OpenColorIO_v2_4dev::ExponentOpData", ptr %call32, i32 0, i32 1
  %arrayidx = getelementptr inbounds [4 x double], ptr %m_exp4, i64 0, i64 0
  %36 = load double, ptr %arrayidx, align 8
  store double %36, ptr %arrayinit.begin, align 8
  %_M_array = getelementptr inbounds %"class.std::initializer_list", ptr %agg.tmp31, i32 0, i32 0
  %arraystart = getelementptr inbounds [1 x double], ptr %ref.tmp, i64 0, i64 0
  store ptr %arraystart, ptr %_M_array, align 8
  %_M_len = getelementptr inbounds %"class.std::initializer_list", ptr %agg.tmp31, i32 0, i32 1
  store i64 1, ptr %_M_len, align 8
  call void @_ZNSaIdEC2Ev(ptr noundef nonnull align 1 dereferenceable(1) %ref.tmp33) #3
  %37 = getelementptr inbounds { ptr, i64 }, ptr %agg.tmp31, i32 0, i32 0
  %38 = load ptr, ptr %37, align 8
  %39 = getelementptr inbounds { ptr, i64 }, ptr %agg.tmp31, i32 0, i32 1
  %40 = load i64, ptr %39, align 8
  invoke void @_ZNSt6vectorIdSaIdEEC2ESt16initializer_listIdERKS0_(ptr noundef nonnull align 8 dereferenceable(24) %paramR, ptr %38, i64 %40, ptr noundef nonnull align 1 dereferenceable(1) %ref.tmp33)
          to label %invoke.cont35 unwind label %lpad34

invoke.cont35:                                    ; preds = %sw.bb30
  call void @_ZNSaIdED2Ev(ptr noundef nonnull align 1 dereferenceable(1) %ref.tmp33) #3
  %arrayinit.begin39 = getelementptr inbounds [1 x double], ptr %ref.tmp38, i64 0, i64 0
  %call40 = call noundef ptr @_ZNKSt19__shared_ptr_accessIKN19OpenColorIO_v2_4dev14ExponentOpDataELN9__gnu_cxx12_Lock_policyE2ELb0ELb0EEptEv(ptr noundef nonnull align 1 dereferenceable(1) %exp) #3
  %m_exp441 = getelementptr inbounds %"class.OpenColorIO_v2_4dev::ExponentOpData", ptr %call40, i32 0, i32 1
  %arrayidx42 = getelementptr inbounds [4 x double], ptr %m_exp441, i64 0, i64 1
  %41 = load double, ptr %arrayidx42, align 8
  store double %41, ptr %arrayinit.begin39, align 8
  %_M_array43 = getelementptr inbounds %"class.std::initializer_list", ptr %agg.tmp37, i32 0, i32 0
  %arraystart44 = getelementptr inbounds [1 x double], ptr %ref.tmp38, i64 0, i64 0
  store ptr %arraystart44, ptr %_M_array43, align 8
  %_M_len45 = getelementptr inbounds %"class.std::initializer_list", ptr %agg.tmp37, i32 0, i32 1
  store i64 1, ptr %_M_len45, align 8
  call void @_ZNSaIdEC2Ev(ptr noundef nonnull align 1 dereferenceable(1) %ref.tmp46) #3
  %42 = getelementptr inbounds { ptr, i64 }, ptr %agg.tmp37, i32 0, i32 0
  %43 = load ptr, ptr %42, align 8
  %44 = getelementptr inbounds { ptr, i64 }, ptr %agg.tmp37, i32 0, i32 1
  %45 = load i64, ptr %44, align 8
  invoke void @_ZNSt6vectorIdSaIdEEC2ESt16initializer_listIdERKS0_(ptr noundef nonnull align 8 dereferenceable(24) %paramG, ptr %43, i64 %45, ptr noundef nonnull align 1 dereferenceable(1) %ref.tmp46)
          to label %invoke.cont48 unwind label %lpad47

invoke.cont48:                                    ; preds = %invoke.cont35
  call void @_ZNSaIdED2Ev(ptr noundef nonnull align 1 dereferenceable(1) %ref.tmp46) #3
  %arrayinit.begin52 = getelementptr inbounds [1 x double], ptr %ref.tmp51, i64 0, i64 0
  %call53 = call noundef ptr @_ZNKSt19__shared_ptr_accessIKN19OpenColorIO_v2_4dev14ExponentOpDataELN9__gnu_cxx12_Lock_policyE2ELb0ELb0EEptEv(ptr noundef nonnull align 1 dereferenceable(1) %exp) #3
  %m_exp454 = getelementptr inbounds %"class.OpenColorIO_v2_4dev::ExponentOpData", ptr %call53, i32 0, i32 1
  %arrayidx55 = getelementptr inbounds [4 x double], ptr %m_exp454, i64 0, i64 2
  %46 = load double, ptr %arrayidx55, align 8
  store double %46, ptr %arrayinit.begin52, align 8
  %_M_array56 = getelementptr inbounds %"class.std::initializer_list", ptr %agg.tmp50, i32 0, i32 0
  %arraystart57 = getelementptr inbounds [1 x double], ptr %ref.tmp51, i64 0, i64 0
  store ptr %arraystart57, ptr %_M_array56, align 8
  %_M_len58 = getelementptr inbounds %"class.std::initializer_list", ptr %agg.tmp50, i32 0, i32 1
  store i64 1, ptr %_M_len58, align 8
  call void @_ZNSaIdEC2Ev(ptr noundef nonnull align 1 dereferenceable(1) %ref.tmp59) #3
  %47 = getelementptr inbounds { ptr, i64 }, ptr %agg.tmp50, i32 0, i32 0
  %48 = load ptr, ptr %47, align 8
  %49 = getelementptr inbounds { ptr, i64 }, ptr %agg.tmp50, i32 0, i32 1
  %50 = load i64, ptr %49, align 8
  invoke void @_ZNSt6vectorIdSaIdEEC2ESt16initializer_listIdERKS0_(ptr noundef nonnull align 8 dereferenceable(24) %paramB, ptr %48, i64 %50, ptr noundef nonnull align 1 dereferenceable(1) %ref.tmp59)
          to label %invoke.cont61 unwind label %lpad60

invoke.cont61:                                    ; preds = %invoke.cont48
  call void @_ZNSaIdED2Ev(ptr noundef nonnull align 1 dereferenceable(1) %ref.tmp59) #3
  %arrayinit.begin65 = getelementptr inbounds [1 x double], ptr %ref.tmp64, i64 0, i64 0
  %call66 = call noundef ptr @_ZNKSt19__shared_ptr_accessIKN19OpenColorIO_v2_4dev14ExponentOpDataELN9__gnu_cxx12_Lock_policyE2ELb0ELb0EEptEv(ptr noundef nonnull align 1 dereferenceable(1) %exp) #3
  %m_exp467 = getelementptr inbounds %"class.OpenColorIO_v2_4dev::ExponentOpData", ptr %call66, i32 0, i32 1
  %arrayidx68 = getelementptr inbounds [4 x double], ptr %m_exp467, i64 0, i64 3
  %51 = load double, ptr %arrayidx68, align 8
  store double %51, ptr %arrayinit.begin65, align 8
  %_M_array69 = getelementptr inbounds %"class.std::initializer_list", ptr %agg.tmp63, i32 0, i32 0
  %arraystart70 = getelementptr inbounds [1 x double], ptr %ref.tmp64, i64 0, i64 0
  store ptr %arraystart70, ptr %_M_array69, align 8
  %_M_len71 = getelementptr inbounds %"class.std::initializer_list", ptr %agg.tmp63, i32 0, i32 1
  store i64 1, ptr %_M_len71, align 8
  call void @_ZNSaIdEC2Ev(ptr noundef nonnull align 1 dereferenceable(1) %ref.tmp72) #3
  %52 = getelementptr inbounds { ptr, i64 }, ptr %agg.tmp63, i32 0, i32 0
  %53 = load ptr, ptr %52, align 8
  %54 = getelementptr inbounds { ptr, i64 }, ptr %agg.tmp63, i32 0, i32 1
  %55 = load i64, ptr %54, align 8
  invoke void @_ZNSt6vectorIdSaIdEEC2ESt16initializer_listIdERKS0_(ptr noundef nonnull align 8 dereferenceable(24) %paramA, ptr %53, i64 %55, ptr noundef nonnull align 1 dereferenceable(1) %ref.tmp72)
          to label %invoke.cont74 unwind label %lpad73

invoke.cont74:                                    ; preds = %invoke.cont61
  call void @_ZNSaIdED2Ev(ptr noundef nonnull align 1 dereferenceable(1) %ref.tmp72) #3
  store i32 0, ptr %ref.tmp76, align 4
  invoke void @_ZSt11make_sharedIN19OpenColorIO_v2_4dev11GammaOpDataEJNS1_5StyleERSt6vectorIdSaIdEES6_S6_S6_EESt10shared_ptrINSt9enable_ifIXntsr8is_arrayIT_EE5valueES9_E4typeEEDpOT0_(ptr sret(%"class.std::shared_ptr.51") align 8 %gammaData, ptr noundef nonnull align 4 dereferenceable(4) %ref.tmp76, ptr noundef nonnull align 8 dereferenceable(24) %paramR, ptr noundef nonnull align 8 dereferenceable(24) %paramG, ptr noundef nonnull align 8 dereferenceable(24) %paramB, ptr noundef nonnull align 8 dereferenceable(24) %paramA)
          to label %invoke.cont78 unwind label %lpad77

invoke.cont78:                                    ; preds = %invoke.cont74
  %call79 = call noundef ptr @_ZNKSt19__shared_ptr_accessIKN19OpenColorIO_v2_4dev14ExponentOpDataELN9__gnu_cxx12_Lock_policyE2ELb0ELb0EEptEv(ptr noundef nonnull align 1 dereferenceable(1) %exp) #3
  %call82 = invoke noundef nonnull align 8 dereferenceable(120) ptr @_ZNK19OpenColorIO_v2_4dev6OpData17getFormatMetadataEv(ptr noundef nonnull align 8 dereferenceable(168) %call79)
          to label %invoke.cont81 unwind label %lpad80

invoke.cont81:                                    ; preds = %invoke.cont78
  %call83 = call noundef ptr @_ZNKSt19__shared_ptr_accessIN19OpenColorIO_v2_4dev11GammaOpDataELN9__gnu_cxx12_Lock_policyE2ELb0ELb0EEptEv(ptr noundef nonnull align 1 dereferenceable(1) %gammaData) #3
  %call85 = invoke noundef nonnull align 8 dereferenceable(120) ptr @_ZN19OpenColorIO_v2_4dev6OpData17getFormatMetadataEv(ptr noundef nonnull align 8 dereferenceable(168) %call83)
          to label %invoke.cont84 unwind label %lpad80

invoke.cont84:                                    ; preds = %invoke.cont81
  %call87 = invoke noundef nonnull align 8 dereferenceable(120) ptr @_ZN19OpenColorIO_v2_4dev18FormatMetadataImplaSERKS0_(ptr noundef nonnull align 8 dereferenceable(120) %call85, ptr noundef nonnull align 8 dereferenceable(120) %call82)
          to label %invoke.cont86 unwind label %lpad80

invoke.cont86:                                    ; preds = %invoke.cont84
  %m_isCLF = getelementptr inbounds %"class.OpenColorIO_v2_4dev::TransformWriter", ptr %this1, i32 0, i32 2
  %56 = load i8, ptr %m_isCLF, align 8
  %tobool88 = trunc i8 %56 to i1
  br i1 %tobool88, label %land.lhs.true, label %if.end101

land.lhs.true:                                    ; preds = %invoke.cont86
  %call89 = call noundef ptr @_ZNKSt19__shared_ptr_accessIN19OpenColorIO_v2_4dev11GammaOpDataELN9__gnu_cxx12_Lock_policyE2ELb0ELb0EEptEv(ptr noundef nonnull align 1 dereferenceable(1) %gammaData) #3
  %call91 = invoke noundef zeroext i1 @_ZNK19OpenColorIO_v2_4dev11GammaOpData24isAlphaComponentIdentityEv(ptr noundef nonnull align 8 dereferenceable(272) %call89)
          to label %invoke.cont90 unwind label %lpad80

invoke.cont90:                                    ; preds = %land.lhs.true
  br i1 %call91, label %if.end101, label %if.then92

if.then92:                                        ; preds = %invoke.cont90
  call void @_ZNSaIcEC1Ev(ptr noundef nonnull align 1 dereferenceable(1) %ref.tmp94) #3
  invoke void @_ZNSt7__cxx1112basic_stringIcSt11char_traitsIcESaIcEEC1EPKcRKS3_(ptr noundef nonnull align 8 dereferenceable(32) %ref.tmp93, ptr noundef @.str.16, ptr noundef nonnull align 1 dereferenceable(1) %ref.tmp94)
          to label %invoke.cont96 unwind label %lpad95

invoke.cont96:                                    ; preds = %if.then92
  invoke void @_ZN19OpenColorIO_v2_4dev12_GLOBAL__N_112ThrowWriteOpERKNSt7__cxx1112basic_stringIcSt11char_traitsIcESaIcEEE(ptr noundef nonnull align 8 dereferenceable(32) %ref.tmp93)
          to label %invoke.cont98 unwind label %lpad97

invoke.cont98:                                    ; preds = %invoke.cont96
  call void @_ZNSt7__cxx1112basic_stringIcSt11char_traitsIcESaIcEED1Ev(ptr noundef nonnull align 8 dereferenceable(32) %ref.tmp93) #3
  call void @_ZNSaIcED1Ev(ptr noundef nonnull align 1 dereferenceable(1) %ref.tmp94) #3
  br label %if.end101

lpad34:                                           ; preds = %sw.bb30
  %57 = landingpad { ptr, i32 }
          cleanup
  %58 = extractvalue { ptr, i32 } %57, 0
  store ptr %58, ptr %exn.slot, align 8
  %59 = extractvalue { ptr, i32 } %57, 1
  store i32 %59, ptr %ehselector.slot, align 4
  call void @_ZNSaIdED2Ev(ptr noundef nonnull align 1 dereferenceable(1) %ref.tmp33) #3
  br label %ehcleanup118

lpad47:                                           ; preds = %invoke.cont35
  %60 = landingpad { ptr, i32 }
          cleanup
  %61 = extractvalue { ptr, i32 } %60, 0
  store ptr %61, ptr %exn.slot, align 8
  %62 = extractvalue { ptr, i32 } %60, 1
  store i32 %62, ptr %ehselector.slot, align 4
  call void @_ZNSaIdED2Ev(ptr noundef nonnull align 1 dereferenceable(1) %ref.tmp46) #3
  br label %ehcleanup117

lpad60:                                           ; preds = %invoke.cont48
  %63 = landingpad { ptr, i32 }
          cleanup
  %64 = extractvalue { ptr, i32 } %63, 0
  store ptr %64, ptr %exn.slot, align 8
  %65 = extractvalue { ptr, i32 } %63, 1
  store i32 %65, ptr %ehselector.slot, align 4
  call void @_ZNSaIdED2Ev(ptr noundef nonnull align 1 dereferenceable(1) %ref.tmp59) #3
  br label %ehcleanup116

lpad73:                                           ; preds = %invoke.cont61
  %66 = landingpad { ptr, i32 }
          cleanup
  %67 = extractvalue { ptr, i32 } %66, 0
  store ptr %67, ptr %exn.slot, align 8
  %68 = extractvalue { ptr, i32 } %66, 1
  store i32 %68, ptr %ehselector.slot, align 4
  call void @_ZNSaIdED2Ev(ptr noundef nonnull align 1 dereferenceable(1) %ref.tmp72) #3
  br label %ehcleanup115

lpad77:                                           ; preds = %invoke.cont74
  %69 = landingpad { ptr, i32 }
          cleanup
  %70 = extractvalue { ptr, i32 } %69, 0
  store ptr %70, ptr %exn.slot, align 8
  %71 = extractvalue { ptr, i32 } %69, 1
  store i32 %71, ptr %ehselector.slot, align 4
  br label %ehcleanup114

lpad80:                                           ; preds = %land.lhs.true, %invoke.cont84, %invoke.cont81, %invoke.cont78
  %72 = landingpad { ptr, i32 }
          cleanup
  %73 = extractvalue { ptr, i32 } %72, 0
  store ptr %73, ptr %exn.slot, align 8
  %74 = extractvalue { ptr, i32 } %72, 1
  store i32 %74, ptr %ehselector.slot, align 4
  br label %ehcleanup113

lpad95:                                           ; preds = %if.then92
  %75 = landingpad { ptr, i32 }
          cleanup
  %76 = extractvalue { ptr, i32 } %75, 0
  store ptr %76, ptr %exn.slot, align 8
  %77 = extractvalue { ptr, i32 } %75, 1
  store i32 %77, ptr %ehselector.slot, align 4
  br label %ehcleanup100

lpad97:                                           ; preds = %invoke.cont96
  %78 = landingpad { ptr, i32 }
          cleanup
  %79 = extractvalue { ptr, i32 } %78, 0
  store ptr %79, ptr %exn.slot, align 8
  %80 = extractvalue { ptr, i32 } %78, 1
  store i32 %80, ptr %ehselector.slot, align 4
  call void @_ZNSt7__cxx1112basic_stringIcSt11char_traitsIcESaIcEED1Ev(ptr noundef nonnull align 8 dereferenceable(32) %ref.tmp93) #3
  br label %ehcleanup100

ehcleanup100:                                     ; preds = %lpad97, %lpad95
  call void @_ZNSaIcED1Ev(ptr noundef nonnull align 1 dereferenceable(1) %ref.tmp94) #3
  br label %ehcleanup113

if.end101:                                        ; preds = %invoke.cont98, %invoke.cont90, %invoke.cont86
  %m_formatter103 = getelementptr inbounds %"class.OpenColorIO_v2_4dev::XmlElementWriter", ptr %this1, i32 0, i32 1
  %81 = load ptr, ptr %m_formatter103, align 8
  %82 = load ptr, ptr %version.addr, align 8
  call void @_ZNSt10shared_ptrIKN19OpenColorIO_v2_4dev11GammaOpDataEEC2IS1_vEERKS_IT_E(ptr noundef nonnull align 8 dereferenceable(16) %agg.tmp104, ptr noundef nonnull align 8 dereferenceable(16) %gammaData) #3
  invoke void @_ZN19OpenColorIO_v2_4dev12_GLOBAL__N_111GammaWriterC2ERNS_12XmlFormatterERKNS_10CTFVersionESt10shared_ptrIKNS_11GammaOpDataEE(ptr noundef nonnull align 8 dereferenceable(56) %opWriter102, ptr noundef nonnull align 8 dereferenceable(16) %81, ptr noundef nonnull align 4 dereferenceable(12) %82, ptr noundef %agg.tmp104)
          to label %invoke.cont106 unwind label %lpad105

invoke.cont106:                                   ; preds = %if.end101
  call void @_ZNSt10shared_ptrIKN19OpenColorIO_v2_4dev11GammaOpDataEED2Ev(ptr noundef nonnull align 8 dereferenceable(16) %agg.tmp104) #3
  %83 = load i32, ptr %inBD, align 4
  invoke void @_ZN19OpenColorIO_v2_4dev12_GLOBAL__N_18OpWriter16setInputBitdepthENS_8BitDepthE(ptr noundef nonnull align 8 dereferenceable(24) %opWriter102, i32 noundef %83)
          to label %invoke.cont109 unwind label %lpad108

invoke.cont109:                                   ; preds = %invoke.cont106
  %84 = load i32, ptr %outBD, align 4
  invoke void @_ZN19OpenColorIO_v2_4dev12_GLOBAL__N_18OpWriter17setOutputBitdepthENS_8BitDepthE(ptr noundef nonnull align 8 dereferenceable(24) %opWriter102, i32 noundef %84)
          to label %invoke.cont110 unwind label %lpad108

invoke.cont110:                                   ; preds = %invoke.cont109
  invoke void @_ZNK19OpenColorIO_v2_4dev12_GLOBAL__N_18OpWriter5writeEv(ptr noundef nonnull align 8 dereferenceable(24) %opWriter102)
          to label %invoke.cont111 unwind label %lpad108

invoke.cont111:                                   ; preds = %invoke.cont110
  call void @_ZN19OpenColorIO_v2_4dev12_GLOBAL__N_111GammaWriterD2Ev(ptr noundef nonnull align 8 dereferenceable(56) %opWriter102) #3
  call void @_ZNSt10shared_ptrIN19OpenColorIO_v2_4dev11GammaOpDataEED2Ev(ptr noundef nonnull align 8 dereferenceable(16) %gammaData) #3
  call void @_ZNSt6vectorIdSaIdEED2Ev(ptr noundef nonnull align 8 dereferenceable(24) %paramA) #3
  call void @_ZNSt6vectorIdSaIdEED2Ev(ptr noundef nonnull align 8 dereferenceable(24) %paramB) #3
  call void @_ZNSt6vectorIdSaIdEED2Ev(ptr noundef nonnull align 8 dereferenceable(24) %paramG) #3
  call void @_ZNSt6vectorIdSaIdEED2Ev(ptr noundef nonnull align 8 dereferenceable(24) %paramR) #3
  call void @_ZNSt10shared_ptrIKN19OpenColorIO_v2_4dev14ExponentOpDataEED2Ev(ptr noundef nonnull align 8 dereferenceable(16) %exp) #3
  br label %sw.epilog

lpad105:                                          ; preds = %if.end101
  %85 = landingpad { ptr, i32 }
          cleanup
  %86 = extractvalue { ptr, i32 } %85, 0
  store ptr %86, ptr %exn.slot, align 8
  %87 = extractvalue { ptr, i32 } %85, 1
  store i32 %87, ptr %ehselector.slot, align 4
  call void @_ZNSt10shared_ptrIKN19OpenColorIO_v2_4dev11GammaOpDataEED2Ev(ptr noundef nonnull align 8 dereferenceable(16) %agg.tmp104) #3
  br label %ehcleanup113

lpad108:                                          ; preds = %invoke.cont110, %invoke.cont109, %invoke.cont106
  %88 = landingpad { ptr, i32 }
          cleanup
  %89 = extractvalue { ptr, i32 } %88, 0
  store ptr %89, ptr %exn.slot, align 8
  %90 = extractvalue { ptr, i32 } %88, 1
  store i32 %90, ptr %ehselector.slot, align 4
  call void @_ZN19OpenColorIO_v2_4dev12_GLOBAL__N_111GammaWriterD2Ev(ptr noundef nonnull align 8 dereferenceable(56) %opWriter102) #3
  br label %ehcleanup113

ehcleanup113:                                     ; preds = %lpad108, %lpad105, %ehcleanup100, %lpad80
  call void @_ZNSt10shared_ptrIN19OpenColorIO_v2_4dev11GammaOpDataEED2Ev(ptr noundef nonnull align 8 dereferenceable(16) %gammaData) #3
  br label %ehcleanup114

ehcleanup114:                                     ; preds = %ehcleanup113, %lpad77
  call void @_ZNSt6vectorIdSaIdEED2Ev(ptr noundef nonnull align 8 dereferenceable(24) %paramA) #3
  br label %ehcleanup115

ehcleanup115:                                     ; preds = %ehcleanup114, %lpad73
  call void @_ZNSt6vectorIdSaIdEED2Ev(ptr noundef nonnull align 8 dereferenceable(24) %paramB) #3
  br label %ehcleanup116

ehcleanup116:                                     ; preds = %ehcleanup115, %lpad60
  call void @_ZNSt6vectorIdSaIdEED2Ev(ptr noundef nonnull align 8 dereferenceable(24) %paramG) #3
  br label %ehcleanup117

ehcleanup117:                                     ; preds = %ehcleanup116, %lpad47
  call void @_ZNSt6vectorIdSaIdEED2Ev(ptr noundef nonnull align 8 dereferenceable(24) %paramR) #3
  br label %ehcleanup118

ehcleanup118:                                     ; preds = %ehcleanup117, %lpad34
  call void @_ZNSt10shared_ptrIKN19OpenColorIO_v2_4dev14ExponentOpDataEED2Ev(ptr noundef nonnull align 8 dereferenceable(16) %exp) #3
  br label %eh.resume

sw.bb119:                                         ; preds = %if.end22
  %m_isCLF120 = getelementptr inbounds %"class.OpenColorIO_v2_4dev::TransformWriter", ptr %this1, i32 0, i32 2
  %91 = load i8, ptr %m_isCLF120, align 8
  %tobool121 = trunc i8 %91 to i1
  br i1 %tobool121, label %if.then122, label %if.end131

if.then122:                                       ; preds = %sw.bb119
  call void @_ZNSaIcEC1Ev(ptr noundef nonnull align 1 dereferenceable(1) %ref.tmp124) #3
  invoke void @_ZNSt7__cxx1112basic_stringIcSt11char_traitsIcESaIcEEC1EPKcRKS3_(ptr noundef nonnull align 8 dereferenceable(32) %ref.tmp123, ptr noundef @.str.17, ptr noundef nonnull align 1 dereferenceable(1) %ref.tmp124)
          to label %invoke.cont126 unwind label %lpad125

invoke.cont126:                                   ; preds = %if.then122
  invoke void @_ZN19OpenColorIO_v2_4dev12_GLOBAL__N_112ThrowWriteOpERKNSt7__cxx1112basic_stringIcSt11char_traitsIcESaIcEEE(ptr noundef nonnull align 8 dereferenceable(32) %ref.tmp123)
          to label %invoke.cont128 unwind label %lpad127

invoke.cont128:                                   ; preds = %invoke.cont126
  call void @_ZNSt7__cxx1112basic_stringIcSt11char_traitsIcESaIcEED1Ev(ptr noundef nonnull align 8 dereferenceable(32) %ref.tmp123) #3
  call void @_ZNSaIcED1Ev(ptr noundef nonnull align 1 dereferenceable(1) %ref.tmp124) #3
  br label %if.end131

lpad125:                                          ; preds = %if.then122
  %92 = landingpad { ptr, i32 }
          cleanup
  %93 = extractvalue { ptr, i32 } %92, 0
  store ptr %93, ptr %exn.slot, align 8
  %94 = extractvalue { ptr, i32 } %92, 1
  store i32 %94, ptr %ehselector.slot, align 4
  br label %ehcleanup130

lpad127:                                          ; preds = %invoke.cont126
  %95 = landingpad { ptr, i32 }
          cleanup
  %96 = extractvalue { ptr, i32 } %95, 0
  store ptr %96, ptr %exn.slot, align 8
  %97 = extractvalue { ptr, i32 } %95, 1
  store i32 %97, ptr %ehselector.slot, align 4
  call void @_ZNSt7__cxx1112basic_stringIcSt11char_traitsIcESaIcEED1Ev(ptr noundef nonnull align 8 dereferenceable(32) %ref.tmp123) #3
  br label %ehcleanup130

ehcleanup130:                                     ; preds = %lpad127, %lpad125
  call void @_ZNSaIcED1Ev(ptr noundef nonnull align 1 dereferenceable(1) %ref.tmp124) #3
  br label %eh.resume

if.end131:                                        ; preds = %invoke.cont128, %sw.bb119
  %98 = load ptr, ptr %op, align 8
  call void @_ZSt20dynamic_pointer_castIKN19OpenColorIO_v2_4dev22ExposureContrastOpDataEKNS0_6OpDataEESt10shared_ptrIT_ERKS5_IT0_E(ptr sret(%"class.std::shared_ptr.57") align 8 %ec, ptr noundef nonnull align 8 dereferenceable(16) %98) #3
  %m_formatter133 = getelementptr inbounds %"class.OpenColorIO_v2_4dev::XmlElementWriter", ptr %this1, i32 0, i32 1
  %99 = load ptr, ptr %m_formatter133, align 8
  call void @_ZNSt10shared_ptrIKN19OpenColorIO_v2_4dev22ExposureContrastOpDataEEC2ERKS3_(ptr noundef nonnull align 8 dereferenceable(16) %agg.tmp134, ptr noundef nonnull align 8 dereferenceable(16) %ec) #3
  invoke void @_ZN19OpenColorIO_v2_4dev12_GLOBAL__N_122ExposureContrastWriterC2ERNS_12XmlFormatterESt10shared_ptrIKNS_22ExposureContrastOpDataEE(ptr noundef nonnull align 8 dereferenceable(40) %opWriter132, ptr noundef nonnull align 8 dereferenceable(16) %99, ptr noundef %agg.tmp134)
          to label %invoke.cont136 unwind label %lpad135

invoke.cont136:                                   ; preds = %if.end131
  call void @_ZNSt10shared_ptrIKN19OpenColorIO_v2_4dev22ExposureContrastOpDataEED2Ev(ptr noundef nonnull align 8 dereferenceable(16) %agg.tmp134) #3
  %100 = load i32, ptr %inBD, align 4
  invoke void @_ZN19OpenColorIO_v2_4dev12_GLOBAL__N_18OpWriter16setInputBitdepthENS_8BitDepthE(ptr noundef nonnull align 8 dereferenceable(24) %opWriter132, i32 noundef %100)
          to label %invoke.cont139 unwind label %lpad138

invoke.cont139:                                   ; preds = %invoke.cont136
  %101 = load i32, ptr %outBD, align 4
  invoke void @_ZN19OpenColorIO_v2_4dev12_GLOBAL__N_18OpWriter17setOutputBitdepthENS_8BitDepthE(ptr noundef nonnull align 8 dereferenceable(24) %opWriter132, i32 noundef %101)
          to label %invoke.cont140 unwind label %lpad138

invoke.cont140:                                   ; preds = %invoke.cont139
  invoke void @_ZNK19OpenColorIO_v2_4dev12_GLOBAL__N_18OpWriter5writeEv(ptr noundef nonnull align 8 dereferenceable(24) %opWriter132)
          to label %invoke.cont141 unwind label %lpad138

invoke.cont141:                                   ; preds = %invoke.cont140
  call void @_ZN19OpenColorIO_v2_4dev12_GLOBAL__N_122ExposureContrastWriterD2Ev(ptr noundef nonnull align 8 dereferenceable(40) %opWriter132) #3
  call void @_ZNSt10shared_ptrIKN19OpenColorIO_v2_4dev22ExposureContrastOpDataEED2Ev(ptr noundef nonnull align 8 dereferenceable(16) %ec) #3
  br label %sw.epilog

lpad135:                                          ; preds = %if.end131
  %102 = landingpad { ptr, i32 }
          cleanup
  %103 = extractvalue { ptr, i32 } %102, 0
  store ptr %103, ptr %exn.slot, align 8
  %104 = extractvalue { ptr, i32 } %102, 1
  store i32 %104, ptr %ehselector.slot, align 4
  call void @_ZNSt10shared_ptrIKN19OpenColorIO_v2_4dev22ExposureContrastOpDataEED2Ev(ptr noundef nonnull align 8 dereferenceable(16) %agg.tmp134) #3
  br label %ehcleanup143

lpad138:                                          ; preds = %invoke.cont140, %invoke.cont139, %invoke.cont136
  %105 = landingpad { ptr, i32 }
          cleanup
  %106 = extractvalue { ptr, i32 } %105, 0
  store ptr %106, ptr %exn.slot, align 8
  %107 = extractvalue { ptr, i32 } %105, 1
  store i32 %107, ptr %ehselector.slot, align 4
  call void @_ZN19OpenColorIO_v2_4dev12_GLOBAL__N_122ExposureContrastWriterD2Ev(ptr noundef nonnull align 8 dereferenceable(40) %opWriter132) #3
  br label %ehcleanup143

ehcleanup143:                                     ; preds = %lpad138, %lpad135
  call void @_ZNSt10shared_ptrIKN19OpenColorIO_v2_4dev22ExposureContrastOpDataEED2Ev(ptr noundef nonnull align 8 dereferenceable(16) %ec) #3
  br label %eh.resume

sw.bb144:                                         ; preds = %if.end22
  %m_isCLF145 = getelementptr inbounds %"class.OpenColorIO_v2_4dev::TransformWriter", ptr %this1, i32 0, i32 2
  %108 = load i8, ptr %m_isCLF145, align 8
  %tobool146 = trunc i8 %108 to i1
  br i1 %tobool146, label %if.then147, label %if.end156

if.then147:                                       ; preds = %sw.bb144
  call void @_ZNSaIcEC1Ev(ptr noundef nonnull align 1 dereferenceable(1) %ref.tmp149) #3
  invoke void @_ZNSt7__cxx1112basic_stringIcSt11char_traitsIcESaIcEEC1EPKcRKS3_(ptr noundef nonnull align 8 dereferenceable(32) %ref.tmp148, ptr noundef @.str.18, ptr noundef nonnull align 1 dereferenceable(1) %ref.tmp149)
          to label %invoke.cont151 unwind label %lpad150

invoke.cont151:                                   ; preds = %if.then147
  invoke void @_ZN19OpenColorIO_v2_4dev12_GLOBAL__N_112ThrowWriteOpERKNSt7__cxx1112basic_stringIcSt11char_traitsIcESaIcEEE(ptr noundef nonnull align 8 dereferenceable(32) %ref.tmp148)
          to label %invoke.cont153 unwind label %lpad152

invoke.cont153:                                   ; preds = %invoke.cont151
  call void @_ZNSt7__cxx1112basic_stringIcSt11char_traitsIcESaIcEED1Ev(ptr noundef nonnull align 8 dereferenceable(32) %ref.tmp148) #3
  call void @_ZNSaIcED1Ev(ptr noundef nonnull align 1 dereferenceable(1) %ref.tmp149) #3
  br label %if.end156

lpad150:                                          ; preds = %if.then147
  %109 = landingpad { ptr, i32 }
          cleanup
  %110 = extractvalue { ptr, i32 } %109, 0
  store ptr %110, ptr %exn.slot, align 8
  %111 = extractvalue { ptr, i32 } %109, 1
  store i32 %111, ptr %ehselector.slot, align 4
  br label %ehcleanup155

lpad152:                                          ; preds = %invoke.cont151
  %112 = landingpad { ptr, i32 }
          cleanup
  %113 = extractvalue { ptr, i32 } %112, 0
  store ptr %113, ptr %exn.slot, align 8
  %114 = extractvalue { ptr, i32 } %112, 1
  store i32 %114, ptr %ehselector.slot, align 4
  call void @_ZNSt7__cxx1112basic_stringIcSt11char_traitsIcESaIcEED1Ev(ptr noundef nonnull align 8 dereferenceable(32) %ref.tmp148) #3
  br label %ehcleanup155

ehcleanup155:                                     ; preds = %lpad152, %lpad150
  call void @_ZNSaIcED1Ev(ptr noundef nonnull align 1 dereferenceable(1) %ref.tmp149) #3
  br label %eh.resume

if.end156:                                        ; preds = %invoke.cont153, %sw.bb144
  %115 = load ptr, ptr %op, align 8
  call void @_ZSt20dynamic_pointer_castIKN19OpenColorIO_v2_4dev19FixedFunctionOpDataEKNS0_6OpDataEESt10shared_ptrIT_ERKS5_IT0_E(ptr sret(%"class.std::shared_ptr.60") align 8 %ff, ptr noundef nonnull align 8 dereferenceable(16) %115) #3
  %m_formatter158 = getelementptr inbounds %"class.OpenColorIO_v2_4dev::XmlElementWriter", ptr %this1, i32 0, i32 1
  %116 = load ptr, ptr %m_formatter158, align 8
  call void @_ZNSt10shared_ptrIKN19OpenColorIO_v2_4dev19FixedFunctionOpDataEEC2ERKS3_(ptr noundef nonnull align 8 dereferenceable(16) %agg.tmp159, ptr noundef nonnull align 8 dereferenceable(16) %ff) #3
  invoke void @_ZN19OpenColorIO_v2_4dev12_GLOBAL__N_119FixedFunctionWriterC2ERNS_12XmlFormatterESt10shared_ptrIKNS_19FixedFunctionOpDataEE(ptr noundef nonnull align 8 dereferenceable(40) %opWriter157, ptr noundef nonnull align 8 dereferenceable(16) %116, ptr noundef %agg.tmp159)
          to label %invoke.cont161 unwind label %lpad160

invoke.cont161:                                   ; preds = %if.end156
  call void @_ZNSt10shared_ptrIKN19OpenColorIO_v2_4dev19FixedFunctionOpDataEED2Ev(ptr noundef nonnull align 8 dereferenceable(16) %agg.tmp159) #3
  %117 = load i32, ptr %inBD, align 4
  invoke void @_ZN19OpenColorIO_v2_4dev12_GLOBAL__N_18OpWriter16setInputBitdepthENS_8BitDepthE(ptr noundef nonnull align 8 dereferenceable(24) %opWriter157, i32 noundef %117)
          to label %invoke.cont164 unwind label %lpad163

invoke.cont164:                                   ; preds = %invoke.cont161
  %118 = load i32, ptr %outBD, align 4
  invoke void @_ZN19OpenColorIO_v2_4dev12_GLOBAL__N_18OpWriter17setOutputBitdepthENS_8BitDepthE(ptr noundef nonnull align 8 dereferenceable(24) %opWriter157, i32 noundef %118)
          to label %invoke.cont165 unwind label %lpad163

invoke.cont165:                                   ; preds = %invoke.cont164
  invoke void @_ZNK19OpenColorIO_v2_4dev12_GLOBAL__N_18OpWriter5writeEv(ptr noundef nonnull align 8 dereferenceable(24) %opWriter157)
          to label %invoke.cont166 unwind label %lpad163

invoke.cont166:                                   ; preds = %invoke.cont165
  call void @_ZN19OpenColorIO_v2_4dev12_GLOBAL__N_119FixedFunctionWriterD2Ev(ptr noundef nonnull align 8 dereferenceable(40) %opWriter157) #3
  call void @_ZNSt10shared_ptrIKN19OpenColorIO_v2_4dev19FixedFunctionOpDataEED2Ev(ptr noundef nonnull align 8 dereferenceable(16) %ff) #3
  br label %sw.epilog

lpad160:                                          ; preds = %if.end156
  %119 = landingpad { ptr, i32 }
          cleanup
  %120 = extractvalue { ptr, i32 } %119, 0
  store ptr %120, ptr %exn.slot, align 8
  %121 = extractvalue { ptr, i32 } %119, 1
  store i32 %121, ptr %ehselector.slot, align 4
  call void @_ZNSt10shared_ptrIKN19OpenColorIO_v2_4dev19FixedFunctionOpDataEED2Ev(ptr noundef nonnull align 8 dereferenceable(16) %agg.tmp159) #3
  br label %ehcleanup168

lpad163:                                          ; preds = %invoke.cont165, %invoke.cont164, %invoke.cont161
  %122 = landingpad { ptr, i32 }
          cleanup
  %123 = extractvalue { ptr, i32 } %122, 0
  store ptr %123, ptr %exn.slot, align 8
  %124 = extractvalue { ptr, i32 } %122, 1
  store i32 %124, ptr %ehselector.slot, align 4
  call void @_ZN19OpenColorIO_v2_4dev12_GLOBAL__N_119FixedFunctionWriterD2Ev(ptr noundef nonnull align 8 dereferenceable(40) %opWriter157) #3
  br label %ehcleanup168

ehcleanup168:                                     ; preds = %lpad163, %lpad160
  call void @_ZNSt10shared_ptrIKN19OpenColorIO_v2_4dev19FixedFunctionOpDataEED2Ev(ptr noundef nonnull align 8 dereferenceable(16) %ff) #3
  br label %eh.resume

sw.bb169:                                         ; preds = %if.end22
  %125 = load ptr, ptr %op, align 8
  call void @_ZSt20dynamic_pointer_castIKN19OpenColorIO_v2_4dev11GammaOpDataEKNS0_6OpDataEESt10shared_ptrIT_ERKS5_IT0_E(ptr sret(%"class.std::shared_ptr.54") align 8 %gamma, ptr noundef nonnull align 8 dereferenceable(16) %125) #3
  %m_isCLF170 = getelementptr inbounds %"class.OpenColorIO_v2_4dev::TransformWriter", ptr %this1, i32 0, i32 2
  %126 = load i8, ptr %m_isCLF170, align 8
  %tobool171 = trunc i8 %126 to i1
  br i1 %tobool171, label %if.then172, label %if.end187

if.then172:                                       ; preds = %sw.bb169
  %call173 = call noundef ptr @_ZNKSt19__shared_ptr_accessIKN19OpenColorIO_v2_4dev11GammaOpDataELN9__gnu_cxx12_Lock_policyE2ELb0ELb0EEptEv(ptr noundef nonnull align 1 dereferenceable(1) %gamma) #3
  %call176 = invoke noundef zeroext i1 @_ZNK19OpenColorIO_v2_4dev11GammaOpData24isAlphaComponentIdentityEv(ptr noundef nonnull align 8 dereferenceable(272) %call173)
          to label %invoke.cont175 unwind label %lpad174

invoke.cont175:                                   ; preds = %if.then172
  br i1 %call176, label %if.end186, label %if.then177

if.then177:                                       ; preds = %invoke.cont175
  call void @_ZNSaIcEC1Ev(ptr noundef nonnull align 1 dereferenceable(1) %ref.tmp179) #3
  invoke void @_ZNSt7__cxx1112basic_stringIcSt11char_traitsIcESaIcEEC1EPKcRKS3_(ptr noundef nonnull align 8 dereferenceable(32) %ref.tmp178, ptr noundef @.str.19, ptr noundef nonnull align 1 dereferenceable(1) %ref.tmp179)
          to label %invoke.cont181 unwind label %lpad180

invoke.cont181:                                   ; preds = %if.then177
  invoke void @_ZN19OpenColorIO_v2_4dev12_GLOBAL__N_112ThrowWriteOpERKNSt7__cxx1112basic_stringIcSt11char_traitsIcESaIcEEE(ptr noundef nonnull align 8 dereferenceable(32) %ref.tmp178)
          to label %invoke.cont183 unwind label %lpad182

invoke.cont183:                                   ; preds = %invoke.cont181
  call void @_ZNSt7__cxx1112basic_stringIcSt11char_traitsIcESaIcEED1Ev(ptr noundef nonnull align 8 dereferenceable(32) %ref.tmp178) #3
  call void @_ZNSaIcED1Ev(ptr noundef nonnull align 1 dereferenceable(1) %ref.tmp179) #3
  br label %if.end186

lpad174:                                          ; preds = %if.then172
  %127 = landingpad { ptr, i32 }
          cleanup
  %128 = extractvalue { ptr, i32 } %127, 0
  store ptr %128, ptr %exn.slot, align 8
  %129 = extractvalue { ptr, i32 } %127, 1
  store i32 %129, ptr %ehselector.slot, align 4
  br label %ehcleanup199

lpad180:                                          ; preds = %if.then177
  %130 = landingpad { ptr, i32 }
          cleanup
  %131 = extractvalue { ptr, i32 } %130, 0
  store ptr %131, ptr %exn.slot, align 8
  %132 = extractvalue { ptr, i32 } %130, 1
  store i32 %132, ptr %ehselector.slot, align 4
  br label %ehcleanup185

lpad182:                                          ; preds = %invoke.cont181
  %133 = landingpad { ptr, i32 }
          cleanup
  %134 = extractvalue { ptr, i32 } %133, 0
  store ptr %134, ptr %exn.slot, align 8
  %135 = extractvalue { ptr, i32 } %133, 1
  store i32 %135, ptr %ehselector.slot, align 4
  call void @_ZNSt7__cxx1112basic_stringIcSt11char_traitsIcESaIcEED1Ev(ptr noundef nonnull align 8 dereferenceable(32) %ref.tmp178) #3
  br label %ehcleanup185

ehcleanup185:                                     ; preds = %lpad182, %lpad180
  call void @_ZNSaIcED1Ev(ptr noundef nonnull align 1 dereferenceable(1) %ref.tmp179) #3
  br label %ehcleanup199

if.end186:                                        ; preds = %invoke.cont183, %invoke.cont175
  br label %if.end187

if.end187:                                        ; preds = %if.end186, %sw.bb169
  %m_formatter189 = getelementptr inbounds %"class.OpenColorIO_v2_4dev::XmlElementWriter", ptr %this1, i32 0, i32 1
  %136 = load ptr, ptr %m_formatter189, align 8
  %137 = load ptr, ptr %version.addr, align 8
  call void @_ZNSt10shared_ptrIKN19OpenColorIO_v2_4dev11GammaOpDataEEC2ERKS3_(ptr noundef nonnull align 8 dereferenceable(16) %agg.tmp190, ptr noundef nonnull align 8 dereferenceable(16) %gamma) #3
  invoke void @_ZN19OpenColorIO_v2_4dev12_GLOBAL__N_111GammaWriterC2ERNS_12XmlFormatterERKNS_10CTFVersionESt10shared_ptrIKNS_11GammaOpDataEE(ptr noundef nonnull align 8 dereferenceable(56) %opWriter188, ptr noundef nonnull align 8 dereferenceable(16) %136, ptr noundef nonnull align 4 dereferenceable(12) %137, ptr noundef %agg.tmp190)
          to label %invoke.cont192 unwind label %lpad191

invoke.cont192:                                   ; preds = %if.end187
  call void @_ZNSt10shared_ptrIKN19OpenColorIO_v2_4dev11GammaOpDataEED2Ev(ptr noundef nonnull align 8 dereferenceable(16) %agg.tmp190) #3
  %138 = load i32, ptr %inBD, align 4
  invoke void @_ZN19OpenColorIO_v2_4dev12_GLOBAL__N_18OpWriter16setInputBitdepthENS_8BitDepthE(ptr noundef nonnull align 8 dereferenceable(24) %opWriter188, i32 noundef %138)
          to label %invoke.cont195 unwind label %lpad194

invoke.cont195:                                   ; preds = %invoke.cont192
  %139 = load i32, ptr %outBD, align 4
  invoke void @_ZN19OpenColorIO_v2_4dev12_GLOBAL__N_18OpWriter17setOutputBitdepthENS_8BitDepthE(ptr noundef nonnull align 8 dereferenceable(24) %opWriter188, i32 noundef %139)
          to label %invoke.cont196 unwind label %lpad194

invoke.cont196:                                   ; preds = %invoke.cont195
  invoke void @_ZNK19OpenColorIO_v2_4dev12_GLOBAL__N_18OpWriter5writeEv(ptr noundef nonnull align 8 dereferenceable(24) %opWriter188)
          to label %invoke.cont197 unwind label %lpad194

invoke.cont197:                                   ; preds = %invoke.cont196
  call void @_ZN19OpenColorIO_v2_4dev12_GLOBAL__N_111GammaWriterD2Ev(ptr noundef nonnull align 8 dereferenceable(56) %opWriter188) #3
  call void @_ZNSt10shared_ptrIKN19OpenColorIO_v2_4dev11GammaOpDataEED2Ev(ptr noundef nonnull align 8 dereferenceable(16) %gamma) #3
  br label %sw.epilog

lpad191:                                          ; preds = %if.end187
  %140 = landingpad { ptr, i32 }
          cleanup
  %141 = extractvalue { ptr, i32 } %140, 0
  store ptr %141, ptr %exn.slot, align 8
  %142 = extractvalue { ptr, i32 } %140, 1
  store i32 %142, ptr %ehselector.slot, align 4
  call void @_ZNSt10shared_ptrIKN19OpenColorIO_v2_4dev11GammaOpDataEED2Ev(ptr noundef nonnull align 8 dereferenceable(16) %agg.tmp190) #3
  br label %ehcleanup199

lpad194:                                          ; preds = %invoke.cont196, %invoke.cont195, %invoke.cont192
  %143 = landingpad { ptr, i32 }
          cleanup
  %144 = extractvalue { ptr, i32 } %143, 0
  store ptr %144, ptr %exn.slot, align 8
  %145 = extractvalue { ptr, i32 } %143, 1
  store i32 %145, ptr %ehselector.slot, align 4
  call void @_ZN19OpenColorIO_v2_4dev12_GLOBAL__N_111GammaWriterD2Ev(ptr noundef nonnull align 8 dereferenceable(56) %opWriter188) #3
  br label %ehcleanup199

ehcleanup199:                                     ; preds = %lpad194, %lpad191, %ehcleanup185, %lpad174
  call void @_ZNSt10shared_ptrIKN19OpenColorIO_v2_4dev11GammaOpDataEED2Ev(ptr noundef nonnull align 8 dereferenceable(16) %gamma) #3
  br label %eh.resume

sw.bb200:                                         ; preds = %if.end22
  %m_isCLF201 = getelementptr inbounds %"class.OpenColorIO_v2_4dev::TransformWriter", ptr %this1, i32 0, i32 2
  %146 = load i8, ptr %m_isCLF201, align 8
  %tobool202 = trunc i8 %146 to i1
  br i1 %tobool202, label %if.then203, label %if.end212

if.then203:                                       ; preds = %sw.bb200
  call void @_ZNSaIcEC1Ev(ptr noundef nonnull align 1 dereferenceable(1) %ref.tmp205) #3
  invoke void @_ZNSt7__cxx1112basic_stringIcSt11char_traitsIcESaIcEEC1EPKcRKS3_(ptr noundef nonnull align 8 dereferenceable(32) %ref.tmp204, ptr noundef @.str.20, ptr noundef nonnull align 1 dereferenceable(1) %ref.tmp205)
          to label %invoke.cont207 unwind label %lpad206

invoke.cont207:                                   ; preds = %if.then203
  invoke void @_ZN19OpenColorIO_v2_4dev12_GLOBAL__N_112ThrowWriteOpERKNSt7__cxx1112basic_stringIcSt11char_traitsIcESaIcEEE(ptr noundef nonnull align 8 dereferenceable(32) %ref.tmp204)
          to label %invoke.cont209 unwind label %lpad208

invoke.cont209:                                   ; preds = %invoke.cont207
  call void @_ZNSt7__cxx1112basic_stringIcSt11char_traitsIcESaIcEED1Ev(ptr noundef nonnull align 8 dereferenceable(32) %ref.tmp204) #3
  call void @_ZNSaIcED1Ev(ptr noundef nonnull align 1 dereferenceable(1) %ref.tmp205) #3
  br label %if.end212

lpad206:                                          ; preds = %if.then203
  %147 = landingpad { ptr, i32 }
          cleanup
  %148 = extractvalue { ptr, i32 } %147, 0
  store ptr %148, ptr %exn.slot, align 8
  %149 = extractvalue { ptr, i32 } %147, 1
  store i32 %149, ptr %ehselector.slot, align 4
  br label %ehcleanup211

lpad208:                                          ; preds = %invoke.cont207
  %150 = landingpad { ptr, i32 }
          cleanup
  %151 = extractvalue { ptr, i32 } %150, 0
  store ptr %151, ptr %exn.slot, align 8
  %152 = extractvalue { ptr, i32 } %150, 1
  store i32 %152, ptr %ehselector.slot, align 4
  call void @_ZNSt7__cxx1112basic_stringIcSt11char_traitsIcESaIcEED1Ev(ptr noundef nonnull align 8 dereferenceable(32) %ref.tmp204) #3
  br label %ehcleanup211

ehcleanup211:                                     ; preds = %lpad208, %lpad206
  call void @_ZNSaIcED1Ev(ptr noundef nonnull align 1 dereferenceable(1) %ref.tmp205) #3
  br label %eh.resume

if.end212:                                        ; preds = %invoke.cont209, %sw.bb200
  %153 = load ptr, ptr %op, align 8
  call void @_ZSt20dynamic_pointer_castIKN19OpenColorIO_v2_4dev20GradingPrimaryOpDataEKNS0_6OpDataEESt10shared_ptrIT_ERKS5_IT0_E(ptr sret(%"class.std::shared_ptr.63") align 8 %prim, ptr noundef nonnull align 8 dereferenceable(16) %153) #3
  %m_formatter214 = getelementptr inbounds %"class.OpenColorIO_v2_4dev::XmlElementWriter", ptr %this1, i32 0, i32 1
  %154 = load ptr, ptr %m_formatter214, align 8
  call void @_ZNSt10shared_ptrIKN19OpenColorIO_v2_4dev20GradingPrimaryOpDataEEC2ERKS3_(ptr noundef nonnull align 8 dereferenceable(16) %agg.tmp215, ptr noundef nonnull align 8 dereferenceable(16) %prim) #3
  invoke void @_ZN19OpenColorIO_v2_4dev12_GLOBAL__N_120GradingPrimaryWriterC2ERNS_12XmlFormatterESt10shared_ptrIKNS_20GradingPrimaryOpDataEE(ptr noundef nonnull align 8 dereferenceable(40) %opWriter213, ptr noundef nonnull align 8 dereferenceable(16) %154, ptr noundef %agg.tmp215)
          to label %invoke.cont217 unwind label %lpad216

invoke.cont217:                                   ; preds = %if.end212
  call void @_ZNSt10shared_ptrIKN19OpenColorIO_v2_4dev20GradingPrimaryOpDataEED2Ev(ptr noundef nonnull align 8 dereferenceable(16) %agg.tmp215) #3
  %155 = load i32, ptr %inBD, align 4
  invoke void @_ZN19OpenColorIO_v2_4dev12_GLOBAL__N_18OpWriter16setInputBitdepthENS_8BitDepthE(ptr noundef nonnull align 8 dereferenceable(24) %opWriter213, i32 noundef %155)
          to label %invoke.cont220 unwind label %lpad219

invoke.cont220:                                   ; preds = %invoke.cont217
  %156 = load i32, ptr %outBD, align 4
  invoke void @_ZN19OpenColorIO_v2_4dev12_GLOBAL__N_18OpWriter17setOutputBitdepthENS_8BitDepthE(ptr noundef nonnull align 8 dereferenceable(24) %opWriter213, i32 noundef %156)
          to label %invoke.cont221 unwind label %lpad219

invoke.cont221:                                   ; preds = %invoke.cont220
  invoke void @_ZNK19OpenColorIO_v2_4dev12_GLOBAL__N_18OpWriter5writeEv(ptr noundef nonnull align 8 dereferenceable(24) %opWriter213)
          to label %invoke.cont222 unwind label %lpad219

invoke.cont222:                                   ; preds = %invoke.cont221
  call void @_ZN19OpenColorIO_v2_4dev12_GLOBAL__N_120GradingPrimaryWriterD2Ev(ptr noundef nonnull align 8 dereferenceable(40) %opWriter213) #3
  call void @_ZNSt10shared_ptrIKN19OpenColorIO_v2_4dev20GradingPrimaryOpDataEED2Ev(ptr noundef nonnull align 8 dereferenceable(16) %prim) #3
  br label %sw.epilog

lpad216:                                          ; preds = %if.end212
  %157 = landingpad { ptr, i32 }
          cleanup
  %158 = extractvalue { ptr, i32 } %157, 0
  store ptr %158, ptr %exn.slot, align 8
  %159 = extractvalue { ptr, i32 } %157, 1
  store i32 %159, ptr %ehselector.slot, align 4
  call void @_ZNSt10shared_ptrIKN19OpenColorIO_v2_4dev20GradingPrimaryOpDataEED2Ev(ptr noundef nonnull align 8 dereferenceable(16) %agg.tmp215) #3
  br label %ehcleanup224

lpad219:                                          ; preds = %invoke.cont221, %invoke.cont220, %invoke.cont217
  %160 = landingpad { ptr, i32 }
          cleanup
  %161 = extractvalue { ptr, i32 } %160, 0
  store ptr %161, ptr %exn.slot, align 8
  %162 = extractvalue { ptr, i32 } %160, 1
  store i32 %162, ptr %ehselector.slot, align 4
  call void @_ZN19OpenColorIO_v2_4dev12_GLOBAL__N_120GradingPrimaryWriterD2Ev(ptr noundef nonnull align 8 dereferenceable(40) %opWriter213) #3
  br label %ehcleanup224

ehcleanup224:                                     ; preds = %lpad219, %lpad216
  call void @_ZNSt10shared_ptrIKN19OpenColorIO_v2_4dev20GradingPrimaryOpDataEED2Ev(ptr noundef nonnull align 8 dereferenceable(16) %prim) #3
  br label %eh.resume

sw.bb225:                                         ; preds = %if.end22
  %m_isCLF226 = getelementptr inbounds %"class.OpenColorIO_v2_4dev::TransformWriter", ptr %this1, i32 0, i32 2
  %163 = load i8, ptr %m_isCLF226, align 8
  %tobool227 = trunc i8 %163 to i1
  br i1 %tobool227, label %if.then228, label %if.end237

if.then228:                                       ; preds = %sw.bb225
  call void @_ZNSaIcEC1Ev(ptr noundef nonnull align 1 dereferenceable(1) %ref.tmp230) #3
  invoke void @_ZNSt7__cxx1112basic_stringIcSt11char_traitsIcESaIcEEC1EPKcRKS3_(ptr noundef nonnull align 8 dereferenceable(32) %ref.tmp229, ptr noundef @.str.21, ptr noundef nonnull align 1 dereferenceable(1) %ref.tmp230)
          to label %invoke.cont232 unwind label %lpad231

invoke.cont232:                                   ; preds = %if.then228
  invoke void @_ZN19OpenColorIO_v2_4dev12_GLOBAL__N_112ThrowWriteOpERKNSt7__cxx1112basic_stringIcSt11char_traitsIcESaIcEEE(ptr noundef nonnull align 8 dereferenceable(32) %ref.tmp229)
          to label %invoke.cont234 unwind label %lpad233

invoke.cont234:                                   ; preds = %invoke.cont232
  call void @_ZNSt7__cxx1112basic_stringIcSt11char_traitsIcESaIcEED1Ev(ptr noundef nonnull align 8 dereferenceable(32) %ref.tmp229) #3
  call void @_ZNSaIcED1Ev(ptr noundef nonnull align 1 dereferenceable(1) %ref.tmp230) #3
  br label %if.end237

lpad231:                                          ; preds = %if.then228
  %164 = landingpad { ptr, i32 }
          cleanup
  %165 = extractvalue { ptr, i32 } %164, 0
  store ptr %165, ptr %exn.slot, align 8
  %166 = extractvalue { ptr, i32 } %164, 1
  store i32 %166, ptr %ehselector.slot, align 4
  br label %ehcleanup236

lpad233:                                          ; preds = %invoke.cont232
  %167 = landingpad { ptr, i32 }
          cleanup
  %168 = extractvalue { ptr, i32 } %167, 0
  store ptr %168, ptr %exn.slot, align 8
  %169 = extractvalue { ptr, i32 } %167, 1
  store i32 %169, ptr %ehselector.slot, align 4
  call void @_ZNSt7__cxx1112basic_stringIcSt11char_traitsIcESaIcEED1Ev(ptr noundef nonnull align 8 dereferenceable(32) %ref.tmp229) #3
  br label %ehcleanup236

ehcleanup236:                                     ; preds = %lpad233, %lpad231
  call void @_ZNSaIcED1Ev(ptr noundef nonnull align 1 dereferenceable(1) %ref.tmp230) #3
  br label %eh.resume

if.end237:                                        ; preds = %invoke.cont234, %sw.bb225
  %170 = load ptr, ptr %op, align 8
  call void @_ZSt20dynamic_pointer_castIKN19OpenColorIO_v2_4dev21GradingRGBCurveOpDataEKNS0_6OpDataEESt10shared_ptrIT_ERKS5_IT0_E(ptr sret(%"class.std::shared_ptr.66") align 8 %rgb, ptr noundef nonnull align 8 dereferenceable(16) %170) #3
  %m_formatter239 = getelementptr inbounds %"class.OpenColorIO_v2_4dev::XmlElementWriter", ptr %this1, i32 0, i32 1
  %171 = load ptr, ptr %m_formatter239, align 8
  call void @_ZNSt10shared_ptrIKN19OpenColorIO_v2_4dev21GradingRGBCurveOpDataEEC2ERKS3_(ptr noundef nonnull align 8 dereferenceable(16) %agg.tmp240, ptr noundef nonnull align 8 dereferenceable(16) %rgb) #3
  invoke void @_ZN19OpenColorIO_v2_4dev12_GLOBAL__N_121GradingRGBCurveWriterC2ERNS_12XmlFormatterESt10shared_ptrIKNS_21GradingRGBCurveOpDataEE(ptr noundef nonnull align 8 dereferenceable(40) %opWriter238, ptr noundef nonnull align 8 dereferenceable(16) %171, ptr noundef %agg.tmp240)
          to label %invoke.cont242 unwind label %lpad241

invoke.cont242:                                   ; preds = %if.end237
  call void @_ZNSt10shared_ptrIKN19OpenColorIO_v2_4dev21GradingRGBCurveOpDataEED2Ev(ptr noundef nonnull align 8 dereferenceable(16) %agg.tmp240) #3
  %172 = load i32, ptr %inBD, align 4
  invoke void @_ZN19OpenColorIO_v2_4dev12_GLOBAL__N_18OpWriter16setInputBitdepthENS_8BitDepthE(ptr noundef nonnull align 8 dereferenceable(24) %opWriter238, i32 noundef %172)
          to label %invoke.cont245 unwind label %lpad244

invoke.cont245:                                   ; preds = %invoke.cont242
  %173 = load i32, ptr %outBD, align 4
  invoke void @_ZN19OpenColorIO_v2_4dev12_GLOBAL__N_18OpWriter17setOutputBitdepthENS_8BitDepthE(ptr noundef nonnull align 8 dereferenceable(24) %opWriter238, i32 noundef %173)
          to label %invoke.cont246 unwind label %lpad244

invoke.cont246:                                   ; preds = %invoke.cont245
  invoke void @_ZNK19OpenColorIO_v2_4dev12_GLOBAL__N_18OpWriter5writeEv(ptr noundef nonnull align 8 dereferenceable(24) %opWriter238)
          to label %invoke.cont247 unwind label %lpad244

invoke.cont247:                                   ; preds = %invoke.cont246
  call void @_ZN19OpenColorIO_v2_4dev12_GLOBAL__N_121GradingRGBCurveWriterD2Ev(ptr noundef nonnull align 8 dereferenceable(40) %opWriter238) #3
  call void @_ZNSt10shared_ptrIKN19OpenColorIO_v2_4dev21GradingRGBCurveOpDataEED2Ev(ptr noundef nonnull align 8 dereferenceable(16) %rgb) #3
  br label %sw.epilog

lpad241:                                          ; preds = %if.end237
  %174 = landingpad { ptr, i32 }
          cleanup
  %175 = extractvalue { ptr, i32 } %174, 0
  store ptr %175, ptr %exn.slot, align 8
  %176 = extractvalue { ptr, i32 } %174, 1
  store i32 %176, ptr %ehselector.slot, align 4
  call void @_ZNSt10shared_ptrIKN19OpenColorIO_v2_4dev21GradingRGBCurveOpDataEED2Ev(ptr noundef nonnull align 8 dereferenceable(16) %agg.tmp240) #3
  br label %ehcleanup249

lpad244:                                          ; preds = %invoke.cont246, %invoke.cont245, %invoke.cont242
  %177 = landingpad { ptr, i32 }
          cleanup
  %178 = extractvalue { ptr, i32 } %177, 0
  store ptr %178, ptr %exn.slot, align 8
  %179 = extractvalue { ptr, i32 } %177, 1
  store i32 %179, ptr %ehselector.slot, align 4
  call void @_ZN19OpenColorIO_v2_4dev12_GLOBAL__N_121GradingRGBCurveWriterD2Ev(ptr noundef nonnull align 8 dereferenceable(40) %opWriter238) #3
  br label %ehcleanup249

ehcleanup249:                                     ; preds = %lpad244, %lpad241
  call void @_ZNSt10shared_ptrIKN19OpenColorIO_v2_4dev21GradingRGBCurveOpDataEED2Ev(ptr noundef nonnull align 8 dereferenceable(16) %rgb) #3
  br label %eh.resume

sw.bb250:                                         ; preds = %if.end22
  %m_isCLF251 = getelementptr inbounds %"class.OpenColorIO_v2_4dev::TransformWriter", ptr %this1, i32 0, i32 2
  %180 = load i8, ptr %m_isCLF251, align 8
  %tobool252 = trunc i8 %180 to i1
  br i1 %tobool252, label %if.then253, label %if.end262

if.then253:                                       ; preds = %sw.bb250
  call void @_ZNSaIcEC1Ev(ptr noundef nonnull align 1 dereferenceable(1) %ref.tmp255) #3
  invoke void @_ZNSt7__cxx1112basic_stringIcSt11char_traitsIcESaIcEEC1EPKcRKS3_(ptr noundef nonnull align 8 dereferenceable(32) %ref.tmp254, ptr noundef @.str.22, ptr noundef nonnull align 1 dereferenceable(1) %ref.tmp255)
          to label %invoke.cont257 unwind label %lpad256

invoke.cont257:                                   ; preds = %if.then253
  invoke void @_ZN19OpenColorIO_v2_4dev12_GLOBAL__N_112ThrowWriteOpERKNSt7__cxx1112basic_stringIcSt11char_traitsIcESaIcEEE(ptr noundef nonnull align 8 dereferenceable(32) %ref.tmp254)
          to label %invoke.cont259 unwind label %lpad258

invoke.cont259:                                   ; preds = %invoke.cont257
  call void @_ZNSt7__cxx1112basic_stringIcSt11char_traitsIcESaIcEED1Ev(ptr noundef nonnull align 8 dereferenceable(32) %ref.tmp254) #3
  call void @_ZNSaIcED1Ev(ptr noundef nonnull align 1 dereferenceable(1) %ref.tmp255) #3
  br label %if.end262

lpad256:                                          ; preds = %if.then253
  %181 = landingpad { ptr, i32 }
          cleanup
  %182 = extractvalue { ptr, i32 } %181, 0
  store ptr %182, ptr %exn.slot, align 8
  %183 = extractvalue { ptr, i32 } %181, 1
  store i32 %183, ptr %ehselector.slot, align 4
  br label %ehcleanup261

lpad258:                                          ; preds = %invoke.cont257
  %184 = landingpad { ptr, i32 }
          cleanup
  %185 = extractvalue { ptr, i32 } %184, 0
  store ptr %185, ptr %exn.slot, align 8
  %186 = extractvalue { ptr, i32 } %184, 1
  store i32 %186, ptr %ehselector.slot, align 4
  call void @_ZNSt7__cxx1112basic_stringIcSt11char_traitsIcESaIcEED1Ev(ptr noundef nonnull align 8 dereferenceable(32) %ref.tmp254) #3
  br label %ehcleanup261

ehcleanup261:                                     ; preds = %lpad258, %lpad256
  call void @_ZNSaIcED1Ev(ptr noundef nonnull align 1 dereferenceable(1) %ref.tmp255) #3
  br label %eh.resume

if.end262:                                        ; preds = %invoke.cont259, %sw.bb250
  %187 = load ptr, ptr %op, align 8
  call void @_ZSt20dynamic_pointer_castIKN19OpenColorIO_v2_4dev17GradingToneOpDataEKNS0_6OpDataEESt10shared_ptrIT_ERKS5_IT0_E(ptr sret(%"class.std::shared_ptr.69") align 8 %tone, ptr noundef nonnull align 8 dereferenceable(16) %187) #3
  %m_formatter264 = getelementptr inbounds %"class.OpenColorIO_v2_4dev::XmlElementWriter", ptr %this1, i32 0, i32 1
  %188 = load ptr, ptr %m_formatter264, align 8
  call void @_ZNSt10shared_ptrIKN19OpenColorIO_v2_4dev17GradingToneOpDataEEC2ERKS3_(ptr noundef nonnull align 8 dereferenceable(16) %agg.tmp265, ptr noundef nonnull align 8 dereferenceable(16) %tone) #3
  invoke void @_ZN19OpenColorIO_v2_4dev12_GLOBAL__N_117GradingToneWriterC2ERNS_12XmlFormatterESt10shared_ptrIKNS_17GradingToneOpDataEE(ptr noundef nonnull align 8 dereferenceable(40) %opWriter263, ptr noundef nonnull align 8 dereferenceable(16) %188, ptr noundef %agg.tmp265)
          to label %invoke.cont267 unwind label %lpad266

invoke.cont267:                                   ; preds = %if.end262
  call void @_ZNSt10shared_ptrIKN19OpenColorIO_v2_4dev17GradingToneOpDataEED2Ev(ptr noundef nonnull align 8 dereferenceable(16) %agg.tmp265) #3
  %189 = load i32, ptr %inBD, align 4
  invoke void @_ZN19OpenColorIO_v2_4dev12_GLOBAL__N_18OpWriter16setInputBitdepthENS_8BitDepthE(ptr noundef nonnull align 8 dereferenceable(24) %opWriter263, i32 noundef %189)
          to label %invoke.cont270 unwind label %lpad269

invoke.cont270:                                   ; preds = %invoke.cont267
  %190 = load i32, ptr %outBD, align 4
  invoke void @_ZN19OpenColorIO_v2_4dev12_GLOBAL__N_18OpWriter17setOutputBitdepthENS_8BitDepthE(ptr noundef nonnull align 8 dereferenceable(24) %opWriter263, i32 noundef %190)
          to label %invoke.cont271 unwind label %lpad269

invoke.cont271:                                   ; preds = %invoke.cont270
  invoke void @_ZNK19OpenColorIO_v2_4dev12_GLOBAL__N_18OpWriter5writeEv(ptr noundef nonnull align 8 dereferenceable(24) %opWriter263)
          to label %invoke.cont272 unwind label %lpad269

invoke.cont272:                                   ; preds = %invoke.cont271
  call void @_ZN19OpenColorIO_v2_4dev12_GLOBAL__N_117GradingToneWriterD2Ev(ptr noundef nonnull align 8 dereferenceable(40) %opWriter263) #3
  call void @_ZNSt10shared_ptrIKN19OpenColorIO_v2_4dev17GradingToneOpDataEED2Ev(ptr noundef nonnull align 8 dereferenceable(16) %tone) #3
  br label %sw.epilog

lpad266:                                          ; preds = %if.end262
  %191 = landingpad { ptr, i32 }
          cleanup
  %192 = extractvalue { ptr, i32 } %191, 0
  store ptr %192, ptr %exn.slot, align 8
  %193 = extractvalue { ptr, i32 } %191, 1
  store i32 %193, ptr %ehselector.slot, align 4
  call void @_ZNSt10shared_ptrIKN19OpenColorIO_v2_4dev17GradingToneOpDataEED2Ev(ptr noundef nonnull align 8 dereferenceable(16) %agg.tmp265) #3
  br label %ehcleanup274

lpad269:                                          ; preds = %invoke.cont271, %invoke.cont270, %invoke.cont267
  %194 = landingpad { ptr, i32 }
          cleanup
  %195 = extractvalue { ptr, i32 } %194, 0
  store ptr %195, ptr %exn.slot, align 8
  %196 = extractvalue { ptr, i32 } %194, 1
  store i32 %196, ptr %ehselector.slot, align 4
  call void @_ZN19OpenColorIO_v2_4dev12_GLOBAL__N_117GradingToneWriterD2Ev(ptr noundef nonnull align 8 dereferenceable(40) %opWriter263) #3
  br label %ehcleanup274

ehcleanup274:                                     ; preds = %lpad269, %lpad266
  call void @_ZNSt10shared_ptrIKN19OpenColorIO_v2_4dev17GradingToneOpDataEED2Ev(ptr noundef nonnull align 8 dereferenceable(16) %tone) #3
  br label %eh.resume

sw.bb275:                                         ; preds = %if.end22
  %197 = load ptr, ptr %op, align 8
  call void @_ZSt20dynamic_pointer_castIKN19OpenColorIO_v2_4dev9LogOpDataEKNS0_6OpDataEESt10shared_ptrIT_ERKS5_IT0_E(ptr sret(%"class.std::shared_ptr.72") align 8 %log, ptr noundef nonnull align 8 dereferenceable(16) %197) #3
  %m_formatter277 = getelementptr inbounds %"class.OpenColorIO_v2_4dev::XmlElementWriter", ptr %this1, i32 0, i32 1
  %198 = load ptr, ptr %m_formatter277, align 8
