target datalayout = "e-m:e-p270:32:32-p271:32:32-p272:64:64-i64:64-i128:128-f80:128-n8:16:32:64-S128"
target triple = "x86_64-unknown-linux-gnu"

%"class.std::ios_base::Init" = type { i8 }
%"class.OpenColorIO_v2_4dev::CTFVersion" = type { i32, i32, i32 }
%"struct.OpenColorIO_v2_4dev::NumberUtils::Locale" = type { ptr }
%"class.std::vector.16" = type { %"struct.std::_Vector_base.17" }
%"struct.std::_Vector_base.17" = type { %"struct.std::_Vector_base<const char *, std::allocator<const char *>>::_Vector_impl" }
%"struct.std::_Vector_base<const char *, std::allocator<const char *>>::_Vector_impl" = type { %"struct.std::_Vector_base<const char *, std::allocator<const char *>>::_Vector_impl_data" }
%"struct.std::_Vector_base<const char *, std::allocator<const char *>>::_Vector_impl_data" = type { ptr, ptr, ptr }
%"class.std::__cxx11::basic_string" = type { %"struct.std::__cxx11::basic_string<char>::_Alloc_hider", i64, %union.anon }
%"struct.std::__cxx11::basic_string<char>::_Alloc_hider" = type { ptr }
%union.anon = type { i64, [8 x i8] }
%"struct.OpenColorIO_v2_4dev::FormatInfo" = type { %"class.std::__cxx11::basic_string", %"class.std::__cxx11::basic_string", i32, i32 }
%"class.std::shared_ptr" = type { %"class.std::__shared_ptr" }
%"class.std::__shared_ptr" = type { ptr, %"class.std::__shared_count" }
%"class.std::__shared_count" = type { ptr }
%"class.std::__cxx11::basic_ostringstream" = type { %"class.std::basic_ostream.base", %"class.std::__cxx11::basic_stringbuf", %"class.std::basic_ios" }
%"class.std::basic_ostream.base" = type { ptr }
%"class.std::__cxx11::basic_stringbuf" = type { %"class.std::basic_streambuf", i32, %"class.std::__cxx11::basic_string" }
%"class.std::basic_streambuf" = type { ptr, ptr, ptr, ptr, ptr, ptr, ptr, %"class.std::locale" }
%"class.std::locale" = type { ptr }
%"class.std::basic_ios" = type { %"class.std::ios_base", ptr, i8, i8, ptr, ptr, ptr, ptr }
%"class.std::ios_base" = type { ptr, i64, i64, i32, i32, i32, ptr, %"struct.std::ios_base::_Words", [8 x %"struct.std::ios_base::_Words"], i32, ptr, %"class.std::locale" }
%"struct.std::ios_base::_Words" = type { ptr, i64 }
%"class.OpenColorIO_v2_4dev::(anonymous namespace)::XMLParserHelper" = type { ptr, i32, %"class.std::__cxx11::basic_string", i8, %"class.OpenColorIO_v2_4dev::XmlReaderElementStack", %"class.std::shared_ptr.9" }
%"class.OpenColorIO_v2_4dev::XmlReaderElementStack" = type { ptr, %"class.std::vector.4" }
%"class.std::vector.4" = type { %"struct.std::_Vector_base.5" }
%"struct.std::_Vector_base.5" = type { %"struct.std::_Vector_base<std::shared_ptr<OpenColorIO_v2_4dev::XmlReaderElement>, std::allocator<std::shared_ptr<OpenColorIO_v2_4dev::XmlReaderElement>>>::_Vector_impl" }
%"struct.std::_Vector_base<std::shared_ptr<OpenColorIO_v2_4dev::XmlReaderElement>, std::allocator<std::shared_ptr<OpenColorIO_v2_4dev::XmlReaderElement>>>::_Vector_impl" = type { %"struct.std::_Vector_base<std::shared_ptr<OpenColorIO_v2_4dev::XmlReaderElement>, std::allocator<std::shared_ptr<OpenColorIO_v2_4dev::XmlReaderElement>>>::_Vector_impl_data" }
%"struct.std::_Vector_base<std::shared_ptr<OpenColorIO_v2_4dev::XmlReaderElement>, std::allocator<std::shared_ptr<OpenColorIO_v2_4dev::XmlReaderElement>>>::_Vector_impl_data" = type { ptr, ptr, ptr }
%"class.std::shared_ptr.9" = type { %"class.std::__shared_ptr.10" }
%"class.std::__shared_ptr.10" = type { ptr, %"class.std::__shared_count" }
%"class.std::shared_ptr.12" = type { %"class.std::__shared_ptr.13" }
%"class.std::__shared_ptr.13" = type { ptr, %"class.std::__shared_count" }
%"class.OpenColorIO_v2_4dev::(anonymous namespace)::LocalCachedFile" = type { %"class.OpenColorIO_v2_4dev::CachedFile", %"class.std::shared_ptr.9", %"class.std::__cxx11::basic_string" }
%"class.OpenColorIO_v2_4dev::CachedFile" = type { ptr }
%"class.std::shared_ptr.307" = type { %"class.std::__shared_ptr.308" }
%"class.std::__shared_ptr.308" = type { ptr, %"class.std::__shared_count" }
%"class.std::allocator" = type { i8 }
%"class.std::shared_ptr.310" = type { %"class.std::__shared_ptr.311" }
%"class.std::__shared_ptr.311" = type { ptr, %"class.std::__shared_count" }
%"class.std::shared_ptr.313" = type { %"class.std::__shared_ptr.314" }
%"class.std::__shared_ptr.314" = type { ptr, %"class.std::__shared_count" }
%"class.OpenColorIO_v2_4dev::PackedImageDesc" = type { %"class.OpenColorIO_v2_4dev::ImageDesc", ptr }
%"class.OpenColorIO_v2_4dev::ImageDesc" = type { ptr }
%"class.std::vector.281" = type { %"struct.std::_Vector_base.282" }
%"struct.std::_Vector_base.282" = type { %"struct.std::_Vector_base<float, std::allocator<float>>::_Vector_impl" }
%"struct.std::_Vector_base<float, std::allocator<float>>::_Vector_impl" = type { %"struct.std::_Vector_base<float, std::allocator<float>>::_Vector_impl_data" }
%"struct.std::_Vector_base<float, std::allocator<float>>::_Vector_impl_data" = type { ptr, ptr, ptr }
%"class.OpenColorIO_v2_4dev::OpRcPtrVec" = type { %"class.std::vector.316", %"class.OpenColorIO_v2_4dev::FormatMetadataImpl" }
%"class.std::vector.316" = type { %"struct.std::_Vector_base.317" }
%"struct.std::_Vector_base.317" = type { %"struct.std::_Vector_base<std::shared_ptr<OpenColorIO_v2_4dev::Op>, std::allocator<std::shared_ptr<OpenColorIO_v2_4dev::Op>>>::_Vector_impl" }
%"struct.std::_Vector_base<std::shared_ptr<OpenColorIO_v2_4dev::Op>, std::allocator<std::shared_ptr<OpenColorIO_v2_4dev::Op>>>::_Vector_impl" = type { %"struct.std::_Vector_base<std::shared_ptr<OpenColorIO_v2_4dev::Op>, std::allocator<std::shared_ptr<OpenColorIO_v2_4dev::Op>>>::_Vector_impl_data" }
%"struct.std::_Vector_base<std::shared_ptr<OpenColorIO_v2_4dev::Op>, std::allocator<std::shared_ptr<OpenColorIO_v2_4dev::Op>>>::_Vector_impl_data" = type { ptr, ptr, ptr }
%"class.OpenColorIO_v2_4dev::FormatMetadataImpl" = type { %"class.OpenColorIO_v2_4dev::FormatMetadata", %"class.std::__cxx11::basic_string", %"class.std::__cxx11::basic_string", %"class.std::vector.129", %"class.std::vector.134" }
%"class.OpenColorIO_v2_4dev::FormatMetadata" = type { ptr }
%"class.std::vector.129" = type { %"struct.std::_Vector_base.130" }
%"struct.std::_Vector_base.130" = type { %"struct.std::_Vector_base<std::pair<std::__cxx11::basic_string<char>, std::__cxx11::basic_string<char>>, std::allocator<std::pair<std::__cxx11::basic_string<char>, std::__cxx11::basic_string<char>>>>::_Vector_impl" }
%"struct.std::_Vector_base<std::pair<std::__cxx11::basic_string<char>, std::__cxx11::basic_string<char>>, std::allocator<std::pair<std::__cxx11::basic_string<char>, std::__cxx11::basic_string<char>>>>::_Vector_impl" = type { %"struct.std::_Vector_base<std::pair<std::__cxx11::basic_string<char>, std::__cxx11::basic_string<char>>, std::allocator<std::pair<std::__cxx11::basic_string<char>, std::__cxx11::basic_string<char>>>>::_Vector_impl_data" }
%"struct.std::_Vector_base<std::pair<std::__cxx11::basic_string<char>, std::__cxx11::basic_string<char>>, std::allocator<std::pair<std::__cxx11::basic_string<char>, std::__cxx11::basic_string<char>>>>::_Vector_impl_data" = type { ptr, ptr, ptr }
%"class.std::vector.134" = type { %"struct.std::_Vector_base.135" }
%"struct.std::_Vector_base.135" = type { %"struct.std::_Vector_base<OpenColorIO_v2_4dev::FormatMetadataImpl, std::allocator<OpenColorIO_v2_4dev::FormatMetadataImpl>>::_Vector_impl" }
%"struct.std::_Vector_base<OpenColorIO_v2_4dev::FormatMetadataImpl, std::allocator<OpenColorIO_v2_4dev::FormatMetadataImpl>>::_Vector_impl" = type { %"struct.std::_Vector_base<OpenColorIO_v2_4dev::FormatMetadataImpl, std::allocator<OpenColorIO_v2_4dev::FormatMetadataImpl>>::_Vector_impl_data" }
%"struct.std::_Vector_base<OpenColorIO_v2_4dev::FormatMetadataImpl, std::allocator<OpenColorIO_v2_4dev::FormatMetadataImpl>>::_Vector_impl_data" = type { ptr, ptr, ptr }
%"class.std::shared_ptr.321" = type { %"class.std::__shared_ptr.322" }
%"class.std::__shared_ptr.322" = type { ptr, %"class.std::__shared_count" }
%"class.std::shared_ptr.303" = type { %"class.std::__shared_ptr.304" }
%"class.std::__shared_ptr.304" = type { ptr, %"class.std::__shared_count" }
%"class.__gnu_cxx::__normal_iterator.324" = type { ptr }
%"class.std::shared_ptr.325" = type { %"class.std::__shared_ptr.326" }
%"class.std::__shared_ptr.326" = type { ptr, %"class.std::__shared_count" }
%"class.std::shared_ptr.331" = type { %"class.std::__shared_ptr.332" }
%"class.std::__shared_ptr.332" = type { ptr, %"class.std::__shared_count" }
%"class.OpenColorIO_v2_4dev::XmlFormatter" = type <{ ptr, i32, [4 x i8] }>
%"class.OpenColorIO_v2_4dev::TransformWriter" = type <{ %"class.OpenColorIO_v2_4dev::XmlElementWriter", %"class.std::shared_ptr.352", i8, [7 x i8] }>
%"class.OpenColorIO_v2_4dev::XmlElementWriter" = type { ptr, ptr }
%"class.std::shared_ptr.352" = type { %"class.std::__shared_ptr.353" }
%"class.std::__shared_ptr.353" = type { ptr, %"class.std::__shared_count" }
%"class.__gnu_cxx::__normal_iterator.302" = type { ptr }
%"class.std::shared_ptr.363" = type { %"class.std::__shared_ptr.364" }
%"class.std::__shared_ptr.364" = type { ptr, %"class.std::__shared_count" }
%"class.__gnu_cxx::__normal_iterator" = type { ptr }
%"struct.std::_Vector_base" = type { %"struct.std::_Vector_base<OpenColorIO_v2_4dev::FormatInfo, std::allocator<OpenColorIO_v2_4dev::FormatInfo>>::_Vector_impl" }
%"struct.std::_Vector_base<OpenColorIO_v2_4dev::FormatInfo, std::allocator<OpenColorIO_v2_4dev::FormatInfo>>::_Vector_impl" = type { %"struct.std::_Vector_base<OpenColorIO_v2_4dev::FormatInfo, std::allocator<OpenColorIO_v2_4dev::FormatInfo>>::_Vector_impl_data" }
%"struct.std::_Vector_base<OpenColorIO_v2_4dev::FormatInfo, std::allocator<OpenColorIO_v2_4dev::FormatInfo>>::_Vector_impl_data" = type { ptr, ptr, ptr }
%"class.std::fpos" = type { i64, %struct.__mbstate_t }
%struct.__mbstate_t = type { i32, %union.anon.15 }
%union.anon.15 = type { i32 }
%"class.std::shared_ptr.21" = type { %"class.std::__shared_ptr.22" }
%"class.std::__shared_ptr.22" = type { ptr, %"class.std::__shared_count" }
%"class.std::initializer_list" = type { ptr, i64 }
%"class.std::allocator.18" = type { i8 }
%"class.std::shared_ptr.24" = type { %"class.std::__shared_ptr.25" }
%"class.std::__shared_ptr.25" = type { ptr, %"class.std::__shared_count" }
%"class.std::shared_ptr.27" = type { %"class.std::__shared_ptr.28" }
%"class.std::__shared_ptr.28" = type { ptr, %"class.std::__shared_count" }
%"class.std::shared_ptr.30" = type { %"class.std::__shared_ptr.31" }
%"class.std::__shared_ptr.31" = type { ptr, %"class.std::__shared_count" }
%"class.std::shared_ptr.33" = type { %"class.std::__shared_ptr.34" }
%"class.std::__shared_ptr.34" = type { ptr, %"class.std::__shared_count" }
%"class.std::shared_ptr.36" = type { %"class.std::__shared_ptr.37" }
%"class.std::__shared_ptr.37" = type { ptr, %"class.std::__shared_count" }
%"class.std::shared_ptr.39" = type { %"class.std::__shared_ptr.40" }
%"class.std::__shared_ptr.40" = type { ptr, %"class.std::__shared_count" }
%"class.std::shared_ptr.42" = type { %"class.std::__shared_ptr.43" }
%"class.std::__shared_ptr.43" = type { ptr, %"class.std::__shared_count" }
%"class.std::shared_ptr.45" = type { %"class.std::__shared_ptr.46" }
%"class.std::__shared_ptr.46" = type { ptr, %"class.std::__shared_count" }
%"class.std::shared_ptr.48" = type { %"class.std::__shared_ptr.49" }
%"class.std::__shared_ptr.49" = type { ptr, %"class.std::__shared_count" }
%"class.std::shared_ptr.51" = type { %"class.std::__shared_ptr.52" }
%"class.std::__shared_ptr.52" = type { ptr, %"class.std::__shared_count" }
%"class.std::shared_ptr.54" = type { %"class.std::__shared_ptr.55" }
%"class.std::__shared_ptr.55" = type { ptr, %"class.std::__shared_count" }
%"class.std::shared_ptr.57" = type { %"class.std::__shared_ptr.58" }
%"class.std::__shared_ptr.58" = type { ptr, %"class.std::__shared_count" }
%"class.std::shared_ptr.63" = type { %"class.std::__shared_ptr.64" }
%"class.std::__shared_ptr.64" = type { ptr, %"class.std::__shared_count" }
%"class.std::shared_ptr.66" = type { %"class.std::__shared_ptr.67" }
%"class.std::__shared_ptr.67" = type { ptr, %"class.std::__shared_count" }
%"class.std::shared_ptr.69" = type { %"class.std::__shared_ptr.70" }
%"class.std::__shared_ptr.70" = type { ptr, %"class.std::__shared_count" }
%"class.std::shared_ptr.72" = type { %"class.std::__shared_ptr.73" }
%"class.std::__shared_ptr.73" = type { ptr, %"class.std::__shared_count" }
%"class.std::shared_ptr.75" = type { %"class.std::__shared_ptr.76" }
%"class.std::__shared_ptr.76" = type { ptr, %"class.std::__shared_count" }
%"class.std::shared_ptr.86" = type { %"class.std::__shared_ptr.87" }
%"class.std::__shared_ptr.87" = type { ptr, %"class.std::__shared_count" }
%"class.std::shared_ptr.89" = type { %"class.std::__shared_ptr.90" }
%"class.std::__shared_ptr.90" = type { ptr, %"class.std::__shared_count" }
%"class.std::shared_ptr.92" = type { %"class.std::__shared_ptr.93" }
%"class.std::__shared_ptr.93" = type { ptr, %"class.std::__shared_count" }
%"class.std::shared_ptr.95" = type { %"class.std::__shared_ptr.96" }
%"class.std::__shared_ptr.96" = type { ptr, %"class.std::__shared_count" }
%"class.std::shared_ptr.98" = type { %"class.std::__shared_ptr.99" }
%"class.std::__shared_ptr.99" = type { ptr, %"class.std::__shared_count" }
%"class.std::shared_ptr.101" = type { %"class.std::__shared_ptr.102" }
%"class.std::__shared_ptr.102" = type { ptr, %"class.std::__shared_count" }
%"class.std::shared_ptr.104" = type { %"class.std::__shared_ptr.105" }
%"class.std::__shared_ptr.105" = type { ptr, %"class.std::__shared_count" }
%"class.std::shared_ptr.107" = type { %"class.std::__shared_ptr.108" }
%"class.std::__shared_ptr.108" = type { ptr, %"class.std::__shared_count" }
%"class.std::shared_ptr.110" = type { %"class.std::__shared_ptr.111" }
%"class.std::__shared_ptr.111" = type { ptr, %"class.std::__shared_count" }
%"class.std::shared_ptr.113" = type { %"class.std::__shared_ptr.114" }
%"class.std::__shared_ptr.114" = type { ptr, %"class.std::__shared_count" }
%"class.std::shared_ptr.116" = type { %"class.std::__shared_ptr.117" }
%"class.std::__shared_ptr.117" = type { ptr, %"class.std::__shared_count" }
%"class.std::shared_ptr.119" = type { %"class.std::__shared_ptr.120" }
%"class.std::__shared_ptr.120" = type { ptr, %"class.std::__shared_count" }
%"class.std::shared_ptr.122" = type { %"class.std::__shared_ptr.123" }
%"class.std::__shared_ptr.123" = type { ptr, %"class.std::__shared_count" }
%"struct.OpenColorIO_v2_4dev::LogUtil::CTFParams" = type <{ i32, [4 x i8], [3 x %"class.std::vector.78"], i32, [4 x i8] }>
%"class.std::vector.78" = type { %"struct.std::_Vector_base.79" }
%"struct.std::_Vector_base.79" = type { %"struct.std::_Vector_base<double, std::allocator<double>>::_Vector_impl" }
%"struct.std::_Vector_base<double, std::allocator<double>>::_Vector_impl" = type { %"struct.std::_Vector_base<double, std::allocator<double>>::_Vector_impl_data" }
%"struct.std::_Vector_base<double, std::allocator<double>>::_Vector_impl_data" = type { ptr, ptr, ptr }
%"class.std::__cxx11::basic_stringstream" = type { %"class.std::basic_iostream.base", %"class.std::__cxx11::basic_stringbuf", %"class.std::basic_ios" }
%"class.std::basic_iostream.base" = type { %"class.std::basic_istream.base", %"class.std::basic_ostream.base" }
%"class.std::basic_istream.base" = type { ptr, i64 }
%"class.std::shared_ptr.298" = type { %"class.std::__shared_ptr.299" }
%"class.std::__shared_ptr.299" = type { ptr, %"class.std::__shared_count" }
%"class.__gnu_cxx::__normal_iterator.301" = type { ptr }
%"class.std::allocator.125" = type { i8 }
%"struct.std::_Sp_alloc_shared_tag" = type { ptr }
%"class.OpenColorIO_v2_4dev::CTFArrayMgt" = type <{ ptr, i8, [7 x i8] }>
%"class.OpenColorIO_v2_4dev::CTFIndexMapMgt" = type <{ ptr, i8, [7 x i8] }>
%"class.OpenColorIO_v2_4dev::CTFReaderLogElt" = type { %"class.OpenColorIO_v2_4dev::CTFReaderOpElt", %"struct.OpenColorIO_v2_4dev::LogUtil::CTFParams", i8, %"class.std::shared_ptr.83" }
%"class.OpenColorIO_v2_4dev::CTFReaderOpElt" = type { %"class.OpenColorIO_v2_4dev::XmlReaderContainerElt", %"class.std::shared_ptr.9", i32, i32 }
%"class.OpenColorIO_v2_4dev::XmlReaderContainerElt" = type { %"class.OpenColorIO_v2_4dev::XmlReaderElement" }
%"class.OpenColorIO_v2_4dev::XmlReaderElement" = type { ptr, %"class.std::__cxx11::basic_string", i32, %"class.std::__cxx11::basic_string" }
%"class.std::shared_ptr.83" = type { %"class.std::__shared_ptr.84" }
%"class.std::__shared_ptr.84" = type { ptr, %"class.std::__shared_count" }
%"class.std::_Sp_counted_base" = type { ptr, i32, i32 }
%"class.std::allocator.126" = type { i8 }
%"struct.std::__allocated_ptr" = type { ptr, ptr }
%"class.std::_Sp_counted_ptr_inplace" = type { %"class.std::_Sp_counted_base", %"class.std::_Sp_counted_ptr_inplace<OpenColorIO_v2_4dev::CTFReaderMetadataElt, std::allocator<void>, __gnu_cxx::_S_atomic>::_Impl" }
%"class.std::_Sp_counted_ptr_inplace<OpenColorIO_v2_4dev::CTFReaderMetadataElt, std::allocator<void>, __gnu_cxx::_S_atomic>::_Impl" = type { %"struct.__gnu_cxx::__aligned_buffer" }
%"struct.__gnu_cxx::__aligned_buffer" = type { %"union.std::aligned_storage<216, 8>::type" }
%"union.std::aligned_storage<216, 8>::type" = type { [216 x i8] }
%"class.std::type_info" = type { ptr, ptr }
%"class.std::allocator.139" = type { i8 }
%"struct.std::__allocated_ptr.142" = type { ptr, ptr }
%"class.std::_Sp_counted_ptr_inplace.143" = type { %"class.std::_Sp_counted_base", %"class.std::_Sp_counted_ptr_inplace<OpenColorIO_v2_4dev::XmlReaderDummyElt, std::allocator<void>, __gnu_cxx::_S_atomic>::_Impl" }
%"class.std::_Sp_counted_ptr_inplace<OpenColorIO_v2_4dev::XmlReaderDummyElt, std::allocator<void>, __gnu_cxx::_S_atomic>::_Impl" = type { %"struct.__gnu_cxx::__aligned_buffer.144" }
%"struct.__gnu_cxx::__aligned_buffer.144" = type { %"union.std::aligned_storage<120, 8>::type" }
%"union.std::aligned_storage<120, 8>::type" = type { [120 x i8] }
%"class.std::allocator.152" = type { i8 }
%"struct.std::__allocated_ptr.155" = type { ptr, ptr }
%"class.std::_Sp_counted_ptr_inplace.156" = type { %"class.std::_Sp_counted_base", %"class.std::_Sp_counted_ptr_inplace<OpenColorIO_v2_4dev::CTFReaderTransformElt, std::allocator<void>, __gnu_cxx::_S_atomic>::_Impl" }
%"class.std::_Sp_counted_ptr_inplace<OpenColorIO_v2_4dev::CTFReaderTransformElt, std::allocator<void>, __gnu_cxx::_S_atomic>::_Impl" = type { %"struct.__gnu_cxx::__aligned_buffer.157" }
%"struct.__gnu_cxx::__aligned_buffer.157" = type { %"union.std::aligned_storage<104, 8>::type" }
%"union.std::aligned_storage<104, 8>::type" = type { [104 x i8] }
%"class.std::allocator.160" = type { i8 }
%"struct.std::__allocated_ptr.163" = type { ptr, ptr }
%"class.std::_Sp_counted_ptr_inplace.164" = type { %"class.std::_Sp_counted_base", %"class.std::_Sp_counted_ptr_inplace<OpenColorIO_v2_4dev::CTFReaderACESParamsElt, std::allocator<void>, __gnu_cxx::_S_atomic>::_Impl" }
%"class.std::_Sp_counted_ptr_inplace<OpenColorIO_v2_4dev::CTFReaderACESParamsElt, std::allocator<void>, __gnu_cxx::_S_atomic>::_Impl" = type { %"struct.__gnu_cxx::__aligned_buffer.165" }
%"struct.__gnu_cxx::__aligned_buffer.165" = type { %"union.std::aligned_storage<96, 8>::type" }
%"union.std::aligned_storage<96, 8>::type" = type { [96 x i8] }
%"class.std::allocator.168" = type { i8 }
%"struct.std::__allocated_ptr.171" = type { ptr, ptr }
%"class.std::_Sp_counted_ptr_inplace.172" = type { %"class.std::_Sp_counted_base", %"class.std::_Sp_counted_ptr_inplace<OpenColorIO_v2_4dev::CTFReaderArrayElt, std::allocator<void>, __gnu_cxx::_S_atomic>::_Impl" }
%"class.std::_Sp_counted_ptr_inplace<OpenColorIO_v2_4dev::CTFReaderArrayElt, std::allocator<void>, __gnu_cxx::_S_atomic>::_Impl" = type { %"struct.__gnu_cxx::__aligned_buffer.173" }
%"struct.__gnu_cxx::__aligned_buffer.173" = type { %"union.std::aligned_storage<112, 8>::type" }
%"union.std::aligned_storage<112, 8>::type" = type { [112 x i8] }
%"class.std::allocator.176" = type { i8 }
%"struct.std::__allocated_ptr.179" = type { ptr, ptr }
%"class.std::_Sp_counted_ptr_inplace.180" = type { %"class.std::_Sp_counted_base", %"class.std::_Sp_counted_ptr_inplace<OpenColorIO_v2_4dev::XmlReaderDescriptionElt, std::allocator<void>, __gnu_cxx::_S_atomic>::_Impl" }
%"class.std::_Sp_counted_ptr_inplace<OpenColorIO_v2_4dev::XmlReaderDescriptionElt, std::allocator<void>, __gnu_cxx::_S_atomic>::_Impl" = type { %"struct.__gnu_cxx::__aligned_buffer.181" }
%"struct.__gnu_cxx::__aligned_buffer.181" = type { %"union.std::aligned_storage<136, 8>::type" }
%"union.std::aligned_storage<136, 8>::type" = type { [136 x i8] }
%"class.OpenColorIO_v2_4dev::XmlReaderDescriptionElt" = type <{ %"class.OpenColorIO_v2_4dev::XmlReaderPlainElt", %"class.std::__cxx11::basic_string", i8, [7 x i8] }>
%"class.OpenColorIO_v2_4dev::XmlReaderPlainElt" = type { %"class.OpenColorIO_v2_4dev::XmlReaderElement", %"class.std::shared_ptr.33" }
%"class.std::allocator.184" = type { i8 }
%"struct.std::__allocated_ptr.187" = type { ptr, ptr }
%"class.std::_Sp_counted_ptr_inplace.188" = type { %"class.std::_Sp_counted_base", %"class.std::_Sp_counted_ptr_inplace<OpenColorIO_v2_4dev::CTFReaderDynamicParamElt, std::allocator<void>, __gnu_cxx::_S_atomic>::_Impl" }
%"class.std::_Sp_counted_ptr_inplace<OpenColorIO_v2_4dev::CTFReaderDynamicParamElt, std::allocator<void>, __gnu_cxx::_S_atomic>::_Impl" = type { %"struct.__gnu_cxx::__aligned_buffer.189" }
%"struct.__gnu_cxx::__aligned_buffer.189" = type { %"union.std::aligned_storage<96, 8>::type" }
%"class.std::allocator.190" = type { i8 }
%"struct.std::__allocated_ptr.193" = type { ptr, ptr }
%"class.std::_Sp_counted_ptr_inplace.194" = type { %"class.std::_Sp_counted_base", %"class.std::_Sp_counted_ptr_inplace<OpenColorIO_v2_4dev::CTFReaderECParamsElt, std::allocator<void>, __gnu_cxx::_S_atomic>::_Impl" }
%"class.std::_Sp_counted_ptr_inplace<OpenColorIO_v2_4dev::CTFReaderECParamsElt, std::allocator<void>, __gnu_cxx::_S_atomic>::_Impl" = type { %"struct.__gnu_cxx::__aligned_buffer.195" }
%"struct.__gnu_cxx::__aligned_buffer.195" = type { %"union.std::aligned_storage<96, 8>::type" }
%"class.std::allocator.196" = type { i8 }
%"struct.std::__allocated_ptr.199" = type { ptr, ptr }
%"class.std::_Sp_counted_ptr_inplace.200" = type { %"class.std::_Sp_counted_base", %"class.std::_Sp_counted_ptr_inplace<OpenColorIO_v2_4dev::CTFReaderIndexMapElt, std::allocator<void>, __gnu_cxx::_S_atomic>::_Impl" }
%"class.std::_Sp_counted_ptr_inplace<OpenColorIO_v2_4dev::CTFReaderIndexMapElt, std::allocator<void>, __gnu_cxx::_S_atomic>::_Impl" = type { %"struct.__gnu_cxx::__aligned_buffer.201" }
%"struct.__gnu_cxx::__aligned_buffer.201" = type { %"union.std::aligned_storage<112, 8>::type" }
%"class.std::allocator.202" = type { i8 }
%"struct.std::__allocated_ptr.205" = type { ptr, ptr }
%"class.std::_Sp_counted_ptr_inplace.206" = type { %"class.std::_Sp_counted_base", %"class.std::_Sp_counted_ptr_inplace<OpenColorIO_v2_4dev::CTFReaderInfoElt, std::allocator<void>, __gnu_cxx::_S_atomic>::_Impl" }
%"class.std::_Sp_counted_ptr_inplace<OpenColorIO_v2_4dev::CTFReaderInfoElt, std::allocator<void>, __gnu_cxx::_S_atomic>::_Impl" = type { %"struct.__gnu_cxx::__aligned_buffer.207" }
%"struct.__gnu_cxx::__aligned_buffer.207" = type { %"union.std::aligned_storage<216, 8>::type" }
%"class.std::allocator.208" = type { i8 }
%"struct.std::__allocated_ptr.211" = type { ptr, ptr }
%"class.std::_Sp_counted_ptr_inplace.212" = type { %"class.std::_Sp_counted_base", %"class.std::_Sp_counted_ptr_inplace<OpenColorIO_v2_4dev::CTFReaderInputDescriptorElt, std::allocator<void>, __gnu_cxx::_S_atomic>::_Impl" }
%"class.std::_Sp_counted_ptr_inplace<OpenColorIO_v2_4dev::CTFReaderInputDescriptorElt, std::allocator<void>, __gnu_cxx::_S_atomic>::_Impl" = type { %"struct.__gnu_cxx::__aligned_buffer.213" }
%"struct.__gnu_cxx::__aligned_buffer.213" = type { %"union.std::aligned_storage<96, 8>::type" }
%"class.OpenColorIO_v2_4dev::CTFReaderTransform" = type <{ %"class.std::__cxx11::basic_string", %"class.std::__cxx11::basic_string", %"class.std::__cxx11::basic_string", %"class.std::__cxx11::basic_string", %"class.std::__cxx11::basic_string", %"class.OpenColorIO_v2_4dev::FormatMetadataImpl", %"class.std::vector.214", %"class.std::vector.147", %"class.OpenColorIO_v2_4dev::CTFVersion", %"class.OpenColorIO_v2_4dev::CTFVersion", i32, [4 x i8] }>
%"class.std::vector.214" = type { %"struct.std::_Vector_base.215" }
%"struct.std::_Vector_base.215" = type { %"struct.std::_Vector_base<std::shared_ptr<const OpenColorIO_v2_4dev::OpData>, std::allocator<std::shared_ptr<const OpenColorIO_v2_4dev::OpData>>>::_Vector_impl" }
%"struct.std::_Vector_base<std::shared_ptr<const OpenColorIO_v2_4dev::OpData>, std::allocator<std::shared_ptr<const OpenColorIO_v2_4dev::OpData>>>::_Vector_impl" = type { %"struct.std::_Vector_base<std::shared_ptr<const OpenColorIO_v2_4dev::OpData>, std::allocator<std::shared_ptr<const OpenColorIO_v2_4dev::OpData>>>::_Vector_impl_data" }
%"struct.std::_Vector_base<std::shared_ptr<const OpenColorIO_v2_4dev::OpData>, std::allocator<std::shared_ptr<const OpenColorIO_v2_4dev::OpData>>>::_Vector_impl_data" = type { ptr, ptr, ptr }
%"class.std::vector.147" = type { %"struct.std::_Vector_base.148" }
%"struct.std::_Vector_base.148" = type { %"struct.std::_Vector_base<std::__cxx11::basic_string<char>, std::allocator<std::__cxx11::basic_string<char>>>::_Vector_impl" }
%"struct.std::_Vector_base<std::__cxx11::basic_string<char>, std::allocator<std::__cxx11::basic_string<char>>>::_Vector_impl" = type { %"struct.std::_Vector_base<std::__cxx11::basic_string<char>, std::allocator<std::__cxx11::basic_string<char>>>::_Vector_impl_data" }
%"struct.std::_Vector_base<std::__cxx11::basic_string<char>, std::allocator<std::__cxx11::basic_string<char>>>::_Vector_impl_data" = type { ptr, ptr, ptr }
%"class.std::allocator.219" = type { i8 }
%"struct.std::__allocated_ptr.222" = type { ptr, ptr }
%"class.std::_Sp_counted_ptr_inplace.223" = type { %"class.std::_Sp_counted_base", %"class.std::_Sp_counted_ptr_inplace<OpenColorIO_v2_4dev::CTFReaderOutputDescriptorElt, std::allocator<void>, __gnu_cxx::_S_atomic>::_Impl" }
%"class.std::_Sp_counted_ptr_inplace<OpenColorIO_v2_4dev::CTFReaderOutputDescriptorElt, std::allocator<void>, __gnu_cxx::_S_atomic>::_Impl" = type { %"struct.__gnu_cxx::__aligned_buffer.224" }
%"struct.__gnu_cxx::__aligned_buffer.224" = type { %"union.std::aligned_storage<96, 8>::type" }
%"class.std::allocator.225" = type { i8 }
%"struct.std::__allocated_ptr.228" = type { ptr, ptr }
%"class.std::_Sp_counted_ptr_inplace.229" = type { %"class.std::_Sp_counted_base", %"class.std::_Sp_counted_ptr_inplace<OpenColorIO_v2_4dev::CTFReaderRangeValueElt, std::allocator<void>, __gnu_cxx::_S_atomic>::_Impl" }
%"class.std::_Sp_counted_ptr_inplace<OpenColorIO_v2_4dev::CTFReaderRangeValueElt, std::allocator<void>, __gnu_cxx::_S_atomic>::_Impl" = type { %"struct.__gnu_cxx::__aligned_buffer.230" }
%"struct.__gnu_cxx::__aligned_buffer.230" = type { %"union.std::aligned_storage<96, 8>::type" }
%"class.std::allocator.231" = type { i8 }
%"struct.std::__allocated_ptr.234" = type { ptr, ptr }
%"class.std::_Sp_counted_ptr_inplace.235" = type { %"class.std::_Sp_counted_base", %"class.std::_Sp_counted_ptr_inplace<OpenColorIO_v2_4dev::CTFReaderSatNodeElt, std::allocator<void>, __gnu_cxx::_S_atomic>::_Impl" }
%"class.std::_Sp_counted_ptr_inplace<OpenColorIO_v2_4dev::CTFReaderSatNodeElt, std::allocator<void>, __gnu_cxx::_S_atomic>::_Impl" = type { %"struct.__gnu_cxx::__aligned_buffer.236" }
%"struct.__gnu_cxx::__aligned_buffer.236" = type { %"union.std::aligned_storage<96, 8>::type" }
%"class.std::allocator.240" = type { i8 }
%"struct.std::__allocated_ptr.243" = type { ptr, ptr }
%"class.std::_Sp_counted_ptr_inplace.244" = type { %"class.std::_Sp_counted_base", %"class.std::_Sp_counted_ptr_inplace<OpenColorIO_v2_4dev::XmlReaderSaturationElt, std::allocator<void>, __gnu_cxx::_S_atomic>::_Impl" }
%"class.std::_Sp_counted_ptr_inplace<OpenColorIO_v2_4dev::XmlReaderSaturationElt, std::allocator<void>, __gnu_cxx::_S_atomic>::_Impl" = type { %"struct.__gnu_cxx::__aligned_buffer.245" }
%"struct.__gnu_cxx::__aligned_buffer.245" = type { %"union.std::aligned_storage<128, 8>::type" }
%"union.std::aligned_storage<128, 8>::type" = type { [128 x i8] }
%"class.std::allocator.248" = type { i8 }
%"struct.std::__allocated_ptr.251" = type { ptr, ptr }
%"class.std::_Sp_counted_ptr_inplace.252" = type { %"class.std::_Sp_counted_base", %"class.std::_Sp_counted_ptr_inplace<OpenColorIO_v2_4dev::CTFReaderSOPNodeElt, std::allocator<void>, __gnu_cxx::_S_atomic>::_Impl" }
%"class.std::_Sp_counted_ptr_inplace<OpenColorIO_v2_4dev::CTFReaderSOPNodeElt, std::allocator<void>, __gnu_cxx::_S_atomic>::_Impl" = type { %"struct.__gnu_cxx::__aligned_buffer.253" }
%"struct.__gnu_cxx::__aligned_buffer.253" = type { %"union.std::aligned_storage<104, 8>::type" }
%"class.std::allocator.254" = type { i8 }
%"struct.std::__allocated_ptr.257" = type { ptr, ptr }
%"class.std::_Sp_counted_ptr_inplace.258" = type { %"class.std::_Sp_counted_base", %"class.std::_Sp_counted_ptr_inplace<OpenColorIO_v2_4dev::XmlReaderSOPValueElt, std::allocator<void>, __gnu_cxx::_S_atomic>::_Impl" }
%"class.std::_Sp_counted_ptr_inplace<OpenColorIO_v2_4dev::XmlReaderSOPValueElt, std::allocator<void>, __gnu_cxx::_S_atomic>::_Impl" = type { %"struct.__gnu_cxx::__aligned_buffer.259" }
%"struct.__gnu_cxx::__aligned_buffer.259" = type { %"union.std::aligned_storage<128, 8>::type" }
%"class.std::allocator.260" = type { i8 }
%"struct.std::__allocated_ptr.263" = type { ptr, ptr }
%"class.std::_Sp_counted_ptr_inplace.264" = type { %"class.std::_Sp_counted_base", %"class.std::_Sp_counted_ptr_inplace<OpenColorIO_v2_4dev::CTFReaderGradingPrimaryParamElt, std::allocator<void>, __gnu_cxx::_S_atomic>::_Impl" }
%"class.std::_Sp_counted_ptr_inplace<OpenColorIO_v2_4dev::CTFReaderGradingPrimaryParamElt, std::allocator<void>, __gnu_cxx::_S_atomic>::_Impl" = type { %"struct.__gnu_cxx::__aligned_buffer.265" }
%"struct.__gnu_cxx::__aligned_buffer.265" = type { %"union.std::aligned_storage<96, 8>::type" }
%"class.std::allocator.266" = type { i8 }
%"struct.std::__allocated_ptr.269" = type { ptr, ptr }
%"class.std::_Sp_counted_ptr_inplace.270" = type { %"class.std::_Sp_counted_base", %"class.std::_Sp_counted_ptr_inplace<OpenColorIO_v2_4dev::CTFReaderGradingCurveElt, std::allocator<void>, __gnu_cxx::_S_atomic>::_Impl" }
%"class.std::_Sp_counted_ptr_inplace<OpenColorIO_v2_4dev::CTFReaderGradingCurveElt, std::allocator<void>, __gnu_cxx::_S_atomic>::_Impl" = type { %"struct.__gnu_cxx::__aligned_buffer.271" }
%"struct.__gnu_cxx::__aligned_buffer.271" = type { %"union.std::aligned_storage<112, 8>::type" }
%"class.std::allocator.275" = type { i8 }
%"struct.std::__allocated_ptr.278" = type { ptr, ptr }
%"class.std::_Sp_counted_ptr_inplace.279" = type { %"class.std::_Sp_counted_base", %"class.std::_Sp_counted_ptr_inplace<OpenColorIO_v2_4dev::CTFReaderGradingCurvePointsElt, std::allocator<void>, __gnu_cxx::_S_atomic>::_Impl" }
%"class.std::_Sp_counted_ptr_inplace<OpenColorIO_v2_4dev::CTFReaderGradingCurvePointsElt, std::allocator<void>, __gnu_cxx::_S_atomic>::_Impl" = type { %"struct.__gnu_cxx::__aligned_buffer.280" }
%"struct.__gnu_cxx::__aligned_buffer.280" = type { %"union.std::aligned_storage<120, 8>::type" }
%"class.std::allocator.286" = type { i8 }
%"struct.std::__allocated_ptr.289" = type { ptr, ptr }
%"class.std::_Sp_counted_ptr_inplace.290" = type { %"class.std::_Sp_counted_base", %"class.std::_Sp_counted_ptr_inplace<OpenColorIO_v2_4dev::CTFReaderGradingCurveSlopesElt, std::allocator<void>, __gnu_cxx::_S_atomic>::_Impl" }
%"class.std::_Sp_counted_ptr_inplace<OpenColorIO_v2_4dev::CTFReaderGradingCurveSlopesElt, std::allocator<void>, __gnu_cxx::_S_atomic>::_Impl" = type { %"struct.__gnu_cxx::__aligned_buffer.291" }
%"struct.__gnu_cxx::__aligned_buffer.291" = type { %"union.std::aligned_storage<120, 8>::type" }
%"class.std::allocator.292" = type { i8 }
%"struct.std::__allocated_ptr.295" = type { ptr, ptr }
%"class.std::_Sp_counted_ptr_inplace.296" = type { %"class.std::_Sp_counted_base", %"class.std::_Sp_counted_ptr_inplace<OpenColorIO_v2_4dev::CTFReaderGradingToneParamElt, std::allocator<void>, __gnu_cxx::_S_atomic>::_Impl" }
%"class.std::_Sp_counted_ptr_inplace<OpenColorIO_v2_4dev::CTFReaderGradingToneParamElt, std::allocator<void>, __gnu_cxx::_S_atomic>::_Impl" = type { %"struct.__gnu_cxx::__aligned_buffer.297" }
%"struct.__gnu_cxx::__aligned_buffer.297" = type { %"union.std::aligned_storage<96, 8>::type" }
%class.anon = type { i8 }
%"class.std::_Sp_counted_ptr" = type { %"class.std::_Sp_counted_base", ptr }
%"class.OpenColorIO_v2_4dev::Lut1DOpData" = type <{ %"class.OpenColorIO_v2_4dev::OpData", i32, [4 x i8], %"class.OpenColorIO_v2_4dev::Lut1DOpData::Lut3by1DArray", i32, i32, i32, [4 x i8], [3 x %"struct.OpenColorIO_v2_4dev::Lut1DOpData::ComponentProperties"], i32, [4 x i8] }>
%"class.OpenColorIO_v2_4dev::OpData" = type { ptr, %"class.std::mutex", %"class.OpenColorIO_v2_4dev::FormatMetadataImpl" }
%"class.std::mutex" = type { %"class.std::__mutex_base" }
%"class.std::__mutex_base" = type { %union.pthread_mutex_t }
%union.pthread_mutex_t = type { %struct.__pthread_mutex_s }
%struct.__pthread_mutex_s = type { i32, i32, i32, i32, i32, i16, i16, %struct.__pthread_internal_list }
%struct.__pthread_internal_list = type { ptr, ptr }
%"class.OpenColorIO_v2_4dev::Lut1DOpData::Lut3by1DArray" = type { %"class.OpenColorIO_v2_4dev::ArrayT" }
%"class.OpenColorIO_v2_4dev::ArrayT" = type { %"class.OpenColorIO_v2_4dev::ArrayBase", i64, i64, %"class.std::vector.281" }
%"class.OpenColorIO_v2_4dev::ArrayBase" = type { ptr }
%"struct.OpenColorIO_v2_4dev::Lut1DOpData::ComponentProperties" = type { i8, i64, i64, i64, i64 }
%"class.__gnu_cxx::__normal_iterator.342" = type { ptr }
%"class.__gnu_cxx::__normal_iterator.343" = type { ptr }
%"class.OpenColorIO_v2_4dev::Lut3DOpData" = type { %"class.OpenColorIO_v2_4dev::OpData", i32, %"class.OpenColorIO_v2_4dev::Lut3DOpData::Lut3DArray", i32, i32 }
%"class.OpenColorIO_v2_4dev::Lut3DOpData::Lut3DArray" = type { %"class.OpenColorIO_v2_4dev::ArrayT" }
%"class.std::shared_ptr.328" = type { %"class.std::__shared_ptr.329" }
%"class.std::__shared_ptr.329" = type { ptr, %"class.std::__shared_count" }
%"class.std::allocator.334" = type { i8 }
%"struct.std::__allocated_ptr.337" = type { ptr, ptr }
%"class.std::_Sp_counted_ptr_inplace.338" = type { %"class.std::_Sp_counted_base", %"class.std::_Sp_counted_ptr_inplace<OpenColorIO_v2_4dev::Lut1DOpData, std::allocator<void>, __gnu_cxx::_S_atomic>::_Impl" }
%"class.std::_Sp_counted_ptr_inplace<OpenColorIO_v2_4dev::Lut1DOpData, std::allocator<void>, __gnu_cxx::_S_atomic>::_Impl" = type { %"struct.__gnu_cxx::__aligned_buffer.339" }
%"struct.__gnu_cxx::__aligned_buffer.339" = type { %"union.std::aligned_storage<368, 8>::type" }
%"union.std::aligned_storage<368, 8>::type" = type { [368 x i8] }
%"class.std::allocator.344" = type { i8 }
%"struct.std::__allocated_ptr.347" = type { ptr, ptr }
%"class.std::_Sp_counted_ptr_inplace.348" = type { %"class.std::_Sp_counted_base", %"class.std::_Sp_counted_ptr_inplace<OpenColorIO_v2_4dev::Lut3DOpData, std::allocator<void>, __gnu_cxx::_S_atomic>::_Impl" }
%"class.std::_Sp_counted_ptr_inplace<OpenColorIO_v2_4dev::Lut3DOpData, std::allocator<void>, __gnu_cxx::_S_atomic>::_Impl" = type { %"struct.__gnu_cxx::__aligned_buffer.349" }
%"struct.__gnu_cxx::__aligned_buffer.349" = type { %"union.std::aligned_storage<232, 8>::type" }
%"union.std::aligned_storage<232, 8>::type" = type { [232 x i8] }
%"class.std::allocator.355" = type { i8 }
%"struct.std::__allocated_ptr.358" = type { ptr, ptr }
%"class.std::_Sp_counted_ptr_inplace.359" = type { %"class.std::_Sp_counted_base", %"class.std::_Sp_counted_ptr_inplace<OpenColorIO_v2_4dev::CTFReaderTransform, std::allocator<void>, __gnu_cxx::_S_atomic>::_Impl" }
%"class.std::_Sp_counted_ptr_inplace<OpenColorIO_v2_4dev::CTFReaderTransform, std::allocator<void>, __gnu_cxx::_S_atomic>::_Impl" = type { %"struct.__gnu_cxx::__aligned_buffer.360" }
%"struct.__gnu_cxx::__aligned_buffer.360" = type { %"union.std::aligned_storage<360, 8>::type" }
%"union.std::aligned_storage<360, 8>::type" = type { [360 x i8] }
%"class.std::shared_ptr.372" = type { %"class.std::__shared_ptr.373" }
%"class.std::__shared_ptr.373" = type { ptr, %"class.std::__shared_count" }
%"class.std::shared_ptr.375" = type { %"class.std::__shared_ptr.376" }
%"class.std::__shared_ptr.376" = type { ptr, %"class.std::__shared_count" }
%"class.std::shared_ptr.366" = type { %"class.std::__shared_ptr.367" }
%"class.std::__shared_ptr.367" = type { ptr, %"class.std::__shared_count" }
%"class.std::shared_ptr.369" = type { %"class.std::__shared_ptr.370" }
%"class.std::__shared_ptr.370" = type { ptr, %"class.std::__shared_count" }
%"class.OpenColorIO_v2_4dev::ReferenceOpData" = type <{ %"class.OpenColorIO_v2_4dev::OpData", i32, [4 x i8], %"class.std::__cxx11::basic_string", %"class.std::__cxx11::basic_string", i32, [4 x i8] }>

$_ZN19OpenColorIO_v2_4dev10CTFVersionC2Ejj = comdat any

$_ZN19OpenColorIO_v2_4dev10CTFVersionD2Ev = comdat any

$_ZN19OpenColorIO_v2_4dev10CTFVersionC2ERKS0_ = comdat any

$_ZN19OpenColorIO_v2_4dev11NumberUtils6LocaleC2Ev = comdat any

$_ZN19OpenColorIO_v2_4dev11NumberUtils6LocaleD2Ev = comdat any

$_ZN19OpenColorIO_v2_4dev10FileFormatC2Ev = comdat any

$_ZNK19OpenColorIO_v2_4dev10FileFormat8isBinaryEv = comdat any

$_ZN19OpenColorIO_v2_4dev10FormatInfoC2Ev = comdat any

$_ZNSt6vectorIN19OpenColorIO_v2_4dev10FormatInfoESaIS1_EE9push_backERKS1_ = comdat any

$_ZN19OpenColorIO_v2_4dev10FormatInfoD2Ev = comdat any

$_ZNSt16allocator_traitsISaIN19OpenColorIO_v2_4dev10FormatInfoEEE9constructIS1_JRKS1_EEEvRS2_PT_DpOT0_ = comdat any

$_ZNSt6vectorIN19OpenColorIO_v2_4dev10FormatInfoESaIS1_EE17_M_realloc_insertIJRKS1_EEEvN9__gnu_cxx17__normal_iteratorIPS1_S3_EEDpOT_ = comdat any

$_ZNSt6vectorIN19OpenColorIO_v2_4dev10FormatInfoESaIS1_EE3endEv = comdat any

$_ZNSt15__new_allocatorIN19OpenColorIO_v2_4dev10FormatInfoEE9constructIS1_JRKS1_EEEvPT_DpOT0_ = comdat any

$_ZN19OpenColorIO_v2_4dev10FormatInfoC2ERKS0_ = comdat any

$_ZNKSt6vectorIN19OpenColorIO_v2_4dev10FormatInfoESaIS1_EE12_M_check_lenEmPKc = comdat any

$_ZN9__gnu_cxxmiIPN19OpenColorIO_v2_4dev10FormatInfoESt6vectorIS2_SaIS2_EEEENS_17__normal_iteratorIT_T0_E15difference_typeERKSA_SD_ = comdat any

$_ZNSt6vectorIN19OpenColorIO_v2_4dev10FormatInfoESaIS1_EE5beginEv = comdat any

$_ZNSt12_Vector_baseIN19OpenColorIO_v2_4dev10FormatInfoESaIS1_EE11_M_allocateEm = comdat any

$_ZNSt6vectorIN19OpenColorIO_v2_4dev10FormatInfoESaIS1_EE11_S_relocateEPS1_S4_S4_RS2_ = comdat any

$_ZNK9__gnu_cxx17__normal_iteratorIPN19OpenColorIO_v2_4dev10FormatInfoESt6vectorIS2_SaIS2_EEE4baseEv = comdat any

$_ZNSt12_Vector_baseIN19OpenColorIO_v2_4dev10FormatInfoESaIS1_EE19_M_get_Tp_allocatorEv = comdat any

$_ZNSt16allocator_traitsISaIN19OpenColorIO_v2_4dev10FormatInfoEEE7destroyIS1_EEvRS2_PT_ = comdat any

$_ZSt8_DestroyIPN19OpenColorIO_v2_4dev10FormatInfoES1_EvT_S3_RSaIT0_E = comdat any

$_ZNSt12_Vector_baseIN19OpenColorIO_v2_4dev10FormatInfoESaIS1_EE13_M_deallocateEPS1_m = comdat any

$__clang_call_terminate = comdat any

$_ZNKSt6vectorIN19OpenColorIO_v2_4dev10FormatInfoESaIS1_EE8max_sizeEv = comdat any

$_ZNKSt6vectorIN19OpenColorIO_v2_4dev10FormatInfoESaIS1_EE4sizeEv = comdat any

$_ZSt3maxImERKT_S2_S2_ = comdat any

$_ZNSt6vectorIN19OpenColorIO_v2_4dev10FormatInfoESaIS1_EE11_S_max_sizeERKS2_ = comdat any

$_ZNKSt12_Vector_baseIN19OpenColorIO_v2_4dev10FormatInfoESaIS1_EE19_M_get_Tp_allocatorEv = comdat any

$_ZNSt16allocator_traitsISaIN19OpenColorIO_v2_4dev10FormatInfoEEE8max_sizeERKS2_ = comdat any

$_ZSt3minImERKT_S2_S2_ = comdat any

$_ZNKSt15__new_allocatorIN19OpenColorIO_v2_4dev10FormatInfoEE8max_sizeEv = comdat any

$_ZNKSt15__new_allocatorIN19OpenColorIO_v2_4dev10FormatInfoEE11_M_max_sizeEv = comdat any

$_ZN9__gnu_cxx17__normal_iteratorIPN19OpenColorIO_v2_4dev10FormatInfoESt6vectorIS2_SaIS2_EEEC2ERKS3_ = comdat any

$_ZNSt16allocator_traitsISaIN19OpenColorIO_v2_4dev10FormatInfoEEE8allocateERS2_m = comdat any

$_ZNSt15__new_allocatorIN19OpenColorIO_v2_4dev10FormatInfoEE8allocateEmPKv = comdat any

$_ZNSt6vectorIN19OpenColorIO_v2_4dev10FormatInfoESaIS1_EE14_S_do_relocateEPS1_S4_S4_RS2_St17integral_constantIbLb1EE = comdat any

$_ZSt12__relocate_aIPN19OpenColorIO_v2_4dev10FormatInfoES2_SaIS1_EET0_T_S5_S4_RT1_ = comdat any

$_ZSt14__relocate_a_1IPN19OpenColorIO_v2_4dev10FormatInfoES2_SaIS1_EET0_T_S5_S4_RT1_ = comdat any

$_ZSt12__niter_baseIPN19OpenColorIO_v2_4dev10FormatInfoEET_S3_ = comdat any

$_ZSt19__relocate_object_aIN19OpenColorIO_v2_4dev10FormatInfoES1_SaIS1_EEvPT_PT0_RT1_ = comdat any

$_ZNSt16allocator_traitsISaIN19OpenColorIO_v2_4dev10FormatInfoEEE9constructIS1_JS1_EEEvRS2_PT_DpOT0_ = comdat any

$_ZNSt15__new_allocatorIN19OpenColorIO_v2_4dev10FormatInfoEE9constructIS1_JS1_EEEvPT_DpOT0_ = comdat any

$_ZN19OpenColorIO_v2_4dev10FormatInfoC2EOS0_ = comdat any

$_ZNSt15__new_allocatorIN19OpenColorIO_v2_4dev10FormatInfoEE7destroyIS1_EEvPT_ = comdat any

$_ZSt8_DestroyIPN19OpenColorIO_v2_4dev10FormatInfoEEvT_S3_ = comdat any

$_ZNSt12_Destroy_auxILb0EE9__destroyIPN19OpenColorIO_v2_4dev10FormatInfoEEEvT_S5_ = comdat any

$_ZSt8_DestroyIN19OpenColorIO_v2_4dev10FormatInfoEEvPT_ = comdat any

$_ZNSt16allocator_traitsISaIN19OpenColorIO_v2_4dev10FormatInfoEEE10deallocateERS2_PS1_m = comdat any

$_ZNSt15__new_allocatorIN19OpenColorIO_v2_4dev10FormatInfoEE10deallocateEPS1_m = comdat any

$_ZNSt10shared_ptrIN19OpenColorIO_v2_4dev18CTFReaderTransformEEaSEOS2_ = comdat any

$_ZNSt10shared_ptrIN19OpenColorIO_v2_4dev18CTFReaderTransformEED2Ev = comdat any

$_ZNSt10shared_ptrIN19OpenColorIO_v2_4dev18CTFReaderTransformEEC2Ev = comdat any

$_ZSteqIcSt11char_traitsIcESaIcEEbRKNSt7__cxx1112basic_stringIT_T0_T1_EEPKS5_ = comdat any

$_ZN11StringUtils5LowerENSt7__cxx1112basic_stringIcSt11char_traitsIcESaIcEEE = comdat any

$_ZNSt12__shared_ptrIN19OpenColorIO_v2_4dev18CTFReaderTransformELN9__gnu_cxx12_Lock_policyE2EEC2Ev = comdat any

$_ZNSt14__shared_countILN9__gnu_cxx12_Lock_policyE2EEC2Ev = comdat any

$_ZNSaIPKcEC2Ev = comdat any

$_ZNSt6vectorIPKcSaIS1_EEC2ESt16initializer_listIS1_ERKS2_ = comdat any

$_ZNSaIPKcED2Ev = comdat any

$_ZNSt6vectorIPKcSaIS1_EED2Ev = comdat any

$_ZSt20dynamic_pointer_castIN19OpenColorIO_v2_4dev20CTFReaderMetadataEltENS0_16XmlReaderElementEESt10shared_ptrIT_ERKS3_IT0_E = comdat any

$_ZNKSt12__shared_ptrIN19OpenColorIO_v2_4dev20CTFReaderMetadataEltELN9__gnu_cxx12_Lock_policyE2EEcvbEv = comdat any

$_ZSt11make_sharedIN19OpenColorIO_v2_4dev20CTFReaderMetadataEltEJRPKcRSt10shared_ptrIS1_ERjRNSt7__cxx1112basic_stringIcSt11char_traitsIcESaIcEEEEES5_INSt9enable_ifIXntsr8is_arrayIT_EE5valueESH_E4typeEEDpOT0_ = comdat any

$_ZNSt10shared_ptrIN19OpenColorIO_v2_4dev16XmlReaderElementEEC2INS0_20CTFReaderMetadataEltEvEEOS_IT_E = comdat any

$_ZNSt10shared_ptrIN19OpenColorIO_v2_4dev16XmlReaderElementEED2Ev = comdat any

$_ZNSt10shared_ptrIN19OpenColorIO_v2_4dev20CTFReaderMetadataEltEED2Ev = comdat any

$_ZNKSt19__shared_ptr_accessIN19OpenColorIO_v2_4dev16XmlReaderElementELN9__gnu_cxx12_Lock_policyE2ELb0ELb0EEptEv = comdat any

$_ZNKSt12__shared_ptrIN19OpenColorIO_v2_4dev18CTFReaderTransformELN9__gnu_cxx12_Lock_policyE2EE3getEv = comdat any

$_ZSt20dynamic_pointer_castIN19OpenColorIO_v2_4dev21CTFReaderTransformEltENS0_16XmlReaderElementEESt10shared_ptrIT_ERKS3_IT0_E = comdat any

$_ZSt11make_sharedIN19OpenColorIO_v2_4dev17XmlReaderDummyEltEJRPKcRSt10shared_ptrINS0_21CTFReaderTransformEltEEjRKNSt7__cxx1112basic_stringIcSt11char_traitsIcESaIcEEERA29_S2_EES5_INSt9enable_ifIXntsr8is_arrayIT_EE5valueESK_E4typeEEDpOT0_ = comdat any

$_ZNSt10shared_ptrIN19OpenColorIO_v2_4dev16XmlReaderElementEEC2INS0_17XmlReaderDummyEltEvEEOS_IT_E = comdat any

$_ZNSt10shared_ptrIN19OpenColorIO_v2_4dev17XmlReaderDummyEltEED2Ev = comdat any

$_ZNSt10shared_ptrIN19OpenColorIO_v2_4dev21CTFReaderTransformEltEED2Ev = comdat any

$_ZSt11make_sharedIN19OpenColorIO_v2_4dev21CTFReaderTransformEltEJRPKcjRKNSt7__cxx1112basic_stringIcSt11char_traitsIcESaIcEEEbEESt10shared_ptrINSt9enable_ifIXntsr8is_arrayIT_EE5valueESF_E4typeEEDpOT0_ = comdat any

$_ZNSt10shared_ptrIN19OpenColorIO_v2_4dev16XmlReaderElementEEC2INS0_21CTFReaderTransformEltEvEERKS_IT_E = comdat any

$_ZNKSt19__shared_ptr_accessIN19OpenColorIO_v2_4dev21CTFReaderTransformEltELN9__gnu_cxx12_Lock_policyE2ELb0ELb0EEptEv = comdat any

$_ZNSt10shared_ptrIN19OpenColorIO_v2_4dev18CTFReaderTransformEEaSERKS2_ = comdat any

$_ZNSt10shared_ptrIN19OpenColorIO_v2_4dev16XmlReaderElementEEC2Ev = comdat any

$_ZNSt10shared_ptrIN19OpenColorIO_v2_4dev16XmlReaderElementEEaSEOS2_ = comdat any

$_ZSt20dynamic_pointer_castIN19OpenColorIO_v2_4dev21XmlReaderContainerEltENS0_16XmlReaderElementEESt10shared_ptrIT_ERKS3_IT0_E = comdat any

$_ZNKSt12__shared_ptrIN19OpenColorIO_v2_4dev21XmlReaderContainerEltELN9__gnu_cxx12_Lock_policyE2EEcvbEv = comdat any

$_ZSt11make_sharedIN19OpenColorIO_v2_4dev17XmlReaderDummyEltEJRPKcRSt10shared_ptrINS0_16XmlReaderElementEEjRKNSt7__cxx1112basic_stringIcSt11char_traitsIcESaIcEEEDnEES5_INSt9enable_ifIXntsr8is_arrayIT_EE5valueESI_E4typeEEDpOT0_ = comdat any

$_ZSt11make_sharedIN19OpenColorIO_v2_4dev22CTFReaderACESParamsEltEJRPKcRSt10shared_ptrINS0_21XmlReaderContainerEltEEjRKNSt7__cxx1112basic_stringIcSt11char_traitsIcESaIcEEEEES5_INSt9enable_ifIXntsr8is_arrayIT_EE5valueESI_E4typeEEDpOT0_ = comdat any

$_ZNSt10shared_ptrIN19OpenColorIO_v2_4dev16XmlReaderElementEEC2INS0_22CTFReaderACESParamsEltEvEEOS_IT_E = comdat any

$_ZNSt10shared_ptrIN19OpenColorIO_v2_4dev22CTFReaderACESParamsEltEED2Ev = comdat any

$_ZSt20dynamic_pointer_castIN19OpenColorIO_v2_4dev11CTFArrayMgtENS0_21XmlReaderContainerEltEESt10shared_ptrIT_ERKS3_IT0_E = comdat any

$_ZNKSt12__shared_ptrIN19OpenColorIO_v2_4dev11CTFArrayMgtELN9__gnu_cxx12_Lock_policyE2EEcvbEv = comdat any

$_ZNKSt19__shared_ptr_accessIN19OpenColorIO_v2_4dev11CTFArrayMgtELN9__gnu_cxx12_Lock_policyE2ELb0ELb0EEptEv = comdat any

$_ZN19OpenColorIO_v2_4dev11CTFArrayMgt11isCompletedEv = comdat any

$_ZSt11make_sharedIN19OpenColorIO_v2_4dev17XmlReaderDummyEltEJRPKcSt10shared_ptrINS0_16XmlReaderElementEEjRKNSt7__cxx1112basic_stringIcSt11char_traitsIcESaIcEEERA34_S2_EES5_INSt9enable_ifIXntsr8is_arrayIT_EE5valueESJ_E4typeEEDpOT0_ = comdat any

$_ZNSt10shared_ptrIN19OpenColorIO_v2_4dev16XmlReaderElementEEC2EDn = comdat any

$_ZSt11make_sharedIN19OpenColorIO_v2_4dev17XmlReaderDummyEltEJRPKcSt10shared_ptrINS0_16XmlReaderElementEEjRKNSt7__cxx1112basic_stringIcSt11char_traitsIcESaIcEEERA30_S2_EES5_INSt9enable_ifIXntsr8is_arrayIT_EE5valueESJ_E4typeEEDpOT0_ = comdat any

$_ZSt11make_sharedIN19OpenColorIO_v2_4dev17CTFReaderArrayEltEJRPKcRSt10shared_ptrINS0_21XmlReaderContainerEltEEjRKNSt7__cxx1112basic_stringIcSt11char_traitsIcESaIcEEEEES5_INSt9enable_ifIXntsr8is_arrayIT_EE5valueESI_E4typeEEDpOT0_ = comdat any

$_ZNSt10shared_ptrIN19OpenColorIO_v2_4dev16XmlReaderElementEEC2INS0_17CTFReaderArrayEltEvEEOS_IT_E = comdat any

$_ZNSt10shared_ptrIN19OpenColorIO_v2_4dev17CTFReaderArrayEltEED2Ev = comdat any

$_ZNSt10shared_ptrIN19OpenColorIO_v2_4dev11CTFArrayMgtEED2Ev = comdat any

$_ZSt11make_sharedIN19OpenColorIO_v2_4dev23XmlReaderDescriptionEltEJRPKcRSt10shared_ptrINS0_21XmlReaderContainerEltEEjRKNSt7__cxx1112basic_stringIcSt11char_traitsIcESaIcEEEEES5_INSt9enable_ifIXntsr8is_arrayIT_EE5valueESI_E4typeEEDpOT0_ = comdat any

$_ZNSt10shared_ptrIN19OpenColorIO_v2_4dev16XmlReaderElementEEC2INS0_23XmlReaderDescriptionEltEvEEOS_IT_E = comdat any

$_ZNSt10shared_ptrIN19OpenColorIO_v2_4dev23XmlReaderDescriptionEltEED2Ev = comdat any

$_ZSt20dynamic_pointer_castIN19OpenColorIO_v2_4dev14CTFReaderOpEltENS0_21XmlReaderContainerEltEESt10shared_ptrIT_ERKS3_IT0_E = comdat any

$_ZNKSt12__shared_ptrIN19OpenColorIO_v2_4dev14CTFReaderOpEltELN9__gnu_cxx12_Lock_policyE2EEcvbEv = comdat any

$_ZNSt10shared_ptrIN19OpenColorIO_v2_4dev14CTFReaderOpEltEED2Ev = comdat any

$_ZSt11make_sharedIN19OpenColorIO_v2_4dev24CTFReaderDynamicParamEltEJRPKcRSt10shared_ptrINS0_21XmlReaderContainerEltEEjRKNSt7__cxx1112basic_stringIcSt11char_traitsIcESaIcEEEEES5_INSt9enable_ifIXntsr8is_arrayIT_EE5valueESI_E4typeEEDpOT0_ = comdat any

$_ZNSt10shared_ptrIN19OpenColorIO_v2_4dev16XmlReaderElementEEC2INS0_24CTFReaderDynamicParamEltEvEEOS_IT_E = comdat any

$_ZNSt10shared_ptrIN19OpenColorIO_v2_4dev24CTFReaderDynamicParamEltEED2Ev = comdat any

$_ZSt11make_sharedIN19OpenColorIO_v2_4dev20CTFReaderECParamsEltEJRPKcRSt10shared_ptrINS0_21XmlReaderContainerEltEEjRKNSt7__cxx1112basic_stringIcSt11char_traitsIcESaIcEEEEES5_INSt9enable_ifIXntsr8is_arrayIT_EE5valueESI_E4typeEEDpOT0_ = comdat any

$_ZNSt10shared_ptrIN19OpenColorIO_v2_4dev16XmlReaderElementEEC2INS0_20CTFReaderECParamsEltEvEEOS_IT_E = comdat any

$_ZNSt10shared_ptrIN19OpenColorIO_v2_4dev20CTFReaderECParamsEltEED2Ev = comdat any

$_ZNKSt12__shared_ptrIN19OpenColorIO_v2_4dev21XmlReaderContainerEltELN9__gnu_cxx12_Lock_policyE2EE3getEv = comdat any

$_ZNSt10shared_ptrIN19OpenColorIO_v2_4dev21XmlReaderContainerEltEEC2ERKS2_ = comdat any

$_ZNSt10shared_ptrIN19OpenColorIO_v2_4dev16XmlReaderElementEEC2INS0_23CTFReaderGammaParamsEltEvEEOS_IT_E = comdat any

$_ZNSt10shared_ptrIN19OpenColorIO_v2_4dev23CTFReaderGammaParamsEltEED2Ev = comdat any

$_ZNSt10shared_ptrIN19OpenColorIO_v2_4dev21XmlReaderContainerEltEED2Ev = comdat any

$_ZSt20dynamic_pointer_castIN19OpenColorIO_v2_4dev14CTFIndexMapMgtENS0_21XmlReaderContainerEltEESt10shared_ptrIT_ERKS3_IT0_E = comdat any

$_ZNKSt12__shared_ptrIN19OpenColorIO_v2_4dev14CTFIndexMapMgtELN9__gnu_cxx12_Lock_policyE2EEcvbEv = comdat any

$_ZNKSt19__shared_ptr_accessIN19OpenColorIO_v2_4dev14CTFIndexMapMgtELN9__gnu_cxx12_Lock_policyE2ELb0ELb0EEptEv = comdat any

$_ZN19OpenColorIO_v2_4dev14CTFIndexMapMgt13isCompletedIMEv = comdat any

$_ZSt11make_sharedIN19OpenColorIO_v2_4dev17XmlReaderDummyEltEJRPKcSt10shared_ptrINS0_16XmlReaderElementEEjRKNSt7__cxx1112basic_stringIcSt11char_traitsIcESaIcEEERA37_S2_EES5_INSt9enable_ifIXntsr8is_arrayIT_EE5valueESJ_E4typeEEDpOT0_ = comdat any

$_ZSt11make_sharedIN19OpenColorIO_v2_4dev20CTFReaderIndexMapEltEJRPKcRSt10shared_ptrINS0_21XmlReaderContainerEltEEjRKNSt7__cxx1112basic_stringIcSt11char_traitsIcESaIcEEEEES5_INSt9enable_ifIXntsr8is_arrayIT_EE5valueESI_E4typeEEDpOT0_ = comdat any

$_ZNSt10shared_ptrIN19OpenColorIO_v2_4dev16XmlReaderElementEEC2INS0_20CTFReaderIndexMapEltEvEEOS_IT_E = comdat any

$_ZNSt10shared_ptrIN19OpenColorIO_v2_4dev20CTFReaderIndexMapEltEED2Ev = comdat any

$_ZNSt10shared_ptrIN19OpenColorIO_v2_4dev14CTFIndexMapMgtEED2Ev = comdat any

$_ZSt11make_sharedIN19OpenColorIO_v2_4dev16CTFReaderInfoEltEJRPKcRSt10shared_ptrINS0_21XmlReaderContainerEltEEjRKNSt7__cxx1112basic_stringIcSt11char_traitsIcESaIcEEEEES5_INSt9enable_ifIXntsr8is_arrayIT_EE5valueESI_E4typeEEDpOT0_ = comdat any

$_ZNSt10shared_ptrIN19OpenColorIO_v2_4dev16XmlReaderElementEEC2INS0_16CTFReaderInfoEltEvEEOS_IT_E = comdat any

$_ZNSt10shared_ptrIN19OpenColorIO_v2_4dev16CTFReaderInfoEltEED2Ev = comdat any

$_ZSt11make_sharedIN19OpenColorIO_v2_4dev27CTFReaderInputDescriptorEltEJRPKcRSt10shared_ptrINS0_21XmlReaderContainerEltEEjRKNSt7__cxx1112basic_stringIcSt11char_traitsIcESaIcEEEEES5_INSt9enable_ifIXntsr8is_arrayIT_EE5valueESI_E4typeEEDpOT0_ = comdat any

$_ZNSt10shared_ptrIN19OpenColorIO_v2_4dev16XmlReaderElementEEC2INS0_27CTFReaderInputDescriptorEltEvEEOS_IT_E = comdat any

$_ZNSt10shared_ptrIN19OpenColorIO_v2_4dev27CTFReaderInputDescriptorEltEED2Ev = comdat any

$_ZSt20dynamic_pointer_castIN19OpenColorIO_v2_4dev15CTFReaderLogEltENS0_21XmlReaderContainerEltEESt10shared_ptrIT_ERKS3_IT0_E = comdat any

$_ZNKSt19__shared_ptr_accessIN19OpenColorIO_v2_4dev15CTFReaderLogEltELN9__gnu_cxx12_Lock_policyE2ELb0ELb0EEptEv = comdat any

$_ZN19OpenColorIO_v2_4dev15CTFReaderLogElt12getCTFParamsEv = comdat any

$_ZSt11make_sharedIN19OpenColorIO_v2_4dev17XmlReaderDummyEltEJRPKcSt10shared_ptrINS0_16XmlReaderElementEEjRKNSt7__cxx1112basic_stringIcSt11char_traitsIcESaIcEEERA39_S2_EES5_INSt9enable_ifIXntsr8is_arrayIT_EE5valueESJ_E4typeEEDpOT0_ = comdat any

$_ZNSt10shared_ptrIN19OpenColorIO_v2_4dev16XmlReaderElementEEC2INS0_21CTFReaderLogParamsEltEvEEOS_IT_E = comdat any

$_ZNSt10shared_ptrIN19OpenColorIO_v2_4dev21CTFReaderLogParamsEltEED2Ev = comdat any

$_ZNSt10shared_ptrIN19OpenColorIO_v2_4dev15CTFReaderLogEltEED2Ev = comdat any

$_ZSt11make_sharedIN19OpenColorIO_v2_4dev28CTFReaderOutputDescriptorEltEJRPKcRSt10shared_ptrINS0_21XmlReaderContainerEltEEjRKNSt7__cxx1112basic_stringIcSt11char_traitsIcESaIcEEEEES5_INSt9enable_ifIXntsr8is_arrayIT_EE5valueESI_E4typeEEDpOT0_ = comdat any

$_ZNSt10shared_ptrIN19OpenColorIO_v2_4dev16XmlReaderElementEEC2INS0_28CTFReaderOutputDescriptorEltEvEEOS_IT_E = comdat any

$_ZNSt10shared_ptrIN19OpenColorIO_v2_4dev28CTFReaderOutputDescriptorEltEED2Ev = comdat any

$_ZSt11make_sharedIN19OpenColorIO_v2_4dev22CTFReaderRangeValueEltEJRPKcRSt10shared_ptrINS0_21XmlReaderContainerEltEEjRKNSt7__cxx1112basic_stringIcSt11char_traitsIcESaIcEEEEES5_INSt9enable_ifIXntsr8is_arrayIT_EE5valueESI_E4typeEEDpOT0_ = comdat any

$_ZNSt10shared_ptrIN19OpenColorIO_v2_4dev16XmlReaderElementEEC2INS0_22CTFReaderRangeValueEltEvEEOS_IT_E = comdat any

$_ZNSt10shared_ptrIN19OpenColorIO_v2_4dev22CTFReaderRangeValueEltEED2Ev = comdat any

$_ZSt20dynamic_pointer_castIN19OpenColorIO_v2_4dev15CTFReaderCDLEltENS0_21XmlReaderContainerEltEESt10shared_ptrIT_ERKS3_IT0_E = comdat any

$_ZSt11make_sharedIN19OpenColorIO_v2_4dev19CTFReaderSatNodeEltEJRPKcRSt10shared_ptrINS0_15CTFReaderCDLEltEEjRKNSt7__cxx1112basic_stringIcSt11char_traitsIcESaIcEEEEES5_INSt9enable_ifIXntsr8is_arrayIT_EE5valueESI_E4typeEEDpOT0_ = comdat any

$_ZNSt10shared_ptrIN19OpenColorIO_v2_4dev16XmlReaderElementEEC2INS0_19CTFReaderSatNodeEltEvEERKS_IT_E = comdat any

$_ZNSt10shared_ptrIN19OpenColorIO_v2_4dev19CTFReaderSatNodeEltEED2Ev = comdat any

$_ZNSt10shared_ptrIN19OpenColorIO_v2_4dev15CTFReaderCDLEltEED2Ev = comdat any

$_ZSt11make_sharedIN19OpenColorIO_v2_4dev22XmlReaderSaturationEltEJRPKcRSt10shared_ptrINS0_21XmlReaderContainerEltEEjRKNSt7__cxx1112basic_stringIcSt11char_traitsIcESaIcEEEEES5_INSt9enable_ifIXntsr8is_arrayIT_EE5valueESI_E4typeEEDpOT0_ = comdat any

$_ZNSt10shared_ptrIN19OpenColorIO_v2_4dev16XmlReaderElementEEC2INS0_22XmlReaderSaturationEltEvEEOS_IT_E = comdat any

$_ZNSt10shared_ptrIN19OpenColorIO_v2_4dev22XmlReaderSaturationEltEED2Ev = comdat any

$_ZSt11make_sharedIN19OpenColorIO_v2_4dev19CTFReaderSOPNodeEltEJRPKcRSt10shared_ptrINS0_15CTFReaderCDLEltEEjRKNSt7__cxx1112basic_stringIcSt11char_traitsIcESaIcEEEEES5_INSt9enable_ifIXntsr8is_arrayIT_EE5valueESI_E4typeEEDpOT0_ = comdat any

$_ZNSt10shared_ptrIN19OpenColorIO_v2_4dev16XmlReaderElementEEC2INS0_19CTFReaderSOPNodeEltEvEERKS_IT_E = comdat any

$_ZNSt10shared_ptrIN19OpenColorIO_v2_4dev19CTFReaderSOPNodeEltEED2Ev = comdat any

$_ZSt11make_sharedIN19OpenColorIO_v2_4dev20XmlReaderSOPValueEltEJRPKcRSt10shared_ptrINS0_21XmlReaderContainerEltEEjRKNSt7__cxx1112basic_stringIcSt11char_traitsIcESaIcEEEEES5_INSt9enable_ifIXntsr8is_arrayIT_EE5valueESI_E4typeEEDpOT0_ = comdat any

$_ZNSt10shared_ptrIN19OpenColorIO_v2_4dev16XmlReaderElementEEC2INS0_20XmlReaderSOPValueEltEvEEOS_IT_E = comdat any

$_ZNSt10shared_ptrIN19OpenColorIO_v2_4dev20XmlReaderSOPValueEltEED2Ev = comdat any

$_ZSt11make_sharedIN19OpenColorIO_v2_4dev31CTFReaderGradingPrimaryParamEltEJRPKcRSt10shared_ptrINS0_21XmlReaderContainerEltEEjRKNSt7__cxx1112basic_stringIcSt11char_traitsIcESaIcEEEEES5_INSt9enable_ifIXntsr8is_arrayIT_EE5valueESI_E4typeEEDpOT0_ = comdat any

$_ZNSt10shared_ptrIN19OpenColorIO_v2_4dev16XmlReaderElementEEC2INS0_31CTFReaderGradingPrimaryParamEltEvEEOS_IT_E = comdat any

$_ZNSt10shared_ptrIN19OpenColorIO_v2_4dev31CTFReaderGradingPrimaryParamEltEED2Ev = comdat any

$_ZSt11make_sharedIN19OpenColorIO_v2_4dev24CTFReaderGradingCurveEltEJRPKcRSt10shared_ptrINS0_21XmlReaderContainerEltEEjRKNSt7__cxx1112basic_stringIcSt11char_traitsIcESaIcEEEEES5_INSt9enable_ifIXntsr8is_arrayIT_EE5valueESI_E4typeEEDpOT0_ = comdat any

$_ZNSt10shared_ptrIN19OpenColorIO_v2_4dev16XmlReaderElementEEC2INS0_24CTFReaderGradingCurveEltEvEEOS_IT_E = comdat any

$_ZNSt10shared_ptrIN19OpenColorIO_v2_4dev24CTFReaderGradingCurveEltEED2Ev = comdat any

$_ZSt11make_sharedIN19OpenColorIO_v2_4dev30CTFReaderGradingCurvePointsEltEJRPKcRSt10shared_ptrINS0_21XmlReaderContainerEltEEjRKNSt7__cxx1112basic_stringIcSt11char_traitsIcESaIcEEEEES5_INSt9enable_ifIXntsr8is_arrayIT_EE5valueESI_E4typeEEDpOT0_ = comdat any

$_ZNSt10shared_ptrIN19OpenColorIO_v2_4dev16XmlReaderElementEEC2INS0_30CTFReaderGradingCurvePointsEltEvEEOS_IT_E = comdat any

$_ZNSt10shared_ptrIN19OpenColorIO_v2_4dev30CTFReaderGradingCurvePointsEltEED2Ev = comdat any

$_ZSt11make_sharedIN19OpenColorIO_v2_4dev30CTFReaderGradingCurveSlopesEltEJRPKcRSt10shared_ptrINS0_21XmlReaderContainerEltEEjRKNSt7__cxx1112basic_stringIcSt11char_traitsIcESaIcEEEEES5_INSt9enable_ifIXntsr8is_arrayIT_EE5valueESI_E4typeEEDpOT0_ = comdat any

$_ZNSt10shared_ptrIN19OpenColorIO_v2_4dev16XmlReaderElementEEC2INS0_30CTFReaderGradingCurveSlopesEltEvEEOS_IT_E = comdat any

$_ZNSt10shared_ptrIN19OpenColorIO_v2_4dev30CTFReaderGradingCurveSlopesEltEED2Ev = comdat any

$_ZSt11make_sharedIN19OpenColorIO_v2_4dev28CTFReaderGradingToneParamEltEJRPKcRSt10shared_ptrINS0_21XmlReaderContainerEltEEjRKNSt7__cxx1112basic_stringIcSt11char_traitsIcESaIcEEEEES5_INSt9enable_ifIXntsr8is_arrayIT_EE5valueESI_E4typeEEDpOT0_ = comdat any

$_ZNSt10shared_ptrIN19OpenColorIO_v2_4dev16XmlReaderElementEEC2INS0_28CTFReaderGradingToneParamEltEvEEOS_IT_E = comdat any

$_ZNSt10shared_ptrIN19OpenColorIO_v2_4dev28CTFReaderGradingToneParamEltEED2Ev = comdat any

$_ZSt11make_sharedIN19OpenColorIO_v2_4dev17XmlReaderDummyEltEJRPKcSt10shared_ptrINS0_16XmlReaderElementEEjRKNSt7__cxx1112basic_stringIcSt11char_traitsIcESaIcEEES3_EES5_INSt9enable_ifIXntsr8is_arrayIT_EE5valueESH_E4typeEEDpOT0_ = comdat any

$_ZSt11make_sharedIN19OpenColorIO_v2_4dev17XmlReaderDummyEltEJRPKcSt10shared_ptrINS0_16XmlReaderElementEEjRKNSt7__cxx1112basic_stringIcSt11char_traitsIcESaIcEEERA16_S2_EES5_INSt9enable_ifIXntsr8is_arrayIT_EE5valueESJ_E4typeEEDpOT0_ = comdat any

$_ZNSt15__new_allocatorIPKcEC2Ev = comdat any

$_ZNSt12_Vector_baseIPKcSaIS1_EEC2ERKS2_ = comdat any

$_ZNSt6vectorIPKcSaIS1_EE19_M_range_initializeIPKS1_EEvT_S7_St20forward_iterator_tag = comdat any

$_ZNKSt16initializer_listIPKcE5beginEv = comdat any

$_ZNKSt16initializer_listIPKcE3endEv = comdat any

$_ZNSt12_Vector_baseIPKcSaIS1_EED2Ev = comdat any

$_ZNSt12_Vector_baseIPKcSaIS1_EE12_Vector_implC2ERKS2_ = comdat any

$_ZNSt12_Vector_baseIPKcSaIS1_EE17_Vector_impl_dataC2Ev = comdat any

$_ZNSt15__new_allocatorIPKcEC2ERKS2_ = comdat any

$_ZSt8distanceIPKPKcENSt15iterator_traitsIT_E15difference_typeES5_S5_ = comdat any

$_ZNSt12_Vector_baseIPKcSaIS1_EE11_M_allocateEm = comdat any

$_ZNSt6vectorIPKcSaIS1_EE17_S_check_init_lenEmRKS2_ = comdat any

$_ZNSt12_Vector_baseIPKcSaIS1_EE19_M_get_Tp_allocatorEv = comdat any

$_ZSt22__uninitialized_copy_aIPKPKcPS1_S1_ET0_T_S6_S5_RSaIT1_E = comdat any

$_ZSt10__distanceIPKPKcENSt15iterator_traitsIT_E15difference_typeES5_S5_St26random_access_iterator_tag = comdat any

$_ZSt19__iterator_categoryIPKPKcENSt15iterator_traitsIT_E17iterator_categoryERKS5_ = comdat any

$_ZNSt16allocator_traitsISaIPKcEE8allocateERS2_m = comdat any

$_ZNSt15__new_allocatorIPKcE8allocateEmPKv = comdat any

$_ZNKSt15__new_allocatorIPKcE11_M_max_sizeEv = comdat any

$_ZNSt6vectorIPKcSaIS1_EE11_S_max_sizeERKS2_ = comdat any

$_ZNSaIPKcEC2ERKS1_ = comdat any

$_ZNSt16allocator_traitsISaIPKcEE8max_sizeERKS2_ = comdat any

$_ZNKSt15__new_allocatorIPKcE8max_sizeEv = comdat any

$_ZSt18uninitialized_copyIPKPKcPS1_ET0_T_S6_S5_ = comdat any

$_ZNSt20__uninitialized_copyILb1EE13__uninit_copyIPKPKcPS3_EET0_T_S8_S7_ = comdat any

$_ZSt4copyIPKPKcPS1_ET0_T_S6_S5_ = comdat any

$_ZSt13__copy_move_aILb0EPKPKcPS1_ET1_T0_S6_S5_ = comdat any

$_ZSt12__miter_baseIPKPKcET_S4_ = comdat any

$_ZSt12__niter_wrapIPPKcET_RKS3_S3_ = comdat any

$_ZSt14__copy_move_a1ILb0EPKPKcPS1_ET1_T0_S6_S5_ = comdat any

$_ZSt12__niter_baseIPKPKcET_S4_ = comdat any

$_ZSt12__niter_baseIPPKcET_S3_ = comdat any

$_ZSt14__copy_move_a2ILb0EPKPKcPS1_ET1_T0_S6_S5_ = comdat any

$_ZNSt11__copy_moveILb0ELb1ESt26random_access_iterator_tagE8__copy_mIPKcEEPT_PKS5_S8_S6_ = comdat any

$_ZNKSt16initializer_listIPKcE4sizeEv = comdat any

$_ZNSt12_Vector_baseIPKcSaIS1_EE13_M_deallocateEPS1_m = comdat any

$_ZNSt12_Vector_baseIPKcSaIS1_EE12_Vector_implD2Ev = comdat any

$_ZNSt16allocator_traitsISaIPKcEE10deallocateERS2_PS1_m = comdat any

$_ZNSt15__new_allocatorIPKcE10deallocateEPS1_m = comdat any

$_ZNSt15__new_allocatorIPKcED2Ev = comdat any

$_ZSt8_DestroyIPPKcS1_EvT_S3_RSaIT0_E = comdat any

$_ZSt8_DestroyIPPKcEvT_S3_ = comdat any

$_ZNSt12_Destroy_auxILb1EE9__destroyIPPKcEEvT_S5_ = comdat any

$_ZNKSt12__shared_ptrIN19OpenColorIO_v2_4dev16XmlReaderElementELN9__gnu_cxx12_Lock_policyE2EE3getEv = comdat any

$_ZNSt10shared_ptrIN19OpenColorIO_v2_4dev20CTFReaderMetadataEltEEC2INS0_16XmlReaderElementEEERKS_IT_EPS1_ = comdat any

$_ZNSt10shared_ptrIN19OpenColorIO_v2_4dev20CTFReaderMetadataEltEEC2Ev = comdat any

$_ZNSt12__shared_ptrIN19OpenColorIO_v2_4dev20CTFReaderMetadataEltELN9__gnu_cxx12_Lock_policyE2EEC2INS0_16XmlReaderElementEEERKS_IT_LS3_2EEPS1_ = comdat any

$_ZNSt14__shared_countILN9__gnu_cxx12_Lock_policyE2EEC2ERKS2_ = comdat any

$_ZNSt16_Sp_counted_baseILN9__gnu_cxx12_Lock_policyE2EE15_M_add_ref_copyEv = comdat any

$_ZNSt12__shared_ptrIN19OpenColorIO_v2_4dev20CTFReaderMetadataEltELN9__gnu_cxx12_Lock_policyE2EEC2Ev = comdat any

$_ZNSt10shared_ptrIN19OpenColorIO_v2_4dev20CTFReaderMetadataEltEEC2ISaIvEJRPKcRS2_RjRNSt7__cxx1112basic_stringIcSt11char_traitsIcESaIcEEEEEESt20_Sp_alloc_shared_tagIT_EDpOT0_ = comdat any

$_ZNSt12__shared_ptrIN19OpenColorIO_v2_4dev20CTFReaderMetadataEltELN9__gnu_cxx12_Lock_policyE2EEC2ISaIvEJRPKcRSt10shared_ptrIS1_ERjRNSt7__cxx1112basic_stringIcSt11char_traitsIcESaIcEEEEEESt20_Sp_alloc_shared_tagIT_EDpOT0_ = comdat any

$_ZNSt14__shared_countILN9__gnu_cxx12_Lock_policyE2EEC2IN19OpenColorIO_v2_4dev20CTFReaderMetadataEltESaIvEJRPKcRSt10shared_ptrIS5_ERjRNSt7__cxx1112basic_stringIcSt11char_traitsIcESaIcEEEEEERPT_St20_Sp_alloc_shared_tagIT0_EDpOT1_ = comdat any

$_ZNSt12__shared_ptrIN19OpenColorIO_v2_4dev20CTFReaderMetadataEltELN9__gnu_cxx12_Lock_policyE2EE31_M_enable_shared_from_this_withIS1_S1_EENSt9enable_ifIXntsr15__has_esft_baseIT0_EE5valueEvE4typeEPT_ = comdat any

$_ZNSaISt23_Sp_counted_ptr_inplaceIN19OpenColorIO_v2_4dev20CTFReaderMetadataEltESaIvELN9__gnu_cxx12_Lock_policyE2EEEC2IvEERKSaIT_E = comdat any

$_ZSt18__allocate_guardedISaISt23_Sp_counted_ptr_inplaceIN19OpenColorIO_v2_4dev20CTFReaderMetadataEltESaIvELN9__gnu_cxx12_Lock_policyE2EEEESt15__allocated_ptrIT_ERS9_ = comdat any

$_ZNSt15__allocated_ptrISaISt23_Sp_counted_ptr_inplaceIN19OpenColorIO_v2_4dev20CTFReaderMetadataEltESaIvELN9__gnu_cxx12_Lock_policyE2EEEE3getEv = comdat any

$_ZNSt23_Sp_counted_ptr_inplaceIN19OpenColorIO_v2_4dev20CTFReaderMetadataEltESaIvELN9__gnu_cxx12_Lock_policyE2EEC2IJRPKcRSt10shared_ptrIS1_ERjRNSt7__cxx1112basic_stringIcSt11char_traitsIcESaIcEEEEEES2_DpOT_ = comdat any

$_ZNSt15__allocated_ptrISaISt23_Sp_counted_ptr_inplaceIN19OpenColorIO_v2_4dev20CTFReaderMetadataEltESaIvELN9__gnu_cxx12_Lock_policyE2EEEEaSEDn = comdat any

$_ZNSt23_Sp_counted_ptr_inplaceIN19OpenColorIO_v2_4dev20CTFReaderMetadataEltESaIvELN9__gnu_cxx12_Lock_policyE2EE6_M_ptrEv = comdat any

$_ZNSt15__allocated_ptrISaISt23_Sp_counted_ptr_inplaceIN19OpenColorIO_v2_4dev20CTFReaderMetadataEltESaIvELN9__gnu_cxx12_Lock_policyE2EEEED2Ev = comdat any

$_ZNSaISt23_Sp_counted_ptr_inplaceIN19OpenColorIO_v2_4dev20CTFReaderMetadataEltESaIvELN9__gnu_cxx12_Lock_policyE2EEED2Ev = comdat any

$_ZNSt15__new_allocatorISt23_Sp_counted_ptr_inplaceIN19OpenColorIO_v2_4dev20CTFReaderMetadataEltESaIvELN9__gnu_cxx12_Lock_policyE2EEEC2Ev = comdat any

$_ZNSt16allocator_traitsISaISt23_Sp_counted_ptr_inplaceIN19OpenColorIO_v2_4dev20CTFReaderMetadataEltESaIvELN9__gnu_cxx12_Lock_policyE2EEEE8allocateERS7_m = comdat any

$_ZNSt15__allocated_ptrISaISt23_Sp_counted_ptr_inplaceIN19OpenColorIO_v2_4dev20CTFReaderMetadataEltESaIvELN9__gnu_cxx12_Lock_policyE2EEEEC2ERS7_PS6_ = comdat any

$_ZNSt15__new_allocatorISt23_Sp_counted_ptr_inplaceIN19OpenColorIO_v2_4dev20CTFReaderMetadataEltESaIvELN9__gnu_cxx12_Lock_policyE2EEE8allocateEmPKv = comdat any

$_ZNKSt15__new_allocatorISt23_Sp_counted_ptr_inplaceIN19OpenColorIO_v2_4dev20CTFReaderMetadataEltESaIvELN9__gnu_cxx12_Lock_policyE2EEE11_M_max_sizeEv = comdat any

$_ZSt12__to_addressISt23_Sp_counted_ptr_inplaceIN19OpenColorIO_v2_4dev20CTFReaderMetadataEltESaIvELN9__gnu_cxx12_Lock_policyE2EEEPT_S8_ = comdat any

$_ZNSt16_Sp_counted_baseILN9__gnu_cxx12_Lock_policyE2EEC2Ev = comdat any

$_ZNSt23_Sp_counted_ptr_inplaceIN19OpenColorIO_v2_4dev20CTFReaderMetadataEltESaIvELN9__gnu_cxx12_Lock_policyE2EE5_ImplC2ES2_ = comdat any

$_ZNSt16allocator_traitsISaIvEE9constructIN19OpenColorIO_v2_4dev20CTFReaderMetadataEltEJRPKcRSt10shared_ptrIS4_ERjRNSt7__cxx1112basic_stringIcSt11char_traitsIcESaIcEEEEEEvRS0_PT_DpOT0_ = comdat any

$_ZNSt23_Sp_counted_ptr_inplaceIN19OpenColorIO_v2_4dev20CTFReaderMetadataEltESaIvELN9__gnu_cxx12_Lock_policyE2EED2Ev = comdat any

$_ZNSt23_Sp_counted_ptr_inplaceIN19OpenColorIO_v2_4dev20CTFReaderMetadataEltESaIvELN9__gnu_cxx12_Lock_policyE2EED0Ev = comdat any

$_ZNSt23_Sp_counted_ptr_inplaceIN19OpenColorIO_v2_4dev20CTFReaderMetadataEltESaIvELN9__gnu_cxx12_Lock_policyE2EE10_M_disposeEv = comdat any

$_ZNSt23_Sp_counted_ptr_inplaceIN19OpenColorIO_v2_4dev20CTFReaderMetadataEltESaIvELN9__gnu_cxx12_Lock_policyE2EE10_M_destroyEv = comdat any

$_ZNSt23_Sp_counted_ptr_inplaceIN19OpenColorIO_v2_4dev20CTFReaderMetadataEltESaIvELN9__gnu_cxx12_Lock_policyE2EE14_M_get_deleterERKSt9type_info = comdat any

$_ZNSt16_Sp_counted_baseILN9__gnu_cxx12_Lock_policyE2EED2Ev = comdat any

$_ZNSt16_Sp_counted_baseILN9__gnu_cxx12_Lock_policyE2EED0Ev = comdat any

$_ZNSt16_Sp_counted_baseILN9__gnu_cxx12_Lock_policyE2EE10_M_destroyEv = comdat any

$_ZNSt14_Sp_ebo_helperILi0ESaIvELb1EEC2ERKS0_ = comdat any

$_ZSt10_ConstructIN19OpenColorIO_v2_4dev20CTFReaderMetadataEltEJRPKcRSt10shared_ptrIS1_ERjRNSt7__cxx1112basic_stringIcSt11char_traitsIcESaIcEEEEEvPT_DpOT0_ = comdat any

$_ZNSt10shared_ptrIN19OpenColorIO_v2_4dev21XmlReaderContainerEltEEC2INS0_20CTFReaderMetadataEltEvEERKS_IT_E = comdat any

$_ZNSt12__shared_ptrIN19OpenColorIO_v2_4dev21XmlReaderContainerEltELN9__gnu_cxx12_Lock_policyE2EEC2INS0_20CTFReaderMetadataEltEvEERKS_IT_LS3_2EE = comdat any

$_ZNSt16allocator_traitsISaIvEE7destroyIN19OpenColorIO_v2_4dev20CTFReaderMetadataEltEEEvRS0_PT_ = comdat any

$_ZNSt23_Sp_counted_ptr_inplaceIN19OpenColorIO_v2_4dev20CTFReaderMetadataEltESaIvELN9__gnu_cxx12_Lock_policyE2EE5_Impl8_M_allocEv = comdat any

$_ZSt8_DestroyIN19OpenColorIO_v2_4dev20CTFReaderMetadataEltEEvPT_ = comdat any

$_ZNSt14_Sp_ebo_helperILi0ESaIvELb1EE6_S_getERS1_ = comdat any

$_ZNSt19_Sp_make_shared_tag5_S_tiEv = comdat any

$_ZNKSt9type_infoeqERKS_ = comdat any

$_ZNKSt9type_info4nameEv = comdat any

$_ZN9__gnu_cxx16__aligned_bufferIN19OpenColorIO_v2_4dev20CTFReaderMetadataEltEE6_M_ptrEv = comdat any

$_ZN9__gnu_cxx16__aligned_bufferIN19OpenColorIO_v2_4dev20CTFReaderMetadataEltEE7_M_addrEv = comdat any

$_ZNSt16allocator_traitsISaISt23_Sp_counted_ptr_inplaceIN19OpenColorIO_v2_4dev20CTFReaderMetadataEltESaIvELN9__gnu_cxx12_Lock_policyE2EEEE10deallocateERS7_PS6_m = comdat any

$_ZNSt15__new_allocatorISt23_Sp_counted_ptr_inplaceIN19OpenColorIO_v2_4dev20CTFReaderMetadataEltESaIvELN9__gnu_cxx12_Lock_policyE2EEE10deallocateEPS6_m = comdat any

$_ZNSt15__new_allocatorISt23_Sp_counted_ptr_inplaceIN19OpenColorIO_v2_4dev20CTFReaderMetadataEltESaIvELN9__gnu_cxx12_Lock_policyE2EEED2Ev = comdat any

$_ZNSt12__shared_ptrIN19OpenColorIO_v2_4dev16XmlReaderElementELN9__gnu_cxx12_Lock_policyE2EEC2INS0_20CTFReaderMetadataEltEvEEOS_IT_LS3_2EE = comdat any

$_ZNSt14__shared_countILN9__gnu_cxx12_Lock_policyE2EE7_M_swapERS2_ = comdat any

$_ZNSt14__shared_countILN9__gnu_cxx12_Lock_policyE2EED2Ev = comdat any

$_ZNSt16_Sp_counted_baseILN9__gnu_cxx12_Lock_policyE2EE10_M_releaseEv = comdat any

$_ZNSt16_Sp_counted_baseILN9__gnu_cxx12_Lock_policyE2EE24_M_release_last_use_coldEv = comdat any

$_ZNSt16_Sp_counted_baseILN9__gnu_cxx12_Lock_policyE2EE19_M_release_last_useEv = comdat any

$_ZNSt12__shared_ptrIN19OpenColorIO_v2_4dev20CTFReaderMetadataEltELN9__gnu_cxx12_Lock_policyE2EED2Ev = comdat any

$_ZNKSt19__shared_ptr_accessIN19OpenColorIO_v2_4dev16XmlReaderElementELN9__gnu_cxx12_Lock_policyE2ELb0ELb0EE6_M_getEv = comdat any

$_ZNSt10shared_ptrIN19OpenColorIO_v2_4dev21CTFReaderTransformEltEEC2INS0_16XmlReaderElementEEERKS_IT_EPS1_ = comdat any

$_ZNSt10shared_ptrIN19OpenColorIO_v2_4dev21CTFReaderTransformEltEEC2Ev = comdat any

$_ZNSt12__shared_ptrIN19OpenColorIO_v2_4dev21CTFReaderTransformEltELN9__gnu_cxx12_Lock_policyE2EEC2INS0_16XmlReaderElementEEERKS_IT_LS3_2EEPS1_ = comdat any

$_ZNSt12__shared_ptrIN19OpenColorIO_v2_4dev21CTFReaderTransformEltELN9__gnu_cxx12_Lock_policyE2EEC2Ev = comdat any

$_ZNSt10shared_ptrIN19OpenColorIO_v2_4dev17XmlReaderDummyEltEEC2ISaIvEJRPKcRS_INS0_21CTFReaderTransformEltEEjRKNSt7__cxx1112basic_stringIcSt11char_traitsIcESaIcEEERA29_S5_EEESt20_Sp_alloc_shared_tagIT_EDpOT0_ = comdat any

$_ZNSt12__shared_ptrIN19OpenColorIO_v2_4dev17XmlReaderDummyEltELN9__gnu_cxx12_Lock_policyE2EEC2ISaIvEJRPKcRSt10shared_ptrINS0_21CTFReaderTransformEltEEjRKNSt7__cxx1112basic_stringIcSt11char_traitsIcESaIcEEERA29_S7_EEESt20_Sp_alloc_shared_tagIT_EDpOT0_ = comdat any

$_ZNSt14__shared_countILN9__gnu_cxx12_Lock_policyE2EEC2IN19OpenColorIO_v2_4dev17XmlReaderDummyEltESaIvEJRPKcRSt10shared_ptrINS4_21CTFReaderTransformEltEEjRKNSt7__cxx1112basic_stringIcSt11char_traitsIcESaIcEEERA29_S7_EEERPT_St20_Sp_alloc_shared_tagIT0_EDpOT1_ = comdat any

$_ZNSt12__shared_ptrIN19OpenColorIO_v2_4dev17XmlReaderDummyEltELN9__gnu_cxx12_Lock_policyE2EE31_M_enable_shared_from_this_withIS1_S1_EENSt9enable_ifIXntsr15__has_esft_baseIT0_EE5valueEvE4typeEPT_ = comdat any

$_ZNSaISt23_Sp_counted_ptr_inplaceIN19OpenColorIO_v2_4dev17XmlReaderDummyEltESaIvELN9__gnu_cxx12_Lock_policyE2EEEC2IvEERKSaIT_E = comdat any

$_ZSt18__allocate_guardedISaISt23_Sp_counted_ptr_inplaceIN19OpenColorIO_v2_4dev17XmlReaderDummyEltESaIvELN9__gnu_cxx12_Lock_policyE2EEEESt15__allocated_ptrIT_ERS9_ = comdat any

$_ZNSt15__allocated_ptrISaISt23_Sp_counted_ptr_inplaceIN19OpenColorIO_v2_4dev17XmlReaderDummyEltESaIvELN9__gnu_cxx12_Lock_policyE2EEEE3getEv = comdat any

$_ZNSt23_Sp_counted_ptr_inplaceIN19OpenColorIO_v2_4dev17XmlReaderDummyEltESaIvELN9__gnu_cxx12_Lock_policyE2EEC2IJRPKcRSt10shared_ptrINS0_21CTFReaderTransformEltEEjRKNSt7__cxx1112basic_stringIcSt11char_traitsIcESaIcEEERA29_S7_EEES2_DpOT_ = comdat any

$_ZNSt15__allocated_ptrISaISt23_Sp_counted_ptr_inplaceIN19OpenColorIO_v2_4dev17XmlReaderDummyEltESaIvELN9__gnu_cxx12_Lock_policyE2EEEEaSEDn = comdat any

$_ZNSt23_Sp_counted_ptr_inplaceIN19OpenColorIO_v2_4dev17XmlReaderDummyEltESaIvELN9__gnu_cxx12_Lock_policyE2EE6_M_ptrEv = comdat any

$_ZNSt15__allocated_ptrISaISt23_Sp_counted_ptr_inplaceIN19OpenColorIO_v2_4dev17XmlReaderDummyEltESaIvELN9__gnu_cxx12_Lock_policyE2EEEED2Ev = comdat any

$_ZNSaISt23_Sp_counted_ptr_inplaceIN19OpenColorIO_v2_4dev17XmlReaderDummyEltESaIvELN9__gnu_cxx12_Lock_policyE2EEED2Ev = comdat any

$_ZNSt15__new_allocatorISt23_Sp_counted_ptr_inplaceIN19OpenColorIO_v2_4dev17XmlReaderDummyEltESaIvELN9__gnu_cxx12_Lock_policyE2EEEC2Ev = comdat any

$_ZNSt16allocator_traitsISaISt23_Sp_counted_ptr_inplaceIN19OpenColorIO_v2_4dev17XmlReaderDummyEltESaIvELN9__gnu_cxx12_Lock_policyE2EEEE8allocateERS7_m = comdat any

$_ZNSt15__allocated_ptrISaISt23_Sp_counted_ptr_inplaceIN19OpenColorIO_v2_4dev17XmlReaderDummyEltESaIvELN9__gnu_cxx12_Lock_policyE2EEEEC2ERS7_PS6_ = comdat any

$_ZNSt15__new_allocatorISt23_Sp_counted_ptr_inplaceIN19OpenColorIO_v2_4dev17XmlReaderDummyEltESaIvELN9__gnu_cxx12_Lock_policyE2EEE8allocateEmPKv = comdat any

$_ZNKSt15__new_allocatorISt23_Sp_counted_ptr_inplaceIN19OpenColorIO_v2_4dev17XmlReaderDummyEltESaIvELN9__gnu_cxx12_Lock_policyE2EEE11_M_max_sizeEv = comdat any

$_ZSt12__to_addressISt23_Sp_counted_ptr_inplaceIN19OpenColorIO_v2_4dev17XmlReaderDummyEltESaIvELN9__gnu_cxx12_Lock_policyE2EEEPT_S8_ = comdat any

$_ZNSt23_Sp_counted_ptr_inplaceIN19OpenColorIO_v2_4dev17XmlReaderDummyEltESaIvELN9__gnu_cxx12_Lock_policyE2EE5_ImplC2ES2_ = comdat any

$_ZNSt16allocator_traitsISaIvEE9constructIN19OpenColorIO_v2_4dev17XmlReaderDummyEltEJRPKcRSt10shared_ptrINS3_21CTFReaderTransformEltEEjRKNSt7__cxx1112basic_stringIcSt11char_traitsIcESaIcEEERA29_S5_EEEvRS0_PT_DpOT0_ = comdat any

$_ZNSt23_Sp_counted_ptr_inplaceIN19OpenColorIO_v2_4dev17XmlReaderDummyEltESaIvELN9__gnu_cxx12_Lock_policyE2EED2Ev = comdat any

$_ZNSt23_Sp_counted_ptr_inplaceIN19OpenColorIO_v2_4dev17XmlReaderDummyEltESaIvELN9__gnu_cxx12_Lock_policyE2EED0Ev = comdat any

$_ZNSt23_Sp_counted_ptr_inplaceIN19OpenColorIO_v2_4dev17XmlReaderDummyEltESaIvELN9__gnu_cxx12_Lock_policyE2EE10_M_disposeEv = comdat any

$_ZNSt23_Sp_counted_ptr_inplaceIN19OpenColorIO_v2_4dev17XmlReaderDummyEltESaIvELN9__gnu_cxx12_Lock_policyE2EE10_M_destroyEv = comdat any

$_ZNSt23_Sp_counted_ptr_inplaceIN19OpenColorIO_v2_4dev17XmlReaderDummyEltESaIvELN9__gnu_cxx12_Lock_policyE2EE14_M_get_deleterERKSt9type_info = comdat any

$_ZSt10_ConstructIN19OpenColorIO_v2_4dev17XmlReaderDummyEltEJRPKcRSt10shared_ptrINS0_21CTFReaderTransformEltEEjRKNSt7__cxx1112basic_stringIcSt11char_traitsIcESaIcEEERA29_S2_EEvPT_DpOT0_ = comdat any

$_ZNSt16allocator_traitsISaIvEE7destroyIN19OpenColorIO_v2_4dev17XmlReaderDummyEltEEEvRS0_PT_ = comdat any

$_ZNSt23_Sp_counted_ptr_inplaceIN19OpenColorIO_v2_4dev17XmlReaderDummyEltESaIvELN9__gnu_cxx12_Lock_policyE2EE5_Impl8_M_allocEv = comdat any

$_ZSt8_DestroyIN19OpenColorIO_v2_4dev17XmlReaderDummyEltEEvPT_ = comdat any

$_ZN9__gnu_cxx16__aligned_bufferIN19OpenColorIO_v2_4dev17XmlReaderDummyEltEE6_M_ptrEv = comdat any

$_ZN9__gnu_cxx16__aligned_bufferIN19OpenColorIO_v2_4dev17XmlReaderDummyEltEE7_M_addrEv = comdat any

$_ZNSt16allocator_traitsISaISt23_Sp_counted_ptr_inplaceIN19OpenColorIO_v2_4dev17XmlReaderDummyEltESaIvELN9__gnu_cxx12_Lock_policyE2EEEE10deallocateERS7_PS6_m = comdat any

$_ZNSt15__new_allocatorISt23_Sp_counted_ptr_inplaceIN19OpenColorIO_v2_4dev17XmlReaderDummyEltESaIvELN9__gnu_cxx12_Lock_policyE2EEE10deallocateEPS6_m = comdat any

$_ZNSt15__new_allocatorISt23_Sp_counted_ptr_inplaceIN19OpenColorIO_v2_4dev17XmlReaderDummyEltESaIvELN9__gnu_cxx12_Lock_policyE2EEED2Ev = comdat any

$_ZNSt12__shared_ptrIN19OpenColorIO_v2_4dev16XmlReaderElementELN9__gnu_cxx12_Lock_policyE2EEC2INS0_17XmlReaderDummyEltEvEEOS_IT_LS3_2EE = comdat any

$_ZNSt12__shared_ptrIN19OpenColorIO_v2_4dev17XmlReaderDummyEltELN9__gnu_cxx12_Lock_policyE2EED2Ev = comdat any

$_ZNSt12__shared_ptrIN19OpenColorIO_v2_4dev21CTFReaderTransformEltELN9__gnu_cxx12_Lock_policyE2EED2Ev = comdat any

$_ZNSt10shared_ptrIN19OpenColorIO_v2_4dev21CTFReaderTransformEltEEC2ISaIvEJRPKcjRKNSt7__cxx1112basic_stringIcSt11char_traitsIcESaIcEEEbEEESt20_Sp_alloc_shared_tagIT_EDpOT0_ = comdat any

$_ZNSt12__shared_ptrIN19OpenColorIO_v2_4dev21CTFReaderTransformEltELN9__gnu_cxx12_Lock_policyE2EEC2ISaIvEJRPKcjRKNSt7__cxx1112basic_stringIcSt11char_traitsIcESaIcEEEbEEESt20_Sp_alloc_shared_tagIT_EDpOT0_ = comdat any

$_ZNSt14__shared_countILN9__gnu_cxx12_Lock_policyE2EEC2IN19OpenColorIO_v2_4dev21CTFReaderTransformEltESaIvEJRPKcjRKNSt7__cxx1112basic_stringIcSt11char_traitsIcESaIcEEEbEEERPT_St20_Sp_alloc_shared_tagIT0_EDpOT1_ = comdat any

$_ZNSt12__shared_ptrIN19OpenColorIO_v2_4dev21CTFReaderTransformEltELN9__gnu_cxx12_Lock_policyE2EE31_M_enable_shared_from_this_withIS1_S1_EENSt9enable_ifIXntsr15__has_esft_baseIT0_EE5valueEvE4typeEPT_ = comdat any

$_ZNSaISt23_Sp_counted_ptr_inplaceIN19OpenColorIO_v2_4dev21CTFReaderTransformEltESaIvELN9__gnu_cxx12_Lock_policyE2EEEC2IvEERKSaIT_E = comdat any

$_ZSt18__allocate_guardedISaISt23_Sp_counted_ptr_inplaceIN19OpenColorIO_v2_4dev21CTFReaderTransformEltESaIvELN9__gnu_cxx12_Lock_policyE2EEEESt15__allocated_ptrIT_ERS9_ = comdat any

$_ZNSt15__allocated_ptrISaISt23_Sp_counted_ptr_inplaceIN19OpenColorIO_v2_4dev21CTFReaderTransformEltESaIvELN9__gnu_cxx12_Lock_policyE2EEEE3getEv = comdat any

$_ZNSt23_Sp_counted_ptr_inplaceIN19OpenColorIO_v2_4dev21CTFReaderTransformEltESaIvELN9__gnu_cxx12_Lock_policyE2EEC2IJRPKcjRKNSt7__cxx1112basic_stringIcSt11char_traitsIcESaIcEEEbEEES2_DpOT_ = comdat any

$_ZNSt15__allocated_ptrISaISt23_Sp_counted_ptr_inplaceIN19OpenColorIO_v2_4dev21CTFReaderTransformEltESaIvELN9__gnu_cxx12_Lock_policyE2EEEEaSEDn = comdat any

$_ZNSt23_Sp_counted_ptr_inplaceIN19OpenColorIO_v2_4dev21CTFReaderTransformEltESaIvELN9__gnu_cxx12_Lock_policyE2EE6_M_ptrEv = comdat any

$_ZNSt15__allocated_ptrISaISt23_Sp_counted_ptr_inplaceIN19OpenColorIO_v2_4dev21CTFReaderTransformEltESaIvELN9__gnu_cxx12_Lock_policyE2EEEED2Ev = comdat any

$_ZNSaISt23_Sp_counted_ptr_inplaceIN19OpenColorIO_v2_4dev21CTFReaderTransformEltESaIvELN9__gnu_cxx12_Lock_policyE2EEED2Ev = comdat any

$_ZNSt15__new_allocatorISt23_Sp_counted_ptr_inplaceIN19OpenColorIO_v2_4dev21CTFReaderTransformEltESaIvELN9__gnu_cxx12_Lock_policyE2EEEC2Ev = comdat any

$_ZNSt16allocator_traitsISaISt23_Sp_counted_ptr_inplaceIN19OpenColorIO_v2_4dev21CTFReaderTransformEltESaIvELN9__gnu_cxx12_Lock_policyE2EEEE8allocateERS7_m = comdat any

$_ZNSt15__allocated_ptrISaISt23_Sp_counted_ptr_inplaceIN19OpenColorIO_v2_4dev21CTFReaderTransformEltESaIvELN9__gnu_cxx12_Lock_policyE2EEEEC2ERS7_PS6_ = comdat any

$_ZNSt15__new_allocatorISt23_Sp_counted_ptr_inplaceIN19OpenColorIO_v2_4dev21CTFReaderTransformEltESaIvELN9__gnu_cxx12_Lock_policyE2EEE8allocateEmPKv = comdat any

$_ZNKSt15__new_allocatorISt23_Sp_counted_ptr_inplaceIN19OpenColorIO_v2_4dev21CTFReaderTransformEltESaIvELN9__gnu_cxx12_Lock_policyE2EEE11_M_max_sizeEv = comdat any

$_ZSt12__to_addressISt23_Sp_counted_ptr_inplaceIN19OpenColorIO_v2_4dev21CTFReaderTransformEltESaIvELN9__gnu_cxx12_Lock_policyE2EEEPT_S8_ = comdat any

$_ZNSt23_Sp_counted_ptr_inplaceIN19OpenColorIO_v2_4dev21CTFReaderTransformEltESaIvELN9__gnu_cxx12_Lock_policyE2EE5_ImplC2ES2_ = comdat any

$_ZNSt16allocator_traitsISaIvEE9constructIN19OpenColorIO_v2_4dev21CTFReaderTransformEltEJRPKcjRKNSt7__cxx1112basic_stringIcSt11char_traitsIcESaIcEEEbEEEvRS0_PT_DpOT0_ = comdat any

$_ZNSt23_Sp_counted_ptr_inplaceIN19OpenColorIO_v2_4dev21CTFReaderTransformEltESaIvELN9__gnu_cxx12_Lock_policyE2EED2Ev = comdat any

$_ZNSt23_Sp_counted_ptr_inplaceIN19OpenColorIO_v2_4dev21CTFReaderTransformEltESaIvELN9__gnu_cxx12_Lock_policyE2EED0Ev = comdat any

$_ZNSt23_Sp_counted_ptr_inplaceIN19OpenColorIO_v2_4dev21CTFReaderTransformEltESaIvELN9__gnu_cxx12_Lock_policyE2EE10_M_disposeEv = comdat any

$_ZNSt23_Sp_counted_ptr_inplaceIN19OpenColorIO_v2_4dev21CTFReaderTransformEltESaIvELN9__gnu_cxx12_Lock_policyE2EE10_M_destroyEv = comdat any

$_ZNSt23_Sp_counted_ptr_inplaceIN19OpenColorIO_v2_4dev21CTFReaderTransformEltESaIvELN9__gnu_cxx12_Lock_policyE2EE14_M_get_deleterERKSt9type_info = comdat any

$_ZSt10_ConstructIN19OpenColorIO_v2_4dev21CTFReaderTransformEltEJRPKcjRKNSt7__cxx1112basic_stringIcSt11char_traitsIcESaIcEEEbEEvPT_DpOT0_ = comdat any

$_ZNSt16allocator_traitsISaIvEE7destroyIN19OpenColorIO_v2_4dev21CTFReaderTransformEltEEEvRS0_PT_ = comdat any

$_ZNSt23_Sp_counted_ptr_inplaceIN19OpenColorIO_v2_4dev21CTFReaderTransformEltESaIvELN9__gnu_cxx12_Lock_policyE2EE5_Impl8_M_allocEv = comdat any

$_ZSt8_DestroyIN19OpenColorIO_v2_4dev21CTFReaderTransformEltEEvPT_ = comdat any

$_ZN9__gnu_cxx16__aligned_bufferIN19OpenColorIO_v2_4dev21CTFReaderTransformEltEE6_M_ptrEv = comdat any

$_ZN9__gnu_cxx16__aligned_bufferIN19OpenColorIO_v2_4dev21CTFReaderTransformEltEE7_M_addrEv = comdat any

$_ZNSt16allocator_traitsISaISt23_Sp_counted_ptr_inplaceIN19OpenColorIO_v2_4dev21CTFReaderTransformEltESaIvELN9__gnu_cxx12_Lock_policyE2EEEE10deallocateERS7_PS6_m = comdat any

$_ZNSt15__new_allocatorISt23_Sp_counted_ptr_inplaceIN19OpenColorIO_v2_4dev21CTFReaderTransformEltESaIvELN9__gnu_cxx12_Lock_policyE2EEE10deallocateEPS6_m = comdat any

$_ZNSt15__new_allocatorISt23_Sp_counted_ptr_inplaceIN19OpenColorIO_v2_4dev21CTFReaderTransformEltESaIvELN9__gnu_cxx12_Lock_policyE2EEED2Ev = comdat any

$_ZNSt12__shared_ptrIN19OpenColorIO_v2_4dev16XmlReaderElementELN9__gnu_cxx12_Lock_policyE2EEC2INS0_21CTFReaderTransformEltEvEERKS_IT_LS3_2EE = comdat any

$_ZNKSt19__shared_ptr_accessIN19OpenColorIO_v2_4dev21CTFReaderTransformEltELN9__gnu_cxx12_Lock_policyE2ELb0ELb0EE6_M_getEv = comdat any

$_ZNKSt12__shared_ptrIN19OpenColorIO_v2_4dev21CTFReaderTransformEltELN9__gnu_cxx12_Lock_policyE2EE3getEv = comdat any

$_ZNSt12__shared_ptrIN19OpenColorIO_v2_4dev18CTFReaderTransformELN9__gnu_cxx12_Lock_policyE2EEaSERKS4_ = comdat any

$_ZNSt14__shared_countILN9__gnu_cxx12_Lock_policyE2EEaSERKS2_ = comdat any

$_ZNSt12__shared_ptrIN19OpenColorIO_v2_4dev16XmlReaderElementELN9__gnu_cxx12_Lock_policyE2EEC2Ev = comdat any

$_ZNSt12__shared_ptrIN19OpenColorIO_v2_4dev16XmlReaderElementELN9__gnu_cxx12_Lock_policyE2EEaSEOS4_ = comdat any

$_ZNSt12__shared_ptrIN19OpenColorIO_v2_4dev16XmlReaderElementELN9__gnu_cxx12_Lock_policyE2EEC2EOS4_ = comdat any

$_ZNSt12__shared_ptrIN19OpenColorIO_v2_4dev16XmlReaderElementELN9__gnu_cxx12_Lock_policyE2EE4swapERS4_ = comdat any

$_ZNSt12__shared_ptrIN19OpenColorIO_v2_4dev16XmlReaderElementELN9__gnu_cxx12_Lock_policyE2EED2Ev = comdat any

$_ZSt4swapIPN19OpenColorIO_v2_4dev16XmlReaderElementEENSt9enable_ifIXsr6__and_ISt6__not_ISt15__is_tuple_likeIT_EESt21is_move_constructibleIS6_ESt18is_move_assignableIS6_EEE5valueEvE4typeERS6_SF_ = comdat any

$_ZNKSt12__shared_ptrIN19OpenColorIO_v2_4dev16XmlReaderElementELN9__gnu_cxx12_Lock_policyE2EEcvbEv = comdat any

$_ZNK19OpenColorIO_v2_4dev16XmlReaderElement7getNameB5cxx11Ev = comdat any

$_ZN19OpenColorIO_v2_4devlsERSoRKNS_10CTFVersionE = comdat any

$_ZNKSt19__shared_ptr_accessIN19OpenColorIO_v2_4dev14CTFReaderOpEltELN9__gnu_cxx12_Lock_policyE2ELb0ELb0EEptEv = comdat any

$_ZNSt10shared_ptrIN19OpenColorIO_v2_4dev16XmlReaderElementEEC2INS0_14CTFReaderOpEltEvEERKS_IT_E = comdat any

$_ZNKSt19__shared_ptr_accessIN19OpenColorIO_v2_4dev14CTFReaderOpEltELN9__gnu_cxx12_Lock_policyE2ELb0ELb0EE6_M_getEv = comdat any

$_ZNKSt12__shared_ptrIN19OpenColorIO_v2_4dev14CTFReaderOpEltELN9__gnu_cxx12_Lock_policyE2EE3getEv = comdat any

$_ZNSt12__shared_ptrIN19OpenColorIO_v2_4dev16XmlReaderElementELN9__gnu_cxx12_Lock_policyE2EEC2INS0_14CTFReaderOpEltEvEERKS_IT_LS3_2EE = comdat any

$_ZNSt10shared_ptrIN19OpenColorIO_v2_4dev21XmlReaderContainerEltEEC2INS0_16XmlReaderElementEEERKS_IT_EPS1_ = comdat any

$_ZNSt10shared_ptrIN19OpenColorIO_v2_4dev21XmlReaderContainerEltEEC2Ev = comdat any

$_ZNSt12__shared_ptrIN19OpenColorIO_v2_4dev21XmlReaderContainerEltELN9__gnu_cxx12_Lock_policyE2EEC2INS0_16XmlReaderElementEEERKS_IT_LS3_2EEPS1_ = comdat any

$_ZNSt12__shared_ptrIN19OpenColorIO_v2_4dev21XmlReaderContainerEltELN9__gnu_cxx12_Lock_policyE2EEC2Ev = comdat any

$_ZNSt10shared_ptrIN19OpenColorIO_v2_4dev17XmlReaderDummyEltEEC2ISaIvEJRPKcRS_INS0_16XmlReaderElementEEjRKNSt7__cxx1112basic_stringIcSt11char_traitsIcESaIcEEEDnEEESt20_Sp_alloc_shared_tagIT_EDpOT0_ = comdat any

$_ZNSt12__shared_ptrIN19OpenColorIO_v2_4dev17XmlReaderDummyEltELN9__gnu_cxx12_Lock_policyE2EEC2ISaIvEJRPKcRSt10shared_ptrINS0_16XmlReaderElementEEjRKNSt7__cxx1112basic_stringIcSt11char_traitsIcESaIcEEEDnEEESt20_Sp_alloc_shared_tagIT_EDpOT0_ = comdat any

$_ZNSt14__shared_countILN9__gnu_cxx12_Lock_policyE2EEC2IN19OpenColorIO_v2_4dev17XmlReaderDummyEltESaIvEJRPKcRSt10shared_ptrINS4_16XmlReaderElementEEjRKNSt7__cxx1112basic_stringIcSt11char_traitsIcESaIcEEEDnEEERPT_St20_Sp_alloc_shared_tagIT0_EDpOT1_ = comdat any

$_ZNSt23_Sp_counted_ptr_inplaceIN19OpenColorIO_v2_4dev17XmlReaderDummyEltESaIvELN9__gnu_cxx12_Lock_policyE2EEC2IJRPKcRSt10shared_ptrINS0_16XmlReaderElementEEjRKNSt7__cxx1112basic_stringIcSt11char_traitsIcESaIcEEEDnEEES2_DpOT_ = comdat any

$_ZNSt16allocator_traitsISaIvEE9constructIN19OpenColorIO_v2_4dev17XmlReaderDummyEltEJRPKcRSt10shared_ptrINS3_16XmlReaderElementEEjRKNSt7__cxx1112basic_stringIcSt11char_traitsIcESaIcEEEDnEEEvRS0_PT_DpOT0_ = comdat any

$_ZSt10_ConstructIN19OpenColorIO_v2_4dev17XmlReaderDummyEltEJRPKcRSt10shared_ptrINS0_16XmlReaderElementEEjRKNSt7__cxx1112basic_stringIcSt11char_traitsIcESaIcEEEDnEEvPT_DpOT0_ = comdat any

$_ZNSt10shared_ptrIN19OpenColorIO_v2_4dev16XmlReaderElementEEC2ERKS2_ = comdat any

$_ZNSt12__shared_ptrIN19OpenColorIO_v2_4dev16XmlReaderElementELN9__gnu_cxx12_Lock_policyE2EEC2ERKS4_ = comdat any

$_ZNSt10shared_ptrIN19OpenColorIO_v2_4dev22CTFReaderACESParamsEltEEC2ISaIvEJRPKcRS_INS0_21XmlReaderContainerEltEEjRKNSt7__cxx1112basic_stringIcSt11char_traitsIcESaIcEEEEEESt20_Sp_alloc_shared_tagIT_EDpOT0_ = comdat any

$_ZNSt12__shared_ptrIN19OpenColorIO_v2_4dev22CTFReaderACESParamsEltELN9__gnu_cxx12_Lock_policyE2EEC2ISaIvEJRPKcRSt10shared_ptrINS0_21XmlReaderContainerEltEEjRKNSt7__cxx1112basic_stringIcSt11char_traitsIcESaIcEEEEEESt20_Sp_alloc_shared_tagIT_EDpOT0_ = comdat any

$_ZNSt14__shared_countILN9__gnu_cxx12_Lock_policyE2EEC2IN19OpenColorIO_v2_4dev22CTFReaderACESParamsEltESaIvEJRPKcRSt10shared_ptrINS4_21XmlReaderContainerEltEEjRKNSt7__cxx1112basic_stringIcSt11char_traitsIcESaIcEEEEEERPT_St20_Sp_alloc_shared_tagIT0_EDpOT1_ = comdat any

$_ZNSt12__shared_ptrIN19OpenColorIO_v2_4dev22CTFReaderACESParamsEltELN9__gnu_cxx12_Lock_policyE2EE31_M_enable_shared_from_this_withIS1_S1_EENSt9enable_ifIXntsr15__has_esft_baseIT0_EE5valueEvE4typeEPT_ = comdat any

$_ZNSaISt23_Sp_counted_ptr_inplaceIN19OpenColorIO_v2_4dev22CTFReaderACESParamsEltESaIvELN9__gnu_cxx12_Lock_policyE2EEEC2IvEERKSaIT_E = comdat any

$_ZSt18__allocate_guardedISaISt23_Sp_counted_ptr_inplaceIN19OpenColorIO_v2_4dev22CTFReaderACESParamsEltESaIvELN9__gnu_cxx12_Lock_policyE2EEEESt15__allocated_ptrIT_ERS9_ = comdat any

$_ZNSt15__allocated_ptrISaISt23_Sp_counted_ptr_inplaceIN19OpenColorIO_v2_4dev22CTFReaderACESParamsEltESaIvELN9__gnu_cxx12_Lock_policyE2EEEE3getEv = comdat any

$_ZNSt23_Sp_counted_ptr_inplaceIN19OpenColorIO_v2_4dev22CTFReaderACESParamsEltESaIvELN9__gnu_cxx12_Lock_policyE2EEC2IJRPKcRSt10shared_ptrINS0_21XmlReaderContainerEltEEjRKNSt7__cxx1112basic_stringIcSt11char_traitsIcESaIcEEEEEES2_DpOT_ = comdat any

$_ZNSt15__allocated_ptrISaISt23_Sp_counted_ptr_inplaceIN19OpenColorIO_v2_4dev22CTFReaderACESParamsEltESaIvELN9__gnu_cxx12_Lock_policyE2EEEEaSEDn = comdat any

$_ZNSt23_Sp_counted_ptr_inplaceIN19OpenColorIO_v2_4dev22CTFReaderACESParamsEltESaIvELN9__gnu_cxx12_Lock_policyE2EE6_M_ptrEv = comdat any

$_ZNSt15__allocated_ptrISaISt23_Sp_counted_ptr_inplaceIN19OpenColorIO_v2_4dev22CTFReaderACESParamsEltESaIvELN9__gnu_cxx12_Lock_policyE2EEEED2Ev = comdat any

$_ZNSaISt23_Sp_counted_ptr_inplaceIN19OpenColorIO_v2_4dev22CTFReaderACESParamsEltESaIvELN9__gnu_cxx12_Lock_policyE2EEED2Ev = comdat any

$_ZNSt15__new_allocatorISt23_Sp_counted_ptr_inplaceIN19OpenColorIO_v2_4dev22CTFReaderACESParamsEltESaIvELN9__gnu_cxx12_Lock_policyE2EEEC2Ev = comdat any

$_ZNSt16allocator_traitsISaISt23_Sp_counted_ptr_inplaceIN19OpenColorIO_v2_4dev22CTFReaderACESParamsEltESaIvELN9__gnu_cxx12_Lock_policyE2EEEE8allocateERS7_m = comdat any

$_ZNSt15__allocated_ptrISaISt23_Sp_counted_ptr_inplaceIN19OpenColorIO_v2_4dev22CTFReaderACESParamsEltESaIvELN9__gnu_cxx12_Lock_policyE2EEEEC2ERS7_PS6_ = comdat any

$_ZNSt15__new_allocatorISt23_Sp_counted_ptr_inplaceIN19OpenColorIO_v2_4dev22CTFReaderACESParamsEltESaIvELN9__gnu_cxx12_Lock_policyE2EEE8allocateEmPKv = comdat any

$_ZNKSt15__new_allocatorISt23_Sp_counted_ptr_inplaceIN19OpenColorIO_v2_4dev22CTFReaderACESParamsEltESaIvELN9__gnu_cxx12_Lock_policyE2EEE11_M_max_sizeEv = comdat any

$_ZSt12__to_addressISt23_Sp_counted_ptr_inplaceIN19OpenColorIO_v2_4dev22CTFReaderACESParamsEltESaIvELN9__gnu_cxx12_Lock_policyE2EEEPT_S8_ = comdat any

$_ZNSt23_Sp_counted_ptr_inplaceIN19OpenColorIO_v2_4dev22CTFReaderACESParamsEltESaIvELN9__gnu_cxx12_Lock_policyE2EE5_ImplC2ES2_ = comdat any

$_ZNSt16allocator_traitsISaIvEE9constructIN19OpenColorIO_v2_4dev22CTFReaderACESParamsEltEJRPKcRSt10shared_ptrINS3_21XmlReaderContainerEltEEjRKNSt7__cxx1112basic_stringIcSt11char_traitsIcESaIcEEEEEEvRS0_PT_DpOT0_ = comdat any

$_ZNSt23_Sp_counted_ptr_inplaceIN19OpenColorIO_v2_4dev22CTFReaderACESParamsEltESaIvELN9__gnu_cxx12_Lock_policyE2EED2Ev = comdat any

$_ZNSt23_Sp_counted_ptr_inplaceIN19OpenColorIO_v2_4dev22CTFReaderACESParamsEltESaIvELN9__gnu_cxx12_Lock_policyE2EED0Ev = comdat any

$_ZNSt23_Sp_counted_ptr_inplaceIN19OpenColorIO_v2_4dev22CTFReaderACESParamsEltESaIvELN9__gnu_cxx12_Lock_policyE2EE10_M_disposeEv = comdat any

$_ZNSt23_Sp_counted_ptr_inplaceIN19OpenColorIO_v2_4dev22CTFReaderACESParamsEltESaIvELN9__gnu_cxx12_Lock_policyE2EE10_M_destroyEv = comdat any

$_ZNSt23_Sp_counted_ptr_inplaceIN19OpenColorIO_v2_4dev22CTFReaderACESParamsEltESaIvELN9__gnu_cxx12_Lock_policyE2EE14_M_get_deleterERKSt9type_info = comdat any

$_ZSt10_ConstructIN19OpenColorIO_v2_4dev22CTFReaderACESParamsEltEJRPKcRSt10shared_ptrINS0_21XmlReaderContainerEltEEjRKNSt7__cxx1112basic_stringIcSt11char_traitsIcESaIcEEEEEvPT_DpOT0_ = comdat any

$_ZNSt16allocator_traitsISaIvEE7destroyIN19OpenColorIO_v2_4dev22CTFReaderACESParamsEltEEEvRS0_PT_ = comdat any

$_ZNSt23_Sp_counted_ptr_inplaceIN19OpenColorIO_v2_4dev22CTFReaderACESParamsEltESaIvELN9__gnu_cxx12_Lock_policyE2EE5_Impl8_M_allocEv = comdat any

$_ZSt8_DestroyIN19OpenColorIO_v2_4dev22CTFReaderACESParamsEltEEvPT_ = comdat any

$_ZN9__gnu_cxx16__aligned_bufferIN19OpenColorIO_v2_4dev22CTFReaderACESParamsEltEE6_M_ptrEv = comdat any

$_ZN9__gnu_cxx16__aligned_bufferIN19OpenColorIO_v2_4dev22CTFReaderACESParamsEltEE7_M_addrEv = comdat any

$_ZNSt16allocator_traitsISaISt23_Sp_counted_ptr_inplaceIN19OpenColorIO_v2_4dev22CTFReaderACESParamsEltESaIvELN9__gnu_cxx12_Lock_policyE2EEEE10deallocateERS7_PS6_m = comdat any

$_ZNSt15__new_allocatorISt23_Sp_counted_ptr_inplaceIN19OpenColorIO_v2_4dev22CTFReaderACESParamsEltESaIvELN9__gnu_cxx12_Lock_policyE2EEE10deallocateEPS6_m = comdat any

$_ZNSt15__new_allocatorISt23_Sp_counted_ptr_inplaceIN19OpenColorIO_v2_4dev22CTFReaderACESParamsEltESaIvELN9__gnu_cxx12_Lock_policyE2EEED2Ev = comdat any

$_ZNSt12__shared_ptrIN19OpenColorIO_v2_4dev16XmlReaderElementELN9__gnu_cxx12_Lock_policyE2EEC2INS0_22CTFReaderACESParamsEltEvEEOS_IT_LS3_2EE = comdat any

$_ZNSt12__shared_ptrIN19OpenColorIO_v2_4dev22CTFReaderACESParamsEltELN9__gnu_cxx12_Lock_policyE2EED2Ev = comdat any

$_ZNSt10shared_ptrIN19OpenColorIO_v2_4dev11CTFArrayMgtEEC2INS0_21XmlReaderContainerEltEEERKS_IT_EPS1_ = comdat any

$_ZNSt10shared_ptrIN19OpenColorIO_v2_4dev11CTFArrayMgtEEC2Ev = comdat any

$_ZNSt12__shared_ptrIN19OpenColorIO_v2_4dev11CTFArrayMgtELN9__gnu_cxx12_Lock_policyE2EEC2INS0_21XmlReaderContainerEltEEERKS_IT_LS3_2EEPS1_ = comdat any

$_ZNSt12__shared_ptrIN19OpenColorIO_v2_4dev11CTFArrayMgtELN9__gnu_cxx12_Lock_policyE2EEC2Ev = comdat any

$_ZNKSt19__shared_ptr_accessIN19OpenColorIO_v2_4dev11CTFArrayMgtELN9__gnu_cxx12_Lock_policyE2ELb0ELb0EE6_M_getEv = comdat any

$_ZNKSt12__shared_ptrIN19OpenColorIO_v2_4dev11CTFArrayMgtELN9__gnu_cxx12_Lock_policyE2EE3getEv = comdat any

$_ZNSt10shared_ptrIN19OpenColorIO_v2_4dev17XmlReaderDummyEltEEC2ISaIvEJRPKcS_INS0_16XmlReaderElementEEjRKNSt7__cxx1112basic_stringIcSt11char_traitsIcESaIcEEERA34_S5_EEESt20_Sp_alloc_shared_tagIT_EDpOT0_ = comdat any

$_ZNSt12__shared_ptrIN19OpenColorIO_v2_4dev17XmlReaderDummyEltELN9__gnu_cxx12_Lock_policyE2EEC2ISaIvEJRPKcSt10shared_ptrINS0_16XmlReaderElementEEjRKNSt7__cxx1112basic_stringIcSt11char_traitsIcESaIcEEERA34_S7_EEESt20_Sp_alloc_shared_tagIT_EDpOT0_ = comdat any

$_ZNSt14__shared_countILN9__gnu_cxx12_Lock_policyE2EEC2IN19OpenColorIO_v2_4dev17XmlReaderDummyEltESaIvEJRPKcSt10shared_ptrINS4_16XmlReaderElementEEjRKNSt7__cxx1112basic_stringIcSt11char_traitsIcESaIcEEERA34_S7_EEERPT_St20_Sp_alloc_shared_tagIT0_EDpOT1_ = comdat any

$_ZNSt23_Sp_counted_ptr_inplaceIN19OpenColorIO_v2_4dev17XmlReaderDummyEltESaIvELN9__gnu_cxx12_Lock_policyE2EEC2IJRPKcSt10shared_ptrINS0_16XmlReaderElementEEjRKNSt7__cxx1112basic_stringIcSt11char_traitsIcESaIcEEERA34_S7_EEES2_DpOT_ = comdat any

$_ZNSt16allocator_traitsISaIvEE9constructIN19OpenColorIO_v2_4dev17XmlReaderDummyEltEJRPKcSt10shared_ptrINS3_16XmlReaderElementEEjRKNSt7__cxx1112basic_stringIcSt11char_traitsIcESaIcEEERA34_S5_EEEvRS0_PT_DpOT0_ = comdat any

$_ZSt10_ConstructIN19OpenColorIO_v2_4dev17XmlReaderDummyEltEJRPKcSt10shared_ptrINS0_16XmlReaderElementEEjRKNSt7__cxx1112basic_stringIcSt11char_traitsIcESaIcEEERA34_S2_EEvPT_DpOT0_ = comdat any

$_ZNSt10shared_ptrIN19OpenColorIO_v2_4dev16XmlReaderElementEEC2EOS2_ = comdat any

$_ZNSt10shared_ptrIN19OpenColorIO_v2_4dev17XmlReaderDummyEltEEC2ISaIvEJRPKcS_INS0_16XmlReaderElementEEjRKNSt7__cxx1112basic_stringIcSt11char_traitsIcESaIcEEERA30_S5_EEESt20_Sp_alloc_shared_tagIT_EDpOT0_ = comdat any

$_ZNSt12__shared_ptrIN19OpenColorIO_v2_4dev17XmlReaderDummyEltELN9__gnu_cxx12_Lock_policyE2EEC2ISaIvEJRPKcSt10shared_ptrINS0_16XmlReaderElementEEjRKNSt7__cxx1112basic_stringIcSt11char_traitsIcESaIcEEERA30_S7_EEESt20_Sp_alloc_shared_tagIT_EDpOT0_ = comdat any

$_ZNSt14__shared_countILN9__gnu_cxx12_Lock_policyE2EEC2IN19OpenColorIO_v2_4dev17XmlReaderDummyEltESaIvEJRPKcSt10shared_ptrINS4_16XmlReaderElementEEjRKNSt7__cxx1112basic_stringIcSt11char_traitsIcESaIcEEERA30_S7_EEERPT_St20_Sp_alloc_shared_tagIT0_EDpOT1_ = comdat any

$_ZNSt23_Sp_counted_ptr_inplaceIN19OpenColorIO_v2_4dev17XmlReaderDummyEltESaIvELN9__gnu_cxx12_Lock_policyE2EEC2IJRPKcSt10shared_ptrINS0_16XmlReaderElementEEjRKNSt7__cxx1112basic_stringIcSt11char_traitsIcESaIcEEERA30_S7_EEES2_DpOT_ = comdat any

$_ZNSt16allocator_traitsISaIvEE9constructIN19OpenColorIO_v2_4dev17XmlReaderDummyEltEJRPKcSt10shared_ptrINS3_16XmlReaderElementEEjRKNSt7__cxx1112basic_stringIcSt11char_traitsIcESaIcEEERA30_S5_EEEvRS0_PT_DpOT0_ = comdat any

$_ZSt10_ConstructIN19OpenColorIO_v2_4dev17XmlReaderDummyEltEJRPKcSt10shared_ptrINS0_16XmlReaderElementEEjRKNSt7__cxx1112basic_stringIcSt11char_traitsIcESaIcEEERA30_S2_EEvPT_DpOT0_ = comdat any

$_ZNSt10shared_ptrIN19OpenColorIO_v2_4dev17CTFReaderArrayEltEEC2ISaIvEJRPKcRS_INS0_21XmlReaderContainerEltEEjRKNSt7__cxx1112basic_stringIcSt11char_traitsIcESaIcEEEEEESt20_Sp_alloc_shared_tagIT_EDpOT0_ = comdat any

$_ZNSt12__shared_ptrIN19OpenColorIO_v2_4dev17CTFReaderArrayEltELN9__gnu_cxx12_Lock_policyE2EEC2ISaIvEJRPKcRSt10shared_ptrINS0_21XmlReaderContainerEltEEjRKNSt7__cxx1112basic_stringIcSt11char_traitsIcESaIcEEEEEESt20_Sp_alloc_shared_tagIT_EDpOT0_ = comdat any

$_ZNSt14__shared_countILN9__gnu_cxx12_Lock_policyE2EEC2IN19OpenColorIO_v2_4dev17CTFReaderArrayEltESaIvEJRPKcRSt10shared_ptrINS4_21XmlReaderContainerEltEEjRKNSt7__cxx1112basic_stringIcSt11char_traitsIcESaIcEEEEEERPT_St20_Sp_alloc_shared_tagIT0_EDpOT1_ = comdat any

$_ZNSt12__shared_ptrIN19OpenColorIO_v2_4dev17CTFReaderArrayEltELN9__gnu_cxx12_Lock_policyE2EE31_M_enable_shared_from_this_withIS1_S1_EENSt9enable_ifIXntsr15__has_esft_baseIT0_EE5valueEvE4typeEPT_ = comdat any

$_ZNSaISt23_Sp_counted_ptr_inplaceIN19OpenColorIO_v2_4dev17CTFReaderArrayEltESaIvELN9__gnu_cxx12_Lock_policyE2EEEC2IvEERKSaIT_E = comdat any

$_ZSt18__allocate_guardedISaISt23_Sp_counted_ptr_inplaceIN19OpenColorIO_v2_4dev17CTFReaderArrayEltESaIvELN9__gnu_cxx12_Lock_policyE2EEEESt15__allocated_ptrIT_ERS9_ = comdat any

$_ZNSt15__allocated_ptrISaISt23_Sp_counted_ptr_inplaceIN19OpenColorIO_v2_4dev17CTFReaderArrayEltESaIvELN9__gnu_cxx12_Lock_policyE2EEEE3getEv = comdat any

$_ZNSt23_Sp_counted_ptr_inplaceIN19OpenColorIO_v2_4dev17CTFReaderArrayEltESaIvELN9__gnu_cxx12_Lock_policyE2EEC2IJRPKcRSt10shared_ptrINS0_21XmlReaderContainerEltEEjRKNSt7__cxx1112basic_stringIcSt11char_traitsIcESaIcEEEEEES2_DpOT_ = comdat any

$_ZNSt15__allocated_ptrISaISt23_Sp_counted_ptr_inplaceIN19OpenColorIO_v2_4dev17CTFReaderArrayEltESaIvELN9__gnu_cxx12_Lock_policyE2EEEEaSEDn = comdat any

$_ZNSt23_Sp_counted_ptr_inplaceIN19OpenColorIO_v2_4dev17CTFReaderArrayEltESaIvELN9__gnu_cxx12_Lock_policyE2EE6_M_ptrEv = comdat any

$_ZNSt15__allocated_ptrISaISt23_Sp_counted_ptr_inplaceIN19OpenColorIO_v2_4dev17CTFReaderArrayEltESaIvELN9__gnu_cxx12_Lock_policyE2EEEED2Ev = comdat any

$_ZNSaISt23_Sp_counted_ptr_inplaceIN19OpenColorIO_v2_4dev17CTFReaderArrayEltESaIvELN9__gnu_cxx12_Lock_policyE2EEED2Ev = comdat any

$_ZNSt15__new_allocatorISt23_Sp_counted_ptr_inplaceIN19OpenColorIO_v2_4dev17CTFReaderArrayEltESaIvELN9__gnu_cxx12_Lock_policyE2EEEC2Ev = comdat any

$_ZNSt16allocator_traitsISaISt23_Sp_counted_ptr_inplaceIN19OpenColorIO_v2_4dev17CTFReaderArrayEltESaIvELN9__gnu_cxx12_Lock_policyE2EEEE8allocateERS7_m = comdat any

$_ZNSt15__allocated_ptrISaISt23_Sp_counted_ptr_inplaceIN19OpenColorIO_v2_4dev17CTFReaderArrayEltESaIvELN9__gnu_cxx12_Lock_policyE2EEEEC2ERS7_PS6_ = comdat any

$_ZNSt15__new_allocatorISt23_Sp_counted_ptr_inplaceIN19OpenColorIO_v2_4dev17CTFReaderArrayEltESaIvELN9__gnu_cxx12_Lock_policyE2EEE8allocateEmPKv = comdat any

$_ZNKSt15__new_allocatorISt23_Sp_counted_ptr_inplaceIN19OpenColorIO_v2_4dev17CTFReaderArrayEltESaIvELN9__gnu_cxx12_Lock_policyE2EEE11_M_max_sizeEv = comdat any

$_ZSt12__to_addressISt23_Sp_counted_ptr_inplaceIN19OpenColorIO_v2_4dev17CTFReaderArrayEltESaIvELN9__gnu_cxx12_Lock_policyE2EEEPT_S8_ = comdat any

$_ZNSt23_Sp_counted_ptr_inplaceIN19OpenColorIO_v2_4dev17CTFReaderArrayEltESaIvELN9__gnu_cxx12_Lock_policyE2EE5_ImplC2ES2_ = comdat any

$_ZNSt16allocator_traitsISaIvEE9constructIN19OpenColorIO_v2_4dev17CTFReaderArrayEltEJRPKcRSt10shared_ptrINS3_21XmlReaderContainerEltEEjRKNSt7__cxx1112basic_stringIcSt11char_traitsIcESaIcEEEEEEvRS0_PT_DpOT0_ = comdat any

$_ZNSt23_Sp_counted_ptr_inplaceIN19OpenColorIO_v2_4dev17CTFReaderArrayEltESaIvELN9__gnu_cxx12_Lock_policyE2EED2Ev = comdat any

$_ZNSt23_Sp_counted_ptr_inplaceIN19OpenColorIO_v2_4dev17CTFReaderArrayEltESaIvELN9__gnu_cxx12_Lock_policyE2EED0Ev = comdat any

$_ZNSt23_Sp_counted_ptr_inplaceIN19OpenColorIO_v2_4dev17CTFReaderArrayEltESaIvELN9__gnu_cxx12_Lock_policyE2EE10_M_disposeEv = comdat any

$_ZNSt23_Sp_counted_ptr_inplaceIN19OpenColorIO_v2_4dev17CTFReaderArrayEltESaIvELN9__gnu_cxx12_Lock_policyE2EE10_M_destroyEv = comdat any

$_ZNSt23_Sp_counted_ptr_inplaceIN19OpenColorIO_v2_4dev17CTFReaderArrayEltESaIvELN9__gnu_cxx12_Lock_policyE2EE14_M_get_deleterERKSt9type_info = comdat any

$_ZSt10_ConstructIN19OpenColorIO_v2_4dev17CTFReaderArrayEltEJRPKcRSt10shared_ptrINS0_21XmlReaderContainerEltEEjRKNSt7__cxx1112basic_stringIcSt11char_traitsIcESaIcEEEEEvPT_DpOT0_ = comdat any

$_ZNSt16allocator_traitsISaIvEE7destroyIN19OpenColorIO_v2_4dev17CTFReaderArrayEltEEEvRS0_PT_ = comdat any

$_ZNSt23_Sp_counted_ptr_inplaceIN19OpenColorIO_v2_4dev17CTFReaderArrayEltESaIvELN9__gnu_cxx12_Lock_policyE2EE5_Impl8_M_allocEv = comdat any

$_ZSt8_DestroyIN19OpenColorIO_v2_4dev17CTFReaderArrayEltEEvPT_ = comdat any

$_ZN9__gnu_cxx16__aligned_bufferIN19OpenColorIO_v2_4dev17CTFReaderArrayEltEE6_M_ptrEv = comdat any

$_ZN9__gnu_cxx16__aligned_bufferIN19OpenColorIO_v2_4dev17CTFReaderArrayEltEE7_M_addrEv = comdat any

$_ZNSt16allocator_traitsISaISt23_Sp_counted_ptr_inplaceIN19OpenColorIO_v2_4dev17CTFReaderArrayEltESaIvELN9__gnu_cxx12_Lock_policyE2EEEE10deallocateERS7_PS6_m = comdat any

$_ZNSt15__new_allocatorISt23_Sp_counted_ptr_inplaceIN19OpenColorIO_v2_4dev17CTFReaderArrayEltESaIvELN9__gnu_cxx12_Lock_policyE2EEE10deallocateEPS6_m = comdat any

$_ZNSt15__new_allocatorISt23_Sp_counted_ptr_inplaceIN19OpenColorIO_v2_4dev17CTFReaderArrayEltESaIvELN9__gnu_cxx12_Lock_policyE2EEED2Ev = comdat any

$_ZNSt12__shared_ptrIN19OpenColorIO_v2_4dev16XmlReaderElementELN9__gnu_cxx12_Lock_policyE2EEC2INS0_17CTFReaderArrayEltEvEEOS_IT_LS3_2EE = comdat any

$_ZNSt12__shared_ptrIN19OpenColorIO_v2_4dev17CTFReaderArrayEltELN9__gnu_cxx12_Lock_policyE2EED2Ev = comdat any

$_ZNSt12__shared_ptrIN19OpenColorIO_v2_4dev11CTFArrayMgtELN9__gnu_cxx12_Lock_policyE2EED2Ev = comdat any

$_ZNSt10shared_ptrIN19OpenColorIO_v2_4dev23XmlReaderDescriptionEltEEC2ISaIvEJRPKcRS_INS0_21XmlReaderContainerEltEEjRKNSt7__cxx1112basic_stringIcSt11char_traitsIcESaIcEEEEEESt20_Sp_alloc_shared_tagIT_EDpOT0_ = comdat any

$_ZNSt12__shared_ptrIN19OpenColorIO_v2_4dev23XmlReaderDescriptionEltELN9__gnu_cxx12_Lock_policyE2EEC2ISaIvEJRPKcRSt10shared_ptrINS0_21XmlReaderContainerEltEEjRKNSt7__cxx1112basic_stringIcSt11char_traitsIcESaIcEEEEEESt20_Sp_alloc_shared_tagIT_EDpOT0_ = comdat any

$_ZNSt14__shared_countILN9__gnu_cxx12_Lock_policyE2EEC2IN19OpenColorIO_v2_4dev23XmlReaderDescriptionEltESaIvEJRPKcRSt10shared_ptrINS4_21XmlReaderContainerEltEEjRKNSt7__cxx1112basic_stringIcSt11char_traitsIcESaIcEEEEEERPT_St20_Sp_alloc_shared_tagIT0_EDpOT1_ = comdat any

$_ZNSt12__shared_ptrIN19OpenColorIO_v2_4dev23XmlReaderDescriptionEltELN9__gnu_cxx12_Lock_policyE2EE31_M_enable_shared_from_this_withIS1_S1_EENSt9enable_ifIXntsr15__has_esft_baseIT0_EE5valueEvE4typeEPT_ = comdat any

$_ZNSaISt23_Sp_counted_ptr_inplaceIN19OpenColorIO_v2_4dev23XmlReaderDescriptionEltESaIvELN9__gnu_cxx12_Lock_policyE2EEEC2IvEERKSaIT_E = comdat any

$_ZSt18__allocate_guardedISaISt23_Sp_counted_ptr_inplaceIN19OpenColorIO_v2_4dev23XmlReaderDescriptionEltESaIvELN9__gnu_cxx12_Lock_policyE2EEEESt15__allocated_ptrIT_ERS9_ = comdat any

$_ZNSt15__allocated_ptrISaISt23_Sp_counted_ptr_inplaceIN19OpenColorIO_v2_4dev23XmlReaderDescriptionEltESaIvELN9__gnu_cxx12_Lock_policyE2EEEE3getEv = comdat any

$_ZNSt23_Sp_counted_ptr_inplaceIN19OpenColorIO_v2_4dev23XmlReaderDescriptionEltESaIvELN9__gnu_cxx12_Lock_policyE2EEC2IJRPKcRSt10shared_ptrINS0_21XmlReaderContainerEltEEjRKNSt7__cxx1112basic_stringIcSt11char_traitsIcESaIcEEEEEES2_DpOT_ = comdat any

$_ZNSt15__allocated_ptrISaISt23_Sp_counted_ptr_inplaceIN19OpenColorIO_v2_4dev23XmlReaderDescriptionEltESaIvELN9__gnu_cxx12_Lock_policyE2EEEEaSEDn = comdat any

$_ZNSt23_Sp_counted_ptr_inplaceIN19OpenColorIO_v2_4dev23XmlReaderDescriptionEltESaIvELN9__gnu_cxx12_Lock_policyE2EE6_M_ptrEv = comdat any

$_ZNSt15__allocated_ptrISaISt23_Sp_counted_ptr_inplaceIN19OpenColorIO_v2_4dev23XmlReaderDescriptionEltESaIvELN9__gnu_cxx12_Lock_policyE2EEEED2Ev = comdat any

$_ZNSaISt23_Sp_counted_ptr_inplaceIN19OpenColorIO_v2_4dev23XmlReaderDescriptionEltESaIvELN9__gnu_cxx12_Lock_policyE2EEED2Ev = comdat any

$_ZNSt15__new_allocatorISt23_Sp_counted_ptr_inplaceIN19OpenColorIO_v2_4dev23XmlReaderDescriptionEltESaIvELN9__gnu_cxx12_Lock_policyE2EEEC2Ev = comdat any

$_ZNSt16allocator_traitsISaISt23_Sp_counted_ptr_inplaceIN19OpenColorIO_v2_4dev23XmlReaderDescriptionEltESaIvELN9__gnu_cxx12_Lock_policyE2EEEE8allocateERS7_m = comdat any

$_ZNSt15__allocated_ptrISaISt23_Sp_counted_ptr_inplaceIN19OpenColorIO_v2_4dev23XmlReaderDescriptionEltESaIvELN9__gnu_cxx12_Lock_policyE2EEEEC2ERS7_PS6_ = comdat any

$_ZNSt15__new_allocatorISt23_Sp_counted_ptr_inplaceIN19OpenColorIO_v2_4dev23XmlReaderDescriptionEltESaIvELN9__gnu_cxx12_Lock_policyE2EEE8allocateEmPKv = comdat any

$_ZNKSt15__new_allocatorISt23_Sp_counted_ptr_inplaceIN19OpenColorIO_v2_4dev23XmlReaderDescriptionEltESaIvELN9__gnu_cxx12_Lock_policyE2EEE11_M_max_sizeEv = comdat any

$_ZSt12__to_addressISt23_Sp_counted_ptr_inplaceIN19OpenColorIO_v2_4dev23XmlReaderDescriptionEltESaIvELN9__gnu_cxx12_Lock_policyE2EEEPT_S8_ = comdat any

$_ZNSt23_Sp_counted_ptr_inplaceIN19OpenColorIO_v2_4dev23XmlReaderDescriptionEltESaIvELN9__gnu_cxx12_Lock_policyE2EE5_ImplC2ES2_ = comdat any

$_ZNSt16allocator_traitsISaIvEE9constructIN19OpenColorIO_v2_4dev23XmlReaderDescriptionEltEJRPKcRSt10shared_ptrINS3_21XmlReaderContainerEltEEjRKNSt7__cxx1112basic_stringIcSt11char_traitsIcESaIcEEEEEEvRS0_PT_DpOT0_ = comdat any

$_ZNSt23_Sp_counted_ptr_inplaceIN19OpenColorIO_v2_4dev23XmlReaderDescriptionEltESaIvELN9__gnu_cxx12_Lock_policyE2EED2Ev = comdat any

$_ZNSt23_Sp_counted_ptr_inplaceIN19OpenColorIO_v2_4dev23XmlReaderDescriptionEltESaIvELN9__gnu_cxx12_Lock_policyE2EED0Ev = comdat any

$_ZNSt23_Sp_counted_ptr_inplaceIN19OpenColorIO_v2_4dev23XmlReaderDescriptionEltESaIvELN9__gnu_cxx12_Lock_policyE2EE10_M_disposeEv = comdat any

$_ZNSt23_Sp_counted_ptr_inplaceIN19OpenColorIO_v2_4dev23XmlReaderDescriptionEltESaIvELN9__gnu_cxx12_Lock_policyE2EE10_M_destroyEv = comdat any

$_ZNSt23_Sp_counted_ptr_inplaceIN19OpenColorIO_v2_4dev23XmlReaderDescriptionEltESaIvELN9__gnu_cxx12_Lock_policyE2EE14_M_get_deleterERKSt9type_info = comdat any

$_ZSt10_ConstructIN19OpenColorIO_v2_4dev23XmlReaderDescriptionEltEJRPKcRSt10shared_ptrINS0_21XmlReaderContainerEltEEjRKNSt7__cxx1112basic_stringIcSt11char_traitsIcESaIcEEEEEvPT_DpOT0_ = comdat any

$_ZN19OpenColorIO_v2_4dev23XmlReaderDescriptionEltC2ERKNSt7__cxx1112basic_stringIcSt11char_traitsIcESaIcEEERSt10shared_ptrINS_21XmlReaderContainerEltEEjS8_ = comdat any

$_ZN19OpenColorIO_v2_4dev17XmlReaderPlainEltC2ERKNSt7__cxx1112basic_stringIcSt11char_traitsIcESaIcEEESt10shared_ptrINS_21XmlReaderContainerEltEEjS8_ = comdat any

$_ZN19OpenColorIO_v2_4dev17XmlReaderPlainEltD2Ev = comdat any

$_ZN19OpenColorIO_v2_4dev17XmlReaderPlainEltD0Ev = comdat any

$_ZNK19OpenColorIO_v2_4dev17XmlReaderPlainElt11isContainerEv = comdat any

$_ZNK19OpenColorIO_v2_4dev17XmlReaderPlainElt13getIdentifierB5cxx11Ev = comdat any

$_ZNK19OpenColorIO_v2_4dev17XmlReaderPlainElt11getTypeNameEv = comdat any

$_ZNK19OpenColorIO_v2_4dev16XmlReaderElement7isDummyEv = comdat any

$_ZNSt16allocator_traitsISaIvEE7destroyIN19OpenColorIO_v2_4dev23XmlReaderDescriptionEltEEEvRS0_PT_ = comdat any

$_ZNSt23_Sp_counted_ptr_inplaceIN19OpenColorIO_v2_4dev23XmlReaderDescriptionEltESaIvELN9__gnu_cxx12_Lock_policyE2EE5_Impl8_M_allocEv = comdat any

$_ZSt8_DestroyIN19OpenColorIO_v2_4dev23XmlReaderDescriptionEltEEvPT_ = comdat any

$_ZN9__gnu_cxx16__aligned_bufferIN19OpenColorIO_v2_4dev23XmlReaderDescriptionEltEE6_M_ptrEv = comdat any

$_ZN9__gnu_cxx16__aligned_bufferIN19OpenColorIO_v2_4dev23XmlReaderDescriptionEltEE7_M_addrEv = comdat any

$_ZNSt16allocator_traitsISaISt23_Sp_counted_ptr_inplaceIN19OpenColorIO_v2_4dev23XmlReaderDescriptionEltESaIvELN9__gnu_cxx12_Lock_policyE2EEEE10deallocateERS7_PS6_m = comdat any

$_ZNSt15__new_allocatorISt23_Sp_counted_ptr_inplaceIN19OpenColorIO_v2_4dev23XmlReaderDescriptionEltESaIvELN9__gnu_cxx12_Lock_policyE2EEE10deallocateEPS6_m = comdat any

$_ZNSt15__new_allocatorISt23_Sp_counted_ptr_inplaceIN19OpenColorIO_v2_4dev23XmlReaderDescriptionEltESaIvELN9__gnu_cxx12_Lock_policyE2EEED2Ev = comdat any

$_ZNSt12__shared_ptrIN19OpenColorIO_v2_4dev16XmlReaderElementELN9__gnu_cxx12_Lock_policyE2EEC2INS0_23XmlReaderDescriptionEltEvEEOS_IT_LS3_2EE = comdat any

$_ZNSt12__shared_ptrIN19OpenColorIO_v2_4dev23XmlReaderDescriptionEltELN9__gnu_cxx12_Lock_policyE2EED2Ev = comdat any

$_ZNSt10shared_ptrIN19OpenColorIO_v2_4dev14CTFReaderOpEltEEC2INS0_21XmlReaderContainerEltEEERKS_IT_EPS1_ = comdat any

$_ZNSt10shared_ptrIN19OpenColorIO_v2_4dev14CTFReaderOpEltEEC2Ev = comdat any

$_ZNSt12__shared_ptrIN19OpenColorIO_v2_4dev14CTFReaderOpEltELN9__gnu_cxx12_Lock_policyE2EEC2INS0_21XmlReaderContainerEltEEERKS_IT_LS3_2EEPS1_ = comdat any

$_ZNSt12__shared_ptrIN19OpenColorIO_v2_4dev14CTFReaderOpEltELN9__gnu_cxx12_Lock_policyE2EEC2Ev = comdat any

$_ZNSt12__shared_ptrIN19OpenColorIO_v2_4dev14CTFReaderOpEltELN9__gnu_cxx12_Lock_policyE2EED2Ev = comdat any

$_ZNSt10shared_ptrIN19OpenColorIO_v2_4dev24CTFReaderDynamicParamEltEEC2ISaIvEJRPKcRS_INS0_21XmlReaderContainerEltEEjRKNSt7__cxx1112basic_stringIcSt11char_traitsIcESaIcEEEEEESt20_Sp_alloc_shared_tagIT_EDpOT0_ = comdat any

$_ZNSt12__shared_ptrIN19OpenColorIO_v2_4dev24CTFReaderDynamicParamEltELN9__gnu_cxx12_Lock_policyE2EEC2ISaIvEJRPKcRSt10shared_ptrINS0_21XmlReaderContainerEltEEjRKNSt7__cxx1112basic_stringIcSt11char_traitsIcESaIcEEEEEESt20_Sp_alloc_shared_tagIT_EDpOT0_ = comdat any

$_ZNSt14__shared_countILN9__gnu_cxx12_Lock_policyE2EEC2IN19OpenColorIO_v2_4dev24CTFReaderDynamicParamEltESaIvEJRPKcRSt10shared_ptrINS4_21XmlReaderContainerEltEEjRKNSt7__cxx1112basic_stringIcSt11char_traitsIcESaIcEEEEEERPT_St20_Sp_alloc_shared_tagIT0_EDpOT1_ = comdat any

$_ZNSt12__shared_ptrIN19OpenColorIO_v2_4dev24CTFReaderDynamicParamEltELN9__gnu_cxx12_Lock_policyE2EE31_M_enable_shared_from_this_withIS1_S1_EENSt9enable_ifIXntsr15__has_esft_baseIT0_EE5valueEvE4typeEPT_ = comdat any

$_ZNSaISt23_Sp_counted_ptr_inplaceIN19OpenColorIO_v2_4dev24CTFReaderDynamicParamEltESaIvELN9__gnu_cxx12_Lock_policyE2EEEC2IvEERKSaIT_E = comdat any

$_ZSt18__allocate_guardedISaISt23_Sp_counted_ptr_inplaceIN19OpenColorIO_v2_4dev24CTFReaderDynamicParamEltESaIvELN9__gnu_cxx12_Lock_policyE2EEEESt15__allocated_ptrIT_ERS9_ = comdat any

$_ZNSt15__allocated_ptrISaISt23_Sp_counted_ptr_inplaceIN19OpenColorIO_v2_4dev24CTFReaderDynamicParamEltESaIvELN9__gnu_cxx12_Lock_policyE2EEEE3getEv = comdat any

$_ZNSt23_Sp_counted_ptr_inplaceIN19OpenColorIO_v2_4dev24CTFReaderDynamicParamEltESaIvELN9__gnu_cxx12_Lock_policyE2EEC2IJRPKcRSt10shared_ptrINS0_21XmlReaderContainerEltEEjRKNSt7__cxx1112basic_stringIcSt11char_traitsIcESaIcEEEEEES2_DpOT_ = comdat any

$_ZNSt15__allocated_ptrISaISt23_Sp_counted_ptr_inplaceIN19OpenColorIO_v2_4dev24CTFReaderDynamicParamEltESaIvELN9__gnu_cxx12_Lock_policyE2EEEEaSEDn = comdat any

$_ZNSt23_Sp_counted_ptr_inplaceIN19OpenColorIO_v2_4dev24CTFReaderDynamicParamEltESaIvELN9__gnu_cxx12_Lock_policyE2EE6_M_ptrEv = comdat any

$_ZNSt15__allocated_ptrISaISt23_Sp_counted_ptr_inplaceIN19OpenColorIO_v2_4dev24CTFReaderDynamicParamEltESaIvELN9__gnu_cxx12_Lock_policyE2EEEED2Ev = comdat any

$_ZNSaISt23_Sp_counted_ptr_inplaceIN19OpenColorIO_v2_4dev24CTFReaderDynamicParamEltESaIvELN9__gnu_cxx12_Lock_policyE2EEED2Ev = comdat any

$_ZNSt15__new_allocatorISt23_Sp_counted_ptr_inplaceIN19OpenColorIO_v2_4dev24CTFReaderDynamicParamEltESaIvELN9__gnu_cxx12_Lock_policyE2EEEC2Ev = comdat any

$_ZNSt16allocator_traitsISaISt23_Sp_counted_ptr_inplaceIN19OpenColorIO_v2_4dev24CTFReaderDynamicParamEltESaIvELN9__gnu_cxx12_Lock_policyE2EEEE8allocateERS7_m = comdat any

$_ZNSt15__allocated_ptrISaISt23_Sp_counted_ptr_inplaceIN19OpenColorIO_v2_4dev24CTFReaderDynamicParamEltESaIvELN9__gnu_cxx12_Lock_policyE2EEEEC2ERS7_PS6_ = comdat any

$_ZNSt15__new_allocatorISt23_Sp_counted_ptr_inplaceIN19OpenColorIO_v2_4dev24CTFReaderDynamicParamEltESaIvELN9__gnu_cxx12_Lock_policyE2EEE8allocateEmPKv = comdat any

$_ZNKSt15__new_allocatorISt23_Sp_counted_ptr_inplaceIN19OpenColorIO_v2_4dev24CTFReaderDynamicParamEltESaIvELN9__gnu_cxx12_Lock_policyE2EEE11_M_max_sizeEv = comdat any

$_ZSt12__to_addressISt23_Sp_counted_ptr_inplaceIN19OpenColorIO_v2_4dev24CTFReaderDynamicParamEltESaIvELN9__gnu_cxx12_Lock_policyE2EEEPT_S8_ = comdat any

$_ZNSt23_Sp_counted_ptr_inplaceIN19OpenColorIO_v2_4dev24CTFReaderDynamicParamEltESaIvELN9__gnu_cxx12_Lock_policyE2EE5_ImplC2ES2_ = comdat any

$_ZNSt16allocator_traitsISaIvEE9constructIN19OpenColorIO_v2_4dev24CTFReaderDynamicParamEltEJRPKcRSt10shared_ptrINS3_21XmlReaderContainerEltEEjRKNSt7__cxx1112basic_stringIcSt11char_traitsIcESaIcEEEEEEvRS0_PT_DpOT0_ = comdat any

$_ZNSt23_Sp_counted_ptr_inplaceIN19OpenColorIO_v2_4dev24CTFReaderDynamicParamEltESaIvELN9__gnu_cxx12_Lock_policyE2EED2Ev = comdat any

$_ZNSt23_Sp_counted_ptr_inplaceIN19OpenColorIO_v2_4dev24CTFReaderDynamicParamEltESaIvELN9__gnu_cxx12_Lock_policyE2EED0Ev = comdat any

$_ZNSt23_Sp_counted_ptr_inplaceIN19OpenColorIO_v2_4dev24CTFReaderDynamicParamEltESaIvELN9__gnu_cxx12_Lock_policyE2EE10_M_disposeEv = comdat any

$_ZNSt23_Sp_counted_ptr_inplaceIN19OpenColorIO_v2_4dev24CTFReaderDynamicParamEltESaIvELN9__gnu_cxx12_Lock_policyE2EE10_M_destroyEv = comdat any

$_ZNSt23_Sp_counted_ptr_inplaceIN19OpenColorIO_v2_4dev24CTFReaderDynamicParamEltESaIvELN9__gnu_cxx12_Lock_policyE2EE14_M_get_deleterERKSt9type_info = comdat any

$_ZSt10_ConstructIN19OpenColorIO_v2_4dev24CTFReaderDynamicParamEltEJRPKcRSt10shared_ptrINS0_21XmlReaderContainerEltEEjRKNSt7__cxx1112basic_stringIcSt11char_traitsIcESaIcEEEEEvPT_DpOT0_ = comdat any

$_ZNSt16allocator_traitsISaIvEE7destroyIN19OpenColorIO_v2_4dev24CTFReaderDynamicParamEltEEEvRS0_PT_ = comdat any

$_ZNSt23_Sp_counted_ptr_inplaceIN19OpenColorIO_v2_4dev24CTFReaderDynamicParamEltESaIvELN9__gnu_cxx12_Lock_policyE2EE5_Impl8_M_allocEv = comdat any

$_ZSt8_DestroyIN19OpenColorIO_v2_4dev24CTFReaderDynamicParamEltEEvPT_ = comdat any

$_ZN9__gnu_cxx16__aligned_bufferIN19OpenColorIO_v2_4dev24CTFReaderDynamicParamEltEE6_M_ptrEv = comdat any

$_ZN9__gnu_cxx16__aligned_bufferIN19OpenColorIO_v2_4dev24CTFReaderDynamicParamEltEE7_M_addrEv = comdat any

$_ZNSt16allocator_traitsISaISt23_Sp_counted_ptr_inplaceIN19OpenColorIO_v2_4dev24CTFReaderDynamicParamEltESaIvELN9__gnu_cxx12_Lock_policyE2EEEE10deallocateERS7_PS6_m = comdat any

$_ZNSt15__new_allocatorISt23_Sp_counted_ptr_inplaceIN19OpenColorIO_v2_4dev24CTFReaderDynamicParamEltESaIvELN9__gnu_cxx12_Lock_policyE2EEE10deallocateEPS6_m = comdat any

$_ZNSt15__new_allocatorISt23_Sp_counted_ptr_inplaceIN19OpenColorIO_v2_4dev24CTFReaderDynamicParamEltESaIvELN9__gnu_cxx12_Lock_policyE2EEED2Ev = comdat any

$_ZNSt12__shared_ptrIN19OpenColorIO_v2_4dev16XmlReaderElementELN9__gnu_cxx12_Lock_policyE2EEC2INS0_24CTFReaderDynamicParamEltEvEEOS_IT_LS3_2EE = comdat any

$_ZNSt12__shared_ptrIN19OpenColorIO_v2_4dev24CTFReaderDynamicParamEltELN9__gnu_cxx12_Lock_policyE2EED2Ev = comdat any

$_ZNSt10shared_ptrIN19OpenColorIO_v2_4dev20CTFReaderECParamsEltEEC2ISaIvEJRPKcRS_INS0_21XmlReaderContainerEltEEjRKNSt7__cxx1112basic_stringIcSt11char_traitsIcESaIcEEEEEESt20_Sp_alloc_shared_tagIT_EDpOT0_ = comdat any

$_ZNSt12__shared_ptrIN19OpenColorIO_v2_4dev20CTFReaderECParamsEltELN9__gnu_cxx12_Lock_policyE2EEC2ISaIvEJRPKcRSt10shared_ptrINS0_21XmlReaderContainerEltEEjRKNSt7__cxx1112basic_stringIcSt11char_traitsIcESaIcEEEEEESt20_Sp_alloc_shared_tagIT_EDpOT0_ = comdat any

$_ZNSt14__shared_countILN9__gnu_cxx12_Lock_policyE2EEC2IN19OpenColorIO_v2_4dev20CTFReaderECParamsEltESaIvEJRPKcRSt10shared_ptrINS4_21XmlReaderContainerEltEEjRKNSt7__cxx1112basic_stringIcSt11char_traitsIcESaIcEEEEEERPT_St20_Sp_alloc_shared_tagIT0_EDpOT1_ = comdat any

$_ZNSt12__shared_ptrIN19OpenColorIO_v2_4dev20CTFReaderECParamsEltELN9__gnu_cxx12_Lock_policyE2EE31_M_enable_shared_from_this_withIS1_S1_EENSt9enable_ifIXntsr15__has_esft_baseIT0_EE5valueEvE4typeEPT_ = comdat any

$_ZNSaISt23_Sp_counted_ptr_inplaceIN19OpenColorIO_v2_4dev20CTFReaderECParamsEltESaIvELN9__gnu_cxx12_Lock_policyE2EEEC2IvEERKSaIT_E = comdat any

$_ZSt18__allocate_guardedISaISt23_Sp_counted_ptr_inplaceIN19OpenColorIO_v2_4dev20CTFReaderECParamsEltESaIvELN9__gnu_cxx12_Lock_policyE2EEEESt15__allocated_ptrIT_ERS9_ = comdat any

$_ZNSt15__allocated_ptrISaISt23_Sp_counted_ptr_inplaceIN19OpenColorIO_v2_4dev20CTFReaderECParamsEltESaIvELN9__gnu_cxx12_Lock_policyE2EEEE3getEv = comdat any

$_ZNSt23_Sp_counted_ptr_inplaceIN19OpenColorIO_v2_4dev20CTFReaderECParamsEltESaIvELN9__gnu_cxx12_Lock_policyE2EEC2IJRPKcRSt10shared_ptrINS0_21XmlReaderContainerEltEEjRKNSt7__cxx1112basic_stringIcSt11char_traitsIcESaIcEEEEEES2_DpOT_ = comdat any

$_ZNSt15__allocated_ptrISaISt23_Sp_counted_ptr_inplaceIN19OpenColorIO_v2_4dev20CTFReaderECParamsEltESaIvELN9__gnu_cxx12_Lock_policyE2EEEEaSEDn = comdat any

$_ZNSt23_Sp_counted_ptr_inplaceIN19OpenColorIO_v2_4dev20CTFReaderECParamsEltESaIvELN9__gnu_cxx12_Lock_policyE2EE6_M_ptrEv = comdat any

$_ZNSt15__allocated_ptrISaISt23_Sp_counted_ptr_inplaceIN19OpenColorIO_v2_4dev20CTFReaderECParamsEltESaIvELN9__gnu_cxx12_Lock_policyE2EEEED2Ev = comdat any

$_ZNSaISt23_Sp_counted_ptr_inplaceIN19OpenColorIO_v2_4dev20CTFReaderECParamsEltESaIvELN9__gnu_cxx12_Lock_policyE2EEED2Ev = comdat any

$_ZNSt15__new_allocatorISt23_Sp_counted_ptr_inplaceIN19OpenColorIO_v2_4dev20CTFReaderECParamsEltESaIvELN9__gnu_cxx12_Lock_policyE2EEEC2Ev = comdat any

$_ZNSt16allocator_traitsISaISt23_Sp_counted_ptr_inplaceIN19OpenColorIO_v2_4dev20CTFReaderECParamsEltESaIvELN9__gnu_cxx12_Lock_policyE2EEEE8allocateERS7_m = comdat any

$_ZNSt15__allocated_ptrISaISt23_Sp_counted_ptr_inplaceIN19OpenColorIO_v2_4dev20CTFReaderECParamsEltESaIvELN9__gnu_cxx12_Lock_policyE2EEEEC2ERS7_PS6_ = comdat any

$_ZNSt15__new_allocatorISt23_Sp_counted_ptr_inplaceIN19OpenColorIO_v2_4dev20CTFReaderECParamsEltESaIvELN9__gnu_cxx12_Lock_policyE2EEE8allocateEmPKv = comdat any

$_ZNKSt15__new_allocatorISt23_Sp_counted_ptr_inplaceIN19OpenColorIO_v2_4dev20CTFReaderECParamsEltESaIvELN9__gnu_cxx12_Lock_policyE2EEE11_M_max_sizeEv = comdat any

$_ZSt12__to_addressISt23_Sp_counted_ptr_inplaceIN19OpenColorIO_v2_4dev20CTFReaderECParamsEltESaIvELN9__gnu_cxx12_Lock_policyE2EEEPT_S8_ = comdat any

$_ZNSt23_Sp_counted_ptr_inplaceIN19OpenColorIO_v2_4dev20CTFReaderECParamsEltESaIvELN9__gnu_cxx12_Lock_policyE2EE5_ImplC2ES2_ = comdat any

$_ZNSt16allocator_traitsISaIvEE9constructIN19OpenColorIO_v2_4dev20CTFReaderECParamsEltEJRPKcRSt10shared_ptrINS3_21XmlReaderContainerEltEEjRKNSt7__cxx1112basic_stringIcSt11char_traitsIcESaIcEEEEEEvRS0_PT_DpOT0_ = comdat any

$_ZNSt23_Sp_counted_ptr_inplaceIN19OpenColorIO_v2_4dev20CTFReaderECParamsEltESaIvELN9__gnu_cxx12_Lock_policyE2EED2Ev = comdat any

$_ZNSt23_Sp_counted_ptr_inplaceIN19OpenColorIO_v2_4dev20CTFReaderECParamsEltESaIvELN9__gnu_cxx12_Lock_policyE2EED0Ev = comdat any

$_ZNSt23_Sp_counted_ptr_inplaceIN19OpenColorIO_v2_4dev20CTFReaderECParamsEltESaIvELN9__gnu_cxx12_Lock_policyE2EE10_M_disposeEv = comdat any

$_ZNSt23_Sp_counted_ptr_inplaceIN19OpenColorIO_v2_4dev20CTFReaderECParamsEltESaIvELN9__gnu_cxx12_Lock_policyE2EE10_M_destroyEv = comdat any

$_ZNSt23_Sp_counted_ptr_inplaceIN19OpenColorIO_v2_4dev20CTFReaderECParamsEltESaIvELN9__gnu_cxx12_Lock_policyE2EE14_M_get_deleterERKSt9type_info = comdat any

$_ZSt10_ConstructIN19OpenColorIO_v2_4dev20CTFReaderECParamsEltEJRPKcRSt10shared_ptrINS0_21XmlReaderContainerEltEEjRKNSt7__cxx1112basic_stringIcSt11char_traitsIcESaIcEEEEEvPT_DpOT0_ = comdat any

$_ZNSt16allocator_traitsISaIvEE7destroyIN19OpenColorIO_v2_4dev20CTFReaderECParamsEltEEEvRS0_PT_ = comdat any

$_ZNSt23_Sp_counted_ptr_inplaceIN19OpenColorIO_v2_4dev20CTFReaderECParamsEltESaIvELN9__gnu_cxx12_Lock_policyE2EE5_Impl8_M_allocEv = comdat any

$_ZSt8_DestroyIN19OpenColorIO_v2_4dev20CTFReaderECParamsEltEEvPT_ = comdat any

$_ZN9__gnu_cxx16__aligned_bufferIN19OpenColorIO_v2_4dev20CTFReaderECParamsEltEE6_M_ptrEv = comdat any

$_ZN9__gnu_cxx16__aligned_bufferIN19OpenColorIO_v2_4dev20CTFReaderECParamsEltEE7_M_addrEv = comdat any

$_ZNSt16allocator_traitsISaISt23_Sp_counted_ptr_inplaceIN19OpenColorIO_v2_4dev20CTFReaderECParamsEltESaIvELN9__gnu_cxx12_Lock_policyE2EEEE10deallocateERS7_PS6_m = comdat any

$_ZNSt15__new_allocatorISt23_Sp_counted_ptr_inplaceIN19OpenColorIO_v2_4dev20CTFReaderECParamsEltESaIvELN9__gnu_cxx12_Lock_policyE2EEE10deallocateEPS6_m = comdat any

$_ZNSt15__new_allocatorISt23_Sp_counted_ptr_inplaceIN19OpenColorIO_v2_4dev20CTFReaderECParamsEltESaIvELN9__gnu_cxx12_Lock_policyE2EEED2Ev = comdat any

$_ZNSt12__shared_ptrIN19OpenColorIO_v2_4dev16XmlReaderElementELN9__gnu_cxx12_Lock_policyE2EEC2INS0_20CTFReaderECParamsEltEvEEOS_IT_LS3_2EE = comdat any

$_ZNSt12__shared_ptrIN19OpenColorIO_v2_4dev20CTFReaderECParamsEltELN9__gnu_cxx12_Lock_policyE2EED2Ev = comdat any

$_ZNSt12__shared_ptrIN19OpenColorIO_v2_4dev21XmlReaderContainerEltELN9__gnu_cxx12_Lock_policyE2EEC2ERKS4_ = comdat any

$_ZNSt12__shared_ptrIN19OpenColorIO_v2_4dev16XmlReaderElementELN9__gnu_cxx12_Lock_policyE2EEC2INS0_23CTFReaderGammaParamsEltEvEEOS_IT_LS3_2EE = comdat any

$_ZNSt12__shared_ptrIN19OpenColorIO_v2_4dev23CTFReaderGammaParamsEltELN9__gnu_cxx12_Lock_policyE2EED2Ev = comdat any

$_ZNSt12__shared_ptrIN19OpenColorIO_v2_4dev21XmlReaderContainerEltELN9__gnu_cxx12_Lock_policyE2EED2Ev = comdat any

$_ZNSt10shared_ptrIN19OpenColorIO_v2_4dev14CTFIndexMapMgtEEC2INS0_21XmlReaderContainerEltEEERKS_IT_EPS1_ = comdat any

$_ZNSt10shared_ptrIN19OpenColorIO_v2_4dev14CTFIndexMapMgtEEC2Ev = comdat any

$_ZNSt12__shared_ptrIN19OpenColorIO_v2_4dev14CTFIndexMapMgtELN9__gnu_cxx12_Lock_policyE2EEC2INS0_21XmlReaderContainerEltEEERKS_IT_LS3_2EEPS1_ = comdat any

$_ZNSt12__shared_ptrIN19OpenColorIO_v2_4dev14CTFIndexMapMgtELN9__gnu_cxx12_Lock_policyE2EEC2Ev = comdat any

$_ZNKSt19__shared_ptr_accessIN19OpenColorIO_v2_4dev14CTFIndexMapMgtELN9__gnu_cxx12_Lock_policyE2ELb0ELb0EE6_M_getEv = comdat any

$_ZNKSt12__shared_ptrIN19OpenColorIO_v2_4dev14CTFIndexMapMgtELN9__gnu_cxx12_Lock_policyE2EE3getEv = comdat any

$_ZNSt10shared_ptrIN19OpenColorIO_v2_4dev17XmlReaderDummyEltEEC2ISaIvEJRPKcS_INS0_16XmlReaderElementEEjRKNSt7__cxx1112basic_stringIcSt11char_traitsIcESaIcEEERA37_S5_EEESt20_Sp_alloc_shared_tagIT_EDpOT0_ = comdat any

$_ZNSt12__shared_ptrIN19OpenColorIO_v2_4dev17XmlReaderDummyEltELN9__gnu_cxx12_Lock_policyE2EEC2ISaIvEJRPKcSt10shared_ptrINS0_16XmlReaderElementEEjRKNSt7__cxx1112basic_stringIcSt11char_traitsIcESaIcEEERA37_S7_EEESt20_Sp_alloc_shared_tagIT_EDpOT0_ = comdat any

$_ZNSt14__shared_countILN9__gnu_cxx12_Lock_policyE2EEC2IN19OpenColorIO_v2_4dev17XmlReaderDummyEltESaIvEJRPKcSt10shared_ptrINS4_16XmlReaderElementEEjRKNSt7__cxx1112basic_stringIcSt11char_traitsIcESaIcEEERA37_S7_EEERPT_St20_Sp_alloc_shared_tagIT0_EDpOT1_ = comdat any

$_ZNSt23_Sp_counted_ptr_inplaceIN19OpenColorIO_v2_4dev17XmlReaderDummyEltESaIvELN9__gnu_cxx12_Lock_policyE2EEC2IJRPKcSt10shared_ptrINS0_16XmlReaderElementEEjRKNSt7__cxx1112basic_stringIcSt11char_traitsIcESaIcEEERA37_S7_EEES2_DpOT_ = comdat any

$_ZNSt16allocator_traitsISaIvEE9constructIN19OpenColorIO_v2_4dev17XmlReaderDummyEltEJRPKcSt10shared_ptrINS3_16XmlReaderElementEEjRKNSt7__cxx1112basic_stringIcSt11char_traitsIcESaIcEEERA37_S5_EEEvRS0_PT_DpOT0_ = comdat any

$_ZSt10_ConstructIN19OpenColorIO_v2_4dev17XmlReaderDummyEltEJRPKcSt10shared_ptrINS0_16XmlReaderElementEEjRKNSt7__cxx1112basic_stringIcSt11char_traitsIcESaIcEEERA37_S2_EEvPT_DpOT0_ = comdat any

$_ZNSt10shared_ptrIN19OpenColorIO_v2_4dev20CTFReaderIndexMapEltEEC2ISaIvEJRPKcRS_INS0_21XmlReaderContainerEltEEjRKNSt7__cxx1112basic_stringIcSt11char_traitsIcESaIcEEEEEESt20_Sp_alloc_shared_tagIT_EDpOT0_ = comdat any

$_ZNSt12__shared_ptrIN19OpenColorIO_v2_4dev20CTFReaderIndexMapEltELN9__gnu_cxx12_Lock_policyE2EEC2ISaIvEJRPKcRSt10shared_ptrINS0_21XmlReaderContainerEltEEjRKNSt7__cxx1112basic_stringIcSt11char_traitsIcESaIcEEEEEESt20_Sp_alloc_shared_tagIT_EDpOT0_ = comdat any

$_ZNSt14__shared_countILN9__gnu_cxx12_Lock_policyE2EEC2IN19OpenColorIO_v2_4dev20CTFReaderIndexMapEltESaIvEJRPKcRSt10shared_ptrINS4_21XmlReaderContainerEltEEjRKNSt7__cxx1112basic_stringIcSt11char_traitsIcESaIcEEEEEERPT_St20_Sp_alloc_shared_tagIT0_EDpOT1_ = comdat any

$_ZNSt12__shared_ptrIN19OpenColorIO_v2_4dev20CTFReaderIndexMapEltELN9__gnu_cxx12_Lock_policyE2EE31_M_enable_shared_from_this_withIS1_S1_EENSt9enable_ifIXntsr15__has_esft_baseIT0_EE5valueEvE4typeEPT_ = comdat any

$_ZNSaISt23_Sp_counted_ptr_inplaceIN19OpenColorIO_v2_4dev20CTFReaderIndexMapEltESaIvELN9__gnu_cxx12_Lock_policyE2EEEC2IvEERKSaIT_E = comdat any

$_ZSt18__allocate_guardedISaISt23_Sp_counted_ptr_inplaceIN19OpenColorIO_v2_4dev20CTFReaderIndexMapEltESaIvELN9__gnu_cxx12_Lock_policyE2EEEESt15__allocated_ptrIT_ERS9_ = comdat any

$_ZNSt15__allocated_ptrISaISt23_Sp_counted_ptr_inplaceIN19OpenColorIO_v2_4dev20CTFReaderIndexMapEltESaIvELN9__gnu_cxx12_Lock_policyE2EEEE3getEv = comdat any

$_ZNSt23_Sp_counted_ptr_inplaceIN19OpenColorIO_v2_4dev20CTFReaderIndexMapEltESaIvELN9__gnu_cxx12_Lock_policyE2EEC2IJRPKcRSt10shared_ptrINS0_21XmlReaderContainerEltEEjRKNSt7__cxx1112basic_stringIcSt11char_traitsIcESaIcEEEEEES2_DpOT_ = comdat any

$_ZNSt15__allocated_ptrISaISt23_Sp_counted_ptr_inplaceIN19OpenColorIO_v2_4dev20CTFReaderIndexMapEltESaIvELN9__gnu_cxx12_Lock_policyE2EEEEaSEDn = comdat any

$_ZNSt23_Sp_counted_ptr_inplaceIN19OpenColorIO_v2_4dev20CTFReaderIndexMapEltESaIvELN9__gnu_cxx12_Lock_policyE2EE6_M_ptrEv = comdat any

$_ZNSt15__allocated_ptrISaISt23_Sp_counted_ptr_inplaceIN19OpenColorIO_v2_4dev20CTFReaderIndexMapEltESaIvELN9__gnu_cxx12_Lock_policyE2EEEED2Ev = comdat any

$_ZNSaISt23_Sp_counted_ptr_inplaceIN19OpenColorIO_v2_4dev20CTFReaderIndexMapEltESaIvELN9__gnu_cxx12_Lock_policyE2EEED2Ev = comdat any

$_ZNSt15__new_allocatorISt23_Sp_counted_ptr_inplaceIN19OpenColorIO_v2_4dev20CTFReaderIndexMapEltESaIvELN9__gnu_cxx12_Lock_policyE2EEEC2Ev = comdat any

$_ZNSt16allocator_traitsISaISt23_Sp_counted_ptr_inplaceIN19OpenColorIO_v2_4dev20CTFReaderIndexMapEltESaIvELN9__gnu_cxx12_Lock_policyE2EEEE8allocateERS7_m = comdat any

$_ZNSt15__allocated_ptrISaISt23_Sp_counted_ptr_inplaceIN19OpenColorIO_v2_4dev20CTFReaderIndexMapEltESaIvELN9__gnu_cxx12_Lock_policyE2EEEEC2ERS7_PS6_ = comdat any

$_ZNSt15__new_allocatorISt23_Sp_counted_ptr_inplaceIN19OpenColorIO_v2_4dev20CTFReaderIndexMapEltESaIvELN9__gnu_cxx12_Lock_policyE2EEE8allocateEmPKv = comdat any

$_ZNKSt15__new_allocatorISt23_Sp_counted_ptr_inplaceIN19OpenColorIO_v2_4dev20CTFReaderIndexMapEltESaIvELN9__gnu_cxx12_Lock_policyE2EEE11_M_max_sizeEv = comdat any

$_ZSt12__to_addressISt23_Sp_counted_ptr_inplaceIN19OpenColorIO_v2_4dev20CTFReaderIndexMapEltESaIvELN9__gnu_cxx12_Lock_policyE2EEEPT_S8_ = comdat any

$_ZNSt23_Sp_counted_ptr_inplaceIN19OpenColorIO_v2_4dev20CTFReaderIndexMapEltESaIvELN9__gnu_cxx12_Lock_policyE2EE5_ImplC2ES2_ = comdat any

$_ZNSt16allocator_traitsISaIvEE9constructIN19OpenColorIO_v2_4dev20CTFReaderIndexMapEltEJRPKcRSt10shared_ptrINS3_21XmlReaderContainerEltEEjRKNSt7__cxx1112basic_stringIcSt11char_traitsIcESaIcEEEEEEvRS0_PT_DpOT0_ = comdat any

$_ZNSt23_Sp_counted_ptr_inplaceIN19OpenColorIO_v2_4dev20CTFReaderIndexMapEltESaIvELN9__gnu_cxx12_Lock_policyE2EED2Ev = comdat any

$_ZNSt23_Sp_counted_ptr_inplaceIN19OpenColorIO_v2_4dev20CTFReaderIndexMapEltESaIvELN9__gnu_cxx12_Lock_policyE2EED0Ev = comdat any

$_ZNSt23_Sp_counted_ptr_inplaceIN19OpenColorIO_v2_4dev20CTFReaderIndexMapEltESaIvELN9__gnu_cxx12_Lock_policyE2EE10_M_disposeEv = comdat any

$_ZNSt23_Sp_counted_ptr_inplaceIN19OpenColorIO_v2_4dev20CTFReaderIndexMapEltESaIvELN9__gnu_cxx12_Lock_policyE2EE10_M_destroyEv = comdat any

$_ZNSt23_Sp_counted_ptr_inplaceIN19OpenColorIO_v2_4dev20CTFReaderIndexMapEltESaIvELN9__gnu_cxx12_Lock_policyE2EE14_M_get_deleterERKSt9type_info = comdat any

$_ZSt10_ConstructIN19OpenColorIO_v2_4dev20CTFReaderIndexMapEltEJRPKcRSt10shared_ptrINS0_21XmlReaderContainerEltEEjRKNSt7__cxx1112basic_stringIcSt11char_traitsIcESaIcEEEEEvPT_DpOT0_ = comdat any

$_ZNSt16allocator_traitsISaIvEE7destroyIN19OpenColorIO_v2_4dev20CTFReaderIndexMapEltEEEvRS0_PT_ = comdat any

$_ZNSt23_Sp_counted_ptr_inplaceIN19OpenColorIO_v2_4dev20CTFReaderIndexMapEltESaIvELN9__gnu_cxx12_Lock_policyE2EE5_Impl8_M_allocEv = comdat any

$_ZSt8_DestroyIN19OpenColorIO_v2_4dev20CTFReaderIndexMapEltEEvPT_ = comdat any

$_ZN9__gnu_cxx16__aligned_bufferIN19OpenColorIO_v2_4dev20CTFReaderIndexMapEltEE6_M_ptrEv = comdat any

$_ZN9__gnu_cxx16__aligned_bufferIN19OpenColorIO_v2_4dev20CTFReaderIndexMapEltEE7_M_addrEv = comdat any

$_ZNSt16allocator_traitsISaISt23_Sp_counted_ptr_inplaceIN19OpenColorIO_v2_4dev20CTFReaderIndexMapEltESaIvELN9__gnu_cxx12_Lock_policyE2EEEE10deallocateERS7_PS6_m = comdat any

$_ZNSt15__new_allocatorISt23_Sp_counted_ptr_inplaceIN19OpenColorIO_v2_4dev20CTFReaderIndexMapEltESaIvELN9__gnu_cxx12_Lock_policyE2EEE10deallocateEPS6_m = comdat any

$_ZNSt15__new_allocatorISt23_Sp_counted_ptr_inplaceIN19OpenColorIO_v2_4dev20CTFReaderIndexMapEltESaIvELN9__gnu_cxx12_Lock_policyE2EEED2Ev = comdat any

$_ZNSt12__shared_ptrIN19OpenColorIO_v2_4dev16XmlReaderElementELN9__gnu_cxx12_Lock_policyE2EEC2INS0_20CTFReaderIndexMapEltEvEEOS_IT_LS3_2EE = comdat any

$_ZNSt12__shared_ptrIN19OpenColorIO_v2_4dev20CTFReaderIndexMapEltELN9__gnu_cxx12_Lock_policyE2EED2Ev = comdat any

$_ZNSt12__shared_ptrIN19OpenColorIO_v2_4dev14CTFIndexMapMgtELN9__gnu_cxx12_Lock_policyE2EED2Ev = comdat any

$_ZNSt10shared_ptrIN19OpenColorIO_v2_4dev16CTFReaderInfoEltEEC2ISaIvEJRPKcRS_INS0_21XmlReaderContainerEltEEjRKNSt7__cxx1112basic_stringIcSt11char_traitsIcESaIcEEEEEESt20_Sp_alloc_shared_tagIT_EDpOT0_ = comdat any

$_ZNSt12__shared_ptrIN19OpenColorIO_v2_4dev16CTFReaderInfoEltELN9__gnu_cxx12_Lock_policyE2EEC2ISaIvEJRPKcRSt10shared_ptrINS0_21XmlReaderContainerEltEEjRKNSt7__cxx1112basic_stringIcSt11char_traitsIcESaIcEEEEEESt20_Sp_alloc_shared_tagIT_EDpOT0_ = comdat any

$_ZNSt14__shared_countILN9__gnu_cxx12_Lock_policyE2EEC2IN19OpenColorIO_v2_4dev16CTFReaderInfoEltESaIvEJRPKcRSt10shared_ptrINS4_21XmlReaderContainerEltEEjRKNSt7__cxx1112basic_stringIcSt11char_traitsIcESaIcEEEEEERPT_St20_Sp_alloc_shared_tagIT0_EDpOT1_ = comdat any

$_ZNSt12__shared_ptrIN19OpenColorIO_v2_4dev16CTFReaderInfoEltELN9__gnu_cxx12_Lock_policyE2EE31_M_enable_shared_from_this_withIS1_S1_EENSt9enable_ifIXntsr15__has_esft_baseIT0_EE5valueEvE4typeEPT_ = comdat any

$_ZNSaISt23_Sp_counted_ptr_inplaceIN19OpenColorIO_v2_4dev16CTFReaderInfoEltESaIvELN9__gnu_cxx12_Lock_policyE2EEEC2IvEERKSaIT_E = comdat any

$_ZSt18__allocate_guardedISaISt23_Sp_counted_ptr_inplaceIN19OpenColorIO_v2_4dev16CTFReaderInfoEltESaIvELN9__gnu_cxx12_Lock_policyE2EEEESt15__allocated_ptrIT_ERS9_ = comdat any

$_ZNSt15__allocated_ptrISaISt23_Sp_counted_ptr_inplaceIN19OpenColorIO_v2_4dev16CTFReaderInfoEltESaIvELN9__gnu_cxx12_Lock_policyE2EEEE3getEv = comdat any

$_ZNSt23_Sp_counted_ptr_inplaceIN19OpenColorIO_v2_4dev16CTFReaderInfoEltESaIvELN9__gnu_cxx12_Lock_policyE2EEC2IJRPKcRSt10shared_ptrINS0_21XmlReaderContainerEltEEjRKNSt7__cxx1112basic_stringIcSt11char_traitsIcESaIcEEEEEES2_DpOT_ = comdat any

$_ZNSt15__allocated_ptrISaISt23_Sp_counted_ptr_inplaceIN19OpenColorIO_v2_4dev16CTFReaderInfoEltESaIvELN9__gnu_cxx12_Lock_policyE2EEEEaSEDn = comdat any

$_ZNSt23_Sp_counted_ptr_inplaceIN19OpenColorIO_v2_4dev16CTFReaderInfoEltESaIvELN9__gnu_cxx12_Lock_policyE2EE6_M_ptrEv = comdat any

$_ZNSt15__allocated_ptrISaISt23_Sp_counted_ptr_inplaceIN19OpenColorIO_v2_4dev16CTFReaderInfoEltESaIvELN9__gnu_cxx12_Lock_policyE2EEEED2Ev = comdat any

$_ZNSaISt23_Sp_counted_ptr_inplaceIN19OpenColorIO_v2_4dev16CTFReaderInfoEltESaIvELN9__gnu_cxx12_Lock_policyE2EEED2Ev = comdat any

$_ZNSt15__new_allocatorISt23_Sp_counted_ptr_inplaceIN19OpenColorIO_v2_4dev16CTFReaderInfoEltESaIvELN9__gnu_cxx12_Lock_policyE2EEEC2Ev = comdat any

$_ZNSt16allocator_traitsISaISt23_Sp_counted_ptr_inplaceIN19OpenColorIO_v2_4dev16CTFReaderInfoEltESaIvELN9__gnu_cxx12_Lock_policyE2EEEE8allocateERS7_m = comdat any

$_ZNSt15__allocated_ptrISaISt23_Sp_counted_ptr_inplaceIN19OpenColorIO_v2_4dev16CTFReaderInfoEltESaIvELN9__gnu_cxx12_Lock_policyE2EEEEC2ERS7_PS6_ = comdat any

$_ZNSt15__new_allocatorISt23_Sp_counted_ptr_inplaceIN19OpenColorIO_v2_4dev16CTFReaderInfoEltESaIvELN9__gnu_cxx12_Lock_policyE2EEE8allocateEmPKv = comdat any

$_ZNKSt15__new_allocatorISt23_Sp_counted_ptr_inplaceIN19OpenColorIO_v2_4dev16CTFReaderInfoEltESaIvELN9__gnu_cxx12_Lock_policyE2EEE11_M_max_sizeEv = comdat any

$_ZSt12__to_addressISt23_Sp_counted_ptr_inplaceIN19OpenColorIO_v2_4dev16CTFReaderInfoEltESaIvELN9__gnu_cxx12_Lock_policyE2EEEPT_S8_ = comdat any

$_ZNSt23_Sp_counted_ptr_inplaceIN19OpenColorIO_v2_4dev16CTFReaderInfoEltESaIvELN9__gnu_cxx12_Lock_policyE2EE5_ImplC2ES2_ = comdat any

$_ZNSt16allocator_traitsISaIvEE9constructIN19OpenColorIO_v2_4dev16CTFReaderInfoEltEJRPKcRSt10shared_ptrINS3_21XmlReaderContainerEltEEjRKNSt7__cxx1112basic_stringIcSt11char_traitsIcESaIcEEEEEEvRS0_PT_DpOT0_ = comdat any

$_ZNSt23_Sp_counted_ptr_inplaceIN19OpenColorIO_v2_4dev16CTFReaderInfoEltESaIvELN9__gnu_cxx12_Lock_policyE2EED2Ev = comdat any

$_ZNSt23_Sp_counted_ptr_inplaceIN19OpenColorIO_v2_4dev16CTFReaderInfoEltESaIvELN9__gnu_cxx12_Lock_policyE2EED0Ev = comdat any

$_ZNSt23_Sp_counted_ptr_inplaceIN19OpenColorIO_v2_4dev16CTFReaderInfoEltESaIvELN9__gnu_cxx12_Lock_policyE2EE10_M_disposeEv = comdat any

$_ZNSt23_Sp_counted_ptr_inplaceIN19OpenColorIO_v2_4dev16CTFReaderInfoEltESaIvELN9__gnu_cxx12_Lock_policyE2EE10_M_destroyEv = comdat any

$_ZNSt23_Sp_counted_ptr_inplaceIN19OpenColorIO_v2_4dev16CTFReaderInfoEltESaIvELN9__gnu_cxx12_Lock_policyE2EE14_M_get_deleterERKSt9type_info = comdat any

$_ZSt10_ConstructIN19OpenColorIO_v2_4dev16CTFReaderInfoEltEJRPKcRSt10shared_ptrINS0_21XmlReaderContainerEltEEjRKNSt7__cxx1112basic_stringIcSt11char_traitsIcESaIcEEEEEvPT_DpOT0_ = comdat any

$_ZNSt16allocator_traitsISaIvEE7destroyIN19OpenColorIO_v2_4dev16CTFReaderInfoEltEEEvRS0_PT_ = comdat any

$_ZNSt23_Sp_counted_ptr_inplaceIN19OpenColorIO_v2_4dev16CTFReaderInfoEltESaIvELN9__gnu_cxx12_Lock_policyE2EE5_Impl8_M_allocEv = comdat any

$_ZSt8_DestroyIN19OpenColorIO_v2_4dev16CTFReaderInfoEltEEvPT_ = comdat any

$_ZN9__gnu_cxx16__aligned_bufferIN19OpenColorIO_v2_4dev16CTFReaderInfoEltEE6_M_ptrEv = comdat any

$_ZN9__gnu_cxx16__aligned_bufferIN19OpenColorIO_v2_4dev16CTFReaderInfoEltEE7_M_addrEv = comdat any

$_ZNSt16allocator_traitsISaISt23_Sp_counted_ptr_inplaceIN19OpenColorIO_v2_4dev16CTFReaderInfoEltESaIvELN9__gnu_cxx12_Lock_policyE2EEEE10deallocateERS7_PS6_m = comdat any

$_ZNSt15__new_allocatorISt23_Sp_counted_ptr_inplaceIN19OpenColorIO_v2_4dev16CTFReaderInfoEltESaIvELN9__gnu_cxx12_Lock_policyE2EEE10deallocateEPS6_m = comdat any

$_ZNSt15__new_allocatorISt23_Sp_counted_ptr_inplaceIN19OpenColorIO_v2_4dev16CTFReaderInfoEltESaIvELN9__gnu_cxx12_Lock_policyE2EEED2Ev = comdat any

$_ZNSt12__shared_ptrIN19OpenColorIO_v2_4dev16XmlReaderElementELN9__gnu_cxx12_Lock_policyE2EEC2INS0_16CTFReaderInfoEltEvEEOS_IT_LS3_2EE = comdat any

$_ZNSt12__shared_ptrIN19OpenColorIO_v2_4dev16CTFReaderInfoEltELN9__gnu_cxx12_Lock_policyE2EED2Ev = comdat any

$_ZNSt10shared_ptrIN19OpenColorIO_v2_4dev27CTFReaderInputDescriptorEltEEC2ISaIvEJRPKcRS_INS0_21XmlReaderContainerEltEEjRKNSt7__cxx1112basic_stringIcSt11char_traitsIcESaIcEEEEEESt20_Sp_alloc_shared_tagIT_EDpOT0_ = comdat any

$_ZNSt12__shared_ptrIN19OpenColorIO_v2_4dev27CTFReaderInputDescriptorEltELN9__gnu_cxx12_Lock_policyE2EEC2ISaIvEJRPKcRSt10shared_ptrINS0_21XmlReaderContainerEltEEjRKNSt7__cxx1112basic_stringIcSt11char_traitsIcESaIcEEEEEESt20_Sp_alloc_shared_tagIT_EDpOT0_ = comdat any

$_ZNSt14__shared_countILN9__gnu_cxx12_Lock_policyE2EEC2IN19OpenColorIO_v2_4dev27CTFReaderInputDescriptorEltESaIvEJRPKcRSt10shared_ptrINS4_21XmlReaderContainerEltEEjRKNSt7__cxx1112basic_stringIcSt11char_traitsIcESaIcEEEEEERPT_St20_Sp_alloc_shared_tagIT0_EDpOT1_ = comdat any

$_ZNSt12__shared_ptrIN19OpenColorIO_v2_4dev27CTFReaderInputDescriptorEltELN9__gnu_cxx12_Lock_policyE2EE31_M_enable_shared_from_this_withIS1_S1_EENSt9enable_ifIXntsr15__has_esft_baseIT0_EE5valueEvE4typeEPT_ = comdat any

$_ZNSaISt23_Sp_counted_ptr_inplaceIN19OpenColorIO_v2_4dev27CTFReaderInputDescriptorEltESaIvELN9__gnu_cxx12_Lock_policyE2EEEC2IvEERKSaIT_E = comdat any

$_ZSt18__allocate_guardedISaISt23_Sp_counted_ptr_inplaceIN19OpenColorIO_v2_4dev27CTFReaderInputDescriptorEltESaIvELN9__gnu_cxx12_Lock_policyE2EEEESt15__allocated_ptrIT_ERS9_ = comdat any

$_ZNSt15__allocated_ptrISaISt23_Sp_counted_ptr_inplaceIN19OpenColorIO_v2_4dev27CTFReaderInputDescriptorEltESaIvELN9__gnu_cxx12_Lock_policyE2EEEE3getEv = comdat any

$_ZNSt23_Sp_counted_ptr_inplaceIN19OpenColorIO_v2_4dev27CTFReaderInputDescriptorEltESaIvELN9__gnu_cxx12_Lock_policyE2EEC2IJRPKcRSt10shared_ptrINS0_21XmlReaderContainerEltEEjRKNSt7__cxx1112basic_stringIcSt11char_traitsIcESaIcEEEEEES2_DpOT_ = comdat any

$_ZNSt15__allocated_ptrISaISt23_Sp_counted_ptr_inplaceIN19OpenColorIO_v2_4dev27CTFReaderInputDescriptorEltESaIvELN9__gnu_cxx12_Lock_policyE2EEEEaSEDn = comdat any

$_ZNSt23_Sp_counted_ptr_inplaceIN19OpenColorIO_v2_4dev27CTFReaderInputDescriptorEltESaIvELN9__gnu_cxx12_Lock_policyE2EE6_M_ptrEv = comdat any

$_ZNSt15__allocated_ptrISaISt23_Sp_counted_ptr_inplaceIN19OpenColorIO_v2_4dev27CTFReaderInputDescriptorEltESaIvELN9__gnu_cxx12_Lock_policyE2EEEED2Ev = comdat any

$_ZNSaISt23_Sp_counted_ptr_inplaceIN19OpenColorIO_v2_4dev27CTFReaderInputDescriptorEltESaIvELN9__gnu_cxx12_Lock_policyE2EEED2Ev = comdat any

$_ZNSt15__new_allocatorISt23_Sp_counted_ptr_inplaceIN19OpenColorIO_v2_4dev27CTFReaderInputDescriptorEltESaIvELN9__gnu_cxx12_Lock_policyE2EEEC2Ev = comdat any

$_ZNSt16allocator_traitsISaISt23_Sp_counted_ptr_inplaceIN19OpenColorIO_v2_4dev27CTFReaderInputDescriptorEltESaIvELN9__gnu_cxx12_Lock_policyE2EEEE8allocateERS7_m = comdat any

$_ZNSt15__allocated_ptrISaISt23_Sp_counted_ptr_inplaceIN19OpenColorIO_v2_4dev27CTFReaderInputDescriptorEltESaIvELN9__gnu_cxx12_Lock_policyE2EEEEC2ERS7_PS6_ = comdat any

$_ZNSt15__new_allocatorISt23_Sp_counted_ptr_inplaceIN19OpenColorIO_v2_4dev27CTFReaderInputDescriptorEltESaIvELN9__gnu_cxx12_Lock_policyE2EEE8allocateEmPKv = comdat any

$_ZNKSt15__new_allocatorISt23_Sp_counted_ptr_inplaceIN19OpenColorIO_v2_4dev27CTFReaderInputDescriptorEltESaIvELN9__gnu_cxx12_Lock_policyE2EEE11_M_max_sizeEv = comdat any

$_ZSt12__to_addressISt23_Sp_counted_ptr_inplaceIN19OpenColorIO_v2_4dev27CTFReaderInputDescriptorEltESaIvELN9__gnu_cxx12_Lock_policyE2EEEPT_S8_ = comdat any

$_ZNSt23_Sp_counted_ptr_inplaceIN19OpenColorIO_v2_4dev27CTFReaderInputDescriptorEltESaIvELN9__gnu_cxx12_Lock_policyE2EE5_ImplC2ES2_ = comdat any

$_ZNSt16allocator_traitsISaIvEE9constructIN19OpenColorIO_v2_4dev27CTFReaderInputDescriptorEltEJRPKcRSt10shared_ptrINS3_21XmlReaderContainerEltEEjRKNSt7__cxx1112basic_stringIcSt11char_traitsIcESaIcEEEEEEvRS0_PT_DpOT0_ = comdat any

$_ZNSt23_Sp_counted_ptr_inplaceIN19OpenColorIO_v2_4dev27CTFReaderInputDescriptorEltESaIvELN9__gnu_cxx12_Lock_policyE2EED2Ev = comdat any

$_ZNSt23_Sp_counted_ptr_inplaceIN19OpenColorIO_v2_4dev27CTFReaderInputDescriptorEltESaIvELN9__gnu_cxx12_Lock_policyE2EED0Ev = comdat any

$_ZNSt23_Sp_counted_ptr_inplaceIN19OpenColorIO_v2_4dev27CTFReaderInputDescriptorEltESaIvELN9__gnu_cxx12_Lock_policyE2EE10_M_disposeEv = comdat any

$_ZNSt23_Sp_counted_ptr_inplaceIN19OpenColorIO_v2_4dev27CTFReaderInputDescriptorEltESaIvELN9__gnu_cxx12_Lock_policyE2EE10_M_destroyEv = comdat any

$_ZNSt23_Sp_counted_ptr_inplaceIN19OpenColorIO_v2_4dev27CTFReaderInputDescriptorEltESaIvELN9__gnu_cxx12_Lock_policyE2EE14_M_get_deleterERKSt9type_info = comdat any

$_ZSt10_ConstructIN19OpenColorIO_v2_4dev27CTFReaderInputDescriptorEltEJRPKcRSt10shared_ptrINS0_21XmlReaderContainerEltEEjRKNSt7__cxx1112basic_stringIcSt11char_traitsIcESaIcEEEEEvPT_DpOT0_ = comdat any

$_ZN19OpenColorIO_v2_4dev27CTFReaderInputDescriptorEltC2ERKNSt7__cxx1112basic_stringIcSt11char_traitsIcESaIcEEESt10shared_ptrINS_21XmlReaderContainerEltEEjS8_ = comdat any

$_ZN19OpenColorIO_v2_4dev27CTFReaderInputDescriptorEltD2Ev = comdat any

$_ZN19OpenColorIO_v2_4dev27CTFReaderInputDescriptorEltD0Ev = comdat any

$_ZN19OpenColorIO_v2_4dev27CTFReaderInputDescriptorElt5startEPPKc = comdat any

$_ZN19OpenColorIO_v2_4dev27CTFReaderInputDescriptorElt3endEv = comdat any

$_ZN19OpenColorIO_v2_4dev27CTFReaderInputDescriptorElt10setRawDataEPKcmj = comdat any

$_ZNK19OpenColorIO_v2_4dev17XmlReaderPlainElt9getParentEv = comdat any

$_ZNKSt19__shared_ptr_accessIN19OpenColorIO_v2_4dev18CTFReaderTransformELN9__gnu_cxx12_Lock_policyE2ELb0ELb0EEptEv = comdat any

$_ZNK19OpenColorIO_v2_4dev18CTFReaderTransform18getInputDescriptorB5cxx11Ev = comdat any

$_ZN19OpenColorIO_v2_4dev18CTFReaderTransform18setInputDescriptorERKNSt7__cxx1112basic_stringIcSt11char_traitsIcESaIcEEE = comdat any

$_ZNKSt19__shared_ptr_accessIN19OpenColorIO_v2_4dev18CTFReaderTransformELN9__gnu_cxx12_Lock_policyE2ELb0ELb0EE6_M_getEv = comdat any

$_ZNSt16allocator_traitsISaIvEE7destroyIN19OpenColorIO_v2_4dev27CTFReaderInputDescriptorEltEEEvRS0_PT_ = comdat any

$_ZNSt23_Sp_counted_ptr_inplaceIN19OpenColorIO_v2_4dev27CTFReaderInputDescriptorEltESaIvELN9__gnu_cxx12_Lock_policyE2EE5_Impl8_M_allocEv = comdat any

$_ZSt8_DestroyIN19OpenColorIO_v2_4dev27CTFReaderInputDescriptorEltEEvPT_ = comdat any

$_ZN9__gnu_cxx16__aligned_bufferIN19OpenColorIO_v2_4dev27CTFReaderInputDescriptorEltEE6_M_ptrEv = comdat any

$_ZN9__gnu_cxx16__aligned_bufferIN19OpenColorIO_v2_4dev27CTFReaderInputDescriptorEltEE7_M_addrEv = comdat any

$_ZNSt16allocator_traitsISaISt23_Sp_counted_ptr_inplaceIN19OpenColorIO_v2_4dev27CTFReaderInputDescriptorEltESaIvELN9__gnu_cxx12_Lock_policyE2EEEE10deallocateERS7_PS6_m = comdat any

$_ZNSt15__new_allocatorISt23_Sp_counted_ptr_inplaceIN19OpenColorIO_v2_4dev27CTFReaderInputDescriptorEltESaIvELN9__gnu_cxx12_Lock_policyE2EEE10deallocateEPS6_m = comdat any

$_ZNSt15__new_allocatorISt23_Sp_counted_ptr_inplaceIN19OpenColorIO_v2_4dev27CTFReaderInputDescriptorEltESaIvELN9__gnu_cxx12_Lock_policyE2EEED2Ev = comdat any

$_ZNSt12__shared_ptrIN19OpenColorIO_v2_4dev16XmlReaderElementELN9__gnu_cxx12_Lock_policyE2EEC2INS0_27CTFReaderInputDescriptorEltEvEEOS_IT_LS3_2EE = comdat any

$_ZNSt12__shared_ptrIN19OpenColorIO_v2_4dev27CTFReaderInputDescriptorEltELN9__gnu_cxx12_Lock_policyE2EED2Ev = comdat any

$_ZNSt10shared_ptrIN19OpenColorIO_v2_4dev15CTFReaderLogEltEEC2INS0_21XmlReaderContainerEltEEERKS_IT_EPS1_ = comdat any

$_ZNSt10shared_ptrIN19OpenColorIO_v2_4dev15CTFReaderLogEltEEC2Ev = comdat any

$_ZNSt12__shared_ptrIN19OpenColorIO_v2_4dev15CTFReaderLogEltELN9__gnu_cxx12_Lock_policyE2EEC2INS0_21XmlReaderContainerEltEEERKS_IT_LS3_2EEPS1_ = comdat any

$_ZNSt12__shared_ptrIN19OpenColorIO_v2_4dev15CTFReaderLogEltELN9__gnu_cxx12_Lock_policyE2EEC2Ev = comdat any

$_ZNKSt19__shared_ptr_accessIN19OpenColorIO_v2_4dev15CTFReaderLogEltELN9__gnu_cxx12_Lock_policyE2ELb0ELb0EE6_M_getEv = comdat any

$_ZNKSt12__shared_ptrIN19OpenColorIO_v2_4dev15CTFReaderLogEltELN9__gnu_cxx12_Lock_policyE2EE3getEv = comdat any

$_ZNSt10shared_ptrIN19OpenColorIO_v2_4dev17XmlReaderDummyEltEEC2ISaIvEJRPKcS_INS0_16XmlReaderElementEEjRKNSt7__cxx1112basic_stringIcSt11char_traitsIcESaIcEEERA39_S5_EEESt20_Sp_alloc_shared_tagIT_EDpOT0_ = comdat any

$_ZNSt12__shared_ptrIN19OpenColorIO_v2_4dev17XmlReaderDummyEltELN9__gnu_cxx12_Lock_policyE2EEC2ISaIvEJRPKcSt10shared_ptrINS0_16XmlReaderElementEEjRKNSt7__cxx1112basic_stringIcSt11char_traitsIcESaIcEEERA39_S7_EEESt20_Sp_alloc_shared_tagIT_EDpOT0_ = comdat any

$_ZNSt14__shared_countILN9__gnu_cxx12_Lock_policyE2EEC2IN19OpenColorIO_v2_4dev17XmlReaderDummyEltESaIvEJRPKcSt10shared_ptrINS4_16XmlReaderElementEEjRKNSt7__cxx1112basic_stringIcSt11char_traitsIcESaIcEEERA39_S7_EEERPT_St20_Sp_alloc_shared_tagIT0_EDpOT1_ = comdat any

$_ZNSt23_Sp_counted_ptr_inplaceIN19OpenColorIO_v2_4dev17XmlReaderDummyEltESaIvELN9__gnu_cxx12_Lock_policyE2EEC2IJRPKcSt10shared_ptrINS0_16XmlReaderElementEEjRKNSt7__cxx1112basic_stringIcSt11char_traitsIcESaIcEEERA39_S7_EEES2_DpOT_ = comdat any

$_ZNSt16allocator_traitsISaIvEE9constructIN19OpenColorIO_v2_4dev17XmlReaderDummyEltEJRPKcSt10shared_ptrINS3_16XmlReaderElementEEjRKNSt7__cxx1112basic_stringIcSt11char_traitsIcESaIcEEERA39_S5_EEEvRS0_PT_DpOT0_ = comdat any

$_ZSt10_ConstructIN19OpenColorIO_v2_4dev17XmlReaderDummyEltEJRPKcSt10shared_ptrINS0_16XmlReaderElementEEjRKNSt7__cxx1112basic_stringIcSt11char_traitsIcESaIcEEERA39_S2_EEvPT_DpOT0_ = comdat any

$_ZNSt12__shared_ptrIN19OpenColorIO_v2_4dev16XmlReaderElementELN9__gnu_cxx12_Lock_policyE2EEC2INS0_21CTFReaderLogParamsEltEvEEOS_IT_LS3_2EE = comdat any

$_ZNSt12__shared_ptrIN19OpenColorIO_v2_4dev21CTFReaderLogParamsEltELN9__gnu_cxx12_Lock_policyE2EED2Ev = comdat any

$_ZNSt12__shared_ptrIN19OpenColorIO_v2_4dev15CTFReaderLogEltELN9__gnu_cxx12_Lock_policyE2EED2Ev = comdat any

$_ZNSt10shared_ptrIN19OpenColorIO_v2_4dev28CTFReaderOutputDescriptorEltEEC2ISaIvEJRPKcRS_INS0_21XmlReaderContainerEltEEjRKNSt7__cxx1112basic_stringIcSt11char_traitsIcESaIcEEEEEESt20_Sp_alloc_shared_tagIT_EDpOT0_ = comdat any

$_ZNSt12__shared_ptrIN19OpenColorIO_v2_4dev28CTFReaderOutputDescriptorEltELN9__gnu_cxx12_Lock_policyE2EEC2ISaIvEJRPKcRSt10shared_ptrINS0_21XmlReaderContainerEltEEjRKNSt7__cxx1112basic_stringIcSt11char_traitsIcESaIcEEEEEESt20_Sp_alloc_shared_tagIT_EDpOT0_ = comdat any

$_ZNSt14__shared_countILN9__gnu_cxx12_Lock_policyE2EEC2IN19OpenColorIO_v2_4dev28CTFReaderOutputDescriptorEltESaIvEJRPKcRSt10shared_ptrINS4_21XmlReaderContainerEltEEjRKNSt7__cxx1112basic_stringIcSt11char_traitsIcESaIcEEEEEERPT_St20_Sp_alloc_shared_tagIT0_EDpOT1_ = comdat any

$_ZNSt12__shared_ptrIN19OpenColorIO_v2_4dev28CTFReaderOutputDescriptorEltELN9__gnu_cxx12_Lock_policyE2EE31_M_enable_shared_from_this_withIS1_S1_EENSt9enable_ifIXntsr15__has_esft_baseIT0_EE5valueEvE4typeEPT_ = comdat any

$_ZNSaISt23_Sp_counted_ptr_inplaceIN19OpenColorIO_v2_4dev28CTFReaderOutputDescriptorEltESaIvELN9__gnu_cxx12_Lock_policyE2EEEC2IvEERKSaIT_E = comdat any

$_ZSt18__allocate_guardedISaISt23_Sp_counted_ptr_inplaceIN19OpenColorIO_v2_4dev28CTFReaderOutputDescriptorEltESaIvELN9__gnu_cxx12_Lock_policyE2EEEESt15__allocated_ptrIT_ERS9_ = comdat any

$_ZNSt15__allocated_ptrISaISt23_Sp_counted_ptr_inplaceIN19OpenColorIO_v2_4dev28CTFReaderOutputDescriptorEltESaIvELN9__gnu_cxx12_Lock_policyE2EEEE3getEv = comdat any

$_ZNSt23_Sp_counted_ptr_inplaceIN19OpenColorIO_v2_4dev28CTFReaderOutputDescriptorEltESaIvELN9__gnu_cxx12_Lock_policyE2EEC2IJRPKcRSt10shared_ptrINS0_21XmlReaderContainerEltEEjRKNSt7__cxx1112basic_stringIcSt11char_traitsIcESaIcEEEEEES2_DpOT_ = comdat any

$_ZNSt15__allocated_ptrISaISt23_Sp_counted_ptr_inplaceIN19OpenColorIO_v2_4dev28CTFReaderOutputDescriptorEltESaIvELN9__gnu_cxx12_Lock_policyE2EEEEaSEDn = comdat any

$_ZNSt23_Sp_counted_ptr_inplaceIN19OpenColorIO_v2_4dev28CTFReaderOutputDescriptorEltESaIvELN9__gnu_cxx12_Lock_policyE2EE6_M_ptrEv = comdat any

$_ZNSt15__allocated_ptrISaISt23_Sp_counted_ptr_inplaceIN19OpenColorIO_v2_4dev28CTFReaderOutputDescriptorEltESaIvELN9__gnu_cxx12_Lock_policyE2EEEED2Ev = comdat any

$_ZNSaISt23_Sp_counted_ptr_inplaceIN19OpenColorIO_v2_4dev28CTFReaderOutputDescriptorEltESaIvELN9__gnu_cxx12_Lock_policyE2EEED2Ev = comdat any

$_ZNSt15__new_allocatorISt23_Sp_counted_ptr_inplaceIN19OpenColorIO_v2_4dev28CTFReaderOutputDescriptorEltESaIvELN9__gnu_cxx12_Lock_policyE2EEEC2Ev = comdat any

$_ZNSt16allocator_traitsISaISt23_Sp_counted_ptr_inplaceIN19OpenColorIO_v2_4dev28CTFReaderOutputDescriptorEltESaIvELN9__gnu_cxx12_Lock_policyE2EEEE8allocateERS7_m = comdat any

$_ZNSt15__allocated_ptrISaISt23_Sp_counted_ptr_inplaceIN19OpenColorIO_v2_4dev28CTFReaderOutputDescriptorEltESaIvELN9__gnu_cxx12_Lock_policyE2EEEEC2ERS7_PS6_ = comdat any

$_ZNSt15__new_allocatorISt23_Sp_counted_ptr_inplaceIN19OpenColorIO_v2_4dev28CTFReaderOutputDescriptorEltESaIvELN9__gnu_cxx12_Lock_policyE2EEE8allocateEmPKv = comdat any

$_ZNKSt15__new_allocatorISt23_Sp_counted_ptr_inplaceIN19OpenColorIO_v2_4dev28CTFReaderOutputDescriptorEltESaIvELN9__gnu_cxx12_Lock_policyE2EEE11_M_max_sizeEv = comdat any

$_ZSt12__to_addressISt23_Sp_counted_ptr_inplaceIN19OpenColorIO_v2_4dev28CTFReaderOutputDescriptorEltESaIvELN9__gnu_cxx12_Lock_policyE2EEEPT_S8_ = comdat any

$_ZNSt23_Sp_counted_ptr_inplaceIN19OpenColorIO_v2_4dev28CTFReaderOutputDescriptorEltESaIvELN9__gnu_cxx12_Lock_policyE2EE5_ImplC2ES2_ = comdat any

$_ZNSt16allocator_traitsISaIvEE9constructIN19OpenColorIO_v2_4dev28CTFReaderOutputDescriptorEltEJRPKcRSt10shared_ptrINS3_21XmlReaderContainerEltEEjRKNSt7__cxx1112basic_stringIcSt11char_traitsIcESaIcEEEEEEvRS0_PT_DpOT0_ = comdat any

$_ZNSt23_Sp_counted_ptr_inplaceIN19OpenColorIO_v2_4dev28CTFReaderOutputDescriptorEltESaIvELN9__gnu_cxx12_Lock_policyE2EED2Ev = comdat any

$_ZNSt23_Sp_counted_ptr_inplaceIN19OpenColorIO_v2_4dev28CTFReaderOutputDescriptorEltESaIvELN9__gnu_cxx12_Lock_policyE2EED0Ev = comdat any

$_ZNSt23_Sp_counted_ptr_inplaceIN19OpenColorIO_v2_4dev28CTFReaderOutputDescriptorEltESaIvELN9__gnu_cxx12_Lock_policyE2EE10_M_disposeEv = comdat any

$_ZNSt23_Sp_counted_ptr_inplaceIN19OpenColorIO_v2_4dev28CTFReaderOutputDescriptorEltESaIvELN9__gnu_cxx12_Lock_policyE2EE10_M_destroyEv = comdat any

$_ZNSt23_Sp_counted_ptr_inplaceIN19OpenColorIO_v2_4dev28CTFReaderOutputDescriptorEltESaIvELN9__gnu_cxx12_Lock_policyE2EE14_M_get_deleterERKSt9type_info = comdat any

$_ZSt10_ConstructIN19OpenColorIO_v2_4dev28CTFReaderOutputDescriptorEltEJRPKcRSt10shared_ptrINS0_21XmlReaderContainerEltEEjRKNSt7__cxx1112basic_stringIcSt11char_traitsIcESaIcEEEEEvPT_DpOT0_ = comdat any

$_ZN19OpenColorIO_v2_4dev28CTFReaderOutputDescriptorEltC2ERKNSt7__cxx1112basic_stringIcSt11char_traitsIcESaIcEEESt10shared_ptrINS_21XmlReaderContainerEltEEjS8_ = comdat any

$_ZN19OpenColorIO_v2_4dev28CTFReaderOutputDescriptorEltD2Ev = comdat any

$_ZN19OpenColorIO_v2_4dev28CTFReaderOutputDescriptorEltD0Ev = comdat any

$_ZN19OpenColorIO_v2_4dev28CTFReaderOutputDescriptorElt5startEPPKc = comdat any

$_ZN19OpenColorIO_v2_4dev28CTFReaderOutputDescriptorElt3endEv = comdat any

$_ZN19OpenColorIO_v2_4dev28CTFReaderOutputDescriptorElt10setRawDataEPKcmj = comdat any

$_ZNK19OpenColorIO_v2_4dev18CTFReaderTransform19getOutputDescriptorB5cxx11Ev = comdat any

$_ZN19OpenColorIO_v2_4dev18CTFReaderTransform19setOutputDescriptorERKNSt7__cxx1112basic_stringIcSt11char_traitsIcESaIcEEE = comdat any

$_ZNSt16allocator_traitsISaIvEE7destroyIN19OpenColorIO_v2_4dev28CTFReaderOutputDescriptorEltEEEvRS0_PT_ = comdat any

$_ZNSt23_Sp_counted_ptr_inplaceIN19OpenColorIO_v2_4dev28CTFReaderOutputDescriptorEltESaIvELN9__gnu_cxx12_Lock_policyE2EE5_Impl8_M_allocEv = comdat any

$_ZSt8_DestroyIN19OpenColorIO_v2_4dev28CTFReaderOutputDescriptorEltEEvPT_ = comdat any

$_ZN9__gnu_cxx16__aligned_bufferIN19OpenColorIO_v2_4dev28CTFReaderOutputDescriptorEltEE6_M_ptrEv = comdat any

$_ZN9__gnu_cxx16__aligned_bufferIN19OpenColorIO_v2_4dev28CTFReaderOutputDescriptorEltEE7_M_addrEv = comdat any

$_ZNSt16allocator_traitsISaISt23_Sp_counted_ptr_inplaceIN19OpenColorIO_v2_4dev28CTFReaderOutputDescriptorEltESaIvELN9__gnu_cxx12_Lock_policyE2EEEE10deallocateERS7_PS6_m = comdat any

$_ZNSt15__new_allocatorISt23_Sp_counted_ptr_inplaceIN19OpenColorIO_v2_4dev28CTFReaderOutputDescriptorEltESaIvELN9__gnu_cxx12_Lock_policyE2EEE10deallocateEPS6_m = comdat any

$_ZNSt15__new_allocatorISt23_Sp_counted_ptr_inplaceIN19OpenColorIO_v2_4dev28CTFReaderOutputDescriptorEltESaIvELN9__gnu_cxx12_Lock_policyE2EEED2Ev = comdat any

$_ZNSt12__shared_ptrIN19OpenColorIO_v2_4dev16XmlReaderElementELN9__gnu_cxx12_Lock_policyE2EEC2INS0_28CTFReaderOutputDescriptorEltEvEEOS_IT_LS3_2EE = comdat any

$_ZNSt12__shared_ptrIN19OpenColorIO_v2_4dev28CTFReaderOutputDescriptorEltELN9__gnu_cxx12_Lock_policyE2EED2Ev = comdat any

$_ZNKSt6vectorIPKcSaIS1_EE4sizeEv = comdat any

$_ZNKSt6vectorIPKcSaIS1_EEixEm = comdat any

$_ZNSt10shared_ptrIN19OpenColorIO_v2_4dev22CTFReaderRangeValueEltEEC2ISaIvEJRPKcRS_INS0_21XmlReaderContainerEltEEjRKNSt7__cxx1112basic_stringIcSt11char_traitsIcESaIcEEEEEESt20_Sp_alloc_shared_tagIT_EDpOT0_ = comdat any

$_ZNSt12__shared_ptrIN19OpenColorIO_v2_4dev22CTFReaderRangeValueEltELN9__gnu_cxx12_Lock_policyE2EEC2ISaIvEJRPKcRSt10shared_ptrINS0_21XmlReaderContainerEltEEjRKNSt7__cxx1112basic_stringIcSt11char_traitsIcESaIcEEEEEESt20_Sp_alloc_shared_tagIT_EDpOT0_ = comdat any

$_ZNSt14__shared_countILN9__gnu_cxx12_Lock_policyE2EEC2IN19OpenColorIO_v2_4dev22CTFReaderRangeValueEltESaIvEJRPKcRSt10shared_ptrINS4_21XmlReaderContainerEltEEjRKNSt7__cxx1112basic_stringIcSt11char_traitsIcESaIcEEEEEERPT_St20_Sp_alloc_shared_tagIT0_EDpOT1_ = comdat any

$_ZNSt12__shared_ptrIN19OpenColorIO_v2_4dev22CTFReaderRangeValueEltELN9__gnu_cxx12_Lock_policyE2EE31_M_enable_shared_from_this_withIS1_S1_EENSt9enable_ifIXntsr15__has_esft_baseIT0_EE5valueEvE4typeEPT_ = comdat any

$_ZNSaISt23_Sp_counted_ptr_inplaceIN19OpenColorIO_v2_4dev22CTFReaderRangeValueEltESaIvELN9__gnu_cxx12_Lock_policyE2EEEC2IvEERKSaIT_E = comdat any

$_ZSt18__allocate_guardedISaISt23_Sp_counted_ptr_inplaceIN19OpenColorIO_v2_4dev22CTFReaderRangeValueEltESaIvELN9__gnu_cxx12_Lock_policyE2EEEESt15__allocated_ptrIT_ERS9_ = comdat any

$_ZNSt15__allocated_ptrISaISt23_Sp_counted_ptr_inplaceIN19OpenColorIO_v2_4dev22CTFReaderRangeValueEltESaIvELN9__gnu_cxx12_Lock_policyE2EEEE3getEv = comdat any

$_ZNSt23_Sp_counted_ptr_inplaceIN19OpenColorIO_v2_4dev22CTFReaderRangeValueEltESaIvELN9__gnu_cxx12_Lock_policyE2EEC2IJRPKcRSt10shared_ptrINS0_21XmlReaderContainerEltEEjRKNSt7__cxx1112basic_stringIcSt11char_traitsIcESaIcEEEEEES2_DpOT_ = comdat any

$_ZNSt15__allocated_ptrISaISt23_Sp_counted_ptr_inplaceIN19OpenColorIO_v2_4dev22CTFReaderRangeValueEltESaIvELN9__gnu_cxx12_Lock_policyE2EEEEaSEDn = comdat any

$_ZNSt23_Sp_counted_ptr_inplaceIN19OpenColorIO_v2_4dev22CTFReaderRangeValueEltESaIvELN9__gnu_cxx12_Lock_policyE2EE6_M_ptrEv = comdat any

$_ZNSt15__allocated_ptrISaISt23_Sp_counted_ptr_inplaceIN19OpenColorIO_v2_4dev22CTFReaderRangeValueEltESaIvELN9__gnu_cxx12_Lock_policyE2EEEED2Ev = comdat any

$_ZNSaISt23_Sp_counted_ptr_inplaceIN19OpenColorIO_v2_4dev22CTFReaderRangeValueEltESaIvELN9__gnu_cxx12_Lock_policyE2EEED2Ev = comdat any

$_ZNSt15__new_allocatorISt23_Sp_counted_ptr_inplaceIN19OpenColorIO_v2_4dev22CTFReaderRangeValueEltESaIvELN9__gnu_cxx12_Lock_policyE2EEEC2Ev = comdat any

$_ZNSt16allocator_traitsISaISt23_Sp_counted_ptr_inplaceIN19OpenColorIO_v2_4dev22CTFReaderRangeValueEltESaIvELN9__gnu_cxx12_Lock_policyE2EEEE8allocateERS7_m = comdat any

$_ZNSt15__allocated_ptrISaISt23_Sp_counted_ptr_inplaceIN19OpenColorIO_v2_4dev22CTFReaderRangeValueEltESaIvELN9__gnu_cxx12_Lock_policyE2EEEEC2ERS7_PS6_ = comdat any

$_ZNSt15__new_allocatorISt23_Sp_counted_ptr_inplaceIN19OpenColorIO_v2_4dev22CTFReaderRangeValueEltESaIvELN9__gnu_cxx12_Lock_policyE2EEE8allocateEmPKv = comdat any

$_ZNKSt15__new_allocatorISt23_Sp_counted_ptr_inplaceIN19OpenColorIO_v2_4dev22CTFReaderRangeValueEltESaIvELN9__gnu_cxx12_Lock_policyE2EEE11_M_max_sizeEv = comdat any

$_ZSt12__to_addressISt23_Sp_counted_ptr_inplaceIN19OpenColorIO_v2_4dev22CTFReaderRangeValueEltESaIvELN9__gnu_cxx12_Lock_policyE2EEEPT_S8_ = comdat any

$_ZNSt23_Sp_counted_ptr_inplaceIN19OpenColorIO_v2_4dev22CTFReaderRangeValueEltESaIvELN9__gnu_cxx12_Lock_policyE2EE5_ImplC2ES2_ = comdat any

$_ZNSt16allocator_traitsISaIvEE9constructIN19OpenColorIO_v2_4dev22CTFReaderRangeValueEltEJRPKcRSt10shared_ptrINS3_21XmlReaderContainerEltEEjRKNSt7__cxx1112basic_stringIcSt11char_traitsIcESaIcEEEEEEvRS0_PT_DpOT0_ = comdat any

$_ZNSt23_Sp_counted_ptr_inplaceIN19OpenColorIO_v2_4dev22CTFReaderRangeValueEltESaIvELN9__gnu_cxx12_Lock_policyE2EED2Ev = comdat any

$_ZNSt23_Sp_counted_ptr_inplaceIN19OpenColorIO_v2_4dev22CTFReaderRangeValueEltESaIvELN9__gnu_cxx12_Lock_policyE2EED0Ev = comdat any

$_ZNSt23_Sp_counted_ptr_inplaceIN19OpenColorIO_v2_4dev22CTFReaderRangeValueEltESaIvELN9__gnu_cxx12_Lock_policyE2EE10_M_disposeEv = comdat any

$_ZNSt23_Sp_counted_ptr_inplaceIN19OpenColorIO_v2_4dev22CTFReaderRangeValueEltESaIvELN9__gnu_cxx12_Lock_policyE2EE10_M_destroyEv = comdat any

$_ZNSt23_Sp_counted_ptr_inplaceIN19OpenColorIO_v2_4dev22CTFReaderRangeValueEltESaIvELN9__gnu_cxx12_Lock_policyE2EE14_M_get_deleterERKSt9type_info = comdat any

$_ZSt10_ConstructIN19OpenColorIO_v2_4dev22CTFReaderRangeValueEltEJRPKcRSt10shared_ptrINS0_21XmlReaderContainerEltEEjRKNSt7__cxx1112basic_stringIcSt11char_traitsIcESaIcEEEEEvPT_DpOT0_ = comdat any

$_ZNSt16allocator_traitsISaIvEE7destroyIN19OpenColorIO_v2_4dev22CTFReaderRangeValueEltEEEvRS0_PT_ = comdat any

$_ZNSt23_Sp_counted_ptr_inplaceIN19OpenColorIO_v2_4dev22CTFReaderRangeValueEltESaIvELN9__gnu_cxx12_Lock_policyE2EE5_Impl8_M_allocEv = comdat any

$_ZSt8_DestroyIN19OpenColorIO_v2_4dev22CTFReaderRangeValueEltEEvPT_ = comdat any

$_ZN9__gnu_cxx16__aligned_bufferIN19OpenColorIO_v2_4dev22CTFReaderRangeValueEltEE6_M_ptrEv = comdat any

$_ZN9__gnu_cxx16__aligned_bufferIN19OpenColorIO_v2_4dev22CTFReaderRangeValueEltEE7_M_addrEv = comdat any

$_ZNSt16allocator_traitsISaISt23_Sp_counted_ptr_inplaceIN19OpenColorIO_v2_4dev22CTFReaderRangeValueEltESaIvELN9__gnu_cxx12_Lock_policyE2EEEE10deallocateERS7_PS6_m = comdat any

$_ZNSt15__new_allocatorISt23_Sp_counted_ptr_inplaceIN19OpenColorIO_v2_4dev22CTFReaderRangeValueEltESaIvELN9__gnu_cxx12_Lock_policyE2EEE10deallocateEPS6_m = comdat any

$_ZNSt15__new_allocatorISt23_Sp_counted_ptr_inplaceIN19OpenColorIO_v2_4dev22CTFReaderRangeValueEltESaIvELN9__gnu_cxx12_Lock_policyE2EEED2Ev = comdat any

$_ZNSt12__shared_ptrIN19OpenColorIO_v2_4dev16XmlReaderElementELN9__gnu_cxx12_Lock_policyE2EEC2INS0_22CTFReaderRangeValueEltEvEEOS_IT_LS3_2EE = comdat any

$_ZNSt12__shared_ptrIN19OpenColorIO_v2_4dev22CTFReaderRangeValueEltELN9__gnu_cxx12_Lock_policyE2EED2Ev = comdat any

$_ZNSt10shared_ptrIN19OpenColorIO_v2_4dev15CTFReaderCDLEltEEC2INS0_21XmlReaderContainerEltEEERKS_IT_EPS1_ = comdat any

$_ZNSt10shared_ptrIN19OpenColorIO_v2_4dev15CTFReaderCDLEltEEC2Ev = comdat any

$_ZNSt12__shared_ptrIN19OpenColorIO_v2_4dev15CTFReaderCDLEltELN9__gnu_cxx12_Lock_policyE2EEC2INS0_21XmlReaderContainerEltEEERKS_IT_LS3_2EEPS1_ = comdat any

$_ZNSt12__shared_ptrIN19OpenColorIO_v2_4dev15CTFReaderCDLEltELN9__gnu_cxx12_Lock_policyE2EEC2Ev = comdat any

$_ZNSt10shared_ptrIN19OpenColorIO_v2_4dev19CTFReaderSatNodeEltEEC2ISaIvEJRPKcRS_INS0_15CTFReaderCDLEltEEjRKNSt7__cxx1112basic_stringIcSt11char_traitsIcESaIcEEEEEESt20_Sp_alloc_shared_tagIT_EDpOT0_ = comdat any

$_ZNSt12__shared_ptrIN19OpenColorIO_v2_4dev19CTFReaderSatNodeEltELN9__gnu_cxx12_Lock_policyE2EEC2ISaIvEJRPKcRSt10shared_ptrINS0_15CTFReaderCDLEltEEjRKNSt7__cxx1112basic_stringIcSt11char_traitsIcESaIcEEEEEESt20_Sp_alloc_shared_tagIT_EDpOT0_ = comdat any

$_ZNSt14__shared_countILN9__gnu_cxx12_Lock_policyE2EEC2IN19OpenColorIO_v2_4dev19CTFReaderSatNodeEltESaIvEJRPKcRSt10shared_ptrINS4_15CTFReaderCDLEltEEjRKNSt7__cxx1112basic_stringIcSt11char_traitsIcESaIcEEEEEERPT_St20_Sp_alloc_shared_tagIT0_EDpOT1_ = comdat any

$_ZNSt12__shared_ptrIN19OpenColorIO_v2_4dev19CTFReaderSatNodeEltELN9__gnu_cxx12_Lock_policyE2EE31_M_enable_shared_from_this_withIS1_S1_EENSt9enable_ifIXntsr15__has_esft_baseIT0_EE5valueEvE4typeEPT_ = comdat any

$_ZNSaISt23_Sp_counted_ptr_inplaceIN19OpenColorIO_v2_4dev19CTFReaderSatNodeEltESaIvELN9__gnu_cxx12_Lock_policyE2EEEC2IvEERKSaIT_E = comdat any

$_ZSt18__allocate_guardedISaISt23_Sp_counted_ptr_inplaceIN19OpenColorIO_v2_4dev19CTFReaderSatNodeEltESaIvELN9__gnu_cxx12_Lock_policyE2EEEESt15__allocated_ptrIT_ERS9_ = comdat any

$_ZNSt15__allocated_ptrISaISt23_Sp_counted_ptr_inplaceIN19OpenColorIO_v2_4dev19CTFReaderSatNodeEltESaIvELN9__gnu_cxx12_Lock_policyE2EEEE3getEv = comdat any

$_ZNSt23_Sp_counted_ptr_inplaceIN19OpenColorIO_v2_4dev19CTFReaderSatNodeEltESaIvELN9__gnu_cxx12_Lock_policyE2EEC2IJRPKcRSt10shared_ptrINS0_15CTFReaderCDLEltEEjRKNSt7__cxx1112basic_stringIcSt11char_traitsIcESaIcEEEEEES2_DpOT_ = comdat any

$_ZNSt15__allocated_ptrISaISt23_Sp_counted_ptr_inplaceIN19OpenColorIO_v2_4dev19CTFReaderSatNodeEltESaIvELN9__gnu_cxx12_Lock_policyE2EEEEaSEDn = comdat any

$_ZNSt23_Sp_counted_ptr_inplaceIN19OpenColorIO_v2_4dev19CTFReaderSatNodeEltESaIvELN9__gnu_cxx12_Lock_policyE2EE6_M_ptrEv = comdat any

$_ZNSt15__allocated_ptrISaISt23_Sp_counted_ptr_inplaceIN19OpenColorIO_v2_4dev19CTFReaderSatNodeEltESaIvELN9__gnu_cxx12_Lock_policyE2EEEED2Ev = comdat any

$_ZNSaISt23_Sp_counted_ptr_inplaceIN19OpenColorIO_v2_4dev19CTFReaderSatNodeEltESaIvELN9__gnu_cxx12_Lock_policyE2EEED2Ev = comdat any

$_ZNSt15__new_allocatorISt23_Sp_counted_ptr_inplaceIN19OpenColorIO_v2_4dev19CTFReaderSatNodeEltESaIvELN9__gnu_cxx12_Lock_policyE2EEEC2Ev = comdat any

$_ZNSt16allocator_traitsISaISt23_Sp_counted_ptr_inplaceIN19OpenColorIO_v2_4dev19CTFReaderSatNodeEltESaIvELN9__gnu_cxx12_Lock_policyE2EEEE8allocateERS7_m = comdat any

$_ZNSt15__allocated_ptrISaISt23_Sp_counted_ptr_inplaceIN19OpenColorIO_v2_4dev19CTFReaderSatNodeEltESaIvELN9__gnu_cxx12_Lock_policyE2EEEEC2ERS7_PS6_ = comdat any

$_ZNSt15__new_allocatorISt23_Sp_counted_ptr_inplaceIN19OpenColorIO_v2_4dev19CTFReaderSatNodeEltESaIvELN9__gnu_cxx12_Lock_policyE2EEE8allocateEmPKv = comdat any

$_ZNKSt15__new_allocatorISt23_Sp_counted_ptr_inplaceIN19OpenColorIO_v2_4dev19CTFReaderSatNodeEltESaIvELN9__gnu_cxx12_Lock_policyE2EEE11_M_max_sizeEv = comdat any

$_ZSt12__to_addressISt23_Sp_counted_ptr_inplaceIN19OpenColorIO_v2_4dev19CTFReaderSatNodeEltESaIvELN9__gnu_cxx12_Lock_policyE2EEEPT_S8_ = comdat any

$_ZNSt23_Sp_counted_ptr_inplaceIN19OpenColorIO_v2_4dev19CTFReaderSatNodeEltESaIvELN9__gnu_cxx12_Lock_policyE2EE5_ImplC2ES2_ = comdat any

$_ZNSt16allocator_traitsISaIvEE9constructIN19OpenColorIO_v2_4dev19CTFReaderSatNodeEltEJRPKcRSt10shared_ptrINS3_15CTFReaderCDLEltEEjRKNSt7__cxx1112basic_stringIcSt11char_traitsIcESaIcEEEEEEvRS0_PT_DpOT0_ = comdat any

$_ZNSt23_Sp_counted_ptr_inplaceIN19OpenColorIO_v2_4dev19CTFReaderSatNodeEltESaIvELN9__gnu_cxx12_Lock_policyE2EED2Ev = comdat any

$_ZNSt23_Sp_counted_ptr_inplaceIN19OpenColorIO_v2_4dev19CTFReaderSatNodeEltESaIvELN9__gnu_cxx12_Lock_policyE2EED0Ev = comdat any

$_ZNSt23_Sp_counted_ptr_inplaceIN19OpenColorIO_v2_4dev19CTFReaderSatNodeEltESaIvELN9__gnu_cxx12_Lock_policyE2EE10_M_disposeEv = comdat any

$_ZNSt23_Sp_counted_ptr_inplaceIN19OpenColorIO_v2_4dev19CTFReaderSatNodeEltESaIvELN9__gnu_cxx12_Lock_policyE2EE10_M_destroyEv = comdat any

$_ZNSt23_Sp_counted_ptr_inplaceIN19OpenColorIO_v2_4dev19CTFReaderSatNodeEltESaIvELN9__gnu_cxx12_Lock_policyE2EE14_M_get_deleterERKSt9type_info = comdat any

$_ZSt10_ConstructIN19OpenColorIO_v2_4dev19CTFReaderSatNodeEltEJRPKcRSt10shared_ptrINS0_15CTFReaderCDLEltEEjRKNSt7__cxx1112basic_stringIcSt11char_traitsIcESaIcEEEEEvPT_DpOT0_ = comdat any

$_ZNSt10shared_ptrIN19OpenColorIO_v2_4dev21XmlReaderContainerEltEEC2INS0_15CTFReaderCDLEltEvEERKS_IT_E = comdat any

$_ZNSt12__shared_ptrIN19OpenColorIO_v2_4dev21XmlReaderContainerEltELN9__gnu_cxx12_Lock_policyE2EEC2INS0_15CTFReaderCDLEltEvEERKS_IT_LS3_2EE = comdat any

$_ZNSt16allocator_traitsISaIvEE7destroyIN19OpenColorIO_v2_4dev19CTFReaderSatNodeEltEEEvRS0_PT_ = comdat any

$_ZNSt23_Sp_counted_ptr_inplaceIN19OpenColorIO_v2_4dev19CTFReaderSatNodeEltESaIvELN9__gnu_cxx12_Lock_policyE2EE5_Impl8_M_allocEv = comdat any

$_ZSt8_DestroyIN19OpenColorIO_v2_4dev19CTFReaderSatNodeEltEEvPT_ = comdat any

$_ZN9__gnu_cxx16__aligned_bufferIN19OpenColorIO_v2_4dev19CTFReaderSatNodeEltEE6_M_ptrEv = comdat any

$_ZN9__gnu_cxx16__aligned_bufferIN19OpenColorIO_v2_4dev19CTFReaderSatNodeEltEE7_M_addrEv = comdat any

$_ZNSt16allocator_traitsISaISt23_Sp_counted_ptr_inplaceIN19OpenColorIO_v2_4dev19CTFReaderSatNodeEltESaIvELN9__gnu_cxx12_Lock_policyE2EEEE10deallocateERS7_PS6_m = comdat any

$_ZNSt15__new_allocatorISt23_Sp_counted_ptr_inplaceIN19OpenColorIO_v2_4dev19CTFReaderSatNodeEltESaIvELN9__gnu_cxx12_Lock_policyE2EEE10deallocateEPS6_m = comdat any

$_ZNSt15__new_allocatorISt23_Sp_counted_ptr_inplaceIN19OpenColorIO_v2_4dev19CTFReaderSatNodeEltESaIvELN9__gnu_cxx12_Lock_policyE2EEED2Ev = comdat any

$_ZNSt12__shared_ptrIN19OpenColorIO_v2_4dev16XmlReaderElementELN9__gnu_cxx12_Lock_policyE2EEC2INS0_19CTFReaderSatNodeEltEvEERKS_IT_LS3_2EE = comdat any

$_ZNSt12__shared_ptrIN19OpenColorIO_v2_4dev19CTFReaderSatNodeEltELN9__gnu_cxx12_Lock_policyE2EED2Ev = comdat any

$_ZNSt12__shared_ptrIN19OpenColorIO_v2_4dev15CTFReaderCDLEltELN9__gnu_cxx12_Lock_policyE2EED2Ev = comdat any

$_ZNSt10shared_ptrIN19OpenColorIO_v2_4dev22XmlReaderSaturationEltEEC2ISaIvEJRPKcRS_INS0_21XmlReaderContainerEltEEjRKNSt7__cxx1112basic_stringIcSt11char_traitsIcESaIcEEEEEESt20_Sp_alloc_shared_tagIT_EDpOT0_ = comdat any

$_ZNSt12__shared_ptrIN19OpenColorIO_v2_4dev22XmlReaderSaturationEltELN9__gnu_cxx12_Lock_policyE2EEC2ISaIvEJRPKcRSt10shared_ptrINS0_21XmlReaderContainerEltEEjRKNSt7__cxx1112basic_stringIcSt11char_traitsIcESaIcEEEEEESt20_Sp_alloc_shared_tagIT_EDpOT0_ = comdat any

$_ZNSt14__shared_countILN9__gnu_cxx12_Lock_policyE2EEC2IN19OpenColorIO_v2_4dev22XmlReaderSaturationEltESaIvEJRPKcRSt10shared_ptrINS4_21XmlReaderContainerEltEEjRKNSt7__cxx1112basic_stringIcSt11char_traitsIcESaIcEEEEEERPT_St20_Sp_alloc_shared_tagIT0_EDpOT1_ = comdat any

$_ZNSt12__shared_ptrIN19OpenColorIO_v2_4dev22XmlReaderSaturationEltELN9__gnu_cxx12_Lock_policyE2EE31_M_enable_shared_from_this_withIS1_S1_EENSt9enable_ifIXntsr15__has_esft_baseIT0_EE5valueEvE4typeEPT_ = comdat any

$_ZNSaISt23_Sp_counted_ptr_inplaceIN19OpenColorIO_v2_4dev22XmlReaderSaturationEltESaIvELN9__gnu_cxx12_Lock_policyE2EEEC2IvEERKSaIT_E = comdat any

$_ZSt18__allocate_guardedISaISt23_Sp_counted_ptr_inplaceIN19OpenColorIO_v2_4dev22XmlReaderSaturationEltESaIvELN9__gnu_cxx12_Lock_policyE2EEEESt15__allocated_ptrIT_ERS9_ = comdat any

$_ZNSt15__allocated_ptrISaISt23_Sp_counted_ptr_inplaceIN19OpenColorIO_v2_4dev22XmlReaderSaturationEltESaIvELN9__gnu_cxx12_Lock_policyE2EEEE3getEv = comdat any

$_ZNSt23_Sp_counted_ptr_inplaceIN19OpenColorIO_v2_4dev22XmlReaderSaturationEltESaIvELN9__gnu_cxx12_Lock_policyE2EEC2IJRPKcRSt10shared_ptrINS0_21XmlReaderContainerEltEEjRKNSt7__cxx1112basic_stringIcSt11char_traitsIcESaIcEEEEEES2_DpOT_ = comdat any

$_ZNSt15__allocated_ptrISaISt23_Sp_counted_ptr_inplaceIN19OpenColorIO_v2_4dev22XmlReaderSaturationEltESaIvELN9__gnu_cxx12_Lock_policyE2EEEEaSEDn = comdat any

$_ZNSt23_Sp_counted_ptr_inplaceIN19OpenColorIO_v2_4dev22XmlReaderSaturationEltESaIvELN9__gnu_cxx12_Lock_policyE2EE6_M_ptrEv = comdat any

$_ZNSt15__allocated_ptrISaISt23_Sp_counted_ptr_inplaceIN19OpenColorIO_v2_4dev22XmlReaderSaturationEltESaIvELN9__gnu_cxx12_Lock_policyE2EEEED2Ev = comdat any

$_ZNSaISt23_Sp_counted_ptr_inplaceIN19OpenColorIO_v2_4dev22XmlReaderSaturationEltESaIvELN9__gnu_cxx12_Lock_policyE2EEED2Ev = comdat any

$_ZNSt15__new_allocatorISt23_Sp_counted_ptr_inplaceIN19OpenColorIO_v2_4dev22XmlReaderSaturationEltESaIvELN9__gnu_cxx12_Lock_policyE2EEEC2Ev = comdat any

$_ZNSt16allocator_traitsISaISt23_Sp_counted_ptr_inplaceIN19OpenColorIO_v2_4dev22XmlReaderSaturationEltESaIvELN9__gnu_cxx12_Lock_policyE2EEEE8allocateERS7_m = comdat any

$_ZNSt15__allocated_ptrISaISt23_Sp_counted_ptr_inplaceIN19OpenColorIO_v2_4dev22XmlReaderSaturationEltESaIvELN9__gnu_cxx12_Lock_policyE2EEEEC2ERS7_PS6_ = comdat any

$_ZNSt15__new_allocatorISt23_Sp_counted_ptr_inplaceIN19OpenColorIO_v2_4dev22XmlReaderSaturationEltESaIvELN9__gnu_cxx12_Lock_policyE2EEE8allocateEmPKv = comdat any

$_ZNKSt15__new_allocatorISt23_Sp_counted_ptr_inplaceIN19OpenColorIO_v2_4dev22XmlReaderSaturationEltESaIvELN9__gnu_cxx12_Lock_policyE2EEE11_M_max_sizeEv = comdat any

$_ZSt12__to_addressISt23_Sp_counted_ptr_inplaceIN19OpenColorIO_v2_4dev22XmlReaderSaturationEltESaIvELN9__gnu_cxx12_Lock_policyE2EEEPT_S8_ = comdat any

$_ZNSt23_Sp_counted_ptr_inplaceIN19OpenColorIO_v2_4dev22XmlReaderSaturationEltESaIvELN9__gnu_cxx12_Lock_policyE2EE5_ImplC2ES2_ = comdat any

$_ZNSt16allocator_traitsISaIvEE9constructIN19OpenColorIO_v2_4dev22XmlReaderSaturationEltEJRPKcRSt10shared_ptrINS3_21XmlReaderContainerEltEEjRKNSt7__cxx1112basic_stringIcSt11char_traitsIcESaIcEEEEEEvRS0_PT_DpOT0_ = comdat any

$_ZNSt23_Sp_counted_ptr_inplaceIN19OpenColorIO_v2_4dev22XmlReaderSaturationEltESaIvELN9__gnu_cxx12_Lock_policyE2EED2Ev = comdat any

$_ZNSt23_Sp_counted_ptr_inplaceIN19OpenColorIO_v2_4dev22XmlReaderSaturationEltESaIvELN9__gnu_cxx12_Lock_policyE2EED0Ev = comdat any

$_ZNSt23_Sp_counted_ptr_inplaceIN19OpenColorIO_v2_4dev22XmlReaderSaturationEltESaIvELN9__gnu_cxx12_Lock_policyE2EE10_M_disposeEv = comdat any

$_ZNSt23_Sp_counted_ptr_inplaceIN19OpenColorIO_v2_4dev22XmlReaderSaturationEltESaIvELN9__gnu_cxx12_Lock_policyE2EE10_M_destroyEv = comdat any

$_ZNSt23_Sp_counted_ptr_inplaceIN19OpenColorIO_v2_4dev22XmlReaderSaturationEltESaIvELN9__gnu_cxx12_Lock_policyE2EE14_M_get_deleterERKSt9type_info = comdat any

$_ZSt10_ConstructIN19OpenColorIO_v2_4dev22XmlReaderSaturationEltEJRPKcRSt10shared_ptrINS0_21XmlReaderContainerEltEEjRKNSt7__cxx1112basic_stringIcSt11char_traitsIcESaIcEEEEEvPT_DpOT0_ = comdat any

$_ZNSt16allocator_traitsISaIvEE7destroyIN19OpenColorIO_v2_4dev22XmlReaderSaturationEltEEEvRS0_PT_ = comdat any

$_ZNSt23_Sp_counted_ptr_inplaceIN19OpenColorIO_v2_4dev22XmlReaderSaturationEltESaIvELN9__gnu_cxx12_Lock_policyE2EE5_Impl8_M_allocEv = comdat any

$_ZSt8_DestroyIN19OpenColorIO_v2_4dev22XmlReaderSaturationEltEEvPT_ = comdat any

$_ZN9__gnu_cxx16__aligned_bufferIN19OpenColorIO_v2_4dev22XmlReaderSaturationEltEE6_M_ptrEv = comdat any

$_ZN9__gnu_cxx16__aligned_bufferIN19OpenColorIO_v2_4dev22XmlReaderSaturationEltEE7_M_addrEv = comdat any

$_ZNSt16allocator_traitsISaISt23_Sp_counted_ptr_inplaceIN19OpenColorIO_v2_4dev22XmlReaderSaturationEltESaIvELN9__gnu_cxx12_Lock_policyE2EEEE10deallocateERS7_PS6_m = comdat any

$_ZNSt15__new_allocatorISt23_Sp_counted_ptr_inplaceIN19OpenColorIO_v2_4dev22XmlReaderSaturationEltESaIvELN9__gnu_cxx12_Lock_policyE2EEE10deallocateEPS6_m = comdat any

$_ZNSt15__new_allocatorISt23_Sp_counted_ptr_inplaceIN19OpenColorIO_v2_4dev22XmlReaderSaturationEltESaIvELN9__gnu_cxx12_Lock_policyE2EEED2Ev = comdat any

$_ZNSt12__shared_ptrIN19OpenColorIO_v2_4dev16XmlReaderElementELN9__gnu_cxx12_Lock_policyE2EEC2INS0_22XmlReaderSaturationEltEvEEOS_IT_LS3_2EE = comdat any

$_ZNSt12__shared_ptrIN19OpenColorIO_v2_4dev22XmlReaderSaturationEltELN9__gnu_cxx12_Lock_policyE2EED2Ev = comdat any

$_ZNSt10shared_ptrIN19OpenColorIO_v2_4dev19CTFReaderSOPNodeEltEEC2ISaIvEJRPKcRS_INS0_15CTFReaderCDLEltEEjRKNSt7__cxx1112basic_stringIcSt11char_traitsIcESaIcEEEEEESt20_Sp_alloc_shared_tagIT_EDpOT0_ = comdat any

$_ZNSt12__shared_ptrIN19OpenColorIO_v2_4dev19CTFReaderSOPNodeEltELN9__gnu_cxx12_Lock_policyE2EEC2ISaIvEJRPKcRSt10shared_ptrINS0_15CTFReaderCDLEltEEjRKNSt7__cxx1112basic_stringIcSt11char_traitsIcESaIcEEEEEESt20_Sp_alloc_shared_tagIT_EDpOT0_ = comdat any

$_ZNSt14__shared_countILN9__gnu_cxx12_Lock_policyE2EEC2IN19OpenColorIO_v2_4dev19CTFReaderSOPNodeEltESaIvEJRPKcRSt10shared_ptrINS4_15CTFReaderCDLEltEEjRKNSt7__cxx1112basic_stringIcSt11char_traitsIcESaIcEEEEEERPT_St20_Sp_alloc_shared_tagIT0_EDpOT1_ = comdat any

$_ZNSt12__shared_ptrIN19OpenColorIO_v2_4dev19CTFReaderSOPNodeEltELN9__gnu_cxx12_Lock_policyE2EE31_M_enable_shared_from_this_withIS1_S1_EENSt9enable_ifIXntsr15__has_esft_baseIT0_EE5valueEvE4typeEPT_ = comdat any

$_ZNSaISt23_Sp_counted_ptr_inplaceIN19OpenColorIO_v2_4dev19CTFReaderSOPNodeEltESaIvELN9__gnu_cxx12_Lock_policyE2EEEC2IvEERKSaIT_E = comdat any

$_ZSt18__allocate_guardedISaISt23_Sp_counted_ptr_inplaceIN19OpenColorIO_v2_4dev19CTFReaderSOPNodeEltESaIvELN9__gnu_cxx12_Lock_policyE2EEEESt15__allocated_ptrIT_ERS9_ = comdat any

$_ZNSt15__allocated_ptrISaISt23_Sp_counted_ptr_inplaceIN19OpenColorIO_v2_4dev19CTFReaderSOPNodeEltESaIvELN9__gnu_cxx12_Lock_policyE2EEEE3getEv = comdat any

$_ZNSt23_Sp_counted_ptr_inplaceIN19OpenColorIO_v2_4dev19CTFReaderSOPNodeEltESaIvELN9__gnu_cxx12_Lock_policyE2EEC2IJRPKcRSt10shared_ptrINS0_15CTFReaderCDLEltEEjRKNSt7__cxx1112basic_stringIcSt11char_traitsIcESaIcEEEEEES2_DpOT_ = comdat any

$_ZNSt15__allocated_ptrISaISt23_Sp_counted_ptr_inplaceIN19OpenColorIO_v2_4dev19CTFReaderSOPNodeEltESaIvELN9__gnu_cxx12_Lock_policyE2EEEEaSEDn = comdat any

$_ZNSt23_Sp_counted_ptr_inplaceIN19OpenColorIO_v2_4dev19CTFReaderSOPNodeEltESaIvELN9__gnu_cxx12_Lock_policyE2EE6_M_ptrEv = comdat any

$_ZNSt15__allocated_ptrISaISt23_Sp_counted_ptr_inplaceIN19OpenColorIO_v2_4dev19CTFReaderSOPNodeEltESaIvELN9__gnu_cxx12_Lock_policyE2EEEED2Ev = comdat any

$_ZNSaISt23_Sp_counted_ptr_inplaceIN19OpenColorIO_v2_4dev19CTFReaderSOPNodeEltESaIvELN9__gnu_cxx12_Lock_policyE2EEED2Ev = comdat any

$_ZNSt15__new_allocatorISt23_Sp_counted_ptr_inplaceIN19OpenColorIO_v2_4dev19CTFReaderSOPNodeEltESaIvELN9__gnu_cxx12_Lock_policyE2EEEC2Ev = comdat any

$_ZNSt16allocator_traitsISaISt23_Sp_counted_ptr_inplaceIN19OpenColorIO_v2_4dev19CTFReaderSOPNodeEltESaIvELN9__gnu_cxx12_Lock_policyE2EEEE8allocateERS7_m = comdat any

$_ZNSt15__allocated_ptrISaISt23_Sp_counted_ptr_inplaceIN19OpenColorIO_v2_4dev19CTFReaderSOPNodeEltESaIvELN9__gnu_cxx12_Lock_policyE2EEEEC2ERS7_PS6_ = comdat any

$_ZNSt15__new_allocatorISt23_Sp_counted_ptr_inplaceIN19OpenColorIO_v2_4dev19CTFReaderSOPNodeEltESaIvELN9__gnu_cxx12_Lock_policyE2EEE8allocateEmPKv = comdat any

$_ZNKSt15__new_allocatorISt23_Sp_counted_ptr_inplaceIN19OpenColorIO_v2_4dev19CTFReaderSOPNodeEltESaIvELN9__gnu_cxx12_Lock_policyE2EEE11_M_max_sizeEv = comdat any

$_ZSt12__to_addressISt23_Sp_counted_ptr_inplaceIN19OpenColorIO_v2_4dev19CTFReaderSOPNodeEltESaIvELN9__gnu_cxx12_Lock_policyE2EEEPT_S8_ = comdat any

$_ZNSt23_Sp_counted_ptr_inplaceIN19OpenColorIO_v2_4dev19CTFReaderSOPNodeEltESaIvELN9__gnu_cxx12_Lock_policyE2EE5_ImplC2ES2_ = comdat any

$_ZNSt16allocator_traitsISaIvEE9constructIN19OpenColorIO_v2_4dev19CTFReaderSOPNodeEltEJRPKcRSt10shared_ptrINS3_15CTFReaderCDLEltEEjRKNSt7__cxx1112basic_stringIcSt11char_traitsIcESaIcEEEEEEvRS0_PT_DpOT0_ = comdat any

$_ZNSt23_Sp_counted_ptr_inplaceIN19OpenColorIO_v2_4dev19CTFReaderSOPNodeEltESaIvELN9__gnu_cxx12_Lock_policyE2EED2Ev = comdat any

$_ZNSt23_Sp_counted_ptr_inplaceIN19OpenColorIO_v2_4dev19CTFReaderSOPNodeEltESaIvELN9__gnu_cxx12_Lock_policyE2EED0Ev = comdat any

$_ZNSt23_Sp_counted_ptr_inplaceIN19OpenColorIO_v2_4dev19CTFReaderSOPNodeEltESaIvELN9__gnu_cxx12_Lock_policyE2EE10_M_disposeEv = comdat any

$_ZNSt23_Sp_counted_ptr_inplaceIN19OpenColorIO_v2_4dev19CTFReaderSOPNodeEltESaIvELN9__gnu_cxx12_Lock_policyE2EE10_M_destroyEv = comdat any

$_ZNSt23_Sp_counted_ptr_inplaceIN19OpenColorIO_v2_4dev19CTFReaderSOPNodeEltESaIvELN9__gnu_cxx12_Lock_policyE2EE14_M_get_deleterERKSt9type_info = comdat any

$_ZSt10_ConstructIN19OpenColorIO_v2_4dev19CTFReaderSOPNodeEltEJRPKcRSt10shared_ptrINS0_15CTFReaderCDLEltEEjRKNSt7__cxx1112basic_stringIcSt11char_traitsIcESaIcEEEEEvPT_DpOT0_ = comdat any

$_ZNSt16allocator_traitsISaIvEE7destroyIN19OpenColorIO_v2_4dev19CTFReaderSOPNodeEltEEEvRS0_PT_ = comdat any

$_ZNSt23_Sp_counted_ptr_inplaceIN19OpenColorIO_v2_4dev19CTFReaderSOPNodeEltESaIvELN9__gnu_cxx12_Lock_policyE2EE5_Impl8_M_allocEv = comdat any

$_ZSt8_DestroyIN19OpenColorIO_v2_4dev19CTFReaderSOPNodeEltEEvPT_ = comdat any

$_ZN9__gnu_cxx16__aligned_bufferIN19OpenColorIO_v2_4dev19CTFReaderSOPNodeEltEE6_M_ptrEv = comdat any

$_ZN9__gnu_cxx16__aligned_bufferIN19OpenColorIO_v2_4dev19CTFReaderSOPNodeEltEE7_M_addrEv = comdat any

$_ZNSt16allocator_traitsISaISt23_Sp_counted_ptr_inplaceIN19OpenColorIO_v2_4dev19CTFReaderSOPNodeEltESaIvELN9__gnu_cxx12_Lock_policyE2EEEE10deallocateERS7_PS6_m = comdat any

$_ZNSt15__new_allocatorISt23_Sp_counted_ptr_inplaceIN19OpenColorIO_v2_4dev19CTFReaderSOPNodeEltESaIvELN9__gnu_cxx12_Lock_policyE2EEE10deallocateEPS6_m = comdat any

$_ZNSt15__new_allocatorISt23_Sp_counted_ptr_inplaceIN19OpenColorIO_v2_4dev19CTFReaderSOPNodeEltESaIvELN9__gnu_cxx12_Lock_policyE2EEED2Ev = comdat any

$_ZNSt12__shared_ptrIN19OpenColorIO_v2_4dev16XmlReaderElementELN9__gnu_cxx12_Lock_policyE2EEC2INS0_19CTFReaderSOPNodeEltEvEERKS_IT_LS3_2EE = comdat any

$_ZNSt12__shared_ptrIN19OpenColorIO_v2_4dev19CTFReaderSOPNodeEltELN9__gnu_cxx12_Lock_policyE2EED2Ev = comdat any

$_ZNSt10shared_ptrIN19OpenColorIO_v2_4dev20XmlReaderSOPValueEltEEC2ISaIvEJRPKcRS_INS0_21XmlReaderContainerEltEEjRKNSt7__cxx1112basic_stringIcSt11char_traitsIcESaIcEEEEEESt20_Sp_alloc_shared_tagIT_EDpOT0_ = comdat any

$_ZNSt12__shared_ptrIN19OpenColorIO_v2_4dev20XmlReaderSOPValueEltELN9__gnu_cxx12_Lock_policyE2EEC2ISaIvEJRPKcRSt10shared_ptrINS0_21XmlReaderContainerEltEEjRKNSt7__cxx1112basic_stringIcSt11char_traitsIcESaIcEEEEEESt20_Sp_alloc_shared_tagIT_EDpOT0_ = comdat any

$_ZNSt14__shared_countILN9__gnu_cxx12_Lock_policyE2EEC2IN19OpenColorIO_v2_4dev20XmlReaderSOPValueEltESaIvEJRPKcRSt10shared_ptrINS4_21XmlReaderContainerEltEEjRKNSt7__cxx1112basic_stringIcSt11char_traitsIcESaIcEEEEEERPT_St20_Sp_alloc_shared_tagIT0_EDpOT1_ = comdat any

$_ZNSt12__shared_ptrIN19OpenColorIO_v2_4dev20XmlReaderSOPValueEltELN9__gnu_cxx12_Lock_policyE2EE31_M_enable_shared_from_this_withIS1_S1_EENSt9enable_ifIXntsr15__has_esft_baseIT0_EE5valueEvE4typeEPT_ = comdat any

$_ZNSaISt23_Sp_counted_ptr_inplaceIN19OpenColorIO_v2_4dev20XmlReaderSOPValueEltESaIvELN9__gnu_cxx12_Lock_policyE2EEEC2IvEERKSaIT_E = comdat any

$_ZSt18__allocate_guardedISaISt23_Sp_counted_ptr_inplaceIN19OpenColorIO_v2_4dev20XmlReaderSOPValueEltESaIvELN9__gnu_cxx12_Lock_policyE2EEEESt15__allocated_ptrIT_ERS9_ = comdat any

$_ZNSt15__allocated_ptrISaISt23_Sp_counted_ptr_inplaceIN19OpenColorIO_v2_4dev20XmlReaderSOPValueEltESaIvELN9__gnu_cxx12_Lock_policyE2EEEE3getEv = comdat any

$_ZNSt23_Sp_counted_ptr_inplaceIN19OpenColorIO_v2_4dev20XmlReaderSOPValueEltESaIvELN9__gnu_cxx12_Lock_policyE2EEC2IJRPKcRSt10shared_ptrINS0_21XmlReaderContainerEltEEjRKNSt7__cxx1112basic_stringIcSt11char_traitsIcESaIcEEEEEES2_DpOT_ = comdat any

$_ZNSt15__allocated_ptrISaISt23_Sp_counted_ptr_inplaceIN19OpenColorIO_v2_4dev20XmlReaderSOPValueEltESaIvELN9__gnu_cxx12_Lock_policyE2EEEEaSEDn = comdat any

$_ZNSt23_Sp_counted_ptr_inplaceIN19OpenColorIO_v2_4dev20XmlReaderSOPValueEltESaIvELN9__gnu_cxx12_Lock_policyE2EE6_M_ptrEv = comdat any

$_ZNSt15__allocated_ptrISaISt23_Sp_counted_ptr_inplaceIN19OpenColorIO_v2_4dev20XmlReaderSOPValueEltESaIvELN9__gnu_cxx12_Lock_policyE2EEEED2Ev = comdat any

$_ZNSaISt23_Sp_counted_ptr_inplaceIN19OpenColorIO_v2_4dev20XmlReaderSOPValueEltESaIvELN9__gnu_cxx12_Lock_policyE2EEED2Ev = comdat any

$_ZNSt15__new_allocatorISt23_Sp_counted_ptr_inplaceIN19OpenColorIO_v2_4dev20XmlReaderSOPValueEltESaIvELN9__gnu_cxx12_Lock_policyE2EEEC2Ev = comdat any

$_ZNSt16allocator_traitsISaISt23_Sp_counted_ptr_inplaceIN19OpenColorIO_v2_4dev20XmlReaderSOPValueEltESaIvELN9__gnu_cxx12_Lock_policyE2EEEE8allocateERS7_m = comdat any

$_ZNSt15__allocated_ptrISaISt23_Sp_counted_ptr_inplaceIN19OpenColorIO_v2_4dev20XmlReaderSOPValueEltESaIvELN9__gnu_cxx12_Lock_policyE2EEEEC2ERS7_PS6_ = comdat any

$_ZNSt15__new_allocatorISt23_Sp_counted_ptr_inplaceIN19OpenColorIO_v2_4dev20XmlReaderSOPValueEltESaIvELN9__gnu_cxx12_Lock_policyE2EEE8allocateEmPKv = comdat any

$_ZNKSt15__new_allocatorISt23_Sp_counted_ptr_inplaceIN19OpenColorIO_v2_4dev20XmlReaderSOPValueEltESaIvELN9__gnu_cxx12_Lock_policyE2EEE11_M_max_sizeEv = comdat any

$_ZSt12__to_addressISt23_Sp_counted_ptr_inplaceIN19OpenColorIO_v2_4dev20XmlReaderSOPValueEltESaIvELN9__gnu_cxx12_Lock_policyE2EEEPT_S8_ = comdat any

$_ZNSt23_Sp_counted_ptr_inplaceIN19OpenColorIO_v2_4dev20XmlReaderSOPValueEltESaIvELN9__gnu_cxx12_Lock_policyE2EE5_ImplC2ES2_ = comdat any

$_ZNSt16allocator_traitsISaIvEE9constructIN19OpenColorIO_v2_4dev20XmlReaderSOPValueEltEJRPKcRSt10shared_ptrINS3_21XmlReaderContainerEltEEjRKNSt7__cxx1112basic_stringIcSt11char_traitsIcESaIcEEEEEEvRS0_PT_DpOT0_ = comdat any

$_ZNSt23_Sp_counted_ptr_inplaceIN19OpenColorIO_v2_4dev20XmlReaderSOPValueEltESaIvELN9__gnu_cxx12_Lock_policyE2EED2Ev = comdat any

$_ZNSt23_Sp_counted_ptr_inplaceIN19OpenColorIO_v2_4dev20XmlReaderSOPValueEltESaIvELN9__gnu_cxx12_Lock_policyE2EED0Ev = comdat any

$_ZNSt23_Sp_counted_ptr_inplaceIN19OpenColorIO_v2_4dev20XmlReaderSOPValueEltESaIvELN9__gnu_cxx12_Lock_policyE2EE10_M_disposeEv = comdat any

$_ZNSt23_Sp_counted_ptr_inplaceIN19OpenColorIO_v2_4dev20XmlReaderSOPValueEltESaIvELN9__gnu_cxx12_Lock_policyE2EE10_M_destroyEv = comdat any

$_ZNSt23_Sp_counted_ptr_inplaceIN19OpenColorIO_v2_4dev20XmlReaderSOPValueEltESaIvELN9__gnu_cxx12_Lock_policyE2EE14_M_get_deleterERKSt9type_info = comdat any

$_ZSt10_ConstructIN19OpenColorIO_v2_4dev20XmlReaderSOPValueEltEJRPKcRSt10shared_ptrINS0_21XmlReaderContainerEltEEjRKNSt7__cxx1112basic_stringIcSt11char_traitsIcESaIcEEEEEvPT_DpOT0_ = comdat any

$_ZNSt16allocator_traitsISaIvEE7destroyIN19OpenColorIO_v2_4dev20XmlReaderSOPValueEltEEEvRS0_PT_ = comdat any

$_ZNSt23_Sp_counted_ptr_inplaceIN19OpenColorIO_v2_4dev20XmlReaderSOPValueEltESaIvELN9__gnu_cxx12_Lock_policyE2EE5_Impl8_M_allocEv = comdat any

$_ZSt8_DestroyIN19OpenColorIO_v2_4dev20XmlReaderSOPValueEltEEvPT_ = comdat any

$_ZN9__gnu_cxx16__aligned_bufferIN19OpenColorIO_v2_4dev20XmlReaderSOPValueEltEE6_M_ptrEv = comdat any

$_ZN9__gnu_cxx16__aligned_bufferIN19OpenColorIO_v2_4dev20XmlReaderSOPValueEltEE7_M_addrEv = comdat any

$_ZNSt16allocator_traitsISaISt23_Sp_counted_ptr_inplaceIN19OpenColorIO_v2_4dev20XmlReaderSOPValueEltESaIvELN9__gnu_cxx12_Lock_policyE2EEEE10deallocateERS7_PS6_m = comdat any

$_ZNSt15__new_allocatorISt23_Sp_counted_ptr_inplaceIN19OpenColorIO_v2_4dev20XmlReaderSOPValueEltESaIvELN9__gnu_cxx12_Lock_policyE2EEE10deallocateEPS6_m = comdat any

$_ZNSt15__new_allocatorISt23_Sp_counted_ptr_inplaceIN19OpenColorIO_v2_4dev20XmlReaderSOPValueEltESaIvELN9__gnu_cxx12_Lock_policyE2EEED2Ev = comdat any

$_ZNSt12__shared_ptrIN19OpenColorIO_v2_4dev16XmlReaderElementELN9__gnu_cxx12_Lock_policyE2EEC2INS0_20XmlReaderSOPValueEltEvEEOS_IT_LS3_2EE = comdat any

$_ZNSt12__shared_ptrIN19OpenColorIO_v2_4dev20XmlReaderSOPValueEltELN9__gnu_cxx12_Lock_policyE2EED2Ev = comdat any

$_ZNSt10shared_ptrIN19OpenColorIO_v2_4dev31CTFReaderGradingPrimaryParamEltEEC2ISaIvEJRPKcRS_INS0_21XmlReaderContainerEltEEjRKNSt7__cxx1112basic_stringIcSt11char_traitsIcESaIcEEEEEESt20_Sp_alloc_shared_tagIT_EDpOT0_ = comdat any

$_ZNSt12__shared_ptrIN19OpenColorIO_v2_4dev31CTFReaderGradingPrimaryParamEltELN9__gnu_cxx12_Lock_policyE2EEC2ISaIvEJRPKcRSt10shared_ptrINS0_21XmlReaderContainerEltEEjRKNSt7__cxx1112basic_stringIcSt11char_traitsIcESaIcEEEEEESt20_Sp_alloc_shared_tagIT_EDpOT0_ = comdat any

$_ZNSt14__shared_countILN9__gnu_cxx12_Lock_policyE2EEC2IN19OpenColorIO_v2_4dev31CTFReaderGradingPrimaryParamEltESaIvEJRPKcRSt10shared_ptrINS4_21XmlReaderContainerEltEEjRKNSt7__cxx1112basic_stringIcSt11char_traitsIcESaIcEEEEEERPT_St20_Sp_alloc_shared_tagIT0_EDpOT1_ = comdat any

$_ZNSt12__shared_ptrIN19OpenColorIO_v2_4dev31CTFReaderGradingPrimaryParamEltELN9__gnu_cxx12_Lock_policyE2EE31_M_enable_shared_from_this_withIS1_S1_EENSt9enable_ifIXntsr15__has_esft_baseIT0_EE5valueEvE4typeEPT_ = comdat any

$_ZNSaISt23_Sp_counted_ptr_inplaceIN19OpenColorIO_v2_4dev31CTFReaderGradingPrimaryParamEltESaIvELN9__gnu_cxx12_Lock_policyE2EEEC2IvEERKSaIT_E = comdat any

$_ZSt18__allocate_guardedISaISt23_Sp_counted_ptr_inplaceIN19OpenColorIO_v2_4dev31CTFReaderGradingPrimaryParamEltESaIvELN9__gnu_cxx12_Lock_policyE2EEEESt15__allocated_ptrIT_ERS9_ = comdat any

$_ZNSt15__allocated_ptrISaISt23_Sp_counted_ptr_inplaceIN19OpenColorIO_v2_4dev31CTFReaderGradingPrimaryParamEltESaIvELN9__gnu_cxx12_Lock_policyE2EEEE3getEv = comdat any

$_ZNSt23_Sp_counted_ptr_inplaceIN19OpenColorIO_v2_4dev31CTFReaderGradingPrimaryParamEltESaIvELN9__gnu_cxx12_Lock_policyE2EEC2IJRPKcRSt10shared_ptrINS0_21XmlReaderContainerEltEEjRKNSt7__cxx1112basic_stringIcSt11char_traitsIcESaIcEEEEEES2_DpOT_ = comdat any

$_ZNSt15__allocated_ptrISaISt23_Sp_counted_ptr_inplaceIN19OpenColorIO_v2_4dev31CTFReaderGradingPrimaryParamEltESaIvELN9__gnu_cxx12_Lock_policyE2EEEEaSEDn = comdat any

$_ZNSt23_Sp_counted_ptr_inplaceIN19OpenColorIO_v2_4dev31CTFReaderGradingPrimaryParamEltESaIvELN9__gnu_cxx12_Lock_policyE2EE6_M_ptrEv = comdat any

$_ZNSt15__allocated_ptrISaISt23_Sp_counted_ptr_inplaceIN19OpenColorIO_v2_4dev31CTFReaderGradingPrimaryParamEltESaIvELN9__gnu_cxx12_Lock_policyE2EEEED2Ev = comdat any

$_ZNSaISt23_Sp_counted_ptr_inplaceIN19OpenColorIO_v2_4dev31CTFReaderGradingPrimaryParamEltESaIvELN9__gnu_cxx12_Lock_policyE2EEED2Ev = comdat any

$_ZNSt15__new_allocatorISt23_Sp_counted_ptr_inplaceIN19OpenColorIO_v2_4dev31CTFReaderGradingPrimaryParamEltESaIvELN9__gnu_cxx12_Lock_policyE2EEEC2Ev = comdat any

$_ZNSt16allocator_traitsISaISt23_Sp_counted_ptr_inplaceIN19OpenColorIO_v2_4dev31CTFReaderGradingPrimaryParamEltESaIvELN9__gnu_cxx12_Lock_policyE2EEEE8allocateERS7_m = comdat any

$_ZNSt15__allocated_ptrISaISt23_Sp_counted_ptr_inplaceIN19OpenColorIO_v2_4dev31CTFReaderGradingPrimaryParamEltESaIvELN9__gnu_cxx12_Lock_policyE2EEEEC2ERS7_PS6_ = comdat any

$_ZNSt15__new_allocatorISt23_Sp_counted_ptr_inplaceIN19OpenColorIO_v2_4dev31CTFReaderGradingPrimaryParamEltESaIvELN9__gnu_cxx12_Lock_policyE2EEE8allocateEmPKv = comdat any

$_ZNKSt15__new_allocatorISt23_Sp_counted_ptr_inplaceIN19OpenColorIO_v2_4dev31CTFReaderGradingPrimaryParamEltESaIvELN9__gnu_cxx12_Lock_policyE2EEE11_M_max_sizeEv = comdat any

$_ZSt12__to_addressISt23_Sp_counted_ptr_inplaceIN19OpenColorIO_v2_4dev31CTFReaderGradingPrimaryParamEltESaIvELN9__gnu_cxx12_Lock_policyE2EEEPT_S8_ = comdat any

$_ZNSt23_Sp_counted_ptr_inplaceIN19OpenColorIO_v2_4dev31CTFReaderGradingPrimaryParamEltESaIvELN9__gnu_cxx12_Lock_policyE2EE5_ImplC2ES2_ = comdat any

$_ZNSt16allocator_traitsISaIvEE9constructIN19OpenColorIO_v2_4dev31CTFReaderGradingPrimaryParamEltEJRPKcRSt10shared_ptrINS3_21XmlReaderContainerEltEEjRKNSt7__cxx1112basic_stringIcSt11char_traitsIcESaIcEEEEEEvRS0_PT_DpOT0_ = comdat any

$_ZNSt23_Sp_counted_ptr_inplaceIN19OpenColorIO_v2_4dev31CTFReaderGradingPrimaryParamEltESaIvELN9__gnu_cxx12_Lock_policyE2EED2Ev = comdat any

$_ZNSt23_Sp_counted_ptr_inplaceIN19OpenColorIO_v2_4dev31CTFReaderGradingPrimaryParamEltESaIvELN9__gnu_cxx12_Lock_policyE2EED0Ev = comdat any

$_ZNSt23_Sp_counted_ptr_inplaceIN19OpenColorIO_v2_4dev31CTFReaderGradingPrimaryParamEltESaIvELN9__gnu_cxx12_Lock_policyE2EE10_M_disposeEv = comdat any

$_ZNSt23_Sp_counted_ptr_inplaceIN19OpenColorIO_v2_4dev31CTFReaderGradingPrimaryParamEltESaIvELN9__gnu_cxx12_Lock_policyE2EE10_M_destroyEv = comdat any

$_ZNSt23_Sp_counted_ptr_inplaceIN19OpenColorIO_v2_4dev31CTFReaderGradingPrimaryParamEltESaIvELN9__gnu_cxx12_Lock_policyE2EE14_M_get_deleterERKSt9type_info = comdat any

$_ZSt10_ConstructIN19OpenColorIO_v2_4dev31CTFReaderGradingPrimaryParamEltEJRPKcRSt10shared_ptrINS0_21XmlReaderContainerEltEEjRKNSt7__cxx1112basic_stringIcSt11char_traitsIcESaIcEEEEEvPT_DpOT0_ = comdat any

$_ZNSt16allocator_traitsISaIvEE7destroyIN19OpenColorIO_v2_4dev31CTFReaderGradingPrimaryParamEltEEEvRS0_PT_ = comdat any

$_ZNSt23_Sp_counted_ptr_inplaceIN19OpenColorIO_v2_4dev31CTFReaderGradingPrimaryParamEltESaIvELN9__gnu_cxx12_Lock_policyE2EE5_Impl8_M_allocEv = comdat any

$_ZSt8_DestroyIN19OpenColorIO_v2_4dev31CTFReaderGradingPrimaryParamEltEEvPT_ = comdat any

$_ZN9__gnu_cxx16__aligned_bufferIN19OpenColorIO_v2_4dev31CTFReaderGradingPrimaryParamEltEE6_M_ptrEv = comdat any

$_ZN9__gnu_cxx16__aligned_bufferIN19OpenColorIO_v2_4dev31CTFReaderGradingPrimaryParamEltEE7_M_addrEv = comdat any

$_ZNSt16allocator_traitsISaISt23_Sp_counted_ptr_inplaceIN19OpenColorIO_v2_4dev31CTFReaderGradingPrimaryParamEltESaIvELN9__gnu_cxx12_Lock_policyE2EEEE10deallocateERS7_PS6_m = comdat any

$_ZNSt15__new_allocatorISt23_Sp_counted_ptr_inplaceIN19OpenColorIO_v2_4dev31CTFReaderGradingPrimaryParamEltESaIvELN9__gnu_cxx12_Lock_policyE2EEE10deallocateEPS6_m = comdat any

$_ZNSt15__new_allocatorISt23_Sp_counted_ptr_inplaceIN19OpenColorIO_v2_4dev31CTFReaderGradingPrimaryParamEltESaIvELN9__gnu_cxx12_Lock_policyE2EEED2Ev = comdat any

$_ZNSt12__shared_ptrIN19OpenColorIO_v2_4dev16XmlReaderElementELN9__gnu_cxx12_Lock_policyE2EEC2INS0_31CTFReaderGradingPrimaryParamEltEvEEOS_IT_LS3_2EE = comdat any

$_ZNSt12__shared_ptrIN19OpenColorIO_v2_4dev31CTFReaderGradingPrimaryParamEltELN9__gnu_cxx12_Lock_policyE2EED2Ev = comdat any

$_ZNSt10shared_ptrIN19OpenColorIO_v2_4dev24CTFReaderGradingCurveEltEEC2ISaIvEJRPKcRS_INS0_21XmlReaderContainerEltEEjRKNSt7__cxx1112basic_stringIcSt11char_traitsIcESaIcEEEEEESt20_Sp_alloc_shared_tagIT_EDpOT0_ = comdat any

$_ZNSt12__shared_ptrIN19OpenColorIO_v2_4dev24CTFReaderGradingCurveEltELN9__gnu_cxx12_Lock_policyE2EEC2ISaIvEJRPKcRSt10shared_ptrINS0_21XmlReaderContainerEltEEjRKNSt7__cxx1112basic_stringIcSt11char_traitsIcESaIcEEEEEESt20_Sp_alloc_shared_tagIT_EDpOT0_ = comdat any

$_ZNSt14__shared_countILN9__gnu_cxx12_Lock_policyE2EEC2IN19OpenColorIO_v2_4dev24CTFReaderGradingCurveEltESaIvEJRPKcRSt10shared_ptrINS4_21XmlReaderContainerEltEEjRKNSt7__cxx1112basic_stringIcSt11char_traitsIcESaIcEEEEEERPT_St20_Sp_alloc_shared_tagIT0_EDpOT1_ = comdat any

$_ZNSt12__shared_ptrIN19OpenColorIO_v2_4dev24CTFReaderGradingCurveEltELN9__gnu_cxx12_Lock_policyE2EE31_M_enable_shared_from_this_withIS1_S1_EENSt9enable_ifIXntsr15__has_esft_baseIT0_EE5valueEvE4typeEPT_ = comdat any

$_ZNSaISt23_Sp_counted_ptr_inplaceIN19OpenColorIO_v2_4dev24CTFReaderGradingCurveEltESaIvELN9__gnu_cxx12_Lock_policyE2EEEC2IvEERKSaIT_E = comdat any

$_ZSt18__allocate_guardedISaISt23_Sp_counted_ptr_inplaceIN19OpenColorIO_v2_4dev24CTFReaderGradingCurveEltESaIvELN9__gnu_cxx12_Lock_policyE2EEEESt15__allocated_ptrIT_ERS9_ = comdat any

$_ZNSt15__allocated_ptrISaISt23_Sp_counted_ptr_inplaceIN19OpenColorIO_v2_4dev24CTFReaderGradingCurveEltESaIvELN9__gnu_cxx12_Lock_policyE2EEEE3getEv = comdat any

$_ZNSt23_Sp_counted_ptr_inplaceIN19OpenColorIO_v2_4dev24CTFReaderGradingCurveEltESaIvELN9__gnu_cxx12_Lock_policyE2EEC2IJRPKcRSt10shared_ptrINS0_21XmlReaderContainerEltEEjRKNSt7__cxx1112basic_stringIcSt11char_traitsIcESaIcEEEEEES2_DpOT_ = comdat any

$_ZNSt15__allocated_ptrISaISt23_Sp_counted_ptr_inplaceIN19OpenColorIO_v2_4dev24CTFReaderGradingCurveEltESaIvELN9__gnu_cxx12_Lock_policyE2EEEEaSEDn = comdat any

$_ZNSt23_Sp_counted_ptr_inplaceIN19OpenColorIO_v2_4dev24CTFReaderGradingCurveEltESaIvELN9__gnu_cxx12_Lock_policyE2EE6_M_ptrEv = comdat any

$_ZNSt15__allocated_ptrISaISt23_Sp_counted_ptr_inplaceIN19OpenColorIO_v2_4dev24CTFReaderGradingCurveEltESaIvELN9__gnu_cxx12_Lock_policyE2EEEED2Ev = comdat any

$_ZNSaISt23_Sp_counted_ptr_inplaceIN19OpenColorIO_v2_4dev24CTFReaderGradingCurveEltESaIvELN9__gnu_cxx12_Lock_policyE2EEED2Ev = comdat any

$_ZNSt15__new_allocatorISt23_Sp_counted_ptr_inplaceIN19OpenColorIO_v2_4dev24CTFReaderGradingCurveEltESaIvELN9__gnu_cxx12_Lock_policyE2EEEC2Ev = comdat any

$_ZNSt16allocator_traitsISaISt23_Sp_counted_ptr_inplaceIN19OpenColorIO_v2_4dev24CTFReaderGradingCurveEltESaIvELN9__gnu_cxx12_Lock_policyE2EEEE8allocateERS7_m = comdat any

$_ZNSt15__allocated_ptrISaISt23_Sp_counted_ptr_inplaceIN19OpenColorIO_v2_4dev24CTFReaderGradingCurveEltESaIvELN9__gnu_cxx12_Lock_policyE2EEEEC2ERS7_PS6_ = comdat any

$_ZNSt15__new_allocatorISt23_Sp_counted_ptr_inplaceIN19OpenColorIO_v2_4dev24CTFReaderGradingCurveEltESaIvELN9__gnu_cxx12_Lock_policyE2EEE8allocateEmPKv = comdat any

$_ZNKSt15__new_allocatorISt23_Sp_counted_ptr_inplaceIN19OpenColorIO_v2_4dev24CTFReaderGradingCurveEltESaIvELN9__gnu_cxx12_Lock_policyE2EEE11_M_max_sizeEv = comdat any

$_ZSt12__to_addressISt23_Sp_counted_ptr_inplaceIN19OpenColorIO_v2_4dev24CTFReaderGradingCurveEltESaIvELN9__gnu_cxx12_Lock_policyE2EEEPT_S8_ = comdat any

$_ZNSt23_Sp_counted_ptr_inplaceIN19OpenColorIO_v2_4dev24CTFReaderGradingCurveEltESaIvELN9__gnu_cxx12_Lock_policyE2EE5_ImplC2ES2_ = comdat any

$_ZNSt16allocator_traitsISaIvEE9constructIN19OpenColorIO_v2_4dev24CTFReaderGradingCurveEltEJRPKcRSt10shared_ptrINS3_21XmlReaderContainerEltEEjRKNSt7__cxx1112basic_stringIcSt11char_traitsIcESaIcEEEEEEvRS0_PT_DpOT0_ = comdat any

$_ZNSt23_Sp_counted_ptr_inplaceIN19OpenColorIO_v2_4dev24CTFReaderGradingCurveEltESaIvELN9__gnu_cxx12_Lock_policyE2EED2Ev = comdat any

$_ZNSt23_Sp_counted_ptr_inplaceIN19OpenColorIO_v2_4dev24CTFReaderGradingCurveEltESaIvELN9__gnu_cxx12_Lock_policyE2EED0Ev = comdat any

$_ZNSt23_Sp_counted_ptr_inplaceIN19OpenColorIO_v2_4dev24CTFReaderGradingCurveEltESaIvELN9__gnu_cxx12_Lock_policyE2EE10_M_disposeEv = comdat any

$_ZNSt23_Sp_counted_ptr_inplaceIN19OpenColorIO_v2_4dev24CTFReaderGradingCurveEltESaIvELN9__gnu_cxx12_Lock_policyE2EE10_M_destroyEv = comdat any

$_ZNSt23_Sp_counted_ptr_inplaceIN19OpenColorIO_v2_4dev24CTFReaderGradingCurveEltESaIvELN9__gnu_cxx12_Lock_policyE2EE14_M_get_deleterERKSt9type_info = comdat any

$_ZSt10_ConstructIN19OpenColorIO_v2_4dev24CTFReaderGradingCurveEltEJRPKcRSt10shared_ptrINS0_21XmlReaderContainerEltEEjRKNSt7__cxx1112basic_stringIcSt11char_traitsIcESaIcEEEEEvPT_DpOT0_ = comdat any

$_ZNSt16allocator_traitsISaIvEE7destroyIN19OpenColorIO_v2_4dev24CTFReaderGradingCurveEltEEEvRS0_PT_ = comdat any

$_ZNSt23_Sp_counted_ptr_inplaceIN19OpenColorIO_v2_4dev24CTFReaderGradingCurveEltESaIvELN9__gnu_cxx12_Lock_policyE2EE5_Impl8_M_allocEv = comdat any

$_ZSt8_DestroyIN19OpenColorIO_v2_4dev24CTFReaderGradingCurveEltEEvPT_ = comdat any

$_ZN9__gnu_cxx16__aligned_bufferIN19OpenColorIO_v2_4dev24CTFReaderGradingCurveEltEE6_M_ptrEv = comdat any

$_ZN9__gnu_cxx16__aligned_bufferIN19OpenColorIO_v2_4dev24CTFReaderGradingCurveEltEE7_M_addrEv = comdat any

$_ZNSt16allocator_traitsISaISt23_Sp_counted_ptr_inplaceIN19OpenColorIO_v2_4dev24CTFReaderGradingCurveEltESaIvELN9__gnu_cxx12_Lock_policyE2EEEE10deallocateERS7_PS6_m = comdat any

$_ZNSt15__new_allocatorISt23_Sp_counted_ptr_inplaceIN19OpenColorIO_v2_4dev24CTFReaderGradingCurveEltESaIvELN9__gnu_cxx12_Lock_policyE2EEE10deallocateEPS6_m = comdat any

$_ZNSt15__new_allocatorISt23_Sp_counted_ptr_inplaceIN19OpenColorIO_v2_4dev24CTFReaderGradingCurveEltESaIvELN9__gnu_cxx12_Lock_policyE2EEED2Ev = comdat any

$_ZNSt12__shared_ptrIN19OpenColorIO_v2_4dev16XmlReaderElementELN9__gnu_cxx12_Lock_policyE2EEC2INS0_24CTFReaderGradingCurveEltEvEEOS_IT_LS3_2EE = comdat any

$_ZNSt12__shared_ptrIN19OpenColorIO_v2_4dev24CTFReaderGradingCurveEltELN9__gnu_cxx12_Lock_policyE2EED2Ev = comdat any

$_ZNSt10shared_ptrIN19OpenColorIO_v2_4dev30CTFReaderGradingCurvePointsEltEEC2ISaIvEJRPKcRS_INS0_21XmlReaderContainerEltEEjRKNSt7__cxx1112basic_stringIcSt11char_traitsIcESaIcEEEEEESt20_Sp_alloc_shared_tagIT_EDpOT0_ = comdat any

$_ZNSt12__shared_ptrIN19OpenColorIO_v2_4dev30CTFReaderGradingCurvePointsEltELN9__gnu_cxx12_Lock_policyE2EEC2ISaIvEJRPKcRSt10shared_ptrINS0_21XmlReaderContainerEltEEjRKNSt7__cxx1112basic_stringIcSt11char_traitsIcESaIcEEEEEESt20_Sp_alloc_shared_tagIT_EDpOT0_ = comdat any

$_ZNSt14__shared_countILN9__gnu_cxx12_Lock_policyE2EEC2IN19OpenColorIO_v2_4dev30CTFReaderGradingCurvePointsEltESaIvEJRPKcRSt10shared_ptrINS4_21XmlReaderContainerEltEEjRKNSt7__cxx1112basic_stringIcSt11char_traitsIcESaIcEEEEEERPT_St20_Sp_alloc_shared_tagIT0_EDpOT1_ = comdat any

$_ZNSt12__shared_ptrIN19OpenColorIO_v2_4dev30CTFReaderGradingCurvePointsEltELN9__gnu_cxx12_Lock_policyE2EE31_M_enable_shared_from_this_withIS1_S1_EENSt9enable_ifIXntsr15__has_esft_baseIT0_EE5valueEvE4typeEPT_ = comdat any

$_ZNSaISt23_Sp_counted_ptr_inplaceIN19OpenColorIO_v2_4dev30CTFReaderGradingCurvePointsEltESaIvELN9__gnu_cxx12_Lock_policyE2EEEC2IvEERKSaIT_E = comdat any

$_ZSt18__allocate_guardedISaISt23_Sp_counted_ptr_inplaceIN19OpenColorIO_v2_4dev30CTFReaderGradingCurvePointsEltESaIvELN9__gnu_cxx12_Lock_policyE2EEEESt15__allocated_ptrIT_ERS9_ = comdat any

$_ZNSt15__allocated_ptrISaISt23_Sp_counted_ptr_inplaceIN19OpenColorIO_v2_4dev30CTFReaderGradingCurvePointsEltESaIvELN9__gnu_cxx12_Lock_policyE2EEEE3getEv = comdat any

$_ZNSt23_Sp_counted_ptr_inplaceIN19OpenColorIO_v2_4dev30CTFReaderGradingCurvePointsEltESaIvELN9__gnu_cxx12_Lock_policyE2EEC2IJRPKcRSt10shared_ptrINS0_21XmlReaderContainerEltEEjRKNSt7__cxx1112basic_stringIcSt11char_traitsIcESaIcEEEEEES2_DpOT_ = comdat any

$_ZNSt15__allocated_ptrISaISt23_Sp_counted_ptr_inplaceIN19OpenColorIO_v2_4dev30CTFReaderGradingCurvePointsEltESaIvELN9__gnu_cxx12_Lock_policyE2EEEEaSEDn = comdat any

$_ZNSt23_Sp_counted_ptr_inplaceIN19OpenColorIO_v2_4dev30CTFReaderGradingCurvePointsEltESaIvELN9__gnu_cxx12_Lock_policyE2EE6_M_ptrEv = comdat any

$_ZNSt15__allocated_ptrISaISt23_Sp_counted_ptr_inplaceIN19OpenColorIO_v2_4dev30CTFReaderGradingCurvePointsEltESaIvELN9__gnu_cxx12_Lock_policyE2EEEED2Ev = comdat any

$_ZNSaISt23_Sp_counted_ptr_inplaceIN19OpenColorIO_v2_4dev30CTFReaderGradingCurvePointsEltESaIvELN9__gnu_cxx12_Lock_policyE2EEED2Ev = comdat any

$_ZNSt15__new_allocatorISt23_Sp_counted_ptr_inplaceIN19OpenColorIO_v2_4dev30CTFReaderGradingCurvePointsEltESaIvELN9__gnu_cxx12_Lock_policyE2EEEC2Ev = comdat any

$_ZNSt16allocator_traitsISaISt23_Sp_counted_ptr_inplaceIN19OpenColorIO_v2_4dev30CTFReaderGradingCurvePointsEltESaIvELN9__gnu_cxx12_Lock_policyE2EEEE8allocateERS7_m = comdat any

$_ZNSt15__allocated_ptrISaISt23_Sp_counted_ptr_inplaceIN19OpenColorIO_v2_4dev30CTFReaderGradingCurvePointsEltESaIvELN9__gnu_cxx12_Lock_policyE2EEEEC2ERS7_PS6_ = comdat any

$_ZNSt15__new_allocatorISt23_Sp_counted_ptr_inplaceIN19OpenColorIO_v2_4dev30CTFReaderGradingCurvePointsEltESaIvELN9__gnu_cxx12_Lock_policyE2EEE8allocateEmPKv = comdat any

$_ZNKSt15__new_allocatorISt23_Sp_counted_ptr_inplaceIN19OpenColorIO_v2_4dev30CTFReaderGradingCurvePointsEltESaIvELN9__gnu_cxx12_Lock_policyE2EEE11_M_max_sizeEv = comdat any

$_ZSt12__to_addressISt23_Sp_counted_ptr_inplaceIN19OpenColorIO_v2_4dev30CTFReaderGradingCurvePointsEltESaIvELN9__gnu_cxx12_Lock_policyE2EEEPT_S8_ = comdat any

$_ZNSt23_Sp_counted_ptr_inplaceIN19OpenColorIO_v2_4dev30CTFReaderGradingCurvePointsEltESaIvELN9__gnu_cxx12_Lock_policyE2EE5_ImplC2ES2_ = comdat any

$_ZNSt16allocator_traitsISaIvEE9constructIN19OpenColorIO_v2_4dev30CTFReaderGradingCurvePointsEltEJRPKcRSt10shared_ptrINS3_21XmlReaderContainerEltEEjRKNSt7__cxx1112basic_stringIcSt11char_traitsIcESaIcEEEEEEvRS0_PT_DpOT0_ = comdat any

$_ZNSt23_Sp_counted_ptr_inplaceIN19OpenColorIO_v2_4dev30CTFReaderGradingCurvePointsEltESaIvELN9__gnu_cxx12_Lock_policyE2EED2Ev = comdat any

$_ZNSt23_Sp_counted_ptr_inplaceIN19OpenColorIO_v2_4dev30CTFReaderGradingCurvePointsEltESaIvELN9__gnu_cxx12_Lock_policyE2EED0Ev = comdat any

$_ZNSt23_Sp_counted_ptr_inplaceIN19OpenColorIO_v2_4dev30CTFReaderGradingCurvePointsEltESaIvELN9__gnu_cxx12_Lock_policyE2EE10_M_disposeEv = comdat any

$_ZNSt23_Sp_counted_ptr_inplaceIN19OpenColorIO_v2_4dev30CTFReaderGradingCurvePointsEltESaIvELN9__gnu_cxx12_Lock_policyE2EE10_M_destroyEv = comdat any

$_ZNSt23_Sp_counted_ptr_inplaceIN19OpenColorIO_v2_4dev30CTFReaderGradingCurvePointsEltESaIvELN9__gnu_cxx12_Lock_policyE2EE14_M_get_deleterERKSt9type_info = comdat any

$_ZSt10_ConstructIN19OpenColorIO_v2_4dev30CTFReaderGradingCurvePointsEltEJRPKcRSt10shared_ptrINS0_21XmlReaderContainerEltEEjRKNSt7__cxx1112basic_stringIcSt11char_traitsIcESaIcEEEEEvPT_DpOT0_ = comdat any

$_ZNSt16allocator_traitsISaIvEE7destroyIN19OpenColorIO_v2_4dev30CTFReaderGradingCurvePointsEltEEEvRS0_PT_ = comdat any

$_ZNSt23_Sp_counted_ptr_inplaceIN19OpenColorIO_v2_4dev30CTFReaderGradingCurvePointsEltESaIvELN9__gnu_cxx12_Lock_policyE2EE5_Impl8_M_allocEv = comdat any

$_ZSt8_DestroyIN19OpenColorIO_v2_4dev30CTFReaderGradingCurvePointsEltEEvPT_ = comdat any

$_ZN9__gnu_cxx16__aligned_bufferIN19OpenColorIO_v2_4dev30CTFReaderGradingCurvePointsEltEE6_M_ptrEv = comdat any

$_ZN9__gnu_cxx16__aligned_bufferIN19OpenColorIO_v2_4dev30CTFReaderGradingCurvePointsEltEE7_M_addrEv = comdat any

$_ZNSt16allocator_traitsISaISt23_Sp_counted_ptr_inplaceIN19OpenColorIO_v2_4dev30CTFReaderGradingCurvePointsEltESaIvELN9__gnu_cxx12_Lock_policyE2EEEE10deallocateERS7_PS6_m = comdat any

$_ZNSt15__new_allocatorISt23_Sp_counted_ptr_inplaceIN19OpenColorIO_v2_4dev30CTFReaderGradingCurvePointsEltESaIvELN9__gnu_cxx12_Lock_policyE2EEE10deallocateEPS6_m = comdat any

$_ZNSt15__new_allocatorISt23_Sp_counted_ptr_inplaceIN19OpenColorIO_v2_4dev30CTFReaderGradingCurvePointsEltESaIvELN9__gnu_cxx12_Lock_policyE2EEED2Ev = comdat any

$_ZNSt12__shared_ptrIN19OpenColorIO_v2_4dev16XmlReaderElementELN9__gnu_cxx12_Lock_policyE2EEC2INS0_30CTFReaderGradingCurvePointsEltEvEEOS_IT_LS3_2EE = comdat any

$_ZNSt12__shared_ptrIN19OpenColorIO_v2_4dev30CTFReaderGradingCurvePointsEltELN9__gnu_cxx12_Lock_policyE2EED2Ev = comdat any

$_ZNSt10shared_ptrIN19OpenColorIO_v2_4dev30CTFReaderGradingCurveSlopesEltEEC2ISaIvEJRPKcRS_INS0_21XmlReaderContainerEltEEjRKNSt7__cxx1112basic_stringIcSt11char_traitsIcESaIcEEEEEESt20_Sp_alloc_shared_tagIT_EDpOT0_ = comdat any

$_ZNSt12__shared_ptrIN19OpenColorIO_v2_4dev30CTFReaderGradingCurveSlopesEltELN9__gnu_cxx12_Lock_policyE2EEC2ISaIvEJRPKcRSt10shared_ptrINS0_21XmlReaderContainerEltEEjRKNSt7__cxx1112basic_stringIcSt11char_traitsIcESaIcEEEEEESt20_Sp_alloc_shared_tagIT_EDpOT0_ = comdat any

$_ZNSt14__shared_countILN9__gnu_cxx12_Lock_policyE2EEC2IN19OpenColorIO_v2_4dev30CTFReaderGradingCurveSlopesEltESaIvEJRPKcRSt10shared_ptrINS4_21XmlReaderContainerEltEEjRKNSt7__cxx1112basic_stringIcSt11char_traitsIcESaIcEEEEEERPT_St20_Sp_alloc_shared_tagIT0_EDpOT1_ = comdat any

$_ZNSt12__shared_ptrIN19OpenColorIO_v2_4dev30CTFReaderGradingCurveSlopesEltELN9__gnu_cxx12_Lock_policyE2EE31_M_enable_shared_from_this_withIS1_S1_EENSt9enable_ifIXntsr15__has_esft_baseIT0_EE5valueEvE4typeEPT_ = comdat any

$_ZNSaISt23_Sp_counted_ptr_inplaceIN19OpenColorIO_v2_4dev30CTFReaderGradingCurveSlopesEltESaIvELN9__gnu_cxx12_Lock_policyE2EEEC2IvEERKSaIT_E = comdat any

$_ZSt18__allocate_guardedISaISt23_Sp_counted_ptr_inplaceIN19OpenColorIO_v2_4dev30CTFReaderGradingCurveSlopesEltESaIvELN9__gnu_cxx12_Lock_policyE2EEEESt15__allocated_ptrIT_ERS9_ = comdat any

$_ZNSt15__allocated_ptrISaISt23_Sp_counted_ptr_inplaceIN19OpenColorIO_v2_4dev30CTFReaderGradingCurveSlopesEltESaIvELN9__gnu_cxx12_Lock_policyE2EEEE3getEv = comdat any

$_ZNSt23_Sp_counted_ptr_inplaceIN19OpenColorIO_v2_4dev30CTFReaderGradingCurveSlopesEltESaIvELN9__gnu_cxx12_Lock_policyE2EEC2IJRPKcRSt10shared_ptrINS0_21XmlReaderContainerEltEEjRKNSt7__cxx1112basic_stringIcSt11char_traitsIcESaIcEEEEEES2_DpOT_ = comdat any

$_ZNSt15__allocated_ptrISaISt23_Sp_counted_ptr_inplaceIN19OpenColorIO_v2_4dev30CTFReaderGradingCurveSlopesEltESaIvELN9__gnu_cxx12_Lock_policyE2EEEEaSEDn = comdat any

$_ZNSt23_Sp_counted_ptr_inplaceIN19OpenColorIO_v2_4dev30CTFReaderGradingCurveSlopesEltESaIvELN9__gnu_cxx12_Lock_policyE2EE6_M_ptrEv = comdat any

$_ZNSt15__allocated_ptrISaISt23_Sp_counted_ptr_inplaceIN19OpenColorIO_v2_4dev30CTFReaderGradingCurveSlopesEltESaIvELN9__gnu_cxx12_Lock_policyE2EEEED2Ev = comdat any

$_ZNSaISt23_Sp_counted_ptr_inplaceIN19OpenColorIO_v2_4dev30CTFReaderGradingCurveSlopesEltESaIvELN9__gnu_cxx12_Lock_policyE2EEED2Ev = comdat any

$_ZNSt15__new_allocatorISt23_Sp_counted_ptr_inplaceIN19OpenColorIO_v2_4dev30CTFReaderGradingCurveSlopesEltESaIvELN9__gnu_cxx12_Lock_policyE2EEEC2Ev = comdat any

$_ZNSt16allocator_traitsISaISt23_Sp_counted_ptr_inplaceIN19OpenColorIO_v2_4dev30CTFReaderGradingCurveSlopesEltESaIvELN9__gnu_cxx12_Lock_policyE2EEEE8allocateERS7_m = comdat any

$_ZNSt15__allocated_ptrISaISt23_Sp_counted_ptr_inplaceIN19OpenColorIO_v2_4dev30CTFReaderGradingCurveSlopesEltESaIvELN9__gnu_cxx12_Lock_policyE2EEEEC2ERS7_PS6_ = comdat any

$_ZNSt15__new_allocatorISt23_Sp_counted_ptr_inplaceIN19OpenColorIO_v2_4dev30CTFReaderGradingCurveSlopesEltESaIvELN9__gnu_cxx12_Lock_policyE2EEE8allocateEmPKv = comdat any

$_ZNKSt15__new_allocatorISt23_Sp_counted_ptr_inplaceIN19OpenColorIO_v2_4dev30CTFReaderGradingCurveSlopesEltESaIvELN9__gnu_cxx12_Lock_policyE2EEE11_M_max_sizeEv = comdat any

$_ZSt12__to_addressISt23_Sp_counted_ptr_inplaceIN19OpenColorIO_v2_4dev30CTFReaderGradingCurveSlopesEltESaIvELN9__gnu_cxx12_Lock_policyE2EEEPT_S8_ = comdat any

$_ZNSt23_Sp_counted_ptr_inplaceIN19OpenColorIO_v2_4dev30CTFReaderGradingCurveSlopesEltESaIvELN9__gnu_cxx12_Lock_policyE2EE5_ImplC2ES2_ = comdat any

$_ZNSt16allocator_traitsISaIvEE9constructIN19OpenColorIO_v2_4dev30CTFReaderGradingCurveSlopesEltEJRPKcRSt10shared_ptrINS3_21XmlReaderContainerEltEEjRKNSt7__cxx1112basic_stringIcSt11char_traitsIcESaIcEEEEEEvRS0_PT_DpOT0_ = comdat any

$_ZNSt23_Sp_counted_ptr_inplaceIN19OpenColorIO_v2_4dev30CTFReaderGradingCurveSlopesEltESaIvELN9__gnu_cxx12_Lock_policyE2EED2Ev = comdat any

$_ZNSt23_Sp_counted_ptr_inplaceIN19OpenColorIO_v2_4dev30CTFReaderGradingCurveSlopesEltESaIvELN9__gnu_cxx12_Lock_policyE2EED0Ev = comdat any

$_ZNSt23_Sp_counted_ptr_inplaceIN19OpenColorIO_v2_4dev30CTFReaderGradingCurveSlopesEltESaIvELN9__gnu_cxx12_Lock_policyE2EE10_M_disposeEv = comdat any

$_ZNSt23_Sp_counted_ptr_inplaceIN19OpenColorIO_v2_4dev30CTFReaderGradingCurveSlopesEltESaIvELN9__gnu_cxx12_Lock_policyE2EE10_M_destroyEv = comdat any

$_ZNSt23_Sp_counted_ptr_inplaceIN19OpenColorIO_v2_4dev30CTFReaderGradingCurveSlopesEltESaIvELN9__gnu_cxx12_Lock_policyE2EE14_M_get_deleterERKSt9type_info = comdat any

$_ZSt10_ConstructIN19OpenColorIO_v2_4dev30CTFReaderGradingCurveSlopesEltEJRPKcRSt10shared_ptrINS0_21XmlReaderContainerEltEEjRKNSt7__cxx1112basic_stringIcSt11char_traitsIcESaIcEEEEEvPT_DpOT0_ = comdat any

$_ZNSt16allocator_traitsISaIvEE7destroyIN19OpenColorIO_v2_4dev30CTFReaderGradingCurveSlopesEltEEEvRS0_PT_ = comdat any

$_ZNSt23_Sp_counted_ptr_inplaceIN19OpenColorIO_v2_4dev30CTFReaderGradingCurveSlopesEltESaIvELN9__gnu_cxx12_Lock_policyE2EE5_Impl8_M_allocEv = comdat any

$_ZSt8_DestroyIN19OpenColorIO_v2_4dev30CTFReaderGradingCurveSlopesEltEEvPT_ = comdat any

$_ZN9__gnu_cxx16__aligned_bufferIN19OpenColorIO_v2_4dev30CTFReaderGradingCurveSlopesEltEE6_M_ptrEv = comdat any

$_ZN9__gnu_cxx16__aligned_bufferIN19OpenColorIO_v2_4dev30CTFReaderGradingCurveSlopesEltEE7_M_addrEv = comdat any

$_ZNSt16allocator_traitsISaISt23_Sp_counted_ptr_inplaceIN19OpenColorIO_v2_4dev30CTFReaderGradingCurveSlopesEltESaIvELN9__gnu_cxx12_Lock_policyE2EEEE10deallocateERS7_PS6_m = comdat any

$_ZNSt15__new_allocatorISt23_Sp_counted_ptr_inplaceIN19OpenColorIO_v2_4dev30CTFReaderGradingCurveSlopesEltESaIvELN9__gnu_cxx12_Lock_policyE2EEE10deallocateEPS6_m = comdat any

$_ZNSt15__new_allocatorISt23_Sp_counted_ptr_inplaceIN19OpenColorIO_v2_4dev30CTFReaderGradingCurveSlopesEltESaIvELN9__gnu_cxx12_Lock_policyE2EEED2Ev = comdat any

$_ZNSt12__shared_ptrIN19OpenColorIO_v2_4dev16XmlReaderElementELN9__gnu_cxx12_Lock_policyE2EEC2INS0_30CTFReaderGradingCurveSlopesEltEvEEOS_IT_LS3_2EE = comdat any

$_ZNSt12__shared_ptrIN19OpenColorIO_v2_4dev30CTFReaderGradingCurveSlopesEltELN9__gnu_cxx12_Lock_policyE2EED2Ev = comdat any

$_ZNSt10shared_ptrIN19OpenColorIO_v2_4dev28CTFReaderGradingToneParamEltEEC2ISaIvEJRPKcRS_INS0_21XmlReaderContainerEltEEjRKNSt7__cxx1112basic_stringIcSt11char_traitsIcESaIcEEEEEESt20_Sp_alloc_shared_tagIT_EDpOT0_ = comdat any

$_ZNSt12__shared_ptrIN19OpenColorIO_v2_4dev28CTFReaderGradingToneParamEltELN9__gnu_cxx12_Lock_policyE2EEC2ISaIvEJRPKcRSt10shared_ptrINS0_21XmlReaderContainerEltEEjRKNSt7__cxx1112basic_stringIcSt11char_traitsIcESaIcEEEEEESt20_Sp_alloc_shared_tagIT_EDpOT0_ = comdat any

$_ZNSt14__shared_countILN9__gnu_cxx12_Lock_policyE2EEC2IN19OpenColorIO_v2_4dev28CTFReaderGradingToneParamEltESaIvEJRPKcRSt10shared_ptrINS4_21XmlReaderContainerEltEEjRKNSt7__cxx1112basic_stringIcSt11char_traitsIcESaIcEEEEEERPT_St20_Sp_alloc_shared_tagIT0_EDpOT1_ = comdat any

$_ZNSt12__shared_ptrIN19OpenColorIO_v2_4dev28CTFReaderGradingToneParamEltELN9__gnu_cxx12_Lock_policyE2EE31_M_enable_shared_from_this_withIS1_S1_EENSt9enable_ifIXntsr15__has_esft_baseIT0_EE5valueEvE4typeEPT_ = comdat any

$_ZNSaISt23_Sp_counted_ptr_inplaceIN19OpenColorIO_v2_4dev28CTFReaderGradingToneParamEltESaIvELN9__gnu_cxx12_Lock_policyE2EEEC2IvEERKSaIT_E = comdat any

$_ZSt18__allocate_guardedISaISt23_Sp_counted_ptr_inplaceIN19OpenColorIO_v2_4dev28CTFReaderGradingToneParamEltESaIvELN9__gnu_cxx12_Lock_policyE2EEEESt15__allocated_ptrIT_ERS9_ = comdat any

$_ZNSt15__allocated_ptrISaISt23_Sp_counted_ptr_inplaceIN19OpenColorIO_v2_4dev28CTFReaderGradingToneParamEltESaIvELN9__gnu_cxx12_Lock_policyE2EEEE3getEv = comdat any

$_ZNSt23_Sp_counted_ptr_inplaceIN19OpenColorIO_v2_4dev28CTFReaderGradingToneParamEltESaIvELN9__gnu_cxx12_Lock_policyE2EEC2IJRPKcRSt10shared_ptrINS0_21XmlReaderContainerEltEEjRKNSt7__cxx1112basic_stringIcSt11char_traitsIcESaIcEEEEEES2_DpOT_ = comdat any

$_ZNSt15__allocated_ptrISaISt23_Sp_counted_ptr_inplaceIN19OpenColorIO_v2_4dev28CTFReaderGradingToneParamEltESaIvELN9__gnu_cxx12_Lock_policyE2EEEEaSEDn = comdat any

$_ZNSt23_Sp_counted_ptr_inplaceIN19OpenColorIO_v2_4dev28CTFReaderGradingToneParamEltESaIvELN9__gnu_cxx12_Lock_policyE2EE6_M_ptrEv = comdat any

$_ZNSt15__allocated_ptrISaISt23_Sp_counted_ptr_inplaceIN19OpenColorIO_v2_4dev28CTFReaderGradingToneParamEltESaIvELN9__gnu_cxx12_Lock_policyE2EEEED2Ev = comdat any

$_ZNSaISt23_Sp_counted_ptr_inplaceIN19OpenColorIO_v2_4dev28CTFReaderGradingToneParamEltESaIvELN9__gnu_cxx12_Lock_policyE2EEED2Ev = comdat any

$_ZNSt15__new_allocatorISt23_Sp_counted_ptr_inplaceIN19OpenColorIO_v2_4dev28CTFReaderGradingToneParamEltESaIvELN9__gnu_cxx12_Lock_policyE2EEEC2Ev = comdat any

$_ZNSt16allocator_traitsISaISt23_Sp_counted_ptr_inplaceIN19OpenColorIO_v2_4dev28CTFReaderGradingToneParamEltESaIvELN9__gnu_cxx12_Lock_policyE2EEEE8allocateERS7_m = comdat any

$_ZNSt15__allocated_ptrISaISt23_Sp_counted_ptr_inplaceIN19OpenColorIO_v2_4dev28CTFReaderGradingToneParamEltESaIvELN9__gnu_cxx12_Lock_policyE2EEEEC2ERS7_PS6_ = comdat any

$_ZNSt15__new_allocatorISt23_Sp_counted_ptr_inplaceIN19OpenColorIO_v2_4dev28CTFReaderGradingToneParamEltESaIvELN9__gnu_cxx12_Lock_policyE2EEE8allocateEmPKv = comdat any

$_ZNKSt15__new_allocatorISt23_Sp_counted_ptr_inplaceIN19OpenColorIO_v2_4dev28CTFReaderGradingToneParamEltESaIvELN9__gnu_cxx12_Lock_policyE2EEE11_M_max_sizeEv = comdat any

$_ZSt12__to_addressISt23_Sp_counted_ptr_inplaceIN19OpenColorIO_v2_4dev28CTFReaderGradingToneParamEltESaIvELN9__gnu_cxx12_Lock_policyE2EEEPT_S8_ = comdat any

$_ZNSt23_Sp_counted_ptr_inplaceIN19OpenColorIO_v2_4dev28CTFReaderGradingToneParamEltESaIvELN9__gnu_cxx12_Lock_policyE2EE5_ImplC2ES2_ = comdat any

$_ZNSt16allocator_traitsISaIvEE9constructIN19OpenColorIO_v2_4dev28CTFReaderGradingToneParamEltEJRPKcRSt10shared_ptrINS3_21XmlReaderContainerEltEEjRKNSt7__cxx1112basic_stringIcSt11char_traitsIcESaIcEEEEEEvRS0_PT_DpOT0_ = comdat any

$_ZNSt23_Sp_counted_ptr_inplaceIN19OpenColorIO_v2_4dev28CTFReaderGradingToneParamEltESaIvELN9__gnu_cxx12_Lock_policyE2EED2Ev = comdat any

$_ZNSt23_Sp_counted_ptr_inplaceIN19OpenColorIO_v2_4dev28CTFReaderGradingToneParamEltESaIvELN9__gnu_cxx12_Lock_policyE2EED0Ev = comdat any

$_ZNSt23_Sp_counted_ptr_inplaceIN19OpenColorIO_v2_4dev28CTFReaderGradingToneParamEltESaIvELN9__gnu_cxx12_Lock_policyE2EE10_M_disposeEv = comdat any

$_ZNSt23_Sp_counted_ptr_inplaceIN19OpenColorIO_v2_4dev28CTFReaderGradingToneParamEltESaIvELN9__gnu_cxx12_Lock_policyE2EE10_M_destroyEv = comdat any

$_ZNSt23_Sp_counted_ptr_inplaceIN19OpenColorIO_v2_4dev28CTFReaderGradingToneParamEltESaIvELN9__gnu_cxx12_Lock_policyE2EE14_M_get_deleterERKSt9type_info = comdat any

$_ZSt10_ConstructIN19OpenColorIO_v2_4dev28CTFReaderGradingToneParamEltEJRPKcRSt10shared_ptrINS0_21XmlReaderContainerEltEEjRKNSt7__cxx1112basic_stringIcSt11char_traitsIcESaIcEEEEEvPT_DpOT0_ = comdat any

$_ZNSt16allocator_traitsISaIvEE7destroyIN19OpenColorIO_v2_4dev28CTFReaderGradingToneParamEltEEEvRS0_PT_ = comdat any

$_ZNSt23_Sp_counted_ptr_inplaceIN19OpenColorIO_v2_4dev28CTFReaderGradingToneParamEltESaIvELN9__gnu_cxx12_Lock_policyE2EE5_Impl8_M_allocEv = comdat any

$_ZSt8_DestroyIN19OpenColorIO_v2_4dev28CTFReaderGradingToneParamEltEEvPT_ = comdat any

$_ZN9__gnu_cxx16__aligned_bufferIN19OpenColorIO_v2_4dev28CTFReaderGradingToneParamEltEE6_M_ptrEv = comdat any

$_ZN9__gnu_cxx16__aligned_bufferIN19OpenColorIO_v2_4dev28CTFReaderGradingToneParamEltEE7_M_addrEv = comdat any

$_ZNSt16allocator_traitsISaISt23_Sp_counted_ptr_inplaceIN19OpenColorIO_v2_4dev28CTFReaderGradingToneParamEltESaIvELN9__gnu_cxx12_Lock_policyE2EEEE10deallocateERS7_PS6_m = comdat any

$_ZNSt15__new_allocatorISt23_Sp_counted_ptr_inplaceIN19OpenColorIO_v2_4dev28CTFReaderGradingToneParamEltESaIvELN9__gnu_cxx12_Lock_policyE2EEE10deallocateEPS6_m = comdat any

$_ZNSt15__new_allocatorISt23_Sp_counted_ptr_inplaceIN19OpenColorIO_v2_4dev28CTFReaderGradingToneParamEltESaIvELN9__gnu_cxx12_Lock_policyE2EEED2Ev = comdat any

$_ZNSt12__shared_ptrIN19OpenColorIO_v2_4dev16XmlReaderElementELN9__gnu_cxx12_Lock_policyE2EEC2INS0_28CTFReaderGradingToneParamEltEvEEOS_IT_LS3_2EE = comdat any

$_ZNSt12__shared_ptrIN19OpenColorIO_v2_4dev28CTFReaderGradingToneParamEltELN9__gnu_cxx12_Lock_policyE2EED2Ev = comdat any

$_ZNSt10shared_ptrIN19OpenColorIO_v2_4dev17XmlReaderDummyEltEEC2ISaIvEJRPKcS_INS0_16XmlReaderElementEEjRKNSt7__cxx1112basic_stringIcSt11char_traitsIcESaIcEEES6_EEESt20_Sp_alloc_shared_tagIT_EDpOT0_ = comdat any

$_ZNSt12__shared_ptrIN19OpenColorIO_v2_4dev17XmlReaderDummyEltELN9__gnu_cxx12_Lock_policyE2EEC2ISaIvEJRPKcSt10shared_ptrINS0_16XmlReaderElementEEjRKNSt7__cxx1112basic_stringIcSt11char_traitsIcESaIcEEES8_EEESt20_Sp_alloc_shared_tagIT_EDpOT0_ = comdat any

$_ZNSt14__shared_countILN9__gnu_cxx12_Lock_policyE2EEC2IN19OpenColorIO_v2_4dev17XmlReaderDummyEltESaIvEJRPKcSt10shared_ptrINS4_16XmlReaderElementEEjRKNSt7__cxx1112basic_stringIcSt11char_traitsIcESaIcEEES8_EEERPT_St20_Sp_alloc_shared_tagIT0_EDpOT1_ = comdat any

$_ZNSt23_Sp_counted_ptr_inplaceIN19OpenColorIO_v2_4dev17XmlReaderDummyEltESaIvELN9__gnu_cxx12_Lock_policyE2EEC2IJRPKcSt10shared_ptrINS0_16XmlReaderElementEEjRKNSt7__cxx1112basic_stringIcSt11char_traitsIcESaIcEEES8_EEES2_DpOT_ = comdat any

$_ZNSt16allocator_traitsISaIvEE9constructIN19OpenColorIO_v2_4dev17XmlReaderDummyEltEJRPKcSt10shared_ptrINS3_16XmlReaderElementEEjRKNSt7__cxx1112basic_stringIcSt11char_traitsIcESaIcEEES6_EEEvRS0_PT_DpOT0_ = comdat any

$_ZSt10_ConstructIN19OpenColorIO_v2_4dev17XmlReaderDummyEltEJRPKcSt10shared_ptrINS0_16XmlReaderElementEEjRKNSt7__cxx1112basic_stringIcSt11char_traitsIcESaIcEEES3_EEvPT_DpOT0_ = comdat any

$_ZNSt10shared_ptrIN19OpenColorIO_v2_4dev17XmlReaderDummyEltEEC2ISaIvEJRPKcS_INS0_16XmlReaderElementEEjRKNSt7__cxx1112basic_stringIcSt11char_traitsIcESaIcEEERA16_S5_EEESt20_Sp_alloc_shared_tagIT_EDpOT0_ = comdat any

$_ZNSt12__shared_ptrIN19OpenColorIO_v2_4dev17XmlReaderDummyEltELN9__gnu_cxx12_Lock_policyE2EEC2ISaIvEJRPKcSt10shared_ptrINS0_16XmlReaderElementEEjRKNSt7__cxx1112basic_stringIcSt11char_traitsIcESaIcEEERA16_S7_EEESt20_Sp_alloc_shared_tagIT_EDpOT0_ = comdat any

$_ZNSt14__shared_countILN9__gnu_cxx12_Lock_policyE2EEC2IN19OpenColorIO_v2_4dev17XmlReaderDummyEltESaIvEJRPKcSt10shared_ptrINS4_16XmlReaderElementEEjRKNSt7__cxx1112basic_stringIcSt11char_traitsIcESaIcEEERA16_S7_EEERPT_St20_Sp_alloc_shared_tagIT0_EDpOT1_ = comdat any

$_ZNSt23_Sp_counted_ptr_inplaceIN19OpenColorIO_v2_4dev17XmlReaderDummyEltESaIvELN9__gnu_cxx12_Lock_policyE2EEC2IJRPKcSt10shared_ptrINS0_16XmlReaderElementEEjRKNSt7__cxx1112basic_stringIcSt11char_traitsIcESaIcEEERA16_S7_EEES2_DpOT_ = comdat any

$_ZNSt16allocator_traitsISaIvEE9constructIN19OpenColorIO_v2_4dev17XmlReaderDummyEltEJRPKcSt10shared_ptrINS3_16XmlReaderElementEEjRKNSt7__cxx1112basic_stringIcSt11char_traitsIcESaIcEEERA16_S5_EEEvRS0_PT_DpOT0_ = comdat any

$_ZSt10_ConstructIN19OpenColorIO_v2_4dev17XmlReaderDummyEltEJRPKcSt10shared_ptrINS0_16XmlReaderElementEEjRKNSt7__cxx1112basic_stringIcSt11char_traitsIcESaIcEEERA16_S2_EEvPT_DpOT0_ = comdat any

$_ZStneIcSt11char_traitsIcESaIcEEbRKNSt7__cxx1112basic_stringIT_T0_T1_EEPKS5_ = comdat any

$_ZSt20dynamic_pointer_castIN19OpenColorIO_v2_4dev17XmlReaderPlainEltENS0_16XmlReaderElementEESt10shared_ptrIT_ERKS3_IT0_E = comdat any

$_ZNKSt12__shared_ptrIN19OpenColorIO_v2_4dev17XmlReaderPlainEltELN9__gnu_cxx12_Lock_policyE2EEcvbEv = comdat any

$_ZStneIN19OpenColorIO_v2_4dev16XmlReaderElementENS0_21XmlReaderContainerEltEEbRKSt10shared_ptrIT_ERKS3_IT0_E = comdat any

$_ZNKSt19__shared_ptr_accessIN19OpenColorIO_v2_4dev17XmlReaderPlainEltELN9__gnu_cxx12_Lock_policyE2ELb0ELb0EEptEv = comdat any

$_ZNSt10shared_ptrIN19OpenColorIO_v2_4dev17XmlReaderPlainEltEED2Ev = comdat any

$_ZNSt10shared_ptrIN19OpenColorIO_v2_4dev17XmlReaderPlainEltEEC2INS0_16XmlReaderElementEEERKS_IT_EPS1_ = comdat any

$_ZNSt10shared_ptrIN19OpenColorIO_v2_4dev17XmlReaderPlainEltEEC2Ev = comdat any

$_ZNSt12__shared_ptrIN19OpenColorIO_v2_4dev17XmlReaderPlainEltELN9__gnu_cxx12_Lock_policyE2EEC2INS0_16XmlReaderElementEEERKS_IT_LS3_2EEPS1_ = comdat any

$_ZNSt12__shared_ptrIN19OpenColorIO_v2_4dev17XmlReaderPlainEltELN9__gnu_cxx12_Lock_policyE2EEC2Ev = comdat any

$_ZNKSt19__shared_ptr_accessIN19OpenColorIO_v2_4dev17XmlReaderPlainEltELN9__gnu_cxx12_Lock_policyE2ELb0ELb0EE6_M_getEv = comdat any

$_ZNKSt12__shared_ptrIN19OpenColorIO_v2_4dev17XmlReaderPlainEltELN9__gnu_cxx12_Lock_policyE2EE3getEv = comdat any

$_ZNSt12__shared_ptrIN19OpenColorIO_v2_4dev17XmlReaderPlainEltELN9__gnu_cxx12_Lock_policyE2EED2Ev = comdat any

$_ZSt20dynamic_pointer_castIN19OpenColorIO_v2_4dev23XmlReaderDescriptionEltENS0_16XmlReaderElementEESt10shared_ptrIT_ERKS3_IT0_E = comdat any

$_ZNKSt12__shared_ptrIN19OpenColorIO_v2_4dev23XmlReaderDescriptionEltELN9__gnu_cxx12_Lock_policyE2EEcvbEv = comdat any

$_ZNKSt19__shared_ptr_accessIN19OpenColorIO_v2_4dev23XmlReaderDescriptionEltELN9__gnu_cxx12_Lock_policyE2ELb0ELb0EEptEv = comdat any

$_ZNKSt19__shared_ptr_accessIN19OpenColorIO_v2_4dev20CTFReaderMetadataEltELN9__gnu_cxx12_Lock_policyE2ELb0ELb0EEptEv = comdat any

$_ZNSt10shared_ptrIN19OpenColorIO_v2_4dev23XmlReaderDescriptionEltEEC2INS0_16XmlReaderElementEEERKS_IT_EPS1_ = comdat any

$_ZNSt10shared_ptrIN19OpenColorIO_v2_4dev23XmlReaderDescriptionEltEEC2Ev = comdat any

$_ZNSt12__shared_ptrIN19OpenColorIO_v2_4dev23XmlReaderDescriptionEltELN9__gnu_cxx12_Lock_policyE2EEC2INS0_16XmlReaderElementEEERKS_IT_LS3_2EEPS1_ = comdat any

$_ZNSt12__shared_ptrIN19OpenColorIO_v2_4dev23XmlReaderDescriptionEltELN9__gnu_cxx12_Lock_policyE2EEC2Ev = comdat any

$_ZNKSt19__shared_ptr_accessIN19OpenColorIO_v2_4dev23XmlReaderDescriptionEltELN9__gnu_cxx12_Lock_policyE2ELb0ELb0EE6_M_getEv = comdat any

$_ZNKSt12__shared_ptrIN19OpenColorIO_v2_4dev23XmlReaderDescriptionEltELN9__gnu_cxx12_Lock_policyE2EE3getEv = comdat any

$_ZNKSt19__shared_ptr_accessIN19OpenColorIO_v2_4dev20CTFReaderMetadataEltELN9__gnu_cxx12_Lock_policyE2ELb0ELb0EE6_M_getEv = comdat any

$_ZNKSt12__shared_ptrIN19OpenColorIO_v2_4dev20CTFReaderMetadataEltELN9__gnu_cxx12_Lock_policyE2EE3getEv = comdat any

$_ZSt9transformIN9__gnu_cxx17__normal_iteratorIPcNSt7__cxx1112basic_stringIcSt11char_traitsIcESaIcEEEEES9_ZN11StringUtils5LowerES8_EUlhE_ET0_T_SD_SC_T1_ = comdat any

$_ZN9__gnu_cxxneIPcNSt7__cxx1112basic_stringIcSt11char_traitsIcESaIcEEEEEbRKNS_17__normal_iteratorIT_T0_EESD_ = comdat any

$_ZZN11StringUtils5LowerENSt7__cxx1112basic_stringIcSt11char_traitsIcESaIcEEEENKUlhE_clEh = comdat any

$_ZNK9__gnu_cxx17__normal_iteratorIPcNSt7__cxx1112basic_stringIcSt11char_traitsIcESaIcEEEEdeEv = comdat any

$_ZN9__gnu_cxx17__normal_iteratorIPcNSt7__cxx1112basic_stringIcSt11char_traitsIcESaIcEEEEppEv = comdat any

$_ZNK9__gnu_cxx17__normal_iteratorIPcNSt7__cxx1112basic_stringIcSt11char_traitsIcESaIcEEEE4baseEv = comdat any

$_ZN11StringUtils5LowerEh = comdat any

$_ZNKSt12__shared_ptrIN19OpenColorIO_v2_4dev18CTFReaderTransformELN9__gnu_cxx12_Lock_policyE2EE9use_countEv = comdat any

$_ZN19OpenColorIO_v2_4dev18CTFReaderTransform6getOpsEv = comdat any

$_ZNKSt6vectorISt10shared_ptrIKN19OpenColorIO_v2_4dev6OpDataEESaIS4_EE5emptyEv = comdat any

$_ZNKSt14__shared_countILN9__gnu_cxx12_Lock_policyE2EE16_M_get_use_countEv = comdat any

$_ZNKSt16_Sp_counted_baseILN9__gnu_cxx12_Lock_policyE2EE16_M_get_use_countEv = comdat any

$_ZN9__gnu_cxxeqIPKSt10shared_ptrIKN19OpenColorIO_v2_4dev6OpDataEESt6vectorIS5_SaIS5_EEEEbRKNS_17__normal_iteratorIT_T0_EESG_ = comdat any

$_ZNKSt6vectorISt10shared_ptrIKN19OpenColorIO_v2_4dev6OpDataEESaIS4_EE5beginEv = comdat any

$_ZNKSt6vectorISt10shared_ptrIKN19OpenColorIO_v2_4dev6OpDataEESaIS4_EE3endEv = comdat any

$_ZNK9__gnu_cxx17__normal_iteratorIPKSt10shared_ptrIKN19OpenColorIO_v2_4dev6OpDataEESt6vectorIS5_SaIS5_EEE4baseEv = comdat any

$_ZN9__gnu_cxx17__normal_iteratorIPKSt10shared_ptrIKN19OpenColorIO_v2_4dev6OpDataEESt6vectorIS5_SaIS5_EEEC2ERKS7_ = comdat any

$_ZN19OpenColorIO_v2_4dev10CachedFileC2Ev = comdat any

$_ZNK19OpenColorIO_v2_4dev10CachedFile11getCDLGroupEv = comdat any

$_ZN19OpenColorIO_v2_4dev10CachedFileD2Ev = comdat any

$_ZN19OpenColorIO_v2_4dev10CachedFileD0Ev = comdat any

$_ZNSt10shared_ptrIN19OpenColorIO_v2_4dev18CTFReaderTransformEEC2ERKS2_ = comdat any

$_ZNSt12__shared_ptrIN19OpenColorIO_v2_4dev18CTFReaderTransformELN9__gnu_cxx12_Lock_policyE2EEC2ERKS4_ = comdat any

$_ZNSt12__shared_ptrIN19OpenColorIO_v2_4dev18CTFReaderTransformELN9__gnu_cxx12_Lock_policyE2EEaSEOS4_ = comdat any

$_ZNSt12__shared_ptrIN19OpenColorIO_v2_4dev18CTFReaderTransformELN9__gnu_cxx12_Lock_policyE2EEC2EOS4_ = comdat any

$_ZNSt12__shared_ptrIN19OpenColorIO_v2_4dev18CTFReaderTransformELN9__gnu_cxx12_Lock_policyE2EE4swapERS4_ = comdat any

$_ZNSt12__shared_ptrIN19OpenColorIO_v2_4dev18CTFReaderTransformELN9__gnu_cxx12_Lock_policyE2EED2Ev = comdat any

$_ZSt4swapIPN19OpenColorIO_v2_4dev18CTFReaderTransformEENSt9enable_ifIXsr6__and_ISt6__not_ISt15__is_tuple_likeIT_EESt21is_move_constructibleIS6_ESt18is_move_assignableIS6_EEE5valueEvE4typeERS6_SF_ = comdat any

$_ZSt3maxIiERKT_S2_S2_ = comdat any

$_ZNKSt19__shared_ptr_accessIKN19OpenColorIO_v2_4dev12CPUProcessorELN9__gnu_cxx12_Lock_policyE2ELb0ELb0EEptEv = comdat any

$_ZNSt10shared_ptrIN19OpenColorIO_v2_4dev11Lut1DOpDataEEC2Ev = comdat any

$_ZSt11make_sharedIN19OpenColorIO_v2_4dev11Lut1DOpDataEJNS1_9HalfFlagsEibEESt10shared_ptrINSt9enable_ifIXntsr8is_arrayIT_EE5valueES5_E4typeEEDpOT0_ = comdat any

$_ZNSt10shared_ptrIN19OpenColorIO_v2_4dev11Lut1DOpDataEEaSEOS2_ = comdat any

$_ZNSt10shared_ptrIN19OpenColorIO_v2_4dev11Lut1DOpDataEED2Ev = comdat any

$_ZSt11make_sharedIN19OpenColorIO_v2_4dev11Lut1DOpDataEJRKiEESt10shared_ptrINSt9enable_ifIXntsr8is_arrayIT_EE5valueES6_E4typeEEDpOT0_ = comdat any

$_ZNKSt19__shared_ptr_accessIN19OpenColorIO_v2_4dev11Lut1DOpDataELN9__gnu_cxx12_Lock_policyE2ELb0ELb0EEptEv = comdat any

$_ZN19OpenColorIO_v2_4dev11Lut1DOpData8getArrayEv = comdat any

$_ZN19OpenColorIO_v2_4dev6ArrayTIfE9getValuesEv = comdat any

$_ZNSt6vectorIfSaIfEE4dataEv = comdat any

$_ZNSt10shared_ptrIKN19OpenColorIO_v2_4dev12CPUProcessorEED2Ev = comdat any

$_ZNSt6vectorIfSaIfEEC2Ev = comdat any

$_ZNSt6vectorIfSaIfEE6resizeEm = comdat any

$_ZNSt6vectorIfSaIfEEixEm = comdat any

$_ZNSt10shared_ptrIKN19OpenColorIO_v2_4dev12CPUProcessorEEC2Ev = comdat any

$_ZNSt10shared_ptrIKN19OpenColorIO_v2_4dev12CPUProcessorEEaSEOS3_ = comdat any

$_ZNSt10shared_ptrIKN19OpenColorIO_v2_4dev12CPUProcessorEEaSERKS3_ = comdat any

$_ZSt11make_sharedIN19OpenColorIO_v2_4dev11Lut1DOpDataEJmEESt10shared_ptrINSt9enable_ifIXntsr8is_arrayIT_EE5valueES4_E4typeEEDpOT0_ = comdat any

$_ZNSt6vectorIfSaIfEEaSERKS1_ = comdat any

$_ZSt11make_sharedIN19OpenColorIO_v2_4dev11Lut3DOpDataEJmEESt10shared_ptrINSt9enable_ifIXntsr8is_arrayIT_EE5valueES4_E4typeEEDpOT0_ = comdat any

$_ZNKSt19__shared_ptr_accessIN19OpenColorIO_v2_4dev11Lut3DOpDataELN9__gnu_cxx12_Lock_policyE2ELb0ELb0EEptEv = comdat any

$_ZN19OpenColorIO_v2_4dev11Lut3DOpData8getArrayEv = comdat any

$_ZNSt10shared_ptrIN19OpenColorIO_v2_4dev11Lut3DOpDataEED2Ev = comdat any

$_ZN19OpenColorIO_v2_4dev10OpRcPtrVec5beginEv = comdat any

$_ZN19OpenColorIO_v2_4dev10OpRcPtrVec3endEv = comdat any

$_ZN9__gnu_cxxneIPSt10shared_ptrIN19OpenColorIO_v2_4dev2OpEESt6vectorIS4_SaIS4_EEEEbRKNS_17__normal_iteratorIT_T0_EESE_ = comdat any

$_ZNK9__gnu_cxx17__normal_iteratorIPSt10shared_ptrIN19OpenColorIO_v2_4dev2OpEESt6vectorIS4_SaIS4_EEEdeEv = comdat any

$_ZNSt10shared_ptrIKN19OpenColorIO_v2_4dev2OpEEC2IS1_vEERKS_IT_E = comdat any

$_ZNSt10shared_ptrIKN19OpenColorIO_v2_4dev2OpEED2Ev = comdat any

$_ZN9__gnu_cxx17__normal_iteratorIPSt10shared_ptrIN19OpenColorIO_v2_4dev2OpEESt6vectorIS4_SaIS4_EEEppEv = comdat any

$_ZNKSt19__shared_ptr_accessIN19OpenColorIO_v2_4dev14GroupTransformELN9__gnu_cxx12_Lock_policyE2ELb0ELb0EEptEv = comdat any

$_ZNKSt19__shared_ptr_accessIKN19OpenColorIO_v2_4dev6ConfigELN9__gnu_cxx12_Lock_policyE2ELb0ELb0EEptEv = comdat any

$_ZNKSt19__shared_ptr_accessIN19OpenColorIO_v2_4dev14GroupTransformELN9__gnu_cxx12_Lock_policyE2ELb0ELb0EEdeEv = comdat any

$_ZNSt10shared_ptrIKN19OpenColorIO_v2_4dev7ContextEED2Ev = comdat any

$_ZNSt10shared_ptrIN19OpenColorIO_v2_4dev14GroupTransformEED2Ev = comdat any

$_ZN19OpenColorIO_v2_4dev10OpRcPtrVecD2Ev = comdat any

$_ZNSt6vectorIfSaIfEED2Ev = comdat any

$_ZNSt10shared_ptrIKN19OpenColorIO_v2_4dev6ConfigEED2Ev = comdat any

$_ZNKSt19__shared_ptr_accessIKN19OpenColorIO_v2_4dev12CPUProcessorELN9__gnu_cxx12_Lock_policyE2ELb0ELb0EE6_M_getEv = comdat any

$_ZNKSt12__shared_ptrIKN19OpenColorIO_v2_4dev12CPUProcessorELN9__gnu_cxx12_Lock_policyE2EE3getEv = comdat any

$_ZNSt12__shared_ptrIN19OpenColorIO_v2_4dev11Lut1DOpDataELN9__gnu_cxx12_Lock_policyE2EEC2Ev = comdat any

$_ZNSt10shared_ptrIN19OpenColorIO_v2_4dev11Lut1DOpDataEEC2ISaIvEJNS1_9HalfFlagsEibEEESt20_Sp_alloc_shared_tagIT_EDpOT0_ = comdat any

$_ZNSt12__shared_ptrIN19OpenColorIO_v2_4dev11Lut1DOpDataELN9__gnu_cxx12_Lock_policyE2EEC2ISaIvEJNS1_9HalfFlagsEibEEESt20_Sp_alloc_shared_tagIT_EDpOT0_ = comdat any

$_ZNSt14__shared_countILN9__gnu_cxx12_Lock_policyE2EEC2IN19OpenColorIO_v2_4dev11Lut1DOpDataESaIvEJNS5_9HalfFlagsEibEEERPT_St20_Sp_alloc_shared_tagIT0_EDpOT1_ = comdat any

$_ZNSt12__shared_ptrIN19OpenColorIO_v2_4dev11Lut1DOpDataELN9__gnu_cxx12_Lock_policyE2EE31_M_enable_shared_from_this_withIS1_S1_EENSt9enable_ifIXntsr15__has_esft_baseIT0_EE5valueEvE4typeEPT_ = comdat any

$_ZNSaISt23_Sp_counted_ptr_inplaceIN19OpenColorIO_v2_4dev11Lut1DOpDataESaIvELN9__gnu_cxx12_Lock_policyE2EEEC2IvEERKSaIT_E = comdat any

$_ZSt18__allocate_guardedISaISt23_Sp_counted_ptr_inplaceIN19OpenColorIO_v2_4dev11Lut1DOpDataESaIvELN9__gnu_cxx12_Lock_policyE2EEEESt15__allocated_ptrIT_ERS9_ = comdat any

$_ZNSt15__allocated_ptrISaISt23_Sp_counted_ptr_inplaceIN19OpenColorIO_v2_4dev11Lut1DOpDataESaIvELN9__gnu_cxx12_Lock_policyE2EEEE3getEv = comdat any

$_ZNSt23_Sp_counted_ptr_inplaceIN19OpenColorIO_v2_4dev11Lut1DOpDataESaIvELN9__gnu_cxx12_Lock_policyE2EEC2IJNS1_9HalfFlagsEibEEES2_DpOT_ = comdat any

$_ZNSt15__allocated_ptrISaISt23_Sp_counted_ptr_inplaceIN19OpenColorIO_v2_4dev11Lut1DOpDataESaIvELN9__gnu_cxx12_Lock_policyE2EEEEaSEDn = comdat any

$_ZNSt23_Sp_counted_ptr_inplaceIN19OpenColorIO_v2_4dev11Lut1DOpDataESaIvELN9__gnu_cxx12_Lock_policyE2EE6_M_ptrEv = comdat any

$_ZNSt15__allocated_ptrISaISt23_Sp_counted_ptr_inplaceIN19OpenColorIO_v2_4dev11Lut1DOpDataESaIvELN9__gnu_cxx12_Lock_policyE2EEEED2Ev = comdat any

$_ZNSaISt23_Sp_counted_ptr_inplaceIN19OpenColorIO_v2_4dev11Lut1DOpDataESaIvELN9__gnu_cxx12_Lock_policyE2EEED2Ev = comdat any

$_ZNSt15__new_allocatorISt23_Sp_counted_ptr_inplaceIN19OpenColorIO_v2_4dev11Lut1DOpDataESaIvELN9__gnu_cxx12_Lock_policyE2EEEC2Ev = comdat any

$_ZNSt16allocator_traitsISaISt23_Sp_counted_ptr_inplaceIN19OpenColorIO_v2_4dev11Lut1DOpDataESaIvELN9__gnu_cxx12_Lock_policyE2EEEE8allocateERS7_m = comdat any

$_ZNSt15__allocated_ptrISaISt23_Sp_counted_ptr_inplaceIN19OpenColorIO_v2_4dev11Lut1DOpDataESaIvELN9__gnu_cxx12_Lock_policyE2EEEEC2ERS7_PS6_ = comdat any

$_ZNSt15__new_allocatorISt23_Sp_counted_ptr_inplaceIN19OpenColorIO_v2_4dev11Lut1DOpDataESaIvELN9__gnu_cxx12_Lock_policyE2EEE8allocateEmPKv = comdat any

$_ZNKSt15__new_allocatorISt23_Sp_counted_ptr_inplaceIN19OpenColorIO_v2_4dev11Lut1DOpDataESaIvELN9__gnu_cxx12_Lock_policyE2EEE11_M_max_sizeEv = comdat any

$_ZSt12__to_addressISt23_Sp_counted_ptr_inplaceIN19OpenColorIO_v2_4dev11Lut1DOpDataESaIvELN9__gnu_cxx12_Lock_policyE2EEEPT_S8_ = comdat any

$_ZNSt23_Sp_counted_ptr_inplaceIN19OpenColorIO_v2_4dev11Lut1DOpDataESaIvELN9__gnu_cxx12_Lock_policyE2EE5_ImplC2ES2_ = comdat any

$_ZNSt16allocator_traitsISaIvEE9constructIN19OpenColorIO_v2_4dev11Lut1DOpDataEJNS4_9HalfFlagsEibEEEvRS0_PT_DpOT0_ = comdat any

$_ZNSt23_Sp_counted_ptr_inplaceIN19OpenColorIO_v2_4dev11Lut1DOpDataESaIvELN9__gnu_cxx12_Lock_policyE2EED2Ev = comdat any

$_ZNSt23_Sp_counted_ptr_inplaceIN19OpenColorIO_v2_4dev11Lut1DOpDataESaIvELN9__gnu_cxx12_Lock_policyE2EED0Ev = comdat any

$_ZNSt23_Sp_counted_ptr_inplaceIN19OpenColorIO_v2_4dev11Lut1DOpDataESaIvELN9__gnu_cxx12_Lock_policyE2EE10_M_disposeEv = comdat any

$_ZNSt23_Sp_counted_ptr_inplaceIN19OpenColorIO_v2_4dev11Lut1DOpDataESaIvELN9__gnu_cxx12_Lock_policyE2EE10_M_destroyEv = comdat any

$_ZNSt23_Sp_counted_ptr_inplaceIN19OpenColorIO_v2_4dev11Lut1DOpDataESaIvELN9__gnu_cxx12_Lock_policyE2EE14_M_get_deleterERKSt9type_info = comdat any

$_ZSt10_ConstructIN19OpenColorIO_v2_4dev11Lut1DOpDataEJNS1_9HalfFlagsEibEEvPT_DpOT0_ = comdat any

$_ZNSt16allocator_traitsISaIvEE7destroyIN19OpenColorIO_v2_4dev11Lut1DOpDataEEEvRS0_PT_ = comdat any

$_ZNSt23_Sp_counted_ptr_inplaceIN19OpenColorIO_v2_4dev11Lut1DOpDataESaIvELN9__gnu_cxx12_Lock_policyE2EE5_Impl8_M_allocEv = comdat any

$_ZSt8_DestroyIN19OpenColorIO_v2_4dev11Lut1DOpDataEEvPT_ = comdat any

$_ZN9__gnu_cxx16__aligned_bufferIN19OpenColorIO_v2_4dev11Lut1DOpDataEE6_M_ptrEv = comdat any

$_ZN9__gnu_cxx16__aligned_bufferIN19OpenColorIO_v2_4dev11Lut1DOpDataEE7_M_addrEv = comdat any

$_ZNSt16allocator_traitsISaISt23_Sp_counted_ptr_inplaceIN19OpenColorIO_v2_4dev11Lut1DOpDataESaIvELN9__gnu_cxx12_Lock_policyE2EEEE10deallocateERS7_PS6_m = comdat any

$_ZNSt15__new_allocatorISt23_Sp_counted_ptr_inplaceIN19OpenColorIO_v2_4dev11Lut1DOpDataESaIvELN9__gnu_cxx12_Lock_policyE2EEE10deallocateEPS6_m = comdat any

$_ZNSt15__new_allocatorISt23_Sp_counted_ptr_inplaceIN19OpenColorIO_v2_4dev11Lut1DOpDataESaIvELN9__gnu_cxx12_Lock_policyE2EEED2Ev = comdat any

$_ZNSt12__shared_ptrIN19OpenColorIO_v2_4dev11Lut1DOpDataELN9__gnu_cxx12_Lock_policyE2EEaSEOS4_ = comdat any

$_ZNSt12__shared_ptrIN19OpenColorIO_v2_4dev11Lut1DOpDataELN9__gnu_cxx12_Lock_policyE2EEC2EOS4_ = comdat any

$_ZNSt12__shared_ptrIN19OpenColorIO_v2_4dev11Lut1DOpDataELN9__gnu_cxx12_Lock_policyE2EE4swapERS4_ = comdat any

$_ZNSt12__shared_ptrIN19OpenColorIO_v2_4dev11Lut1DOpDataELN9__gnu_cxx12_Lock_policyE2EED2Ev = comdat any

$_ZSt4swapIPN19OpenColorIO_v2_4dev11Lut1DOpDataEENSt9enable_ifIXsr6__and_ISt6__not_ISt15__is_tuple_likeIT_EESt21is_move_constructibleIS6_ESt18is_move_assignableIS6_EEE5valueEvE4typeERS6_SF_ = comdat any

$_ZNSt10shared_ptrIN19OpenColorIO_v2_4dev11Lut1DOpDataEEC2ISaIvEJRKiEEESt20_Sp_alloc_shared_tagIT_EDpOT0_ = comdat any

$_ZNSt12__shared_ptrIN19OpenColorIO_v2_4dev11Lut1DOpDataELN9__gnu_cxx12_Lock_policyE2EEC2ISaIvEJRKiEEESt20_Sp_alloc_shared_tagIT_EDpOT0_ = comdat any

$_ZNSt14__shared_countILN9__gnu_cxx12_Lock_policyE2EEC2IN19OpenColorIO_v2_4dev11Lut1DOpDataESaIvEJRKiEEERPT_St20_Sp_alloc_shared_tagIT0_EDpOT1_ = comdat any

$_ZNSt23_Sp_counted_ptr_inplaceIN19OpenColorIO_v2_4dev11Lut1DOpDataESaIvELN9__gnu_cxx12_Lock_policyE2EEC2IJRKiEEES2_DpOT_ = comdat any

$_ZNSt16allocator_traitsISaIvEE9constructIN19OpenColorIO_v2_4dev11Lut1DOpDataEJRKiEEEvRS0_PT_DpOT0_ = comdat any

$_ZSt10_ConstructIN19OpenColorIO_v2_4dev11Lut1DOpDataEJRKiEEvPT_DpOT0_ = comdat any

$_ZNKSt19__shared_ptr_accessIN19OpenColorIO_v2_4dev11Lut1DOpDataELN9__gnu_cxx12_Lock_policyE2ELb0ELb0EE6_M_getEv = comdat any

$_ZNKSt12__shared_ptrIN19OpenColorIO_v2_4dev11Lut1DOpDataELN9__gnu_cxx12_Lock_policyE2EE3getEv = comdat any

$_ZNKSt6vectorIfSaIfEE11_M_data_ptrIfEEPT_S4_ = comdat any

$_ZNSt12_Vector_baseIfSaIfEEC2Ev = comdat any

$_ZNSt12_Vector_baseIfSaIfEE12_Vector_implC2Ev = comdat any

$_ZNSaIfEC2Ev = comdat any

$_ZNSt12_Vector_baseIfSaIfEE17_Vector_impl_dataC2Ev = comdat any

$_ZNSt15__new_allocatorIfEC2Ev = comdat any

$_ZNKSt6vectorIfSaIfEE4sizeEv = comdat any

$_ZNSt6vectorIfSaIfEE17_M_default_appendEm = comdat any

$_ZNSt6vectorIfSaIfEE15_M_erase_at_endEPf = comdat any

$_ZNKSt6vectorIfSaIfEE8max_sizeEv = comdat any

$_ZSt27__uninitialized_default_n_aIPfmfET_S1_T0_RSaIT1_E = comdat any

$_ZNSt12_Vector_baseIfSaIfEE19_M_get_Tp_allocatorEv = comdat any

$_ZNKSt6vectorIfSaIfEE12_M_check_lenEmPKc = comdat any

$_ZNSt12_Vector_baseIfSaIfEE11_M_allocateEm = comdat any

$_ZNSt12_Vector_baseIfSaIfEE13_M_deallocateEPfm = comdat any

$_ZNSt6vectorIfSaIfEE11_S_relocateEPfS2_S2_RS0_ = comdat any

$_ZNSt6vectorIfSaIfEE11_S_max_sizeERKS0_ = comdat any

$_ZNKSt12_Vector_baseIfSaIfEE19_M_get_Tp_allocatorEv = comdat any

$_ZNSt16allocator_traitsISaIfEE8max_sizeERKS0_ = comdat any

$_ZNKSt15__new_allocatorIfE8max_sizeEv = comdat any

$_ZNKSt15__new_allocatorIfE11_M_max_sizeEv = comdat any

$_ZSt25__uninitialized_default_nIPfmET_S1_T0_ = comdat any

$_ZNSt27__uninitialized_default_n_1ILb1EE18__uninit_default_nIPfmEET_S3_T0_ = comdat any

$_ZSt10_ConstructIfJEEvPT_DpOT0_ = comdat any

$_ZSt6fill_nIPfmfET_S1_T0_RKT1_ = comdat any

$_ZSt10__fill_n_aIPfmfET_S1_T0_RKT1_St26random_access_iterator_tag = comdat any

$_ZSt17__size_to_integerm = comdat any

$_ZSt19__iterator_categoryIPfENSt15iterator_traitsIT_E17iterator_categoryERKS2_ = comdat any

$_ZSt8__fill_aIPffEvT_S1_RKT0_ = comdat any

$_ZSt9__fill_a1IPffEN9__gnu_cxx11__enable_ifIXsr11__is_scalarIT0_EE7__valueEvE6__typeET_S6_RKS3_ = comdat any

$_ZNSt16allocator_traitsISaIfEE8allocateERS0_m = comdat any

$_ZNSt15__new_allocatorIfE8allocateEmPKv = comdat any

$_ZNSt16allocator_traitsISaIfEE10deallocateERS0_Pfm = comdat any

$_ZNSt15__new_allocatorIfE10deallocateEPfm = comdat any

$_ZNSt6vectorIfSaIfEE14_S_do_relocateEPfS2_S2_RS0_St17integral_constantIbLb1EE = comdat any

$_ZSt12__relocate_aIPfS0_SaIfEET0_T_S3_S2_RT1_ = comdat any

$_ZSt14__relocate_a_1IffENSt9enable_ifIXsr3std24__is_bitwise_relocatableIT_EE5valueEPS1_E4typeES2_S2_S2_RSaIT0_E = comdat any

$_ZSt12__niter_baseIPfET_S1_ = comdat any

$_ZSt8_DestroyIPffEvT_S1_RSaIT0_E = comdat any

$_ZSt8_DestroyIPfEvT_S1_ = comdat any

$_ZNSt12_Destroy_auxILb1EE9__destroyIPfEEvT_S3_ = comdat any

$_ZNSt12__shared_ptrIKN19OpenColorIO_v2_4dev12CPUProcessorELN9__gnu_cxx12_Lock_policyE2EEC2Ev = comdat any

$_ZNSt12__shared_ptrIKN19OpenColorIO_v2_4dev12CPUProcessorELN9__gnu_cxx12_Lock_policyE2EEaSEOS5_ = comdat any

$_ZNSt12__shared_ptrIKN19OpenColorIO_v2_4dev12CPUProcessorELN9__gnu_cxx12_Lock_policyE2EEC2EOS5_ = comdat any

$_ZNSt12__shared_ptrIKN19OpenColorIO_v2_4dev12CPUProcessorELN9__gnu_cxx12_Lock_policyE2EE4swapERS5_ = comdat any

$_ZNSt12__shared_ptrIKN19OpenColorIO_v2_4dev12CPUProcessorELN9__gnu_cxx12_Lock_policyE2EED2Ev = comdat any

$_ZSt4swapIPKN19OpenColorIO_v2_4dev12CPUProcessorEENSt9enable_ifIXsr6__and_ISt6__not_ISt15__is_tuple_likeIT_EESt21is_move_constructibleIS7_ESt18is_move_assignableIS7_EEE5valueEvE4typeERS7_SG_ = comdat any

$_ZNSt12__shared_ptrIKN19OpenColorIO_v2_4dev12CPUProcessorELN9__gnu_cxx12_Lock_policyE2EEaSERKS5_ = comdat any

$_ZNSt10shared_ptrIN19OpenColorIO_v2_4dev11Lut1DOpDataEEC2ISaIvEJmEEESt20_Sp_alloc_shared_tagIT_EDpOT0_ = comdat any

$_ZNSt12__shared_ptrIN19OpenColorIO_v2_4dev11Lut1DOpDataELN9__gnu_cxx12_Lock_policyE2EEC2ISaIvEJmEEESt20_Sp_alloc_shared_tagIT_EDpOT0_ = comdat any

$_ZNSt14__shared_countILN9__gnu_cxx12_Lock_policyE2EEC2IN19OpenColorIO_v2_4dev11Lut1DOpDataESaIvEJmEEERPT_St20_Sp_alloc_shared_tagIT0_EDpOT1_ = comdat any

$_ZNSt23_Sp_counted_ptr_inplaceIN19OpenColorIO_v2_4dev11Lut1DOpDataESaIvELN9__gnu_cxx12_Lock_policyE2EEC2IJmEEES2_DpOT_ = comdat any

$_ZNSt16allocator_traitsISaIvEE9constructIN19OpenColorIO_v2_4dev11Lut1DOpDataEJmEEEvRS0_PT_DpOT0_ = comdat any

$_ZSt10_ConstructIN19OpenColorIO_v2_4dev11Lut1DOpDataEJmEEvPT_DpOT0_ = comdat any

$_ZNKSt6vectorIfSaIfEE8capacityEv = comdat any

$_ZNSt6vectorIfSaIfEE20_M_allocate_and_copyIN9__gnu_cxx17__normal_iteratorIPKfS1_EEEEPfmT_S9_ = comdat any

$_ZNKSt6vectorIfSaIfEE5beginEv = comdat any

$_ZNKSt6vectorIfSaIfEE3endEv = comdat any

$_ZSt8_DestroyIN9__gnu_cxx17__normal_iteratorIPfSt6vectorIfSaIfEEEEfEvT_S7_RSaIT0_E = comdat any

$_ZSt4copyIN9__gnu_cxx17__normal_iteratorIPKfSt6vectorIfSaIfEEEENS1_IPfS6_EEET0_T_SB_SA_ = comdat any

$_ZNSt6vectorIfSaIfEE5beginEv = comdat any

$_ZNSt6vectorIfSaIfEE3endEv = comdat any

$_ZSt4copyIPfS0_ET0_T_S2_S1_ = comdat any

$_ZSt22__uninitialized_copy_aIPfS0_fET0_T_S2_S1_RSaIT1_E = comdat any

$_ZSt22__uninitialized_copy_aIN9__gnu_cxx17__normal_iteratorIPKfSt6vectorIfSaIfEEEEPffET0_T_SA_S9_RSaIT1_E = comdat any

$_ZSt18uninitialized_copyIN9__gnu_cxx17__normal_iteratorIPKfSt6vectorIfSaIfEEEEPfET0_T_SA_S9_ = comdat any

$_ZNSt20__uninitialized_copyILb1EE13__uninit_copyIN9__gnu_cxx17__normal_iteratorIPKfSt6vectorIfSaIfEEEEPfEET0_T_SC_SB_ = comdat any

$_ZSt4copyIN9__gnu_cxx17__normal_iteratorIPKfSt6vectorIfSaIfEEEEPfET0_T_SA_S9_ = comdat any

$_ZSt13__copy_move_aILb0EN9__gnu_cxx17__normal_iteratorIPKfSt6vectorIfSaIfEEEEPfET1_T0_SA_S9_ = comdat any

$_ZSt12__miter_baseIN9__gnu_cxx17__normal_iteratorIPKfSt6vectorIfSaIfEEEEET_S8_ = comdat any

$_ZSt12__niter_wrapIPfET_RKS1_S1_ = comdat any

$_ZSt14__copy_move_a1ILb0EPKfPfET1_T0_S4_S3_ = comdat any

$_ZSt12__niter_baseIPKfSt6vectorIfSaIfEEET_N9__gnu_cxx17__normal_iteratorIS5_T0_EE = comdat any

$_ZSt14__copy_move_a2ILb0EPKfPfET1_T0_S4_S3_ = comdat any

$_ZNSt11__copy_moveILb0ELb1ESt26random_access_iterator_tagE8__copy_mIfEEPT_PKS3_S6_S4_ = comdat any

$_ZNK9__gnu_cxx17__normal_iteratorIPKfSt6vectorIfSaIfEEE4baseEv = comdat any

$_ZN9__gnu_cxx17__normal_iteratorIPKfSt6vectorIfSaIfEEEC2ERKS2_ = comdat any

$_ZSt8_DestroyIN9__gnu_cxx17__normal_iteratorIPfSt6vectorIfSaIfEEEEEvT_S7_ = comdat any

$_ZNSt12_Destroy_auxILb1EE9__destroyIN9__gnu_cxx17__normal_iteratorIPfSt6vectorIfSaIfEEEEEEvT_S9_ = comdat any

$_ZSt13__copy_move_aILb0EN9__gnu_cxx17__normal_iteratorIPKfSt6vectorIfSaIfEEEENS1_IPfS6_EEET1_T0_SB_SA_ = comdat any

$_ZSt12__niter_wrapIN9__gnu_cxx17__normal_iteratorIPfSt6vectorIfSaIfEEEES2_ET_S7_T0_ = comdat any

$_ZSt12__niter_baseIPfSt6vectorIfSaIfEEET_N9__gnu_cxx17__normal_iteratorIS4_T0_EE = comdat any

$_ZNK9__gnu_cxx17__normal_iteratorIPfSt6vectorIfSaIfEEEplEl = comdat any

$_ZN9__gnu_cxx17__normal_iteratorIPfSt6vectorIfSaIfEEEC2ERKS1_ = comdat any

$_ZNK9__gnu_cxx17__normal_iteratorIPfSt6vectorIfSaIfEEE4baseEv = comdat any

$_ZSt13__copy_move_aILb0EPfS0_ET1_T0_S2_S1_ = comdat any

$_ZSt12__miter_baseIPfET_S1_ = comdat any

$_ZSt14__copy_move_a1ILb0EPfS0_ET1_T0_S2_S1_ = comdat any

$_ZSt14__copy_move_a2ILb0EPfS0_ET1_T0_S2_S1_ = comdat any

$_ZSt18uninitialized_copyIPfS0_ET0_T_S2_S1_ = comdat any

$_ZNSt20__uninitialized_copyILb1EE13__uninit_copyIPfS2_EET0_T_S4_S3_ = comdat any

$_ZNSt10shared_ptrIN19OpenColorIO_v2_4dev11Lut3DOpDataEEC2ISaIvEJmEEESt20_Sp_alloc_shared_tagIT_EDpOT0_ = comdat any

$_ZNSt12__shared_ptrIN19OpenColorIO_v2_4dev11Lut3DOpDataELN9__gnu_cxx12_Lock_policyE2EEC2ISaIvEJmEEESt20_Sp_alloc_shared_tagIT_EDpOT0_ = comdat any

$_ZNSt14__shared_countILN9__gnu_cxx12_Lock_policyE2EEC2IN19OpenColorIO_v2_4dev11Lut3DOpDataESaIvEJmEEERPT_St20_Sp_alloc_shared_tagIT0_EDpOT1_ = comdat any

$_ZNSt12__shared_ptrIN19OpenColorIO_v2_4dev11Lut3DOpDataELN9__gnu_cxx12_Lock_policyE2EE31_M_enable_shared_from_this_withIS1_S1_EENSt9enable_ifIXntsr15__has_esft_baseIT0_EE5valueEvE4typeEPT_ = comdat any

$_ZNSaISt23_Sp_counted_ptr_inplaceIN19OpenColorIO_v2_4dev11Lut3DOpDataESaIvELN9__gnu_cxx12_Lock_policyE2EEEC2IvEERKSaIT_E = comdat any

$_ZSt18__allocate_guardedISaISt23_Sp_counted_ptr_inplaceIN19OpenColorIO_v2_4dev11Lut3DOpDataESaIvELN9__gnu_cxx12_Lock_policyE2EEEESt15__allocated_ptrIT_ERS9_ = comdat any

$_ZNSt15__allocated_ptrISaISt23_Sp_counted_ptr_inplaceIN19OpenColorIO_v2_4dev11Lut3DOpDataESaIvELN9__gnu_cxx12_Lock_policyE2EEEE3getEv = comdat any

$_ZNSt23_Sp_counted_ptr_inplaceIN19OpenColorIO_v2_4dev11Lut3DOpDataESaIvELN9__gnu_cxx12_Lock_policyE2EEC2IJmEEES2_DpOT_ = comdat any

$_ZNSt15__allocated_ptrISaISt23_Sp_counted_ptr_inplaceIN19OpenColorIO_v2_4dev11Lut3DOpDataESaIvELN9__gnu_cxx12_Lock_policyE2EEEEaSEDn = comdat any

$_ZNSt23_Sp_counted_ptr_inplaceIN19OpenColorIO_v2_4dev11Lut3DOpDataESaIvELN9__gnu_cxx12_Lock_policyE2EE6_M_ptrEv = comdat any

$_ZNSt15__allocated_ptrISaISt23_Sp_counted_ptr_inplaceIN19OpenColorIO_v2_4dev11Lut3DOpDataESaIvELN9__gnu_cxx12_Lock_policyE2EEEED2Ev = comdat any

$_ZNSaISt23_Sp_counted_ptr_inplaceIN19OpenColorIO_v2_4dev11Lut3DOpDataESaIvELN9__gnu_cxx12_Lock_policyE2EEED2Ev = comdat any

$_ZNSt15__new_allocatorISt23_Sp_counted_ptr_inplaceIN19OpenColorIO_v2_4dev11Lut3DOpDataESaIvELN9__gnu_cxx12_Lock_policyE2EEEC2Ev = comdat any

$_ZNSt16allocator_traitsISaISt23_Sp_counted_ptr_inplaceIN19OpenColorIO_v2_4dev11Lut3DOpDataESaIvELN9__gnu_cxx12_Lock_policyE2EEEE8allocateERS7_m = comdat any

$_ZNSt15__allocated_ptrISaISt23_Sp_counted_ptr_inplaceIN19OpenColorIO_v2_4dev11Lut3DOpDataESaIvELN9__gnu_cxx12_Lock_policyE2EEEEC2ERS7_PS6_ = comdat any

$_ZNSt15__new_allocatorISt23_Sp_counted_ptr_inplaceIN19OpenColorIO_v2_4dev11Lut3DOpDataESaIvELN9__gnu_cxx12_Lock_policyE2EEE8allocateEmPKv = comdat any

$_ZNKSt15__new_allocatorISt23_Sp_counted_ptr_inplaceIN19OpenColorIO_v2_4dev11Lut3DOpDataESaIvELN9__gnu_cxx12_Lock_policyE2EEE11_M_max_sizeEv = comdat any

$_ZSt12__to_addressISt23_Sp_counted_ptr_inplaceIN19OpenColorIO_v2_4dev11Lut3DOpDataESaIvELN9__gnu_cxx12_Lock_policyE2EEEPT_S8_ = comdat any

$_ZNSt23_Sp_counted_ptr_inplaceIN19OpenColorIO_v2_4dev11Lut3DOpDataESaIvELN9__gnu_cxx12_Lock_policyE2EE5_ImplC2ES2_ = comdat any

$_ZNSt16allocator_traitsISaIvEE9constructIN19OpenColorIO_v2_4dev11Lut3DOpDataEJmEEEvRS0_PT_DpOT0_ = comdat any

$_ZNSt23_Sp_counted_ptr_inplaceIN19OpenColorIO_v2_4dev11Lut3DOpDataESaIvELN9__gnu_cxx12_Lock_policyE2EED2Ev = comdat any

$_ZNSt23_Sp_counted_ptr_inplaceIN19OpenColorIO_v2_4dev11Lut3DOpDataESaIvELN9__gnu_cxx12_Lock_policyE2EED0Ev = comdat any

$_ZNSt23_Sp_counted_ptr_inplaceIN19OpenColorIO_v2_4dev11Lut3DOpDataESaIvELN9__gnu_cxx12_Lock_policyE2EE10_M_disposeEv = comdat any

$_ZNSt23_Sp_counted_ptr_inplaceIN19OpenColorIO_v2_4dev11Lut3DOpDataESaIvELN9__gnu_cxx12_Lock_policyE2EE10_M_destroyEv = comdat any

$_ZNSt23_Sp_counted_ptr_inplaceIN19OpenColorIO_v2_4dev11Lut3DOpDataESaIvELN9__gnu_cxx12_Lock_policyE2EE14_M_get_deleterERKSt9type_info = comdat any

$_ZSt10_ConstructIN19OpenColorIO_v2_4dev11Lut3DOpDataEJmEEvPT_DpOT0_ = comdat any

$_ZNSt16allocator_traitsISaIvEE7destroyIN19OpenColorIO_v2_4dev11Lut3DOpDataEEEvRS0_PT_ = comdat any

$_ZNSt23_Sp_counted_ptr_inplaceIN19OpenColorIO_v2_4dev11Lut3DOpDataESaIvELN9__gnu_cxx12_Lock_policyE2EE5_Impl8_M_allocEv = comdat any

$_ZSt8_DestroyIN19OpenColorIO_v2_4dev11Lut3DOpDataEEvPT_ = comdat any

$_ZN9__gnu_cxx16__aligned_bufferIN19OpenColorIO_v2_4dev11Lut3DOpDataEE6_M_ptrEv = comdat any

$_ZN9__gnu_cxx16__aligned_bufferIN19OpenColorIO_v2_4dev11Lut3DOpDataEE7_M_addrEv = comdat any

$_ZNSt16allocator_traitsISaISt23_Sp_counted_ptr_inplaceIN19OpenColorIO_v2_4dev11Lut3DOpDataESaIvELN9__gnu_cxx12_Lock_policyE2EEEE10deallocateERS7_PS6_m = comdat any

$_ZNSt15__new_allocatorISt23_Sp_counted_ptr_inplaceIN19OpenColorIO_v2_4dev11Lut3DOpDataESaIvELN9__gnu_cxx12_Lock_policyE2EEE10deallocateEPS6_m = comdat any

$_ZNSt15__new_allocatorISt23_Sp_counted_ptr_inplaceIN19OpenColorIO_v2_4dev11Lut3DOpDataESaIvELN9__gnu_cxx12_Lock_policyE2EEED2Ev = comdat any

$_ZNKSt19__shared_ptr_accessIN19OpenColorIO_v2_4dev11Lut3DOpDataELN9__gnu_cxx12_Lock_policyE2ELb0ELb0EE6_M_getEv = comdat any

$_ZNKSt12__shared_ptrIN19OpenColorIO_v2_4dev11Lut3DOpDataELN9__gnu_cxx12_Lock_policyE2EE3getEv = comdat any

$_ZNSt12__shared_ptrIN19OpenColorIO_v2_4dev11Lut3DOpDataELN9__gnu_cxx12_Lock_policyE2EED2Ev = comdat any

$_ZNSt6vectorISt10shared_ptrIN19OpenColorIO_v2_4dev2OpEESaIS3_EE5beginEv = comdat any

$_ZN9__gnu_cxx17__normal_iteratorIPSt10shared_ptrIN19OpenColorIO_v2_4dev2OpEESt6vectorIS4_SaIS4_EEEC2ERKS5_ = comdat any

$_ZNSt6vectorISt10shared_ptrIN19OpenColorIO_v2_4dev2OpEESaIS3_EE3endEv = comdat any

$_ZNK9__gnu_cxx17__normal_iteratorIPSt10shared_ptrIN19OpenColorIO_v2_4dev2OpEESt6vectorIS4_SaIS4_EEE4baseEv = comdat any

$_ZNSt12__shared_ptrIKN19OpenColorIO_v2_4dev2OpELN9__gnu_cxx12_Lock_policyE2EEC2IS1_vEERKS_IT_LS4_2EE = comdat any

$_ZNSt12__shared_ptrIKN19OpenColorIO_v2_4dev2OpELN9__gnu_cxx12_Lock_policyE2EED2Ev = comdat any

$_ZNKSt19__shared_ptr_accessIN19OpenColorIO_v2_4dev14GroupTransformELN9__gnu_cxx12_Lock_policyE2ELb0ELb0EE6_M_getEv = comdat any

$_ZNKSt12__shared_ptrIN19OpenColorIO_v2_4dev14GroupTransformELN9__gnu_cxx12_Lock_policyE2EE3getEv = comdat any

$_ZNKSt19__shared_ptr_accessIKN19OpenColorIO_v2_4dev6ConfigELN9__gnu_cxx12_Lock_policyE2ELb0ELb0EE6_M_getEv = comdat any

$_ZNKSt12__shared_ptrIKN19OpenColorIO_v2_4dev6ConfigELN9__gnu_cxx12_Lock_policyE2EE3getEv = comdat any

$_ZNSt12__shared_ptrIKN19OpenColorIO_v2_4dev7ContextELN9__gnu_cxx12_Lock_policyE2EED2Ev = comdat any

$_ZNSt12__shared_ptrIN19OpenColorIO_v2_4dev14GroupTransformELN9__gnu_cxx12_Lock_policyE2EED2Ev = comdat any

$_ZNSt6vectorISt10shared_ptrIN19OpenColorIO_v2_4dev2OpEESaIS3_EED2Ev = comdat any

$_ZSt8_DestroyIPSt10shared_ptrIN19OpenColorIO_v2_4dev2OpEES3_EvT_S5_RSaIT0_E = comdat any

$_ZNSt12_Vector_baseISt10shared_ptrIN19OpenColorIO_v2_4dev2OpEESaIS3_EE19_M_get_Tp_allocatorEv = comdat any

$_ZNSt12_Vector_baseISt10shared_ptrIN19OpenColorIO_v2_4dev2OpEESaIS3_EED2Ev = comdat any

$_ZSt8_DestroyIPSt10shared_ptrIN19OpenColorIO_v2_4dev2OpEEEvT_S5_ = comdat any

$_ZNSt12_Destroy_auxILb0EE9__destroyIPSt10shared_ptrIN19OpenColorIO_v2_4dev2OpEEEEvT_S7_ = comdat any

$_ZSt8_DestroyISt10shared_ptrIN19OpenColorIO_v2_4dev2OpEEEvPT_ = comdat any

$_ZNSt10shared_ptrIN19OpenColorIO_v2_4dev2OpEED2Ev = comdat any

$_ZNSt12__shared_ptrIN19OpenColorIO_v2_4dev2OpELN9__gnu_cxx12_Lock_policyE2EED2Ev = comdat any

$_ZNSt12_Vector_baseISt10shared_ptrIN19OpenColorIO_v2_4dev2OpEESaIS3_EE13_M_deallocateEPS3_m = comdat any

$_ZNSt12_Vector_baseISt10shared_ptrIN19OpenColorIO_v2_4dev2OpEESaIS3_EE12_Vector_implD2Ev = comdat any

$_ZNSt16allocator_traitsISaISt10shared_ptrIN19OpenColorIO_v2_4dev2OpEEEE10deallocateERS4_PS3_m = comdat any

$_ZNSt15__new_allocatorISt10shared_ptrIN19OpenColorIO_v2_4dev2OpEEE10deallocateEPS3_m = comdat any

$_ZNSaISt10shared_ptrIN19OpenColorIO_v2_4dev2OpEEED2Ev = comdat any

$_ZNSt15__new_allocatorISt10shared_ptrIN19OpenColorIO_v2_4dev2OpEEED2Ev = comdat any

$_ZNSt12_Vector_baseIfSaIfEED2Ev = comdat any

$_ZNSt12_Vector_baseIfSaIfEE12_Vector_implD2Ev = comdat any

$_ZNSaIfED2Ev = comdat any

$_ZNSt15__new_allocatorIfED2Ev = comdat any

$_ZNSt12__shared_ptrIKN19OpenColorIO_v2_4dev6ConfigELN9__gnu_cxx12_Lock_policyE2EED2Ev = comdat any

$_ZNKSt19__shared_ptr_accessIKN19OpenColorIO_v2_4dev6ConfigELN9__gnu_cxx12_Lock_policyE2ELb0ELb0EEdeEv = comdat any

$_ZSt11make_sharedIN19OpenColorIO_v2_4dev18CTFReaderTransformEJRNS0_10OpRcPtrVecERKNS0_18FormatMetadataImplEEESt10shared_ptrINSt9enable_ifIXntsr8is_arrayIT_EE5valueES9_E4typeEEDpOT0_ = comdat any

$_ZNSt10shared_ptrIKN19OpenColorIO_v2_4dev18CTFReaderTransformEEC2IS1_vEERKS_IT_E = comdat any

$_ZNSt10shared_ptrIKN19OpenColorIO_v2_4dev18CTFReaderTransformEED2Ev = comdat any

$_ZNSt10shared_ptrIN19OpenColorIO_v2_4dev18CTFReaderTransformEEC2ISaIvEJRNS0_10OpRcPtrVecERKNS0_18FormatMetadataImplEEEESt20_Sp_alloc_shared_tagIT_EDpOT0_ = comdat any

$_ZNSt12__shared_ptrIN19OpenColorIO_v2_4dev18CTFReaderTransformELN9__gnu_cxx12_Lock_policyE2EEC2ISaIvEJRNS0_10OpRcPtrVecERKNS0_18FormatMetadataImplEEEESt20_Sp_alloc_shared_tagIT_EDpOT0_ = comdat any

$_ZNSt14__shared_countILN9__gnu_cxx12_Lock_policyE2EEC2IN19OpenColorIO_v2_4dev18CTFReaderTransformESaIvEJRNS4_10OpRcPtrVecERKNS4_18FormatMetadataImplEEEERPT_St20_Sp_alloc_shared_tagIT0_EDpOT1_ = comdat any

$_ZNSt12__shared_ptrIN19OpenColorIO_v2_4dev18CTFReaderTransformELN9__gnu_cxx12_Lock_policyE2EE31_M_enable_shared_from_this_withIS1_S1_EENSt9enable_ifIXntsr15__has_esft_baseIT0_EE5valueEvE4typeEPT_ = comdat any

$_ZNSaISt23_Sp_counted_ptr_inplaceIN19OpenColorIO_v2_4dev18CTFReaderTransformESaIvELN9__gnu_cxx12_Lock_policyE2EEEC2IvEERKSaIT_E = comdat any

$_ZSt18__allocate_guardedISaISt23_Sp_counted_ptr_inplaceIN19OpenColorIO_v2_4dev18CTFReaderTransformESaIvELN9__gnu_cxx12_Lock_policyE2EEEESt15__allocated_ptrIT_ERS9_ = comdat any

$_ZNSt15__allocated_ptrISaISt23_Sp_counted_ptr_inplaceIN19OpenColorIO_v2_4dev18CTFReaderTransformESaIvELN9__gnu_cxx12_Lock_policyE2EEEE3getEv = comdat any

$_ZNSt23_Sp_counted_ptr_inplaceIN19OpenColorIO_v2_4dev18CTFReaderTransformESaIvELN9__gnu_cxx12_Lock_policyE2EEC2IJRNS0_10OpRcPtrVecERKNS0_18FormatMetadataImplEEEES2_DpOT_ = comdat any

$_ZNSt15__allocated_ptrISaISt23_Sp_counted_ptr_inplaceIN19OpenColorIO_v2_4dev18CTFReaderTransformESaIvELN9__gnu_cxx12_Lock_policyE2EEEEaSEDn = comdat any

$_ZNSt23_Sp_counted_ptr_inplaceIN19OpenColorIO_v2_4dev18CTFReaderTransformESaIvELN9__gnu_cxx12_Lock_policyE2EE6_M_ptrEv = comdat any

$_ZNSt15__allocated_ptrISaISt23_Sp_counted_ptr_inplaceIN19OpenColorIO_v2_4dev18CTFReaderTransformESaIvELN9__gnu_cxx12_Lock_policyE2EEEED2Ev = comdat any

$_ZNSaISt23_Sp_counted_ptr_inplaceIN19OpenColorIO_v2_4dev18CTFReaderTransformESaIvELN9__gnu_cxx12_Lock_policyE2EEED2Ev = comdat any

$_ZNSt15__new_allocatorISt23_Sp_counted_ptr_inplaceIN19OpenColorIO_v2_4dev18CTFReaderTransformESaIvELN9__gnu_cxx12_Lock_policyE2EEEC2Ev = comdat any

$_ZNSt16allocator_traitsISaISt23_Sp_counted_ptr_inplaceIN19OpenColorIO_v2_4dev18CTFReaderTransformESaIvELN9__gnu_cxx12_Lock_policyE2EEEE8allocateERS7_m = comdat any

$_ZNSt15__allocated_ptrISaISt23_Sp_counted_ptr_inplaceIN19OpenColorIO_v2_4dev18CTFReaderTransformESaIvELN9__gnu_cxx12_Lock_policyE2EEEEC2ERS7_PS6_ = comdat any

$_ZNSt15__new_allocatorISt23_Sp_counted_ptr_inplaceIN19OpenColorIO_v2_4dev18CTFReaderTransformESaIvELN9__gnu_cxx12_Lock_policyE2EEE8allocateEmPKv = comdat any

$_ZNKSt15__new_allocatorISt23_Sp_counted_ptr_inplaceIN19OpenColorIO_v2_4dev18CTFReaderTransformESaIvELN9__gnu_cxx12_Lock_policyE2EEE11_M_max_sizeEv = comdat any

$_ZSt12__to_addressISt23_Sp_counted_ptr_inplaceIN19OpenColorIO_v2_4dev18CTFReaderTransformESaIvELN9__gnu_cxx12_Lock_policyE2EEEPT_S8_ = comdat any

$_ZNSt23_Sp_counted_ptr_inplaceIN19OpenColorIO_v2_4dev18CTFReaderTransformESaIvELN9__gnu_cxx12_Lock_policyE2EE5_ImplC2ES2_ = comdat any

$_ZNSt16allocator_traitsISaIvEE9constructIN19OpenColorIO_v2_4dev18CTFReaderTransformEJRNS3_10OpRcPtrVecERKNS3_18FormatMetadataImplEEEEvRS0_PT_DpOT0_ = comdat any

$_ZNSt23_Sp_counted_ptr_inplaceIN19OpenColorIO_v2_4dev18CTFReaderTransformESaIvELN9__gnu_cxx12_Lock_policyE2EED2Ev = comdat any

$_ZNSt23_Sp_counted_ptr_inplaceIN19OpenColorIO_v2_4dev18CTFReaderTransformESaIvELN9__gnu_cxx12_Lock_policyE2EED0Ev = comdat any

$_ZNSt23_Sp_counted_ptr_inplaceIN19OpenColorIO_v2_4dev18CTFReaderTransformESaIvELN9__gnu_cxx12_Lock_policyE2EE10_M_disposeEv = comdat any

$_ZNSt23_Sp_counted_ptr_inplaceIN19OpenColorIO_v2_4dev18CTFReaderTransformESaIvELN9__gnu_cxx12_Lock_policyE2EE10_M_destroyEv = comdat any

$_ZNSt23_Sp_counted_ptr_inplaceIN19OpenColorIO_v2_4dev18CTFReaderTransformESaIvELN9__gnu_cxx12_Lock_policyE2EE14_M_get_deleterERKSt9type_info = comdat any

$_ZSt10_ConstructIN19OpenColorIO_v2_4dev18CTFReaderTransformEJRNS0_10OpRcPtrVecERKNS0_18FormatMetadataImplEEEvPT_DpOT0_ = comdat any

$_ZNSt16allocator_traitsISaIvEE7destroyIN19OpenColorIO_v2_4dev18CTFReaderTransformEEEvRS0_PT_ = comdat any

$_ZNSt23_Sp_counted_ptr_inplaceIN19OpenColorIO_v2_4dev18CTFReaderTransformESaIvELN9__gnu_cxx12_Lock_policyE2EE5_Impl8_M_allocEv = comdat any

$_ZSt8_DestroyIN19OpenColorIO_v2_4dev18CTFReaderTransformEEvPT_ = comdat any

$_ZN19OpenColorIO_v2_4dev18CTFReaderTransformD2Ev = comdat any

$_ZNSt6vectorINSt7__cxx1112basic_stringIcSt11char_traitsIcESaIcEEESaIS5_EED2Ev = comdat any

$_ZNSt6vectorISt10shared_ptrIKN19OpenColorIO_v2_4dev6OpDataEESaIS4_EED2Ev = comdat any

$_ZSt8_DestroyIPNSt7__cxx1112basic_stringIcSt11char_traitsIcESaIcEEES5_EvT_S7_RSaIT0_E = comdat any

$_ZNSt12_Vector_baseINSt7__cxx1112basic_stringIcSt11char_traitsIcESaIcEEESaIS5_EE19_M_get_Tp_allocatorEv = comdat any

$_ZNSt12_Vector_baseINSt7__cxx1112basic_stringIcSt11char_traitsIcESaIcEEESaIS5_EED2Ev = comdat any

$_ZSt8_DestroyIPNSt7__cxx1112basic_stringIcSt11char_traitsIcESaIcEEEEvT_S7_ = comdat any

$_ZNSt12_Destroy_auxILb0EE9__destroyIPNSt7__cxx1112basic_stringIcSt11char_traitsIcESaIcEEEEEvT_S9_ = comdat any

$_ZSt8_DestroyINSt7__cxx1112basic_stringIcSt11char_traitsIcESaIcEEEEvPT_ = comdat any

$_ZNSt12_Vector_baseINSt7__cxx1112basic_stringIcSt11char_traitsIcESaIcEEESaIS5_EE13_M_deallocateEPS5_m = comdat any

$_ZNSt12_Vector_baseINSt7__cxx1112basic_stringIcSt11char_traitsIcESaIcEEESaIS5_EE12_Vector_implD2Ev = comdat any

$_ZNSt16allocator_traitsISaINSt7__cxx1112basic_stringIcSt11char_traitsIcESaIcEEEEE10deallocateERS6_PS5_m = comdat any

$_ZNSt15__new_allocatorINSt7__cxx1112basic_stringIcSt11char_traitsIcESaIcEEEE10deallocateEPS5_m = comdat any

$_ZNSaINSt7__cxx1112basic_stringIcSt11char_traitsIcESaIcEEEED2Ev = comdat any

$_ZNSt15__new_allocatorINSt7__cxx1112basic_stringIcSt11char_traitsIcESaIcEEEED2Ev = comdat any

$_ZSt8_DestroyIPSt10shared_ptrIKN19OpenColorIO_v2_4dev6OpDataEES4_EvT_S6_RSaIT0_E = comdat any

$_ZNSt12_Vector_baseISt10shared_ptrIKN19OpenColorIO_v2_4dev6OpDataEESaIS4_EE19_M_get_Tp_allocatorEv = comdat any

$_ZNSt12_Vector_baseISt10shared_ptrIKN19OpenColorIO_v2_4dev6OpDataEESaIS4_EED2Ev = comdat any

$_ZSt8_DestroyIPSt10shared_ptrIKN19OpenColorIO_v2_4dev6OpDataEEEvT_S6_ = comdat any

$_ZNSt12_Destroy_auxILb0EE9__destroyIPSt10shared_ptrIKN19OpenColorIO_v2_4dev6OpDataEEEEvT_S8_ = comdat any

$_ZSt8_DestroyISt10shared_ptrIKN19OpenColorIO_v2_4dev6OpDataEEEvPT_ = comdat any

$_ZNSt10shared_ptrIKN19OpenColorIO_v2_4dev6OpDataEED2Ev = comdat any

$_ZNSt12__shared_ptrIKN19OpenColorIO_v2_4dev6OpDataELN9__gnu_cxx12_Lock_policyE2EED2Ev = comdat any

$_ZNSt12_Vector_baseISt10shared_ptrIKN19OpenColorIO_v2_4dev6OpDataEESaIS4_EE13_M_deallocateEPS4_m = comdat any

$_ZNSt12_Vector_baseISt10shared_ptrIKN19OpenColorIO_v2_4dev6OpDataEESaIS4_EE12_Vector_implD2Ev = comdat any

$_ZNSt16allocator_traitsISaISt10shared_ptrIKN19OpenColorIO_v2_4dev6OpDataEEEE10deallocateERS5_PS4_m = comdat any

$_ZNSt15__new_allocatorISt10shared_ptrIKN19OpenColorIO_v2_4dev6OpDataEEE10deallocateEPS4_m = comdat any

$_ZNSaISt10shared_ptrIKN19OpenColorIO_v2_4dev6OpDataEEED2Ev = comdat any

$_ZNSt15__new_allocatorISt10shared_ptrIKN19OpenColorIO_v2_4dev6OpDataEEED2Ev = comdat any

$_ZN9__gnu_cxx16__aligned_bufferIN19OpenColorIO_v2_4dev18CTFReaderTransformEE6_M_ptrEv = comdat any

$_ZN9__gnu_cxx16__aligned_bufferIN19OpenColorIO_v2_4dev18CTFReaderTransformEE7_M_addrEv = comdat any

$_ZNSt16allocator_traitsISaISt23_Sp_counted_ptr_inplaceIN19OpenColorIO_v2_4dev18CTFReaderTransformESaIvELN9__gnu_cxx12_Lock_policyE2EEEE10deallocateERS7_PS6_m = comdat any

$_ZNSt15__new_allocatorISt23_Sp_counted_ptr_inplaceIN19OpenColorIO_v2_4dev18CTFReaderTransformESaIvELN9__gnu_cxx12_Lock_policyE2EEE10deallocateEPS6_m = comdat any

$_ZNSt15__new_allocatorISt23_Sp_counted_ptr_inplaceIN19OpenColorIO_v2_4dev18CTFReaderTransformESaIvELN9__gnu_cxx12_Lock_policyE2EEED2Ev = comdat any

$_ZNSt12__shared_ptrIKN19OpenColorIO_v2_4dev18CTFReaderTransformELN9__gnu_cxx12_Lock_policyE2EEC2IS1_vEERKS_IT_LS4_2EE = comdat any

$_ZNSt12__shared_ptrIKN19OpenColorIO_v2_4dev18CTFReaderTransformELN9__gnu_cxx12_Lock_policyE2EED2Ev = comdat any

$_ZN19OpenColorIO_v2_4dev10OpRcPtrVec17getFormatMetadataEv = comdat any

$_ZN9__gnu_cxxneIPKSt10shared_ptrIKN19OpenColorIO_v2_4dev6OpDataEESt6vectorIS5_SaIS5_EEEEbRKNS_17__normal_iteratorIT_T0_EESG_ = comdat any

$_ZNK9__gnu_cxx17__normal_iteratorIPKSt10shared_ptrIKN19OpenColorIO_v2_4dev6OpDataEESt6vectorIS5_SaIS5_EEEdeEv = comdat any

$_ZNSt10shared_ptrIKN19OpenColorIO_v2_4dev6OpDataEEC2ERKS3_ = comdat any

$_ZN9__gnu_cxx17__normal_iteratorIPKSt10shared_ptrIKN19OpenColorIO_v2_4dev6OpDataEESt6vectorIS5_SaIS5_EEEppEv = comdat any

$_ZNKSt6vectorISt10shared_ptrIKN19OpenColorIO_v2_4dev6OpDataEESaIS4_EE4sizeEv = comdat any

$_ZNKSt6vectorISt10shared_ptrIKN19OpenColorIO_v2_4dev6OpDataEESaIS4_EEixEm = comdat any

$_ZNKSt12__shared_ptrIN19OpenColorIO_v2_4dev10CachedFileELN9__gnu_cxx12_Lock_policyE2EE3getEv = comdat any

$_ZNSt12__shared_ptrIKN19OpenColorIO_v2_4dev6OpDataELN9__gnu_cxx12_Lock_policyE2EEC2ERKS5_ = comdat any

$_ZNKSt19__shared_ptr_accessIKN19OpenColorIO_v2_4dev6OpDataELN9__gnu_cxx12_Lock_policyE2ELb0ELb0EEptEv = comdat any

$_ZNKSt19__shared_ptr_accessIKN19OpenColorIO_v2_4dev6OpDataELN9__gnu_cxx12_Lock_policyE2ELb0ELb0EE6_M_getEv = comdat any

$_ZNKSt12__shared_ptrIKN19OpenColorIO_v2_4dev6OpDataELN9__gnu_cxx12_Lock_policyE2EE3getEv = comdat any

$_ZSt20dynamic_pointer_castIKN19OpenColorIO_v2_4dev11Lut1DOpDataEKNS0_6OpDataEESt10shared_ptrIT_ERKS5_IT0_E = comdat any

$_ZNKSt19__shared_ptr_accessIKN19OpenColorIO_v2_4dev11Lut1DOpDataELN9__gnu_cxx12_Lock_policyE2ELb0ELb0EEptEv = comdat any

$_ZNK19OpenColorIO_v2_4dev11Lut1DOpData16getInterpolationEv = comdat any

$_ZNSt10shared_ptrIKN19OpenColorIO_v2_4dev6OpDataEEaSINS0_11Lut1DOpDataEEENSt9enable_ifIXsr13is_assignableIRSt12__shared_ptrIS2_LN9__gnu_cxx12_Lock_policyE2EERKS_IT_EEE5valueERS3_E4typeESF_ = comdat any

$_ZNSt10shared_ptrIKN19OpenColorIO_v2_4dev11Lut1DOpDataEED2Ev = comdat any

$_ZNSt10shared_ptrIKN19OpenColorIO_v2_4dev11Lut1DOpDataEEC2IKNS0_6OpDataEEERKS_IT_EPS2_ = comdat any

$_ZNSt10shared_ptrIKN19OpenColorIO_v2_4dev11Lut1DOpDataEEC2Ev = comdat any

$_ZNSt12__shared_ptrIKN19OpenColorIO_v2_4dev11Lut1DOpDataELN9__gnu_cxx12_Lock_policyE2EEC2IKNS0_6OpDataEEERKS_IT_LS4_2EEPS2_ = comdat any

$_ZNSt12__shared_ptrIKN19OpenColorIO_v2_4dev11Lut1DOpDataELN9__gnu_cxx12_Lock_policyE2EEC2Ev = comdat any

$_ZNKSt19__shared_ptr_accessIKN19OpenColorIO_v2_4dev11Lut1DOpDataELN9__gnu_cxx12_Lock_policyE2ELb0ELb0EE6_M_getEv = comdat any

$_ZNKSt12__shared_ptrIKN19OpenColorIO_v2_4dev11Lut1DOpDataELN9__gnu_cxx12_Lock_policyE2EE3getEv = comdat any

$_ZNSt12__shared_ptrIKN19OpenColorIO_v2_4dev6OpDataELN9__gnu_cxx12_Lock_policyE2EEaSINS0_11Lut1DOpDataEEENSt9enable_ifIXsr20__sp_compatible_withIPT_PS2_EE5valueERS5_E4typeERKS_IS9_LS4_2EE = comdat any

$_ZNSt12__shared_ptrIKN19OpenColorIO_v2_4dev11Lut1DOpDataELN9__gnu_cxx12_Lock_policyE2EED2Ev = comdat any

$_ZSt20dynamic_pointer_castIKN19OpenColorIO_v2_4dev11Lut3DOpDataEKNS0_6OpDataEESt10shared_ptrIT_ERKS5_IT0_E = comdat any

$_ZNKSt19__shared_ptr_accessIKN19OpenColorIO_v2_4dev11Lut3DOpDataELN9__gnu_cxx12_Lock_policyE2ELb0ELb0EEptEv = comdat any

$_ZNK19OpenColorIO_v2_4dev11Lut3DOpData16getInterpolationEv = comdat any

$_ZNSt10shared_ptrIKN19OpenColorIO_v2_4dev6OpDataEEaSINS0_11Lut3DOpDataEEENSt9enable_ifIXsr13is_assignableIRSt12__shared_ptrIS2_LN9__gnu_cxx12_Lock_policyE2EERKS_IT_EEE5valueERS3_E4typeESF_ = comdat any

$_ZNSt10shared_ptrIKN19OpenColorIO_v2_4dev11Lut3DOpDataEED2Ev = comdat any

$_ZNSt10shared_ptrIKN19OpenColorIO_v2_4dev11Lut3DOpDataEEC2IKNS0_6OpDataEEERKS_IT_EPS2_ = comdat any

$_ZNSt10shared_ptrIKN19OpenColorIO_v2_4dev11Lut3DOpDataEEC2Ev = comdat any

$_ZNSt12__shared_ptrIKN19OpenColorIO_v2_4dev11Lut3DOpDataELN9__gnu_cxx12_Lock_policyE2EEC2IKNS0_6OpDataEEERKS_IT_LS4_2EEPS2_ = comdat any

$_ZNSt12__shared_ptrIKN19OpenColorIO_v2_4dev11Lut3DOpDataELN9__gnu_cxx12_Lock_policyE2EEC2Ev = comdat any

$_ZNKSt19__shared_ptr_accessIKN19OpenColorIO_v2_4dev11Lut3DOpDataELN9__gnu_cxx12_Lock_policyE2ELb0ELb0EE6_M_getEv = comdat any

$_ZNKSt12__shared_ptrIKN19OpenColorIO_v2_4dev11Lut3DOpDataELN9__gnu_cxx12_Lock_policyE2EE3getEv = comdat any

$_ZNSt12__shared_ptrIKN19OpenColorIO_v2_4dev6OpDataELN9__gnu_cxx12_Lock_policyE2EEaSINS0_11Lut3DOpDataEEENSt9enable_ifIXsr20__sp_compatible_withIPT_PS2_EE5valueERS5_E4typeERKS_IS9_LS4_2EE = comdat any

$_ZNSt12__shared_ptrIKN19OpenColorIO_v2_4dev11Lut3DOpDataELN9__gnu_cxx12_Lock_policyE2EED2Ev = comdat any

$_ZN19OpenColorIO_v2_4dev14DynamicPtrCastIKNS_15ReferenceOpDataEKNS_6OpDataEEESt10shared_ptrIT_ERKS5_IT0_E = comdat any

$_ZNKSt19__shared_ptr_accessIKN19OpenColorIO_v2_4dev15ReferenceOpDataELN9__gnu_cxx12_Lock_policyE2ELb0ELb0EEptEv = comdat any

$_ZNK19OpenColorIO_v2_4dev15ReferenceOpData17getReferenceStyleEv = comdat any

$_ZNK19OpenColorIO_v2_4dev15ReferenceOpData12getDirectionEv = comdat any

$_ZNKSt19__shared_ptr_accessIN19OpenColorIO_v2_4dev13FileTransformELN9__gnu_cxx12_Lock_policyE2ELb0ELb0EEptEv = comdat any

$_ZNK19OpenColorIO_v2_4dev15ReferenceOpData7getPathB5cxx11Ev = comdat any

$_ZNKSt12__shared_ptrIN19OpenColorIO_v2_4dev13FileTransformELN9__gnu_cxx12_Lock_policyE2EE3getEv = comdat any

$_ZNSt10shared_ptrIN19OpenColorIO_v2_4dev13FileTransformEED2Ev = comdat any

$_ZNSt10shared_ptrIKN19OpenColorIO_v2_4dev15ReferenceOpDataEED2Ev = comdat any

$_ZSt20dynamic_pointer_castIKN19OpenColorIO_v2_4dev15ReferenceOpDataEKNS0_6OpDataEESt10shared_ptrIT_ERKS5_IT0_E = comdat any

$_ZNSt10shared_ptrIKN19OpenColorIO_v2_4dev15ReferenceOpDataEEC2IKNS0_6OpDataEEERKS_IT_EPS2_ = comdat any

$_ZNSt10shared_ptrIKN19OpenColorIO_v2_4dev15ReferenceOpDataEEC2Ev = comdat any

$_ZNSt12__shared_ptrIKN19OpenColorIO_v2_4dev15ReferenceOpDataELN9__gnu_cxx12_Lock_policyE2EEC2IKNS0_6OpDataEEERKS_IT_LS4_2EEPS2_ = comdat any

$_ZNSt12__shared_ptrIKN19OpenColorIO_v2_4dev15ReferenceOpDataELN9__gnu_cxx12_Lock_policyE2EEC2Ev = comdat any

$_ZNKSt19__shared_ptr_accessIKN19OpenColorIO_v2_4dev15ReferenceOpDataELN9__gnu_cxx12_Lock_policyE2ELb0ELb0EE6_M_getEv = comdat any

$_ZNKSt12__shared_ptrIKN19OpenColorIO_v2_4dev15ReferenceOpDataELN9__gnu_cxx12_Lock_policyE2EE3getEv = comdat any

$_ZNKSt19__shared_ptr_accessIN19OpenColorIO_v2_4dev13FileTransformELN9__gnu_cxx12_Lock_policyE2ELb0ELb0EE6_M_getEv = comdat any

$_ZNSt12__shared_ptrIN19OpenColorIO_v2_4dev13FileTransformELN9__gnu_cxx12_Lock_policyE2EED2Ev = comdat any

$_ZNSt12__shared_ptrIKN19OpenColorIO_v2_4dev15ReferenceOpDataELN9__gnu_cxx12_Lock_policyE2EED2Ev = comdat any

$_ZTSN19OpenColorIO_v2_4dev21XmlReaderContainerEltE = comdat any

$_ZTIN19OpenColorIO_v2_4dev21XmlReaderContainerEltE = comdat any

$_ZTVSt23_Sp_counted_ptr_inplaceIN19OpenColorIO_v2_4dev20CTFReaderMetadataEltESaIvELN9__gnu_cxx12_Lock_policyE2EE = comdat any

$_ZTSSt23_Sp_counted_ptr_inplaceIN19OpenColorIO_v2_4dev20CTFReaderMetadataEltESaIvELN9__gnu_cxx12_Lock_policyE2EE = comdat any

$_ZTSSt16_Sp_counted_baseILN9__gnu_cxx12_Lock_policyE2EE = comdat any

$_ZTSSt11_Mutex_baseILN9__gnu_cxx12_Lock_policyE2EE = comdat any

$_ZTISt11_Mutex_baseILN9__gnu_cxx12_Lock_policyE2EE = comdat any

$_ZTISt16_Sp_counted_baseILN9__gnu_cxx12_Lock_policyE2EE = comdat any

$_ZTISt23_Sp_counted_ptr_inplaceIN19OpenColorIO_v2_4dev20CTFReaderMetadataEltESaIvELN9__gnu_cxx12_Lock_policyE2EE = comdat any

$_ZTVSt16_Sp_counted_baseILN9__gnu_cxx12_Lock_policyE2EE = comdat any

$_ZTSSt19_Sp_make_shared_tag = comdat any

$_ZTISt19_Sp_make_shared_tag = comdat any

$_ZZNSt19_Sp_make_shared_tag5_S_tiEvE5__tag = comdat any

$_ZTVSt23_Sp_counted_ptr_inplaceIN19OpenColorIO_v2_4dev17XmlReaderDummyEltESaIvELN9__gnu_cxx12_Lock_policyE2EE = comdat any

$_ZTSSt23_Sp_counted_ptr_inplaceIN19OpenColorIO_v2_4dev17XmlReaderDummyEltESaIvELN9__gnu_cxx12_Lock_policyE2EE = comdat any

$_ZTISt23_Sp_counted_ptr_inplaceIN19OpenColorIO_v2_4dev17XmlReaderDummyEltESaIvELN9__gnu_cxx12_Lock_policyE2EE = comdat any

$_ZTVSt23_Sp_counted_ptr_inplaceIN19OpenColorIO_v2_4dev21CTFReaderTransformEltESaIvELN9__gnu_cxx12_Lock_policyE2EE = comdat any

$_ZTSSt23_Sp_counted_ptr_inplaceIN19OpenColorIO_v2_4dev21CTFReaderTransformEltESaIvELN9__gnu_cxx12_Lock_policyE2EE = comdat any

$_ZTISt23_Sp_counted_ptr_inplaceIN19OpenColorIO_v2_4dev21CTFReaderTransformEltESaIvELN9__gnu_cxx12_Lock_policyE2EE = comdat any

$_ZTVSt23_Sp_counted_ptr_inplaceIN19OpenColorIO_v2_4dev22CTFReaderACESParamsEltESaIvELN9__gnu_cxx12_Lock_policyE2EE = comdat any

$_ZTSSt23_Sp_counted_ptr_inplaceIN19OpenColorIO_v2_4dev22CTFReaderACESParamsEltESaIvELN9__gnu_cxx12_Lock_policyE2EE = comdat any

$_ZTISt23_Sp_counted_ptr_inplaceIN19OpenColorIO_v2_4dev22CTFReaderACESParamsEltESaIvELN9__gnu_cxx12_Lock_policyE2EE = comdat any

$_ZTVSt23_Sp_counted_ptr_inplaceIN19OpenColorIO_v2_4dev17CTFReaderArrayEltESaIvELN9__gnu_cxx12_Lock_policyE2EE = comdat any

$_ZTSSt23_Sp_counted_ptr_inplaceIN19OpenColorIO_v2_4dev17CTFReaderArrayEltESaIvELN9__gnu_cxx12_Lock_policyE2EE = comdat any

$_ZTISt23_Sp_counted_ptr_inplaceIN19OpenColorIO_v2_4dev17CTFReaderArrayEltESaIvELN9__gnu_cxx12_Lock_policyE2EE = comdat any

$_ZTVSt23_Sp_counted_ptr_inplaceIN19OpenColorIO_v2_4dev23XmlReaderDescriptionEltESaIvELN9__gnu_cxx12_Lock_policyE2EE = comdat any

$_ZTSSt23_Sp_counted_ptr_inplaceIN19OpenColorIO_v2_4dev23XmlReaderDescriptionEltESaIvELN9__gnu_cxx12_Lock_policyE2EE = comdat any

$_ZTISt23_Sp_counted_ptr_inplaceIN19OpenColorIO_v2_4dev23XmlReaderDescriptionEltESaIvELN9__gnu_cxx12_Lock_policyE2EE = comdat any

$_ZTVN19OpenColorIO_v2_4dev17XmlReaderPlainEltE = comdat any

$_ZTSN19OpenColorIO_v2_4dev17XmlReaderPlainEltE = comdat any

$_ZTIN19OpenColorIO_v2_4dev17XmlReaderPlainEltE = comdat any

$_ZTVSt23_Sp_counted_ptr_inplaceIN19OpenColorIO_v2_4dev24CTFReaderDynamicParamEltESaIvELN9__gnu_cxx12_Lock_policyE2EE = comdat any

$_ZTSSt23_Sp_counted_ptr_inplaceIN19OpenColorIO_v2_4dev24CTFReaderDynamicParamEltESaIvELN9__gnu_cxx12_Lock_policyE2EE = comdat any

$_ZTISt23_Sp_counted_ptr_inplaceIN19OpenColorIO_v2_4dev24CTFReaderDynamicParamEltESaIvELN9__gnu_cxx12_Lock_policyE2EE = comdat any

$_ZTVSt23_Sp_counted_ptr_inplaceIN19OpenColorIO_v2_4dev20CTFReaderECParamsEltESaIvELN9__gnu_cxx12_Lock_policyE2EE = comdat any

$_ZTSSt23_Sp_counted_ptr_inplaceIN19OpenColorIO_v2_4dev20CTFReaderECParamsEltESaIvELN9__gnu_cxx12_Lock_policyE2EE = comdat any

$_ZTISt23_Sp_counted_ptr_inplaceIN19OpenColorIO_v2_4dev20CTFReaderECParamsEltESaIvELN9__gnu_cxx12_Lock_policyE2EE = comdat any

$_ZTSN19OpenColorIO_v2_4dev14CTFIndexMapMgtE = comdat any

$_ZTIN19OpenColorIO_v2_4dev14CTFIndexMapMgtE = comdat any

$_ZTVSt23_Sp_counted_ptr_inplaceIN19OpenColorIO_v2_4dev20CTFReaderIndexMapEltESaIvELN9__gnu_cxx12_Lock_policyE2EE = comdat any

$_ZTSSt23_Sp_counted_ptr_inplaceIN19OpenColorIO_v2_4dev20CTFReaderIndexMapEltESaIvELN9__gnu_cxx12_Lock_policyE2EE = comdat any

$_ZTISt23_Sp_counted_ptr_inplaceIN19OpenColorIO_v2_4dev20CTFReaderIndexMapEltESaIvELN9__gnu_cxx12_Lock_policyE2EE = comdat any

$_ZTVSt23_Sp_counted_ptr_inplaceIN19OpenColorIO_v2_4dev16CTFReaderInfoEltESaIvELN9__gnu_cxx12_Lock_policyE2EE = comdat any

$_ZTSSt23_Sp_counted_ptr_inplaceIN19OpenColorIO_v2_4dev16CTFReaderInfoEltESaIvELN9__gnu_cxx12_Lock_policyE2EE = comdat any

$_ZTISt23_Sp_counted_ptr_inplaceIN19OpenColorIO_v2_4dev16CTFReaderInfoEltESaIvELN9__gnu_cxx12_Lock_policyE2EE = comdat any

$_ZTVSt23_Sp_counted_ptr_inplaceIN19OpenColorIO_v2_4dev27CTFReaderInputDescriptorEltESaIvELN9__gnu_cxx12_Lock_policyE2EE = comdat any

$_ZTSSt23_Sp_counted_ptr_inplaceIN19OpenColorIO_v2_4dev27CTFReaderInputDescriptorEltESaIvELN9__gnu_cxx12_Lock_policyE2EE = comdat any

$_ZTISt23_Sp_counted_ptr_inplaceIN19OpenColorIO_v2_4dev27CTFReaderInputDescriptorEltESaIvELN9__gnu_cxx12_Lock_policyE2EE = comdat any

$_ZTVN19OpenColorIO_v2_4dev27CTFReaderInputDescriptorEltE = comdat any

$_ZTSN19OpenColorIO_v2_4dev27CTFReaderInputDescriptorEltE = comdat any

$_ZTIN19OpenColorIO_v2_4dev27CTFReaderInputDescriptorEltE = comdat any

$_ZTVSt23_Sp_counted_ptr_inplaceIN19OpenColorIO_v2_4dev28CTFReaderOutputDescriptorEltESaIvELN9__gnu_cxx12_Lock_policyE2EE = comdat any

$_ZTSSt23_Sp_counted_ptr_inplaceIN19OpenColorIO_v2_4dev28CTFReaderOutputDescriptorEltESaIvELN9__gnu_cxx12_Lock_policyE2EE = comdat any

$_ZTISt23_Sp_counted_ptr_inplaceIN19OpenColorIO_v2_4dev28CTFReaderOutputDescriptorEltESaIvELN9__gnu_cxx12_Lock_policyE2EE = comdat any

$_ZTVN19OpenColorIO_v2_4dev28CTFReaderOutputDescriptorEltE = comdat any

$_ZTSN19OpenColorIO_v2_4dev28CTFReaderOutputDescriptorEltE = comdat any

$_ZTIN19OpenColorIO_v2_4dev28CTFReaderOutputDescriptorEltE = comdat any

$_ZTVSt23_Sp_counted_ptr_inplaceIN19OpenColorIO_v2_4dev22CTFReaderRangeValueEltESaIvELN9__gnu_cxx12_Lock_policyE2EE = comdat any

$_ZTSSt23_Sp_counted_ptr_inplaceIN19OpenColorIO_v2_4dev22CTFReaderRangeValueEltESaIvELN9__gnu_cxx12_Lock_policyE2EE = comdat any

$_ZTISt23_Sp_counted_ptr_inplaceIN19OpenColorIO_v2_4dev22CTFReaderRangeValueEltESaIvELN9__gnu_cxx12_Lock_policyE2EE = comdat any

$_ZTVSt23_Sp_counted_ptr_inplaceIN19OpenColorIO_v2_4dev19CTFReaderSatNodeEltESaIvELN9__gnu_cxx12_Lock_policyE2EE = comdat any

$_ZTSSt23_Sp_counted_ptr_inplaceIN19OpenColorIO_v2_4dev19CTFReaderSatNodeEltESaIvELN9__gnu_cxx12_Lock_policyE2EE = comdat any

$_ZTISt23_Sp_counted_ptr_inplaceIN19OpenColorIO_v2_4dev19CTFReaderSatNodeEltESaIvELN9__gnu_cxx12_Lock_policyE2EE = comdat any

$_ZTVSt23_Sp_counted_ptr_inplaceIN19OpenColorIO_v2_4dev22XmlReaderSaturationEltESaIvELN9__gnu_cxx12_Lock_policyE2EE = comdat any

$_ZTSSt23_Sp_counted_ptr_inplaceIN19OpenColorIO_v2_4dev22XmlReaderSaturationEltESaIvELN9__gnu_cxx12_Lock_policyE2EE = comdat any

$_ZTISt23_Sp_counted_ptr_inplaceIN19OpenColorIO_v2_4dev22XmlReaderSaturationEltESaIvELN9__gnu_cxx12_Lock_policyE2EE = comdat any

$_ZTVSt23_Sp_counted_ptr_inplaceIN19OpenColorIO_v2_4dev19CTFReaderSOPNodeEltESaIvELN9__gnu_cxx12_Lock_policyE2EE = comdat any

$_ZTSSt23_Sp_counted_ptr_inplaceIN19OpenColorIO_v2_4dev19CTFReaderSOPNodeEltESaIvELN9__gnu_cxx12_Lock_policyE2EE = comdat any

$_ZTISt23_Sp_counted_ptr_inplaceIN19OpenColorIO_v2_4dev19CTFReaderSOPNodeEltESaIvELN9__gnu_cxx12_Lock_policyE2EE = comdat any

$_ZTVSt23_Sp_counted_ptr_inplaceIN19OpenColorIO_v2_4dev20XmlReaderSOPValueEltESaIvELN9__gnu_cxx12_Lock_policyE2EE = comdat any

$_ZTSSt23_Sp_counted_ptr_inplaceIN19OpenColorIO_v2_4dev20XmlReaderSOPValueEltESaIvELN9__gnu_cxx12_Lock_policyE2EE = comdat any

$_ZTISt23_Sp_counted_ptr_inplaceIN19OpenColorIO_v2_4dev20XmlReaderSOPValueEltESaIvELN9__gnu_cxx12_Lock_policyE2EE = comdat any

$_ZTVSt23_Sp_counted_ptr_inplaceIN19OpenColorIO_v2_4dev31CTFReaderGradingPrimaryParamEltESaIvELN9__gnu_cxx12_Lock_policyE2EE = comdat any

$_ZTSSt23_Sp_counted_ptr_inplaceIN19OpenColorIO_v2_4dev31CTFReaderGradingPrimaryParamEltESaIvELN9__gnu_cxx12_Lock_policyE2EE = comdat any

$_ZTISt23_Sp_counted_ptr_inplaceIN19OpenColorIO_v2_4dev31CTFReaderGradingPrimaryParamEltESaIvELN9__gnu_cxx12_Lock_policyE2EE = comdat any

$_ZTVSt23_Sp_counted_ptr_inplaceIN19OpenColorIO_v2_4dev24CTFReaderGradingCurveEltESaIvELN9__gnu_cxx12_Lock_policyE2EE = comdat any

$_ZTSSt23_Sp_counted_ptr_inplaceIN19OpenColorIO_v2_4dev24CTFReaderGradingCurveEltESaIvELN9__gnu_cxx12_Lock_policyE2EE = comdat any

$_ZTISt23_Sp_counted_ptr_inplaceIN19OpenColorIO_v2_4dev24CTFReaderGradingCurveEltESaIvELN9__gnu_cxx12_Lock_policyE2EE = comdat any

$_ZTVSt23_Sp_counted_ptr_inplaceIN19OpenColorIO_v2_4dev30CTFReaderGradingCurvePointsEltESaIvELN9__gnu_cxx12_Lock_policyE2EE = comdat any

$_ZTSSt23_Sp_counted_ptr_inplaceIN19OpenColorIO_v2_4dev30CTFReaderGradingCurvePointsEltESaIvELN9__gnu_cxx12_Lock_policyE2EE = comdat any

$_ZTISt23_Sp_counted_ptr_inplaceIN19OpenColorIO_v2_4dev30CTFReaderGradingCurvePointsEltESaIvELN9__gnu_cxx12_Lock_policyE2EE = comdat any

$_ZTVSt23_Sp_counted_ptr_inplaceIN19OpenColorIO_v2_4dev30CTFReaderGradingCurveSlopesEltESaIvELN9__gnu_cxx12_Lock_policyE2EE = comdat any

$_ZTSSt23_Sp_counted_ptr_inplaceIN19OpenColorIO_v2_4dev30CTFReaderGradingCurveSlopesEltESaIvELN9__gnu_cxx12_Lock_policyE2EE = comdat any

$_ZTISt23_Sp_counted_ptr_inplaceIN19OpenColorIO_v2_4dev30CTFReaderGradingCurveSlopesEltESaIvELN9__gnu_cxx12_Lock_policyE2EE = comdat any

$_ZTVSt23_Sp_counted_ptr_inplaceIN19OpenColorIO_v2_4dev28CTFReaderGradingToneParamEltESaIvELN9__gnu_cxx12_Lock_policyE2EE = comdat any

$_ZTSSt23_Sp_counted_ptr_inplaceIN19OpenColorIO_v2_4dev28CTFReaderGradingToneParamEltESaIvELN9__gnu_cxx12_Lock_policyE2EE = comdat any

$_ZTISt23_Sp_counted_ptr_inplaceIN19OpenColorIO_v2_4dev28CTFReaderGradingToneParamEltESaIvELN9__gnu_cxx12_Lock_policyE2EE = comdat any

$_ZTSN19OpenColorIO_v2_4dev10CachedFileE = comdat any

$_ZTIN19OpenColorIO_v2_4dev10CachedFileE = comdat any

$_ZTVN19OpenColorIO_v2_4dev10CachedFileE = comdat any

$_ZTVSt23_Sp_counted_ptr_inplaceIN19OpenColorIO_v2_4dev11Lut1DOpDataESaIvELN9__gnu_cxx12_Lock_policyE2EE = comdat any

$_ZTSSt23_Sp_counted_ptr_inplaceIN19OpenColorIO_v2_4dev11Lut1DOpDataESaIvELN9__gnu_cxx12_Lock_policyE2EE = comdat any

$_ZTISt23_Sp_counted_ptr_inplaceIN19OpenColorIO_v2_4dev11Lut1DOpDataESaIvELN9__gnu_cxx12_Lock_policyE2EE = comdat any

$_ZTVSt23_Sp_counted_ptr_inplaceIN19OpenColorIO_v2_4dev11Lut3DOpDataESaIvELN9__gnu_cxx12_Lock_policyE2EE = comdat any

$_ZTSSt23_Sp_counted_ptr_inplaceIN19OpenColorIO_v2_4dev11Lut3DOpDataESaIvELN9__gnu_cxx12_Lock_policyE2EE = comdat any

$_ZTISt23_Sp_counted_ptr_inplaceIN19OpenColorIO_v2_4dev11Lut3DOpDataESaIvELN9__gnu_cxx12_Lock_policyE2EE = comdat any

$_ZTVSt23_Sp_counted_ptr_inplaceIN19OpenColorIO_v2_4dev18CTFReaderTransformESaIvELN9__gnu_cxx12_Lock_policyE2EE = comdat any

$_ZTSSt23_Sp_counted_ptr_inplaceIN19OpenColorIO_v2_4dev18CTFReaderTransformESaIvELN9__gnu_cxx12_Lock_policyE2EE = comdat any

$_ZTISt23_Sp_counted_ptr_inplaceIN19OpenColorIO_v2_4dev18CTFReaderTransformESaIvELN9__gnu_cxx12_Lock_policyE2EE = comdat any

@_ZStL8__ioinit = internal global %"class.std::ios_base::Init" zeroinitializer, align 1
@__dso_handle = external hidden global i8
@_ZN19OpenColorIO_v2_4devL28CTF_PROCESS_LIST_VERSION_1_2E = internal global %"class.OpenColorIO_v2_4dev::CTFVersion" zeroinitializer, align 4
@_ZN19OpenColorIO_v2_4devL28CTF_PROCESS_LIST_VERSION_1_3E = internal global %"class.OpenColorIO_v2_4dev::CTFVersion" zeroinitializer, align 4
@_ZN19OpenColorIO_v2_4devL28CTF_PROCESS_LIST_VERSION_1_4E = internal global %"class.OpenColorIO_v2_4dev::CTFVersion" zeroinitializer, align 4
@_ZN19OpenColorIO_v2_4devL28CTF_PROCESS_LIST_VERSION_1_5E = internal global %"class.OpenColorIO_v2_4dev::CTFVersion" zeroinitializer, align 4
@_ZN19OpenColorIO_v2_4devL28CTF_PROCESS_LIST_VERSION_1_6E = internal global %"class.OpenColorIO_v2_4dev::CTFVersion" zeroinitializer, align 4
@_ZN19OpenColorIO_v2_4devL28CTF_PROCESS_LIST_VERSION_1_7E = internal global %"class.OpenColorIO_v2_4dev::CTFVersion" zeroinitializer, align 4
@_ZN19OpenColorIO_v2_4devL28CTF_PROCESS_LIST_VERSION_1_8E = internal global %"class.OpenColorIO_v2_4dev::CTFVersion" zeroinitializer, align 4
@_ZN19OpenColorIO_v2_4devL28CTF_PROCESS_LIST_VERSION_2_0E = internal global %"class.OpenColorIO_v2_4dev::CTFVersion" zeroinitializer, align 4
@_ZN19OpenColorIO_v2_4devL28CTF_PROCESS_LIST_VERSION_2_1E = internal global %"class.OpenColorIO_v2_4dev::CTFVersion" zeroinitializer, align 4
@_ZN19OpenColorIO_v2_4devL24CTF_PROCESS_LIST_VERSIONE = internal global %"class.OpenColorIO_v2_4dev::CTFVersion" zeroinitializer, align 4
@_ZN19OpenColorIO_v2_4dev11NumberUtilsL3locE = internal global %"struct.OpenColorIO_v2_4dev::NumberUtils::Locale" zeroinitializer, align 8
@.str = private unnamed_addr constant [2 x i8] c"C\00", align 1
@_ZTVN19OpenColorIO_v2_4dev12_GLOBAL__N_115LocalFileFormatE = internal unnamed_addr constant { [10 x ptr] } { [10 x ptr] [ptr null, ptr @_ZTIN19OpenColorIO_v2_4dev12_GLOBAL__N_115LocalFileFormatE, ptr @_ZN19OpenColorIO_v2_4dev12_GLOBAL__N_115LocalFileFormatD2Ev, ptr @_ZN19OpenColorIO_v2_4dev12_GLOBAL__N_115LocalFileFormatD0Ev, ptr @_ZNK19OpenColorIO_v2_4dev12_GLOBAL__N_115LocalFileFormat13getFormatInfoERSt6vectorINS_10FormatInfoESaIS3_EE, ptr @_ZNK19OpenColorIO_v2_4dev12_GLOBAL__N_115LocalFileFormat4readERSiRKNSt7__cxx1112basic_stringIcSt11char_traitsIcESaIcEEENS_13InterpolationE, ptr @_ZNK19OpenColorIO_v2_4dev12_GLOBAL__N_115LocalFileFormat4bakeERKNS_5BakerERKNSt7__cxx1112basic_stringIcSt11char_traitsIcESaIcEEERSo, ptr @_ZNK19OpenColorIO_v2_4dev12_GLOBAL__N_115LocalFileFormat5writeERKSt10shared_ptrIKNS_6ConfigEERKS2_IKNS_7ContextEERKNS_14GroupTransformERKNSt7__cxx1112basic_stringIcSt11char_traitsIcESaIcEEERSo, ptr @_ZNK19OpenColorIO_v2_4dev12_GLOBAL__N_115LocalFileFormat12buildFileOpsERNS_10OpRcPtrVecERKNS_6ConfigERKSt10shared_ptrIKNS_7ContextEES7_INS_10CachedFileEERKNS_13FileTransformENS_18TransformDirectionE, ptr @_ZNK19OpenColorIO_v2_4dev10FileFormat8isBinaryEv] }, align 8
@_ZTVN10__cxxabiv120__si_class_type_infoE = external global [0 x ptr]
@_ZTSN19OpenColorIO_v2_4dev12_GLOBAL__N_115LocalFileFormatE = internal constant [55 x i8] c"N19OpenColorIO_v2_4dev12_GLOBAL__N_115LocalFileFormatE\00", align 1
@_ZTIN19OpenColorIO_v2_4dev10FileFormatE = external constant ptr
@_ZTIN19OpenColorIO_v2_4dev12_GLOBAL__N_115LocalFileFormatE = internal constant { ptr, ptr, ptr } { ptr getelementptr inbounds (ptr, ptr @_ZTVN10__cxxabiv120__si_class_type_infoE, i64 2), ptr @_ZTSN19OpenColorIO_v2_4dev12_GLOBAL__N_115LocalFileFormatE, ptr @_ZTIN19OpenColorIO_v2_4dev10FileFormatE }, align 8
@_ZTVN19OpenColorIO_v2_4dev10FileFormatE = external unnamed_addr constant { [10 x ptr] }, align 8
@_ZN19OpenColorIO_v2_4devL14FILEFORMAT_CLFE = internal constant [30 x i8] c"Academy/ASC Common LUT Format\00", align 16
@.str.12 = private unnamed_addr constant [4 x i8] c"clf\00", align 1
@_ZN19OpenColorIO_v2_4devL14FILEFORMAT_CTFE = internal constant [23 x i8] c"Color Transform Format\00", align 16
@.str.13 = private unnamed_addr constant [4 x i8] c"ctf\00", align 1
@.str.14 = private unnamed_addr constant [26 x i8] c"vector::_M_realloc_insert\00", align 1
@.str.15 = private unnamed_addr constant [17 x i8] c"Parsing error: '\00", align 1
@.str.16 = private unnamed_addr constant [25 x i8] c"' is not a CTF/CLF file.\00", align 1
@_ZTIN19OpenColorIO_v2_4dev9ExceptionE = external constant ptr
@.str.17 = private unnamed_addr constant [13 x i8] c"<ProcessList\00", align 1
@.str.18 = private unnamed_addr constant [5 x i8] c".clf\00", align 1
@_ZZN19OpenColorIO_v2_4dev12_GLOBAL__N_115XMLParserHelper19StartElementHandlerEPvPKcPS4_E16rangeSubElements = internal global %"class.std::vector.16" zeroinitializer, align 8
@_ZGVZN19OpenColorIO_v2_4dev12_GLOBAL__N_115XMLParserHelper19StartElementHandlerEPvPKcPS4_E16rangeSubElements = internal global i64 0, align 8
@_ZN19OpenColorIO_v2_4devL16TAG_MIN_IN_VALUEE = internal constant [11 x i8] c"minInValue\00", align 1
@_ZN19OpenColorIO_v2_4devL16TAG_MAX_IN_VALUEE = internal constant [11 x i8] c"maxInValue\00", align 1
@_ZN19OpenColorIO_v2_4devL17TAG_MIN_OUT_VALUEE = internal constant [12 x i8] c"minOutValue\00", align 1
@_ZN19OpenColorIO_v2_4devL17TAG_MAX_OUT_VALUEE = internal constant [12 x i8] c"maxOutValue\00", align 1
@constinit = private constant [4 x ptr] [ptr @_ZN19OpenColorIO_v2_4devL16TAG_MIN_IN_VALUEE, ptr @_ZN19OpenColorIO_v2_4devL16TAG_MAX_IN_VALUEE, ptr @_ZN19OpenColorIO_v2_4devL17TAG_MIN_OUT_VALUEE, ptr @_ZN19OpenColorIO_v2_4devL17TAG_MAX_OUT_VALUEE], align 8
@_ZZN19OpenColorIO_v2_4dev12_GLOBAL__N_115XMLParserHelper19StartElementHandlerEPvPKcPS4_E14sopSubElements = internal global %"class.std::vector.16" zeroinitializer, align 8
@_ZGVZN19OpenColorIO_v2_4dev12_GLOBAL__N_115XMLParserHelper19StartElementHandlerEPvPKcPS4_E14sopSubElements = internal global i64 0, align 8
@_ZN19OpenColorIO_v2_4devL9TAG_SLOPEE = internal constant [6 x i8] c"Slope\00", align 1
@_ZN19OpenColorIO_v2_4devL10TAG_OFFSETE = internal constant [7 x i8] c"Offset\00", align 1
@_ZN19OpenColorIO_v2_4devL9TAG_POWERE = internal constant [6 x i8] c"Power\00", align 1
@constinit.19 = private constant [3 x ptr] [ptr @_ZN19OpenColorIO_v2_4devL9TAG_SLOPEE, ptr @_ZN19OpenColorIO_v2_4devL10TAG_OFFSETE, ptr @_ZN19OpenColorIO_v2_4devL9TAG_POWERE], align 8
@_ZZN19OpenColorIO_v2_4dev12_GLOBAL__N_115XMLParserHelper19StartElementHandlerEPvPKcPS4_E25gradingPrimarySubElements = internal global %"class.std::vector.16" zeroinitializer, align 8
@_ZGVZN19OpenColorIO_v2_4dev12_GLOBAL__N_115XMLParserHelper19StartElementHandlerEPvPKcPS4_E25gradingPrimarySubElements = internal global i64 0, align 8
@_ZN19OpenColorIO_v2_4devL22TAG_PRIMARY_BRIGHTNESSE = internal constant [11 x i8] c"Brightness\00", align 1
@_ZN19OpenColorIO_v2_4devL17TAG_PRIMARY_CLAMPE = internal constant [6 x i8] c"Clamp\00", align 1
@_ZN19OpenColorIO_v2_4devL20TAG_PRIMARY_CONTRASTE = internal constant [9 x i8] c"Contrast\00", align 1
@_ZN19OpenColorIO_v2_4devL20TAG_PRIMARY_EXPOSUREE = internal constant [9 x i8] c"Exposure\00", align 1
@_ZN19OpenColorIO_v2_4devL16TAG_PRIMARY_GAINE = internal constant [5 x i8] c"Gain\00", align 1
@_ZN19OpenColorIO_v2_4devL17TAG_PRIMARY_GAMMAE = internal constant [6 x i8] c"Gamma\00", align 1
@_ZN19OpenColorIO_v2_4devL16TAG_PRIMARY_LIFTE = internal constant [5 x i8] c"Lift\00", align 1
@_ZN19OpenColorIO_v2_4devL18TAG_PRIMARY_OFFSETE = internal constant [7 x i8] c"Offset\00", align 1
@_ZN19OpenColorIO_v2_4devL17TAG_PRIMARY_PIVOTE = internal constant [6 x i8] c"Pivot\00", align 1
@_ZN19OpenColorIO_v2_4devL22TAG_PRIMARY_SATURATIONE = internal constant [11 x i8] c"Saturation\00", align 1
@constinit.20 = private constant [10 x ptr] [ptr @_ZN19OpenColorIO_v2_4devL22TAG_PRIMARY_BRIGHTNESSE, ptr @_ZN19OpenColorIO_v2_4devL17TAG_PRIMARY_CLAMPE, ptr @_ZN19OpenColorIO_v2_4devL20TAG_PRIMARY_CONTRASTE, ptr @_ZN19OpenColorIO_v2_4devL20TAG_PRIMARY_EXPOSUREE, ptr @_ZN19OpenColorIO_v2_4devL16TAG_PRIMARY_GAINE, ptr @_ZN19OpenColorIO_v2_4devL17TAG_PRIMARY_GAMMAE, ptr @_ZN19OpenColorIO_v2_4devL16TAG_PRIMARY_LIFTE, ptr @_ZN19OpenColorIO_v2_4devL18TAG_PRIMARY_OFFSETE, ptr @_ZN19OpenColorIO_v2_4devL17TAG_PRIMARY_PIVOTE, ptr @_ZN19OpenColorIO_v2_4devL22TAG_PRIMARY_SATURATIONE], align 8
@_ZZN19OpenColorIO_v2_4dev12_GLOBAL__N_115XMLParserHelper19StartElementHandlerEPvPKcPS4_E22gradingToneSubElements = internal global %"class.std::vector.16" zeroinitializer, align 8
@_ZGVZN19OpenColorIO_v2_4dev12_GLOBAL__N_115XMLParserHelper19StartElementHandlerEPvPKcPS4_E22gradingToneSubElements = internal global i64 0, align 8
@_ZN19OpenColorIO_v2_4devL15TAG_TONE_BLACKSE = internal constant [7 x i8] c"Blacks\00", align 1
@_ZN19OpenColorIO_v2_4devL16TAG_TONE_SHADOWSE = internal constant [8 x i8] c"Shadows\00", align 1
@_ZN19OpenColorIO_v2_4devL17TAG_TONE_MIDTONESE = internal constant [9 x i8] c"Midtones\00", align 1
@_ZN19OpenColorIO_v2_4devL19TAG_TONE_HIGHLIGHTSE = internal constant [11 x i8] c"Highlights\00", align 1
@_ZN19OpenColorIO_v2_4devL15TAG_TONE_WHITESE = internal constant [7 x i8] c"Whites\00", align 1
@_ZN19OpenColorIO_v2_4devL18TAG_TONE_SCONTRASTE = internal constant [10 x i8] c"SContrast\00", align 1
@constinit.21 = private constant [6 x ptr] [ptr @_ZN19OpenColorIO_v2_4devL15TAG_TONE_BLACKSE, ptr @_ZN19OpenColorIO_v2_4devL16TAG_TONE_SHADOWSE, ptr @_ZN19OpenColorIO_v2_4devL17TAG_TONE_MIDTONESE, ptr @_ZN19OpenColorIO_v2_4devL19TAG_TONE_HIGHLIGHTSE, ptr @_ZN19OpenColorIO_v2_4devL15TAG_TONE_WHITESE, ptr @_ZN19OpenColorIO_v2_4devL18TAG_TONE_SCONTRASTE], align 8
@_ZZN19OpenColorIO_v2_4dev12_GLOBAL__N_115XMLParserHelper19StartElementHandlerEPvPKcPS4_E26gradingRGBCurveSubElements = internal global %"class.std::vector.16" zeroinitializer, align 8
@_ZGVZN19OpenColorIO_v2_4dev12_GLOBAL__N_115XMLParserHelper19StartElementHandlerEPvPKcPS4_E26gradingRGBCurveSubElements = internal global i64 0, align 8
@_ZN19OpenColorIO_v2_4devL18TAG_RGB_CURVE_BLUEE = internal constant [5 x i8] c"Blue\00", align 1
@_ZN19OpenColorIO_v2_4devL19TAG_RGB_CURVE_GREENE = internal constant [6 x i8] c"Green\00", align 1
@_ZN19OpenColorIO_v2_4devL20TAG_RGB_CURVE_MASTERE = internal constant [7 x i8] c"Master\00", align 1
@_ZN19OpenColorIO_v2_4devL17TAG_RGB_CURVE_REDE = internal constant [4 x i8] c"Red\00", align 1
@constinit.22 = private constant [4 x ptr] [ptr @_ZN19OpenColorIO_v2_4devL18TAG_RGB_CURVE_BLUEE, ptr @_ZN19OpenColorIO_v2_4devL19TAG_RGB_CURVE_GREENE, ptr @_ZN19OpenColorIO_v2_4devL20TAG_RGB_CURVE_MASTERE, ptr @_ZN19OpenColorIO_v2_4devL17TAG_RGB_CURVE_REDE], align 8
@.str.23 = private unnamed_addr constant [31 x i8] c"Internal CTF/CLF parser error.\00", align 1
@.str.24 = private unnamed_addr constant [32 x i8] c"Internal CTF/CLF parser error. \00", align 1
@_ZN19OpenColorIO_v2_4devL16TAG_PROCESS_LISTE = internal constant [12 x i8] c"ProcessList\00", align 1
@.str.25 = private unnamed_addr constant [29 x i8] c"The Transform already exists\00", align 1
@_ZN19OpenColorIO_v2_4devL8TAG_ACESE = internal constant [5 x i8] c"ACES\00", align 1
@_ZN19OpenColorIO_v2_4devL7TAG_CDLE = internal constant [8 x i8] c"ASC_CDL\00", align 1
@_ZN19OpenColorIO_v2_4devL21TAG_EXPOSURE_CONTRASTE = internal constant [17 x i8] c"ExposureContrast\00", align 16
@_ZN19OpenColorIO_v2_4devL18TAG_FIXED_FUNCTIONE = internal constant [14 x i8] c"FixedFunction\00", align 1
@_ZN19OpenColorIO_v2_4devL12TAG_FUNCTIONE = internal constant [9 x i8] c"Function\00", align 1
@_ZN19OpenColorIO_v2_4devL9TAG_GAMMAE = internal constant [6 x i8] c"Gamma\00", align 1
@_ZN19OpenColorIO_v2_4devL12TAG_EXPONENTE = internal constant [9 x i8] c"Exponent\00", align 1
@_ZN19OpenColorIO_v2_4devL11TAG_PRIMARYE = internal constant [15 x i8] c"GradingPrimary\00", align 1
@_ZN19OpenColorIO_v2_4devL13TAG_RGB_CURVEE = internal constant [16 x i8] c"GradingRGBCurve\00", align 16
@_ZN19OpenColorIO_v2_4devL8TAG_TONEE = internal constant [12 x i8] c"GradingTone\00", align 1
@_ZN19OpenColorIO_v2_4devL12TAG_INVLUT1DE = internal constant [13 x i8] c"InverseLUT1D\00", align 1
@_ZN19OpenColorIO_v2_4devL12TAG_INVLUT3DE = internal constant [13 x i8] c"InverseLUT3D\00", align 1
@_ZN19OpenColorIO_v2_4devL7TAG_LOGE = internal constant [4 x i8] c"Log\00", align 1
@_ZN19OpenColorIO_v2_4devL9TAG_LUT1DE = internal constant [6 x i8] c"LUT1D\00", align 1
@_ZN19OpenColorIO_v2_4devL9TAG_LUT3DE = internal constant [6 x i8] c"LUT3D\00", align 1
@_ZN19OpenColorIO_v2_4devL10TAG_MATRIXE = internal constant [7 x i8] c"Matrix\00", align 1
@_ZN19OpenColorIO_v2_4devL9TAG_RANGEE = internal constant [6 x i8] c"Range\00", align 1
@_ZN19OpenColorIO_v2_4devL13TAG_REFERENCEE = internal constant [10 x i8] c"Reference\00", align 1
@_ZN19OpenColorIO_v2_4devL15TAG_ACES_PARAMSE = internal constant [11 x i8] c"ACESParams\00", align 1
@_ZN19OpenColorIO_v2_4devL9TAG_ARRAYE = internal constant [6 x i8] c"Array\00", align 1
@.str.26 = private unnamed_addr constant [34 x i8] c"Array not allowed in this element\00", align 1
@.str.27 = private unnamed_addr constant [30 x i8] c"Only one Array allowed per op\00", align 1
@_ZN19OpenColorIO_v2_4devL15TAG_DESCRIPTIONE = internal constant [12 x i8] c"Description\00", align 1
@.str.28 = private unnamed_addr constant [1 x i8] zeroinitializer, align 1
@_ZN19OpenColorIO_v2_4devL26METADATA_INPUT_DESCRIPTIONE = internal constant [17 x i8] c"InputDescription\00", align 16
@_ZN19OpenColorIO_v2_4devL28METADATA_VIEWING_DESCRIPTIONE = internal constant [19 x i8] c"ViewingDescription\00", align 16
@_ZN19OpenColorIO_v2_4devL21TAG_DYNAMIC_PARAMETERE = internal constant [17 x i8] c"DynamicParameter\00", align 16
@_ZN19OpenColorIO_v2_4devL13TAG_EC_PARAMSE = internal constant [9 x i8] c"ECParams\00", align 1
@_ZN19OpenColorIO_v2_4devL16TAG_GAMMA_PARAMSE = internal constant [12 x i8] c"GammaParams\00", align 1
@_ZN19OpenColorIO_v2_4devL19TAG_EXPONENT_PARAMSE = internal constant [15 x i8] c"ExponentParams\00", align 1
@_ZTSN19OpenColorIO_v2_4dev21XmlReaderContainerEltE = linkonce_odr hidden constant [47 x i8] c"N19OpenColorIO_v2_4dev21XmlReaderContainerEltE\00", comdat, align 1
@_ZTIN19OpenColorIO_v2_4dev16XmlReaderElementE = external constant ptr
@_ZTIN19OpenColorIO_v2_4dev21XmlReaderContainerEltE = linkonce_odr hidden constant { ptr, ptr, ptr } { ptr getelementptr inbounds (ptr, ptr @_ZTVN10__cxxabiv120__si_class_type_infoE, i64 2), ptr @_ZTSN19OpenColorIO_v2_4dev21XmlReaderContainerEltE, ptr @_ZTIN19OpenColorIO_v2_4dev16XmlReaderElementE }, comdat, align 8
@_ZTIN19OpenColorIO_v2_4dev17CTFReaderGammaEltE = external constant ptr
@_ZN19OpenColorIO_v2_4devL13TAG_INDEX_MAPE = internal constant [9 x i8] c"IndexMap\00", align 1
@.str.29 = private unnamed_addr constant [37 x i8] c"IndexMap not allowed in this element\00", align 1
@.str.30 = private unnamed_addr constant [36 x i8] c"Only one IndexMap allowed per LUT. \00", align 1
@_ZN19OpenColorIO_v2_4devL8TAG_INFOE = internal constant [5 x i8] c"Info\00", align 1
@_ZN19OpenColorIO_v2_4dev25METADATA_INPUT_DESCRIPTORE = external global ptr, align 8
@_ZN19OpenColorIO_v2_4devL14TAG_LOG_PARAMSE = internal constant [10 x i8] c"LogParams\00", align 1
@.str.31 = private unnamed_addr constant [39 x i8] c"Log Params not allowed in this element\00", align 1
@_ZN19OpenColorIO_v2_4dev26METADATA_OUTPUT_DESCRIPTORE = external global ptr, align 8
@_ZN19OpenColorIO_v2_4devL11TAG_SATNODEE = internal constant [8 x i8] c"SatNode\00", align 1
@_ZN19OpenColorIO_v2_4devL14TAG_SATNODEALTE = internal constant [8 x i8] c"SATNode\00", align 1
@_ZN19OpenColorIO_v2_4devL14TAG_SATURATIONE = internal constant [11 x i8] c"Saturation\00", align 1
@_ZN19OpenColorIO_v2_4devL11TAG_SOPNODEE = internal constant [8 x i8] c"SOPNode\00", align 1
@_ZN19OpenColorIO_v2_4devL19TAG_CURVE_CTRL_PNTSE = internal constant [14 x i8] c"ControlPoints\00", align 1
@_ZN19OpenColorIO_v2_4devL16TAG_CURVE_SLOPESE = internal constant [7 x i8] c"Slopes\00", align 1
@.str.32 = private unnamed_addr constant [2 x i8] c"'\00", align 1
@.str.33 = private unnamed_addr constant [30 x i8] c"' not allowed in this element\00", align 1
@.str.34 = private unnamed_addr constant [16 x i8] c"Unknown element\00", align 1
@.str.35 = private unnamed_addr constant [49 x i8] c"cannot create std::vector larger than max_size()\00", align 1
@.str.36 = private unnamed_addr constant [29 x i8] c"Error parsing CTF/CLF file (\00", align 1
@.str.37 = private unnamed_addr constant [4 x i8] c"). \00", align 1
@.str.38 = private unnamed_addr constant [11 x i8] c"Error is: \00", align 1
@.str.39 = private unnamed_addr constant [12 x i8] c". At line (\00", align 1
@.str.40 = private unnamed_addr constant [2 x i8] c")\00", align 1
@_ZTIN19OpenColorIO_v2_4dev20CTFReaderMetadataEltE = external constant ptr
@__libc_single_threaded = external global i8, align 1
@_ZTVSt23_Sp_counted_ptr_inplaceIN19OpenColorIO_v2_4dev20CTFReaderMetadataEltESaIvELN9__gnu_cxx12_Lock_policyE2EE = linkonce_odr hidden unnamed_addr constant { [7 x ptr] } { [7 x ptr] [ptr null, ptr @_ZTISt23_Sp_counted_ptr_inplaceIN19OpenColorIO_v2_4dev20CTFReaderMetadataEltESaIvELN9__gnu_cxx12_Lock_policyE2EE, ptr @_ZNSt23_Sp_counted_ptr_inplaceIN19OpenColorIO_v2_4dev20CTFReaderMetadataEltESaIvELN9__gnu_cxx12_Lock_policyE2EED2Ev, ptr @_ZNSt23_Sp_counted_ptr_inplaceIN19OpenColorIO_v2_4dev20CTFReaderMetadataEltESaIvELN9__gnu_cxx12_Lock_policyE2EED0Ev, ptr @_ZNSt23_Sp_counted_ptr_inplaceIN19OpenColorIO_v2_4dev20CTFReaderMetadataEltESaIvELN9__gnu_cxx12_Lock_policyE2EE10_M_disposeEv, ptr @_ZNSt23_Sp_counted_ptr_inplaceIN19OpenColorIO_v2_4dev20CTFReaderMetadataEltESaIvELN9__gnu_cxx12_Lock_policyE2EE10_M_destroyEv, ptr @_ZNSt23_Sp_counted_ptr_inplaceIN19OpenColorIO_v2_4dev20CTFReaderMetadataEltESaIvELN9__gnu_cxx12_Lock_policyE2EE14_M_get_deleterERKSt9type_info] }, comdat, align 8
@_ZTSSt23_Sp_counted_ptr_inplaceIN19OpenColorIO_v2_4dev20CTFReaderMetadataEltESaIvELN9__gnu_cxx12_Lock_policyE2EE = linkonce_odr hidden constant [109 x i8] c"St23_Sp_counted_ptr_inplaceIN19OpenColorIO_v2_4dev20CTFReaderMetadataEltESaIvELN9__gnu_cxx12_Lock_policyE2EE\00", comdat, align 1
@_ZTSSt16_Sp_counted_baseILN9__gnu_cxx12_Lock_policyE2EE = linkonce_odr constant [52 x i8] c"St16_Sp_counted_baseILN9__gnu_cxx12_Lock_policyE2EE\00", comdat, align 1
@_ZTVN10__cxxabiv117__class_type_infoE = external global [0 x ptr]
@_ZTSSt11_Mutex_baseILN9__gnu_cxx12_Lock_policyE2EE = linkonce_odr constant [47 x i8] c"St11_Mutex_baseILN9__gnu_cxx12_Lock_policyE2EE\00", comdat, align 1
@_ZTISt11_Mutex_baseILN9__gnu_cxx12_Lock_policyE2EE = linkonce_odr constant { ptr, ptr } { ptr getelementptr inbounds (ptr, ptr @_ZTVN10__cxxabiv117__class_type_infoE, i64 2), ptr @_ZTSSt11_Mutex_baseILN9__gnu_cxx12_Lock_policyE2EE }, comdat, align 8
@_ZTISt16_Sp_counted_baseILN9__gnu_cxx12_Lock_policyE2EE = linkonce_odr constant { ptr, ptr, ptr } { ptr getelementptr inbounds (ptr, ptr @_ZTVN10__cxxabiv120__si_class_type_infoE, i64 2), ptr @_ZTSSt16_Sp_counted_baseILN9__gnu_cxx12_Lock_policyE2EE, ptr @_ZTISt11_Mutex_baseILN9__gnu_cxx12_Lock_policyE2EE }, comdat, align 8
@_ZTISt23_Sp_counted_ptr_inplaceIN19OpenColorIO_v2_4dev20CTFReaderMetadataEltESaIvELN9__gnu_cxx12_Lock_policyE2EE = linkonce_odr hidden constant { ptr, ptr, ptr } { ptr getelementptr inbounds (ptr, ptr @_ZTVN10__cxxabiv120__si_class_type_infoE, i64 2), ptr @_ZTSSt23_Sp_counted_ptr_inplaceIN19OpenColorIO_v2_4dev20CTFReaderMetadataEltESaIvELN9__gnu_cxx12_Lock_policyE2EE, ptr @_ZTISt16_Sp_counted_baseILN9__gnu_cxx12_Lock_policyE2EE }, comdat, align 8
@_ZTVSt16_Sp_counted_baseILN9__gnu_cxx12_Lock_policyE2EE = linkonce_odr unnamed_addr constant { [7 x ptr] } { [7 x ptr] [ptr null, ptr @_ZTISt16_Sp_counted_baseILN9__gnu_cxx12_Lock_policyE2EE, ptr @_ZNSt16_Sp_counted_baseILN9__gnu_cxx12_Lock_policyE2EED2Ev, ptr @_ZNSt16_Sp_counted_baseILN9__gnu_cxx12_Lock_policyE2EED0Ev, ptr @__cxa_pure_virtual, ptr @_ZNSt16_Sp_counted_baseILN9__gnu_cxx12_Lock_policyE2EE10_M_destroyEv, ptr @__cxa_pure_virtual] }, comdat, align 8
@_ZTSSt19_Sp_make_shared_tag = linkonce_odr constant [24 x i8] c"St19_Sp_make_shared_tag\00", comdat, align 1
@_ZTISt19_Sp_make_shared_tag = linkonce_odr constant { ptr, ptr } { ptr getelementptr inbounds (ptr, ptr @_ZTVN10__cxxabiv117__class_type_infoE, i64 2), ptr @_ZTSSt19_Sp_make_shared_tag }, comdat, align 8
@_ZZNSt19_Sp_make_shared_tag5_S_tiEvE5__tag = linkonce_odr constant [16 x i8] zeroinitializer, comdat, align 8
@_ZTIN19OpenColorIO_v2_4dev21CTFReaderTransformEltE = external constant ptr
@_ZTVSt23_Sp_counted_ptr_inplaceIN19OpenColorIO_v2_4dev17XmlReaderDummyEltESaIvELN9__gnu_cxx12_Lock_policyE2EE = linkonce_odr hidden unnamed_addr constant { [7 x ptr] } { [7 x ptr] [ptr null, ptr @_ZTISt23_Sp_counted_ptr_inplaceIN19OpenColorIO_v2_4dev17XmlReaderDummyEltESaIvELN9__gnu_cxx12_Lock_policyE2EE, ptr @_ZNSt23_Sp_counted_ptr_inplaceIN19OpenColorIO_v2_4dev17XmlReaderDummyEltESaIvELN9__gnu_cxx12_Lock_policyE2EED2Ev, ptr @_ZNSt23_Sp_counted_ptr_inplaceIN19OpenColorIO_v2_4dev17XmlReaderDummyEltESaIvELN9__gnu_cxx12_Lock_policyE2EED0Ev, ptr @_ZNSt23_Sp_counted_ptr_inplaceIN19OpenColorIO_v2_4dev17XmlReaderDummyEltESaIvELN9__gnu_cxx12_Lock_policyE2EE10_M_disposeEv, ptr @_ZNSt23_Sp_counted_ptr_inplaceIN19OpenColorIO_v2_4dev17XmlReaderDummyEltESaIvELN9__gnu_cxx12_Lock_policyE2EE10_M_destroyEv, ptr @_ZNSt23_Sp_counted_ptr_inplaceIN19OpenColorIO_v2_4dev17XmlReaderDummyEltESaIvELN9__gnu_cxx12_Lock_policyE2EE14_M_get_deleterERKSt9type_info] }, comdat, align 8
@_ZTSSt23_Sp_counted_ptr_inplaceIN19OpenColorIO_v2_4dev17XmlReaderDummyEltESaIvELN9__gnu_cxx12_Lock_policyE2EE = linkonce_odr hidden constant [106 x i8] c"St23_Sp_counted_ptr_inplaceIN19OpenColorIO_v2_4dev17XmlReaderDummyEltESaIvELN9__gnu_cxx12_Lock_policyE2EE\00", comdat, align 1
@_ZTISt23_Sp_counted_ptr_inplaceIN19OpenColorIO_v2_4dev17XmlReaderDummyEltESaIvELN9__gnu_cxx12_Lock_policyE2EE = linkonce_odr hidden constant { ptr, ptr, ptr } { ptr getelementptr inbounds (ptr, ptr @_ZTVN10__cxxabiv120__si_class_type_infoE, i64 2), ptr @_ZTSSt23_Sp_counted_ptr_inplaceIN19OpenColorIO_v2_4dev17XmlReaderDummyEltESaIvELN9__gnu_cxx12_Lock_policyE2EE, ptr @_ZTISt16_Sp_counted_baseILN9__gnu_cxx12_Lock_policyE2EE }, comdat, align 8
@_ZTVSt23_Sp_counted_ptr_inplaceIN19OpenColorIO_v2_4dev21CTFReaderTransformEltESaIvELN9__gnu_cxx12_Lock_policyE2EE = linkonce_odr hidden unnamed_addr constant { [7 x ptr] } { [7 x ptr] [ptr null, ptr @_ZTISt23_Sp_counted_ptr_inplaceIN19OpenColorIO_v2_4dev21CTFReaderTransformEltESaIvELN9__gnu_cxx12_Lock_policyE2EE, ptr @_ZNSt23_Sp_counted_ptr_inplaceIN19OpenColorIO_v2_4dev21CTFReaderTransformEltESaIvELN9__gnu_cxx12_Lock_policyE2EED2Ev, ptr @_ZNSt23_Sp_counted_ptr_inplaceIN19OpenColorIO_v2_4dev21CTFReaderTransformEltESaIvELN9__gnu_cxx12_Lock_policyE2EED0Ev, ptr @_ZNSt23_Sp_counted_ptr_inplaceIN19OpenColorIO_v2_4dev21CTFReaderTransformEltESaIvELN9__gnu_cxx12_Lock_policyE2EE10_M_disposeEv, ptr @_ZNSt23_Sp_counted_ptr_inplaceIN19OpenColorIO_v2_4dev21CTFReaderTransformEltESaIvELN9__gnu_cxx12_Lock_policyE2EE10_M_destroyEv, ptr @_ZNSt23_Sp_counted_ptr_inplaceIN19OpenColorIO_v2_4dev21CTFReaderTransformEltESaIvELN9__gnu_cxx12_Lock_policyE2EE14_M_get_deleterERKSt9type_info] }, comdat, align 8
@_ZTSSt23_Sp_counted_ptr_inplaceIN19OpenColorIO_v2_4dev21CTFReaderTransformEltESaIvELN9__gnu_cxx12_Lock_policyE2EE = linkonce_odr hidden constant [110 x i8] c"St23_Sp_counted_ptr_inplaceIN19OpenColorIO_v2_4dev21CTFReaderTransformEltESaIvELN9__gnu_cxx12_Lock_policyE2EE\00", comdat, align 1
@_ZTISt23_Sp_counted_ptr_inplaceIN19OpenColorIO_v2_4dev21CTFReaderTransformEltESaIvELN9__gnu_cxx12_Lock_policyE2EE = linkonce_odr hidden constant { ptr, ptr, ptr } { ptr getelementptr inbounds (ptr, ptr @_ZTVN10__cxxabiv120__si_class_type_infoE, i64 2), ptr @_ZTSSt23_Sp_counted_ptr_inplaceIN19OpenColorIO_v2_4dev21CTFReaderTransformEltESaIvELN9__gnu_cxx12_Lock_policyE2EE, ptr @_ZTISt16_Sp_counted_baseILN9__gnu_cxx12_Lock_policyE2EE }, comdat, align 8
@.str.41 = private unnamed_addr constant [5 x i8] c"The \00", align 1
@.str.42 = private unnamed_addr constant [34 x i8] c"'s parent can only be a Transform\00", align 1
@.str.43 = private unnamed_addr constant [19 x i8] c"CLF file version '\00", align 1
@.str.44 = private unnamed_addr constant [19 x i8] c"CTF file version '\00", align 1
@.str.45 = private unnamed_addr constant [30 x i8] c"' does not support operator '\00", align 1
@.str.46 = private unnamed_addr constant [2 x i8] c".\00", align 1
@_ZTVSt23_Sp_counted_ptr_inplaceIN19OpenColorIO_v2_4dev22CTFReaderACESParamsEltESaIvELN9__gnu_cxx12_Lock_policyE2EE = linkonce_odr hidden unnamed_addr constant { [7 x ptr] } { [7 x ptr] [ptr null, ptr @_ZTISt23_Sp_counted_ptr_inplaceIN19OpenColorIO_v2_4dev22CTFReaderACESParamsEltESaIvELN9__gnu_cxx12_Lock_policyE2EE, ptr @_ZNSt23_Sp_counted_ptr_inplaceIN19OpenColorIO_v2_4dev22CTFReaderACESParamsEltESaIvELN9__gnu_cxx12_Lock_policyE2EED2Ev, ptr @_ZNSt23_Sp_counted_ptr_inplaceIN19OpenColorIO_v2_4dev22CTFReaderACESParamsEltESaIvELN9__gnu_cxx12_Lock_policyE2EED0Ev, ptr @_ZNSt23_Sp_counted_ptr_inplaceIN19OpenColorIO_v2_4dev22CTFReaderACESParamsEltESaIvELN9__gnu_cxx12_Lock_policyE2EE10_M_disposeEv, ptr @_ZNSt23_Sp_counted_ptr_inplaceIN19OpenColorIO_v2_4dev22CTFReaderACESParamsEltESaIvELN9__gnu_cxx12_Lock_policyE2EE10_M_destroyEv, ptr @_ZNSt23_Sp_counted_ptr_inplaceIN19OpenColorIO_v2_4dev22CTFReaderACESParamsEltESaIvELN9__gnu_cxx12_Lock_policyE2EE14_M_get_deleterERKSt9type_info] }, comdat, align 8
@_ZTSSt23_Sp_counted_ptr_inplaceIN19OpenColorIO_v2_4dev22CTFReaderACESParamsEltESaIvELN9__gnu_cxx12_Lock_policyE2EE = linkonce_odr hidden constant [111 x i8] c"St23_Sp_counted_ptr_inplaceIN19OpenColorIO_v2_4dev22CTFReaderACESParamsEltESaIvELN9__gnu_cxx12_Lock_policyE2EE\00", comdat, align 1
@_ZTISt23_Sp_counted_ptr_inplaceIN19OpenColorIO_v2_4dev22CTFReaderACESParamsEltESaIvELN9__gnu_cxx12_Lock_policyE2EE = linkonce_odr hidden constant { ptr, ptr, ptr } { ptr getelementptr inbounds (ptr, ptr @_ZTVN10__cxxabiv120__si_class_type_infoE, i64 2), ptr @_ZTSSt23_Sp_counted_ptr_inplaceIN19OpenColorIO_v2_4dev22CTFReaderACESParamsEltESaIvELN9__gnu_cxx12_Lock_policyE2EE, ptr @_ZTISt16_Sp_counted_baseILN9__gnu_cxx12_Lock_policyE2EE }, comdat, align 8
@_ZTIN19OpenColorIO_v2_4dev11CTFArrayMgtE = external constant ptr
@_ZTVSt23_Sp_counted_ptr_inplaceIN19OpenColorIO_v2_4dev17CTFReaderArrayEltESaIvELN9__gnu_cxx12_Lock_policyE2EE = linkonce_odr hidden unnamed_addr constant { [7 x ptr] } { [7 x ptr] [ptr null, ptr @_ZTISt23_Sp_counted_ptr_inplaceIN19OpenColorIO_v2_4dev17CTFReaderArrayEltESaIvELN9__gnu_cxx12_Lock_policyE2EE, ptr @_ZNSt23_Sp_counted_ptr_inplaceIN19OpenColorIO_v2_4dev17CTFReaderArrayEltESaIvELN9__gnu_cxx12_Lock_policyE2EED2Ev, ptr @_ZNSt23_Sp_counted_ptr_inplaceIN19OpenColorIO_v2_4dev17CTFReaderArrayEltESaIvELN9__gnu_cxx12_Lock_policyE2EED0Ev, ptr @_ZNSt23_Sp_counted_ptr_inplaceIN19OpenColorIO_v2_4dev17CTFReaderArrayEltESaIvELN9__gnu_cxx12_Lock_policyE2EE10_M_disposeEv, ptr @_ZNSt23_Sp_counted_ptr_inplaceIN19OpenColorIO_v2_4dev17CTFReaderArrayEltESaIvELN9__gnu_cxx12_Lock_policyE2EE10_M_destroyEv, ptr @_ZNSt23_Sp_counted_ptr_inplaceIN19OpenColorIO_v2_4dev17CTFReaderArrayEltESaIvELN9__gnu_cxx12_Lock_policyE2EE14_M_get_deleterERKSt9type_info] }, comdat, align 8
@_ZTSSt23_Sp_counted_ptr_inplaceIN19OpenColorIO_v2_4dev17CTFReaderArrayEltESaIvELN9__gnu_cxx12_Lock_policyE2EE = linkonce_odr hidden constant [106 x i8] c"St23_Sp_counted_ptr_inplaceIN19OpenColorIO_v2_4dev17CTFReaderArrayEltESaIvELN9__gnu_cxx12_Lock_policyE2EE\00", comdat, align 1
@_ZTISt23_Sp_counted_ptr_inplaceIN19OpenColorIO_v2_4dev17CTFReaderArrayEltESaIvELN9__gnu_cxx12_Lock_policyE2EE = linkonce_odr hidden constant { ptr, ptr, ptr } { ptr getelementptr inbounds (ptr, ptr @_ZTVN10__cxxabiv120__si_class_type_infoE, i64 2), ptr @_ZTSSt23_Sp_counted_ptr_inplaceIN19OpenColorIO_v2_4dev17CTFReaderArrayEltESaIvELN9__gnu_cxx12_Lock_policyE2EE, ptr @_ZTISt16_Sp_counted_baseILN9__gnu_cxx12_Lock_policyE2EE }, comdat, align 8
@_ZTVSt23_Sp_counted_ptr_inplaceIN19OpenColorIO_v2_4dev23XmlReaderDescriptionEltESaIvELN9__gnu_cxx12_Lock_policyE2EE = linkonce_odr hidden unnamed_addr constant { [7 x ptr] } { [7 x ptr] [ptr null, ptr @_ZTISt23_Sp_counted_ptr_inplaceIN19OpenColorIO_v2_4dev23XmlReaderDescriptionEltESaIvELN9__gnu_cxx12_Lock_policyE2EE, ptr @_ZNSt23_Sp_counted_ptr_inplaceIN19OpenColorIO_v2_4dev23XmlReaderDescriptionEltESaIvELN9__gnu_cxx12_Lock_policyE2EED2Ev, ptr @_ZNSt23_Sp_counted_ptr_inplaceIN19OpenColorIO_v2_4dev23XmlReaderDescriptionEltESaIvELN9__gnu_cxx12_Lock_policyE2EED0Ev, ptr @_ZNSt23_Sp_counted_ptr_inplaceIN19OpenColorIO_v2_4dev23XmlReaderDescriptionEltESaIvELN9__gnu_cxx12_Lock_policyE2EE10_M_disposeEv, ptr @_ZNSt23_Sp_counted_ptr_inplaceIN19OpenColorIO_v2_4dev23XmlReaderDescriptionEltESaIvELN9__gnu_cxx12_Lock_policyE2EE10_M_destroyEv, ptr @_ZNSt23_Sp_counted_ptr_inplaceIN19OpenColorIO_v2_4dev23XmlReaderDescriptionEltESaIvELN9__gnu_cxx12_Lock_policyE2EE14_M_get_deleterERKSt9type_info] }, comdat, align 8
@_ZTSSt23_Sp_counted_ptr_inplaceIN19OpenColorIO_v2_4dev23XmlReaderDescriptionEltESaIvELN9__gnu_cxx12_Lock_policyE2EE = linkonce_odr hidden constant [112 x i8] c"St23_Sp_counted_ptr_inplaceIN19OpenColorIO_v2_4dev23XmlReaderDescriptionEltESaIvELN9__gnu_cxx12_Lock_policyE2EE\00", comdat, align 1
@_ZTISt23_Sp_counted_ptr_inplaceIN19OpenColorIO_v2_4dev23XmlReaderDescriptionEltESaIvELN9__gnu_cxx12_Lock_policyE2EE = linkonce_odr hidden constant { ptr, ptr, ptr } { ptr getelementptr inbounds (ptr, ptr @_ZTVN10__cxxabiv120__si_class_type_infoE, i64 2), ptr @_ZTSSt23_Sp_counted_ptr_inplaceIN19OpenColorIO_v2_4dev23XmlReaderDescriptionEltESaIvELN9__gnu_cxx12_Lock_policyE2EE, ptr @_ZTISt16_Sp_counted_baseILN9__gnu_cxx12_Lock_policyE2EE }, comdat, align 8
@_ZTVN19OpenColorIO_v2_4dev23XmlReaderDescriptionEltE = external unnamed_addr constant { [11 x ptr] }, align 8
@_ZTVN19OpenColorIO_v2_4dev17XmlReaderPlainEltE = linkonce_odr hidden unnamed_addr constant { [11 x ptr] } { [11 x ptr] [ptr null, ptr @_ZTIN19OpenColorIO_v2_4dev17XmlReaderPlainEltE, ptr @_ZN19OpenColorIO_v2_4dev17XmlReaderPlainEltD2Ev, ptr @_ZN19OpenColorIO_v2_4dev17XmlReaderPlainEltD0Ev, ptr @__cxa_pure_virtual, ptr @__cxa_pure_virtual, ptr @_ZNK19OpenColorIO_v2_4dev17XmlReaderPlainElt11isContainerEv, ptr @_ZNK19OpenColorIO_v2_4dev17XmlReaderPlainElt13getIdentifierB5cxx11Ev, ptr @_ZNK19OpenColorIO_v2_4dev17XmlReaderPlainElt11getTypeNameEv, ptr @_ZNK19OpenColorIO_v2_4dev16XmlReaderElement7isDummyEv, ptr @__cxa_pure_virtual] }, comdat, align 8
@_ZTSN19OpenColorIO_v2_4dev17XmlReaderPlainEltE = linkonce_odr hidden constant [43 x i8] c"N19OpenColorIO_v2_4dev17XmlReaderPlainEltE\00", comdat, align 1
@_ZTIN19OpenColorIO_v2_4dev17XmlReaderPlainEltE = linkonce_odr hidden constant { ptr, ptr, ptr } { ptr getelementptr inbounds (ptr, ptr @_ZTVN10__cxxabiv120__si_class_type_infoE, i64 2), ptr @_ZTSN19OpenColorIO_v2_4dev17XmlReaderPlainEltE, ptr @_ZTIN19OpenColorIO_v2_4dev16XmlReaderElementE }, comdat, align 8
@_ZTIN19OpenColorIO_v2_4dev14CTFReaderOpEltE = external constant ptr
@_ZTVSt23_Sp_counted_ptr_inplaceIN19OpenColorIO_v2_4dev24CTFReaderDynamicParamEltESaIvELN9__gnu_cxx12_Lock_policyE2EE = linkonce_odr hidden unnamed_addr constant { [7 x ptr] } { [7 x ptr] [ptr null, ptr @_ZTISt23_Sp_counted_ptr_inplaceIN19OpenColorIO_v2_4dev24CTFReaderDynamicParamEltESaIvELN9__gnu_cxx12_Lock_policyE2EE, ptr @_ZNSt23_Sp_counted_ptr_inplaceIN19OpenColorIO_v2_4dev24CTFReaderDynamicParamEltESaIvELN9__gnu_cxx12_Lock_policyE2EED2Ev, ptr @_ZNSt23_Sp_counted_ptr_inplaceIN19OpenColorIO_v2_4dev24CTFReaderDynamicParamEltESaIvELN9__gnu_cxx12_Lock_policyE2EED0Ev, ptr @_ZNSt23_Sp_counted_ptr_inplaceIN19OpenColorIO_v2_4dev24CTFReaderDynamicParamEltESaIvELN9__gnu_cxx12_Lock_policyE2EE10_M_disposeEv, ptr @_ZNSt23_Sp_counted_ptr_inplaceIN19OpenColorIO_v2_4dev24CTFReaderDynamicParamEltESaIvELN9__gnu_cxx12_Lock_policyE2EE10_M_destroyEv, ptr @_ZNSt23_Sp_counted_ptr_inplaceIN19OpenColorIO_v2_4dev24CTFReaderDynamicParamEltESaIvELN9__gnu_cxx12_Lock_policyE2EE14_M_get_deleterERKSt9type_info] }, comdat, align 8
@_ZTSSt23_Sp_counted_ptr_inplaceIN19OpenColorIO_v2_4dev24CTFReaderDynamicParamEltESaIvELN9__gnu_cxx12_Lock_policyE2EE = linkonce_odr hidden constant [113 x i8] c"St23_Sp_counted_ptr_inplaceIN19OpenColorIO_v2_4dev24CTFReaderDynamicParamEltESaIvELN9__gnu_cxx12_Lock_policyE2EE\00", comdat, align 1
@_ZTISt23_Sp_counted_ptr_inplaceIN19OpenColorIO_v2_4dev24CTFReaderDynamicParamEltESaIvELN9__gnu_cxx12_Lock_policyE2EE = linkonce_odr hidden constant { ptr, ptr, ptr } { ptr getelementptr inbounds (ptr, ptr @_ZTVN10__cxxabiv120__si_class_type_infoE, i64 2), ptr @_ZTSSt23_Sp_counted_ptr_inplaceIN19OpenColorIO_v2_4dev24CTFReaderDynamicParamEltESaIvELN9__gnu_cxx12_Lock_policyE2EE, ptr @_ZTISt16_Sp_counted_baseILN9__gnu_cxx12_Lock_policyE2EE }, comdat, align 8
@_ZTVSt23_Sp_counted_ptr_inplaceIN19OpenColorIO_v2_4dev20CTFReaderECParamsEltESaIvELN9__gnu_cxx12_Lock_policyE2EE = linkonce_odr hidden unnamed_addr constant { [7 x ptr] } { [7 x ptr] [ptr null, ptr @_ZTISt23_Sp_counted_ptr_inplaceIN19OpenColorIO_v2_4dev20CTFReaderECParamsEltESaIvELN9__gnu_cxx12_Lock_policyE2EE, ptr @_ZNSt23_Sp_counted_ptr_inplaceIN19OpenColorIO_v2_4dev20CTFReaderECParamsEltESaIvELN9__gnu_cxx12_Lock_policyE2EED2Ev, ptr @_ZNSt23_Sp_counted_ptr_inplaceIN19OpenColorIO_v2_4dev20CTFReaderECParamsEltESaIvELN9__gnu_cxx12_Lock_policyE2EED0Ev, ptr @_ZNSt23_Sp_counted_ptr_inplaceIN19OpenColorIO_v2_4dev20CTFReaderECParamsEltESaIvELN9__gnu_cxx12_Lock_policyE2EE10_M_disposeEv, ptr @_ZNSt23_Sp_counted_ptr_inplaceIN19OpenColorIO_v2_4dev20CTFReaderECParamsEltESaIvELN9__gnu_cxx12_Lock_policyE2EE10_M_destroyEv, ptr @_ZNSt23_Sp_counted_ptr_inplaceIN19OpenColorIO_v2_4dev20CTFReaderECParamsEltESaIvELN9__gnu_cxx12_Lock_policyE2EE14_M_get_deleterERKSt9type_info] }, comdat, align 8
@_ZTSSt23_Sp_counted_ptr_inplaceIN19OpenColorIO_v2_4dev20CTFReaderECParamsEltESaIvELN9__gnu_cxx12_Lock_policyE2EE = linkonce_odr hidden constant [109 x i8] c"St23_Sp_counted_ptr_inplaceIN19OpenColorIO_v2_4dev20CTFReaderECParamsEltESaIvELN9__gnu_cxx12_Lock_policyE2EE\00", comdat, align 1
@_ZTISt23_Sp_counted_ptr_inplaceIN19OpenColorIO_v2_4dev20CTFReaderECParamsEltESaIvELN9__gnu_cxx12_Lock_policyE2EE = linkonce_odr hidden constant { ptr, ptr, ptr } { ptr getelementptr inbounds (ptr, ptr @_ZTVN10__cxxabiv120__si_class_type_infoE, i64 2), ptr @_ZTSSt23_Sp_counted_ptr_inplaceIN19OpenColorIO_v2_4dev20CTFReaderECParamsEltESaIvELN9__gnu_cxx12_Lock_policyE2EE, ptr @_ZTISt16_Sp_counted_baseILN9__gnu_cxx12_Lock_policyE2EE }, comdat, align 8
@_ZTSN19OpenColorIO_v2_4dev14CTFIndexMapMgtE = linkonce_odr hidden constant [40 x i8] c"N19OpenColorIO_v2_4dev14CTFIndexMapMgtE\00", comdat, align 1
@_ZTIN19OpenColorIO_v2_4dev14CTFIndexMapMgtE = linkonce_odr hidden constant { ptr, ptr } { ptr getelementptr inbounds (ptr, ptr @_ZTVN10__cxxabiv117__class_type_infoE, i64 2), ptr @_ZTSN19OpenColorIO_v2_4dev14CTFIndexMapMgtE }, comdat, align 8
@_ZTVSt23_Sp_counted_ptr_inplaceIN19OpenColorIO_v2_4dev20CTFReaderIndexMapEltESaIvELN9__gnu_cxx12_Lock_policyE2EE = linkonce_odr hidden unnamed_addr constant { [7 x ptr] } { [7 x ptr] [ptr null, ptr @_ZTISt23_Sp_counted_ptr_inplaceIN19OpenColorIO_v2_4dev20CTFReaderIndexMapEltESaIvELN9__gnu_cxx12_Lock_policyE2EE, ptr @_ZNSt23_Sp_counted_ptr_inplaceIN19OpenColorIO_v2_4dev20CTFReaderIndexMapEltESaIvELN9__gnu_cxx12_Lock_policyE2EED2Ev, ptr @_ZNSt23_Sp_counted_ptr_inplaceIN19OpenColorIO_v2_4dev20CTFReaderIndexMapEltESaIvELN9__gnu_cxx12_Lock_policyE2EED0Ev, ptr @_ZNSt23_Sp_counted_ptr_inplaceIN19OpenColorIO_v2_4dev20CTFReaderIndexMapEltESaIvELN9__gnu_cxx12_Lock_policyE2EE10_M_disposeEv, ptr @_ZNSt23_Sp_counted_ptr_inplaceIN19OpenColorIO_v2_4dev20CTFReaderIndexMapEltESaIvELN9__gnu_cxx12_Lock_policyE2EE10_M_destroyEv, ptr @_ZNSt23_Sp_counted_ptr_inplaceIN19OpenColorIO_v2_4dev20CTFReaderIndexMapEltESaIvELN9__gnu_cxx12_Lock_policyE2EE14_M_get_deleterERKSt9type_info] }, comdat, align 8
@_ZTSSt23_Sp_counted_ptr_inplaceIN19OpenColorIO_v2_4dev20CTFReaderIndexMapEltESaIvELN9__gnu_cxx12_Lock_policyE2EE = linkonce_odr hidden constant [109 x i8] c"St23_Sp_counted_ptr_inplaceIN19OpenColorIO_v2_4dev20CTFReaderIndexMapEltESaIvELN9__gnu_cxx12_Lock_policyE2EE\00", comdat, align 1
@_ZTISt23_Sp_counted_ptr_inplaceIN19OpenColorIO_v2_4dev20CTFReaderIndexMapEltESaIvELN9__gnu_cxx12_Lock_policyE2EE = linkonce_odr hidden constant { ptr, ptr, ptr } { ptr getelementptr inbounds (ptr, ptr @_ZTVN10__cxxabiv120__si_class_type_infoE, i64 2), ptr @_ZTSSt23_Sp_counted_ptr_inplaceIN19OpenColorIO_v2_4dev20CTFReaderIndexMapEltESaIvELN9__gnu_cxx12_Lock_policyE2EE, ptr @_ZTISt16_Sp_counted_baseILN9__gnu_cxx12_Lock_policyE2EE }, comdat, align 8
@_ZTVSt23_Sp_counted_ptr_inplaceIN19OpenColorIO_v2_4dev16CTFReaderInfoEltESaIvELN9__gnu_cxx12_Lock_policyE2EE = linkonce_odr hidden unnamed_addr constant { [7 x ptr] } { [7 x ptr] [ptr null, ptr @_ZTISt23_Sp_counted_ptr_inplaceIN19OpenColorIO_v2_4dev16CTFReaderInfoEltESaIvELN9__gnu_cxx12_Lock_policyE2EE, ptr @_ZNSt23_Sp_counted_ptr_inplaceIN19OpenColorIO_v2_4dev16CTFReaderInfoEltESaIvELN9__gnu_cxx12_Lock_policyE2EED2Ev, ptr @_ZNSt23_Sp_counted_ptr_inplaceIN19OpenColorIO_v2_4dev16CTFReaderInfoEltESaIvELN9__gnu_cxx12_Lock_policyE2EED0Ev, ptr @_ZNSt23_Sp_counted_ptr_inplaceIN19OpenColorIO_v2_4dev16CTFReaderInfoEltESaIvELN9__gnu_cxx12_Lock_policyE2EE10_M_disposeEv, ptr @_ZNSt23_Sp_counted_ptr_inplaceIN19OpenColorIO_v2_4dev16CTFReaderInfoEltESaIvELN9__gnu_cxx12_Lock_policyE2EE10_M_destroyEv, ptr @_ZNSt23_Sp_counted_ptr_inplaceIN19OpenColorIO_v2_4dev16CTFReaderInfoEltESaIvELN9__gnu_cxx12_Lock_policyE2EE14_M_get_deleterERKSt9type_info] }, comdat, align 8
@_ZTSSt23_Sp_counted_ptr_inplaceIN19OpenColorIO_v2_4dev16CTFReaderInfoEltESaIvELN9__gnu_cxx12_Lock_policyE2EE = linkonce_odr hidden constant [105 x i8] c"St23_Sp_counted_ptr_inplaceIN19OpenColorIO_v2_4dev16CTFReaderInfoEltESaIvELN9__gnu_cxx12_Lock_policyE2EE\00", comdat, align 1
@_ZTISt23_Sp_counted_ptr_inplaceIN19OpenColorIO_v2_4dev16CTFReaderInfoEltESaIvELN9__gnu_cxx12_Lock_policyE2EE = linkonce_odr hidden constant { ptr, ptr, ptr } { ptr getelementptr inbounds (ptr, ptr @_ZTVN10__cxxabiv120__si_class_type_infoE, i64 2), ptr @_ZTSSt23_Sp_counted_ptr_inplaceIN19OpenColorIO_v2_4dev16CTFReaderInfoEltESaIvELN9__gnu_cxx12_Lock_policyE2EE, ptr @_ZTISt16_Sp_counted_baseILN9__gnu_cxx12_Lock_policyE2EE }, comdat, align 8
@_ZTVSt23_Sp_counted_ptr_inplaceIN19OpenColorIO_v2_4dev27CTFReaderInputDescriptorEltESaIvELN9__gnu_cxx12_Lock_policyE2EE = linkonce_odr hidden unnamed_addr constant { [7 x ptr] } { [7 x ptr] [ptr null, ptr @_ZTISt23_Sp_counted_ptr_inplaceIN19OpenColorIO_v2_4dev27CTFReaderInputDescriptorEltESaIvELN9__gnu_cxx12_Lock_policyE2EE, ptr @_ZNSt23_Sp_counted_ptr_inplaceIN19OpenColorIO_v2_4dev27CTFReaderInputDescriptorEltESaIvELN9__gnu_cxx12_Lock_policyE2EED2Ev, ptr @_ZNSt23_Sp_counted_ptr_inplaceIN19OpenColorIO_v2_4dev27CTFReaderInputDescriptorEltESaIvELN9__gnu_cxx12_Lock_policyE2EED0Ev, ptr @_ZNSt23_Sp_counted_ptr_inplaceIN19OpenColorIO_v2_4dev27CTFReaderInputDescriptorEltESaIvELN9__gnu_cxx12_Lock_policyE2EE10_M_disposeEv, ptr @_ZNSt23_Sp_counted_ptr_inplaceIN19OpenColorIO_v2_4dev27CTFReaderInputDescriptorEltESaIvELN9__gnu_cxx12_Lock_policyE2EE10_M_destroyEv, ptr @_ZNSt23_Sp_counted_ptr_inplaceIN19OpenColorIO_v2_4dev27CTFReaderInputDescriptorEltESaIvELN9__gnu_cxx12_Lock_policyE2EE14_M_get_deleterERKSt9type_info] }, comdat, align 8
@_ZTSSt23_Sp_counted_ptr_inplaceIN19OpenColorIO_v2_4dev27CTFReaderInputDescriptorEltESaIvELN9__gnu_cxx12_Lock_policyE2EE = linkonce_odr hidden constant [116 x i8] c"St23_Sp_counted_ptr_inplaceIN19OpenColorIO_v2_4dev27CTFReaderInputDescriptorEltESaIvELN9__gnu_cxx12_Lock_policyE2EE\00", comdat, align 1
@_ZTISt23_Sp_counted_ptr_inplaceIN19OpenColorIO_v2_4dev27CTFReaderInputDescriptorEltESaIvELN9__gnu_cxx12_Lock_policyE2EE = linkonce_odr hidden constant { ptr, ptr, ptr } { ptr getelementptr inbounds (ptr, ptr @_ZTVN10__cxxabiv120__si_class_type_infoE, i64 2), ptr @_ZTSSt23_Sp_counted_ptr_inplaceIN19OpenColorIO_v2_4dev27CTFReaderInputDescriptorEltESaIvELN9__gnu_cxx12_Lock_policyE2EE, ptr @_ZTISt16_Sp_counted_baseILN9__gnu_cxx12_Lock_policyE2EE }, comdat, align 8
@_ZTVN19OpenColorIO_v2_4dev27CTFReaderInputDescriptorEltE = linkonce_odr hidden unnamed_addr constant { [11 x ptr] } { [11 x ptr] [ptr null, ptr @_ZTIN19OpenColorIO_v2_4dev27CTFReaderInputDescriptorEltE, ptr @_ZN19OpenColorIO_v2_4dev27CTFReaderInputDescriptorEltD2Ev, ptr @_ZN19OpenColorIO_v2_4dev27CTFReaderInputDescriptorEltD0Ev, ptr @_ZN19OpenColorIO_v2_4dev27CTFReaderInputDescriptorElt5startEPPKc, ptr @_ZN19OpenColorIO_v2_4dev27CTFReaderInputDescriptorElt3endEv, ptr @_ZNK19OpenColorIO_v2_4dev17XmlReaderPlainElt11isContainerEv, ptr @_ZNK19OpenColorIO_v2_4dev17XmlReaderPlainElt13getIdentifierB5cxx11Ev, ptr @_ZNK19OpenColorIO_v2_4dev17XmlReaderPlainElt11getTypeNameEv, ptr @_ZNK19OpenColorIO_v2_4dev16XmlReaderElement7isDummyEv, ptr @_ZN19OpenColorIO_v2_4dev27CTFReaderInputDescriptorElt10setRawDataEPKcmj] }, comdat, align 8
@_ZTSN19OpenColorIO_v2_4dev27CTFReaderInputDescriptorEltE = linkonce_odr hidden constant [53 x i8] c"N19OpenColorIO_v2_4dev27CTFReaderInputDescriptorEltE\00", comdat, align 1
@_ZTIN19OpenColorIO_v2_4dev27CTFReaderInputDescriptorEltE = linkonce_odr hidden constant { ptr, ptr, ptr } { ptr getelementptr inbounds (ptr, ptr @_ZTVN10__cxxabiv120__si_class_type_infoE, i64 2), ptr @_ZTSN19OpenColorIO_v2_4dev27CTFReaderInputDescriptorEltE, ptr @_ZTIN19OpenColorIO_v2_4dev17XmlReaderPlainEltE }, comdat, align 8
@_ZTIN19OpenColorIO_v2_4dev15CTFReaderLogEltE = external constant ptr
@_ZTVSt23_Sp_counted_ptr_inplaceIN19OpenColorIO_v2_4dev28CTFReaderOutputDescriptorEltESaIvELN9__gnu_cxx12_Lock_policyE2EE = linkonce_odr hidden unnamed_addr constant { [7 x ptr] } { [7 x ptr] [ptr null, ptr @_ZTISt23_Sp_counted_ptr_inplaceIN19OpenColorIO_v2_4dev28CTFReaderOutputDescriptorEltESaIvELN9__gnu_cxx12_Lock_policyE2EE, ptr @_ZNSt23_Sp_counted_ptr_inplaceIN19OpenColorIO_v2_4dev28CTFReaderOutputDescriptorEltESaIvELN9__gnu_cxx12_Lock_policyE2EED2Ev, ptr @_ZNSt23_Sp_counted_ptr_inplaceIN19OpenColorIO_v2_4dev28CTFReaderOutputDescriptorEltESaIvELN9__gnu_cxx12_Lock_policyE2EED0Ev, ptr @_ZNSt23_Sp_counted_ptr_inplaceIN19OpenColorIO_v2_4dev28CTFReaderOutputDescriptorEltESaIvELN9__gnu_cxx12_Lock_policyE2EE10_M_disposeEv, ptr @_ZNSt23_Sp_counted_ptr_inplaceIN19OpenColorIO_v2_4dev28CTFReaderOutputDescriptorEltESaIvELN9__gnu_cxx12_Lock_policyE2EE10_M_destroyEv, ptr @_ZNSt23_Sp_counted_ptr_inplaceIN19OpenColorIO_v2_4dev28CTFReaderOutputDescriptorEltESaIvELN9__gnu_cxx12_Lock_policyE2EE14_M_get_deleterERKSt9type_info] }, comdat, align 8
@_ZTSSt23_Sp_counted_ptr_inplaceIN19OpenColorIO_v2_4dev28CTFReaderOutputDescriptorEltESaIvELN9__gnu_cxx12_Lock_policyE2EE = linkonce_odr hidden constant [117 x i8] c"St23_Sp_counted_ptr_inplaceIN19OpenColorIO_v2_4dev28CTFReaderOutputDescriptorEltESaIvELN9__gnu_cxx12_Lock_policyE2EE\00", comdat, align 1
@_ZTISt23_Sp_counted_ptr_inplaceIN19OpenColorIO_v2_4dev28CTFReaderOutputDescriptorEltESaIvELN9__gnu_cxx12_Lock_policyE2EE = linkonce_odr hidden constant { ptr, ptr, ptr } { ptr getelementptr inbounds (ptr, ptr @_ZTVN10__cxxabiv120__si_class_type_infoE, i64 2), ptr @_ZTSSt23_Sp_counted_ptr_inplaceIN19OpenColorIO_v2_4dev28CTFReaderOutputDescriptorEltESaIvELN9__gnu_cxx12_Lock_policyE2EE, ptr @_ZTISt16_Sp_counted_baseILN9__gnu_cxx12_Lock_policyE2EE }, comdat, align 8
@_ZTVN19OpenColorIO_v2_4dev28CTFReaderOutputDescriptorEltE = linkonce_odr hidden unnamed_addr constant { [11 x ptr] } { [11 x ptr] [ptr null, ptr @_ZTIN19OpenColorIO_v2_4dev28CTFReaderOutputDescriptorEltE, ptr @_ZN19OpenColorIO_v2_4dev28CTFReaderOutputDescriptorEltD2Ev, ptr @_ZN19OpenColorIO_v2_4dev28CTFReaderOutputDescriptorEltD0Ev, ptr @_ZN19OpenColorIO_v2_4dev28CTFReaderOutputDescriptorElt5startEPPKc, ptr @_ZN19OpenColorIO_v2_4dev28CTFReaderOutputDescriptorElt3endEv, ptr @_ZNK19OpenColorIO_v2_4dev17XmlReaderPlainElt11isContainerEv, ptr @_ZNK19OpenColorIO_v2_4dev17XmlReaderPlainElt13getIdentifierB5cxx11Ev, ptr @_ZNK19OpenColorIO_v2_4dev17XmlReaderPlainElt11getTypeNameEv, ptr @_ZNK19OpenColorIO_v2_4dev16XmlReaderElement7isDummyEv, ptr @_ZN19OpenColorIO_v2_4dev28CTFReaderOutputDescriptorElt10setRawDataEPKcmj] }, comdat, align 8
@_ZTSN19OpenColorIO_v2_4dev28CTFReaderOutputDescriptorEltE = linkonce_odr hidden constant [54 x i8] c"N19OpenColorIO_v2_4dev28CTFReaderOutputDescriptorEltE\00", comdat, align 1
@_ZTIN19OpenColorIO_v2_4dev28CTFReaderOutputDescriptorEltE = linkonce_odr hidden constant { ptr, ptr, ptr } { ptr getelementptr inbounds (ptr, ptr @_ZTVN10__cxxabiv120__si_class_type_infoE, i64 2), ptr @_ZTSN19OpenColorIO_v2_4dev28CTFReaderOutputDescriptorEltE, ptr @_ZTIN19OpenColorIO_v2_4dev17XmlReaderPlainEltE }, comdat, align 8
@_ZTVSt23_Sp_counted_ptr_inplaceIN19OpenColorIO_v2_4dev22CTFReaderRangeValueEltESaIvELN9__gnu_cxx12_Lock_policyE2EE = linkonce_odr hidden unnamed_addr constant { [7 x ptr] } { [7 x ptr] [ptr null, ptr @_ZTISt23_Sp_counted_ptr_inplaceIN19OpenColorIO_v2_4dev22CTFReaderRangeValueEltESaIvELN9__gnu_cxx12_Lock_policyE2EE, ptr @_ZNSt23_Sp_counted_ptr_inplaceIN19OpenColorIO_v2_4dev22CTFReaderRangeValueEltESaIvELN9__gnu_cxx12_Lock_policyE2EED2Ev, ptr @_ZNSt23_Sp_counted_ptr_inplaceIN19OpenColorIO_v2_4dev22CTFReaderRangeValueEltESaIvELN9__gnu_cxx12_Lock_policyE2EED0Ev, ptr @_ZNSt23_Sp_counted_ptr_inplaceIN19OpenColorIO_v2_4dev22CTFReaderRangeValueEltESaIvELN9__gnu_cxx12_Lock_policyE2EE10_M_disposeEv, ptr @_ZNSt23_Sp_counted_ptr_inplaceIN19OpenColorIO_v2_4dev22CTFReaderRangeValueEltESaIvELN9__gnu_cxx12_Lock_policyE2EE10_M_destroyEv, ptr @_ZNSt23_Sp_counted_ptr_inplaceIN19OpenColorIO_v2_4dev22CTFReaderRangeValueEltESaIvELN9__gnu_cxx12_Lock_policyE2EE14_M_get_deleterERKSt9type_info] }, comdat, align 8
@_ZTSSt23_Sp_counted_ptr_inplaceIN19OpenColorIO_v2_4dev22CTFReaderRangeValueEltESaIvELN9__gnu_cxx12_Lock_policyE2EE = linkonce_odr hidden constant [111 x i8] c"St23_Sp_counted_ptr_inplaceIN19OpenColorIO_v2_4dev22CTFReaderRangeValueEltESaIvELN9__gnu_cxx12_Lock_policyE2EE\00", comdat, align 1
@_ZTISt23_Sp_counted_ptr_inplaceIN19OpenColorIO_v2_4dev22CTFReaderRangeValueEltESaIvELN9__gnu_cxx12_Lock_policyE2EE = linkonce_odr hidden constant { ptr, ptr, ptr } { ptr getelementptr inbounds (ptr, ptr @_ZTVN10__cxxabiv120__si_class_type_infoE, i64 2), ptr @_ZTSSt23_Sp_counted_ptr_inplaceIN19OpenColorIO_v2_4dev22CTFReaderRangeValueEltESaIvELN9__gnu_cxx12_Lock_policyE2EE, ptr @_ZTISt16_Sp_counted_baseILN9__gnu_cxx12_Lock_policyE2EE }, comdat, align 8
@_ZTIN19OpenColorIO_v2_4dev15CTFReaderCDLEltE = external constant ptr
@_ZTVSt23_Sp_counted_ptr_inplaceIN19OpenColorIO_v2_4dev19CTFReaderSatNodeEltESaIvELN9__gnu_cxx12_Lock_policyE2EE = linkonce_odr hidden unnamed_addr constant { [7 x ptr] } { [7 x ptr] [ptr null, ptr @_ZTISt23_Sp_counted_ptr_inplaceIN19OpenColorIO_v2_4dev19CTFReaderSatNodeEltESaIvELN9__gnu_cxx12_Lock_policyE2EE, ptr @_ZNSt23_Sp_counted_ptr_inplaceIN19OpenColorIO_v2_4dev19CTFReaderSatNodeEltESaIvELN9__gnu_cxx12_Lock_policyE2EED2Ev, ptr @_ZNSt23_Sp_counted_ptr_inplaceIN19OpenColorIO_v2_4dev19CTFReaderSatNodeEltESaIvELN9__gnu_cxx12_Lock_policyE2EED0Ev, ptr @_ZNSt23_Sp_counted_ptr_inplaceIN19OpenColorIO_v2_4dev19CTFReaderSatNodeEltESaIvELN9__gnu_cxx12_Lock_policyE2EE10_M_disposeEv, ptr @_ZNSt23_Sp_counted_ptr_inplaceIN19OpenColorIO_v2_4dev19CTFReaderSatNodeEltESaIvELN9__gnu_cxx12_Lock_policyE2EE10_M_destroyEv, ptr @_ZNSt23_Sp_counted_ptr_inplaceIN19OpenColorIO_v2_4dev19CTFReaderSatNodeEltESaIvELN9__gnu_cxx12_Lock_policyE2EE14_M_get_deleterERKSt9type_info] }, comdat, align 8
@_ZTSSt23_Sp_counted_ptr_inplaceIN19OpenColorIO_v2_4dev19CTFReaderSatNodeEltESaIvELN9__gnu_cxx12_Lock_policyE2EE = linkonce_odr hidden constant [108 x i8] c"St23_Sp_counted_ptr_inplaceIN19OpenColorIO_v2_4dev19CTFReaderSatNodeEltESaIvELN9__gnu_cxx12_Lock_policyE2EE\00", comdat, align 1
@_ZTISt23_Sp_counted_ptr_inplaceIN19OpenColorIO_v2_4dev19CTFReaderSatNodeEltESaIvELN9__gnu_cxx12_Lock_policyE2EE = linkonce_odr hidden constant { ptr, ptr, ptr } { ptr getelementptr inbounds (ptr, ptr @_ZTVN10__cxxabiv120__si_class_type_infoE, i64 2), ptr @_ZTSSt23_Sp_counted_ptr_inplaceIN19OpenColorIO_v2_4dev19CTFReaderSatNodeEltESaIvELN9__gnu_cxx12_Lock_policyE2EE, ptr @_ZTISt16_Sp_counted_baseILN9__gnu_cxx12_Lock_policyE2EE }, comdat, align 8
@_ZTVSt23_Sp_counted_ptr_inplaceIN19OpenColorIO_v2_4dev22XmlReaderSaturationEltESaIvELN9__gnu_cxx12_Lock_policyE2EE = linkonce_odr hidden unnamed_addr constant { [7 x ptr] } { [7 x ptr] [ptr null, ptr @_ZTISt23_Sp_counted_ptr_inplaceIN19OpenColorIO_v2_4dev22XmlReaderSaturationEltESaIvELN9__gnu_cxx12_Lock_policyE2EE, ptr @_ZNSt23_Sp_counted_ptr_inplaceIN19OpenColorIO_v2_4dev22XmlReaderSaturationEltESaIvELN9__gnu_cxx12_Lock_policyE2EED2Ev, ptr @_ZNSt23_Sp_counted_ptr_inplaceIN19OpenColorIO_v2_4dev22XmlReaderSaturationEltESaIvELN9__gnu_cxx12_Lock_policyE2EED0Ev, ptr @_ZNSt23_Sp_counted_ptr_inplaceIN19OpenColorIO_v2_4dev22XmlReaderSaturationEltESaIvELN9__gnu_cxx12_Lock_policyE2EE10_M_disposeEv, ptr @_ZNSt23_Sp_counted_ptr_inplaceIN19OpenColorIO_v2_4dev22XmlReaderSaturationEltESaIvELN9__gnu_cxx12_Lock_policyE2EE10_M_destroyEv, ptr @_ZNSt23_Sp_counted_ptr_inplaceIN19OpenColorIO_v2_4dev22XmlReaderSaturationEltESaIvELN9__gnu_cxx12_Lock_policyE2EE14_M_get_deleterERKSt9type_info] }, comdat, align 8
@_ZTSSt23_Sp_counted_ptr_inplaceIN19OpenColorIO_v2_4dev22XmlReaderSaturationEltESaIvELN9__gnu_cxx12_Lock_policyE2EE = linkonce_odr hidden constant [111 x i8] c"St23_Sp_counted_ptr_inplaceIN19OpenColorIO_v2_4dev22XmlReaderSaturationEltESaIvELN9__gnu_cxx12_Lock_policyE2EE\00", comdat, align 1
@_ZTISt23_Sp_counted_ptr_inplaceIN19OpenColorIO_v2_4dev22XmlReaderSaturationEltESaIvELN9__gnu_cxx12_Lock_policyE2EE = linkonce_odr hidden constant { ptr, ptr, ptr } { ptr getelementptr inbounds (ptr, ptr @_ZTVN10__cxxabiv120__si_class_type_infoE, i64 2), ptr @_ZTSSt23_Sp_counted_ptr_inplaceIN19OpenColorIO_v2_4dev22XmlReaderSaturationEltESaIvELN9__gnu_cxx12_Lock_policyE2EE, ptr @_ZTISt16_Sp_counted_baseILN9__gnu_cxx12_Lock_policyE2EE }, comdat, align 8
@_ZTVSt23_Sp_counted_ptr_inplaceIN19OpenColorIO_v2_4dev19CTFReaderSOPNodeEltESaIvELN9__gnu_cxx12_Lock_policyE2EE = linkonce_odr hidden unnamed_addr constant { [7 x ptr] } { [7 x ptr] [ptr null, ptr @_ZTISt23_Sp_counted_ptr_inplaceIN19OpenColorIO_v2_4dev19CTFReaderSOPNodeEltESaIvELN9__gnu_cxx12_Lock_policyE2EE, ptr @_ZNSt23_Sp_counted_ptr_inplaceIN19OpenColorIO_v2_4dev19CTFReaderSOPNodeEltESaIvELN9__gnu_cxx12_Lock_policyE2EED2Ev, ptr @_ZNSt23_Sp_counted_ptr_inplaceIN19OpenColorIO_v2_4dev19CTFReaderSOPNodeEltESaIvELN9__gnu_cxx12_Lock_policyE2EED0Ev, ptr @_ZNSt23_Sp_counted_ptr_inplaceIN19OpenColorIO_v2_4dev19CTFReaderSOPNodeEltESaIvELN9__gnu_cxx12_Lock_policyE2EE10_M_disposeEv, ptr @_ZNSt23_Sp_counted_ptr_inplaceIN19OpenColorIO_v2_4dev19CTFReaderSOPNodeEltESaIvELN9__gnu_cxx12_Lock_policyE2EE10_M_destroyEv, ptr @_ZNSt23_Sp_counted_ptr_inplaceIN19OpenColorIO_v2_4dev19CTFReaderSOPNodeEltESaIvELN9__gnu_cxx12_Lock_policyE2EE14_M_get_deleterERKSt9type_info] }, comdat, align 8
@_ZTSSt23_Sp_counted_ptr_inplaceIN19OpenColorIO_v2_4dev19CTFReaderSOPNodeEltESaIvELN9__gnu_cxx12_Lock_policyE2EE = linkonce_odr hidden constant [108 x i8] c"St23_Sp_counted_ptr_inplaceIN19OpenColorIO_v2_4dev19CTFReaderSOPNodeEltESaIvELN9__gnu_cxx12_Lock_policyE2EE\00", comdat, align 1
@_ZTISt23_Sp_counted_ptr_inplaceIN19OpenColorIO_v2_4dev19CTFReaderSOPNodeEltESaIvELN9__gnu_cxx12_Lock_policyE2EE = linkonce_odr hidden constant { ptr, ptr, ptr } { ptr getelementptr inbounds (ptr, ptr @_ZTVN10__cxxabiv120__si_class_type_infoE, i64 2), ptr @_ZTSSt23_Sp_counted_ptr_inplaceIN19OpenColorIO_v2_4dev19CTFReaderSOPNodeEltESaIvELN9__gnu_cxx12_Lock_policyE2EE, ptr @_ZTISt16_Sp_counted_baseILN9__gnu_cxx12_Lock_policyE2EE }, comdat, align 8
@_ZTVSt23_Sp_counted_ptr_inplaceIN19OpenColorIO_v2_4dev20XmlReaderSOPValueEltESaIvELN9__gnu_cxx12_Lock_policyE2EE = linkonce_odr hidden unnamed_addr constant { [7 x ptr] } { [7 x ptr] [ptr null, ptr @_ZTISt23_Sp_counted_ptr_inplaceIN19OpenColorIO_v2_4dev20XmlReaderSOPValueEltESaIvELN9__gnu_cxx12_Lock_policyE2EE, ptr @_ZNSt23_Sp_counted_ptr_inplaceIN19OpenColorIO_v2_4dev20XmlReaderSOPValueEltESaIvELN9__gnu_cxx12_Lock_policyE2EED2Ev, ptr @_ZNSt23_Sp_counted_ptr_inplaceIN19OpenColorIO_v2_4dev20XmlReaderSOPValueEltESaIvELN9__gnu_cxx12_Lock_policyE2EED0Ev, ptr @_ZNSt23_Sp_counted_ptr_inplaceIN19OpenColorIO_v2_4dev20XmlReaderSOPValueEltESaIvELN9__gnu_cxx12_Lock_policyE2EE10_M_disposeEv, ptr @_ZNSt23_Sp_counted_ptr_inplaceIN19OpenColorIO_v2_4dev20XmlReaderSOPValueEltESaIvELN9__gnu_cxx12_Lock_policyE2EE10_M_destroyEv, ptr @_ZNSt23_Sp_counted_ptr_inplaceIN19OpenColorIO_v2_4dev20XmlReaderSOPValueEltESaIvELN9__gnu_cxx12_Lock_policyE2EE14_M_get_deleterERKSt9type_info] }, comdat, align 8
@_ZTSSt23_Sp_counted_ptr_inplaceIN19OpenColorIO_v2_4dev20XmlReaderSOPValueEltESaIvELN9__gnu_cxx12_Lock_policyE2EE = linkonce_odr hidden constant [109 x i8] c"St23_Sp_counted_ptr_inplaceIN19OpenColorIO_v2_4dev20XmlReaderSOPValueEltESaIvELN9__gnu_cxx12_Lock_policyE2EE\00", comdat, align 1
@_ZTISt23_Sp_counted_ptr_inplaceIN19OpenColorIO_v2_4dev20XmlReaderSOPValueEltESaIvELN9__gnu_cxx12_Lock_policyE2EE = linkonce_odr hidden constant { ptr, ptr, ptr } { ptr getelementptr inbounds (ptr, ptr @_ZTVN10__cxxabiv120__si_class_type_infoE, i64 2), ptr @_ZTSSt23_Sp_counted_ptr_inplaceIN19OpenColorIO_v2_4dev20XmlReaderSOPValueEltESaIvELN9__gnu_cxx12_Lock_policyE2EE, ptr @_ZTISt16_Sp_counted_baseILN9__gnu_cxx12_Lock_policyE2EE }, comdat, align 8
@_ZTVSt23_Sp_counted_ptr_inplaceIN19OpenColorIO_v2_4dev31CTFReaderGradingPrimaryParamEltESaIvELN9__gnu_cxx12_Lock_policyE2EE = linkonce_odr hidden unnamed_addr constant { [7 x ptr] } { [7 x ptr] [ptr null, ptr @_ZTISt23_Sp_counted_ptr_inplaceIN19OpenColorIO_v2_4dev31CTFReaderGradingPrimaryParamEltESaIvELN9__gnu_cxx12_Lock_policyE2EE, ptr @_ZNSt23_Sp_counted_ptr_inplaceIN19OpenColorIO_v2_4dev31CTFReaderGradingPrimaryParamEltESaIvELN9__gnu_cxx12_Lock_policyE2EED2Ev, ptr @_ZNSt23_Sp_counted_ptr_inplaceIN19OpenColorIO_v2_4dev31CTFReaderGradingPrimaryParamEltESaIvELN9__gnu_cxx12_Lock_policyE2EED0Ev, ptr @_ZNSt23_Sp_counted_ptr_inplaceIN19OpenColorIO_v2_4dev31CTFReaderGradingPrimaryParamEltESaIvELN9__gnu_cxx12_Lock_policyE2EE10_M_disposeEv, ptr @_ZNSt23_Sp_counted_ptr_inplaceIN19OpenColorIO_v2_4dev31CTFReaderGradingPrimaryParamEltESaIvELN9__gnu_cxx12_Lock_policyE2EE10_M_destroyEv, ptr @_ZNSt23_Sp_counted_ptr_inplaceIN19OpenColorIO_v2_4dev31CTFReaderGradingPrimaryParamEltESaIvELN9__gnu_cxx12_Lock_policyE2EE14_M_get_deleterERKSt9type_info] }, comdat, align 8
@_ZTSSt23_Sp_counted_ptr_inplaceIN19OpenColorIO_v2_4dev31CTFReaderGradingPrimaryParamEltESaIvELN9__gnu_cxx12_Lock_policyE2EE = linkonce_odr hidden constant [120 x i8] c"St23_Sp_counted_ptr_inplaceIN19OpenColorIO_v2_4dev31CTFReaderGradingPrimaryParamEltESaIvELN9__gnu_cxx12_Lock_policyE2EE\00", comdat, align 1
@_ZTISt23_Sp_counted_ptr_inplaceIN19OpenColorIO_v2_4dev31CTFReaderGradingPrimaryParamEltESaIvELN9__gnu_cxx12_Lock_policyE2EE = linkonce_odr hidden constant { ptr, ptr, ptr } { ptr getelementptr inbounds (ptr, ptr @_ZTVN10__cxxabiv120__si_class_type_infoE, i64 2), ptr @_ZTSSt23_Sp_counted_ptr_inplaceIN19OpenColorIO_v2_4dev31CTFReaderGradingPrimaryParamEltESaIvELN9__gnu_cxx12_Lock_policyE2EE, ptr @_ZTISt16_Sp_counted_baseILN9__gnu_cxx12_Lock_policyE2EE }, comdat, align 8
@_ZTVSt23_Sp_counted_ptr_inplaceIN19OpenColorIO_v2_4dev24CTFReaderGradingCurveEltESaIvELN9__gnu_cxx12_Lock_policyE2EE = linkonce_odr hidden unnamed_addr constant { [7 x ptr] } { [7 x ptr] [ptr null, ptr @_ZTISt23_Sp_counted_ptr_inplaceIN19OpenColorIO_v2_4dev24CTFReaderGradingCurveEltESaIvELN9__gnu_cxx12_Lock_policyE2EE, ptr @_ZNSt23_Sp_counted_ptr_inplaceIN19OpenColorIO_v2_4dev24CTFReaderGradingCurveEltESaIvELN9__gnu_cxx12_Lock_policyE2EED2Ev, ptr @_ZNSt23_Sp_counted_ptr_inplaceIN19OpenColorIO_v2_4dev24CTFReaderGradingCurveEltESaIvELN9__gnu_cxx12_Lock_policyE2EED0Ev, ptr @_ZNSt23_Sp_counted_ptr_inplaceIN19OpenColorIO_v2_4dev24CTFReaderGradingCurveEltESaIvELN9__gnu_cxx12_Lock_policyE2EE10_M_disposeEv, ptr @_ZNSt23_Sp_counted_ptr_inplaceIN19OpenColorIO_v2_4dev24CTFReaderGradingCurveEltESaIvELN9__gnu_cxx12_Lock_policyE2EE10_M_destroyEv, ptr @_ZNSt23_Sp_counted_ptr_inplaceIN19OpenColorIO_v2_4dev24CTFReaderGradingCurveEltESaIvELN9__gnu_cxx12_Lock_policyE2EE14_M_get_deleterERKSt9type_info] }, comdat, align 8
@_ZTSSt23_Sp_counted_ptr_inplaceIN19OpenColorIO_v2_4dev24CTFReaderGradingCurveEltESaIvELN9__gnu_cxx12_Lock_policyE2EE = linkonce_odr hidden constant [113 x i8] c"St23_Sp_counted_ptr_inplaceIN19OpenColorIO_v2_4dev24CTFReaderGradingCurveEltESaIvELN9__gnu_cxx12_Lock_policyE2EE\00", comdat, align 1
@_ZTISt23_Sp_counted_ptr_inplaceIN19OpenColorIO_v2_4dev24CTFReaderGradingCurveEltESaIvELN9__gnu_cxx12_Lock_policyE2EE = linkonce_odr hidden constant { ptr, ptr, ptr } { ptr getelementptr inbounds (ptr, ptr @_ZTVN10__cxxabiv120__si_class_type_infoE, i64 2), ptr @_ZTSSt23_Sp_counted_ptr_inplaceIN19OpenColorIO_v2_4dev24CTFReaderGradingCurveEltESaIvELN9__gnu_cxx12_Lock_policyE2EE, ptr @_ZTISt16_Sp_counted_baseILN9__gnu_cxx12_Lock_policyE2EE }, comdat, align 8
@_ZTVSt23_Sp_counted_ptr_inplaceIN19OpenColorIO_v2_4dev30CTFReaderGradingCurvePointsEltESaIvELN9__gnu_cxx12_Lock_policyE2EE = linkonce_odr hidden unnamed_addr constant { [7 x ptr] } { [7 x ptr] [ptr null, ptr @_ZTISt23_Sp_counted_ptr_inplaceIN19OpenColorIO_v2_4dev30CTFReaderGradingCurvePointsEltESaIvELN9__gnu_cxx12_Lock_policyE2EE, ptr @_ZNSt23_Sp_counted_ptr_inplaceIN19OpenColorIO_v2_4dev30CTFReaderGradingCurvePointsEltESaIvELN9__gnu_cxx12_Lock_policyE2EED2Ev, ptr @_ZNSt23_Sp_counted_ptr_inplaceIN19OpenColorIO_v2_4dev30CTFReaderGradingCurvePointsEltESaIvELN9__gnu_cxx12_Lock_policyE2EED0Ev, ptr @_ZNSt23_Sp_counted_ptr_inplaceIN19OpenColorIO_v2_4dev30CTFReaderGradingCurvePointsEltESaIvELN9__gnu_cxx12_Lock_policyE2EE10_M_disposeEv, ptr @_ZNSt23_Sp_counted_ptr_inplaceIN19OpenColorIO_v2_4dev30CTFReaderGradingCurvePointsEltESaIvELN9__gnu_cxx12_Lock_policyE2EE10_M_destroyEv, ptr @_ZNSt23_Sp_counted_ptr_inplaceIN19OpenColorIO_v2_4dev30CTFReaderGradingCurvePointsEltESaIvELN9__gnu_cxx12_Lock_policyE2EE14_M_get_deleterERKSt9type_info] }, comdat, align 8
@_ZTSSt23_Sp_counted_ptr_inplaceIN19OpenColorIO_v2_4dev30CTFReaderGradingCurvePointsEltESaIvELN9__gnu_cxx12_Lock_policyE2EE = linkonce_odr hidden constant [119 x i8] c"St23_Sp_counted_ptr_inplaceIN19OpenColorIO_v2_4dev30CTFReaderGradingCurvePointsEltESaIvELN9__gnu_cxx12_Lock_policyE2EE\00", comdat, align 1
@_ZTISt23_Sp_counted_ptr_inplaceIN19OpenColorIO_v2_4dev30CTFReaderGradingCurvePointsEltESaIvELN9__gnu_cxx12_Lock_policyE2EE = linkonce_odr hidden constant { ptr, ptr, ptr } { ptr getelementptr inbounds (ptr, ptr @_ZTVN10__cxxabiv120__si_class_type_infoE, i64 2), ptr @_ZTSSt23_Sp_counted_ptr_inplaceIN19OpenColorIO_v2_4dev30CTFReaderGradingCurvePointsEltESaIvELN9__gnu_cxx12_Lock_policyE2EE, ptr @_ZTISt16_Sp_counted_baseILN9__gnu_cxx12_Lock_policyE2EE }, comdat, align 8
@_ZTVSt23_Sp_counted_ptr_inplaceIN19OpenColorIO_v2_4dev30CTFReaderGradingCurveSlopesEltESaIvELN9__gnu_cxx12_Lock_policyE2EE = linkonce_odr hidden unnamed_addr constant { [7 x ptr] } { [7 x ptr] [ptr null, ptr @_ZTISt23_Sp_counted_ptr_inplaceIN19OpenColorIO_v2_4dev30CTFReaderGradingCurveSlopesEltESaIvELN9__gnu_cxx12_Lock_policyE2EE, ptr @_ZNSt23_Sp_counted_ptr_inplaceIN19OpenColorIO_v2_4dev30CTFReaderGradingCurveSlopesEltESaIvELN9__gnu_cxx12_Lock_policyE2EED2Ev, ptr @_ZNSt23_Sp_counted_ptr_inplaceIN19OpenColorIO_v2_4dev30CTFReaderGradingCurveSlopesEltESaIvELN9__gnu_cxx12_Lock_policyE2EED0Ev, ptr @_ZNSt23_Sp_counted_ptr_inplaceIN19OpenColorIO_v2_4dev30CTFReaderGradingCurveSlopesEltESaIvELN9__gnu_cxx12_Lock_policyE2EE10_M_disposeEv, ptr @_ZNSt23_Sp_counted_ptr_inplaceIN19OpenColorIO_v2_4dev30CTFReaderGradingCurveSlopesEltESaIvELN9__gnu_cxx12_Lock_policyE2EE10_M_destroyEv, ptr @_ZNSt23_Sp_counted_ptr_inplaceIN19OpenColorIO_v2_4dev30CTFReaderGradingCurveSlopesEltESaIvELN9__gnu_cxx12_Lock_policyE2EE14_M_get_deleterERKSt9type_info] }, comdat, align 8
@_ZTSSt23_Sp_counted_ptr_inplaceIN19OpenColorIO_v2_4dev30CTFReaderGradingCurveSlopesEltESaIvELN9__gnu_cxx12_Lock_policyE2EE = linkonce_odr hidden constant [119 x i8] c"St23_Sp_counted_ptr_inplaceIN19OpenColorIO_v2_4dev30CTFReaderGradingCurveSlopesEltESaIvELN9__gnu_cxx12_Lock_policyE2EE\00", comdat, align 1
@_ZTISt23_Sp_counted_ptr_inplaceIN19OpenColorIO_v2_4dev30CTFReaderGradingCurveSlopesEltESaIvELN9__gnu_cxx12_Lock_policyE2EE = linkonce_odr hidden constant { ptr, ptr, ptr } { ptr getelementptr inbounds (ptr, ptr @_ZTVN10__cxxabiv120__si_class_type_infoE, i64 2), ptr @_ZTSSt23_Sp_counted_ptr_inplaceIN19OpenColorIO_v2_4dev30CTFReaderGradingCurveSlopesEltESaIvELN9__gnu_cxx12_Lock_policyE2EE, ptr @_ZTISt16_Sp_counted_baseILN9__gnu_cxx12_Lock_policyE2EE }, comdat, align 8
@_ZTVSt23_Sp_counted_ptr_inplaceIN19OpenColorIO_v2_4dev28CTFReaderGradingToneParamEltESaIvELN9__gnu_cxx12_Lock_policyE2EE = linkonce_odr hidden unnamed_addr constant { [7 x ptr] } { [7 x ptr] [ptr null, ptr @_ZTISt23_Sp_counted_ptr_inplaceIN19OpenColorIO_v2_4dev28CTFReaderGradingToneParamEltESaIvELN9__gnu_cxx12_Lock_policyE2EE, ptr @_ZNSt23_Sp_counted_ptr_inplaceIN19OpenColorIO_v2_4dev28CTFReaderGradingToneParamEltESaIvELN9__gnu_cxx12_Lock_policyE2EED2Ev, ptr @_ZNSt23_Sp_counted_ptr_inplaceIN19OpenColorIO_v2_4dev28CTFReaderGradingToneParamEltESaIvELN9__gnu_cxx12_Lock_policyE2EED0Ev, ptr @_ZNSt23_Sp_counted_ptr_inplaceIN19OpenColorIO_v2_4dev28CTFReaderGradingToneParamEltESaIvELN9__gnu_cxx12_Lock_policyE2EE10_M_disposeEv, ptr @_ZNSt23_Sp_counted_ptr_inplaceIN19OpenColorIO_v2_4dev28CTFReaderGradingToneParamEltESaIvELN9__gnu_cxx12_Lock_policyE2EE10_M_destroyEv, ptr @_ZNSt23_Sp_counted_ptr_inplaceIN19OpenColorIO_v2_4dev28CTFReaderGradingToneParamEltESaIvELN9__gnu_cxx12_Lock_policyE2EE14_M_get_deleterERKSt9type_info] }, comdat, align 8
@_ZTSSt23_Sp_counted_ptr_inplaceIN19OpenColorIO_v2_4dev28CTFReaderGradingToneParamEltESaIvELN9__gnu_cxx12_Lock_policyE2EE = linkonce_odr hidden constant [117 x i8] c"St23_Sp_counted_ptr_inplaceIN19OpenColorIO_v2_4dev28CTFReaderGradingToneParamEltESaIvELN9__gnu_cxx12_Lock_policyE2EE\00", comdat, align 1
@_ZTISt23_Sp_counted_ptr_inplaceIN19OpenColorIO_v2_4dev28CTFReaderGradingToneParamEltESaIvELN9__gnu_cxx12_Lock_policyE2EE = linkonce_odr hidden constant { ptr, ptr, ptr } { ptr getelementptr inbounds (ptr, ptr @_ZTVN10__cxxabiv120__si_class_type_infoE, i64 2), ptr @_ZTSSt23_Sp_counted_ptr_inplaceIN19OpenColorIO_v2_4dev28CTFReaderGradingToneParamEltESaIvELN9__gnu_cxx12_Lock_policyE2EE, ptr @_ZTISt16_Sp_counted_baseILN9__gnu_cxx12_Lock_policyE2EE }, comdat, align 8
@.str.47 = private unnamed_addr constant [32 x i8] c"CTF/CLF internal parsing error.\00", align 1
@.str.48 = private unnamed_addr constant [39 x i8] c"CTF/CLF parsing error: Tag is missing.\00", align 1
@.str.49 = private unnamed_addr constant [29 x i8] c"CTF/CLF parsing error: Tag '\00", align 1
@.str.50 = private unnamed_addr constant [14 x i8] c"' is missing.\00", align 1
@.str.51 = private unnamed_addr constant [39 x i8] c"CTF/CLF parsing error: Attribute end '\00", align 1
@.str.52 = private unnamed_addr constant [14 x i8] c"' is illegal.\00", align 1
@.str.53 = private unnamed_addr constant [3 x i8] c"'.\00", align 1
@.str.54 = private unnamed_addr constant [43 x i8] c"CTF/CLF parsing error: attribute illegal. \00", align 1
@.str.55 = private unnamed_addr constant [41 x i8] c"CTF/CLF parsing error: missing end tag '\00", align 1
@.str.56 = private unnamed_addr constant [43 x i8] c"CTF/CLF parsing error: attribute illegal '\00", align 1
@_ZTIN19OpenColorIO_v2_4dev23XmlReaderDescriptionEltE = external constant ptr
@.str.57 = private unnamed_addr constant [44 x i8] c"CTF/CLF parsing error (no closing tag for '\00", align 1
@.str.58 = private unnamed_addr constant [3 x i8] c") \00", align 1
@_ZZN19OpenColorIO_v2_4dev12_GLOBAL__N_115XMLParserHelper5ParseERSiE5errorB5cxx11 = internal global %"class.std::__cxx11::basic_string" zeroinitializer, align 8
@_ZGVZN19OpenColorIO_v2_4dev12_GLOBAL__N_115XMLParserHelper5ParseERSiE5errorB5cxx11 = internal global i64 0, align 8
@.str.59 = private unnamed_addr constant [42 x i8] c"CTF/CLF parsing error: Invalid transform.\00", align 1
@_ZZN19OpenColorIO_v2_4dev12_GLOBAL__N_115XMLParserHelper5ParseERSiE5errorB5cxx11_0 = internal global %"class.std::__cxx11::basic_string" zeroinitializer, align 8
@_ZGVZN19OpenColorIO_v2_4dev12_GLOBAL__N_115XMLParserHelper5ParseERSiE5errorB5cxx11_0 = internal global i64 0, align 8
@.str.60 = private unnamed_addr constant [50 x i8] c"CTF/CLF parsing error: No color operator in file.\00", align 1
@.str.61 = private unnamed_addr constant [4 x i8] c"').\00", align 1
@_ZZN19OpenColorIO_v2_4dev12_GLOBAL__N_115XMLParserHelper5ParseERKNSt7__cxx1112basic_stringIcSt11char_traitsIcESaIcEEEbE5errorB5cxx11 = internal global %"class.std::__cxx11::basic_string" zeroinitializer, align 8
@_ZGVZN19OpenColorIO_v2_4dev12_GLOBAL__N_115XMLParserHelper5ParseERKNSt7__cxx1112basic_stringIcSt11char_traitsIcESaIcEEEbE5errorB5cxx11 = internal global i64 0, align 8
@.str.62 = private unnamed_addr constant [49 x i8] c"CTF/CLF parsing error (unbalanced element tags).\00", align 1
@.str.63 = private unnamed_addr constant [24 x i8] c"CTF/CLF parsing error: \00", align 1
@_ZTVN19OpenColorIO_v2_4dev12_GLOBAL__N_115LocalCachedFileE = internal unnamed_addr constant { [5 x ptr] } { [5 x ptr] [ptr null, ptr @_ZTIN19OpenColorIO_v2_4dev12_GLOBAL__N_115LocalCachedFileE, ptr @_ZN19OpenColorIO_v2_4dev12_GLOBAL__N_115LocalCachedFileD2Ev, ptr @_ZN19OpenColorIO_v2_4dev12_GLOBAL__N_115LocalCachedFileD0Ev, ptr @_ZNK19OpenColorIO_v2_4dev10CachedFile11getCDLGroupEv] }, align 8
@_ZTSN19OpenColorIO_v2_4dev12_GLOBAL__N_115LocalCachedFileE = internal constant [55 x i8] c"N19OpenColorIO_v2_4dev12_GLOBAL__N_115LocalCachedFileE\00", align 1
@_ZTSN19OpenColorIO_v2_4dev10CachedFileE = linkonce_odr hidden constant [36 x i8] c"N19OpenColorIO_v2_4dev10CachedFileE\00", comdat, align 1
@_ZTIN19OpenColorIO_v2_4dev10CachedFileE = linkonce_odr hidden constant { ptr, ptr } { ptr getelementptr inbounds (ptr, ptr @_ZTVN10__cxxabiv117__class_type_infoE, i64 2), ptr @_ZTSN19OpenColorIO_v2_4dev10CachedFileE }, comdat, align 8
@_ZTIN19OpenColorIO_v2_4dev12_GLOBAL__N_115LocalCachedFileE = internal constant { ptr, ptr, ptr } { ptr getelementptr inbounds (ptr, ptr @_ZTVN10__cxxabiv120__si_class_type_infoE, i64 2), ptr @_ZTSN19OpenColorIO_v2_4dev12_GLOBAL__N_115LocalCachedFileE, ptr @_ZTIN19OpenColorIO_v2_4dev10CachedFileE }, align 8
@_ZTVN19OpenColorIO_v2_4dev10CachedFileE = linkonce_odr hidden unnamed_addr constant { [5 x ptr] } { [5 x ptr] [ptr null, ptr @_ZTIN19OpenColorIO_v2_4dev10CachedFileE, ptr @_ZN19OpenColorIO_v2_4dev10CachedFileD2Ev, ptr @_ZN19OpenColorIO_v2_4dev10CachedFileD0Ev, ptr @_ZNK19OpenColorIO_v2_4dev10CachedFile11getCDLGroupEv] }, comdat, align 8
@.str.64 = private unnamed_addr constant [23 x i8] c"Not a CDL file format.\00", align 1
@_ZTVSt15_Sp_counted_ptrIPN19OpenColorIO_v2_4dev12_GLOBAL__N_115LocalCachedFileELN9__gnu_cxx12_Lock_policyE2EE = internal unnamed_addr constant { [7 x ptr] } { [7 x ptr] [ptr null, ptr @_ZTISt15_Sp_counted_ptrIPN19OpenColorIO_v2_4dev12_GLOBAL__N_115LocalCachedFileELN9__gnu_cxx12_Lock_policyE2EE, ptr @_ZNSt15_Sp_counted_ptrIPN19OpenColorIO_v2_4dev12_GLOBAL__N_115LocalCachedFileELN9__gnu_cxx12_Lock_policyE2EED2Ev, ptr @_ZNSt15_Sp_counted_ptrIPN19OpenColorIO_v2_4dev12_GLOBAL__N_115LocalCachedFileELN9__gnu_cxx12_Lock_policyE2EED0Ev, ptr @_ZNSt15_Sp_counted_ptrIPN19OpenColorIO_v2_4dev12_GLOBAL__N_115LocalCachedFileELN9__gnu_cxx12_Lock_policyE2EE10_M_disposeEv, ptr @_ZNSt15_Sp_counted_ptrIPN19OpenColorIO_v2_4dev12_GLOBAL__N_115LocalCachedFileELN9__gnu_cxx12_Lock_policyE2EE10_M_destroyEv, ptr @_ZNSt15_Sp_counted_ptrIPN19OpenColorIO_v2_4dev12_GLOBAL__N_115LocalCachedFileELN9__gnu_cxx12_Lock_policyE2EE14_M_get_deleterERKSt9type_info] }, align 8
@_ZTSSt15_Sp_counted_ptrIPN19OpenColorIO_v2_4dev12_GLOBAL__N_115LocalCachedFileELN9__gnu_cxx12_Lock_policyE2EE = internal constant [106 x i8] c"St15_Sp_counted_ptrIPN19OpenColorIO_v2_4dev12_GLOBAL__N_115LocalCachedFileELN9__gnu_cxx12_Lock_policyE2EE\00", align 1
@_ZTISt15_Sp_counted_ptrIPN19OpenColorIO_v2_4dev12_GLOBAL__N_115LocalCachedFileELN9__gnu_cxx12_Lock_policyE2EE = internal constant { ptr, ptr, ptr } { ptr getelementptr inbounds (ptr, ptr @_ZTVN10__cxxabiv120__si_class_type_infoE, i64 2), ptr @_ZTSSt15_Sp_counted_ptrIPN19OpenColorIO_v2_4dev12_GLOBAL__N_115LocalCachedFileELN9__gnu_cxx12_Lock_policyE2EE, ptr @_ZTISt16_Sp_counted_baseILN9__gnu_cxx12_Lock_policyE2EE }, align 8
@_ZZNK19OpenColorIO_v2_4dev12_GLOBAL__N_115LocalFileFormat4bakeERKNS_5BakerERKNSt7__cxx1112basic_stringIcSt11char_traitsIcESaIcEEERSoE15DEFAULT_1D_SIZE = internal constant i32 4096, align 4
@_ZZNK19OpenColorIO_v2_4dev12_GLOBAL__N_115LocalFileFormat4bakeERKNS_5BakerERKNSt7__cxx1112basic_stringIcSt11char_traitsIcESaIcEEERSoE15DEFAULT_3D_SIZE = internal constant i32 64, align 4
@.str.65 = private unnamed_addr constant [36 x i8] c"Unknown CLF/CTF file format name, '\00", align 1
@.str.66 = private unnamed_addr constant [50 x i8] c"Internal logic error, LUT type was not determined\00", align 1
@_ZTVSt23_Sp_counted_ptr_inplaceIN19OpenColorIO_v2_4dev11Lut1DOpDataESaIvELN9__gnu_cxx12_Lock_policyE2EE = linkonce_odr hidden unnamed_addr constant { [7 x ptr] } { [7 x ptr] [ptr null, ptr @_ZTISt23_Sp_counted_ptr_inplaceIN19OpenColorIO_v2_4dev11Lut1DOpDataESaIvELN9__gnu_cxx12_Lock_policyE2EE, ptr @_ZNSt23_Sp_counted_ptr_inplaceIN19OpenColorIO_v2_4dev11Lut1DOpDataESaIvELN9__gnu_cxx12_Lock_policyE2EED2Ev, ptr @_ZNSt23_Sp_counted_ptr_inplaceIN19OpenColorIO_v2_4dev11Lut1DOpDataESaIvELN9__gnu_cxx12_Lock_policyE2EED0Ev, ptr @_ZNSt23_Sp_counted_ptr_inplaceIN19OpenColorIO_v2_4dev11Lut1DOpDataESaIvELN9__gnu_cxx12_Lock_policyE2EE10_M_disposeEv, ptr @_ZNSt23_Sp_counted_ptr_inplaceIN19OpenColorIO_v2_4dev11Lut1DOpDataESaIvELN9__gnu_cxx12_Lock_policyE2EE10_M_destroyEv, ptr @_ZNSt23_Sp_counted_ptr_inplaceIN19OpenColorIO_v2_4dev11Lut1DOpDataESaIvELN9__gnu_cxx12_Lock_policyE2EE14_M_get_deleterERKSt9type_info] }, comdat, align 8
@_ZTSSt23_Sp_counted_ptr_inplaceIN19OpenColorIO_v2_4dev11Lut1DOpDataESaIvELN9__gnu_cxx12_Lock_policyE2EE = linkonce_odr hidden constant [100 x i8] c"St23_Sp_counted_ptr_inplaceIN19OpenColorIO_v2_4dev11Lut1DOpDataESaIvELN9__gnu_cxx12_Lock_policyE2EE\00", comdat, align 1
@_ZTISt23_Sp_counted_ptr_inplaceIN19OpenColorIO_v2_4dev11Lut1DOpDataESaIvELN9__gnu_cxx12_Lock_policyE2EE = linkonce_odr hidden constant { ptr, ptr, ptr } { ptr getelementptr inbounds (ptr, ptr @_ZTVN10__cxxabiv120__si_class_type_infoE, i64 2), ptr @_ZTSSt23_Sp_counted_ptr_inplaceIN19OpenColorIO_v2_4dev11Lut1DOpDataESaIvELN9__gnu_cxx12_Lock_policyE2EE, ptr @_ZTISt16_Sp_counted_baseILN9__gnu_cxx12_Lock_policyE2EE }, comdat, align 8
@.str.67 = private unnamed_addr constant [26 x i8] c"vector::_M_default_append\00", align 1
@_ZTVSt23_Sp_counted_ptr_inplaceIN19OpenColorIO_v2_4dev11Lut3DOpDataESaIvELN9__gnu_cxx12_Lock_policyE2EE = linkonce_odr hidden unnamed_addr constant { [7 x ptr] } { [7 x ptr] [ptr null, ptr @_ZTISt23_Sp_counted_ptr_inplaceIN19OpenColorIO_v2_4dev11Lut3DOpDataESaIvELN9__gnu_cxx12_Lock_policyE2EE, ptr @_ZNSt23_Sp_counted_ptr_inplaceIN19OpenColorIO_v2_4dev11Lut3DOpDataESaIvELN9__gnu_cxx12_Lock_policyE2EED2Ev, ptr @_ZNSt23_Sp_counted_ptr_inplaceIN19OpenColorIO_v2_4dev11Lut3DOpDataESaIvELN9__gnu_cxx12_Lock_policyE2EED0Ev, ptr @_ZNSt23_Sp_counted_ptr_inplaceIN19OpenColorIO_v2_4dev11Lut3DOpDataESaIvELN9__gnu_cxx12_Lock_policyE2EE10_M_disposeEv, ptr @_ZNSt23_Sp_counted_ptr_inplaceIN19OpenColorIO_v2_4dev11Lut3DOpDataESaIvELN9__gnu_cxx12_Lock_policyE2EE10_M_destroyEv, ptr @_ZNSt23_Sp_counted_ptr_inplaceIN19OpenColorIO_v2_4dev11Lut3DOpDataESaIvELN9__gnu_cxx12_Lock_policyE2EE14_M_get_deleterERKSt9type_info] }, comdat, align 8
@_ZTSSt23_Sp_counted_ptr_inplaceIN19OpenColorIO_v2_4dev11Lut3DOpDataESaIvELN9__gnu_cxx12_Lock_policyE2EE = linkonce_odr hidden constant [100 x i8] c"St23_Sp_counted_ptr_inplaceIN19OpenColorIO_v2_4dev11Lut3DOpDataESaIvELN9__gnu_cxx12_Lock_policyE2EE\00", comdat, align 1
@_ZTISt23_Sp_counted_ptr_inplaceIN19OpenColorIO_v2_4dev11Lut3DOpDataESaIvELN9__gnu_cxx12_Lock_policyE2EE = linkonce_odr hidden constant { ptr, ptr, ptr } { ptr getelementptr inbounds (ptr, ptr @_ZTVN10__cxxabiv120__si_class_type_infoE, i64 2), ptr @_ZTSSt23_Sp_counted_ptr_inplaceIN19OpenColorIO_v2_4dev11Lut3DOpDataESaIvELN9__gnu_cxx12_Lock_policyE2EE, ptr @_ZTISt16_Sp_counted_baseILN9__gnu_cxx12_Lock_policyE2EE }, comdat, align 8
@.str.68 = private unnamed_addr constant [50 x i8] c"Error: CLF/CTF writer does not also write format \00", align 1
@.str.69 = private unnamed_addr constant [39 x i8] c"<?xml version=\221.0\22 encoding=\22UTF-8\22?>\00", align 1
@_ZTVSt23_Sp_counted_ptr_inplaceIN19OpenColorIO_v2_4dev18CTFReaderTransformESaIvELN9__gnu_cxx12_Lock_policyE2EE = linkonce_odr hidden unnamed_addr constant { [7 x ptr] } { [7 x ptr] [ptr null, ptr @_ZTISt23_Sp_counted_ptr_inplaceIN19OpenColorIO_v2_4dev18CTFReaderTransformESaIvELN9__gnu_cxx12_Lock_policyE2EE, ptr @_ZNSt23_Sp_counted_ptr_inplaceIN19OpenColorIO_v2_4dev18CTFReaderTransformESaIvELN9__gnu_cxx12_Lock_policyE2EED2Ev, ptr @_ZNSt23_Sp_counted_ptr_inplaceIN19OpenColorIO_v2_4dev18CTFReaderTransformESaIvELN9__gnu_cxx12_Lock_policyE2EED0Ev, ptr @_ZNSt23_Sp_counted_ptr_inplaceIN19OpenColorIO_v2_4dev18CTFReaderTransformESaIvELN9__gnu_cxx12_Lock_policyE2EE10_M_disposeEv, ptr @_ZNSt23_Sp_counted_ptr_inplaceIN19OpenColorIO_v2_4dev18CTFReaderTransformESaIvELN9__gnu_cxx12_Lock_policyE2EE10_M_destroyEv, ptr @_ZNSt23_Sp_counted_ptr_inplaceIN19OpenColorIO_v2_4dev18CTFReaderTransformESaIvELN9__gnu_cxx12_Lock_policyE2EE14_M_get_deleterERKSt9type_info] }, comdat, align 8
@_ZTSSt23_Sp_counted_ptr_inplaceIN19OpenColorIO_v2_4dev18CTFReaderTransformESaIvELN9__gnu_cxx12_Lock_policyE2EE = linkonce_odr hidden constant [107 x i8] c"St23_Sp_counted_ptr_inplaceIN19OpenColorIO_v2_4dev18CTFReaderTransformESaIvELN9__gnu_cxx12_Lock_policyE2EE\00", comdat, align 1
@_ZTISt23_Sp_counted_ptr_inplaceIN19OpenColorIO_v2_4dev18CTFReaderTransformESaIvELN9__gnu_cxx12_Lock_policyE2EE = linkonce_odr hidden constant { ptr, ptr, ptr } { ptr getelementptr inbounds (ptr, ptr @_ZTVN10__cxxabiv120__si_class_type_infoE, i64 2), ptr @_ZTSSt23_Sp_counted_ptr_inplaceIN19OpenColorIO_v2_4dev18CTFReaderTransformESaIvELN9__gnu_cxx12_Lock_policyE2EE, ptr @_ZTISt16_Sp_counted_baseILN9__gnu_cxx12_Lock_policyE2EE }, comdat, align 8
@.str.70 = private unnamed_addr constant [42 x i8] c"Cannot build clf ops. Invalid cache type.\00", align 1
@_ZTIN19OpenColorIO_v2_4dev6OpDataE = external constant ptr
@_ZTIN19OpenColorIO_v2_4dev11Lut1DOpDataE = external constant ptr
@_ZTIN19OpenColorIO_v2_4dev11Lut3DOpDataE = external constant ptr
@_ZTIN19OpenColorIO_v2_4dev15ReferenceOpDataE = external constant ptr
@llvm.global_ctors = appending global [1 x { i32, ptr, ptr }] [{ i32, ptr, ptr } { i32 65535, ptr @_GLOBAL__sub_I_FileFormatCTF.cpp, ptr null }]

; Function Attrs: uwtable
define internal void @__cxx_global_var_init() #0 section ".text.startup" {
entry:
  call void @_ZNSt8ios_base4InitC1Ev(ptr noundef nonnull align 1 dereferenceable(1) @_ZStL8__ioinit)
  %0 = call i32 @__cxa_atexit(ptr @_ZNSt8ios_base4InitD1Ev, ptr @_ZStL8__ioinit, ptr @__dso_handle) #3
  ret void
}

declare void @_ZNSt8ios_base4InitC1Ev(ptr noundef nonnull align 1 dereferenceable(1)) unnamed_addr #1

; Function Attrs: nounwind
declare void @_ZNSt8ios_base4InitD1Ev(ptr noundef nonnull align 1 dereferenceable(1)) unnamed_addr #2

; Function Attrs: nounwind
declare i32 @__cxa_atexit(ptr, ptr, ptr) #3

; Function Attrs: uwtable
define internal void @__cxx_global_var_init.1() #0 section ".text.startup" {
entry:
  call void @_ZN19OpenColorIO_v2_4dev10CTFVersionC2Ejj(ptr noundef nonnull align 4 dereferenceable(12) @_ZN19OpenColorIO_v2_4devL28CTF_PROCESS_LIST_VERSION_1_2E, i32 noundef 1, i32 noundef 2)
  %0 = call i32 @__cxa_atexit(ptr @_ZN19OpenColorIO_v2_4dev10CTFVersionD2Ev, ptr @_ZN19OpenColorIO_v2_4devL28CTF_PROCESS_LIST_VERSION_1_2E, ptr @__dso_handle) #3
  ret void
}

; Function Attrs: mustprogress nounwind uwtable
define linkonce_odr hidden void @_ZN19OpenColorIO_v2_4dev10CTFVersionC2Ejj(ptr noundef nonnull align 4 dereferenceable(12) %this, i32 noundef %major, i32 noundef %minor) unnamed_addr #4 comdat align 2 {
entry:
  %this.addr = alloca ptr, align 8
  %major.addr = alloca i32, align 4
  %minor.addr = alloca i32, align 4
  store ptr %this, ptr %this.addr, align 8
  store i32 %major, ptr %major.addr, align 4
  store i32 %minor, ptr %minor.addr, align 4
  %this1 = load ptr, ptr %this.addr, align 8
  %m_major = getelementptr inbounds %"class.OpenColorIO_v2_4dev::CTFVersion", ptr %this1, i32 0, i32 0
  %0 = load i32, ptr %major.addr, align 4
  store i32 %0, ptr %m_major, align 4
  %m_minor = getelementptr inbounds %"class.OpenColorIO_v2_4dev::CTFVersion", ptr %this1, i32 0, i32 1
  %1 = load i32, ptr %minor.addr, align 4
  store i32 %1, ptr %m_minor, align 4
  %m_revision = getelementptr inbounds %"class.OpenColorIO_v2_4dev::CTFVersion", ptr %this1, i32 0, i32 2
  store i32 0, ptr %m_revision, align 4
  ret void
}

; Function Attrs: mustprogress nounwind uwtable
define linkonce_odr hidden void @_ZN19OpenColorIO_v2_4dev10CTFVersionD2Ev(ptr noundef nonnull align 4 dereferenceable(12) %this) unnamed_addr #4 comdat align 2 {
entry:
  %this.addr = alloca ptr, align 8
  store ptr %this, ptr %this.addr, align 8
  ret void
}

; Function Attrs: uwtable
define internal void @__cxx_global_var_init.2() #0 section ".text.startup" {
entry:
  call void @_ZN19OpenColorIO_v2_4dev10CTFVersionC2Ejj(ptr noundef nonnull align 4 dereferenceable(12) @_ZN19OpenColorIO_v2_4devL28CTF_PROCESS_LIST_VERSION_1_3E, i32 noundef 1, i32 noundef 3)
  %0 = call i32 @__cxa_atexit(ptr @_ZN19OpenColorIO_v2_4dev10CTFVersionD2Ev, ptr @_ZN19OpenColorIO_v2_4devL28CTF_PROCESS_LIST_VERSION_1_3E, ptr @__dso_handle) #3
  ret void
}

; Function Attrs: uwtable
define internal void @__cxx_global_var_init.3() #0 section ".text.startup" {
entry:
  call void @_ZN19OpenColorIO_v2_4dev10CTFVersionC2Ejj(ptr noundef nonnull align 4 dereferenceable(12) @_ZN19OpenColorIO_v2_4devL28CTF_PROCESS_LIST_VERSION_1_4E, i32 noundef 1, i32 noundef 4)
  %0 = call i32 @__cxa_atexit(ptr @_ZN19OpenColorIO_v2_4dev10CTFVersionD2Ev, ptr @_ZN19OpenColorIO_v2_4devL28CTF_PROCESS_LIST_VERSION_1_4E, ptr @__dso_handle) #3
  ret void
}

; Function Attrs: uwtable
define internal void @__cxx_global_var_init.4() #0 section ".text.startup" {
entry:
  call void @_ZN19OpenColorIO_v2_4dev10CTFVersionC2Ejj(ptr noundef nonnull align 4 dereferenceable(12) @_ZN19OpenColorIO_v2_4devL28CTF_PROCESS_LIST_VERSION_1_5E, i32 noundef 1, i32 noundef 5)
  %0 = call i32 @__cxa_atexit(ptr @_ZN19OpenColorIO_v2_4dev10CTFVersionD2Ev, ptr @_ZN19OpenColorIO_v2_4devL28CTF_PROCESS_LIST_VERSION_1_5E, ptr @__dso_handle) #3
  ret void
}

; Function Attrs: uwtable
define internal void @__cxx_global_var_init.5() #0 section ".text.startup" {
entry:
  call void @_ZN19OpenColorIO_v2_4dev10CTFVersionC2Ejj(ptr noundef nonnull align 4 dereferenceable(12) @_ZN19OpenColorIO_v2_4devL28CTF_PROCESS_LIST_VERSION_1_6E, i32 noundef 1, i32 noundef 6)
  %0 = call i32 @__cxa_atexit(ptr @_ZN19OpenColorIO_v2_4dev10CTFVersionD2Ev, ptr @_ZN19OpenColorIO_v2_4devL28CTF_PROCESS_LIST_VERSION_1_6E, ptr @__dso_handle) #3
  ret void
}

; Function Attrs: uwtable
define internal void @__cxx_global_var_init.6() #0 section ".text.startup" {
entry:
  call void @_ZN19OpenColorIO_v2_4dev10CTFVersionC2Ejj(ptr noundef nonnull align 4 dereferenceable(12) @_ZN19OpenColorIO_v2_4devL28CTF_PROCESS_LIST_VERSION_1_7E, i32 noundef 1, i32 noundef 7)
  %0 = call i32 @__cxa_atexit(ptr @_ZN19OpenColorIO_v2_4dev10CTFVersionD2Ev, ptr @_ZN19OpenColorIO_v2_4devL28CTF_PROCESS_LIST_VERSION_1_7E, ptr @__dso_handle) #3
  ret void
}

; Function Attrs: uwtable
define internal void @__cxx_global_var_init.7() #0 section ".text.startup" {
entry:
  call void @_ZN19OpenColorIO_v2_4dev10CTFVersionC2Ejj(ptr noundef nonnull align 4 dereferenceable(12) @_ZN19OpenColorIO_v2_4devL28CTF_PROCESS_LIST_VERSION_1_8E, i32 noundef 1, i32 noundef 8)
  %0 = call i32 @__cxa_atexit(ptr @_ZN19OpenColorIO_v2_4dev10CTFVersionD2Ev, ptr @_ZN19OpenColorIO_v2_4devL28CTF_PROCESS_LIST_VERSION_1_8E, ptr @__dso_handle) #3
  ret void
}

; Function Attrs: uwtable
define internal void @__cxx_global_var_init.8() #0 section ".text.startup" {
entry:
  call void @_ZN19OpenColorIO_v2_4dev10CTFVersionC2Ejj(ptr noundef nonnull align 4 dereferenceable(12) @_ZN19OpenColorIO_v2_4devL28CTF_PROCESS_LIST_VERSION_2_0E, i32 noundef 2, i32 noundef 0)
  %0 = call i32 @__cxa_atexit(ptr @_ZN19OpenColorIO_v2_4dev10CTFVersionD2Ev, ptr @_ZN19OpenColorIO_v2_4devL28CTF_PROCESS_LIST_VERSION_2_0E, ptr @__dso_handle) #3
  ret void
}

; Function Attrs: uwtable
define internal void @__cxx_global_var_init.9() #0 section ".text.startup" {
entry:
  call void @_ZN19OpenColorIO_v2_4dev10CTFVersionC2Ejj(ptr noundef nonnull align 4 dereferenceable(12) @_ZN19OpenColorIO_v2_4devL28CTF_PROCESS_LIST_VERSION_2_1E, i32 noundef 2, i32 noundef 1)
  %0 = call i32 @__cxa_atexit(ptr @_ZN19OpenColorIO_v2_4dev10CTFVersionD2Ev, ptr @_ZN19OpenColorIO_v2_4devL28CTF_PROCESS_LIST_VERSION_2_1E, ptr @__dso_handle) #3
  ret void
}

; Function Attrs: uwtable
define internal void @__cxx_global_var_init.10() #0 section ".text.startup" {
entry:
  call void @_ZN19OpenColorIO_v2_4dev10CTFVersionC2ERKS0_(ptr noundef nonnull align 4 dereferenceable(12) @_ZN19OpenColorIO_v2_4devL24CTF_PROCESS_LIST_VERSIONE, ptr noundef nonnull align 4 dereferenceable(12) @_ZN19OpenColorIO_v2_4devL28CTF_PROCESS_LIST_VERSION_2_1E)
  %0 = call i32 @__cxa_atexit(ptr @_ZN19OpenColorIO_v2_4dev10CTFVersionD2Ev, ptr @_ZN19OpenColorIO_v2_4devL24CTF_PROCESS_LIST_VERSIONE, ptr @__dso_handle) #3
  ret void
}

; Function Attrs: mustprogress nounwind uwtable
define linkonce_odr hidden void @_ZN19OpenColorIO_v2_4dev10CTFVersionC2ERKS0_(ptr noundef nonnull align 4 dereferenceable(12) %this, ptr noundef nonnull align 4 dereferenceable(12) %otherVersion) unnamed_addr #4 comdat align 2 {
entry:
  %this.addr = alloca ptr, align 8
  %otherVersion.addr = alloca ptr, align 8
  store ptr %this, ptr %this.addr, align 8
  store ptr %otherVersion, ptr %otherVersion.addr, align 8
  %this1 = load ptr, ptr %this.addr, align 8
  %m_major = getelementptr inbounds %"class.OpenColorIO_v2_4dev::CTFVersion", ptr %this1, i32 0, i32 0
  %0 = load ptr, ptr %otherVersion.addr, align 8
  %m_major2 = getelementptr inbounds %"class.OpenColorIO_v2_4dev::CTFVersion", ptr %0, i32 0, i32 0
  %1 = load i32, ptr %m_major2, align 4
  store i32 %1, ptr %m_major, align 4
  %m_minor = getelementptr inbounds %"class.OpenColorIO_v2_4dev::CTFVersion", ptr %this1, i32 0, i32 1
  %2 = load ptr, ptr %otherVersion.addr, align 8
  %m_minor3 = getelementptr inbounds %"class.OpenColorIO_v2_4dev::CTFVersion", ptr %2, i32 0, i32 1
  %3 = load i32, ptr %m_minor3, align 4
  store i32 %3, ptr %m_minor, align 4
  %m_revision = getelementptr inbounds %"class.OpenColorIO_v2_4dev::CTFVersion", ptr %this1, i32 0, i32 2
  %4 = load ptr, ptr %otherVersion.addr, align 8
  %m_revision4 = getelementptr inbounds %"class.OpenColorIO_v2_4dev::CTFVersion", ptr %4, i32 0, i32 2
  %5 = load i32, ptr %m_revision4, align 4
  store i32 %5, ptr %m_revision, align 4
  ret void
}

; Function Attrs: uwtable
define internal void @__cxx_global_var_init.11() #0 section ".text.startup" {
entry:
  call void @_ZN19OpenColorIO_v2_4dev11NumberUtils6LocaleC2Ev(ptr noundef nonnull align 8 dereferenceable(8) @_ZN19OpenColorIO_v2_4dev11NumberUtilsL3locE)
  %0 = call i32 @__cxa_atexit(ptr @_ZN19OpenColorIO_v2_4dev11NumberUtils6LocaleD2Ev, ptr @_ZN19OpenColorIO_v2_4dev11NumberUtilsL3locE, ptr @__dso_handle) #3
  ret void
}

; Function Attrs: mustprogress nounwind uwtable
define linkonce_odr hidden void @_ZN19OpenColorIO_v2_4dev11NumberUtils6LocaleC2Ev(ptr noundef nonnull align 8 dereferenceable(8) %this) unnamed_addr #4 comdat align 2 {
entry:
  %this.addr = alloca ptr, align 8
  store ptr %this, ptr %this.addr, align 8
  %this1 = load ptr, ptr %this.addr, align 8
  %local = getelementptr inbounds %"struct.OpenColorIO_v2_4dev::NumberUtils::Locale", ptr %this1, i32 0, i32 0
  %call = call ptr @newlocale(i32 noundef 8127, ptr noundef @.str, ptr noundef null) #3
  store ptr %call, ptr %local, align 8
  ret void
}

; Function Attrs: mustprogress nounwind uwtable
define linkonce_odr hidden void @_ZN19OpenColorIO_v2_4dev11NumberUtils6LocaleD2Ev(ptr noundef nonnull align 8 dereferenceable(8) %this) unnamed_addr #4 comdat align 2 {
entry:
  %this.addr = alloca ptr, align 8
  store ptr %this, ptr %this.addr, align 8
  %this1 = load ptr, ptr %this.addr, align 8
  %local = getelementptr inbounds %"struct.OpenColorIO_v2_4dev::NumberUtils::Locale", ptr %this1, i32 0, i32 0
  %0 = load ptr, ptr %local, align 8
  call void @freelocale(ptr noundef %0) #3
  ret void
}

; Function Attrs: mustprogress uwtable
define hidden noundef ptr @_ZN19OpenColorIO_v2_4dev19CreateFileFormatCLFEv() #5 {
entry:
  %call = call noalias noundef nonnull ptr @_Znwm(i64 noundef 8) #15
  call void @llvm.memset.p0.i64(ptr align 8 %call, i8 0, i64 8, i1 false)
  call void @_ZN19OpenColorIO_v2_4dev12_GLOBAL__N_115LocalFileFormatC2Ev(ptr noundef nonnull align 8 dereferenceable(8) %call) #3
  ret ptr %call
}

; Function Attrs: nobuiltin allocsize(0)
declare noundef nonnull ptr @_Znwm(i64 noundef) #6

; Function Attrs: nocallback nofree nounwind willreturn memory(argmem: write)
declare void @llvm.memset.p0.i64(ptr nocapture writeonly, i8, i64, i1 immarg) #7

; Function Attrs: mustprogress nounwind uwtable
define internal void @_ZN19OpenColorIO_v2_4dev12_GLOBAL__N_115LocalFileFormatC2Ev(ptr noundef nonnull align 8 dereferenceable(8) %this) unnamed_addr #4 align 2 {
entry:
  %this.addr = alloca ptr, align 8
  store ptr %this, ptr %this.addr, align 8
  %this1 = load ptr, ptr %this.addr, align 8
  call void @_ZN19OpenColorIO_v2_4dev10FileFormatC2Ev(ptr noundef nonnull align 8 dereferenceable(8) %this1) #3
  store ptr getelementptr inbounds ({ [10 x ptr] }, ptr @_ZTVN19OpenColorIO_v2_4dev12_GLOBAL__N_115LocalFileFormatE, i32 0, inrange i32 0, i32 2), ptr %this1, align 8
  ret void
}

; Function Attrs: nounwind
declare ptr @newlocale(i32 noundef, ptr noundef, ptr noundef) #2

; Function Attrs: nounwind
declare void @freelocale(ptr noundef) #2

; Function Attrs: mustprogress nounwind uwtable
define linkonce_odr hidden void @_ZN19OpenColorIO_v2_4dev10FileFormatC2Ev(ptr noundef nonnull align 8 dereferenceable(8) %this) unnamed_addr #4 comdat align 2 {
entry:
  %this.addr = alloca ptr, align 8
  store ptr %this, ptr %this.addr, align 8
  %this1 = load ptr, ptr %this.addr, align 8
  store ptr getelementptr inbounds ({ [10 x ptr] }, ptr @_ZTVN19OpenColorIO_v2_4dev10FileFormatE, i32 0, inrange i32 0, i32 2), ptr %this1, align 8
  ret void
}

; Function Attrs: mustprogress nounwind uwtable
define internal void @_ZN19OpenColorIO_v2_4dev12_GLOBAL__N_115LocalFileFormatD2Ev(ptr noundef nonnull align 8 dereferenceable(8) %this) unnamed_addr #4 align 2 {
entry:
  %this.addr = alloca ptr, align 8
  store ptr %this, ptr %this.addr, align 8
  %this1 = load ptr, ptr %this.addr, align 8
  call void @_ZN19OpenColorIO_v2_4dev10FileFormatD2Ev(ptr noundef nonnull align 8 dereferenceable(8) %this1) #3
  ret void
}

; Function Attrs: mustprogress nounwind uwtable
define internal void @_ZN19OpenColorIO_v2_4dev12_GLOBAL__N_115LocalFileFormatD0Ev(ptr noundef nonnull align 8 dereferenceable(8) %this) unnamed_addr #4 align 2 {
entry:
  %this.addr = alloca ptr, align 8
  store ptr %this, ptr %this.addr, align 8
  %this1 = load ptr, ptr %this.addr, align 8
  call void @_ZN19OpenColorIO_v2_4dev12_GLOBAL__N_115LocalFileFormatD2Ev(ptr noundef nonnull align 8 dereferenceable(8) %this1) #3
  call void @_ZdlPv(ptr noundef %this1) #16
  ret void
}

; Function Attrs: mustprogress uwtable
define internal void @_ZNK19OpenColorIO_v2_4dev12_GLOBAL__N_115LocalFileFormat13getFormatInfoERSt6vectorINS_10FormatInfoESaIS3_EE(ptr noundef nonnull align 8 dereferenceable(8) %this, ptr noundef nonnull align 8 dereferenceable(24) %formatInfoVec) unnamed_addr #5 align 2 personality ptr @__gxx_personality_v0 {
entry:
  %this.addr = alloca ptr, align 8
  %formatInfoVec.addr = alloca ptr, align 8
  %info = alloca %"struct.OpenColorIO_v2_4dev::FormatInfo", align 8
  %exn.slot = alloca ptr, align 8
  %ehselector.slot = alloca i32, align 4
  %info2 = alloca %"struct.OpenColorIO_v2_4dev::FormatInfo", align 8
  store ptr %this, ptr %this.addr, align 8
  store ptr %formatInfoVec, ptr %formatInfoVec.addr, align 8
  call void @_ZN19OpenColorIO_v2_4dev10FormatInfoC2Ev(ptr noundef nonnull align 8 dereferenceable(72) %info)
  %name = getelementptr inbounds %"struct.OpenColorIO_v2_4dev::FormatInfo", ptr %info, i32 0, i32 0
  %call = invoke noundef nonnull align 8 dereferenceable(32) ptr @_ZNSt7__cxx1112basic_stringIcSt11char_traitsIcESaIcEEaSEPKc(ptr noundef nonnull align 8 dereferenceable(32) %name, ptr noundef @_ZN19OpenColorIO_v2_4devL14FILEFORMAT_CLFE)
          to label %invoke.cont unwind label %lpad

invoke.cont:                                      ; preds = %entry
  %extension = getelementptr inbounds %"struct.OpenColorIO_v2_4dev::FormatInfo", ptr %info, i32 0, i32 1
  %call3 = invoke noundef nonnull align 8 dereferenceable(32) ptr @_ZNSt7__cxx1112basic_stringIcSt11char_traitsIcESaIcEEaSEPKc(ptr noundef nonnull align 8 dereferenceable(32) %extension, ptr noundef @.str.12)
          to label %invoke.cont2 unwind label %lpad

invoke.cont2:                                     ; preds = %invoke.cont
  %capabilities = getelementptr inbounds %"struct.OpenColorIO_v2_4dev::FormatInfo", ptr %info, i32 0, i32 2
  store i32 7, ptr %capabilities, align 8
  %bake_capabilities = getelementptr inbounds %"struct.OpenColorIO_v2_4dev::FormatInfo", ptr %info, i32 0, i32 3
  store i32 7, ptr %bake_capabilities, align 4
  %0 = load ptr, ptr %formatInfoVec.addr, align 8
  invoke void @_ZNSt6vectorIN19OpenColorIO_v2_4dev10FormatInfoESaIS1_EE9push_backERKS1_(ptr noundef nonnull align 8 dereferenceable(24) %0, ptr noundef nonnull align 8 dereferenceable(72) %info)
          to label %invoke.cont4 unwind label %lpad

invoke.cont4:                                     ; preds = %invoke.cont2
  invoke void @_ZN19OpenColorIO_v2_4dev10FormatInfoC2Ev(ptr noundef nonnull align 8 dereferenceable(72) %info2)
          to label %invoke.cont5 unwind label %lpad

invoke.cont5:                                     ; preds = %invoke.cont4
  %name6 = getelementptr inbounds %"struct.OpenColorIO_v2_4dev::FormatInfo", ptr %info2, i32 0, i32 0
  %call9 = invoke noundef nonnull align 8 dereferenceable(32) ptr @_ZNSt7__cxx1112basic_stringIcSt11char_traitsIcESaIcEEaSEPKc(ptr noundef nonnull align 8 dereferenceable(32) %name6, ptr noundef @_ZN19OpenColorIO_v2_4devL14FILEFORMAT_CTFE)
          to label %invoke.cont8 unwind label %lpad7

invoke.cont8:                                     ; preds = %invoke.cont5
  %extension10 = getelementptr inbounds %"struct.OpenColorIO_v2_4dev::FormatInfo", ptr %info2, i32 0, i32 1
  %call12 = invoke noundef nonnull align 8 dereferenceable(32) ptr @_ZNSt7__cxx1112basic_stringIcSt11char_traitsIcESaIcEEaSEPKc(ptr noundef nonnull align 8 dereferenceable(32) %extension10, ptr noundef @.str.13)
          to label %invoke.cont11 unwind label %lpad7

invoke.cont11:                                    ; preds = %invoke.cont8
  %capabilities13 = getelementptr inbounds %"struct.OpenColorIO_v2_4dev::FormatInfo", ptr %info2, i32 0, i32 2
  store i32 7, ptr %capabilities13, align 8
  %bake_capabilities14 = getelementptr inbounds %"struct.OpenColorIO_v2_4dev::FormatInfo", ptr %info, i32 0, i32 3
  store i32 7, ptr %bake_capabilities14, align 4
  %1 = load ptr, ptr %formatInfoVec.addr, align 8
  invoke void @_ZNSt6vectorIN19OpenColorIO_v2_4dev10FormatInfoESaIS1_EE9push_backERKS1_(ptr noundef nonnull align 8 dereferenceable(24) %1, ptr noundef nonnull align 8 dereferenceable(72) %info2)
          to label %invoke.cont15 unwind label %lpad7

invoke.cont15:                                    ; preds = %invoke.cont11
  call void @_ZN19OpenColorIO_v2_4dev10FormatInfoD2Ev(ptr noundef nonnull align 8 dereferenceable(72) %info2) #3
  call void @_ZN19OpenColorIO_v2_4dev10FormatInfoD2Ev(ptr noundef nonnull align 8 dereferenceable(72) %info) #3
  ret void

lpad:                                             ; preds = %invoke.cont4, %invoke.cont2, %invoke.cont, %entry
  %2 = landingpad { ptr, i32 }
          cleanup
  %3 = extractvalue { ptr, i32 } %2, 0
  store ptr %3, ptr %exn.slot, align 8
  %4 = extractvalue { ptr, i32 } %2, 1
  store i32 %4, ptr %ehselector.slot, align 4
  br label %ehcleanup

lpad7:                                            ; preds = %invoke.cont11, %invoke.cont8, %invoke.cont5
  %5 = landingpad { ptr, i32 }
          cleanup
  %6 = extractvalue { ptr, i32 } %5, 0
  store ptr %6, ptr %exn.slot, align 8
  %7 = extractvalue { ptr, i32 } %5, 1
  store i32 %7, ptr %ehselector.slot, align 4
  call void @_ZN19OpenColorIO_v2_4dev10FormatInfoD2Ev(ptr noundef nonnull align 8 dereferenceable(72) %info2) #3
  br label %ehcleanup

ehcleanup:                                        ; preds = %lpad7, %lpad
  call void @_ZN19OpenColorIO_v2_4dev10FormatInfoD2Ev(ptr noundef nonnull align 8 dereferenceable(72) %info) #3
  br label %eh.resume

eh.resume:                                        ; preds = %ehcleanup
  %exn = load ptr, ptr %exn.slot, align 8
  %sel = load i32, ptr %ehselector.slot, align 4
  %lpad.val = insertvalue { ptr, i32 } poison, ptr %exn, 0
  %lpad.val16 = insertvalue { ptr, i32 } %lpad.val, i32 %sel, 1
  resume { ptr, i32 } %lpad.val16
}

; Function Attrs: mustprogress uwtable
define internal void @_ZNK19OpenColorIO_v2_4dev12_GLOBAL__N_115LocalFileFormat4readERSiRKNSt7__cxx1112basic_stringIcSt11char_traitsIcESaIcEEENS_13InterpolationE(ptr noalias sret(%"class.std::shared_ptr") align 8 %agg.result, ptr noundef nonnull align 8 dereferenceable(8) %this, ptr noundef nonnull align 8 dereferenceable(16) %istream, ptr noundef nonnull align 8 dereferenceable(32) %filePath, i32 noundef %0) unnamed_addr #5 align 2 personality ptr @__gxx_personality_v0 {
entry:
  %result.ptr = alloca ptr, align 8
  %this.addr = alloca ptr, align 8
  %istream.addr = alloca ptr, align 8
  %filePath.addr = alloca ptr, align 8
  %.addr = alloca i32, align 4
  %oss = alloca %"class.std::__cxx11::basic_ostringstream", align 8
  %exn.slot = alloca ptr, align 8
  %ehselector.slot = alloca i32, align 4
  %ref.tmp = alloca %"class.std::__cxx11::basic_string", align 8
  %cleanup.isactive = alloca i1, align 1
  %parser = alloca %"class.OpenColorIO_v2_4dev::(anonymous namespace)::XMLParserHelper", align 8
  %cachedFile = alloca %"class.std::shared_ptr.12", align 8
  %ref.tmp21 = alloca %"class.std::shared_ptr.9", align 8
  store ptr %agg.result, ptr %result.ptr, align 8
  store ptr %this, ptr %this.addr, align 8
  store ptr %istream, ptr %istream.addr, align 8
  store ptr %filePath, ptr %filePath.addr, align 8
  store i32 %0, ptr %.addr, align 4
  %1 = load ptr, ptr %istream.addr, align 8
  %call = call noundef zeroext i1 @_ZN19OpenColorIO_v2_4dev12_GLOBAL__N_113isLoadableCTFERSi(ptr noundef nonnull align 8 dereferenceable(16) %1)
  br i1 %call, label %if.end, label %if.then

if.then:                                          ; preds = %entry
  call void @_ZNSt7__cxx1119basic_ostringstreamIcSt11char_traitsIcESaIcEEC1Ev(ptr noundef nonnull align 8 dereferenceable(112) %oss)
  %call2 = invoke noundef nonnull align 8 dereferenceable(8) ptr @_ZStlsISt11char_traitsIcEERSt13basic_ostreamIcT_ES5_PKc(ptr noundef nonnull align 8 dereferenceable(8) %oss, ptr noundef @.str.15)
          to label %invoke.cont unwind label %lpad

invoke.cont:                                      ; preds = %if.then
  %2 = load ptr, ptr %filePath.addr, align 8
  %call4 = invoke noundef nonnull align 8 dereferenceable(8) ptr @_ZStlsIcSt11char_traitsIcESaIcEERSt13basic_ostreamIT_T0_ES7_RKNSt7__cxx1112basic_stringIS4_S5_T1_EE(ptr noundef nonnull align 8 dereferenceable(8) %call2, ptr noundef nonnull align 8 dereferenceable(32) %2)
          to label %invoke.cont3 unwind label %lpad

invoke.cont3:                                     ; preds = %invoke.cont
  %call6 = invoke noundef nonnull align 8 dereferenceable(8) ptr @_ZStlsISt11char_traitsIcEERSt13basic_ostreamIcT_ES5_PKc(ptr noundef nonnull align 8 dereferenceable(8) %call4, ptr noundef @.str.16)
          to label %invoke.cont5 unwind label %lpad

invoke.cont5:                                     ; preds = %invoke.cont3
  store i1 true, ptr %cleanup.isactive, align 1
  %exception = call ptr @__cxa_allocate_exception(i64 16) #3
  invoke void @_ZNKSt7__cxx1119basic_ostringstreamIcSt11char_traitsIcESaIcEE3strEv(ptr sret(%"class.std::__cxx11::basic_string") align 8 %ref.tmp, ptr noundef nonnull align 8 dereferenceable(112) %oss)
          to label %invoke.cont8 unwind label %lpad7

invoke.cont8:                                     ; preds = %invoke.cont5
  %call9 = call noundef ptr @_ZNKSt7__cxx1112basic_stringIcSt11char_traitsIcESaIcEE5c_strEv(ptr noundef nonnull align 8 dereferenceable(32) %ref.tmp) #3
  invoke void @_ZN19OpenColorIO_v2_4dev9ExceptionC1EPKc(ptr noundef nonnull align 8 dereferenceable(16) %exception, ptr noundef %call9)
          to label %invoke.cont11 unwind label %lpad10

invoke.cont11:                                    ; preds = %invoke.cont8
  store i1 false, ptr %cleanup.isactive, align 1
  invoke void @__cxa_throw(ptr %exception, ptr @_ZTIN19OpenColorIO_v2_4dev9ExceptionE, ptr @_ZN19OpenColorIO_v2_4dev9ExceptionD1Ev) #17
          to label %unreachable unwind label %lpad10

lpad:                                             ; preds = %invoke.cont3, %invoke.cont, %if.then
  %3 = landingpad { ptr, i32 }
          cleanup
  %4 = extractvalue { ptr, i32 } %3, 0
  store ptr %4, ptr %exn.slot, align 8
  %5 = extractvalue { ptr, i32 } %3, 1
  store i32 %5, ptr %ehselector.slot, align 4
  br label %ehcleanup12

lpad7:                                            ; preds = %invoke.cont5
  %6 = landingpad { ptr, i32 }
          cleanup
  %7 = extractvalue { ptr, i32 } %6, 0
  store ptr %7, ptr %exn.slot, align 8
  %8 = extractvalue { ptr, i32 } %6, 1
  store i32 %8, ptr %ehselector.slot, align 4
  br label %ehcleanup

lpad10:                                           ; preds = %invoke.cont11, %invoke.cont8
  %9 = landingpad { ptr, i32 }
          cleanup
  %10 = extractvalue { ptr, i32 } %9, 0
  store ptr %10, ptr %exn.slot, align 8
  %11 = extractvalue { ptr, i32 } %9, 1
  store i32 %11, ptr %ehselector.slot, align 4
  call void @_ZNSt7__cxx1112basic_stringIcSt11char_traitsIcESaIcEED1Ev(ptr noundef nonnull align 8 dereferenceable(32) %ref.tmp) #3
  br label %ehcleanup

ehcleanup:                                        ; preds = %lpad10, %lpad7
  %cleanup.is_active = load i1, ptr %cleanup.isactive, align 1
  br i1 %cleanup.is_active, label %cleanup.action, label %cleanup.done

cleanup.action:                                   ; preds = %ehcleanup
  call void @__cxa_free_exception(ptr %exception) #3
  br label %cleanup.done

cleanup.done:                                     ; preds = %cleanup.action, %ehcleanup
  br label %ehcleanup12

ehcleanup12:                                      ; preds = %cleanup.done, %lpad
  call void @_ZNSt7__cxx1119basic_ostringstreamIcSt11char_traitsIcESaIcEED1Ev(ptr noundef nonnull align 8 dereferenceable(112) %oss) #3
  br label %eh.resume

if.end:                                           ; preds = %entry
  %12 = load ptr, ptr %filePath.addr, align 8
  call void @_ZN19OpenColorIO_v2_4dev12_GLOBAL__N_115XMLParserHelperC2ERKNSt7__cxx1112basic_stringIcSt11char_traitsIcESaIcEEE(ptr noundef nonnull align 8 dereferenceable(104) %parser, ptr noundef nonnull align 8 dereferenceable(32) %12)
  %13 = load ptr, ptr %istream.addr, align 8
  invoke void @_ZN19OpenColorIO_v2_4dev12_GLOBAL__N_115XMLParserHelper5ParseERSi(ptr noundef nonnull align 8 dereferenceable(104) %parser, ptr noundef nonnull align 8 dereferenceable(16) %13)
          to label %invoke.cont14 unwind label %lpad13

invoke.cont14:                                    ; preds = %if.end
  %call16 = invoke noalias noundef nonnull ptr @_Znwm(i64 noundef 56) #15
          to label %invoke.cont15 unwind label %lpad13

invoke.cont15:                                    ; preds = %invoke.cont14
  invoke void @_ZN19OpenColorIO_v2_4dev12_GLOBAL__N_115LocalCachedFileC2Ev(ptr noundef nonnull align 8 dereferenceable(56) %call16)
          to label %invoke.cont18 unwind label %lpad17

invoke.cont18:                                    ; preds = %invoke.cont15
  invoke void @_ZNSt10shared_ptrIN19OpenColorIO_v2_4dev12_GLOBAL__N_115LocalCachedFileEEC2IS2_vEEPT_(ptr noundef nonnull align 8 dereferenceable(16) %cachedFile, ptr noundef %call16)
          to label %invoke.cont20 unwind label %lpad13

invoke.cont20:                                    ; preds = %invoke.cont18
  invoke void @_ZN19OpenColorIO_v2_4dev12_GLOBAL__N_115XMLParserHelper12getTransformEv(ptr sret(%"class.std::shared_ptr.9") align 8 %ref.tmp21, ptr noundef nonnull align 8 dereferenceable(104) %parser)
          to label %invoke.cont23 unwind label %lpad22

invoke.cont23:                                    ; preds = %invoke.cont20
  %call24 = call noundef ptr @_ZNKSt19__shared_ptr_accessIN19OpenColorIO_v2_4dev12_GLOBAL__N_115LocalCachedFileELN9__gnu_cxx12_Lock_policyE2ELb0ELb0EEptEv(ptr noundef nonnull align 1 dereferenceable(1) %cachedFile) #3
  %m_transform = getelementptr inbounds %"class.OpenColorIO_v2_4dev::(anonymous namespace)::LocalCachedFile", ptr %call24, i32 0, i32 1
  %call25 = call noundef nonnull align 8 dereferenceable(16) ptr @_ZNSt10shared_ptrIN19OpenColorIO_v2_4dev18CTFReaderTransformEEaSEOS2_(ptr noundef nonnull align 8 dereferenceable(16) %m_transform, ptr noundef nonnull align 8 dereferenceable(16) %ref.tmp21) #3
  call void @_ZNSt10shared_ptrIN19OpenColorIO_v2_4dev18CTFReaderTransformEED2Ev(ptr noundef nonnull align 8 dereferenceable(16) %ref.tmp21) #3
  %14 = load ptr, ptr %filePath.addr, align 8
  %call26 = call noundef ptr @_ZNKSt19__shared_ptr_accessIN19OpenColorIO_v2_4dev12_GLOBAL__N_115LocalCachedFileELN9__gnu_cxx12_Lock_policyE2ELb0ELb0EEptEv(ptr noundef nonnull align 1 dereferenceable(1) %cachedFile) #3
  %m_filePath = getelementptr inbounds %"class.OpenColorIO_v2_4dev::(anonymous namespace)::LocalCachedFile", ptr %call26, i32 0, i32 2
  %call28 = invoke noundef nonnull align 8 dereferenceable(32) ptr @_ZNSt7__cxx1112basic_stringIcSt11char_traitsIcESaIcEEaSERKS4_(ptr noundef nonnull align 8 dereferenceable(32) %m_filePath, ptr noundef nonnull align 8 dereferenceable(32) %14)
          to label %invoke.cont27 unwind label %lpad22

invoke.cont27:                                    ; preds = %invoke.cont23
  call void @_ZNSt10shared_ptrIN19OpenColorIO_v2_4dev10CachedFileEEC2INS0_12_GLOBAL__N_115LocalCachedFileEvEEOS_IT_E(ptr noundef nonnull align 8 dereferenceable(16) %agg.result, ptr noundef nonnull align 8 dereferenceable(16) %cachedFile) #3
  call void @_ZNSt10shared_ptrIN19OpenColorIO_v2_4dev12_GLOBAL__N_115LocalCachedFileEED2Ev(ptr noundef nonnull align 8 dereferenceable(16) %cachedFile) #3
  call void @_ZN19OpenColorIO_v2_4dev12_GLOBAL__N_115XMLParserHelperD2Ev(ptr noundef nonnull align 8 dereferenceable(104) %parser) #3
  ret void

lpad13:                                           ; preds = %invoke.cont18, %invoke.cont14, %if.end
  %15 = landingpad { ptr, i32 }
          cleanup
  %16 = extractvalue { ptr, i32 } %15, 0
  store ptr %16, ptr %exn.slot, align 8
  %17 = extractvalue { ptr, i32 } %15, 1
  store i32 %17, ptr %ehselector.slot, align 4
  br label %ehcleanup30

lpad17:                                           ; preds = %invoke.cont15
  %18 = landingpad { ptr, i32 }
          cleanup
  %19 = extractvalue { ptr, i32 } %18, 0
  store ptr %19, ptr %exn.slot, align 8
  %20 = extractvalue { ptr, i32 } %18, 1
  store i32 %20, ptr %ehselector.slot, align 4
  call void @_ZdlPv(ptr noundef %call16) #16
  br label %ehcleanup30

lpad22:                                           ; preds = %invoke.cont23, %invoke.cont20
  %21 = landingpad { ptr, i32 }
          cleanup
  %22 = extractvalue { ptr, i32 } %21, 0
  store ptr %22, ptr %exn.slot, align 8
  %23 = extractvalue { ptr, i32 } %21, 1
  store i32 %23, ptr %ehselector.slot, align 4
  call void @_ZNSt10shared_ptrIN19OpenColorIO_v2_4dev12_GLOBAL__N_115LocalCachedFileEED2Ev(ptr noundef nonnull align 8 dereferenceable(16) %cachedFile) #3
  br label %ehcleanup30

ehcleanup30:                                      ; preds = %lpad22, %lpad17, %lpad13
  call void @_ZN19OpenColorIO_v2_4dev12_GLOBAL__N_115XMLParserHelperD2Ev(ptr noundef nonnull align 8 dereferenceable(104) %parser) #3
  br label %eh.resume

eh.resume:                                        ; preds = %ehcleanup30, %ehcleanup12
  %exn = load ptr, ptr %exn.slot, align 8
  %sel = load i32, ptr %ehselector.slot, align 4
  %lpad.val = insertvalue { ptr, i32 } poison, ptr %exn, 0
  %lpad.val31 = insertvalue { ptr, i32 } %lpad.val, i32 %sel, 1
  resume { ptr, i32 } %lpad.val31

unreachable:                                      ; preds = %invoke.cont11
  unreachable
}

; Function Attrs: mustprogress uwtable
define internal void @_ZNK19OpenColorIO_v2_4dev12_GLOBAL__N_115LocalFileFormat4bakeERKNS_5BakerERKNSt7__cxx1112basic_stringIcSt11char_traitsIcESaIcEEERSo(ptr noundef nonnull align 8 dereferenceable(8) %this, ptr noundef nonnull align 8 dereferenceable(8) %baker, ptr noundef nonnull align 8 dereferenceable(32) %formatName, ptr noundef nonnull align 8 dereferenceable(8) %ostream) unnamed_addr #5 align 2 personality ptr @__gxx_personality_v0 {
entry:
  %this.addr = alloca ptr, align 8
  %baker.addr = alloca ptr, align 8
  %formatName.addr = alloca ptr, align 8
  %ostream.addr = alloca ptr, align 8
  %os = alloca %"class.std::__cxx11::basic_ostringstream", align 8
  %exn.slot = alloca ptr, align 8
  %ehselector.slot = alloca i32, align 4
  %ref.tmp = alloca %"class.std::__cxx11::basic_string", align 8
  %cleanup.isactive = alloca i1, align 1
  %config = alloca %"class.std::shared_ptr.307", align 8
  %onedSize = alloca i32, align 4
  %cubeSize = alloca i32, align 4
  %ref.tmp24 = alloca i32, align 4
  %shaperSpace = alloca %"class.std::__cxx11::basic_string", align 8
  %ref.tmp29 = alloca %"class.std::allocator", align 1
  %CTF_1D = alloca i32, align 4
  %CTF_3D = alloca i32, align 4
  %CTF_1D_3D = alloca i32, align 4
  %required_lut = alloca i32, align 4
  %inputToTarget = alloca %"class.std::shared_ptr.310", align 8
  %shaperLut = alloca %"class.std::shared_ptr.313", align 8
  %fromInStart = alloca float, align 4
  %fromInEnd = alloca float, align 4
  %shaperSizeRequest = alloca i32, align 4
  %ref.tmp59 = alloca %"class.std::shared_ptr.313", align 8
  %ref.tmp60 = alloca i32, align 4
  %ref.tmp61 = alloca i32, align 4
  %ref.tmp62 = alloca i8, align 1
  %ref.tmp67 = alloca %"class.std::shared_ptr.313", align 8
  %shaperSize = alloca i64, align 8
  %shaperImg = alloca %"class.OpenColorIO_v2_4dev::PackedImageDesc", align 8
  %inputToShaper = alloca %"class.std::shared_ptr.310", align 8
  %cubeData = alloca %"class.std::vector.281", align 8
  %cubeImg = alloca %"class.OpenColorIO_v2_4dev::PackedImageDesc", align 8
  %cubeProc = alloca %"class.std::shared_ptr.310", align 8
  %ref.tmp116 = alloca %"class.std::shared_ptr.310", align 8
  %onedData = alloca %"class.std::vector.281", align 8
  %onedImg = alloca %"class.OpenColorIO_v2_4dev::PackedImageDesc", align 8
  %ops = alloca %"class.OpenColorIO_v2_4dev::OpRcPtrVec", align 8
  %lut1D = alloca %"class.std::shared_ptr.313", align 8
  %ref.tmp163 = alloca i64, align 8
  %lut3D = alloca %"class.std::shared_ptr.321", align 8
  %ref.tmp193 = alloca i64, align 8
  %group = alloca %"class.std::shared_ptr.303", align 8
  %__range2 = alloca ptr, align 8
  %__begin2 = alloca %"class.__gnu_cxx::__normal_iterator.324", align 8
  %__end2 = alloca %"class.__gnu_cxx::__normal_iterator.324", align 8
  %op = alloca %"class.std::shared_ptr.325", align 8
  %metadata = alloca ptr, align 8
  %ref.tmp228 = alloca %"class.std::shared_ptr.331", align 8
  store ptr %this, ptr %this.addr, align 8
  store ptr %baker, ptr %baker.addr, align 8
  store ptr %formatName, ptr %formatName.addr, align 8
  store ptr %ostream, ptr %ostream.addr, align 8
  %this1 = load ptr, ptr %this.addr, align 8
  %0 = load ptr, ptr %formatName.addr, align 8
  %call = call noundef zeroext i1 @_ZStneIcSt11char_traitsIcESaIcEEbRKNSt7__cxx1112basic_stringIT_T0_T1_EEPKS5_(ptr noundef nonnull align 8 dereferenceable(32) %0, ptr noundef @_ZN19OpenColorIO_v2_4devL14FILEFORMAT_CTFE)
  br i1 %call, label %land.lhs.true, label %if.end

land.lhs.true:                                    ; preds = %entry
  %1 = load ptr, ptr %formatName.addr, align 8
  %call2 = call noundef zeroext i1 @_ZStneIcSt11char_traitsIcESaIcEEbRKNSt7__cxx1112basic_stringIT_T0_T1_EEPKS5_(ptr noundef nonnull align 8 dereferenceable(32) %1, ptr noundef @_ZN19OpenColorIO_v2_4devL14FILEFORMAT_CLFE)
  br i1 %call2, label %if.then, label %if.end

if.then:                                          ; preds = %land.lhs.true
  call void @_ZNSt7__cxx1119basic_ostringstreamIcSt11char_traitsIcESaIcEEC1Ev(ptr noundef nonnull align 8 dereferenceable(112) %os)
  %call3 = invoke noundef nonnull align 8 dereferenceable(8) ptr @_ZStlsISt11char_traitsIcEERSt13basic_ostreamIcT_ES5_PKc(ptr noundef nonnull align 8 dereferenceable(8) %os, ptr noundef @.str.65)
          to label %invoke.cont unwind label %lpad

invoke.cont:                                      ; preds = %if.then
  %2 = load ptr, ptr %formatName.addr, align 8
  %call5 = invoke noundef nonnull align 8 dereferenceable(8) ptr @_ZStlsIcSt11char_traitsIcESaIcEERSt13basic_ostreamIT_T0_ES7_RKNSt7__cxx1112basic_stringIS4_S5_T1_EE(ptr noundef nonnull align 8 dereferenceable(8) %os, ptr noundef nonnull align 8 dereferenceable(32) %2)
          to label %invoke.cont4 unwind label %lpad

invoke.cont4:                                     ; preds = %invoke.cont
  %call7 = invoke noundef nonnull align 8 dereferenceable(8) ptr @_ZStlsISt11char_traitsIcEERSt13basic_ostreamIcT_ES5_PKc(ptr noundef nonnull align 8 dereferenceable(8) %call5, ptr noundef @.str.53)
          to label %invoke.cont6 unwind label %lpad

invoke.cont6:                                     ; preds = %invoke.cont4
  store i1 true, ptr %cleanup.isactive, align 1
  %exception = call ptr @__cxa_allocate_exception(i64 16) #3
  invoke void @_ZNKSt7__cxx1119basic_ostringstreamIcSt11char_traitsIcESaIcEE3strEv(ptr sret(%"class.std::__cxx11::basic_string") align 8 %ref.tmp, ptr noundef nonnull align 8 dereferenceable(112) %os)
          to label %invoke.cont9 unwind label %lpad8

invoke.cont9:                                     ; preds = %invoke.cont6
  %call10 = call noundef ptr @_ZNKSt7__cxx1112basic_stringIcSt11char_traitsIcESaIcEE5c_strEv(ptr noundef nonnull align 8 dereferenceable(32) %ref.tmp) #3
  invoke void @_ZN19OpenColorIO_v2_4dev9ExceptionC1EPKc(ptr noundef nonnull align 8 dereferenceable(16) %exception, ptr noundef %call10)
          to label %invoke.cont12 unwind label %lpad11

invoke.cont12:                                    ; preds = %invoke.cont9
  store i1 false, ptr %cleanup.isactive, align 1
  invoke void @__cxa_throw(ptr %exception, ptr @_ZTIN19OpenColorIO_v2_4dev9ExceptionE, ptr @_ZN19OpenColorIO_v2_4dev9ExceptionD1Ev) #17
          to label %unreachable unwind label %lpad11

lpad:                                             ; preds = %invoke.cont4, %invoke.cont, %if.then
  %3 = landingpad { ptr, i32 }
          cleanup
  %4 = extractvalue { ptr, i32 } %3, 0
  store ptr %4, ptr %exn.slot, align 8
  %5 = extractvalue { ptr, i32 } %3, 1
  store i32 %5, ptr %ehselector.slot, align 4
  br label %ehcleanup13

lpad8:                                            ; preds = %invoke.cont6
  %6 = landingpad { ptr, i32 }
          cleanup
  %7 = extractvalue { ptr, i32 } %6, 0
  store ptr %7, ptr %exn.slot, align 8
  %8 = extractvalue { ptr, i32 } %6, 1
  store i32 %8, ptr %ehselector.slot, align 4
  br label %ehcleanup

lpad11:                                           ; preds = %invoke.cont12, %invoke.cont9
  %9 = landingpad { ptr, i32 }
          cleanup
  %10 = extractvalue { ptr, i32 } %9, 0
  store ptr %10, ptr %exn.slot, align 8
  %11 = extractvalue { ptr, i32 } %9, 1
  store i32 %11, ptr %ehselector.slot, align 4
  call void @_ZNSt7__cxx1112basic_stringIcSt11char_traitsIcESaIcEED1Ev(ptr noundef nonnull align 8 dereferenceable(32) %ref.tmp) #3
  br label %ehcleanup

ehcleanup:                                        ; preds = %lpad11, %lpad8
  %cleanup.is_active = load i1, ptr %cleanup.isactive, align 1
  br i1 %cleanup.is_active, label %cleanup.action, label %cleanup.done

cleanup.action:                                   ; preds = %ehcleanup
  call void @__cxa_free_exception(ptr %exception) #3
  br label %cleanup.done

cleanup.done:                                     ; preds = %cleanup.action, %ehcleanup
  br label %ehcleanup13

ehcleanup13:                                      ; preds = %cleanup.done, %lpad
  call void @_ZNSt7__cxx1119basic_ostringstreamIcSt11char_traitsIcESaIcEED1Ev(ptr noundef nonnull align 8 dereferenceable(112) %os) #3
  br label %eh.resume

if.end:                                           ; preds = %land.lhs.true, %entry
  %12 = load ptr, ptr %baker.addr, align 8
  call void @_ZNK19OpenColorIO_v2_4dev5Baker9getConfigEv(ptr sret(%"class.std::shared_ptr.307") align 8 %config, ptr noundef nonnull align 8 dereferenceable(8) %12)
  %13 = load ptr, ptr %baker.addr, align 8
  %call16 = invoke noundef i32 @_ZNK19OpenColorIO_v2_4dev5Baker11getCubeSizeEv(ptr noundef nonnull align 8 dereferenceable(8) %13)
          to label %invoke.cont15 unwind label %lpad14

invoke.cont15:                                    ; preds = %if.end
  store i32 %call16, ptr %onedSize, align 4
  %14 = load i32, ptr %onedSize, align 4
  %cmp = icmp eq i32 %14, -1
  br i1 %cmp, label %if.then17, label %if.end18

if.then17:                                        ; preds = %invoke.cont15
  store i32 4096, ptr %onedSize, align 4
  br label %if.end18

lpad14:                                           ; preds = %invoke.cont25, %if.end23, %if.end18, %if.end
  %15 = landingpad { ptr, i32 }
          cleanup
  %16 = extractvalue { ptr, i32 } %15, 0
  store ptr %16, ptr %exn.slot, align 8
  %17 = extractvalue { ptr, i32 } %15, 1
  store i32 %17, ptr %ehselector.slot, align 4
  br label %ehcleanup244

if.end18:                                         ; preds = %if.then17, %invoke.cont15
  %18 = load ptr, ptr %baker.addr, align 8
  %call20 = invoke noundef i32 @_ZNK19OpenColorIO_v2_4dev5Baker11getCubeSizeEv(ptr noundef nonnull align 8 dereferenceable(8) %18)
          to label %invoke.cont19 unwind label %lpad14

invoke.cont19:                                    ; preds = %if.end18
  store i32 %call20, ptr %cubeSize, align 4
  %19 = load i32, ptr %cubeSize, align 4
  %cmp21 = icmp eq i32 %19, -1
  br i1 %cmp21, label %if.then22, label %if.end23

if.then22:                                        ; preds = %invoke.cont19
  store i32 64, ptr %cubeSize, align 4
  br label %if.end23

if.end23:                                         ; preds = %if.then22, %invoke.cont19
  store i32 2, ptr %ref.tmp24, align 4
  %call26 = invoke noundef nonnull align 4 dereferenceable(4) ptr @_ZSt3maxIiERKT_S2_S2_(ptr noundef nonnull align 4 dereferenceable(4) %ref.tmp24, ptr noundef nonnull align 4 dereferenceable(4) %cubeSize)
          to label %invoke.cont25 unwind label %lpad14

invoke.cont25:                                    ; preds = %if.end23
  %20 = load i32, ptr %call26, align 4
  store i32 %20, ptr %cubeSize, align 4
  %21 = load ptr, ptr %baker.addr, align 8
  %call28 = invoke noundef ptr @_ZNK19OpenColorIO_v2_4dev5Baker14getShaperSpaceEv(ptr noundef nonnull align 8 dereferenceable(8) %21)
          to label %invoke.cont27 unwind label %lpad14

invoke.cont27:                                    ; preds = %invoke.cont25
  call void @_ZNSaIcEC1Ev(ptr noundef nonnull align 1 dereferenceable(1) %ref.tmp29) #3
  invoke void @_ZNSt7__cxx1112basic_stringIcSt11char_traitsIcESaIcEEC1EPKcRKS3_(ptr noundef nonnull align 8 dereferenceable(32) %shaperSpace, ptr noundef %call28, ptr noundef nonnull align 1 dereferenceable(1) %ref.tmp29)
          to label %invoke.cont31 unwind label %lpad30

invoke.cont31:                                    ; preds = %invoke.cont27
  call void @_ZNSaIcED1Ev(ptr noundef nonnull align 1 dereferenceable(1) %ref.tmp29) #3
  store i32 1, ptr %CTF_1D, align 4
  store i32 2, ptr %CTF_3D, align 4
  store i32 3, ptr %CTF_1D_3D, align 4
  store i32 -1, ptr %required_lut, align 4
  %22 = load ptr, ptr %baker.addr, align 8
  invoke void @_ZN19OpenColorIO_v2_4dev25GetInputToTargetProcessorERKNS_5BakerE(ptr sret(%"class.std::shared_ptr.310") align 8 %inputToTarget, ptr noundef nonnull align 8 dereferenceable(8) %22)
          to label %invoke.cont34 unwind label %lpad33

invoke.cont34:                                    ; preds = %invoke.cont31
  %call35 = call noundef ptr @_ZNKSt19__shared_ptr_accessIKN19OpenColorIO_v2_4dev12CPUProcessorELN9__gnu_cxx12_Lock_policyE2ELb0ELb0EEptEv(ptr noundef nonnull align 1 dereferenceable(1) %inputToTarget) #3
  %call38 = invoke noundef zeroext i1 @_ZNK19OpenColorIO_v2_4dev12CPUProcessor19hasChannelCrosstalkEv(ptr noundef nonnull align 8 dereferenceable(8) %call35)
          to label %invoke.cont37 unwind label %lpad36

invoke.cont37:                                    ; preds = %invoke.cont34
  br i1 %call38, label %if.then39, label %if.else43

if.then39:                                        ; preds = %invoke.cont37
  %call40 = call noundef zeroext i1 @_ZNKSt7__cxx1112basic_stringIcSt11char_traitsIcESaIcEE5emptyEv(ptr noundef nonnull align 8 dereferenceable(32) %shaperSpace) #3
  br i1 %call40, label %if.then41, label %if.else

if.then41:                                        ; preds = %if.then39
  store i32 2, ptr %required_lut, align 4
  br label %if.end42

lpad30:                                           ; preds = %invoke.cont27
  %23 = landingpad { ptr, i32 }
          cleanup
  %24 = extractvalue { ptr, i32 } %23, 0
  store ptr %24, ptr %exn.slot, align 8
  %25 = extractvalue { ptr, i32 } %23, 1
  store i32 %25, ptr %ehselector.slot, align 4
  call void @_ZNSaIcED1Ev(ptr noundef nonnull align 1 dereferenceable(1) %ref.tmp29) #3
  br label %ehcleanup244

lpad33:                                           ; preds = %invoke.cont31
  %26 = landingpad { ptr, i32 }
          cleanup
  %27 = extractvalue { ptr, i32 } %26, 0
  store ptr %27, ptr %exn.slot, align 8
  %28 = extractvalue { ptr, i32 } %26, 1
  store i32 %28, ptr %ehselector.slot, align 4
  br label %ehcleanup243

lpad36:                                           ; preds = %invoke.cont49, %invoke.cont34
  %29 = landingpad { ptr, i32 }
          cleanup
  %30 = extractvalue { ptr, i32 } %29, 0
  store ptr %30, ptr %exn.slot, align 8
  %31 = extractvalue { ptr, i32 } %29, 1
  store i32 %31, ptr %ehselector.slot, align 4
  br label %ehcleanup242

if.else:                                          ; preds = %if.then39
  store i32 3, ptr %required_lut, align 4
  br label %if.end42

if.end42:                                         ; preds = %if.else, %if.then41
  br label %if.end44

if.else43:                                        ; preds = %invoke.cont37
  store i32 1, ptr %required_lut, align 4
  br label %if.end44

if.end44:                                         ; preds = %if.else43, %if.end42
  %32 = load i32, ptr %required_lut, align 4
  %cmp45 = icmp eq i32 %32, -1
  br i1 %cmp45, label %if.then46, label %if.end51

if.then46:                                        ; preds = %if.end44
  %exception47 = call ptr @__cxa_allocate_exception(i64 16) #3
  invoke void @_ZN19OpenColorIO_v2_4dev9ExceptionC1EPKc(ptr noundef nonnull align 8 dereferenceable(16) %exception47, ptr noundef @.str.66)
          to label %invoke.cont49 unwind label %lpad48

invoke.cont49:                                    ; preds = %if.then46
  invoke void @__cxa_throw(ptr %exception47, ptr @_ZTIN19OpenColorIO_v2_4dev9ExceptionE, ptr @_ZN19OpenColorIO_v2_4dev9ExceptionD1Ev) #17
          to label %unreachable unwind label %lpad36

lpad48:                                           ; preds = %if.then46
  %33 = landingpad { ptr, i32 }
          cleanup
  %34 = extractvalue { ptr, i32 } %33, 0
  store ptr %34, ptr %exn.slot, align 8
  %35 = extractvalue { ptr, i32 } %33, 1
  store i32 %35, ptr %ehselector.slot, align 4
  call void @__cxa_free_exception(ptr %exception47) #3
  br label %ehcleanup242

if.end51:                                         ; preds = %if.end44
  call void @_ZNSt10shared_ptrIN19OpenColorIO_v2_4dev11Lut1DOpDataEEC2Ev(ptr noundef nonnull align 8 dereferenceable(16) %shaperLut) #3
  store float 0.000000e+00, ptr %fromInStart, align 4
  store float 1.000000e+00, ptr %fromInEnd, align 4
  %36 = load i32, ptr %required_lut, align 4
  %cmp52 = icmp eq i32 %36, 3
  br i1 %cmp52, label %if.then53, label %if.end98

if.then53:                                        ; preds = %if.end51
  %37 = load ptr, ptr %baker.addr, align 8
  %call56 = invoke noundef i32 @_ZNK19OpenColorIO_v2_4dev5Baker13getShaperSizeEv(ptr noundef nonnull align 8 dereferenceable(8) %37)
          to label %invoke.cont55 unwind label %lpad54

invoke.cont55:                                    ; preds = %if.then53
  store i32 %call56, ptr %shaperSizeRequest, align 4
  %38 = load i32, ptr %shaperSizeRequest, align 4
  %cmp57 = icmp eq i32 %38, -1
  br i1 %cmp57, label %if.then58, label %if.else65

if.then58:                                        ; preds = %invoke.cont55
  store i32 1, ptr %ref.tmp60, align 4
  store i32 65536, ptr %ref.tmp61, align 4
  store i8 1, ptr %ref.tmp62, align 1
  invoke void @_ZSt11make_sharedIN19OpenColorIO_v2_4dev11Lut1DOpDataEJNS1_9HalfFlagsEibEESt10shared_ptrINSt9enable_ifIXntsr8is_arrayIT_EE5valueES5_E4typeEEDpOT0_(ptr sret(%"class.std::shared_ptr.313") align 8 %ref.tmp59, ptr noundef nonnull align 4 dereferenceable(4) %ref.tmp60, ptr noundef nonnull align 4 dereferenceable(4) %ref.tmp61, ptr noundef nonnull align 1 dereferenceable(1) %ref.tmp62)
          to label %invoke.cont63 unwind label %lpad54

invoke.cont63:                                    ; preds = %if.then58
  %call64 = call noundef nonnull align 8 dereferenceable(16) ptr @_ZNSt10shared_ptrIN19OpenColorIO_v2_4dev11Lut1DOpDataEEaSEOS2_(ptr noundef nonnull align 8 dereferenceable(16) %shaperLut, ptr noundef nonnull align 8 dereferenceable(16) %ref.tmp59) #3
  call void @_ZNSt10shared_ptrIN19OpenColorIO_v2_4dev11Lut1DOpDataEED2Ev(ptr noundef nonnull align 8 dereferenceable(16) %ref.tmp59) #3
  br label %if.end80

lpad54:                                           ; preds = %invoke.cont87, %invoke.cont83, %if.end80, %invoke.cont75, %if.then72, %invoke.cont66, %if.else65, %if.then58, %if.then53
  %39 = landingpad { ptr, i32 }
          cleanup
  %40 = extractvalue { ptr, i32 } %39, 0
  store ptr %40, ptr %exn.slot, align 8
  %41 = extractvalue { ptr, i32 } %39, 1
  store i32 %41, ptr %ehselector.slot, align 4
  br label %ehcleanup241

if.else65:                                        ; preds = %invoke.cont55
  %42 = load ptr, ptr %baker.addr, align 8
  invoke void @_ZN19OpenColorIO_v2_4dev14GetShaperRangeERKNS_5BakerERfS3_(ptr noundef nonnull align 8 dereferenceable(8) %42, ptr noundef nonnull align 4 dereferenceable(4) %fromInStart, ptr noundef nonnull align 4 dereferenceable(4) %fromInEnd)
          to label %invoke.cont66 unwind label %lpad54

invoke.cont66:                                    ; preds = %if.else65
  invoke void @_ZSt11make_sharedIN19OpenColorIO_v2_4dev11Lut1DOpDataEJRKiEESt10shared_ptrINSt9enable_ifIXntsr8is_arrayIT_EE5valueES6_E4typeEEDpOT0_(ptr sret(%"class.std::shared_ptr.313") align 8 %ref.tmp67, ptr noundef nonnull align 4 dereferenceable(4) %shaperSizeRequest)
          to label %invoke.cont68 unwind label %lpad54

invoke.cont68:                                    ; preds = %invoke.cont66
  %call69 = call noundef nonnull align 8 dereferenceable(16) ptr @_ZNSt10shared_ptrIN19OpenColorIO_v2_4dev11Lut1DOpDataEEaSEOS2_(ptr noundef nonnull align 8 dereferenceable(16) %shaperLut, ptr noundef nonnull align 8 dereferenceable(16) %ref.tmp67) #3
  call void @_ZNSt10shared_ptrIN19OpenColorIO_v2_4dev11Lut1DOpDataEED2Ev(ptr noundef nonnull align 8 dereferenceable(16) %ref.tmp67) #3
  %43 = load float, ptr %fromInStart, align 4
  %cmp70 = fcmp une float %43, 0.000000e+00
  br i1 %cmp70, label %if.then72, label %lor.lhs.false

lor.lhs.false:                                    ; preds = %invoke.cont68
  %44 = load float, ptr %fromInEnd, align 4
  %cmp71 = fcmp une float %44, 1.000000e+00
  br i1 %cmp71, label %if.then72, label %if.end79

if.then72:                                        ; preds = %lor.lhs.false, %invoke.cont68
  %call73 = call noundef ptr @_ZNKSt19__shared_ptr_accessIN19OpenColorIO_v2_4dev11Lut1DOpDataELN9__gnu_cxx12_Lock_policyE2ELb0ELb0EEptEv(ptr noundef nonnull align 1 dereferenceable(1) %shaperLut) #3
  %call74 = call noundef nonnull align 8 dereferenceable(48) ptr @_ZN19OpenColorIO_v2_4dev11Lut1DOpData8getArrayEv(ptr noundef nonnull align 8 dereferenceable(364) %call73) #3
  %call76 = invoke noundef nonnull align 8 dereferenceable(24) ptr @_ZN19OpenColorIO_v2_4dev6ArrayTIfE9getValuesEv(ptr noundef nonnull align 8 dereferenceable(48) %call74)
          to label %invoke.cont75 unwind label %lpad54

invoke.cont75:                                    ; preds = %if.then72
  %call77 = call noundef ptr @_ZNSt6vectorIfSaIfEE4dataEv(ptr noundef nonnull align 8 dereferenceable(24) %call76) #3
  %45 = load i32, ptr %shaperSizeRequest, align 4
  %46 = load float, ptr %fromInStart, align 4
  %47 = load float, ptr %fromInEnd, align 4
  invoke void @_ZN19OpenColorIO_v2_4dev24GenerateLinearScaleLut1DEPfiiff(ptr noundef %call77, i32 noundef %45, i32 noundef 3, float noundef %46, float noundef %47)
          to label %invoke.cont78 unwind label %lpad54

invoke.cont78:                                    ; preds = %invoke.cont75
  br label %if.end79

if.end79:                                         ; preds = %invoke.cont78, %lor.lhs.false
  br label %if.end80

if.end80:                                         ; preds = %if.end79, %invoke.cont63
  %call81 = call noundef ptr @_ZNKSt19__shared_ptr_accessIN19OpenColorIO_v2_4dev11Lut1DOpDataELN9__gnu_cxx12_Lock_policyE2ELb0ELb0EEptEv(ptr noundef nonnull align 1 dereferenceable(1) %shaperLut) #3
  %call82 = call noundef nonnull align 8 dereferenceable(48) ptr @_ZN19OpenColorIO_v2_4dev11Lut1DOpData8getArrayEv(ptr noundef nonnull align 8 dereferenceable(364) %call81) #3
  %vtable = load ptr, ptr %call82, align 8
  %vfn = getelementptr inbounds ptr, ptr %vtable, i64 4
  %48 = load ptr, ptr %vfn, align 8
  %call84 = invoke noundef i64 %48(ptr noundef nonnull align 8 dereferenceable(48) %call82)
          to label %invoke.cont83 unwind label %lpad54

invoke.cont83:                                    ; preds = %if.end80
  store i64 %call84, ptr %shaperSize, align 8
  %call85 = call noundef ptr @_ZNKSt19__shared_ptr_accessIN19OpenColorIO_v2_4dev11Lut1DOpDataELN9__gnu_cxx12_Lock_policyE2ELb0ELb0EEptEv(ptr noundef nonnull align 1 dereferenceable(1) %shaperLut) #3
  %call86 = call noundef nonnull align 8 dereferenceable(48) ptr @_ZN19OpenColorIO_v2_4dev11Lut1DOpData8getArrayEv(ptr noundef nonnull align 8 dereferenceable(364) %call85) #3
  %call88 = invoke noundef nonnull align 8 dereferenceable(24) ptr @_ZN19OpenColorIO_v2_4dev6ArrayTIfE9getValuesEv(ptr noundef nonnull align 8 dereferenceable(48) %call86)
          to label %invoke.cont87 unwind label %lpad54

invoke.cont87:                                    ; preds = %invoke.cont83
  %call89 = call noundef ptr @_ZNSt6vectorIfSaIfEE4dataEv(ptr noundef nonnull align 8 dereferenceable(24) %call88) #3
  %49 = load i64, ptr %shaperSize, align 8
  invoke void @_ZN19OpenColorIO_v2_4dev15PackedImageDescC1EPvlll(ptr noundef nonnull align 8 dereferenceable(16) %shaperImg, ptr noundef %call89, i64 noundef %49, i64 noundef 1, i64 noundef 3)
          to label %invoke.cont90 unwind label %lpad54

invoke.cont90:                                    ; preds = %invoke.cont87
  %50 = load ptr, ptr %baker.addr, align 8
  invoke void @_ZN19OpenColorIO_v2_4dev25GetInputToShaperProcessorERKNS_5BakerE(ptr sret(%"class.std::shared_ptr.310") align 8 %inputToShaper, ptr noundef nonnull align 8 dereferenceable(8) %50)
          to label %invoke.cont92 unwind label %lpad91

invoke.cont92:                                    ; preds = %invoke.cont90
  %call93 = call noundef ptr @_ZNKSt19__shared_ptr_accessIKN19OpenColorIO_v2_4dev12CPUProcessorELN9__gnu_cxx12_Lock_policyE2ELb0ELb0EEptEv(ptr noundef nonnull align 1 dereferenceable(1) %inputToShaper) #3
  invoke void @_ZNK19OpenColorIO_v2_4dev12CPUProcessor5applyERKNS_9ImageDescE(ptr noundef nonnull align 8 dereferenceable(8) %call93, ptr noundef nonnull align 8 dereferenceable(8) %shaperImg)
          to label %invoke.cont95 unwind label %lpad94

invoke.cont95:                                    ; preds = %invoke.cont92
  call void @_ZNSt10shared_ptrIKN19OpenColorIO_v2_4dev12CPUProcessorEED2Ev(ptr noundef nonnull align 8 dereferenceable(16) %inputToShaper) #3
  call void @_ZN19OpenColorIO_v2_4dev15PackedImageDescD1Ev(ptr noundef nonnull align 8 dereferenceable(16) %shaperImg) #3
  br label %if.end98

lpad91:                                           ; preds = %invoke.cont90
  %51 = landingpad { ptr, i32 }
          cleanup
  %52 = extractvalue { ptr, i32 } %51, 0
  store ptr %52, ptr %exn.slot, align 8
  %53 = extractvalue { ptr, i32 } %51, 1
  store i32 %53, ptr %ehselector.slot, align 4
  br label %ehcleanup97

lpad94:                                           ; preds = %invoke.cont92
  %54 = landingpad { ptr, i32 }
          cleanup
  %55 = extractvalue { ptr, i32 } %54, 0
  store ptr %55, ptr %exn.slot, align 8
  %56 = extractvalue { ptr, i32 } %54, 1
  store i32 %56, ptr %ehselector.slot, align 4
  call void @_ZNSt10shared_ptrIKN19OpenColorIO_v2_4dev12CPUProcessorEED2Ev(ptr noundef nonnull align 8 dereferenceable(16) %inputToShaper) #3
  br label %ehcleanup97

ehcleanup97:                                      ; preds = %lpad94, %lpad91
  call void @_ZN19OpenColorIO_v2_4dev15PackedImageDescD1Ev(ptr noundef nonnull align 8 dereferenceable(16) %shaperImg) #3
  br label %ehcleanup241

if.end98:                                         ; preds = %invoke.cont95, %if.end51
  call void @_ZNSt6vectorIfSaIfEEC2Ev(ptr noundef nonnull align 8 dereferenceable(24) %cubeData) #3
  %57 = load i32, ptr %required_lut, align 4
  %cmp99 = icmp eq i32 %57, 2
  br i1 %cmp99, label %if.then102, label %lor.lhs.false100

lor.lhs.false100:                                 ; preds = %if.end98
  %58 = load i32, ptr %required_lut, align 4
  %cmp101 = icmp eq i32 %58, 3
  br i1 %cmp101, label %if.then102, label %if.end127

if.then102:                                       ; preds = %lor.lhs.false100, %if.end98
  %59 = load i32, ptr %cubeSize, align 4
  %60 = load i32, ptr %cubeSize, align 4
  %mul = mul nsw i32 %59, %60
  %61 = load i32, ptr %cubeSize, align 4
  %mul103 = mul nsw i32 %mul, %61
  %mul104 = mul nsw i32 %mul103, 3
  %conv = sext i32 %mul104 to i64
  invoke void @_ZNSt6vectorIfSaIfEE6resizeEm(ptr noundef nonnull align 8 dereferenceable(24) %cubeData, i64 noundef %conv)
          to label %invoke.cont106 unwind label %lpad105

invoke.cont106:                                   ; preds = %if.then102
  %call107 = call noundef nonnull align 4 dereferenceable(4) ptr @_ZNSt6vectorIfSaIfEEixEm(ptr noundef nonnull align 8 dereferenceable(24) %cubeData, i64 noundef 0) #3
  %62 = load i32, ptr %cubeSize, align 4
  invoke void @_ZN19OpenColorIO_v2_4dev21GenerateIdentityLut3DEPfiiNS_10Lut3DOrderE(ptr noundef %call107, i32 noundef %62, i32 noundef 3, i32 noundef 1)
          to label %invoke.cont108 unwind label %lpad105

invoke.cont108:                                   ; preds = %invoke.cont106
  %call109 = call noundef nonnull align 4 dereferenceable(4) ptr @_ZNSt6vectorIfSaIfEEixEm(ptr noundef nonnull align 8 dereferenceable(24) %cubeData, i64 noundef 0) #3
  %63 = load i32, ptr %cubeSize, align 4
  %64 = load i32, ptr %cubeSize, align 4
  %mul110 = mul nsw i32 %63, %64
  %65 = load i32, ptr %cubeSize, align 4
  %mul111 = mul nsw i32 %mul110, %65
  %conv112 = sext i32 %mul111 to i64
  invoke void @_ZN19OpenColorIO_v2_4dev15PackedImageDescC1EPvlll(ptr noundef nonnull align 8 dereferenceable(16) %cubeImg, ptr noundef %call109, i64 noundef %conv112, i64 noundef 1, i64 noundef 3)
          to label %invoke.cont113 unwind label %lpad105

invoke.cont113:                                   ; preds = %invoke.cont108
  call void @_ZNSt10shared_ptrIKN19OpenColorIO_v2_4dev12CPUProcessorEEC2Ev(ptr noundef nonnull align 8 dereferenceable(16) %cubeProc) #3
  %66 = load i32, ptr %required_lut, align 4
  %cmp114 = icmp eq i32 %66, 3
  br i1 %cmp114, label %if.then115, label %if.else120

if.then115:                                       ; preds = %invoke.cont113
  %67 = load ptr, ptr %baker.addr, align 8
  invoke void @_ZN19OpenColorIO_v2_4dev26GetShaperToTargetProcessorERKNS_5BakerE(ptr sret(%"class.std::shared_ptr.310") align 8 %ref.tmp116, ptr noundef nonnull align 8 dereferenceable(8) %67)
          to label %invoke.cont118 unwind label %lpad117

invoke.cont118:                                   ; preds = %if.then115
  %call119 = call noundef nonnull align 8 dereferenceable(16) ptr @_ZNSt10shared_ptrIKN19OpenColorIO_v2_4dev12CPUProcessorEEaSEOS3_(ptr noundef nonnull align 8 dereferenceable(16) %cubeProc, ptr noundef nonnull align 8 dereferenceable(16) %ref.tmp116) #3
  call void @_ZNSt10shared_ptrIKN19OpenColorIO_v2_4dev12CPUProcessorEED2Ev(ptr noundef nonnull align 8 dereferenceable(16) %ref.tmp116) #3
  br label %if.end122

lpad105:                                          ; preds = %invoke.cont108, %invoke.cont106, %if.then102
  %68 = landingpad { ptr, i32 }
          cleanup
  %69 = extractvalue { ptr, i32 } %68, 0
  store ptr %69, ptr %exn.slot, align 8
  %70 = extractvalue { ptr, i32 } %68, 1
  store i32 %70, ptr %ehselector.slot, align 4
  br label %ehcleanup240

lpad117:                                          ; preds = %if.end122, %if.then115
  %71 = landingpad { ptr, i32 }
          cleanup
  %72 = extractvalue { ptr, i32 } %71, 0
  store ptr %72, ptr %exn.slot, align 8
  %73 = extractvalue { ptr, i32 } %71, 1
  store i32 %73, ptr %ehselector.slot, align 4
  call void @_ZNSt10shared_ptrIKN19OpenColorIO_v2_4dev12CPUProcessorEED2Ev(ptr noundef nonnull align 8 dereferenceable(16) %cubeProc) #3
  call void @_ZN19OpenColorIO_v2_4dev15PackedImageDescD1Ev(ptr noundef nonnull align 8 dereferenceable(16) %cubeImg) #3
  br label %ehcleanup240

if.else120:                                       ; preds = %invoke.cont113
  %call121 = call noundef nonnull align 8 dereferenceable(16) ptr @_ZNSt10shared_ptrIKN19OpenColorIO_v2_4dev12CPUProcessorEEaSERKS3_(ptr noundef nonnull align 8 dereferenceable(16) %cubeProc, ptr noundef nonnull align 8 dereferenceable(16) %inputToTarget) #3
  br label %if.end122

if.end122:                                        ; preds = %if.else120, %invoke.cont118
  %call123 = call noundef ptr @_ZNKSt19__shared_ptr_accessIKN19OpenColorIO_v2_4dev12CPUProcessorELN9__gnu_cxx12_Lock_policyE2ELb0ELb0EEptEv(ptr noundef nonnull align 1 dereferenceable(1) %cubeProc) #3
  invoke void @_ZNK19OpenColorIO_v2_4dev12CPUProcessor5applyERKNS_9ImageDescE(ptr noundef nonnull align 8 dereferenceable(8) %call123, ptr noundef nonnull align 8 dereferenceable(8) %cubeImg)
          to label %invoke.cont124 unwind label %lpad117

invoke.cont124:                                   ; preds = %if.end122
  call void @_ZNSt10shared_ptrIKN19OpenColorIO_v2_4dev12CPUProcessorEED2Ev(ptr noundef nonnull align 8 dereferenceable(16) %cubeProc) #3
  call void @_ZN19OpenColorIO_v2_4dev15PackedImageDescD1Ev(ptr noundef nonnull align 8 dereferenceable(16) %cubeImg) #3
  br label %if.end127

if.end127:                                        ; preds = %invoke.cont124, %lor.lhs.false100
  call void @_ZNSt6vectorIfSaIfEEC2Ev(ptr noundef nonnull align 8 dereferenceable(24) %onedData) #3
  %74 = load i32, ptr %required_lut, align 4
  %cmp128 = icmp eq i32 %74, 1
  br i1 %cmp128, label %if.then129, label %if.end150

if.then129:                                       ; preds = %if.end127
  %75 = load i32, ptr %onedSize, align 4
  %mul130 = mul nsw i32 %75, 3
  %conv131 = sext i32 %mul130 to i64
  invoke void @_ZNSt6vectorIfSaIfEE6resizeEm(ptr noundef nonnull align 8 dereferenceable(24) %onedData, i64 noundef %conv131)
          to label %invoke.cont133 unwind label %lpad132

invoke.cont133:                                   ; preds = %if.then129
  %call134 = call noundef zeroext i1 @_ZNKSt7__cxx1112basic_stringIcSt11char_traitsIcESaIcEE5emptyEv(ptr noundef nonnull align 8 dereferenceable(32) %shaperSpace) #3
  br i1 %call134, label %if.else139, label %if.then135

if.then135:                                       ; preds = %invoke.cont133
  %76 = load ptr, ptr %baker.addr, align 8
  invoke void @_ZN19OpenColorIO_v2_4dev14GetShaperRangeERKNS_5BakerERfS3_(ptr noundef nonnull align 8 dereferenceable(8) %76, ptr noundef nonnull align 4 dereferenceable(4) %fromInStart, ptr noundef nonnull align 4 dereferenceable(4) %fromInEnd)
          to label %invoke.cont136 unwind label %lpad132

invoke.cont136:                                   ; preds = %if.then135
  %call137 = call noundef ptr @_ZNSt6vectorIfSaIfEE4dataEv(ptr noundef nonnull align 8 dereferenceable(24) %onedData) #3
  %77 = load i32, ptr %onedSize, align 4
  %78 = load float, ptr %fromInStart, align 4
  %79 = load float, ptr %fromInEnd, align 4
  invoke void @_ZN19OpenColorIO_v2_4dev24GenerateLinearScaleLut1DEPfiiff(ptr noundef %call137, i32 noundef %77, i32 noundef 3, float noundef %78, float noundef %79)
          to label %invoke.cont138 unwind label %lpad132

invoke.cont138:                                   ; preds = %invoke.cont136
  br label %if.end142

lpad132:                                          ; preds = %if.end150, %if.end142, %if.else139, %invoke.cont136, %if.then135, %if.then129
  %80 = landingpad { ptr, i32 }
          cleanup
  %81 = extractvalue { ptr, i32 } %80, 0
  store ptr %81, ptr %exn.slot, align 8
  %82 = extractvalue { ptr, i32 } %80, 1
  store i32 %82, ptr %ehselector.slot, align 4
  br label %ehcleanup239

if.else139:                                       ; preds = %invoke.cont133
  %call140 = call noundef nonnull align 4 dereferenceable(4) ptr @_ZNSt6vectorIfSaIfEEixEm(ptr noundef nonnull align 8 dereferenceable(24) %onedData, i64 noundef 0) #3
  %83 = load i32, ptr %onedSize, align 4
  invoke void @_ZN19OpenColorIO_v2_4dev21GenerateIdentityLut1DEPfii(ptr noundef %call140, i32 noundef %83, i32 noundef 3)
          to label %invoke.cont141 unwind label %lpad132

invoke.cont141:                                   ; preds = %if.else139
  br label %if.end142

if.end142:                                        ; preds = %invoke.cont141, %invoke.cont138
  %call143 = call noundef nonnull align 4 dereferenceable(4) ptr @_ZNSt6vectorIfSaIfEEixEm(ptr noundef nonnull align 8 dereferenceable(24) %onedData, i64 noundef 0) #3
  %84 = load i32, ptr %onedSize, align 4
  %conv144 = sext i32 %84 to i64
  invoke void @_ZN19OpenColorIO_v2_4dev15PackedImageDescC1EPvlll(ptr noundef nonnull align 8 dereferenceable(16) %onedImg, ptr noundef %call143, i64 noundef %conv144, i64 noundef 1, i64 noundef 3)
          to label %invoke.cont145 unwind label %lpad132

invoke.cont145:                                   ; preds = %if.end142
  %call146 = call noundef ptr @_ZNKSt19__shared_ptr_accessIKN19OpenColorIO_v2_4dev12CPUProcessorELN9__gnu_cxx12_Lock_policyE2ELb0ELb0EEptEv(ptr noundef nonnull align 1 dereferenceable(1) %inputToTarget) #3
  invoke void @_ZNK19OpenColorIO_v2_4dev12CPUProcessor5applyERKNS_9ImageDescE(ptr noundef nonnull align 8 dereferenceable(8) %call146, ptr noundef nonnull align 8 dereferenceable(8) %onedImg)
          to label %invoke.cont148 unwind label %lpad147

invoke.cont148:                                   ; preds = %invoke.cont145
  call void @_ZN19OpenColorIO_v2_4dev15PackedImageDescD1Ev(ptr noundef nonnull align 8 dereferenceable(16) %onedImg) #3
  br label %if.end150

lpad147:                                          ; preds = %invoke.cont145
  %85 = landingpad { ptr, i32 }
          cleanup
  %86 = extractvalue { ptr, i32 } %85, 0
  store ptr %86, ptr %exn.slot, align 8
  %87 = extractvalue { ptr, i32 } %85, 1
  store i32 %87, ptr %ehselector.slot, align 4
  call void @_ZN19OpenColorIO_v2_4dev15PackedImageDescD1Ev(ptr noundef nonnull align 8 dereferenceable(16) %onedImg) #3
  br label %ehcleanup239

if.end150:                                        ; preds = %invoke.cont148, %if.end127
  invoke void @_ZN19OpenColorIO_v2_4dev10OpRcPtrVecC1Ev(ptr noundef nonnull align 8 dereferenceable(144) %ops)
          to label %invoke.cont151 unwind label %lpad132

invoke.cont151:                                   ; preds = %if.end150
  %88 = load i32, ptr %required_lut, align 4
  %cmp152 = icmp eq i32 %88, 1
  br i1 %cmp152, label %if.then153, label %if.else175

if.then153:                                       ; preds = %invoke.cont151
  %89 = load float, ptr %fromInStart, align 4
  %cmp154 = fcmp une float %89, 0.000000e+00
  br i1 %cmp154, label %if.then157, label %lor.lhs.false155

lor.lhs.false155:                                 ; preds = %if.then153
  %90 = load float, ptr %fromInEnd, align 4
  %cmp156 = fcmp une float %90, 1.000000e+00
  br i1 %cmp156, label %if.then157, label %if.end162

if.then157:                                       ; preds = %lor.lhs.false155, %if.then153
  %91 = load float, ptr %fromInStart, align 4
  %conv158 = fpext float %91 to double
  %92 = load float, ptr %fromInEnd, align 4
  %conv159 = fpext float %92 to double
  invoke void @_ZN19OpenColorIO_v2_4dev13CreateRangeOpERNS_10OpRcPtrVecEddddNS_18TransformDirectionE(ptr noundef nonnull align 8 dereferenceable(144) %ops, double noundef %conv158, double noundef %conv159, double noundef 0.000000e+00, double noundef 1.000000e+00, i32 noundef 0)
          to label %invoke.cont161 unwind label %lpad160

invoke.cont161:                                   ; preds = %if.then157
  br label %if.end162

lpad160:                                          ; preds = %if.end206, %if.then192, %if.end185, %if.then181, %if.end162, %if.then157
  %93 = landingpad { ptr, i32 }
          cleanup
  %94 = extractvalue { ptr, i32 } %93, 0
  store ptr %94, ptr %exn.slot, align 8
  %95 = extractvalue { ptr, i32 } %93, 1
  store i32 %95, ptr %ehselector.slot, align 4
  br label %ehcleanup238

if.end162:                                        ; preds = %invoke.cont161, %lor.lhs.false155
  %96 = load i32, ptr %onedSize, align 4
  %conv164 = sext i32 %96 to i64
  store i64 %conv164, ptr %ref.tmp163, align 8
  invoke void @_ZSt11make_sharedIN19OpenColorIO_v2_4dev11Lut1DOpDataEJmEESt10shared_ptrINSt9enable_ifIXntsr8is_arrayIT_EE5valueES4_E4typeEEDpOT0_(ptr sret(%"class.std::shared_ptr.313") align 8 %lut1D, ptr noundef nonnull align 8 dereferenceable(8) %ref.tmp163)
          to label %invoke.cont165 unwind label %lpad160

invoke.cont165:                                   ; preds = %if.end162
  %call166 = call noundef ptr @_ZNKSt19__shared_ptr_accessIN19OpenColorIO_v2_4dev11Lut1DOpDataELN9__gnu_cxx12_Lock_policyE2ELb0ELb0EEptEv(ptr noundef nonnull align 1 dereferenceable(1) %lut1D) #3
  %call167 = call noundef nonnull align 8 dereferenceable(48) ptr @_ZN19OpenColorIO_v2_4dev11Lut1DOpData8getArrayEv(ptr noundef nonnull align 8 dereferenceable(364) %call166) #3
  %call170 = invoke noundef nonnull align 8 dereferenceable(24) ptr @_ZN19OpenColorIO_v2_4dev6ArrayTIfE9getValuesEv(ptr noundef nonnull align 8 dereferenceable(48) %call167)
          to label %invoke.cont169 unwind label %lpad168

invoke.cont169:                                   ; preds = %invoke.cont165
  %call172 = invoke noundef nonnull align 8 dereferenceable(24) ptr @_ZNSt6vectorIfSaIfEEaSERKS1_(ptr noundef nonnull align 8 dereferenceable(24) %call170, ptr noundef nonnull align 8 dereferenceable(24) %onedData)
          to label %invoke.cont171 unwind label %lpad168

invoke.cont171:                                   ; preds = %invoke.cont169
  invoke void @_ZN19OpenColorIO_v2_4dev13CreateLut1DOpERNS_10OpRcPtrVecERSt10shared_ptrINS_11Lut1DOpDataEENS_18TransformDirectionE(ptr noundef nonnull align 8 dereferenceable(144) %ops, ptr noundef nonnull align 8 dereferenceable(16) %lut1D, i32 noundef 0)
          to label %invoke.cont173 unwind label %lpad168

invoke.cont173:                                   ; preds = %invoke.cont171
  call void @_ZNSt10shared_ptrIN19OpenColorIO_v2_4dev11Lut1DOpDataEED2Ev(ptr noundef nonnull align 8 dereferenceable(16) %lut1D) #3
  br label %if.end188

lpad168:                                          ; preds = %invoke.cont171, %invoke.cont169, %invoke.cont165
  %97 = landingpad { ptr, i32 }
          cleanup
  %98 = extractvalue { ptr, i32 } %97, 0
  store ptr %98, ptr %exn.slot, align 8
  %99 = extractvalue { ptr, i32 } %97, 1
  store i32 %99, ptr %ehselector.slot, align 4
  call void @_ZNSt10shared_ptrIN19OpenColorIO_v2_4dev11Lut1DOpDataEED2Ev(ptr noundef nonnull align 8 dereferenceable(16) %lut1D) #3
  br label %ehcleanup238

if.else175:                                       ; preds = %invoke.cont151
  %100 = load i32, ptr %required_lut, align 4
  %cmp176 = icmp eq i32 %100, 3
  br i1 %cmp176, label %if.then177, label %if.end187

if.then177:                                       ; preds = %if.else175
  %101 = load float, ptr %fromInStart, align 4
  %cmp178 = fcmp une float %101, 0.000000e+00
  br i1 %cmp178, label %if.then181, label %lor.lhs.false179

lor.lhs.false179:                                 ; preds = %if.then177
  %102 = load float, ptr %fromInEnd, align 4
  %cmp180 = fcmp une float %102, 1.000000e+00
  br i1 %cmp180, label %if.then181, label %if.end185

if.then181:                                       ; preds = %lor.lhs.false179, %if.then177
  %103 = load float, ptr %fromInStart, align 4
  %conv182 = fpext float %103 to double
  %104 = load float, ptr %fromInEnd, align 4
  %conv183 = fpext float %104 to double
  invoke void @_ZN19OpenColorIO_v2_4dev13CreateRangeOpERNS_10OpRcPtrVecEddddNS_18TransformDirectionE(ptr noundef nonnull align 8 dereferenceable(144) %ops, double noundef %conv182, double noundef %conv183, double noundef 0.000000e+00, double noundef 1.000000e+00, i32 noundef 0)
          to label %invoke.cont184 unwind label %lpad160

invoke.cont184:                                   ; preds = %if.then181
  br label %if.end185

if.end185:                                        ; preds = %invoke.cont184, %lor.lhs.false179
  invoke void @_ZN19OpenColorIO_v2_4dev13CreateLut1DOpERNS_10OpRcPtrVecERSt10shared_ptrINS_11Lut1DOpDataEENS_18TransformDirectionE(ptr noundef nonnull align 8 dereferenceable(144) %ops, ptr noundef nonnull align 8 dereferenceable(16) %shaperLut, i32 noundef 0)
          to label %invoke.cont186 unwind label %lpad160

invoke.cont186:                                   ; preds = %if.end185
  br label %if.end187

if.end187:                                        ; preds = %invoke.cont186, %if.else175
  br label %if.end188

if.end188:                                        ; preds = %if.end187, %invoke.cont173
  %105 = load i32, ptr %required_lut, align 4
  %cmp189 = icmp eq i32 %105, 2
  br i1 %cmp189, label %if.then192, label %lor.lhs.false190

lor.lhs.false190:                                 ; preds = %if.end188
  %106 = load i32, ptr %required_lut, align 4
  %cmp191 = icmp eq i32 %106, 3
  br i1 %cmp191, label %if.then192, label %if.end206

if.then192:                                       ; preds = %lor.lhs.false190, %if.end188
  %107 = load i32, ptr %cubeSize, align 4
  %conv194 = sext i32 %107 to i64
  store i64 %conv194, ptr %ref.tmp193, align 8
  invoke void @_ZSt11make_sharedIN19OpenColorIO_v2_4dev11Lut3DOpDataEJmEESt10shared_ptrINSt9enable_ifIXntsr8is_arrayIT_EE5valueES4_E4typeEEDpOT0_(ptr sret(%"class.std::shared_ptr.321") align 8 %lut3D, ptr noundef nonnull align 8 dereferenceable(8) %ref.tmp193)
          to label %invoke.cont195 unwind label %lpad160

invoke.cont195:                                   ; preds = %if.then192
  %call196 = call noundef ptr @_ZNKSt19__shared_ptr_accessIN19OpenColorIO_v2_4dev11Lut3DOpDataELN9__gnu_cxx12_Lock_policyE2ELb0ELb0EEptEv(ptr noundef nonnull align 1 dereferenceable(1) %lut3D) #3
  %call199 = invoke noundef nonnull align 8 dereferenceable(48) ptr @_ZN19OpenColorIO_v2_4dev11Lut3DOpData8getArrayEv(ptr noundef nonnull align 8 dereferenceable(232) %call196)
          to label %invoke.cont198 unwind label %lpad197

invoke.cont198:                                   ; preds = %invoke.cont195
  %call201 = invoke noundef nonnull align 8 dereferenceable(24) ptr @_ZN19OpenColorIO_v2_4dev6ArrayTIfE9getValuesEv(ptr noundef nonnull align 8 dereferenceable(48) %call199)
          to label %invoke.cont200 unwind label %lpad197

invoke.cont200:                                   ; preds = %invoke.cont198
  %call203 = invoke noundef nonnull align 8 dereferenceable(24) ptr @_ZNSt6vectorIfSaIfEEaSERKS1_(ptr noundef nonnull align 8 dereferenceable(24) %call201, ptr noundef nonnull align 8 dereferenceable(24) %cubeData)
          to label %invoke.cont202 unwind label %lpad197

invoke.cont202:                                   ; preds = %invoke.cont200
  invoke void @_ZN19OpenColorIO_v2_4dev13CreateLut3DOpERNS_10OpRcPtrVecERSt10shared_ptrINS_11Lut3DOpDataEENS_18TransformDirectionE(ptr noundef nonnull align 8 dereferenceable(144) %ops, ptr noundef nonnull align 8 dereferenceable(16) %lut3D, i32 noundef 0)
          to label %invoke.cont204 unwind label %lpad197

invoke.cont204:                                   ; preds = %invoke.cont202
  call void @_ZNSt10shared_ptrIN19OpenColorIO_v2_4dev11Lut3DOpDataEED2Ev(ptr noundef nonnull align 8 dereferenceable(16) %lut3D) #3
  br label %if.end206

lpad197:                                          ; preds = %invoke.cont202, %invoke.cont200, %invoke.cont198, %invoke.cont195
  %108 = landingpad { ptr, i32 }
          cleanup
  %109 = extractvalue { ptr, i32 } %108, 0
  store ptr %109, ptr %exn.slot, align 8
  %110 = extractvalue { ptr, i32 } %108, 1
  store i32 %110, ptr %ehselector.slot, align 4
  call void @_ZNSt10shared_ptrIN19OpenColorIO_v2_4dev11Lut3DOpDataEED2Ev(ptr noundef nonnull align 8 dereferenceable(16) %lut3D) #3
  br label %ehcleanup238

if.end206:                                        ; preds = %invoke.cont204, %lor.lhs.false190
  invoke void @_ZN19OpenColorIO_v2_4dev14GroupTransform6CreateEv(ptr sret(%"class.std::shared_ptr.303") align 8 %group)
          to label %invoke.cont207 unwind label %lpad160

invoke.cont207:                                   ; preds = %if.end206
  store ptr %ops, ptr %__range2, align 8
  %111 = load ptr, ptr %__range2, align 8
  %call208 = call ptr @_ZN19OpenColorIO_v2_4dev10OpRcPtrVec5beginEv(ptr noundef nonnull align 8 dereferenceable(144) %111) #3
  %coerce.dive = getelementptr inbounds %"class.__gnu_cxx::__normal_iterator.324", ptr %__begin2, i32 0, i32 0
  store ptr %call208, ptr %coerce.dive, align 8
  %112 = load ptr, ptr %__range2, align 8
  %call209 = call ptr @_ZN19OpenColorIO_v2_4dev10OpRcPtrVec3endEv(ptr noundef nonnull align 8 dereferenceable(144) %112) #3
  %coerce.dive210 = getelementptr inbounds %"class.__gnu_cxx::__normal_iterator.324", ptr %__end2, i32 0, i32 0
  store ptr %call209, ptr %coerce.dive210, align 8
  br label %for.cond

for.cond:                                         ; preds = %for.inc, %invoke.cont207
  %call211 = call noundef zeroext i1 @_ZN9__gnu_cxxneIPSt10shared_ptrIN19OpenColorIO_v2_4dev2OpEESt6vectorIS4_SaIS4_EEEEbRKNS_17__normal_iteratorIT_T0_EESE_(ptr noundef nonnull align 8 dereferenceable(8) %__begin2, ptr noundef nonnull align 8 dereferenceable(8) %__end2) #3
  br i1 %call211, label %for.body, label %for.end

for.body:                                         ; preds = %for.cond
  %call212 = call noundef nonnull align 8 dereferenceable(16) ptr @_ZNK9__gnu_cxx17__normal_iteratorIPSt10shared_ptrIN19OpenColorIO_v2_4dev2OpEESt6vectorIS4_SaIS4_EEEdeEv(ptr noundef nonnull align 8 dereferenceable(8) %__begin2) #3
  call void @_ZNSt10shared_ptrIKN19OpenColorIO_v2_4dev2OpEEC2IS1_vEERKS_IT_E(ptr noundef nonnull align 8 dereferenceable(16) %op, ptr noundef nonnull align 8 dereferenceable(16) %call212) #3
  invoke void @_ZN19OpenColorIO_v2_4dev15CreateTransformERSt10shared_ptrINS_14GroupTransformEERS0_IKNS_2OpEE(ptr noundef nonnull align 8 dereferenceable(16) %group, ptr noundef nonnull align 8 dereferenceable(16) %op)
          to label %invoke.cont214 unwind label %lpad213

invoke.cont214:                                   ; preds = %for.body
  call void @_ZNSt10shared_ptrIKN19OpenColorIO_v2_4dev2OpEED2Ev(ptr noundef nonnull align 8 dereferenceable(16) %op) #3
  br label %for.inc

for.inc:                                          ; preds = %invoke.cont214
  %call216 = call noundef nonnull align 8 dereferenceable(8) ptr @_ZN9__gnu_cxx17__normal_iteratorIPSt10shared_ptrIN19OpenColorIO_v2_4dev2OpEESt6vectorIS4_SaIS4_EEEppEv(ptr noundef nonnull align 8 dereferenceable(8) %__begin2) #3
  br label %for.cond

lpad213:                                          ; preds = %for.body
  %113 = landingpad { ptr, i32 }
          cleanup
  %114 = extractvalue { ptr, i32 } %113, 0
  store ptr %114, ptr %exn.slot, align 8
  %115 = extractvalue { ptr, i32 } %113, 1
  store i32 %115, ptr %ehselector.slot, align 4
  call void @_ZNSt10shared_ptrIKN19OpenColorIO_v2_4dev2OpEED2Ev(ptr noundef nonnull align 8 dereferenceable(16) %op) #3
  br label %ehcleanup237

for.end:                                          ; preds = %for.cond
  %116 = load ptr, ptr %baker.addr, align 8
  %call219 = invoke noundef nonnull align 8 dereferenceable(8) ptr @_ZNK19OpenColorIO_v2_4dev5Baker17getFormatMetadataEv(ptr noundef nonnull align 8 dereferenceable(8) %116)
          to label %invoke.cont218 unwind label %lpad217

invoke.cont218:                                   ; preds = %for.end
  store ptr %call219, ptr %metadata, align 8
  %117 = load ptr, ptr %metadata, align 8
  %call220 = call noundef ptr @_ZNKSt19__shared_ptr_accessIN19OpenColorIO_v2_4dev14GroupTransformELN9__gnu_cxx12_Lock_policyE2ELb0ELb0EEptEv(ptr noundef nonnull align 1 dereferenceable(1) %group) #3
  %vtable221 = load ptr, ptr %call220, align 8
  %vfn222 = getelementptr inbounds ptr, ptr %vtable221, i64 8
  %118 = load ptr, ptr %vfn222, align 8
  %call223 = call noundef nonnull align 8 dereferenceable(8) ptr %118(ptr noundef nonnull align 8 dereferenceable(8) %call220) #3
  %vtable224 = load ptr, ptr %call223, align 8
  %vfn225 = getelementptr inbounds ptr, ptr %vtable224, i64 14
  %119 = load ptr, ptr %vfn225, align 8
  %call227 = invoke noundef nonnull align 8 dereferenceable(8) ptr %119(ptr noundef nonnull align 8 dereferenceable(8) %call223, ptr noundef nonnull align 8 dereferenceable(8) %117)
          to label %invoke.cont226 unwind label %lpad217

invoke.cont226:                                   ; preds = %invoke.cont218
  %call229 = call noundef ptr @_ZNKSt19__shared_ptr_accessIKN19OpenColorIO_v2_4dev6ConfigELN9__gnu_cxx12_Lock_policyE2ELb0ELb0EEptEv(ptr noundef nonnull align 1 dereferenceable(1) %config) #3
  invoke void @_ZNK19OpenColorIO_v2_4dev6Config17getCurrentContextEv(ptr sret(%"class.std::shared_ptr.331") align 8 %ref.tmp228, ptr noundef nonnull align 8 dereferenceable(8) %call229)
          to label %invoke.cont230 unwind label %lpad217

invoke.cont230:                                   ; preds = %invoke.cont226
  %call231 = call noundef nonnull align 8 dereferenceable(8) ptr @_ZNKSt19__shared_ptr_accessIN19OpenColorIO_v2_4dev14GroupTransformELN9__gnu_cxx12_Lock_policyE2ELb0ELb0EEdeEv(ptr noundef nonnull align 1 dereferenceable(1) %group) #3
  %120 = load ptr, ptr %formatName.addr, align 8
  %121 = load ptr, ptr %ostream.addr, align 8
  %vtable232 = load ptr, ptr %this1, align 8
  %vfn233 = getelementptr inbounds ptr, ptr %vtable232, i64 5
  %122 = load ptr, ptr %vfn233, align 8
  invoke void %122(ptr noundef nonnull align 8 dereferenceable(8) %this1, ptr noundef nonnull align 8 dereferenceable(16) %config, ptr noundef nonnull align 8 dereferenceable(16) %ref.tmp228, ptr noundef nonnull align 8 dereferenceable(8) %call231, ptr noundef nonnull align 8 dereferenceable(32) %120, ptr noundef nonnull align 8 dereferenceable(8) %121)
          to label %invoke.cont235 unwind label %lpad234

invoke.cont235:                                   ; preds = %invoke.cont230
  call void @_ZNSt10shared_ptrIKN19OpenColorIO_v2_4dev7ContextEED2Ev(ptr noundef nonnull align 8 dereferenceable(16) %ref.tmp228) #3
  call void @_ZNSt10shared_ptrIN19OpenColorIO_v2_4dev14GroupTransformEED2Ev(ptr noundef nonnull align 8 dereferenceable(16) %group) #3
  call void @_ZN19OpenColorIO_v2_4dev10OpRcPtrVecD2Ev(ptr noundef nonnull align 8 dereferenceable(144) %ops) #3
  call void @_ZNSt6vectorIfSaIfEED2Ev(ptr noundef nonnull align 8 dereferenceable(24) %onedData) #3
  call void @_ZNSt6vectorIfSaIfEED2Ev(ptr noundef nonnull align 8 dereferenceable(24) %cubeData) #3
  call void @_ZNSt10shared_ptrIN19OpenColorIO_v2_4dev11Lut1DOpDataEED2Ev(ptr noundef nonnull align 8 dereferenceable(16) %shaperLut) #3
  call void @_ZNSt10shared_ptrIKN19OpenColorIO_v2_4dev12CPUProcessorEED2Ev(ptr noundef nonnull align 8 dereferenceable(16) %inputToTarget) #3
  call void @_ZNSt7__cxx1112basic_stringIcSt11char_traitsIcESaIcEED1Ev(ptr noundef nonnull align 8 dereferenceable(32) %shaperSpace) #3
  call void @_ZNSt10shared_ptrIKN19OpenColorIO_v2_4dev6ConfigEED2Ev(ptr noundef nonnull align 8 dereferenceable(16) %config) #3
  ret void

lpad217:                                          ; preds = %invoke.cont226, %invoke.cont218, %for.end
  %123 = landingpad { ptr, i32 }
          cleanup
  %124 = extractvalue { ptr, i32 } %123, 0
  store ptr %124, ptr %exn.slot, align 8
  %125 = extractvalue { ptr, i32 } %123, 1
  store i32 %125, ptr %ehselector.slot, align 4
  br label %ehcleanup237

lpad234:                                          ; preds = %invoke.cont230
  %126 = landingpad { ptr, i32 }
          cleanup
  %127 = extractvalue { ptr, i32 } %126, 0
  store ptr %127, ptr %exn.slot, align 8
  %128 = extractvalue { ptr, i32 } %126, 1
  store i32 %128, ptr %ehselector.slot, align 4
  call void @_ZNSt10shared_ptrIKN19OpenColorIO_v2_4dev7ContextEED2Ev(ptr noundef nonnull align 8 dereferenceable(16) %ref.tmp228) #3
  br label %ehcleanup237

ehcleanup237:                                     ; preds = %lpad234, %lpad217, %lpad213
  call void @_ZNSt10shared_ptrIN19OpenColorIO_v2_4dev14GroupTransformEED2Ev(ptr noundef nonnull align 8 dereferenceable(16) %group) #3
  br label %ehcleanup238

ehcleanup238:                                     ; preds = %ehcleanup237, %lpad197, %lpad168, %lpad160
  call void @_ZN19OpenColorIO_v2_4dev10OpRcPtrVecD2Ev(ptr noundef nonnull align 8 dereferenceable(144) %ops) #3
  br label %ehcleanup239

ehcleanup239:                                     ; preds = %ehcleanup238, %lpad147, %lpad132
  call void @_ZNSt6vectorIfSaIfEED2Ev(ptr noundef nonnull align 8 dereferenceable(24) %onedData) #3
  br label %ehcleanup240

ehcleanup240:                                     ; preds = %ehcleanup239, %lpad117, %lpad105
  call void @_ZNSt6vectorIfSaIfEED2Ev(ptr noundef nonnull align 8 dereferenceable(24) %cubeData) #3
  br label %ehcleanup241

ehcleanup241:                                     ; preds = %ehcleanup240, %ehcleanup97, %lpad54
  call void @_ZNSt10shared_ptrIN19OpenColorIO_v2_4dev11Lut1DOpDataEED2Ev(ptr noundef nonnull align 8 dereferenceable(16) %shaperLut) #3
  br label %ehcleanup242

ehcleanup242:                                     ; preds = %ehcleanup241, %lpad48, %lpad36
  call void @_ZNSt10shared_ptrIKN19OpenColorIO_v2_4dev12CPUProcessorEED2Ev(ptr noundef nonnull align 8 dereferenceable(16) %inputToTarget) #3
  br label %ehcleanup243

ehcleanup243:                                     ; preds = %ehcleanup242, %lpad33
  call void @_ZNSt7__cxx1112basic_stringIcSt11char_traitsIcESaIcEED1Ev(ptr noundef nonnull align 8 dereferenceable(32) %shaperSpace) #3
  br label %ehcleanup244

ehcleanup244:                                     ; preds = %ehcleanup243, %lpad30, %lpad14
  call void @_ZNSt10shared_ptrIKN19OpenColorIO_v2_4dev6ConfigEED2Ev(ptr noundef nonnull align 8 dereferenceable(16) %config) #3
  br label %eh.resume

eh.resume:                                        ; preds = %ehcleanup244, %ehcleanup13
  %exn = load ptr, ptr %exn.slot, align 8
  %sel = load i32, ptr %ehselector.slot, align 4
  %lpad.val = insertvalue { ptr, i32 } poison, ptr %exn, 0
  %lpad.val245 = insertvalue { ptr, i32 } %lpad.val, i32 %sel, 1
  resume { ptr, i32 } %lpad.val245

unreachable:                                      ; preds = %invoke.cont49, %invoke.cont12
  unreachable
}

; Function Attrs: mustprogress uwtable
define internal void @_ZNK19OpenColorIO_v2_4dev12_GLOBAL__N_115LocalFileFormat5writeERKSt10shared_ptrIKNS_6ConfigEERKS2_IKNS_7ContextEERKNS_14GroupTransformERKNSt7__cxx1112basic_stringIcSt11char_traitsIcESaIcEEERSo(ptr noundef nonnull align 8 dereferenceable(8) %this, ptr noundef nonnull align 8 dereferenceable(16) %config, ptr noundef nonnull align 8 dereferenceable(16) %context, ptr noundef nonnull align 8 dereferenceable(8) %group, ptr noundef nonnull align 8 dereferenceable(32) %formatName, ptr noundef nonnull align 8 dereferenceable(8) %ostream) unnamed_addr #5 align 2 personality ptr @__gxx_personality_v0 {
entry:
  %this.addr = alloca ptr, align 8
  %config.addr = alloca ptr, align 8
  %context.addr = alloca ptr, align 8
  %group.addr = alloca ptr, align 8
  %formatName.addr = alloca ptr, align 8
  %ostream.addr = alloca ptr, align 8
  %isCLF = alloca i8, align 1
  %os = alloca %"class.std::__cxx11::basic_ostringstream", align 8
  %exn.slot = alloca ptr, align 8
  %ehselector.slot = alloca i32, align 4
  %ref.tmp = alloca %"class.std::__cxx11::basic_string", align 8
  %cleanup.isactive = alloca i1, align 1
  %ops = alloca %"class.OpenColorIO_v2_4dev::OpRcPtrVec", align 8
  %metadata = alloca ptr, align 8
  %ref.tmp24 = alloca %"class.OpenColorIO_v2_4dev::FormatMetadataImpl", align 8
  %transform = alloca %"class.std::shared_ptr.9", align 8
  %fmt = alloca %"class.OpenColorIO_v2_4dev::XmlFormatter", align 8
  %writer = alloca %"class.OpenColorIO_v2_4dev::TransformWriter", align 8
  %agg.tmp = alloca %"class.std::shared_ptr.352", align 8
  store ptr %this, ptr %this.addr, align 8
  store ptr %config, ptr %config.addr, align 8
  store ptr %context, ptr %context.addr, align 8
  store ptr %group, ptr %group.addr, align 8
  store ptr %formatName, ptr %formatName.addr, align 8
  store ptr %ostream, ptr %ostream.addr, align 8
  store i8 0, ptr %isCLF, align 1
  %0 = load ptr, ptr %formatName.addr, align 8
  %call = call noundef ptr @_ZNKSt7__cxx1112basic_stringIcSt11char_traitsIcESaIcEE5c_strEv(ptr noundef nonnull align 8 dereferenceable(32) %0) #3
  %call2 = call noundef i32 @_ZN19OpenColorIO_v2_4dev8Platform10StrcasecmpEPKcS2_(ptr noundef %call, ptr noundef @_ZN19OpenColorIO_v2_4devL14FILEFORMAT_CLFE)
  %cmp = icmp eq i32 %call2, 0
  br i1 %cmp, label %if.then, label %if.else

if.then:                                          ; preds = %entry
  store i8 1, ptr %isCLF, align 1
  br label %if.end18

if.else:                                          ; preds = %entry
  %1 = load ptr, ptr %formatName.addr, align 8
  %call3 = call noundef ptr @_ZNKSt7__cxx1112basic_stringIcSt11char_traitsIcESaIcEE5c_strEv(ptr noundef nonnull align 8 dereferenceable(32) %1) #3
  %call4 = call noundef i32 @_ZN19OpenColorIO_v2_4dev8Platform10StrcasecmpEPKcS2_(ptr noundef %call3, ptr noundef @_ZN19OpenColorIO_v2_4devL14FILEFORMAT_CTFE)
  %cmp5 = icmp ne i32 %call4, 0
  br i1 %cmp5, label %if.then6, label %if.end

if.then6:                                         ; preds = %if.else
  call void @_ZNSt7__cxx1119basic_ostringstreamIcSt11char_traitsIcESaIcEEC1Ev(ptr noundef nonnull align 8 dereferenceable(112) %os)
  %call7 = invoke noundef nonnull align 8 dereferenceable(8) ptr @_ZStlsISt11char_traitsIcEERSt13basic_ostreamIcT_ES5_PKc(ptr noundef nonnull align 8 dereferenceable(8) %os, ptr noundef @.str.68)
          to label %invoke.cont unwind label %lpad

invoke.cont:                                      ; preds = %if.then6
  %2 = load ptr, ptr %formatName.addr, align 8
  %call9 = invoke noundef nonnull align 8 dereferenceable(8) ptr @_ZStlsIcSt11char_traitsIcESaIcEERSt13basic_ostreamIT_T0_ES7_RKNSt7__cxx1112basic_stringIS4_S5_T1_EE(ptr noundef nonnull align 8 dereferenceable(8) %call7, ptr noundef nonnull align 8 dereferenceable(32) %2)
          to label %invoke.cont8 unwind label %lpad

invoke.cont8:                                     ; preds = %invoke.cont
  %call11 = invoke noundef nonnull align 8 dereferenceable(8) ptr @_ZStlsISt11char_traitsIcEERSt13basic_ostreamIcT_ES5_PKc(ptr noundef nonnull align 8 dereferenceable(8) %call9, ptr noundef @.str.46)
          to label %invoke.cont10 unwind label %lpad

invoke.cont10:                                    ; preds = %invoke.cont8
  store i1 true, ptr %cleanup.isactive, align 1
  %exception = call ptr @__cxa_allocate_exception(i64 16) #3
  invoke void @_ZNKSt7__cxx1119basic_ostringstreamIcSt11char_traitsIcESaIcEE3strEv(ptr sret(%"class.std::__cxx11::basic_string") align 8 %ref.tmp, ptr noundef nonnull align 8 dereferenceable(112) %os)
          to label %invoke.cont13 unwind label %lpad12

invoke.cont13:                                    ; preds = %invoke.cont10
  %call14 = call noundef ptr @_ZNKSt7__cxx1112basic_stringIcSt11char_traitsIcESaIcEE5c_strEv(ptr noundef nonnull align 8 dereferenceable(32) %ref.tmp) #3
  invoke void @_ZN19OpenColorIO_v2_4dev9ExceptionC1EPKc(ptr noundef nonnull align 8 dereferenceable(16) %exception, ptr noundef %call14)
          to label %invoke.cont16 unwind label %lpad15

invoke.cont16:                                    ; preds = %invoke.cont13
  store i1 false, ptr %cleanup.isactive, align 1
  invoke void @__cxa_throw(ptr %exception, ptr @_ZTIN19OpenColorIO_v2_4dev9ExceptionE, ptr @_ZN19OpenColorIO_v2_4dev9ExceptionD1Ev) #17
          to label %unreachable unwind label %lpad15

lpad:                                             ; preds = %invoke.cont8, %invoke.cont, %if.then6
  %3 = landingpad { ptr, i32 }
          cleanup
  %4 = extractvalue { ptr, i32 } %3, 0
  store ptr %4, ptr %exn.slot, align 8
  %5 = extractvalue { ptr, i32 } %3, 1
  store i32 %5, ptr %ehselector.slot, align 4
  br label %ehcleanup17

lpad12:                                           ; preds = %invoke.cont10
  %6 = landingpad { ptr, i32 }
          cleanup
  %7 = extractvalue { ptr, i32 } %6, 0
  store ptr %7, ptr %exn.slot, align 8
  %8 = extractvalue { ptr, i32 } %6, 1
  store i32 %8, ptr %ehselector.slot, align 4
  br label %ehcleanup

lpad15:                                           ; preds = %invoke.cont16, %invoke.cont13
  %9 = landingpad { ptr, i32 }
          cleanup
  %10 = extractvalue { ptr, i32 } %9, 0
  store ptr %10, ptr %exn.slot, align 8
  %11 = extractvalue { ptr, i32 } %9, 1
  store i32 %11, ptr %ehselector.slot, align 4
  call void @_ZNSt7__cxx1112basic_stringIcSt11char_traitsIcESaIcEED1Ev(ptr noundef nonnull align 8 dereferenceable(32) %ref.tmp) #3
  br label %ehcleanup

ehcleanup:                                        ; preds = %lpad15, %lpad12
  %cleanup.is_active = load i1, ptr %cleanup.isactive, align 1
  br i1 %cleanup.is_active, label %cleanup.action, label %cleanup.done

cleanup.action:                                   ; preds = %ehcleanup
  call void @__cxa_free_exception(ptr %exception) #3
  br label %cleanup.done

cleanup.done:                                     ; preds = %cleanup.action, %ehcleanup
  br label %ehcleanup17

ehcleanup17:                                      ; preds = %cleanup.done, %lpad
  call void @_ZNSt7__cxx1119basic_ostringstreamIcSt11char_traitsIcESaIcEED1Ev(ptr noundef nonnull align 8 dereferenceable(112) %os) #3
  br label %eh.resume

if.end:                                           ; preds = %if.else
  br label %if.end18

if.end18:                                         ; preds = %if.end, %if.then
  call void @_ZN19OpenColorIO_v2_4dev10OpRcPtrVecC1Ev(ptr noundef nonnull align 8 dereferenceable(144) %ops)
  %12 = load ptr, ptr %config.addr, align 8
  %call19 = call noundef nonnull align 8 dereferenceable(8) ptr @_ZNKSt19__shared_ptr_accessIKN19OpenColorIO_v2_4dev6ConfigELN9__gnu_cxx12_Lock_policyE2ELb0ELb0EEdeEv(ptr noundef nonnull align 1 dereferenceable(1) %12) #3
  %13 = load ptr, ptr %context.addr, align 8
  %14 = load ptr, ptr %group.addr, align 8
  invoke void @_ZN19OpenColorIO_v2_4dev13BuildGroupOpsERNS_10OpRcPtrVecERKNS_6ConfigERKSt10shared_ptrIKNS_7ContextEERKNS_14GroupTransformENS_18TransformDirectionE(ptr noundef nonnull align 8 dereferenceable(144) %ops, ptr noundef nonnull align 8 dereferenceable(8) %call19, ptr noundef nonnull align 8 dereferenceable(16) %13, ptr noundef nonnull align 8 dereferenceable(8) %14, i32 noundef 0)
          to label %invoke.cont21 unwind label %lpad20

invoke.cont21:                                    ; preds = %if.end18
  invoke void @_ZN19OpenColorIO_v2_4dev10OpRcPtrVec8finalizeEv(ptr noundef nonnull align 8 dereferenceable(144) %ops)
          to label %invoke.cont22 unwind label %lpad20

invoke.cont22:                                    ; preds = %invoke.cont21
  invoke void @_ZN19OpenColorIO_v2_4dev10OpRcPtrVec8optimizeENS_17OptimizationFlagsE(ptr noundef nonnull align 8 dereferenceable(144) %ops, i64 noundef 0)
          to label %invoke.cont23 unwind label %lpad20

invoke.cont23:                                    ; preds = %invoke.cont22
  %15 = load ptr, ptr %group.addr, align 8
  %vtable = load ptr, ptr %15, align 8
  %vfn = getelementptr inbounds ptr, ptr %vtable, i64 7
  %16 = load ptr, ptr %vfn, align 8
  %call25 = call noundef nonnull align 8 dereferenceable(8) ptr %16(ptr noundef nonnull align 8 dereferenceable(8) %15) #3
  invoke void @_ZN19OpenColorIO_v2_4dev18FormatMetadataImplC1ERKNS_14FormatMetadataE(ptr noundef nonnull align 8 dereferenceable(120) %ref.tmp24, ptr noundef nonnull align 8 dereferenceable(8) %call25)
          to label %invoke.cont26 unwind label %lpad20

invoke.cont26:                                    ; preds = %invoke.cont23
  store ptr %ref.tmp24, ptr %metadata, align 8
  %17 = load ptr, ptr %metadata, align 8
  invoke void @_ZSt11make_sharedIN19OpenColorIO_v2_4dev18CTFReaderTransformEJRNS0_10OpRcPtrVecERKNS0_18FormatMetadataImplEEESt10shared_ptrINSt9enable_ifIXntsr8is_arrayIT_EE5valueES9_E4typeEEDpOT0_(ptr sret(%"class.std::shared_ptr.9") align 8 %transform, ptr noundef nonnull align 8 dereferenceable(144) %ops, ptr noundef nonnull align 8 dereferenceable(120) %17)
          to label %invoke.cont28 unwind label %lpad27

invoke.cont28:                                    ; preds = %invoke.cont26
  %18 = load ptr, ptr %ostream.addr, align 8
  %call31 = invoke noundef nonnull align 8 dereferenceable(8) ptr @_ZStlsISt11char_traitsIcEERSt13basic_ostreamIcT_ES5_PKc(ptr noundef nonnull align 8 dereferenceable(8) %18, ptr noundef @.str.69)
          to label %invoke.cont30 unwind label %lpad29

invoke.cont30:                                    ; preds = %invoke.cont28
  %call33 = invoke noundef nonnull align 8 dereferenceable(8) ptr @_ZNSolsEPFRSoS_E(ptr noundef nonnull align 8 dereferenceable(8) %call31, ptr noundef @_ZSt4endlIcSt11char_traitsIcEERSt13basic_ostreamIT_T0_ES6_)
          to label %invoke.cont32 unwind label %lpad29

invoke.cont32:                                    ; preds = %invoke.cont30
  %19 = load ptr, ptr %ostream.addr, align 8
  invoke void @_ZN19OpenColorIO_v2_4dev12XmlFormatterC1ERSo(ptr noundef nonnull align 8 dereferenceable(16) %fmt, ptr noundef nonnull align 8 dereferenceable(8) %19)
          to label %invoke.cont34 unwind label %lpad29

invoke.cont34:                                    ; preds = %invoke.cont32
  call void @_ZNSt10shared_ptrIKN19OpenColorIO_v2_4dev18CTFReaderTransformEEC2IS1_vEERKS_IT_E(ptr noundef nonnull align 8 dereferenceable(16) %agg.tmp, ptr noundef nonnull align 8 dereferenceable(16) %transform) #3
  %20 = load i8, ptr %isCLF, align 1
  %tobool = trunc i8 %20 to i1
  invoke void @_ZN19OpenColorIO_v2_4dev15TransformWriterC1ERNS_12XmlFormatterESt10shared_ptrIKNS_18CTFReaderTransformEEb(ptr noundef nonnull align 8 dereferenceable(33) %writer, ptr noundef nonnull align 8 dereferenceable(16) %fmt, ptr noundef %agg.tmp, i1 noundef zeroext %tobool)
          to label %invoke.cont36 unwind label %lpad35

invoke.cont36:                                    ; preds = %invoke.cont34
  call void @_ZNSt10shared_ptrIKN19OpenColorIO_v2_4dev18CTFReaderTransformEED2Ev(ptr noundef nonnull align 8 dereferenceable(16) %agg.tmp) #3
  invoke void @_ZNK19OpenColorIO_v2_4dev15TransformWriter5writeEv(ptr noundef nonnull align 8 dereferenceable(33) %writer)
          to label %invoke.cont39 unwind label %lpad38

invoke.cont39:                                    ; preds = %invoke.cont36
  call void @_ZN19OpenColorIO_v2_4dev15TransformWriterD1Ev(ptr noundef nonnull align 8 dereferenceable(33) %writer) #3
  call void @_ZN19OpenColorIO_v2_4dev12XmlFormatterD1Ev(ptr noundef nonnull align 8 dereferenceable(16) %fmt) #3
  call void @_ZNSt10shared_ptrIN19OpenColorIO_v2_4dev18CTFReaderTransformEED2Ev(ptr noundef nonnull align 8 dereferenceable(16) %transform) #3
  call void @_ZN19OpenColorIO_v2_4dev18FormatMetadataImplD1Ev(ptr noundef nonnull align 8 dereferenceable(120) %ref.tmp24) #3
  call void @_ZN19OpenColorIO_v2_4dev10OpRcPtrVecD2Ev(ptr noundef nonnull align 8 dereferenceable(144) %ops) #3
  ret void

lpad20:                                           ; preds = %invoke.cont23, %invoke.cont22, %invoke.cont21, %if.end18
  %21 = landingpad { ptr, i32 }
          cleanup
  %22 = extractvalue { ptr, i32 } %21, 0
  store ptr %22, ptr %exn.slot, align 8
  %23 = extractvalue { ptr, i32 } %21, 1
  store i32 %23, ptr %ehselector.slot, align 4
  br label %ehcleanup44

lpad27:                                           ; preds = %invoke.cont26
  %24 = landingpad { ptr, i32 }
          cleanup
  %25 = extractvalue { ptr, i32 } %24, 0
  store ptr %25, ptr %exn.slot, align 8
  %26 = extractvalue { ptr, i32 } %24, 1
  store i32 %26, ptr %ehselector.slot, align 4
  br label %ehcleanup43

lpad29:                                           ; preds = %invoke.cont32, %invoke.cont30, %invoke.cont28
  %27 = landingpad { ptr, i32 }
          cleanup
  %28 = extractvalue { ptr, i32 } %27, 0
  store ptr %28, ptr %exn.slot, align 8
  %29 = extractvalue { ptr, i32 } %27, 1
  store i32 %29, ptr %ehselector.slot, align 4
  br label %ehcleanup42

lpad35:                                           ; preds = %invoke.cont34
  %30 = landingpad { ptr, i32 }
          cleanup
  %31 = extractvalue { ptr, i32 } %30, 0
  store ptr %31, ptr %exn.slot, align 8
  %32 = extractvalue { ptr, i32 } %30, 1
  store i32 %32, ptr %ehselector.slot, align 4
  call void @_ZNSt10shared_ptrIKN19OpenColorIO_v2_4dev18CTFReaderTransformEED2Ev(ptr noundef nonnull align 8 dereferenceable(16) %agg.tmp) #3
  br label %ehcleanup41

lpad38:                                           ; preds = %invoke.cont36
  %33 = landingpad { ptr, i32 }
          cleanup
  %34 = extractvalue { ptr, i32 } %33, 0
  store ptr %34, ptr %exn.slot, align 8
  %35 = extractvalue { ptr, i32 } %33, 1
  store i32 %35, ptr %ehselector.slot, align 4
  call void @_ZN19OpenColorIO_v2_4dev15TransformWriterD1Ev(ptr noundef nonnull align 8 dereferenceable(33) %writer) #3
  br label %ehcleanup41

ehcleanup41:                                      ; preds = %lpad38, %lpad35
  call void @_ZN19OpenColorIO_v2_4dev12XmlFormatterD1Ev(ptr noundef nonnull align 8 dereferenceable(16) %fmt) #3
  br label %ehcleanup42

ehcleanup42:                                      ; preds = %ehcleanup41, %lpad29
  call void @_ZNSt10shared_ptrIN19OpenColorIO_v2_4dev18CTFReaderTransformEED2Ev(ptr noundef nonnull align 8 dereferenceable(16) %transform) #3
  br label %ehcleanup43

ehcleanup43:                                      ; preds = %ehcleanup42, %lpad27
  call void @_ZN19OpenColorIO_v2_4dev18FormatMetadataImplD1Ev(ptr noundef nonnull align 8 dereferenceable(120) %ref.tmp24) #3
  br label %ehcleanup44

ehcleanup44:                                      ; preds = %ehcleanup43, %lpad20
  call void @_ZN19OpenColorIO_v2_4dev10OpRcPtrVecD2Ev(ptr noundef nonnull align 8 dereferenceable(144) %ops) #3
  br label %eh.resume

eh.resume:                                        ; preds = %ehcleanup44, %ehcleanup17
  %exn = load ptr, ptr %exn.slot, align 8
  %sel = load i32, ptr %ehselector.slot, align 4
  %lpad.val = insertvalue { ptr, i32 } poison, ptr %exn, 0
  %lpad.val45 = insertvalue { ptr, i32 } %lpad.val, i32 %sel, 1
  resume { ptr, i32 } %lpad.val45

unreachable:                                      ; preds = %invoke.cont16
  unreachable
}

; Function Attrs: mustprogress uwtable
define internal void @_ZNK19OpenColorIO_v2_4dev12_GLOBAL__N_115LocalFileFormat12buildFileOpsERNS_10OpRcPtrVecERKNS_6ConfigERKSt10shared_ptrIKNS_7ContextEES7_INS_10CachedFileEERKNS_13FileTransformENS_18TransformDirectionE(ptr noundef nonnull align 8 dereferenceable(8) %this, ptr noundef nonnull align 8 dereferenceable(144) %ops, ptr noundef nonnull align 8 dereferenceable(8) %config, ptr noundef nonnull align 8 dereferenceable(16) %context, ptr noundef %untypedCachedFile, ptr noundef nonnull align 8 dereferenceable(16) %fileTransform, i32 noundef %dir) unnamed_addr #5 align 2 personality ptr @__gxx_personality_v0 {
entry:
  %this.addr = alloca ptr, align 8
  %ops.addr = alloca ptr, align 8
  %config.addr = alloca ptr, align 8
  %context.addr = alloca ptr, align 8
  %untypedCachedFile.indirect_addr = alloca ptr, align 8
  %fileTransform.addr = alloca ptr, align 8
  %dir.addr = alloca i32, align 4
  %cachedFile = alloca %"class.std::shared_ptr.12", align 8
  %exn.slot = alloca ptr, align 8
  %ehselector.slot = alloca i32, align 4
  %newDir = alloca i32, align 4
  %processorData = alloca ptr, align 8
  %opDataVec = alloca ptr, align 8
  %fileInterpolation = alloca i32, align 4
  %__range3 = alloca ptr, align 8
  %__begin3 = alloca %"class.__gnu_cxx::__normal_iterator.302", align 8
  %__end3 = alloca %"class.__gnu_cxx::__normal_iterator.302", align 8
  %opData = alloca %"class.std::shared_ptr.363", align 8
  %idx = alloca i32, align 4
  %opData30 = alloca %"class.std::shared_ptr.363", align 8
  store ptr %this, ptr %this.addr, align 8
  store ptr %ops, ptr %ops.addr, align 8
  store ptr %config, ptr %config.addr, align 8
  store ptr %context, ptr %context.addr, align 8
  store ptr %untypedCachedFile, ptr %untypedCachedFile.indirect_addr, align 8
  store ptr %fileTransform, ptr %fileTransform.addr, align 8
  store i32 %dir, ptr %dir.addr, align 4
  call void @_ZN19OpenColorIO_v2_4dev14DynamicPtrCastINS_12_GLOBAL__N_115LocalCachedFileENS_10CachedFileEEESt10shared_ptrIT_ERKS4_IT0_E(ptr sret(%"class.std::shared_ptr.12") align 8 %cachedFile, ptr noundef nonnull align 8 dereferenceable(16) %untypedCachedFile)
  %call = call noundef zeroext i1 @_ZNKSt12__shared_ptrIN19OpenColorIO_v2_4dev12_GLOBAL__N_115LocalCachedFileELN9__gnu_cxx12_Lock_policyE2EEcvbEv(ptr noundef nonnull align 8 dereferenceable(16) %cachedFile) #3
  br i1 %call, label %if.end, label %if.then

if.then:                                          ; preds = %entry
  %exception = call ptr @__cxa_allocate_exception(i64 16) #3
  invoke void @_ZN19OpenColorIO_v2_4dev9ExceptionC1EPKc(ptr noundef nonnull align 8 dereferenceable(16) %exception, ptr noundef @.str.70)
          to label %invoke.cont unwind label %lpad

invoke.cont:                                      ; preds = %if.then
  invoke void @__cxa_throw(ptr %exception, ptr @_ZTIN19OpenColorIO_v2_4dev9ExceptionE, ptr @_ZN19OpenColorIO_v2_4dev9ExceptionD1Ev) #17
          to label %unreachable unwind label %lpad2

lpad:                                             ; preds = %if.then
  %0 = landingpad { ptr, i32 }
          cleanup
  %1 = extractvalue { ptr, i32 } %0, 0
  store ptr %1, ptr %exn.slot, align 8
  %2 = extractvalue { ptr, i32 } %0, 1
  store i32 %2, ptr %ehselector.slot, align 4
  call void @__cxa_free_exception(ptr %exception) #3
  br label %ehcleanup

lpad2:                                            ; preds = %invoke.cont10, %invoke.cont6, %invoke.cont4, %if.end, %invoke.cont
  %3 = landingpad { ptr, i32 }
          cleanup
  %4 = extractvalue { ptr, i32 } %3, 0
  store ptr %4, ptr %exn.slot, align 8
  %5 = extractvalue { ptr, i32 } %3, 1
  store i32 %5, ptr %ehselector.slot, align 4
  br label %ehcleanup

if.end:                                           ; preds = %entry
  %6 = load i32, ptr %dir.addr, align 4
  %7 = load ptr, ptr %fileTransform.addr, align 8
  %vtable = load ptr, ptr %7, align 8
  %vfn = getelementptr inbounds ptr, ptr %vtable, i64 1
  %8 = load ptr, ptr %vfn, align 8
  %call3 = call noundef i32 %8(ptr noundef nonnull align 8 dereferenceable(16) %7) #3
  %call5 = invoke noundef i32 @_ZN19OpenColorIO_v2_4dev26CombineTransformDirectionsENS_18TransformDirectionES0_(i32 noundef %6, i32 noundef %call3)
          to label %invoke.cont4 unwind label %lpad2

invoke.cont4:                                     ; preds = %if.end
  store i32 %call5, ptr %newDir, align 4
  %9 = load ptr, ptr %ops.addr, align 8
  %call7 = invoke noundef nonnull align 8 dereferenceable(120) ptr @_ZN19OpenColorIO_v2_4dev10OpRcPtrVec17getFormatMetadataEv(ptr noundef nonnull align 8 dereferenceable(144) %9)
          to label %invoke.cont6 unwind label %lpad2

invoke.cont6:                                     ; preds = %invoke.cont4
  store ptr %call7, ptr %processorData, align 8
  %call8 = call noundef ptr @_ZNKSt19__shared_ptr_accessIN19OpenColorIO_v2_4dev12_GLOBAL__N_115LocalCachedFileELN9__gnu_cxx12_Lock_policyE2ELb0ELb0EEptEv(ptr noundef nonnull align 1 dereferenceable(1) %cachedFile) #3
  %m_transform = getelementptr inbounds %"class.OpenColorIO_v2_4dev::(anonymous namespace)::LocalCachedFile", ptr %call8, i32 0, i32 1
  %call9 = call noundef ptr @_ZNKSt19__shared_ptr_accessIN19OpenColorIO_v2_4dev18CTFReaderTransformELN9__gnu_cxx12_Lock_policyE2ELb0ELb0EEptEv(ptr noundef nonnull align 1 dereferenceable(1) %m_transform) #3
  %10 = load ptr, ptr %processorData, align 8
  invoke void @_ZNK19OpenColorIO_v2_4dev18CTFReaderTransform10toMetadataERNS_18FormatMetadataImplE(ptr noundef nonnull align 8 dereferenceable(356) %call9, ptr noundef nonnull align 8 dereferenceable(120) %10)
          to label %invoke.cont10 unwind label %lpad2

invoke.cont10:                                    ; preds = %invoke.cont6
  %call11 = call noundef ptr @_ZNKSt19__shared_ptr_accessIN19OpenColorIO_v2_4dev12_GLOBAL__N_115LocalCachedFileELN9__gnu_cxx12_Lock_policyE2ELb0ELb0EEptEv(ptr noundef nonnull align 1 dereferenceable(1) %cachedFile) #3
  %m_transform12 = getelementptr inbounds %"class.OpenColorIO_v2_4dev::(anonymous namespace)::LocalCachedFile", ptr %call11, i32 0, i32 1
  %call13 = call noundef ptr @_ZNKSt19__shared_ptr_accessIN19OpenColorIO_v2_4dev18CTFReaderTransformELN9__gnu_cxx12_Lock_policyE2ELb0ELb0EEptEv(ptr noundef nonnull align 1 dereferenceable(1) %m_transform12) #3
  %call14 = call noundef nonnull align 8 dereferenceable(24) ptr @_ZN19OpenColorIO_v2_4dev18CTFReaderTransform6getOpsEv(ptr noundef nonnull align 8 dereferenceable(356) %call13)
  store ptr %call14, ptr %opDataVec, align 8
  %11 = load ptr, ptr %fileTransform.addr, align 8
  %call16 = invoke noundef i32 @_ZNK19OpenColorIO_v2_4dev13FileTransform16getInterpolationEv(ptr noundef nonnull align 8 dereferenceable(16) %11)
          to label %invoke.cont15 unwind label %lpad2

invoke.cont15:                                    ; preds = %invoke.cont10
  store i32 %call16, ptr %fileInterpolation, align 4
  %12 = load i32, ptr %newDir, align 4
  switch i32 %12, label %sw.epilog [
    i32 0, label %sw.bb
    i32 1, label %sw.bb26
  ]

sw.bb:                                            ; preds = %invoke.cont15
  %13 = load ptr, ptr %opDataVec, align 8
  store ptr %13, ptr %__range3, align 8
  %14 = load ptr, ptr %__range3, align 8
  %call17 = call ptr @_ZNKSt6vectorISt10shared_ptrIKN19OpenColorIO_v2_4dev6OpDataEESaIS4_EE5beginEv(ptr noundef nonnull align 8 dereferenceable(24) %14) #3
  %coerce.dive = getelementptr inbounds %"class.__gnu_cxx::__normal_iterator.302", ptr %__begin3, i32 0, i32 0
  store ptr %call17, ptr %coerce.dive, align 8
  %15 = load ptr, ptr %__range3, align 8
  %call18 = call ptr @_ZNKSt6vectorISt10shared_ptrIKN19OpenColorIO_v2_4dev6OpDataEESaIS4_EE3endEv(ptr noundef nonnull align 8 dereferenceable(24) %15) #3
  %coerce.dive19 = getelementptr inbounds %"class.__gnu_cxx::__normal_iterator.302", ptr %__end3, i32 0, i32 0
  store ptr %call18, ptr %coerce.dive19, align 8
  br label %for.cond

for.cond:                                         ; preds = %for.inc, %sw.bb
  %call20 = call noundef zeroext i1 @_ZN9__gnu_cxxneIPKSt10shared_ptrIKN19OpenColorIO_v2_4dev6OpDataEESt6vectorIS5_SaIS5_EEEEbRKNS_17__normal_iteratorIT_T0_EESG_(ptr noundef nonnull align 8 dereferenceable(8) %__begin3, ptr noundef nonnull align 8 dereferenceable(8) %__end3) #3
  br i1 %call20, label %for.body, label %for.end

for.body:                                         ; preds = %for.cond
  %call21 = call noundef nonnull align 8 dereferenceable(16) ptr @_ZNK9__gnu_cxx17__normal_iteratorIPKSt10shared_ptrIKN19OpenColorIO_v2_4dev6OpDataEESt6vectorIS5_SaIS5_EEEdeEv(ptr noundef nonnull align 8 dereferenceable(8) %__begin3) #3
  call void @_ZNSt10shared_ptrIKN19OpenColorIO_v2_4dev6OpDataEEC2ERKS3_(ptr noundef nonnull align 8 dereferenceable(16) %opData, ptr noundef nonnull align 8 dereferenceable(16) %call21) #3
  %16 = load i32, ptr %fileInterpolation, align 4
  invoke void @_ZN19OpenColorIO_v2_4dev12_GLOBAL__N_19HandleLUTERSt10shared_ptrIKNS_6OpDataEENS_13InterpolationE(ptr noundef nonnull align 8 dereferenceable(16) %opData, i32 noundef %16)
          to label %invoke.cont23 unwind label %lpad22

invoke.cont23:                                    ; preds = %for.body
  %17 = load ptr, ptr %ops.addr, align 8
  %18 = load ptr, ptr %config.addr, align 8
  %19 = load ptr, ptr %context.addr, align 8
  %20 = load i32, ptr %newDir, align 4
  invoke void @_ZN19OpenColorIO_v2_4dev12_GLOBAL__N_17BuildOpERNS_10OpRcPtrVecERKNS_6ConfigERKSt10shared_ptrIKNS_7ContextEERKS6_IKNS_6OpDataEENS_18TransformDirectionE(ptr noundef nonnull align 8 dereferenceable(144) %17, ptr noundef nonnull align 8 dereferenceable(8) %18, ptr noundef nonnull align 8 dereferenceable(16) %19, ptr noundef nonnull align 8 dereferenceable(16) %opData, i32 noundef %20)
          to label %invoke.cont24 unwind label %lpad22

invoke.cont24:                                    ; preds = %invoke.cont23
  call void @_ZNSt10shared_ptrIKN19OpenColorIO_v2_4dev6OpDataEED2Ev(ptr noundef nonnull align 8 dereferenceable(16) %opData) #3
  br label %for.inc

for.inc:                                          ; preds = %invoke.cont24
  %call25 = call noundef nonnull align 8 dereferenceable(8) ptr @_ZN9__gnu_cxx17__normal_iteratorIPKSt10shared_ptrIKN19OpenColorIO_v2_4dev6OpDataEESt6vectorIS5_SaIS5_EEEppEv(ptr noundef nonnull align 8 dereferenceable(8) %__begin3) #3
  br label %for.cond

lpad22:                                           ; preds = %invoke.cont23, %for.body
  %21 = landingpad { ptr, i32 }
          cleanup
  %22 = extractvalue { ptr, i32 } %21, 0
  store ptr %22, ptr %exn.slot, align 8
  %23 = extractvalue { ptr, i32 } %21, 1
  store i32 %23, ptr %ehselector.slot, align 4
  call void @_ZNSt10shared_ptrIKN19OpenColorIO_v2_4dev6OpDataEED2Ev(ptr noundef nonnull align 8 dereferenceable(16) %opData) #3
  br label %ehcleanup

for.end:                                          ; preds = %for.cond
  br label %sw.epilog

sw.bb26:                                          ; preds = %invoke.cont15
  %24 = load ptr, ptr %opDataVec, align 8
  %call27 = call noundef i64 @_ZNKSt6vectorISt10shared_ptrIKN19OpenColorIO_v2_4dev6OpDataEESaIS4_EE4sizeEv(ptr noundef nonnull align 8 dereferenceable(24) %24) #3
  %conv = trunc i64 %call27 to i32
  %sub = sub nsw i32 %conv, 1
  store i32 %sub, ptr %idx, align 4
  br label %for.cond28

for.cond28:                                       ; preds = %for.inc36, %sw.bb26
  %25 = load i32, ptr %idx, align 4
  %cmp = icmp sge i32 %25, 0
  br i1 %cmp, label %for.body29, label %for.end37

for.body29:                                       ; preds = %for.cond28
  %26 = load ptr, ptr %opDataVec, align 8
  %27 = load i32, ptr %idx, align 4
  %conv31 = sext i32 %27 to i64
  %call32 = call noundef nonnull align 8 dereferenceable(16) ptr @_ZNKSt6vectorISt10shared_ptrIKN19OpenColorIO_v2_4dev6OpDataEESaIS4_EEixEm(ptr noundef nonnull align 8 dereferenceable(24) %26, i64 noundef %conv31) #3
  call void @_ZNSt10shared_ptrIKN19OpenColorIO_v2_4dev6OpDataEEC2ERKS3_(ptr noundef nonnull align 8 dereferenceable(16) %opData30, ptr noundef nonnull align 8 dereferenceable(16) %call32) #3
  %28 = load i32, ptr %fileInterpolation, align 4
  invoke void @_ZN19OpenColorIO_v2_4dev12_GLOBAL__N_19HandleLUTERSt10shared_ptrIKNS_6OpDataEENS_13InterpolationE(ptr noundef nonnull align 8 dereferenceable(16) %opData30, i32 noundef %28)
          to label %invoke.cont34 unwind label %lpad33

invoke.cont34:                                    ; preds = %for.body29
  %29 = load ptr, ptr %ops.addr, align 8
  %30 = load ptr, ptr %config.addr, align 8
  %31 = load ptr, ptr %context.addr, align 8
  %32 = load i32, ptr %newDir, align 4
  invoke void @_ZN19OpenColorIO_v2_4dev12_GLOBAL__N_17BuildOpERNS_10OpRcPtrVecERKNS_6ConfigERKSt10shared_ptrIKNS_7ContextEERKS6_IKNS_6OpDataEENS_18TransformDirectionE(ptr noundef nonnull align 8 dereferenceable(144) %29, ptr noundef nonnull align 8 dereferenceable(8) %30, ptr noundef nonnull align 8 dereferenceable(16) %31, ptr noundef nonnull align 8 dereferenceable(16) %opData30, i32 noundef %32)
          to label %invoke.cont35 unwind label %lpad33

invoke.cont35:                                    ; preds = %invoke.cont34
  call void @_ZNSt10shared_ptrIKN19OpenColorIO_v2_4dev6OpDataEED2Ev(ptr noundef nonnull align 8 dereferenceable(16) %opData30) #3
  br label %for.inc36

for.inc36:                                        ; preds = %invoke.cont35
  %33 = load i32, ptr %idx, align 4
  %dec = add nsw i32 %33, -1
  store i32 %dec, ptr %idx, align 4
  br label %for.cond28, !llvm.loop !4

lpad33:                                           ; preds = %invoke.cont34, %for.body29
  %34 = landingpad { ptr, i32 }
          cleanup
  %35 = extractvalue { ptr, i32 } %34, 0
  store ptr %35, ptr %exn.slot, align 8
  %36 = extractvalue { ptr, i32 } %34, 1
  store i32 %36, ptr %ehselector.slot, align 4
  call void @_ZNSt10shared_ptrIKN19OpenColorIO_v2_4dev6OpDataEED2Ev(ptr noundef nonnull align 8 dereferenceable(16) %opData30) #3
  br label %ehcleanup

for.end37:                                        ; preds = %for.cond28
  br label %sw.epilog

sw.epilog:                                        ; preds = %for.end37, %for.end, %invoke.cont15
  call void @_ZNSt10shared_ptrIN19OpenColorIO_v2_4dev12_GLOBAL__N_115LocalCachedFileEED2Ev(ptr noundef nonnull align 8 dereferenceable(16) %cachedFile) #3
  ret void

ehcleanup:                                        ; preds = %lpad33, %lpad22, %lpad2, %lpad
  call void @_ZNSt10shared_ptrIN19OpenColorIO_v2_4dev12_GLOBAL__N_115LocalCachedFileEED2Ev(ptr noundef nonnull align 8 dereferenceable(16) %cachedFile) #3
  br label %eh.resume

eh.resume:                                        ; preds = %ehcleanup
  %exn = load ptr, ptr %exn.slot, align 8
  %sel = load i32, ptr %ehselector.slot, align 4
  %lpad.val = insertvalue { ptr, i32 } poison, ptr %exn, 0
  %lpad.val38 = insertvalue { ptr, i32 } %lpad.val, i32 %sel, 1
  resume { ptr, i32 } %lpad.val38

unreachable:                                      ; preds = %invoke.cont
  unreachable
}

; Function Attrs: mustprogress nounwind uwtable
define linkonce_odr hidden noundef zeroext i1 @_ZNK19OpenColorIO_v2_4dev10FileFormat8isBinaryEv(ptr noundef nonnull align 8 dereferenceable(8) %this) unnamed_addr #4 comdat align 2 {
entry:
  %this.addr = alloca ptr, align 8
  store ptr %this, ptr %this.addr, align 8
  ret i1 false
}

; Function Attrs: nounwind
declare void @_ZN19OpenColorIO_v2_4dev10FileFormatD2Ev(ptr noundef nonnull align 8 dereferenceable(8)) unnamed_addr #2

; Function Attrs: nobuiltin nounwind
declare void @_ZdlPv(ptr noundef) #8

; Function Attrs: mustprogress nounwind uwtable
define linkonce_odr hidden void @_ZN19OpenColorIO_v2_4dev10FormatInfoC2Ev(ptr noundef nonnull align 8 dereferenceable(72) %this) unnamed_addr #4 comdat align 2 {
entry:
  %this.addr = alloca ptr, align 8
  store ptr %this, ptr %this.addr, align 8
  %this1 = load ptr, ptr %this.addr, align 8
  %name = getelementptr inbounds %"struct.OpenColorIO_v2_4dev::FormatInfo", ptr %this1, i32 0, i32 0
  call void @_ZNSt7__cxx1112basic_stringIcSt11char_traitsIcESaIcEEC1Ev(ptr noundef nonnull align 8 dereferenceable(32) %name) #3
  %extension = getelementptr inbounds %"struct.OpenColorIO_v2_4dev::FormatInfo", ptr %this1, i32 0, i32 1
  call void @_ZNSt7__cxx1112basic_stringIcSt11char_traitsIcESaIcEEC1Ev(ptr noundef nonnull align 8 dereferenceable(32) %extension) #3
  %capabilities = getelementptr inbounds %"struct.OpenColorIO_v2_4dev::FormatInfo", ptr %this1, i32 0, i32 2
  store i32 0, ptr %capabilities, align 8
  %bake_capabilities = getelementptr inbounds %"struct.OpenColorIO_v2_4dev::FormatInfo", ptr %this1, i32 0, i32 3
  store i32 0, ptr %bake_capabilities, align 4
  ret void
}

declare noundef nonnull align 8 dereferenceable(32) ptr @_ZNSt7__cxx1112basic_stringIcSt11char_traitsIcESaIcEEaSEPKc(ptr noundef nonnull align 8 dereferenceable(32), ptr noundef) #1

declare i32 @__gxx_personality_v0(...)

; Function Attrs: mustprogress uwtable
define linkonce_odr hidden void @_ZNSt6vectorIN19OpenColorIO_v2_4dev10FormatInfoESaIS1_EE9push_backERKS1_(ptr noundef nonnull align 8 dereferenceable(24) %this, ptr noundef nonnull align 8 dereferenceable(72) %__x) #5 comdat align 2 {
entry:
  %this.addr = alloca ptr, align 8
  %__x.addr = alloca ptr, align 8
  %agg.tmp = alloca %"class.__gnu_cxx::__normal_iterator", align 8
  store ptr %this, ptr %this.addr, align 8
  store ptr %__x, ptr %__x.addr, align 8
  %this1 = load ptr, ptr %this.addr, align 8
  %_M_impl = getelementptr inbounds %"struct.std::_Vector_base", ptr %this1, i32 0, i32 0
  %_M_finish = getelementptr inbounds %"struct.std::_Vector_base<OpenColorIO_v2_4dev::FormatInfo, std::allocator<OpenColorIO_v2_4dev::FormatInfo>>::_Vector_impl_data", ptr %_M_impl, i32 0, i32 1
  %0 = load ptr, ptr %_M_finish, align 8
  %_M_impl2 = getelementptr inbounds %"struct.std::_Vector_base", ptr %this1, i32 0, i32 0
  %_M_end_of_storage = getelementptr inbounds %"struct.std::_Vector_base<OpenColorIO_v2_4dev::FormatInfo, std::allocator<OpenColorIO_v2_4dev::FormatInfo>>::_Vector_impl_data", ptr %_M_impl2, i32 0, i32 2
  %1 = load ptr, ptr %_M_end_of_storage, align 8
  %cmp = icmp ne ptr %0, %1
  br i1 %cmp, label %if.then, label %if.else

if.then:                                          ; preds = %entry
  %_M_impl3 = getelementptr inbounds %"struct.std::_Vector_base", ptr %this1, i32 0, i32 0
  %_M_impl4 = getelementptr inbounds %"struct.std::_Vector_base", ptr %this1, i32 0, i32 0
  %_M_finish5 = getelementptr inbounds %"struct.std::_Vector_base<OpenColorIO_v2_4dev::FormatInfo, std::allocator<OpenColorIO_v2_4dev::FormatInfo>>::_Vector_impl_data", ptr %_M_impl4, i32 0, i32 1
  %2 = load ptr, ptr %_M_finish5, align 8
  %3 = load ptr, ptr %__x.addr, align 8
  call void @_ZNSt16allocator_traitsISaIN19OpenColorIO_v2_4dev10FormatInfoEEE9constructIS1_JRKS1_EEEvRS2_PT_DpOT0_(ptr noundef nonnull align 1 dereferenceable(1) %_M_impl3, ptr noundef %2, ptr noundef nonnull align 8 dereferenceable(72) %3)
  %_M_impl6 = getelementptr inbounds %"struct.std::_Vector_base", ptr %this1, i32 0, i32 0
  %_M_finish7 = getelementptr inbounds %"struct.std::_Vector_base<OpenColorIO_v2_4dev::FormatInfo, std::allocator<OpenColorIO_v2_4dev::FormatInfo>>::_Vector_impl_data", ptr %_M_impl6, i32 0, i32 1
  %4 = load ptr, ptr %_M_finish7, align 8
  %incdec.ptr = getelementptr inbounds %"struct.OpenColorIO_v2_4dev::FormatInfo", ptr %4, i32 1
  store ptr %incdec.ptr, ptr %_M_finish7, align 8
  br label %if.end

if.else:                                          ; preds = %entry
  %call = call ptr @_ZNSt6vectorIN19OpenColorIO_v2_4dev10FormatInfoESaIS1_EE3endEv(ptr noundef nonnull align 8 dereferenceable(24) %this1) #3
  %coerce.dive = getelementptr inbounds %"class.__gnu_cxx::__normal_iterator", ptr %agg.tmp, i32 0, i32 0
  store ptr %call, ptr %coerce.dive, align 8
  %5 = load ptr, ptr %__x.addr, align 8
  %coerce.dive8 = getelementptr inbounds %"class.__gnu_cxx::__normal_iterator", ptr %agg.tmp, i32 0, i32 0
  %6 = load ptr, ptr %coerce.dive8, align 8
  call void @_ZNSt6vectorIN19OpenColorIO_v2_4dev10FormatInfoESaIS1_EE17_M_realloc_insertIJRKS1_EEEvN9__gnu_cxx17__normal_iteratorIPS1_S3_EEDpOT_(ptr noundef nonnull align 8 dereferenceable(24) %this1, ptr %6, ptr noundef nonnull align 8 dereferenceable(72) %5)
  br label %if.end

if.end:                                           ; preds = %if.else, %if.then
  ret void
}

; Function Attrs: mustprogress nounwind uwtable
define linkonce_odr hidden void @_ZN19OpenColorIO_v2_4dev10FormatInfoD2Ev(ptr noundef nonnull align 8 dereferenceable(72) %this) unnamed_addr #4 comdat align 2 {
entry:
  %this.addr = alloca ptr, align 8
  store ptr %this, ptr %this.addr, align 8
  %this1 = load ptr, ptr %this.addr, align 8
  %extension = getelementptr inbounds %"struct.OpenColorIO_v2_4dev::FormatInfo", ptr %this1, i32 0, i32 1
  call void @_ZNSt7__cxx1112basic_stringIcSt11char_traitsIcESaIcEED1Ev(ptr noundef nonnull align 8 dereferenceable(32) %extension) #3
  %name = getelementptr inbounds %"struct.OpenColorIO_v2_4dev::FormatInfo", ptr %this1, i32 0, i32 0
  call void @_ZNSt7__cxx1112basic_stringIcSt11char_traitsIcESaIcEED1Ev(ptr noundef nonnull align 8 dereferenceable(32) %name) #3
  ret void
}

; Function Attrs: nounwind
declare void @_ZNSt7__cxx1112basic_stringIcSt11char_traitsIcESaIcEEC1Ev(ptr noundef nonnull align 8 dereferenceable(32)) unnamed_addr #2

; Function Attrs: mustprogress uwtable
define linkonce_odr hidden void @_ZNSt16allocator_traitsISaIN19OpenColorIO_v2_4dev10FormatInfoEEE9constructIS1_JRKS1_EEEvRS2_PT_DpOT0_(ptr noundef nonnull align 1 dereferenceable(1) %__a, ptr noundef %__p, ptr noundef nonnull align 8 dereferenceable(72) %__args) #5 comdat align 2 {
entry:
  %__a.addr = alloca ptr, align 8
  %__p.addr = alloca ptr, align 8
  %__args.addr = alloca ptr, align 8
  store ptr %__a, ptr %__a.addr, align 8
  store ptr %__p, ptr %__p.addr, align 8
  store ptr %__args, ptr %__args.addr, align 8
  %0 = load ptr, ptr %__a.addr, align 8
  %1 = load ptr, ptr %__p.addr, align 8
  %2 = load ptr, ptr %__args.addr, align 8
  call void @_ZNSt15__new_allocatorIN19OpenColorIO_v2_4dev10FormatInfoEE9constructIS1_JRKS1_EEEvPT_DpOT0_(ptr noundef nonnull align 1 dereferenceable(1) %0, ptr noundef %1, ptr noundef nonnull align 8 dereferenceable(72) %2)
  ret void
}

; Function Attrs: mustprogress uwtable
define linkonce_odr hidden void @_ZNSt6vectorIN19OpenColorIO_v2_4dev10FormatInfoESaIS1_EE17_M_realloc_insertIJRKS1_EEEvN9__gnu_cxx17__normal_iteratorIPS1_S3_EEDpOT_(ptr noundef nonnull align 8 dereferenceable(24) %this, ptr %__position.coerce, ptr noundef nonnull align 8 dereferenceable(72) %__args) #5 comdat align 2 personality ptr @__gxx_personality_v0 {
entry:
  %__position = alloca %"class.__gnu_cxx::__normal_iterator", align 8
  %this.addr = alloca ptr, align 8
  %__args.addr = alloca ptr, align 8
  %__len = alloca i64, align 8
  %__old_start = alloca ptr, align 8
  %__old_finish = alloca ptr, align 8
  %__elems_before = alloca i64, align 8
  %ref.tmp = alloca %"class.__gnu_cxx::__normal_iterator", align 8
  %__new_start = alloca ptr, align 8
  %__new_finish = alloca ptr, align 8
  %exn.slot = alloca ptr, align 8
  %ehselector.slot = alloca i32, align 4
  %coerce.dive = getelementptr inbounds %"class.__gnu_cxx::__normal_iterator", ptr %__position, i32 0, i32 0
  store ptr %__position.coerce, ptr %coerce.dive, align 8
  store ptr %this, ptr %this.addr, align 8
  store ptr %__args, ptr %__args.addr, align 8
  %this1 = load ptr, ptr %this.addr, align 8
  %call = call noundef i64 @_ZNKSt6vectorIN19OpenColorIO_v2_4dev10FormatInfoESaIS1_EE12_M_check_lenEmPKc(ptr noundef nonnull align 8 dereferenceable(24) %this1, i64 noundef 1, ptr noundef @.str.14)
  store i64 %call, ptr %__len, align 8
  %_M_impl = getelementptr inbounds %"struct.std::_Vector_base", ptr %this1, i32 0, i32 0
  %_M_start = getelementptr inbounds %"struct.std::_Vector_base<OpenColorIO_v2_4dev::FormatInfo, std::allocator<OpenColorIO_v2_4dev::FormatInfo>>::_Vector_impl_data", ptr %_M_impl, i32 0, i32 0
  %0 = load ptr, ptr %_M_start, align 8
  store ptr %0, ptr %__old_start, align 8
  %_M_impl2 = getelementptr inbounds %"struct.std::_Vector_base", ptr %this1, i32 0, i32 0
  %_M_finish = getelementptr inbounds %"struct.std::_Vector_base<OpenColorIO_v2_4dev::FormatInfo, std::allocator<OpenColorIO_v2_4dev::FormatInfo>>::_Vector_impl_data", ptr %_M_impl2, i32 0, i32 1
  %1 = load ptr, ptr %_M_finish, align 8
  store ptr %1, ptr %__old_finish, align 8
  %call3 = call ptr @_ZNSt6vectorIN19OpenColorIO_v2_4dev10FormatInfoESaIS1_EE5beginEv(ptr noundef nonnull align 8 dereferenceable(24) %this1) #3
  %coerce.dive4 = getelementptr inbounds %"class.__gnu_cxx::__normal_iterator", ptr %ref.tmp, i32 0, i32 0
  store ptr %call3, ptr %coerce.dive4, align 8
  %call5 = call noundef i64 @_ZN9__gnu_cxxmiIPN19OpenColorIO_v2_4dev10FormatInfoESt6vectorIS2_SaIS2_EEEENS_17__normal_iteratorIT_T0_E15difference_typeERKSA_SD_(ptr noundef nonnull align 8 dereferenceable(8) %__position, ptr noundef nonnull align 8 dereferenceable(8) %ref.tmp) #3
  store i64 %call5, ptr %__elems_before, align 8
  %2 = load i64, ptr %__len, align 8
  %call6 = call noundef ptr @_ZNSt12_Vector_baseIN19OpenColorIO_v2_4dev10FormatInfoESaIS1_EE11_M_allocateEm(ptr noundef nonnull align 8 dereferenceable(24) %this1, i64 noundef %2)
  store ptr %call6, ptr %__new_start, align 8
  %3 = load ptr, ptr %__new_start, align 8
  store ptr %3, ptr %__new_finish, align 8
  %_M_impl7 = getelementptr inbounds %"struct.std::_Vector_base", ptr %this1, i32 0, i32 0
  %4 = load ptr, ptr %__new_start, align 8
  %5 = load i64, ptr %__elems_before, align 8
  %add.ptr = getelementptr inbounds %"struct.OpenColorIO_v2_4dev::FormatInfo", ptr %4, i64 %5
  %6 = load ptr, ptr %__args.addr, align 8
  invoke void @_ZNSt16allocator_traitsISaIN19OpenColorIO_v2_4dev10FormatInfoEEE9constructIS1_JRKS1_EEEvRS2_PT_DpOT0_(ptr noundef nonnull align 1 dereferenceable(1) %_M_impl7, ptr noundef %add.ptr, ptr noundef nonnull align 8 dereferenceable(72) %6)
          to label %invoke.cont unwind label %lpad

invoke.cont:                                      ; preds = %entry
  store ptr null, ptr %__new_finish, align 8
  %7 = load ptr, ptr %__old_start, align 8
  %call8 = call noundef nonnull align 8 dereferenceable(8) ptr @_ZNK9__gnu_cxx17__normal_iteratorIPN19OpenColorIO_v2_4dev10FormatInfoESt6vectorIS2_SaIS2_EEE4baseEv(ptr noundef nonnull align 8 dereferenceable(8) %__position) #3
  %8 = load ptr, ptr %call8, align 8
  %9 = load ptr, ptr %__new_start, align 8
  %call9 = call noundef nonnull align 1 dereferenceable(1) ptr @_ZNSt12_Vector_baseIN19OpenColorIO_v2_4dev10FormatInfoESaIS1_EE19_M_get_Tp_allocatorEv(ptr noundef nonnull align 8 dereferenceable(24) %this1) #3
  %call10 = call noundef ptr @_ZNSt6vectorIN19OpenColorIO_v2_4dev10FormatInfoESaIS1_EE11_S_relocateEPS1_S4_S4_RS2_(ptr noundef %7, ptr noundef %8, ptr noundef %9, ptr noundef nonnull align 1 dereferenceable(1) %call9) #3
  store ptr %call10, ptr %__new_finish, align 8
  %10 = load ptr, ptr %__new_finish, align 8
  %incdec.ptr = getelementptr inbounds %"struct.OpenColorIO_v2_4dev::FormatInfo", ptr %10, i32 1
  store ptr %incdec.ptr, ptr %__new_finish, align 8
  %call11 = call noundef nonnull align 8 dereferenceable(8) ptr @_ZNK9__gnu_cxx17__normal_iteratorIPN19OpenColorIO_v2_4dev10FormatInfoESt6vectorIS2_SaIS2_EEE4baseEv(ptr noundef nonnull align 8 dereferenceable(8) %__position) #3
  %11 = load ptr, ptr %call11, align 8
  %12 = load ptr, ptr %__old_finish, align 8
  %13 = load ptr, ptr %__new_finish, align 8
  %call12 = call noundef nonnull align 1 dereferenceable(1) ptr @_ZNSt12_Vector_baseIN19OpenColorIO_v2_4dev10FormatInfoESaIS1_EE19_M_get_Tp_allocatorEv(ptr noundef nonnull align 8 dereferenceable(24) %this1) #3
  %call13 = call noundef ptr @_ZNSt6vectorIN19OpenColorIO_v2_4dev10FormatInfoESaIS1_EE11_S_relocateEPS1_S4_S4_RS2_(ptr noundef %11, ptr noundef %12, ptr noundef %13, ptr noundef nonnull align 1 dereferenceable(1) %call12) #3
  store ptr %call13, ptr %__new_finish, align 8
  br label %try.cont

lpad:                                             ; preds = %entry
  %14 = landingpad { ptr, i32 }
          catch ptr null
  %15 = extractvalue { ptr, i32 } %14, 0
  store ptr %15, ptr %exn.slot, align 8
  %16 = extractvalue { ptr, i32 } %14, 1
  store i32 %16, ptr %ehselector.slot, align 4
  br label %catch

catch:                                            ; preds = %lpad
  %exn = load ptr, ptr %exn.slot, align 8
  %17 = call ptr @__cxa_begin_catch(ptr %exn) #3
  %18 = load ptr, ptr %__new_finish, align 8
  %tobool = icmp ne ptr %18, null
  br i1 %tobool, label %if.else, label %if.then

if.then:                                          ; preds = %catch
  %_M_impl14 = getelementptr inbounds %"struct.std::_Vector_base", ptr %this1, i32 0, i32 0
  %19 = load ptr, ptr %__new_start, align 8
  %20 = load i64, ptr %__elems_before, align 8
  %add.ptr15 = getelementptr inbounds %"struct.OpenColorIO_v2_4dev::FormatInfo", ptr %19, i64 %20
  call void @_ZNSt16allocator_traitsISaIN19OpenColorIO_v2_4dev10FormatInfoEEE7destroyIS1_EEvRS2_PT_(ptr noundef nonnull align 1 dereferenceable(1) %_M_impl14, ptr noundef %add.ptr15) #3
  br label %if.end

if.else:                                          ; preds = %catch
  %21 = load ptr, ptr %__new_start, align 8
  %22 = load ptr, ptr %__new_finish, align 8
  %call16 = call noundef nonnull align 1 dereferenceable(1) ptr @_ZNSt12_Vector_baseIN19OpenColorIO_v2_4dev10FormatInfoESaIS1_EE19_M_get_Tp_allocatorEv(ptr noundef nonnull align 8 dereferenceable(24) %this1) #3
  invoke void @_ZSt8_DestroyIPN19OpenColorIO_v2_4dev10FormatInfoES1_EvT_S3_RSaIT0_E(ptr noundef %21, ptr noundef %22, ptr noundef nonnull align 1 dereferenceable(1) %call16)
          to label %invoke.cont18 unwind label %lpad17

invoke.cont18:                                    ; preds = %if.else
  br label %if.end

lpad17:                                           ; preds = %invoke.cont19, %if.end, %if.else
  %23 = landingpad { ptr, i32 }
          cleanup
  %24 = extractvalue { ptr, i32 } %23, 0
  store ptr %24, ptr %exn.slot, align 8
  %25 = extractvalue { ptr, i32 } %23, 1
  store i32 %25, ptr %ehselector.slot, align 4
  invoke void @__cxa_end_catch()
          to label %invoke.cont20 unwind label %terminate.lpad

if.end:                                           ; preds = %invoke.cont18, %if.then
  %26 = load ptr, ptr %__new_start, align 8
  %27 = load i64, ptr %__len, align 8
  invoke void @_ZNSt12_Vector_baseIN19OpenColorIO_v2_4dev10FormatInfoESaIS1_EE13_M_deallocateEPS1_m(ptr noundef nonnull align 8 dereferenceable(24) %this1, ptr noundef %26, i64 noundef %27)
          to label %invoke.cont19 unwind label %lpad17

invoke.cont19:                                    ; preds = %if.end
  invoke void @__cxa_rethrow() #17
          to label %unreachable unwind label %lpad17

invoke.cont20:                                    ; preds = %lpad17
  br label %eh.resume

try.cont:                                         ; preds = %invoke.cont
  %28 = load ptr, ptr %__old_start, align 8
  %_M_impl21 = getelementptr inbounds %"struct.std::_Vector_base", ptr %this1, i32 0, i32 0
  %_M_end_of_storage = getelementptr inbounds %"struct.std::_Vector_base<OpenColorIO_v2_4dev::FormatInfo, std::allocator<OpenColorIO_v2_4dev::FormatInfo>>::_Vector_impl_data", ptr %_M_impl21, i32 0, i32 2
  %29 = load ptr, ptr %_M_end_of_storage, align 8
  %30 = load ptr, ptr %__old_start, align 8
  %sub.ptr.lhs.cast = ptrtoint ptr %29 to i64
  %sub.ptr.rhs.cast = ptrtoint ptr %30 to i64
  %sub.ptr.sub = sub i64 %sub.ptr.lhs.cast, %sub.ptr.rhs.cast
  %sub.ptr.div = sdiv exact i64 %sub.ptr.sub, 72
  call void @_ZNSt12_Vector_baseIN19OpenColorIO_v2_4dev10FormatInfoESaIS1_EE13_M_deallocateEPS1_m(ptr noundef nonnull align 8 dereferenceable(24) %this1, ptr noundef %28, i64 noundef %sub.ptr.div)
  %31 = load ptr, ptr %__new_start, align 8
  %_M_impl22 = getelementptr inbounds %"struct.std::_Vector_base", ptr %this1, i32 0, i32 0
  %_M_start23 = getelementptr inbounds %"struct.std::_Vector_base<OpenColorIO_v2_4dev::FormatInfo, std::allocator<OpenColorIO_v2_4dev::FormatInfo>>::_Vector_impl_data", ptr %_M_impl22, i32 0, i32 0
  store ptr %31, ptr %_M_start23, align 8
  %32 = load ptr, ptr %__new_finish, align 8
  %_M_impl24 = getelementptr inbounds %"struct.std::_Vector_base", ptr %this1, i32 0, i32 0
  %_M_finish25 = getelementptr inbounds %"struct.std::_Vector_base<OpenColorIO_v2_4dev::FormatInfo, std::allocator<OpenColorIO_v2_4dev::FormatInfo>>::_Vector_impl_data", ptr %_M_impl24, i32 0, i32 1
  store ptr %32, ptr %_M_finish25, align 8
  %33 = load ptr, ptr %__new_start, align 8
  %34 = load i64, ptr %__len, align 8
  %add.ptr26 = getelementptr inbounds %"struct.OpenColorIO_v2_4dev::FormatInfo", ptr %33, i64 %34
  %_M_impl27 = getelementptr inbounds %"struct.std::_Vector_base", ptr %this1, i32 0, i32 0
  %_M_end_of_storage28 = getelementptr inbounds %"struct.std::_Vector_base<OpenColorIO_v2_4dev::FormatInfo, std::allocator<OpenColorIO_v2_4dev::FormatInfo>>::_Vector_impl_data", ptr %_M_impl27, i32 0, i32 2
  store ptr %add.ptr26, ptr %_M_end_of_storage28, align 8
  ret void

eh.resume:                                        ; preds = %invoke.cont20
  %exn29 = load ptr, ptr %exn.slot, align 8
  %sel = load i32, ptr %ehselector.slot, align 4
  %lpad.val = insertvalue { ptr, i32 } poison, ptr %exn29, 0
  %lpad.val30 = insertvalue { ptr, i32 } %lpad.val, i32 %sel, 1
  resume { ptr, i32 } %lpad.val30

terminate.lpad:                                   ; preds = %lpad17
  %35 = landingpad { ptr, i32 }
          catch ptr null
  %36 = extractvalue { ptr, i32 } %35, 0
  call void @__clang_call_terminate(ptr %36) #18
  unreachable

unreachable:                                      ; preds = %invoke.cont19
  unreachable
}

; Function Attrs: mustprogress nounwind uwtable
define linkonce_odr hidden ptr @_ZNSt6vectorIN19OpenColorIO_v2_4dev10FormatInfoESaIS1_EE3endEv(ptr noundef nonnull align 8 dereferenceable(24) %this) #4 comdat align 2 {
entry:
  %retval = alloca %"class.__gnu_cxx::__normal_iterator", align 8
  %this.addr = alloca ptr, align 8
  store ptr %this, ptr %this.addr, align 8
  %this1 = load ptr, ptr %this.addr, align 8
  %_M_impl = getelementptr inbounds %"struct.std::_Vector_base", ptr %this1, i32 0, i32 0
  %_M_finish = getelementptr inbounds %"struct.std::_Vector_base<OpenColorIO_v2_4dev::FormatInfo, std::allocator<OpenColorIO_v2_4dev::FormatInfo>>::_Vector_impl_data", ptr %_M_impl, i32 0, i32 1
  call void @_ZN9__gnu_cxx17__normal_iteratorIPN19OpenColorIO_v2_4dev10FormatInfoESt6vectorIS2_SaIS2_EEEC2ERKS3_(ptr noundef nonnull align 8 dereferenceable(8) %retval, ptr noundef nonnull align 8 dereferenceable(8) %_M_finish) #3
  %coerce.dive = getelementptr inbounds %"class.__gnu_cxx::__normal_iterator", ptr %retval, i32 0, i32 0
  %0 = load ptr, ptr %coerce.dive, align 8
  ret ptr %0
}

; Function Attrs: mustprogress uwtable
define linkonce_odr hidden void @_ZNSt15__new_allocatorIN19OpenColorIO_v2_4dev10FormatInfoEE9constructIS1_JRKS1_EEEvPT_DpOT0_(ptr noundef nonnull align 1 dereferenceable(1) %this, ptr noundef %__p, ptr noundef nonnull align 8 dereferenceable(72) %__args) #5 comdat align 2 {
entry:
  %this.addr = alloca ptr, align 8
  %__p.addr = alloca ptr, align 8
  %__args.addr = alloca ptr, align 8
  store ptr %this, ptr %this.addr, align 8
  store ptr %__p, ptr %__p.addr, align 8
  store ptr %__args, ptr %__args.addr, align 8
  %0 = load ptr, ptr %__p.addr, align 8
  %1 = load ptr, ptr %__args.addr, align 8
  call void @_ZN19OpenColorIO_v2_4dev10FormatInfoC2ERKS0_(ptr noundef nonnull align 8 dereferenceable(72) %0, ptr noundef nonnull align 8 dereferenceable(72) %1)
  ret void
}

; Function Attrs: mustprogress uwtable
define linkonce_odr hidden void @_ZN19OpenColorIO_v2_4dev10FormatInfoC2ERKS0_(ptr noundef nonnull align 8 dereferenceable(72) %this, ptr noundef nonnull align 8 dereferenceable(72) %0) unnamed_addr #5 comdat align 2 personality ptr @__gxx_personality_v0 {
entry:
  %this.addr = alloca ptr, align 8
  %.addr = alloca ptr, align 8
  %exn.slot = alloca ptr, align 8
  %ehselector.slot = alloca i32, align 4
  store ptr %this, ptr %this.addr, align 8
  store ptr %0, ptr %.addr, align 8
  %this1 = load ptr, ptr %this.addr, align 8
  %name = getelementptr inbounds %"struct.OpenColorIO_v2_4dev::FormatInfo", ptr %this1, i32 0, i32 0
  %1 = load ptr, ptr %.addr, align 8
  %name2 = getelementptr inbounds %"struct.OpenColorIO_v2_4dev::FormatInfo", ptr %1, i32 0, i32 0
  call void @_ZNSt7__cxx1112basic_stringIcSt11char_traitsIcESaIcEEC1ERKS4_(ptr noundef nonnull align 8 dereferenceable(32) %name, ptr noundef nonnull align 8 dereferenceable(32) %name2)
  %extension = getelementptr inbounds %"struct.OpenColorIO_v2_4dev::FormatInfo", ptr %this1, i32 0, i32 1
  %2 = load ptr, ptr %.addr, align 8
  %extension3 = getelementptr inbounds %"struct.OpenColorIO_v2_4dev::FormatInfo", ptr %2, i32 0, i32 1
  invoke void @_ZNSt7__cxx1112basic_stringIcSt11char_traitsIcESaIcEEC1ERKS4_(ptr noundef nonnull align 8 dereferenceable(32) %extension, ptr noundef nonnull align 8 dereferenceable(32) %extension3)
          to label %invoke.cont unwind label %lpad

invoke.cont:                                      ; preds = %entry
  %capabilities = getelementptr inbounds %"struct.OpenColorIO_v2_4dev::FormatInfo", ptr %this1, i32 0, i32 2
  %3 = load ptr, ptr %.addr, align 8
  %capabilities4 = getelementptr inbounds %"struct.OpenColorIO_v2_4dev::FormatInfo", ptr %3, i32 0, i32 2
  call void @llvm.memcpy.p0.p0.i64(ptr align 8 %capabilities, ptr align 8 %capabilities4, i64 8, i1 false)
  ret void

lpad:                                             ; preds = %entry
  %4 = landingpad { ptr, i32 }
          cleanup
  %5 = extractvalue { ptr, i32 } %4, 0
  store ptr %5, ptr %exn.slot, align 8
  %6 = extractvalue { ptr, i32 } %4, 1
  store i32 %6, ptr %ehselector.slot, align 4
  call void @_ZNSt7__cxx1112basic_stringIcSt11char_traitsIcESaIcEED1Ev(ptr noundef nonnull align 8 dereferenceable(32) %name) #3
  br label %eh.resume

eh.resume:                                        ; preds = %lpad
  %exn = load ptr, ptr %exn.slot, align 8
  %sel = load i32, ptr %ehselector.slot, align 4
  %lpad.val = insertvalue { ptr, i32 } poison, ptr %exn, 0
  %lpad.val5 = insertvalue { ptr, i32 } %lpad.val, i32 %sel, 1
  resume { ptr, i32 } %lpad.val5
}

declare void @_ZNSt7__cxx1112basic_stringIcSt11char_traitsIcESaIcEEC1ERKS4_(ptr noundef nonnull align 8 dereferenceable(32), ptr noundef nonnull align 8 dereferenceable(32)) unnamed_addr #1

; Function Attrs: nocallback nofree nounwind willreturn memory(argmem: readwrite)
declare void @llvm.memcpy.p0.p0.i64(ptr noalias nocapture writeonly, ptr noalias nocapture readonly, i64, i1 immarg) #9

; Function Attrs: nounwind
declare void @_ZNSt7__cxx1112basic_stringIcSt11char_traitsIcESaIcEED1Ev(ptr noundef nonnull align 8 dereferenceable(32)) unnamed_addr #2

; Function Attrs: mustprogress uwtable
define linkonce_odr hidden noundef i64 @_ZNKSt6vectorIN19OpenColorIO_v2_4dev10FormatInfoESaIS1_EE12_M_check_lenEmPKc(ptr noundef nonnull align 8 dereferenceable(24) %this, i64 noundef %__n, ptr noundef %__s) #5 comdat align 2 {
entry:
  %this.addr = alloca ptr, align 8
  %__n.addr = alloca i64, align 8
  %__s.addr = alloca ptr, align 8
  %__len = alloca i64, align 8
  %ref.tmp = alloca i64, align 8
  store ptr %this, ptr %this.addr, align 8
  store i64 %__n, ptr %__n.addr, align 8
  store ptr %__s, ptr %__s.addr, align 8
  %this1 = load ptr, ptr %this.addr, align 8
  %call = call noundef i64 @_ZNKSt6vectorIN19OpenColorIO_v2_4dev10FormatInfoESaIS1_EE8max_sizeEv(ptr noundef nonnull align 8 dereferenceable(24) %this1) #3
  %call2 = call noundef i64 @_ZNKSt6vectorIN19OpenColorIO_v2_4dev10FormatInfoESaIS1_EE4sizeEv(ptr noundef nonnull align 8 dereferenceable(24) %this1) #3
  %sub = sub i64 %call, %call2
  %0 = load i64, ptr %__n.addr, align 8
  %cmp = icmp ult i64 %sub, %0
  br i1 %cmp, label %if.then, label %if.end

if.then:                                          ; preds = %entry
  %1 = load ptr, ptr %__s.addr, align 8
  call void @_ZSt20__throw_length_errorPKc(ptr noundef %1) #17
  unreachable

if.end:                                           ; preds = %entry
  %call3 = call noundef i64 @_ZNKSt6vectorIN19OpenColorIO_v2_4dev10FormatInfoESaIS1_EE4sizeEv(ptr noundef nonnull align 8 dereferenceable(24) %this1) #3
  %call4 = call noundef i64 @_ZNKSt6vectorIN19OpenColorIO_v2_4dev10FormatInfoESaIS1_EE4sizeEv(ptr noundef nonnull align 8 dereferenceable(24) %this1) #3
  store i64 %call4, ptr %ref.tmp, align 8
  %call5 = call noundef nonnull align 8 dereferenceable(8) ptr @_ZSt3maxImERKT_S2_S2_(ptr noundef nonnull align 8 dereferenceable(8) %ref.tmp, ptr noundef nonnull align 8 dereferenceable(8) %__n.addr)
  %2 = load i64, ptr %call5, align 8
  %add = add i64 %call3, %2
  store i64 %add, ptr %__len, align 8
  %3 = load i64, ptr %__len, align 8
  %call6 = call noundef i64 @_ZNKSt6vectorIN19OpenColorIO_v2_4dev10FormatInfoESaIS1_EE4sizeEv(ptr noundef nonnull align 8 dereferenceable(24) %this1) #3
  %cmp7 = icmp ult i64 %3, %call6
  br i1 %cmp7, label %cond.true, label %lor.lhs.false

lor.lhs.false:                                    ; preds = %if.end
  %4 = load i64, ptr %__len, align 8
  %call8 = call noundef i64 @_ZNKSt6vectorIN19OpenColorIO_v2_4dev10FormatInfoESaIS1_EE8max_sizeEv(ptr noundef nonnull align 8 dereferenceable(24) %this1) #3
  %cmp9 = icmp ugt i64 %4, %call8
  br i1 %cmp9, label %cond.true, label %cond.false

cond.true:                                        ; preds = %lor.lhs.false, %if.end
  %call10 = call noundef i64 @_ZNKSt6vectorIN19OpenColorIO_v2_4dev10FormatInfoESaIS1_EE8max_sizeEv(ptr noundef nonnull align 8 dereferenceable(24) %this1) #3
  br label %cond.end

cond.false:                                       ; preds = %lor.lhs.false
  %5 = load i64, ptr %__len, align 8
  br label %cond.end

cond.end:                                         ; preds = %cond.false, %cond.true
  %cond = phi i64 [ %call10, %cond.true ], [ %5, %cond.false ]
  ret i64 %cond
}

; Function Attrs: mustprogress nounwind uwtable
define linkonce_odr hidden noundef i64 @_ZN9__gnu_cxxmiIPN19OpenColorIO_v2_4dev10FormatInfoESt6vectorIS2_SaIS2_EEEENS_17__normal_iteratorIT_T0_E15difference_typeERKSA_SD_(ptr noundef nonnull align 8 dereferenceable(8) %__lhs, ptr noundef nonnull align 8 dereferenceable(8) %__rhs) #4 comdat {
entry:
  %__lhs.addr = alloca ptr, align 8
  %__rhs.addr = alloca ptr, align 8
  store ptr %__lhs, ptr %__lhs.addr, align 8
  store ptr %__rhs, ptr %__rhs.addr, align 8
  %0 = load ptr, ptr %__lhs.addr, align 8
  %call = call noundef nonnull align 8 dereferenceable(8) ptr @_ZNK9__gnu_cxx17__normal_iteratorIPN19OpenColorIO_v2_4dev10FormatInfoESt6vectorIS2_SaIS2_EEE4baseEv(ptr noundef nonnull align 8 dereferenceable(8) %0) #3
  %1 = load ptr, ptr %call, align 8
  %2 = load ptr, ptr %__rhs.addr, align 8
  %call1 = call noundef nonnull align 8 dereferenceable(8) ptr @_ZNK9__gnu_cxx17__normal_iteratorIPN19OpenColorIO_v2_4dev10FormatInfoESt6vectorIS2_SaIS2_EEE4baseEv(ptr noundef nonnull align 8 dereferenceable(8) %2) #3
  %3 = load ptr, ptr %call1, align 8
  %sub.ptr.lhs.cast = ptrtoint ptr %1 to i64
  %sub.ptr.rhs.cast = ptrtoint ptr %3 to i64
  %sub.ptr.sub = sub i64 %sub.ptr.lhs.cast, %sub.ptr.rhs.cast
  %sub.ptr.div = sdiv exact i64 %sub.ptr.sub, 72
  ret i64 %sub.ptr.div
}

; Function Attrs: mustprogress nounwind uwtable
define linkonce_odr hidden ptr @_ZNSt6vectorIN19OpenColorIO_v2_4dev10FormatInfoESaIS1_EE5beginEv(ptr noundef nonnull align 8 dereferenceable(24) %this) #4 comdat align 2 {
entry:
  %retval = alloca %"class.__gnu_cxx::__normal_iterator", align 8
  %this.addr = alloca ptr, align 8
  store ptr %this, ptr %this.addr, align 8
  %this1 = load ptr, ptr %this.addr, align 8
  %_M_impl = getelementptr inbounds %"struct.std::_Vector_base", ptr %this1, i32 0, i32 0
  %_M_start = getelementptr inbounds %"struct.std::_Vector_base<OpenColorIO_v2_4dev::FormatInfo, std::allocator<OpenColorIO_v2_4dev::FormatInfo>>::_Vector_impl_data", ptr %_M_impl, i32 0, i32 0
  call void @_ZN9__gnu_cxx17__normal_iteratorIPN19OpenColorIO_v2_4dev10FormatInfoESt6vectorIS2_SaIS2_EEEC2ERKS3_(ptr noundef nonnull align 8 dereferenceable(8) %retval, ptr noundef nonnull align 8 dereferenceable(8) %_M_start) #3
  %coerce.dive = getelementptr inbounds %"class.__gnu_cxx::__normal_iterator", ptr %retval, i32 0, i32 0
  %0 = load ptr, ptr %coerce.dive, align 8
  ret ptr %0
}

; Function Attrs: mustprogress uwtable
define linkonce_odr hidden noundef ptr @_ZNSt12_Vector_baseIN19OpenColorIO_v2_4dev10FormatInfoESaIS1_EE11_M_allocateEm(ptr noundef nonnull align 8 dereferenceable(24) %this, i64 noundef %__n) #5 comdat align 2 {
entry:
  %this.addr = alloca ptr, align 8
  %__n.addr = alloca i64, align 8
  store ptr %this, ptr %this.addr, align 8
  store i64 %__n, ptr %__n.addr, align 8
  %this1 = load ptr, ptr %this.addr, align 8
  %0 = load i64, ptr %__n.addr, align 8
  %cmp = icmp ne i64 %0, 0
  br i1 %cmp, label %cond.true, label %cond.false

cond.true:                                        ; preds = %entry
  %_M_impl = getelementptr inbounds %"struct.std::_Vector_base", ptr %this1, i32 0, i32 0
  %1 = load i64, ptr %__n.addr, align 8
  %call = call noundef ptr @_ZNSt16allocator_traitsISaIN19OpenColorIO_v2_4dev10FormatInfoEEE8allocateERS2_m(ptr noundef nonnull align 1 dereferenceable(1) %_M_impl, i64 noundef %1)
  br label %cond.end

cond.false:                                       ; preds = %entry
  br label %cond.end

cond.end:                                         ; preds = %cond.false, %cond.true
  %cond = phi ptr [ %call, %cond.true ], [ null, %cond.false ]
  ret ptr %cond
}

; Function Attrs: mustprogress nounwind uwtable
define linkonce_odr hidden noundef ptr @_ZNSt6vectorIN19OpenColorIO_v2_4dev10FormatInfoESaIS1_EE11_S_relocateEPS1_S4_S4_RS2_(ptr noundef %__first, ptr noundef %__last, ptr noundef %__result, ptr noundef nonnull align 1 dereferenceable(1) %__alloc) #4 comdat align 2 {
entry:
  %__first.addr = alloca ptr, align 8
  %__last.addr = alloca ptr, align 8
  %__result.addr = alloca ptr, align 8
  %__alloc.addr = alloca ptr, align 8
  store ptr %__first, ptr %__first.addr, align 8
  store ptr %__last, ptr %__last.addr, align 8
  store ptr %__result, ptr %__result.addr, align 8
  store ptr %__alloc, ptr %__alloc.addr, align 8
  %0 = load ptr, ptr %__first.addr, align 8
  %1 = load ptr, ptr %__last.addr, align 8
  %2 = load ptr, ptr %__result.addr, align 8
  %3 = load ptr, ptr %__alloc.addr, align 8
  %call = call noundef ptr @_ZNSt6vectorIN19OpenColorIO_v2_4dev10FormatInfoESaIS1_EE14_S_do_relocateEPS1_S4_S4_RS2_St17integral_constantIbLb1EE(ptr noundef %0, ptr noundef %1, ptr noundef %2, ptr noundef nonnull align 1 dereferenceable(1) %3) #3
  ret ptr %call
}

; Function Attrs: mustprogress nounwind uwtable
define linkonce_odr hidden noundef nonnull align 8 dereferenceable(8) ptr @_ZNK9__gnu_cxx17__normal_iteratorIPN19OpenColorIO_v2_4dev10FormatInfoESt6vectorIS2_SaIS2_EEE4baseEv(ptr noundef nonnull align 8 dereferenceable(8) %this) #4 comdat align 2 {
entry:
  %this.addr = alloca ptr, align 8
  store ptr %this, ptr %this.addr, align 8
  %this1 = load ptr, ptr %this.addr, align 8
  %_M_current = getelementptr inbounds %"class.__gnu_cxx::__normal_iterator", ptr %this1, i32 0, i32 0
  ret ptr %_M_current
}

; Function Attrs: mustprogress nounwind uwtable
define linkonce_odr hidden noundef nonnull align 1 dereferenceable(1) ptr @_ZNSt12_Vector_baseIN19OpenColorIO_v2_4dev10FormatInfoESaIS1_EE19_M_get_Tp_allocatorEv(ptr noundef nonnull align 8 dereferenceable(24) %this) #4 comdat align 2 {
entry:
  %this.addr = alloca ptr, align 8
  store ptr %this, ptr %this.addr, align 8
  %this1 = load ptr, ptr %this.addr, align 8
  %_M_impl = getelementptr inbounds %"struct.std::_Vector_base", ptr %this1, i32 0, i32 0
  ret ptr %_M_impl
}

declare ptr @__cxa_begin_catch(ptr)

; Function Attrs: mustprogress nounwind uwtable
define linkonce_odr hidden void @_ZNSt16allocator_traitsISaIN19OpenColorIO_v2_4dev10FormatInfoEEE7destroyIS1_EEvRS2_PT_(ptr noundef nonnull align 1 dereferenceable(1) %__a, ptr noundef %__p) #4 comdat align 2 {
entry:
  %__a.addr = alloca ptr, align 8
  %__p.addr = alloca ptr, align 8
  store ptr %__a, ptr %__a.addr, align 8
  store ptr %__p, ptr %__p.addr, align 8
  %0 = load ptr, ptr %__a.addr, align 8
  %1 = load ptr, ptr %__p.addr, align 8
  call void @_ZNSt15__new_allocatorIN19OpenColorIO_v2_4dev10FormatInfoEE7destroyIS1_EEvPT_(ptr noundef nonnull align 1 dereferenceable(1) %0, ptr noundef %1) #3
  ret void
}

; Function Attrs: mustprogress uwtable
define linkonce_odr hidden void @_ZSt8_DestroyIPN19OpenColorIO_v2_4dev10FormatInfoES1_EvT_S3_RSaIT0_E(ptr noundef %__first, ptr noundef %__last, ptr noundef nonnull align 1 dereferenceable(1) %0) #5 comdat {
entry:
  %__first.addr = alloca ptr, align 8
  %__last.addr = alloca ptr, align 8
  %.addr = alloca ptr, align 8
  store ptr %__first, ptr %__first.addr, align 8
  store ptr %__last, ptr %__last.addr, align 8
  store ptr %0, ptr %.addr, align 8
  %1 = load ptr, ptr %__first.addr, align 8
  %2 = load ptr, ptr %__last.addr, align 8
  call void @_ZSt8_DestroyIPN19OpenColorIO_v2_4dev10FormatInfoEEvT_S3_(ptr noundef %1, ptr noundef %2)
  ret void
}

; Function Attrs: mustprogress uwtable
define linkonce_odr hidden void @_ZNSt12_Vector_baseIN19OpenColorIO_v2_4dev10FormatInfoESaIS1_EE13_M_deallocateEPS1_m(ptr noundef nonnull align 8 dereferenceable(24) %this, ptr noundef %__p, i64 noundef %__n) #5 comdat align 2 {
entry:
  %this.addr = alloca ptr, align 8
  %__p.addr = alloca ptr, align 8
  %__n.addr = alloca i64, align 8
  store ptr %this, ptr %this.addr, align 8
  store ptr %__p, ptr %__p.addr, align 8
  store i64 %__n, ptr %__n.addr, align 8
  %this1 = load ptr, ptr %this.addr, align 8
  %0 = load ptr, ptr %__p.addr, align 8
  %tobool = icmp ne ptr %0, null
  br i1 %tobool, label %if.then, label %if.end

if.then:                                          ; preds = %entry
  %_M_impl = getelementptr inbounds %"struct.std::_Vector_base", ptr %this1, i32 0, i32 0
  %1 = load ptr, ptr %__p.addr, align 8
  %2 = load i64, ptr %__n.addr, align 8
  call void @_ZNSt16allocator_traitsISaIN19OpenColorIO_v2_4dev10FormatInfoEEE10deallocateERS2_PS1_m(ptr noundef nonnull align 1 dereferenceable(1) %_M_impl, ptr noundef %1, i64 noundef %2)
  br label %if.end

if.end:                                           ; preds = %if.then, %entry
  ret void
}

declare void @__cxa_rethrow()

declare void @__cxa_end_catch()

; Function Attrs: noreturn nounwind uwtable
define linkonce_odr hidden void @__clang_call_terminate(ptr noundef %0) #10 comdat {
  %2 = call ptr @__cxa_begin_catch(ptr %0) #3
  call void @_ZSt9terminatev() #18
  unreachable
}

declare void @_ZSt9terminatev()

; Function Attrs: mustprogress nounwind uwtable
define linkonce_odr hidden noundef i64 @_ZNKSt6vectorIN19OpenColorIO_v2_4dev10FormatInfoESaIS1_EE8max_sizeEv(ptr noundef nonnull align 8 dereferenceable(24) %this) #4 comdat align 2 {
entry:
  %this.addr = alloca ptr, align 8
  store ptr %this, ptr %this.addr, align 8
  %this1 = load ptr, ptr %this.addr, align 8
  %call = call noundef nonnull align 1 dereferenceable(1) ptr @_ZNKSt12_Vector_baseIN19OpenColorIO_v2_4dev10FormatInfoESaIS1_EE19_M_get_Tp_allocatorEv(ptr noundef nonnull align 8 dereferenceable(24) %this1) #3
  %call2 = call noundef i64 @_ZNSt6vectorIN19OpenColorIO_v2_4dev10FormatInfoESaIS1_EE11_S_max_sizeERKS2_(ptr noundef nonnull align 1 dereferenceable(1) %call) #3
  ret i64 %call2
}

; Function Attrs: mustprogress nounwind uwtable
define linkonce_odr hidden noundef i64 @_ZNKSt6vectorIN19OpenColorIO_v2_4dev10FormatInfoESaIS1_EE4sizeEv(ptr noundef nonnull align 8 dereferenceable(24) %this) #4 comdat align 2 {
entry:
  %this.addr = alloca ptr, align 8
  store ptr %this, ptr %this.addr, align 8
  %this1 = load ptr, ptr %this.addr, align 8
  %_M_impl = getelementptr inbounds %"struct.std::_Vector_base", ptr %this1, i32 0, i32 0
  %_M_finish = getelementptr inbounds %"struct.std::_Vector_base<OpenColorIO_v2_4dev::FormatInfo, std::allocator<OpenColorIO_v2_4dev::FormatInfo>>::_Vector_impl_data", ptr %_M_impl, i32 0, i32 1
  %0 = load ptr, ptr %_M_finish, align 8
  %_M_impl2 = getelementptr inbounds %"struct.std::_Vector_base", ptr %this1, i32 0, i32 0
