target datalayout = "e-m:e-p270:32:32-p271:32:32-p272:64:64-i64:64-i128:128-f80:128-n8:16:32:64-S128"
target triple = "x86_64-unknown-linux-gnu"

%"class.std::__cxx11::basic_string" = type { %"struct.std::__cxx11::basic_string<char>::_Alloc_hider", i64, %union.anon }
%"struct.std::__cxx11::basic_string<char>::_Alloc_hider" = type { ptr }
%union.anon = type { i64, [8 x i8] }
%"class.std::unique_ptr" = type { %"struct.std::__uniq_ptr_data" }
%"struct.std::__uniq_ptr_data" = type { %"class.std::__uniq_ptr_impl" }
%"class.std::__uniq_ptr_impl" = type { %"class.std::tuple" }
%"class.std::tuple" = type { %"struct.std::_Tuple_impl" }
%"struct.std::_Tuple_impl" = type { %"struct.std::_Head_base.1" }
%"struct.std::_Head_base.1" = type { ptr }
%"class.std::unique_ptr.2" = type { %"struct.std::__uniq_ptr_data.3" }
%"struct.std::__uniq_ptr_data.3" = type { %"class.std::__uniq_ptr_impl.4" }
%"class.std::__uniq_ptr_impl.4" = type { %"class.std::tuple.5" }
%"class.std::tuple.5" = type { %"struct.std::_Tuple_impl.6" }
%"struct.std::_Tuple_impl.6" = type { %"struct.std::_Head_base.9" }
%"struct.std::_Head_base.9" = type { ptr }
%"class.std::unique_ptr.13" = type { %"struct.std::__uniq_ptr_data.14" }
%"struct.std::__uniq_ptr_data.14" = type { %"class.std::__uniq_ptr_impl.15" }
%"class.std::__uniq_ptr_impl.15" = type { %"class.std::tuple.16" }
%"class.std::tuple.16" = type { %"struct.std::_Tuple_impl.17" }
%"struct.std::_Tuple_impl.17" = type { %"struct.std::_Head_base.20" }
%"struct.std::_Head_base.20" = type { ptr }
%"class.std::unique_ptr.21" = type { %"struct.std::__uniq_ptr_data.22" }
%"struct.std::__uniq_ptr_data.22" = type { %"class.std::__uniq_ptr_impl.23" }
%"class.std::__uniq_ptr_impl.23" = type { %"class.std::tuple.24" }
%"class.std::tuple.24" = type { %"struct.std::_Tuple_impl.25" }
%"struct.std::_Tuple_impl.25" = type { %"struct.std::_Head_base.28" }
%"struct.std::_Head_base.28" = type { ptr }
%"class.OpenColorIO_v2_4dev::MetalShaderClassWrapper" = type { %"class.OpenColorIO_v2_4dev::GpuShaderClassWrapper", %"class.std::__cxx11::basic_string", %"class.std::__cxx11::basic_string", %"class.std::vector" }
%"class.OpenColorIO_v2_4dev::GpuShaderClassWrapper" = type { ptr }
%"class.std::vector" = type { %"struct.std::_Vector_base" }
%"struct.std::_Vector_base" = type { %"struct.std::_Vector_base<OpenColorIO_v2_4dev::MetalShaderClassWrapper::FunctionParam, std::allocator<OpenColorIO_v2_4dev::MetalShaderClassWrapper::FunctionParam>>::_Vector_impl" }
%"struct.std::_Vector_base<OpenColorIO_v2_4dev::MetalShaderClassWrapper::FunctionParam, std::allocator<OpenColorIO_v2_4dev::MetalShaderClassWrapper::FunctionParam>>::_Vector_impl" = type { %"struct.std::_Vector_base<OpenColorIO_v2_4dev::MetalShaderClassWrapper::FunctionParam, std::allocator<OpenColorIO_v2_4dev::MetalShaderClassWrapper::FunctionParam>>::_Vector_impl_data" }
%"struct.std::_Vector_base<OpenColorIO_v2_4dev::MetalShaderClassWrapper::FunctionParam, std::allocator<OpenColorIO_v2_4dev::MetalShaderClassWrapper::FunctionParam>>::_Vector_impl_data" = type { ptr, ptr, ptr }
%"class.OpenColorIO_v2_4dev::OSLShaderClassWrapper" = type { %"class.OpenColorIO_v2_4dev::GpuShaderClassWrapper", %"class.std::__cxx11::basic_string" }
%"class.OpenColorIO_v2_4dev::GpuShaderText" = type <{ i32, [4 x i8], %"class.std::__cxx11::basic_ostringstream", %"class.std::__cxx11::basic_ostringstream", i32, [4 x i8] }>
%"class.std::__cxx11::basic_ostringstream" = type { %"class.std::basic_ostream.base", %"class.std::__cxx11::basic_stringbuf", %"class.std::basic_ios" }
%"class.std::basic_ostream.base" = type { ptr }
%"class.std::__cxx11::basic_stringbuf" = type { %"class.std::basic_streambuf", i32, %"class.std::__cxx11::basic_string" }
%"class.std::basic_streambuf" = type { ptr, ptr, ptr, ptr, ptr, ptr, ptr, %"class.std::locale" }
%"class.std::locale" = type { ptr }
%"class.std::basic_ios" = type { %"class.std::ios_base", ptr, i8, i8, ptr, ptr, ptr, ptr }
%"class.std::ios_base" = type { ptr, i64, i64, i32, i32, i32, ptr, %"struct.std::ios_base::_Words", [8 x %"struct.std::ios_base::_Words"], i32, ptr, %"class.std::locale" }
%"struct.std::ios_base::_Words" = type { ptr, i64 }
%"class.OpenColorIO_v2_4dev::GpuShaderText::GpuShaderLine" = type { ptr }
%"class.std::allocator" = type { i8 }
%"class.__gnu_cxx::__normal_iterator" = type { ptr }
%"struct.OpenColorIO_v2_4dev::MetalShaderClassWrapper::FunctionParam" = type <{ %"class.std::__cxx11::basic_string", %"class.std::__cxx11::basic_string", i8, [7 x i8] }>
%"class.std::vector.30" = type { %"struct.std::_Vector_base.31" }
%"struct.std::_Vector_base.31" = type { %"struct.std::_Vector_base<std::tuple<std::__cxx11::basic_string<char>, std::__cxx11::basic_string<char>, std::__cxx11::basic_string<char>>, std::allocator<std::tuple<std::__cxx11::basic_string<char>, std::__cxx11::basic_string<char>, std::__cxx11::basic_string<char>>>>::_Vector_impl" }
%"struct.std::_Vector_base<std::tuple<std::__cxx11::basic_string<char>, std::__cxx11::basic_string<char>, std::__cxx11::basic_string<char>>, std::allocator<std::tuple<std::__cxx11::basic_string<char>, std::__cxx11::basic_string<char>, std::__cxx11::basic_string<char>>>>::_Vector_impl" = type { %"struct.std::_Vector_base<std::tuple<std::__cxx11::basic_string<char>, std::__cxx11::basic_string<char>, std::__cxx11::basic_string<char>>, std::allocator<std::tuple<std::__cxx11::basic_string<char>, std::__cxx11::basic_string<char>, std::__cxx11::basic_string<char>>>>::_Vector_impl_data" }
%"struct.std::_Vector_base<std::tuple<std::__cxx11::basic_string<char>, std::__cxx11::basic_string<char>, std::__cxx11::basic_string<char>>, std::allocator<std::tuple<std::__cxx11::basic_string<char>, std::__cxx11::basic_string<char>, std::__cxx11::basic_string<char>>>>::_Vector_impl_data" = type { ptr, ptr, ptr }
%"class.std::vector.35" = type { %"struct.std::_Vector_base.36" }
%"struct.std::_Vector_base.36" = type { %"struct.std::_Vector_base<std::pair<std::__cxx11::basic_string<char>, std::__cxx11::basic_string<char>>, std::allocator<std::pair<std::__cxx11::basic_string<char>, std::__cxx11::basic_string<char>>>>::_Vector_impl" }
%"struct.std::_Vector_base<std::pair<std::__cxx11::basic_string<char>, std::__cxx11::basic_string<char>>, std::allocator<std::pair<std::__cxx11::basic_string<char>, std::__cxx11::basic_string<char>>>>::_Vector_impl" = type { %"struct.std::_Vector_base<std::pair<std::__cxx11::basic_string<char>, std::__cxx11::basic_string<char>>, std::allocator<std::pair<std::__cxx11::basic_string<char>, std::__cxx11::basic_string<char>>>>::_Vector_impl_data" }
%"struct.std::_Vector_base<std::pair<std::__cxx11::basic_string<char>, std::__cxx11::basic_string<char>>, std::allocator<std::pair<std::__cxx11::basic_string<char>, std::__cxx11::basic_string<char>>>>::_Vector_impl_data" = type { ptr, ptr, ptr }
%"class.std::__cxx11::basic_istringstream" = type { %"class.std::basic_istream.base", %"class.std::__cxx11::basic_stringbuf", %"class.std::basic_ios" }
%"class.std::basic_istream.base" = type { ptr, i64 }
%"class.__gnu_cxx::__normal_iterator.40" = type { ptr }
%"class.__gnu_cxx::__normal_iterator.48" = type { ptr }
%"struct.std::pair" = type { %"class.std::__cxx11::basic_string", %"class.std::__cxx11::basic_string" }
%"class.std::tuple.41" = type { %"struct.std::_Tuple_impl.42" }
%"struct.std::_Tuple_impl.42" = type { %"struct.std::_Tuple_impl.43", %"struct.std::_Head_base.47" }
%"struct.std::_Tuple_impl.43" = type { %"struct.std::_Tuple_impl.44", %"struct.std::_Head_base.46" }
%"struct.std::_Tuple_impl.44" = type { %"struct.std::_Head_base.45" }
%"struct.std::_Head_base.45" = type { %"class.std::__cxx11::basic_string" }
%"struct.std::_Head_base.46" = type { %"class.std::__cxx11::basic_string" }
%"struct.std::_Head_base.47" = type { %"class.std::__cxx11::basic_string" }
%"class.__gnu_cxx::__normal_iterator.55" = type { ptr }

$_ZStplIcSt11char_traitsIcESaIcEENSt7__cxx1112basic_stringIT_T0_T1_EERKS8_PKS5_ = comdat any

$_ZN19OpenColorIO_v2_4dev23MetalShaderClassWrapperC2Ev = comdat any

$_ZNSt10unique_ptrIN19OpenColorIO_v2_4dev23MetalShaderClassWrapperESt14default_deleteIS1_EEC2IS3_vEEPS1_ = comdat any

$_ZNSt10unique_ptrIN19OpenColorIO_v2_4dev21GpuShaderClassWrapperESt14default_deleteIS1_EEC2INS0_23MetalShaderClassWrapperES2_IS6_EvEEOS_IT_T0_E = comdat any

$_ZNSt10unique_ptrIN19OpenColorIO_v2_4dev23MetalShaderClassWrapperESt14default_deleteIS1_EED2Ev = comdat any

$_ZN19OpenColorIO_v2_4dev21OSLShaderClassWrapperC2Ev = comdat any

$_ZNSt10unique_ptrIN19OpenColorIO_v2_4dev21OSLShaderClassWrapperESt14default_deleteIS1_EEC2IS3_vEEPS1_ = comdat any

$_ZNSt10unique_ptrIN19OpenColorIO_v2_4dev21GpuShaderClassWrapperESt14default_deleteIS1_EEC2INS0_21OSLShaderClassWrapperES2_IS6_EvEEOS_IT_T0_E = comdat any

$_ZNSt10unique_ptrIN19OpenColorIO_v2_4dev21OSLShaderClassWrapperESt14default_deleteIS1_EED2Ev = comdat any

$_ZN19OpenColorIO_v2_4dev25NullGpuShaderClassWrapperC2Ev = comdat any

$_ZNSt10unique_ptrIN19OpenColorIO_v2_4dev25NullGpuShaderClassWrapperESt14default_deleteIS1_EEC2IS3_vEEPS1_ = comdat any

$_ZNSt10unique_ptrIN19OpenColorIO_v2_4dev21GpuShaderClassWrapperESt14default_deleteIS1_EEC2INS0_25NullGpuShaderClassWrapperES2_IS6_EvEEOS_IT_T0_E = comdat any

$_ZNSt10unique_ptrIN19OpenColorIO_v2_4dev25NullGpuShaderClassWrapperESt14default_deleteIS1_EED2Ev = comdat any

$_ZStplIcSt11char_traitsIcESaIcEENSt7__cxx1112basic_stringIT_T0_T1_EEOS8_RKS8_ = comdat any

$_ZN19OpenColorIO_v2_4dev13GpuShaderTextD2Ev = comdat any

$_ZStplIcSt11char_traitsIcESaIcEENSt7__cxx1112basic_stringIT_T0_T1_EERKS8_OS8_ = comdat any

$_ZStplIcSt11char_traitsIcESaIcEENSt7__cxx1112basic_stringIT_T0_T1_EEPKS5_RKS8_ = comdat any

$_ZNKSt6vectorIN19OpenColorIO_v2_4dev23MetalShaderClassWrapper13FunctionParamESaIS2_EE5beginEv = comdat any

$_ZNKSt6vectorIN19OpenColorIO_v2_4dev23MetalShaderClassWrapper13FunctionParamESaIS2_EE3endEv = comdat any

$_ZN9__gnu_cxxneIPKN19OpenColorIO_v2_4dev23MetalShaderClassWrapper13FunctionParamESt6vectorIS3_SaIS3_EEEEbRKNS_17__normal_iteratorIT_T0_EESE_ = comdat any

$_ZNK9__gnu_cxx17__normal_iteratorIPKN19OpenColorIO_v2_4dev23MetalShaderClassWrapper13FunctionParamESt6vectorIS3_SaIS3_EEEdeEv = comdat any

$_ZN9__gnu_cxx17__normal_iteratorIPKN19OpenColorIO_v2_4dev23MetalShaderClassWrapper13FunctionParamESt6vectorIS3_SaIS3_EEEppEv = comdat any

$_ZStplIcSt11char_traitsIcESaIcEENSt7__cxx1112basic_stringIT_T0_T1_EERKS8_SA_ = comdat any

$_ZNSt6vectorISt5tupleIJNSt7__cxx1112basic_stringIcSt11char_traitsIcESaIcEEES6_S6_EESaIS7_EEC2Ev = comdat any

$_ZNSt6vectorISt4pairINSt7__cxx1112basic_stringIcSt11char_traitsIcESaIcEEES6_ESaIS7_EEC2Ev = comdat any

$_ZNSt6vectorIN19OpenColorIO_v2_4dev23MetalShaderClassWrapper13FunctionParamESaIS2_EE5clearEv = comdat any

$_ZNSt6vectorISt5tupleIJNSt7__cxx1112basic_stringIcSt11char_traitsIcESaIcEEES6_S6_EESaIS7_EE12emplace_backIJRS6_SB_SB_EEEvDpOT_ = comdat any

$_ZNSt6vectorISt4pairINSt7__cxx1112basic_stringIcSt11char_traitsIcESaIcEEES6_ESaIS7_EE12emplace_backIJRS6_SB_EEEvDpOT_ = comdat any

$_ZNSt6vectorISt5tupleIJNSt7__cxx1112basic_stringIcSt11char_traitsIcESaIcEEES6_S6_EESaIS7_EE5beginEv = comdat any

$_ZNSt6vectorISt5tupleIJNSt7__cxx1112basic_stringIcSt11char_traitsIcESaIcEEES6_S6_EESaIS7_EE3endEv = comdat any

$_ZN9__gnu_cxxneIPSt5tupleIJNSt7__cxx1112basic_stringIcSt11char_traitsIcESaIcEEES7_S7_EESt6vectorIS8_SaIS8_EEEEbRKNS_17__normal_iteratorIT_T0_EESI_ = comdat any

$_ZNK9__gnu_cxx17__normal_iteratorIPSt5tupleIJNSt7__cxx1112basic_stringIcSt11char_traitsIcESaIcEEES7_S7_EESt6vectorIS8_SaIS8_EEEdeEv = comdat any

$_ZNSt6vectorIN19OpenColorIO_v2_4dev23MetalShaderClassWrapper13FunctionParamESaIS2_EE12emplace_backIJPKcS7_EEEvDpOT_ = comdat any

$_ZSt3getILm0EJNSt7__cxx1112basic_stringIcSt11char_traitsIcESaIcEEES5_S5_EERKNSt13tuple_elementIXT_ESt5tupleIJDpT0_EEE4typeERKSA_ = comdat any

$_ZSt3getILm1EJNSt7__cxx1112basic_stringIcSt11char_traitsIcESaIcEEES5_S5_EERKNSt13tuple_elementIXT_ESt5tupleIJDpT0_EEE4typeERKSA_ = comdat any

$_ZNSt6vectorIN19OpenColorIO_v2_4dev23MetalShaderClassWrapper13FunctionParamESaIS2_EE12emplace_backIJRA8_KcPS6_EEEvDpOT_ = comdat any

$_ZSt3getILm2EJNSt7__cxx1112basic_stringIcSt11char_traitsIcESaIcEEES5_S5_EERKNSt13tuple_elementIXT_ESt5tupleIJDpT0_EEE4typeERKSA_ = comdat any

$_ZN9__gnu_cxx17__normal_iteratorIPSt5tupleIJNSt7__cxx1112basic_stringIcSt11char_traitsIcESaIcEEES7_S7_EESt6vectorIS8_SaIS8_EEEppEv = comdat any

$_ZNSt6vectorISt4pairINSt7__cxx1112basic_stringIcSt11char_traitsIcESaIcEEES6_ESaIS7_EE5beginEv = comdat any

$_ZNSt6vectorISt4pairINSt7__cxx1112basic_stringIcSt11char_traitsIcESaIcEEES6_ESaIS7_EE3endEv = comdat any

$_ZN9__gnu_cxxneIPSt4pairINSt7__cxx1112basic_stringIcSt11char_traitsIcESaIcEEES7_ESt6vectorIS8_SaIS8_EEEEbRKNS_17__normal_iteratorIT_T0_EESI_ = comdat any

$_ZNK9__gnu_cxx17__normal_iteratorIPSt4pairINSt7__cxx1112basic_stringIcSt11char_traitsIcESaIcEEES7_ESt6vectorIS8_SaIS8_EEEdeEv = comdat any

$_ZNSt6vectorIN19OpenColorIO_v2_4dev23MetalShaderClassWrapper13FunctionParamESaIS2_EE12emplace_backIJRKNSt7__cxx1112basic_stringIcSt11char_traitsIcESaIcEEESD_EEEvDpOT_ = comdat any

$_ZN9__gnu_cxx17__normal_iteratorIPSt4pairINSt7__cxx1112basic_stringIcSt11char_traitsIcESaIcEEES7_ESt6vectorIS8_SaIS8_EEEppEv = comdat any

$_ZNSt6vectorISt4pairINSt7__cxx1112basic_stringIcSt11char_traitsIcESaIcEEES6_ESaIS7_EED2Ev = comdat any

$_ZNSt6vectorISt5tupleIJNSt7__cxx1112basic_stringIcSt11char_traitsIcESaIcEEES6_S6_EESaIS7_EED2Ev = comdat any

$_ZNKSt10unique_ptrIN19OpenColorIO_v2_4dev23MetalShaderClassWrapperESt14default_deleteIS1_EEdeEv = comdat any

$_ZNSt6vectorIN19OpenColorIO_v2_4dev23MetalShaderClassWrapper13FunctionParamESaIS2_EEaSERKS4_ = comdat any

$_ZN19OpenColorIO_v2_4dev23MetalShaderClassWrapperD2Ev = comdat any

$_ZN19OpenColorIO_v2_4dev23MetalShaderClassWrapperD0Ev = comdat any

$_ZN19OpenColorIO_v2_4dev21OSLShaderClassWrapper19prepareClassWrapperERKNSt7__cxx1112basic_stringIcSt11char_traitsIcESaIcEEES8_S8_ = comdat any

$_ZN19OpenColorIO_v2_4dev21OSLShaderClassWrapperD2Ev = comdat any

$_ZN19OpenColorIO_v2_4dev21OSLShaderClassWrapperD0Ev = comdat any

$_ZN19OpenColorIO_v2_4dev25NullGpuShaderClassWrapper19prepareClassWrapperERKNSt7__cxx1112basic_stringIcSt11char_traitsIcESaIcEEES8_S8_ = comdat any

$_ZN19OpenColorIO_v2_4dev25NullGpuShaderClassWrapper21getClassWrapperHeaderERKNSt7__cxx1112basic_stringIcSt11char_traitsIcESaIcEEE = comdat any

$_ZN19OpenColorIO_v2_4dev25NullGpuShaderClassWrapper21getClassWrapperFooterERKNSt7__cxx1112basic_stringIcSt11char_traitsIcESaIcEEE = comdat any

$_ZN19OpenColorIO_v2_4dev25NullGpuShaderClassWrapperD2Ev = comdat any

$_ZN19OpenColorIO_v2_4dev25NullGpuShaderClassWrapperD0Ev = comdat any

$_ZN19OpenColorIO_v2_4dev21GpuShaderClassWrapperC2Ev = comdat any

$_ZNSt6vectorIN19OpenColorIO_v2_4dev23MetalShaderClassWrapper13FunctionParamESaIS2_EEC2Ev = comdat any

$_ZN19OpenColorIO_v2_4dev21GpuShaderClassWrapperD2Ev = comdat any

$_ZN19OpenColorIO_v2_4dev21GpuShaderClassWrapperD0Ev = comdat any

$_ZNSt12_Vector_baseIN19OpenColorIO_v2_4dev23MetalShaderClassWrapper13FunctionParamESaIS2_EEC2Ev = comdat any

$_ZNSt12_Vector_baseIN19OpenColorIO_v2_4dev23MetalShaderClassWrapper13FunctionParamESaIS2_EE12_Vector_implC2Ev = comdat any

$_ZNSaIN19OpenColorIO_v2_4dev23MetalShaderClassWrapper13FunctionParamEEC2Ev = comdat any

$_ZNSt12_Vector_baseIN19OpenColorIO_v2_4dev23MetalShaderClassWrapper13FunctionParamESaIS2_EE17_Vector_impl_dataC2Ev = comdat any

$_ZNSt15__new_allocatorIN19OpenColorIO_v2_4dev23MetalShaderClassWrapper13FunctionParamEEC2Ev = comdat any

$_ZNSt12_Vector_baseISt5tupleIJNSt7__cxx1112basic_stringIcSt11char_traitsIcESaIcEEES6_S6_EESaIS7_EEC2Ev = comdat any

$_ZNSt12_Vector_baseISt5tupleIJNSt7__cxx1112basic_stringIcSt11char_traitsIcESaIcEEES6_S6_EESaIS7_EE12_Vector_implC2Ev = comdat any

$_ZNSaISt5tupleIJNSt7__cxx1112basic_stringIcSt11char_traitsIcESaIcEEES5_S5_EEEC2Ev = comdat any

$_ZNSt12_Vector_baseISt5tupleIJNSt7__cxx1112basic_stringIcSt11char_traitsIcESaIcEEES6_S6_EESaIS7_EE17_Vector_impl_dataC2Ev = comdat any

$_ZNSt15__new_allocatorISt5tupleIJNSt7__cxx1112basic_stringIcSt11char_traitsIcESaIcEEES6_S6_EEEC2Ev = comdat any

$_ZNSt12_Vector_baseISt4pairINSt7__cxx1112basic_stringIcSt11char_traitsIcESaIcEEES6_ESaIS7_EEC2Ev = comdat any

$_ZNSt12_Vector_baseISt4pairINSt7__cxx1112basic_stringIcSt11char_traitsIcESaIcEEES6_ESaIS7_EE12_Vector_implC2Ev = comdat any

$_ZNSaISt4pairINSt7__cxx1112basic_stringIcSt11char_traitsIcESaIcEEES5_EEC2Ev = comdat any

$_ZNSt12_Vector_baseISt4pairINSt7__cxx1112basic_stringIcSt11char_traitsIcESaIcEEES6_ESaIS7_EE17_Vector_impl_dataC2Ev = comdat any

$_ZNSt15__new_allocatorISt4pairINSt7__cxx1112basic_stringIcSt11char_traitsIcESaIcEEES6_EEC2Ev = comdat any

$_ZSt12__get_helperILm0ENSt7__cxx1112basic_stringIcSt11char_traitsIcESaIcEEEJS5_S5_EERKT0_RKSt11_Tuple_implIXT_EJS6_DpT1_EE = comdat any

$_ZNSt11_Tuple_implILm0EJNSt7__cxx1112basic_stringIcSt11char_traitsIcESaIcEEES5_S5_EE7_M_headERKS6_ = comdat any

$_ZNSt10_Head_baseILm0ENSt7__cxx1112basic_stringIcSt11char_traitsIcESaIcEEELb0EE7_M_headERKS6_ = comdat any

$_ZSt12__get_helperILm1ENSt7__cxx1112basic_stringIcSt11char_traitsIcESaIcEEEJS5_EERKT0_RKSt11_Tuple_implIXT_EJS6_DpT1_EE = comdat any

$_ZNSt11_Tuple_implILm1EJNSt7__cxx1112basic_stringIcSt11char_traitsIcESaIcEEES5_EE7_M_headERKS6_ = comdat any

$_ZNSt10_Head_baseILm1ENSt7__cxx1112basic_stringIcSt11char_traitsIcESaIcEEELb0EE7_M_headERKS6_ = comdat any

$_ZSt12__get_helperILm2ENSt7__cxx1112basic_stringIcSt11char_traitsIcESaIcEEEJEERKT0_RKSt11_Tuple_implIXT_EJS6_DpT1_EE = comdat any

$_ZNSt11_Tuple_implILm2EJNSt7__cxx1112basic_stringIcSt11char_traitsIcESaIcEEEEE7_M_headERKS6_ = comdat any

$_ZNSt10_Head_baseILm2ENSt7__cxx1112basic_stringIcSt11char_traitsIcESaIcEEELb0EE7_M_headERKS6_ = comdat any

$_ZNSt6vectorIN19OpenColorIO_v2_4dev23MetalShaderClassWrapper13FunctionParamESaIS2_EED2Ev = comdat any

$_ZSt8_DestroyIPN19OpenColorIO_v2_4dev23MetalShaderClassWrapper13FunctionParamES2_EvT_S4_RSaIT0_E = comdat any

$_ZNSt12_Vector_baseIN19OpenColorIO_v2_4dev23MetalShaderClassWrapper13FunctionParamESaIS2_EE19_M_get_Tp_allocatorEv = comdat any

$__clang_call_terminate = comdat any

$_ZNSt12_Vector_baseIN19OpenColorIO_v2_4dev23MetalShaderClassWrapper13FunctionParamESaIS2_EED2Ev = comdat any

$_ZSt8_DestroyIPN19OpenColorIO_v2_4dev23MetalShaderClassWrapper13FunctionParamEEvT_S4_ = comdat any

$_ZNSt12_Destroy_auxILb0EE9__destroyIPN19OpenColorIO_v2_4dev23MetalShaderClassWrapper13FunctionParamEEEvT_S6_ = comdat any

$_ZSt8_DestroyIN19OpenColorIO_v2_4dev23MetalShaderClassWrapper13FunctionParamEEvPT_ = comdat any

$_ZN19OpenColorIO_v2_4dev23MetalShaderClassWrapper13FunctionParamD2Ev = comdat any

$_ZNSt12_Vector_baseIN19OpenColorIO_v2_4dev23MetalShaderClassWrapper13FunctionParamESaIS2_EE13_M_deallocateEPS2_m = comdat any

$_ZNSt12_Vector_baseIN19OpenColorIO_v2_4dev23MetalShaderClassWrapper13FunctionParamESaIS2_EE12_Vector_implD2Ev = comdat any

$_ZNSt16allocator_traitsISaIN19OpenColorIO_v2_4dev23MetalShaderClassWrapper13FunctionParamEEE10deallocateERS3_PS2_m = comdat any

$_ZNSt15__new_allocatorIN19OpenColorIO_v2_4dev23MetalShaderClassWrapper13FunctionParamEE10deallocateEPS2_m = comdat any

$_ZNSaIN19OpenColorIO_v2_4dev23MetalShaderClassWrapper13FunctionParamEED2Ev = comdat any

$_ZNSt15__new_allocatorIN19OpenColorIO_v2_4dev23MetalShaderClassWrapper13FunctionParamEED2Ev = comdat any

$_ZNSt15__uniq_ptr_dataIN19OpenColorIO_v2_4dev23MetalShaderClassWrapperESt14default_deleteIS1_ELb1ELb1EECI2St15__uniq_ptr_implIS1_S3_EEPS1_ = comdat any

$_ZNSt15__uniq_ptr_implIN19OpenColorIO_v2_4dev23MetalShaderClassWrapperESt14default_deleteIS1_EEC2EPS1_ = comdat any

$_ZNSt5tupleIJPN19OpenColorIO_v2_4dev23MetalShaderClassWrapperESt14default_deleteIS1_EEEC2ILb1ETnNSt9enable_ifIXclsr17_TupleConstraintsIXT_ES2_S4_EE37__is_implicitly_default_constructibleEEbE4typeELb1EEEv = comdat any

$_ZNSt15__uniq_ptr_implIN19OpenColorIO_v2_4dev23MetalShaderClassWrapperESt14default_deleteIS1_EE6_M_ptrEv = comdat any

$_ZNSt11_Tuple_implILm0EJPN19OpenColorIO_v2_4dev23MetalShaderClassWrapperESt14default_deleteIS1_EEEC2Ev = comdat any

$_ZNSt11_Tuple_implILm1EJSt14default_deleteIN19OpenColorIO_v2_4dev23MetalShaderClassWrapperEEEEC2Ev = comdat any

$_ZNSt10_Head_baseILm0EPN19OpenColorIO_v2_4dev23MetalShaderClassWrapperELb0EEC2Ev = comdat any

$_ZNSt10_Head_baseILm1ESt14default_deleteIN19OpenColorIO_v2_4dev23MetalShaderClassWrapperEELb1EEC2Ev = comdat any

$_ZSt3getILm0EJPN19OpenColorIO_v2_4dev23MetalShaderClassWrapperESt14default_deleteIS1_EEERNSt13tuple_elementIXT_ESt5tupleIJDpT0_EEE4typeERS9_ = comdat any

$_ZSt12__get_helperILm0EPN19OpenColorIO_v2_4dev23MetalShaderClassWrapperEJSt14default_deleteIS1_EEERT0_RSt11_Tuple_implIXT_EJS5_DpT1_EE = comdat any

$_ZNSt11_Tuple_implILm0EJPN19OpenColorIO_v2_4dev23MetalShaderClassWrapperESt14default_deleteIS1_EEE7_M_headERS5_ = comdat any

$_ZNSt10_Head_baseILm0EPN19OpenColorIO_v2_4dev23MetalShaderClassWrapperELb0EE7_M_headERS3_ = comdat any

$_ZNSt10unique_ptrIN19OpenColorIO_v2_4dev23MetalShaderClassWrapperESt14default_deleteIS1_EE11get_deleterEv = comdat any

$_ZNKSt14default_deleteIN19OpenColorIO_v2_4dev23MetalShaderClassWrapperEEclEPS1_ = comdat any

$_ZNSt15__uniq_ptr_implIN19OpenColorIO_v2_4dev23MetalShaderClassWrapperESt14default_deleteIS1_EE10_M_deleterEv = comdat any

$_ZSt3getILm1EJPN19OpenColorIO_v2_4dev23MetalShaderClassWrapperESt14default_deleteIS1_EEERNSt13tuple_elementIXT_ESt5tupleIJDpT0_EEE4typeERS9_ = comdat any

$_ZSt12__get_helperILm1ESt14default_deleteIN19OpenColorIO_v2_4dev23MetalShaderClassWrapperEEJEERT0_RSt11_Tuple_implIXT_EJS4_DpT1_EE = comdat any

$_ZNSt11_Tuple_implILm1EJSt14default_deleteIN19OpenColorIO_v2_4dev23MetalShaderClassWrapperEEEE7_M_headERS4_ = comdat any

$_ZNSt10_Head_baseILm1ESt14default_deleteIN19OpenColorIO_v2_4dev23MetalShaderClassWrapperEELb1EE7_M_headERS4_ = comdat any

$_ZNSt10unique_ptrIN19OpenColorIO_v2_4dev23MetalShaderClassWrapperESt14default_deleteIS1_EE7releaseEv = comdat any

$_ZNSt15__uniq_ptr_dataIN19OpenColorIO_v2_4dev21GpuShaderClassWrapperESt14default_deleteIS1_ELb1ELb1EECI2St15__uniq_ptr_implIS1_S3_EIS2_INS0_23MetalShaderClassWrapperEEEEPS1_OT_ = comdat any

$_ZNSt15__uniq_ptr_implIN19OpenColorIO_v2_4dev23MetalShaderClassWrapperESt14default_deleteIS1_EE7releaseEv = comdat any

$_ZNSt15__uniq_ptr_implIN19OpenColorIO_v2_4dev21GpuShaderClassWrapperESt14default_deleteIS1_EEC2IS2_INS0_23MetalShaderClassWrapperEEEEPS1_OT_ = comdat any

$_ZNSt5tupleIJPN19OpenColorIO_v2_4dev21GpuShaderClassWrapperESt14default_deleteIS1_EEEC2IRS2_S3_INS0_23MetalShaderClassWrapperEETnNSt9enable_ifIXclsr4_TCCIXntcl14__is_alloc_argIT_EEEEE29__is_implicitly_constructibleISB_T0_EEEbE4typeELb1EEEOSB_OSC_ = comdat any

$_ZNSt11_Tuple_implILm0EJPN19OpenColorIO_v2_4dev21GpuShaderClassWrapperESt14default_deleteIS1_EEEC2IRS2_JS3_INS0_23MetalShaderClassWrapperEEEvEEOT_DpOT0_ = comdat any

$_ZNSt11_Tuple_implILm1EJSt14default_deleteIN19OpenColorIO_v2_4dev21GpuShaderClassWrapperEEEEC2IS0_INS1_23MetalShaderClassWrapperEEEEOT_ = comdat any

$_ZNSt10_Head_baseILm0EPN19OpenColorIO_v2_4dev21GpuShaderClassWrapperELb0EEC2IRS2_EEOT_ = comdat any

$_ZNSt10_Head_baseILm1ESt14default_deleteIN19OpenColorIO_v2_4dev21GpuShaderClassWrapperEELb1EEC2IS0_INS1_23MetalShaderClassWrapperEEEEOT_ = comdat any

$_ZNSt14default_deleteIN19OpenColorIO_v2_4dev21GpuShaderClassWrapperEEC2INS0_23MetalShaderClassWrapperEvEERKS_IT_E = comdat any

$_ZNSt15__uniq_ptr_dataIN19OpenColorIO_v2_4dev21OSLShaderClassWrapperESt14default_deleteIS1_ELb1ELb1EECI2St15__uniq_ptr_implIS1_S3_EEPS1_ = comdat any

$_ZNSt15__uniq_ptr_implIN19OpenColorIO_v2_4dev21OSLShaderClassWrapperESt14default_deleteIS1_EEC2EPS1_ = comdat any

$_ZNSt5tupleIJPN19OpenColorIO_v2_4dev21OSLShaderClassWrapperESt14default_deleteIS1_EEEC2ILb1ETnNSt9enable_ifIXclsr17_TupleConstraintsIXT_ES2_S4_EE37__is_implicitly_default_constructibleEEbE4typeELb1EEEv = comdat any

$_ZNSt15__uniq_ptr_implIN19OpenColorIO_v2_4dev21OSLShaderClassWrapperESt14default_deleteIS1_EE6_M_ptrEv = comdat any

$_ZNSt11_Tuple_implILm0EJPN19OpenColorIO_v2_4dev21OSLShaderClassWrapperESt14default_deleteIS1_EEEC2Ev = comdat any

$_ZNSt11_Tuple_implILm1EJSt14default_deleteIN19OpenColorIO_v2_4dev21OSLShaderClassWrapperEEEEC2Ev = comdat any

$_ZNSt10_Head_baseILm0EPN19OpenColorIO_v2_4dev21OSLShaderClassWrapperELb0EEC2Ev = comdat any

$_ZNSt10_Head_baseILm1ESt14default_deleteIN19OpenColorIO_v2_4dev21OSLShaderClassWrapperEELb1EEC2Ev = comdat any

$_ZSt3getILm0EJPN19OpenColorIO_v2_4dev21OSLShaderClassWrapperESt14default_deleteIS1_EEERNSt13tuple_elementIXT_ESt5tupleIJDpT0_EEE4typeERS9_ = comdat any

$_ZSt12__get_helperILm0EPN19OpenColorIO_v2_4dev21OSLShaderClassWrapperEJSt14default_deleteIS1_EEERT0_RSt11_Tuple_implIXT_EJS5_DpT1_EE = comdat any

$_ZNSt11_Tuple_implILm0EJPN19OpenColorIO_v2_4dev21OSLShaderClassWrapperESt14default_deleteIS1_EEE7_M_headERS5_ = comdat any

$_ZNSt10_Head_baseILm0EPN19OpenColorIO_v2_4dev21OSLShaderClassWrapperELb0EE7_M_headERS3_ = comdat any

$_ZNSt10unique_ptrIN19OpenColorIO_v2_4dev21OSLShaderClassWrapperESt14default_deleteIS1_EE11get_deleterEv = comdat any

$_ZNKSt14default_deleteIN19OpenColorIO_v2_4dev21OSLShaderClassWrapperEEclEPS1_ = comdat any

$_ZNSt15__uniq_ptr_implIN19OpenColorIO_v2_4dev21OSLShaderClassWrapperESt14default_deleteIS1_EE10_M_deleterEv = comdat any

$_ZSt3getILm1EJPN19OpenColorIO_v2_4dev21OSLShaderClassWrapperESt14default_deleteIS1_EEERNSt13tuple_elementIXT_ESt5tupleIJDpT0_EEE4typeERS9_ = comdat any

$_ZSt12__get_helperILm1ESt14default_deleteIN19OpenColorIO_v2_4dev21OSLShaderClassWrapperEEJEERT0_RSt11_Tuple_implIXT_EJS4_DpT1_EE = comdat any

$_ZNSt11_Tuple_implILm1EJSt14default_deleteIN19OpenColorIO_v2_4dev21OSLShaderClassWrapperEEEE7_M_headERS4_ = comdat any

$_ZNSt10_Head_baseILm1ESt14default_deleteIN19OpenColorIO_v2_4dev21OSLShaderClassWrapperEELb1EE7_M_headERS4_ = comdat any

$_ZNSt10unique_ptrIN19OpenColorIO_v2_4dev21OSLShaderClassWrapperESt14default_deleteIS1_EE7releaseEv = comdat any

$_ZNSt15__uniq_ptr_dataIN19OpenColorIO_v2_4dev21GpuShaderClassWrapperESt14default_deleteIS1_ELb1ELb1EECI2St15__uniq_ptr_implIS1_S3_EIS2_INS0_21OSLShaderClassWrapperEEEEPS1_OT_ = comdat any

$_ZNSt15__uniq_ptr_implIN19OpenColorIO_v2_4dev21OSLShaderClassWrapperESt14default_deleteIS1_EE7releaseEv = comdat any

$_ZNSt15__uniq_ptr_implIN19OpenColorIO_v2_4dev21GpuShaderClassWrapperESt14default_deleteIS1_EEC2IS2_INS0_21OSLShaderClassWrapperEEEEPS1_OT_ = comdat any

$_ZNSt5tupleIJPN19OpenColorIO_v2_4dev21GpuShaderClassWrapperESt14default_deleteIS1_EEEC2IRS2_S3_INS0_21OSLShaderClassWrapperEETnNSt9enable_ifIXclsr4_TCCIXntcl14__is_alloc_argIT_EEEEE29__is_implicitly_constructibleISB_T0_EEEbE4typeELb1EEEOSB_OSC_ = comdat any

$_ZNSt11_Tuple_implILm0EJPN19OpenColorIO_v2_4dev21GpuShaderClassWrapperESt14default_deleteIS1_EEEC2IRS2_JS3_INS0_21OSLShaderClassWrapperEEEvEEOT_DpOT0_ = comdat any

$_ZNSt11_Tuple_implILm1EJSt14default_deleteIN19OpenColorIO_v2_4dev21GpuShaderClassWrapperEEEEC2IS0_INS1_21OSLShaderClassWrapperEEEEOT_ = comdat any

$_ZNSt10_Head_baseILm1ESt14default_deleteIN19OpenColorIO_v2_4dev21GpuShaderClassWrapperEELb1EEC2IS0_INS1_21OSLShaderClassWrapperEEEEOT_ = comdat any

$_ZNSt14default_deleteIN19OpenColorIO_v2_4dev21GpuShaderClassWrapperEEC2INS0_21OSLShaderClassWrapperEvEERKS_IT_E = comdat any

$_ZNSt15__uniq_ptr_dataIN19OpenColorIO_v2_4dev25NullGpuShaderClassWrapperESt14default_deleteIS1_ELb1ELb1EECI2St15__uniq_ptr_implIS1_S3_EEPS1_ = comdat any

$_ZNSt15__uniq_ptr_implIN19OpenColorIO_v2_4dev25NullGpuShaderClassWrapperESt14default_deleteIS1_EEC2EPS1_ = comdat any

$_ZNSt5tupleIJPN19OpenColorIO_v2_4dev25NullGpuShaderClassWrapperESt14default_deleteIS1_EEEC2ILb1ETnNSt9enable_ifIXclsr17_TupleConstraintsIXT_ES2_S4_EE37__is_implicitly_default_constructibleEEbE4typeELb1EEEv = comdat any

$_ZNSt15__uniq_ptr_implIN19OpenColorIO_v2_4dev25NullGpuShaderClassWrapperESt14default_deleteIS1_EE6_M_ptrEv = comdat any

$_ZNSt11_Tuple_implILm0EJPN19OpenColorIO_v2_4dev25NullGpuShaderClassWrapperESt14default_deleteIS1_EEEC2Ev = comdat any

$_ZNSt11_Tuple_implILm1EJSt14default_deleteIN19OpenColorIO_v2_4dev25NullGpuShaderClassWrapperEEEEC2Ev = comdat any

$_ZNSt10_Head_baseILm0EPN19OpenColorIO_v2_4dev25NullGpuShaderClassWrapperELb0EEC2Ev = comdat any

$_ZNSt10_Head_baseILm1ESt14default_deleteIN19OpenColorIO_v2_4dev25NullGpuShaderClassWrapperEELb1EEC2Ev = comdat any

$_ZSt3getILm0EJPN19OpenColorIO_v2_4dev25NullGpuShaderClassWrapperESt14default_deleteIS1_EEERNSt13tuple_elementIXT_ESt5tupleIJDpT0_EEE4typeERS9_ = comdat any

$_ZSt12__get_helperILm0EPN19OpenColorIO_v2_4dev25NullGpuShaderClassWrapperEJSt14default_deleteIS1_EEERT0_RSt11_Tuple_implIXT_EJS5_DpT1_EE = comdat any

$_ZNSt11_Tuple_implILm0EJPN19OpenColorIO_v2_4dev25NullGpuShaderClassWrapperESt14default_deleteIS1_EEE7_M_headERS5_ = comdat any

$_ZNSt10_Head_baseILm0EPN19OpenColorIO_v2_4dev25NullGpuShaderClassWrapperELb0EE7_M_headERS3_ = comdat any

$_ZNSt10unique_ptrIN19OpenColorIO_v2_4dev25NullGpuShaderClassWrapperESt14default_deleteIS1_EE11get_deleterEv = comdat any

$_ZNKSt14default_deleteIN19OpenColorIO_v2_4dev25NullGpuShaderClassWrapperEEclEPS1_ = comdat any

$_ZNSt15__uniq_ptr_implIN19OpenColorIO_v2_4dev25NullGpuShaderClassWrapperESt14default_deleteIS1_EE10_M_deleterEv = comdat any

$_ZSt3getILm1EJPN19OpenColorIO_v2_4dev25NullGpuShaderClassWrapperESt14default_deleteIS1_EEERNSt13tuple_elementIXT_ESt5tupleIJDpT0_EEE4typeERS9_ = comdat any

$_ZSt12__get_helperILm1ESt14default_deleteIN19OpenColorIO_v2_4dev25NullGpuShaderClassWrapperEEJEERT0_RSt11_Tuple_implIXT_EJS4_DpT1_EE = comdat any

$_ZNSt11_Tuple_implILm1EJSt14default_deleteIN19OpenColorIO_v2_4dev25NullGpuShaderClassWrapperEEEE7_M_headERS4_ = comdat any

$_ZNSt10_Head_baseILm1ESt14default_deleteIN19OpenColorIO_v2_4dev25NullGpuShaderClassWrapperEELb1EE7_M_headERS4_ = comdat any

$_ZNSt10unique_ptrIN19OpenColorIO_v2_4dev25NullGpuShaderClassWrapperESt14default_deleteIS1_EE7releaseEv = comdat any

$_ZNSt15__uniq_ptr_dataIN19OpenColorIO_v2_4dev21GpuShaderClassWrapperESt14default_deleteIS1_ELb1ELb1EECI2St15__uniq_ptr_implIS1_S3_EIS2_INS0_25NullGpuShaderClassWrapperEEEEPS1_OT_ = comdat any

$_ZNSt15__uniq_ptr_implIN19OpenColorIO_v2_4dev25NullGpuShaderClassWrapperESt14default_deleteIS1_EE7releaseEv = comdat any

$_ZNSt15__uniq_ptr_implIN19OpenColorIO_v2_4dev21GpuShaderClassWrapperESt14default_deleteIS1_EEC2IS2_INS0_25NullGpuShaderClassWrapperEEEEPS1_OT_ = comdat any

$_ZNSt5tupleIJPN19OpenColorIO_v2_4dev21GpuShaderClassWrapperESt14default_deleteIS1_EEEC2IRS2_S3_INS0_25NullGpuShaderClassWrapperEETnNSt9enable_ifIXclsr4_TCCIXntcl14__is_alloc_argIT_EEEEE29__is_implicitly_constructibleISB_T0_EEEbE4typeELb1EEEOSB_OSC_ = comdat any

$_ZNSt11_Tuple_implILm0EJPN19OpenColorIO_v2_4dev21GpuShaderClassWrapperESt14default_deleteIS1_EEEC2IRS2_JS3_INS0_25NullGpuShaderClassWrapperEEEvEEOT_DpOT0_ = comdat any

$_ZNSt11_Tuple_implILm1EJSt14default_deleteIN19OpenColorIO_v2_4dev21GpuShaderClassWrapperEEEEC2IS0_INS1_25NullGpuShaderClassWrapperEEEEOT_ = comdat any

$_ZNSt10_Head_baseILm1ESt14default_deleteIN19OpenColorIO_v2_4dev21GpuShaderClassWrapperEELb1EEC2IS0_INS1_25NullGpuShaderClassWrapperEEEEOT_ = comdat any

$_ZNSt14default_deleteIN19OpenColorIO_v2_4dev21GpuShaderClassWrapperEEC2INS0_25NullGpuShaderClassWrapperEvEERKS_IT_E = comdat any

$_ZNSt11char_traitsIcE6lengthEPKc = comdat any

$_ZN9__gnu_cxx14__alloc_traitsISaIcEcE17_S_select_on_copyERKS1_ = comdat any

$_ZNSt16allocator_traitsISaIcEE37select_on_container_copy_constructionERKS0_ = comdat any

$_ZN9__gnu_cxx17__normal_iteratorIPKN19OpenColorIO_v2_4dev23MetalShaderClassWrapper13FunctionParamESt6vectorIS3_SaIS3_EEEC2ERKS5_ = comdat any

$_ZNK9__gnu_cxx17__normal_iteratorIPKN19OpenColorIO_v2_4dev23MetalShaderClassWrapper13FunctionParamESt6vectorIS3_SaIS3_EEE4baseEv = comdat any

$_ZSt8_DestroyIPSt5tupleIJNSt7__cxx1112basic_stringIcSt11char_traitsIcESaIcEEES6_S6_EES7_EvT_S9_RSaIT0_E = comdat any

$_ZNSt12_Vector_baseISt5tupleIJNSt7__cxx1112basic_stringIcSt11char_traitsIcESaIcEEES6_S6_EESaIS7_EE19_M_get_Tp_allocatorEv = comdat any

$_ZNSt12_Vector_baseISt5tupleIJNSt7__cxx1112basic_stringIcSt11char_traitsIcESaIcEEES6_S6_EESaIS7_EED2Ev = comdat any

$_ZSt8_DestroyIPSt5tupleIJNSt7__cxx1112basic_stringIcSt11char_traitsIcESaIcEEES6_S6_EEEvT_S9_ = comdat any

$_ZNSt12_Destroy_auxILb0EE9__destroyIPSt5tupleIJNSt7__cxx1112basic_stringIcSt11char_traitsIcESaIcEEES8_S8_EEEEvT_SB_ = comdat any

$_ZSt8_DestroyISt5tupleIJNSt7__cxx1112basic_stringIcSt11char_traitsIcESaIcEEES6_S6_EEEvPT_ = comdat any

$_ZNSt5tupleIJNSt7__cxx1112basic_stringIcSt11char_traitsIcESaIcEEES5_S5_EED2Ev = comdat any

$_ZNSt11_Tuple_implILm0EJNSt7__cxx1112basic_stringIcSt11char_traitsIcESaIcEEES5_S5_EED2Ev = comdat any

$_ZNSt10_Head_baseILm0ENSt7__cxx1112basic_stringIcSt11char_traitsIcESaIcEEELb0EED2Ev = comdat any

$_ZNSt11_Tuple_implILm1EJNSt7__cxx1112basic_stringIcSt11char_traitsIcESaIcEEES5_EED2Ev = comdat any

$_ZNSt10_Head_baseILm1ENSt7__cxx1112basic_stringIcSt11char_traitsIcESaIcEEELb0EED2Ev = comdat any

$_ZNSt11_Tuple_implILm2EJNSt7__cxx1112basic_stringIcSt11char_traitsIcESaIcEEEEED2Ev = comdat any

$_ZNSt10_Head_baseILm2ENSt7__cxx1112basic_stringIcSt11char_traitsIcESaIcEEELb0EED2Ev = comdat any

$_ZNSt12_Vector_baseISt5tupleIJNSt7__cxx1112basic_stringIcSt11char_traitsIcESaIcEEES6_S6_EESaIS7_EE13_M_deallocateEPS7_m = comdat any

$_ZNSt12_Vector_baseISt5tupleIJNSt7__cxx1112basic_stringIcSt11char_traitsIcESaIcEEES6_S6_EESaIS7_EE12_Vector_implD2Ev = comdat any

$_ZNSt16allocator_traitsISaISt5tupleIJNSt7__cxx1112basic_stringIcSt11char_traitsIcESaIcEEES6_S6_EEEE10deallocateERS8_PS7_m = comdat any

$_ZNSt15__new_allocatorISt5tupleIJNSt7__cxx1112basic_stringIcSt11char_traitsIcESaIcEEES6_S6_EEE10deallocateEPS7_m = comdat any

$_ZNSaISt5tupleIJNSt7__cxx1112basic_stringIcSt11char_traitsIcESaIcEEES5_S5_EEED2Ev = comdat any

$_ZNSt15__new_allocatorISt5tupleIJNSt7__cxx1112basic_stringIcSt11char_traitsIcESaIcEEES6_S6_EEED2Ev = comdat any

$_ZSt8_DestroyIPSt4pairINSt7__cxx1112basic_stringIcSt11char_traitsIcESaIcEEES6_ES7_EvT_S9_RSaIT0_E = comdat any

$_ZNSt12_Vector_baseISt4pairINSt7__cxx1112basic_stringIcSt11char_traitsIcESaIcEEES6_ESaIS7_EE19_M_get_Tp_allocatorEv = comdat any

$_ZNSt12_Vector_baseISt4pairINSt7__cxx1112basic_stringIcSt11char_traitsIcESaIcEEES6_ESaIS7_EED2Ev = comdat any

$_ZSt8_DestroyIPSt4pairINSt7__cxx1112basic_stringIcSt11char_traitsIcESaIcEEES6_EEvT_S9_ = comdat any

$_ZNSt12_Destroy_auxILb0EE9__destroyIPSt4pairINSt7__cxx1112basic_stringIcSt11char_traitsIcESaIcEEES8_EEEvT_SB_ = comdat any

$_ZSt8_DestroyISt4pairINSt7__cxx1112basic_stringIcSt11char_traitsIcESaIcEEES6_EEvPT_ = comdat any

$_ZNSt4pairINSt7__cxx1112basic_stringIcSt11char_traitsIcESaIcEEES5_ED2Ev = comdat any

$_ZNSt12_Vector_baseISt4pairINSt7__cxx1112basic_stringIcSt11char_traitsIcESaIcEEES6_ESaIS7_EE13_M_deallocateEPS7_m = comdat any

$_ZNSt12_Vector_baseISt4pairINSt7__cxx1112basic_stringIcSt11char_traitsIcESaIcEEES6_ESaIS7_EE12_Vector_implD2Ev = comdat any

$_ZNSt16allocator_traitsISaISt4pairINSt7__cxx1112basic_stringIcSt11char_traitsIcESaIcEEES6_EEE10deallocateERS8_PS7_m = comdat any

$_ZNSt15__new_allocatorISt4pairINSt7__cxx1112basic_stringIcSt11char_traitsIcESaIcEEES6_EE10deallocateEPS7_m = comdat any

$_ZNSaISt4pairINSt7__cxx1112basic_stringIcSt11char_traitsIcESaIcEEES5_EED2Ev = comdat any

$_ZNSt15__new_allocatorISt4pairINSt7__cxx1112basic_stringIcSt11char_traitsIcESaIcEEES6_EED2Ev = comdat any

$_ZNSt6vectorIN19OpenColorIO_v2_4dev23MetalShaderClassWrapper13FunctionParamESaIS2_EE15_M_erase_at_endEPS2_ = comdat any

$_ZNSt16allocator_traitsISaISt5tupleIJNSt7__cxx1112basic_stringIcSt11char_traitsIcESaIcEEES6_S6_EEEE9constructIS7_JRS6_SB_SB_EEEvRS8_PT_DpOT0_ = comdat any

$_ZNSt6vectorISt5tupleIJNSt7__cxx1112basic_stringIcSt11char_traitsIcESaIcEEES6_S6_EESaIS7_EE17_M_realloc_insertIJRS6_SB_SB_EEEvN9__gnu_cxx17__normal_iteratorIPS7_S9_EEDpOT_ = comdat any

$_ZNSt15__new_allocatorISt5tupleIJNSt7__cxx1112basic_stringIcSt11char_traitsIcESaIcEEES6_S6_EEE9constructIS7_JRS6_SA_SA_EEEvPT_DpOT0_ = comdat any

$_ZNSt5tupleIJNSt7__cxx1112basic_stringIcSt11char_traitsIcESaIcEEES5_S5_EEC2IJRS5_S8_S8_ELb1ETnNSt9enable_ifIXclsr4_TCCIXT0_EEE29__is_implicitly_constructibleIDpT_EEEbE4typeELb1EEEDpOSA_ = comdat any

$_ZNSt11_Tuple_implILm0EJNSt7__cxx1112basic_stringIcSt11char_traitsIcESaIcEEES5_S5_EEC2IRS5_JS8_S8_EvEEOT_DpOT0_ = comdat any

$_ZNSt11_Tuple_implILm1EJNSt7__cxx1112basic_stringIcSt11char_traitsIcESaIcEEES5_EEC2IRS5_JS8_EvEEOT_DpOT0_ = comdat any

$_ZNSt10_Head_baseILm0ENSt7__cxx1112basic_stringIcSt11char_traitsIcESaIcEEELb0EEC2IRS5_EEOT_ = comdat any

$_ZNSt11_Tuple_implILm2EJNSt7__cxx1112basic_stringIcSt11char_traitsIcESaIcEEEEEC2IRS5_EEOT_ = comdat any

$_ZNSt10_Head_baseILm1ENSt7__cxx1112basic_stringIcSt11char_traitsIcESaIcEEELb0EEC2IRS5_EEOT_ = comdat any

$_ZNSt10_Head_baseILm2ENSt7__cxx1112basic_stringIcSt11char_traitsIcESaIcEEELb0EEC2IRS5_EEOT_ = comdat any

$_ZNKSt6vectorISt5tupleIJNSt7__cxx1112basic_stringIcSt11char_traitsIcESaIcEEES6_S6_EESaIS7_EE12_M_check_lenEmPKc = comdat any

$_ZN9__gnu_cxxmiIPSt5tupleIJNSt7__cxx1112basic_stringIcSt11char_traitsIcESaIcEEES7_S7_EESt6vectorIS8_SaIS8_EEEENS_17__normal_iteratorIT_T0_E15difference_typeERKSG_SJ_ = comdat any

$_ZNSt12_Vector_baseISt5tupleIJNSt7__cxx1112basic_stringIcSt11char_traitsIcESaIcEEES6_S6_EESaIS7_EE11_M_allocateEm = comdat any

$_ZNSt6vectorISt5tupleIJNSt7__cxx1112basic_stringIcSt11char_traitsIcESaIcEEES6_S6_EESaIS7_EE11_S_relocateEPS7_SA_SA_RS8_ = comdat any

$_ZNK9__gnu_cxx17__normal_iteratorIPSt5tupleIJNSt7__cxx1112basic_stringIcSt11char_traitsIcESaIcEEES7_S7_EESt6vectorIS8_SaIS8_EEE4baseEv = comdat any

$_ZNSt16allocator_traitsISaISt5tupleIJNSt7__cxx1112basic_stringIcSt11char_traitsIcESaIcEEES6_S6_EEEE7destroyIS7_EEvRS8_PT_ = comdat any

$_ZNKSt6vectorISt5tupleIJNSt7__cxx1112basic_stringIcSt11char_traitsIcESaIcEEES6_S6_EESaIS7_EE8max_sizeEv = comdat any

$_ZNKSt6vectorISt5tupleIJNSt7__cxx1112basic_stringIcSt11char_traitsIcESaIcEEES6_S6_EESaIS7_EE4sizeEv = comdat any

$_ZSt3maxImERKT_S2_S2_ = comdat any

$_ZNSt6vectorISt5tupleIJNSt7__cxx1112basic_stringIcSt11char_traitsIcESaIcEEES6_S6_EESaIS7_EE11_S_max_sizeERKS8_ = comdat any

$_ZNKSt12_Vector_baseISt5tupleIJNSt7__cxx1112basic_stringIcSt11char_traitsIcESaIcEEES6_S6_EESaIS7_EE19_M_get_Tp_allocatorEv = comdat any

$_ZNSt16allocator_traitsISaISt5tupleIJNSt7__cxx1112basic_stringIcSt11char_traitsIcESaIcEEES6_S6_EEEE8max_sizeERKS8_ = comdat any

$_ZSt3minImERKT_S2_S2_ = comdat any

$_ZNKSt15__new_allocatorISt5tupleIJNSt7__cxx1112basic_stringIcSt11char_traitsIcESaIcEEES6_S6_EEE8max_sizeEv = comdat any

$_ZNKSt15__new_allocatorISt5tupleIJNSt7__cxx1112basic_stringIcSt11char_traitsIcESaIcEEES6_S6_EEE11_M_max_sizeEv = comdat any

$_ZNSt16allocator_traitsISaISt5tupleIJNSt7__cxx1112basic_stringIcSt11char_traitsIcESaIcEEES6_S6_EEEE8allocateERS8_m = comdat any

$_ZNSt15__new_allocatorISt5tupleIJNSt7__cxx1112basic_stringIcSt11char_traitsIcESaIcEEES6_S6_EEE8allocateEmPKv = comdat any

$_ZNSt6vectorISt5tupleIJNSt7__cxx1112basic_stringIcSt11char_traitsIcESaIcEEES6_S6_EESaIS7_EE14_S_do_relocateEPS7_SA_SA_RS8_St17integral_constantIbLb1EE = comdat any

$_ZSt12__relocate_aIPSt5tupleIJNSt7__cxx1112basic_stringIcSt11char_traitsIcESaIcEEES6_S6_EES8_SaIS7_EET0_T_SB_SA_RT1_ = comdat any

$_ZSt14__relocate_a_1IPSt5tupleIJNSt7__cxx1112basic_stringIcSt11char_traitsIcESaIcEEES6_S6_EES8_SaIS7_EET0_T_SB_SA_RT1_ = comdat any

$_ZSt12__niter_baseIPSt5tupleIJNSt7__cxx1112basic_stringIcSt11char_traitsIcESaIcEEES6_S6_EEET_S9_ = comdat any

$_ZSt19__relocate_object_aISt5tupleIJNSt7__cxx1112basic_stringIcSt11char_traitsIcESaIcEEES6_S6_EES7_SaIS7_EEvPT_PT0_RT1_ = comdat any

$_ZNSt16allocator_traitsISaISt5tupleIJNSt7__cxx1112basic_stringIcSt11char_traitsIcESaIcEEES6_S6_EEEE9constructIS7_JS7_EEEvRS8_PT_DpOT0_ = comdat any

$_ZNSt15__new_allocatorISt5tupleIJNSt7__cxx1112basic_stringIcSt11char_traitsIcESaIcEEES6_S6_EEE9constructIS7_JS7_EEEvPT_DpOT0_ = comdat any

$_ZNSt5tupleIJNSt7__cxx1112basic_stringIcSt11char_traitsIcESaIcEEES5_S5_EEC2EOS6_ = comdat any

$_ZNSt11_Tuple_implILm0EJNSt7__cxx1112basic_stringIcSt11char_traitsIcESaIcEEES5_S5_EEC2EOS6_ = comdat any

$_ZNSt11_Tuple_implILm1EJNSt7__cxx1112basic_stringIcSt11char_traitsIcESaIcEEES5_EEC2EOS6_ = comdat any

$_ZNSt10_Head_baseILm0ENSt7__cxx1112basic_stringIcSt11char_traitsIcESaIcEEELb0EEC2EOS6_ = comdat any

$_ZNSt11_Tuple_implILm2EJNSt7__cxx1112basic_stringIcSt11char_traitsIcESaIcEEEEEC2EOS6_ = comdat any

$_ZNSt10_Head_baseILm1ENSt7__cxx1112basic_stringIcSt11char_traitsIcESaIcEEELb0EEC2EOS6_ = comdat any

$_ZNSt10_Head_baseILm2ENSt7__cxx1112basic_stringIcSt11char_traitsIcESaIcEEELb0EEC2EOS6_ = comdat any

$_ZNSt15__new_allocatorISt5tupleIJNSt7__cxx1112basic_stringIcSt11char_traitsIcESaIcEEES6_S6_EEE7destroyIS7_EEvPT_ = comdat any

$_ZNSt16allocator_traitsISaISt4pairINSt7__cxx1112basic_stringIcSt11char_traitsIcESaIcEEES6_EEE9constructIS7_JRS6_SB_EEEvRS8_PT_DpOT0_ = comdat any

$_ZNSt6vectorISt4pairINSt7__cxx1112basic_stringIcSt11char_traitsIcESaIcEEES6_ESaIS7_EE17_M_realloc_insertIJRS6_SB_EEEvN9__gnu_cxx17__normal_iteratorIPS7_S9_EEDpOT_ = comdat any

$_ZNSt15__new_allocatorISt4pairINSt7__cxx1112basic_stringIcSt11char_traitsIcESaIcEEES6_EE9constructIS7_JRS6_SA_EEEvPT_DpOT0_ = comdat any

$_ZNSt4pairINSt7__cxx1112basic_stringIcSt11char_traitsIcESaIcEEES5_EC2IRS5_S8_TnNSt9enable_ifIXaaclsr5_PCCPE22_MoveConstructiblePairIT_T0_EEclsr5_PCCPE30_ImplicitlyMoveConvertiblePairISA_SB_EEEbE4typeELb1EEEOSA_OSB_ = comdat any

$_ZNKSt6vectorISt4pairINSt7__cxx1112basic_stringIcSt11char_traitsIcESaIcEEES6_ESaIS7_EE12_M_check_lenEmPKc = comdat any

$_ZN9__gnu_cxxmiIPSt4pairINSt7__cxx1112basic_stringIcSt11char_traitsIcESaIcEEES7_ESt6vectorIS8_SaIS8_EEEENS_17__normal_iteratorIT_T0_E15difference_typeERKSG_SJ_ = comdat any

$_ZNSt12_Vector_baseISt4pairINSt7__cxx1112basic_stringIcSt11char_traitsIcESaIcEEES6_ESaIS7_EE11_M_allocateEm = comdat any

$_ZNSt6vectorISt4pairINSt7__cxx1112basic_stringIcSt11char_traitsIcESaIcEEES6_ESaIS7_EE11_S_relocateEPS7_SA_SA_RS8_ = comdat any

$_ZNK9__gnu_cxx17__normal_iteratorIPSt4pairINSt7__cxx1112basic_stringIcSt11char_traitsIcESaIcEEES7_ESt6vectorIS8_SaIS8_EEE4baseEv = comdat any

$_ZNSt16allocator_traitsISaISt4pairINSt7__cxx1112basic_stringIcSt11char_traitsIcESaIcEEES6_EEE7destroyIS7_EEvRS8_PT_ = comdat any

$_ZNKSt6vectorISt4pairINSt7__cxx1112basic_stringIcSt11char_traitsIcESaIcEEES6_ESaIS7_EE8max_sizeEv = comdat any

$_ZNKSt6vectorISt4pairINSt7__cxx1112basic_stringIcSt11char_traitsIcESaIcEEES6_ESaIS7_EE4sizeEv = comdat any

$_ZNSt6vectorISt4pairINSt7__cxx1112basic_stringIcSt11char_traitsIcESaIcEEES6_ESaIS7_EE11_S_max_sizeERKS8_ = comdat any

$_ZNKSt12_Vector_baseISt4pairINSt7__cxx1112basic_stringIcSt11char_traitsIcESaIcEEES6_ESaIS7_EE19_M_get_Tp_allocatorEv = comdat any

$_ZNSt16allocator_traitsISaISt4pairINSt7__cxx1112basic_stringIcSt11char_traitsIcESaIcEEES6_EEE8max_sizeERKS8_ = comdat any

$_ZNKSt15__new_allocatorISt4pairINSt7__cxx1112basic_stringIcSt11char_traitsIcESaIcEEES6_EE8max_sizeEv = comdat any

$_ZNKSt15__new_allocatorISt4pairINSt7__cxx1112basic_stringIcSt11char_traitsIcESaIcEEES6_EE11_M_max_sizeEv = comdat any

$_ZNSt16allocator_traitsISaISt4pairINSt7__cxx1112basic_stringIcSt11char_traitsIcESaIcEEES6_EEE8allocateERS8_m = comdat any

$_ZNSt15__new_allocatorISt4pairINSt7__cxx1112basic_stringIcSt11char_traitsIcESaIcEEES6_EE8allocateEmPKv = comdat any

$_ZNSt6vectorISt4pairINSt7__cxx1112basic_stringIcSt11char_traitsIcESaIcEEES6_ESaIS7_EE14_S_do_relocateEPS7_SA_SA_RS8_St17integral_constantIbLb1EE = comdat any

$_ZSt12__relocate_aIPSt4pairINSt7__cxx1112basic_stringIcSt11char_traitsIcESaIcEEES6_ES8_SaIS7_EET0_T_SB_SA_RT1_ = comdat any

$_ZSt14__relocate_a_1IPSt4pairINSt7__cxx1112basic_stringIcSt11char_traitsIcESaIcEEES6_ES8_SaIS7_EET0_T_SB_SA_RT1_ = comdat any

$_ZSt12__niter_baseIPSt4pairINSt7__cxx1112basic_stringIcSt11char_traitsIcESaIcEEES6_EET_S9_ = comdat any

$_ZSt19__relocate_object_aISt4pairINSt7__cxx1112basic_stringIcSt11char_traitsIcESaIcEEES6_ES7_SaIS7_EEvPT_PT0_RT1_ = comdat any

$_ZNSt16allocator_traitsISaISt4pairINSt7__cxx1112basic_stringIcSt11char_traitsIcESaIcEEES6_EEE9constructIS7_JS7_EEEvRS8_PT_DpOT0_ = comdat any

$_ZNSt15__new_allocatorISt4pairINSt7__cxx1112basic_stringIcSt11char_traitsIcESaIcEEES6_EE9constructIS7_JS7_EEEvPT_DpOT0_ = comdat any

$_ZNSt4pairINSt7__cxx1112basic_stringIcSt11char_traitsIcESaIcEEES5_EC2EOS6_ = comdat any

$_ZNSt15__new_allocatorISt4pairINSt7__cxx1112basic_stringIcSt11char_traitsIcESaIcEEES6_EE7destroyIS7_EEvPT_ = comdat any

$_ZN9__gnu_cxx17__normal_iteratorIPSt5tupleIJNSt7__cxx1112basic_stringIcSt11char_traitsIcESaIcEEES7_S7_EESt6vectorIS8_SaIS8_EEEC2ERKS9_ = comdat any

$_ZNSt16allocator_traitsISaIN19OpenColorIO_v2_4dev23MetalShaderClassWrapper13FunctionParamEEE9constructIS2_JPKcS7_EEEvRS3_PT_DpOT0_ = comdat any

$_ZNSt6vectorIN19OpenColorIO_v2_4dev23MetalShaderClassWrapper13FunctionParamESaIS2_EE17_M_realloc_insertIJPKcS7_EEEvN9__gnu_cxx17__normal_iteratorIPS2_S4_EEDpOT_ = comdat any

$_ZNSt6vectorIN19OpenColorIO_v2_4dev23MetalShaderClassWrapper13FunctionParamESaIS2_EE3endEv = comdat any

$_ZNSt15__new_allocatorIN19OpenColorIO_v2_4dev23MetalShaderClassWrapper13FunctionParamEE9constructIS2_JPKcS6_EEEvPT_DpOT0_ = comdat any

$_ZN19OpenColorIO_v2_4dev23MetalShaderClassWrapper13FunctionParamC2ERKNSt7__cxx1112basic_stringIcSt11char_traitsIcESaIcEEES9_ = comdat any

$_ZNKSt6vectorIN19OpenColorIO_v2_4dev23MetalShaderClassWrapper13FunctionParamESaIS2_EE12_M_check_lenEmPKc = comdat any

$_ZN9__gnu_cxxmiIPN19OpenColorIO_v2_4dev23MetalShaderClassWrapper13FunctionParamESt6vectorIS3_SaIS3_EEEENS_17__normal_iteratorIT_T0_E15difference_typeERKSB_SE_ = comdat any

$_ZNSt6vectorIN19OpenColorIO_v2_4dev23MetalShaderClassWrapper13FunctionParamESaIS2_EE5beginEv = comdat any

$_ZNSt12_Vector_baseIN19OpenColorIO_v2_4dev23MetalShaderClassWrapper13FunctionParamESaIS2_EE11_M_allocateEm = comdat any

$_ZNSt6vectorIN19OpenColorIO_v2_4dev23MetalShaderClassWrapper13FunctionParamESaIS2_EE11_S_relocateEPS2_S5_S5_RS3_ = comdat any

$_ZNK9__gnu_cxx17__normal_iteratorIPN19OpenColorIO_v2_4dev23MetalShaderClassWrapper13FunctionParamESt6vectorIS3_SaIS3_EEE4baseEv = comdat any

$_ZNSt16allocator_traitsISaIN19OpenColorIO_v2_4dev23MetalShaderClassWrapper13FunctionParamEEE7destroyIS2_EEvRS3_PT_ = comdat any

$_ZNKSt6vectorIN19OpenColorIO_v2_4dev23MetalShaderClassWrapper13FunctionParamESaIS2_EE8max_sizeEv = comdat any

$_ZNKSt6vectorIN19OpenColorIO_v2_4dev23MetalShaderClassWrapper13FunctionParamESaIS2_EE4sizeEv = comdat any

$_ZNSt6vectorIN19OpenColorIO_v2_4dev23MetalShaderClassWrapper13FunctionParamESaIS2_EE11_S_max_sizeERKS3_ = comdat any

$_ZNKSt12_Vector_baseIN19OpenColorIO_v2_4dev23MetalShaderClassWrapper13FunctionParamESaIS2_EE19_M_get_Tp_allocatorEv = comdat any

$_ZNSt16allocator_traitsISaIN19OpenColorIO_v2_4dev23MetalShaderClassWrapper13FunctionParamEEE8max_sizeERKS3_ = comdat any

$_ZNKSt15__new_allocatorIN19OpenColorIO_v2_4dev23MetalShaderClassWrapper13FunctionParamEE8max_sizeEv = comdat any

$_ZNKSt15__new_allocatorIN19OpenColorIO_v2_4dev23MetalShaderClassWrapper13FunctionParamEE11_M_max_sizeEv = comdat any

$_ZN9__gnu_cxx17__normal_iteratorIPN19OpenColorIO_v2_4dev23MetalShaderClassWrapper13FunctionParamESt6vectorIS3_SaIS3_EEEC2ERKS4_ = comdat any

$_ZNSt16allocator_traitsISaIN19OpenColorIO_v2_4dev23MetalShaderClassWrapper13FunctionParamEEE8allocateERS3_m = comdat any

$_ZNSt15__new_allocatorIN19OpenColorIO_v2_4dev23MetalShaderClassWrapper13FunctionParamEE8allocateEmPKv = comdat any

$_ZNSt6vectorIN19OpenColorIO_v2_4dev23MetalShaderClassWrapper13FunctionParamESaIS2_EE14_S_do_relocateEPS2_S5_S5_RS3_St17integral_constantIbLb1EE = comdat any

$_ZSt12__relocate_aIPN19OpenColorIO_v2_4dev23MetalShaderClassWrapper13FunctionParamES3_SaIS2_EET0_T_S6_S5_RT1_ = comdat any

$_ZSt14__relocate_a_1IPN19OpenColorIO_v2_4dev23MetalShaderClassWrapper13FunctionParamES3_SaIS2_EET0_T_S6_S5_RT1_ = comdat any

$_ZSt12__niter_baseIPN19OpenColorIO_v2_4dev23MetalShaderClassWrapper13FunctionParamEET_S4_ = comdat any

$_ZSt19__relocate_object_aIN19OpenColorIO_v2_4dev23MetalShaderClassWrapper13FunctionParamES2_SaIS2_EEvPT_PT0_RT1_ = comdat any

$_ZNSt16allocator_traitsISaIN19OpenColorIO_v2_4dev23MetalShaderClassWrapper13FunctionParamEEE9constructIS2_JS2_EEEvRS3_PT_DpOT0_ = comdat any

$_ZNSt15__new_allocatorIN19OpenColorIO_v2_4dev23MetalShaderClassWrapper13FunctionParamEE9constructIS2_JS2_EEEvPT_DpOT0_ = comdat any

$_ZN19OpenColorIO_v2_4dev23MetalShaderClassWrapper13FunctionParamC2EOS1_ = comdat any

$_ZNSt15__new_allocatorIN19OpenColorIO_v2_4dev23MetalShaderClassWrapper13FunctionParamEE7destroyIS2_EEvPT_ = comdat any

$_ZNSt16allocator_traitsISaIN19OpenColorIO_v2_4dev23MetalShaderClassWrapper13FunctionParamEEE9constructIS2_JRA8_KcPS6_EEEvRS3_PT_DpOT0_ = comdat any

$_ZNSt6vectorIN19OpenColorIO_v2_4dev23MetalShaderClassWrapper13FunctionParamESaIS2_EE17_M_realloc_insertIJRA8_KcPS6_EEEvN9__gnu_cxx17__normal_iteratorIPS2_S4_EEDpOT_ = comdat any

$_ZNSt15__new_allocatorIN19OpenColorIO_v2_4dev23MetalShaderClassWrapper13FunctionParamEE9constructIS2_JRA8_KcPS5_EEEvPT_DpOT0_ = comdat any

$_ZN9__gnu_cxx17__normal_iteratorIPSt4pairINSt7__cxx1112basic_stringIcSt11char_traitsIcESaIcEEES7_ESt6vectorIS8_SaIS8_EEEC2ERKS9_ = comdat any

$_ZNSt16allocator_traitsISaIN19OpenColorIO_v2_4dev23MetalShaderClassWrapper13FunctionParamEEE9constructIS2_JRKNSt7__cxx1112basic_stringIcSt11char_traitsIcESaIcEEESD_EEEvRS3_PT_DpOT0_ = comdat any

$_ZNSt6vectorIN19OpenColorIO_v2_4dev23MetalShaderClassWrapper13FunctionParamESaIS2_EE17_M_realloc_insertIJRKNSt7__cxx1112basic_stringIcSt11char_traitsIcESaIcEEESD_EEEvN9__gnu_cxx17__normal_iteratorIPS2_S4_EEDpOT_ = comdat any

$_ZNSt15__new_allocatorIN19OpenColorIO_v2_4dev23MetalShaderClassWrapper13FunctionParamEE9constructIS2_JRKNSt7__cxx1112basic_stringIcSt11char_traitsIcESaIcEEESC_EEEvPT_DpOT0_ = comdat any

$_ZNKSt10unique_ptrIN19OpenColorIO_v2_4dev23MetalShaderClassWrapperESt14default_deleteIS1_EE3getEv = comdat any

$_ZNKSt15__uniq_ptr_implIN19OpenColorIO_v2_4dev23MetalShaderClassWrapperESt14default_deleteIS1_EE6_M_ptrEv = comdat any

$_ZSt3getILm0EJPN19OpenColorIO_v2_4dev23MetalShaderClassWrapperESt14default_deleteIS1_EEERKNSt13tuple_elementIXT_ESt5tupleIJDpT0_EEE4typeERKS9_ = comdat any

$_ZSt12__get_helperILm0EPN19OpenColorIO_v2_4dev23MetalShaderClassWrapperEJSt14default_deleteIS1_EEERKT0_RKSt11_Tuple_implIXT_EJS5_DpT1_EE = comdat any

$_ZNSt11_Tuple_implILm0EJPN19OpenColorIO_v2_4dev23MetalShaderClassWrapperESt14default_deleteIS1_EEE7_M_headERKS5_ = comdat any

$_ZNSt10_Head_baseILm0EPN19OpenColorIO_v2_4dev23MetalShaderClassWrapperELb0EE7_M_headERKS3_ = comdat any

$_ZNKSt6vectorIN19OpenColorIO_v2_4dev23MetalShaderClassWrapper13FunctionParamESaIS2_EE8capacityEv = comdat any

$_ZNSt6vectorIN19OpenColorIO_v2_4dev23MetalShaderClassWrapper13FunctionParamESaIS2_EE20_M_allocate_and_copyIN9__gnu_cxx17__normal_iteratorIPKS2_S4_EEEEPS2_mT_SC_ = comdat any

$_ZSt8_DestroyIN9__gnu_cxx17__normal_iteratorIPN19OpenColorIO_v2_4dev23MetalShaderClassWrapper13FunctionParamESt6vectorIS4_SaIS4_EEEES4_EvT_SA_RSaIT0_E = comdat any

$_ZSt4copyIN9__gnu_cxx17__normal_iteratorIPKN19OpenColorIO_v2_4dev23MetalShaderClassWrapper13FunctionParamESt6vectorIS4_SaIS4_EEEENS1_IPS4_S9_EEET0_T_SE_SD_ = comdat any

$_ZSt4copyIPN19OpenColorIO_v2_4dev23MetalShaderClassWrapper13FunctionParamES3_ET0_T_S5_S4_ = comdat any

$_ZSt22__uninitialized_copy_aIPN19OpenColorIO_v2_4dev23MetalShaderClassWrapper13FunctionParamES3_S2_ET0_T_S5_S4_RSaIT1_E = comdat any

$_ZSt22__uninitialized_copy_aIN9__gnu_cxx17__normal_iteratorIPKN19OpenColorIO_v2_4dev23MetalShaderClassWrapper13FunctionParamESt6vectorIS4_SaIS4_EEEEPS4_S4_ET0_T_SD_SC_RSaIT1_E = comdat any

$_ZSt18uninitialized_copyIN9__gnu_cxx17__normal_iteratorIPKN19OpenColorIO_v2_4dev23MetalShaderClassWrapper13FunctionParamESt6vectorIS4_SaIS4_EEEEPS4_ET0_T_SD_SC_ = comdat any

$_ZNSt20__uninitialized_copyILb0EE13__uninit_copyIN9__gnu_cxx17__normal_iteratorIPKN19OpenColorIO_v2_4dev23MetalShaderClassWrapper13FunctionParamESt6vectorIS6_SaIS6_EEEEPS6_EET0_T_SF_SE_ = comdat any

$_ZSt16__do_uninit_copyIN9__gnu_cxx17__normal_iteratorIPKN19OpenColorIO_v2_4dev23MetalShaderClassWrapper13FunctionParamESt6vectorIS4_SaIS4_EEEEPS4_ET0_T_SD_SC_ = comdat any

$_ZSt10_ConstructIN19OpenColorIO_v2_4dev23MetalShaderClassWrapper13FunctionParamEJRKS2_EEvPT_DpOT0_ = comdat any

$_ZN19OpenColorIO_v2_4dev23MetalShaderClassWrapper13FunctionParamC2ERKS1_ = comdat any

$_ZSt8_DestroyIN9__gnu_cxx17__normal_iteratorIPN19OpenColorIO_v2_4dev23MetalShaderClassWrapper13FunctionParamESt6vectorIS4_SaIS4_EEEEEvT_SA_ = comdat any

$_ZNSt12_Destroy_auxILb0EE9__destroyIN9__gnu_cxx17__normal_iteratorIPN19OpenColorIO_v2_4dev23MetalShaderClassWrapper13FunctionParamESt6vectorIS6_SaIS6_EEEEEEvT_SC_ = comdat any

$_ZN9__gnu_cxxneIPN19OpenColorIO_v2_4dev23MetalShaderClassWrapper13FunctionParamESt6vectorIS3_SaIS3_EEEEbRKNS_17__normal_iteratorIT_T0_EESD_ = comdat any

$_ZNK9__gnu_cxx17__normal_iteratorIPN19OpenColorIO_v2_4dev23MetalShaderClassWrapper13FunctionParamESt6vectorIS3_SaIS3_EEEdeEv = comdat any

$_ZN9__gnu_cxx17__normal_iteratorIPN19OpenColorIO_v2_4dev23MetalShaderClassWrapper13FunctionParamESt6vectorIS3_SaIS3_EEEppEv = comdat any

$_ZSt13__copy_move_aILb0EN9__gnu_cxx17__normal_iteratorIPKN19OpenColorIO_v2_4dev23MetalShaderClassWrapper13FunctionParamESt6vectorIS4_SaIS4_EEEENS1_IPS4_S9_EEET1_T0_SE_SD_ = comdat any

$_ZSt12__miter_baseIN9__gnu_cxx17__normal_iteratorIPKN19OpenColorIO_v2_4dev23MetalShaderClassWrapper13FunctionParamESt6vectorIS4_SaIS4_EEEEET_SB_ = comdat any

$_ZSt12__niter_wrapIN9__gnu_cxx17__normal_iteratorIPN19OpenColorIO_v2_4dev23MetalShaderClassWrapper13FunctionParamESt6vectorIS4_SaIS4_EEEES5_ET_SA_T0_ = comdat any

$_ZSt14__copy_move_a1ILb0EPKN19OpenColorIO_v2_4dev23MetalShaderClassWrapper13FunctionParamEPS2_ET1_T0_S7_S6_ = comdat any

$_ZSt12__niter_baseIPKN19OpenColorIO_v2_4dev23MetalShaderClassWrapper13FunctionParamESt6vectorIS2_SaIS2_EEET_N9__gnu_cxx17__normal_iteratorIS8_T0_EE = comdat any

$_ZSt12__niter_baseIPN19OpenColorIO_v2_4dev23MetalShaderClassWrapper13FunctionParamESt6vectorIS2_SaIS2_EEET_N9__gnu_cxx17__normal_iteratorIS7_T0_EE = comdat any

$_ZNK9__gnu_cxx17__normal_iteratorIPN19OpenColorIO_v2_4dev23MetalShaderClassWrapper13FunctionParamESt6vectorIS3_SaIS3_EEEplEl = comdat any

$_ZSt14__copy_move_a2ILb0EPKN19OpenColorIO_v2_4dev23MetalShaderClassWrapper13FunctionParamEPS2_ET1_T0_S7_S6_ = comdat any

$_ZNSt11__copy_moveILb0ELb0ESt26random_access_iterator_tagE8__copy_mIPKN19OpenColorIO_v2_4dev23MetalShaderClassWrapper13FunctionParamEPS5_EET0_T_SA_S9_ = comdat any

$_ZN19OpenColorIO_v2_4dev23MetalShaderClassWrapper13FunctionParamaSERKS1_ = comdat any

$_ZSt13__copy_move_aILb0EPN19OpenColorIO_v2_4dev23MetalShaderClassWrapper13FunctionParamES3_ET1_T0_S5_S4_ = comdat any

$_ZSt12__miter_baseIPN19OpenColorIO_v2_4dev23MetalShaderClassWrapper13FunctionParamEET_S4_ = comdat any

$_ZSt12__niter_wrapIPN19OpenColorIO_v2_4dev23MetalShaderClassWrapper13FunctionParamEET_RKS4_S4_ = comdat any

$_ZSt14__copy_move_a1ILb0EPN19OpenColorIO_v2_4dev23MetalShaderClassWrapper13FunctionParamES3_ET1_T0_S5_S4_ = comdat any

$_ZSt14__copy_move_a2ILb0EPN19OpenColorIO_v2_4dev23MetalShaderClassWrapper13FunctionParamES3_ET1_T0_S5_S4_ = comdat any

$_ZNSt11__copy_moveILb0ELb0ESt26random_access_iterator_tagE8__copy_mIPN19OpenColorIO_v2_4dev23MetalShaderClassWrapper13FunctionParamES6_EET0_T_S8_S7_ = comdat any

$_ZSt18uninitialized_copyIPN19OpenColorIO_v2_4dev23MetalShaderClassWrapper13FunctionParamES3_ET0_T_S5_S4_ = comdat any

$_ZNSt20__uninitialized_copyILb0EE13__uninit_copyIPN19OpenColorIO_v2_4dev23MetalShaderClassWrapper13FunctionParamES5_EET0_T_S7_S6_ = comdat any

$_ZSt16__do_uninit_copyIPN19OpenColorIO_v2_4dev23MetalShaderClassWrapper13FunctionParamES3_ET0_T_S5_S4_ = comdat any

$_ZSt10_ConstructIN19OpenColorIO_v2_4dev23MetalShaderClassWrapper13FunctionParamEJRS2_EEvPT_DpOT0_ = comdat any

$_ZTSN19OpenColorIO_v2_4dev21GpuShaderClassWrapperE = comdat any

$_ZTIN19OpenColorIO_v2_4dev21GpuShaderClassWrapperE = comdat any

$_ZTVN19OpenColorIO_v2_4dev21GpuShaderClassWrapperE = comdat any

@.str = private unnamed_addr constant [7 x i8] c"_count\00", align 1
@.str.1 = private unnamed_addr constant [1 x i8] zeroinitializer, align 1
@.str.2 = private unnamed_addr constant [23 x i8] c"/* All the includes */\00", align 1
@.str.3 = private unnamed_addr constant [21 x i8] c"#include \22vector4.h\22\00", align 1
@.str.4 = private unnamed_addr constant [20 x i8] c"#include \22color4.h\22\00", align 1
@.str.5 = private unnamed_addr constant [37 x i8] c"/* All the generic helper methods */\00", align 1
@.str.6 = private unnamed_addr constant [47 x i8] c"vector4 __operator__mul__(matrix m, vector4 v)\00", align 1
@.str.7 = private unnamed_addr constant [2 x i8] c"{\00", align 1
@.str.8 = private unnamed_addr constant [79 x i8] c"return vector4(v.x * m[0][0] + v.y * m[0][1] + v.z * m[0][2] + v.w * m[0][3], \00", align 1
@.str.9 = private unnamed_addr constant [79 x i8] c"               v.x * m[1][0] + v.y * m[1][1] + v.z * m[1][2] + v.w * m[1][3], \00", align 1
@.str.10 = private unnamed_addr constant [79 x i8] c"               v.x * m[2][0] + v.y * m[2][1] + v.z * m[2][2] + v.w * m[2][3], \00", align 1
@.str.11 = private unnamed_addr constant [79 x i8] c"               v.x * m[3][0] + v.y * m[3][1] + v.z * m[3][2] + v.w * m[3][3]);\00", align 1
@.str.12 = private unnamed_addr constant [2 x i8] c"}\00", align 1
@.str.13 = private unnamed_addr constant [47 x i8] c"vector4 __operator__mul__(color4 c, vector4 v)\00", align 1
@.str.14 = private unnamed_addr constant [52 x i8] c"return vector4(c.rgb.r, c.rgb.g, c.rgb.b, c.a) * v;\00", align 1
@.str.15 = private unnamed_addr constant [47 x i8] c"vector4 __operator__mul__(vector4 v, color4 c)\00", align 1
@.str.16 = private unnamed_addr constant [52 x i8] c"return v * vector4(c.rgb.r, c.rgb.g, c.rgb.b, c.a);\00", align 1
@.str.17 = private unnamed_addr constant [47 x i8] c"vector4 __operator__sub__(color4 c, vector4 v)\00", align 1
@.str.18 = private unnamed_addr constant [52 x i8] c"return vector4(c.rgb.r, c.rgb.g, c.rgb.b, c.a) - v;\00", align 1
@.str.19 = private unnamed_addr constant [47 x i8] c"vector4 __operator__add__(vector4 v, color4 c)\00", align 1
@.str.20 = private unnamed_addr constant [52 x i8] c"return v + vector4(c.rgb.r, c.rgb.g, c.rgb.b, c.a);\00", align 1
@.str.21 = private unnamed_addr constant [47 x i8] c"vector4 __operator__add__(color4 c, vector4 v)\00", align 1
@.str.22 = private unnamed_addr constant [52 x i8] c"return vector4(c.rgb.r, c.rgb.g, c.rgb.b, c.a) + v;\00", align 1
@.str.23 = private unnamed_addr constant [33 x i8] c"vector4 pow(color4 c, vector4 v)\00", align 1
@.str.24 = private unnamed_addr constant [56 x i8] c"return pow(vector4(c.rgb.r, c.rgb.g, c.rgb.b, c.a), v);\00", align 1
@.str.25 = private unnamed_addr constant [33 x i8] c"vector4 max(vector4 v, color4 c)\00", align 1
@.str.26 = private unnamed_addr constant [56 x i8] c"return max(v, vector4(c.rgb.r, c.rgb.g, c.rgb.b, c.a));\00", align 1
@.str.27 = private unnamed_addr constant [32 x i8] c"/* The shader implementation */\00", align 1
@.str.28 = private unnamed_addr constant [8 x i8] c"shader \00", align 1
@.str.29 = private unnamed_addr constant [5 x i8] c"OSL_\00", align 1
@.str.30 = private unnamed_addr constant [73 x i8] c"(color4 inColor = {color(0), 1}, output color4 outColor = {color(0), 1})\00", align 1
@.str.31 = private unnamed_addr constant [12 x i8] c"outColor = \00", align 1
@.str.32 = private unnamed_addr constant [11 x i8] c"(inColor);\00", align 1
@.str.33 = private unnamed_addr constant [46 x i8] c"Struct name must include at least 1 character\00", align 1
@_ZTIN19OpenColorIO_v2_4dev9ExceptionE = external constant ptr
@.str.34 = private unnamed_addr constant [71 x i8] c"Struct name must not start with a digit. Invalid className passed in: \00", align 1
@.str.35 = private unnamed_addr constant [8 x i8] c"struct \00", align 1
@.str.36 = private unnamed_addr constant [2 x i8] c"(\00", align 1
@.str.37 = private unnamed_addr constant [10 x i8] c"constant \00", align 1
@.str.38 = private unnamed_addr constant [2 x i8] c" \00", align 1
@.str.39 = private unnamed_addr constant [7 x i8] c", int \00", align 1
@.str.40 = private unnamed_addr constant [3 x i8] c", \00", align 1
@.str.41 = private unnamed_addr constant [2 x i8] c")\00", align 1
@.str.42 = private unnamed_addr constant [7 x i8] c"this->\00", align 1
@.str.43 = private unnamed_addr constant [4 x i8] c" = \00", align 1
@.str.44 = private unnamed_addr constant [2 x i8] c";\00", align 1
@.str.45 = private unnamed_addr constant [20 x i8] c"for(int i = 0; i < \00", align 1
@.str.46 = private unnamed_addr constant [7 x i8] c"; ++i)\00", align 1
@.str.47 = private unnamed_addr constant [7 x i8] c"[i] = \00", align 1
@.str.48 = private unnamed_addr constant [5 x i8] c"[i];\00", align 1
@.str.49 = private unnamed_addr constant [13 x i8] c"for(int i = \00", align 1
@.str.50 = private unnamed_addr constant [7 x i8] c"; i < \00", align 1
@.str.51 = private unnamed_addr constant [9 x i8] c"[i] = 0;\00", align 1
@.str.52 = private unnamed_addr constant [3 x i8] c"};\00", align 1
@.str.53 = private unnamed_addr constant [10 x i8] c" inPixel)\00", align 1
@.str.54 = private unnamed_addr constant [8 x i8] c"return \00", align 1
@.str.55 = private unnamed_addr constant [3 x i8] c").\00", align 1
@.str.56 = private unnamed_addr constant [11 x i8] c"(inPixel);\00", align 1
@.str.57 = private unnamed_addr constant [6 x i8] c"OCIO_\00", align 1
@.str.58 = private unnamed_addr constant [8 x i8] c"texture\00", align 1
@.str.59 = private unnamed_addr constant [4 x i8] c" \09;\00", align 1
@.str.60 = private unnamed_addr constant [8 x i8] c"sampler\00", align 1
@.str.61 = private unnamed_addr constant [3 x i8] c" \09\00", align 1
@.str.62 = private unnamed_addr constant [35 x i8] c"\0A// Declaration of class wrapper\0A\0A\00", align 1
@.str.63 = private unnamed_addr constant [26 x i8] c"\0A// Close class wrapper\0A\0A\00", align 1
@_ZTVN19OpenColorIO_v2_4dev23MetalShaderClassWrapperE = hidden unnamed_addr constant { [8 x ptr] } { [8 x ptr] [ptr null, ptr @_ZTIN19OpenColorIO_v2_4dev23MetalShaderClassWrapperE, ptr @_ZN19OpenColorIO_v2_4dev23MetalShaderClassWrapper19prepareClassWrapperERKNSt7__cxx1112basic_stringIcSt11char_traitsIcESaIcEEES8_S8_, ptr @_ZN19OpenColorIO_v2_4dev23MetalShaderClassWrapper21getClassWrapperHeaderERKNSt7__cxx1112basic_stringIcSt11char_traitsIcESaIcEEE, ptr @_ZN19OpenColorIO_v2_4dev23MetalShaderClassWrapper21getClassWrapperFooterERKNSt7__cxx1112basic_stringIcSt11char_traitsIcESaIcEEE, ptr @_ZNK19OpenColorIO_v2_4dev23MetalShaderClassWrapper5cloneEv, ptr @_ZN19OpenColorIO_v2_4dev23MetalShaderClassWrapperD2Ev, ptr @_ZN19OpenColorIO_v2_4dev23MetalShaderClassWrapperD0Ev] }, align 8
@_ZTVN10__cxxabiv120__si_class_type_infoE = external global [0 x ptr]
@_ZTSN19OpenColorIO_v2_4dev23MetalShaderClassWrapperE = hidden constant [49 x i8] c"N19OpenColorIO_v2_4dev23MetalShaderClassWrapperE\00", align 1
@_ZTVN10__cxxabiv117__class_type_infoE = external global [0 x ptr]
@_ZTSN19OpenColorIO_v2_4dev21GpuShaderClassWrapperE = linkonce_odr hidden constant [47 x i8] c"N19OpenColorIO_v2_4dev21GpuShaderClassWrapperE\00", comdat, align 1
@_ZTIN19OpenColorIO_v2_4dev21GpuShaderClassWrapperE = linkonce_odr hidden constant { ptr, ptr } { ptr getelementptr inbounds (ptr, ptr @_ZTVN10__cxxabiv117__class_type_infoE, i64 2), ptr @_ZTSN19OpenColorIO_v2_4dev21GpuShaderClassWrapperE }, comdat, align 8
@_ZTIN19OpenColorIO_v2_4dev23MetalShaderClassWrapperE = hidden constant { ptr, ptr, ptr } { ptr getelementptr inbounds (ptr, ptr @_ZTVN10__cxxabiv120__si_class_type_infoE, i64 2), ptr @_ZTSN19OpenColorIO_v2_4dev23MetalShaderClassWrapperE, ptr @_ZTIN19OpenColorIO_v2_4dev21GpuShaderClassWrapperE }, align 8
@_ZTVN19OpenColorIO_v2_4dev21OSLShaderClassWrapperE = hidden unnamed_addr constant { [8 x ptr] } { [8 x ptr] [ptr null, ptr @_ZTIN19OpenColorIO_v2_4dev21OSLShaderClassWrapperE, ptr @_ZN19OpenColorIO_v2_4dev21OSLShaderClassWrapper19prepareClassWrapperERKNSt7__cxx1112basic_stringIcSt11char_traitsIcESaIcEEES8_S8_, ptr @_ZN19OpenColorIO_v2_4dev21OSLShaderClassWrapper21getClassWrapperHeaderERKNSt7__cxx1112basic_stringIcSt11char_traitsIcESaIcEEE, ptr @_ZN19OpenColorIO_v2_4dev21OSLShaderClassWrapper21getClassWrapperFooterERKNSt7__cxx1112basic_stringIcSt11char_traitsIcESaIcEEE, ptr @_ZNK19OpenColorIO_v2_4dev21OSLShaderClassWrapper5cloneEv, ptr @_ZN19OpenColorIO_v2_4dev21OSLShaderClassWrapperD2Ev, ptr @_ZN19OpenColorIO_v2_4dev21OSLShaderClassWrapperD0Ev] }, align 8
@_ZTSN19OpenColorIO_v2_4dev21OSLShaderClassWrapperE = hidden constant [47 x i8] c"N19OpenColorIO_v2_4dev21OSLShaderClassWrapperE\00", align 1
@_ZTIN19OpenColorIO_v2_4dev21OSLShaderClassWrapperE = hidden constant { ptr, ptr, ptr } { ptr getelementptr inbounds (ptr, ptr @_ZTVN10__cxxabiv120__si_class_type_infoE, i64 2), ptr @_ZTSN19OpenColorIO_v2_4dev21OSLShaderClassWrapperE, ptr @_ZTIN19OpenColorIO_v2_4dev21GpuShaderClassWrapperE }, align 8
@_ZTVN19OpenColorIO_v2_4dev25NullGpuShaderClassWrapperE = hidden unnamed_addr constant { [8 x ptr] } { [8 x ptr] [ptr null, ptr @_ZTIN19OpenColorIO_v2_4dev25NullGpuShaderClassWrapperE, ptr @_ZN19OpenColorIO_v2_4dev25NullGpuShaderClassWrapper19prepareClassWrapperERKNSt7__cxx1112basic_stringIcSt11char_traitsIcESaIcEEES8_S8_, ptr @_ZN19OpenColorIO_v2_4dev25NullGpuShaderClassWrapper21getClassWrapperHeaderERKNSt7__cxx1112basic_stringIcSt11char_traitsIcESaIcEEE, ptr @_ZN19OpenColorIO_v2_4dev25NullGpuShaderClassWrapper21getClassWrapperFooterERKNSt7__cxx1112basic_stringIcSt11char_traitsIcESaIcEEE, ptr @_ZNK19OpenColorIO_v2_4dev25NullGpuShaderClassWrapper5cloneEv, ptr @_ZN19OpenColorIO_v2_4dev25NullGpuShaderClassWrapperD2Ev, ptr @_ZN19OpenColorIO_v2_4dev25NullGpuShaderClassWrapperD0Ev] }, align 8
@_ZTSN19OpenColorIO_v2_4dev25NullGpuShaderClassWrapperE = hidden constant [51 x i8] c"N19OpenColorIO_v2_4dev25NullGpuShaderClassWrapperE\00", align 1
@_ZTIN19OpenColorIO_v2_4dev25NullGpuShaderClassWrapperE = hidden constant { ptr, ptr, ptr } { ptr getelementptr inbounds (ptr, ptr @_ZTVN10__cxxabiv120__si_class_type_infoE, i64 2), ptr @_ZTSN19OpenColorIO_v2_4dev25NullGpuShaderClassWrapperE, ptr @_ZTIN19OpenColorIO_v2_4dev21GpuShaderClassWrapperE }, align 8
@_ZTVN19OpenColorIO_v2_4dev21GpuShaderClassWrapperE = linkonce_odr hidden unnamed_addr constant { [8 x ptr] } { [8 x ptr] [ptr null, ptr @_ZTIN19OpenColorIO_v2_4dev21GpuShaderClassWrapperE, ptr @__cxa_pure_virtual, ptr @__cxa_pure_virtual, ptr @__cxa_pure_virtual, ptr @__cxa_pure_virtual, ptr @_ZN19OpenColorIO_v2_4dev21GpuShaderClassWrapperD2Ev, ptr @_ZN19OpenColorIO_v2_4dev21GpuShaderClassWrapperD0Ev] }, comdat, align 8
@.str.64 = private unnamed_addr constant [26 x i8] c"vector::_M_realloc_insert\00", align 1

; Function Attrs: mustprogress uwtable
define hidden void @_ZN19OpenColorIO_v2_4dev26GetArrayLengthVariableNameERKNSt7__cxx1112basic_stringIcSt11char_traitsIcESaIcEEE(ptr noalias sret(%"class.std::__cxx11::basic_string") align 8 %agg.result, ptr noundef nonnull align 8 dereferenceable(32) %variableName) #0 {
entry:
  %result.ptr = alloca ptr, align 8
  %variableName.addr = alloca ptr, align 8
  store ptr %agg.result, ptr %result.ptr, align 8
  store ptr %variableName, ptr %variableName.addr, align 8
  %0 = load ptr, ptr %variableName.addr, align 8
  call void @_ZStplIcSt11char_traitsIcESaIcEENSt7__cxx1112basic_stringIT_T0_T1_EERKS8_PKS5_(ptr sret(%"class.std::__cxx11::basic_string") align 8 %agg.result, ptr noundef nonnull align 8 dereferenceable(32) %0, ptr noundef @.str)
  ret void
}

; Function Attrs: mustprogress uwtable
define linkonce_odr void @_ZStplIcSt11char_traitsIcESaIcEENSt7__cxx1112basic_stringIT_T0_T1_EERKS8_PKS5_(ptr noalias sret(%"class.std::__cxx11::basic_string") align 8 %agg.result, ptr noundef nonnull align 8 dereferenceable(32) %__lhs, ptr noundef %__rhs) #0 comdat personality ptr @__gxx_personality_v0 {
entry:
  %result.ptr = alloca ptr, align 8
  %__lhs.addr = alloca ptr, align 8
  %__rhs.addr = alloca ptr, align 8
  %nrvo = alloca i1, align 1
  %exn.slot = alloca ptr, align 8
  %ehselector.slot = alloca i32, align 4
  store ptr %agg.result, ptr %result.ptr, align 8
  store ptr %__lhs, ptr %__lhs.addr, align 8
  store ptr %__rhs, ptr %__rhs.addr, align 8
  store i1 false, ptr %nrvo, align 1
  %0 = load ptr, ptr %__lhs.addr, align 8
  call void @_ZNSt7__cxx1112basic_stringIcSt11char_traitsIcESaIcEEC1ERKS4_(ptr noundef nonnull align 8 dereferenceable(32) %agg.result, ptr noundef nonnull align 8 dereferenceable(32) %0)
  %1 = load ptr, ptr %__rhs.addr, align 8
  %call = invoke noundef nonnull align 8 dereferenceable(32) ptr @_ZNSt7__cxx1112basic_stringIcSt11char_traitsIcESaIcEE6appendEPKc(ptr noundef nonnull align 8 dereferenceable(32) %agg.result, ptr noundef %1)
          to label %invoke.cont unwind label %lpad

invoke.cont:                                      ; preds = %entry
  store i1 true, ptr %nrvo, align 1
  %nrvo.val = load i1, ptr %nrvo, align 1
  br i1 %nrvo.val, label %nrvo.skipdtor, label %nrvo.unused

lpad:                                             ; preds = %entry
  %2 = landingpad { ptr, i32 }
          cleanup
  %3 = extractvalue { ptr, i32 } %2, 0
  store ptr %3, ptr %exn.slot, align 8
  %4 = extractvalue { ptr, i32 } %2, 1
  store i32 %4, ptr %ehselector.slot, align 4
  call void @_ZNSt7__cxx1112basic_stringIcSt11char_traitsIcESaIcEED1Ev(ptr noundef nonnull align 8 dereferenceable(32) %agg.result) #12
  br label %eh.resume

nrvo.unused:                                      ; preds = %invoke.cont
  call void @_ZNSt7__cxx1112basic_stringIcSt11char_traitsIcESaIcEED1Ev(ptr noundef nonnull align 8 dereferenceable(32) %agg.result) #12
  br label %nrvo.skipdtor

nrvo.skipdtor:                                    ; preds = %nrvo.unused, %invoke.cont
  ret void

eh.resume:                                        ; preds = %lpad
  %exn = load ptr, ptr %exn.slot, align 8
  %sel = load i32, ptr %ehselector.slot, align 4
  %lpad.val = insertvalue { ptr, i32 } poison, ptr %exn, 0
  %lpad.val1 = insertvalue { ptr, i32 } %lpad.val, i32 %sel, 1
  resume { ptr, i32 } %lpad.val1
}

; Function Attrs: mustprogress uwtable
define hidden void @_ZN19OpenColorIO_v2_4dev21GpuShaderClassWrapper18CreateClassWrapperENS_11GpuLanguageE(ptr noalias sret(%"class.std::unique_ptr") align 8 %agg.result, i32 noundef %language) #0 align 2 {
entry:
  %result.ptr = alloca ptr, align 8
  %language.addr = alloca i32, align 4
  %ref.tmp = alloca %"class.std::unique_ptr.2", align 8
  %ref.tmp2 = alloca %"class.std::unique_ptr.13", align 8
  %ref.tmp5 = alloca %"class.std::unique_ptr.21", align 8
  store ptr %agg.result, ptr %result.ptr, align 8
  store i32 %language, ptr %language.addr, align 4
  %0 = load i32, ptr %language.addr, align 4
  switch i32 %0, label %sw.default [
    i32 8, label %sw.bb
    i32 5, label %sw.bb1
    i32 0, label %sw.bb4
    i32 1, label %sw.bb4
    i32 2, label %sw.bb4
    i32 3, label %sw.bb4
    i32 4, label %sw.bb4
    i32 6, label %sw.bb4
    i32 7, label %sw.bb4
  ]

sw.bb:                                            ; preds = %entry
  %call = call noalias noundef nonnull ptr @_Znwm(i64 noundef 96) #13
  call void @_ZN19OpenColorIO_v2_4dev23MetalShaderClassWrapperC2Ev(ptr noundef nonnull align 8 dereferenceable(96) %call) #12
  call void @_ZNSt10unique_ptrIN19OpenColorIO_v2_4dev23MetalShaderClassWrapperESt14default_deleteIS1_EEC2IS3_vEEPS1_(ptr noundef nonnull align 8 dereferenceable(8) %ref.tmp, ptr noundef %call) #12
  call void @_ZNSt10unique_ptrIN19OpenColorIO_v2_4dev21GpuShaderClassWrapperESt14default_deleteIS1_EEC2INS0_23MetalShaderClassWrapperES2_IS6_EvEEOS_IT_T0_E(ptr noundef nonnull align 8 dereferenceable(8) %agg.result, ptr noundef nonnull align 8 dereferenceable(8) %ref.tmp) #12
  call void @_ZNSt10unique_ptrIN19OpenColorIO_v2_4dev23MetalShaderClassWrapperESt14default_deleteIS1_EED2Ev(ptr noundef nonnull align 8 dereferenceable(8) %ref.tmp) #12
  br label %return

sw.bb1:                                           ; preds = %entry
  %call3 = call noalias noundef nonnull ptr @_Znwm(i64 noundef 40) #13
  call void @_ZN19OpenColorIO_v2_4dev21OSLShaderClassWrapperC2Ev(ptr noundef nonnull align 8 dereferenceable(40) %call3) #12
  call void @_ZNSt10unique_ptrIN19OpenColorIO_v2_4dev21OSLShaderClassWrapperESt14default_deleteIS1_EEC2IS3_vEEPS1_(ptr noundef nonnull align 8 dereferenceable(8) %ref.tmp2, ptr noundef %call3) #12
  call void @_ZNSt10unique_ptrIN19OpenColorIO_v2_4dev21GpuShaderClassWrapperESt14default_deleteIS1_EEC2INS0_21OSLShaderClassWrapperES2_IS6_EvEEOS_IT_T0_E(ptr noundef nonnull align 8 dereferenceable(8) %agg.result, ptr noundef nonnull align 8 dereferenceable(8) %ref.tmp2) #12
  call void @_ZNSt10unique_ptrIN19OpenColorIO_v2_4dev21OSLShaderClassWrapperESt14default_deleteIS1_EED2Ev(ptr noundef nonnull align 8 dereferenceable(8) %ref.tmp2) #12
  br label %return

sw.bb4:                                           ; preds = %entry, %entry, %entry, %entry, %entry, %entry, %entry
  br label %sw.default

sw.default:                                       ; preds = %sw.bb4, %entry
  %call6 = call noalias noundef nonnull ptr @_Znwm(i64 noundef 8) #13
  call void @_ZN19OpenColorIO_v2_4dev25NullGpuShaderClassWrapperC2Ev(ptr noundef nonnull align 8 dereferenceable(8) %call6) #12
  call void @_ZNSt10unique_ptrIN19OpenColorIO_v2_4dev25NullGpuShaderClassWrapperESt14default_deleteIS1_EEC2IS3_vEEPS1_(ptr noundef nonnull align 8 dereferenceable(8) %ref.tmp5, ptr noundef %call6) #12
  call void @_ZNSt10unique_ptrIN19OpenColorIO_v2_4dev21GpuShaderClassWrapperESt14default_deleteIS1_EEC2INS0_25NullGpuShaderClassWrapperES2_IS6_EvEEOS_IT_T0_E(ptr noundef nonnull align 8 dereferenceable(8) %agg.result, ptr noundef nonnull align 8 dereferenceable(8) %ref.tmp5) #12
  call void @_ZNSt10unique_ptrIN19OpenColorIO_v2_4dev25NullGpuShaderClassWrapperESt14default_deleteIS1_EED2Ev(ptr noundef nonnull align 8 dereferenceable(8) %ref.tmp5) #12
  br label %return

return:                                           ; preds = %sw.default, %sw.bb1, %sw.bb
  ret void
}

; Function Attrs: nobuiltin allocsize(0)
declare noundef nonnull ptr @_Znwm(i64 noundef) #1

; Function Attrs: mustprogress nounwind uwtable
define linkonce_odr hidden void @_ZN19OpenColorIO_v2_4dev23MetalShaderClassWrapperC2Ev(ptr noundef nonnull align 8 dereferenceable(96) %this) unnamed_addr #2 comdat align 2 {
entry:
  %this.addr = alloca ptr, align 8
  store ptr %this, ptr %this.addr, align 8
  %this1 = load ptr, ptr %this.addr, align 8
  call void @_ZN19OpenColorIO_v2_4dev21GpuShaderClassWrapperC2Ev(ptr noundef nonnull align 8 dereferenceable(8) %this1) #12
  store ptr getelementptr inbounds ({ [8 x ptr] }, ptr @_ZTVN19OpenColorIO_v2_4dev23MetalShaderClassWrapperE, i32 0, inrange i32 0, i32 2), ptr %this1, align 8
  %m_className = getelementptr inbounds %"class.OpenColorIO_v2_4dev::MetalShaderClassWrapper", ptr %this1, i32 0, i32 1
  call void @_ZNSt7__cxx1112basic_stringIcSt11char_traitsIcESaIcEEC1Ev(ptr noundef nonnull align 8 dereferenceable(32) %m_className) #12
  %m_functionName = getelementptr inbounds %"class.OpenColorIO_v2_4dev::MetalShaderClassWrapper", ptr %this1, i32 0, i32 2
  call void @_ZNSt7__cxx1112basic_stringIcSt11char_traitsIcESaIcEEC1Ev(ptr noundef nonnull align 8 dereferenceable(32) %m_functionName) #12
  %m_functionParameters = getelementptr inbounds %"class.OpenColorIO_v2_4dev::MetalShaderClassWrapper", ptr %this1, i32 0, i32 3
  call void @_ZNSt6vectorIN19OpenColorIO_v2_4dev23MetalShaderClassWrapper13FunctionParamESaIS2_EEC2Ev(ptr noundef nonnull align 8 dereferenceable(24) %m_functionParameters) #12
  ret void
}

; Function Attrs: mustprogress nounwind uwtable
define linkonce_odr hidden void @_ZNSt10unique_ptrIN19OpenColorIO_v2_4dev23MetalShaderClassWrapperESt14default_deleteIS1_EEC2IS3_vEEPS1_(ptr noundef nonnull align 8 dereferenceable(8) %this, ptr noundef %__p) unnamed_addr #2 comdat align 2 personality ptr @__gxx_personality_v0 {
entry:
  %this.addr = alloca ptr, align 8
  %__p.addr = alloca ptr, align 8
  store ptr %this, ptr %this.addr, align 8
  store ptr %__p, ptr %__p.addr, align 8
  %this1 = load ptr, ptr %this.addr, align 8
  %_M_t = getelementptr inbounds %"class.std::unique_ptr.2", ptr %this1, i32 0, i32 0
  %0 = load ptr, ptr %__p.addr, align 8
  invoke void @_ZNSt15__uniq_ptr_dataIN19OpenColorIO_v2_4dev23MetalShaderClassWrapperESt14default_deleteIS1_ELb1ELb1EECI2St15__uniq_ptr_implIS1_S3_EEPS1_(ptr noundef nonnull align 8 dereferenceable(8) %_M_t, ptr noundef %0)
          to label %invoke.cont unwind label %terminate.lpad

invoke.cont:                                      ; preds = %entry
  ret void

terminate.lpad:                                   ; preds = %entry
  %1 = landingpad { ptr, i32 }
          catch ptr null
  %2 = extractvalue { ptr, i32 } %1, 0
  call void @__clang_call_terminate(ptr %2) #14
  unreachable
}

; Function Attrs: mustprogress nounwind uwtable
define linkonce_odr hidden void @_ZNSt10unique_ptrIN19OpenColorIO_v2_4dev21GpuShaderClassWrapperESt14default_deleteIS1_EEC2INS0_23MetalShaderClassWrapperES2_IS6_EvEEOS_IT_T0_E(ptr noundef nonnull align 8 dereferenceable(8) %this, ptr noundef nonnull align 8 dereferenceable(8) %__u) unnamed_addr #2 comdat align 2 personality ptr @__gxx_personality_v0 {
entry:
  %this.addr = alloca ptr, align 8
  %__u.addr = alloca ptr, align 8
  store ptr %this, ptr %this.addr, align 8
  store ptr %__u, ptr %__u.addr, align 8
  %this1 = load ptr, ptr %this.addr, align 8
  %_M_t = getelementptr inbounds %"class.std::unique_ptr", ptr %this1, i32 0, i32 0
  %0 = load ptr, ptr %__u.addr, align 8
  %call = call noundef ptr @_ZNSt10unique_ptrIN19OpenColorIO_v2_4dev23MetalShaderClassWrapperESt14default_deleteIS1_EE7releaseEv(ptr noundef nonnull align 8 dereferenceable(8) %0) #12
  %1 = load ptr, ptr %__u.addr, align 8
  %call2 = call noundef nonnull align 1 dereferenceable(1) ptr @_ZNSt10unique_ptrIN19OpenColorIO_v2_4dev23MetalShaderClassWrapperESt14default_deleteIS1_EE11get_deleterEv(ptr noundef nonnull align 8 dereferenceable(8) %1) #12
  invoke void @_ZNSt15__uniq_ptr_dataIN19OpenColorIO_v2_4dev21GpuShaderClassWrapperESt14default_deleteIS1_ELb1ELb1EECI2St15__uniq_ptr_implIS1_S3_EIS2_INS0_23MetalShaderClassWrapperEEEEPS1_OT_(ptr noundef nonnull align 8 dereferenceable(8) %_M_t, ptr noundef %call, ptr noundef nonnull align 1 dereferenceable(1) %call2)
          to label %invoke.cont unwind label %terminate.lpad

invoke.cont:                                      ; preds = %entry
  ret void

terminate.lpad:                                   ; preds = %entry
  %2 = landingpad { ptr, i32 }
          catch ptr null
  %3 = extractvalue { ptr, i32 } %2, 0
  call void @__clang_call_terminate(ptr %3) #14
  unreachable
}

; Function Attrs: mustprogress nounwind uwtable
define linkonce_odr hidden void @_ZNSt10unique_ptrIN19OpenColorIO_v2_4dev23MetalShaderClassWrapperESt14default_deleteIS1_EED2Ev(ptr noundef nonnull align 8 dereferenceable(8) %this) unnamed_addr #2 comdat align 2 personality ptr @__gxx_personality_v0 {
entry:
  %this.addr = alloca ptr, align 8
  %__ptr = alloca ptr, align 8
  store ptr %this, ptr %this.addr, align 8
  %this1 = load ptr, ptr %this.addr, align 8
  %_M_t = getelementptr inbounds %"class.std::unique_ptr.2", ptr %this1, i32 0, i32 0
  %call = call noundef nonnull align 8 dereferenceable(8) ptr @_ZNSt15__uniq_ptr_implIN19OpenColorIO_v2_4dev23MetalShaderClassWrapperESt14default_deleteIS1_EE6_M_ptrEv(ptr noundef nonnull align 8 dereferenceable(8) %_M_t) #12
  store ptr %call, ptr %__ptr, align 8
  %0 = load ptr, ptr %__ptr, align 8
  %1 = load ptr, ptr %0, align 8
  %cmp = icmp ne ptr %1, null
  br i1 %cmp, label %if.then, label %if.end

if.then:                                          ; preds = %entry
  %call2 = call noundef nonnull align 1 dereferenceable(1) ptr @_ZNSt10unique_ptrIN19OpenColorIO_v2_4dev23MetalShaderClassWrapperESt14default_deleteIS1_EE11get_deleterEv(ptr noundef nonnull align 8 dereferenceable(8) %this1) #12
  %2 = load ptr, ptr %__ptr, align 8
  %3 = load ptr, ptr %2, align 8
  invoke void @_ZNKSt14default_deleteIN19OpenColorIO_v2_4dev23MetalShaderClassWrapperEEclEPS1_(ptr noundef nonnull align 1 dereferenceable(1) %call2, ptr noundef %3)
          to label %invoke.cont unwind label %terminate.lpad

invoke.cont:                                      ; preds = %if.then
  br label %if.end

if.end:                                           ; preds = %invoke.cont, %entry
  %4 = load ptr, ptr %__ptr, align 8
  store ptr null, ptr %4, align 8
  ret void

terminate.lpad:                                   ; preds = %if.then
  %5 = landingpad { ptr, i32 }
          catch ptr null
  %6 = extractvalue { ptr, i32 } %5, 0
  call void @__clang_call_terminate(ptr %6) #14
  unreachable
}

; Function Attrs: mustprogress nounwind uwtable
define linkonce_odr hidden void @_ZN19OpenColorIO_v2_4dev21OSLShaderClassWrapperC2Ev(ptr noundef nonnull align 8 dereferenceable(40) %this) unnamed_addr #2 comdat align 2 {
entry:
  %this.addr = alloca ptr, align 8
  store ptr %this, ptr %this.addr, align 8
  %this1 = load ptr, ptr %this.addr, align 8
  call void @_ZN19OpenColorIO_v2_4dev21GpuShaderClassWrapperC2Ev(ptr noundef nonnull align 8 dereferenceable(8) %this1) #12
  store ptr getelementptr inbounds ({ [8 x ptr] }, ptr @_ZTVN19OpenColorIO_v2_4dev21OSLShaderClassWrapperE, i32 0, inrange i32 0, i32 2), ptr %this1, align 8
  %m_functionName = getelementptr inbounds %"class.OpenColorIO_v2_4dev::OSLShaderClassWrapper", ptr %this1, i32 0, i32 1
  call void @_ZNSt7__cxx1112basic_stringIcSt11char_traitsIcESaIcEEC1Ev(ptr noundef nonnull align 8 dereferenceable(32) %m_functionName) #12
  ret void
}

; Function Attrs: mustprogress nounwind uwtable
define linkonce_odr hidden void @_ZNSt10unique_ptrIN19OpenColorIO_v2_4dev21OSLShaderClassWrapperESt14default_deleteIS1_EEC2IS3_vEEPS1_(ptr noundef nonnull align 8 dereferenceable(8) %this, ptr noundef %__p) unnamed_addr #2 comdat align 2 personality ptr @__gxx_personality_v0 {
entry:
  %this.addr = alloca ptr, align 8
  %__p.addr = alloca ptr, align 8
  store ptr %this, ptr %this.addr, align 8
  store ptr %__p, ptr %__p.addr, align 8
  %this1 = load ptr, ptr %this.addr, align 8
  %_M_t = getelementptr inbounds %"class.std::unique_ptr.13", ptr %this1, i32 0, i32 0
  %0 = load ptr, ptr %__p.addr, align 8
  invoke void @_ZNSt15__uniq_ptr_dataIN19OpenColorIO_v2_4dev21OSLShaderClassWrapperESt14default_deleteIS1_ELb1ELb1EECI2St15__uniq_ptr_implIS1_S3_EEPS1_(ptr noundef nonnull align 8 dereferenceable(8) %_M_t, ptr noundef %0)
          to label %invoke.cont unwind label %terminate.lpad

invoke.cont:                                      ; preds = %entry
  ret void

terminate.lpad:                                   ; preds = %entry
  %1 = landingpad { ptr, i32 }
          catch ptr null
  %2 = extractvalue { ptr, i32 } %1, 0
  call void @__clang_call_terminate(ptr %2) #14
  unreachable
}

; Function Attrs: mustprogress nounwind uwtable
define linkonce_odr hidden void @_ZNSt10unique_ptrIN19OpenColorIO_v2_4dev21GpuShaderClassWrapperESt14default_deleteIS1_EEC2INS0_21OSLShaderClassWrapperES2_IS6_EvEEOS_IT_T0_E(ptr noundef nonnull align 8 dereferenceable(8) %this, ptr noundef nonnull align 8 dereferenceable(8) %__u) unnamed_addr #2 comdat align 2 personality ptr @__gxx_personality_v0 {
entry:
  %this.addr = alloca ptr, align 8
  %__u.addr = alloca ptr, align 8
  store ptr %this, ptr %this.addr, align 8
  store ptr %__u, ptr %__u.addr, align 8
  %this1 = load ptr, ptr %this.addr, align 8
  %_M_t = getelementptr inbounds %"class.std::unique_ptr", ptr %this1, i32 0, i32 0
  %0 = load ptr, ptr %__u.addr, align 8
  %call = call noundef ptr @_ZNSt10unique_ptrIN19OpenColorIO_v2_4dev21OSLShaderClassWrapperESt14default_deleteIS1_EE7releaseEv(ptr noundef nonnull align 8 dereferenceable(8) %0) #12
  %1 = load ptr, ptr %__u.addr, align 8
  %call2 = call noundef nonnull align 1 dereferenceable(1) ptr @_ZNSt10unique_ptrIN19OpenColorIO_v2_4dev21OSLShaderClassWrapperESt14default_deleteIS1_EE11get_deleterEv(ptr noundef nonnull align 8 dereferenceable(8) %1) #12
  invoke void @_ZNSt15__uniq_ptr_dataIN19OpenColorIO_v2_4dev21GpuShaderClassWrapperESt14default_deleteIS1_ELb1ELb1EECI2St15__uniq_ptr_implIS1_S3_EIS2_INS0_21OSLShaderClassWrapperEEEEPS1_OT_(ptr noundef nonnull align 8 dereferenceable(8) %_M_t, ptr noundef %call, ptr noundef nonnull align 1 dereferenceable(1) %call2)
          to label %invoke.cont unwind label %terminate.lpad

invoke.cont:                                      ; preds = %entry
  ret void

terminate.lpad:                                   ; preds = %entry
  %2 = landingpad { ptr, i32 }
          catch ptr null
  %3 = extractvalue { ptr, i32 } %2, 0
  call void @__clang_call_terminate(ptr %3) #14
  unreachable
}

; Function Attrs: mustprogress nounwind uwtable
define linkonce_odr hidden void @_ZNSt10unique_ptrIN19OpenColorIO_v2_4dev21OSLShaderClassWrapperESt14default_deleteIS1_EED2Ev(ptr noundef nonnull align 8 dereferenceable(8) %this) unnamed_addr #2 comdat align 2 personality ptr @__gxx_personality_v0 {
entry:
  %this.addr = alloca ptr, align 8
  %__ptr = alloca ptr, align 8
  store ptr %this, ptr %this.addr, align 8
  %this1 = load ptr, ptr %this.addr, align 8
  %_M_t = getelementptr inbounds %"class.std::unique_ptr.13", ptr %this1, i32 0, i32 0
  %call = call noundef nonnull align 8 dereferenceable(8) ptr @_ZNSt15__uniq_ptr_implIN19OpenColorIO_v2_4dev21OSLShaderClassWrapperESt14default_deleteIS1_EE6_M_ptrEv(ptr noundef nonnull align 8 dereferenceable(8) %_M_t) #12
  store ptr %call, ptr %__ptr, align 8
  %0 = load ptr, ptr %__ptr, align 8
  %1 = load ptr, ptr %0, align 8
  %cmp = icmp ne ptr %1, null
  br i1 %cmp, label %if.then, label %if.end

if.then:                                          ; preds = %entry
  %call2 = call noundef nonnull align 1 dereferenceable(1) ptr @_ZNSt10unique_ptrIN19OpenColorIO_v2_4dev21OSLShaderClassWrapperESt14default_deleteIS1_EE11get_deleterEv(ptr noundef nonnull align 8 dereferenceable(8) %this1) #12
  %2 = load ptr, ptr %__ptr, align 8
  %3 = load ptr, ptr %2, align 8
  invoke void @_ZNKSt14default_deleteIN19OpenColorIO_v2_4dev21OSLShaderClassWrapperEEclEPS1_(ptr noundef nonnull align 1 dereferenceable(1) %call2, ptr noundef %3)
          to label %invoke.cont unwind label %terminate.lpad

invoke.cont:                                      ; preds = %if.then
  br label %if.end

if.end:                                           ; preds = %invoke.cont, %entry
  %4 = load ptr, ptr %__ptr, align 8
  store ptr null, ptr %4, align 8
  ret void

terminate.lpad:                                   ; preds = %if.then
  %5 = landingpad { ptr, i32 }
          catch ptr null
  %6 = extractvalue { ptr, i32 } %5, 0
  call void @__clang_call_terminate(ptr %6) #14
  unreachable
}

; Function Attrs: mustprogress nounwind uwtable
define linkonce_odr hidden void @_ZN19OpenColorIO_v2_4dev25NullGpuShaderClassWrapperC2Ev(ptr noundef nonnull align 8 dereferenceable(8) %this) unnamed_addr #2 comdat align 2 {
entry:
  %this.addr = alloca ptr, align 8
  store ptr %this, ptr %this.addr, align 8
  %this1 = load ptr, ptr %this.addr, align 8
  call void @_ZN19OpenColorIO_v2_4dev21GpuShaderClassWrapperC2Ev(ptr noundef nonnull align 8 dereferenceable(8) %this1) #12
  store ptr getelementptr inbounds ({ [8 x ptr] }, ptr @_ZTVN19OpenColorIO_v2_4dev25NullGpuShaderClassWrapperE, i32 0, inrange i32 0, i32 2), ptr %this1, align 8
  ret void
}

; Function Attrs: mustprogress nounwind uwtable
define linkonce_odr hidden void @_ZNSt10unique_ptrIN19OpenColorIO_v2_4dev25NullGpuShaderClassWrapperESt14default_deleteIS1_EEC2IS3_vEEPS1_(ptr noundef nonnull align 8 dereferenceable(8) %this, ptr noundef %__p) unnamed_addr #2 comdat align 2 personality ptr @__gxx_personality_v0 {
entry:
  %this.addr = alloca ptr, align 8
  %__p.addr = alloca ptr, align 8
  store ptr %this, ptr %this.addr, align 8
  store ptr %__p, ptr %__p.addr, align 8
  %this1 = load ptr, ptr %this.addr, align 8
  %_M_t = getelementptr inbounds %"class.std::unique_ptr.21", ptr %this1, i32 0, i32 0
  %0 = load ptr, ptr %__p.addr, align 8
  invoke void @_ZNSt15__uniq_ptr_dataIN19OpenColorIO_v2_4dev25NullGpuShaderClassWrapperESt14default_deleteIS1_ELb1ELb1EECI2St15__uniq_ptr_implIS1_S3_EEPS1_(ptr noundef nonnull align 8 dereferenceable(8) %_M_t, ptr noundef %0)
          to label %invoke.cont unwind label %terminate.lpad

invoke.cont:                                      ; preds = %entry
  ret void

terminate.lpad:                                   ; preds = %entry
  %1 = landingpad { ptr, i32 }
          catch ptr null
  %2 = extractvalue { ptr, i32 } %1, 0
  call void @__clang_call_terminate(ptr %2) #14
  unreachable
}

; Function Attrs: mustprogress nounwind uwtable
define linkonce_odr hidden void @_ZNSt10unique_ptrIN19OpenColorIO_v2_4dev21GpuShaderClassWrapperESt14default_deleteIS1_EEC2INS0_25NullGpuShaderClassWrapperES2_IS6_EvEEOS_IT_T0_E(ptr noundef nonnull align 8 dereferenceable(8) %this, ptr noundef nonnull align 8 dereferenceable(8) %__u) unnamed_addr #2 comdat align 2 personality ptr @__gxx_personality_v0 {
entry:
  %this.addr = alloca ptr, align 8
  %__u.addr = alloca ptr, align 8
  store ptr %this, ptr %this.addr, align 8
  store ptr %__u, ptr %__u.addr, align 8
  %this1 = load ptr, ptr %this.addr, align 8
  %_M_t = getelementptr inbounds %"class.std::unique_ptr", ptr %this1, i32 0, i32 0
  %0 = load ptr, ptr %__u.addr, align 8
  %call = call noundef ptr @_ZNSt10unique_ptrIN19OpenColorIO_v2_4dev25NullGpuShaderClassWrapperESt14default_deleteIS1_EE7releaseEv(ptr noundef nonnull align 8 dereferenceable(8) %0) #12
  %1 = load ptr, ptr %__u.addr, align 8
  %call2 = call noundef nonnull align 1 dereferenceable(1) ptr @_ZNSt10unique_ptrIN19OpenColorIO_v2_4dev25NullGpuShaderClassWrapperESt14default_deleteIS1_EE11get_deleterEv(ptr noundef nonnull align 8 dereferenceable(8) %1) #12
  invoke void @_ZNSt15__uniq_ptr_dataIN19OpenColorIO_v2_4dev21GpuShaderClassWrapperESt14default_deleteIS1_ELb1ELb1EECI2St15__uniq_ptr_implIS1_S3_EIS2_INS0_25NullGpuShaderClassWrapperEEEEPS1_OT_(ptr noundef nonnull align 8 dereferenceable(8) %_M_t, ptr noundef %call, ptr noundef nonnull align 1 dereferenceable(1) %call2)
          to label %invoke.cont unwind label %terminate.lpad

invoke.cont:                                      ; preds = %entry
  ret void

terminate.lpad:                                   ; preds = %entry
  %2 = landingpad { ptr, i32 }
          catch ptr null
  %3 = extractvalue { ptr, i32 } %2, 0
  call void @__clang_call_terminate(ptr %3) #14
  unreachable
}

; Function Attrs: mustprogress nounwind uwtable
define linkonce_odr hidden void @_ZNSt10unique_ptrIN19OpenColorIO_v2_4dev25NullGpuShaderClassWrapperESt14default_deleteIS1_EED2Ev(ptr noundef nonnull align 8 dereferenceable(8) %this) unnamed_addr #2 comdat align 2 personality ptr @__gxx_personality_v0 {
entry:
  %this.addr = alloca ptr, align 8
  %__ptr = alloca ptr, align 8
  store ptr %this, ptr %this.addr, align 8
  %this1 = load ptr, ptr %this.addr, align 8
  %_M_t = getelementptr inbounds %"class.std::unique_ptr.21", ptr %this1, i32 0, i32 0
  %call = call noundef nonnull align 8 dereferenceable(8) ptr @_ZNSt15__uniq_ptr_implIN19OpenColorIO_v2_4dev25NullGpuShaderClassWrapperESt14default_deleteIS1_EE6_M_ptrEv(ptr noundef nonnull align 8 dereferenceable(8) %_M_t) #12
  store ptr %call, ptr %__ptr, align 8
  %0 = load ptr, ptr %__ptr, align 8
  %1 = load ptr, ptr %0, align 8
  %cmp = icmp ne ptr %1, null
  br i1 %cmp, label %if.then, label %if.end

if.then:                                          ; preds = %entry
  %call2 = call noundef nonnull align 1 dereferenceable(1) ptr @_ZNSt10unique_ptrIN19OpenColorIO_v2_4dev25NullGpuShaderClassWrapperESt14default_deleteIS1_EE11get_deleterEv(ptr noundef nonnull align 8 dereferenceable(8) %this1) #12
  %2 = load ptr, ptr %__ptr, align 8
  %3 = load ptr, ptr %2, align 8
  invoke void @_ZNKSt14default_deleteIN19OpenColorIO_v2_4dev25NullGpuShaderClassWrapperEEclEPS1_(ptr noundef nonnull align 1 dereferenceable(1) %call2, ptr noundef %3)
          to label %invoke.cont unwind label %terminate.lpad

invoke.cont:                                      ; preds = %if.then
  br label %if.end

if.end:                                           ; preds = %invoke.cont, %entry
  %4 = load ptr, ptr %__ptr, align 8
  store ptr null, ptr %4, align 8
  ret void

terminate.lpad:                                   ; preds = %if.then
  %5 = landingpad { ptr, i32 }
          catch ptr null
  %6 = extractvalue { ptr, i32 } %5, 0
  call void @__clang_call_terminate(ptr %6) #14
  unreachable
}

; Function Attrs: mustprogress uwtable
define hidden void @_ZNK19OpenColorIO_v2_4dev25NullGpuShaderClassWrapper5cloneEv(ptr noalias sret(%"class.std::unique_ptr") align 8 %agg.result, ptr noundef nonnull align 8 dereferenceable(8) %this) unnamed_addr #0 align 2 {
entry:
  %result.ptr = alloca ptr, align 8
  %this.addr = alloca ptr, align 8
  %ref.tmp = alloca %"class.std::unique_ptr.21", align 8
  store ptr %agg.result, ptr %result.ptr, align 8
  store ptr %this, ptr %this.addr, align 8
  %call = call noalias noundef nonnull ptr @_Znwm(i64 noundef 8) #13
  call void @llvm.memset.p0.i64(ptr align 8 %call, i8 0, i64 8, i1 false)
  call void @_ZN19OpenColorIO_v2_4dev25NullGpuShaderClassWrapperC2Ev(ptr noundef nonnull align 8 dereferenceable(8) %call) #12
  call void @_ZNSt10unique_ptrIN19OpenColorIO_v2_4dev25NullGpuShaderClassWrapperESt14default_deleteIS1_EEC2IS3_vEEPS1_(ptr noundef nonnull align 8 dereferenceable(8) %ref.tmp, ptr noundef %call) #12
  call void @_ZNSt10unique_ptrIN19OpenColorIO_v2_4dev21GpuShaderClassWrapperESt14default_deleteIS1_EEC2INS0_25NullGpuShaderClassWrapperES2_IS6_EvEEOS_IT_T0_E(ptr noundef nonnull align 8 dereferenceable(8) %agg.result, ptr noundef nonnull align 8 dereferenceable(8) %ref.tmp) #12
  call void @_ZNSt10unique_ptrIN19OpenColorIO_v2_4dev25NullGpuShaderClassWrapperESt14default_deleteIS1_EED2Ev(ptr noundef nonnull align 8 dereferenceable(8) %ref.tmp) #12
  ret void
}

; Function Attrs: nocallback nofree nounwind willreturn memory(argmem: write)
declare void @llvm.memset.p0.i64(ptr nocapture writeonly, i8, i64, i1 immarg) #3

; Function Attrs: mustprogress uwtable
define hidden void @_ZNK19OpenColorIO_v2_4dev21OSLShaderClassWrapper5cloneEv(ptr noalias sret(%"class.std::unique_ptr") align 8 %agg.result, ptr noundef nonnull align 8 dereferenceable(40) %this) unnamed_addr #0 align 2 {
entry:
  %result.ptr = alloca ptr, align 8
  %this.addr = alloca ptr, align 8
  %ref.tmp = alloca %"class.std::unique_ptr.13", align 8
  store ptr %agg.result, ptr %result.ptr, align 8
  store ptr %this, ptr %this.addr, align 8
  %call = call noalias noundef nonnull ptr @_Znwm(i64 noundef 40) #13
  call void @llvm.memset.p0.i64(ptr align 16 %call, i8 0, i64 40, i1 false)
  call void @_ZN19OpenColorIO_v2_4dev21OSLShaderClassWrapperC2Ev(ptr noundef nonnull align 8 dereferenceable(40) %call) #12
  call void @_ZNSt10unique_ptrIN19OpenColorIO_v2_4dev21OSLShaderClassWrapperESt14default_deleteIS1_EEC2IS3_vEEPS1_(ptr noundef nonnull align 8 dereferenceable(8) %ref.tmp, ptr noundef %call) #12
  call void @_ZNSt10unique_ptrIN19OpenColorIO_v2_4dev21GpuShaderClassWrapperESt14default_deleteIS1_EEC2INS0_21OSLShaderClassWrapperES2_IS6_EvEEOS_IT_T0_E(ptr noundef nonnull align 8 dereferenceable(8) %agg.result, ptr noundef nonnull align 8 dereferenceable(8) %ref.tmp) #12
  call void @_ZNSt10unique_ptrIN19OpenColorIO_v2_4dev21OSLShaderClassWrapperESt14default_deleteIS1_EED2Ev(ptr noundef nonnull align 8 dereferenceable(8) %ref.tmp) #12
  ret void
}

; Function Attrs: mustprogress uwtable
define hidden void @_ZN19OpenColorIO_v2_4dev21OSLShaderClassWrapper21getClassWrapperHeaderERKNSt7__cxx1112basic_stringIcSt11char_traitsIcESaIcEEE(ptr noalias sret(%"class.std::__cxx11::basic_string") align 8 %agg.result, ptr noundef nonnull align 8 dereferenceable(40) %this, ptr noundef nonnull align 8 dereferenceable(32) %originalHeader) unnamed_addr #0 align 2 personality ptr @__gxx_personality_v0 {
entry:
  %result.ptr = alloca ptr, align 8
  %this.addr = alloca ptr, align 8
  %originalHeader.addr = alloca ptr, align 8
  %st = alloca %"class.OpenColorIO_v2_4dev::GpuShaderText", align 8
  %ref.tmp = alloca %"class.OpenColorIO_v2_4dev::GpuShaderText::GpuShaderLine", align 8
  %exn.slot = alloca ptr, align 8
  %ehselector.slot = alloca i32, align 4
  %ref.tmp4 = alloca %"class.OpenColorIO_v2_4dev::GpuShaderText::GpuShaderLine", align 8
  %ref.tmp9 = alloca %"class.OpenColorIO_v2_4dev::GpuShaderText::GpuShaderLine", align 8
  %ref.tmp14 = alloca %"class.OpenColorIO_v2_4dev::GpuShaderText::GpuShaderLine", align 8
  %ref.tmp19 = alloca %"class.OpenColorIO_v2_4dev::GpuShaderText::GpuShaderLine", align 8
  %ref.tmp24 = alloca %"class.OpenColorIO_v2_4dev::GpuShaderText::GpuShaderLine", align 8
  %ref.tmp29 = alloca %"class.OpenColorIO_v2_4dev::GpuShaderText::GpuShaderLine", align 8
  %ref.tmp34 = alloca %"class.OpenColorIO_v2_4dev::GpuShaderText::GpuShaderLine", align 8
  %ref.tmp39 = alloca %"class.OpenColorIO_v2_4dev::GpuShaderText::GpuShaderLine", align 8
  %ref.tmp44 = alloca %"class.OpenColorIO_v2_4dev::GpuShaderText::GpuShaderLine", align 8
  %ref.tmp50 = alloca %"class.OpenColorIO_v2_4dev::GpuShaderText::GpuShaderLine", align 8
  %ref.tmp55 = alloca %"class.OpenColorIO_v2_4dev::GpuShaderText::GpuShaderLine", align 8
  %ref.tmp60 = alloca %"class.OpenColorIO_v2_4dev::GpuShaderText::GpuShaderLine", align 8
  %ref.tmp65 = alloca %"class.OpenColorIO_v2_4dev::GpuShaderText::GpuShaderLine", align 8
  %ref.tmp71 = alloca %"class.OpenColorIO_v2_4dev::GpuShaderText::GpuShaderLine", align 8
  %ref.tmp76 = alloca %"class.OpenColorIO_v2_4dev::GpuShaderText::GpuShaderLine", align 8
  %ref.tmp81 = alloca %"class.OpenColorIO_v2_4dev::GpuShaderText::GpuShaderLine", align 8
  %ref.tmp86 = alloca %"class.OpenColorIO_v2_4dev::GpuShaderText::GpuShaderLine", align 8
  %ref.tmp92 = alloca %"class.OpenColorIO_v2_4dev::GpuShaderText::GpuShaderLine", align 8
  %ref.tmp98 = alloca %"class.OpenColorIO_v2_4dev::GpuShaderText::GpuShaderLine", align 8
  %ref.tmp103 = alloca %"class.OpenColorIO_v2_4dev::GpuShaderText::GpuShaderLine", align 8
  %ref.tmp108 = alloca %"class.OpenColorIO_v2_4dev::GpuShaderText::GpuShaderLine", align 8
  %ref.tmp113 = alloca %"class.OpenColorIO_v2_4dev::GpuShaderText::GpuShaderLine", align 8
  %ref.tmp119 = alloca %"class.OpenColorIO_v2_4dev::GpuShaderText::GpuShaderLine", align 8
  %ref.tmp125 = alloca %"class.OpenColorIO_v2_4dev::GpuShaderText::GpuShaderLine", align 8
  %ref.tmp130 = alloca %"class.OpenColorIO_v2_4dev::GpuShaderText::GpuShaderLine", align 8
  %ref.tmp135 = alloca %"class.OpenColorIO_v2_4dev::GpuShaderText::GpuShaderLine", align 8
  %ref.tmp140 = alloca %"class.OpenColorIO_v2_4dev::GpuShaderText::GpuShaderLine", align 8
  %ref.tmp146 = alloca %"class.OpenColorIO_v2_4dev::GpuShaderText::GpuShaderLine", align 8
  %ref.tmp152 = alloca %"class.OpenColorIO_v2_4dev::GpuShaderText::GpuShaderLine", align 8
  %ref.tmp157 = alloca %"class.OpenColorIO_v2_4dev::GpuShaderText::GpuShaderLine", align 8
  %ref.tmp162 = alloca %"class.OpenColorIO_v2_4dev::GpuShaderText::GpuShaderLine", align 8
  %ref.tmp167 = alloca %"class.OpenColorIO_v2_4dev::GpuShaderText::GpuShaderLine", align 8
  %ref.tmp173 = alloca %"class.OpenColorIO_v2_4dev::GpuShaderText::GpuShaderLine", align 8
  %ref.tmp179 = alloca %"class.OpenColorIO_v2_4dev::GpuShaderText::GpuShaderLine", align 8
  %ref.tmp184 = alloca %"class.OpenColorIO_v2_4dev::GpuShaderText::GpuShaderLine", align 8
  %ref.tmp189 = alloca %"class.OpenColorIO_v2_4dev::GpuShaderText::GpuShaderLine", align 8
  %ref.tmp194 = alloca %"class.OpenColorIO_v2_4dev::GpuShaderText::GpuShaderLine", align 8
  %ref.tmp200 = alloca %"class.OpenColorIO_v2_4dev::GpuShaderText::GpuShaderLine", align 8
  %ref.tmp206 = alloca %"class.OpenColorIO_v2_4dev::GpuShaderText::GpuShaderLine", align 8
  %ref.tmp211 = alloca %"class.OpenColorIO_v2_4dev::GpuShaderText::GpuShaderLine", align 8
  %ref.tmp216 = alloca %"class.OpenColorIO_v2_4dev::GpuShaderText::GpuShaderLine", align 8
  %ref.tmp221 = alloca %"class.OpenColorIO_v2_4dev::GpuShaderText::GpuShaderLine", align 8
  %ref.tmp227 = alloca %"class.OpenColorIO_v2_4dev::GpuShaderText::GpuShaderLine", align 8
  %ref.tmp233 = alloca %"class.OpenColorIO_v2_4dev::GpuShaderText::GpuShaderLine", align 8
  %ref.tmp238 = alloca %"class.OpenColorIO_v2_4dev::GpuShaderText::GpuShaderLine", align 8
  %ref.tmp243 = alloca %"class.OpenColorIO_v2_4dev::GpuShaderText::GpuShaderLine", align 8
  %ref.tmp248 = alloca %"class.OpenColorIO_v2_4dev::GpuShaderText::GpuShaderLine", align 8
  %ref.tmp254 = alloca %"class.OpenColorIO_v2_4dev::GpuShaderText::GpuShaderLine", align 8
  %ref.tmp260 = alloca %"class.OpenColorIO_v2_4dev::GpuShaderText::GpuShaderLine", align 8
  %ref.tmp265 = alloca %"class.OpenColorIO_v2_4dev::GpuShaderText::GpuShaderLine", align 8
  %ref.tmp270 = alloca %"class.OpenColorIO_v2_4dev::GpuShaderText::GpuShaderLine", align 8
  %ref.tmp275 = alloca %"class.OpenColorIO_v2_4dev::GpuShaderText::GpuShaderLine", align 8
  %ref.tmp280 = alloca %"class.OpenColorIO_v2_4dev::GpuShaderText::GpuShaderLine", align 8
  %ref.tmp291 = alloca %"class.OpenColorIO_v2_4dev::GpuShaderText::GpuShaderLine", align 8
  %ref.tmp296 = alloca %"class.std::__cxx11::basic_string", align 8
  store ptr %agg.result, ptr %result.ptr, align 8
  store ptr %this, ptr %this.addr, align 8
  store ptr %originalHeader, ptr %originalHeader.addr, align 8
  %this1 = load ptr, ptr %this.addr, align 8
  call void @_ZN19OpenColorIO_v2_4dev13GpuShaderTextC1ENS_11GpuLanguageE(ptr noundef nonnull align 8 dereferenceable(764) %st, i32 noundef 5)
  invoke void @_ZN19OpenColorIO_v2_4dev13GpuShaderText7newLineEv(ptr sret(%"class.OpenColorIO_v2_4dev::GpuShaderText::GpuShaderLine") align 8 %ref.tmp, ptr noundef nonnull align 8 dereferenceable(764) %st)
          to label %invoke.cont unwind label %lpad

invoke.cont:                                      ; preds = %entry
  %call = invoke noundef nonnull align 8 dereferenceable(8) ptr @_ZN19OpenColorIO_v2_4dev13GpuShaderText13GpuShaderLinelsEPKc(ptr noundef nonnull align 8 dereferenceable(8) %ref.tmp, ptr noundef @.str.1)
          to label %invoke.cont3 unwind label %lpad2

invoke.cont3:                                     ; preds = %invoke.cont
  call void @_ZN19OpenColorIO_v2_4dev13GpuShaderText13GpuShaderLineD1Ev(ptr noundef nonnull align 8 dereferenceable(8) %ref.tmp) #12
  invoke void @_ZN19OpenColorIO_v2_4dev13GpuShaderText7newLineEv(ptr sret(%"class.OpenColorIO_v2_4dev::GpuShaderText::GpuShaderLine") align 8 %ref.tmp4, ptr noundef nonnull align 8 dereferenceable(764) %st)
          to label %invoke.cont5 unwind label %lpad

invoke.cont5:                                     ; preds = %invoke.cont3
  %call8 = invoke noundef nonnull align 8 dereferenceable(8) ptr @_ZN19OpenColorIO_v2_4dev13GpuShaderText13GpuShaderLinelsEPKc(ptr noundef nonnull align 8 dereferenceable(8) %ref.tmp4, ptr noundef @.str.2)
          to label %invoke.cont7 unwind label %lpad6

invoke.cont7:                                     ; preds = %invoke.cont5
  call void @_ZN19OpenColorIO_v2_4dev13GpuShaderText13GpuShaderLineD1Ev(ptr noundef nonnull align 8 dereferenceable(8) %ref.tmp4) #12
  invoke void @_ZN19OpenColorIO_v2_4dev13GpuShaderText7newLineEv(ptr sret(%"class.OpenColorIO_v2_4dev::GpuShaderText::GpuShaderLine") align 8 %ref.tmp9, ptr noundef nonnull align 8 dereferenceable(764) %st)
          to label %invoke.cont10 unwind label %lpad

invoke.cont10:                                    ; preds = %invoke.cont7
  %call13 = invoke noundef nonnull align 8 dereferenceable(8) ptr @_ZN19OpenColorIO_v2_4dev13GpuShaderText13GpuShaderLinelsEPKc(ptr noundef nonnull align 8 dereferenceable(8) %ref.tmp9, ptr noundef @.str.1)
          to label %invoke.cont12 unwind label %lpad11

invoke.cont12:                                    ; preds = %invoke.cont10
  call void @_ZN19OpenColorIO_v2_4dev13GpuShaderText13GpuShaderLineD1Ev(ptr noundef nonnull align 8 dereferenceable(8) %ref.tmp9) #12
  invoke void @_ZN19OpenColorIO_v2_4dev13GpuShaderText7newLineEv(ptr sret(%"class.OpenColorIO_v2_4dev::GpuShaderText::GpuShaderLine") align 8 %ref.tmp14, ptr noundef nonnull align 8 dereferenceable(764) %st)
          to label %invoke.cont15 unwind label %lpad

invoke.cont15:                                    ; preds = %invoke.cont12
  %call18 = invoke noundef nonnull align 8 dereferenceable(8) ptr @_ZN19OpenColorIO_v2_4dev13GpuShaderText13GpuShaderLinelsEPKc(ptr noundef nonnull align 8 dereferenceable(8) %ref.tmp14, ptr noundef @.str.3)
          to label %invoke.cont17 unwind label %lpad16

invoke.cont17:                                    ; preds = %invoke.cont15
  call void @_ZN19OpenColorIO_v2_4dev13GpuShaderText13GpuShaderLineD1Ev(ptr noundef nonnull align 8 dereferenceable(8) %ref.tmp14) #12
  invoke void @_ZN19OpenColorIO_v2_4dev13GpuShaderText7newLineEv(ptr sret(%"class.OpenColorIO_v2_4dev::GpuShaderText::GpuShaderLine") align 8 %ref.tmp19, ptr noundef nonnull align 8 dereferenceable(764) %st)
          to label %invoke.cont20 unwind label %lpad

invoke.cont20:                                    ; preds = %invoke.cont17
  %call23 = invoke noundef nonnull align 8 dereferenceable(8) ptr @_ZN19OpenColorIO_v2_4dev13GpuShaderText13GpuShaderLinelsEPKc(ptr noundef nonnull align 8 dereferenceable(8) %ref.tmp19, ptr noundef @.str.4)
          to label %invoke.cont22 unwind label %lpad21

invoke.cont22:                                    ; preds = %invoke.cont20
  call void @_ZN19OpenColorIO_v2_4dev13GpuShaderText13GpuShaderLineD1Ev(ptr noundef nonnull align 8 dereferenceable(8) %ref.tmp19) #12
  invoke void @_ZN19OpenColorIO_v2_4dev13GpuShaderText7newLineEv(ptr sret(%"class.OpenColorIO_v2_4dev::GpuShaderText::GpuShaderLine") align 8 %ref.tmp24, ptr noundef nonnull align 8 dereferenceable(764) %st)
          to label %invoke.cont25 unwind label %lpad

invoke.cont25:                                    ; preds = %invoke.cont22
  %call28 = invoke noundef nonnull align 8 dereferenceable(8) ptr @_ZN19OpenColorIO_v2_4dev13GpuShaderText13GpuShaderLinelsEPKc(ptr noundef nonnull align 8 dereferenceable(8) %ref.tmp24, ptr noundef @.str.1)
          to label %invoke.cont27 unwind label %lpad26

invoke.cont27:                                    ; preds = %invoke.cont25
  call void @_ZN19OpenColorIO_v2_4dev13GpuShaderText13GpuShaderLineD1Ev(ptr noundef nonnull align 8 dereferenceable(8) %ref.tmp24) #12
  invoke void @_ZN19OpenColorIO_v2_4dev13GpuShaderText7newLineEv(ptr sret(%"class.OpenColorIO_v2_4dev::GpuShaderText::GpuShaderLine") align 8 %ref.tmp29, ptr noundef nonnull align 8 dereferenceable(764) %st)
          to label %invoke.cont30 unwind label %lpad

invoke.cont30:                                    ; preds = %invoke.cont27
  %call33 = invoke noundef nonnull align 8 dereferenceable(8) ptr @_ZN19OpenColorIO_v2_4dev13GpuShaderText13GpuShaderLinelsEPKc(ptr noundef nonnull align 8 dereferenceable(8) %ref.tmp29, ptr noundef @.str.5)
          to label %invoke.cont32 unwind label %lpad31

invoke.cont32:                                    ; preds = %invoke.cont30
  call void @_ZN19OpenColorIO_v2_4dev13GpuShaderText13GpuShaderLineD1Ev(ptr noundef nonnull align 8 dereferenceable(8) %ref.tmp29) #12
  invoke void @_ZN19OpenColorIO_v2_4dev13GpuShaderText7newLineEv(ptr sret(%"class.OpenColorIO_v2_4dev::GpuShaderText::GpuShaderLine") align 8 %ref.tmp34, ptr noundef nonnull align 8 dereferenceable(764) %st)
          to label %invoke.cont35 unwind label %lpad

invoke.cont35:                                    ; preds = %invoke.cont32
  %call38 = invoke noundef nonnull align 8 dereferenceable(8) ptr @_ZN19OpenColorIO_v2_4dev13GpuShaderText13GpuShaderLinelsEPKc(ptr noundef nonnull align 8 dereferenceable(8) %ref.tmp34, ptr noundef @.str.1)
          to label %invoke.cont37 unwind label %lpad36

invoke.cont37:                                    ; preds = %invoke.cont35
  call void @_ZN19OpenColorIO_v2_4dev13GpuShaderText13GpuShaderLineD1Ev(ptr noundef nonnull align 8 dereferenceable(8) %ref.tmp34) #12
  invoke void @_ZN19OpenColorIO_v2_4dev13GpuShaderText7newLineEv(ptr sret(%"class.OpenColorIO_v2_4dev::GpuShaderText::GpuShaderLine") align 8 %ref.tmp39, ptr noundef nonnull align 8 dereferenceable(764) %st)
          to label %invoke.cont40 unwind label %lpad

invoke.cont40:                                    ; preds = %invoke.cont37
  %call43 = invoke noundef nonnull align 8 dereferenceable(8) ptr @_ZN19OpenColorIO_v2_4dev13GpuShaderText13GpuShaderLinelsEPKc(ptr noundef nonnull align 8 dereferenceable(8) %ref.tmp39, ptr noundef @.str.6)
          to label %invoke.cont42 unwind label %lpad41

invoke.cont42:                                    ; preds = %invoke.cont40
  call void @_ZN19OpenColorIO_v2_4dev13GpuShaderText13GpuShaderLineD1Ev(ptr noundef nonnull align 8 dereferenceable(8) %ref.tmp39) #12
  invoke void @_ZN19OpenColorIO_v2_4dev13GpuShaderText7newLineEv(ptr sret(%"class.OpenColorIO_v2_4dev::GpuShaderText::GpuShaderLine") align 8 %ref.tmp44, ptr noundef nonnull align 8 dereferenceable(764) %st)
          to label %invoke.cont45 unwind label %lpad

invoke.cont45:                                    ; preds = %invoke.cont42
  %call48 = invoke noundef nonnull align 8 dereferenceable(8) ptr @_ZN19OpenColorIO_v2_4dev13GpuShaderText13GpuShaderLinelsEPKc(ptr noundef nonnull align 8 dereferenceable(8) %ref.tmp44, ptr noundef @.str.7)
          to label %invoke.cont47 unwind label %lpad46

invoke.cont47:                                    ; preds = %invoke.cont45
  call void @_ZN19OpenColorIO_v2_4dev13GpuShaderText13GpuShaderLineD1Ev(ptr noundef nonnull align 8 dereferenceable(8) %ref.tmp44) #12
  invoke void @_ZN19OpenColorIO_v2_4dev13GpuShaderText6indentEv(ptr noundef nonnull align 8 dereferenceable(764) %st)
          to label %invoke.cont49 unwind label %lpad

invoke.cont49:                                    ; preds = %invoke.cont47
  invoke void @_ZN19OpenColorIO_v2_4dev13GpuShaderText7newLineEv(ptr sret(%"class.OpenColorIO_v2_4dev::GpuShaderText::GpuShaderLine") align 8 %ref.tmp50, ptr noundef nonnull align 8 dereferenceable(764) %st)
          to label %invoke.cont51 unwind label %lpad

invoke.cont51:                                    ; preds = %invoke.cont49
  %call54 = invoke noundef nonnull align 8 dereferenceable(8) ptr @_ZN19OpenColorIO_v2_4dev13GpuShaderText13GpuShaderLinelsEPKc(ptr noundef nonnull align 8 dereferenceable(8) %ref.tmp50, ptr noundef @.str.8)
          to label %invoke.cont53 unwind label %lpad52

invoke.cont53:                                    ; preds = %invoke.cont51
  call void @_ZN19OpenColorIO_v2_4dev13GpuShaderText13GpuShaderLineD1Ev(ptr noundef nonnull align 8 dereferenceable(8) %ref.tmp50) #12
  invoke void @_ZN19OpenColorIO_v2_4dev13GpuShaderText7newLineEv(ptr sret(%"class.OpenColorIO_v2_4dev::GpuShaderText::GpuShaderLine") align 8 %ref.tmp55, ptr noundef nonnull align 8 dereferenceable(764) %st)
          to label %invoke.cont56 unwind label %lpad

invoke.cont56:                                    ; preds = %invoke.cont53
  %call59 = invoke noundef nonnull align 8 dereferenceable(8) ptr @_ZN19OpenColorIO_v2_4dev13GpuShaderText13GpuShaderLinelsEPKc(ptr noundef nonnull align 8 dereferenceable(8) %ref.tmp55, ptr noundef @.str.9)
          to label %invoke.cont58 unwind label %lpad57

invoke.cont58:                                    ; preds = %invoke.cont56
  call void @_ZN19OpenColorIO_v2_4dev13GpuShaderText13GpuShaderLineD1Ev(ptr noundef nonnull align 8 dereferenceable(8) %ref.tmp55) #12
  invoke void @_ZN19OpenColorIO_v2_4dev13GpuShaderText7newLineEv(ptr sret(%"class.OpenColorIO_v2_4dev::GpuShaderText::GpuShaderLine") align 8 %ref.tmp60, ptr noundef nonnull align 8 dereferenceable(764) %st)
          to label %invoke.cont61 unwind label %lpad

invoke.cont61:                                    ; preds = %invoke.cont58
  %call64 = invoke noundef nonnull align 8 dereferenceable(8) ptr @_ZN19OpenColorIO_v2_4dev13GpuShaderText13GpuShaderLinelsEPKc(ptr noundef nonnull align 8 dereferenceable(8) %ref.tmp60, ptr noundef @.str.10)
          to label %invoke.cont63 unwind label %lpad62

invoke.cont63:                                    ; preds = %invoke.cont61
  call void @_ZN19OpenColorIO_v2_4dev13GpuShaderText13GpuShaderLineD1Ev(ptr noundef nonnull align 8 dereferenceable(8) %ref.tmp60) #12
  invoke void @_ZN19OpenColorIO_v2_4dev13GpuShaderText7newLineEv(ptr sret(%"class.OpenColorIO_v2_4dev::GpuShaderText::GpuShaderLine") align 8 %ref.tmp65, ptr noundef nonnull align 8 dereferenceable(764) %st)
          to label %invoke.cont66 unwind label %lpad

invoke.cont66:                                    ; preds = %invoke.cont63
  %call69 = invoke noundef nonnull align 8 dereferenceable(8) ptr @_ZN19OpenColorIO_v2_4dev13GpuShaderText13GpuShaderLinelsEPKc(ptr noundef nonnull align 8 dereferenceable(8) %ref.tmp65, ptr noundef @.str.11)
          to label %invoke.cont68 unwind label %lpad67

invoke.cont68:                                    ; preds = %invoke.cont66
  call void @_ZN19OpenColorIO_v2_4dev13GpuShaderText13GpuShaderLineD1Ev(ptr noundef nonnull align 8 dereferenceable(8) %ref.tmp65) #12
  invoke void @_ZN19OpenColorIO_v2_4dev13GpuShaderText6dedentEv(ptr noundef nonnull align 8 dereferenceable(764) %st)
          to label %invoke.cont70 unwind label %lpad

invoke.cont70:                                    ; preds = %invoke.cont68
  invoke void @_ZN19OpenColorIO_v2_4dev13GpuShaderText7newLineEv(ptr sret(%"class.OpenColorIO_v2_4dev::GpuShaderText::GpuShaderLine") align 8 %ref.tmp71, ptr noundef nonnull align 8 dereferenceable(764) %st)
          to label %invoke.cont72 unwind label %lpad

invoke.cont72:                                    ; preds = %invoke.cont70
  %call75 = invoke noundef nonnull align 8 dereferenceable(8) ptr @_ZN19OpenColorIO_v2_4dev13GpuShaderText13GpuShaderLinelsEPKc(ptr noundef nonnull align 8 dereferenceable(8) %ref.tmp71, ptr noundef @.str.12)
          to label %invoke.cont74 unwind label %lpad73

invoke.cont74:                                    ; preds = %invoke.cont72
  call void @_ZN19OpenColorIO_v2_4dev13GpuShaderText13GpuShaderLineD1Ev(ptr noundef nonnull align 8 dereferenceable(8) %ref.tmp71) #12
  invoke void @_ZN19OpenColorIO_v2_4dev13GpuShaderText7newLineEv(ptr sret(%"class.OpenColorIO_v2_4dev::GpuShaderText::GpuShaderLine") align 8 %ref.tmp76, ptr noundef nonnull align 8 dereferenceable(764) %st)
          to label %invoke.cont77 unwind label %lpad

invoke.cont77:                                    ; preds = %invoke.cont74
  %call80 = invoke noundef nonnull align 8 dereferenceable(8) ptr @_ZN19OpenColorIO_v2_4dev13GpuShaderText13GpuShaderLinelsEPKc(ptr noundef nonnull align 8 dereferenceable(8) %ref.tmp76, ptr noundef @.str.1)
          to label %invoke.cont79 unwind label %lpad78

invoke.cont79:                                    ; preds = %invoke.cont77
  call void @_ZN19OpenColorIO_v2_4dev13GpuShaderText13GpuShaderLineD1Ev(ptr noundef nonnull align 8 dereferenceable(8) %ref.tmp76) #12
  invoke void @_ZN19OpenColorIO_v2_4dev13GpuShaderText7newLineEv(ptr sret(%"class.OpenColorIO_v2_4dev::GpuShaderText::GpuShaderLine") align 8 %ref.tmp81, ptr noundef nonnull align 8 dereferenceable(764) %st)
          to label %invoke.cont82 unwind label %lpad

invoke.cont82:                                    ; preds = %invoke.cont79
  %call85 = invoke noundef nonnull align 8 dereferenceable(8) ptr @_ZN19OpenColorIO_v2_4dev13GpuShaderText13GpuShaderLinelsEPKc(ptr noundef nonnull align 8 dereferenceable(8) %ref.tmp81, ptr noundef @.str.13)
          to label %invoke.cont84 unwind label %lpad83

invoke.cont84:                                    ; preds = %invoke.cont82
  call void @_ZN19OpenColorIO_v2_4dev13GpuShaderText13GpuShaderLineD1Ev(ptr noundef nonnull align 8 dereferenceable(8) %ref.tmp81) #12
  invoke void @_ZN19OpenColorIO_v2_4dev13GpuShaderText7newLineEv(ptr sret(%"class.OpenColorIO_v2_4dev::GpuShaderText::GpuShaderLine") align 8 %ref.tmp86, ptr noundef nonnull align 8 dereferenceable(764) %st)
          to label %invoke.cont87 unwind label %lpad

invoke.cont87:                                    ; preds = %invoke.cont84
  %call90 = invoke noundef nonnull align 8 dereferenceable(8) ptr @_ZN19OpenColorIO_v2_4dev13GpuShaderText13GpuShaderLinelsEPKc(ptr noundef nonnull align 8 dereferenceable(8) %ref.tmp86, ptr noundef @.str.7)
          to label %invoke.cont89 unwind label %lpad88

invoke.cont89:                                    ; preds = %invoke.cont87
  call void @_ZN19OpenColorIO_v2_4dev13GpuShaderText13GpuShaderLineD1Ev(ptr noundef nonnull align 8 dereferenceable(8) %ref.tmp86) #12
  invoke void @_ZN19OpenColorIO_v2_4dev13GpuShaderText6indentEv(ptr noundef nonnull align 8 dereferenceable(764) %st)
          to label %invoke.cont91 unwind label %lpad

invoke.cont91:                                    ; preds = %invoke.cont89
  invoke void @_ZN19OpenColorIO_v2_4dev13GpuShaderText7newLineEv(ptr sret(%"class.OpenColorIO_v2_4dev::GpuShaderText::GpuShaderLine") align 8 %ref.tmp92, ptr noundef nonnull align 8 dereferenceable(764) %st)
          to label %invoke.cont93 unwind label %lpad

invoke.cont93:                                    ; preds = %invoke.cont91
  %call96 = invoke noundef nonnull align 8 dereferenceable(8) ptr @_ZN19OpenColorIO_v2_4dev13GpuShaderText13GpuShaderLinelsEPKc(ptr noundef nonnull align 8 dereferenceable(8) %ref.tmp92, ptr noundef @.str.14)
          to label %invoke.cont95 unwind label %lpad94

invoke.cont95:                                    ; preds = %invoke.cont93
  call void @_ZN19OpenColorIO_v2_4dev13GpuShaderText13GpuShaderLineD1Ev(ptr noundef nonnull align 8 dereferenceable(8) %ref.tmp92) #12
  invoke void @_ZN19OpenColorIO_v2_4dev13GpuShaderText6dedentEv(ptr noundef nonnull align 8 dereferenceable(764) %st)
          to label %invoke.cont97 unwind label %lpad

invoke.cont97:                                    ; preds = %invoke.cont95
  invoke void @_ZN19OpenColorIO_v2_4dev13GpuShaderText7newLineEv(ptr sret(%"class.OpenColorIO_v2_4dev::GpuShaderText::GpuShaderLine") align 8 %ref.tmp98, ptr noundef nonnull align 8 dereferenceable(764) %st)
          to label %invoke.cont99 unwind label %lpad

invoke.cont99:                                    ; preds = %invoke.cont97
  %call102 = invoke noundef nonnull align 8 dereferenceable(8) ptr @_ZN19OpenColorIO_v2_4dev13GpuShaderText13GpuShaderLinelsEPKc(ptr noundef nonnull align 8 dereferenceable(8) %ref.tmp98, ptr noundef @.str.12)
          to label %invoke.cont101 unwind label %lpad100

invoke.cont101:                                   ; preds = %invoke.cont99
  call void @_ZN19OpenColorIO_v2_4dev13GpuShaderText13GpuShaderLineD1Ev(ptr noundef nonnull align 8 dereferenceable(8) %ref.tmp98) #12
  invoke void @_ZN19OpenColorIO_v2_4dev13GpuShaderText7newLineEv(ptr sret(%"class.OpenColorIO_v2_4dev::GpuShaderText::GpuShaderLine") align 8 %ref.tmp103, ptr noundef nonnull align 8 dereferenceable(764) %st)
          to label %invoke.cont104 unwind label %lpad

invoke.cont104:                                   ; preds = %invoke.cont101
  %call107 = invoke noundef nonnull align 8 dereferenceable(8) ptr @_ZN19OpenColorIO_v2_4dev13GpuShaderText13GpuShaderLinelsEPKc(ptr noundef nonnull align 8 dereferenceable(8) %ref.tmp103, ptr noundef @.str.1)
          to label %invoke.cont106 unwind label %lpad105

invoke.cont106:                                   ; preds = %invoke.cont104
  call void @_ZN19OpenColorIO_v2_4dev13GpuShaderText13GpuShaderLineD1Ev(ptr noundef nonnull align 8 dereferenceable(8) %ref.tmp103) #12
  invoke void @_ZN19OpenColorIO_v2_4dev13GpuShaderText7newLineEv(ptr sret(%"class.OpenColorIO_v2_4dev::GpuShaderText::GpuShaderLine") align 8 %ref.tmp108, ptr noundef nonnull align 8 dereferenceable(764) %st)
          to label %invoke.cont109 unwind label %lpad

invoke.cont109:                                   ; preds = %invoke.cont106
  %call112 = invoke noundef nonnull align 8 dereferenceable(8) ptr @_ZN19OpenColorIO_v2_4dev13GpuShaderText13GpuShaderLinelsEPKc(ptr noundef nonnull align 8 dereferenceable(8) %ref.tmp108, ptr noundef @.str.15)
          to label %invoke.cont111 unwind label %lpad110

invoke.cont111:                                   ; preds = %invoke.cont109
  call void @_ZN19OpenColorIO_v2_4dev13GpuShaderText13GpuShaderLineD1Ev(ptr noundef nonnull align 8 dereferenceable(8) %ref.tmp108) #12
  invoke void @_ZN19OpenColorIO_v2_4dev13GpuShaderText7newLineEv(ptr sret(%"class.OpenColorIO_v2_4dev::GpuShaderText::GpuShaderLine") align 8 %ref.tmp113, ptr noundef nonnull align 8 dereferenceable(764) %st)
          to label %invoke.cont114 unwind label %lpad

invoke.cont114:                                   ; preds = %invoke.cont111
  %call117 = invoke noundef nonnull align 8 dereferenceable(8) ptr @_ZN19OpenColorIO_v2_4dev13GpuShaderText13GpuShaderLinelsEPKc(ptr noundef nonnull align 8 dereferenceable(8) %ref.tmp113, ptr noundef @.str.7)
          to label %invoke.cont116 unwind label %lpad115

invoke.cont116:                                   ; preds = %invoke.cont114
  call void @_ZN19OpenColorIO_v2_4dev13GpuShaderText13GpuShaderLineD1Ev(ptr noundef nonnull align 8 dereferenceable(8) %ref.tmp113) #12
  invoke void @_ZN19OpenColorIO_v2_4dev13GpuShaderText6indentEv(ptr noundef nonnull align 8 dereferenceable(764) %st)
          to label %invoke.cont118 unwind label %lpad

invoke.cont118:                                   ; preds = %invoke.cont116
  invoke void @_ZN19OpenColorIO_v2_4dev13GpuShaderText7newLineEv(ptr sret(%"class.OpenColorIO_v2_4dev::GpuShaderText::GpuShaderLine") align 8 %ref.tmp119, ptr noundef nonnull align 8 dereferenceable(764) %st)
          to label %invoke.cont120 unwind label %lpad

invoke.cont120:                                   ; preds = %invoke.cont118
  %call123 = invoke noundef nonnull align 8 dereferenceable(8) ptr @_ZN19OpenColorIO_v2_4dev13GpuShaderText13GpuShaderLinelsEPKc(ptr noundef nonnull align 8 dereferenceable(8) %ref.tmp119, ptr noundef @.str.16)
          to label %invoke.cont122 unwind label %lpad121

invoke.cont122:                                   ; preds = %invoke.cont120
  call void @_ZN19OpenColorIO_v2_4dev13GpuShaderText13GpuShaderLineD1Ev(ptr noundef nonnull align 8 dereferenceable(8) %ref.tmp119) #12
  invoke void @_ZN19OpenColorIO_v2_4dev13GpuShaderText6dedentEv(ptr noundef nonnull align 8 dereferenceable(764) %st)
          to label %invoke.cont124 unwind label %lpad

invoke.cont124:                                   ; preds = %invoke.cont122
  invoke void @_ZN19OpenColorIO_v2_4dev13GpuShaderText7newLineEv(ptr sret(%"class.OpenColorIO_v2_4dev::GpuShaderText::GpuShaderLine") align 8 %ref.tmp125, ptr noundef nonnull align 8 dereferenceable(764) %st)
          to label %invoke.cont126 unwind label %lpad

invoke.cont126:                                   ; preds = %invoke.cont124
  %call129 = invoke noundef nonnull align 8 dereferenceable(8) ptr @_ZN19OpenColorIO_v2_4dev13GpuShaderText13GpuShaderLinelsEPKc(ptr noundef nonnull align 8 dereferenceable(8) %ref.tmp125, ptr noundef @.str.12)
          to label %invoke.cont128 unwind label %lpad127

invoke.cont128:                                   ; preds = %invoke.cont126
  call void @_ZN19OpenColorIO_v2_4dev13GpuShaderText13GpuShaderLineD1Ev(ptr noundef nonnull align 8 dereferenceable(8) %ref.tmp125) #12
  invoke void @_ZN19OpenColorIO_v2_4dev13GpuShaderText7newLineEv(ptr sret(%"class.OpenColorIO_v2_4dev::GpuShaderText::GpuShaderLine") align 8 %ref.tmp130, ptr noundef nonnull align 8 dereferenceable(764) %st)
          to label %invoke.cont131 unwind label %lpad

invoke.cont131:                                   ; preds = %invoke.cont128
  %call134 = invoke noundef nonnull align 8 dereferenceable(8) ptr @_ZN19OpenColorIO_v2_4dev13GpuShaderText13GpuShaderLinelsEPKc(ptr noundef nonnull align 8 dereferenceable(8) %ref.tmp130, ptr noundef @.str.1)
          to label %invoke.cont133 unwind label %lpad132

invoke.cont133:                                   ; preds = %invoke.cont131
  call void @_ZN19OpenColorIO_v2_4dev13GpuShaderText13GpuShaderLineD1Ev(ptr noundef nonnull align 8 dereferenceable(8) %ref.tmp130) #12
  invoke void @_ZN19OpenColorIO_v2_4dev13GpuShaderText7newLineEv(ptr sret(%"class.OpenColorIO_v2_4dev::GpuShaderText::GpuShaderLine") align 8 %ref.tmp135, ptr noundef nonnull align 8 dereferenceable(764) %st)
          to label %invoke.cont136 unwind label %lpad

invoke.cont136:                                   ; preds = %invoke.cont133
  %call139 = invoke noundef nonnull align 8 dereferenceable(8) ptr @_ZN19OpenColorIO_v2_4dev13GpuShaderText13GpuShaderLinelsEPKc(ptr noundef nonnull align 8 dereferenceable(8) %ref.tmp135, ptr noundef @.str.17)
          to label %invoke.cont138 unwind label %lpad137

invoke.cont138:                                   ; preds = %invoke.cont136
  call void @_ZN19OpenColorIO_v2_4dev13GpuShaderText13GpuShaderLineD1Ev(ptr noundef nonnull align 8 dereferenceable(8) %ref.tmp135) #12
  invoke void @_ZN19OpenColorIO_v2_4dev13GpuShaderText7newLineEv(ptr sret(%"class.OpenColorIO_v2_4dev::GpuShaderText::GpuShaderLine") align 8 %ref.tmp140, ptr noundef nonnull align 8 dereferenceable(764) %st)
          to label %invoke.cont141 unwind label %lpad

invoke.cont141:                                   ; preds = %invoke.cont138
  %call144 = invoke noundef nonnull align 8 dereferenceable(8) ptr @_ZN19OpenColorIO_v2_4dev13GpuShaderText13GpuShaderLinelsEPKc(ptr noundef nonnull align 8 dereferenceable(8) %ref.tmp140, ptr noundef @.str.7)
          to label %invoke.cont143 unwind label %lpad142

invoke.cont143:                                   ; preds = %invoke.cont141
  call void @_ZN19OpenColorIO_v2_4dev13GpuShaderText13GpuShaderLineD1Ev(ptr noundef nonnull align 8 dereferenceable(8) %ref.tmp140) #12
  invoke void @_ZN19OpenColorIO_v2_4dev13GpuShaderText6indentEv(ptr noundef nonnull align 8 dereferenceable(764) %st)
          to label %invoke.cont145 unwind label %lpad

invoke.cont145:                                   ; preds = %invoke.cont143
  invoke void @_ZN19OpenColorIO_v2_4dev13GpuShaderText7newLineEv(ptr sret(%"class.OpenColorIO_v2_4dev::GpuShaderText::GpuShaderLine") align 8 %ref.tmp146, ptr noundef nonnull align 8 dereferenceable(764) %st)
          to label %invoke.cont147 unwind label %lpad

invoke.cont147:                                   ; preds = %invoke.cont145
  %call150 = invoke noundef nonnull align 8 dereferenceable(8) ptr @_ZN19OpenColorIO_v2_4dev13GpuShaderText13GpuShaderLinelsEPKc(ptr noundef nonnull align 8 dereferenceable(8) %ref.tmp146, ptr noundef @.str.18)
          to label %invoke.cont149 unwind label %lpad148

invoke.cont149:                                   ; preds = %invoke.cont147
  call void @_ZN19OpenColorIO_v2_4dev13GpuShaderText13GpuShaderLineD1Ev(ptr noundef nonnull align 8 dereferenceable(8) %ref.tmp146) #12
  invoke void @_ZN19OpenColorIO_v2_4dev13GpuShaderText6dedentEv(ptr noundef nonnull align 8 dereferenceable(764) %st)
          to label %invoke.cont151 unwind label %lpad

invoke.cont151:                                   ; preds = %invoke.cont149
  invoke void @_ZN19OpenColorIO_v2_4dev13GpuShaderText7newLineEv(ptr sret(%"class.OpenColorIO_v2_4dev::GpuShaderText::GpuShaderLine") align 8 %ref.tmp152, ptr noundef nonnull align 8 dereferenceable(764) %st)
          to label %invoke.cont153 unwind label %lpad

invoke.cont153:                                   ; preds = %invoke.cont151
  %call156 = invoke noundef nonnull align 8 dereferenceable(8) ptr @_ZN19OpenColorIO_v2_4dev13GpuShaderText13GpuShaderLinelsEPKc(ptr noundef nonnull align 8 dereferenceable(8) %ref.tmp152, ptr noundef @.str.12)
          to label %invoke.cont155 unwind label %lpad154

invoke.cont155:                                   ; preds = %invoke.cont153
  call void @_ZN19OpenColorIO_v2_4dev13GpuShaderText13GpuShaderLineD1Ev(ptr noundef nonnull align 8 dereferenceable(8) %ref.tmp152) #12
  invoke void @_ZN19OpenColorIO_v2_4dev13GpuShaderText7newLineEv(ptr sret(%"class.OpenColorIO_v2_4dev::GpuShaderText::GpuShaderLine") align 8 %ref.tmp157, ptr noundef nonnull align 8 dereferenceable(764) %st)
          to label %invoke.cont158 unwind label %lpad

invoke.cont158:                                   ; preds = %invoke.cont155
  %call161 = invoke noundef nonnull align 8 dereferenceable(8) ptr @_ZN19OpenColorIO_v2_4dev13GpuShaderText13GpuShaderLinelsEPKc(ptr noundef nonnull align 8 dereferenceable(8) %ref.tmp157, ptr noundef @.str.1)
          to label %invoke.cont160 unwind label %lpad159

invoke.cont160:                                   ; preds = %invoke.cont158
  call void @_ZN19OpenColorIO_v2_4dev13GpuShaderText13GpuShaderLineD1Ev(ptr noundef nonnull align 8 dereferenceable(8) %ref.tmp157) #12
  invoke void @_ZN19OpenColorIO_v2_4dev13GpuShaderText7newLineEv(ptr sret(%"class.OpenColorIO_v2_4dev::GpuShaderText::GpuShaderLine") align 8 %ref.tmp162, ptr noundef nonnull align 8 dereferenceable(764) %st)
          to label %invoke.cont163 unwind label %lpad

invoke.cont163:                                   ; preds = %invoke.cont160
  %call166 = invoke noundef nonnull align 8 dereferenceable(8) ptr @_ZN19OpenColorIO_v2_4dev13GpuShaderText13GpuShaderLinelsEPKc(ptr noundef nonnull align 8 dereferenceable(8) %ref.tmp162, ptr noundef @.str.19)
          to label %invoke.cont165 unwind label %lpad164

invoke.cont165:                                   ; preds = %invoke.cont163
  call void @_ZN19OpenColorIO_v2_4dev13GpuShaderText13GpuShaderLineD1Ev(ptr noundef nonnull align 8 dereferenceable(8) %ref.tmp162) #12
  invoke void @_ZN19OpenColorIO_v2_4dev13GpuShaderText7newLineEv(ptr sret(%"class.OpenColorIO_v2_4dev::GpuShaderText::GpuShaderLine") align 8 %ref.tmp167, ptr noundef nonnull align 8 dereferenceable(764) %st)
          to label %invoke.cont168 unwind label %lpad

invoke.cont168:                                   ; preds = %invoke.cont165
  %call171 = invoke noundef nonnull align 8 dereferenceable(8) ptr @_ZN19OpenColorIO_v2_4dev13GpuShaderText13GpuShaderLinelsEPKc(ptr noundef nonnull align 8 dereferenceable(8) %ref.tmp167, ptr noundef @.str.7)
          to label %invoke.cont170 unwind label %lpad169

invoke.cont170:                                   ; preds = %invoke.cont168
  call void @_ZN19OpenColorIO_v2_4dev13GpuShaderText13GpuShaderLineD1Ev(ptr noundef nonnull align 8 dereferenceable(8) %ref.tmp167) #12
  invoke void @_ZN19OpenColorIO_v2_4dev13GpuShaderText6indentEv(ptr noundef nonnull align 8 dereferenceable(764) %st)
          to label %invoke.cont172 unwind label %lpad

invoke.cont172:                                   ; preds = %invoke.cont170
  invoke void @_ZN19OpenColorIO_v2_4dev13GpuShaderText7newLineEv(ptr sret(%"class.OpenColorIO_v2_4dev::GpuShaderText::GpuShaderLine") align 8 %ref.tmp173, ptr noundef nonnull align 8 dereferenceable(764) %st)
          to label %invoke.cont174 unwind label %lpad

invoke.cont174:                                   ; preds = %invoke.cont172
  %call177 = invoke noundef nonnull align 8 dereferenceable(8) ptr @_ZN19OpenColorIO_v2_4dev13GpuShaderText13GpuShaderLinelsEPKc(ptr noundef nonnull align 8 dereferenceable(8) %ref.tmp173, ptr noundef @.str.20)
          to label %invoke.cont176 unwind label %lpad175

invoke.cont176:                                   ; preds = %invoke.cont174
  call void @_ZN19OpenColorIO_v2_4dev13GpuShaderText13GpuShaderLineD1Ev(ptr noundef nonnull align 8 dereferenceable(8) %ref.tmp173) #12
  invoke void @_ZN19OpenColorIO_v2_4dev13GpuShaderText6dedentEv(ptr noundef nonnull align 8 dereferenceable(764) %st)
          to label %invoke.cont178 unwind label %lpad

invoke.cont178:                                   ; preds = %invoke.cont176
  invoke void @_ZN19OpenColorIO_v2_4dev13GpuShaderText7newLineEv(ptr sret(%"class.OpenColorIO_v2_4dev::GpuShaderText::GpuShaderLine") align 8 %ref.tmp179, ptr noundef nonnull align 8 dereferenceable(764) %st)
          to label %invoke.cont180 unwind label %lpad

invoke.cont180:                                   ; preds = %invoke.cont178
  %call183 = invoke noundef nonnull align 8 dereferenceable(8) ptr @_ZN19OpenColorIO_v2_4dev13GpuShaderText13GpuShaderLinelsEPKc(ptr noundef nonnull align 8 dereferenceable(8) %ref.tmp179, ptr noundef @.str.12)
          to label %invoke.cont182 unwind label %lpad181

invoke.cont182:                                   ; preds = %invoke.cont180
  call void @_ZN19OpenColorIO_v2_4dev13GpuShaderText13GpuShaderLineD1Ev(ptr noundef nonnull align 8 dereferenceable(8) %ref.tmp179) #12
  invoke void @_ZN19OpenColorIO_v2_4dev13GpuShaderText7newLineEv(ptr sret(%"class.OpenColorIO_v2_4dev::GpuShaderText::GpuShaderLine") align 8 %ref.tmp184, ptr noundef nonnull align 8 dereferenceable(764) %st)
          to label %invoke.cont185 unwind label %lpad

invoke.cont185:                                   ; preds = %invoke.cont182
  %call188 = invoke noundef nonnull align 8 dereferenceable(8) ptr @_ZN19OpenColorIO_v2_4dev13GpuShaderText13GpuShaderLinelsEPKc(ptr noundef nonnull align 8 dereferenceable(8) %ref.tmp184, ptr noundef @.str.1)
          to label %invoke.cont187 unwind label %lpad186

invoke.cont187:                                   ; preds = %invoke.cont185
  call void @_ZN19OpenColorIO_v2_4dev13GpuShaderText13GpuShaderLineD1Ev(ptr noundef nonnull align 8 dereferenceable(8) %ref.tmp184) #12
  invoke void @_ZN19OpenColorIO_v2_4dev13GpuShaderText7newLineEv(ptr sret(%"class.OpenColorIO_v2_4dev::GpuShaderText::GpuShaderLine") align 8 %ref.tmp189, ptr noundef nonnull align 8 dereferenceable(764) %st)
          to label %invoke.cont190 unwind label %lpad

invoke.cont190:                                   ; preds = %invoke.cont187
  %call193 = invoke noundef nonnull align 8 dereferenceable(8) ptr @_ZN19OpenColorIO_v2_4dev13GpuShaderText13GpuShaderLinelsEPKc(ptr noundef nonnull align 8 dereferenceable(8) %ref.tmp189, ptr noundef @.str.21)
          to label %invoke.cont192 unwind label %lpad191

invoke.cont192:                                   ; preds = %invoke.cont190
  call void @_ZN19OpenColorIO_v2_4dev13GpuShaderText13GpuShaderLineD1Ev(ptr noundef nonnull align 8 dereferenceable(8) %ref.tmp189) #12
  invoke void @_ZN19OpenColorIO_v2_4dev13GpuShaderText7newLineEv(ptr sret(%"class.OpenColorIO_v2_4dev::GpuShaderText::GpuShaderLine") align 8 %ref.tmp194, ptr noundef nonnull align 8 dereferenceable(764) %st)
          to label %invoke.cont195 unwind label %lpad

invoke.cont195:                                   ; preds = %invoke.cont192
  %call198 = invoke noundef nonnull align 8 dereferenceable(8) ptr @_ZN19OpenColorIO_v2_4dev13GpuShaderText13GpuShaderLinelsEPKc(ptr noundef nonnull align 8 dereferenceable(8) %ref.tmp194, ptr noundef @.str.7)
          to label %invoke.cont197 unwind label %lpad196

invoke.cont197:                                   ; preds = %invoke.cont195
  call void @_ZN19OpenColorIO_v2_4dev13GpuShaderText13GpuShaderLineD1Ev(ptr noundef nonnull align 8 dereferenceable(8) %ref.tmp194) #12
  invoke void @_ZN19OpenColorIO_v2_4dev13GpuShaderText6indentEv(ptr noundef nonnull align 8 dereferenceable(764) %st)
          to label %invoke.cont199 unwind label %lpad

invoke.cont199:                                   ; preds = %invoke.cont197
  invoke void @_ZN19OpenColorIO_v2_4dev13GpuShaderText7newLineEv(ptr sret(%"class.OpenColorIO_v2_4dev::GpuShaderText::GpuShaderLine") align 8 %ref.tmp200, ptr noundef nonnull align 8 dereferenceable(764) %st)
          to label %invoke.cont201 unwind label %lpad

invoke.cont201:                                   ; preds = %invoke.cont199
  %call204 = invoke noundef nonnull align 8 dereferenceable(8) ptr @_ZN19OpenColorIO_v2_4dev13GpuShaderText13GpuShaderLinelsEPKc(ptr noundef nonnull align 8 dereferenceable(8) %ref.tmp200, ptr noundef @.str.22)
          to label %invoke.cont203 unwind label %lpad202

invoke.cont203:                                   ; preds = %invoke.cont201
  call void @_ZN19OpenColorIO_v2_4dev13GpuShaderText13GpuShaderLineD1Ev(ptr noundef nonnull align 8 dereferenceable(8) %ref.tmp200) #12
  invoke void @_ZN19OpenColorIO_v2_4dev13GpuShaderText6dedentEv(ptr noundef nonnull align 8 dereferenceable(764) %st)
          to label %invoke.cont205 unwind label %lpad

invoke.cont205:                                   ; preds = %invoke.cont203
  invoke void @_ZN19OpenColorIO_v2_4dev13GpuShaderText7newLineEv(ptr sret(%"class.OpenColorIO_v2_4dev::GpuShaderText::GpuShaderLine") align 8 %ref.tmp206, ptr noundef nonnull align 8 dereferenceable(764) %st)
          to label %invoke.cont207 unwind label %lpad

invoke.cont207:                                   ; preds = %invoke.cont205
  %call210 = invoke noundef nonnull align 8 dereferenceable(8) ptr @_ZN19OpenColorIO_v2_4dev13GpuShaderText13GpuShaderLinelsEPKc(ptr noundef nonnull align 8 dereferenceable(8) %ref.tmp206, ptr noundef @.str.12)
          to label %invoke.cont209 unwind label %lpad208

invoke.cont209:                                   ; preds = %invoke.cont207
  call void @_ZN19OpenColorIO_v2_4dev13GpuShaderText13GpuShaderLineD1Ev(ptr noundef nonnull align 8 dereferenceable(8) %ref.tmp206) #12
  invoke void @_ZN19OpenColorIO_v2_4dev13GpuShaderText7newLineEv(ptr sret(%"class.OpenColorIO_v2_4dev::GpuShaderText::GpuShaderLine") align 8 %ref.tmp211, ptr noundef nonnull align 8 dereferenceable(764) %st)
          to label %invoke.cont212 unwind label %lpad

invoke.cont212:                                   ; preds = %invoke.cont209
  %call215 = invoke noundef nonnull align 8 dereferenceable(8) ptr @_ZN19OpenColorIO_v2_4dev13GpuShaderText13GpuShaderLinelsEPKc(ptr noundef nonnull align 8 dereferenceable(8) %ref.tmp211, ptr noundef @.str.1)
          to label %invoke.cont214 unwind label %lpad213

invoke.cont214:                                   ; preds = %invoke.cont212
  call void @_ZN19OpenColorIO_v2_4dev13GpuShaderText13GpuShaderLineD1Ev(ptr noundef nonnull align 8 dereferenceable(8) %ref.tmp211) #12
  invoke void @_ZN19OpenColorIO_v2_4dev13GpuShaderText7newLineEv(ptr sret(%"class.OpenColorIO_v2_4dev::GpuShaderText::GpuShaderLine") align 8 %ref.tmp216, ptr noundef nonnull align 8 dereferenceable(764) %st)
          to label %invoke.cont217 unwind label %lpad

invoke.cont217:                                   ; preds = %invoke.cont214
  %call220 = invoke noundef nonnull align 8 dereferenceable(8) ptr @_ZN19OpenColorIO_v2_4dev13GpuShaderText13GpuShaderLinelsEPKc(ptr noundef nonnull align 8 dereferenceable(8) %ref.tmp216, ptr noundef @.str.23)
          to label %invoke.cont219 unwind label %lpad218

invoke.cont219:                                   ; preds = %invoke.cont217
  call void @_ZN19OpenColorIO_v2_4dev13GpuShaderText13GpuShaderLineD1Ev(ptr noundef nonnull align 8 dereferenceable(8) %ref.tmp216) #12
  invoke void @_ZN19OpenColorIO_v2_4dev13GpuShaderText7newLineEv(ptr sret(%"class.OpenColorIO_v2_4dev::GpuShaderText::GpuShaderLine") align 8 %ref.tmp221, ptr noundef nonnull align 8 dereferenceable(764) %st)
          to label %invoke.cont222 unwind label %lpad

invoke.cont222:                                   ; preds = %invoke.cont219
  %call225 = invoke noundef nonnull align 8 dereferenceable(8) ptr @_ZN19OpenColorIO_v2_4dev13GpuShaderText13GpuShaderLinelsEPKc(ptr noundef nonnull align 8 dereferenceable(8) %ref.tmp221, ptr noundef @.str.7)
          to label %invoke.cont224 unwind label %lpad223

invoke.cont224:                                   ; preds = %invoke.cont222
  call void @_ZN19OpenColorIO_v2_4dev13GpuShaderText13GpuShaderLineD1Ev(ptr noundef nonnull align 8 dereferenceable(8) %ref.tmp221) #12
  invoke void @_ZN19OpenColorIO_v2_4dev13GpuShaderText6indentEv(ptr noundef nonnull align 8 dereferenceable(764) %st)
          to label %invoke.cont226 unwind label %lpad

invoke.cont226:                                   ; preds = %invoke.cont224
  invoke void @_ZN19OpenColorIO_v2_4dev13GpuShaderText7newLineEv(ptr sret(%"class.OpenColorIO_v2_4dev::GpuShaderText::GpuShaderLine") align 8 %ref.tmp227, ptr noundef nonnull align 8 dereferenceable(764) %st)
          to label %invoke.cont228 unwind label %lpad

invoke.cont228:                                   ; preds = %invoke.cont226
  %call231 = invoke noundef nonnull align 8 dereferenceable(8) ptr @_ZN19OpenColorIO_v2_4dev13GpuShaderText13GpuShaderLinelsEPKc(ptr noundef nonnull align 8 dereferenceable(8) %ref.tmp227, ptr noundef @.str.24)
          to label %invoke.cont230 unwind label %lpad229

invoke.cont230:                                   ; preds = %invoke.cont228
  call void @_ZN19OpenColorIO_v2_4dev13GpuShaderText13GpuShaderLineD1Ev(ptr noundef nonnull align 8 dereferenceable(8) %ref.tmp227) #12
  invoke void @_ZN19OpenColorIO_v2_4dev13GpuShaderText6dedentEv(ptr noundef nonnull align 8 dereferenceable(764) %st)
          to label %invoke.cont232 unwind label %lpad

invoke.cont232:                                   ; preds = %invoke.cont230
  invoke void @_ZN19OpenColorIO_v2_4dev13GpuShaderText7newLineEv(ptr sret(%"class.OpenColorIO_v2_4dev::GpuShaderText::GpuShaderLine") align 8 %ref.tmp233, ptr noundef nonnull align 8 dereferenceable(764) %st)
          to label %invoke.cont234 unwind label %lpad

invoke.cont234:                                   ; preds = %invoke.cont232
  %call237 = invoke noundef nonnull align 8 dereferenceable(8) ptr @_ZN19OpenColorIO_v2_4dev13GpuShaderText13GpuShaderLinelsEPKc(ptr noundef nonnull align 8 dereferenceable(8) %ref.tmp233, ptr noundef @.str.12)
          to label %invoke.cont236 unwind label %lpad235

invoke.cont236:                                   ; preds = %invoke.cont234
  call void @_ZN19OpenColorIO_v2_4dev13GpuShaderText13GpuShaderLineD1Ev(ptr noundef nonnull align 8 dereferenceable(8) %ref.tmp233) #12
  invoke void @_ZN19OpenColorIO_v2_4dev13GpuShaderText7newLineEv(ptr sret(%"class.OpenColorIO_v2_4dev::GpuShaderText::GpuShaderLine") align 8 %ref.tmp238, ptr noundef nonnull align 8 dereferenceable(764) %st)
          to label %invoke.cont239 unwind label %lpad

invoke.cont239:                                   ; preds = %invoke.cont236
  %call242 = invoke noundef nonnull align 8 dereferenceable(8) ptr @_ZN19OpenColorIO_v2_4dev13GpuShaderText13GpuShaderLinelsEPKc(ptr noundef nonnull align 8 dereferenceable(8) %ref.tmp238, ptr noundef @.str.1)
          to label %invoke.cont241 unwind label %lpad240

invoke.cont241:                                   ; preds = %invoke.cont239
  call void @_ZN19OpenColorIO_v2_4dev13GpuShaderText13GpuShaderLineD1Ev(ptr noundef nonnull align 8 dereferenceable(8) %ref.tmp238) #12
  invoke void @_ZN19OpenColorIO_v2_4dev13GpuShaderText7newLineEv(ptr sret(%"class.OpenColorIO_v2_4dev::GpuShaderText::GpuShaderLine") align 8 %ref.tmp243, ptr noundef nonnull align 8 dereferenceable(764) %st)
          to label %invoke.cont244 unwind label %lpad

invoke.cont244:                                   ; preds = %invoke.cont241
  %call247 = invoke noundef nonnull align 8 dereferenceable(8) ptr @_ZN19OpenColorIO_v2_4dev13GpuShaderText13GpuShaderLinelsEPKc(ptr noundef nonnull align 8 dereferenceable(8) %ref.tmp243, ptr noundef @.str.25)
          to label %invoke.cont246 unwind label %lpad245

invoke.cont246:                                   ; preds = %invoke.cont244
  call void @_ZN19OpenColorIO_v2_4dev13GpuShaderText13GpuShaderLineD1Ev(ptr noundef nonnull align 8 dereferenceable(8) %ref.tmp243) #12
  invoke void @_ZN19OpenColorIO_v2_4dev13GpuShaderText7newLineEv(ptr sret(%"class.OpenColorIO_v2_4dev::GpuShaderText::GpuShaderLine") align 8 %ref.tmp248, ptr noundef nonnull align 8 dereferenceable(764) %st)
          to label %invoke.cont249 unwind label %lpad

invoke.cont249:                                   ; preds = %invoke.cont246
  %call252 = invoke noundef nonnull align 8 dereferenceable(8) ptr @_ZN19OpenColorIO_v2_4dev13GpuShaderText13GpuShaderLinelsEPKc(ptr noundef nonnull align 8 dereferenceable(8) %ref.tmp248, ptr noundef @.str.7)
          to label %invoke.cont251 unwind label %lpad250

invoke.cont251:                                   ; preds = %invoke.cont249
  call void @_ZN19OpenColorIO_v2_4dev13GpuShaderText13GpuShaderLineD1Ev(ptr noundef nonnull align 8 dereferenceable(8) %ref.tmp248) #12
  invoke void @_ZN19OpenColorIO_v2_4dev13GpuShaderText6indentEv(ptr noundef nonnull align 8 dereferenceable(764) %st)
          to label %invoke.cont253 unwind label %lpad

invoke.cont253:                                   ; preds = %invoke.cont251
  invoke void @_ZN19OpenColorIO_v2_4dev13GpuShaderText7newLineEv(ptr sret(%"class.OpenColorIO_v2_4dev::GpuShaderText::GpuShaderLine") align 8 %ref.tmp254, ptr noundef nonnull align 8 dereferenceable(764) %st)
          to label %invoke.cont255 unwind label %lpad

invoke.cont255:                                   ; preds = %invoke.cont253
  %call258 = invoke noundef nonnull align 8 dereferenceable(8) ptr @_ZN19OpenColorIO_v2_4dev13GpuShaderText13GpuShaderLinelsEPKc(ptr noundef nonnull align 8 dereferenceable(8) %ref.tmp254, ptr noundef @.str.26)
          to label %invoke.cont257 unwind label %lpad256

invoke.cont257:                                   ; preds = %invoke.cont255
  call void @_ZN19OpenColorIO_v2_4dev13GpuShaderText13GpuShaderLineD1Ev(ptr noundef nonnull align 8 dereferenceable(8) %ref.tmp254) #12
  invoke void @_ZN19OpenColorIO_v2_4dev13GpuShaderText6dedentEv(ptr noundef nonnull align 8 dereferenceable(764) %st)
          to label %invoke.cont259 unwind label %lpad

invoke.cont259:                                   ; preds = %invoke.cont257
  invoke void @_ZN19OpenColorIO_v2_4dev13GpuShaderText7newLineEv(ptr sret(%"class.OpenColorIO_v2_4dev::GpuShaderText::GpuShaderLine") align 8 %ref.tmp260, ptr noundef nonnull align 8 dereferenceable(764) %st)
          to label %invoke.cont261 unwind label %lpad

invoke.cont261:                                   ; preds = %invoke.cont259
  %call264 = invoke noundef nonnull align 8 dereferenceable(8) ptr @_ZN19OpenColorIO_v2_4dev13GpuShaderText13GpuShaderLinelsEPKc(ptr noundef nonnull align 8 dereferenceable(8) %ref.tmp260, ptr noundef @.str.12)
          to label %invoke.cont263 unwind label %lpad262

invoke.cont263:                                   ; preds = %invoke.cont261
  call void @_ZN19OpenColorIO_v2_4dev13GpuShaderText13GpuShaderLineD1Ev(ptr noundef nonnull align 8 dereferenceable(8) %ref.tmp260) #12
  invoke void @_ZN19OpenColorIO_v2_4dev13GpuShaderText7newLineEv(ptr sret(%"class.OpenColorIO_v2_4dev::GpuShaderText::GpuShaderLine") align 8 %ref.tmp265, ptr noundef nonnull align 8 dereferenceable(764) %st)
          to label %invoke.cont266 unwind label %lpad

invoke.cont266:                                   ; preds = %invoke.cont263
  %call269 = invoke noundef nonnull align 8 dereferenceable(8) ptr @_ZN19OpenColorIO_v2_4dev13GpuShaderText13GpuShaderLinelsEPKc(ptr noundef nonnull align 8 dereferenceable(8) %ref.tmp265, ptr noundef @.str.1)
          to label %invoke.cont268 unwind label %lpad267

invoke.cont268:                                   ; preds = %invoke.cont266
  call void @_ZN19OpenColorIO_v2_4dev13GpuShaderText13GpuShaderLineD1Ev(ptr noundef nonnull align 8 dereferenceable(8) %ref.tmp265) #12
  invoke void @_ZN19OpenColorIO_v2_4dev13GpuShaderText7newLineEv(ptr sret(%"class.OpenColorIO_v2_4dev::GpuShaderText::GpuShaderLine") align 8 %ref.tmp270, ptr noundef nonnull align 8 dereferenceable(764) %st)
          to label %invoke.cont271 unwind label %lpad

invoke.cont271:                                   ; preds = %invoke.cont268
  %call274 = invoke noundef nonnull align 8 dereferenceable(8) ptr @_ZN19OpenColorIO_v2_4dev13GpuShaderText13GpuShaderLinelsEPKc(ptr noundef nonnull align 8 dereferenceable(8) %ref.tmp270, ptr noundef @.str.27)
          to label %invoke.cont273 unwind label %lpad272

invoke.cont273:                                   ; preds = %invoke.cont271
  call void @_ZN19OpenColorIO_v2_4dev13GpuShaderText13GpuShaderLineD1Ev(ptr noundef nonnull align 8 dereferenceable(8) %ref.tmp270) #12
  invoke void @_ZN19OpenColorIO_v2_4dev13GpuShaderText7newLineEv(ptr sret(%"class.OpenColorIO_v2_4dev::GpuShaderText::GpuShaderLine") align 8 %ref.tmp275, ptr noundef nonnull align 8 dereferenceable(764) %st)
          to label %invoke.cont276 unwind label %lpad

invoke.cont276:                                   ; preds = %invoke.cont273
  %call279 = invoke noundef nonnull align 8 dereferenceable(8) ptr @_ZN19OpenColorIO_v2_4dev13GpuShaderText13GpuShaderLinelsEPKc(ptr noundef nonnull align 8 dereferenceable(8) %ref.tmp275, ptr noundef @.str.1)
          to label %invoke.cont278 unwind label %lpad277

invoke.cont278:                                   ; preds = %invoke.cont276
  call void @_ZN19OpenColorIO_v2_4dev13GpuShaderText13GpuShaderLineD1Ev(ptr noundef nonnull align 8 dereferenceable(8) %ref.tmp275) #12
  invoke void @_ZN19OpenColorIO_v2_4dev13GpuShaderText7newLineEv(ptr sret(%"class.OpenColorIO_v2_4dev::GpuShaderText::GpuShaderLine") align 8 %ref.tmp280, ptr noundef nonnull align 8 dereferenceable(764) %st)
          to label %invoke.cont281 unwind label %lpad

invoke.cont281:                                   ; preds = %invoke.cont278
  %call284 = invoke noundef nonnull align 8 dereferenceable(8) ptr @_ZN19OpenColorIO_v2_4dev13GpuShaderText13GpuShaderLinelsEPKc(ptr noundef nonnull align 8 dereferenceable(8) %ref.tmp280, ptr noundef @.str.28)
          to label %invoke.cont283 unwind label %lpad282

invoke.cont283:                                   ; preds = %invoke.cont281
  %call286 = invoke noundef nonnull align 8 dereferenceable(8) ptr @_ZN19OpenColorIO_v2_4dev13GpuShaderText13GpuShaderLinelsEPKc(ptr noundef nonnull align 8 dereferenceable(8) %call284, ptr noundef @.str.29)
          to label %invoke.cont285 unwind label %lpad282

invoke.cont285:                                   ; preds = %invoke.cont283
  %m_functionName = getelementptr inbounds %"class.OpenColorIO_v2_4dev::OSLShaderClassWrapper", ptr %this1, i32 0, i32 1
  %call288 = invoke noundef nonnull align 8 dereferenceable(8) ptr @_ZN19OpenColorIO_v2_4dev13GpuShaderText13GpuShaderLinelsERKNSt7__cxx1112basic_stringIcSt11char_traitsIcESaIcEEE(ptr noundef nonnull align 8 dereferenceable(8) %call286, ptr noundef nonnull align 8 dereferenceable(32) %m_functionName)
          to label %invoke.cont287 unwind label %lpad282

invoke.cont287:                                   ; preds = %invoke.cont285
  %call290 = invoke noundef nonnull align 8 dereferenceable(8) ptr @_ZN19OpenColorIO_v2_4dev13GpuShaderText13GpuShaderLinelsEPKc(ptr noundef nonnull align 8 dereferenceable(8) %call288, ptr noundef @.str.30)
          to label %invoke.cont289 unwind label %lpad282

invoke.cont289:                                   ; preds = %invoke.cont287
  call void @_ZN19OpenColorIO_v2_4dev13GpuShaderText13GpuShaderLineD1Ev(ptr noundef nonnull align 8 dereferenceable(8) %ref.tmp280) #12
  invoke void @_ZN19OpenColorIO_v2_4dev13GpuShaderText7newLineEv(ptr sret(%"class.OpenColorIO_v2_4dev::GpuShaderText::GpuShaderLine") align 8 %ref.tmp291, ptr noundef nonnull align 8 dereferenceable(764) %st)
          to label %invoke.cont292 unwind label %lpad

invoke.cont292:                                   ; preds = %invoke.cont289
  %call295 = invoke noundef nonnull align 8 dereferenceable(8) ptr @_ZN19OpenColorIO_v2_4dev13GpuShaderText13GpuShaderLinelsEPKc(ptr noundef nonnull align 8 dereferenceable(8) %ref.tmp291, ptr noundef @.str.7)
          to label %invoke.cont294 unwind label %lpad293

invoke.cont294:                                   ; preds = %invoke.cont292
  call void @_ZN19OpenColorIO_v2_4dev13GpuShaderText13GpuShaderLineD1Ev(ptr noundef nonnull align 8 dereferenceable(8) %ref.tmp291) #12
  invoke void @_ZNK19OpenColorIO_v2_4dev13GpuShaderText6stringB5cxx11Ev(ptr sret(%"class.std::__cxx11::basic_string") align 8 %ref.tmp296, ptr noundef nonnull align 8 dereferenceable(764) %st)
          to label %invoke.cont297 unwind label %lpad

invoke.cont297:                                   ; preds = %invoke.cont294
  %0 = load ptr, ptr %originalHeader.addr, align 8
  invoke void @_ZStplIcSt11char_traitsIcESaIcEENSt7__cxx1112basic_stringIT_T0_T1_EEOS8_RKS8_(ptr sret(%"class.std::__cxx11::basic_string") align 8 %agg.result, ptr noundef nonnull align 8 dereferenceable(32) %ref.tmp296, ptr noundef nonnull align 8 dereferenceable(32) %0)
          to label %invoke.cont299 unwind label %lpad298

invoke.cont299:                                   ; preds = %invoke.cont297
  call void @_ZNSt7__cxx1112basic_stringIcSt11char_traitsIcESaIcEED1Ev(ptr noundef nonnull align 8 dereferenceable(32) %ref.tmp296) #12
  call void @_ZN19OpenColorIO_v2_4dev13GpuShaderTextD2Ev(ptr noundef nonnull align 8 dereferenceable(764) %st) #12
  ret void

lpad:                                             ; preds = %invoke.cont294, %invoke.cont289, %invoke.cont278, %invoke.cont273, %invoke.cont268, %invoke.cont263, %invoke.cont259, %invoke.cont257, %invoke.cont253, %invoke.cont251, %invoke.cont246, %invoke.cont241, %invoke.cont236, %invoke.cont232, %invoke.cont230, %invoke.cont226, %invoke.cont224, %invoke.cont219, %invoke.cont214, %invoke.cont209, %invoke.cont205, %invoke.cont203, %invoke.cont199, %invoke.cont197, %invoke.cont192, %invoke.cont187, %invoke.cont182, %invoke.cont178, %invoke.cont176, %invoke.cont172, %invoke.cont170, %invoke.cont165, %invoke.cont160, %invoke.cont155, %invoke.cont151, %invoke.cont149, %invoke.cont145, %invoke.cont143, %invoke.cont138, %invoke.cont133, %invoke.cont128, %invoke.cont124, %invoke.cont122, %invoke.cont118, %invoke.cont116, %invoke.cont111, %invoke.cont106, %invoke.cont101, %invoke.cont97, %invoke.cont95, %invoke.cont91, %invoke.cont89, %invoke.cont84, %invoke.cont79, %invoke.cont74, %invoke.cont70, %invoke.cont68, %invoke.cont63, %invoke.cont58, %invoke.cont53, %invoke.cont49, %invoke.cont47, %invoke.cont42, %invoke.cont37, %invoke.cont32, %invoke.cont27, %invoke.cont22, %invoke.cont17, %invoke.cont12, %invoke.cont7, %invoke.cont3, %entry
  %1 = landingpad { ptr, i32 }
          cleanup
  %2 = extractvalue { ptr, i32 } %1, 0
  store ptr %2, ptr %exn.slot, align 8
  %3 = extractvalue { ptr, i32 } %1, 1
  store i32 %3, ptr %ehselector.slot, align 4
  br label %ehcleanup

lpad2:                                            ; preds = %invoke.cont
  %4 = landingpad { ptr, i32 }
          cleanup
  %5 = extractvalue { ptr, i32 } %4, 0
  store ptr %5, ptr %exn.slot, align 8
  %6 = extractvalue { ptr, i32 } %4, 1
  store i32 %6, ptr %ehselector.slot, align 4
  call void @_ZN19OpenColorIO_v2_4dev13GpuShaderText13GpuShaderLineD1Ev(ptr noundef nonnull align 8 dereferenceable(8) %ref.tmp) #12
  br label %ehcleanup

lpad6:                                            ; preds = %invoke.cont5
  %7 = landingpad { ptr, i32 }
          cleanup
  %8 = extractvalue { ptr, i32 } %7, 0
  store ptr %8, ptr %exn.slot, align 8
  %9 = extractvalue { ptr, i32 } %7, 1
  store i32 %9, ptr %ehselector.slot, align 4
  call void @_ZN19OpenColorIO_v2_4dev13GpuShaderText13GpuShaderLineD1Ev(ptr noundef nonnull align 8 dereferenceable(8) %ref.tmp4) #12
  br label %ehcleanup

lpad11:                                           ; preds = %invoke.cont10
  %10 = landingpad { ptr, i32 }
          cleanup
  %11 = extractvalue { ptr, i32 } %10, 0
  store ptr %11, ptr %exn.slot, align 8
  %12 = extractvalue { ptr, i32 } %10, 1
  store i32 %12, ptr %ehselector.slot, align 4
  call void @_ZN19OpenColorIO_v2_4dev13GpuShaderText13GpuShaderLineD1Ev(ptr noundef nonnull align 8 dereferenceable(8) %ref.tmp9) #12
  br label %ehcleanup

lpad16:                                           ; preds = %invoke.cont15
  %13 = landingpad { ptr, i32 }
          cleanup
  %14 = extractvalue { ptr, i32 } %13, 0
  store ptr %14, ptr %exn.slot, align 8
  %15 = extractvalue { ptr, i32 } %13, 1
  store i32 %15, ptr %ehselector.slot, align 4
  call void @_ZN19OpenColorIO_v2_4dev13GpuShaderText13GpuShaderLineD1Ev(ptr noundef nonnull align 8 dereferenceable(8) %ref.tmp14) #12
  br label %ehcleanup

lpad21:                                           ; preds = %invoke.cont20
  %16 = landingpad { ptr, i32 }
          cleanup
  %17 = extractvalue { ptr, i32 } %16, 0
  store ptr %17, ptr %exn.slot, align 8
  %18 = extractvalue { ptr, i32 } %16, 1
  store i32 %18, ptr %ehselector.slot, align 4
  call void @_ZN19OpenColorIO_v2_4dev13GpuShaderText13GpuShaderLineD1Ev(ptr noundef nonnull align 8 dereferenceable(8) %ref.tmp19) #12
  br label %ehcleanup

lpad26:                                           ; preds = %invoke.cont25
  %19 = landingpad { ptr, i32 }
          cleanup
  %20 = extractvalue { ptr, i32 } %19, 0
  store ptr %20, ptr %exn.slot, align 8
  %21 = extractvalue { ptr, i32 } %19, 1
  store i32 %21, ptr %ehselector.slot, align 4
  call void @_ZN19OpenColorIO_v2_4dev13GpuShaderText13GpuShaderLineD1Ev(ptr noundef nonnull align 8 dereferenceable(8) %ref.tmp24) #12
  br label %ehcleanup

lpad31:                                           ; preds = %invoke.cont30
  %22 = landingpad { ptr, i32 }
          cleanup
  %23 = extractvalue { ptr, i32 } %22, 0
  store ptr %23, ptr %exn.slot, align 8
  %24 = extractvalue { ptr, i32 } %22, 1
  store i32 %24, ptr %ehselector.slot, align 4
  call void @_ZN19OpenColorIO_v2_4dev13GpuShaderText13GpuShaderLineD1Ev(ptr noundef nonnull align 8 dereferenceable(8) %ref.tmp29) #12
  br label %ehcleanup

lpad36:                                           ; preds = %invoke.cont35
  %25 = landingpad { ptr, i32 }
          cleanup
  %26 = extractvalue { ptr, i32 } %25, 0
  store ptr %26, ptr %exn.slot, align 8
  %27 = extractvalue { ptr, i32 } %25, 1
  store i32 %27, ptr %ehselector.slot, align 4
  call void @_ZN19OpenColorIO_v2_4dev13GpuShaderText13GpuShaderLineD1Ev(ptr noundef nonnull align 8 dereferenceable(8) %ref.tmp34) #12
  br label %ehcleanup

lpad41:                                           ; preds = %invoke.cont40
  %28 = landingpad { ptr, i32 }
          cleanup
  %29 = extractvalue { ptr, i32 } %28, 0
  store ptr %29, ptr %exn.slot, align 8
  %30 = extractvalue { ptr, i32 } %28, 1
  store i32 %30, ptr %ehselector.slot, align 4
  call void @_ZN19OpenColorIO_v2_4dev13GpuShaderText13GpuShaderLineD1Ev(ptr noundef nonnull align 8 dereferenceable(8) %ref.tmp39) #12
  br label %ehcleanup

lpad46:                                           ; preds = %invoke.cont45
  %31 = landingpad { ptr, i32 }
          cleanup
  %32 = extractvalue { ptr, i32 } %31, 0
  store ptr %32, ptr %exn.slot, align 8
  %33 = extractvalue { ptr, i32 } %31, 1
  store i32 %33, ptr %ehselector.slot, align 4
  call void @_ZN19OpenColorIO_v2_4dev13GpuShaderText13GpuShaderLineD1Ev(ptr noundef nonnull align 8 dereferenceable(8) %ref.tmp44) #12
  br label %ehcleanup

lpad52:                                           ; preds = %invoke.cont51
  %34 = landingpad { ptr, i32 }
          cleanup
  %35 = extractvalue { ptr, i32 } %34, 0
  store ptr %35, ptr %exn.slot, align 8
  %36 = extractvalue { ptr, i32 } %34, 1
  store i32 %36, ptr %ehselector.slot, align 4
  call void @_ZN19OpenColorIO_v2_4dev13GpuShaderText13GpuShaderLineD1Ev(ptr noundef nonnull align 8 dereferenceable(8) %ref.tmp50) #12
  br label %ehcleanup

lpad57:                                           ; preds = %invoke.cont56
  %37 = landingpad { ptr, i32 }
          cleanup
  %38 = extractvalue { ptr, i32 } %37, 0
  store ptr %38, ptr %exn.slot, align 8
  %39 = extractvalue { ptr, i32 } %37, 1
  store i32 %39, ptr %ehselector.slot, align 4
  call void @_ZN19OpenColorIO_v2_4dev13GpuShaderText13GpuShaderLineD1Ev(ptr noundef nonnull align 8 dereferenceable(8) %ref.tmp55) #12
  br label %ehcleanup

lpad62:                                           ; preds = %invoke.cont61
  %40 = landingpad { ptr, i32 }
          cleanup
  %41 = extractvalue { ptr, i32 } %40, 0
  store ptr %41, ptr %exn.slot, align 8
  %42 = extractvalue { ptr, i32 } %40, 1
  store i32 %42, ptr %ehselector.slot, align 4
  call void @_ZN19OpenColorIO_v2_4dev13GpuShaderText13GpuShaderLineD1Ev(ptr noundef nonnull align 8 dereferenceable(8) %ref.tmp60) #12
  br label %ehcleanup

lpad67:                                           ; preds = %invoke.cont66
  %43 = landingpad { ptr, i32 }
          cleanup
  %44 = extractvalue { ptr, i32 } %43, 0
  store ptr %44, ptr %exn.slot, align 8
  %45 = extractvalue { ptr, i32 } %43, 1
  store i32 %45, ptr %ehselector.slot, align 4
  call void @_ZN19OpenColorIO_v2_4dev13GpuShaderText13GpuShaderLineD1Ev(ptr noundef nonnull align 8 dereferenceable(8) %ref.tmp65) #12
  br label %ehcleanup

lpad73:                                           ; preds = %invoke.cont72
  %46 = landingpad { ptr, i32 }
          cleanup
  %47 = extractvalue { ptr, i32 } %46, 0
  store ptr %47, ptr %exn.slot, align 8
  %48 = extractvalue { ptr, i32 } %46, 1
  store i32 %48, ptr %ehselector.slot, align 4
  call void @_ZN19OpenColorIO_v2_4dev13GpuShaderText13GpuShaderLineD1Ev(ptr noundef nonnull align 8 dereferenceable(8) %ref.tmp71) #12
  br label %ehcleanup

lpad78:                                           ; preds = %invoke.cont77
  %49 = landingpad { ptr, i32 }
          cleanup
  %50 = extractvalue { ptr, i32 } %49, 0
  store ptr %50, ptr %exn.slot, align 8
  %51 = extractvalue { ptr, i32 } %49, 1
  store i32 %51, ptr %ehselector.slot, align 4
  call void @_ZN19OpenColorIO_v2_4dev13GpuShaderText13GpuShaderLineD1Ev(ptr noundef nonnull align 8 dereferenceable(8) %ref.tmp76) #12
  br label %ehcleanup

lpad83:                                           ; preds = %invoke.cont82
  %52 = landingpad { ptr, i32 }
          cleanup
  %53 = extractvalue { ptr, i32 } %52, 0
  store ptr %53, ptr %exn.slot, align 8
  %54 = extractvalue { ptr, i32 } %52, 1
  store i32 %54, ptr %ehselector.slot, align 4
  call void @_ZN19OpenColorIO_v2_4dev13GpuShaderText13GpuShaderLineD1Ev(ptr noundef nonnull align 8 dereferenceable(8) %ref.tmp81) #12
  br label %ehcleanup

lpad88:                                           ; preds = %invoke.cont87
  %55 = landingpad { ptr, i32 }
          cleanup
  %56 = extractvalue { ptr, i32 } %55, 0
  store ptr %56, ptr %exn.slot, align 8
  %57 = extractvalue { ptr, i32 } %55, 1
  store i32 %57, ptr %ehselector.slot, align 4
  call void @_ZN19OpenColorIO_v2_4dev13GpuShaderText13GpuShaderLineD1Ev(ptr noundef nonnull align 8 dereferenceable(8) %ref.tmp86) #12
  br label %ehcleanup

lpad94:                                           ; preds = %invoke.cont93
  %58 = landingpad { ptr, i32 }
          cleanup
  %59 = extractvalue { ptr, i32 } %58, 0
  store ptr %59, ptr %exn.slot, align 8
  %60 = extractvalue { ptr, i32 } %58, 1
  store i32 %60, ptr %ehselector.slot, align 4
  call void @_ZN19OpenColorIO_v2_4dev13GpuShaderText13GpuShaderLineD1Ev(ptr noundef nonnull align 8 dereferenceable(8) %ref.tmp92) #12
  br label %ehcleanup

lpad100:                                          ; preds = %invoke.cont99
  %61 = landingpad { ptr, i32 }
          cleanup
  %62 = extractvalue { ptr, i32 } %61, 0
  store ptr %62, ptr %exn.slot, align 8
  %63 = extractvalue { ptr, i32 } %61, 1
  store i32 %63, ptr %ehselector.slot, align 4
  call void @_ZN19OpenColorIO_v2_4dev13GpuShaderText13GpuShaderLineD1Ev(ptr noundef nonnull align 8 dereferenceable(8) %ref.tmp98) #12
  br label %ehcleanup

lpad105:                                          ; preds = %invoke.cont104
  %64 = landingpad { ptr, i32 }
          cleanup
  %65 = extractvalue { ptr, i32 } %64, 0
  store ptr %65, ptr %exn.slot, align 8
  %66 = extractvalue { ptr, i32 } %64, 1
  store i32 %66, ptr %ehselector.slot, align 4
  call void @_ZN19OpenColorIO_v2_4dev13GpuShaderText13GpuShaderLineD1Ev(ptr noundef nonnull align 8 dereferenceable(8) %ref.tmp103) #12
  br label %ehcleanup

lpad110:                                          ; preds = %invoke.cont109
  %67 = landingpad { ptr, i32 }
          cleanup
  %68 = extractvalue { ptr, i32 } %67, 0
  store ptr %68, ptr %exn.slot, align 8
  %69 = extractvalue { ptr, i32 } %67, 1
  store i32 %69, ptr %ehselector.slot, align 4
  call void @_ZN19OpenColorIO_v2_4dev13GpuShaderText13GpuShaderLineD1Ev(ptr noundef nonnull align 8 dereferenceable(8) %ref.tmp108) #12
  br label %ehcleanup

lpad115:                                          ; preds = %invoke.cont114
  %70 = landingpad { ptr, i32 }
          cleanup
  %71 = extractvalue { ptr, i32 } %70, 0
  store ptr %71, ptr %exn.slot, align 8
  %72 = extractvalue { ptr, i32 } %70, 1
  store i32 %72, ptr %ehselector.slot, align 4
  call void @_ZN19OpenColorIO_v2_4dev13GpuShaderText13GpuShaderLineD1Ev(ptr noundef nonnull align 8 dereferenceable(8) %ref.tmp113) #12
  br label %ehcleanup

lpad121:                                          ; preds = %invoke.cont120
  %73 = landingpad { ptr, i32 }
          cleanup
  %74 = extractvalue { ptr, i32 } %73, 0
  store ptr %74, ptr %exn.slot, align 8
  %75 = extractvalue { ptr, i32 } %73, 1
  store i32 %75, ptr %ehselector.slot, align 4
  call void @_ZN19OpenColorIO_v2_4dev13GpuShaderText13GpuShaderLineD1Ev(ptr noundef nonnull align 8 dereferenceable(8) %ref.tmp119) #12
  br label %ehcleanup

lpad127:                                          ; preds = %invoke.cont126
  %76 = landingpad { ptr, i32 }
          cleanup
  %77 = extractvalue { ptr, i32 } %76, 0
  store ptr %77, ptr %exn.slot, align 8
  %78 = extractvalue { ptr, i32 } %76, 1
  store i32 %78, ptr %ehselector.slot, align 4
  call void @_ZN19OpenColorIO_v2_4dev13GpuShaderText13GpuShaderLineD1Ev(ptr noundef nonnull align 8 dereferenceable(8) %ref.tmp125) #12
  br label %ehcleanup

lpad132:                                          ; preds = %invoke.cont131
  %79 = landingpad { ptr, i32 }
          cleanup
  %80 = extractvalue { ptr, i32 } %79, 0
  store ptr %80, ptr %exn.slot, align 8
  %81 = extractvalue { ptr, i32 } %79, 1
  store i32 %81, ptr %ehselector.slot, align 4
  call void @_ZN19OpenColorIO_v2_4dev13GpuShaderText13GpuShaderLineD1Ev(ptr noundef nonnull align 8 dereferenceable(8) %ref.tmp130) #12
  br label %ehcleanup

lpad137:                                          ; preds = %invoke.cont136
  %82 = landingpad { ptr, i32 }
          cleanup
  %83 = extractvalue { ptr, i32 } %82, 0
  store ptr %83, ptr %exn.slot, align 8
  %84 = extractvalue { ptr, i32 } %82, 1
  store i32 %84, ptr %ehselector.slot, align 4
  call void @_ZN19OpenColorIO_v2_4dev13GpuShaderText13GpuShaderLineD1Ev(ptr noundef nonnull align 8 dereferenceable(8) %ref.tmp135) #12
  br label %ehcleanup

lpad142:                                          ; preds = %invoke.cont141
  %85 = landingpad { ptr, i32 }
          cleanup
  %86 = extractvalue { ptr, i32 } %85, 0
  store ptr %86, ptr %exn.slot, align 8
  %87 = extractvalue { ptr, i32 } %85, 1
  store i32 %87, ptr %ehselector.slot, align 4
  call void @_ZN19OpenColorIO_v2_4dev13GpuShaderText13GpuShaderLineD1Ev(ptr noundef nonnull align 8 dereferenceable(8) %ref.tmp140) #12
  br label %ehcleanup

lpad148:                                          ; preds = %invoke.cont147
  %88 = landingpad { ptr, i32 }
          cleanup
  %89 = extractvalue { ptr, i32 } %88, 0
  store ptr %89, ptr %exn.slot, align 8
  %90 = extractvalue { ptr, i32 } %88, 1
  store i32 %90, ptr %ehselector.slot, align 4
  call void @_ZN19OpenColorIO_v2_4dev13GpuShaderText13GpuShaderLineD1Ev(ptr noundef nonnull align 8 dereferenceable(8) %ref.tmp146) #12
  br label %ehcleanup

lpad154:                                          ; preds = %invoke.cont153
  %91 = landingpad { ptr, i32 }
          cleanup
  %92 = extractvalue { ptr, i32 } %91, 0
  store ptr %92, ptr %exn.slot, align 8
  %93 = extractvalue { ptr, i32 } %91, 1
  store i32 %93, ptr %ehselector.slot, align 4
  call void @_ZN19OpenColorIO_v2_4dev13GpuShaderText13GpuShaderLineD1Ev(ptr noundef nonnull align 8 dereferenceable(8) %ref.tmp152) #12
  br label %ehcleanup

lpad159:                                          ; preds = %invoke.cont158
  %94 = landingpad { ptr, i32 }
          cleanup
  %95 = extractvalue { ptr, i32 } %94, 0
  store ptr %95, ptr %exn.slot, align 8
  %96 = extractvalue { ptr, i32 } %94, 1
  store i32 %96, ptr %ehselector.slot, align 4
  call void @_ZN19OpenColorIO_v2_4dev13GpuShaderText13GpuShaderLineD1Ev(ptr noundef nonnull align 8 dereferenceable(8) %ref.tmp157) #12
  br label %ehcleanup

lpad164:                                          ; preds = %invoke.cont163
  %97 = landingpad { ptr, i32 }
          cleanup
  %98 = extractvalue { ptr, i32 } %97, 0
  store ptr %98, ptr %exn.slot, align 8
  %99 = extractvalue { ptr, i32 } %97, 1
  store i32 %99, ptr %ehselector.slot, align 4
  call void @_ZN19OpenColorIO_v2_4dev13GpuShaderText13GpuShaderLineD1Ev(ptr noundef nonnull align 8 dereferenceable(8) %ref.tmp162) #12
  br label %ehcleanup

lpad169:                                          ; preds = %invoke.cont168
  %100 = landingpad { ptr, i32 }
          cleanup
  %101 = extractvalue { ptr, i32 } %100, 0
  store ptr %101, ptr %exn.slot, align 8
  %102 = extractvalue { ptr, i32 } %100, 1
  store i32 %102, ptr %ehselector.slot, align 4
  call void @_ZN19OpenColorIO_v2_4dev13GpuShaderText13GpuShaderLineD1Ev(ptr noundef nonnull align 8 dereferenceable(8) %ref.tmp167) #12
  br label %ehcleanup

lpad175:                                          ; preds = %invoke.cont174
  %103 = landingpad { ptr, i32 }
          cleanup
  %104 = extractvalue { ptr, i32 } %103, 0
  store ptr %104, ptr %exn.slot, align 8
  %105 = extractvalue { ptr, i32 } %103, 1
  store i32 %105, ptr %ehselector.slot, align 4
  call void @_ZN19OpenColorIO_v2_4dev13GpuShaderText13GpuShaderLineD1Ev(ptr noundef nonnull align 8 dereferenceable(8) %ref.tmp173) #12
  br label %ehcleanup

lpad181:                                          ; preds = %invoke.cont180
  %106 = landingpad { ptr, i32 }
          cleanup
  %107 = extractvalue { ptr, i32 } %106, 0
  store ptr %107, ptr %exn.slot, align 8
  %108 = extractvalue { ptr, i32 } %106, 1
  store i32 %108, ptr %ehselector.slot, align 4
  call void @_ZN19OpenColorIO_v2_4dev13GpuShaderText13GpuShaderLineD1Ev(ptr noundef nonnull align 8 dereferenceable(8) %ref.tmp179) #12
  br label %ehcleanup

lpad186:                                          ; preds = %invoke.cont185
  %109 = landingpad { ptr, i32 }
          cleanup
  %110 = extractvalue { ptr, i32 } %109, 0
  store ptr %110, ptr %exn.slot, align 8
  %111 = extractvalue { ptr, i32 } %109, 1
  store i32 %111, ptr %ehselector.slot, align 4
  call void @_ZN19OpenColorIO_v2_4dev13GpuShaderText13GpuShaderLineD1Ev(ptr noundef nonnull align 8 dereferenceable(8) %ref.tmp184) #12
  br label %ehcleanup

lpad191:                                          ; preds = %invoke.cont190
  %112 = landingpad { ptr, i32 }
          cleanup
  %113 = extractvalue { ptr, i32 } %112, 0
  store ptr %113, ptr %exn.slot, align 8
  %114 = extractvalue { ptr, i32 } %112, 1
  store i32 %114, ptr %ehselector.slot, align 4
  call void @_ZN19OpenColorIO_v2_4dev13GpuShaderText13GpuShaderLineD1Ev(ptr noundef nonnull align 8 dereferenceable(8) %ref.tmp189) #12
  br label %ehcleanup

lpad196:                                          ; preds = %invoke.cont195
  %115 = landingpad { ptr, i32 }
          cleanup
  %116 = extractvalue { ptr, i32 } %115, 0
  store ptr %116, ptr %exn.slot, align 8
  %117 = extractvalue { ptr, i32 } %115, 1
  store i32 %117, ptr %ehselector.slot, align 4
  call void @_ZN19OpenColorIO_v2_4dev13GpuShaderText13GpuShaderLineD1Ev(ptr noundef nonnull align 8 dereferenceable(8) %ref.tmp194) #12
  br label %ehcleanup

lpad202:                                          ; preds = %invoke.cont201
  %118 = landingpad { ptr, i32 }
          cleanup
  %119 = extractvalue { ptr, i32 } %118, 0
  store ptr %119, ptr %exn.slot, align 8
  %120 = extractvalue { ptr, i32 } %118, 1
  store i32 %120, ptr %ehselector.slot, align 4
  call void @_ZN19OpenColorIO_v2_4dev13GpuShaderText13GpuShaderLineD1Ev(ptr noundef nonnull align 8 dereferenceable(8) %ref.tmp200) #12
  br label %ehcleanup

lpad208:                                          ; preds = %invoke.cont207
  %121 = landingpad { ptr, i32 }
          cleanup
  %122 = extractvalue { ptr, i32 } %121, 0
  store ptr %122, ptr %exn.slot, align 8
  %123 = extractvalue { ptr, i32 } %121, 1
  store i32 %123, ptr %ehselector.slot, align 4
  call void @_ZN19OpenColorIO_v2_4dev13GpuShaderText13GpuShaderLineD1Ev(ptr noundef nonnull align 8 dereferenceable(8) %ref.tmp206) #12
  br label %ehcleanup

lpad213:                                          ; preds = %invoke.cont212
  %124 = landingpad { ptr, i32 }
          cleanup
  %125 = extractvalue { ptr, i32 } %124, 0
  store ptr %125, ptr %exn.slot, align 8
  %126 = extractvalue { ptr, i32 } %124, 1
  store i32 %126, ptr %ehselector.slot, align 4
  call void @_ZN19OpenColorIO_v2_4dev13GpuShaderText13GpuShaderLineD1Ev(ptr noundef nonnull align 8 dereferenceable(8) %ref.tmp211) #12
  br label %ehcleanup

lpad218:                                          ; preds = %invoke.cont217
  %127 = landingpad { ptr, i32 }
          cleanup
  %128 = extractvalue { ptr, i32 } %127, 0
  store ptr %128, ptr %exn.slot, align 8
  %129 = extractvalue { ptr, i32 } %127, 1
  store i32 %129, ptr %ehselector.slot, align 4
  call void @_ZN19OpenColorIO_v2_4dev13GpuShaderText13GpuShaderLineD1Ev(ptr noundef nonnull align 8 dereferenceable(8) %ref.tmp216) #12
  br label %ehcleanup

lpad223:                                          ; preds = %invoke.cont222
  %130 = landingpad { ptr, i32 }
          cleanup
  %131 = extractvalue { ptr, i32 } %130, 0
  store ptr %131, ptr %exn.slot, align 8
  %132 = extractvalue { ptr, i32 } %130, 1
  store i32 %132, ptr %ehselector.slot, align 4
  call void @_ZN19OpenColorIO_v2_4dev13GpuShaderText13GpuShaderLineD1Ev(ptr noundef nonnull align 8 dereferenceable(8) %ref.tmp221) #12
  br label %ehcleanup

lpad229:                                          ; preds = %invoke.cont228
  %133 = landingpad { ptr, i32 }
          cleanup
  %134 = extractvalue { ptr, i32 } %133, 0
  store ptr %134, ptr %exn.slot, align 8
  %135 = extractvalue { ptr, i32 } %133, 1
  store i32 %135, ptr %ehselector.slot, align 4
  call void @_ZN19OpenColorIO_v2_4dev13GpuShaderText13GpuShaderLineD1Ev(ptr noundef nonnull align 8 dereferenceable(8) %ref.tmp227) #12
  br label %ehcleanup

lpad235:                                          ; preds = %invoke.cont234
  %136 = landingpad { ptr, i32 }
          cleanup
  %137 = extractvalue { ptr, i32 } %136, 0
  store ptr %137, ptr %exn.slot, align 8
  %138 = extractvalue { ptr, i32 } %136, 1
  store i32 %138, ptr %ehselector.slot, align 4
  call void @_ZN19OpenColorIO_v2_4dev13GpuShaderText13GpuShaderLineD1Ev(ptr noundef nonnull align 8 dereferenceable(8) %ref.tmp233) #12
  br label %ehcleanup

lpad240:                                          ; preds = %invoke.cont239
  %139 = landingpad { ptr, i32 }
          cleanup
  %140 = extractvalue { ptr, i32 } %139, 0
  store ptr %140, ptr %exn.slot, align 8
  %141 = extractvalue { ptr, i32 } %139, 1
  store i32 %141, ptr %ehselector.slot, align 4
  call void @_ZN19OpenColorIO_v2_4dev13GpuShaderText13GpuShaderLineD1Ev(ptr noundef nonnull align 8 dereferenceable(8) %ref.tmp238) #12
  br label %ehcleanup

lpad245:                                          ; preds = %invoke.cont244
  %142 = landingpad { ptr, i32 }
          cleanup
  %143 = extractvalue { ptr, i32 } %142, 0
  store ptr %143, ptr %exn.slot, align 8
  %144 = extractvalue { ptr, i32 } %142, 1
  store i32 %144, ptr %ehselector.slot, align 4
  call void @_ZN19OpenColorIO_v2_4dev13GpuShaderText13GpuShaderLineD1Ev(ptr noundef nonnull align 8 dereferenceable(8) %ref.tmp243) #12
  br label %ehcleanup

lpad250:                                          ; preds = %invoke.cont249
  %145 = landingpad { ptr, i32 }
          cleanup
  %146 = extractvalue { ptr, i32 } %145, 0
  store ptr %146, ptr %exn.slot, align 8
  %147 = extractvalue { ptr, i32 } %145, 1
  store i32 %147, ptr %ehselector.slot, align 4
  call void @_ZN19OpenColorIO_v2_4dev13GpuShaderText13GpuShaderLineD1Ev(ptr noundef nonnull align 8 dereferenceable(8) %ref.tmp248) #12
  br label %ehcleanup

lpad256:                                          ; preds = %invoke.cont255
  %148 = landingpad { ptr, i32 }
          cleanup
  %149 = extractvalue { ptr, i32 } %148, 0
  store ptr %149, ptr %exn.slot, align 8
  %150 = extractvalue { ptr, i32 } %148, 1
  store i32 %150, ptr %ehselector.slot, align 4
  call void @_ZN19OpenColorIO_v2_4dev13GpuShaderText13GpuShaderLineD1Ev(ptr noundef nonnull align 8 dereferenceable(8) %ref.tmp254) #12
  br label %ehcleanup

lpad262:                                          ; preds = %invoke.cont261
  %151 = landingpad { ptr, i32 }
          cleanup
  %152 = extractvalue { ptr, i32 } %151, 0
  store ptr %152, ptr %exn.slot, align 8
  %153 = extractvalue { ptr, i32 } %151, 1
  store i32 %153, ptr %ehselector.slot, align 4
  call void @_ZN19OpenColorIO_v2_4dev13GpuShaderText13GpuShaderLineD1Ev(ptr noundef nonnull align 8 dereferenceable(8) %ref.tmp260) #12
  br label %ehcleanup

lpad267:                                          ; preds = %invoke.cont266
  %154 = landingpad { ptr, i32 }
          cleanup
  %155 = extractvalue { ptr, i32 } %154, 0
  store ptr %155, ptr %exn.slot, align 8
  %156 = extractvalue { ptr, i32 } %154, 1
  store i32 %156, ptr %ehselector.slot, align 4
  call void @_ZN19OpenColorIO_v2_4dev13GpuShaderText13GpuShaderLineD1Ev(ptr noundef nonnull align 8 dereferenceable(8) %ref.tmp265) #12
  br label %ehcleanup

lpad272:                                          ; preds = %invoke.cont271
  %157 = landingpad { ptr, i32 }
          cleanup
  %158 = extractvalue { ptr, i32 } %157, 0
  store ptr %158, ptr %exn.slot, align 8
  %159 = extractvalue { ptr, i32 } %157, 1
  store i32 %159, ptr %ehselector.slot, align 4
  call void @_ZN19OpenColorIO_v2_4dev13GpuShaderText13GpuShaderLineD1Ev(ptr noundef nonnull align 8 dereferenceable(8) %ref.tmp270) #12
  br label %ehcleanup

lpad277:                                          ; preds = %invoke.cont276
  %160 = landingpad { ptr, i32 }
          cleanup
  %161 = extractvalue { ptr, i32 } %160, 0
  store ptr %161, ptr %exn.slot, align 8
  %162 = extractvalue { ptr, i32 } %160, 1
  store i32 %162, ptr %ehselector.slot, align 4
  call void @_ZN19OpenColorIO_v2_4dev13GpuShaderText13GpuShaderLineD1Ev(ptr noundef nonnull align 8 dereferenceable(8) %ref.tmp275) #12
  br label %ehcleanup

lpad282:                                          ; preds = %invoke.cont287, %invoke.cont285, %invoke.cont283, %invoke.cont281
  %163 = landingpad { ptr, i32 }
          cleanup
  %164 = extractvalue { ptr, i32 } %163, 0
  store ptr %164, ptr %exn.slot, align 8
  %165 = extractvalue { ptr, i32 } %163, 1
  store i32 %165, ptr %ehselector.slot, align 4
  call void @_ZN19OpenColorIO_v2_4dev13GpuShaderText13GpuShaderLineD1Ev(ptr noundef nonnull align 8 dereferenceable(8) %ref.tmp280) #12
  br label %ehcleanup

lpad293:                                          ; preds = %invoke.cont292
  %166 = landingpad { ptr, i32 }
          cleanup
  %167 = extractvalue { ptr, i32 } %166, 0
  store ptr %167, ptr %exn.slot, align 8
  %168 = extractvalue { ptr, i32 } %166, 1
  store i32 %168, ptr %ehselector.slot, align 4
  call void @_ZN19OpenColorIO_v2_4dev13GpuShaderText13GpuShaderLineD1Ev(ptr noundef nonnull align 8 dereferenceable(8) %ref.tmp291) #12
  br label %ehcleanup

lpad298:                                          ; preds = %invoke.cont297
  %169 = landingpad { ptr, i32 }
          cleanup
  %170 = extractvalue { ptr, i32 } %169, 0
  store ptr %170, ptr %exn.slot, align 8
  %171 = extractvalue { ptr, i32 } %169, 1
  store i32 %171, ptr %ehselector.slot, align 4
  call void @_ZNSt7__cxx1112basic_stringIcSt11char_traitsIcESaIcEED1Ev(ptr noundef nonnull align 8 dereferenceable(32) %ref.tmp296) #12
  br label %ehcleanup

ehcleanup:                                        ; preds = %lpad298, %lpad293, %lpad282, %lpad277, %lpad272, %lpad267, %lpad262, %lpad256, %lpad250, %lpad245, %lpad240, %lpad235, %lpad229, %lpad223, %lpad218, %lpad213, %lpad208, %lpad202, %lpad196, %lpad191, %lpad186, %lpad181, %lpad175, %lpad169, %lpad164, %lpad159, %lpad154, %lpad148, %lpad142, %lpad137, %lpad132, %lpad127, %lpad121, %lpad115, %lpad110, %lpad105, %lpad100, %lpad94, %lpad88, %lpad83, %lpad78, %lpad73, %lpad67, %lpad62, %lpad57, %lpad52, %lpad46, %lpad41, %lpad36, %lpad31, %lpad26, %lpad21, %lpad16, %lpad11, %lpad6, %lpad2, %lpad
  call void @_ZN19OpenColorIO_v2_4dev13GpuShaderTextD2Ev(ptr noundef nonnull align 8 dereferenceable(764) %st) #12
  br label %eh.resume

eh.resume:                                        ; preds = %ehcleanup
  %exn = load ptr, ptr %exn.slot, align 8
  %sel = load i32, ptr %ehselector.slot, align 4
  %lpad.val = insertvalue { ptr, i32 } poison, ptr %exn, 0
  %lpad.val300 = insertvalue { ptr, i32 } %lpad.val, i32 %sel, 1
  resume { ptr, i32 } %lpad.val300
}

declare void @_ZN19OpenColorIO_v2_4dev13GpuShaderTextC1ENS_11GpuLanguageE(ptr noundef nonnull align 8 dereferenceable(764), i32 noundef) unnamed_addr #4

declare void @_ZN19OpenColorIO_v2_4dev13GpuShaderText7newLineEv(ptr sret(%"class.OpenColorIO_v2_4dev::GpuShaderText::GpuShaderLine") align 8, ptr noundef nonnull align 8 dereferenceable(764)) #4

declare i32 @__gxx_personality_v0(...)

declare noundef nonnull align 8 dereferenceable(8) ptr @_ZN19OpenColorIO_v2_4dev13GpuShaderText13GpuShaderLinelsEPKc(ptr noundef nonnull align 8 dereferenceable(8), ptr noundef) #4

; Function Attrs: nounwind
declare void @_ZN19OpenColorIO_v2_4dev13GpuShaderText13GpuShaderLineD1Ev(ptr noundef nonnull align 8 dereferenceable(8)) unnamed_addr #5

declare void @_ZN19OpenColorIO_v2_4dev13GpuShaderText6indentEv(ptr noundef nonnull align 8 dereferenceable(764)) #4

declare void @_ZN19OpenColorIO_v2_4dev13GpuShaderText6dedentEv(ptr noundef nonnull align 8 dereferenceable(764)) #4

declare noundef nonnull align 8 dereferenceable(8) ptr @_ZN19OpenColorIO_v2_4dev13GpuShaderText13GpuShaderLinelsERKNSt7__cxx1112basic_stringIcSt11char_traitsIcESaIcEEE(ptr noundef nonnull align 8 dereferenceable(8), ptr noundef nonnull align 8 dereferenceable(32)) #4

; Function Attrs: mustprogress uwtable
define linkonce_odr void @_ZStplIcSt11char_traitsIcESaIcEENSt7__cxx1112basic_stringIT_T0_T1_EEOS8_RKS8_(ptr noalias sret(%"class.std::__cxx11::basic_string") align 8 %agg.result, ptr noundef nonnull align 8 dereferenceable(32) %__lhs, ptr noundef nonnull align 8 dereferenceable(32) %__rhs) #0 comdat {
entry:
  %result.ptr = alloca ptr, align 8
  %__lhs.addr = alloca ptr, align 8
  %__rhs.addr = alloca ptr, align 8
  store ptr %agg.result, ptr %result.ptr, align 8
  store ptr %__lhs, ptr %__lhs.addr, align 8
  store ptr %__rhs, ptr %__rhs.addr, align 8
  %0 = load ptr, ptr %__lhs.addr, align 8
  %1 = load ptr, ptr %__rhs.addr, align 8
  %call = call noundef nonnull align 8 dereferenceable(32) ptr @_ZNSt7__cxx1112basic_stringIcSt11char_traitsIcESaIcEE6appendERKS4_(ptr noundef nonnull align 8 dereferenceable(32) %0, ptr noundef nonnull align 8 dereferenceable(32) %1)
  call void @_ZNSt7__cxx1112basic_stringIcSt11char_traitsIcESaIcEEC1EOS4_(ptr noundef nonnull align 8 dereferenceable(32) %agg.result, ptr noundef nonnull align 8 dereferenceable(32) %call) #12
  ret void
}

declare void @_ZNK19OpenColorIO_v2_4dev13GpuShaderText6stringB5cxx11Ev(ptr sret(%"class.std::__cxx11::basic_string") align 8, ptr noundef nonnull align 8 dereferenceable(764)) #4

; Function Attrs: nounwind
declare void @_ZNSt7__cxx1112basic_stringIcSt11char_traitsIcESaIcEED1Ev(ptr noundef nonnull align 8 dereferenceable(32)) unnamed_addr #5

; Function Attrs: mustprogress nounwind uwtable
define linkonce_odr hidden void @_ZN19OpenColorIO_v2_4dev13GpuShaderTextD2Ev(ptr noundef nonnull align 8 dereferenceable(764) %this) unnamed_addr #2 comdat align 2 {
entry:
  %this.addr = alloca ptr, align 8
  store ptr %this, ptr %this.addr, align 8
  %this1 = load ptr, ptr %this.addr, align 8
  %m_ossLine = getelementptr inbounds %"class.OpenColorIO_v2_4dev::GpuShaderText", ptr %this1, i32 0, i32 3
  call void @_ZNSt7__cxx1119basic_ostringstreamIcSt11char_traitsIcESaIcEED1Ev(ptr noundef nonnull align 8 dereferenceable(112) %m_ossLine) #12
  %m_ossText = getelementptr inbounds %"class.OpenColorIO_v2_4dev::GpuShaderText", ptr %this1, i32 0, i32 2
  call void @_ZNSt7__cxx1119basic_ostringstreamIcSt11char_traitsIcESaIcEED1Ev(ptr noundef nonnull align 8 dereferenceable(112) %m_ossText) #12
  ret void
}

; Function Attrs: mustprogress uwtable
define hidden void @_ZN19OpenColorIO_v2_4dev21OSLShaderClassWrapper21getClassWrapperFooterERKNSt7__cxx1112basic_stringIcSt11char_traitsIcESaIcEEE(ptr noalias sret(%"class.std::__cxx11::basic_string") align 8 %agg.result, ptr noundef nonnull align 8 dereferenceable(40) %this, ptr noundef nonnull align 8 dereferenceable(32) %originalFooter) unnamed_addr #0 align 2 personality ptr @__gxx_personality_v0 {
entry:
  %result.ptr = alloca ptr, align 8
  %this.addr = alloca ptr, align 8
  %originalFooter.addr = alloca ptr, align 8
  %st = alloca %"class.OpenColorIO_v2_4dev::GpuShaderText", align 8
  %ref.tmp = alloca %"class.OpenColorIO_v2_4dev::GpuShaderText::GpuShaderLine", align 8
  %exn.slot = alloca ptr, align 8
  %ehselector.slot = alloca i32, align 4
  %ref.tmp4 = alloca %"class.OpenColorIO_v2_4dev::GpuShaderText::GpuShaderLine", align 8
  %ref.tmp13 = alloca %"class.OpenColorIO_v2_4dev::GpuShaderText::GpuShaderLine", align 8
  %ref.tmp18 = alloca %"class.std::__cxx11::basic_string", align 8
  store ptr %agg.result, ptr %result.ptr, align 8
  store ptr %this, ptr %this.addr, align 8
  store ptr %originalFooter, ptr %originalFooter.addr, align 8
  %this1 = load ptr, ptr %this.addr, align 8
  call void @_ZN19OpenColorIO_v2_4dev13GpuShaderTextC1ENS_11GpuLanguageE(ptr noundef nonnull align 8 dereferenceable(764) %st, i32 noundef 5)
  invoke void @_ZN19OpenColorIO_v2_4dev13GpuShaderText7newLineEv(ptr sret(%"class.OpenColorIO_v2_4dev::GpuShaderText::GpuShaderLine") align 8 %ref.tmp, ptr noundef nonnull align 8 dereferenceable(764) %st)
          to label %invoke.cont unwind label %lpad

invoke.cont:                                      ; preds = %entry
  %call = invoke noundef nonnull align 8 dereferenceable(8) ptr @_ZN19OpenColorIO_v2_4dev13GpuShaderText13GpuShaderLinelsEPKc(ptr noundef nonnull align 8 dereferenceable(8) %ref.tmp, ptr noundef @.str.1)
          to label %invoke.cont3 unwind label %lpad2

invoke.cont3:                                     ; preds = %invoke.cont
  call void @_ZN19OpenColorIO_v2_4dev13GpuShaderText13GpuShaderLineD1Ev(ptr noundef nonnull align 8 dereferenceable(8) %ref.tmp) #12
  invoke void @_ZN19OpenColorIO_v2_4dev13GpuShaderText7newLineEv(ptr sret(%"class.OpenColorIO_v2_4dev::GpuShaderText::GpuShaderLine") align 8 %ref.tmp4, ptr noundef nonnull align 8 dereferenceable(764) %st)
          to label %invoke.cont5 unwind label %lpad

invoke.cont5:                                     ; preds = %invoke.cont3
  %call8 = invoke noundef nonnull align 8 dereferenceable(8) ptr @_ZN19OpenColorIO_v2_4dev13GpuShaderText13GpuShaderLinelsEPKc(ptr noundef nonnull align 8 dereferenceable(8) %ref.tmp4, ptr noundef @.str.31)
          to label %invoke.cont7 unwind label %lpad6

invoke.cont7:                                     ; preds = %invoke.cont5
  %m_functionName = getelementptr inbounds %"class.OpenColorIO_v2_4dev::OSLShaderClassWrapper", ptr %this1, i32 0, i32 1
  %call10 = invoke noundef nonnull align 8 dereferenceable(8) ptr @_ZN19OpenColorIO_v2_4dev13GpuShaderText13GpuShaderLinelsERKNSt7__cxx1112basic_stringIcSt11char_traitsIcESaIcEEE(ptr noundef nonnull align 8 dereferenceable(8) %call8, ptr noundef nonnull align 8 dereferenceable(32) %m_functionName)
          to label %invoke.cont9 unwind label %lpad6

invoke.cont9:                                     ; preds = %invoke.cont7
  %call12 = invoke noundef nonnull align 8 dereferenceable(8) ptr @_ZN19OpenColorIO_v2_4dev13GpuShaderText13GpuShaderLinelsEPKc(ptr noundef nonnull align 8 dereferenceable(8) %call10, ptr noundef @.str.32)
          to label %invoke.cont11 unwind label %lpad6

invoke.cont11:                                    ; preds = %invoke.cont9
  call void @_ZN19OpenColorIO_v2_4dev13GpuShaderText13GpuShaderLineD1Ev(ptr noundef nonnull align 8 dereferenceable(8) %ref.tmp4) #12
  invoke void @_ZN19OpenColorIO_v2_4dev13GpuShaderText7newLineEv(ptr sret(%"class.OpenColorIO_v2_4dev::GpuShaderText::GpuShaderLine") align 8 %ref.tmp13, ptr noundef nonnull align 8 dereferenceable(764) %st)
          to label %invoke.cont14 unwind label %lpad

invoke.cont14:                                    ; preds = %invoke.cont11
  %call17 = invoke noundef nonnull align 8 dereferenceable(8) ptr @_ZN19OpenColorIO_v2_4dev13GpuShaderText13GpuShaderLinelsEPKc(ptr noundef nonnull align 8 dereferenceable(8) %ref.tmp13, ptr noundef @.str.12)
          to label %invoke.cont16 unwind label %lpad15

invoke.cont16:                                    ; preds = %invoke.cont14
  call void @_ZN19OpenColorIO_v2_4dev13GpuShaderText13GpuShaderLineD1Ev(ptr noundef nonnull align 8 dereferenceable(8) %ref.tmp13) #12
  %0 = load ptr, ptr %originalFooter.addr, align 8
  invoke void @_ZNK19OpenColorIO_v2_4dev13GpuShaderText6stringB5cxx11Ev(ptr sret(%"class.std::__cxx11::basic_string") align 8 %ref.tmp18, ptr noundef nonnull align 8 dereferenceable(764) %st)
          to label %invoke.cont19 unwind label %lpad

invoke.cont19:                                    ; preds = %invoke.cont16
  invoke void @_ZStplIcSt11char_traitsIcESaIcEENSt7__cxx1112basic_stringIT_T0_T1_EERKS8_OS8_(ptr sret(%"class.std::__cxx11::basic_string") align 8 %agg.result, ptr noundef nonnull align 8 dereferenceable(32) %0, ptr noundef nonnull align 8 dereferenceable(32) %ref.tmp18)
          to label %invoke.cont21 unwind label %lpad20

invoke.cont21:                                    ; preds = %invoke.cont19
  call void @_ZNSt7__cxx1112basic_stringIcSt11char_traitsIcESaIcEED1Ev(ptr noundef nonnull align 8 dereferenceable(32) %ref.tmp18) #12
  call void @_ZN19OpenColorIO_v2_4dev13GpuShaderTextD2Ev(ptr noundef nonnull align 8 dereferenceable(764) %st) #12
  ret void

lpad:                                             ; preds = %invoke.cont16, %invoke.cont11, %invoke.cont3, %entry
  %1 = landingpad { ptr, i32 }
          cleanup
  %2 = extractvalue { ptr, i32 } %1, 0
  store ptr %2, ptr %exn.slot, align 8
  %3 = extractvalue { ptr, i32 } %1, 1
  store i32 %3, ptr %ehselector.slot, align 4
  br label %ehcleanup

lpad2:                                            ; preds = %invoke.cont
  %4 = landingpad { ptr, i32 }
          cleanup
  %5 = extractvalue { ptr, i32 } %4, 0
  store ptr %5, ptr %exn.slot, align 8
  %6 = extractvalue { ptr, i32 } %4, 1
  store i32 %6, ptr %ehselector.slot, align 4
  call void @_ZN19OpenColorIO_v2_4dev13GpuShaderText13GpuShaderLineD1Ev(ptr noundef nonnull align 8 dereferenceable(8) %ref.tmp) #12
  br label %ehcleanup

lpad6:                                            ; preds = %invoke.cont9, %invoke.cont7, %invoke.cont5
  %7 = landingpad { ptr, i32 }
          cleanup
  %8 = extractvalue { ptr, i32 } %7, 0
  store ptr %8, ptr %exn.slot, align 8
  %9 = extractvalue { ptr, i32 } %7, 1
  store i32 %9, ptr %ehselector.slot, align 4
  call void @_ZN19OpenColorIO_v2_4dev13GpuShaderText13GpuShaderLineD1Ev(ptr noundef nonnull align 8 dereferenceable(8) %ref.tmp4) #12
  br label %ehcleanup

lpad15:                                           ; preds = %invoke.cont14
  %10 = landingpad { ptr, i32 }
          cleanup
  %11 = extractvalue { ptr, i32 } %10, 0
  store ptr %11, ptr %exn.slot, align 8
  %12 = extractvalue { ptr, i32 } %10, 1
  store i32 %12, ptr %ehselector.slot, align 4
  call void @_ZN19OpenColorIO_v2_4dev13GpuShaderText13GpuShaderLineD1Ev(ptr noundef nonnull align 8 dereferenceable(8) %ref.tmp13) #12
  br label %ehcleanup

lpad20:                                           ; preds = %invoke.cont19
  %13 = landingpad { ptr, i32 }
          cleanup
  %14 = extractvalue { ptr, i32 } %13, 0
  store ptr %14, ptr %exn.slot, align 8
  %15 = extractvalue { ptr, i32 } %13, 1
  store i32 %15, ptr %ehselector.slot, align 4
  call void @_ZNSt7__cxx1112basic_stringIcSt11char_traitsIcESaIcEED1Ev(ptr noundef nonnull align 8 dereferenceable(32) %ref.tmp18) #12
  br label %ehcleanup

ehcleanup:                                        ; preds = %lpad20, %lpad15, %lpad6, %lpad2, %lpad
  call void @_ZN19OpenColorIO_v2_4dev13GpuShaderTextD2Ev(ptr noundef nonnull align 8 dereferenceable(764) %st) #12
  br label %eh.resume

eh.resume:                                        ; preds = %ehcleanup
  %exn = load ptr, ptr %exn.slot, align 8
  %sel = load i32, ptr %ehselector.slot, align 4
  %lpad.val = insertvalue { ptr, i32 } poison, ptr %exn, 0
  %lpad.val22 = insertvalue { ptr, i32 } %lpad.val, i32 %sel, 1
  resume { ptr, i32 } %lpad.val22
}

; Function Attrs: mustprogress uwtable
define linkonce_odr void @_ZStplIcSt11char_traitsIcESaIcEENSt7__cxx1112basic_stringIT_T0_T1_EERKS8_OS8_(ptr noalias sret(%"class.std::__cxx11::basic_string") align 8 %agg.result, ptr noundef nonnull align 8 dereferenceable(32) %__lhs, ptr noundef nonnull align 8 dereferenceable(32) %__rhs) #0 comdat {
entry:
  %result.ptr = alloca ptr, align 8
  %__lhs.addr = alloca ptr, align 8
  %__rhs.addr = alloca ptr, align 8
  store ptr %agg.result, ptr %result.ptr, align 8
  store ptr %__lhs, ptr %__lhs.addr, align 8
  store ptr %__rhs, ptr %__rhs.addr, align 8
  %0 = load ptr, ptr %__rhs.addr, align 8
  %1 = load ptr, ptr %__lhs.addr, align 8
  %call = call noundef nonnull align 8 dereferenceable(32) ptr @_ZNSt7__cxx1112basic_stringIcSt11char_traitsIcESaIcEE6insertEmRKS4_(ptr noundef nonnull align 8 dereferenceable(32) %0, i64 noundef 0, ptr noundef nonnull align 8 dereferenceable(32) %1)
  call void @_ZNSt7__cxx1112basic_stringIcSt11char_traitsIcESaIcEEC1EOS4_(ptr noundef nonnull align 8 dereferenceable(32) %agg.result, ptr noundef nonnull align 8 dereferenceable(32) %call) #12
  ret void
}

; Function Attrs: mustprogress uwtable
define hidden void @_ZNK19OpenColorIO_v2_4dev23MetalShaderClassWrapper26generateClassWrapperHeaderB5cxx11ERNS_13GpuShaderTextE(ptr noalias sret(%"class.std::__cxx11::basic_string") align 8 %agg.result, ptr noundef nonnull align 8 dereferenceable(96) %this, ptr noundef nonnull align 8 dereferenceable(764) %kw) #0 align 2 personality ptr @__gxx_personality_v0 {
entry:
  %result.ptr = alloca ptr, align 8
  %this.addr = alloca ptr, align 8
  %kw.addr = alloca ptr, align 8
  %exn.slot = alloca ptr, align 8
  %ehselector.slot = alloca i32, align 4
  %ref.tmp = alloca %"class.std::__cxx11::basic_string", align 8
  %cleanup.isactive = alloca i1, align 1
  %ref.tmp14 = alloca %"class.OpenColorIO_v2_4dev::GpuShaderText::GpuShaderLine", align 8
  %ref.tmp22 = alloca %"class.OpenColorIO_v2_4dev::GpuShaderText::GpuShaderLine", align 8
  %ref.tmp27 = alloca %"class.OpenColorIO_v2_4dev::GpuShaderText::GpuShaderLine", align 8
  %separator = alloca %"class.std::__cxx11::basic_string", align 8
  %ref.tmp35 = alloca %"class.std::allocator", align 1
  %__range1 = alloca ptr, align 8
  %__begin1 = alloca %"class.__gnu_cxx::__normal_iterator", align 8
  %__end1 = alloca %"class.__gnu_cxx::__normal_iterator", align 8
  %param = alloca ptr, align 8
  %ref.tmp44 = alloca %"class.OpenColorIO_v2_4dev::GpuShaderText::GpuShaderLine", align 8
  %ref.tmp63 = alloca %"class.OpenColorIO_v2_4dev::GpuShaderText::GpuShaderLine", align 8
  %ref.tmp68 = alloca %"class.std::__cxx11::basic_string", align 8
  %ref.tmp69 = alloca %"class.std::__cxx11::basic_string", align 8
  %ref.tmp87 = alloca %"class.OpenColorIO_v2_4dev::GpuShaderText::GpuShaderLine", align 8
  %ref.tmp93 = alloca %"class.OpenColorIO_v2_4dev::GpuShaderText::GpuShaderLine", align 8
  %__range1100 = alloca ptr, align 8
  %__begin1102 = alloca %"class.__gnu_cxx::__normal_iterator", align 8
  %__end1105 = alloca %"class.__gnu_cxx::__normal_iterator", align 8
  %param111 = alloca ptr, align 8
  %openAngledBracketPos = alloca i64, align 8
  %ref.tmp118 = alloca %"class.OpenColorIO_v2_4dev::GpuShaderText::GpuShaderLine", align 8
  %closeAngledBracketPos = alloca i64, align 8
  %variableName = alloca %"class.std::__cxx11::basic_string", align 8
  %ref.tmp138 = alloca %"class.OpenColorIO_v2_4dev::GpuShaderText::GpuShaderLine", align 8
  %ref.tmp144 = alloca %"class.std::__cxx11::basic_string", align 8
  %ref.tmp153 = alloca %"class.OpenColorIO_v2_4dev::GpuShaderText::GpuShaderLine", align 8
  %ref.tmp160 = alloca %"class.OpenColorIO_v2_4dev::GpuShaderText::GpuShaderLine", align 8
  %ref.tmp175 = alloca %"class.OpenColorIO_v2_4dev::GpuShaderText::GpuShaderLine", align 8
  %ref.tmp181 = alloca %"class.OpenColorIO_v2_4dev::GpuShaderText::GpuShaderLine", align 8
  %ref.tmp186 = alloca %"class.std::__cxx11::basic_string", align 8
  %ref.tmp193 = alloca %"class.std::__cxx11::basic_string", align 8
  %ref.tmp205 = alloca %"class.OpenColorIO_v2_4dev::GpuShaderText::GpuShaderLine", align 8
  %ref.tmp212 = alloca %"class.OpenColorIO_v2_4dev::GpuShaderText::GpuShaderLine", align 8
  %ref.tmp223 = alloca %"class.OpenColorIO_v2_4dev::GpuShaderText::GpuShaderLine", align 8
  %ref.tmp235 = alloca %"class.OpenColorIO_v2_4dev::GpuShaderText::GpuShaderLine", align 8
  store ptr %agg.result, ptr %result.ptr, align 8
  store ptr %this, ptr %this.addr, align 8
  store ptr %kw, ptr %kw.addr, align 8
  %this1 = load ptr, ptr %this.addr, align 8
  %m_className = getelementptr inbounds %"class.OpenColorIO_v2_4dev::MetalShaderClassWrapper", ptr %this1, i32 0, i32 1
  %call = call noundef zeroext i1 @_ZNKSt7__cxx1112basic_stringIcSt11char_traitsIcESaIcEE5emptyEv(ptr noundef nonnull align 8 dereferenceable(32) %m_className) #12
  br i1 %call, label %if.then, label %if.end

if.then:                                          ; preds = %entry
  %exception = call ptr @__cxa_allocate_exception(i64 16) #12
  invoke void @_ZN19OpenColorIO_v2_4dev9ExceptionC1EPKc(ptr noundef nonnull align 8 dereferenceable(16) %exception, ptr noundef @.str.33)
          to label %invoke.cont unwind label %lpad

invoke.cont:                                      ; preds = %if.then
  call void @__cxa_throw(ptr %exception, ptr @_ZTIN19OpenColorIO_v2_4dev9ExceptionE, ptr @_ZN19OpenColorIO_v2_4dev9ExceptionD1Ev) #15
  unreachable

lpad:                                             ; preds = %if.then
  %0 = landingpad { ptr, i32 }
          cleanup
  %1 = extractvalue { ptr, i32 } %0, 0
  store ptr %1, ptr %exn.slot, align 8
  %2 = extractvalue { ptr, i32 } %0, 1
  store i32 %2, ptr %ehselector.slot, align 4
  call void @__cxa_free_exception(ptr %exception) #12
  br label %eh.resume

if.end:                                           ; preds = %entry
  %m_className2 = getelementptr inbounds %"class.OpenColorIO_v2_4dev::MetalShaderClassWrapper", ptr %this1, i32 0, i32 1
  %call3 = call noundef nonnull align 1 dereferenceable(1) ptr @_ZNKSt7__cxx1112basic_stringIcSt11char_traitsIcESaIcEEixEm(ptr noundef nonnull align 8 dereferenceable(32) %m_className2, i64 noundef 0) #12
  %3 = load i8, ptr %call3, align 1
  %conv = sext i8 %3 to i32
  %call4 = call i32 @isdigit(i32 noundef %conv) #16
  %tobool = icmp ne i32 %call4, 0
  br i1 %tobool, label %if.then5, label %if.end13

if.then5:                                         ; preds = %if.end
  store i1 true, ptr %cleanup.isactive, align 1
  %exception6 = call ptr @__cxa_allocate_exception(i64 16) #12
  %m_className7 = getelementptr inbounds %"class.OpenColorIO_v2_4dev::MetalShaderClassWrapper", ptr %this1, i32 0, i32 1
  invoke void @_ZStplIcSt11char_traitsIcESaIcEENSt7__cxx1112basic_stringIT_T0_T1_EEPKS5_RKS8_(ptr sret(%"class.std::__cxx11::basic_string") align 8 %ref.tmp, ptr noundef @.str.34, ptr noundef nonnull align 8 dereferenceable(32) %m_className7)
          to label %invoke.cont9 unwind label %lpad8

invoke.cont9:                                     ; preds = %if.then5
  %call10 = call noundef ptr @_ZNKSt7__cxx1112basic_stringIcSt11char_traitsIcESaIcEE5c_strEv(ptr noundef nonnull align 8 dereferenceable(32) %ref.tmp) #12
  invoke void @_ZN19OpenColorIO_v2_4dev9ExceptionC1EPKc(ptr noundef nonnull align 8 dereferenceable(16) %exception6, ptr noundef %call10)
          to label %invoke.cont12 unwind label %lpad11

invoke.cont12:                                    ; preds = %invoke.cont9
  store i1 false, ptr %cleanup.isactive, align 1
  invoke void @__cxa_throw(ptr %exception6, ptr @_ZTIN19OpenColorIO_v2_4dev9ExceptionE, ptr @_ZN19OpenColorIO_v2_4dev9ExceptionD1Ev) #15
          to label %unreachable unwind label %lpad11

lpad8:                                            ; preds = %if.then5
  %4 = landingpad { ptr, i32 }
          cleanup
  %5 = extractvalue { ptr, i32 } %4, 0
  store ptr %5, ptr %exn.slot, align 8
  %6 = extractvalue { ptr, i32 } %4, 1
  store i32 %6, ptr %ehselector.slot, align 4
  br label %ehcleanup

lpad11:                                           ; preds = %invoke.cont12, %invoke.cont9
  %7 = landingpad { ptr, i32 }
          cleanup
  %8 = extractvalue { ptr, i32 } %7, 0
  store ptr %8, ptr %exn.slot, align 8
  %9 = extractvalue { ptr, i32 } %7, 1
  store i32 %9, ptr %ehselector.slot, align 4
  call void @_ZNSt7__cxx1112basic_stringIcSt11char_traitsIcESaIcEED1Ev(ptr noundef nonnull align 8 dereferenceable(32) %ref.tmp) #12
  br label %ehcleanup

ehcleanup:                                        ; preds = %lpad11, %lpad8
  %cleanup.is_active = load i1, ptr %cleanup.isactive, align 1
  br i1 %cleanup.is_active, label %cleanup.action, label %cleanup.done

cleanup.action:                                   ; preds = %ehcleanup
  call void @__cxa_free_exception(ptr %exception6) #12
  br label %cleanup.done

cleanup.done:                                     ; preds = %cleanup.action, %ehcleanup
  br label %eh.resume

if.end13:                                         ; preds = %if.end
  %10 = load ptr, ptr %kw.addr, align 8
  call void @_ZN19OpenColorIO_v2_4dev13GpuShaderText7newLineEv(ptr sret(%"class.OpenColorIO_v2_4dev::GpuShaderText::GpuShaderLine") align 8 %ref.tmp14, ptr noundef nonnull align 8 dereferenceable(764) %10)
  %call17 = invoke noundef nonnull align 8 dereferenceable(8) ptr @_ZN19OpenColorIO_v2_4dev13GpuShaderText13GpuShaderLinelsEPKc(ptr noundef nonnull align 8 dereferenceable(8) %ref.tmp14, ptr noundef @.str.35)
          to label %invoke.cont16 unwind label %lpad15

invoke.cont16:                                    ; preds = %if.end13
  %m_className18 = getelementptr inbounds %"class.OpenColorIO_v2_4dev::MetalShaderClassWrapper", ptr %this1, i32 0, i32 1
  %call20 = invoke noundef nonnull align 8 dereferenceable(8) ptr @_ZN19OpenColorIO_v2_4dev13GpuShaderText13GpuShaderLinelsERKNSt7__cxx1112basic_stringIcSt11char_traitsIcESaIcEEE(ptr noundef nonnull align 8 dereferenceable(8) %call17, ptr noundef nonnull align 8 dereferenceable(32) %m_className18)
          to label %invoke.cont19 unwind label %lpad15

invoke.cont19:                                    ; preds = %invoke.cont16
  call void @_ZN19OpenColorIO_v2_4dev13GpuShaderText13GpuShaderLineD1Ev(ptr noundef nonnull align 8 dereferenceable(8) %ref.tmp14) #12
  %11 = load ptr, ptr %kw.addr, align 8
  call void @_ZN19OpenColorIO_v2_4dev13GpuShaderText7newLineEv(ptr sret(%"class.OpenColorIO_v2_4dev::GpuShaderText::GpuShaderLine") align 8 %ref.tmp22, ptr noundef nonnull align 8 dereferenceable(764) %11)
  %call25 = invoke noundef nonnull align 8 dereferenceable(8) ptr @_ZN19OpenColorIO_v2_4dev13GpuShaderText13GpuShaderLinelsEPKc(ptr noundef nonnull align 8 dereferenceable(8) %ref.tmp22, ptr noundef @.str.7)
          to label %invoke.cont24 unwind label %lpad23

invoke.cont24:                                    ; preds = %invoke.cont19
  call void @_ZN19OpenColorIO_v2_4dev13GpuShaderText13GpuShaderLineD1Ev(ptr noundef nonnull align 8 dereferenceable(8) %ref.tmp22) #12
  %12 = load ptr, ptr %kw.addr, align 8
  call void @_ZN19OpenColorIO_v2_4dev13GpuShaderText7newLineEv(ptr sret(%"class.OpenColorIO_v2_4dev::GpuShaderText::GpuShaderLine") align 8 %ref.tmp27, ptr noundef nonnull align 8 dereferenceable(764) %12)
  %m_className28 = getelementptr inbounds %"class.OpenColorIO_v2_4dev::MetalShaderClassWrapper", ptr %this1, i32 0, i32 1
  %call31 = invoke noundef nonnull align 8 dereferenceable(8) ptr @_ZN19OpenColorIO_v2_4dev13GpuShaderText13GpuShaderLinelsERKNSt7__cxx1112basic_stringIcSt11char_traitsIcESaIcEEE(ptr noundef nonnull align 8 dereferenceable(8) %ref.tmp27, ptr noundef nonnull align 8 dereferenceable(32) %m_className28)
          to label %invoke.cont30 unwind label %lpad29

invoke.cont30:                                    ; preds = %invoke.cont24
  %call33 = invoke noundef nonnull align 8 dereferenceable(8) ptr @_ZN19OpenColorIO_v2_4dev13GpuShaderText13GpuShaderLinelsEPKc(ptr noundef nonnull align 8 dereferenceable(8) %call31, ptr noundef @.str.36)
          to label %invoke.cont32 unwind label %lpad29

invoke.cont32:                                    ; preds = %invoke.cont30
  call void @_ZN19OpenColorIO_v2_4dev13GpuShaderText13GpuShaderLineD1Ev(ptr noundef nonnull align 8 dereferenceable(8) %ref.tmp27) #12
  %13 = load ptr, ptr %kw.addr, align 8
  call void @_ZN19OpenColorIO_v2_4dev13GpuShaderText6indentEv(ptr noundef nonnull align 8 dereferenceable(764) %13)
  call void @_ZNSaIcEC1Ev(ptr noundef nonnull align 1 dereferenceable(1) %ref.tmp35) #12
  invoke void @_ZNSt7__cxx1112basic_stringIcSt11char_traitsIcESaIcEEC1EPKcRKS3_(ptr noundef nonnull align 8 dereferenceable(32) %separator, ptr noundef @.str.1, ptr noundef nonnull align 1 dereferenceable(1) %ref.tmp35)
          to label %invoke.cont37 unwind label %lpad36

invoke.cont37:                                    ; preds = %invoke.cont32
  call void @_ZNSaIcED1Ev(ptr noundef nonnull align 1 dereferenceable(1) %ref.tmp35) #12
  %m_functionParameters = getelementptr inbounds %"class.OpenColorIO_v2_4dev::MetalShaderClassWrapper", ptr %this1, i32 0, i32 3
  store ptr %m_functionParameters, ptr %__range1, align 8
  %14 = load ptr, ptr %__range1, align 8
  %call39 = call ptr @_ZNKSt6vectorIN19OpenColorIO_v2_4dev23MetalShaderClassWrapper13FunctionParamESaIS2_EE5beginEv(ptr noundef nonnull align 8 dereferenceable(24) %14) #12
  %coerce.dive = getelementptr inbounds %"class.__gnu_cxx::__normal_iterator", ptr %__begin1, i32 0, i32 0
  store ptr %call39, ptr %coerce.dive, align 8
  %15 = load ptr, ptr %__range1, align 8
  %call40 = call ptr @_ZNKSt6vectorIN19OpenColorIO_v2_4dev23MetalShaderClassWrapper13FunctionParamESaIS2_EE3endEv(ptr noundef nonnull align 8 dereferenceable(24) %15) #12
  %coerce.dive41 = getelementptr inbounds %"class.__gnu_cxx::__normal_iterator", ptr %__end1, i32 0, i32 0
  store ptr %call40, ptr %coerce.dive41, align 8
  br label %for.cond

for.cond:                                         ; preds = %for.inc, %invoke.cont37
  %call42 = call noundef zeroext i1 @_ZN9__gnu_cxxneIPKN19OpenColorIO_v2_4dev23MetalShaderClassWrapper13FunctionParamESt6vectorIS3_SaIS3_EEEEbRKNS_17__normal_iteratorIT_T0_EESE_(ptr noundef nonnull align 8 dereferenceable(8) %__begin1, ptr noundef nonnull align 8 dereferenceable(8) %__end1) #12
  br i1 %call42, label %for.body, label %for.end

for.body:                                         ; preds = %for.cond
  %call43 = call noundef nonnull align 8 dereferenceable(65) ptr @_ZNK9__gnu_cxx17__normal_iteratorIPKN19OpenColorIO_v2_4dev23MetalShaderClassWrapper13FunctionParamESt6vectorIS3_SaIS3_EEEdeEv(ptr noundef nonnull align 8 dereferenceable(8) %__begin1) #12
  store ptr %call43, ptr %param, align 8
  %16 = load ptr, ptr %kw.addr, align 8
  invoke void @_ZN19OpenColorIO_v2_4dev13GpuShaderText7newLineEv(ptr sret(%"class.OpenColorIO_v2_4dev::GpuShaderText::GpuShaderLine") align 8 %ref.tmp44, ptr noundef nonnull align 8 dereferenceable(764) %16)
          to label %invoke.cont46 unwind label %lpad45

invoke.cont46:                                    ; preds = %for.body
  %call49 = invoke noundef nonnull align 8 dereferenceable(8) ptr @_ZN19OpenColorIO_v2_4dev13GpuShaderText13GpuShaderLinelsERKNSt7__cxx1112basic_stringIcSt11char_traitsIcESaIcEEE(ptr noundef nonnull align 8 dereferenceable(8) %ref.tmp44, ptr noundef nonnull align 8 dereferenceable(32) %separator)
          to label %invoke.cont48 unwind label %lpad47

invoke.cont48:                                    ; preds = %invoke.cont46
  %17 = load ptr, ptr %param, align 8
  %m_isArray = getelementptr inbounds %"struct.OpenColorIO_v2_4dev::MetalShaderClassWrapper::FunctionParam", ptr %17, i32 0, i32 2
  %18 = load i8, ptr %m_isArray, align 8
  %tobool50 = trunc i8 %18 to i1
  %cond = select i1 %tobool50, ptr @.str.37, ptr @.str.1
  %call52 = invoke noundef nonnull align 8 dereferenceable(8) ptr @_ZN19OpenColorIO_v2_4dev13GpuShaderText13GpuShaderLinelsEPKc(ptr noundef nonnull align 8 dereferenceable(8) %call49, ptr noundef %cond)
          to label %invoke.cont51 unwind label %lpad47

invoke.cont51:                                    ; preds = %invoke.cont48
  %19 = load ptr, ptr %param, align 8
  %m_type = getelementptr inbounds %"struct.OpenColorIO_v2_4dev::MetalShaderClassWrapper::FunctionParam", ptr %19, i32 0, i32 0
  %call54 = invoke noundef nonnull align 8 dereferenceable(8) ptr @_ZN19OpenColorIO_v2_4dev13GpuShaderText13GpuShaderLinelsERKNSt7__cxx1112basic_stringIcSt11char_traitsIcESaIcEEE(ptr noundef nonnull align 8 dereferenceable(8) %call52, ptr noundef nonnull align 8 dereferenceable(32) %m_type)
          to label %invoke.cont53 unwind label %lpad47

invoke.cont53:                                    ; preds = %invoke.cont51
  %call56 = invoke noundef nonnull align 8 dereferenceable(8) ptr @_ZN19OpenColorIO_v2_4dev13GpuShaderText13GpuShaderLinelsEPKc(ptr noundef nonnull align 8 dereferenceable(8) %call54, ptr noundef @.str.38)
          to label %invoke.cont55 unwind label %lpad47

invoke.cont55:                                    ; preds = %invoke.cont53
  %20 = load ptr, ptr %param, align 8
  %m_name = getelementptr inbounds %"struct.OpenColorIO_v2_4dev::MetalShaderClassWrapper::FunctionParam", ptr %20, i32 0, i32 1
  %call58 = invoke noundef nonnull align 8 dereferenceable(8) ptr @_ZN19OpenColorIO_v2_4dev13GpuShaderText13GpuShaderLinelsERKNSt7__cxx1112basic_stringIcSt11char_traitsIcESaIcEEE(ptr noundef nonnull align 8 dereferenceable(8) %call56, ptr noundef nonnull align 8 dereferenceable(32) %m_name)
          to label %invoke.cont57 unwind label %lpad47

invoke.cont57:                                    ; preds = %invoke.cont55
  call void @_ZN19OpenColorIO_v2_4dev13GpuShaderText13GpuShaderLineD1Ev(ptr noundef nonnull align 8 dereferenceable(8) %ref.tmp44) #12
  %21 = load ptr, ptr %param, align 8
  %m_isArray60 = getelementptr inbounds %"struct.OpenColorIO_v2_4dev::MetalShaderClassWrapper::FunctionParam", ptr %21, i32 0, i32 2
  %22 = load i8, ptr %m_isArray60, align 8
  %tobool61 = trunc i8 %22 to i1
  br i1 %tobool61, label %if.then62, label %if.end82

if.then62:                                        ; preds = %invoke.cont57
  %23 = load ptr, ptr %kw.addr, align 8
  invoke void @_ZN19OpenColorIO_v2_4dev13GpuShaderText7newLineEv(ptr sret(%"class.OpenColorIO_v2_4dev::GpuShaderText::GpuShaderLine") align 8 %ref.tmp63, ptr noundef nonnull align 8 dereferenceable(764) %23)
          to label %invoke.cont64 unwind label %lpad45

invoke.cont64:                                    ; preds = %if.then62
  %call67 = invoke noundef nonnull align 8 dereferenceable(8) ptr @_ZN19OpenColorIO_v2_4dev13GpuShaderText13GpuShaderLinelsEPKc(ptr noundef nonnull align 8 dereferenceable(8) %ref.tmp63, ptr noundef @.str.39)
          to label %invoke.cont66 unwind label %lpad65

invoke.cont66:                                    ; preds = %invoke.cont64
  %24 = load ptr, ptr %param, align 8
  %m_name70 = getelementptr inbounds %"struct.OpenColorIO_v2_4dev::MetalShaderClassWrapper::FunctionParam", ptr %24, i32 0, i32 1
  %25 = load ptr, ptr %param, align 8
  %m_name71 = getelementptr inbounds %"struct.OpenColorIO_v2_4dev::MetalShaderClassWrapper::FunctionParam", ptr %25, i32 0, i32 1
  %call72 = call noundef i64 @_ZNKSt7__cxx1112basic_stringIcSt11char_traitsIcESaIcEE4findEcm(ptr noundef nonnull align 8 dereferenceable(32) %m_name71, i8 noundef signext 91, i64 noundef 0) #12
  invoke void @_ZNKSt7__cxx1112basic_stringIcSt11char_traitsIcESaIcEE6substrEmm(ptr sret(%"class.std::__cxx11::basic_string") align 8 %ref.tmp69, ptr noundef nonnull align 8 dereferenceable(32) %m_name70, i64 noundef 0, i64 noundef %call72)
          to label %invoke.cont73 unwind label %lpad65

invoke.cont73:                                    ; preds = %invoke.cont66
  invoke void @_ZN19OpenColorIO_v2_4dev26GetArrayLengthVariableNameERKNSt7__cxx1112basic_stringIcSt11char_traitsIcESaIcEEE(ptr sret(%"class.std::__cxx11::basic_string") align 8 %ref.tmp68, ptr noundef nonnull align 8 dereferenceable(32) %ref.tmp69)
          to label %invoke.cont75 unwind label %lpad74

invoke.cont75:                                    ; preds = %invoke.cont73
  %call78 = invoke noundef nonnull align 8 dereferenceable(8) ptr @_ZN19OpenColorIO_v2_4dev13GpuShaderText13GpuShaderLinelsERKNSt7__cxx1112basic_stringIcSt11char_traitsIcESaIcEEE(ptr noundef nonnull align 8 dereferenceable(8) %call67, ptr noundef nonnull align 8 dereferenceable(32) %ref.tmp68)
          to label %invoke.cont77 unwind label %lpad76

invoke.cont77:                                    ; preds = %invoke.cont75
  call void @_ZNSt7__cxx1112basic_stringIcSt11char_traitsIcESaIcEED1Ev(ptr noundef nonnull align 8 dereferenceable(32) %ref.tmp68) #12
  call void @_ZNSt7__cxx1112basic_stringIcSt11char_traitsIcESaIcEED1Ev(ptr noundef nonnull align 8 dereferenceable(32) %ref.tmp69) #12
  call void @_ZN19OpenColorIO_v2_4dev13GpuShaderText13GpuShaderLineD1Ev(ptr noundef nonnull align 8 dereferenceable(8) %ref.tmp63) #12
  br label %if.end82

lpad15:                                           ; preds = %invoke.cont16, %if.end13
  %26 = landingpad { ptr, i32 }
          cleanup
  %27 = extractvalue { ptr, i32 } %26, 0
  store ptr %27, ptr %exn.slot, align 8
  %28 = extractvalue { ptr, i32 } %26, 1
  store i32 %28, ptr %ehselector.slot, align 4
  call void @_ZN19OpenColorIO_v2_4dev13GpuShaderText13GpuShaderLineD1Ev(ptr noundef nonnull align 8 dereferenceable(8) %ref.tmp14) #12
  br label %eh.resume

lpad23:                                           ; preds = %invoke.cont19
  %29 = landingpad { ptr, i32 }
          cleanup
  %30 = extractvalue { ptr, i32 } %29, 0
  store ptr %30, ptr %exn.slot, align 8
  %31 = extractvalue { ptr, i32 } %29, 1
  store i32 %31, ptr %ehselector.slot, align 4
  call void @_ZN19OpenColorIO_v2_4dev13GpuShaderText13GpuShaderLineD1Ev(ptr noundef nonnull align 8 dereferenceable(8) %ref.tmp22) #12
  br label %eh.resume

lpad29:                                           ; preds = %invoke.cont30, %invoke.cont24
  %32 = landingpad { ptr, i32 }
          cleanup
  %33 = extractvalue { ptr, i32 } %32, 0
  store ptr %33, ptr %exn.slot, align 8
  %34 = extractvalue { ptr, i32 } %32, 1
  store i32 %34, ptr %ehselector.slot, align 4
  call void @_ZN19OpenColorIO_v2_4dev13GpuShaderText13GpuShaderLineD1Ev(ptr noundef nonnull align 8 dereferenceable(8) %ref.tmp27) #12
  br label %eh.resume

lpad36:                                           ; preds = %invoke.cont32
  %35 = landingpad { ptr, i32 }
          cleanup
  %36 = extractvalue { ptr, i32 } %35, 0
  store ptr %36, ptr %exn.slot, align 8
  %37 = extractvalue { ptr, i32 } %35, 1
  store i32 %37, ptr %ehselector.slot, align 4
  call void @_ZNSaIcED1Ev(ptr noundef nonnull align 1 dereferenceable(1) %ref.tmp35) #12
  br label %eh.resume

lpad45:                                           ; preds = %invoke.cont238, %invoke.cont234, %for.end233, %if.else, %if.then117, %invoke.cont96, %invoke.cont90, %invoke.cont86, %for.end, %if.end82, %if.then62, %for.body
  %38 = landingpad { ptr, i32 }
          cleanup
  %39 = extractvalue { ptr, i32 } %38, 0
  store ptr %39, ptr %exn.slot, align 8
  %40 = extractvalue { ptr, i32 } %38, 1
  store i32 %40, ptr %ehselector.slot, align 4
  br label %ehcleanup242

lpad47:                                           ; preds = %invoke.cont55, %invoke.cont53, %invoke.cont51, %invoke.cont48, %invoke.cont46
  %41 = landingpad { ptr, i32 }
          cleanup
  %42 = extractvalue { ptr, i32 } %41, 0
  store ptr %42, ptr %exn.slot, align 8
  %43 = extractvalue { ptr, i32 } %41, 1
  store i32 %43, ptr %ehselector.slot, align 4
  call void @_ZN19OpenColorIO_v2_4dev13GpuShaderText13GpuShaderLineD1Ev(ptr noundef nonnull align 8 dereferenceable(8) %ref.tmp44) #12
  br label %ehcleanup242

lpad65:                                           ; preds = %invoke.cont66, %invoke.cont64
  %44 = landingpad { ptr, i32 }
          cleanup
  %45 = extractvalue { ptr, i32 } %44, 0
  store ptr %45, ptr %exn.slot, align 8
  %46 = extractvalue { ptr, i32 } %44, 1
  store i32 %46, ptr %ehselector.slot, align 4
  br label %ehcleanup81

lpad74:                                           ; preds = %invoke.cont73
  %47 = landingpad { ptr, i32 }
          cleanup
  %48 = extractvalue { ptr, i32 } %47, 0
  store ptr %48, ptr %exn.slot, align 8
  %49 = extractvalue { ptr, i32 } %47, 1
  store i32 %49, ptr %ehselector.slot, align 4
  br label %ehcleanup80

lpad76:                                           ; preds = %invoke.cont75
  %50 = landingpad { ptr, i32 }
          cleanup
  %51 = extractvalue { ptr, i32 } %50, 0
  store ptr %51, ptr %exn.slot, align 8
  %52 = extractvalue { ptr, i32 } %50, 1
  store i32 %52, ptr %ehselector.slot, align 4
  call void @_ZNSt7__cxx1112basic_stringIcSt11char_traitsIcESaIcEED1Ev(ptr noundef nonnull align 8 dereferenceable(32) %ref.tmp68) #12
  br label %ehcleanup80

ehcleanup80:                                      ; preds = %lpad76, %lpad74
  call void @_ZNSt7__cxx1112basic_stringIcSt11char_traitsIcESaIcEED1Ev(ptr noundef nonnull align 8 dereferenceable(32) %ref.tmp69) #12
  br label %ehcleanup81

ehcleanup81:                                      ; preds = %ehcleanup80, %lpad65
  call void @_ZN19OpenColorIO_v2_4dev13GpuShaderText13GpuShaderLineD1Ev(ptr noundef nonnull align 8 dereferenceable(8) %ref.tmp63) #12
  br label %ehcleanup242

if.end82:                                         ; preds = %invoke.cont77, %invoke.cont57
  %call84 = invoke noundef nonnull align 8 dereferenceable(32) ptr @_ZNSt7__cxx1112basic_stringIcSt11char_traitsIcESaIcEEaSEPKc(ptr noundef nonnull align 8 dereferenceable(32) %separator, ptr noundef @.str.40)
          to label %invoke.cont83 unwind label %lpad45

invoke.cont83:                                    ; preds = %if.end82
  br label %for.inc

for.inc:                                          ; preds = %invoke.cont83
  %call85 = call noundef nonnull align 8 dereferenceable(8) ptr @_ZN9__gnu_cxx17__normal_iteratorIPKN19OpenColorIO_v2_4dev23MetalShaderClassWrapper13FunctionParamESt6vectorIS3_SaIS3_EEEppEv(ptr noundef nonnull align 8 dereferenceable(8) %__begin1) #12
  br label %for.cond

for.end:                                          ; preds = %for.cond
  %53 = load ptr, ptr %kw.addr, align 8
  invoke void @_ZN19OpenColorIO_v2_4dev13GpuShaderText6dedentEv(ptr noundef nonnull align 8 dereferenceable(764) %53)
          to label %invoke.cont86 unwind label %lpad45

invoke.cont86:                                    ; preds = %for.end
  %54 = load ptr, ptr %kw.addr, align 8
  invoke void @_ZN19OpenColorIO_v2_4dev13GpuShaderText7newLineEv(ptr sret(%"class.OpenColorIO_v2_4dev::GpuShaderText::GpuShaderLine") align 8 %ref.tmp87, ptr noundef nonnull align 8 dereferenceable(764) %54)
          to label %invoke.cont88 unwind label %lpad45

invoke.cont88:                                    ; preds = %invoke.cont86
  %call91 = invoke noundef nonnull align 8 dereferenceable(8) ptr @_ZN19OpenColorIO_v2_4dev13GpuShaderText13GpuShaderLinelsEPKc(ptr noundef nonnull align 8 dereferenceable(8) %ref.tmp87, ptr noundef @.str.41)
          to label %invoke.cont90 unwind label %lpad89

invoke.cont90:                                    ; preds = %invoke.cont88
  call void @_ZN19OpenColorIO_v2_4dev13GpuShaderText13GpuShaderLineD1Ev(ptr noundef nonnull align 8 dereferenceable(8) %ref.tmp87) #12
  %55 = load ptr, ptr %kw.addr, align 8
  invoke void @_ZN19OpenColorIO_v2_4dev13GpuShaderText7newLineEv(ptr sret(%"class.OpenColorIO_v2_4dev::GpuShaderText::GpuShaderLine") align 8 %ref.tmp93, ptr noundef nonnull align 8 dereferenceable(764) %55)
          to label %invoke.cont94 unwind label %lpad45

invoke.cont94:                                    ; preds = %invoke.cont90
  %call97 = invoke noundef nonnull align 8 dereferenceable(8) ptr @_ZN19OpenColorIO_v2_4dev13GpuShaderText13GpuShaderLinelsEPKc(ptr noundef nonnull align 8 dereferenceable(8) %ref.tmp93, ptr noundef @.str.7)
          to label %invoke.cont96 unwind label %lpad95

invoke.cont96:                                    ; preds = %invoke.cont94
  call void @_ZN19OpenColorIO_v2_4dev13GpuShaderText13GpuShaderLineD1Ev(ptr noundef nonnull align 8 dereferenceable(8) %ref.tmp93) #12
  %56 = load ptr, ptr %kw.addr, align 8
  invoke void @_ZN19OpenColorIO_v2_4dev13GpuShaderText6indentEv(ptr noundef nonnull align 8 dereferenceable(764) %56)
          to label %invoke.cont99 unwind label %lpad45

invoke.cont99:                                    ; preds = %invoke.cont96
  %m_functionParameters101 = getelementptr inbounds %"class.OpenColorIO_v2_4dev::MetalShaderClassWrapper", ptr %this1, i32 0, i32 3
  store ptr %m_functionParameters101, ptr %__range1100, align 8
  %57 = load ptr, ptr %__range1100, align 8
  %call103 = call ptr @_ZNKSt6vectorIN19OpenColorIO_v2_4dev23MetalShaderClassWrapper13FunctionParamESaIS2_EE5beginEv(ptr noundef nonnull align 8 dereferenceable(24) %57) #12
  %coerce.dive104 = getelementptr inbounds %"class.__gnu_cxx::__normal_iterator", ptr %__begin1102, i32 0, i32 0
  store ptr %call103, ptr %coerce.dive104, align 8
  %58 = load ptr, ptr %__range1100, align 8
  %call106 = call ptr @_ZNKSt6vectorIN19OpenColorIO_v2_4dev23MetalShaderClassWrapper13FunctionParamESaIS2_EE3endEv(ptr noundef nonnull align 8 dereferenceable(24) %58) #12
  %coerce.dive107 = getelementptr inbounds %"class.__gnu_cxx::__normal_iterator", ptr %__end1105, i32 0, i32 0
  store ptr %call106, ptr %coerce.dive107, align 8
  br label %for.cond108

for.cond108:                                      ; preds = %for.inc231, %invoke.cont99
  %call109 = call noundef zeroext i1 @_ZN9__gnu_cxxneIPKN19OpenColorIO_v2_4dev23MetalShaderClassWrapper13FunctionParamESt6vectorIS3_SaIS3_EEEEbRKNS_17__normal_iteratorIT_T0_EESE_(ptr noundef nonnull align 8 dereferenceable(8) %__begin1102, ptr noundef nonnull align 8 dereferenceable(8) %__end1105) #12
  br i1 %call109, label %for.body110, label %for.end233

for.body110:                                      ; preds = %for.cond108
  %call112 = call noundef nonnull align 8 dereferenceable(65) ptr @_ZNK9__gnu_cxx17__normal_iteratorIPKN19OpenColorIO_v2_4dev23MetalShaderClassWrapper13FunctionParamESt6vectorIS3_SaIS3_EEEdeEv(ptr noundef nonnull align 8 dereferenceable(8) %__begin1102) #12
  store ptr %call112, ptr %param111, align 8
  %59 = load ptr, ptr %param111, align 8
  %m_name113 = getelementptr inbounds %"struct.OpenColorIO_v2_4dev::MetalShaderClassWrapper::FunctionParam", ptr %59, i32 0, i32 1
  %call114 = call noundef i64 @_ZNKSt7__cxx1112basic_stringIcSt11char_traitsIcESaIcEE4findEcm(ptr noundef nonnull align 8 dereferenceable(32) %m_name113, i8 noundef signext 91, i64 noundef 0) #12
  store i64 %call114, ptr %openAngledBracketPos, align 8
  %60 = load ptr, ptr %param111, align 8
  %m_isArray115 = getelementptr inbounds %"struct.OpenColorIO_v2_4dev::MetalShaderClassWrapper::FunctionParam", ptr %60, i32 0, i32 2
  %61 = load i8, ptr %m_isArray115, align 8
  %tobool116 = trunc i8 %61 to i1
  br i1 %tobool116, label %if.else, label %if.then117

if.then117:                                       ; preds = %for.body110
  %62 = load ptr, ptr %kw.addr, align 8
  invoke void @_ZN19OpenColorIO_v2_4dev13GpuShaderText7newLineEv(ptr sret(%"class.OpenColorIO_v2_4dev::GpuShaderText::GpuShaderLine") align 8 %ref.tmp118, ptr noundef nonnull align 8 dereferenceable(764) %62)
          to label %invoke.cont119 unwind label %lpad45

invoke.cont119:                                   ; preds = %if.then117
  %call122 = invoke noundef nonnull align 8 dereferenceable(8) ptr @_ZN19OpenColorIO_v2_4dev13GpuShaderText13GpuShaderLinelsEPKc(ptr noundef nonnull align 8 dereferenceable(8) %ref.tmp118, ptr noundef @.str.42)
          to label %invoke.cont121 unwind label %lpad120

invoke.cont121:                                   ; preds = %invoke.cont119
  %63 = load ptr, ptr %param111, align 8
  %m_name123 = getelementptr inbounds %"struct.OpenColorIO_v2_4dev::MetalShaderClassWrapper::FunctionParam", ptr %63, i32 0, i32 1
  %call125 = invoke noundef nonnull align 8 dereferenceable(8) ptr @_ZN19OpenColorIO_v2_4dev13GpuShaderText13GpuShaderLinelsERKNSt7__cxx1112basic_stringIcSt11char_traitsIcESaIcEEE(ptr noundef nonnull align 8 dereferenceable(8) %call122, ptr noundef nonnull align 8 dereferenceable(32) %m_name123)
          to label %invoke.cont124 unwind label %lpad120

invoke.cont124:                                   ; preds = %invoke.cont121
  %call127 = invoke noundef nonnull align 8 dereferenceable(8) ptr @_ZN19OpenColorIO_v2_4dev13GpuShaderText13GpuShaderLinelsEPKc(ptr noundef nonnull align 8 dereferenceable(8) %call125, ptr noundef @.str.43)
          to label %invoke.cont126 unwind label %lpad120

invoke.cont126:                                   ; preds = %invoke.cont124
  %64 = load ptr, ptr %param111, align 8
  %m_name128 = getelementptr inbounds %"struct.OpenColorIO_v2_4dev::MetalShaderClassWrapper::FunctionParam", ptr %64, i32 0, i32 1
  %call130 = invoke noundef nonnull align 8 dereferenceable(8) ptr @_ZN19OpenColorIO_v2_4dev13GpuShaderText13GpuShaderLinelsERKNSt7__cxx1112basic_stringIcSt11char_traitsIcESaIcEEE(ptr noundef nonnull align 8 dereferenceable(8) %call127, ptr noundef nonnull align 8 dereferenceable(32) %m_name128)
          to label %invoke.cont129 unwind label %lpad120

invoke.cont129:                                   ; preds = %invoke.cont126
  %call132 = invoke noundef nonnull align 8 dereferenceable(8) ptr @_ZN19OpenColorIO_v2_4dev13GpuShaderText13GpuShaderLinelsEPKc(ptr noundef nonnull align 8 dereferenceable(8) %call130, ptr noundef @.str.44)
          to label %invoke.cont131 unwind label %lpad120

invoke.cont131:                                   ; preds = %invoke.cont129
  call void @_ZN19OpenColorIO_v2_4dev13GpuShaderText13GpuShaderLineD1Ev(ptr noundef nonnull align 8 dereferenceable(8) %ref.tmp118) #12
  br label %if.end230

lpad89:                                           ; preds = %invoke.cont88
  %65 = landingpad { ptr, i32 }
          cleanup
  %66 = extractvalue { ptr, i32 } %65, 0
  store ptr %66, ptr %exn.slot, align 8
  %67 = extractvalue { ptr, i32 } %65, 1
  store i32 %67, ptr %ehselector.slot, align 4
  call void @_ZN19OpenColorIO_v2_4dev13GpuShaderText13GpuShaderLineD1Ev(ptr noundef nonnull align 8 dereferenceable(8) %ref.tmp87) #12
  br label %ehcleanup242

lpad95:                                           ; preds = %invoke.cont94
  %68 = landingpad { ptr, i32 }
          cleanup
  %69 = extractvalue { ptr, i32 } %68, 0
  store ptr %69, ptr %exn.slot, align 8
  %70 = extractvalue { ptr, i32 } %68, 1
  store i32 %70, ptr %ehselector.slot, align 4
  call void @_ZN19OpenColorIO_v2_4dev13GpuShaderText13GpuShaderLineD1Ev(ptr noundef nonnull align 8 dereferenceable(8) %ref.tmp93) #12
  br label %ehcleanup242

lpad120:                                          ; preds = %invoke.cont129, %invoke.cont126, %invoke.cont124, %invoke.cont121, %invoke.cont119
  %71 = landingpad { ptr, i32 }
          cleanup
  %72 = extractvalue { ptr, i32 } %71, 0
  store ptr %72, ptr %exn.slot, align 8
  %73 = extractvalue { ptr, i32 } %71, 1
  store i32 %73, ptr %ehselector.slot, align 4
  call void @_ZN19OpenColorIO_v2_4dev13GpuShaderText13GpuShaderLineD1Ev(ptr noundef nonnull align 8 dereferenceable(8) %ref.tmp118) #12
  br label %ehcleanup242

if.else:                                          ; preds = %for.body110
  %74 = load ptr, ptr %param111, align 8
  %m_name134 = getelementptr inbounds %"struct.OpenColorIO_v2_4dev::MetalShaderClassWrapper::FunctionParam", ptr %74, i32 0, i32 1
  %call135 = call noundef i64 @_ZNKSt7__cxx1112basic_stringIcSt11char_traitsIcESaIcEE4findEcm(ptr noundef nonnull align 8 dereferenceable(32) %m_name134, i8 noundef signext 93, i64 noundef 0) #12
  store i64 %call135, ptr %closeAngledBracketPos, align 8
  %75 = load ptr, ptr %param111, align 8
  %m_name136 = getelementptr inbounds %"struct.OpenColorIO_v2_4dev::MetalShaderClassWrapper::FunctionParam", ptr %75, i32 0, i32 1
  %76 = load i64, ptr %openAngledBracketPos, align 8
  invoke void @_ZNKSt7__cxx1112basic_stringIcSt11char_traitsIcESaIcEE6substrEmm(ptr sret(%"class.std::__cxx11::basic_string") align 8 %variableName, ptr noundef nonnull align 8 dereferenceable(32) %m_name136, i64 noundef 0, i64 noundef %76)
          to label %invoke.cont137 unwind label %lpad45

invoke.cont137:                                   ; preds = %if.else
  %77 = load ptr, ptr %kw.addr, align 8
  invoke void @_ZN19OpenColorIO_v2_4dev13GpuShaderText7newLineEv(ptr sret(%"class.OpenColorIO_v2_4dev::GpuShaderText::GpuShaderLine") align 8 %ref.tmp138, ptr noundef nonnull align 8 dereferenceable(764) %77)
          to label %invoke.cont140 unwind label %lpad139

invoke.cont140:                                   ; preds = %invoke.cont137
  %call143 = invoke noundef nonnull align 8 dereferenceable(8) ptr @_ZN19OpenColorIO_v2_4dev13GpuShaderText13GpuShaderLinelsEPKc(ptr noundef nonnull align 8 dereferenceable(8) %ref.tmp138, ptr noundef @.str.45)
          to label %invoke.cont142 unwind label %lpad141

invoke.cont142:                                   ; preds = %invoke.cont140
  invoke void @_ZN19OpenColorIO_v2_4dev26GetArrayLengthVariableNameERKNSt7__cxx1112basic_stringIcSt11char_traitsIcESaIcEEE(ptr sret(%"class.std::__cxx11::basic_string") align 8 %ref.tmp144, ptr noundef nonnull align 8 dereferenceable(32) %variableName)
          to label %invoke.cont145 unwind label %lpad141

invoke.cont145:                                   ; preds = %invoke.cont142
  %call148 = invoke noundef nonnull align 8 dereferenceable(8) ptr @_ZN19OpenColorIO_v2_4dev13GpuShaderText13GpuShaderLinelsERKNSt7__cxx1112basic_stringIcSt11char_traitsIcESaIcEEE(ptr noundef nonnull align 8 dereferenceable(8) %call143, ptr noundef nonnull align 8 dereferenceable(32) %ref.tmp144)
          to label %invoke.cont147 unwind label %lpad146

invoke.cont147:                                   ; preds = %invoke.cont145
  %call150 = invoke noundef nonnull align 8 dereferenceable(8) ptr @_ZN19OpenColorIO_v2_4dev13GpuShaderText13GpuShaderLinelsEPKc(ptr noundef nonnull align 8 dereferenceable(8) %call148, ptr noundef @.str.46)
          to label %invoke.cont149 unwind label %lpad146

invoke.cont149:                                   ; preds = %invoke.cont147
  call void @_ZNSt7__cxx1112basic_stringIcSt11char_traitsIcESaIcEED1Ev(ptr noundef nonnull align 8 dereferenceable(32) %ref.tmp144) #12
  call void @_ZN19OpenColorIO_v2_4dev13GpuShaderText13GpuShaderLineD1Ev(ptr noundef nonnull align 8 dereferenceable(8) %ref.tmp138) #12
  %78 = load ptr, ptr %kw.addr, align 8
  invoke void @_ZN19OpenColorIO_v2_4dev13GpuShaderText7newLineEv(ptr sret(%"class.OpenColorIO_v2_4dev::GpuShaderText::GpuShaderLine") align 8 %ref.tmp153, ptr noundef nonnull align 8 dereferenceable(764) %78)
          to label %invoke.cont154 unwind label %lpad139

invoke.cont154:                                   ; preds = %invoke.cont149
  %call157 = invoke noundef nonnull align 8 dereferenceable(8) ptr @_ZN19OpenColorIO_v2_4dev13GpuShaderText13GpuShaderLinelsEPKc(ptr noundef nonnull align 8 dereferenceable(8) %ref.tmp153, ptr noundef @.str.7)
          to label %invoke.cont156 unwind label %lpad155

invoke.cont156:                                   ; preds = %invoke.cont154
  call void @_ZN19OpenColorIO_v2_4dev13GpuShaderText13GpuShaderLineD1Ev(ptr noundef nonnull align 8 dereferenceable(8) %ref.tmp153) #12
  %79 = load ptr, ptr %kw.addr, align 8
  invoke void @_ZN19OpenColorIO_v2_4dev13GpuShaderText6indentEv(ptr noundef nonnull align 8 dereferenceable(764) %79)
          to label %invoke.cont159 unwind label %lpad139

invoke.cont159:                                   ; preds = %invoke.cont156
  %80 = load ptr, ptr %kw.addr, align 8
  invoke void @_ZN19OpenColorIO_v2_4dev13GpuShaderText7newLineEv(ptr sret(%"class.OpenColorIO_v2_4dev::GpuShaderText::GpuShaderLine") align 8 %ref.tmp160, ptr noundef nonnull align 8 dereferenceable(764) %80)
          to label %invoke.cont161 unwind label %lpad139

invoke.cont161:                                   ; preds = %invoke.cont159
  %call164 = invoke noundef nonnull align 8 dereferenceable(8) ptr @_ZN19OpenColorIO_v2_4dev13GpuShaderText13GpuShaderLinelsEPKc(ptr noundef nonnull align 8 dereferenceable(8) %ref.tmp160, ptr noundef @.str.42)
          to label %invoke.cont163 unwind label %lpad162

invoke.cont163:                                   ; preds = %invoke.cont161
  %call166 = invoke noundef nonnull align 8 dereferenceable(8) ptr @_ZN19OpenColorIO_v2_4dev13GpuShaderText13GpuShaderLinelsERKNSt7__cxx1112basic_stringIcSt11char_traitsIcESaIcEEE(ptr noundef nonnull align 8 dereferenceable(8) %call164, ptr noundef nonnull align 8 dereferenceable(32) %variableName)
          to label %invoke.cont165 unwind label %lpad162

invoke.cont165:                                   ; preds = %invoke.cont163
  %call168 = invoke noundef nonnull align 8 dereferenceable(8) ptr @_ZN19OpenColorIO_v2_4dev13GpuShaderText13GpuShaderLinelsEPKc(ptr noundef nonnull align 8 dereferenceable(8) %call166, ptr noundef @.str.47)
          to label %invoke.cont167 unwind label %lpad162

invoke.cont167:                                   ; preds = %invoke.cont165
  %call170 = invoke noundef nonnull align 8 dereferenceable(8) ptr @_ZN19OpenColorIO_v2_4dev13GpuShaderText13GpuShaderLinelsERKNSt7__cxx1112basic_stringIcSt11char_traitsIcESaIcEEE(ptr noundef nonnull align 8 dereferenceable(8) %call168, ptr noundef nonnull align 8 dereferenceable(32) %variableName)
          to label %invoke.cont169 unwind label %lpad162

invoke.cont169:                                   ; preds = %invoke.cont167
  %call172 = invoke noundef nonnull align 8 dereferenceable(8) ptr @_ZN19OpenColorIO_v2_4dev13GpuShaderText13GpuShaderLinelsEPKc(ptr noundef nonnull align 8 dereferenceable(8) %call170, ptr noundef @.str.48)
          to label %invoke.cont171 unwind label %lpad162

invoke.cont171:                                   ; preds = %invoke.cont169
  call void @_ZN19OpenColorIO_v2_4dev13GpuShaderText13GpuShaderLineD1Ev(ptr noundef nonnull align 8 dereferenceable(8) %ref.tmp160) #12
  %81 = load ptr, ptr %kw.addr, align 8
  invoke void @_ZN19OpenColorIO_v2_4dev13GpuShaderText6dedentEv(ptr noundef nonnull align 8 dereferenceable(764) %81)
          to label %invoke.cont174 unwind label %lpad139

invoke.cont174:                                   ; preds = %invoke.cont171
  %82 = load ptr, ptr %kw.addr, align 8
  invoke void @_ZN19OpenColorIO_v2_4dev13GpuShaderText7newLineEv(ptr sret(%"class.OpenColorIO_v2_4dev::GpuShaderText::GpuShaderLine") align 8 %ref.tmp175, ptr noundef nonnull align 8 dereferenceable(764) %82)
          to label %invoke.cont176 unwind label %lpad139

invoke.cont176:                                   ; preds = %invoke.cont174
  %call179 = invoke noundef nonnull align 8 dereferenceable(8) ptr @_ZN19OpenColorIO_v2_4dev13GpuShaderText13GpuShaderLinelsEPKc(ptr noundef nonnull align 8 dereferenceable(8) %ref.tmp175, ptr noundef @.str.12)
          to label %invoke.cont178 unwind label %lpad177

invoke.cont178:                                   ; preds = %invoke.cont176
  call void @_ZN19OpenColorIO_v2_4dev13GpuShaderText13GpuShaderLineD1Ev(ptr noundef nonnull align 8 dereferenceable(8) %ref.tmp175) #12
  %83 = load ptr, ptr %kw.addr, align 8
  invoke void @_ZN19OpenColorIO_v2_4dev13GpuShaderText7newLineEv(ptr sret(%"class.OpenColorIO_v2_4dev::GpuShaderText::GpuShaderLine") align 8 %ref.tmp181, ptr noundef nonnull align 8 dereferenceable(764) %83)
          to label %invoke.cont182 unwind label %lpad139

invoke.cont182:                                   ; preds = %invoke.cont178
  %call185 = invoke noundef nonnull align 8 dereferenceable(8) ptr @_ZN19OpenColorIO_v2_4dev13GpuShaderText13GpuShaderLinelsEPKc(ptr noundef nonnull align 8 dereferenceable(8) %ref.tmp181, ptr noundef @.str.49)
          to label %invoke.cont184 unwind label %lpad183

invoke.cont184:                                   ; preds = %invoke.cont182
  invoke void @_ZN19OpenColorIO_v2_4dev26GetArrayLengthVariableNameERKNSt7__cxx1112basic_stringIcSt11char_traitsIcESaIcEEE(ptr sret(%"class.std::__cxx11::basic_string") align 8 %ref.tmp186, ptr noundef nonnull align 8 dereferenceable(32) %variableName)
          to label %invoke.cont187 unwind label %lpad183

invoke.cont187:                                   ; preds = %invoke.cont184
  %call190 = invoke noundef nonnull align 8 dereferenceable(8) ptr @_ZN19OpenColorIO_v2_4dev13GpuShaderText13GpuShaderLinelsERKNSt7__cxx1112basic_stringIcSt11char_traitsIcESaIcEEE(ptr noundef nonnull align 8 dereferenceable(8) %call185, ptr noundef nonnull align 8 dereferenceable(32) %ref.tmp186)
          to label %invoke.cont189 unwind label %lpad188

invoke.cont189:                                   ; preds = %invoke.cont187
  %call192 = invoke noundef nonnull align 8 dereferenceable(8) ptr @_ZN19OpenColorIO_v2_4dev13GpuShaderText13GpuShaderLinelsEPKc(ptr noundef nonnull align 8 dereferenceable(8) %call190, ptr noundef @.str.50)
          to label %invoke.cont191 unwind label %lpad188

invoke.cont191:                                   ; preds = %invoke.cont189
  %84 = load ptr, ptr %param111, align 8
  %m_name194 = getelementptr inbounds %"struct.OpenColorIO_v2_4dev::MetalShaderClassWrapper::FunctionParam", ptr %84, i32 0, i32 1
  %85 = load i64, ptr %openAngledBracketPos, align 8
  %add = add i64 %85, 1
  %86 = load i64, ptr %closeAngledBracketPos, align 8
  %87 = load i64, ptr %openAngledBracketPos, align 8
  %sub = sub i64 %86, %87
  %sub195 = sub i64 %sub, 1
  invoke void @_ZNKSt7__cxx1112basic_stringIcSt11char_traitsIcESaIcEE6substrEmm(ptr sret(%"class.std::__cxx11::basic_string") align 8 %ref.tmp193, ptr noundef nonnull align 8 dereferenceable(32) %m_name194, i64 noundef %add, i64 noundef %sub195)
          to label %invoke.cont196 unwind label %lpad188

invoke.cont196:                                   ; preds = %invoke.cont191
  %call199 = invoke noundef nonnull align 8 dereferenceable(8) ptr @_ZN19OpenColorIO_v2_4dev13GpuShaderText13GpuShaderLinelsERKNSt7__cxx1112basic_stringIcSt11char_traitsIcESaIcEEE(ptr noundef nonnull align 8 dereferenceable(8) %call192, ptr noundef nonnull align 8 dereferenceable(32) %ref.tmp193)
          to label %invoke.cont198 unwind label %lpad197

invoke.cont198:                                   ; preds = %invoke.cont196
  %call201 = invoke noundef nonnull align 8 dereferenceable(8) ptr @_ZN19OpenColorIO_v2_4dev13GpuShaderText13GpuShaderLinelsEPKc(ptr noundef nonnull align 8 dereferenceable(8) %call199, ptr noundef @.str.46)
          to label %invoke.cont200 unwind label %lpad197

invoke.cont200:                                   ; preds = %invoke.cont198
  call void @_ZNSt7__cxx1112basic_stringIcSt11char_traitsIcESaIcEED1Ev(ptr noundef nonnull align 8 dereferenceable(32) %ref.tmp193) #12
  call void @_ZNSt7__cxx1112basic_stringIcSt11char_traitsIcESaIcEED1Ev(ptr noundef nonnull align 8 dereferenceable(32) %ref.tmp186) #12
  call void @_ZN19OpenColorIO_v2_4dev13GpuShaderText13GpuShaderLineD1Ev(ptr noundef nonnull align 8 dereferenceable(8) %ref.tmp181) #12
  %88 = load ptr, ptr %kw.addr, align 8
  invoke void @_ZN19OpenColorIO_v2_4dev13GpuShaderText7newLineEv(ptr sret(%"class.OpenColorIO_v2_4dev::GpuShaderText::GpuShaderLine") align 8 %ref.tmp205, ptr noundef nonnull align 8 dereferenceable(764) %88)
          to label %invoke.cont206 unwind label %lpad139

invoke.cont206:                                   ; preds = %invoke.cont200
  %call209 = invoke noundef nonnull align 8 dereferenceable(8) ptr @_ZN19OpenColorIO_v2_4dev13GpuShaderText13GpuShaderLinelsEPKc(ptr noundef nonnull align 8 dereferenceable(8) %ref.tmp205, ptr noundef @.str.7)
          to label %invoke.cont208 unwind label %lpad207

invoke.cont208:                                   ; preds = %invoke.cont206
  call void @_ZN19OpenColorIO_v2_4dev13GpuShaderText13GpuShaderLineD1Ev(ptr noundef nonnull align 8 dereferenceable(8) %ref.tmp205) #12
  %89 = load ptr, ptr %kw.addr, align 8
  invoke void @_ZN19OpenColorIO_v2_4dev13GpuShaderText6indentEv(ptr noundef nonnull align 8 dereferenceable(764) %89)
          to label %invoke.cont211 unwind label %lpad139

invoke.cont211:                                   ; preds = %invoke.cont208
  %90 = load ptr, ptr %kw.addr, align 8
  invoke void @_ZN19OpenColorIO_v2_4dev13GpuShaderText7newLineEv(ptr sret(%"class.OpenColorIO_v2_4dev::GpuShaderText::GpuShaderLine") align 8 %ref.tmp212, ptr noundef nonnull align 8 dereferenceable(764) %90)
          to label %invoke.cont213 unwind label %lpad139

invoke.cont213:                                   ; preds = %invoke.cont211
  %call216 = invoke noundef nonnull align 8 dereferenceable(8) ptr @_ZN19OpenColorIO_v2_4dev13GpuShaderText13GpuShaderLinelsEPKc(ptr noundef nonnull align 8 dereferenceable(8) %ref.tmp212, ptr noundef @.str.42)
          to label %invoke.cont215 unwind label %lpad214

invoke.cont215:                                   ; preds = %invoke.cont213
  %call218 = invoke noundef nonnull align 8 dereferenceable(8) ptr @_ZN19OpenColorIO_v2_4dev13GpuShaderText13GpuShaderLinelsERKNSt7__cxx1112basic_stringIcSt11char_traitsIcESaIcEEE(ptr noundef nonnull align 8 dereferenceable(8) %call216, ptr noundef nonnull align 8 dereferenceable(32) %variableName)
          to label %invoke.cont217 unwind label %lpad214

invoke.cont217:                                   ; preds = %invoke.cont215
  %call220 = invoke noundef nonnull align 8 dereferenceable(8) ptr @_ZN19OpenColorIO_v2_4dev13GpuShaderText13GpuShaderLinelsEPKc(ptr noundef nonnull align 8 dereferenceable(8) %call218, ptr noundef @.str.51)
          to label %invoke.cont219 unwind label %lpad214

invoke.cont219:                                   ; preds = %invoke.cont217
  call void @_ZN19OpenColorIO_v2_4dev13GpuShaderText13GpuShaderLineD1Ev(ptr noundef nonnull align 8 dereferenceable(8) %ref.tmp212) #12
  %91 = load ptr, ptr %kw.addr, align 8
  invoke void @_ZN19OpenColorIO_v2_4dev13GpuShaderText6dedentEv(ptr noundef nonnull align 8 dereferenceable(764) %91)
          to label %invoke.cont222 unwind label %lpad139

invoke.cont222:                                   ; preds = %invoke.cont219
  %92 = load ptr, ptr %kw.addr, align 8
  invoke void @_ZN19OpenColorIO_v2_4dev13GpuShaderText7newLineEv(ptr sret(%"class.OpenColorIO_v2_4dev::GpuShaderText::GpuShaderLine") align 8 %ref.tmp223, ptr noundef nonnull align 8 dereferenceable(764) %92)
          to label %invoke.cont224 unwind label %lpad139

invoke.cont224:                                   ; preds = %invoke.cont222
  %call227 = invoke noundef nonnull align 8 dereferenceable(8) ptr @_ZN19OpenColorIO_v2_4dev13GpuShaderText13GpuShaderLinelsEPKc(ptr noundef nonnull align 8 dereferenceable(8) %ref.tmp223, ptr noundef @.str.12)
          to label %invoke.cont226 unwind label %lpad225

invoke.cont226:                                   ; preds = %invoke.cont224
  call void @_ZN19OpenColorIO_v2_4dev13GpuShaderText13GpuShaderLineD1Ev(ptr noundef nonnull align 8 dereferenceable(8) %ref.tmp223) #12
  call void @_ZNSt7__cxx1112basic_stringIcSt11char_traitsIcESaIcEED1Ev(ptr noundef nonnull align 8 dereferenceable(32) %variableName) #12
  br label %if.end230

lpad139:                                          ; preds = %invoke.cont222, %invoke.cont219, %invoke.cont211, %invoke.cont208, %invoke.cont200, %invoke.cont178, %invoke.cont174, %invoke.cont171, %invoke.cont159, %invoke.cont156, %invoke.cont149, %invoke.cont137
  %93 = landingpad { ptr, i32 }
          cleanup
  %94 = extractvalue { ptr, i32 } %93, 0
  store ptr %94, ptr %exn.slot, align 8
  %95 = extractvalue { ptr, i32 } %93, 1
  store i32 %95, ptr %ehselector.slot, align 4
  br label %ehcleanup229

lpad141:                                          ; preds = %invoke.cont142, %invoke.cont140
  %96 = landingpad { ptr, i32 }
          cleanup
  %97 = extractvalue { ptr, i32 } %96, 0
  store ptr %97, ptr %exn.slot, align 8
  %98 = extractvalue { ptr, i32 } %96, 1
  store i32 %98, ptr %ehselector.slot, align 4
  br label %ehcleanup152

lpad146:                                          ; preds = %invoke.cont147, %invoke.cont145
  %99 = landingpad { ptr, i32 }
          cleanup
  %100 = extractvalue { ptr, i32 } %99, 0
  store ptr %100, ptr %exn.slot, align 8
  %101 = extractvalue { ptr, i32 } %99, 1
  store i32 %101, ptr %ehselector.slot, align 4
  call void @_ZNSt7__cxx1112basic_stringIcSt11char_traitsIcESaIcEED1Ev(ptr noundef nonnull align 8 dereferenceable(32) %ref.tmp144) #12
  br label %ehcleanup152

ehcleanup152:                                     ; preds = %lpad146, %lpad141
  call void @_ZN19OpenColorIO_v2_4dev13GpuShaderText13GpuShaderLineD1Ev(ptr noundef nonnull align 8 dereferenceable(8) %ref.tmp138) #12
  br label %ehcleanup229

lpad155:                                          ; preds = %invoke.cont154
  %102 = landingpad { ptr, i32 }
          cleanup
  %103 = extractvalue { ptr, i32 } %102, 0
  store ptr %103, ptr %exn.slot, align 8
  %104 = extractvalue { ptr, i32 } %102, 1
  store i32 %104, ptr %ehselector.slot, align 4
  call void @_ZN19OpenColorIO_v2_4dev13GpuShaderText13GpuShaderLineD1Ev(ptr noundef nonnull align 8 dereferenceable(8) %ref.tmp153) #12
  br label %ehcleanup229

lpad162:                                          ; preds = %invoke.cont169, %invoke.cont167, %invoke.cont165, %invoke.cont163, %invoke.cont161
  %105 = landingpad { ptr, i32 }
          cleanup
  %106 = extractvalue { ptr, i32 } %105, 0
  store ptr %106, ptr %exn.slot, align 8
  %107 = extractvalue { ptr, i32 } %105, 1
  store i32 %107, ptr %ehselector.slot, align 4
  call void @_ZN19OpenColorIO_v2_4dev13GpuShaderText13GpuShaderLineD1Ev(ptr noundef nonnull align 8 dereferenceable(8) %ref.tmp160) #12
  br label %ehcleanup229

lpad177:                                          ; preds = %invoke.cont176
  %108 = landingpad { ptr, i32 }
          cleanup
  %109 = extractvalue { ptr, i32 } %108, 0
  store ptr %109, ptr %exn.slot, align 8
  %110 = extractvalue { ptr, i32 } %108, 1
  store i32 %110, ptr %ehselector.slot, align 4
  call void @_ZN19OpenColorIO_v2_4dev13GpuShaderText13GpuShaderLineD1Ev(ptr noundef nonnull align 8 dereferenceable(8) %ref.tmp175) #12
  br label %ehcleanup229

lpad183:                                          ; preds = %invoke.cont184, %invoke.cont182
  %111 = landingpad { ptr, i32 }
          cleanup
  %112 = extractvalue { ptr, i32 } %111, 0
  store ptr %112, ptr %exn.slot, align 8
  %113 = extractvalue { ptr, i32 } %111, 1
  store i32 %113, ptr %ehselector.slot, align 4
  br label %ehcleanup204

lpad188:                                          ; preds = %invoke.cont191, %invoke.cont189, %invoke.cont187
  %114 = landingpad { ptr, i32 }
          cleanup
  %115 = extractvalue { ptr, i32 } %114, 0
  store ptr %115, ptr %exn.slot, align 8
  %116 = extractvalue { ptr, i32 } %114, 1
  store i32 %116, ptr %ehselector.slot, align 4
  br label %ehcleanup203

lpad197:                                          ; preds = %invoke.cont198, %invoke.cont196
  %117 = landingpad { ptr, i32 }
          cleanup
  %118 = extractvalue { ptr, i32 } %117, 0
  store ptr %118, ptr %exn.slot, align 8
  %119 = extractvalue { ptr, i32 } %117, 1
  store i32 %119, ptr %ehselector.slot, align 4
  call void @_ZNSt7__cxx1112basic_stringIcSt11char_traitsIcESaIcEED1Ev(ptr noundef nonnull align 8 dereferenceable(32) %ref.tmp193) #12
  br label %ehcleanup203

ehcleanup203:                                     ; preds = %lpad197, %lpad188
  call void @_ZNSt7__cxx1112basic_stringIcSt11char_traitsIcESaIcEED1Ev(ptr noundef nonnull align 8 dereferenceable(32) %ref.tmp186) #12
  br label %ehcleanup204

ehcleanup204:                                     ; preds = %ehcleanup203, %lpad183
  call void @_ZN19OpenColorIO_v2_4dev13GpuShaderText13GpuShaderLineD1Ev(ptr noundef nonnull align 8 dereferenceable(8) %ref.tmp181) #12
  br label %ehcleanup229

lpad207:                                          ; preds = %invoke.cont206
  %120 = landingpad { ptr, i32 }
          cleanup
  %121 = extractvalue { ptr, i32 } %120, 0
  store ptr %121, ptr %exn.slot, align 8
  %122 = extractvalue { ptr, i32 } %120, 1
  store i32 %122, ptr %ehselector.slot, align 4
  call void @_ZN19OpenColorIO_v2_4dev13GpuShaderText13GpuShaderLineD1Ev(ptr noundef nonnull align 8 dereferenceable(8) %ref.tmp205) #12
  br label %ehcleanup229

lpad214:                                          ; preds = %invoke.cont217, %invoke.cont215, %invoke.cont213
  %123 = landingpad { ptr, i32 }
          cleanup
  %124 = extractvalue { ptr, i32 } %123, 0
  store ptr %124, ptr %exn.slot, align 8
  %125 = extractvalue { ptr, i32 } %123, 1
  store i32 %125, ptr %ehselector.slot, align 4
