target datalayout = "e-m:e-p270:32:32-p271:32:32-p272:64:64-i64:64-i128:128-f80:128-n8:16:32:64-S128"
target triple = "x86_64-unknown-linux-gnu"

%"class.std::ios_base::Init" = type { i8 }
%"class.std::shared_ptr" = type { %"class.std::__shared_ptr" }
%"class.std::__shared_ptr" = type { ptr, %"class.std::__shared_count" }
%"class.std::__shared_count" = type { ptr }
%"class.std::shared_ptr.14" = type { %"class.std::__shared_ptr.15" }
%"class.std::__shared_ptr.15" = type { ptr, %"class.std::__shared_count" }
%"class.std::shared_ptr.17" = type { %"class.std::__shared_ptr.18" }
%"class.std::__shared_ptr.18" = type { ptr, %"class.std::__shared_count" }
%"class.std::shared_ptr.20" = type { %"class.std::__shared_ptr.21" }
%"class.std::__shared_ptr.21" = type { ptr, %"class.std::__shared_count" }
%"class.std::shared_ptr.23" = type { %"class.std::__shared_ptr.24" }
%"class.std::__shared_ptr.24" = type { ptr, %"class.std::__shared_count" }
%"class.OpenColorIO_v2_4dev::GradingToneOpData" = type <{ %"class.OpenColorIO_v2_4dev::OpData", i32, [4 x i8], %"class.std::shared_ptr.8", i32, [4 x i8] }>
%"class.OpenColorIO_v2_4dev::OpData" = type { ptr, %"class.std::mutex", %"class.OpenColorIO_v2_4dev::FormatMetadataImpl" }
%"class.std::mutex" = type { %"class.std::__mutex_base" }
%"class.std::__mutex_base" = type { %union.pthread_mutex_t }
%union.pthread_mutex_t = type { %struct.__pthread_mutex_s }
%struct.__pthread_mutex_s = type { i32, i32, i32, i32, i32, i16, i16, %struct.__pthread_internal_list }
%struct.__pthread_internal_list = type { ptr, ptr }
%"class.OpenColorIO_v2_4dev::FormatMetadataImpl" = type { %"class.OpenColorIO_v2_4dev::FormatMetadata", %"class.std::__cxx11::basic_string", %"class.std::__cxx11::basic_string", %"class.std::vector", %"class.std::vector.3" }
%"class.OpenColorIO_v2_4dev::FormatMetadata" = type { ptr }
%"class.std::__cxx11::basic_string" = type { %"struct.std::__cxx11::basic_string<char>::_Alloc_hider", i64, %union.anon }
%"struct.std::__cxx11::basic_string<char>::_Alloc_hider" = type { ptr }
%union.anon = type { i64, [8 x i8] }
%"class.std::vector" = type { %"struct.std::_Vector_base" }
%"struct.std::_Vector_base" = type { %"struct.std::_Vector_base<std::pair<std::__cxx11::basic_string<char>, std::__cxx11::basic_string<char>>, std::allocator<std::pair<std::__cxx11::basic_string<char>, std::__cxx11::basic_string<char>>>>::_Vector_impl" }
%"struct.std::_Vector_base<std::pair<std::__cxx11::basic_string<char>, std::__cxx11::basic_string<char>>, std::allocator<std::pair<std::__cxx11::basic_string<char>, std::__cxx11::basic_string<char>>>>::_Vector_impl" = type { %"struct.std::_Vector_base<std::pair<std::__cxx11::basic_string<char>, std::__cxx11::basic_string<char>>, std::allocator<std::pair<std::__cxx11::basic_string<char>, std::__cxx11::basic_string<char>>>>::_Vector_impl_data" }
%"struct.std::_Vector_base<std::pair<std::__cxx11::basic_string<char>, std::__cxx11::basic_string<char>>, std::allocator<std::pair<std::__cxx11::basic_string<char>, std::__cxx11::basic_string<char>>>>::_Vector_impl_data" = type { ptr, ptr, ptr }
%"class.std::vector.3" = type { %"struct.std::_Vector_base.4" }
%"struct.std::_Vector_base.4" = type { %"struct.std::_Vector_base<OpenColorIO_v2_4dev::FormatMetadataImpl, std::allocator<OpenColorIO_v2_4dev::FormatMetadataImpl>>::_Vector_impl" }
%"struct.std::_Vector_base<OpenColorIO_v2_4dev::FormatMetadataImpl, std::allocator<OpenColorIO_v2_4dev::FormatMetadataImpl>>::_Vector_impl" = type { %"struct.std::_Vector_base<OpenColorIO_v2_4dev::FormatMetadataImpl, std::allocator<OpenColorIO_v2_4dev::FormatMetadataImpl>>::_Vector_impl_data" }
%"struct.std::_Vector_base<OpenColorIO_v2_4dev::FormatMetadataImpl, std::allocator<OpenColorIO_v2_4dev::FormatMetadataImpl>>::_Vector_impl_data" = type { ptr, ptr, ptr }
%"class.std::shared_ptr.8" = type { %"class.std::__shared_ptr.9" }
%"class.std::__shared_ptr.9" = type { ptr, %"class.std::__shared_count" }
%"class.std::allocator.27" = type { i8 }
%"struct.std::_Sp_alloc_shared_tag" = type { ptr }
%"class.std::_Sp_counted_base" = type { ptr, i32, i32 }
%"class.std::__shared_ptr.12" = type { ptr, %"class.std::__shared_count" }
%"class.std::allocator.28" = type { i8 }
%"struct.std::__allocated_ptr" = type { ptr, ptr }
%"class.std::_Sp_counted_ptr_inplace" = type { %"class.std::_Sp_counted_base", %"class.std::_Sp_counted_ptr_inplace<OpenColorIO_v2_4dev::(anonymous namespace)::GradingToneLinearFwdOpCPU, std::allocator<void>, __gnu_cxx::_S_atomic>::_Impl" }
%"class.std::_Sp_counted_ptr_inplace<OpenColorIO_v2_4dev::(anonymous namespace)::GradingToneLinearFwdOpCPU, std::allocator<void>, __gnu_cxx::_S_atomic>::_Impl" = type { %"struct.__gnu_cxx::__aligned_buffer" }
%"struct.__gnu_cxx::__aligned_buffer" = type { %"union.std::aligned_storage<32, 8>::type" }
%"union.std::aligned_storage<32, 8>::type" = type { [32 x i8] }
%"class.OpenColorIO_v2_4dev::(anonymous namespace)::GradingToneOpCPU" = type <{ %"class.OpenColorIO_v2_4dev::OpCPU", %"class.std::shared_ptr.8", i32, [4 x i8] }>
%"class.OpenColorIO_v2_4dev::OpCPU" = type { ptr }
%"class.std::shared_ptr.31" = type { %"class.std::__shared_ptr.32" }
%"class.std::__shared_ptr.32" = type { ptr, %"class.std::__shared_count" }
%"class.OpenColorIO_v2_4dev::DynamicPropertyImpl" = type <{ %"class.OpenColorIO_v2_4dev::DynamicProperty", i32, i8, [3 x i8] }>
%"class.OpenColorIO_v2_4dev::DynamicProperty" = type { ptr }
%"class.OpenColorIO_v2_4dev::DynamicPropertyGradingToneImpl" = type { %"class.OpenColorIO_v2_4dev::DynamicPropertyImpl.base", %"class.OpenColorIO_v2_4dev::DynamicPropertyGradingTone", %"struct.OpenColorIO_v2_4dev::GradingTone", %"struct.OpenColorIO_v2_4dev::GradingTonePreRender" }
%"class.OpenColorIO_v2_4dev::DynamicPropertyImpl.base" = type <{ %"class.OpenColorIO_v2_4dev::DynamicProperty", i32, i8 }>
%"class.OpenColorIO_v2_4dev::DynamicPropertyGradingTone" = type { ptr }
%"struct.OpenColorIO_v2_4dev::GradingTone" = type { %"struct.OpenColorIO_v2_4dev::GradingRGBMSW", %"struct.OpenColorIO_v2_4dev::GradingRGBMSW", %"struct.OpenColorIO_v2_4dev::GradingRGBMSW", %"struct.OpenColorIO_v2_4dev::GradingRGBMSW", %"struct.OpenColorIO_v2_4dev::GradingRGBMSW", double }
%"struct.OpenColorIO_v2_4dev::GradingRGBMSW" = type { double, double, double, double, double, double }
%"struct.OpenColorIO_v2_4dev::GradingTonePreRender" = type { double, double, double, double, double, double, double, double, [4 x [6 x float]], [4 x [6 x float]], [4 x [6 x float]], [2 x [4 x [3 x float]]], [2 x [4 x [3 x float]]], [2 x [4 x [2 x float]]], [2 x [4 x [2 x float]]], [2 x [4 x [2 x float]]], [2 x [4 x [2 x float]]], [2 x [4 x float]], [2 x [4 x float]], [2 x [4 x float]], [2 x [2 x float]], float, float, float, float, i8, i32 }
%"struct.OpenColorIO_v2_4dev::(anonymous namespace)::float3" = type { [3 x float] }
%"class.std::type_info" = type { ptr, ptr }
%"class.std::allocator.34" = type { i8 }
%"struct.std::__allocated_ptr.37" = type { ptr, ptr }
%"class.std::_Sp_counted_ptr_inplace.38" = type { %"class.std::_Sp_counted_base", %"class.std::_Sp_counted_ptr_inplace<OpenColorIO_v2_4dev::(anonymous namespace)::GradingToneFwdOpCPU, std::allocator<void>, __gnu_cxx::_S_atomic>::_Impl" }
%"class.std::_Sp_counted_ptr_inplace<OpenColorIO_v2_4dev::(anonymous namespace)::GradingToneFwdOpCPU, std::allocator<void>, __gnu_cxx::_S_atomic>::_Impl" = type { %"struct.__gnu_cxx::__aligned_buffer.39" }
%"struct.__gnu_cxx::__aligned_buffer.39" = type { %"union.std::aligned_storage<32, 8>::type" }
%"class.std::allocator.40" = type { i8 }
%"struct.std::__allocated_ptr.43" = type { ptr, ptr }
%"class.std::_Sp_counted_ptr_inplace.44" = type { %"class.std::_Sp_counted_base", %"class.std::_Sp_counted_ptr_inplace<OpenColorIO_v2_4dev::(anonymous namespace)::GradingToneLinearRevOpCPU, std::allocator<void>, __gnu_cxx::_S_atomic>::_Impl" }
%"class.std::_Sp_counted_ptr_inplace<OpenColorIO_v2_4dev::(anonymous namespace)::GradingToneLinearRevOpCPU, std::allocator<void>, __gnu_cxx::_S_atomic>::_Impl" = type { %"struct.__gnu_cxx::__aligned_buffer.45" }
%"struct.__gnu_cxx::__aligned_buffer.45" = type { %"union.std::aligned_storage<32, 8>::type" }
%"class.std::allocator.46" = type { i8 }
%"struct.std::__allocated_ptr.49" = type { ptr, ptr }
%"class.std::_Sp_counted_ptr_inplace.50" = type { %"class.std::_Sp_counted_base", %"class.std::_Sp_counted_ptr_inplace<OpenColorIO_v2_4dev::(anonymous namespace)::GradingToneRevOpCPU, std::allocator<void>, __gnu_cxx::_S_atomic>::_Impl" }
%"class.std::_Sp_counted_ptr_inplace<OpenColorIO_v2_4dev::(anonymous namespace)::GradingToneRevOpCPU, std::allocator<void>, __gnu_cxx::_S_atomic>::_Impl" = type { %"struct.__gnu_cxx::__aligned_buffer.51" }
%"struct.__gnu_cxx::__aligned_buffer.51" = type { %"union.std::aligned_storage<32, 8>::type" }

$_ZNSt14numeric_limitsIfE8infinityEv = comdat any

$_ZNKSt19__shared_ptr_accessIKN19OpenColorIO_v2_4dev17GradingToneOpDataELN9__gnu_cxx12_Lock_policyE2ELb0ELb0EEptEv = comdat any

$_ZNK19OpenColorIO_v2_4dev17GradingToneOpData8getStyleEv = comdat any

$_ZNSt14__shared_countILN9__gnu_cxx12_Lock_policyE2EED2Ev = comdat any

$_ZNSt16_Sp_counted_baseILN9__gnu_cxx12_Lock_policyE2EE10_M_releaseEv = comdat any

$__clang_call_terminate = comdat any

$_ZNSt16_Sp_counted_baseILN9__gnu_cxx12_Lock_policyE2EE24_M_release_last_use_coldEv = comdat any

$_ZNSt16_Sp_counted_baseILN9__gnu_cxx12_Lock_policyE2EE19_M_release_last_useEv = comdat any

$_ZNKSt19__shared_ptr_accessIKN19OpenColorIO_v2_4dev17GradingToneOpDataELN9__gnu_cxx12_Lock_policyE2ELb0ELb0EE6_M_getEv = comdat any

$_ZNKSt12__shared_ptrIKN19OpenColorIO_v2_4dev17GradingToneOpDataELN9__gnu_cxx12_Lock_policyE2EE3getEv = comdat any

$_ZNSt16_Sp_counted_baseILN9__gnu_cxx12_Lock_policyE2EEC2Ev = comdat any

$_ZNSt16_Sp_counted_baseILN9__gnu_cxx12_Lock_policyE2EED2Ev = comdat any

$_ZNSt16_Sp_counted_baseILN9__gnu_cxx12_Lock_policyE2EED0Ev = comdat any

$_ZNSt16_Sp_counted_baseILN9__gnu_cxx12_Lock_policyE2EE10_M_destroyEv = comdat any

$_ZNSt14_Sp_ebo_helperILi0ESaIvELb1EEC2ERKS0_ = comdat any

$_ZN19OpenColorIO_v2_4dev5OpCPUC2Ev = comdat any

$_ZNSt10shared_ptrIN19OpenColorIO_v2_4dev30DynamicPropertyGradingToneImplEEC2Ev = comdat any

$_ZNK19OpenColorIO_v2_4dev17GradingToneOpData26getDynamicPropertyInternalEv = comdat any

$_ZNSt10shared_ptrIN19OpenColorIO_v2_4dev30DynamicPropertyGradingToneImplEEaSEOS2_ = comdat any

$_ZNSt10shared_ptrIN19OpenColorIO_v2_4dev30DynamicPropertyGradingToneImplEED2Ev = comdat any

$_ZNKSt19__shared_ptr_accessIN19OpenColorIO_v2_4dev30DynamicPropertyGradingToneImplELN9__gnu_cxx12_Lock_policyE2ELb0ELb0EEptEv = comdat any

$_ZNK19OpenColorIO_v2_4dev19DynamicPropertyImpl9isDynamicEv = comdat any

$_ZN19OpenColorIO_v2_4dev5OpCPUD2Ev = comdat any

$_ZNSt12__shared_ptrIN19OpenColorIO_v2_4dev30DynamicPropertyGradingToneImplELN9__gnu_cxx12_Lock_policyE2EEC2Ev = comdat any

$_ZNSt14__shared_countILN9__gnu_cxx12_Lock_policyE2EEC2Ev = comdat any

$_ZNSt10shared_ptrIN19OpenColorIO_v2_4dev30DynamicPropertyGradingToneImplEEC2ERKS2_ = comdat any

$_ZNSt12__shared_ptrIN19OpenColorIO_v2_4dev30DynamicPropertyGradingToneImplELN9__gnu_cxx12_Lock_policyE2EEC2ERKS4_ = comdat any

$_ZNSt14__shared_countILN9__gnu_cxx12_Lock_policyE2EEC2ERKS2_ = comdat any

$_ZNSt16_Sp_counted_baseILN9__gnu_cxx12_Lock_policyE2EE15_M_add_ref_copyEv = comdat any

$_ZNSt12__shared_ptrIN19OpenColorIO_v2_4dev30DynamicPropertyGradingToneImplELN9__gnu_cxx12_Lock_policyE2EEaSEOS4_ = comdat any

$_ZNSt12__shared_ptrIN19OpenColorIO_v2_4dev30DynamicPropertyGradingToneImplELN9__gnu_cxx12_Lock_policyE2EEC2EOS4_ = comdat any

$_ZNSt12__shared_ptrIN19OpenColorIO_v2_4dev30DynamicPropertyGradingToneImplELN9__gnu_cxx12_Lock_policyE2EE4swapERS4_ = comdat any

$_ZNSt12__shared_ptrIN19OpenColorIO_v2_4dev30DynamicPropertyGradingToneImplELN9__gnu_cxx12_Lock_policyE2EED2Ev = comdat any

$_ZNSt14__shared_countILN9__gnu_cxx12_Lock_policyE2EE7_M_swapERS2_ = comdat any

$_ZSt4swapIPN19OpenColorIO_v2_4dev30DynamicPropertyGradingToneImplEENSt9enable_ifIXsr6__and_ISt6__not_ISt15__is_tuple_likeIT_EESt21is_move_constructibleIS6_ESt18is_move_assignableIS6_EEE5valueEvE4typeERS6_SF_ = comdat any

$_ZNKSt19__shared_ptr_accessIN19OpenColorIO_v2_4dev30DynamicPropertyGradingToneImplELN9__gnu_cxx12_Lock_policyE2ELb0ELb0EE6_M_getEv = comdat any

$_ZNKSt12__shared_ptrIN19OpenColorIO_v2_4dev30DynamicPropertyGradingToneImplELN9__gnu_cxx12_Lock_policyE2EE3getEv = comdat any

$_ZNK19OpenColorIO_v2_4dev30DynamicPropertyGradingToneImpl14getLocalBypassEv = comdat any

$_ZNK19OpenColorIO_v2_4dev30DynamicPropertyGradingToneImpl16getComputedValueEv = comdat any

$_ZN19OpenColorIO_v2_4dev5ClampIfEET_S1_S1_S1_ = comdat any

$_ZSt3minIfERKT_S2_S2_ = comdat any

$_ZSt3maxIfERKT_S2_S2_ = comdat any

$_ZN19OpenColorIO_v2_4dev7sseLog2EDv4_f = comdat any

$_ZN19OpenColorIO_v2_4dev8ssePowerEDv4_fS0_ = comdat any

$_ZN19OpenColorIO_v2_4dev7sseExp2EDv4_f = comdat any

$_ZN19OpenColorIO_v2_4dev9sseSelectERKDv4_fS2_S2_ = comdat any

$_ZNSt10shared_ptrIN19OpenColorIO_v2_4dev15DynamicPropertyEEC2INS0_30DynamicPropertyGradingToneImplEvEERKS_IT_E = comdat any

$_ZNSt12__shared_ptrIN19OpenColorIO_v2_4dev15DynamicPropertyELN9__gnu_cxx12_Lock_policyE2EEC2INS0_30DynamicPropertyGradingToneImplEvEERKS_IT_LS3_2EE = comdat any

$_ZNSt14_Sp_ebo_helperILi0ESaIvELb1EE6_S_getERS1_ = comdat any

$_ZNSt19_Sp_make_shared_tag5_S_tiEv = comdat any

$_ZNKSt9type_infoeqERKS_ = comdat any

$_ZNKSt9type_info4nameEv = comdat any

$_ZSt4sqrtf = comdat any

$_ZTSSt16_Sp_counted_baseILN9__gnu_cxx12_Lock_policyE2EE = comdat any

$_ZTSSt11_Mutex_baseILN9__gnu_cxx12_Lock_policyE2EE = comdat any

$_ZTISt11_Mutex_baseILN9__gnu_cxx12_Lock_policyE2EE = comdat any

$_ZTISt16_Sp_counted_baseILN9__gnu_cxx12_Lock_policyE2EE = comdat any

$_ZTVSt16_Sp_counted_baseILN9__gnu_cxx12_Lock_policyE2EE = comdat any

$_ZTSSt19_Sp_make_shared_tag = comdat any

$_ZTISt19_Sp_make_shared_tag = comdat any

$_ZZNSt19_Sp_make_shared_tag5_S_tiEvE5__tag = comdat any

@_ZStL8__ioinit = internal global %"class.std::ios_base::Init" zeroinitializer, align 1
@__dso_handle = external hidden global i8
@_ZN19OpenColorIO_v2_4devL5EMASKE = internal global <2 x i64> zeroinitializer, align 16
@_ZN19OpenColorIO_v2_4devL5EBIASE = internal global <2 x i64> zeroinitializer, align 16
@_ZN19OpenColorIO_v2_4devL4EONEE = internal global <4 x float> zeroinitializer, align 16
@_ZN19OpenColorIO_v2_4devL5EZEROE = internal global <4 x float> zeroinitializer, align 16
@_ZN19OpenColorIO_v2_4devL7ENEG126E = internal global <4 x float> zeroinitializer, align 16
@_ZN19OpenColorIO_v2_4devL7EPOS128E = internal global <4 x float> zeroinitializer, align 16
@_ZN19OpenColorIO_v2_4devL7EPOSINFE = internal global <4 x float> zeroinitializer, align 16
@_ZN19OpenColorIO_v2_4devL6PNLOG5E = internal global <4 x float> zeroinitializer, align 16
@_ZN19OpenColorIO_v2_4devL6PNLOG4E = internal global <4 x float> zeroinitializer, align 16
@_ZN19OpenColorIO_v2_4devL6PNLOG3E = internal global <4 x float> zeroinitializer, align 16
@_ZN19OpenColorIO_v2_4devL6PNLOG2E = internal global <4 x float> zeroinitializer, align 16
@_ZN19OpenColorIO_v2_4devL6PNLOG1E = internal global <4 x float> zeroinitializer, align 16
@_ZN19OpenColorIO_v2_4devL6PNLOG0E = internal global <4 x float> zeroinitializer, align 16
@_ZN19OpenColorIO_v2_4devL6PNEXP4E = internal global <4 x float> zeroinitializer, align 16
@_ZN19OpenColorIO_v2_4devL6PNEXP3E = internal global <4 x float> zeroinitializer, align 16
@_ZN19OpenColorIO_v2_4devL6PNEXP2E = internal global <4 x float> zeroinitializer, align 16
@_ZN19OpenColorIO_v2_4devL6PNEXP1E = internal global <4 x float> zeroinitializer, align 16
@_ZN19OpenColorIO_v2_4devL6PNEXP0E = internal global <4 x float> zeroinitializer, align 16
@_ZN19OpenColorIO_v2_4devL10ESIGN_MASKE = internal global <4 x float> zeroinitializer, align 16
@_ZN19OpenColorIO_v2_4devL9EABS_MASKE = internal global <4 x float> zeroinitializer, align 16
@_ZN19OpenColorIO_v2_4devL4E_PIE = internal global <4 x float> zeroinitializer, align 16
@_ZN19OpenColorIO_v2_4devL6E_PI_2E = internal global <4 x float> zeroinitializer, align 16
@_ZN19OpenColorIO_v2_4devL6E_1_PIE = internal global <4 x float> zeroinitializer, align 16
@_ZN19OpenColorIO_v2_4dev12_GLOBAL__N_115LogLinConstants5mxbrkE = internal global <4 x float> zeroinitializer, align 16
@_ZN19OpenColorIO_v2_4dev12_GLOBAL__N_115LogLinConstants6mshiftE = internal global <4 x float> zeroinitializer, align 16
@_ZN19OpenColorIO_v2_4dev12_GLOBAL__N_115LogLinConstants2mmE = internal global <4 x float> zeroinitializer, align 16
@_ZN19OpenColorIO_v2_4dev12_GLOBAL__N_115LogLinConstants5mgainE = internal global <4 x float> zeroinitializer, align 16
@_ZN19OpenColorIO_v2_4dev12_GLOBAL__N_115LogLinConstants5moffsE = internal global <4 x float> zeroinitializer, align 16
@_ZN19OpenColorIO_v2_4dev12_GLOBAL__N_115LogLinConstants5mybrkE = internal global <4 x float> zeroinitializer, align 16
@_ZN19OpenColorIO_v2_4dev12_GLOBAL__N_115LogLinConstants8mgainInvE = internal global <4 x float> zeroinitializer, align 16
@_ZN19OpenColorIO_v2_4dev12_GLOBAL__N_115LogLinConstants9mshift018E = internal global <4 x float> zeroinitializer, align 16
@_ZN19OpenColorIO_v2_4dev12_GLOBAL__N_115LogLinConstants6mpowerE = internal global <4 x float> zeroinitializer, align 16
@.str = private unnamed_addr constant [31 x i8] c"Illegal GradingTone direction.\00", align 1
@_ZTIN19OpenColorIO_v2_4dev9ExceptionE = external constant ptr
@__libc_single_threaded = external global i8, align 1
@_ZTVSt23_Sp_counted_ptr_inplaceIN19OpenColorIO_v2_4dev12_GLOBAL__N_125GradingToneLinearFwdOpCPUESaIvELN9__gnu_cxx12_Lock_policyE2EE = internal unnamed_addr constant { [7 x ptr] } { [7 x ptr] [ptr null, ptr @_ZTISt23_Sp_counted_ptr_inplaceIN19OpenColorIO_v2_4dev12_GLOBAL__N_125GradingToneLinearFwdOpCPUESaIvELN9__gnu_cxx12_Lock_policyE2EE, ptr @_ZNSt23_Sp_counted_ptr_inplaceIN19OpenColorIO_v2_4dev12_GLOBAL__N_125GradingToneLinearFwdOpCPUESaIvELN9__gnu_cxx12_Lock_policyE2EED2Ev, ptr @_ZNSt23_Sp_counted_ptr_inplaceIN19OpenColorIO_v2_4dev12_GLOBAL__N_125GradingToneLinearFwdOpCPUESaIvELN9__gnu_cxx12_Lock_policyE2EED0Ev, ptr @_ZNSt23_Sp_counted_ptr_inplaceIN19OpenColorIO_v2_4dev12_GLOBAL__N_125GradingToneLinearFwdOpCPUESaIvELN9__gnu_cxx12_Lock_policyE2EE10_M_disposeEv, ptr @_ZNSt23_Sp_counted_ptr_inplaceIN19OpenColorIO_v2_4dev12_GLOBAL__N_125GradingToneLinearFwdOpCPUESaIvELN9__gnu_cxx12_Lock_policyE2EE10_M_destroyEv, ptr @_ZNSt23_Sp_counted_ptr_inplaceIN19OpenColorIO_v2_4dev12_GLOBAL__N_125GradingToneLinearFwdOpCPUESaIvELN9__gnu_cxx12_Lock_policyE2EE14_M_get_deleterERKSt9type_info] }, align 8
@_ZTVN10__cxxabiv120__si_class_type_infoE = external global [0 x ptr]
@_ZTSSt23_Sp_counted_ptr_inplaceIN19OpenColorIO_v2_4dev12_GLOBAL__N_125GradingToneLinearFwdOpCPUESaIvELN9__gnu_cxx12_Lock_policyE2EE = internal constant [128 x i8] c"St23_Sp_counted_ptr_inplaceIN19OpenColorIO_v2_4dev12_GLOBAL__N_125GradingToneLinearFwdOpCPUESaIvELN9__gnu_cxx12_Lock_policyE2EE\00", align 1
@_ZTSSt16_Sp_counted_baseILN9__gnu_cxx12_Lock_policyE2EE = linkonce_odr constant [52 x i8] c"St16_Sp_counted_baseILN9__gnu_cxx12_Lock_policyE2EE\00", comdat, align 1
@_ZTVN10__cxxabiv117__class_type_infoE = external global [0 x ptr]
@_ZTSSt11_Mutex_baseILN9__gnu_cxx12_Lock_policyE2EE = linkonce_odr constant [47 x i8] c"St11_Mutex_baseILN9__gnu_cxx12_Lock_policyE2EE\00", comdat, align 1
@_ZTISt11_Mutex_baseILN9__gnu_cxx12_Lock_policyE2EE = linkonce_odr constant { ptr, ptr } { ptr getelementptr inbounds (ptr, ptr @_ZTVN10__cxxabiv117__class_type_infoE, i64 2), ptr @_ZTSSt11_Mutex_baseILN9__gnu_cxx12_Lock_policyE2EE }, comdat, align 8
@_ZTISt16_Sp_counted_baseILN9__gnu_cxx12_Lock_policyE2EE = linkonce_odr constant { ptr, ptr, ptr } { ptr getelementptr inbounds (ptr, ptr @_ZTVN10__cxxabiv120__si_class_type_infoE, i64 2), ptr @_ZTSSt16_Sp_counted_baseILN9__gnu_cxx12_Lock_policyE2EE, ptr @_ZTISt11_Mutex_baseILN9__gnu_cxx12_Lock_policyE2EE }, comdat, align 8
@_ZTISt23_Sp_counted_ptr_inplaceIN19OpenColorIO_v2_4dev12_GLOBAL__N_125GradingToneLinearFwdOpCPUESaIvELN9__gnu_cxx12_Lock_policyE2EE = internal constant { ptr, ptr, ptr } { ptr getelementptr inbounds (ptr, ptr @_ZTVN10__cxxabiv120__si_class_type_infoE, i64 2), ptr @_ZTSSt23_Sp_counted_ptr_inplaceIN19OpenColorIO_v2_4dev12_GLOBAL__N_125GradingToneLinearFwdOpCPUESaIvELN9__gnu_cxx12_Lock_policyE2EE, ptr @_ZTISt16_Sp_counted_baseILN9__gnu_cxx12_Lock_policyE2EE }, align 8
@_ZTVSt16_Sp_counted_baseILN9__gnu_cxx12_Lock_policyE2EE = linkonce_odr unnamed_addr constant { [7 x ptr] } { [7 x ptr] [ptr null, ptr @_ZTISt16_Sp_counted_baseILN9__gnu_cxx12_Lock_policyE2EE, ptr @_ZNSt16_Sp_counted_baseILN9__gnu_cxx12_Lock_policyE2EED2Ev, ptr @_ZNSt16_Sp_counted_baseILN9__gnu_cxx12_Lock_policyE2EED0Ev, ptr @__cxa_pure_virtual, ptr @_ZNSt16_Sp_counted_baseILN9__gnu_cxx12_Lock_policyE2EE10_M_destroyEv, ptr @__cxa_pure_virtual] }, comdat, align 8
@_ZTVN19OpenColorIO_v2_4dev12_GLOBAL__N_125GradingToneLinearFwdOpCPUE = internal unnamed_addr constant { [8 x ptr] } { [8 x ptr] [ptr null, ptr @_ZTIN19OpenColorIO_v2_4dev12_GLOBAL__N_125GradingToneLinearFwdOpCPUE, ptr @_ZN19OpenColorIO_v2_4dev12_GLOBAL__N_125GradingToneLinearFwdOpCPUD2Ev, ptr @_ZN19OpenColorIO_v2_4dev12_GLOBAL__N_125GradingToneLinearFwdOpCPUD0Ev, ptr @_ZNK19OpenColorIO_v2_4dev12_GLOBAL__N_125GradingToneLinearFwdOpCPU5applyEPKvPvl, ptr @_ZNK19OpenColorIO_v2_4dev12_GLOBAL__N_116GradingToneOpCPU9isDynamicEv, ptr @_ZNK19OpenColorIO_v2_4dev12_GLOBAL__N_116GradingToneOpCPU18hasDynamicPropertyENS_19DynamicPropertyTypeE, ptr @_ZNK19OpenColorIO_v2_4dev12_GLOBAL__N_116GradingToneOpCPU18getDynamicPropertyENS_19DynamicPropertyTypeE] }, align 8
@_ZTSN19OpenColorIO_v2_4dev12_GLOBAL__N_125GradingToneLinearFwdOpCPUE = internal constant [65 x i8] c"N19OpenColorIO_v2_4dev12_GLOBAL__N_125GradingToneLinearFwdOpCPUE\00", align 1
@_ZTSN19OpenColorIO_v2_4dev12_GLOBAL__N_119GradingToneFwdOpCPUE = internal constant [59 x i8] c"N19OpenColorIO_v2_4dev12_GLOBAL__N_119GradingToneFwdOpCPUE\00", align 1
@_ZTSN19OpenColorIO_v2_4dev12_GLOBAL__N_116GradingToneOpCPUE = internal constant [56 x i8] c"N19OpenColorIO_v2_4dev12_GLOBAL__N_116GradingToneOpCPUE\00", align 1
@_ZTIN19OpenColorIO_v2_4dev5OpCPUE = external constant ptr
@_ZTIN19OpenColorIO_v2_4dev12_GLOBAL__N_116GradingToneOpCPUE = internal constant { ptr, ptr, ptr } { ptr getelementptr inbounds (ptr, ptr @_ZTVN10__cxxabiv120__si_class_type_infoE, i64 2), ptr @_ZTSN19OpenColorIO_v2_4dev12_GLOBAL__N_116GradingToneOpCPUE, ptr @_ZTIN19OpenColorIO_v2_4dev5OpCPUE }, align 8
@_ZTIN19OpenColorIO_v2_4dev12_GLOBAL__N_119GradingToneFwdOpCPUE = internal constant { ptr, ptr, ptr } { ptr getelementptr inbounds (ptr, ptr @_ZTVN10__cxxabiv120__si_class_type_infoE, i64 2), ptr @_ZTSN19OpenColorIO_v2_4dev12_GLOBAL__N_119GradingToneFwdOpCPUE, ptr @_ZTIN19OpenColorIO_v2_4dev12_GLOBAL__N_116GradingToneOpCPUE }, align 8
@_ZTIN19OpenColorIO_v2_4dev12_GLOBAL__N_125GradingToneLinearFwdOpCPUE = internal constant { ptr, ptr, ptr } { ptr getelementptr inbounds (ptr, ptr @_ZTVN10__cxxabiv120__si_class_type_infoE, i64 2), ptr @_ZTSN19OpenColorIO_v2_4dev12_GLOBAL__N_125GradingToneLinearFwdOpCPUE, ptr @_ZTIN19OpenColorIO_v2_4dev12_GLOBAL__N_119GradingToneFwdOpCPUE }, align 8
@_ZTVN19OpenColorIO_v2_4dev12_GLOBAL__N_119GradingToneFwdOpCPUE = internal unnamed_addr constant { [8 x ptr] } { [8 x ptr] [ptr null, ptr @_ZTIN19OpenColorIO_v2_4dev12_GLOBAL__N_119GradingToneFwdOpCPUE, ptr @_ZN19OpenColorIO_v2_4dev12_GLOBAL__N_119GradingToneFwdOpCPUD2Ev, ptr @_ZN19OpenColorIO_v2_4dev12_GLOBAL__N_119GradingToneFwdOpCPUD0Ev, ptr @_ZNK19OpenColorIO_v2_4dev12_GLOBAL__N_119GradingToneFwdOpCPU5applyEPKvPvl, ptr @_ZNK19OpenColorIO_v2_4dev12_GLOBAL__N_116GradingToneOpCPU9isDynamicEv, ptr @_ZNK19OpenColorIO_v2_4dev12_GLOBAL__N_116GradingToneOpCPU18hasDynamicPropertyENS_19DynamicPropertyTypeE, ptr @_ZNK19OpenColorIO_v2_4dev12_GLOBAL__N_116GradingToneOpCPU18getDynamicPropertyENS_19DynamicPropertyTypeE] }, align 8
@_ZTVN19OpenColorIO_v2_4dev12_GLOBAL__N_116GradingToneOpCPUE = internal unnamed_addr constant { [8 x ptr] } { [8 x ptr] [ptr null, ptr @_ZTIN19OpenColorIO_v2_4dev12_GLOBAL__N_116GradingToneOpCPUE, ptr @_ZN19OpenColorIO_v2_4dev12_GLOBAL__N_116GradingToneOpCPUD2Ev, ptr @_ZN19OpenColorIO_v2_4dev12_GLOBAL__N_116GradingToneOpCPUD0Ev, ptr @__cxa_pure_virtual, ptr @_ZNK19OpenColorIO_v2_4dev12_GLOBAL__N_116GradingToneOpCPU9isDynamicEv, ptr @_ZNK19OpenColorIO_v2_4dev12_GLOBAL__N_116GradingToneOpCPU18hasDynamicPropertyENS_19DynamicPropertyTypeE, ptr @_ZNK19OpenColorIO_v2_4dev12_GLOBAL__N_116GradingToneOpCPU18getDynamicPropertyENS_19DynamicPropertyTypeE] }, align 8
@_ZTVN19OpenColorIO_v2_4dev5OpCPUE = external unnamed_addr constant { [8 x ptr] }, align 8
@.str.33 = private unnamed_addr constant [37 x i8] c"GradingTone property is not dynamic.\00", align 1
@.str.34 = private unnamed_addr constant [52 x i8] c"Dynamic property type not supported by GradingTone.\00", align 1
@_ZTSSt19_Sp_make_shared_tag = linkonce_odr constant [24 x i8] c"St19_Sp_make_shared_tag\00", comdat, align 1
@_ZTISt19_Sp_make_shared_tag = linkonce_odr constant { ptr, ptr } { ptr getelementptr inbounds (ptr, ptr @_ZTVN10__cxxabiv117__class_type_infoE, i64 2), ptr @_ZTSSt19_Sp_make_shared_tag }, comdat, align 8
@_ZZNSt19_Sp_make_shared_tag5_S_tiEvE5__tag = linkonce_odr constant [16 x i8] zeroinitializer, comdat, align 8
@_ZTVSt23_Sp_counted_ptr_inplaceIN19OpenColorIO_v2_4dev12_GLOBAL__N_119GradingToneFwdOpCPUESaIvELN9__gnu_cxx12_Lock_policyE2EE = internal unnamed_addr constant { [7 x ptr] } { [7 x ptr] [ptr null, ptr @_ZTISt23_Sp_counted_ptr_inplaceIN19OpenColorIO_v2_4dev12_GLOBAL__N_119GradingToneFwdOpCPUESaIvELN9__gnu_cxx12_Lock_policyE2EE, ptr @_ZNSt23_Sp_counted_ptr_inplaceIN19OpenColorIO_v2_4dev12_GLOBAL__N_119GradingToneFwdOpCPUESaIvELN9__gnu_cxx12_Lock_policyE2EED2Ev, ptr @_ZNSt23_Sp_counted_ptr_inplaceIN19OpenColorIO_v2_4dev12_GLOBAL__N_119GradingToneFwdOpCPUESaIvELN9__gnu_cxx12_Lock_policyE2EED0Ev, ptr @_ZNSt23_Sp_counted_ptr_inplaceIN19OpenColorIO_v2_4dev12_GLOBAL__N_119GradingToneFwdOpCPUESaIvELN9__gnu_cxx12_Lock_policyE2EE10_M_disposeEv, ptr @_ZNSt23_Sp_counted_ptr_inplaceIN19OpenColorIO_v2_4dev12_GLOBAL__N_119GradingToneFwdOpCPUESaIvELN9__gnu_cxx12_Lock_policyE2EE10_M_destroyEv, ptr @_ZNSt23_Sp_counted_ptr_inplaceIN19OpenColorIO_v2_4dev12_GLOBAL__N_119GradingToneFwdOpCPUESaIvELN9__gnu_cxx12_Lock_policyE2EE14_M_get_deleterERKSt9type_info] }, align 8
@_ZTSSt23_Sp_counted_ptr_inplaceIN19OpenColorIO_v2_4dev12_GLOBAL__N_119GradingToneFwdOpCPUESaIvELN9__gnu_cxx12_Lock_policyE2EE = internal constant [122 x i8] c"St23_Sp_counted_ptr_inplaceIN19OpenColorIO_v2_4dev12_GLOBAL__N_119GradingToneFwdOpCPUESaIvELN9__gnu_cxx12_Lock_policyE2EE\00", align 1
@_ZTISt23_Sp_counted_ptr_inplaceIN19OpenColorIO_v2_4dev12_GLOBAL__N_119GradingToneFwdOpCPUESaIvELN9__gnu_cxx12_Lock_policyE2EE = internal constant { ptr, ptr, ptr } { ptr getelementptr inbounds (ptr, ptr @_ZTVN10__cxxabiv120__si_class_type_infoE, i64 2), ptr @_ZTSSt23_Sp_counted_ptr_inplaceIN19OpenColorIO_v2_4dev12_GLOBAL__N_119GradingToneFwdOpCPUESaIvELN9__gnu_cxx12_Lock_policyE2EE, ptr @_ZTISt16_Sp_counted_baseILN9__gnu_cxx12_Lock_policyE2EE }, align 8
@_ZTVSt23_Sp_counted_ptr_inplaceIN19OpenColorIO_v2_4dev12_GLOBAL__N_125GradingToneLinearRevOpCPUESaIvELN9__gnu_cxx12_Lock_policyE2EE = internal unnamed_addr constant { [7 x ptr] } { [7 x ptr] [ptr null, ptr @_ZTISt23_Sp_counted_ptr_inplaceIN19OpenColorIO_v2_4dev12_GLOBAL__N_125GradingToneLinearRevOpCPUESaIvELN9__gnu_cxx12_Lock_policyE2EE, ptr @_ZNSt23_Sp_counted_ptr_inplaceIN19OpenColorIO_v2_4dev12_GLOBAL__N_125GradingToneLinearRevOpCPUESaIvELN9__gnu_cxx12_Lock_policyE2EED2Ev, ptr @_ZNSt23_Sp_counted_ptr_inplaceIN19OpenColorIO_v2_4dev12_GLOBAL__N_125GradingToneLinearRevOpCPUESaIvELN9__gnu_cxx12_Lock_policyE2EED0Ev, ptr @_ZNSt23_Sp_counted_ptr_inplaceIN19OpenColorIO_v2_4dev12_GLOBAL__N_125GradingToneLinearRevOpCPUESaIvELN9__gnu_cxx12_Lock_policyE2EE10_M_disposeEv, ptr @_ZNSt23_Sp_counted_ptr_inplaceIN19OpenColorIO_v2_4dev12_GLOBAL__N_125GradingToneLinearRevOpCPUESaIvELN9__gnu_cxx12_Lock_policyE2EE10_M_destroyEv, ptr @_ZNSt23_Sp_counted_ptr_inplaceIN19OpenColorIO_v2_4dev12_GLOBAL__N_125GradingToneLinearRevOpCPUESaIvELN9__gnu_cxx12_Lock_policyE2EE14_M_get_deleterERKSt9type_info] }, align 8
@_ZTSSt23_Sp_counted_ptr_inplaceIN19OpenColorIO_v2_4dev12_GLOBAL__N_125GradingToneLinearRevOpCPUESaIvELN9__gnu_cxx12_Lock_policyE2EE = internal constant [128 x i8] c"St23_Sp_counted_ptr_inplaceIN19OpenColorIO_v2_4dev12_GLOBAL__N_125GradingToneLinearRevOpCPUESaIvELN9__gnu_cxx12_Lock_policyE2EE\00", align 1
@_ZTISt23_Sp_counted_ptr_inplaceIN19OpenColorIO_v2_4dev12_GLOBAL__N_125GradingToneLinearRevOpCPUESaIvELN9__gnu_cxx12_Lock_policyE2EE = internal constant { ptr, ptr, ptr } { ptr getelementptr inbounds (ptr, ptr @_ZTVN10__cxxabiv120__si_class_type_infoE, i64 2), ptr @_ZTSSt23_Sp_counted_ptr_inplaceIN19OpenColorIO_v2_4dev12_GLOBAL__N_125GradingToneLinearRevOpCPUESaIvELN9__gnu_cxx12_Lock_policyE2EE, ptr @_ZTISt16_Sp_counted_baseILN9__gnu_cxx12_Lock_policyE2EE }, align 8
@_ZTVN19OpenColorIO_v2_4dev12_GLOBAL__N_125GradingToneLinearRevOpCPUE = internal unnamed_addr constant { [8 x ptr] } { [8 x ptr] [ptr null, ptr @_ZTIN19OpenColorIO_v2_4dev12_GLOBAL__N_125GradingToneLinearRevOpCPUE, ptr @_ZN19OpenColorIO_v2_4dev12_GLOBAL__N_125GradingToneLinearRevOpCPUD2Ev, ptr @_ZN19OpenColorIO_v2_4dev12_GLOBAL__N_125GradingToneLinearRevOpCPUD0Ev, ptr @_ZNK19OpenColorIO_v2_4dev12_GLOBAL__N_125GradingToneLinearRevOpCPU5applyEPKvPvl, ptr @_ZNK19OpenColorIO_v2_4dev12_GLOBAL__N_116GradingToneOpCPU9isDynamicEv, ptr @_ZNK19OpenColorIO_v2_4dev12_GLOBAL__N_116GradingToneOpCPU18hasDynamicPropertyENS_19DynamicPropertyTypeE, ptr @_ZNK19OpenColorIO_v2_4dev12_GLOBAL__N_116GradingToneOpCPU18getDynamicPropertyENS_19DynamicPropertyTypeE] }, align 8
@_ZTSN19OpenColorIO_v2_4dev12_GLOBAL__N_125GradingToneLinearRevOpCPUE = internal constant [65 x i8] c"N19OpenColorIO_v2_4dev12_GLOBAL__N_125GradingToneLinearRevOpCPUE\00", align 1
@_ZTSN19OpenColorIO_v2_4dev12_GLOBAL__N_119GradingToneRevOpCPUE = internal constant [59 x i8] c"N19OpenColorIO_v2_4dev12_GLOBAL__N_119GradingToneRevOpCPUE\00", align 1
@_ZTIN19OpenColorIO_v2_4dev12_GLOBAL__N_119GradingToneRevOpCPUE = internal constant { ptr, ptr, ptr } { ptr getelementptr inbounds (ptr, ptr @_ZTVN10__cxxabiv120__si_class_type_infoE, i64 2), ptr @_ZTSN19OpenColorIO_v2_4dev12_GLOBAL__N_119GradingToneRevOpCPUE, ptr @_ZTIN19OpenColorIO_v2_4dev12_GLOBAL__N_116GradingToneOpCPUE }, align 8
@_ZTIN19OpenColorIO_v2_4dev12_GLOBAL__N_125GradingToneLinearRevOpCPUE = internal constant { ptr, ptr, ptr } { ptr getelementptr inbounds (ptr, ptr @_ZTVN10__cxxabiv120__si_class_type_infoE, i64 2), ptr @_ZTSN19OpenColorIO_v2_4dev12_GLOBAL__N_125GradingToneLinearRevOpCPUE, ptr @_ZTIN19OpenColorIO_v2_4dev12_GLOBAL__N_119GradingToneRevOpCPUE }, align 8
@_ZTVN19OpenColorIO_v2_4dev12_GLOBAL__N_119GradingToneRevOpCPUE = internal unnamed_addr constant { [8 x ptr] } { [8 x ptr] [ptr null, ptr @_ZTIN19OpenColorIO_v2_4dev12_GLOBAL__N_119GradingToneRevOpCPUE, ptr @_ZN19OpenColorIO_v2_4dev12_GLOBAL__N_119GradingToneRevOpCPUD2Ev, ptr @_ZN19OpenColorIO_v2_4dev12_GLOBAL__N_119GradingToneRevOpCPUD0Ev, ptr @_ZNK19OpenColorIO_v2_4dev12_GLOBAL__N_119GradingToneRevOpCPU5applyEPKvPvl, ptr @_ZNK19OpenColorIO_v2_4dev12_GLOBAL__N_116GradingToneOpCPU9isDynamicEv, ptr @_ZNK19OpenColorIO_v2_4dev12_GLOBAL__N_116GradingToneOpCPU18hasDynamicPropertyENS_19DynamicPropertyTypeE, ptr @_ZNK19OpenColorIO_v2_4dev12_GLOBAL__N_116GradingToneOpCPU18getDynamicPropertyENS_19DynamicPropertyTypeE] }, align 8
@_ZTVSt23_Sp_counted_ptr_inplaceIN19OpenColorIO_v2_4dev12_GLOBAL__N_119GradingToneRevOpCPUESaIvELN9__gnu_cxx12_Lock_policyE2EE = internal unnamed_addr constant { [7 x ptr] } { [7 x ptr] [ptr null, ptr @_ZTISt23_Sp_counted_ptr_inplaceIN19OpenColorIO_v2_4dev12_GLOBAL__N_119GradingToneRevOpCPUESaIvELN9__gnu_cxx12_Lock_policyE2EE, ptr @_ZNSt23_Sp_counted_ptr_inplaceIN19OpenColorIO_v2_4dev12_GLOBAL__N_119GradingToneRevOpCPUESaIvELN9__gnu_cxx12_Lock_policyE2EED2Ev, ptr @_ZNSt23_Sp_counted_ptr_inplaceIN19OpenColorIO_v2_4dev12_GLOBAL__N_119GradingToneRevOpCPUESaIvELN9__gnu_cxx12_Lock_policyE2EED0Ev, ptr @_ZNSt23_Sp_counted_ptr_inplaceIN19OpenColorIO_v2_4dev12_GLOBAL__N_119GradingToneRevOpCPUESaIvELN9__gnu_cxx12_Lock_policyE2EE10_M_disposeEv, ptr @_ZNSt23_Sp_counted_ptr_inplaceIN19OpenColorIO_v2_4dev12_GLOBAL__N_119GradingToneRevOpCPUESaIvELN9__gnu_cxx12_Lock_policyE2EE10_M_destroyEv, ptr @_ZNSt23_Sp_counted_ptr_inplaceIN19OpenColorIO_v2_4dev12_GLOBAL__N_119GradingToneRevOpCPUESaIvELN9__gnu_cxx12_Lock_policyE2EE14_M_get_deleterERKSt9type_info] }, align 8
@_ZTSSt23_Sp_counted_ptr_inplaceIN19OpenColorIO_v2_4dev12_GLOBAL__N_119GradingToneRevOpCPUESaIvELN9__gnu_cxx12_Lock_policyE2EE = internal constant [122 x i8] c"St23_Sp_counted_ptr_inplaceIN19OpenColorIO_v2_4dev12_GLOBAL__N_119GradingToneRevOpCPUESaIvELN9__gnu_cxx12_Lock_policyE2EE\00", align 1
@_ZTISt23_Sp_counted_ptr_inplaceIN19OpenColorIO_v2_4dev12_GLOBAL__N_119GradingToneRevOpCPUESaIvELN9__gnu_cxx12_Lock_policyE2EE = internal constant { ptr, ptr, ptr } { ptr getelementptr inbounds (ptr, ptr @_ZTVN10__cxxabiv120__si_class_type_infoE, i64 2), ptr @_ZTSSt23_Sp_counted_ptr_inplaceIN19OpenColorIO_v2_4dev12_GLOBAL__N_119GradingToneRevOpCPUESaIvELN9__gnu_cxx12_Lock_policyE2EE, ptr @_ZTISt16_Sp_counted_baseILN9__gnu_cxx12_Lock_policyE2EE }, align 8
@llvm.global_ctors = appending global [1 x { i32, ptr, ptr }] [{ i32, ptr, ptr } { i32 65535, ptr @_GLOBAL__sub_I_GradingToneOpCPU.cpp, ptr null }]

; Function Attrs: uwtable
define internal void @__cxx_global_var_init() #0 section ".text.startup" {
entry:
  call void @_ZNSt8ios_base4InitC1Ev(ptr noundef nonnull align 1 dereferenceable(1) @_ZStL8__ioinit)
  %0 = call i32 @__cxa_atexit(ptr @_ZNSt8ios_base4InitD1Ev, ptr @_ZStL8__ioinit, ptr @__dso_handle) #3
  ret void
}

declare void @_ZNSt8ios_base4InitC1Ev(ptr noundef nonnull align 1 dereferenceable(1)) unnamed_addr #1

; Function Attrs: nounwind
declare void @_ZNSt8ios_base4InitD1Ev(ptr noundef nonnull align 1 dereferenceable(1)) unnamed_addr #2

; Function Attrs: nounwind
declare i32 @__cxa_atexit(ptr, ptr, ptr) #3

; Function Attrs: uwtable
define internal void @__cxx_global_var_init.1() #4 section ".text.startup" {
entry:
  %__i3.addr.i = alloca i32, align 4
  %__i2.addr.i = alloca i32, align 4
  %__i1.addr.i = alloca i32, align 4
  %__i0.addr.i = alloca i32, align 4
  %.compoundliteral.i = alloca <4 x i32>, align 16
  %__i.addr.i = alloca i32, align 4
  store i32 2139095040, ptr %__i.addr.i, align 4
  %0 = load i32, ptr %__i.addr.i, align 4
  %1 = load i32, ptr %__i.addr.i, align 4
  %2 = load i32, ptr %__i.addr.i, align 4
  %3 = load i32, ptr %__i.addr.i, align 4
  store i32 %0, ptr %__i3.addr.i, align 4
  store i32 %1, ptr %__i2.addr.i, align 4
  store i32 %2, ptr %__i1.addr.i, align 4
  store i32 %3, ptr %__i0.addr.i, align 4
  %4 = load i32, ptr %__i0.addr.i, align 4
  %vecinit.i = insertelement <4 x i32> undef, i32 %4, i32 0
  %5 = load i32, ptr %__i1.addr.i, align 4
  %vecinit1.i = insertelement <4 x i32> %vecinit.i, i32 %5, i32 1
  %6 = load i32, ptr %__i2.addr.i, align 4
  %vecinit2.i = insertelement <4 x i32> %vecinit1.i, i32 %6, i32 2
  %7 = load i32, ptr %__i3.addr.i, align 4
  %vecinit3.i = insertelement <4 x i32> %vecinit2.i, i32 %7, i32 3
  store <4 x i32> %vecinit3.i, ptr %.compoundliteral.i, align 16
  %8 = load <4 x i32>, ptr %.compoundliteral.i, align 16
  %9 = bitcast <4 x i32> %8 to <2 x i64>
  store <2 x i64> %9, ptr @_ZN19OpenColorIO_v2_4devL5EMASKE, align 16
  ret void
}

; Function Attrs: uwtable
define internal void @__cxx_global_var_init.2() #4 section ".text.startup" {
entry:
  %__i3.addr.i = alloca i32, align 4
  %__i2.addr.i = alloca i32, align 4
  %__i1.addr.i = alloca i32, align 4
  %__i0.addr.i = alloca i32, align 4
  %.compoundliteral.i = alloca <4 x i32>, align 16
  %__i.addr.i = alloca i32, align 4
  store i32 127, ptr %__i.addr.i, align 4
  %0 = load i32, ptr %__i.addr.i, align 4
  %1 = load i32, ptr %__i.addr.i, align 4
  %2 = load i32, ptr %__i.addr.i, align 4
  %3 = load i32, ptr %__i.addr.i, align 4
  store i32 %0, ptr %__i3.addr.i, align 4
  store i32 %1, ptr %__i2.addr.i, align 4
  store i32 %2, ptr %__i1.addr.i, align 4
  store i32 %3, ptr %__i0.addr.i, align 4
  %4 = load i32, ptr %__i0.addr.i, align 4
  %vecinit.i = insertelement <4 x i32> undef, i32 %4, i32 0
  %5 = load i32, ptr %__i1.addr.i, align 4
  %vecinit1.i = insertelement <4 x i32> %vecinit.i, i32 %5, i32 1
  %6 = load i32, ptr %__i2.addr.i, align 4
  %vecinit2.i = insertelement <4 x i32> %vecinit1.i, i32 %6, i32 2
  %7 = load i32, ptr %__i3.addr.i, align 4
  %vecinit3.i = insertelement <4 x i32> %vecinit2.i, i32 %7, i32 3
  store <4 x i32> %vecinit3.i, ptr %.compoundliteral.i, align 16
  %8 = load <4 x i32>, ptr %.compoundliteral.i, align 16
  %9 = bitcast <4 x i32> %8 to <2 x i64>
  store <2 x i64> %9, ptr @_ZN19OpenColorIO_v2_4devL5EBIASE, align 16
  ret void
}

; Function Attrs: uwtable
define internal void @__cxx_global_var_init.3() #4 section ".text.startup" {
entry:
  %__w.addr.i = alloca float, align 4
  %.compoundliteral.i = alloca <4 x float>, align 16
  store float 1.000000e+00, ptr %__w.addr.i, align 4
  %0 = load float, ptr %__w.addr.i, align 4
  %vecinit.i = insertelement <4 x float> undef, float %0, i32 0
  %1 = load float, ptr %__w.addr.i, align 4
  %vecinit1.i = insertelement <4 x float> %vecinit.i, float %1, i32 1
  %2 = load float, ptr %__w.addr.i, align 4
  %vecinit2.i = insertelement <4 x float> %vecinit1.i, float %2, i32 2
  %3 = load float, ptr %__w.addr.i, align 4
  %vecinit3.i = insertelement <4 x float> %vecinit2.i, float %3, i32 3
  store <4 x float> %vecinit3.i, ptr %.compoundliteral.i, align 16
  %4 = load <4 x float>, ptr %.compoundliteral.i, align 16
  store <4 x float> %4, ptr @_ZN19OpenColorIO_v2_4devL4EONEE, align 16
  ret void
}

; Function Attrs: uwtable
define internal void @__cxx_global_var_init.4() #4 section ".text.startup" {
entry:
  %__w.addr.i = alloca float, align 4
  %.compoundliteral.i = alloca <4 x float>, align 16
  store float 0.000000e+00, ptr %__w.addr.i, align 4
  %0 = load float, ptr %__w.addr.i, align 4
  %vecinit.i = insertelement <4 x float> undef, float %0, i32 0
  %1 = load float, ptr %__w.addr.i, align 4
  %vecinit1.i = insertelement <4 x float> %vecinit.i, float %1, i32 1
  %2 = load float, ptr %__w.addr.i, align 4
  %vecinit2.i = insertelement <4 x float> %vecinit1.i, float %2, i32 2
  %3 = load float, ptr %__w.addr.i, align 4
  %vecinit3.i = insertelement <4 x float> %vecinit2.i, float %3, i32 3
  store <4 x float> %vecinit3.i, ptr %.compoundliteral.i, align 16
  %4 = load <4 x float>, ptr %.compoundliteral.i, align 16
  store <4 x float> %4, ptr @_ZN19OpenColorIO_v2_4devL5EZEROE, align 16
  ret void
}

; Function Attrs: uwtable
define internal void @__cxx_global_var_init.5() #4 section ".text.startup" {
entry:
  %__w.addr.i = alloca float, align 4
  %.compoundliteral.i = alloca <4 x float>, align 16
  store float -1.260000e+02, ptr %__w.addr.i, align 4
  %0 = load float, ptr %__w.addr.i, align 4
  %vecinit.i = insertelement <4 x float> undef, float %0, i32 0
  %1 = load float, ptr %__w.addr.i, align 4
  %vecinit1.i = insertelement <4 x float> %vecinit.i, float %1, i32 1
  %2 = load float, ptr %__w.addr.i, align 4
  %vecinit2.i = insertelement <4 x float> %vecinit1.i, float %2, i32 2
  %3 = load float, ptr %__w.addr.i, align 4
  %vecinit3.i = insertelement <4 x float> %vecinit2.i, float %3, i32 3
  store <4 x float> %vecinit3.i, ptr %.compoundliteral.i, align 16
  %4 = load <4 x float>, ptr %.compoundliteral.i, align 16
  store <4 x float> %4, ptr @_ZN19OpenColorIO_v2_4devL7ENEG126E, align 16
  ret void
}

; Function Attrs: uwtable
define internal void @__cxx_global_var_init.6() #4 section ".text.startup" {
entry:
  %__w.addr.i = alloca float, align 4
  %.compoundliteral.i = alloca <4 x float>, align 16
  store float 1.280000e+02, ptr %__w.addr.i, align 4
  %0 = load float, ptr %__w.addr.i, align 4
  %vecinit.i = insertelement <4 x float> undef, float %0, i32 0
  %1 = load float, ptr %__w.addr.i, align 4
  %vecinit1.i = insertelement <4 x float> %vecinit.i, float %1, i32 1
  %2 = load float, ptr %__w.addr.i, align 4
  %vecinit2.i = insertelement <4 x float> %vecinit1.i, float %2, i32 2
  %3 = load float, ptr %__w.addr.i, align 4
  %vecinit3.i = insertelement <4 x float> %vecinit2.i, float %3, i32 3
  store <4 x float> %vecinit3.i, ptr %.compoundliteral.i, align 16
  %4 = load <4 x float>, ptr %.compoundliteral.i, align 16
  store <4 x float> %4, ptr @_ZN19OpenColorIO_v2_4devL7EPOS128E, align 16
  ret void
}

; Function Attrs: uwtable
define internal void @__cxx_global_var_init.7() #4 section ".text.startup" {
entry:
  %__w.addr.i = alloca float, align 4
  %.compoundliteral.i = alloca <4 x float>, align 16
  %call = call noundef float @_ZNSt14numeric_limitsIfE8infinityEv() #3
  store float %call, ptr %__w.addr.i, align 4
  %0 = load float, ptr %__w.addr.i, align 4
  %vecinit.i = insertelement <4 x float> undef, float %0, i32 0
  %1 = load float, ptr %__w.addr.i, align 4
  %vecinit1.i = insertelement <4 x float> %vecinit.i, float %1, i32 1
  %2 = load float, ptr %__w.addr.i, align 4
  %vecinit2.i = insertelement <4 x float> %vecinit1.i, float %2, i32 2
  %3 = load float, ptr %__w.addr.i, align 4
  %vecinit3.i = insertelement <4 x float> %vecinit2.i, float %3, i32 3
  store <4 x float> %vecinit3.i, ptr %.compoundliteral.i, align 16
  %4 = load <4 x float>, ptr %.compoundliteral.i, align 16
  store <4 x float> %4, ptr @_ZN19OpenColorIO_v2_4devL7EPOSINFE, align 16
  ret void
}

; Function Attrs: mustprogress nounwind uwtable
define linkonce_odr hidden noundef float @_ZNSt14numeric_limitsIfE8infinityEv() #5 comdat align 2 {
entry:
  ret float 0x7FF0000000000000
}

; Function Attrs: uwtable
define internal void @__cxx_global_var_init.8() #4 section ".text.startup" {
entry:
  %__w.addr.i = alloca float, align 4
  %.compoundliteral.i = alloca <4 x float>, align 16
  store float 0x3FA6F9ACA0000000, ptr %__w.addr.i, align 4
  %0 = load float, ptr %__w.addr.i, align 4
  %vecinit.i = insertelement <4 x float> undef, float %0, i32 0
  %1 = load float, ptr %__w.addr.i, align 4
  %vecinit1.i = insertelement <4 x float> %vecinit.i, float %1, i32 1
  %2 = load float, ptr %__w.addr.i, align 4
  %vecinit2.i = insertelement <4 x float> %vecinit1.i, float %2, i32 2
  %3 = load float, ptr %__w.addr.i, align 4
  %vecinit3.i = insertelement <4 x float> %vecinit2.i, float %3, i32 3
  store <4 x float> %vecinit3.i, ptr %.compoundliteral.i, align 16
  %4 = load <4 x float>, ptr %.compoundliteral.i, align 16
  store <4 x float> %4, ptr @_ZN19OpenColorIO_v2_4devL6PNLOG5E, align 16
  ret void
}

; Function Attrs: uwtable
define internal void @__cxx_global_var_init.9() #4 section ".text.startup" {
entry:
  %__w.addr.i = alloca float, align 4
  %.compoundliteral.i = alloca <4 x float>, align 16
  store float 0xBFDAA8FAE0000000, ptr %__w.addr.i, align 4
  %0 = load float, ptr %__w.addr.i, align 4
  %vecinit.i = insertelement <4 x float> undef, float %0, i32 0
  %1 = load float, ptr %__w.addr.i, align 4
  %vecinit1.i = insertelement <4 x float> %vecinit.i, float %1, i32 1
  %2 = load float, ptr %__w.addr.i, align 4
  %vecinit2.i = insertelement <4 x float> %vecinit1.i, float %2, i32 2
  %3 = load float, ptr %__w.addr.i, align 4
  %vecinit3.i = insertelement <4 x float> %vecinit2.i, float %3, i32 3
  store <4 x float> %vecinit3.i, ptr %.compoundliteral.i, align 16
  %4 = load <4 x float>, ptr %.compoundliteral.i, align 16
  store <4 x float> %4, ptr @_ZN19OpenColorIO_v2_4devL6PNLOG4E, align 16
  ret void
}

; Function Attrs: uwtable
define internal void @__cxx_global_var_init.10() #4 section ".text.startup" {
entry:
  %__w.addr.i = alloca float, align 4
  %.compoundliteral.i = alloca <4 x float>, align 16
  store float 0x3FFA192F80000000, ptr %__w.addr.i, align 4
  %0 = load float, ptr %__w.addr.i, align 4
  %vecinit.i = insertelement <4 x float> undef, float %0, i32 0
  %1 = load float, ptr %__w.addr.i, align 4
  %vecinit1.i = insertelement <4 x float> %vecinit.i, float %1, i32 1
  %2 = load float, ptr %__w.addr.i, align 4
  %vecinit2.i = insertelement <4 x float> %vecinit1.i, float %2, i32 2
  %3 = load float, ptr %__w.addr.i, align 4
  %vecinit3.i = insertelement <4 x float> %vecinit2.i, float %3, i32 3
  store <4 x float> %vecinit3.i, ptr %.compoundliteral.i, align 16
  %4 = load <4 x float>, ptr %.compoundliteral.i, align 16
  store <4 x float> %4, ptr @_ZN19OpenColorIO_v2_4devL6PNLOG3E, align 16
  ret void
}

; Function Attrs: uwtable
define internal void @__cxx_global_var_init.11() #4 section ".text.startup" {
entry:
  %__w.addr.i = alloca float, align 4
  %.compoundliteral.i = alloca <4 x float>, align 16
  store float 0xC00C680620000000, ptr %__w.addr.i, align 4
  %0 = load float, ptr %__w.addr.i, align 4
  %vecinit.i = insertelement <4 x float> undef, float %0, i32 0
  %1 = load float, ptr %__w.addr.i, align 4
  %vecinit1.i = insertelement <4 x float> %vecinit.i, float %1, i32 1
  %2 = load float, ptr %__w.addr.i, align 4
  %vecinit2.i = insertelement <4 x float> %vecinit1.i, float %2, i32 2
  %3 = load float, ptr %__w.addr.i, align 4
  %vecinit3.i = insertelement <4 x float> %vecinit2.i, float %3, i32 3
  store <4 x float> %vecinit3.i, ptr %.compoundliteral.i, align 16
  %4 = load <4 x float>, ptr %.compoundliteral.i, align 16
  store <4 x float> %4, ptr @_ZN19OpenColorIO_v2_4devL6PNLOG2E, align 16
  ret void
}

; Function Attrs: uwtable
define internal void @__cxx_global_var_init.12() #4 section ".text.startup" {
entry:
  %__w.addr.i = alloca float, align 4
  %.compoundliteral.i = alloca <4 x float>, align 16
  store float 0x40145DE980000000, ptr %__w.addr.i, align 4
  %0 = load float, ptr %__w.addr.i, align 4
  %vecinit.i = insertelement <4 x float> undef, float %0, i32 0
  %1 = load float, ptr %__w.addr.i, align 4
  %vecinit1.i = insertelement <4 x float> %vecinit.i, float %1, i32 1
  %2 = load float, ptr %__w.addr.i, align 4
  %vecinit2.i = insertelement <4 x float> %vecinit1.i, float %2, i32 2
  %3 = load float, ptr %__w.addr.i, align 4
  %vecinit3.i = insertelement <4 x float> %vecinit2.i, float %3, i32 3
  store <4 x float> %vecinit3.i, ptr %.compoundliteral.i, align 16
  %4 = load <4 x float>, ptr %.compoundliteral.i, align 16
  store <4 x float> %4, ptr @_ZN19OpenColorIO_v2_4devL6PNLOG1E, align 16
  ret void
}

; Function Attrs: uwtable
define internal void @__cxx_global_var_init.13() #4 section ".text.startup" {
entry:
  %__w.addr.i = alloca float, align 4
  %.compoundliteral.i = alloca <4 x float>, align 16
  store float 0xC006672540000000, ptr %__w.addr.i, align 4
  %0 = load float, ptr %__w.addr.i, align 4
  %vecinit.i = insertelement <4 x float> undef, float %0, i32 0
  %1 = load float, ptr %__w.addr.i, align 4
  %vecinit1.i = insertelement <4 x float> %vecinit.i, float %1, i32 1
  %2 = load float, ptr %__w.addr.i, align 4
  %vecinit2.i = insertelement <4 x float> %vecinit1.i, float %2, i32 2
  %3 = load float, ptr %__w.addr.i, align 4
  %vecinit3.i = insertelement <4 x float> %vecinit2.i, float %3, i32 3
  store <4 x float> %vecinit3.i, ptr %.compoundliteral.i, align 16
  %4 = load <4 x float>, ptr %.compoundliteral.i, align 16
  store <4 x float> %4, ptr @_ZN19OpenColorIO_v2_4devL6PNLOG0E, align 16
  ret void
}

; Function Attrs: uwtable
define internal void @__cxx_global_var_init.14() #4 section ".text.startup" {
entry:
  %__w.addr.i = alloca float, align 4
  %.compoundliteral.i = alloca <4 x float>, align 16
  store float 0x3F8BB7CD40000000, ptr %__w.addr.i, align 4
  %0 = load float, ptr %__w.addr.i, align 4
  %vecinit.i = insertelement <4 x float> undef, float %0, i32 0
  %1 = load float, ptr %__w.addr.i, align 4
  %vecinit1.i = insertelement <4 x float> %vecinit.i, float %1, i32 1
  %2 = load float, ptr %__w.addr.i, align 4
  %vecinit2.i = insertelement <4 x float> %vecinit1.i, float %2, i32 2
  %3 = load float, ptr %__w.addr.i, align 4
  %vecinit3.i = insertelement <4 x float> %vecinit2.i, float %3, i32 3
  store <4 x float> %vecinit3.i, ptr %.compoundliteral.i, align 16
  %4 = load <4 x float>, ptr %.compoundliteral.i, align 16
  store <4 x float> %4, ptr @_ZN19OpenColorIO_v2_4devL6PNEXP4E, align 16
  ret void
}

; Function Attrs: uwtable
define internal void @__cxx_global_var_init.15() #4 section ".text.startup" {
entry:
  %__w.addr.i = alloca float, align 4
  %.compoundliteral.i = alloca <4 x float>, align 16
  store float 0x3FAAA13F00000000, ptr %__w.addr.i, align 4
  %0 = load float, ptr %__w.addr.i, align 4
  %vecinit.i = insertelement <4 x float> undef, float %0, i32 0
  %1 = load float, ptr %__w.addr.i, align 4
  %vecinit1.i = insertelement <4 x float> %vecinit.i, float %1, i32 1
  %2 = load float, ptr %__w.addr.i, align 4
  %vecinit2.i = insertelement <4 x float> %vecinit1.i, float %2, i32 2
  %3 = load float, ptr %__w.addr.i, align 4
  %vecinit3.i = insertelement <4 x float> %vecinit2.i, float %3, i32 3
  store <4 x float> %vecinit3.i, ptr %.compoundliteral.i, align 16
  %4 = load <4 x float>, ptr %.compoundliteral.i, align 16
  store <4 x float> %4, ptr @_ZN19OpenColorIO_v2_4devL6PNEXP3E, align 16
  ret void
}

; Function Attrs: uwtable
define internal void @__cxx_global_var_init.16() #4 section ".text.startup" {
entry:
  %__w.addr.i = alloca float, align 4
  %.compoundliteral.i = alloca <4 x float>, align 16
  store float 0x3FCEE798A0000000, ptr %__w.addr.i, align 4
  %0 = load float, ptr %__w.addr.i, align 4
  %vecinit.i = insertelement <4 x float> undef, float %0, i32 0
  %1 = load float, ptr %__w.addr.i, align 4
  %vecinit1.i = insertelement <4 x float> %vecinit.i, float %1, i32 1
  %2 = load float, ptr %__w.addr.i, align 4
  %vecinit2.i = insertelement <4 x float> %vecinit1.i, float %2, i32 2
  %3 = load float, ptr %__w.addr.i, align 4
  %vecinit3.i = insertelement <4 x float> %vecinit2.i, float %3, i32 3
  store <4 x float> %vecinit3.i, ptr %.compoundliteral.i, align 16
  %4 = load <4 x float>, ptr %.compoundliteral.i, align 16
  store <4 x float> %4, ptr @_ZN19OpenColorIO_v2_4devL6PNEXP2E, align 16
  ret void
}

; Function Attrs: uwtable
define internal void @__cxx_global_var_init.17() #4 section ".text.startup" {
entry:
  %__w.addr.i = alloca float, align 4
  %.compoundliteral.i = alloca <4 x float>, align 16
  store float 0x3FE62D1660000000, ptr %__w.addr.i, align 4
  %0 = load float, ptr %__w.addr.i, align 4
  %vecinit.i = insertelement <4 x float> undef, float %0, i32 0
  %1 = load float, ptr %__w.addr.i, align 4
  %vecinit1.i = insertelement <4 x float> %vecinit.i, float %1, i32 1
  %2 = load float, ptr %__w.addr.i, align 4
  %vecinit2.i = insertelement <4 x float> %vecinit1.i, float %2, i32 2
  %3 = load float, ptr %__w.addr.i, align 4
  %vecinit3.i = insertelement <4 x float> %vecinit2.i, float %3, i32 3
  store <4 x float> %vecinit3.i, ptr %.compoundliteral.i, align 16
  %4 = load <4 x float>, ptr %.compoundliteral.i, align 16
  store <4 x float> %4, ptr @_ZN19OpenColorIO_v2_4devL6PNEXP1E, align 16
  ret void
}

; Function Attrs: uwtable
define internal void @__cxx_global_var_init.18() #4 section ".text.startup" {
entry:
  %__w.addr.i = alloca float, align 4
  %.compoundliteral.i = alloca <4 x float>, align 16
  store float 0x3FF00002C0000000, ptr %__w.addr.i, align 4
  %0 = load float, ptr %__w.addr.i, align 4
  %vecinit.i = insertelement <4 x float> undef, float %0, i32 0
  %1 = load float, ptr %__w.addr.i, align 4
  %vecinit1.i = insertelement <4 x float> %vecinit.i, float %1, i32 1
  %2 = load float, ptr %__w.addr.i, align 4
  %vecinit2.i = insertelement <4 x float> %vecinit1.i, float %2, i32 2
  %3 = load float, ptr %__w.addr.i, align 4
  %vecinit3.i = insertelement <4 x float> %vecinit2.i, float %3, i32 3
  store <4 x float> %vecinit3.i, ptr %.compoundliteral.i, align 16
  %4 = load <4 x float>, ptr %.compoundliteral.i, align 16
  store <4 x float> %4, ptr @_ZN19OpenColorIO_v2_4devL6PNEXP0E, align 16
  ret void
}

; Function Attrs: uwtable
define internal void @__cxx_global_var_init.19() #4 section ".text.startup" {
entry:
  %__i3.addr.i = alloca i32, align 4
  %__i2.addr.i = alloca i32, align 4
  %__i1.addr.i = alloca i32, align 4
  %__i0.addr.i = alloca i32, align 4
  %.compoundliteral.i = alloca <4 x i32>, align 16
  %__a.addr.i = alloca <2 x i64>, align 16
  %__i.addr.i = alloca i32, align 4
  store i32 -2147483648, ptr %__i.addr.i, align 4
  %0 = load i32, ptr %__i.addr.i, align 4
  %1 = load i32, ptr %__i.addr.i, align 4
  %2 = load i32, ptr %__i.addr.i, align 4
  %3 = load i32, ptr %__i.addr.i, align 4
  store i32 %0, ptr %__i3.addr.i, align 4
  store i32 %1, ptr %__i2.addr.i, align 4
  store i32 %2, ptr %__i1.addr.i, align 4
  store i32 %3, ptr %__i0.addr.i, align 4
  %4 = load i32, ptr %__i0.addr.i, align 4
  %vecinit.i = insertelement <4 x i32> undef, i32 %4, i32 0
  %5 = load i32, ptr %__i1.addr.i, align 4
  %vecinit1.i = insertelement <4 x i32> %vecinit.i, i32 %5, i32 1
  %6 = load i32, ptr %__i2.addr.i, align 4
  %vecinit2.i = insertelement <4 x i32> %vecinit1.i, i32 %6, i32 2
  %7 = load i32, ptr %__i3.addr.i, align 4
  %vecinit3.i = insertelement <4 x i32> %vecinit2.i, i32 %7, i32 3
  store <4 x i32> %vecinit3.i, ptr %.compoundliteral.i, align 16
  %8 = load <4 x i32>, ptr %.compoundliteral.i, align 16
  %9 = bitcast <4 x i32> %8 to <2 x i64>
  store <2 x i64> %9, ptr %__a.addr.i, align 16
  %10 = load <2 x i64>, ptr %__a.addr.i, align 16
  %11 = bitcast <2 x i64> %10 to <4 x float>
  store <4 x float> %11, ptr @_ZN19OpenColorIO_v2_4devL10ESIGN_MASKE, align 16
  ret void
}

; Function Attrs: uwtable
define internal void @__cxx_global_var_init.20() #4 section ".text.startup" {
entry:
  %__i3.addr.i = alloca i32, align 4
  %__i2.addr.i = alloca i32, align 4
  %__i1.addr.i = alloca i32, align 4
  %__i0.addr.i = alloca i32, align 4
  %.compoundliteral.i = alloca <4 x i32>, align 16
  %__a.addr.i = alloca <2 x i64>, align 16
  %__i.addr.i = alloca i32, align 4
  store i32 2147483647, ptr %__i.addr.i, align 4
  %0 = load i32, ptr %__i.addr.i, align 4
  %1 = load i32, ptr %__i.addr.i, align 4
  %2 = load i32, ptr %__i.addr.i, align 4
  %3 = load i32, ptr %__i.addr.i, align 4
  store i32 %0, ptr %__i3.addr.i, align 4
  store i32 %1, ptr %__i2.addr.i, align 4
  store i32 %2, ptr %__i1.addr.i, align 4
  store i32 %3, ptr %__i0.addr.i, align 4
  %4 = load i32, ptr %__i0.addr.i, align 4
  %vecinit.i = insertelement <4 x i32> undef, i32 %4, i32 0
  %5 = load i32, ptr %__i1.addr.i, align 4
  %vecinit1.i = insertelement <4 x i32> %vecinit.i, i32 %5, i32 1
  %6 = load i32, ptr %__i2.addr.i, align 4
  %vecinit2.i = insertelement <4 x i32> %vecinit1.i, i32 %6, i32 2
  %7 = load i32, ptr %__i3.addr.i, align 4
  %vecinit3.i = insertelement <4 x i32> %vecinit2.i, i32 %7, i32 3
  store <4 x i32> %vecinit3.i, ptr %.compoundliteral.i, align 16
  %8 = load <4 x i32>, ptr %.compoundliteral.i, align 16
  %9 = bitcast <4 x i32> %8 to <2 x i64>
  store <2 x i64> %9, ptr %__a.addr.i, align 16
  %10 = load <2 x i64>, ptr %__a.addr.i, align 16
  %11 = bitcast <2 x i64> %10 to <4 x float>
  store <4 x float> %11, ptr @_ZN19OpenColorIO_v2_4devL9EABS_MASKE, align 16
  ret void
}

; Function Attrs: uwtable
define internal void @__cxx_global_var_init.21() #4 section ".text.startup" {
entry:
  %__w.addr.i = alloca float, align 4
  %.compoundliteral.i = alloca <4 x float>, align 16
  store float 0x400921FB60000000, ptr %__w.addr.i, align 4
  %0 = load float, ptr %__w.addr.i, align 4
  %vecinit.i = insertelement <4 x float> undef, float %0, i32 0
  %1 = load float, ptr %__w.addr.i, align 4
  %vecinit1.i = insertelement <4 x float> %vecinit.i, float %1, i32 1
  %2 = load float, ptr %__w.addr.i, align 4
  %vecinit2.i = insertelement <4 x float> %vecinit1.i, float %2, i32 2
  %3 = load float, ptr %__w.addr.i, align 4
  %vecinit3.i = insertelement <4 x float> %vecinit2.i, float %3, i32 3
  store <4 x float> %vecinit3.i, ptr %.compoundliteral.i, align 16
  %4 = load <4 x float>, ptr %.compoundliteral.i, align 16
  store <4 x float> %4, ptr @_ZN19OpenColorIO_v2_4devL4E_PIE, align 16
  ret void
}

; Function Attrs: uwtable
define internal void @__cxx_global_var_init.22() #4 section ".text.startup" {
entry:
  %__w.addr.i = alloca float, align 4
  %.compoundliteral.i = alloca <4 x float>, align 16
  store float 0x3FF921FB60000000, ptr %__w.addr.i, align 4
  %0 = load float, ptr %__w.addr.i, align 4
  %vecinit.i = insertelement <4 x float> undef, float %0, i32 0
  %1 = load float, ptr %__w.addr.i, align 4
  %vecinit1.i = insertelement <4 x float> %vecinit.i, float %1, i32 1
  %2 = load float, ptr %__w.addr.i, align 4
  %vecinit2.i = insertelement <4 x float> %vecinit1.i, float %2, i32 2
  %3 = load float, ptr %__w.addr.i, align 4
  %vecinit3.i = insertelement <4 x float> %vecinit2.i, float %3, i32 3
  store <4 x float> %vecinit3.i, ptr %.compoundliteral.i, align 16
  %4 = load <4 x float>, ptr %.compoundliteral.i, align 16
  store <4 x float> %4, ptr @_ZN19OpenColorIO_v2_4devL6E_PI_2E, align 16
  ret void
}

; Function Attrs: uwtable
define internal void @__cxx_global_var_init.23() #4 section ".text.startup" {
entry:
  %__w.addr.i = alloca float, align 4
  %.compoundliteral.i = alloca <4 x float>, align 16
  store float 0x3FD45F3060000000, ptr %__w.addr.i, align 4
  %0 = load float, ptr %__w.addr.i, align 4
  %vecinit.i = insertelement <4 x float> undef, float %0, i32 0
  %1 = load float, ptr %__w.addr.i, align 4
  %vecinit1.i = insertelement <4 x float> %vecinit.i, float %1, i32 1
  %2 = load float, ptr %__w.addr.i, align 4
  %vecinit2.i = insertelement <4 x float> %vecinit1.i, float %2, i32 2
  %3 = load float, ptr %__w.addr.i, align 4
  %vecinit3.i = insertelement <4 x float> %vecinit2.i, float %3, i32 3
  store <4 x float> %vecinit3.i, ptr %.compoundliteral.i, align 16
  %4 = load <4 x float>, ptr %.compoundliteral.i, align 16
  store <4 x float> %4, ptr @_ZN19OpenColorIO_v2_4devL6E_1_PIE, align 16
  ret void
}

; Function Attrs: uwtable
define internal void @__cxx_global_var_init.24() #4 section ".text.startup" {
entry:
  %__w.addr.i = alloca float, align 4
  %.compoundliteral.i = alloca <4 x float>, align 16
  store float 0x3F70EC8BA0000000, ptr %__w.addr.i, align 4
  %0 = load float, ptr %__w.addr.i, align 4
  %vecinit.i = insertelement <4 x float> undef, float %0, i32 0
  %1 = load float, ptr %__w.addr.i, align 4
  %vecinit1.i = insertelement <4 x float> %vecinit.i, float %1, i32 1
  %2 = load float, ptr %__w.addr.i, align 4
  %vecinit2.i = insertelement <4 x float> %vecinit1.i, float %2, i32 2
  %3 = load float, ptr %__w.addr.i, align 4
  %vecinit3.i = insertelement <4 x float> %vecinit2.i, float %3, i32 3
  store <4 x float> %vecinit3.i, ptr %.compoundliteral.i, align 16
  %4 = load <4 x float>, ptr %.compoundliteral.i, align 16
  store <4 x float> %4, ptr @_ZN19OpenColorIO_v2_4dev12_GLOBAL__N_115LogLinConstants5mxbrkE, align 16
  ret void
}

; Function Attrs: uwtable
define internal void @__cxx_global_var_init.25() #4 section ".text.startup" {
entry:
  %__w.addr.i = alloca float, align 4
  %.compoundliteral.i = alloca <4 x float>, align 16
  store float 0xBF24B08FE0000000, ptr %__w.addr.i, align 4
  %0 = load float, ptr %__w.addr.i, align 4
  %vecinit.i = insertelement <4 x float> undef, float %0, i32 0
  %1 = load float, ptr %__w.addr.i, align 4
  %vecinit1.i = insertelement <4 x float> %vecinit.i, float %1, i32 1
  %2 = load float, ptr %__w.addr.i, align 4
  %vecinit2.i = insertelement <4 x float> %vecinit1.i, float %2, i32 2
  %3 = load float, ptr %__w.addr.i, align 4
  %vecinit3.i = insertelement <4 x float> %vecinit2.i, float %3, i32 3
  store <4 x float> %vecinit3.i, ptr %.compoundliteral.i, align 16
  %4 = load <4 x float>, ptr %.compoundliteral.i, align 16
  store <4 x float> %4, ptr @_ZN19OpenColorIO_v2_4dev12_GLOBAL__N_115LogLinConstants6mshiftE, align 16
  ret void
}

; Function Attrs: uwtable
define internal void @__cxx_global_var_init.26() #4 section ".text.startup" {
entry:
  %__w.addr.i = alloca float, align 4
  %.compoundliteral.i = alloca <4 x float>, align 16
  store float 0x40163DE1C0000000, ptr %__w.addr.i, align 4
  %0 = load float, ptr %__w.addr.i, align 4
  %vecinit.i = insertelement <4 x float> undef, float %0, i32 0
  %1 = load float, ptr %__w.addr.i, align 4
  %vecinit1.i = insertelement <4 x float> %vecinit.i, float %1, i32 1
  %2 = load float, ptr %__w.addr.i, align 4
  %vecinit2.i = insertelement <4 x float> %vecinit1.i, float %2, i32 2
  %3 = load float, ptr %__w.addr.i, align 4
  %vecinit3.i = insertelement <4 x float> %vecinit2.i, float %3, i32 3
  store <4 x float> %vecinit3.i, ptr %.compoundliteral.i, align 16
  %4 = load <4 x float>, ptr %.compoundliteral.i, align 16
  store <4 x float> %4, ptr @_ZN19OpenColorIO_v2_4dev12_GLOBAL__N_115LogLinConstants2mmE, align 16
  ret void
}

; Function Attrs: uwtable
define internal void @__cxx_global_var_init.27() #4 section ".text.startup" {
entry:
  %__w.addr.i = alloca float, align 4
  %.compoundliteral.i = alloca <4 x float>, align 16
  store float 0x4076B08DC0000000, ptr %__w.addr.i, align 4
  %0 = load float, ptr %__w.addr.i, align 4
  %vecinit.i = insertelement <4 x float> undef, float %0, i32 0
  %1 = load float, ptr %__w.addr.i, align 4
  %vecinit1.i = insertelement <4 x float> %vecinit.i, float %1, i32 1
  %2 = load float, ptr %__w.addr.i, align 4
  %vecinit2.i = insertelement <4 x float> %vecinit1.i, float %2, i32 2
  %3 = load float, ptr %__w.addr.i, align 4
  %vecinit3.i = insertelement <4 x float> %vecinit2.i, float %3, i32 3
  store <4 x float> %vecinit3.i, ptr %.compoundliteral.i, align 16
  %4 = load <4 x float>, ptr %.compoundliteral.i, align 16
  store <4 x float> %4, ptr @_ZN19OpenColorIO_v2_4dev12_GLOBAL__N_115LogLinConstants5mgainE, align 16
  ret void
}

; Function Attrs: uwtable
define internal void @__cxx_global_var_init.28() #4 section ".text.startup" {
entry:
  %__w.addr.i = alloca float, align 4
  %.compoundliteral.i = alloca <4 x float>, align 16
  store float -7.000000e+00, ptr %__w.addr.i, align 4
  %0 = load float, ptr %__w.addr.i, align 4
  %vecinit.i = insertelement <4 x float> undef, float %0, i32 0
  %1 = load float, ptr %__w.addr.i, align 4
  %vecinit1.i = insertelement <4 x float> %vecinit.i, float %1, i32 1
  %2 = load float, ptr %__w.addr.i, align 4
  %vecinit2.i = insertelement <4 x float> %vecinit1.i, float %2, i32 2
  %3 = load float, ptr %__w.addr.i, align 4
  %vecinit3.i = insertelement <4 x float> %vecinit2.i, float %3, i32 3
  store <4 x float> %vecinit3.i, ptr %.compoundliteral.i, align 16
  %4 = load <4 x float>, ptr %.compoundliteral.i, align 16
  store <4 x float> %4, ptr @_ZN19OpenColorIO_v2_4dev12_GLOBAL__N_115LogLinConstants5moffsE, align 16
  ret void
}

; Function Attrs: uwtable
define internal void @__cxx_global_var_init.29() #4 section ".text.startup" {
entry:
  %__w.addr.i = alloca float, align 4
  %.compoundliteral.i = alloca <4 x float>, align 16
  store float -5.500000e+00, ptr %__w.addr.i, align 4
  %0 = load float, ptr %__w.addr.i, align 4
  %vecinit.i = insertelement <4 x float> undef, float %0, i32 0
  %1 = load float, ptr %__w.addr.i, align 4
  %vecinit1.i = insertelement <4 x float> %vecinit.i, float %1, i32 1
  %2 = load float, ptr %__w.addr.i, align 4
  %vecinit2.i = insertelement <4 x float> %vecinit1.i, float %2, i32 2
  %3 = load float, ptr %__w.addr.i, align 4
  %vecinit3.i = insertelement <4 x float> %vecinit2.i, float %3, i32 3
  store <4 x float> %vecinit3.i, ptr %.compoundliteral.i, align 16
  %4 = load <4 x float>, ptr %.compoundliteral.i, align 16
  store <4 x float> %4, ptr @_ZN19OpenColorIO_v2_4dev12_GLOBAL__N_115LogLinConstants5mybrkE, align 16
  ret void
}

; Function Attrs: uwtable
define internal void @__cxx_global_var_init.30() #4 section ".text.startup" {
entry:
  %__w.addr.i = alloca float, align 4
  %.compoundliteral.i = alloca <4 x float>, align 16
  store float 0x3F6690BA40000000, ptr %__w.addr.i, align 4
  %0 = load float, ptr %__w.addr.i, align 4
  %vecinit.i = insertelement <4 x float> undef, float %0, i32 0
  %1 = load float, ptr %__w.addr.i, align 4
  %vecinit1.i = insertelement <4 x float> %vecinit.i, float %1, i32 1
  %2 = load float, ptr %__w.addr.i, align 4
  %vecinit2.i = insertelement <4 x float> %vecinit1.i, float %2, i32 2
  %3 = load float, ptr %__w.addr.i, align 4
  %vecinit3.i = insertelement <4 x float> %vecinit2.i, float %3, i32 3
  store <4 x float> %vecinit3.i, ptr %.compoundliteral.i, align 16
  %4 = load <4 x float>, ptr %.compoundliteral.i, align 16
  store <4 x float> %4, ptr @_ZN19OpenColorIO_v2_4dev12_GLOBAL__N_115LogLinConstants8mgainInvE, align 16
  ret void
}

; Function Attrs: uwtable
define internal void @__cxx_global_var_init.31() #4 section ".text.startup" {
entry:
  %__w.addr.i = alloca float, align 4
  %.compoundliteral.i = alloca <4 x float>, align 16
  store float 0x3FC7051160000000, ptr %__w.addr.i, align 4
  %0 = load float, ptr %__w.addr.i, align 4
  %vecinit.i = insertelement <4 x float> undef, float %0, i32 0
  %1 = load float, ptr %__w.addr.i, align 4
  %vecinit1.i = insertelement <4 x float> %vecinit.i, float %1, i32 1
  %2 = load float, ptr %__w.addr.i, align 4
  %vecinit2.i = insertelement <4 x float> %vecinit1.i, float %2, i32 2
  %3 = load float, ptr %__w.addr.i, align 4
  %vecinit3.i = insertelement <4 x float> %vecinit2.i, float %3, i32 3
  store <4 x float> %vecinit3.i, ptr %.compoundliteral.i, align 16
  %4 = load <4 x float>, ptr %.compoundliteral.i, align 16
  store <4 x float> %4, ptr @_ZN19OpenColorIO_v2_4dev12_GLOBAL__N_115LogLinConstants9mshift018E, align 16
  ret void
}

; Function Attrs: uwtable
define internal void @__cxx_global_var_init.32() #4 section ".text.startup" {
entry:
  %__w.addr.i = alloca float, align 4
  %.compoundliteral.i = alloca <4 x float>, align 16
  store float 2.000000e+00, ptr %__w.addr.i, align 4
  %0 = load float, ptr %__w.addr.i, align 4
  %vecinit.i = insertelement <4 x float> undef, float %0, i32 0
  %1 = load float, ptr %__w.addr.i, align 4
  %vecinit1.i = insertelement <4 x float> %vecinit.i, float %1, i32 1
  %2 = load float, ptr %__w.addr.i, align 4
  %vecinit2.i = insertelement <4 x float> %vecinit1.i, float %2, i32 2
  %3 = load float, ptr %__w.addr.i, align 4
  %vecinit3.i = insertelement <4 x float> %vecinit2.i, float %3, i32 3
  store <4 x float> %vecinit3.i, ptr %.compoundliteral.i, align 16
  %4 = load <4 x float>, ptr %.compoundliteral.i, align 16
  store <4 x float> %4, ptr @_ZN19OpenColorIO_v2_4dev12_GLOBAL__N_115LogLinConstants6mpowerE, align 16
  ret void
}

; Function Attrs: mustprogress uwtable
define hidden void @_ZN19OpenColorIO_v2_4dev25GetGradingToneCPURendererERSt10shared_ptrIKNS_17GradingToneOpDataEE(ptr noalias sret(%"class.std::shared_ptr") align 8 %agg.result, ptr noundef nonnull align 8 dereferenceable(16) %tone) #6 personality ptr @__gxx_personality_v0 {
entry:
  %result.ptr = alloca ptr, align 8
  %tone.addr = alloca ptr, align 8
  %ref.tmp = alloca %"class.std::shared_ptr.14", align 8
  %ref.tmp4 = alloca %"class.std::shared_ptr.17", align 8
  %ref.tmp10 = alloca %"class.std::shared_ptr.20", align 8
  %ref.tmp12 = alloca %"class.std::shared_ptr.23", align 8
  %exn.slot = alloca ptr, align 8
  %ehselector.slot = alloca i32, align 4
  store ptr %agg.result, ptr %result.ptr, align 8
  store ptr %tone, ptr %tone.addr, align 8
  %0 = load ptr, ptr %tone.addr, align 8
  %call = call noundef ptr @_ZNKSt19__shared_ptr_accessIKN19OpenColorIO_v2_4dev17GradingToneOpDataELN9__gnu_cxx12_Lock_policyE2ELb0ELb0EEptEv(ptr noundef nonnull align 1 dereferenceable(1) %0) #3
  %call1 = call noundef i32 @_ZNK19OpenColorIO_v2_4dev17GradingToneOpData12getDirectionEv(ptr noundef nonnull align 8 dereferenceable(196) %call) #3
  switch i32 %call1, label %sw.epilog [
    i32 0, label %sw.bb
    i32 1, label %sw.bb5
  ]

sw.bb:                                            ; preds = %entry
  %1 = load ptr, ptr %tone.addr, align 8
  %call2 = call noundef ptr @_ZNKSt19__shared_ptr_accessIKN19OpenColorIO_v2_4dev17GradingToneOpDataELN9__gnu_cxx12_Lock_policyE2ELb0ELb0EEptEv(ptr noundef nonnull align 1 dereferenceable(1) %1) #3
  %call3 = call noundef i32 @_ZNK19OpenColorIO_v2_4dev17GradingToneOpData8getStyleEv(ptr noundef nonnull align 8 dereferenceable(196) %call2) #3
  %cmp = icmp eq i32 %call3, 1
  br i1 %cmp, label %if.then, label %if.end

if.then:                                          ; preds = %sw.bb
  %2 = load ptr, ptr %tone.addr, align 8
  call void @_ZSt11make_sharedIN19OpenColorIO_v2_4dev12_GLOBAL__N_125GradingToneLinearFwdOpCPUEJRSt10shared_ptrIKNS0_17GradingToneOpDataEEEES3_INSt9enable_ifIXntsr8is_arrayIT_EE5valueES9_E4typeEEDpOT0_(ptr sret(%"class.std::shared_ptr.14") align 8 %ref.tmp, ptr noundef nonnull align 8 dereferenceable(16) %2)
  call void @_ZNSt10shared_ptrIKN19OpenColorIO_v2_4dev5OpCPUEEC2INS0_12_GLOBAL__N_125GradingToneLinearFwdOpCPUEvEEOS_IT_E(ptr noundef nonnull align 8 dereferenceable(16) %agg.result, ptr noundef nonnull align 8 dereferenceable(16) %ref.tmp) #3
  call void @_ZNSt10shared_ptrIN19OpenColorIO_v2_4dev12_GLOBAL__N_125GradingToneLinearFwdOpCPUEED2Ev(ptr noundef nonnull align 8 dereferenceable(16) %ref.tmp) #3
  br label %return

if.end:                                           ; preds = %sw.bb
  %3 = load ptr, ptr %tone.addr, align 8
  call void @_ZSt11make_sharedIN19OpenColorIO_v2_4dev12_GLOBAL__N_119GradingToneFwdOpCPUEJRSt10shared_ptrIKNS0_17GradingToneOpDataEEEES3_INSt9enable_ifIXntsr8is_arrayIT_EE5valueES9_E4typeEEDpOT0_(ptr sret(%"class.std::shared_ptr.17") align 8 %ref.tmp4, ptr noundef nonnull align 8 dereferenceable(16) %3)
  call void @_ZNSt10shared_ptrIKN19OpenColorIO_v2_4dev5OpCPUEEC2INS0_12_GLOBAL__N_119GradingToneFwdOpCPUEvEEOS_IT_E(ptr noundef nonnull align 8 dereferenceable(16) %agg.result, ptr noundef nonnull align 8 dereferenceable(16) %ref.tmp4) #3
  call void @_ZNSt10shared_ptrIN19OpenColorIO_v2_4dev12_GLOBAL__N_119GradingToneFwdOpCPUEED2Ev(ptr noundef nonnull align 8 dereferenceable(16) %ref.tmp4) #3
  br label %return

sw.bb5:                                           ; preds = %entry
  %4 = load ptr, ptr %tone.addr, align 8
  %call6 = call noundef ptr @_ZNKSt19__shared_ptr_accessIKN19OpenColorIO_v2_4dev17GradingToneOpDataELN9__gnu_cxx12_Lock_policyE2ELb0ELb0EEptEv(ptr noundef nonnull align 1 dereferenceable(1) %4) #3
  %call7 = call noundef i32 @_ZNK19OpenColorIO_v2_4dev17GradingToneOpData8getStyleEv(ptr noundef nonnull align 8 dereferenceable(196) %call6) #3
  %cmp8 = icmp eq i32 %call7, 1
  br i1 %cmp8, label %if.then9, label %if.end11

if.then9:                                         ; preds = %sw.bb5
  %5 = load ptr, ptr %tone.addr, align 8
  call void @_ZSt11make_sharedIN19OpenColorIO_v2_4dev12_GLOBAL__N_125GradingToneLinearRevOpCPUEJRSt10shared_ptrIKNS0_17GradingToneOpDataEEEES3_INSt9enable_ifIXntsr8is_arrayIT_EE5valueES9_E4typeEEDpOT0_(ptr sret(%"class.std::shared_ptr.20") align 8 %ref.tmp10, ptr noundef nonnull align 8 dereferenceable(16) %5)
  call void @_ZNSt10shared_ptrIKN19OpenColorIO_v2_4dev5OpCPUEEC2INS0_12_GLOBAL__N_125GradingToneLinearRevOpCPUEvEEOS_IT_E(ptr noundef nonnull align 8 dereferenceable(16) %agg.result, ptr noundef nonnull align 8 dereferenceable(16) %ref.tmp10) #3
  call void @_ZNSt10shared_ptrIN19OpenColorIO_v2_4dev12_GLOBAL__N_125GradingToneLinearRevOpCPUEED2Ev(ptr noundef nonnull align 8 dereferenceable(16) %ref.tmp10) #3
  br label %return

if.end11:                                         ; preds = %sw.bb5
  %6 = load ptr, ptr %tone.addr, align 8
  call void @_ZSt11make_sharedIN19OpenColorIO_v2_4dev12_GLOBAL__N_119GradingToneRevOpCPUEJRSt10shared_ptrIKNS0_17GradingToneOpDataEEEES3_INSt9enable_ifIXntsr8is_arrayIT_EE5valueES9_E4typeEEDpOT0_(ptr sret(%"class.std::shared_ptr.23") align 8 %ref.tmp12, ptr noundef nonnull align 8 dereferenceable(16) %6)
  call void @_ZNSt10shared_ptrIKN19OpenColorIO_v2_4dev5OpCPUEEC2INS0_12_GLOBAL__N_119GradingToneRevOpCPUEvEEOS_IT_E(ptr noundef nonnull align 8 dereferenceable(16) %agg.result, ptr noundef nonnull align 8 dereferenceable(16) %ref.tmp12) #3
  call void @_ZNSt10shared_ptrIN19OpenColorIO_v2_4dev12_GLOBAL__N_119GradingToneRevOpCPUEED2Ev(ptr noundef nonnull align 8 dereferenceable(16) %ref.tmp12) #3
  br label %return

sw.epilog:                                        ; preds = %entry
  %exception = call ptr @__cxa_allocate_exception(i64 16) #3
  invoke void @_ZN19OpenColorIO_v2_4dev9ExceptionC1EPKc(ptr noundef nonnull align 8 dereferenceable(16) %exception, ptr noundef @.str)
          to label %invoke.cont unwind label %lpad

invoke.cont:                                      ; preds = %sw.epilog
  call void @__cxa_throw(ptr %exception, ptr @_ZTIN19OpenColorIO_v2_4dev9ExceptionE, ptr @_ZN19OpenColorIO_v2_4dev9ExceptionD1Ev) #18
  unreachable

lpad:                                             ; preds = %sw.epilog
  %7 = landingpad { ptr, i32 }
          cleanup
  %8 = extractvalue { ptr, i32 } %7, 0
  store ptr %8, ptr %exn.slot, align 8
  %9 = extractvalue { ptr, i32 } %7, 1
  store i32 %9, ptr %ehselector.slot, align 4
  call void @__cxa_free_exception(ptr %exception) #3
  br label %eh.resume

return:                                           ; preds = %if.end11, %if.then9, %if.end, %if.then
  ret void

eh.resume:                                        ; preds = %lpad
  %exn = load ptr, ptr %exn.slot, align 8
  %sel = load i32, ptr %ehselector.slot, align 4
  %lpad.val = insertvalue { ptr, i32 } poison, ptr %exn, 0
  %lpad.val13 = insertvalue { ptr, i32 } %lpad.val, i32 %sel, 1
  resume { ptr, i32 } %lpad.val13
}

; Function Attrs: mustprogress nounwind uwtable
define linkonce_odr hidden noundef ptr @_ZNKSt19__shared_ptr_accessIKN19OpenColorIO_v2_4dev17GradingToneOpDataELN9__gnu_cxx12_Lock_policyE2ELb0ELb0EEptEv(ptr noundef nonnull align 1 dereferenceable(1) %this) #5 comdat align 2 {
entry:
  %this.addr = alloca ptr, align 8
  store ptr %this, ptr %this.addr, align 8
  %this1 = load ptr, ptr %this.addr, align 8
  %call = call noundef ptr @_ZNKSt19__shared_ptr_accessIKN19OpenColorIO_v2_4dev17GradingToneOpDataELN9__gnu_cxx12_Lock_policyE2ELb0ELb0EE6_M_getEv(ptr noundef nonnull align 1 dereferenceable(1) %this1) #3
  ret ptr %call
}

; Function Attrs: nounwind
declare noundef i32 @_ZNK19OpenColorIO_v2_4dev17GradingToneOpData12getDirectionEv(ptr noundef nonnull align 8 dereferenceable(196)) #2

; Function Attrs: mustprogress nounwind uwtable
define linkonce_odr hidden noundef i32 @_ZNK19OpenColorIO_v2_4dev17GradingToneOpData8getStyleEv(ptr noundef nonnull align 8 dereferenceable(196) %this) #5 comdat align 2 {
entry:
  %this.addr = alloca ptr, align 8
  store ptr %this, ptr %this.addr, align 8
  %this1 = load ptr, ptr %this.addr, align 8
  %m_style = getelementptr inbounds %"class.OpenColorIO_v2_4dev::GradingToneOpData", ptr %this1, i32 0, i32 1
  %0 = load i32, ptr %m_style, align 8
  ret i32 %0
}

; Function Attrs: mustprogress uwtable
define internal void @_ZSt11make_sharedIN19OpenColorIO_v2_4dev12_GLOBAL__N_125GradingToneLinearFwdOpCPUEJRSt10shared_ptrIKNS0_17GradingToneOpDataEEEES3_INSt9enable_ifIXntsr8is_arrayIT_EE5valueES9_E4typeEEDpOT0_(ptr noalias sret(%"class.std::shared_ptr.14") align 8 %agg.result, ptr noundef nonnull align 8 dereferenceable(16) %__args) #6 {
entry:
  %result.ptr = alloca ptr, align 8
  %__args.addr = alloca ptr, align 8
  %__a = alloca %"class.std::allocator.27", align 1
  %agg.tmp = alloca %"struct.std::_Sp_alloc_shared_tag", align 8
  store ptr %agg.result, ptr %result.ptr, align 8
  store ptr %__args, ptr %__args.addr, align 8
  %_M_a = getelementptr inbounds %"struct.std::_Sp_alloc_shared_tag", ptr %agg.tmp, i32 0, i32 0
  store ptr %__a, ptr %_M_a, align 8
  %0 = load ptr, ptr %__args.addr, align 8
  %coerce.dive = getelementptr inbounds %"struct.std::_Sp_alloc_shared_tag", ptr %agg.tmp, i32 0, i32 0
  %1 = load ptr, ptr %coerce.dive, align 8
  call void @_ZNSt10shared_ptrIN19OpenColorIO_v2_4dev12_GLOBAL__N_125GradingToneLinearFwdOpCPUEEC2ISaIvEJRS_IKNS0_17GradingToneOpDataEEEEESt20_Sp_alloc_shared_tagIT_EDpOT0_(ptr noundef nonnull align 8 dereferenceable(16) %agg.result, ptr %1, ptr noundef nonnull align 8 dereferenceable(16) %0)
  ret void
}

; Function Attrs: mustprogress nounwind uwtable
define internal void @_ZNSt10shared_ptrIKN19OpenColorIO_v2_4dev5OpCPUEEC2INS0_12_GLOBAL__N_125GradingToneLinearFwdOpCPUEvEEOS_IT_E(ptr noundef nonnull align 8 dereferenceable(16) %this, ptr noundef nonnull align 8 dereferenceable(16) %__r) unnamed_addr #5 align 2 {
entry:
  %this.addr = alloca ptr, align 8
  %__r.addr = alloca ptr, align 8
  store ptr %this, ptr %this.addr, align 8
  store ptr %__r, ptr %__r.addr, align 8
  %this1 = load ptr, ptr %this.addr, align 8
  %0 = load ptr, ptr %__r.addr, align 8
  call void @_ZNSt12__shared_ptrIKN19OpenColorIO_v2_4dev5OpCPUELN9__gnu_cxx12_Lock_policyE2EEC2INS0_12_GLOBAL__N_125GradingToneLinearFwdOpCPUEvEEOS_IT_LS4_2EE(ptr noundef nonnull align 8 dereferenceable(16) %this1, ptr noundef nonnull align 8 dereferenceable(16) %0) #3
  ret void
}

; Function Attrs: mustprogress nounwind uwtable
define internal void @_ZNSt10shared_ptrIN19OpenColorIO_v2_4dev12_GLOBAL__N_125GradingToneLinearFwdOpCPUEED2Ev(ptr noundef nonnull align 8 dereferenceable(16) %this) unnamed_addr #5 align 2 {
entry:
  %this.addr = alloca ptr, align 8
  store ptr %this, ptr %this.addr, align 8
  %this1 = load ptr, ptr %this.addr, align 8
  call void @_ZNSt12__shared_ptrIN19OpenColorIO_v2_4dev12_GLOBAL__N_125GradingToneLinearFwdOpCPUELN9__gnu_cxx12_Lock_policyE2EED2Ev(ptr noundef nonnull align 8 dereferenceable(16) %this1) #3
  ret void
}

; Function Attrs: mustprogress uwtable
define internal void @_ZSt11make_sharedIN19OpenColorIO_v2_4dev12_GLOBAL__N_119GradingToneFwdOpCPUEJRSt10shared_ptrIKNS0_17GradingToneOpDataEEEES3_INSt9enable_ifIXntsr8is_arrayIT_EE5valueES9_E4typeEEDpOT0_(ptr noalias sret(%"class.std::shared_ptr.17") align 8 %agg.result, ptr noundef nonnull align 8 dereferenceable(16) %__args) #6 {
entry:
  %result.ptr = alloca ptr, align 8
  %__args.addr = alloca ptr, align 8
  %__a = alloca %"class.std::allocator.27", align 1
  %agg.tmp = alloca %"struct.std::_Sp_alloc_shared_tag", align 8
  store ptr %agg.result, ptr %result.ptr, align 8
  store ptr %__args, ptr %__args.addr, align 8
  %_M_a = getelementptr inbounds %"struct.std::_Sp_alloc_shared_tag", ptr %agg.tmp, i32 0, i32 0
  store ptr %__a, ptr %_M_a, align 8
  %0 = load ptr, ptr %__args.addr, align 8
  %coerce.dive = getelementptr inbounds %"struct.std::_Sp_alloc_shared_tag", ptr %agg.tmp, i32 0, i32 0
  %1 = load ptr, ptr %coerce.dive, align 8
  call void @_ZNSt10shared_ptrIN19OpenColorIO_v2_4dev12_GLOBAL__N_119GradingToneFwdOpCPUEEC2ISaIvEJRS_IKNS0_17GradingToneOpDataEEEEESt20_Sp_alloc_shared_tagIT_EDpOT0_(ptr noundef nonnull align 8 dereferenceable(16) %agg.result, ptr %1, ptr noundef nonnull align 8 dereferenceable(16) %0)
  ret void
}

; Function Attrs: mustprogress nounwind uwtable
define internal void @_ZNSt10shared_ptrIKN19OpenColorIO_v2_4dev5OpCPUEEC2INS0_12_GLOBAL__N_119GradingToneFwdOpCPUEvEEOS_IT_E(ptr noundef nonnull align 8 dereferenceable(16) %this, ptr noundef nonnull align 8 dereferenceable(16) %__r) unnamed_addr #5 align 2 {
entry:
  %this.addr = alloca ptr, align 8
  %__r.addr = alloca ptr, align 8
  store ptr %this, ptr %this.addr, align 8
  store ptr %__r, ptr %__r.addr, align 8
  %this1 = load ptr, ptr %this.addr, align 8
  %0 = load ptr, ptr %__r.addr, align 8
  call void @_ZNSt12__shared_ptrIKN19OpenColorIO_v2_4dev5OpCPUELN9__gnu_cxx12_Lock_policyE2EEC2INS0_12_GLOBAL__N_119GradingToneFwdOpCPUEvEEOS_IT_LS4_2EE(ptr noundef nonnull align 8 dereferenceable(16) %this1, ptr noundef nonnull align 8 dereferenceable(16) %0) #3
  ret void
}

; Function Attrs: mustprogress nounwind uwtable
define internal void @_ZNSt10shared_ptrIN19OpenColorIO_v2_4dev12_GLOBAL__N_119GradingToneFwdOpCPUEED2Ev(ptr noundef nonnull align 8 dereferenceable(16) %this) unnamed_addr #5 align 2 {
entry:
  %this.addr = alloca ptr, align 8
  store ptr %this, ptr %this.addr, align 8
  %this1 = load ptr, ptr %this.addr, align 8
  call void @_ZNSt12__shared_ptrIN19OpenColorIO_v2_4dev12_GLOBAL__N_119GradingToneFwdOpCPUELN9__gnu_cxx12_Lock_policyE2EED2Ev(ptr noundef nonnull align 8 dereferenceable(16) %this1) #3
  ret void
}

; Function Attrs: mustprogress uwtable
define internal void @_ZSt11make_sharedIN19OpenColorIO_v2_4dev12_GLOBAL__N_125GradingToneLinearRevOpCPUEJRSt10shared_ptrIKNS0_17GradingToneOpDataEEEES3_INSt9enable_ifIXntsr8is_arrayIT_EE5valueES9_E4typeEEDpOT0_(ptr noalias sret(%"class.std::shared_ptr.20") align 8 %agg.result, ptr noundef nonnull align 8 dereferenceable(16) %__args) #6 {
entry:
  %result.ptr = alloca ptr, align 8
  %__args.addr = alloca ptr, align 8
  %__a = alloca %"class.std::allocator.27", align 1
  %agg.tmp = alloca %"struct.std::_Sp_alloc_shared_tag", align 8
  store ptr %agg.result, ptr %result.ptr, align 8
  store ptr %__args, ptr %__args.addr, align 8
  %_M_a = getelementptr inbounds %"struct.std::_Sp_alloc_shared_tag", ptr %agg.tmp, i32 0, i32 0
  store ptr %__a, ptr %_M_a, align 8
  %0 = load ptr, ptr %__args.addr, align 8
  %coerce.dive = getelementptr inbounds %"struct.std::_Sp_alloc_shared_tag", ptr %agg.tmp, i32 0, i32 0
  %1 = load ptr, ptr %coerce.dive, align 8
  call void @_ZNSt10shared_ptrIN19OpenColorIO_v2_4dev12_GLOBAL__N_125GradingToneLinearRevOpCPUEEC2ISaIvEJRS_IKNS0_17GradingToneOpDataEEEEESt20_Sp_alloc_shared_tagIT_EDpOT0_(ptr noundef nonnull align 8 dereferenceable(16) %agg.result, ptr %1, ptr noundef nonnull align 8 dereferenceable(16) %0)
  ret void
}

; Function Attrs: mustprogress nounwind uwtable
define internal void @_ZNSt10shared_ptrIKN19OpenColorIO_v2_4dev5OpCPUEEC2INS0_12_GLOBAL__N_125GradingToneLinearRevOpCPUEvEEOS_IT_E(ptr noundef nonnull align 8 dereferenceable(16) %this, ptr noundef nonnull align 8 dereferenceable(16) %__r) unnamed_addr #5 align 2 {
entry:
  %this.addr = alloca ptr, align 8
  %__r.addr = alloca ptr, align 8
  store ptr %this, ptr %this.addr, align 8
  store ptr %__r, ptr %__r.addr, align 8
  %this1 = load ptr, ptr %this.addr, align 8
  %0 = load ptr, ptr %__r.addr, align 8
  call void @_ZNSt12__shared_ptrIKN19OpenColorIO_v2_4dev5OpCPUELN9__gnu_cxx12_Lock_policyE2EEC2INS0_12_GLOBAL__N_125GradingToneLinearRevOpCPUEvEEOS_IT_LS4_2EE(ptr noundef nonnull align 8 dereferenceable(16) %this1, ptr noundef nonnull align 8 dereferenceable(16) %0) #3
  ret void
}

; Function Attrs: mustprogress nounwind uwtable
define internal void @_ZNSt10shared_ptrIN19OpenColorIO_v2_4dev12_GLOBAL__N_125GradingToneLinearRevOpCPUEED2Ev(ptr noundef nonnull align 8 dereferenceable(16) %this) unnamed_addr #5 align 2 {
entry:
  %this.addr = alloca ptr, align 8
  store ptr %this, ptr %this.addr, align 8
  %this1 = load ptr, ptr %this.addr, align 8
  call void @_ZNSt12__shared_ptrIN19OpenColorIO_v2_4dev12_GLOBAL__N_125GradingToneLinearRevOpCPUELN9__gnu_cxx12_Lock_policyE2EED2Ev(ptr noundef nonnull align 8 dereferenceable(16) %this1) #3
  ret void
}

; Function Attrs: mustprogress uwtable
define internal void @_ZSt11make_sharedIN19OpenColorIO_v2_4dev12_GLOBAL__N_119GradingToneRevOpCPUEJRSt10shared_ptrIKNS0_17GradingToneOpDataEEEES3_INSt9enable_ifIXntsr8is_arrayIT_EE5valueES9_E4typeEEDpOT0_(ptr noalias sret(%"class.std::shared_ptr.23") align 8 %agg.result, ptr noundef nonnull align 8 dereferenceable(16) %__args) #6 {
entry:
  %result.ptr = alloca ptr, align 8
  %__args.addr = alloca ptr, align 8
  %__a = alloca %"class.std::allocator.27", align 1
  %agg.tmp = alloca %"struct.std::_Sp_alloc_shared_tag", align 8
  store ptr %agg.result, ptr %result.ptr, align 8
  store ptr %__args, ptr %__args.addr, align 8
  %_M_a = getelementptr inbounds %"struct.std::_Sp_alloc_shared_tag", ptr %agg.tmp, i32 0, i32 0
  store ptr %__a, ptr %_M_a, align 8
  %0 = load ptr, ptr %__args.addr, align 8
  %coerce.dive = getelementptr inbounds %"struct.std::_Sp_alloc_shared_tag", ptr %agg.tmp, i32 0, i32 0
  %1 = load ptr, ptr %coerce.dive, align 8
  call void @_ZNSt10shared_ptrIN19OpenColorIO_v2_4dev12_GLOBAL__N_119GradingToneRevOpCPUEEC2ISaIvEJRS_IKNS0_17GradingToneOpDataEEEEESt20_Sp_alloc_shared_tagIT_EDpOT0_(ptr noundef nonnull align 8 dereferenceable(16) %agg.result, ptr %1, ptr noundef nonnull align 8 dereferenceable(16) %0)
  ret void
}

; Function Attrs: mustprogress nounwind uwtable
define internal void @_ZNSt10shared_ptrIKN19OpenColorIO_v2_4dev5OpCPUEEC2INS0_12_GLOBAL__N_119GradingToneRevOpCPUEvEEOS_IT_E(ptr noundef nonnull align 8 dereferenceable(16) %this, ptr noundef nonnull align 8 dereferenceable(16) %__r) unnamed_addr #5 align 2 {
entry:
  %this.addr = alloca ptr, align 8
  %__r.addr = alloca ptr, align 8
  store ptr %this, ptr %this.addr, align 8
  store ptr %__r, ptr %__r.addr, align 8
  %this1 = load ptr, ptr %this.addr, align 8
  %0 = load ptr, ptr %__r.addr, align 8
  call void @_ZNSt12__shared_ptrIKN19OpenColorIO_v2_4dev5OpCPUELN9__gnu_cxx12_Lock_policyE2EEC2INS0_12_GLOBAL__N_119GradingToneRevOpCPUEvEEOS_IT_LS4_2EE(ptr noundef nonnull align 8 dereferenceable(16) %this1, ptr noundef nonnull align 8 dereferenceable(16) %0) #3
  ret void
}

; Function Attrs: mustprogress nounwind uwtable
define internal void @_ZNSt10shared_ptrIN19OpenColorIO_v2_4dev12_GLOBAL__N_119GradingToneRevOpCPUEED2Ev(ptr noundef nonnull align 8 dereferenceable(16) %this) unnamed_addr #5 align 2 {
entry:
  %this.addr = alloca ptr, align 8
  store ptr %this, ptr %this.addr, align 8
  %this1 = load ptr, ptr %this.addr, align 8
  call void @_ZNSt12__shared_ptrIN19OpenColorIO_v2_4dev12_GLOBAL__N_119GradingToneRevOpCPUELN9__gnu_cxx12_Lock_policyE2EED2Ev(ptr noundef nonnull align 8 dereferenceable(16) %this1) #3
  ret void
}

declare ptr @__cxa_allocate_exception(i64)

declare void @_ZN19OpenColorIO_v2_4dev9ExceptionC1EPKc(ptr noundef nonnull align 8 dereferenceable(16), ptr noundef) unnamed_addr #1

declare i32 @__gxx_personality_v0(...)

declare void @__cxa_free_exception(ptr)

; Function Attrs: nounwind
declare void @_ZN19OpenColorIO_v2_4dev9ExceptionD1Ev(ptr noundef nonnull align 8 dereferenceable(16)) unnamed_addr #2

declare void @__cxa_throw(ptr, ptr, ptr)

; Function Attrs: mustprogress nounwind uwtable
define internal void @_ZNSt12__shared_ptrIN19OpenColorIO_v2_4dev12_GLOBAL__N_125GradingToneLinearFwdOpCPUELN9__gnu_cxx12_Lock_policyE2EED2Ev(ptr noundef nonnull align 8 dereferenceable(16) %this) unnamed_addr #5 align 2 {
entry:
  %this.addr = alloca ptr, align 8
  store ptr %this, ptr %this.addr, align 8
  %this1 = load ptr, ptr %this.addr, align 8
  %_M_refcount = getelementptr inbounds %"class.std::__shared_ptr.15", ptr %this1, i32 0, i32 1
  call void @_ZNSt14__shared_countILN9__gnu_cxx12_Lock_policyE2EED2Ev(ptr noundef nonnull align 8 dereferenceable(8) %_M_refcount) #3
  ret void
}

; Function Attrs: mustprogress nounwind uwtable
define linkonce_odr hidden void @_ZNSt14__shared_countILN9__gnu_cxx12_Lock_policyE2EED2Ev(ptr noundef nonnull align 8 dereferenceable(8) %this) unnamed_addr #5 comdat align 2 {
entry:
  %this.addr = alloca ptr, align 8
  store ptr %this, ptr %this.addr, align 8
  %this1 = load ptr, ptr %this.addr, align 8
  %_M_pi = getelementptr inbounds %"class.std::__shared_count", ptr %this1, i32 0, i32 0
  %0 = load ptr, ptr %_M_pi, align 8
  %cmp = icmp ne ptr %0, null
  br i1 %cmp, label %if.then, label %if.end

if.then:                                          ; preds = %entry
  %_M_pi2 = getelementptr inbounds %"class.std::__shared_count", ptr %this1, i32 0, i32 0
  %1 = load ptr, ptr %_M_pi2, align 8
  call void @_ZNSt16_Sp_counted_baseILN9__gnu_cxx12_Lock_policyE2EE10_M_releaseEv(ptr noundef nonnull align 8 dereferenceable(16) %1) #3
  br label %if.end

if.end:                                           ; preds = %if.then, %entry
  ret void
}

; Function Attrs: mustprogress nounwind uwtable
define linkonce_odr hidden void @_ZNSt16_Sp_counted_baseILN9__gnu_cxx12_Lock_policyE2EE10_M_releaseEv(ptr noundef nonnull align 8 dereferenceable(16) %this) #5 comdat align 2 personality ptr @__gxx_personality_v0 {
entry:
  %__mem.addr.i11 = alloca ptr, align 8
  %__val.addr.i12 = alloca i32, align 4
  %.atomictmp.i = alloca i32, align 4
  %atomic-temp.i = alloca i32, align 4
  %__mem.addr.i9 = alloca ptr, align 8
  %__val.addr.i10 = alloca i32, align 4
  %__result.i = alloca i32, align 4
  %retval.i = alloca i32, align 4
  %__mem.addr.i = alloca ptr, align 8
  %__val.addr.i = alloca i32, align 4
  %this.addr = alloca ptr, align 8
  %__lock_free = alloca i8, align 1
  %__double_word = alloca i8, align 1
  %__aligned = alloca i8, align 1
  %__wordbits = alloca i32, align 4
  %__shiftbits = alloca i32, align 4
  %__unique_ref = alloca i64, align 8
  %__both_counts = alloca ptr, align 8
  %atomic-temp = alloca i64, align 8
  store ptr %this, ptr %this.addr, align 8
  %this1 = load ptr, ptr %this.addr, align 8
  store i8 1, ptr %__lock_free, align 1
  store i8 1, ptr %__double_word, align 1
  store i8 1, ptr %__aligned, align 1
  store i32 32, ptr %__wordbits, align 4
  store i32 32, ptr %__shiftbits, align 4
  store i64 4294967297, ptr %__unique_ref, align 8
  %_M_use_count = getelementptr inbounds %"class.std::_Sp_counted_base", ptr %this1, i32 0, i32 1
  store ptr %_M_use_count, ptr %__both_counts, align 8
  %0 = load ptr, ptr %__both_counts, align 8
  %1 = load atomic i64, ptr %0 acquire, align 8
  store i64 %1, ptr %atomic-temp, align 8
  %2 = load i64, ptr %atomic-temp, align 8
  %cmp = icmp eq i64 %2, 4294967297
  br i1 %cmp, label %if.then, label %if.end

if.then:                                          ; preds = %entry
  %_M_use_count2 = getelementptr inbounds %"class.std::_Sp_counted_base", ptr %this1, i32 0, i32 1
  store i32 0, ptr %_M_use_count2, align 8
  %_M_weak_count = getelementptr inbounds %"class.std::_Sp_counted_base", ptr %this1, i32 0, i32 2
  store i32 0, ptr %_M_weak_count, align 4
  %vtable = load ptr, ptr %this1, align 8
  %vfn = getelementptr inbounds ptr, ptr %vtable, i64 2
  %3 = load ptr, ptr %vfn, align 8
  call void %3(ptr noundef nonnull align 8 dereferenceable(16) %this1) #3
  %vtable3 = load ptr, ptr %this1, align 8
  %vfn4 = getelementptr inbounds ptr, ptr %vtable3, i64 3
  %4 = load ptr, ptr %vfn4, align 8
  call void %4(ptr noundef nonnull align 8 dereferenceable(16) %this1) #3
  br label %if.end8

if.end:                                           ; preds = %entry
  %_M_use_count5 = getelementptr inbounds %"class.std::_Sp_counted_base", ptr %this1, i32 0, i32 1
  store ptr %_M_use_count5, ptr %__mem.addr.i, align 8
  store i32 -1, ptr %__val.addr.i, align 4
  %5 = load i8, ptr @__libc_single_threaded, align 1
  %tobool.i = icmp ne i8 %5, 0
  br i1 %tobool.i, label %if.then.i, label %if.else.i

if.then.i:                                        ; preds = %if.end
  %6 = load ptr, ptr %__mem.addr.i, align 8
  %7 = load i32, ptr %__val.addr.i, align 4
  store ptr %6, ptr %__mem.addr.i9, align 8
  store i32 %7, ptr %__val.addr.i10, align 4
  %8 = load ptr, ptr %__mem.addr.i9, align 8
  %9 = load i32, ptr %8, align 4
  store i32 %9, ptr %__result.i, align 4
  %10 = load i32, ptr %__val.addr.i10, align 4
  %11 = load ptr, ptr %__mem.addr.i9, align 8
  %12 = load i32, ptr %11, align 4
  %add.i = add nsw i32 %12, %10
  store i32 %add.i, ptr %11, align 4
  %13 = load i32, ptr %__result.i, align 4
  store i32 %13, ptr %retval.i, align 4
  br label %_ZN9__gnu_cxx27__exchange_and_add_dispatchEPii.exit

if.else.i:                                        ; preds = %if.end
  %14 = load ptr, ptr %__mem.addr.i, align 8
  %15 = load i32, ptr %__val.addr.i, align 4
  store ptr %14, ptr %__mem.addr.i11, align 8
  store i32 %15, ptr %__val.addr.i12, align 4
  %16 = load ptr, ptr %__mem.addr.i11, align 8
  %17 = load i32, ptr %__val.addr.i12, align 4
  store i32 %17, ptr %.atomictmp.i, align 4
  %18 = load i32, ptr %.atomictmp.i, align 4
  %19 = atomicrmw volatile add ptr %16, i32 %18 acq_rel, align 4
  store i32 %19, ptr %atomic-temp.i, align 4
  %20 = load i32, ptr %atomic-temp.i, align 4
  store i32 %20, ptr %retval.i, align 4
  br label %_ZN9__gnu_cxx27__exchange_and_add_dispatchEPii.exit

_ZN9__gnu_cxx27__exchange_and_add_dispatchEPii.exit: ; preds = %if.else.i, %if.then.i
  %21 = load i32, ptr %retval.i, align 4
  br label %invoke.cont

invoke.cont:                                      ; preds = %_ZN9__gnu_cxx27__exchange_and_add_dispatchEPii.exit
  %cmp6 = icmp eq i32 %21, 1
  br i1 %cmp6, label %if.then7, label %if.end8

if.then7:                                         ; preds = %invoke.cont
  call void @_ZNSt16_Sp_counted_baseILN9__gnu_cxx12_Lock_policyE2EE24_M_release_last_use_coldEv(ptr noundef nonnull align 8 dereferenceable(16) %this1) #3
  br label %if.end8

if.end8:                                          ; preds = %if.then7, %invoke.cont, %if.then
  ret void

terminate.lpad:                                   ; No predecessors!
  %22 = landingpad { ptr, i32 }
          catch ptr null
  %23 = extractvalue { ptr, i32 } %22, 0
  call void @__clang_call_terminate(ptr %23) #19
  unreachable
}

; Function Attrs: noreturn nounwind uwtable
define linkonce_odr hidden void @__clang_call_terminate(ptr noundef %0) #7 comdat {
  %2 = call ptr @__cxa_begin_catch(ptr %0) #3
  call void @_ZSt9terminatev() #19
  unreachable
}

declare ptr @__cxa_begin_catch(ptr)

declare void @_ZSt9terminatev()

; Function Attrs: mustprogress nounwind uwtable
define linkonce_odr hidden void @_ZNSt16_Sp_counted_baseILN9__gnu_cxx12_Lock_policyE2EE24_M_release_last_use_coldEv(ptr noundef nonnull align 8 dereferenceable(16) %this) #5 comdat align 2 {
entry:
  %this.addr = alloca ptr, align 8
  store ptr %this, ptr %this.addr, align 8
  %this1 = load ptr, ptr %this.addr, align 8
  call void @_ZNSt16_Sp_counted_baseILN9__gnu_cxx12_Lock_policyE2EE19_M_release_last_useEv(ptr noundef nonnull align 8 dereferenceable(16) %this1) #3
  ret void
}

; Function Attrs: mustprogress nounwind uwtable
define linkonce_odr hidden void @_ZNSt16_Sp_counted_baseILN9__gnu_cxx12_Lock_policyE2EE19_M_release_last_useEv(ptr noundef nonnull align 8 dereferenceable(16) %this) #5 comdat align 2 personality ptr @__gxx_personality_v0 {
entry:
  %__mem.addr.i6 = alloca ptr, align 8
  %__val.addr.i7 = alloca i32, align 4
  %.atomictmp.i = alloca i32, align 4
  %atomic-temp.i = alloca i32, align 4
  %__mem.addr.i4 = alloca ptr, align 8
  %__val.addr.i5 = alloca i32, align 4
  %__result.i = alloca i32, align 4
  %retval.i = alloca i32, align 4
  %__mem.addr.i = alloca ptr, align 8
  %__val.addr.i = alloca i32, align 4
  %this.addr = alloca ptr, align 8
  store ptr %this, ptr %this.addr, align 8
  %this1 = load ptr, ptr %this.addr, align 8
  %vtable = load ptr, ptr %this1, align 8
  %vfn = getelementptr inbounds ptr, ptr %vtable, i64 2
  %0 = load ptr, ptr %vfn, align 8
  call void %0(ptr noundef nonnull align 8 dereferenceable(16) %this1) #3
  %_M_weak_count = getelementptr inbounds %"class.std::_Sp_counted_base", ptr %this1, i32 0, i32 2
  store ptr %_M_weak_count, ptr %__mem.addr.i, align 8
  store i32 -1, ptr %__val.addr.i, align 4
  %1 = load i8, ptr @__libc_single_threaded, align 1
  %tobool.i = icmp ne i8 %1, 0
  br i1 %tobool.i, label %if.then.i, label %if.else.i

if.then.i:                                        ; preds = %entry
  %2 = load ptr, ptr %__mem.addr.i, align 8
  %3 = load i32, ptr %__val.addr.i, align 4
  store ptr %2, ptr %__mem.addr.i4, align 8
  store i32 %3, ptr %__val.addr.i5, align 4
  %4 = load ptr, ptr %__mem.addr.i4, align 8
  %5 = load i32, ptr %4, align 4
  store i32 %5, ptr %__result.i, align 4
  %6 = load i32, ptr %__val.addr.i5, align 4
  %7 = load ptr, ptr %__mem.addr.i4, align 8
  %8 = load i32, ptr %7, align 4
  %add.i = add nsw i32 %8, %6
  store i32 %add.i, ptr %7, align 4
  %9 = load i32, ptr %__result.i, align 4
  store i32 %9, ptr %retval.i, align 4
  br label %_ZN9__gnu_cxx27__exchange_and_add_dispatchEPii.exit

if.else.i:                                        ; preds = %entry
  %10 = load ptr, ptr %__mem.addr.i, align 8
  %11 = load i32, ptr %__val.addr.i, align 4
  store ptr %10, ptr %__mem.addr.i6, align 8
  store i32 %11, ptr %__val.addr.i7, align 4
  %12 = load ptr, ptr %__mem.addr.i6, align 8
  %13 = load i32, ptr %__val.addr.i7, align 4
  store i32 %13, ptr %.atomictmp.i, align 4
  %14 = load i32, ptr %.atomictmp.i, align 4
  %15 = atomicrmw volatile add ptr %12, i32 %14 acq_rel, align 4
  store i32 %15, ptr %atomic-temp.i, align 4
  %16 = load i32, ptr %atomic-temp.i, align 4
  store i32 %16, ptr %retval.i, align 4
  br label %_ZN9__gnu_cxx27__exchange_and_add_dispatchEPii.exit

_ZN9__gnu_cxx27__exchange_and_add_dispatchEPii.exit: ; preds = %if.else.i, %if.then.i
  %17 = load i32, ptr %retval.i, align 4
  br label %invoke.cont

invoke.cont:                                      ; preds = %_ZN9__gnu_cxx27__exchange_and_add_dispatchEPii.exit
  %cmp = icmp eq i32 %17, 1
  br i1 %cmp, label %if.then, label %if.end

if.then:                                          ; preds = %invoke.cont
  %vtable2 = load ptr, ptr %this1, align 8
  %vfn3 = getelementptr inbounds ptr, ptr %vtable2, i64 3
  %18 = load ptr, ptr %vfn3, align 8
  call void %18(ptr noundef nonnull align 8 dereferenceable(16) %this1) #3
  br label %if.end

if.end:                                           ; preds = %if.then, %invoke.cont
  ret void

terminate.lpad:                                   ; No predecessors!
  %19 = landingpad { ptr, i32 }
          catch ptr null
  %20 = extractvalue { ptr, i32 } %19, 0
  call void @__clang_call_terminate(ptr %20) #19
  unreachable
}

; Function Attrs: mustprogress nounwind uwtable
define internal void @_ZNSt12__shared_ptrIN19OpenColorIO_v2_4dev12_GLOBAL__N_119GradingToneFwdOpCPUELN9__gnu_cxx12_Lock_policyE2EED2Ev(ptr noundef nonnull align 8 dereferenceable(16) %this) unnamed_addr #5 align 2 {
entry:
  %this.addr = alloca ptr, align 8
  store ptr %this, ptr %this.addr, align 8
  %this1 = load ptr, ptr %this.addr, align 8
  %_M_refcount = getelementptr inbounds %"class.std::__shared_ptr.18", ptr %this1, i32 0, i32 1
  call void @_ZNSt14__shared_countILN9__gnu_cxx12_Lock_policyE2EED2Ev(ptr noundef nonnull align 8 dereferenceable(8) %_M_refcount) #3
  ret void
}

; Function Attrs: mustprogress nounwind uwtable
define internal void @_ZNSt12__shared_ptrIN19OpenColorIO_v2_4dev12_GLOBAL__N_125GradingToneLinearRevOpCPUELN9__gnu_cxx12_Lock_policyE2EED2Ev(ptr noundef nonnull align 8 dereferenceable(16) %this) unnamed_addr #5 align 2 {
entry:
  %this.addr = alloca ptr, align 8
  store ptr %this, ptr %this.addr, align 8
  %this1 = load ptr, ptr %this.addr, align 8
  %_M_refcount = getelementptr inbounds %"class.std::__shared_ptr.21", ptr %this1, i32 0, i32 1
  call void @_ZNSt14__shared_countILN9__gnu_cxx12_Lock_policyE2EED2Ev(ptr noundef nonnull align 8 dereferenceable(8) %_M_refcount) #3
  ret void
}

; Function Attrs: mustprogress nounwind uwtable
define internal void @_ZNSt12__shared_ptrIN19OpenColorIO_v2_4dev12_GLOBAL__N_119GradingToneRevOpCPUELN9__gnu_cxx12_Lock_policyE2EED2Ev(ptr noundef nonnull align 8 dereferenceable(16) %this) unnamed_addr #5 align 2 {
entry:
  %this.addr = alloca ptr, align 8
  store ptr %this, ptr %this.addr, align 8
  %this1 = load ptr, ptr %this.addr, align 8
  %_M_refcount = getelementptr inbounds %"class.std::__shared_ptr.24", ptr %this1, i32 0, i32 1
  call void @_ZNSt14__shared_countILN9__gnu_cxx12_Lock_policyE2EED2Ev(ptr noundef nonnull align 8 dereferenceable(8) %_M_refcount) #3
  ret void
}

; Function Attrs: mustprogress nounwind uwtable
define linkonce_odr hidden noundef ptr @_ZNKSt19__shared_ptr_accessIKN19OpenColorIO_v2_4dev17GradingToneOpDataELN9__gnu_cxx12_Lock_policyE2ELb0ELb0EE6_M_getEv(ptr noundef nonnull align 1 dereferenceable(1) %this) #5 comdat align 2 {
entry:
  %this.addr = alloca ptr, align 8
  store ptr %this, ptr %this.addr, align 8
  %this1 = load ptr, ptr %this.addr, align 8
  %call = call noundef ptr @_ZNKSt12__shared_ptrIKN19OpenColorIO_v2_4dev17GradingToneOpDataELN9__gnu_cxx12_Lock_policyE2EE3getEv(ptr noundef nonnull align 8 dereferenceable(16) %this1) #3
  ret ptr %call
}

; Function Attrs: mustprogress nounwind uwtable
define linkonce_odr hidden noundef ptr @_ZNKSt12__shared_ptrIKN19OpenColorIO_v2_4dev17GradingToneOpDataELN9__gnu_cxx12_Lock_policyE2EE3getEv(ptr noundef nonnull align 8 dereferenceable(16) %this) #5 comdat align 2 {
entry:
  %this.addr = alloca ptr, align 8
  store ptr %this, ptr %this.addr, align 8
  %this1 = load ptr, ptr %this.addr, align 8
  %_M_ptr = getelementptr inbounds %"class.std::__shared_ptr.12", ptr %this1, i32 0, i32 0
  %0 = load ptr, ptr %_M_ptr, align 8
  ret ptr %0
}

; Function Attrs: mustprogress uwtable
define internal void @_ZNSt10shared_ptrIN19OpenColorIO_v2_4dev12_GLOBAL__N_125GradingToneLinearFwdOpCPUEEC2ISaIvEJRS_IKNS0_17GradingToneOpDataEEEEESt20_Sp_alloc_shared_tagIT_EDpOT0_(ptr noundef nonnull align 8 dereferenceable(16) %this, ptr %__tag.coerce, ptr noundef nonnull align 8 dereferenceable(16) %__args) unnamed_addr #6 align 2 {
entry:
  %__tag = alloca %"struct.std::_Sp_alloc_shared_tag", align 8
  %this.addr = alloca ptr, align 8
  %__args.addr = alloca ptr, align 8
  %agg.tmp = alloca %"struct.std::_Sp_alloc_shared_tag", align 8
  %coerce.dive = getelementptr inbounds %"struct.std::_Sp_alloc_shared_tag", ptr %__tag, i32 0, i32 0
  store ptr %__tag.coerce, ptr %coerce.dive, align 8
  store ptr %this, ptr %this.addr, align 8
  store ptr %__args, ptr %__args.addr, align 8
  %this1 = load ptr, ptr %this.addr, align 8
  call void @llvm.memcpy.p0.p0.i64(ptr align 8 %agg.tmp, ptr align 8 %__tag, i64 8, i1 false)
  %0 = load ptr, ptr %__args.addr, align 8
  %coerce.dive2 = getelementptr inbounds %"struct.std::_Sp_alloc_shared_tag", ptr %agg.tmp, i32 0, i32 0
  %1 = load ptr, ptr %coerce.dive2, align 8
  call void @_ZNSt12__shared_ptrIN19OpenColorIO_v2_4dev12_GLOBAL__N_125GradingToneLinearFwdOpCPUELN9__gnu_cxx12_Lock_policyE2EEC2ISaIvEJRSt10shared_ptrIKNS0_17GradingToneOpDataEEEEESt20_Sp_alloc_shared_tagIT_EDpOT0_(ptr noundef nonnull align 8 dereferenceable(16) %this1, ptr %1, ptr noundef nonnull align 8 dereferenceable(16) %0)
  ret void
}

; Function Attrs: nocallback nofree nounwind willreturn memory(argmem: readwrite)
declare void @llvm.memcpy.p0.p0.i64(ptr noalias nocapture writeonly, ptr noalias nocapture readonly, i64, i1 immarg) #8

; Function Attrs: mustprogress uwtable
define internal void @_ZNSt12__shared_ptrIN19OpenColorIO_v2_4dev12_GLOBAL__N_125GradingToneLinearFwdOpCPUELN9__gnu_cxx12_Lock_policyE2EEC2ISaIvEJRSt10shared_ptrIKNS0_17GradingToneOpDataEEEEESt20_Sp_alloc_shared_tagIT_EDpOT0_(ptr noundef nonnull align 8 dereferenceable(16) %this, ptr %__tag.coerce, ptr noundef nonnull align 8 dereferenceable(16) %__args) unnamed_addr #6 align 2 {
entry:
  %__tag = alloca %"struct.std::_Sp_alloc_shared_tag", align 8
  %this.addr = alloca ptr, align 8
  %__args.addr = alloca ptr, align 8
  %agg.tmp = alloca %"struct.std::_Sp_alloc_shared_tag", align 8
  %coerce.dive = getelementptr inbounds %"struct.std::_Sp_alloc_shared_tag", ptr %__tag, i32 0, i32 0
  store ptr %__tag.coerce, ptr %coerce.dive, align 8
  store ptr %this, ptr %this.addr, align 8
  store ptr %__args, ptr %__args.addr, align 8
  %this1 = load ptr, ptr %this.addr, align 8
  %_M_ptr = getelementptr inbounds %"class.std::__shared_ptr.15", ptr %this1, i32 0, i32 0
  store ptr null, ptr %_M_ptr, align 8
  %_M_refcount = getelementptr inbounds %"class.std::__shared_ptr.15", ptr %this1, i32 0, i32 1
  %_M_ptr2 = getelementptr inbounds %"class.std::__shared_ptr.15", ptr %this1, i32 0, i32 0
  call void @llvm.memcpy.p0.p0.i64(ptr align 8 %agg.tmp, ptr align 8 %__tag, i64 8, i1 false)
  %0 = load ptr, ptr %__args.addr, align 8
  %coerce.dive3 = getelementptr inbounds %"struct.std::_Sp_alloc_shared_tag", ptr %agg.tmp, i32 0, i32 0
  %1 = load ptr, ptr %coerce.dive3, align 8
  call void @_ZNSt14__shared_countILN9__gnu_cxx12_Lock_policyE2EEC2IN19OpenColorIO_v2_4dev12_GLOBAL__N_125GradingToneLinearFwdOpCPUESaIvEJRSt10shared_ptrIKNS4_17GradingToneOpDataEEEEERPT_St20_Sp_alloc_shared_tagIT0_EDpOT1_(ptr noundef nonnull align 8 dereferenceable(8) %_M_refcount, ptr noundef nonnull align 8 dereferenceable(8) %_M_ptr2, ptr %1, ptr noundef nonnull align 8 dereferenceable(16) %0)
  %_M_ptr4 = getelementptr inbounds %"class.std::__shared_ptr.15", ptr %this1, i32 0, i32 0
  %2 = load ptr, ptr %_M_ptr4, align 8
  call void @_ZNSt12__shared_ptrIN19OpenColorIO_v2_4dev12_GLOBAL__N_125GradingToneLinearFwdOpCPUELN9__gnu_cxx12_Lock_policyE2EE31_M_enable_shared_from_this_withIS2_S2_EENSt9enable_ifIXntsr15__has_esft_baseIT0_EE5valueEvE4typeEPT_(ptr noundef nonnull align 8 dereferenceable(16) %this1, ptr noundef %2) #3
  ret void
}

; Function Attrs: mustprogress uwtable
define internal void @_ZNSt14__shared_countILN9__gnu_cxx12_Lock_policyE2EEC2IN19OpenColorIO_v2_4dev12_GLOBAL__N_125GradingToneLinearFwdOpCPUESaIvEJRSt10shared_ptrIKNS4_17GradingToneOpDataEEEEERPT_St20_Sp_alloc_shared_tagIT0_EDpOT1_(ptr noundef nonnull align 8 dereferenceable(8) %this, ptr noundef nonnull align 8 dereferenceable(8) %__p, ptr %__a.coerce, ptr noundef nonnull align 8 dereferenceable(16) %__args) unnamed_addr #6 align 2 personality ptr @__gxx_personality_v0 {
entry:
  %__a = alloca %"struct.std::_Sp_alloc_shared_tag", align 8
  %this.addr = alloca ptr, align 8
  %__p.addr = alloca ptr, align 8
  %__args.addr = alloca ptr, align 8
  %__a2 = alloca %"class.std::allocator.28", align 1
  %__guard = alloca %"struct.std::__allocated_ptr", align 8
  %exn.slot = alloca ptr, align 8
  %ehselector.slot = alloca i32, align 4
  %__mem = alloca ptr, align 8
  %__pi = alloca ptr, align 8
  %coerce.dive = getelementptr inbounds %"struct.std::_Sp_alloc_shared_tag", ptr %__a, i32 0, i32 0
  store ptr %__a.coerce, ptr %coerce.dive, align 8
  store ptr %this, ptr %this.addr, align 8
  store ptr %__p, ptr %__p.addr, align 8
  store ptr %__args, ptr %__args.addr, align 8
  %this1 = load ptr, ptr %this.addr, align 8
  %_M_a = getelementptr inbounds %"struct.std::_Sp_alloc_shared_tag", ptr %__a, i32 0, i32 0
  %0 = load ptr, ptr %_M_a, align 8
  call void @_ZNSaISt23_Sp_counted_ptr_inplaceIN19OpenColorIO_v2_4dev12_GLOBAL__N_125GradingToneLinearFwdOpCPUESaIvELN9__gnu_cxx12_Lock_policyE2EEEC2IvEERKSaIT_E(ptr noundef nonnull align 1 dereferenceable(1) %__a2, ptr noundef nonnull align 1 dereferenceable(1) %0) #3
  invoke void @_ZSt18__allocate_guardedISaISt23_Sp_counted_ptr_inplaceIN19OpenColorIO_v2_4dev12_GLOBAL__N_125GradingToneLinearFwdOpCPUESaIvELN9__gnu_cxx12_Lock_policyE2EEEESt15__allocated_ptrIT_ERSA_(ptr sret(%"struct.std::__allocated_ptr") align 8 %__guard, ptr noundef nonnull align 1 dereferenceable(1) %__a2)
          to label %invoke.cont unwind label %lpad

invoke.cont:                                      ; preds = %entry
  %call = invoke noundef ptr @_ZNSt15__allocated_ptrISaISt23_Sp_counted_ptr_inplaceIN19OpenColorIO_v2_4dev12_GLOBAL__N_125GradingToneLinearFwdOpCPUESaIvELN9__gnu_cxx12_Lock_policyE2EEEE3getEv(ptr noundef nonnull align 8 dereferenceable(16) %__guard)
          to label %invoke.cont3 unwind label %lpad2

invoke.cont3:                                     ; preds = %invoke.cont
  store ptr %call, ptr %__mem, align 8
  %1 = load ptr, ptr %__mem, align 8
  %2 = load ptr, ptr %__args.addr, align 8
  invoke void @_ZNSt23_Sp_counted_ptr_inplaceIN19OpenColorIO_v2_4dev12_GLOBAL__N_125GradingToneLinearFwdOpCPUESaIvELN9__gnu_cxx12_Lock_policyE2EEC2IJRSt10shared_ptrIKNS0_17GradingToneOpDataEEEEES3_DpOT_(ptr noundef nonnull align 8 dereferenceable(48) %1, ptr noundef nonnull align 8 dereferenceable(16) %2)
          to label %invoke.cont5 unwind label %lpad2

invoke.cont5:                                     ; preds = %invoke.cont3
  store ptr %1, ptr %__pi, align 8
  %call6 = call noundef nonnull align 8 dereferenceable(16) ptr @_ZNSt15__allocated_ptrISaISt23_Sp_counted_ptr_inplaceIN19OpenColorIO_v2_4dev12_GLOBAL__N_125GradingToneLinearFwdOpCPUESaIvELN9__gnu_cxx12_Lock_policyE2EEEEaSEDn(ptr noundef nonnull align 8 dereferenceable(16) %__guard, ptr null) #3
  %3 = load ptr, ptr %__pi, align 8
  %_M_pi = getelementptr inbounds %"class.std::__shared_count", ptr %this1, i32 0, i32 0
  store ptr %3, ptr %_M_pi, align 8
  %4 = load ptr, ptr %__pi, align 8
  %call7 = call noundef ptr @_ZNSt23_Sp_counted_ptr_inplaceIN19OpenColorIO_v2_4dev12_GLOBAL__N_125GradingToneLinearFwdOpCPUESaIvELN9__gnu_cxx12_Lock_policyE2EE6_M_ptrEv(ptr noundef nonnull align 8 dereferenceable(48) %4) #3
  %5 = load ptr, ptr %__p.addr, align 8
  store ptr %call7, ptr %5, align 8
  call void @_ZNSt15__allocated_ptrISaISt23_Sp_counted_ptr_inplaceIN19OpenColorIO_v2_4dev12_GLOBAL__N_125GradingToneLinearFwdOpCPUESaIvELN9__gnu_cxx12_Lock_policyE2EEEED2Ev(ptr noundef nonnull align 8 dereferenceable(16) %__guard) #3
  call void @_ZNSaISt23_Sp_counted_ptr_inplaceIN19OpenColorIO_v2_4dev12_GLOBAL__N_125GradingToneLinearFwdOpCPUESaIvELN9__gnu_cxx12_Lock_policyE2EEED2Ev(ptr noundef nonnull align 1 dereferenceable(1) %__a2) #3
  ret void

lpad:                                             ; preds = %entry
  %6 = landingpad { ptr, i32 }
          cleanup
  %7 = extractvalue { ptr, i32 } %6, 0
  store ptr %7, ptr %exn.slot, align 8
  %8 = extractvalue { ptr, i32 } %6, 1
  store i32 %8, ptr %ehselector.slot, align 4
  br label %ehcleanup

lpad2:                                            ; preds = %invoke.cont3, %invoke.cont
  %9 = landingpad { ptr, i32 }
          cleanup
  %10 = extractvalue { ptr, i32 } %9, 0
  store ptr %10, ptr %exn.slot, align 8
  %11 = extractvalue { ptr, i32 } %9, 1
  store i32 %11, ptr %ehselector.slot, align 4
  call void @_ZNSt15__allocated_ptrISaISt23_Sp_counted_ptr_inplaceIN19OpenColorIO_v2_4dev12_GLOBAL__N_125GradingToneLinearFwdOpCPUESaIvELN9__gnu_cxx12_Lock_policyE2EEEED2Ev(ptr noundef nonnull align 8 dereferenceable(16) %__guard) #3
  br label %ehcleanup

ehcleanup:                                        ; preds = %lpad2, %lpad
  call void @_ZNSaISt23_Sp_counted_ptr_inplaceIN19OpenColorIO_v2_4dev12_GLOBAL__N_125GradingToneLinearFwdOpCPUESaIvELN9__gnu_cxx12_Lock_policyE2EEED2Ev(ptr noundef nonnull align 1 dereferenceable(1) %__a2) #3
  br label %eh.resume

eh.resume:                                        ; preds = %ehcleanup
  %exn = load ptr, ptr %exn.slot, align 8
  %sel = load i32, ptr %ehselector.slot, align 4
  %lpad.val = insertvalue { ptr, i32 } poison, ptr %exn, 0
  %lpad.val8 = insertvalue { ptr, i32 } %lpad.val, i32 %sel, 1
  resume { ptr, i32 } %lpad.val8
}

; Function Attrs: mustprogress nounwind uwtable
define internal void @_ZNSt12__shared_ptrIN19OpenColorIO_v2_4dev12_GLOBAL__N_125GradingToneLinearFwdOpCPUELN9__gnu_cxx12_Lock_policyE2EE31_M_enable_shared_from_this_withIS2_S2_EENSt9enable_ifIXntsr15__has_esft_baseIT0_EE5valueEvE4typeEPT_(ptr noundef nonnull align 8 dereferenceable(16) %this, ptr noundef %0) #5 align 2 {
entry:
  %this.addr = alloca ptr, align 8
  %.addr = alloca ptr, align 8
  store ptr %this, ptr %this.addr, align 8
  store ptr %0, ptr %.addr, align 8
  ret void
}

; Function Attrs: mustprogress nounwind uwtable
define internal void @_ZNSaISt23_Sp_counted_ptr_inplaceIN19OpenColorIO_v2_4dev12_GLOBAL__N_125GradingToneLinearFwdOpCPUESaIvELN9__gnu_cxx12_Lock_policyE2EEEC2IvEERKSaIT_E(ptr noundef nonnull align 1 dereferenceable(1) %this, ptr noundef nonnull align 1 dereferenceable(1) %0) unnamed_addr #5 align 2 {
entry:
  %this.addr = alloca ptr, align 8
  %.addr = alloca ptr, align 8
  store ptr %this, ptr %this.addr, align 8
  store ptr %0, ptr %.addr, align 8
  %this1 = load ptr, ptr %this.addr, align 8
  call void @_ZNSt15__new_allocatorISt23_Sp_counted_ptr_inplaceIN19OpenColorIO_v2_4dev12_GLOBAL__N_125GradingToneLinearFwdOpCPUESaIvELN9__gnu_cxx12_Lock_policyE2EEEC2Ev(ptr noundef nonnull align 1 dereferenceable(1) %this1) #3
  ret void
}

; Function Attrs: mustprogress uwtable
define internal void @_ZSt18__allocate_guardedISaISt23_Sp_counted_ptr_inplaceIN19OpenColorIO_v2_4dev12_GLOBAL__N_125GradingToneLinearFwdOpCPUESaIvELN9__gnu_cxx12_Lock_policyE2EEEESt15__allocated_ptrIT_ERSA_(ptr noalias sret(%"struct.std::__allocated_ptr") align 8 %agg.result, ptr noundef nonnull align 1 dereferenceable(1) %__a) #6 {
entry:
  %result.ptr = alloca ptr, align 8
  %__a.addr = alloca ptr, align 8
  store ptr %agg.result, ptr %result.ptr, align 8
  store ptr %__a, ptr %__a.addr, align 8
  %0 = load ptr, ptr %__a.addr, align 8
  %1 = load ptr, ptr %__a.addr, align 8
  %call = call noundef ptr @_ZNSt16allocator_traitsISaISt23_Sp_counted_ptr_inplaceIN19OpenColorIO_v2_4dev12_GLOBAL__N_125GradingToneLinearFwdOpCPUESaIvELN9__gnu_cxx12_Lock_policyE2EEEE8allocateERS8_m(ptr noundef nonnull align 1 dereferenceable(1) %1, i64 noundef 1)
  call void @_ZNSt15__allocated_ptrISaISt23_Sp_counted_ptr_inplaceIN19OpenColorIO_v2_4dev12_GLOBAL__N_125GradingToneLinearFwdOpCPUESaIvELN9__gnu_cxx12_Lock_policyE2EEEEC2ERS8_PS7_(ptr noundef nonnull align 8 dereferenceable(16) %agg.result, ptr noundef nonnull align 1 dereferenceable(1) %0, ptr noundef %call) #3
  ret void
}

; Function Attrs: mustprogress nounwind uwtable
define internal noundef ptr @_ZNSt15__allocated_ptrISaISt23_Sp_counted_ptr_inplaceIN19OpenColorIO_v2_4dev12_GLOBAL__N_125GradingToneLinearFwdOpCPUESaIvELN9__gnu_cxx12_Lock_policyE2EEEE3getEv(ptr noundef nonnull align 8 dereferenceable(16) %this) #5 align 2 {
entry:
  %this.addr = alloca ptr, align 8
  store ptr %this, ptr %this.addr, align 8
  %this1 = load ptr, ptr %this.addr, align 8
  %_M_ptr = getelementptr inbounds %"struct.std::__allocated_ptr", ptr %this1, i32 0, i32 1
  %0 = load ptr, ptr %_M_ptr, align 8
  %call = call noundef ptr @_ZSt12__to_addressISt23_Sp_counted_ptr_inplaceIN19OpenColorIO_v2_4dev12_GLOBAL__N_125GradingToneLinearFwdOpCPUESaIvELN9__gnu_cxx12_Lock_policyE2EEEPT_S9_(ptr noundef %0) #3
  ret ptr %call
}

; Function Attrs: mustprogress uwtable
define internal void @_ZNSt23_Sp_counted_ptr_inplaceIN19OpenColorIO_v2_4dev12_GLOBAL__N_125GradingToneLinearFwdOpCPUESaIvELN9__gnu_cxx12_Lock_policyE2EEC2IJRSt10shared_ptrIKNS0_17GradingToneOpDataEEEEES3_DpOT_(ptr noundef nonnull align 8 dereferenceable(48) %this, ptr noundef nonnull align 8 dereferenceable(16) %__args) unnamed_addr #6 align 2 personality ptr @__gxx_personality_v0 {
entry:
  %__a = alloca %"class.std::allocator.27", align 1
  %this.addr = alloca ptr, align 8
  %__args.addr = alloca ptr, align 8
  %exn.slot = alloca ptr, align 8
  %ehselector.slot = alloca i32, align 4
  store ptr %this, ptr %this.addr, align 8
  store ptr %__args, ptr %__args.addr, align 8
  %this1 = load ptr, ptr %this.addr, align 8
  call void @_ZNSt16_Sp_counted_baseILN9__gnu_cxx12_Lock_policyE2EEC2Ev(ptr noundef nonnull align 8 dereferenceable(16) %this1) #3
  store ptr getelementptr inbounds ({ [7 x ptr] }, ptr @_ZTVSt23_Sp_counted_ptr_inplaceIN19OpenColorIO_v2_4dev12_GLOBAL__N_125GradingToneLinearFwdOpCPUESaIvELN9__gnu_cxx12_Lock_policyE2EE, i32 0, inrange i32 0, i32 2), ptr %this1, align 8
  %_M_impl = getelementptr inbounds %"class.std::_Sp_counted_ptr_inplace", ptr %this1, i32 0, i32 1
  call void @_ZNSt23_Sp_counted_ptr_inplaceIN19OpenColorIO_v2_4dev12_GLOBAL__N_125GradingToneLinearFwdOpCPUESaIvELN9__gnu_cxx12_Lock_policyE2EE5_ImplC2ES3_(ptr noundef nonnull align 8 dereferenceable(32) %_M_impl) #3
  %call = call noundef ptr @_ZNSt23_Sp_counted_ptr_inplaceIN19OpenColorIO_v2_4dev12_GLOBAL__N_125GradingToneLinearFwdOpCPUESaIvELN9__gnu_cxx12_Lock_policyE2EE6_M_ptrEv(ptr noundef nonnull align 8 dereferenceable(48) %this1) #3
  %0 = load ptr, ptr %__args.addr, align 8
  invoke void @_ZNSt16allocator_traitsISaIvEE9constructIN19OpenColorIO_v2_4dev12_GLOBAL__N_125GradingToneLinearFwdOpCPUEJRSt10shared_ptrIKNS3_17GradingToneOpDataEEEEEvRS0_PT_DpOT0_(ptr noundef nonnull align 1 dereferenceable(1) %__a, ptr noundef %call, ptr noundef nonnull align 8 dereferenceable(16) %0)
          to label %invoke.cont unwind label %lpad

invoke.cont:                                      ; preds = %entry
  ret void

lpad:                                             ; preds = %entry
  %1 = landingpad { ptr, i32 }
          cleanup
  %2 = extractvalue { ptr, i32 } %1, 0
  store ptr %2, ptr %exn.slot, align 8
  %3 = extractvalue { ptr, i32 } %1, 1
  store i32 %3, ptr %ehselector.slot, align 4
  call void @_ZNSt16_Sp_counted_baseILN9__gnu_cxx12_Lock_policyE2EED2Ev(ptr noundef nonnull align 8 dereferenceable(16) %this1) #3
  br label %eh.resume

eh.resume:                                        ; preds = %lpad
  %exn = load ptr, ptr %exn.slot, align 8
  %sel = load i32, ptr %ehselector.slot, align 4
  %lpad.val = insertvalue { ptr, i32 } poison, ptr %exn, 0
  %lpad.val2 = insertvalue { ptr, i32 } %lpad.val, i32 %sel, 1
  resume { ptr, i32 } %lpad.val2
}

; Function Attrs: mustprogress nounwind uwtable
define internal noundef nonnull align 8 dereferenceable(16) ptr @_ZNSt15__allocated_ptrISaISt23_Sp_counted_ptr_inplaceIN19OpenColorIO_v2_4dev12_GLOBAL__N_125GradingToneLinearFwdOpCPUESaIvELN9__gnu_cxx12_Lock_policyE2EEEEaSEDn(ptr noundef nonnull align 8 dereferenceable(16) %this, ptr %0) #5 align 2 {
entry:
  %this.addr = alloca ptr, align 8
  %.addr = alloca ptr, align 8
  store ptr %this, ptr %this.addr, align 8
  store ptr %0, ptr %.addr, align 8
  %this1 = load ptr, ptr %this.addr, align 8
  %_M_ptr = getelementptr inbounds %"struct.std::__allocated_ptr", ptr %this1, i32 0, i32 1
  store ptr null, ptr %_M_ptr, align 8
  ret ptr %this1
}

; Function Attrs: mustprogress nounwind uwtable
define internal noundef ptr @_ZNSt23_Sp_counted_ptr_inplaceIN19OpenColorIO_v2_4dev12_GLOBAL__N_125GradingToneLinearFwdOpCPUESaIvELN9__gnu_cxx12_Lock_policyE2EE6_M_ptrEv(ptr noundef nonnull align 8 dereferenceable(48) %this) #5 align 2 {
entry:
  %this.addr = alloca ptr, align 8
  store ptr %this, ptr %this.addr, align 8
  %this1 = load ptr, ptr %this.addr, align 8
  %_M_impl = getelementptr inbounds %"class.std::_Sp_counted_ptr_inplace", ptr %this1, i32 0, i32 1
  %_M_storage = getelementptr inbounds %"class.std::_Sp_counted_ptr_inplace<OpenColorIO_v2_4dev::(anonymous namespace)::GradingToneLinearFwdOpCPU, std::allocator<void>, __gnu_cxx::_S_atomic>::_Impl", ptr %_M_impl, i32 0, i32 0
  %call = call noundef ptr @_ZN9__gnu_cxx16__aligned_bufferIN19OpenColorIO_v2_4dev12_GLOBAL__N_125GradingToneLinearFwdOpCPUEE6_M_ptrEv(ptr noundef nonnull align 8 dereferenceable(32) %_M_storage) #3
  ret ptr %call
}

; Function Attrs: mustprogress nounwind uwtable
define internal void @_ZNSt15__allocated_ptrISaISt23_Sp_counted_ptr_inplaceIN19OpenColorIO_v2_4dev12_GLOBAL__N_125GradingToneLinearFwdOpCPUESaIvELN9__gnu_cxx12_Lock_policyE2EEEED2Ev(ptr noundef nonnull align 8 dereferenceable(16) %this) unnamed_addr #5 align 2 personality ptr @__gxx_personality_v0 {
entry:
  %this.addr = alloca ptr, align 8
  store ptr %this, ptr %this.addr, align 8
  %this1 = load ptr, ptr %this.addr, align 8
  %_M_ptr = getelementptr inbounds %"struct.std::__allocated_ptr", ptr %this1, i32 0, i32 1
  %0 = load ptr, ptr %_M_ptr, align 8
  %cmp = icmp ne ptr %0, null
  br i1 %cmp, label %if.then, label %if.end

if.then:                                          ; preds = %entry
  %_M_alloc = getelementptr inbounds %"struct.std::__allocated_ptr", ptr %this1, i32 0, i32 0
  %1 = load ptr, ptr %_M_alloc, align 8
  %_M_ptr2 = getelementptr inbounds %"struct.std::__allocated_ptr", ptr %this1, i32 0, i32 1
  %2 = load ptr, ptr %_M_ptr2, align 8
  invoke void @_ZNSt16allocator_traitsISaISt23_Sp_counted_ptr_inplaceIN19OpenColorIO_v2_4dev12_GLOBAL__N_125GradingToneLinearFwdOpCPUESaIvELN9__gnu_cxx12_Lock_policyE2EEEE10deallocateERS8_PS7_m(ptr noundef nonnull align 1 dereferenceable(1) %1, ptr noundef %2, i64 noundef 1)
          to label %invoke.cont unwind label %terminate.lpad

invoke.cont:                                      ; preds = %if.then
  br label %if.end

if.end:                                           ; preds = %invoke.cont, %entry
  ret void

terminate.lpad:                                   ; preds = %if.then
  %3 = landingpad { ptr, i32 }
          catch ptr null
  %4 = extractvalue { ptr, i32 } %3, 0
  call void @__clang_call_terminate(ptr %4) #19
  unreachable
}

; Function Attrs: mustprogress nounwind uwtable
define internal void @_ZNSaISt23_Sp_counted_ptr_inplaceIN19OpenColorIO_v2_4dev12_GLOBAL__N_125GradingToneLinearFwdOpCPUESaIvELN9__gnu_cxx12_Lock_policyE2EEED2Ev(ptr noundef nonnull align 1 dereferenceable(1) %this) unnamed_addr #5 align 2 {
entry:
  %this.addr = alloca ptr, align 8
  store ptr %this, ptr %this.addr, align 8
  %this1 = load ptr, ptr %this.addr, align 8
  call void @_ZNSt15__new_allocatorISt23_Sp_counted_ptr_inplaceIN19OpenColorIO_v2_4dev12_GLOBAL__N_125GradingToneLinearFwdOpCPUESaIvELN9__gnu_cxx12_Lock_policyE2EEED2Ev(ptr noundef nonnull align 1 dereferenceable(1) %this1) #3
  ret void
}

; Function Attrs: mustprogress nounwind uwtable
define internal void @_ZNSt15__new_allocatorISt23_Sp_counted_ptr_inplaceIN19OpenColorIO_v2_4dev12_GLOBAL__N_125GradingToneLinearFwdOpCPUESaIvELN9__gnu_cxx12_Lock_policyE2EEEC2Ev(ptr noundef nonnull align 1 dereferenceable(1) %this) unnamed_addr #5 align 2 {
entry:
  %this.addr = alloca ptr, align 8
  store ptr %this, ptr %this.addr, align 8
  ret void
}

; Function Attrs: mustprogress uwtable
define internal noundef ptr @_ZNSt16allocator_traitsISaISt23_Sp_counted_ptr_inplaceIN19OpenColorIO_v2_4dev12_GLOBAL__N_125GradingToneLinearFwdOpCPUESaIvELN9__gnu_cxx12_Lock_policyE2EEEE8allocateERS8_m(ptr noundef nonnull align 1 dereferenceable(1) %__a, i64 noundef %__n) #6 align 2 {
entry:
  %__a.addr = alloca ptr, align 8
  %__n.addr = alloca i64, align 8
  store ptr %__a, ptr %__a.addr, align 8
  store i64 %__n, ptr %__n.addr, align 8
  %0 = load ptr, ptr %__a.addr, align 8
  %1 = load i64, ptr %__n.addr, align 8
  %call = call noundef ptr @_ZNSt15__new_allocatorISt23_Sp_counted_ptr_inplaceIN19OpenColorIO_v2_4dev12_GLOBAL__N_125GradingToneLinearFwdOpCPUESaIvELN9__gnu_cxx12_Lock_policyE2EEE8allocateEmPKv(ptr noundef nonnull align 1 dereferenceable(1) %0, i64 noundef %1, ptr noundef null)
  ret ptr %call
}

; Function Attrs: mustprogress nounwind uwtable
define internal void @_ZNSt15__allocated_ptrISaISt23_Sp_counted_ptr_inplaceIN19OpenColorIO_v2_4dev12_GLOBAL__N_125GradingToneLinearFwdOpCPUESaIvELN9__gnu_cxx12_Lock_policyE2EEEEC2ERS8_PS7_(ptr noundef nonnull align 8 dereferenceable(16) %this, ptr noundef nonnull align 1 dereferenceable(1) %__a, ptr noundef %__ptr) unnamed_addr #5 align 2 {
entry:
  %this.addr = alloca ptr, align 8
  %__a.addr = alloca ptr, align 8
  %__ptr.addr = alloca ptr, align 8
  store ptr %this, ptr %this.addr, align 8
  store ptr %__a, ptr %__a.addr, align 8
  store ptr %__ptr, ptr %__ptr.addr, align 8
  %this1 = load ptr, ptr %this.addr, align 8
  %_M_alloc = getelementptr inbounds %"struct.std::__allocated_ptr", ptr %this1, i32 0, i32 0
  %0 = load ptr, ptr %__a.addr, align 8
  store ptr %0, ptr %_M_alloc, align 8
  %_M_ptr = getelementptr inbounds %"struct.std::__allocated_ptr", ptr %this1, i32 0, i32 1
  %1 = load ptr, ptr %__ptr.addr, align 8
  store ptr %1, ptr %_M_ptr, align 8
  ret void
}

; Function Attrs: mustprogress uwtable
define internal noundef ptr @_ZNSt15__new_allocatorISt23_Sp_counted_ptr_inplaceIN19OpenColorIO_v2_4dev12_GLOBAL__N_125GradingToneLinearFwdOpCPUESaIvELN9__gnu_cxx12_Lock_policyE2EEE8allocateEmPKv(ptr noundef nonnull align 1 dereferenceable(1) %this, i64 noundef %__n, ptr noundef %0) #6 align 2 {
entry:
  %this.addr = alloca ptr, align 8
  %__n.addr = alloca i64, align 8
  %.addr = alloca ptr, align 8
  store ptr %this, ptr %this.addr, align 8
  store i64 %__n, ptr %__n.addr, align 8
  store ptr %0, ptr %.addr, align 8
  %this1 = load ptr, ptr %this.addr, align 8
  %1 = load i64, ptr %__n.addr, align 8
  %call = call noundef i64 @_ZNKSt15__new_allocatorISt23_Sp_counted_ptr_inplaceIN19OpenColorIO_v2_4dev12_GLOBAL__N_125GradingToneLinearFwdOpCPUESaIvELN9__gnu_cxx12_Lock_policyE2EEE11_M_max_sizeEv(ptr noundef nonnull align 1 dereferenceable(1) %this1) #3
  %cmp = icmp ugt i64 %1, %call
  br i1 %cmp, label %if.then, label %if.end4

if.then:                                          ; preds = %entry
  %2 = load i64, ptr %__n.addr, align 8
  %cmp2 = icmp ugt i64 %2, 384307168202282325
  br i1 %cmp2, label %if.then3, label %if.end

if.then3:                                         ; preds = %if.then
  call void @_ZSt28__throw_bad_array_new_lengthv() #18
  unreachable

if.end:                                           ; preds = %if.then
  call void @_ZSt17__throw_bad_allocv() #18
  unreachable

if.end4:                                          ; preds = %entry
  %3 = load i64, ptr %__n.addr, align 8
  %mul = mul i64 %3, 48
  %call5 = call noalias noundef nonnull ptr @_Znwm(i64 noundef %mul) #20
  ret ptr %call5
}

; Function Attrs: mustprogress nounwind uwtable
define internal noundef i64 @_ZNKSt15__new_allocatorISt23_Sp_counted_ptr_inplaceIN19OpenColorIO_v2_4dev12_GLOBAL__N_125GradingToneLinearFwdOpCPUESaIvELN9__gnu_cxx12_Lock_policyE2EEE11_M_max_sizeEv(ptr noundef nonnull align 1 dereferenceable(1) %this) #5 align 2 {
entry:
  %this.addr = alloca ptr, align 8
  store ptr %this, ptr %this.addr, align 8
  ret i64 192153584101141162
}

; Function Attrs: noreturn
declare void @_ZSt28__throw_bad_array_new_lengthv() #9

; Function Attrs: noreturn
declare void @_ZSt17__throw_bad_allocv() #9

; Function Attrs: nobuiltin allocsize(0)
declare noundef nonnull ptr @_Znwm(i64 noundef) #10

; Function Attrs: mustprogress nounwind uwtable
define internal noundef ptr @_ZSt12__to_addressISt23_Sp_counted_ptr_inplaceIN19OpenColorIO_v2_4dev12_GLOBAL__N_125GradingToneLinearFwdOpCPUESaIvELN9__gnu_cxx12_Lock_policyE2EEEPT_S9_(ptr noundef %__ptr) #5 {
entry:
  %__ptr.addr = alloca ptr, align 8
  store ptr %__ptr, ptr %__ptr.addr, align 8
  %0 = load ptr, ptr %__ptr.addr, align 8
  ret ptr %0
}

; Function Attrs: mustprogress nounwind uwtable
define linkonce_odr hidden void @_ZNSt16_Sp_counted_baseILN9__gnu_cxx12_Lock_policyE2EEC2Ev(ptr noundef nonnull align 8 dereferenceable(16) %this) unnamed_addr #5 comdat align 2 {
entry:
  %this.addr = alloca ptr, align 8
  store ptr %this, ptr %this.addr, align 8
  %this1 = load ptr, ptr %this.addr, align 8
  store ptr getelementptr inbounds ({ [7 x ptr] }, ptr @_ZTVSt16_Sp_counted_baseILN9__gnu_cxx12_Lock_policyE2EE, i32 0, inrange i32 0, i32 2), ptr %this1, align 8
  %_M_use_count = getelementptr inbounds %"class.std::_Sp_counted_base", ptr %this1, i32 0, i32 1
  store i32 1, ptr %_M_use_count, align 8
  %_M_weak_count = getelementptr inbounds %"class.std::_Sp_counted_base", ptr %this1, i32 0, i32 2
  store i32 1, ptr %_M_weak_count, align 4
  ret void
}

; Function Attrs: mustprogress nounwind uwtable
define internal void @_ZNSt23_Sp_counted_ptr_inplaceIN19OpenColorIO_v2_4dev12_GLOBAL__N_125GradingToneLinearFwdOpCPUESaIvELN9__gnu_cxx12_Lock_policyE2EE5_ImplC2ES3_(ptr noundef nonnull align 8 dereferenceable(32) %this) unnamed_addr #5 align 2 personality ptr @__gxx_personality_v0 {
entry:
  %__a = alloca %"class.std::allocator.27", align 1
  %this.addr = alloca ptr, align 8
  store ptr %this, ptr %this.addr, align 8
  %this1 = load ptr, ptr %this.addr, align 8
  invoke void @_ZNSt14_Sp_ebo_helperILi0ESaIvELb1EEC2ERKS0_(ptr noundef nonnull align 1 dereferenceable(1) %this1, ptr noundef nonnull align 1 dereferenceable(1) %__a)
          to label %invoke.cont unwind label %terminate.lpad

invoke.cont:                                      ; preds = %entry
  ret void

terminate.lpad:                                   ; preds = %entry
  %0 = landingpad { ptr, i32 }
          catch ptr null
  %1 = extractvalue { ptr, i32 } %0, 0
  call void @__clang_call_terminate(ptr %1) #19
  unreachable
}

; Function Attrs: mustprogress uwtable
define internal void @_ZNSt16allocator_traitsISaIvEE9constructIN19OpenColorIO_v2_4dev12_GLOBAL__N_125GradingToneLinearFwdOpCPUEJRSt10shared_ptrIKNS3_17GradingToneOpDataEEEEEvRS0_PT_DpOT0_(ptr noundef nonnull align 1 dereferenceable(1) %0, ptr noundef %__p, ptr noundef nonnull align 8 dereferenceable(16) %__args) #6 align 2 {
entry:
  %.addr = alloca ptr, align 8
  %__p.addr = alloca ptr, align 8
  %__args.addr = alloca ptr, align 8
  store ptr %0, ptr %.addr, align 8
  store ptr %__p, ptr %__p.addr, align 8
  store ptr %__args, ptr %__args.addr, align 8
  %1 = load ptr, ptr %__p.addr, align 8
  %2 = load ptr, ptr %__args.addr, align 8
  call void @_ZSt10_ConstructIN19OpenColorIO_v2_4dev12_GLOBAL__N_125GradingToneLinearFwdOpCPUEJRSt10shared_ptrIKNS0_17GradingToneOpDataEEEEvPT_DpOT0_(ptr noundef %1, ptr noundef nonnull align 8 dereferenceable(16) %2)
  ret void
}

; Function Attrs: mustprogress nounwind uwtable
define internal void @_ZNSt23_Sp_counted_ptr_inplaceIN19OpenColorIO_v2_4dev12_GLOBAL__N_125GradingToneLinearFwdOpCPUESaIvELN9__gnu_cxx12_Lock_policyE2EED2Ev(ptr noundef nonnull align 8 dereferenceable(48) %this) unnamed_addr #5 align 2 {
entry:
  %this.addr = alloca ptr, align 8
  store ptr %this, ptr %this.addr, align 8
  %this1 = load ptr, ptr %this.addr, align 8
  call void @_ZNSt16_Sp_counted_baseILN9__gnu_cxx12_Lock_policyE2EED2Ev(ptr noundef nonnull align 8 dereferenceable(16) %this1) #3
  ret void
}

; Function Attrs: mustprogress nounwind uwtable
define internal void @_ZNSt23_Sp_counted_ptr_inplaceIN19OpenColorIO_v2_4dev12_GLOBAL__N_125GradingToneLinearFwdOpCPUESaIvELN9__gnu_cxx12_Lock_policyE2EED0Ev(ptr noundef nonnull align 8 dereferenceable(48) %this) unnamed_addr #5 align 2 {
entry:
  %this.addr = alloca ptr, align 8
  store ptr %this, ptr %this.addr, align 8
  %this1 = load ptr, ptr %this.addr, align 8
  call void @_ZNSt23_Sp_counted_ptr_inplaceIN19OpenColorIO_v2_4dev12_GLOBAL__N_125GradingToneLinearFwdOpCPUESaIvELN9__gnu_cxx12_Lock_policyE2EED2Ev(ptr noundef nonnull align 8 dereferenceable(48) %this1) #3
  call void @_ZdlPv(ptr noundef %this1) #21
  ret void
}

; Function Attrs: mustprogress nounwind uwtable
define internal void @_ZNSt23_Sp_counted_ptr_inplaceIN19OpenColorIO_v2_4dev12_GLOBAL__N_125GradingToneLinearFwdOpCPUESaIvELN9__gnu_cxx12_Lock_policyE2EE10_M_disposeEv(ptr noundef nonnull align 8 dereferenceable(48) %this) unnamed_addr #5 align 2 {
entry:
  %this.addr = alloca ptr, align 8
  store ptr %this, ptr %this.addr, align 8
  %this1 = load ptr, ptr %this.addr, align 8
  %_M_impl = getelementptr inbounds %"class.std::_Sp_counted_ptr_inplace", ptr %this1, i32 0, i32 1
  %call = call noundef nonnull align 1 dereferenceable(1) ptr @_ZNSt23_Sp_counted_ptr_inplaceIN19OpenColorIO_v2_4dev12_GLOBAL__N_125GradingToneLinearFwdOpCPUESaIvELN9__gnu_cxx12_Lock_policyE2EE5_Impl8_M_allocEv(ptr noundef nonnull align 8 dereferenceable(32) %_M_impl) #3
  %call2 = call noundef ptr @_ZNSt23_Sp_counted_ptr_inplaceIN19OpenColorIO_v2_4dev12_GLOBAL__N_125GradingToneLinearFwdOpCPUESaIvELN9__gnu_cxx12_Lock_policyE2EE6_M_ptrEv(ptr noundef nonnull align 8 dereferenceable(48) %this1) #3
  call void @_ZNSt16allocator_traitsISaIvEE7destroyIN19OpenColorIO_v2_4dev12_GLOBAL__N_125GradingToneLinearFwdOpCPUEEEvRS0_PT_(ptr noundef nonnull align 1 dereferenceable(1) %call, ptr noundef %call2) #3
  ret void
}

; Function Attrs: mustprogress nounwind uwtable
define internal void @_ZNSt23_Sp_counted_ptr_inplaceIN19OpenColorIO_v2_4dev12_GLOBAL__N_125GradingToneLinearFwdOpCPUESaIvELN9__gnu_cxx12_Lock_policyE2EE10_M_destroyEv(ptr noundef nonnull align 8 dereferenceable(48) %this) unnamed_addr #5 align 2 {
entry:
  %this.addr = alloca ptr, align 8
  %__a = alloca %"class.std::allocator.28", align 1
  %__guard_ptr = alloca %"struct.std::__allocated_ptr", align 8
  store ptr %this, ptr %this.addr, align 8
  %this1 = load ptr, ptr %this.addr, align 8
  %_M_impl = getelementptr inbounds %"class.std::_Sp_counted_ptr_inplace", ptr %this1, i32 0, i32 1
  %call = call noundef nonnull align 1 dereferenceable(1) ptr @_ZNSt23_Sp_counted_ptr_inplaceIN19OpenColorIO_v2_4dev12_GLOBAL__N_125GradingToneLinearFwdOpCPUESaIvELN9__gnu_cxx12_Lock_policyE2EE5_Impl8_M_allocEv(ptr noundef nonnull align 8 dereferenceable(32) %_M_impl) #3
  call void @_ZNSaISt23_Sp_counted_ptr_inplaceIN19OpenColorIO_v2_4dev12_GLOBAL__N_125GradingToneLinearFwdOpCPUESaIvELN9__gnu_cxx12_Lock_policyE2EEEC2IvEERKSaIT_E(ptr noundef nonnull align 1 dereferenceable(1) %__a, ptr noundef nonnull align 1 dereferenceable(1) %call) #3
  call void @_ZNSt15__allocated_ptrISaISt23_Sp_counted_ptr_inplaceIN19OpenColorIO_v2_4dev12_GLOBAL__N_125GradingToneLinearFwdOpCPUESaIvELN9__gnu_cxx12_Lock_policyE2EEEEC2ERS8_PS7_(ptr noundef nonnull align 8 dereferenceable(16) %__guard_ptr, ptr noundef nonnull align 1 dereferenceable(1) %__a, ptr noundef %this1) #3
  call void @_ZNSt23_Sp_counted_ptr_inplaceIN19OpenColorIO_v2_4dev12_GLOBAL__N_125GradingToneLinearFwdOpCPUESaIvELN9__gnu_cxx12_Lock_policyE2EED2Ev(ptr noundef nonnull align 8 dereferenceable(48) %this1) #3
  call void @_ZNSt15__allocated_ptrISaISt23_Sp_counted_ptr_inplaceIN19OpenColorIO_v2_4dev12_GLOBAL__N_125GradingToneLinearFwdOpCPUESaIvELN9__gnu_cxx12_Lock_policyE2EEEED2Ev(ptr noundef nonnull align 8 dereferenceable(16) %__guard_ptr) #3
  call void @_ZNSaISt23_Sp_counted_ptr_inplaceIN19OpenColorIO_v2_4dev12_GLOBAL__N_125GradingToneLinearFwdOpCPUESaIvELN9__gnu_cxx12_Lock_policyE2EEED2Ev(ptr noundef nonnull align 1 dereferenceable(1) %__a) #3
  ret void
}

; Function Attrs: mustprogress nounwind uwtable
define internal noundef ptr @_ZNSt23_Sp_counted_ptr_inplaceIN19OpenColorIO_v2_4dev12_GLOBAL__N_125GradingToneLinearFwdOpCPUESaIvELN9__gnu_cxx12_Lock_policyE2EE14_M_get_deleterERKSt9type_info(ptr noundef nonnull align 8 dereferenceable(48) %this, ptr noundef nonnull align 8 dereferenceable(16) %__ti) unnamed_addr #5 align 2 {
entry:
  %retval = alloca ptr, align 8
  %this.addr = alloca ptr, align 8
  %__ti.addr = alloca ptr, align 8
  %__ptr = alloca ptr, align 8
  store ptr %this, ptr %this.addr, align 8
  store ptr %__ti, ptr %__ti.addr, align 8
  %this1 = load ptr, ptr %this.addr, align 8
  %call = call noundef ptr @_ZNSt23_Sp_counted_ptr_inplaceIN19OpenColorIO_v2_4dev12_GLOBAL__N_125GradingToneLinearFwdOpCPUESaIvELN9__gnu_cxx12_Lock_policyE2EE6_M_ptrEv(ptr noundef nonnull align 8 dereferenceable(48) %this1) #3
  store ptr %call, ptr %__ptr, align 8
  %0 = load ptr, ptr %__ti.addr, align 8
  %call2 = call noundef nonnull align 8 dereferenceable(16) ptr @_ZNSt19_Sp_make_shared_tag5_S_tiEv() #3
  %cmp = icmp eq ptr %0, %call2
  br i1 %cmp, label %if.then, label %lor.lhs.false

lor.lhs.false:                                    ; preds = %entry
  %1 = load ptr, ptr %__ti.addr, align 8
  %call3 = call noundef zeroext i1 @_ZNKSt9type_infoeqERKS_(ptr noundef nonnull align 8 dereferenceable(16) %1, ptr noundef nonnull align 8 dereferenceable(16) @_ZTISt19_Sp_make_shared_tag) #3
  br i1 %call3, label %if.then, label %if.end

if.then:                                          ; preds = %lor.lhs.false, %entry
  %2 = load ptr, ptr %__ptr, align 8
  store ptr %2, ptr %retval, align 8
  br label %return

if.end:                                           ; preds = %lor.lhs.false
  store ptr null, ptr %retval, align 8
  br label %return

return:                                           ; preds = %if.end, %if.then
  %3 = load ptr, ptr %retval, align 8
  ret ptr %3
}

; Function Attrs: mustprogress nounwind uwtable
define linkonce_odr hidden void @_ZNSt16_Sp_counted_baseILN9__gnu_cxx12_Lock_policyE2EED2Ev(ptr noundef nonnull align 8 dereferenceable(16) %this) unnamed_addr #5 comdat align 2 {
entry:
  %this.addr = alloca ptr, align 8
  store ptr %this, ptr %this.addr, align 8
  ret void
}

; Function Attrs: mustprogress nounwind uwtable
define linkonce_odr hidden void @_ZNSt16_Sp_counted_baseILN9__gnu_cxx12_Lock_policyE2EED0Ev(ptr noundef nonnull align 8 dereferenceable(16) %this) unnamed_addr #5 comdat align 2 {
entry:
  %this.addr = alloca ptr, align 8
  store ptr %this, ptr %this.addr, align 8
  call void @llvm.trap() #19
  unreachable
}

declare void @__cxa_pure_virtual() unnamed_addr

; Function Attrs: mustprogress nounwind uwtable
define linkonce_odr hidden void @_ZNSt16_Sp_counted_baseILN9__gnu_cxx12_Lock_policyE2EE10_M_destroyEv(ptr noundef nonnull align 8 dereferenceable(16) %this) unnamed_addr #5 comdat align 2 {
entry:
  %this.addr = alloca ptr, align 8
  store ptr %this, ptr %this.addr, align 8
  %this1 = load ptr, ptr %this.addr, align 8
  %isnull = icmp eq ptr %this1, null
  br i1 %isnull, label %delete.end, label %delete.notnull

delete.notnull:                                   ; preds = %entry
  %vtable = load ptr, ptr %this1, align 8
  %vfn = getelementptr inbounds ptr, ptr %vtable, i64 1
  %0 = load ptr, ptr %vfn, align 8
  call void %0(ptr noundef nonnull align 8 dereferenceable(16) %this1) #3
  br label %delete.end

delete.end:                                       ; preds = %delete.notnull, %entry
  ret void
}

; Function Attrs: cold noreturn nounwind memory(inaccessiblemem: write)
declare void @llvm.trap() #11

; Function Attrs: mustprogress nounwind uwtable
define linkonce_odr hidden void @_ZNSt14_Sp_ebo_helperILi0ESaIvELb1EEC2ERKS0_(ptr noundef nonnull align 1 dereferenceable(1) %this, ptr noundef nonnull align 1 dereferenceable(1) %__tp) unnamed_addr #5 comdat align 2 {
entry:
  %this.addr = alloca ptr, align 8
  %__tp.addr = alloca ptr, align 8
  store ptr %this, ptr %this.addr, align 8
  store ptr %__tp, ptr %__tp.addr, align 8
  ret void
}

; Function Attrs: mustprogress uwtable
define internal void @_ZSt10_ConstructIN19OpenColorIO_v2_4dev12_GLOBAL__N_125GradingToneLinearFwdOpCPUEJRSt10shared_ptrIKNS0_17GradingToneOpDataEEEEvPT_DpOT0_(ptr noundef %__p, ptr noundef nonnull align 8 dereferenceable(16) %__args) #6 {
entry:
  %__p.addr = alloca ptr, align 8
  %__args.addr = alloca ptr, align 8
  store ptr %__p, ptr %__p.addr, align 8
  store ptr %__args, ptr %__args.addr, align 8
  %0 = load ptr, ptr %__p.addr, align 8
  %1 = load ptr, ptr %__args.addr, align 8
  call void @_ZN19OpenColorIO_v2_4dev12_GLOBAL__N_125GradingToneLinearFwdOpCPUC2ERSt10shared_ptrIKNS_17GradingToneOpDataEE(ptr noundef nonnull align 8 dereferenceable(28) %0, ptr noundef nonnull align 8 dereferenceable(16) %1)
  ret void
}

; Function Attrs: mustprogress uwtable
define internal void @_ZN19OpenColorIO_v2_4dev12_GLOBAL__N_125GradingToneLinearFwdOpCPUC2ERSt10shared_ptrIKNS_17GradingToneOpDataEE(ptr noundef nonnull align 8 dereferenceable(28) %this, ptr noundef nonnull align 8 dereferenceable(16) %gt) unnamed_addr #6 align 2 {
entry:
  %this.addr = alloca ptr, align 8
  %gt.addr = alloca ptr, align 8
  store ptr %this, ptr %this.addr, align 8
  store ptr %gt, ptr %gt.addr, align 8
  %this1 = load ptr, ptr %this.addr, align 8
  %0 = load ptr, ptr %gt.addr, align 8
  call void @_ZN19OpenColorIO_v2_4dev12_GLOBAL__N_119GradingToneFwdOpCPUC2ERSt10shared_ptrIKNS_17GradingToneOpDataEE(ptr noundef nonnull align 8 dereferenceable(28) %this1, ptr noundef nonnull align 8 dereferenceable(16) %0)
  store ptr getelementptr inbounds ({ [8 x ptr] }, ptr @_ZTVN19OpenColorIO_v2_4dev12_GLOBAL__N_125GradingToneLinearFwdOpCPUE, i32 0, inrange i32 0, i32 2), ptr %this1, align 8
  ret void
}

; Function Attrs: mustprogress nounwind uwtable
define internal void @_ZN19OpenColorIO_v2_4dev12_GLOBAL__N_125GradingToneLinearFwdOpCPUD2Ev(ptr noundef nonnull align 8 dereferenceable(28) %this) unnamed_addr #5 align 2 {
entry:
  %this.addr = alloca ptr, align 8
  store ptr %this, ptr %this.addr, align 8
  %this1 = load ptr, ptr %this.addr, align 8
  call void @_ZN19OpenColorIO_v2_4dev12_GLOBAL__N_119GradingToneFwdOpCPUD2Ev(ptr noundef nonnull align 8 dereferenceable(28) %this1) #3
  ret void
}

; Function Attrs: mustprogress nounwind uwtable
define internal void @_ZN19OpenColorIO_v2_4dev12_GLOBAL__N_125GradingToneLinearFwdOpCPUD0Ev(ptr noundef nonnull align 8 dereferenceable(28) %this) unnamed_addr #5 align 2 {
entry:
  %this.addr = alloca ptr, align 8
  store ptr %this, ptr %this.addr, align 8
  %this1 = load ptr, ptr %this.addr, align 8
  call void @_ZN19OpenColorIO_v2_4dev12_GLOBAL__N_125GradingToneLinearFwdOpCPUD2Ev(ptr noundef nonnull align 8 dereferenceable(28) %this1) #3
  call void @_ZdlPv(ptr noundef %this1) #21
  ret void
}

; Function Attrs: mustprogress uwtable
define internal void @_ZNK19OpenColorIO_v2_4dev12_GLOBAL__N_125GradingToneLinearFwdOpCPU5applyEPKvPvl(ptr noundef nonnull align 8 dereferenceable(28) %this, ptr noundef %inImg, ptr noundef %outImg, i64 noundef %numPixels) unnamed_addr #6 align 2 {
entry:
  %this.addr = alloca ptr, align 8
  %inImg.addr = alloca ptr, align 8
  %outImg.addr = alloca ptr, align 8
  %numPixels.addr = alloca i64, align 8
  %in = alloca ptr, align 8
  %out = alloca ptr, align 8
  %v = alloca ptr, align 8
  %vpr = alloca ptr, align 8
  %idx = alloca i64, align 8
  store ptr %this, ptr %this.addr, align 8
  store ptr %inImg, ptr %inImg.addr, align 8
  store ptr %outImg, ptr %outImg.addr, align 8
  store i64 %numPixels, ptr %numPixels.addr, align 8
  %this1 = load ptr, ptr %this.addr, align 8
  %m_gt = getelementptr inbounds %"class.OpenColorIO_v2_4dev::(anonymous namespace)::GradingToneOpCPU", ptr %this1, i32 0, i32 1
  %call = call noundef ptr @_ZNKSt19__shared_ptr_accessIN19OpenColorIO_v2_4dev30DynamicPropertyGradingToneImplELN9__gnu_cxx12_Lock_policyE2ELb0ELb0EEptEv(ptr noundef nonnull align 1 dereferenceable(1) %m_gt) #3
  %call2 = call noundef zeroext i1 @_ZNK19OpenColorIO_v2_4dev30DynamicPropertyGradingToneImpl14getLocalBypassEv(ptr noundef nonnull align 8 dereferenceable(1208) %call)
  br i1 %call2, label %if.then, label %if.end4

if.then:                                          ; preds = %entry
  %0 = load ptr, ptr %inImg.addr, align 8
  %1 = load ptr, ptr %outImg.addr, align 8
  %cmp = icmp ne ptr %0, %1
  br i1 %cmp, label %if.then3, label %if.end

if.then3:                                         ; preds = %if.then
  %2 = load ptr, ptr %outImg.addr, align 8
  %3 = load ptr, ptr %inImg.addr, align 8
  %4 = load i64, ptr %numPixels.addr, align 8
  %mul = mul i64 %4, 16
  call void @llvm.memcpy.p0.p0.i64(ptr align 1 %2, ptr align 1 %3, i64 %mul, i1 false)
  br label %if.end

if.end:                                           ; preds = %if.then3, %if.then
  br label %for.end

if.end4:                                          ; preds = %entry
  %5 = load ptr, ptr %inImg.addr, align 8
  store ptr %5, ptr %in, align 8
  %6 = load ptr, ptr %outImg.addr, align 8
  store ptr %6, ptr %out, align 8
  %m_gt5 = getelementptr inbounds %"class.OpenColorIO_v2_4dev::(anonymous namespace)::GradingToneOpCPU", ptr %this1, i32 0, i32 1
  %call6 = call noundef ptr @_ZNKSt19__shared_ptr_accessIN19OpenColorIO_v2_4dev30DynamicPropertyGradingToneImplELN9__gnu_cxx12_Lock_policyE2ELb0ELb0EEptEv(ptr noundef nonnull align 1 dereferenceable(1) %m_gt5) #3
  %vtable = load ptr, ptr %call6, align 8
  %vfn = getelementptr inbounds ptr, ptr %vtable, i64 3
  %7 = load ptr, ptr %vfn, align 8
  %call7 = call noundef nonnull align 8 dereferenceable(248) ptr %7(ptr noundef nonnull align 8 dereferenceable(1208) %call6)
  store ptr %call7, ptr %v, align 8
  %m_gt8 = getelementptr inbounds %"class.OpenColorIO_v2_4dev::(anonymous namespace)::GradingToneOpCPU", ptr %this1, i32 0, i32 1
  %call9 = call noundef ptr @_ZNKSt19__shared_ptr_accessIN19OpenColorIO_v2_4dev30DynamicPropertyGradingToneImplELN9__gnu_cxx12_Lock_policyE2ELb0ELb0EEptEv(ptr noundef nonnull align 1 dereferenceable(1) %m_gt8) #3
  %call10 = call noundef nonnull align 8 dereferenceable(936) ptr @_ZNK19OpenColorIO_v2_4dev30DynamicPropertyGradingToneImpl16getComputedValueEv(ptr noundef nonnull align 8 dereferenceable(1208) %call9)
  store ptr %call10, ptr %vpr, align 8
  store i64 0, ptr %idx, align 8
  br label %for.cond

for.cond:                                         ; preds = %for.inc, %if.end4
  %8 = load i64, ptr %idx, align 8
  %9 = load i64, ptr %numPixels.addr, align 8
  %cmp11 = icmp slt i64 %8, %9
  br i1 %cmp11, label %for.body, label %for.end

for.body:                                         ; preds = %for.cond
  %10 = load ptr, ptr %in, align 8
  %11 = load ptr, ptr %out, align 8
  call void @_ZN19OpenColorIO_v2_4dev12_GLOBAL__N_16LinLogEPKfPf(ptr noundef %10, ptr noundef %11)
  %12 = load ptr, ptr %v, align 8
  %13 = load ptr, ptr %vpr, align 8
  %14 = load ptr, ptr %out, align 8
  call void @_ZNK19OpenColorIO_v2_4dev12_GLOBAL__N_119GradingToneFwdOpCPU4midsERKNS_11GradingToneERKNS_20GradingTonePreRenderENS_11RGBMChannelEPf(ptr noundef nonnull align 8 dereferenceable(28) %this1, ptr noundef nonnull align 8 dereferenceable(248) %12, ptr noundef nonnull align 8 dereferenceable(936) %13, i32 noundef 0, ptr noundef %14)
  %15 = load ptr, ptr %v, align 8
  %16 = load ptr, ptr %vpr, align 8
  %17 = load ptr, ptr %out, align 8
  call void @_ZNK19OpenColorIO_v2_4dev12_GLOBAL__N_119GradingToneFwdOpCPU4midsERKNS_11GradingToneERKNS_20GradingTonePreRenderENS_11RGBMChannelEPf(ptr noundef nonnull align 8 dereferenceable(28) %this1, ptr noundef nonnull align 8 dereferenceable(248) %15, ptr noundef nonnull align 8 dereferenceable(936) %16, i32 noundef 1, ptr noundef %17)
  %18 = load ptr, ptr %v, align 8
  %19 = load ptr, ptr %vpr, align 8
  %20 = load ptr, ptr %out, align 8
  call void @_ZNK19OpenColorIO_v2_4dev12_GLOBAL__N_119GradingToneFwdOpCPU4midsERKNS_11GradingToneERKNS_20GradingTonePreRenderENS_11RGBMChannelEPf(ptr noundef nonnull align 8 dereferenceable(28) %this1, ptr noundef nonnull align 8 dereferenceable(248) %18, ptr noundef nonnull align 8 dereferenceable(936) %19, i32 noundef 2, ptr noundef %20)
  %21 = load ptr, ptr %v, align 8
  %22 = load ptr, ptr %vpr, align 8
  %23 = load ptr, ptr %out, align 8
  call void @_ZNK19OpenColorIO_v2_4dev12_GLOBAL__N_119GradingToneFwdOpCPU4midsERKNS_11GradingToneERKNS_20GradingTonePreRenderENS_11RGBMChannelEPf(ptr noundef nonnull align 8 dereferenceable(28) %this1, ptr noundef nonnull align 8 dereferenceable(248) %21, ptr noundef nonnull align 8 dereferenceable(936) %22, i32 noundef 3, ptr noundef %23)
  %24 = load ptr, ptr %v, align 8
  %25 = load ptr, ptr %vpr, align 8
  %26 = load ptr, ptr %out, align 8
  call void @_ZNK19OpenColorIO_v2_4dev12_GLOBAL__N_119GradingToneFwdOpCPU15highlightShadowERKNS_11GradingToneERKNS_20GradingTonePreRenderENS_11RGBMChannelEbPf(ptr noundef nonnull align 8 dereferenceable(28) %this1, ptr noundef nonnull align 8 dereferenceable(248) %24, ptr noundef nonnull align 8 dereferenceable(936) %25, i32 noundef 0, i1 noundef zeroext false, ptr noundef %26)
  %27 = load ptr, ptr %v, align 8
  %28 = load ptr, ptr %vpr, align 8
  %29 = load ptr, ptr %out, align 8
  call void @_ZNK19OpenColorIO_v2_4dev12_GLOBAL__N_119GradingToneFwdOpCPU15highlightShadowERKNS_11GradingToneERKNS_20GradingTonePreRenderENS_11RGBMChannelEbPf(ptr noundef nonnull align 8 dereferenceable(28) %this1, ptr noundef nonnull align 8 dereferenceable(248) %27, ptr noundef nonnull align 8 dereferenceable(936) %28, i32 noundef 1, i1 noundef zeroext false, ptr noundef %29)
  %30 = load ptr, ptr %v, align 8
  %31 = load ptr, ptr %vpr, align 8
  %32 = load ptr, ptr %out, align 8
  call void @_ZNK19OpenColorIO_v2_4dev12_GLOBAL__N_119GradingToneFwdOpCPU15highlightShadowERKNS_11GradingToneERKNS_20GradingTonePreRenderENS_11RGBMChannelEbPf(ptr noundef nonnull align 8 dereferenceable(28) %this1, ptr noundef nonnull align 8 dereferenceable(248) %30, ptr noundef nonnull align 8 dereferenceable(936) %31, i32 noundef 2, i1 noundef zeroext false, ptr noundef %32)
  %33 = load ptr, ptr %v, align 8
  %34 = load ptr, ptr %vpr, align 8
  %35 = load ptr, ptr %out, align 8
  call void @_ZNK19OpenColorIO_v2_4dev12_GLOBAL__N_119GradingToneFwdOpCPU15highlightShadowERKNS_11GradingToneERKNS_20GradingTonePreRenderENS_11RGBMChannelEbPf(ptr noundef nonnull align 8 dereferenceable(28) %this1, ptr noundef nonnull align 8 dereferenceable(248) %33, ptr noundef nonnull align 8 dereferenceable(936) %34, i32 noundef 3, i1 noundef zeroext false, ptr noundef %35)
  %36 = load ptr, ptr %v, align 8
  %37 = load ptr, ptr %vpr, align 8
  %38 = load ptr, ptr %out, align 8
  call void @_ZNK19OpenColorIO_v2_4dev12_GLOBAL__N_119GradingToneFwdOpCPU10whiteBlackERKNS_11GradingToneERKNS_20GradingTonePreRenderENS_11RGBMChannelEbPf(ptr noundef nonnull align 8 dereferenceable(28) %this1, ptr noundef nonnull align 8 dereferenceable(248) %36, ptr noundef nonnull align 8 dereferenceable(936) %37, i32 noundef 0, i1 noundef zeroext false, ptr noundef %38)
  %39 = load ptr, ptr %v, align 8
  %40 = load ptr, ptr %vpr, align 8
  %41 = load ptr, ptr %out, align 8
  call void @_ZNK19OpenColorIO_v2_4dev12_GLOBAL__N_119GradingToneFwdOpCPU10whiteBlackERKNS_11GradingToneERKNS_20GradingTonePreRenderENS_11RGBMChannelEbPf(ptr noundef nonnull align 8 dereferenceable(28) %this1, ptr noundef nonnull align 8 dereferenceable(248) %39, ptr noundef nonnull align 8 dereferenceable(936) %40, i32 noundef 1, i1 noundef zeroext false, ptr noundef %41)
  %42 = load ptr, ptr %v, align 8
  %43 = load ptr, ptr %vpr, align 8
  %44 = load ptr, ptr %out, align 8
  call void @_ZNK19OpenColorIO_v2_4dev12_GLOBAL__N_119GradingToneFwdOpCPU10whiteBlackERKNS_11GradingToneERKNS_20GradingTonePreRenderENS_11RGBMChannelEbPf(ptr noundef nonnull align 8 dereferenceable(28) %this1, ptr noundef nonnull align 8 dereferenceable(248) %42, ptr noundef nonnull align 8 dereferenceable(936) %43, i32 noundef 2, i1 noundef zeroext false, ptr noundef %44)
  %45 = load ptr, ptr %v, align 8
  %46 = load ptr, ptr %vpr, align 8
  %47 = load ptr, ptr %out, align 8
  call void @_ZNK19OpenColorIO_v2_4dev12_GLOBAL__N_119GradingToneFwdOpCPU10whiteBlackERKNS_11GradingToneERKNS_20GradingTonePreRenderENS_11RGBMChannelEbPf(ptr noundef nonnull align 8 dereferenceable(28) %this1, ptr noundef nonnull align 8 dereferenceable(248) %45, ptr noundef nonnull align 8 dereferenceable(936) %46, i32 noundef 3, i1 noundef zeroext false, ptr noundef %47)
  %48 = load ptr, ptr %v, align 8
  %49 = load ptr, ptr %vpr, align 8
  %50 = load ptr, ptr %out, align 8
  call void @_ZNK19OpenColorIO_v2_4dev12_GLOBAL__N_119GradingToneFwdOpCPU15highlightShadowERKNS_11GradingToneERKNS_20GradingTonePreRenderENS_11RGBMChannelEbPf(ptr noundef nonnull align 8 dereferenceable(28) %this1, ptr noundef nonnull align 8 dereferenceable(248) %48, ptr noundef nonnull align 8 dereferenceable(936) %49, i32 noundef 0, i1 noundef zeroext true, ptr noundef %50)
  %51 = load ptr, ptr %v, align 8
  %52 = load ptr, ptr %vpr, align 8
  %53 = load ptr, ptr %out, align 8
  call void @_ZNK19OpenColorIO_v2_4dev12_GLOBAL__N_119GradingToneFwdOpCPU15highlightShadowERKNS_11GradingToneERKNS_20GradingTonePreRenderENS_11RGBMChannelEbPf(ptr noundef nonnull align 8 dereferenceable(28) %this1, ptr noundef nonnull align 8 dereferenceable(248) %51, ptr noundef nonnull align 8 dereferenceable(936) %52, i32 noundef 1, i1 noundef zeroext true, ptr noundef %53)
  %54 = load ptr, ptr %v, align 8
  %55 = load ptr, ptr %vpr, align 8
  %56 = load ptr, ptr %out, align 8
  call void @_ZNK19OpenColorIO_v2_4dev12_GLOBAL__N_119GradingToneFwdOpCPU15highlightShadowERKNS_11GradingToneERKNS_20GradingTonePreRenderENS_11RGBMChannelEbPf(ptr noundef nonnull align 8 dereferenceable(28) %this1, ptr noundef nonnull align 8 dereferenceable(248) %54, ptr noundef nonnull align 8 dereferenceable(936) %55, i32 noundef 2, i1 noundef zeroext true, ptr noundef %56)
  %57 = load ptr, ptr %v, align 8
  %58 = load ptr, ptr %vpr, align 8
  %59 = load ptr, ptr %out, align 8
  call void @_ZNK19OpenColorIO_v2_4dev12_GLOBAL__N_119GradingToneFwdOpCPU15highlightShadowERKNS_11GradingToneERKNS_20GradingTonePreRenderENS_11RGBMChannelEbPf(ptr noundef nonnull align 8 dereferenceable(28) %this1, ptr noundef nonnull align 8 dereferenceable(248) %57, ptr noundef nonnull align 8 dereferenceable(936) %58, i32 noundef 3, i1 noundef zeroext true, ptr noundef %59)
  %60 = load ptr, ptr %v, align 8
  %61 = load ptr, ptr %vpr, align 8
  %62 = load ptr, ptr %out, align 8
  call void @_ZNK19OpenColorIO_v2_4dev12_GLOBAL__N_119GradingToneFwdOpCPU10whiteBlackERKNS_11GradingToneERKNS_20GradingTonePreRenderENS_11RGBMChannelEbPf(ptr noundef nonnull align 8 dereferenceable(28) %this1, ptr noundef nonnull align 8 dereferenceable(248) %60, ptr noundef nonnull align 8 dereferenceable(936) %61, i32 noundef 0, i1 noundef zeroext true, ptr noundef %62)
  %63 = load ptr, ptr %v, align 8
  %64 = load ptr, ptr %vpr, align 8
  %65 = load ptr, ptr %out, align 8
  call void @_ZNK19OpenColorIO_v2_4dev12_GLOBAL__N_119GradingToneFwdOpCPU10whiteBlackERKNS_11GradingToneERKNS_20GradingTonePreRenderENS_11RGBMChannelEbPf(ptr noundef nonnull align 8 dereferenceable(28) %this1, ptr noundef nonnull align 8 dereferenceable(248) %63, ptr noundef nonnull align 8 dereferenceable(936) %64, i32 noundef 1, i1 noundef zeroext true, ptr noundef %65)
  %66 = load ptr, ptr %v, align 8
  %67 = load ptr, ptr %vpr, align 8
  %68 = load ptr, ptr %out, align 8
  call void @_ZNK19OpenColorIO_v2_4dev12_GLOBAL__N_119GradingToneFwdOpCPU10whiteBlackERKNS_11GradingToneERKNS_20GradingTonePreRenderENS_11RGBMChannelEbPf(ptr noundef nonnull align 8 dereferenceable(28) %this1, ptr noundef nonnull align 8 dereferenceable(248) %66, ptr noundef nonnull align 8 dereferenceable(936) %67, i32 noundef 2, i1 noundef zeroext true, ptr noundef %68)
  %69 = load ptr, ptr %v, align 8
  %70 = load ptr, ptr %vpr, align 8
  %71 = load ptr, ptr %out, align 8
  call void @_ZNK19OpenColorIO_v2_4dev12_GLOBAL__N_119GradingToneFwdOpCPU10whiteBlackERKNS_11GradingToneERKNS_20GradingTonePreRenderENS_11RGBMChannelEbPf(ptr noundef nonnull align 8 dereferenceable(28) %this1, ptr noundef nonnull align 8 dereferenceable(248) %69, ptr noundef nonnull align 8 dereferenceable(936) %70, i32 noundef 3, i1 noundef zeroext true, ptr noundef %71)
  %72 = load ptr, ptr %v, align 8
  %73 = load ptr, ptr %vpr, align 8
  %74 = load ptr, ptr %out, align 8
  call void @_ZNK19OpenColorIO_v2_4dev12_GLOBAL__N_119GradingToneFwdOpCPU9scontrastERKNS_11GradingToneERKNS_20GradingTonePreRenderEPf(ptr noundef nonnull align 8 dereferenceable(28) %this1, ptr noundef nonnull align 8 dereferenceable(248) %72, ptr noundef nonnull align 8 dereferenceable(936) %73, ptr noundef %74)
  %75 = load ptr, ptr %out, align 8
  call void @_ZN19OpenColorIO_v2_4dev12_GLOBAL__N_16LogLinEPf(ptr noundef %75)
  %76 = load ptr, ptr %out, align 8
  call void @_ZN19OpenColorIO_v2_4dev12_GLOBAL__N_111ClampMaxRGBEPf(ptr noundef %76)
  %77 = load ptr, ptr %in, align 8
  %add.ptr = getelementptr inbounds float, ptr %77, i64 4
  store ptr %add.ptr, ptr %in, align 8
  %78 = load ptr, ptr %out, align 8
  %add.ptr12 = getelementptr inbounds float, ptr %78, i64 4
  store ptr %add.ptr12, ptr %out, align 8
  br label %for.inc

for.inc:                                          ; preds = %for.body
  %79 = load i64, ptr %idx, align 8
  %inc = add nsw i64 %79, 1
  store i64 %inc, ptr %idx, align 8
  br label %for.cond, !llvm.loop !4

for.end:                                          ; preds = %for.cond, %if.end
  ret void
}

; Function Attrs: mustprogress nounwind uwtable
define internal noundef zeroext i1 @_ZNK19OpenColorIO_v2_4dev12_GLOBAL__N_116GradingToneOpCPU9isDynamicEv(ptr noundef nonnull align 8 dereferenceable(28) %this) unnamed_addr #5 align 2 {
entry:
  %this.addr = alloca ptr, align 8
  store ptr %this, ptr %this.addr, align 8
  %this1 = load ptr, ptr %this.addr, align 8
  %m_gt = getelementptr inbounds %"class.OpenColorIO_v2_4dev::(anonymous namespace)::GradingToneOpCPU", ptr %this1, i32 0, i32 1
  %call = call noundef ptr @_ZNKSt19__shared_ptr_accessIN19OpenColorIO_v2_4dev30DynamicPropertyGradingToneImplELN9__gnu_cxx12_Lock_policyE2ELb0ELb0EEptEv(ptr noundef nonnull align 1 dereferenceable(1) %m_gt) #3
  %call2 = call noundef zeroext i1 @_ZNK19OpenColorIO_v2_4dev19DynamicPropertyImpl9isDynamicEv(ptr noundef nonnull align 8 dereferenceable(13) %call) #3
  ret i1 %call2
}

; Function Attrs: mustprogress nounwind uwtable
define internal noundef zeroext i1 @_ZNK19OpenColorIO_v2_4dev12_GLOBAL__N_116GradingToneOpCPU18hasDynamicPropertyENS_19DynamicPropertyTypeE(ptr noundef nonnull align 8 dereferenceable(28) %this, i32 noundef %type) unnamed_addr #5 align 2 {
entry:
  %this.addr = alloca ptr, align 8
  %type.addr = alloca i32, align 4
  %res = alloca i8, align 1
  store ptr %this, ptr %this.addr, align 8
  store i32 %type, ptr %type.addr, align 4
  %this1 = load ptr, ptr %this.addr, align 8
  store i8 0, ptr %res, align 1
  %0 = load i32, ptr %type.addr, align 4
  %cmp = icmp eq i32 %0, 5
  br i1 %cmp, label %if.then, label %if.end

if.then:                                          ; preds = %entry
  %m_gt = getelementptr inbounds %"class.OpenColorIO_v2_4dev::(anonymous namespace)::GradingToneOpCPU", ptr %this1, i32 0, i32 1
  %call = call noundef ptr @_ZNKSt19__shared_ptr_accessIN19OpenColorIO_v2_4dev30DynamicPropertyGradingToneImplELN9__gnu_cxx12_Lock_policyE2ELb0ELb0EEptEv(ptr noundef nonnull align 1 dereferenceable(1) %m_gt) #3
  %call2 = call noundef zeroext i1 @_ZNK19OpenColorIO_v2_4dev19DynamicPropertyImpl9isDynamicEv(ptr noundef nonnull align 8 dereferenceable(13) %call) #3
  %frombool = zext i1 %call2 to i8
  store i8 %frombool, ptr %res, align 1
  br label %if.end

if.end:                                           ; preds = %if.then, %entry
  %1 = load i8, ptr %res, align 1
  %tobool = trunc i8 %1 to i1
  ret i1 %tobool
}

; Function Attrs: mustprogress uwtable
define internal void @_ZNK19OpenColorIO_v2_4dev12_GLOBAL__N_116GradingToneOpCPU18getDynamicPropertyENS_19DynamicPropertyTypeE(ptr noalias sret(%"class.std::shared_ptr.31") align 8 %agg.result, ptr noundef nonnull align 8 dereferenceable(28) %this, i32 noundef %type) unnamed_addr #6 align 2 personality ptr @__gxx_personality_v0 {
entry:
  %result.ptr = alloca ptr, align 8
  %this.addr = alloca ptr, align 8
  %type.addr = alloca i32, align 4
  %exn.slot = alloca ptr, align 8
  %ehselector.slot = alloca i32, align 4
  store ptr %agg.result, ptr %result.ptr, align 8
  store ptr %this, ptr %this.addr, align 8
  store i32 %type, ptr %type.addr, align 4
  %this1 = load ptr, ptr %this.addr, align 8
  %0 = load i32, ptr %type.addr, align 4
  %cmp = icmp eq i32 %0, 5
  br i1 %cmp, label %if.then, label %if.end

if.then:                                          ; preds = %entry
  %m_gt = getelementptr inbounds %"class.OpenColorIO_v2_4dev::(anonymous namespace)::GradingToneOpCPU", ptr %this1, i32 0, i32 1
  %call = call noundef ptr @_ZNKSt19__shared_ptr_accessIN19OpenColorIO_v2_4dev30DynamicPropertyGradingToneImplELN9__gnu_cxx12_Lock_policyE2ELb0ELb0EEptEv(ptr noundef nonnull align 1 dereferenceable(1) %m_gt) #3
  %call2 = call noundef zeroext i1 @_ZNK19OpenColorIO_v2_4dev19DynamicPropertyImpl9isDynamicEv(ptr noundef nonnull align 8 dereferenceable(13) %call) #3
  br i1 %call2, label %if.then3, label %if.else

if.then3:                                         ; preds = %if.then
  %m_gt4 = getelementptr inbounds %"class.OpenColorIO_v2_4dev::(anonymous namespace)::GradingToneOpCPU", ptr %this1, i32 0, i32 1
  call void @_ZNSt10shared_ptrIN19OpenColorIO_v2_4dev15DynamicPropertyEEC2INS0_30DynamicPropertyGradingToneImplEvEERKS_IT_E(ptr noundef nonnull align 8 dereferenceable(16) %agg.result, ptr noundef nonnull align 8 dereferenceable(16) %m_gt4) #3
  ret void

if.else:                                          ; preds = %if.then
  %exception = call ptr @__cxa_allocate_exception(i64 16) #3
  invoke void @_ZN19OpenColorIO_v2_4dev9ExceptionC1EPKc(ptr noundef nonnull align 8 dereferenceable(16) %exception, ptr noundef @.str.33)
          to label %invoke.cont unwind label %lpad

invoke.cont:                                      ; preds = %if.else
  call void @__cxa_throw(ptr %exception, ptr @_ZTIN19OpenColorIO_v2_4dev9ExceptionE, ptr @_ZN19OpenColorIO_v2_4dev9ExceptionD1Ev) #18
  unreachable

lpad:                                             ; preds = %if.else
  %1 = landingpad { ptr, i32 }
          cleanup
  %2 = extractvalue { ptr, i32 } %1, 0
  store ptr %2, ptr %exn.slot, align 8
  %3 = extractvalue { ptr, i32 } %1, 1
  store i32 %3, ptr %ehselector.slot, align 4
  call void @__cxa_free_exception(ptr %exception) #3
  br label %eh.resume

if.end:                                           ; preds = %entry
  %exception5 = call ptr @__cxa_allocate_exception(i64 16) #3
  invoke void @_ZN19OpenColorIO_v2_4dev9ExceptionC1EPKc(ptr noundef nonnull align 8 dereferenceable(16) %exception5, ptr noundef @.str.34)
          to label %invoke.cont7 unwind label %lpad6

invoke.cont7:                                     ; preds = %if.end
  call void @__cxa_throw(ptr %exception5, ptr @_ZTIN19OpenColorIO_v2_4dev9ExceptionE, ptr @_ZN19OpenColorIO_v2_4dev9ExceptionD1Ev) #18
  unreachable

lpad6:                                            ; preds = %if.end
  %4 = landingpad { ptr, i32 }
          cleanup
  %5 = extractvalue { ptr, i32 } %4, 0
  store ptr %5, ptr %exn.slot, align 8
  %6 = extractvalue { ptr, i32 } %4, 1
  store i32 %6, ptr %ehselector.slot, align 4
  call void @__cxa_free_exception(ptr %exception5) #3
  br label %eh.resume

eh.resume:                                        ; preds = %lpad6, %lpad
  %exn = load ptr, ptr %exn.slot, align 8
  %sel = load i32, ptr %ehselector.slot, align 4
  %lpad.val = insertvalue { ptr, i32 } poison, ptr %exn, 0
  %lpad.val8 = insertvalue { ptr, i32 } %lpad.val, i32 %sel, 1
  resume { ptr, i32 } %lpad.val8
}

; Function Attrs: mustprogress uwtable
define internal void @_ZN19OpenColorIO_v2_4dev12_GLOBAL__N_116GradingToneOpCPUC2ERSt10shared_ptrIKNS_17GradingToneOpDataEE(ptr noundef nonnull align 8 dereferenceable(28) %this, ptr noundef nonnull align 8 dereferenceable(16) %gt) unnamed_addr #6 align 2 personality ptr @__gxx_personality_v0 {
entry:
  %this.addr = alloca ptr, align 8
  %gt.addr = alloca ptr, align 8
  %ref.tmp = alloca %"class.std::shared_ptr.8", align 8
  %ref.tmp9 = alloca %"class.std::shared_ptr.8", align 8
  %exn.slot = alloca ptr, align 8
  %ehselector.slot = alloca i32, align 4
  store ptr %this, ptr %this.addr, align 8
  store ptr %gt, ptr %gt.addr, align 8
  %this1 = load ptr, ptr %this.addr, align 8
  %0 = getelementptr inbounds i8, ptr %this1, i64 0
  call void @llvm.memset.p0.i64(ptr align 8 %0, i8 0, i64 8, i1 false)
  call void @_ZN19OpenColorIO_v2_4dev5OpCPUC2Ev(ptr noundef nonnull align 8 dereferenceable(8) %this1) #3
  store ptr getelementptr inbounds ({ [8 x ptr] }, ptr @_ZTVN19OpenColorIO_v2_4dev12_GLOBAL__N_116GradingToneOpCPUE, i32 0, inrange i32 0, i32 2), ptr %this1, align 8
  %m_gt = getelementptr inbounds %"class.OpenColorIO_v2_4dev::(anonymous namespace)::GradingToneOpCPU", ptr %this1, i32 0, i32 1
  call void @_ZNSt10shared_ptrIN19OpenColorIO_v2_4dev30DynamicPropertyGradingToneImplEEC2Ev(ptr noundef nonnull align 8 dereferenceable(16) %m_gt) #3
  %1 = load ptr, ptr %gt.addr, align 8
  %call = call noundef ptr @_ZNKSt19__shared_ptr_accessIKN19OpenColorIO_v2_4dev17GradingToneOpDataELN9__gnu_cxx12_Lock_policyE2ELb0ELb0EEptEv(ptr noundef nonnull align 1 dereferenceable(1) %1) #3
  call void @_ZNK19OpenColorIO_v2_4dev17GradingToneOpData26getDynamicPropertyInternalEv(ptr sret(%"class.std::shared_ptr.8") align 8 %ref.tmp, ptr noundef nonnull align 8 dereferenceable(196) %call) #3
  %m_gt2 = getelementptr inbounds %"class.OpenColorIO_v2_4dev::(anonymous namespace)::GradingToneOpCPU", ptr %this1, i32 0, i32 1
  %call3 = call noundef nonnull align 8 dereferenceable(16) ptr @_ZNSt10shared_ptrIN19OpenColorIO_v2_4dev30DynamicPropertyGradingToneImplEEaSEOS2_(ptr noundef nonnull align 8 dereferenceable(16) %m_gt2, ptr noundef nonnull align 8 dereferenceable(16) %ref.tmp) #3
  call void @_ZNSt10shared_ptrIN19OpenColorIO_v2_4dev30DynamicPropertyGradingToneImplEED2Ev(ptr noundef nonnull align 8 dereferenceable(16) %ref.tmp) #3
  %2 = load ptr, ptr %gt.addr, align 8
  %call4 = call noundef ptr @_ZNKSt19__shared_ptr_accessIKN19OpenColorIO_v2_4dev17GradingToneOpDataELN9__gnu_cxx12_Lock_policyE2ELb0ELb0EEptEv(ptr noundef nonnull align 1 dereferenceable(1) %2) #3
  %call5 = call noundef i32 @_ZNK19OpenColorIO_v2_4dev17GradingToneOpData8getStyleEv(ptr noundef nonnull align 8 dereferenceable(196) %call4) #3
  %m_style = getelementptr inbounds %"class.OpenColorIO_v2_4dev::(anonymous namespace)::GradingToneOpCPU", ptr %this1, i32 0, i32 2
  store i32 %call5, ptr %m_style, align 8
  %m_gt6 = getelementptr inbounds %"class.OpenColorIO_v2_4dev::(anonymous namespace)::GradingToneOpCPU", ptr %this1, i32 0, i32 1
  %call7 = call noundef ptr @_ZNKSt19__shared_ptr_accessIN19OpenColorIO_v2_4dev30DynamicPropertyGradingToneImplELN9__gnu_cxx12_Lock_policyE2ELb0ELb0EEptEv(ptr noundef nonnull align 1 dereferenceable(1) %m_gt6) #3
  %call8 = call noundef zeroext i1 @_ZNK19OpenColorIO_v2_4dev19DynamicPropertyImpl9isDynamicEv(ptr noundef nonnull align 8 dereferenceable(13) %call7) #3
  br i1 %call8, label %if.then, label %if.end

if.then:                                          ; preds = %entry
  %m_gt10 = getelementptr inbounds %"class.OpenColorIO_v2_4dev::(anonymous namespace)::GradingToneOpCPU", ptr %this1, i32 0, i32 1
  %call11 = call noundef ptr @_ZNKSt19__shared_ptr_accessIN19OpenColorIO_v2_4dev30DynamicPropertyGradingToneImplELN9__gnu_cxx12_Lock_policyE2ELb0ELb0EEptEv(ptr noundef nonnull align 1 dereferenceable(1) %m_gt10) #3
  invoke void @_ZNK19OpenColorIO_v2_4dev30DynamicPropertyGradingToneImpl18createEditableCopyEv(ptr sret(%"class.std::shared_ptr.8") align 8 %ref.tmp9, ptr noundef nonnull align 8 dereferenceable(1208) %call11)
          to label %invoke.cont unwind label %lpad

invoke.cont:                                      ; preds = %if.then
  %m_gt12 = getelementptr inbounds %"class.OpenColorIO_v2_4dev::(anonymous namespace)::GradingToneOpCPU", ptr %this1, i32 0, i32 1
  %call13 = call noundef nonnull align 8 dereferenceable(16) ptr @_ZNSt10shared_ptrIN19OpenColorIO_v2_4dev30DynamicPropertyGradingToneImplEEaSEOS2_(ptr noundef nonnull align 8 dereferenceable(16) %m_gt12, ptr noundef nonnull align 8 dereferenceable(16) %ref.tmp9) #3
  call void @_ZNSt10shared_ptrIN19OpenColorIO_v2_4dev30DynamicPropertyGradingToneImplEED2Ev(ptr noundef nonnull align 8 dereferenceable(16) %ref.tmp9) #3
  br label %if.end

lpad:                                             ; preds = %if.then
  %3 = landingpad { ptr, i32 }
          cleanup
  %4 = extractvalue { ptr, i32 } %3, 0
  store ptr %4, ptr %exn.slot, align 8
  %5 = extractvalue { ptr, i32 } %3, 1
  store i32 %5, ptr %ehselector.slot, align 4
  call void @_ZNSt10shared_ptrIN19OpenColorIO_v2_4dev30DynamicPropertyGradingToneImplEED2Ev(ptr noundef nonnull align 8 dereferenceable(16) %m_gt) #3
  call void @_ZN19OpenColorIO_v2_4dev5OpCPUD2Ev(ptr noundef nonnull align 8 dereferenceable(8) %this1) #3
  br label %eh.resume

if.end:                                           ; preds = %invoke.cont, %entry
  ret void

eh.resume:                                        ; preds = %lpad
  %exn = load ptr, ptr %exn.slot, align 8
  %sel = load i32, ptr %ehselector.slot, align 4
  %lpad.val = insertvalue { ptr, i32 } poison, ptr %exn, 0
  %lpad.val14 = insertvalue { ptr, i32 } %lpad.val, i32 %sel, 1
  resume { ptr, i32 } %lpad.val14
}

; Function Attrs: mustprogress nounwind uwtable
define internal void @_ZN19OpenColorIO_v2_4dev12_GLOBAL__N_119GradingToneFwdOpCPUD2Ev(ptr noundef nonnull align 8 dereferenceable(28) %this) unnamed_addr #5 align 2 {
entry:
  %this.addr = alloca ptr, align 8
  store ptr %this, ptr %this.addr, align 8
  %this1 = load ptr, ptr %this.addr, align 8
  call void @_ZN19OpenColorIO_v2_4dev12_GLOBAL__N_116GradingToneOpCPUD2Ev(ptr noundef nonnull align 8 dereferenceable(28) %this1) #3
  ret void
}

; Function Attrs: mustprogress nounwind uwtable
define internal void @_ZN19OpenColorIO_v2_4dev12_GLOBAL__N_119GradingToneFwdOpCPUD0Ev(ptr noundef nonnull align 8 dereferenceable(28) %this) unnamed_addr #5 align 2 {
entry:
  %this.addr = alloca ptr, align 8
  store ptr %this, ptr %this.addr, align 8
  %this1 = load ptr, ptr %this.addr, align 8
  call void @_ZN19OpenColorIO_v2_4dev12_GLOBAL__N_119GradingToneFwdOpCPUD2Ev(ptr noundef nonnull align 8 dereferenceable(28) %this1) #3
  call void @_ZdlPv(ptr noundef %this1) #21
  ret void
}

; Function Attrs: mustprogress uwtable
define internal void @_ZNK19OpenColorIO_v2_4dev12_GLOBAL__N_119GradingToneFwdOpCPU5applyEPKvPvl(ptr noundef nonnull align 8 dereferenceable(28) %this, ptr noundef %inImg, ptr noundef %outImg, i64 noundef %numPixels) unnamed_addr #6 align 2 {
entry:
  %this.addr = alloca ptr, align 8
  %inImg.addr = alloca ptr, align 8
  %outImg.addr = alloca ptr, align 8
  %numPixels.addr = alloca i64, align 8
  %in = alloca ptr, align 8
  %out = alloca ptr, align 8
  %v = alloca ptr, align 8
  %vpr = alloca ptr, align 8
  %idx = alloca i64, align 8
  store ptr %this, ptr %this.addr, align 8
  store ptr %inImg, ptr %inImg.addr, align 8
  store ptr %outImg, ptr %outImg.addr, align 8
  store i64 %numPixels, ptr %numPixels.addr, align 8
  %this1 = load ptr, ptr %this.addr, align 8
  %m_gt = getelementptr inbounds %"class.OpenColorIO_v2_4dev::(anonymous namespace)::GradingToneOpCPU", ptr %this1, i32 0, i32 1
  %call = call noundef ptr @_ZNKSt19__shared_ptr_accessIN19OpenColorIO_v2_4dev30DynamicPropertyGradingToneImplELN9__gnu_cxx12_Lock_policyE2ELb0ELb0EEptEv(ptr noundef nonnull align 1 dereferenceable(1) %m_gt) #3
  %call2 = call noundef zeroext i1 @_ZNK19OpenColorIO_v2_4dev30DynamicPropertyGradingToneImpl14getLocalBypassEv(ptr noundef nonnull align 8 dereferenceable(1208) %call)
  br i1 %call2, label %if.then, label %if.end4

if.then:                                          ; preds = %entry
  %0 = load ptr, ptr %inImg.addr, align 8
  %1 = load ptr, ptr %outImg.addr, align 8
  %cmp = icmp ne ptr %0, %1
  br i1 %cmp, label %if.then3, label %if.end

if.then3:                                         ; preds = %if.then
  %2 = load ptr, ptr %outImg.addr, align 8
  %3 = load ptr, ptr %inImg.addr, align 8
  %4 = load i64, ptr %numPixels.addr, align 8
  %mul = mul i64 %4, 16
  call void @llvm.memcpy.p0.p0.i64(ptr align 1 %2, ptr align 1 %3, i64 %mul, i1 false)
  br label %if.end

if.end:                                           ; preds = %if.then3, %if.then
  br label %for.end

if.end4:                                          ; preds = %entry
  %5 = load ptr, ptr %inImg.addr, align 8
  store ptr %5, ptr %in, align 8
  %6 = load ptr, ptr %outImg.addr, align 8
  store ptr %6, ptr %out, align 8
  %m_gt5 = getelementptr inbounds %"class.OpenColorIO_v2_4dev::(anonymous namespace)::GradingToneOpCPU", ptr %this1, i32 0, i32 1
  %call6 = call noundef ptr @_ZNKSt19__shared_ptr_accessIN19OpenColorIO_v2_4dev30DynamicPropertyGradingToneImplELN9__gnu_cxx12_Lock_policyE2ELb0ELb0EEptEv(ptr noundef nonnull align 1 dereferenceable(1) %m_gt5) #3
  %vtable = load ptr, ptr %call6, align 8
  %vfn = getelementptr inbounds ptr, ptr %vtable, i64 3
  %7 = load ptr, ptr %vfn, align 8
  %call7 = call noundef nonnull align 8 dereferenceable(248) ptr %7(ptr noundef nonnull align 8 dereferenceable(1208) %call6)
  store ptr %call7, ptr %v, align 8
  %m_gt8 = getelementptr inbounds %"class.OpenColorIO_v2_4dev::(anonymous namespace)::GradingToneOpCPU", ptr %this1, i32 0, i32 1
  %call9 = call noundef ptr @_ZNKSt19__shared_ptr_accessIN19OpenColorIO_v2_4dev30DynamicPropertyGradingToneImplELN9__gnu_cxx12_Lock_policyE2ELb0ELb0EEptEv(ptr noundef nonnull align 1 dereferenceable(1) %m_gt8) #3
  %call10 = call noundef nonnull align 8 dereferenceable(936) ptr @_ZNK19OpenColorIO_v2_4dev30DynamicPropertyGradingToneImpl16getComputedValueEv(ptr noundef nonnull align 8 dereferenceable(1208) %call9)
  store ptr %call10, ptr %vpr, align 8
  store i64 0, ptr %idx, align 8
  br label %for.cond

for.cond:                                         ; preds = %for.inc, %if.end4
  %8 = load i64, ptr %idx, align 8
  %9 = load i64, ptr %numPixels.addr, align 8
  %cmp11 = icmp slt i64 %8, %9
  br i1 %cmp11, label %for.body, label %for.end

for.body:                                         ; preds = %for.cond
  %10 = load ptr, ptr %out, align 8
  %11 = load ptr, ptr %in, align 8
  call void @llvm.memcpy.p0.p0.i64(ptr align 4 %10, ptr align 4 %11, i64 16, i1 false)
  %12 = load ptr, ptr %v, align 8
  %13 = load ptr, ptr %vpr, align 8
  %14 = load ptr, ptr %out, align 8
  call void @_ZNK19OpenColorIO_v2_4dev12_GLOBAL__N_119GradingToneFwdOpCPU4midsERKNS_11GradingToneERKNS_20GradingTonePreRenderENS_11RGBMChannelEPf(ptr noundef nonnull align 8 dereferenceable(28) %this1, ptr noundef nonnull align 8 dereferenceable(248) %12, ptr noundef nonnull align 8 dereferenceable(936) %13, i32 noundef 0, ptr noundef %14)
  %15 = load ptr, ptr %v, align 8
  %16 = load ptr, ptr %vpr, align 8
  %17 = load ptr, ptr %out, align 8
  call void @_ZNK19OpenColorIO_v2_4dev12_GLOBAL__N_119GradingToneFwdOpCPU4midsERKNS_11GradingToneERKNS_20GradingTonePreRenderENS_11RGBMChannelEPf(ptr noundef nonnull align 8 dereferenceable(28) %this1, ptr noundef nonnull align 8 dereferenceable(248) %15, ptr noundef nonnull align 8 dereferenceable(936) %16, i32 noundef 1, ptr noundef %17)
  %18 = load ptr, ptr %v, align 8
  %19 = load ptr, ptr %vpr, align 8
  %20 = load ptr, ptr %out, align 8
  call void @_ZNK19OpenColorIO_v2_4dev12_GLOBAL__N_119GradingToneFwdOpCPU4midsERKNS_11GradingToneERKNS_20GradingTonePreRenderENS_11RGBMChannelEPf(ptr noundef nonnull align 8 dereferenceable(28) %this1, ptr noundef nonnull align 8 dereferenceable(248) %18, ptr noundef nonnull align 8 dereferenceable(936) %19, i32 noundef 2, ptr noundef %20)
  %21 = load ptr, ptr %v, align 8
  %22 = load ptr, ptr %vpr, align 8
  %23 = load ptr, ptr %out, align 8
  call void @_ZNK19OpenColorIO_v2_4dev12_GLOBAL__N_119GradingToneFwdOpCPU4midsERKNS_11GradingToneERKNS_20GradingTonePreRenderENS_11RGBMChannelEPf(ptr noundef nonnull align 8 dereferenceable(28) %this1, ptr noundef nonnull align 8 dereferenceable(248) %21, ptr noundef nonnull align 8 dereferenceable(936) %22, i32 noundef 3, ptr noundef %23)
  %24 = load ptr, ptr %v, align 8
  %25 = load ptr, ptr %vpr, align 8
  %26 = load ptr, ptr %out, align 8
  call void @_ZNK19OpenColorIO_v2_4dev12_GLOBAL__N_119GradingToneFwdOpCPU15highlightShadowERKNS_11GradingToneERKNS_20GradingTonePreRenderENS_11RGBMChannelEbPf(ptr noundef nonnull align 8 dereferenceable(28) %this1, ptr noundef nonnull align 8 dereferenceable(248) %24, ptr noundef nonnull align 8 dereferenceable(936) %25, i32 noundef 0, i1 noundef zeroext false, ptr noundef %26)
  %27 = load ptr, ptr %v, align 8
  %28 = load ptr, ptr %vpr, align 8
  %29 = load ptr, ptr %out, align 8
  call void @_ZNK19OpenColorIO_v2_4dev12_GLOBAL__N_119GradingToneFwdOpCPU15highlightShadowERKNS_11GradingToneERKNS_20GradingTonePreRenderENS_11RGBMChannelEbPf(ptr noundef nonnull align 8 dereferenceable(28) %this1, ptr noundef nonnull align 8 dereferenceable(248) %27, ptr noundef nonnull align 8 dereferenceable(936) %28, i32 noundef 1, i1 noundef zeroext false, ptr noundef %29)
  %30 = load ptr, ptr %v, align 8
  %31 = load ptr, ptr %vpr, align 8
  %32 = load ptr, ptr %out, align 8
  call void @_ZNK19OpenColorIO_v2_4dev12_GLOBAL__N_119GradingToneFwdOpCPU15highlightShadowERKNS_11GradingToneERKNS_20GradingTonePreRenderENS_11RGBMChannelEbPf(ptr noundef nonnull align 8 dereferenceable(28) %this1, ptr noundef nonnull align 8 dereferenceable(248) %30, ptr noundef nonnull align 8 dereferenceable(936) %31, i32 noundef 2, i1 noundef zeroext false, ptr noundef %32)
  %33 = load ptr, ptr %v, align 8
  %34 = load ptr, ptr %vpr, align 8
  %35 = load ptr, ptr %out, align 8
  call void @_ZNK19OpenColorIO_v2_4dev12_GLOBAL__N_119GradingToneFwdOpCPU15highlightShadowERKNS_11GradingToneERKNS_20GradingTonePreRenderENS_11RGBMChannelEbPf(ptr noundef nonnull align 8 dereferenceable(28) %this1, ptr noundef nonnull align 8 dereferenceable(248) %33, ptr noundef nonnull align 8 dereferenceable(936) %34, i32 noundef 3, i1 noundef zeroext false, ptr noundef %35)
  %36 = load ptr, ptr %v, align 8
  %37 = load ptr, ptr %vpr, align 8
  %38 = load ptr, ptr %out, align 8
  call void @_ZNK19OpenColorIO_v2_4dev12_GLOBAL__N_119GradingToneFwdOpCPU10whiteBlackERKNS_11GradingToneERKNS_20GradingTonePreRenderENS_11RGBMChannelEbPf(ptr noundef nonnull align 8 dereferenceable(28) %this1, ptr noundef nonnull align 8 dereferenceable(248) %36, ptr noundef nonnull align 8 dereferenceable(936) %37, i32 noundef 0, i1 noundef zeroext false, ptr noundef %38)
  %39 = load ptr, ptr %v, align 8
  %40 = load ptr, ptr %vpr, align 8
  %41 = load ptr, ptr %out, align 8
  call void @_ZNK19OpenColorIO_v2_4dev12_GLOBAL__N_119GradingToneFwdOpCPU10whiteBlackERKNS_11GradingToneERKNS_20GradingTonePreRenderENS_11RGBMChannelEbPf(ptr noundef nonnull align 8 dereferenceable(28) %this1, ptr noundef nonnull align 8 dereferenceable(248) %39, ptr noundef nonnull align 8 dereferenceable(936) %40, i32 noundef 1, i1 noundef zeroext false, ptr noundef %41)
  %42 = load ptr, ptr %v, align 8
  %43 = load ptr, ptr %vpr, align 8
  %44 = load ptr, ptr %out, align 8
  call void @_ZNK19OpenColorIO_v2_4dev12_GLOBAL__N_119GradingToneFwdOpCPU10whiteBlackERKNS_11GradingToneERKNS_20GradingTonePreRenderENS_11RGBMChannelEbPf(ptr noundef nonnull align 8 dereferenceable(28) %this1, ptr noundef nonnull align 8 dereferenceable(248) %42, ptr noundef nonnull align 8 dereferenceable(936) %43, i32 noundef 2, i1 noundef zeroext false, ptr noundef %44)
  %45 = load ptr, ptr %v, align 8
  %46 = load ptr, ptr %vpr, align 8
  %47 = load ptr, ptr %out, align 8
  call void @_ZNK19OpenColorIO_v2_4dev12_GLOBAL__N_119GradingToneFwdOpCPU10whiteBlackERKNS_11GradingToneERKNS_20GradingTonePreRenderENS_11RGBMChannelEbPf(ptr noundef nonnull align 8 dereferenceable(28) %this1, ptr noundef nonnull align 8 dereferenceable(248) %45, ptr noundef nonnull align 8 dereferenceable(936) %46, i32 noundef 3, i1 noundef zeroext false, ptr noundef %47)
  %48 = load ptr, ptr %v, align 8
  %49 = load ptr, ptr %vpr, align 8
  %50 = load ptr, ptr %out, align 8
  call void @_ZNK19OpenColorIO_v2_4dev12_GLOBAL__N_119GradingToneFwdOpCPU15highlightShadowERKNS_11GradingToneERKNS_20GradingTonePreRenderENS_11RGBMChannelEbPf(ptr noundef nonnull align 8 dereferenceable(28) %this1, ptr noundef nonnull align 8 dereferenceable(248) %48, ptr noundef nonnull align 8 dereferenceable(936) %49, i32 noundef 0, i1 noundef zeroext true, ptr noundef %50)
  %51 = load ptr, ptr %v, align 8
  %52 = load ptr, ptr %vpr, align 8
  %53 = load ptr, ptr %out, align 8
  call void @_ZNK19OpenColorIO_v2_4dev12_GLOBAL__N_119GradingToneFwdOpCPU15highlightShadowERKNS_11GradingToneERKNS_20GradingTonePreRenderENS_11RGBMChannelEbPf(ptr noundef nonnull align 8 dereferenceable(28) %this1, ptr noundef nonnull align 8 dereferenceable(248) %51, ptr noundef nonnull align 8 dereferenceable(936) %52, i32 noundef 1, i1 noundef zeroext true, ptr noundef %53)
  %54 = load ptr, ptr %v, align 8
  %55 = load ptr, ptr %vpr, align 8
  %56 = load ptr, ptr %out, align 8
  call void @_ZNK19OpenColorIO_v2_4dev12_GLOBAL__N_119GradingToneFwdOpCPU15highlightShadowERKNS_11GradingToneERKNS_20GradingTonePreRenderENS_11RGBMChannelEbPf(ptr noundef nonnull align 8 dereferenceable(28) %this1, ptr noundef nonnull align 8 dereferenceable(248) %54, ptr noundef nonnull align 8 dereferenceable(936) %55, i32 noundef 2, i1 noundef zeroext true, ptr noundef %56)
  %57 = load ptr, ptr %v, align 8
  %58 = load ptr, ptr %vpr, align 8
  %59 = load ptr, ptr %out, align 8
  call void @_ZNK19OpenColorIO_v2_4dev12_GLOBAL__N_119GradingToneFwdOpCPU15highlightShadowERKNS_11GradingToneERKNS_20GradingTonePreRenderENS_11RGBMChannelEbPf(ptr noundef nonnull align 8 dereferenceable(28) %this1, ptr noundef nonnull align 8 dereferenceable(248) %57, ptr noundef nonnull align 8 dereferenceable(936) %58, i32 noundef 3, i1 noundef zeroext true, ptr noundef %59)
  %60 = load ptr, ptr %v, align 8
  %61 = load ptr, ptr %vpr, align 8
  %62 = load ptr, ptr %out, align 8
  call void @_ZNK19OpenColorIO_v2_4dev12_GLOBAL__N_119GradingToneFwdOpCPU10whiteBlackERKNS_11GradingToneERKNS_20GradingTonePreRenderENS_11RGBMChannelEbPf(ptr noundef nonnull align 8 dereferenceable(28) %this1, ptr noundef nonnull align 8 dereferenceable(248) %60, ptr noundef nonnull align 8 dereferenceable(936) %61, i32 noundef 0, i1 noundef zeroext true, ptr noundef %62)
  %63 = load ptr, ptr %v, align 8
  %64 = load ptr, ptr %vpr, align 8
  %65 = load ptr, ptr %out, align 8
  call void @_ZNK19OpenColorIO_v2_4dev12_GLOBAL__N_119GradingToneFwdOpCPU10whiteBlackERKNS_11GradingToneERKNS_20GradingTonePreRenderENS_11RGBMChannelEbPf(ptr noundef nonnull align 8 dereferenceable(28) %this1, ptr noundef nonnull align 8 dereferenceable(248) %63, ptr noundef nonnull align 8 dereferenceable(936) %64, i32 noundef 1, i1 noundef zeroext true, ptr noundef %65)
  %66 = load ptr, ptr %v, align 8
  %67 = load ptr, ptr %vpr, align 8
  %68 = load ptr, ptr %out, align 8
  call void @_ZNK19OpenColorIO_v2_4dev12_GLOBAL__N_119GradingToneFwdOpCPU10whiteBlackERKNS_11GradingToneERKNS_20GradingTonePreRenderENS_11RGBMChannelEbPf(ptr noundef nonnull align 8 dereferenceable(28) %this1, ptr noundef nonnull align 8 dereferenceable(248) %66, ptr noundef nonnull align 8 dereferenceable(936) %67, i32 noundef 2, i1 noundef zeroext true, ptr noundef %68)
  %69 = load ptr, ptr %v, align 8
  %70 = load ptr, ptr %vpr, align 8
  %71 = load ptr, ptr %out, align 8
  call void @_ZNK19OpenColorIO_v2_4dev12_GLOBAL__N_119GradingToneFwdOpCPU10whiteBlackERKNS_11GradingToneERKNS_20GradingTonePreRenderENS_11RGBMChannelEbPf(ptr noundef nonnull align 8 dereferenceable(28) %this1, ptr noundef nonnull align 8 dereferenceable(248) %69, ptr noundef nonnull align 8 dereferenceable(936) %70, i32 noundef 3, i1 noundef zeroext true, ptr noundef %71)
  %72 = load ptr, ptr %v, align 8
  %73 = load ptr, ptr %vpr, align 8
  %74 = load ptr, ptr %out, align 8
  call void @_ZNK19OpenColorIO_v2_4dev12_GLOBAL__N_119GradingToneFwdOpCPU9scontrastERKNS_11GradingToneERKNS_20GradingTonePreRenderEPf(ptr noundef nonnull align 8 dereferenceable(28) %this1, ptr noundef nonnull align 8 dereferenceable(248) %72, ptr noundef nonnull align 8 dereferenceable(936) %73, ptr noundef %74)
  %75 = load ptr, ptr %out, align 8
  call void @_ZN19OpenColorIO_v2_4dev12_GLOBAL__N_111ClampMaxRGBEPf(ptr noundef %75)
  %76 = load ptr, ptr %in, align 8
  %add.ptr = getelementptr inbounds float, ptr %76, i64 4
  store ptr %add.ptr, ptr %in, align 8
  %77 = load ptr, ptr %out, align 8
  %add.ptr12 = getelementptr inbounds float, ptr %77, i64 4
  store ptr %add.ptr12, ptr %out, align 8
  br label %for.inc

for.inc:                                          ; preds = %for.body
  %78 = load i64, ptr %idx, align 8
  %inc = add nsw i64 %78, 1
  store i64 %inc, ptr %idx, align 8
  br label %for.cond, !llvm.loop !6

for.end:                                          ; preds = %for.cond, %if.end
  ret void
}

; Function Attrs: nocallback nofree nounwind willreturn memory(argmem: write)
declare void @llvm.memset.p0.i64(ptr nocapture writeonly, i8, i64, i1 immarg) #12

; Function Attrs: mustprogress nounwind uwtable
define linkonce_odr hidden void @_ZN19OpenColorIO_v2_4dev5OpCPUC2Ev(ptr noundef nonnull align 8 dereferenceable(8) %this) unnamed_addr #5 comdat align 2 {
entry:
  %this.addr = alloca ptr, align 8
  store ptr %this, ptr %this.addr, align 8
  %this1 = load ptr, ptr %this.addr, align 8
  store ptr getelementptr inbounds ({ [8 x ptr] }, ptr @_ZTVN19OpenColorIO_v2_4dev5OpCPUE, i32 0, inrange i32 0, i32 2), ptr %this1, align 8
  ret void
}

; Function Attrs: mustprogress nounwind uwtable
define linkonce_odr hidden void @_ZNSt10shared_ptrIN19OpenColorIO_v2_4dev30DynamicPropertyGradingToneImplEEC2Ev(ptr noundef nonnull align 8 dereferenceable(16) %this) unnamed_addr #5 comdat align 2 {
entry:
  %this.addr = alloca ptr, align 8
  store ptr %this, ptr %this.addr, align 8
  %this1 = load ptr, ptr %this.addr, align 8
  call void @_ZNSt12__shared_ptrIN19OpenColorIO_v2_4dev30DynamicPropertyGradingToneImplELN9__gnu_cxx12_Lock_policyE2EEC2Ev(ptr noundef nonnull align 8 dereferenceable(16) %this1) #3
  ret void
}

; Function Attrs: mustprogress nounwind uwtable
define linkonce_odr hidden void @_ZNK19OpenColorIO_v2_4dev17GradingToneOpData26getDynamicPropertyInternalEv(ptr noalias sret(%"class.std::shared_ptr.8") align 8 %agg.result, ptr noundef nonnull align 8 dereferenceable(196) %this) #5 comdat align 2 {
entry:
  %result.ptr = alloca ptr, align 8
  %this.addr = alloca ptr, align 8
  store ptr %agg.result, ptr %result.ptr, align 8
  store ptr %this, ptr %this.addr, align 8
  %this1 = load ptr, ptr %this.addr, align 8
  %m_value = getelementptr inbounds %"class.OpenColorIO_v2_4dev::GradingToneOpData", ptr %this1, i32 0, i32 3
  call void @_ZNSt10shared_ptrIN19OpenColorIO_v2_4dev30DynamicPropertyGradingToneImplEEC2ERKS2_(ptr noundef nonnull align 8 dereferenceable(16) %agg.result, ptr noundef nonnull align 8 dereferenceable(16) %m_value) #3
  ret void
}

; Function Attrs: mustprogress nounwind uwtable
define linkonce_odr hidden noundef nonnull align 8 dereferenceable(16) ptr @_ZNSt10shared_ptrIN19OpenColorIO_v2_4dev30DynamicPropertyGradingToneImplEEaSEOS2_(ptr noundef nonnull align 8 dereferenceable(16) %this, ptr noundef nonnull align 8 dereferenceable(16) %__r) #5 comdat align 2 {
entry:
  %this.addr = alloca ptr, align 8
  %__r.addr = alloca ptr, align 8
  store ptr %this, ptr %this.addr, align 8
  store ptr %__r, ptr %__r.addr, align 8
  %this1 = load ptr, ptr %this.addr, align 8
  %0 = load ptr, ptr %__r.addr, align 8
  %call = call noundef nonnull align 8 dereferenceable(16) ptr @_ZNSt12__shared_ptrIN19OpenColorIO_v2_4dev30DynamicPropertyGradingToneImplELN9__gnu_cxx12_Lock_policyE2EEaSEOS4_(ptr noundef nonnull align 8 dereferenceable(16) %this1, ptr noundef nonnull align 8 dereferenceable(16) %0) #3
  ret ptr %this1
}

; Function Attrs: mustprogress nounwind uwtable
define linkonce_odr hidden void @_ZNSt10shared_ptrIN19OpenColorIO_v2_4dev30DynamicPropertyGradingToneImplEED2Ev(ptr noundef nonnull align 8 dereferenceable(16) %this) unnamed_addr #5 comdat align 2 {
entry:
  %this.addr = alloca ptr, align 8
  store ptr %this, ptr %this.addr, align 8
  %this1 = load ptr, ptr %this.addr, align 8
  call void @_ZNSt12__shared_ptrIN19OpenColorIO_v2_4dev30DynamicPropertyGradingToneImplELN9__gnu_cxx12_Lock_policyE2EED2Ev(ptr noundef nonnull align 8 dereferenceable(16) %this1) #3
  ret void
}

; Function Attrs: mustprogress nounwind uwtable
define linkonce_odr hidden noundef ptr @_ZNKSt19__shared_ptr_accessIN19OpenColorIO_v2_4dev30DynamicPropertyGradingToneImplELN9__gnu_cxx12_Lock_policyE2ELb0ELb0EEptEv(ptr noundef nonnull align 1 dereferenceable(1) %this) #5 comdat align 2 {
entry:
  %this.addr = alloca ptr, align 8
  store ptr %this, ptr %this.addr, align 8
  %this1 = load ptr, ptr %this.addr, align 8
  %call = call noundef ptr @_ZNKSt19__shared_ptr_accessIN19OpenColorIO_v2_4dev30DynamicPropertyGradingToneImplELN9__gnu_cxx12_Lock_policyE2ELb0ELb0EE6_M_getEv(ptr noundef nonnull align 1 dereferenceable(1) %this1) #3
  ret ptr %call
}

; Function Attrs: mustprogress nounwind uwtable
define linkonce_odr hidden noundef zeroext i1 @_ZNK19OpenColorIO_v2_4dev19DynamicPropertyImpl9isDynamicEv(ptr noundef nonnull align 8 dereferenceable(13) %this) #5 comdat align 2 {
entry:
  %this.addr = alloca ptr, align 8
  store ptr %this, ptr %this.addr, align 8
  %this1 = load ptr, ptr %this.addr, align 8
  %m_isDynamic = getelementptr inbounds %"class.OpenColorIO_v2_4dev::DynamicPropertyImpl", ptr %this1, i32 0, i32 2
  %0 = load i8, ptr %m_isDynamic, align 4
  %tobool = trunc i8 %0 to i1
  ret i1 %tobool
}

declare void @_ZNK19OpenColorIO_v2_4dev30DynamicPropertyGradingToneImpl18createEditableCopyEv(ptr sret(%"class.std::shared_ptr.8") align 8, ptr noundef nonnull align 8 dereferenceable(1208)) #1

; Function Attrs: mustprogress nounwind uwtable
define linkonce_odr hidden void @_ZN19OpenColorIO_v2_4dev5OpCPUD2Ev(ptr noundef nonnull align 8 dereferenceable(8) %this) unnamed_addr #5 comdat align 2 {
entry:
  %this.addr = alloca ptr, align 8
  store ptr %this, ptr %this.addr, align 8
  ret void
}

; Function Attrs: mustprogress nounwind uwtable
define internal void @_ZN19OpenColorIO_v2_4dev12_GLOBAL__N_116GradingToneOpCPUD2Ev(ptr noundef nonnull align 8 dereferenceable(28) %this) unnamed_addr #5 align 2 {
entry:
  %this.addr = alloca ptr, align 8
  store ptr %this, ptr %this.addr, align 8
  %this1 = load ptr, ptr %this.addr, align 8
  store ptr getelementptr inbounds ({ [8 x ptr] }, ptr @_ZTVN19OpenColorIO_v2_4dev12_GLOBAL__N_116GradingToneOpCPUE, i32 0, inrange i32 0, i32 2), ptr %this1, align 8
  %m_gt = getelementptr inbounds %"class.OpenColorIO_v2_4dev::(anonymous namespace)::GradingToneOpCPU", ptr %this1, i32 0, i32 1
  call void @_ZNSt10shared_ptrIN19OpenColorIO_v2_4dev30DynamicPropertyGradingToneImplEED2Ev(ptr noundef nonnull align 8 dereferenceable(16) %m_gt) #3
  call void @_ZN19OpenColorIO_v2_4dev5OpCPUD2Ev(ptr noundef nonnull align 8 dereferenceable(8) %this1) #3
  ret void
}

; Function Attrs: mustprogress nounwind uwtable
define internal void @_ZN19OpenColorIO_v2_4dev12_GLOBAL__N_116GradingToneOpCPUD0Ev(ptr noundef nonnull align 8 dereferenceable(28) %this) unnamed_addr #5 align 2 {
entry:
  %this.addr = alloca ptr, align 8
  store ptr %this, ptr %this.addr, align 8
  call void @llvm.trap() #19
  unreachable
}

; Function Attrs: mustprogress nounwind uwtable
define linkonce_odr hidden void @_ZNSt12__shared_ptrIN19OpenColorIO_v2_4dev30DynamicPropertyGradingToneImplELN9__gnu_cxx12_Lock_policyE2EEC2Ev(ptr noundef nonnull align 8 dereferenceable(16) %this) unnamed_addr #5 comdat align 2 {
entry:
  %this.addr = alloca ptr, align 8
  store ptr %this, ptr %this.addr, align 8
  %this1 = load ptr, ptr %this.addr, align 8
  %_M_ptr = getelementptr inbounds %"class.std::__shared_ptr.9", ptr %this1, i32 0, i32 0
  store ptr null, ptr %_M_ptr, align 8
  %_M_refcount = getelementptr inbounds %"class.std::__shared_ptr.9", ptr %this1, i32 0, i32 1
  call void @_ZNSt14__shared_countILN9__gnu_cxx12_Lock_policyE2EEC2Ev(ptr noundef nonnull align 8 dereferenceable(8) %_M_refcount) #3
  ret void
}

; Function Attrs: mustprogress nounwind uwtable
define linkonce_odr hidden void @_ZNSt14__shared_countILN9__gnu_cxx12_Lock_policyE2EEC2Ev(ptr noundef nonnull align 8 dereferenceable(8) %this) unnamed_addr #5 comdat align 2 {
entry:
  %this.addr = alloca ptr, align 8
  store ptr %this, ptr %this.addr, align 8
  %this1 = load ptr, ptr %this.addr, align 8
  %_M_pi = getelementptr inbounds %"class.std::__shared_count", ptr %this1, i32 0, i32 0
  store ptr null, ptr %_M_pi, align 8
  ret void
}

; Function Attrs: mustprogress nounwind uwtable
define linkonce_odr hidden void @_ZNSt10shared_ptrIN19OpenColorIO_v2_4dev30DynamicPropertyGradingToneImplEEC2ERKS2_(ptr noundef nonnull align 8 dereferenceable(16) %this, ptr noundef nonnull align 8 dereferenceable(16) %0) unnamed_addr #5 comdat align 2 {
entry:
  %this.addr = alloca ptr, align 8
  %.addr = alloca ptr, align 8
  store ptr %this, ptr %this.addr, align 8
  store ptr %0, ptr %.addr, align 8
  %this1 = load ptr, ptr %this.addr, align 8
  %1 = load ptr, ptr %.addr, align 8
  call void @_ZNSt12__shared_ptrIN19OpenColorIO_v2_4dev30DynamicPropertyGradingToneImplELN9__gnu_cxx12_Lock_policyE2EEC2ERKS4_(ptr noundef nonnull align 8 dereferenceable(16) %this1, ptr noundef nonnull align 8 dereferenceable(16) %1) #3
  ret void
}

; Function Attrs: mustprogress nounwind uwtable
define linkonce_odr hidden void @_ZNSt12__shared_ptrIN19OpenColorIO_v2_4dev30DynamicPropertyGradingToneImplELN9__gnu_cxx12_Lock_policyE2EEC2ERKS4_(ptr noundef nonnull align 8 dereferenceable(16) %this, ptr noundef nonnull align 8 dereferenceable(16) %0) unnamed_addr #5 comdat align 2 {
entry:
  %this.addr = alloca ptr, align 8
  %.addr = alloca ptr, align 8
  store ptr %this, ptr %this.addr, align 8
  store ptr %0, ptr %.addr, align 8
  %this1 = load ptr, ptr %this.addr, align 8
  %_M_ptr = getelementptr inbounds %"class.std::__shared_ptr.9", ptr %this1, i32 0, i32 0
  %1 = load ptr, ptr %.addr, align 8
  %_M_ptr2 = getelementptr inbounds %"class.std::__shared_ptr.9", ptr %1, i32 0, i32 0
  %2 = load ptr, ptr %_M_ptr2, align 8
  store ptr %2, ptr %_M_ptr, align 8
  %_M_refcount = getelementptr inbounds %"class.std::__shared_ptr.9", ptr %this1, i32 0, i32 1
  %3 = load ptr, ptr %.addr, align 8
  %_M_refcount3 = getelementptr inbounds %"class.std::__shared_ptr.9", ptr %3, i32 0, i32 1
  call void @_ZNSt14__shared_countILN9__gnu_cxx12_Lock_policyE2EEC2ERKS2_(ptr noundef nonnull align 8 dereferenceable(8) %_M_refcount, ptr noundef nonnull align 8 dereferenceable(8) %_M_refcount3) #3
  ret void
}

; Function Attrs: mustprogress nounwind uwtable
define linkonce_odr hidden void @_ZNSt14__shared_countILN9__gnu_cxx12_Lock_policyE2EEC2ERKS2_(ptr noundef nonnull align 8 dereferenceable(8) %this, ptr noundef nonnull align 8 dereferenceable(8) %__r) unnamed_addr #5 comdat align 2 personality ptr @__gxx_personality_v0 {
entry:
  %this.addr = alloca ptr, align 8
  %__r.addr = alloca ptr, align 8
  store ptr %this, ptr %this.addr, align 8
  store ptr %__r, ptr %__r.addr, align 8
  %this1 = load ptr, ptr %this.addr, align 8
  %_M_pi = getelementptr inbounds %"class.std::__shared_count", ptr %this1, i32 0, i32 0
  %0 = load ptr, ptr %__r.addr, align 8
  %_M_pi2 = getelementptr inbounds %"class.std::__shared_count", ptr %0, i32 0, i32 0
  %1 = load ptr, ptr %_M_pi2, align 8
  store ptr %1, ptr %_M_pi, align 8
  %_M_pi3 = getelementptr inbounds %"class.std::__shared_count", ptr %this1, i32 0, i32 0
  %2 = load ptr, ptr %_M_pi3, align 8
  %cmp = icmp ne ptr %2, null
  br i1 %cmp, label %if.then, label %if.end

if.then:                                          ; preds = %entry
  %_M_pi4 = getelementptr inbounds %"class.std::__shared_count", ptr %this1, i32 0, i32 0
  %3 = load ptr, ptr %_M_pi4, align 8
  invoke void @_ZNSt16_Sp_counted_baseILN9__gnu_cxx12_Lock_policyE2EE15_M_add_ref_copyEv(ptr noundef nonnull align 8 dereferenceable(16) %3)
          to label %invoke.cont unwind label %terminate.lpad

invoke.cont:                                      ; preds = %if.then
  br label %if.end

if.end:                                           ; preds = %invoke.cont, %entry
  ret void

terminate.lpad:                                   ; preds = %if.then
  %4 = landingpad { ptr, i32 }
          catch ptr null
  %5 = extractvalue { ptr, i32 } %4, 0
  call void @__clang_call_terminate(ptr %5) #19
  unreachable
}

; Function Attrs: mustprogress uwtable
define linkonce_odr hidden void @_ZNSt16_Sp_counted_baseILN9__gnu_cxx12_Lock_policyE2EE15_M_add_ref_copyEv(ptr noundef nonnull align 8 dereferenceable(16) %this) #6 comdat align 2 {
entry:
  %__mem.addr.i4 = alloca ptr, align 8
  %__val.addr.i5 = alloca i32, align 4
  %.atomictmp.i = alloca i32, align 4
  %atomic-temp.i = alloca i32, align 4
  %__mem.addr.i2 = alloca ptr, align 8
  %__val.addr.i3 = alloca i32, align 4
  %__mem.addr.i = alloca ptr, align 8
  %__val.addr.i = alloca i32, align 4
  %this.addr = alloca ptr, align 8
  store ptr %this, ptr %this.addr, align 8
  %this1 = load ptr, ptr %this.addr, align 8
  %_M_use_count = getelementptr inbounds %"class.std::_Sp_counted_base", ptr %this1, i32 0, i32 1
  store ptr %_M_use_count, ptr %__mem.addr.i, align 8
  store i32 1, ptr %__val.addr.i, align 4
  %0 = load i8, ptr @__libc_single_threaded, align 1
  %tobool.i.i = icmp ne i8 %0, 0
  br i1 %tobool.i.i, label %if.then.i, label %if.else.i

if.then.i:                                        ; preds = %entry
  %1 = load ptr, ptr %__mem.addr.i, align 8
  %2 = load i32, ptr %__val.addr.i, align 4
  store ptr %1, ptr %__mem.addr.i2, align 8
  store i32 %2, ptr %__val.addr.i3, align 4
  %3 = load i32, ptr %__val.addr.i3, align 4
  %4 = load ptr, ptr %__mem.addr.i2, align 8
  %5 = load i32, ptr %4, align 4
  %add.i = add nsw i32 %5, %3
  store i32 %add.i, ptr %4, align 4
  br label %_ZN9__gnu_cxx21__atomic_add_dispatchEPii.exit

if.else.i:                                        ; preds = %entry
  %6 = load ptr, ptr %__mem.addr.i, align 8
  %7 = load i32, ptr %__val.addr.i, align 4
  store ptr %6, ptr %__mem.addr.i4, align 8
  store i32 %7, ptr %__val.addr.i5, align 4
  %8 = load ptr, ptr %__mem.addr.i4, align 8
  %9 = load i32, ptr %__val.addr.i5, align 4
  store i32 %9, ptr %.atomictmp.i, align 4
  %10 = load i32, ptr %.atomictmp.i, align 4
  %11 = atomicrmw volatile add ptr %8, i32 %10 acq_rel, align 4
  store i32 %11, ptr %atomic-temp.i, align 4
  br label %_ZN9__gnu_cxx21__atomic_add_dispatchEPii.exit

_ZN9__gnu_cxx21__atomic_add_dispatchEPii.exit:    ; preds = %if.else.i, %if.then.i
  ret void
}

; Function Attrs: mustprogress nounwind uwtable
define linkonce_odr hidden noundef nonnull align 8 dereferenceable(16) ptr @_ZNSt12__shared_ptrIN19OpenColorIO_v2_4dev30DynamicPropertyGradingToneImplELN9__gnu_cxx12_Lock_policyE2EEaSEOS4_(ptr noundef nonnull align 8 dereferenceable(16) %this, ptr noundef nonnull align 8 dereferenceable(16) %__r) #5 comdat align 2 {
entry:
  %this.addr = alloca ptr, align 8
  %__r.addr = alloca ptr, align 8
  %ref.tmp = alloca %"class.std::__shared_ptr.9", align 8
  store ptr %this, ptr %this.addr, align 8
  store ptr %__r, ptr %__r.addr, align 8
  %this1 = load ptr, ptr %this.addr, align 8
  %0 = load ptr, ptr %__r.addr, align 8
  call void @_ZNSt12__shared_ptrIN19OpenColorIO_v2_4dev30DynamicPropertyGradingToneImplELN9__gnu_cxx12_Lock_policyE2EEC2EOS4_(ptr noundef nonnull align 8 dereferenceable(16) %ref.tmp, ptr noundef nonnull align 8 dereferenceable(16) %0) #3
  call void @_ZNSt12__shared_ptrIN19OpenColorIO_v2_4dev30DynamicPropertyGradingToneImplELN9__gnu_cxx12_Lock_policyE2EE4swapERS4_(ptr noundef nonnull align 8 dereferenceable(16) %ref.tmp, ptr noundef nonnull align 8 dereferenceable(16) %this1) #3
  call void @_ZNSt12__shared_ptrIN19OpenColorIO_v2_4dev30DynamicPropertyGradingToneImplELN9__gnu_cxx12_Lock_policyE2EED2Ev(ptr noundef nonnull align 8 dereferenceable(16) %ref.tmp) #3
  ret ptr %this1
}

; Function Attrs: mustprogress nounwind uwtable
define linkonce_odr hidden void @_ZNSt12__shared_ptrIN19OpenColorIO_v2_4dev30DynamicPropertyGradingToneImplELN9__gnu_cxx12_Lock_policyE2EEC2EOS4_(ptr noundef nonnull align 8 dereferenceable(16) %this, ptr noundef nonnull align 8 dereferenceable(16) %__r) unnamed_addr #5 comdat align 2 {
entry:
  %this.addr = alloca ptr, align 8
  %__r.addr = alloca ptr, align 8
  store ptr %this, ptr %this.addr, align 8
  store ptr %__r, ptr %__r.addr, align 8
  %this1 = load ptr, ptr %this.addr, align 8
  %_M_ptr = getelementptr inbounds %"class.std::__shared_ptr.9", ptr %this1, i32 0, i32 0
  %0 = load ptr, ptr %__r.addr, align 8
  %_M_ptr2 = getelementptr inbounds %"class.std::__shared_ptr.9", ptr %0, i32 0, i32 0
  %1 = load ptr, ptr %_M_ptr2, align 8
  store ptr %1, ptr %_M_ptr, align 8
  %_M_refcount = getelementptr inbounds %"class.std::__shared_ptr.9", ptr %this1, i32 0, i32 1
  call void @_ZNSt14__shared_countILN9__gnu_cxx12_Lock_policyE2EEC2Ev(ptr noundef nonnull align 8 dereferenceable(8) %_M_refcount) #3
  %_M_refcount3 = getelementptr inbounds %"class.std::__shared_ptr.9", ptr %this1, i32 0, i32 1
  %2 = load ptr, ptr %__r.addr, align 8
  %_M_refcount4 = getelementptr inbounds %"class.std::__shared_ptr.9", ptr %2, i32 0, i32 1
  call void @_ZNSt14__shared_countILN9__gnu_cxx12_Lock_policyE2EE7_M_swapERS2_(ptr noundef nonnull align 8 dereferenceable(8) %_M_refcount3, ptr noundef nonnull align 8 dereferenceable(8) %_M_refcount4) #3
  %3 = load ptr, ptr %__r.addr, align 8
  %_M_ptr5 = getelementptr inbounds %"class.std::__shared_ptr.9", ptr %3, i32 0, i32 0
  store ptr null, ptr %_M_ptr5, align 8
  ret void
}

; Function Attrs: mustprogress nounwind uwtable
define linkonce_odr hidden void @_ZNSt12__shared_ptrIN19OpenColorIO_v2_4dev30DynamicPropertyGradingToneImplELN9__gnu_cxx12_Lock_policyE2EE4swapERS4_(ptr noundef nonnull align 8 dereferenceable(16) %this, ptr noundef nonnull align 8 dereferenceable(16) %__other) #5 comdat align 2 {
entry:
  %this.addr = alloca ptr, align 8
  %__other.addr = alloca ptr, align 8
  store ptr %this, ptr %this.addr, align 8
  store ptr %__other, ptr %__other.addr, align 8
  %this1 = load ptr, ptr %this.addr, align 8
  %_M_ptr = getelementptr inbounds %"class.std::__shared_ptr.9", ptr %this1, i32 0, i32 0
  %0 = load ptr, ptr %__other.addr, align 8
  %_M_ptr2 = getelementptr inbounds %"class.std::__shared_ptr.9", ptr %0, i32 0, i32 0
  call void @_ZSt4swapIPN19OpenColorIO_v2_4dev30DynamicPropertyGradingToneImplEENSt9enable_ifIXsr6__and_ISt6__not_ISt15__is_tuple_likeIT_EESt21is_move_constructibleIS6_ESt18is_move_assignableIS6_EEE5valueEvE4typeERS6_SF_(ptr noundef nonnull align 8 dereferenceable(8) %_M_ptr, ptr noundef nonnull align 8 dereferenceable(8) %_M_ptr2) #3
  %_M_refcount = getelementptr inbounds %"class.std::__shared_ptr.9", ptr %this1, i32 0, i32 1
  %1 = load ptr, ptr %__other.addr, align 8
  %_M_refcount3 = getelementptr inbounds %"class.std::__shared_ptr.9", ptr %1, i32 0, i32 1
  call void @_ZNSt14__shared_countILN9__gnu_cxx12_Lock_policyE2EE7_M_swapERS2_(ptr noundef nonnull align 8 dereferenceable(8) %_M_refcount, ptr noundef nonnull align 8 dereferenceable(8) %_M_refcount3) #3
  ret void
}

; Function Attrs: mustprogress nounwind uwtable
define linkonce_odr hidden void @_ZNSt12__shared_ptrIN19OpenColorIO_v2_4dev30DynamicPropertyGradingToneImplELN9__gnu_cxx12_Lock_policyE2EED2Ev(ptr noundef nonnull align 8 dereferenceable(16) %this) unnamed_addr #5 comdat align 2 {
entry:
  %this.addr = alloca ptr, align 8
  store ptr %this, ptr %this.addr, align 8
  %this1 = load ptr, ptr %this.addr, align 8
  %_M_refcount = getelementptr inbounds %"class.std::__shared_ptr.9", ptr %this1, i32 0, i32 1
  call void @_ZNSt14__shared_countILN9__gnu_cxx12_Lock_policyE2EED2Ev(ptr noundef nonnull align 8 dereferenceable(8) %_M_refcount) #3
  ret void
}

; Function Attrs: mustprogress nounwind uwtable
define linkonce_odr hidden void @_ZNSt14__shared_countILN9__gnu_cxx12_Lock_policyE2EE7_M_swapERS2_(ptr noundef nonnull align 8 dereferenceable(8) %this, ptr noundef nonnull align 8 dereferenceable(8) %__r) #5 comdat align 2 {
entry:
  %this.addr = alloca ptr, align 8
  %__r.addr = alloca ptr, align 8
  %__tmp = alloca ptr, align 8
  store ptr %this, ptr %this.addr, align 8
  store ptr %__r, ptr %__r.addr, align 8
  %this1 = load ptr, ptr %this.addr, align 8
  %0 = load ptr, ptr %__r.addr, align 8
  %_M_pi = getelementptr inbounds %"class.std::__shared_count", ptr %0, i32 0, i32 0
  %1 = load ptr, ptr %_M_pi, align 8
  store ptr %1, ptr %__tmp, align 8
  %_M_pi2 = getelementptr inbounds %"class.std::__shared_count", ptr %this1, i32 0, i32 0
  %2 = load ptr, ptr %_M_pi2, align 8
  %3 = load ptr, ptr %__r.addr, align 8
  %_M_pi3 = getelementptr inbounds %"class.std::__shared_count", ptr %3, i32 0, i32 0
  store ptr %2, ptr %_M_pi3, align 8
  %4 = load ptr, ptr %__tmp, align 8
  %_M_pi4 = getelementptr inbounds %"class.std::__shared_count", ptr %this1, i32 0, i32 0
  store ptr %4, ptr %_M_pi4, align 8
  ret void
}

; Function Attrs: mustprogress nounwind uwtable
define linkonce_odr hidden void @_ZSt4swapIPN19OpenColorIO_v2_4dev30DynamicPropertyGradingToneImplEENSt9enable_ifIXsr6__and_ISt6__not_ISt15__is_tuple_likeIT_EESt21is_move_constructibleIS6_ESt18is_move_assignableIS6_EEE5valueEvE4typeERS6_SF_(ptr noundef nonnull align 8 dereferenceable(8) %__a, ptr noundef nonnull align 8 dereferenceable(8) %__b) #5 comdat {
entry:
  %__a.addr = alloca ptr, align 8
  %__b.addr = alloca ptr, align 8
  %__tmp = alloca ptr, align 8
  store ptr %__a, ptr %__a.addr, align 8
  store ptr %__b, ptr %__b.addr, align 8
  %0 = load ptr, ptr %__a.addr, align 8
  %1 = load ptr, ptr %0, align 8
  store ptr %1, ptr %__tmp, align 8
  %2 = load ptr, ptr %__b.addr, align 8
  %3 = load ptr, ptr %2, align 8
  %4 = load ptr, ptr %__a.addr, align 8
  store ptr %3, ptr %4, align 8
  %5 = load ptr, ptr %__tmp, align 8
  %6 = load ptr, ptr %__b.addr, align 8
  store ptr %5, ptr %6, align 8
  ret void
}

; Function Attrs: mustprogress nounwind uwtable
define linkonce_odr hidden noundef ptr @_ZNKSt19__shared_ptr_accessIN19OpenColorIO_v2_4dev30DynamicPropertyGradingToneImplELN9__gnu_cxx12_Lock_policyE2ELb0ELb0EE6_M_getEv(ptr noundef nonnull align 1 dereferenceable(1) %this) #5 comdat align 2 {
entry:
  %this.addr = alloca ptr, align 8
  store ptr %this, ptr %this.addr, align 8
  %this1 = load ptr, ptr %this.addr, align 8
  %call = call noundef ptr @_ZNKSt12__shared_ptrIN19OpenColorIO_v2_4dev30DynamicPropertyGradingToneImplELN9__gnu_cxx12_Lock_policyE2EE3getEv(ptr noundef nonnull align 8 dereferenceable(16) %this1) #3
  ret ptr %call
}

; Function Attrs: mustprogress nounwind uwtable
define linkonce_odr hidden noundef ptr @_ZNKSt12__shared_ptrIN19OpenColorIO_v2_4dev30DynamicPropertyGradingToneImplELN9__gnu_cxx12_Lock_policyE2EE3getEv(ptr noundef nonnull align 8 dereferenceable(16) %this) #5 comdat align 2 {
entry:
  %this.addr = alloca ptr, align 8
  store ptr %this, ptr %this.addr, align 8
  %this1 = load ptr, ptr %this.addr, align 8
  %_M_ptr = getelementptr inbounds %"class.std::__shared_ptr.9", ptr %this1, i32 0, i32 0
  %0 = load ptr, ptr %_M_ptr, align 8
  ret ptr %0
}

; Function Attrs: nobuiltin nounwind
declare void @_ZdlPv(ptr noundef) #13

; Function Attrs: mustprogress nounwind uwtable
define linkonce_odr hidden noundef zeroext i1 @_ZNK19OpenColorIO_v2_4dev30DynamicPropertyGradingToneImpl14getLocalBypassEv(ptr noundef nonnull align 8 dereferenceable(1208) %this) #5 comdat align 2 {
entry:
  %this.addr = alloca ptr, align 8
  store ptr %this, ptr %this.addr, align 8
  %this1 = load ptr, ptr %this.addr, align 8
  %m_preRenderValues = getelementptr inbounds %"class.OpenColorIO_v2_4dev::DynamicPropertyGradingToneImpl", ptr %this1, i32 0, i32 3
  %m_localBypass = getelementptr inbounds %"struct.OpenColorIO_v2_4dev::GradingTonePreRender", ptr %m_preRenderValues, i32 0, i32 25
  %0 = load i8, ptr %m_localBypass, align 8
  %tobool = trunc i8 %0 to i1
  ret i1 %tobool
}

; Function Attrs: mustprogress nounwind uwtable
define linkonce_odr hidden noundef nonnull align 8 dereferenceable(936) ptr @_ZNK19OpenColorIO_v2_4dev30DynamicPropertyGradingToneImpl16getComputedValueEv(ptr noundef nonnull align 8 dereferenceable(1208) %this) #5 comdat align 2 {
entry:
  %this.addr = alloca ptr, align 8
  store ptr %this, ptr %this.addr, align 8
  %this1 = load ptr, ptr %this.addr, align 8
  %m_preRenderValues = getelementptr inbounds %"class.OpenColorIO_v2_4dev::DynamicPropertyGradingToneImpl", ptr %this1, i32 0, i32 3
  ret ptr %m_preRenderValues
}

; Function Attrs: mustprogress uwtable
define internal void @_ZNK19OpenColorIO_v2_4dev12_GLOBAL__N_119GradingToneFwdOpCPU4midsERKNS_11GradingToneERKNS_20GradingTonePreRenderENS_11RGBMChannelEPf(ptr noundef nonnull align 8 dereferenceable(28) %this, ptr noundef nonnull align 8 dereferenceable(248) %v, ptr noundef nonnull align 8 dereferenceable(936) %vpr, i32 noundef %channel, ptr noundef %out) #14 align 2 {
entry:
  %this.addr = alloca ptr, align 8
  %v.addr = alloca ptr, align 8
  %vpr.addr = alloca ptr, align 8
  %channel.addr = alloca i32, align 4
  %out.addr = alloca ptr, align 8
  %mid_adj = alloca float, align 4
  %x0 = alloca ptr, align 8
  %x1 = alloca ptr, align 8
  %x2 = alloca ptr, align 8
  %x3 = alloca ptr, align 8
  %x4 = alloca ptr, align 8
  %x5 = alloca ptr, align 8
  %y0 = alloca ptr, align 8
  %y1 = alloca ptr, align 8
  %y2 = alloca ptr, align 8
  %y3 = alloca ptr, align 8
  %y4 = alloca ptr, align 8
  %y5 = alloca ptr, align 8
  %m0 = alloca ptr, align 8
  %m1 = alloca ptr, align 8
  %m2 = alloca ptr, align 8
  %m3 = alloca ptr, align 8
  %m4 = alloca ptr, align 8
  %m5 = alloca ptr, align 8
  %t = alloca float, align 4
  %tL = alloca float, align 4
  %tM = alloca float, align 4
  %tR = alloca float, align 4
  %tR2 = alloca float, align 4
  %tR3 = alloca float, align 4
  %fL = alloca float, align 4
  %fM = alloca float, align 4
  %fR = alloca float, align 4
  %fR2 = alloca float, align 4
  %fR3 = alloca float, align 4
  %res = alloca float, align 4
  %t137 = alloca %"struct.OpenColorIO_v2_4dev::(anonymous namespace)::float3", align 4
  %tL138 = alloca %"struct.OpenColorIO_v2_4dev::(anonymous namespace)::float3", align 4
  %ref.tmp = alloca %"struct.OpenColorIO_v2_4dev::(anonymous namespace)::float3", align 4
  %tmp.coerce = alloca { <2 x float>, float }, align 8
  %tmp.coerce143 = alloca { <2 x float>, float }, align 8
  %tM144 = alloca %"struct.OpenColorIO_v2_4dev::(anonymous namespace)::float3", align 4
  %ref.tmp145 = alloca %"struct.OpenColorIO_v2_4dev::(anonymous namespace)::float3", align 4
  %tmp.coerce148 = alloca { <2 x float>, float }, align 8
  %tmp.coerce152 = alloca { <2 x float>, float }, align 8
  %tR153 = alloca %"struct.OpenColorIO_v2_4dev::(anonymous namespace)::float3", align 4
  %ref.tmp154 = alloca %"struct.OpenColorIO_v2_4dev::(anonymous namespace)::float3", align 4
  %tmp.coerce157 = alloca { <2 x float>, float }, align 8
  %tmp.coerce161 = alloca { <2 x float>, float }, align 8
  %tR2162 = alloca %"struct.OpenColorIO_v2_4dev::(anonymous namespace)::float3", align 4
  %ref.tmp163 = alloca %"struct.OpenColorIO_v2_4dev::(anonymous namespace)::float3", align 4
  %tmp.coerce166 = alloca { <2 x float>, float }, align 8
  %tmp.coerce170 = alloca { <2 x float>, float }, align 8
  %tR3171 = alloca %"struct.OpenColorIO_v2_4dev::(anonymous namespace)::float3", align 4
  %ref.tmp172 = alloca %"struct.OpenColorIO_v2_4dev::(anonymous namespace)::float3", align 4
  %tmp.coerce175 = alloca { <2 x float>, float }, align 8
  %tmp.coerce179 = alloca { <2 x float>, float }, align 8
  %fL180 = alloca %"struct.OpenColorIO_v2_4dev::(anonymous namespace)::float3", align 4
  %ref.tmp181 = alloca %"struct.OpenColorIO_v2_4dev::(anonymous namespace)::float3", align 4
  %ref.tmp182 = alloca %"struct.OpenColorIO_v2_4dev::(anonymous namespace)::float3", align 4
  %tmp.coerce186 = alloca { <2 x float>, float }, align 8
  %ref.tmp187 = alloca %"struct.OpenColorIO_v2_4dev::(anonymous namespace)::float3", align 4
  %ref.tmp188 = alloca %"struct.OpenColorIO_v2_4dev::(anonymous namespace)::float3", align 4
  %ref.tmp189 = alloca %"struct.OpenColorIO_v2_4dev::(anonymous namespace)::float3", align 4
  %tmp.coerce192 = alloca { <2 x float>, float }, align 8
  %tmp.coerce196 = alloca { <2 x float>, float }, align 8
  %tmp.coerce199 = alloca { <2 x float>, float }, align 8
  %tmp.coerce202 = alloca { <2 x float>, float }, align 8
  %tmp.coerce205 = alloca { <2 x float>, float }, align 8
  %fM206 = alloca %"struct.OpenColorIO_v2_4dev::(anonymous namespace)::float3", align 4
  %ref.tmp207 = alloca %"struct.OpenColorIO_v2_4dev::(anonymous namespace)::float3", align 4
  %ref.tmp208 = alloca %"struct.OpenColorIO_v2_4dev::(anonymous namespace)::float3", align 4
  %tmp.coerce212 = alloca { <2 x float>, float }, align 8
  %ref.tmp213 = alloca %"struct.OpenColorIO_v2_4dev::(anonymous namespace)::float3", align 4
  %ref.tmp214 = alloca %"struct.OpenColorIO_v2_4dev::(anonymous namespace)::float3", align 4
  %ref.tmp215 = alloca %"struct.OpenColorIO_v2_4dev::(anonymous namespace)::float3", align 4
  %tmp.coerce218 = alloca { <2 x float>, float }, align 8
  %tmp.coerce222 = alloca { <2 x float>, float }, align 8
  %tmp.coerce225 = alloca { <2 x float>, float }, align 8
  %tmp.coerce228 = alloca { <2 x float>, float }, align 8
  %tmp.coerce231 = alloca { <2 x float>, float }, align 8
  %fR232 = alloca %"struct.OpenColorIO_v2_4dev::(anonymous namespace)::float3", align 4
  %ref.tmp233 = alloca %"struct.OpenColorIO_v2_4dev::(anonymous namespace)::float3", align 4
  %ref.tmp234 = alloca %"struct.OpenColorIO_v2_4dev::(anonymous namespace)::float3", align 4
  %tmp.coerce238 = alloca { <2 x float>, float }, align 8
  %ref.tmp239 = alloca %"struct.OpenColorIO_v2_4dev::(anonymous namespace)::float3", align 4
  %ref.tmp240 = alloca %"struct.OpenColorIO_v2_4dev::(anonymous namespace)::float3", align 4
  %ref.tmp241 = alloca %"struct.OpenColorIO_v2_4dev::(anonymous namespace)::float3", align 4
  %tmp.coerce244 = alloca { <2 x float>, float }, align 8
  %tmp.coerce248 = alloca { <2 x float>, float }, align 8
  %tmp.coerce251 = alloca { <2 x float>, float }, align 8
  %tmp.coerce254 = alloca { <2 x float>, float }, align 8
  %tmp.coerce257 = alloca { <2 x float>, float }, align 8
  %fR2258 = alloca %"struct.OpenColorIO_v2_4dev::(anonymous namespace)::float3", align 4
  %ref.tmp259 = alloca %"struct.OpenColorIO_v2_4dev::(anonymous namespace)::float3", align 4
  %ref.tmp260 = alloca %"struct.OpenColorIO_v2_4dev::(anonymous namespace)::float3", align 4
  %tmp.coerce264 = alloca { <2 x float>, float }, align 8
  %ref.tmp265 = alloca %"struct.OpenColorIO_v2_4dev::(anonymous namespace)::float3", align 4
  %ref.tmp266 = alloca %"struct.OpenColorIO_v2_4dev::(anonymous namespace)::float3", align 4
  %ref.tmp267 = alloca %"struct.OpenColorIO_v2_4dev::(anonymous namespace)::float3", align 4
  %tmp.coerce270 = alloca { <2 x float>, float }, align 8
  %tmp.coerce274 = alloca { <2 x float>, float }, align 8
  %tmp.coerce277 = alloca { <2 x float>, float }, align 8
  %tmp.coerce280 = alloca { <2 x float>, float }, align 8
  %tmp.coerce283 = alloca { <2 x float>, float }, align 8
  %fR3284 = alloca %"struct.OpenColorIO_v2_4dev::(anonymous namespace)::float3", align 4
  %ref.tmp285 = alloca %"struct.OpenColorIO_v2_4dev::(anonymous namespace)::float3", align 4
  %ref.tmp286 = alloca %"struct.OpenColorIO_v2_4dev::(anonymous namespace)::float3", align 4
  %tmp.coerce290 = alloca { <2 x float>, float }, align 8
  %ref.tmp291 = alloca %"struct.OpenColorIO_v2_4dev::(anonymous namespace)::float3", align 4
  %ref.tmp292 = alloca %"struct.OpenColorIO_v2_4dev::(anonymous namespace)::float3", align 4
  %ref.tmp293 = alloca %"struct.OpenColorIO_v2_4dev::(anonymous namespace)::float3", align 4
  %tmp.coerce296 = alloca { <2 x float>, float }, align 8
  %tmp.coerce300 = alloca { <2 x float>, float }, align 8
  %tmp.coerce303 = alloca { <2 x float>, float }, align 8
  %tmp.coerce306 = alloca { <2 x float>, float }, align 8
  %tmp.coerce309 = alloca { <2 x float>, float }, align 8
  %fR4 = alloca %"struct.OpenColorIO_v2_4dev::(anonymous namespace)::float3", align 4
  %ref.tmp310 = alloca %"struct.OpenColorIO_v2_4dev::(anonymous namespace)::float3", align 4
  %ref.tmp311 = alloca %"struct.OpenColorIO_v2_4dev::(anonymous namespace)::float3", align 4
  %tmp.coerce314 = alloca { <2 x float>, float }, align 8
  %tmp.coerce317 = alloca { <2 x float>, float }, align 8
  %tmp.coerce320 = alloca { <2 x float>, float }, align 8
  %fR5 = alloca %"struct.OpenColorIO_v2_4dev::(anonymous namespace)::float3", align 4
  %ref.tmp321 = alloca %"struct.OpenColorIO_v2_4dev::(anonymous namespace)::float3", align 4
  %ref.tmp322 = alloca %"struct.OpenColorIO_v2_4dev::(anonymous namespace)::float3", align 4
  %tmp.coerce325 = alloca { <2 x float>, float }, align 8
  %tmp.coerce328 = alloca { <2 x float>, float }, align 8
  %tmp.coerce331 = alloca { <2 x float>, float }, align 8
  %res332 = alloca %"struct.OpenColorIO_v2_4dev::(anonymous namespace)::float3", align 4
  store ptr %this, ptr %this.addr, align 8
  store ptr %v, ptr %v.addr, align 8
  store ptr %vpr, ptr %vpr.addr, align 8
  store i32 %channel, ptr %channel.addr, align 4
  store ptr %out, ptr %out.addr, align 8
  %0 = load ptr, ptr %v.addr, align 8
  %m_midtones = getelementptr inbounds %"struct.OpenColorIO_v2_4dev::GradingTone", ptr %0, i32 0, i32 2
  %1 = load i32, ptr %channel.addr, align 4
  %call = call noundef float @_ZN19OpenColorIO_v2_4dev15GetChannelValueERKNS_13GradingRGBMSWENS_11RGBMChannelE(ptr noundef nonnull align 8 dereferenceable(48) %m_midtones, i32 noundef %1)
  %call2 = call noundef float @_ZN19OpenColorIO_v2_4dev5ClampIfEET_S1_S1_S1_(float noundef %call, float noundef 0x3F847AE140000000, float noundef 0x3FFFD70A40000000)
  store float %call2, ptr %mid_adj, align 4
  %2 = load float, ptr %mid_adj, align 4
  %cmp = fcmp une float %2, 1.000000e+00
  br i1 %cmp, label %if.then, label %if.end340

if.then:                                          ; preds = %entry
  %3 = load ptr, ptr %vpr.addr, align 8
  %m_midX = getelementptr inbounds %"struct.OpenColorIO_v2_4dev::GradingTonePreRender", ptr %3, i32 0, i32 8
  %4 = load i32, ptr %channel.addr, align 4
  %idxprom = zext i32 %4 to i64
  %arrayidx = getelementptr inbounds [4 x [6 x float]], ptr %m_midX, i64 0, i64 %idxprom
  %arrayidx3 = getelementptr inbounds [6 x float], ptr %arrayidx, i64 0, i64 0
  store ptr %arrayidx3, ptr %x0, align 8
  %5 = load ptr, ptr %vpr.addr, align 8
  %m_midX4 = getelementptr inbounds %"struct.OpenColorIO_v2_4dev::GradingTonePreRender", ptr %5, i32 0, i32 8
  %6 = load i32, ptr %channel.addr, align 4
  %idxprom5 = zext i32 %6 to i64
  %arrayidx6 = getelementptr inbounds [4 x [6 x float]], ptr %m_midX4, i64 0, i64 %idxprom5
  %arrayidx7 = getelementptr inbounds [6 x float], ptr %arrayidx6, i64 0, i64 1
  store ptr %arrayidx7, ptr %x1, align 8
  %7 = load ptr, ptr %vpr.addr, align 8
  %m_midX8 = getelementptr inbounds %"struct.OpenColorIO_v2_4dev::GradingTonePreRender", ptr %7, i32 0, i32 8
  %8 = load i32, ptr %channel.addr, align 4
  %idxprom9 = zext i32 %8 to i64
  %arrayidx10 = getelementptr inbounds [4 x [6 x float]], ptr %m_midX8, i64 0, i64 %idxprom9
  %arrayidx11 = getelementptr inbounds [6 x float], ptr %arrayidx10, i64 0, i64 2
  store ptr %arrayidx11, ptr %x2, align 8
  %9 = load ptr, ptr %vpr.addr, align 8
  %m_midX12 = getelementptr inbounds %"struct.OpenColorIO_v2_4dev::GradingTonePreRender", ptr %9, i32 0, i32 8
  %10 = load i32, ptr %channel.addr, align 4
  %idxprom13 = zext i32 %10 to i64
  %arrayidx14 = getelementptr inbounds [4 x [6 x float]], ptr %m_midX12, i64 0, i64 %idxprom13
  %arrayidx15 = getelementptr inbounds [6 x float], ptr %arrayidx14, i64 0, i64 3
  store ptr %arrayidx15, ptr %x3, align 8
  %11 = load ptr, ptr %vpr.addr, align 8
  %m_midX16 = getelementptr inbounds %"struct.OpenColorIO_v2_4dev::GradingTonePreRender", ptr %11, i32 0, i32 8
  %12 = load i32, ptr %channel.addr, align 4
  %idxprom17 = zext i32 %12 to i64
  %arrayidx18 = getelementptr inbounds [4 x [6 x float]], ptr %m_midX16, i64 0, i64 %idxprom17
  %arrayidx19 = getelementptr inbounds [6 x float], ptr %arrayidx18, i64 0, i64 4
  store ptr %arrayidx19, ptr %x4, align 8
  %13 = load ptr, ptr %vpr.addr, align 8
  %m_midX20 = getelementptr inbounds %"struct.OpenColorIO_v2_4dev::GradingTonePreRender", ptr %13, i32 0, i32 8
  %14 = load i32, ptr %channel.addr, align 4
  %idxprom21 = zext i32 %14 to i64
  %arrayidx22 = getelementptr inbounds [4 x [6 x float]], ptr %m_midX20, i64 0, i64 %idxprom21
  %arrayidx23 = getelementptr inbounds [6 x float], ptr %arrayidx22, i64 0, i64 5
  store ptr %arrayidx23, ptr %x5, align 8
  %15 = load ptr, ptr %vpr.addr, align 8
  %m_midY = getelementptr inbounds %"struct.OpenColorIO_v2_4dev::GradingTonePreRender", ptr %15, i32 0, i32 9
  %16 = load i32, ptr %channel.addr, align 4
  %idxprom24 = zext i32 %16 to i64
  %arrayidx25 = getelementptr inbounds [4 x [6 x float]], ptr %m_midY, i64 0, i64 %idxprom24
  %arrayidx26 = getelementptr inbounds [6 x float], ptr %arrayidx25, i64 0, i64 0
  store ptr %arrayidx26, ptr %y0, align 8
  %17 = load ptr, ptr %vpr.addr, align 8
  %m_midY27 = getelementptr inbounds %"struct.OpenColorIO_v2_4dev::GradingTonePreRender", ptr %17, i32 0, i32 9
  %18 = load i32, ptr %channel.addr, align 4
  %idxprom28 = zext i32 %18 to i64
  %arrayidx29 = getelementptr inbounds [4 x [6 x float]], ptr %m_midY27, i64 0, i64 %idxprom28
  %arrayidx30 = getelementptr inbounds [6 x float], ptr %arrayidx29, i64 0, i64 1
  store ptr %arrayidx30, ptr %y1, align 8
  %19 = load ptr, ptr %vpr.addr, align 8
  %m_midY31 = getelementptr inbounds %"struct.OpenColorIO_v2_4dev::GradingTonePreRender", ptr %19, i32 0, i32 9
  %20 = load i32, ptr %channel.addr, align 4
  %idxprom32 = zext i32 %20 to i64
  %arrayidx33 = getelementptr inbounds [4 x [6 x float]], ptr %m_midY31, i64 0, i64 %idxprom32
  %arrayidx34 = getelementptr inbounds [6 x float], ptr %arrayidx33, i64 0, i64 2
  store ptr %arrayidx34, ptr %y2, align 8
  %21 = load ptr, ptr %vpr.addr, align 8
  %m_midY35 = getelementptr inbounds %"struct.OpenColorIO_v2_4dev::GradingTonePreRender", ptr %21, i32 0, i32 9
  %22 = load i32, ptr %channel.addr, align 4
  %idxprom36 = zext i32 %22 to i64
  %arrayidx37 = getelementptr inbounds [4 x [6 x float]], ptr %m_midY35, i64 0, i64 %idxprom36
  %arrayidx38 = getelementptr inbounds [6 x float], ptr %arrayidx37, i64 0, i64 3
  store ptr %arrayidx38, ptr %y3, align 8
  %23 = load ptr, ptr %vpr.addr, align 8
  %m_midY39 = getelementptr inbounds %"struct.OpenColorIO_v2_4dev::GradingTonePreRender", ptr %23, i32 0, i32 9
  %24 = load i32, ptr %channel.addr, align 4
  %idxprom40 = zext i32 %24 to i64
  %arrayidx41 = getelementptr inbounds [4 x [6 x float]], ptr %m_midY39, i64 0, i64 %idxprom40
  %arrayidx42 = getelementptr inbounds [6 x float], ptr %arrayidx41, i64 0, i64 4
  store ptr %arrayidx42, ptr %y4, align 8
  %25 = load ptr, ptr %vpr.addr, align 8
  %m_midY43 = getelementptr inbounds %"struct.OpenColorIO_v2_4dev::GradingTonePreRender", ptr %25, i32 0, i32 9
  %26 = load i32, ptr %channel.addr, align 4
  %idxprom44 = zext i32 %26 to i64
  %arrayidx45 = getelementptr inbounds [4 x [6 x float]], ptr %m_midY43, i64 0, i64 %idxprom44
  %arrayidx46 = getelementptr inbounds [6 x float], ptr %arrayidx45, i64 0, i64 5
  store ptr %arrayidx46, ptr %y5, align 8
  %27 = load ptr, ptr %vpr.addr, align 8
  %m_midM = getelementptr inbounds %"struct.OpenColorIO_v2_4dev::GradingTonePreRender", ptr %27, i32 0, i32 10
  %28 = load i32, ptr %channel.addr, align 4
  %idxprom47 = zext i32 %28 to i64
  %arrayidx48 = getelementptr inbounds [4 x [6 x float]], ptr %m_midM, i64 0, i64 %idxprom47
  %arrayidx49 = getelementptr inbounds [6 x float], ptr %arrayidx48, i64 0, i64 0
  store ptr %arrayidx49, ptr %m0, align 8
  %29 = load ptr, ptr %vpr.addr, align 8
  %m_midM50 = getelementptr inbounds %"struct.OpenColorIO_v2_4dev::GradingTonePreRender", ptr %29, i32 0, i32 10
  %30 = load i32, ptr %channel.addr, align 4
  %idxprom51 = zext i32 %30 to i64
  %arrayidx52 = getelementptr inbounds [4 x [6 x float]], ptr %m_midM50, i64 0, i64 %idxprom51
  %arrayidx53 = getelementptr inbounds [6 x float], ptr %arrayidx52, i64 0, i64 1
  store ptr %arrayidx53, ptr %m1, align 8
  %31 = load ptr, ptr %vpr.addr, align 8
  %m_midM54 = getelementptr inbounds %"struct.OpenColorIO_v2_4dev::GradingTonePreRender", ptr %31, i32 0, i32 10
  %32 = load i32, ptr %channel.addr, align 4
  %idxprom55 = zext i32 %32 to i64
  %arrayidx56 = getelementptr inbounds [4 x [6 x float]], ptr %m_midM54, i64 0, i64 %idxprom55
  %arrayidx57 = getelementptr inbounds [6 x float], ptr %arrayidx56, i64 0, i64 2
  store ptr %arrayidx57, ptr %m2, align 8
  %33 = load ptr, ptr %vpr.addr, align 8
  %m_midM58 = getelementptr inbounds %"struct.OpenColorIO_v2_4dev::GradingTonePreRender", ptr %33, i32 0, i32 10
  %34 = load i32, ptr %channel.addr, align 4
  %idxprom59 = zext i32 %34 to i64
  %arrayidx60 = getelementptr inbounds [4 x [6 x float]], ptr %m_midM58, i64 0, i64 %idxprom59
  %arrayidx61 = getelementptr inbounds [6 x float], ptr %arrayidx60, i64 0, i64 3
  store ptr %arrayidx61, ptr %m3, align 8
  %35 = load ptr, ptr %vpr.addr, align 8
  %m_midM62 = getelementptr inbounds %"struct.OpenColorIO_v2_4dev::GradingTonePreRender", ptr %35, i32 0, i32 10
  %36 = load i32, ptr %channel.addr, align 4
  %idxprom63 = zext i32 %36 to i64
  %arrayidx64 = getelementptr inbounds [4 x [6 x float]], ptr %m_midM62, i64 0, i64 %idxprom63
  %arrayidx65 = getelementptr inbounds [6 x float], ptr %arrayidx64, i64 0, i64 4
  store ptr %arrayidx65, ptr %m4, align 8
  %37 = load ptr, ptr %vpr.addr, align 8
  %m_midM66 = getelementptr inbounds %"struct.OpenColorIO_v2_4dev::GradingTonePreRender", ptr %37, i32 0, i32 10
  %38 = load i32, ptr %channel.addr, align 4
  %idxprom67 = zext i32 %38 to i64
  %arrayidx68 = getelementptr inbounds [4 x [6 x float]], ptr %m_midM66, i64 0, i64 %idxprom67
  %arrayidx69 = getelementptr inbounds [6 x float], ptr %arrayidx68, i64 0, i64 5
  store ptr %arrayidx69, ptr %m5, align 8
  %39 = load i32, ptr %channel.addr, align 4
  %cmp70 = icmp ne i32 %39, 3
  br i1 %cmp70, label %if.then71, label %if.else

if.then71:                                        ; preds = %if.then
  %40 = load ptr, ptr %out.addr, align 8
  %41 = load i32, ptr %channel.addr, align 4
  %idxprom72 = zext i32 %41 to i64
  %arrayidx73 = getelementptr inbounds float, ptr %40, i64 %idxprom72
  %42 = load float, ptr %arrayidx73, align 4
  store float %42, ptr %t, align 4
  %43 = load float, ptr %t, align 4
  %44 = load ptr, ptr %x0, align 8
  %45 = load float, ptr %44, align 4
  %sub = fsub float %43, %45
  %46 = load ptr, ptr %x1, align 8
  %47 = load float, ptr %46, align 4
  %48 = load ptr, ptr %x0, align 8
  %49 = load float, ptr %48, align 4
  %sub74 = fsub float %47, %49
  %div = fdiv float %sub, %sub74
  store float %div, ptr %tL, align 4
  %50 = load float, ptr %t, align 4
  %51 = load ptr, ptr %x1, align 8
  %52 = load float, ptr %51, align 4
  %sub75 = fsub float %50, %52
  %53 = load ptr, ptr %x2, align 8
  %54 = load float, ptr %53, align 4
  %55 = load ptr, ptr %x1, align 8
  %56 = load float, ptr %55, align 4
  %sub76 = fsub float %54, %56
  %div77 = fdiv float %sub75, %sub76
  store float %div77, ptr %tM, align 4
  %57 = load float, ptr %t, align 4
  %58 = load ptr, ptr %x2, align 8
  %59 = load float, ptr %58, align 4
  %sub78 = fsub float %57, %59
  %60 = load ptr, ptr %x3, align 8
  %61 = load float, ptr %60, align 4
  %62 = load ptr, ptr %x2, align 8
  %63 = load float, ptr %62, align 4
  %sub79 = fsub float %61, %63
  %div80 = fdiv float %sub78, %sub79
  store float %div80, ptr %tR, align 4
  %64 = load float, ptr %t, align 4
  %65 = load ptr, ptr %x3, align 8
  %66 = load float, ptr %65, align 4
  %sub81 = fsub float %64, %66
  %67 = load ptr, ptr %x4, align 8
  %68 = load float, ptr %67, align 4
  %69 = load ptr, ptr %x3, align 8
  %70 = load float, ptr %69, align 4
  %sub82 = fsub float %68, %70
  %div83 = fdiv float %sub81, %sub82
  store float %div83, ptr %tR2, align 4
  %71 = load float, ptr %t, align 4
  %72 = load ptr, ptr %x4, align 8
  %73 = load float, ptr %72, align 4
  %sub84 = fsub float %71, %73
  %74 = load ptr, ptr %x5, align 8
  %75 = load float, ptr %74, align 4
  %76 = load ptr, ptr %x4, align 8
  %77 = load float, ptr %76, align 4
  %sub85 = fsub float %75, %77
  %div86 = fdiv float %sub84, %sub85
  store float %div86, ptr %tR3, align 4
  %78 = load float, ptr %tL, align 4
  %79 = load ptr, ptr %x1, align 8
  %80 = load float, ptr %79, align 4
  %81 = load ptr, ptr %x0, align 8
  %82 = load float, ptr %81, align 4
  %sub87 = fsub float %80, %82
  %mul = fmul float %78, %sub87
  %83 = load float, ptr %tL, align 4
  %mul88 = fmul float %83, 5.000000e-01
  %84 = load ptr, ptr %m1, align 8
  %85 = load float, ptr %84, align 4
  %86 = load ptr, ptr %m0, align 8
  %87 = load float, ptr %86, align 4
  %sub89 = fsub float %85, %87
  %88 = load ptr, ptr %m0, align 8
  %89 = load float, ptr %88, align 4
  %90 = call float @llvm.fmuladd.f32(float %mul88, float %sub89, float %89)
  %91 = load ptr, ptr %y0, align 8
  %92 = load float, ptr %91, align 4
  %93 = call float @llvm.fmuladd.f32(float %mul, float %90, float %92)
  store float %93, ptr %fL, align 4
  %94 = load float, ptr %tM, align 4
  %95 = load ptr, ptr %x2, align 8
  %96 = load float, ptr %95, align 4
  %97 = load ptr, ptr %x1, align 8
  %98 = load float, ptr %97, align 4
  %sub92 = fsub float %96, %98
  %mul93 = fmul float %94, %sub92
  %99 = load float, ptr %tM, align 4
  %mul94 = fmul float %99, 5.000000e-01
  %100 = load ptr, ptr %m2, align 8
  %101 = load float, ptr %100, align 4
  %102 = load ptr, ptr %m1, align 8
  %103 = load float, ptr %102, align 4
  %sub95 = fsub float %101, %103
  %104 = load ptr, ptr %m1, align 8
  %105 = load float, ptr %104, align 4
  %106 = call float @llvm.fmuladd.f32(float %mul94, float %sub95, float %105)
  %107 = load ptr, ptr %y1, align 8
  %108 = load float, ptr %107, align 4
  %109 = call float @llvm.fmuladd.f32(float %mul93, float %106, float %108)
  store float %109, ptr %fM, align 4
  %110 = load float, ptr %tR, align 4
  %111 = load ptr, ptr %x3, align 8
  %112 = load float, ptr %111, align 4
  %113 = load ptr, ptr %x2, align 8
  %114 = load float, ptr %113, align 4
  %sub98 = fsub float %112, %114
  %mul99 = fmul float %110, %sub98
  %115 = load float, ptr %tR, align 4
  %mul100 = fmul float %115, 5.000000e-01
  %116 = load ptr, ptr %m3, align 8
  %117 = load float, ptr %116, align 4
  %118 = load ptr, ptr %m2, align 8
  %119 = load float, ptr %118, align 4
  %sub101 = fsub float %117, %119
  %120 = load ptr, ptr %m2, align 8
  %121 = load float, ptr %120, align 4
  %122 = call float @llvm.fmuladd.f32(float %mul100, float %sub101, float %121)
  %123 = load ptr, ptr %y2, align 8
  %124 = load float, ptr %123, align 4
  %125 = call float @llvm.fmuladd.f32(float %mul99, float %122, float %124)
  store float %125, ptr %fR, align 4
  %126 = load float, ptr %tR2, align 4
  %127 = load ptr, ptr %x4, align 8
  %128 = load float, ptr %127, align 4
  %129 = load ptr, ptr %x3, align 8
  %130 = load float, ptr %129, align 4
  %sub104 = fsub float %128, %130
  %mul105 = fmul float %126, %sub104
  %131 = load float, ptr %tR2, align 4
  %mul106 = fmul float %131, 5.000000e-01
  %132 = load ptr, ptr %m4, align 8
  %133 = load float, ptr %132, align 4
  %134 = load ptr, ptr %m3, align 8
  %135 = load float, ptr %134, align 4
  %sub107 = fsub float %133, %135
  %136 = load ptr, ptr %m3, align 8
  %137 = load float, ptr %136, align 4
  %138 = call float @llvm.fmuladd.f32(float %mul106, float %sub107, float %137)
  %139 = load ptr, ptr %y3, align 8
  %140 = load float, ptr %139, align 4
  %141 = call float @llvm.fmuladd.f32(float %mul105, float %138, float %140)
  store float %141, ptr %fR2, align 4
  %142 = load float, ptr %tR3, align 4
  %143 = load ptr, ptr %x5, align 8
  %144 = load float, ptr %143, align 4
  %145 = load ptr, ptr %x4, align 8
  %146 = load float, ptr %145, align 4
  %sub110 = fsub float %144, %146
  %mul111 = fmul float %142, %sub110
  %147 = load float, ptr %tR3, align 4
  %mul112 = fmul float %147, 5.000000e-01
  %148 = load ptr, ptr %m5, align 8
  %149 = load float, ptr %148, align 4
  %150 = load ptr, ptr %m4, align 8
  %151 = load float, ptr %150, align 4
  %sub113 = fsub float %149, %151
  %152 = load ptr, ptr %m4, align 8
  %153 = load float, ptr %152, align 4
  %154 = call float @llvm.fmuladd.f32(float %mul112, float %sub113, float %153)
  %155 = load ptr, ptr %y4, align 8
  %156 = load float, ptr %155, align 4
  %157 = call float @llvm.fmuladd.f32(float %mul111, float %154, float %156)
  store float %157, ptr %fR3, align 4
  %158 = load float, ptr %t, align 4
  %159 = load ptr, ptr %x1, align 8
  %160 = load float, ptr %159, align 4
  %cmp116 = fcmp olt float %158, %160
  br i1 %cmp116, label %cond.true, label %cond.false

cond.true:                                        ; preds = %if.then71
  %161 = load float, ptr %fL, align 4
  br label %cond.end

cond.false:                                       ; preds = %if.then71
  %162 = load float, ptr %fM, align 4
  br label %cond.end

cond.end:                                         ; preds = %cond.false, %cond.true
  %cond = phi float [ %161, %cond.true ], [ %162, %cond.false ]
  store float %cond, ptr %res, align 4
  %163 = load float, ptr %t, align 4
  %164 = load ptr, ptr %x2, align 8
  %165 = load float, ptr %164, align 4
  %cmp117 = fcmp ogt float %163, %165
  br i1 %cmp117, label %if.then118, label %if.end

if.then118:                                       ; preds = %cond.end
  %166 = load float, ptr %fR, align 4
  store float %166, ptr %res, align 4
  br label %if.end

if.end:                                           ; preds = %if.then118, %cond.end
  %167 = load float, ptr %t, align 4
  %168 = load ptr, ptr %x3, align 8
  %169 = load float, ptr %168, align 4
  %cmp119 = fcmp ogt float %167, %169
  br i1 %cmp119, label %if.then120, label %if.end121

if.then120:                                       ; preds = %if.end
  %170 = load float, ptr %fR2, align 4
  store float %170, ptr %res, align 4
  br label %if.end121

if.end121:                                        ; preds = %if.then120, %if.end
  %171 = load float, ptr %t, align 4
  %172 = load ptr, ptr %x4, align 8
  %173 = load float, ptr %172, align 4
  %cmp122 = fcmp ogt float %171, %173
  br i1 %cmp122, label %if.then123, label %if.end124

if.then123:                                       ; preds = %if.end121
  %174 = load float, ptr %fR3, align 4
  store float %174, ptr %res, align 4
  br label %if.end124

if.end124:                                        ; preds = %if.then123, %if.end121
  %175 = load float, ptr %t, align 4
  %176 = load ptr, ptr %x0, align 8
  %177 = load float, ptr %176, align 4
  %cmp125 = fcmp olt float %175, %177
  br i1 %cmp125, label %if.then126, label %if.end129

if.then126:                                       ; preds = %if.end124
  %178 = load ptr, ptr %y0, align 8
  %179 = load float, ptr %178, align 4
  %180 = load float, ptr %t, align 4
  %181 = load ptr, ptr %x0, align 8
  %182 = load float, ptr %181, align 4
  %sub127 = fsub float %180, %182
  %183 = load ptr, ptr %m0, align 8
  %184 = load float, ptr %183, align 4
  %185 = call float @llvm.fmuladd.f32(float %sub127, float %184, float %179)
  store float %185, ptr %res, align 4
  br label %if.end129

if.end129:                                        ; preds = %if.then126, %if.end124
  %186 = load float, ptr %t, align 4
  %187 = load ptr, ptr %x5, align 8
  %188 = load float, ptr %187, align 4
  %cmp130 = fcmp ogt float %186, %188
  br i1 %cmp130, label %if.then131, label %if.end134

if.then131:                                       ; preds = %if.end129
  %189 = load ptr, ptr %y5, align 8
  %190 = load float, ptr %189, align 4
  %191 = load float, ptr %t, align 4
  %192 = load ptr, ptr %x5, align 8
  %193 = load float, ptr %192, align 4
  %sub132 = fsub float %191, %193
  %194 = load ptr, ptr %m5, align 8
  %195 = load float, ptr %194, align 4
  %196 = call float @llvm.fmuladd.f32(float %sub132, float %195, float %190)
  store float %196, ptr %res, align 4
  br label %if.end134

if.end134:                                        ; preds = %if.then131, %if.end129
  %197 = load float, ptr %res, align 4
  %198 = load ptr, ptr %out.addr, align 8
  %199 = load i32, ptr %channel.addr, align 4
  %idxprom135 = zext i32 %199 to i64
  %arrayidx136 = getelementptr inbounds float, ptr %198, i64 %idxprom135
  store float %197, ptr %arrayidx136, align 4
  br label %if.end339

if.else:                                          ; preds = %if.then
  %200 = load ptr, ptr %out.addr, align 8
  call void @_ZN19OpenColorIO_v2_4dev12_GLOBAL__N_16float3C2EPKf(ptr noundef nonnull align 4 dereferenceable(12) %t137, ptr noundef %200)
  %201 = load ptr, ptr %x0, align 8
  %202 = load float, ptr %201, align 4
  %call139 = call { <2 x float>, float } @_ZN19OpenColorIO_v2_4dev12_GLOBAL__N_1miERKNS0_6float3Ef(ptr noundef nonnull align 4 dereferenceable(12) %t137, float noundef %202)
  %coerce.dive = getelementptr inbounds %"struct.OpenColorIO_v2_4dev::(anonymous namespace)::float3", ptr %ref.tmp, i32 0, i32 0
  store { <2 x float>, float } %call139, ptr %tmp.coerce, align 8
  call void @llvm.memcpy.p0.p0.i64(ptr align 4 %coerce.dive, ptr align 8 %tmp.coerce, i64 12, i1 false)
  %203 = load ptr, ptr %x1, align 8
  %204 = load float, ptr %203, align 4
  %205 = load ptr, ptr %x0, align 8
  %206 = load float, ptr %205, align 4
  %sub140 = fsub float %204, %206
  %call141 = call { <2 x float>, float } @_ZN19OpenColorIO_v2_4dev12_GLOBAL__N_1dvERKNS0_6float3Ef(ptr noundef nonnull align 4 dereferenceable(12) %ref.tmp, float noundef %sub140)
  %coerce.dive142 = getelementptr inbounds %"struct.OpenColorIO_v2_4dev::(anonymous namespace)::float3", ptr %tL138, i32 0, i32 0
  store { <2 x float>, float } %call141, ptr %tmp.coerce143, align 8
  call void @llvm.memcpy.p0.p0.i64(ptr align 4 %coerce.dive142, ptr align 8 %tmp.coerce143, i64 12, i1 false)
  %207 = load ptr, ptr %x1, align 8
  %208 = load float, ptr %207, align 4
  %call146 = call { <2 x float>, float } @_ZN19OpenColorIO_v2_4dev12_GLOBAL__N_1miERKNS0_6float3Ef(ptr noundef nonnull align 4 dereferenceable(12) %t137, float noundef %208)
  %coerce.dive147 = getelementptr inbounds %"struct.OpenColorIO_v2_4dev::(anonymous namespace)::float3", ptr %ref.tmp145, i32 0, i32 0
  store { <2 x float>, float } %call146, ptr %tmp.coerce148, align 8
  call void @llvm.memcpy.p0.p0.i64(ptr align 4 %coerce.dive147, ptr align 8 %tmp.coerce148, i64 12, i1 false)
  %209 = load ptr, ptr %x2, align 8
  %210 = load float, ptr %209, align 4
  %211 = load ptr, ptr %x1, align 8
  %212 = load float, ptr %211, align 4
  %sub149 = fsub float %210, %212
  %call150 = call { <2 x float>, float } @_ZN19OpenColorIO_v2_4dev12_GLOBAL__N_1dvERKNS0_6float3Ef(ptr noundef nonnull align 4 dereferenceable(12) %ref.tmp145, float noundef %sub149)
  %coerce.dive151 = getelementptr inbounds %"struct.OpenColorIO_v2_4dev::(anonymous namespace)::float3", ptr %tM144, i32 0, i32 0
  store { <2 x float>, float } %call150, ptr %tmp.coerce152, align 8
  call void @llvm.memcpy.p0.p0.i64(ptr align 4 %coerce.dive151, ptr align 8 %tmp.coerce152, i64 12, i1 false)
  %213 = load ptr, ptr %x2, align 8
  %214 = load float, ptr %213, align 4
  %call155 = call { <2 x float>, float } @_ZN19OpenColorIO_v2_4dev12_GLOBAL__N_1miERKNS0_6float3Ef(ptr noundef nonnull align 4 dereferenceable(12) %t137, float noundef %214)
  %coerce.dive156 = getelementptr inbounds %"struct.OpenColorIO_v2_4dev::(anonymous namespace)::float3", ptr %ref.tmp154, i32 0, i32 0
  store { <2 x float>, float } %call155, ptr %tmp.coerce157, align 8
  call void @llvm.memcpy.p0.p0.i64(ptr align 4 %coerce.dive156, ptr align 8 %tmp.coerce157, i64 12, i1 false)
  %215 = load ptr, ptr %x3, align 8
  %216 = load float, ptr %215, align 4
  %217 = load ptr, ptr %x2, align 8
  %218 = load float, ptr %217, align 4
  %sub158 = fsub float %216, %218
  %call159 = call { <2 x float>, float } @_ZN19OpenColorIO_v2_4dev12_GLOBAL__N_1dvERKNS0_6float3Ef(ptr noundef nonnull align 4 dereferenceable(12) %ref.tmp154, float noundef %sub158)
  %coerce.dive160 = getelementptr inbounds %"struct.OpenColorIO_v2_4dev::(anonymous namespace)::float3", ptr %tR153, i32 0, i32 0
  store { <2 x float>, float } %call159, ptr %tmp.coerce161, align 8
  call void @llvm.memcpy.p0.p0.i64(ptr align 4 %coerce.dive160, ptr align 8 %tmp.coerce161, i64 12, i1 false)
  %219 = load ptr, ptr %x3, align 8
  %220 = load float, ptr %219, align 4
  %call164 = call { <2 x float>, float } @_ZN19OpenColorIO_v2_4dev12_GLOBAL__N_1miERKNS0_6float3Ef(ptr noundef nonnull align 4 dereferenceable(12) %t137, float noundef %220)
  %coerce.dive165 = getelementptr inbounds %"struct.OpenColorIO_v2_4dev::(anonymous namespace)::float3", ptr %ref.tmp163, i32 0, i32 0
  store { <2 x float>, float } %call164, ptr %tmp.coerce166, align 8
  call void @llvm.memcpy.p0.p0.i64(ptr align 4 %coerce.dive165, ptr align 8 %tmp.coerce166, i64 12, i1 false)
  %221 = load ptr, ptr %x4, align 8
  %222 = load float, ptr %221, align 4
  %223 = load ptr, ptr %x3, align 8
  %224 = load float, ptr %223, align 4
  %sub167 = fsub float %222, %224
  %call168 = call { <2 x float>, float } @_ZN19OpenColorIO_v2_4dev12_GLOBAL__N_1dvERKNS0_6float3Ef(ptr noundef nonnull align 4 dereferenceable(12) %ref.tmp163, float noundef %sub167)
  %coerce.dive169 = getelementptr inbounds %"struct.OpenColorIO_v2_4dev::(anonymous namespace)::float3", ptr %tR2162, i32 0, i32 0
  store { <2 x float>, float } %call168, ptr %tmp.coerce170, align 8
  call void @llvm.memcpy.p0.p0.i64(ptr align 4 %coerce.dive169, ptr align 8 %tmp.coerce170, i64 12, i1 false)
  %225 = load ptr, ptr %x4, align 8
  %226 = load float, ptr %225, align 4
  %call173 = call { <2 x float>, float } @_ZN19OpenColorIO_v2_4dev12_GLOBAL__N_1miERKNS0_6float3Ef(ptr noundef nonnull align 4 dereferenceable(12) %t137, float noundef %226)
  %coerce.dive174 = getelementptr inbounds %"struct.OpenColorIO_v2_4dev::(anonymous namespace)::float3", ptr %ref.tmp172, i32 0, i32 0
  store { <2 x float>, float } %call173, ptr %tmp.coerce175, align 8
  call void @llvm.memcpy.p0.p0.i64(ptr align 4 %coerce.dive174, ptr align 8 %tmp.coerce175, i64 12, i1 false)
  %227 = load ptr, ptr %x5, align 8
  %228 = load float, ptr %227, align 4
  %229 = load ptr, ptr %x4, align 8
  %230 = load float, ptr %229, align 4
  %sub176 = fsub float %228, %230
  %call177 = call { <2 x float>, float } @_ZN19OpenColorIO_v2_4dev12_GLOBAL__N_1dvERKNS0_6float3Ef(ptr noundef nonnull align 4 dereferenceable(12) %ref.tmp172, float noundef %sub176)
  %coerce.dive178 = getelementptr inbounds %"struct.OpenColorIO_v2_4dev::(anonymous namespace)::float3", ptr %tR3171, i32 0, i32 0
  store { <2 x float>, float } %call177, ptr %tmp.coerce179, align 8
  call void @llvm.memcpy.p0.p0.i64(ptr align 4 %coerce.dive178, ptr align 8 %tmp.coerce179, i64 12, i1 false)
  %231 = load ptr, ptr %x1, align 8
  %232 = load float, ptr %231, align 4
  %233 = load ptr, ptr %x0, align 8
  %234 = load float, ptr %233, align 4
  %sub183 = fsub float %232, %234
  %call184 = call { <2 x float>, float } @_ZN19OpenColorIO_v2_4dev12_GLOBAL__N_1mlERKNS0_6float3Ef(ptr noundef nonnull align 4 dereferenceable(12) %tL138, float noundef %sub183)
  %coerce.dive185 = getelementptr inbounds %"struct.OpenColorIO_v2_4dev::(anonymous namespace)::float3", ptr %ref.tmp182, i32 0, i32 0
  store { <2 x float>, float } %call184, ptr %tmp.coerce186, align 8
  call void @llvm.memcpy.p0.p0.i64(ptr align 4 %coerce.dive185, ptr align 8 %tmp.coerce186, i64 12, i1 false)
  %call190 = call { <2 x float>, float } @_ZN19OpenColorIO_v2_4dev12_GLOBAL__N_1mlERKNS0_6float3Ef(ptr noundef nonnull align 4 dereferenceable(12) %tL138, float noundef 5.000000e-01)
  %coerce.dive191 = getelementptr inbounds %"struct.OpenColorIO_v2_4dev::(anonymous namespace)::float3", ptr %ref.tmp189, i32 0, i32 0
  store { <2 x float>, float } %call190, ptr %tmp.coerce192, align 8
  call void @llvm.memcpy.p0.p0.i64(ptr align 4 %coerce.dive191, ptr align 8 %tmp.coerce192, i64 12, i1 false)
  %235 = load ptr, ptr %m1, align 8
  %236 = load float, ptr %235, align 4
  %237 = load ptr, ptr %m0, align 8
  %238 = load float, ptr %237, align 4
  %sub193 = fsub float %236, %238
  %call194 = call { <2 x float>, float } @_ZN19OpenColorIO_v2_4dev12_GLOBAL__N_1mlERKNS0_6float3Ef(ptr noundef nonnull align 4 dereferenceable(12) %ref.tmp189, float noundef %sub193)
  %coerce.dive195 = getelementptr inbounds %"struct.OpenColorIO_v2_4dev::(anonymous namespace)::float3", ptr %ref.tmp188, i32 0, i32 0
  store { <2 x float>, float } %call194, ptr %tmp.coerce196, align 8
  call void @llvm.memcpy.p0.p0.i64(ptr align 4 %coerce.dive195, ptr align 8 %tmp.coerce196, i64 12, i1 false)
  %239 = load ptr, ptr %m0, align 8
  %240 = load float, ptr %239, align 4
  %call197 = call { <2 x float>, float } @_ZN19OpenColorIO_v2_4dev12_GLOBAL__N_1plERKNS0_6float3Ef(ptr noundef nonnull align 4 dereferenceable(12) %ref.tmp188, float noundef %240)
  %coerce.dive198 = getelementptr inbounds %"struct.OpenColorIO_v2_4dev::(anonymous namespace)::float3", ptr %ref.tmp187, i32 0, i32 0
  store { <2 x float>, float } %call197, ptr %tmp.coerce199, align 8
  call void @llvm.memcpy.p0.p0.i64(ptr align 4 %coerce.dive198, ptr align 8 %tmp.coerce199, i64 12, i1 false)
  %call200 = call { <2 x float>, float } @_ZN19OpenColorIO_v2_4dev12_GLOBAL__N_1mlERKNS0_6float3ES3_(ptr noundef nonnull align 4 dereferenceable(12) %ref.tmp182, ptr noundef nonnull align 4 dereferenceable(12) %ref.tmp187)
  %coerce.dive201 = getelementptr inbounds %"struct.OpenColorIO_v2_4dev::(anonymous namespace)::float3", ptr %ref.tmp181, i32 0, i32 0
  store { <2 x float>, float } %call200, ptr %tmp.coerce202, align 8
  call void @llvm.memcpy.p0.p0.i64(ptr align 4 %coerce.dive201, ptr align 8 %tmp.coerce202, i64 12, i1 false)
  %241 = load ptr, ptr %y0, align 8
  %242 = load float, ptr %241, align 4
  %call203 = call { <2 x float>, float } @_ZN19OpenColorIO_v2_4dev12_GLOBAL__N_1plERKNS0_6float3Ef(ptr noundef nonnull align 4 dereferenceable(12) %ref.tmp181, float noundef %242)
  %coerce.dive204 = getelementptr inbounds %"struct.OpenColorIO_v2_4dev::(anonymous namespace)::float3", ptr %fL180, i32 0, i32 0
  store { <2 x float>, float } %call203, ptr %tmp.coerce205, align 8
  call void @llvm.memcpy.p0.p0.i64(ptr align 4 %coerce.dive204, ptr align 8 %tmp.coerce205, i64 12, i1 false)
  %243 = load ptr, ptr %x2, align 8
  %244 = load float, ptr %243, align 4
  %245 = load ptr, ptr %x1, align 8
  %246 = load float, ptr %245, align 4
  %sub209 = fsub float %244, %246
  %call210 = call { <2 x float>, float } @_ZN19OpenColorIO_v2_4dev12_GLOBAL__N_1mlERKNS0_6float3Ef(ptr noundef nonnull align 4 dereferenceable(12) %tM144, float noundef %sub209)
  %coerce.dive211 = getelementptr inbounds %"struct.OpenColorIO_v2_4dev::(anonymous namespace)::float3", ptr %ref.tmp208, i32 0, i32 0
  store { <2 x float>, float } %call210, ptr %tmp.coerce212, align 8
  call void @llvm.memcpy.p0.p0.i64(ptr align 4 %coerce.dive211, ptr align 8 %tmp.coerce212, i64 12, i1 false)
  %call216 = call { <2 x float>, float } @_ZN19OpenColorIO_v2_4dev12_GLOBAL__N_1mlERKNS0_6float3Ef(ptr noundef nonnull align 4 dereferenceable(12) %tM144, float noundef 5.000000e-01)
  %coerce.dive217 = getelementptr inbounds %"struct.OpenColorIO_v2_4dev::(anonymous namespace)::float3", ptr %ref.tmp215, i32 0, i32 0
  store { <2 x float>, float } %call216, ptr %tmp.coerce218, align 8
  call void @llvm.memcpy.p0.p0.i64(ptr align 4 %coerce.dive217, ptr align 8 %tmp.coerce218, i64 12, i1 false)
  %247 = load ptr, ptr %m2, align 8
  %248 = load float, ptr %247, align 4
  %249 = load ptr, ptr %m1, align 8
  %250 = load float, ptr %249, align 4
  %sub219 = fsub float %248, %250
  %call220 = call { <2 x float>, float } @_ZN19OpenColorIO_v2_4dev12_GLOBAL__N_1mlERKNS0_6float3Ef(ptr noundef nonnull align 4 dereferenceable(12) %ref.tmp215, float noundef %sub219)
  %coerce.dive221 = getelementptr inbounds %"struct.OpenColorIO_v2_4dev::(anonymous namespace)::float3", ptr %ref.tmp214, i32 0, i32 0
  store { <2 x float>, float } %call220, ptr %tmp.coerce222, align 8
  call void @llvm.memcpy.p0.p0.i64(ptr align 4 %coerce.dive221, ptr align 8 %tmp.coerce222, i64 12, i1 false)
  %251 = load ptr, ptr %m1, align 8
  %252 = load float, ptr %251, align 4
  %call223 = call { <2 x float>, float } @_ZN19OpenColorIO_v2_4dev12_GLOBAL__N_1plERKNS0_6float3Ef(ptr noundef nonnull align 4 dereferenceable(12) %ref.tmp214, float noundef %252)
  %coerce.dive224 = getelementptr inbounds %"struct.OpenColorIO_v2_4dev::(anonymous namespace)::float3", ptr %ref.tmp213, i32 0, i32 0
  store { <2 x float>, float } %call223, ptr %tmp.coerce225, align 8
  call void @llvm.memcpy.p0.p0.i64(ptr align 4 %coerce.dive224, ptr align 8 %tmp.coerce225, i64 12, i1 false)
  %call226 = call { <2 x float>, float } @_ZN19OpenColorIO_v2_4dev12_GLOBAL__N_1mlERKNS0_6float3ES3_(ptr noundef nonnull align 4 dereferenceable(12) %ref.tmp208, ptr noundef nonnull align 4 dereferenceable(12) %ref.tmp213)
  %coerce.dive227 = getelementptr inbounds %"struct.OpenColorIO_v2_4dev::(anonymous namespace)::float3", ptr %ref.tmp207, i32 0, i32 0
  store { <2 x float>, float } %call226, ptr %tmp.coerce228, align 8
  call void @llvm.memcpy.p0.p0.i64(ptr align 4 %coerce.dive227, ptr align 8 %tmp.coerce228, i64 12, i1 false)
  %253 = load ptr, ptr %y1, align 8
  %254 = load float, ptr %253, align 4
  %call229 = call { <2 x float>, float } @_ZN19OpenColorIO_v2_4dev12_GLOBAL__N_1plERKNS0_6float3Ef(ptr noundef nonnull align 4 dereferenceable(12) %ref.tmp207, float noundef %254)
  %coerce.dive230 = getelementptr inbounds %"struct.OpenColorIO_v2_4dev::(anonymous namespace)::float3", ptr %fM206, i32 0, i32 0
  store { <2 x float>, float } %call229, ptr %tmp.coerce231, align 8
  call void @llvm.memcpy.p0.p0.i64(ptr align 4 %coerce.dive230, ptr align 8 %tmp.coerce231, i64 12, i1 false)
  %255 = load ptr, ptr %x3, align 8
  %256 = load float, ptr %255, align 4
  %257 = load ptr, ptr %x2, align 8
  %258 = load float, ptr %257, align 4
  %sub235 = fsub float %256, %258
  %call236 = call { <2 x float>, float } @_ZN19OpenColorIO_v2_4dev12_GLOBAL__N_1mlERKNS0_6float3Ef(ptr noundef nonnull align 4 dereferenceable(12) %tR153, float noundef %sub235)
  %coerce.dive237 = getelementptr inbounds %"struct.OpenColorIO_v2_4dev::(anonymous namespace)::float3", ptr %ref.tmp234, i32 0, i32 0
  store { <2 x float>, float } %call236, ptr %tmp.coerce238, align 8
  call void @llvm.memcpy.p0.p0.i64(ptr align 4 %coerce.dive237, ptr align 8 %tmp.coerce238, i64 12, i1 false)
  %call242 = call { <2 x float>, float } @_ZN19OpenColorIO_v2_4dev12_GLOBAL__N_1mlERKNS0_6float3Ef(ptr noundef nonnull align 4 dereferenceable(12) %tR153, float noundef 5.000000e-01)
  %coerce.dive243 = getelementptr inbounds %"struct.OpenColorIO_v2_4dev::(anonymous namespace)::float3", ptr %ref.tmp241, i32 0, i32 0
  store { <2 x float>, float } %call242, ptr %tmp.coerce244, align 8
  call void @llvm.memcpy.p0.p0.i64(ptr align 4 %coerce.dive243, ptr align 8 %tmp.coerce244, i64 12, i1 false)
  %259 = load ptr, ptr %m3, align 8
  %260 = load float, ptr %259, align 4
  %261 = load ptr, ptr %m2, align 8
  %262 = load float, ptr %261, align 4
  %sub245 = fsub float %260, %262
  %call246 = call { <2 x float>, float } @_ZN19OpenColorIO_v2_4dev12_GLOBAL__N_1mlERKNS0_6float3Ef(ptr noundef nonnull align 4 dereferenceable(12) %ref.tmp241, float noundef %sub245)
  %coerce.dive247 = getelementptr inbounds %"struct.OpenColorIO_v2_4dev::(anonymous namespace)::float3", ptr %ref.tmp240, i32 0, i32 0
