; ModuleID = 'bench/velox/original/ArrayContains.cpp.ll'
source_filename = "bench/velox/original/ArrayContains.cpp.ll"
target datalayout = "e-m:e-p270:32:32-p271:32:32-p272:64:64-i64:64-i128:128-f80:128-n8:16:32:64-S128"
target triple = "x86_64-unknown-linux-gnu"

%"class.folly::BasicFixedString" = type { [5 x i8], i64 }
%struct._Guard = type { ptr }
%"class.std::shared_ptr" = type { %"class.std::__shared_ptr" }
%"class.std::__shared_ptr" = type { ptr, %"class.std::__shared_count" }
%"class.std::__shared_count" = type { ptr }
%"class.facebook::velox::exec::FunctionSignatureBuilder" = type <{ %"class.std::unordered_map", %"class.std::optional", %"class.std::vector.19", %"class.std::vector.35", i8, [7 x i8] }>
%"class.std::unordered_map" = type { %"class.std::_Hashtable" }
%"class.std::_Hashtable" = type { ptr, i64, %"struct.std::__detail::_Hash_node_base", i64, %"struct.std::__detail::_Prime_rehash_policy", ptr }
%"struct.std::__detail::_Hash_node_base" = type { ptr }
%"struct.std::__detail::_Prime_rehash_policy" = type { float, i64 }
%"class.std::optional" = type { %"struct.std::_Optional_base" }
%"struct.std::_Optional_base" = type { %"struct.std::_Optional_payload" }
%"struct.std::_Optional_payload" = type { %"struct.std::_Optional_payload.base.32", [7 x i8] }
%"struct.std::_Optional_payload.base.32" = type { %"struct.std::_Optional_payload_base.base.31" }
%"struct.std::_Optional_payload_base.base.31" = type <{ %"union.std::_Optional_payload_base<facebook::velox::exec::TypeSignature>::_Storage", i8 }>
%"union.std::_Optional_payload_base<facebook::velox::exec::TypeSignature>::_Storage" = type { %"class.facebook::velox::exec::TypeSignature" }
%"class.facebook::velox::exec::TypeSignature" = type { %"class.std::__cxx11::basic_string", %"class.std::vector.19", %"class.std::optional.24" }
%"class.std::__cxx11::basic_string" = type { %"struct.std::__cxx11::basic_string<char>::_Alloc_hider", i64, %union.anon }
%"struct.std::__cxx11::basic_string<char>::_Alloc_hider" = type { ptr }
%union.anon = type { i64, [8 x i8] }
%"class.std::optional.24" = type { %"struct.std::_Optional_base.25" }
%"struct.std::_Optional_base.25" = type { %"struct.std::_Optional_payload.27" }
%"struct.std::_Optional_payload.27" = type { %"struct.std::_Optional_payload.base", [7 x i8] }
%"struct.std::_Optional_payload.base" = type { %"struct.std::_Optional_payload_base.base" }
%"struct.std::_Optional_payload_base.base" = type <{ %"union.std::_Optional_payload_base<std::__cxx11::basic_string<char>>::_Storage", i8 }>
%"union.std::_Optional_payload_base<std::__cxx11::basic_string<char>>::_Storage" = type { %"class.std::__cxx11::basic_string" }
%"class.std::vector.19" = type { %"struct.std::_Vector_base.20" }
%"struct.std::_Vector_base.20" = type { %"struct.std::_Vector_base<facebook::velox::exec::TypeSignature, std::allocator<facebook::velox::exec::TypeSignature>>::_Vector_impl" }
%"struct.std::_Vector_base<facebook::velox::exec::TypeSignature, std::allocator<facebook::velox::exec::TypeSignature>>::_Vector_impl" = type { %"struct.std::_Vector_base<facebook::velox::exec::TypeSignature, std::allocator<facebook::velox::exec::TypeSignature>>::_Vector_impl_data" }
%"struct.std::_Vector_base<facebook::velox::exec::TypeSignature, std::allocator<facebook::velox::exec::TypeSignature>>::_Vector_impl_data" = type { ptr, ptr, ptr }
%"class.std::vector.35" = type { %"struct.std::_Bvector_base" }
%"struct.std::_Bvector_base" = type { %"struct.std::_Bvector_base<std::allocator<bool>>::_Bvector_impl" }
%"struct.std::_Bvector_base<std::allocator<bool>>::_Bvector_impl" = type { %"struct.std::_Bvector_base<std::allocator<bool>>::_Bvector_impl_data" }
%"struct.std::_Bvector_base<std::allocator<bool>>::_Bvector_impl_data" = type { %"struct.std::_Bit_iterator", %"struct.std::_Bit_iterator", ptr }
%"struct.std::_Bit_iterator" = type { %"struct.std::_Bit_iterator_base.base", [4 x i8] }
%"struct.std::_Bit_iterator_base.base" = type <{ ptr, i32 }>
%"class.std::allocator.2" = type { i8 }
%"class.std::vector" = type { %"struct.std::_Vector_base" }
%"struct.std::_Vector_base" = type { %"struct.std::_Vector_base<std::shared_ptr<facebook::velox::exec::FunctionSignature>, std::allocator<std::shared_ptr<facebook::velox::exec::FunctionSignature>>>::_Vector_impl" }
%"struct.std::_Vector_base<std::shared_ptr<facebook::velox::exec::FunctionSignature>, std::allocator<std::shared_ptr<facebook::velox::exec::FunctionSignature>>>::_Vector_impl" = type { %"struct.std::_Vector_base<std::shared_ptr<facebook::velox::exec::FunctionSignature>, std::allocator<std::shared_ptr<facebook::velox::exec::FunctionSignature>>>::_Vector_impl_data" }
%"struct.std::_Vector_base<std::shared_ptr<facebook::velox::exec::FunctionSignature>, std::allocator<std::shared_ptr<facebook::velox::exec::FunctionSignature>>>::_Vector_impl_data" = type { ptr, ptr, ptr }
%"class.std::unique_ptr" = type { %"struct.std::__uniq_ptr_data" }
%"struct.std::__uniq_ptr_data" = type { %"class.std::__uniq_ptr_impl" }
%"class.std::__uniq_ptr_impl" = type { %"class.std::tuple" }
%"class.std::tuple" = type { %"struct.std::_Tuple_impl" }
%"struct.std::_Tuple_impl" = type { %"struct.std::_Head_base.1" }
%"struct.std::_Head_base.1" = type { ptr }
%"class.std::_Sp_counted_base" = type { ptr, i32, i32 }
%"class.facebook::velox::exec::SignatureVariable" = type <{ %"class.std::__cxx11::basic_string", %"class.std::__cxx11::basic_string", i8, i8, i8, i8, [4 x i8] }>
%"struct.std::_Optional_payload_base.29" = type <{ %"union.std::_Optional_payload_base<std::__cxx11::basic_string<char>>::_Storage", i8, [7 x i8] }>
%"struct.std::_Hashtable<std::__cxx11::basic_string<char>, std::pair<const std::__cxx11::basic_string<char>, facebook::velox::exec::SignatureVariable>, std::allocator<std::pair<const std::__cxx11::basic_string<char>, facebook::velox::exec::SignatureVariable>>, std::__detail::_Select1st, std::equal_to<std::__cxx11::basic_string<char>>, std::hash<string>, std::__detail::_Mod_range_hashing, std::__detail::_Default_ranged_hash, std::__detail::_Prime_rehash_policy, std::__detail::_Hashtable_traits<true, false, true>>::_Scoped_node" = type { ptr, ptr }
%"struct.std::_Optional_payload_base" = type <{ %"union.std::_Optional_payload_base<facebook::velox::exec::TypeSignature>::_Storage", i8, [7 x i8] }>
%"class.std::shared_ptr.67" = type { %"class.std::__shared_ptr.68" }
%"class.std::__shared_ptr.68" = type { ptr, %"class.std::__shared_count" }
%"class.std::shared_ptr.95" = type { %"class.std::__shared_ptr.96" }
%"class.std::__shared_ptr.96" = type { ptr, %"class.std::__shared_count" }
%"class.facebook::velox::exec::LocalDecodedVector" = type { %"class.std::reference_wrapper", %"class.std::unique_ptr.98" }
%"class.std::reference_wrapper" = type { ptr }
%"class.std::unique_ptr.98" = type { %"struct.std::__uniq_ptr_data.99" }
%"struct.std::__uniq_ptr_data.99" = type { %"class.std::__uniq_ptr_impl.100" }
%"class.std::__uniq_ptr_impl.100" = type { %"class.std::tuple.101" }
%"class.std::tuple.101" = type { %"struct.std::_Tuple_impl.102" }
%"struct.std::_Tuple_impl.102" = type { %"struct.std::_Head_base.105" }
%"struct.std::_Head_base.105" = type { ptr }
%"class.std::shared_ptr.64" = type { %"class.std::__shared_ptr.65" }
%"class.std::__shared_ptr.65" = type { ptr, %"class.std::__shared_count" }
%"class.facebook::velox::exec::LocalSelectivityVector" = type { ptr, %"class.std::unique_ptr.119" }
%"class.std::unique_ptr.119" = type { %"struct.std::__uniq_ptr_data.120" }
%"struct.std::__uniq_ptr_data.120" = type { %"class.std::__uniq_ptr_impl.121" }
%"class.std::__uniq_ptr_impl.121" = type { %"class.std::tuple.122" }
%"class.std::tuple.122" = type { %"struct.std::_Tuple_impl.123" }
%"struct.std::_Tuple_impl.123" = type { %"struct.std::_Head_base.126" }
%"struct.std::_Head_base.126" = type { ptr }
%class.anon = type { ptr, ptr, ptr, ptr, ptr, ptr, ptr }
%"struct.std::_Vector_base<std::shared_ptr<facebook::velox::BaseVector>, std::allocator<std::shared_ptr<facebook::velox::BaseVector>>>::_Vector_impl_data" = type { ptr, ptr, ptr }
%"class.facebook::velox::BaseVector" = type <{ ptr, %"class.std::shared_ptr.67", i8, [3 x i8], i32, %"class.boost::intrusive_ptr", ptr, ptr, i32, %"class.std::optional.70", %"class.std::optional.70", %"class.std::optional.70", %"class.std::optional.70", i32, i8, i8, i8, [5 x i8] }>
%"class.boost::intrusive_ptr" = type { ptr }
%"class.std::optional.70" = type { %"struct.std::_Optional_base.71" }
%"struct.std::_Optional_base.71" = type { %"struct.std::_Optional_payload.73" }
%"struct.std::_Optional_payload.73" = type { %"struct.std::_Optional_payload_base.base.75", [3 x i8] }
%"struct.std::_Optional_payload_base.base.75" = type <{ %"union.std::_Optional_payload_base<int>::_Storage", i8 }>
%"union.std::_Optional_payload_base<int>::_Storage" = type { i32 }
%"class.facebook::velox::Type" = type <{ %"class.facebook::velox::Tree", %"class.facebook::velox::ISerializable", i8, [7 x i8] }>
%"class.facebook::velox::Tree" = type { ptr }
%"class.facebook::velox::ISerializable" = type { ptr }
%"class.facebook::velox::ArrayType" = type { %"class.facebook::velox::TypeBase.base", %"class.std::shared_ptr.67", %"class.std::vector.78" }
%"class.facebook::velox::TypeBase.base" = type { %"class.facebook::velox::Type.base" }
%"class.facebook::velox::Type.base" = type <{ %"class.facebook::velox::Tree", %"class.facebook::velox::ISerializable", i8 }>
%"class.std::vector.78" = type { %"struct.std::_Vector_base.79" }
%"struct.std::_Vector_base.79" = type { %"struct.std::_Vector_base<facebook::velox::TypeParameter, std::allocator<facebook::velox::TypeParameter>>::_Vector_impl" }
%"struct.std::_Vector_base<facebook::velox::TypeParameter, std::allocator<facebook::velox::TypeParameter>>::_Vector_impl" = type { %"struct.std::_Vector_base<facebook::velox::TypeParameter, std::allocator<facebook::velox::TypeParameter>>::_Vector_impl_data" }
%"struct.std::_Vector_base<facebook::velox::TypeParameter, std::allocator<facebook::velox::TypeParameter>>::_Vector_impl_data" = type { ptr, ptr, ptr }
%"class.facebook::velox::core::ExecCtx" = type { ptr, ptr, i8, %"class.std::vector.127", %"class.std::vector.132", %"class.std::unique_ptr.137" }
%"class.std::vector.127" = type { %"struct.std::_Vector_base.128" }
%"struct.std::_Vector_base.128" = type { %"struct.std::_Vector_base<std::unique_ptr<facebook::velox::DecodedVector>, std::allocator<std::unique_ptr<facebook::velox::DecodedVector>>>::_Vector_impl" }
%"struct.std::_Vector_base<std::unique_ptr<facebook::velox::DecodedVector>, std::allocator<std::unique_ptr<facebook::velox::DecodedVector>>>::_Vector_impl" = type { %"struct.std::_Vector_base<std::unique_ptr<facebook::velox::DecodedVector>, std::allocator<std::unique_ptr<facebook::velox::DecodedVector>>>::_Vector_impl_data" }
%"struct.std::_Vector_base<std::unique_ptr<facebook::velox::DecodedVector>, std::allocator<std::unique_ptr<facebook::velox::DecodedVector>>>::_Vector_impl_data" = type { ptr, ptr, ptr }
%"class.std::vector.132" = type { %"struct.std::_Vector_base.133" }
%"struct.std::_Vector_base.133" = type { %"struct.std::_Vector_base<std::unique_ptr<facebook::velox::SelectivityVector>, std::allocator<std::unique_ptr<facebook::velox::SelectivityVector>>>::_Vector_impl" }
%"struct.std::_Vector_base<std::unique_ptr<facebook::velox::SelectivityVector>, std::allocator<std::unique_ptr<facebook::velox::SelectivityVector>>>::_Vector_impl" = type { %"struct.std::_Vector_base<std::unique_ptr<facebook::velox::SelectivityVector>, std::allocator<std::unique_ptr<facebook::velox::SelectivityVector>>>::_Vector_impl_data" }
%"struct.std::_Vector_base<std::unique_ptr<facebook::velox::SelectivityVector>, std::allocator<std::unique_ptr<facebook::velox::SelectivityVector>>>::_Vector_impl_data" = type { ptr, ptr, ptr }
%"class.std::unique_ptr.137" = type { %"struct.std::__uniq_ptr_data.138" }
%"struct.std::__uniq_ptr_data.138" = type { %"class.std::__uniq_ptr_impl.139" }
%"class.std::__uniq_ptr_impl.139" = type { %"class.std::tuple.140" }
%"class.std::tuple.140" = type { %"struct.std::_Tuple_impl.141" }
%"struct.std::_Tuple_impl.141" = type { %"struct.std::_Head_base.144" }
%"struct.std::_Head_base.144" = type { ptr }
%"class.facebook::velox::DecodedVector" = type { i32, ptr, ptr, ptr, %"class.std::optional.106", ptr, i8, i8, i8, i8, i8, i32, %"class.std::vector.114", %"class.std::vector.47" }
%"class.std::optional.106" = type { %"struct.std::_Optional_base.107" }
%"struct.std::_Optional_base.107" = type { %"struct.std::_Optional_payload.109" }
%"struct.std::_Optional_payload.109" = type { %"struct.std::_Optional_payload_base.base.111", [7 x i8] }
%"struct.std::_Optional_payload_base.base.111" = type <{ %"union.std::_Optional_payload_base<const unsigned long *>::_Storage", i8 }>
%"union.std::_Optional_payload_base<const unsigned long *>::_Storage" = type { ptr }
%"class.std::vector.114" = type { %"struct.std::_Vector_base.115" }
%"struct.std::_Vector_base.115" = type { %"struct.std::_Vector_base<int, std::allocator<int>>::_Vector_impl" }
%"struct.std::_Vector_base<int, std::allocator<int>>::_Vector_impl" = type { %"struct.std::_Vector_base<int, std::allocator<int>>::_Vector_impl_data" }
%"struct.std::_Vector_base<int, std::allocator<int>>::_Vector_impl_data" = type { ptr, ptr, ptr }
%"class.std::vector.47" = type { %"struct.std::_Vector_base.48" }
%"struct.std::_Vector_base.48" = type { %"struct.std::_Vector_base<unsigned long, std::allocator<unsigned long>>::_Vector_impl" }
%"struct.std::_Vector_base<unsigned long, std::allocator<unsigned long>>::_Vector_impl" = type { %"struct.std::_Vector_base<unsigned long, std::allocator<unsigned long>>::_Vector_impl_data" }
%"struct.std::_Vector_base<unsigned long, std::allocator<unsigned long>>::_Vector_impl_data" = type { ptr, ptr, ptr }
%"class.facebook::velox::ArrayVector" = type { %"struct.facebook::velox::ArrayVectorBase", %"class.std::shared_ptr.64" }
%"struct.facebook::velox::ArrayVectorBase" = type { %"class.facebook::velox::BaseVector.base", %"class.boost::intrusive_ptr", ptr, %"class.boost::intrusive_ptr", ptr }
%"class.facebook::velox::BaseVector.base" = type <{ ptr, %"class.std::shared_ptr.67", i8, [3 x i8], i32, %"class.boost::intrusive_ptr", ptr, ptr, i32, %"class.std::optional.70", %"class.std::optional.70", %"class.std::optional.70", %"class.std::optional.70", i32, i8, i8, i8 }>
%"class.facebook::velox::SelectivityVector" = type <{ %"class.std::vector.47", i32, i32, i32, %"class.std::optional.89", [2 x i8] }>
%"class.std::optional.89" = type { %"struct.std::_Optional_base.90" }
%"struct.std::_Optional_base.90" = type { %"struct.std::_Optional_payload.92" }
%"struct.std::_Optional_payload.92" = type { %"struct.std::_Optional_payload_base.93" }
%"struct.std::_Optional_payload_base.93" = type { %"union.std::_Optional_payload_base<bool>::_Storage", i8 }
%"union.std::_Optional_payload_base<bool>::_Storage" = type { %"struct.std::_Optional_payload_base<bool>::_Empty_byte" }
%"struct.std::_Optional_payload_base<bool>::_Empty_byte" = type { i8 }
%"class.std::optional.49" = type { %"struct.std::_Optional_base.50" }
%"struct.std::_Optional_base.50" = type { %"struct.std::_Optional_payload.52" }
%"struct.std::_Optional_payload.52" = type { %"struct.std::_Optional_payload.base.56", [7 x i8] }
%"struct.std::_Optional_payload.base.56" = type { %"struct.std::_Optional_payload_base.base.55" }
%"struct.std::_Optional_payload_base.base.55" = type <{ %"union.std::_Optional_payload_base<std::vector<unsigned long>>::_Storage", i8 }>
%"union.std::_Optional_payload_base<std::vector<unsigned long>>::_Storage" = type { %"class.std::vector.47" }
%"struct.std::_Optional_payload_base.54" = type <{ %"union.std::_Optional_payload_base<std::vector<unsigned long>>::_Storage", i8, [7 x i8] }>
%class.anon.243 = type { i8, ptr, %class.anon.239 }
%class.anon.239 = type { ptr, ptr, ptr, ptr, ptr, ptr }
%class.anon.242 = type { i8, ptr, %class.anon.239 }
%class.anon.237 = type { i8, ptr, %class.anon.233 }
%class.anon.233 = type { ptr, ptr, ptr, ptr, ptr, ptr }
%class.anon.236 = type { i8, ptr, %class.anon.233 }
%class.anon.231 = type { i8, ptr, %class.anon.227 }
%class.anon.227 = type { ptr, ptr, ptr, ptr, ptr, ptr }
%class.anon.230 = type { i8, ptr, %class.anon.227 }
%class.anon.224 = type { i8, ptr, %class.anon.220 }
%class.anon.220 = type { ptr, ptr, ptr, ptr, ptr, ptr }
%class.anon.223 = type { i8, ptr, %class.anon.220 }
%class.anon.218 = type { i8, ptr, %class.anon.214 }
%class.anon.214 = type { ptr, ptr, ptr, ptr, ptr, ptr }
%class.anon.217 = type { i8, ptr, %class.anon.214 }
%class.anon.212 = type { i8, ptr, %class.anon.208 }
%class.anon.208 = type { ptr, ptr, ptr, ptr, ptr, ptr }
%class.anon.211 = type { i8, ptr, %class.anon.208 }
%class.anon.206 = type { i8, ptr, %class.anon.202 }
%class.anon.202 = type { ptr, ptr, ptr, ptr, ptr, ptr }
%class.anon.205 = type { i8, ptr, %class.anon.202 }
%class.anon.200 = type { i8, ptr, %class.anon.196 }
%class.anon.196 = type { ptr, ptr, ptr, ptr, ptr, ptr }
%class.anon.199 = type { i8, ptr, %class.anon.196 }
%class.anon.194 = type { i8, ptr, %class.anon.190 }
%class.anon.190 = type { ptr, ptr, ptr, ptr, ptr, ptr }
%class.anon.193 = type { i8, ptr, %class.anon.190 }
%class.anon.188 = type { i8, ptr, %class.anon.184 }
%class.anon.184 = type { ptr, ptr, ptr, ptr, ptr, ptr }
%class.anon.187 = type { i8, ptr, %class.anon.184 }
%class.anon.182 = type { i8, ptr, %class.anon.178 }
%class.anon.178 = type { ptr, ptr, ptr, ptr, ptr, ptr }
%class.anon.181 = type { i8, ptr, %class.anon.178 }
%"class.facebook::velox::Buffer" = type { ptr, ptr, ptr, i64, i64, %"struct.std::atomic", i8, [2 x i64] }
%"struct.std::atomic" = type { %"struct.std::__atomic_base" }
%"struct.std::__atomic_base" = type { i32 }
%"struct.facebook::velox::StringView" = type { i32, [4 x i8], %union.anon.225 }
%union.anon.225 = type { ptr }
%"struct.facebook::velox::Timestamp" = type { i64, i64 }
%class.anon.160 = type <{ ptr, ptr, i8, [7 x i8] }>
%class.anon.162 = type <{ ptr, ptr, i8, [7 x i8] }>
%"class.std::__exception_ptr::exception_ptr" = type { ptr }
%class.anon.261 = type { i8, ptr, %class.anon.245 }
%class.anon.245 = type { ptr, ptr }
%class.anon.244 = type { ptr, ptr, ptr, ptr, ptr, ptr, ptr, ptr, ptr }
%"class.facebook::velox::VeloxException" = type { %"class.std::exception", %"class.std::shared_ptr.246" }
%"class.std::exception" = type { ptr }
%"class.std::shared_ptr.246" = type { %"class.std::__shared_ptr.247" }
%"class.std::__shared_ptr.247" = type { ptr, %"class.std::__shared_count" }
%"struct.facebook::velox::VeloxException::State" = type { %"class.std::unique_ptr.249", i32, %"class.std::__cxx11::basic_string", ptr, i64, ptr, %"class.std::__cxx11::basic_string", %"class.std::__cxx11::basic_string", %"class.std::__cxx11::basic_string", %"class.std::__cxx11::basic_string", %"class.std::__cxx11::basic_string", %"class.std::__cxx11::basic_string", i8, %"class.std::__exception_ptr::exception_ptr", %"class.folly::basic_once_flag", %"class.std::__cxx11::basic_string" }
%"class.std::unique_ptr.249" = type { %"struct.std::__uniq_ptr_data.250" }
%"struct.std::__uniq_ptr_data.250" = type { %"class.std::__uniq_ptr_impl.251" }
%"class.std::__uniq_ptr_impl.251" = type { %"class.std::tuple.252" }
%"class.std::tuple.252" = type { %"struct.std::_Tuple_impl.253" }
%"struct.std::_Tuple_impl.253" = type { %"struct.std::_Head_base.256" }
%"struct.std::_Head_base.256" = type { ptr }
%"class.folly::basic_once_flag" = type { %"struct.std::atomic.257", %"class.folly::SharedMutexImpl" }
%"struct.std::atomic.257" = type { %"struct.std::__atomic_base.258" }
%"struct.std::__atomic_base.258" = type { i8 }
%"class.folly::SharedMutexImpl" = type { %"struct.std::atomic.259" }
%"struct.std::atomic.259" = type { %"struct.std::__atomic_base.260" }
%"struct.std::__atomic_base.260" = type { i32 }

$_ZNSt6vectorISt10shared_ptrIN8facebook5velox4exec17FunctionSignatureEESaIS5_EED2Ev = comdat any

$_ZN8facebook5velox4exec24FunctionSignatureBuilder12typeVariableERKNSt7__cxx1112basic_stringIcSt11char_traitsIcESaIcEEE = comdat any

$_ZN8facebook5velox4exec24FunctionSignatureBuilder10returnTypeERKNSt7__cxx1112basic_stringIcSt11char_traitsIcESaIcEEE = comdat any

$_ZN8facebook5velox4exec24FunctionSignatureBuilder12argumentTypeERKNSt7__cxx1112basic_stringIcSt11char_traitsIcESaIcEEE = comdat any

$_ZNSt10shared_ptrIN8facebook5velox4exec17FunctionSignatureEED2Ev = comdat any

$_ZN8facebook5velox4exec24FunctionSignatureBuilderD2Ev = comdat any

$__clang_call_terminate = comdat any

$_ZNKSt10_HashtableINSt7__cxx1112basic_stringIcSt11char_traitsIcESaIcEEESt4pairIKS5_N8facebook5velox4exec17SignatureVariableEESaISC_ENSt8__detail10_Select1stESt8equal_toIS5_ESt4hashIS5_ENSE_18_Mod_range_hashingENSE_20_Default_ranged_hashENSE_20_Prime_rehash_policyENSE_17_Hashtable_traitsILb1ELb0ELb1EEEE4findERS7_ = comdat any

$_ZNKSt10_HashtableINSt7__cxx1112basic_stringIcSt11char_traitsIcESaIcEEESt4pairIKS5_N8facebook5velox4exec17SignatureVariableEESaISC_ENSt8__detail10_Select1stESt8equal_toIS5_ESt4hashIS5_ENSE_18_Mod_range_hashingENSE_20_Default_ranged_hashENSE_20_Prime_rehash_policyENSE_17_Hashtable_traitsILb1ELb0ELb1EEEE19_M_find_before_nodeEmRS7_m = comdat any

$_ZNSt10_HashtableINSt7__cxx1112basic_stringIcSt11char_traitsIcESaIcEEESt4pairIKS5_N8facebook5velox4exec17SignatureVariableEESaISC_ENSt8__detail10_Select1stESt8equal_toIS5_ESt4hashIS5_ENSE_18_Mod_range_hashingENSE_20_Default_ranged_hashENSE_20_Prime_rehash_policyENSE_17_Hashtable_traitsILb1ELb0ELb1EEEE10_M_emplaceIJRS7_RKSB_EEES6_INSE_14_Node_iteratorISC_Lb0ELb1EEEbESt17integral_constantIbLb1EEDpOT_ = comdat any

$_ZNSt10_HashtableINSt7__cxx1112basic_stringIcSt11char_traitsIcESaIcEEESt4pairIKS5_N8facebook5velox4exec17SignatureVariableEESaISC_ENSt8__detail10_Select1stESt8equal_toIS5_ESt4hashIS5_ENSE_18_Mod_range_hashingENSE_20_Default_ranged_hashENSE_20_Prime_rehash_policyENSE_17_Hashtable_traitsILb1ELb0ELb1EEEE21_M_insert_unique_nodeEmmPNSE_10_Hash_nodeISC_Lb1EEEm = comdat any

$_ZNSt10_HashtableINSt7__cxx1112basic_stringIcSt11char_traitsIcESaIcEEESt4pairIKS5_N8facebook5velox4exec17SignatureVariableEESaISC_ENSt8__detail10_Select1stESt8equal_toIS5_ESt4hashIS5_ENSE_18_Mod_range_hashingENSE_20_Default_ranged_hashENSE_20_Prime_rehash_policyENSE_17_Hashtable_traitsILb1ELb0ELb1EEEE12_Scoped_nodeD2Ev = comdat any

$_ZNSt8__detail16_Hashtable_allocISaINS_10_Hash_nodeISt4pairIKNSt7__cxx1112basic_stringIcSt11char_traitsIcESaIcEEEN8facebook5velox4exec17SignatureVariableEELb1EEEEE16_M_allocate_nodeIJRS9_RKSD_EEEPSF_DpOT_ = comdat any

$_ZNSt10_HashtableINSt7__cxx1112basic_stringIcSt11char_traitsIcESaIcEEESt4pairIKS5_N8facebook5velox4exec17SignatureVariableEESaISC_ENSt8__detail10_Select1stESt8equal_toIS5_ESt4hashIS5_ENSE_18_Mod_range_hashingENSE_20_Default_ranged_hashENSE_20_Prime_rehash_policyENSE_17_Hashtable_traitsILb1ELb0ELb1EEEE13_M_rehash_auxEmSt17integral_constantIbLb1EE = comdat any

$_ZNSt22_Optional_payload_baseINSt7__cxx1112basic_stringIcSt11char_traitsIcESaIcEEEE8_StorageIS5_Lb0EEC2IJRA1_KcEEESt10in_place_tDpOT_ = comdat any

$_ZNSt7__cxx1112basic_stringIcSt11char_traitsIcESaIcEE12_M_constructIPKcEEvT_S8_St20forward_iterator_tag = comdat any

$_ZZNSt7__cxx1112basic_stringIcSt11char_traitsIcESaIcEE12_M_constructIPKcEEvT_S8_St20forward_iterator_tagEN6_GuardD2Ev = comdat any

$_ZNSt8optionalIN8facebook5velox4exec13TypeSignatureEE7emplaceIJS3_EEENSt9enable_ifIX18is_constructible_vIS3_DpT_EERS3_E4typeEDpOS7_ = comdat any

$_ZN8facebook5velox4exec13TypeSignatureD2Ev = comdat any

$_ZN8facebook5velox4exec13TypeSignatureC2EOS2_ = comdat any

$_ZSt16__do_uninit_copyIN9__gnu_cxx17__normal_iteratorIPKN8facebook5velox4exec13TypeSignatureESt6vectorIS5_SaIS5_EEEEPS5_ET0_T_SE_SD_ = comdat any

$_ZN8facebook5velox4exec13TypeSignatureC2ERKS2_ = comdat any

$_ZNSt6vectorIN8facebook5velox4exec13TypeSignatureESaIS3_EED2Ev = comdat any

$_ZNSt12_Destroy_auxILb0EE9__destroyIPN8facebook5velox4exec13TypeSignatureEEEvT_S7_ = comdat any

$_ZNSt6vectorIN8facebook5velox4exec13TypeSignatureESaIS3_EE17_M_realloc_insertIJS3_EEEvN9__gnu_cxx17__normal_iteratorIPS3_S5_EEDpOT_ = comdat any

$_ZNSt16allocator_traitsISaIN8facebook5velox4exec13TypeSignatureEEE7destroyIS3_EEvRS4_PT_ = comdat any

$_ZNSt6vectorIbSaIbEE13_M_insert_auxESt13_Bit_iteratorb = comdat any

$_ZNK8facebook5velox4exec14VectorFunction15isDeterministicEv = comdat any

$_ZNK8facebook5velox4exec14VectorFunction21isDefaultNullBehaviorEv = comdat any

$_ZNK8facebook5velox4exec14VectorFunction27supportsFlatNoNullsFastPathEv = comdat any

$_ZNK8facebook5velox4exec14VectorFunction25ensureStringEncodingSetAtEv = comdat any

$_ZNK8facebook5velox4exec14VectorFunction34ensureStringEncodingSetAtAllInputsEv = comdat any

$_ZNK8facebook5velox4exec14VectorFunction36propagateStringEncodingFromAllInputsEv = comdat any

$_ZNK8facebook5velox4exec14VectorFunction27propagateStringEncodingFromEv = comdat any

$_ZNSt10shared_ptrIKN8facebook5velox4TypeEED2Ev = comdat any

$_ZNSt10shared_ptrIKN8facebook5velox10ScalarTypeILNS1_8TypeKindE0EEEED2Ev = comdat any

$_ZN8facebook5velox4exec18LocalDecodedVector3getEv = comdat any

$_ZN8facebook5velox4exec18LocalDecodedVectorD2Ev = comdat any

$_ZN8facebook5velox4exec22LocalSelectivityVectorD2Ev = comdat any

$_ZNSt10shared_ptrIN8facebook5velox10BaseVectorEED2Ev = comdat any

$_ZNSt10unique_ptrIN8facebook5velox13DecodedVectorESt14default_deleteIS2_EED2Ev = comdat any

$_ZN8facebook5velox4core7ExecCtx20getSelectivityVectorEi = comdat any

$_ZN8facebook5velox17SelectivityVector6resizeEib = comdat any

$_ZNSt10unique_ptrIN8facebook5velox17SelectivityVectorESt14default_deleteIS2_EED2Ev = comdat any

$_ZNSt6vectorImSaImEE14_M_fill_insertEN9__gnu_cxx17__normal_iteratorIPmS1_EEmRKm = comdat any

$_ZN8facebook5velox4bits16testWordsReverseIZNS1_11findLastBitEPKmiibEUlimE_ZNS1_11findLastBitES4_iibEUliE_EEbiiT_T0_ = comdat any

$_ZNK8facebook5velox14VeloxException11isUserErrorEv = comdat any

$_ZNSt6vectorISt10unique_ptrIN8facebook5velox13DecodedVectorESt14default_deleteIS3_EESaIS6_EE17_M_realloc_insertIJS6_EEEvN9__gnu_cxx17__normal_iteratorIPS6_S8_EEDpOT_ = comdat any

$_ZNSt6vectorISt10unique_ptrIN8facebook5velox17SelectivityVectorESt14default_deleteIS3_EESaIS6_EE17_M_realloc_insertIJS6_EEEvN9__gnu_cxx17__normal_iteratorIPS6_S8_EEDpOT_ = comdat any

$_ZTSN8facebook5velox4exec14VectorFunctionE = comdat any

$_ZTIN8facebook5velox4exec14VectorFunctionE = comdat any

$_ZTSN8facebook5velox4TypeE = comdat any

$_ZTSN8facebook5velox4TreeIKSt10shared_ptrIKNS0_4TypeEEEE = comdat any

$_ZTIN8facebook5velox4TreeIKSt10shared_ptrIKNS0_4TypeEEEE = comdat any

$_ZTSN8facebook5velox13ISerializableE = comdat any

$_ZTIN8facebook5velox13ISerializableE = comdat any

$_ZTIN8facebook5velox4TypeE = comdat any

$_ZTSN8facebook5velox10FlatVectorIbEE = comdat any

$_ZTSN8facebook5velox12SimpleVectorIbEE = comdat any

$_ZTIN8facebook5velox12SimpleVectorIbEE = comdat any

$_ZTIN8facebook5velox10FlatVectorIbEE = comdat any

$_ZTSN8facebook5velox14VeloxExceptionE = comdat any

$_ZTIN8facebook5velox14VeloxExceptionE = comdat any

$_ZN8facebook5velox12error_source16kErrorSourceUserE = comdat any

@.str = private unnamed_addr constant [2 x i8] c"T\00", align 1
@.str.1 = private unnamed_addr constant [8 x i8] c"boolean\00", align 1
@.str.2 = private unnamed_addr constant [9 x i8] c"array(T)\00", align 1
@.str.3 = private unnamed_addr constant [1 x i8] zeroinitializer, align 1
@.str.5 = private unnamed_addr constant [26 x i8] c"vector::_M_realloc_insert\00", align 1
@.str.6 = private unnamed_addr constant [28 x i8] c"vector<bool>::_M_insert_aux\00", align 1
@__libc_single_threaded = external local_unnamed_addr global i8, align 1
@_ZTVN8facebook5velox9functions12_GLOBAL__N_121ArrayContainsFunctionE = internal unnamed_addr constant { [12 x ptr] } { [12 x ptr] [ptr null, ptr @_ZTIN8facebook5velox9functions12_GLOBAL__N_121ArrayContainsFunctionE, ptr @_ZN8facebook5velox9functions12_GLOBAL__N_121ArrayContainsFunctionD2Ev, ptr @_ZN8facebook5velox9functions12_GLOBAL__N_121ArrayContainsFunctionD0Ev, ptr @_ZNK8facebook5velox9functions12_GLOBAL__N_121ArrayContainsFunction5applyERKNS0_17SelectivityVectorERSt6vectorISt10shared_ptrINS0_10BaseVectorEESaISA_EERKS8_IKNS0_4TypeEERNS0_4exec7EvalCtxERSA_, ptr @_ZNK8facebook5velox4exec14VectorFunction15isDeterministicEv, ptr @_ZNK8facebook5velox4exec14VectorFunction21isDefaultNullBehaviorEv, ptr @_ZNK8facebook5velox4exec14VectorFunction27supportsFlatNoNullsFastPathEv, ptr @_ZNK8facebook5velox4exec14VectorFunction25ensureStringEncodingSetAtEv, ptr @_ZNK8facebook5velox4exec14VectorFunction34ensureStringEncodingSetAtAllInputsEv, ptr @_ZNK8facebook5velox4exec14VectorFunction36propagateStringEncodingFromAllInputsEv, ptr @_ZNK8facebook5velox4exec14VectorFunction27propagateStringEncodingFromEv] }, align 8
@_ZTVN10__cxxabiv120__si_class_type_infoE = external global [0 x ptr]
@_ZTSN8facebook5velox9functions12_GLOBAL__N_121ArrayContainsFunctionE = internal constant [65 x i8] c"N8facebook5velox9functions12_GLOBAL__N_121ArrayContainsFunctionE\00", align 1
@_ZTVN10__cxxabiv117__class_type_infoE = external global [0 x ptr]
@_ZTSN8facebook5velox4exec14VectorFunctionE = linkonce_odr constant [39 x i8] c"N8facebook5velox4exec14VectorFunctionE\00", comdat, align 1
@_ZTIN8facebook5velox4exec14VectorFunctionE = linkonce_odr constant { ptr, ptr } { ptr getelementptr inbounds (ptr, ptr @_ZTVN10__cxxabiv117__class_type_infoE, i64 2), ptr @_ZTSN8facebook5velox4exec14VectorFunctionE }, comdat, align 8
@_ZTIN8facebook5velox9functions12_GLOBAL__N_121ArrayContainsFunctionE = internal constant { ptr, ptr, ptr } { ptr getelementptr inbounds (ptr, ptr @_ZTVN10__cxxabiv120__si_class_type_infoE, i64 2), ptr @_ZTSN8facebook5velox9functions12_GLOBAL__N_121ArrayContainsFunctionE, ptr @_ZTIN8facebook5velox4exec14VectorFunctionE }, align 8
@_ZTVN10__cxxabiv121__vmi_class_type_infoE = external global [0 x ptr]
@_ZTSN8facebook5velox4TypeE = linkonce_odr constant [23 x i8] c"N8facebook5velox4TypeE\00", comdat, align 1
@_ZTSN8facebook5velox4TreeIKSt10shared_ptrIKNS0_4TypeEEEE = linkonce_odr constant [53 x i8] c"N8facebook5velox4TreeIKSt10shared_ptrIKNS0_4TypeEEEE\00", comdat, align 1
@_ZTIN8facebook5velox4TreeIKSt10shared_ptrIKNS0_4TypeEEEE = linkonce_odr constant { ptr, ptr } { ptr getelementptr inbounds (ptr, ptr @_ZTVN10__cxxabiv117__class_type_infoE, i64 2), ptr @_ZTSN8facebook5velox4TreeIKSt10shared_ptrIKNS0_4TypeEEEE }, comdat, align 8
@_ZTSN8facebook5velox13ISerializableE = linkonce_odr constant [33 x i8] c"N8facebook5velox13ISerializableE\00", comdat, align 1
@_ZTIN8facebook5velox13ISerializableE = linkonce_odr constant { ptr, ptr } { ptr getelementptr inbounds (ptr, ptr @_ZTVN10__cxxabiv117__class_type_infoE, i64 2), ptr @_ZTSN8facebook5velox13ISerializableE }, comdat, align 8
@_ZTIN8facebook5velox4TypeE = linkonce_odr constant { ptr, ptr, i32, i32, ptr, i64, ptr, i64 } { ptr getelementptr inbounds (ptr, ptr @_ZTVN10__cxxabiv121__vmi_class_type_infoE, i64 2), ptr @_ZTSN8facebook5velox4TypeE, i32 0, i32 2, ptr @_ZTIN8facebook5velox4TreeIKSt10shared_ptrIKNS0_4TypeEEEE, i64 2, ptr @_ZTIN8facebook5velox13ISerializableE, i64 2050 }, comdat, align 8
@_ZTIN8facebook5velox9ArrayTypeE = external constant ptr
@_ZTIN8facebook5velox10BaseVectorE = external constant ptr
@_ZTSN8facebook5velox10FlatVectorIbEE = linkonce_odr constant [33 x i8] c"N8facebook5velox10FlatVectorIbEE\00", comdat, align 1
@_ZTSN8facebook5velox12SimpleVectorIbEE = linkonce_odr constant [35 x i8] c"N8facebook5velox12SimpleVectorIbEE\00", comdat, align 1
@_ZTIN8facebook5velox12SimpleVectorIbEE = linkonce_odr constant { ptr, ptr, ptr } { ptr getelementptr inbounds (ptr, ptr @_ZTVN10__cxxabiv120__si_class_type_infoE, i64 2), ptr @_ZTSN8facebook5velox12SimpleVectorIbEE, ptr @_ZTIN8facebook5velox10BaseVectorE }, comdat, align 8
@_ZTIN8facebook5velox10FlatVectorIbEE = linkonce_odr constant { ptr, ptr, ptr } { ptr getelementptr inbounds (ptr, ptr @_ZTVN10__cxxabiv120__si_class_type_infoE, i64 2), ptr @_ZTSN8facebook5velox10FlatVectorIbEE, ptr @_ZTIN8facebook5velox12SimpleVectorIbEE }, comdat, align 8
@_ZTIN8facebook5velox11ArrayVectorE = external constant ptr
@.str.8 = private unnamed_addr constant [23 x i8] c"vector::_M_fill_insert\00", align 1
@_ZTISt9exception = external constant ptr
@_ZN8facebook5velox4bitsL13kZeroBitmasksE = internal unnamed_addr constant [8 x i8] c"\FE\FD\FB\F7\EF\DF\BF\7F", align 1
@_ZTSN8facebook5velox14VeloxExceptionE = linkonce_odr constant [34 x i8] c"N8facebook5velox14VeloxExceptionE\00", comdat, align 1
@_ZTIN8facebook5velox14VeloxExceptionE = linkonce_odr constant { ptr, ptr, ptr } { ptr getelementptr inbounds (ptr, ptr @_ZTVN10__cxxabiv120__si_class_type_infoE, i64 2), ptr @_ZTSN8facebook5velox14VeloxExceptionE, ptr @_ZTISt9exception }, comdat, align 8
@_ZN8facebook5velox12error_source16kErrorSourceUserE = linkonce_odr local_unnamed_addr constant %"class.folly::BasicFixedString" { [5 x i8] c"USER\00", i64 4 }, comdat, align 8

; Function Attrs: mustprogress uwtable
define void @_ZN8facebook5velox9functions41registerVectorFunction_udf_array_containsERKNSt7__cxx1112basic_stringIcSt11char_traitsIcESaIcEEE(ptr noundef nonnull align 8 dereferenceable(32) %name) local_unnamed_addr #0 personality ptr @__gxx_personality_v0 {
entry:
  %__guard.i44 = alloca %struct._Guard, align 8
  %__guard.i34 = alloca %struct._Guard, align 8
  %__guard.i24 = alloca %struct._Guard, align 8
  %__guard.i = alloca %struct._Guard, align 8
  %ref.tmp.i = alloca [1 x %"class.std::shared_ptr"], align 16
  %ref.tmp1.i = alloca %"class.facebook::velox::exec::FunctionSignatureBuilder", align 8
  %ref.tmp2.i = alloca %"class.std::__cxx11::basic_string", align 8
  %ref.tmp3.i = alloca %"class.std::allocator.2", align 1
  %ref.tmp6.i = alloca %"class.std::__cxx11::basic_string", align 8
  %ref.tmp7.i = alloca %"class.std::allocator.2", align 1
  %ref.tmp13.i = alloca %"class.std::__cxx11::basic_string", align 8
  %ref.tmp14.i = alloca %"class.std::allocator.2", align 1
  %ref.tmp20.i = alloca %"class.std::__cxx11::basic_string", align 8
  %ref.tmp21.i = alloca %"class.std::allocator.2", align 1
  %agg.tmp = alloca %"class.std::vector", align 8
  %agg.tmp1 = alloca %"class.std::unique_ptr", align 8
  tail call void @llvm.experimental.noalias.scope.decl(metadata !4)
  call void @llvm.lifetime.start.p0(i64 16, ptr nonnull %ref.tmp.i)
  call void @llvm.lifetime.start.p0(i64 232, ptr nonnull %ref.tmp1.i)
  call void @llvm.lifetime.start.p0(i64 32, ptr nonnull %ref.tmp2.i)
  call void @llvm.lifetime.start.p0(i64 1, ptr nonnull %ref.tmp3.i)
  call void @llvm.lifetime.start.p0(i64 32, ptr nonnull %ref.tmp6.i)
  call void @llvm.lifetime.start.p0(i64 1, ptr nonnull %ref.tmp7.i)
  call void @llvm.lifetime.start.p0(i64 32, ptr nonnull %ref.tmp13.i)
  call void @llvm.lifetime.start.p0(i64 1, ptr nonnull %ref.tmp14.i)
  call void @llvm.lifetime.start.p0(i64 32, ptr nonnull %ref.tmp20.i)
  call void @llvm.lifetime.start.p0(i64 1, ptr nonnull %ref.tmp21.i)
  %0 = getelementptr inbounds i8, ptr %ref.tmp1.i, i64 32
  call void @llvm.memset.p0.i64(ptr noundef nonnull align 8 dereferenceable(232) %0, i8 0, i64 200, i1 false), !noalias !4
  %_M_single_bucket.i.i.i.i = getelementptr inbounds %"class.std::_Hashtable", ptr %ref.tmp1.i, i64 0, i32 5
  store ptr %_M_single_bucket.i.i.i.i, ptr %ref.tmp1.i, align 8, !noalias !4
  %_M_bucket_count.i.i.i.i = getelementptr inbounds %"class.std::_Hashtable", ptr %ref.tmp1.i, i64 0, i32 1
  store i64 1, ptr %_M_bucket_count.i.i.i.i, align 8, !noalias !4
  %_M_before_begin.i.i.i.i = getelementptr inbounds %"class.std::_Hashtable", ptr %ref.tmp1.i, i64 0, i32 2
  call void @llvm.memset.p0.i64(ptr noundef nonnull align 8 dereferenceable(16) %_M_before_begin.i.i.i.i, i8 0, i64 16, i1 false), !noalias !4
  store float 1.000000e+00, ptr %0, align 8, !noalias !4
  %_M_next_resize.i.i.i.i.i = getelementptr inbounds %"class.std::_Hashtable", ptr %ref.tmp1.i, i64 0, i32 4, i32 1
  call void @llvm.memset.p0.i64(ptr noundef nonnull align 8 dereferenceable(16) %_M_next_resize.i.i.i.i.i, i8 0, i64 16, i1 false), !noalias !4
  %argumentTypes_.i.i = getelementptr inbounds %"class.facebook::velox::exec::FunctionSignatureBuilder", ptr %ref.tmp1.i, i64 0, i32 2
  %_M_end_of_storage.i.i.i.i.i.i = getelementptr inbounds %"class.facebook::velox::exec::FunctionSignatureBuilder", ptr %ref.tmp1.i, i64 0, i32 3, i32 0, i32 0, i32 0, i32 2
  store ptr null, ptr %_M_end_of_storage.i.i.i.i.i.i, align 8, !noalias !4
  call void @llvm.memset.p0.i64(ptr noundef nonnull align 8 dereferenceable(36) %argumentTypes_.i.i, i8 0, i64 36, i1 false), !noalias !4
  call void @_ZNSaIcEC1Ev(ptr noundef nonnull align 1 dereferenceable(1) %ref.tmp3.i) #20, !noalias !4
  %call.i9.i = invoke noundef ptr @_ZNSt7__cxx1112basic_stringIcSt11char_traitsIcESaIcEE13_M_local_dataEv(ptr noundef nonnull align 8 dereferenceable(32) %ref.tmp2.i)
          to label %call.i.noexc.i unwind label %lpad.i, !noalias !4

call.i.noexc.i:                                   ; preds = %entry
  invoke void @_ZNSt7__cxx1112basic_stringIcSt11char_traitsIcESaIcEE12_Alloc_hiderC1EPcRKS3_(ptr noundef nonnull align 8 dereferenceable(8) %ref.tmp2.i, ptr noundef %call.i9.i, ptr noundef nonnull align 1 dereferenceable(1) %ref.tmp3.i)
          to label %.noexc.i unwind label %lpad.i, !noalias !4

.noexc.i:                                         ; preds = %call.i.noexc.i
  call void @llvm.lifetime.start.p0(i64 8, ptr nonnull %__guard.i44)
  %call.i.i45 = invoke noundef ptr @_ZNSt7__cxx1112basic_stringIcSt11char_traitsIcESaIcEE13_M_local_dataEv(ptr noundef nonnull align 8 dereferenceable(32) %ref.tmp2.i)
          to label %if.end.i47 unwind label %terminate.lpad.i.i46, !noalias !4

terminate.lpad.i.i46:                             ; preds = %.noexc.i
  %1 = landingpad { ptr, i32 }
          catch ptr null
  %2 = extractvalue { ptr, i32 } %1, 0
  call void @__clang_call_terminate(ptr %2) #21, !noalias !4
  unreachable

if.end.i47:                                       ; preds = %.noexc.i
  store ptr %ref.tmp2.i, ptr %__guard.i44, align 8, !noalias !4
  %call4.i48 = invoke noundef ptr @_ZNKSt7__cxx1112basic_stringIcSt11char_traitsIcESaIcEE7_M_dataEv(ptr noundef nonnull align 8 dereferenceable(32) %ref.tmp2.i)
          to label %invoke.cont.i50 unwind label %lpad.i49, !noalias !4

invoke.cont.i50:                                  ; preds = %if.end.i47
  call void @_ZNSt7__cxx1112basic_stringIcSt11char_traitsIcESaIcEE13_S_copy_charsEPcPKcS7_(ptr noundef %call4.i48, ptr noundef nonnull @.str, ptr noundef nonnull getelementptr inbounds ([2 x i8], ptr @.str, i64 0, i64 1)) #20, !noalias !4
  store ptr null, ptr %__guard.i44, align 8, !noalias !4
  invoke void @_ZNSt7__cxx1112basic_stringIcSt11char_traitsIcESaIcEE13_M_set_lengthEm(ptr noundef nonnull align 8 dereferenceable(32) %ref.tmp2.i, i64 noundef 1)
          to label %invoke.cont.i unwind label %lpad.i49, !noalias !4

lpad.i49:                                         ; preds = %invoke.cont.i50, %if.end.i47
  %3 = landingpad { ptr, i32 }
          cleanup
  call void @_ZZNSt7__cxx1112basic_stringIcSt11char_traitsIcESaIcEE12_M_constructIPKcEEvT_S8_St20forward_iterator_tagEN6_GuardD2Ev(ptr noundef nonnull align 8 dereferenceable(8) %__guard.i44) #20, !noalias !4
  call void @_ZNSaIcED2Ev(ptr noundef nonnull align 1 dereferenceable(1) %ref.tmp2.i) #20, !noalias !4
  br label %ehcleanup44.i

invoke.cont.i:                                    ; preds = %invoke.cont.i50
  call void @llvm.lifetime.end.p0(i64 8, ptr nonnull %__guard.i44)
  %call.i = invoke noundef nonnull align 8 dereferenceable(225) ptr @_ZN8facebook5velox4exec24FunctionSignatureBuilder12typeVariableERKNSt7__cxx1112basic_stringIcSt11char_traitsIcESaIcEEE(ptr noundef nonnull align 8 dereferenceable(225) %ref.tmp1.i, ptr noundef nonnull align 8 dereferenceable(32) %ref.tmp2.i)
          to label %invoke.cont5.i unwind label %lpad4.i, !noalias !4

invoke.cont5.i:                                   ; preds = %invoke.cont.i
  call void @_ZNSaIcEC1Ev(ptr noundef nonnull align 1 dereferenceable(1) %ref.tmp7.i) #20, !noalias !4
  %call.i14.i = invoke noundef ptr @_ZNSt7__cxx1112basic_stringIcSt11char_traitsIcESaIcEE13_M_local_dataEv(ptr noundef nonnull align 8 dereferenceable(32) %ref.tmp6.i)
          to label %call.i.noexc13.i unwind label %lpad8.i, !noalias !4

call.i.noexc13.i:                                 ; preds = %invoke.cont5.i
  invoke void @_ZNSt7__cxx1112basic_stringIcSt11char_traitsIcESaIcEE12_Alloc_hiderC1EPcRKS3_(ptr noundef nonnull align 8 dereferenceable(8) %ref.tmp6.i, ptr noundef %call.i14.i, ptr noundef nonnull align 1 dereferenceable(1) %ref.tmp7.i)
          to label %.noexc15.i unwind label %lpad8.i, !noalias !4

.noexc15.i:                                       ; preds = %call.i.noexc13.i
  call void @llvm.lifetime.start.p0(i64 8, ptr nonnull %__guard.i34)
  %call.i.i35 = invoke noundef ptr @_ZNSt7__cxx1112basic_stringIcSt11char_traitsIcESaIcEE13_M_local_dataEv(ptr noundef nonnull align 8 dereferenceable(32) %ref.tmp6.i)
          to label %if.end.i37 unwind label %terminate.lpad.i.i36, !noalias !4

terminate.lpad.i.i36:                             ; preds = %.noexc15.i
  %4 = landingpad { ptr, i32 }
          catch ptr null
  %5 = extractvalue { ptr, i32 } %4, 0
  call void @__clang_call_terminate(ptr %5) #21, !noalias !4
  unreachable

if.end.i37:                                       ; preds = %.noexc15.i
  store ptr %ref.tmp6.i, ptr %__guard.i34, align 8, !noalias !4
  %call4.i38 = invoke noundef ptr @_ZNKSt7__cxx1112basic_stringIcSt11char_traitsIcESaIcEE7_M_dataEv(ptr noundef nonnull align 8 dereferenceable(32) %ref.tmp6.i)
          to label %invoke.cont.i40 unwind label %lpad.i39, !noalias !4

invoke.cont.i40:                                  ; preds = %if.end.i37
  call void @_ZNSt7__cxx1112basic_stringIcSt11char_traitsIcESaIcEE13_S_copy_charsEPcPKcS7_(ptr noundef %call4.i38, ptr noundef nonnull @.str.1, ptr noundef nonnull getelementptr inbounds ([8 x i8], ptr @.str.1, i64 0, i64 7)) #20, !noalias !4
  store ptr null, ptr %__guard.i34, align 8, !noalias !4
  invoke void @_ZNSt7__cxx1112basic_stringIcSt11char_traitsIcESaIcEE13_M_set_lengthEm(ptr noundef nonnull align 8 dereferenceable(32) %ref.tmp6.i, i64 noundef 7)
          to label %invoke.cont9.i unwind label %lpad.i39, !noalias !4

lpad.i39:                                         ; preds = %invoke.cont.i40, %if.end.i37
  %6 = landingpad { ptr, i32 }
          cleanup
  call void @_ZZNSt7__cxx1112basic_stringIcSt11char_traitsIcESaIcEE12_M_constructIPKcEEvT_S8_St20forward_iterator_tagEN6_GuardD2Ev(ptr noundef nonnull align 8 dereferenceable(8) %__guard.i34) #20, !noalias !4
  call void @_ZNSaIcED2Ev(ptr noundef nonnull align 1 dereferenceable(1) %ref.tmp6.i) #20, !noalias !4
  br label %ehcleanup42.i

invoke.cont9.i:                                   ; preds = %invoke.cont.i40
  call void @llvm.lifetime.end.p0(i64 8, ptr nonnull %__guard.i34)
  %call12.i = invoke noundef nonnull align 8 dereferenceable(225) ptr @_ZN8facebook5velox4exec24FunctionSignatureBuilder10returnTypeERKNSt7__cxx1112basic_stringIcSt11char_traitsIcESaIcEEE(ptr noundef nonnull align 8 dereferenceable(225) %call.i, ptr noundef nonnull align 8 dereferenceable(32) %ref.tmp6.i)
          to label %invoke.cont11.i unwind label %lpad10.i, !noalias !4

invoke.cont11.i:                                  ; preds = %invoke.cont9.i
  call void @_ZNSaIcEC1Ev(ptr noundef nonnull align 1 dereferenceable(1) %ref.tmp14.i) #20, !noalias !4
  %call.i22.i = invoke noundef ptr @_ZNSt7__cxx1112basic_stringIcSt11char_traitsIcESaIcEE13_M_local_dataEv(ptr noundef nonnull align 8 dereferenceable(32) %ref.tmp13.i)
          to label %call.i.noexc21.i unwind label %lpad15.i, !noalias !4

call.i.noexc21.i:                                 ; preds = %invoke.cont11.i
  invoke void @_ZNSt7__cxx1112basic_stringIcSt11char_traitsIcESaIcEE12_Alloc_hiderC1EPcRKS3_(ptr noundef nonnull align 8 dereferenceable(8) %ref.tmp13.i, ptr noundef %call.i22.i, ptr noundef nonnull align 1 dereferenceable(1) %ref.tmp14.i)
          to label %.noexc23.i unwind label %lpad15.i, !noalias !4

.noexc23.i:                                       ; preds = %call.i.noexc21.i
  call void @llvm.lifetime.start.p0(i64 8, ptr nonnull %__guard.i24)
  %call.i.i25 = invoke noundef ptr @_ZNSt7__cxx1112basic_stringIcSt11char_traitsIcESaIcEE13_M_local_dataEv(ptr noundef nonnull align 8 dereferenceable(32) %ref.tmp13.i)
          to label %if.end.i27 unwind label %terminate.lpad.i.i26, !noalias !4

terminate.lpad.i.i26:                             ; preds = %.noexc23.i
  %7 = landingpad { ptr, i32 }
          catch ptr null
  %8 = extractvalue { ptr, i32 } %7, 0
  call void @__clang_call_terminate(ptr %8) #21, !noalias !4
  unreachable

if.end.i27:                                       ; preds = %.noexc23.i
  store ptr %ref.tmp13.i, ptr %__guard.i24, align 8, !noalias !4
  %call4.i28 = invoke noundef ptr @_ZNKSt7__cxx1112basic_stringIcSt11char_traitsIcESaIcEE7_M_dataEv(ptr noundef nonnull align 8 dereferenceable(32) %ref.tmp13.i)
          to label %invoke.cont.i30 unwind label %lpad.i29, !noalias !4

invoke.cont.i30:                                  ; preds = %if.end.i27
  call void @_ZNSt7__cxx1112basic_stringIcSt11char_traitsIcESaIcEE13_S_copy_charsEPcPKcS7_(ptr noundef %call4.i28, ptr noundef nonnull @.str.2, ptr noundef nonnull getelementptr inbounds ([9 x i8], ptr @.str.2, i64 0, i64 8)) #20, !noalias !4
  store ptr null, ptr %__guard.i24, align 8, !noalias !4
  invoke void @_ZNSt7__cxx1112basic_stringIcSt11char_traitsIcESaIcEE13_M_set_lengthEm(ptr noundef nonnull align 8 dereferenceable(32) %ref.tmp13.i, i64 noundef 8)
          to label %invoke.cont16.i unwind label %lpad.i29, !noalias !4

lpad.i29:                                         ; preds = %invoke.cont.i30, %if.end.i27
  %9 = landingpad { ptr, i32 }
          cleanup
  call void @_ZZNSt7__cxx1112basic_stringIcSt11char_traitsIcESaIcEE12_M_constructIPKcEEvT_S8_St20forward_iterator_tagEN6_GuardD2Ev(ptr noundef nonnull align 8 dereferenceable(8) %__guard.i24) #20, !noalias !4
  call void @_ZNSaIcED2Ev(ptr noundef nonnull align 1 dereferenceable(1) %ref.tmp13.i) #20, !noalias !4
  br label %ehcleanup40.i

invoke.cont16.i:                                  ; preds = %invoke.cont.i30
  call void @llvm.lifetime.end.p0(i64 8, ptr nonnull %__guard.i24)
  %call19.i = invoke noundef nonnull align 8 dereferenceable(225) ptr @_ZN8facebook5velox4exec24FunctionSignatureBuilder12argumentTypeERKNSt7__cxx1112basic_stringIcSt11char_traitsIcESaIcEEE(ptr noundef nonnull align 8 dereferenceable(225) %call12.i, ptr noundef nonnull align 8 dereferenceable(32) %ref.tmp13.i)
          to label %invoke.cont18.i unwind label %lpad17.i, !noalias !4

invoke.cont18.i:                                  ; preds = %invoke.cont16.i
  call void @_ZNSaIcEC1Ev(ptr noundef nonnull align 1 dereferenceable(1) %ref.tmp21.i) #20, !noalias !4
  %call.i30.i = invoke noundef ptr @_ZNSt7__cxx1112basic_stringIcSt11char_traitsIcESaIcEE13_M_local_dataEv(ptr noundef nonnull align 8 dereferenceable(32) %ref.tmp20.i)
          to label %call.i.noexc29.i unwind label %lpad22.i, !noalias !4

call.i.noexc29.i:                                 ; preds = %invoke.cont18.i
  invoke void @_ZNSt7__cxx1112basic_stringIcSt11char_traitsIcESaIcEE12_Alloc_hiderC1EPcRKS3_(ptr noundef nonnull align 8 dereferenceable(8) %ref.tmp20.i, ptr noundef %call.i30.i, ptr noundef nonnull align 1 dereferenceable(1) %ref.tmp21.i)
          to label %.noexc31.i unwind label %lpad22.i, !noalias !4

.noexc31.i:                                       ; preds = %call.i.noexc29.i
  call void @llvm.lifetime.start.p0(i64 8, ptr nonnull %__guard.i)
  %call.i.i = invoke noundef ptr @_ZNSt7__cxx1112basic_stringIcSt11char_traitsIcESaIcEE13_M_local_dataEv(ptr noundef nonnull align 8 dereferenceable(32) %ref.tmp20.i)
          to label %if.end.i unwind label %terminate.lpad.i.i, !noalias !4

terminate.lpad.i.i:                               ; preds = %.noexc31.i
  %10 = landingpad { ptr, i32 }
          catch ptr null
  %11 = extractvalue { ptr, i32 } %10, 0
  call void @__clang_call_terminate(ptr %11) #21, !noalias !4
  unreachable

if.end.i:                                         ; preds = %.noexc31.i
  store ptr %ref.tmp20.i, ptr %__guard.i, align 8, !noalias !4
  %call4.i = invoke noundef ptr @_ZNKSt7__cxx1112basic_stringIcSt11char_traitsIcESaIcEE7_M_dataEv(ptr noundef nonnull align 8 dereferenceable(32) %ref.tmp20.i)
          to label %invoke.cont.i22 unwind label %lpad.i21, !noalias !4

invoke.cont.i22:                                  ; preds = %if.end.i
  call void @_ZNSt7__cxx1112basic_stringIcSt11char_traitsIcESaIcEE13_S_copy_charsEPcPKcS7_(ptr noundef %call4.i, ptr noundef nonnull @.str, ptr noundef nonnull getelementptr inbounds ([2 x i8], ptr @.str, i64 0, i64 1)) #20, !noalias !4
  store ptr null, ptr %__guard.i, align 8, !noalias !4
  invoke void @_ZNSt7__cxx1112basic_stringIcSt11char_traitsIcESaIcEE13_M_set_lengthEm(ptr noundef nonnull align 8 dereferenceable(32) %ref.tmp20.i, i64 noundef 1)
          to label %invoke.cont23.i unwind label %lpad.i21, !noalias !4

lpad.i21:                                         ; preds = %invoke.cont.i22, %if.end.i
  %12 = landingpad { ptr, i32 }
          cleanup
  call void @_ZZNSt7__cxx1112basic_stringIcSt11char_traitsIcESaIcEE12_M_constructIPKcEEvT_S8_St20forward_iterator_tagEN6_GuardD2Ev(ptr noundef nonnull align 8 dereferenceable(8) %__guard.i) #20, !noalias !4
  call void @_ZNSaIcED2Ev(ptr noundef nonnull align 1 dereferenceable(1) %ref.tmp20.i) #20, !noalias !4
  br label %ehcleanup38.i

invoke.cont23.i:                                  ; preds = %invoke.cont.i22
  call void @llvm.lifetime.end.p0(i64 8, ptr nonnull %__guard.i)
  %call26.i = invoke noundef nonnull align 8 dereferenceable(225) ptr @_ZN8facebook5velox4exec24FunctionSignatureBuilder12argumentTypeERKNSt7__cxx1112basic_stringIcSt11char_traitsIcESaIcEEE(ptr noundef nonnull align 8 dereferenceable(225) %call19.i, ptr noundef nonnull align 8 dereferenceable(32) %ref.tmp20.i)
          to label %invoke.cont25.i unwind label %lpad24.i, !noalias !4

invoke.cont25.i:                                  ; preds = %invoke.cont23.i
  invoke void @_ZN8facebook5velox4exec24FunctionSignatureBuilder5buildEv(ptr nonnull sret(%"class.std::shared_ptr") align 8 %ref.tmp.i, ptr noundef nonnull align 8 dereferenceable(225) %call26.i)
          to label %invoke.cont27.i unwind label %lpad24.i, !noalias !4

invoke.cont27.i:                                  ; preds = %invoke.cont25.i
  %13 = getelementptr inbounds i8, ptr %agg.tmp, i64 8
  store i64 0, ptr %13, align 8
  %call5.i.i.i.i2.i.i = invoke noalias noundef nonnull dereferenceable(16) ptr @_Znwm(i64 noundef 16) #22
          to label %call5.i.i.i.i.noexc.i.i unwind label %lpad29.body.i, !noalias !4

call5.i.i.i.i.noexc.i.i:                          ; preds = %invoke.cont27.i
  store ptr %call5.i.i.i.i2.i.i, ptr %agg.tmp, align 8, !alias.scope !4
  %add.ptr.i1.i.i = getelementptr inbounds i8, ptr %call5.i.i.i.i2.i.i, i64 16
  %_M_end_of_storage.i.i.i = getelementptr inbounds %"struct.std::_Vector_base<std::shared_ptr<facebook::velox::exec::FunctionSignature>, std::allocator<std::shared_ptr<facebook::velox::exec::FunctionSignature>>>::_Vector_impl_data", ptr %agg.tmp, i64 0, i32 2
  store ptr %add.ptr.i1.i.i, ptr %_M_end_of_storage.i.i.i, align 8, !alias.scope !4
  %_M_refcount3.i.i.i.i.i.i.i.i.i.i = getelementptr inbounds %"class.std::__shared_ptr", ptr %ref.tmp.i, i64 0, i32 1
  %14 = load <2 x ptr>, ptr %ref.tmp.i, align 16, !noalias !4
  store <2 x ptr> %14, ptr %call5.i.i.i.i2.i.i, align 8, !noalias !4
  %15 = extractelement <2 x ptr> %14, i64 1
  %cmp.not.i.i.i.i.i.i.i.i.i.i.i = icmp eq ptr %15, null
  br i1 %cmp.not.i.i.i.i.i.i.i.i.i.i.i, label %_ZSt10_ConstructISt10shared_ptrIN8facebook5velox4exec17FunctionSignatureEEJRKS5_EEvPT_DpOT0_.exit.i.i.i.i.i.i.i.thread, label %if.then.i.i.i.i.i.i.i.i.i.i.i

_ZSt10_ConstructISt10shared_ptrIN8facebook5velox4exec17FunctionSignatureEEJRKS5_EEvPT_DpOT0_.exit.i.i.i.i.i.i.i.thread: ; preds = %call5.i.i.i.i.noexc.i.i
  %_M_finish.i.i.i55 = getelementptr inbounds %"struct.std::_Vector_base<std::shared_ptr<facebook::velox::exec::FunctionSignature>, std::allocator<std::shared_ptr<facebook::velox::exec::FunctionSignature>>>::_Vector_impl_data", ptr %agg.tmp, i64 0, i32 1
  store ptr %add.ptr.i1.i.i, ptr %_M_finish.i.i.i55, align 8, !alias.scope !4
  br label %_ZN8facebook5velox9functions12_GLOBAL__N_121ArrayContainsFunction10signaturesEv.exit

if.then.i.i.i.i.i.i.i.i.i.i.i:                    ; preds = %call5.i.i.i.i.noexc.i.i
  %_M_use_count.i.i.i.i.i.i.i.i.i.i.i.i = getelementptr inbounds %"class.std::_Sp_counted_base", ptr %15, i64 0, i32 1
  %16 = load i8, ptr @__libc_single_threaded, align 1, !noalias !4
  %tobool.i.not.i.i.i.i.i.i.i.i.i.i.i.i = icmp eq i8 %16, 0
  br i1 %tobool.i.not.i.i.i.i.i.i.i.i.i.i.i.i, label %if.else.i.i.i.i.i.i.i.i.i.i.i.i.i, label %if.then.i.i.i.i.i.i.i.i.i.i.i.i.i

if.then.i.i.i.i.i.i.i.i.i.i.i.i.i:                ; preds = %if.then.i.i.i.i.i.i.i.i.i.i.i
  %17 = load i32, ptr %_M_use_count.i.i.i.i.i.i.i.i.i.i.i.i, align 4, !noalias !4
  %add.i.i.i.i.i.i.i.i.i.i.i.i.i = add nsw i32 %17, 1
  store i32 %add.i.i.i.i.i.i.i.i.i.i.i.i.i, ptr %_M_use_count.i.i.i.i.i.i.i.i.i.i.i.i, align 4, !noalias !4
  br label %_ZSt10_ConstructISt10shared_ptrIN8facebook5velox4exec17FunctionSignatureEEJRKS5_EEvPT_DpOT0_.exit.i.i.i.i.i.i.i

if.else.i.i.i.i.i.i.i.i.i.i.i.i.i:                ; preds = %if.then.i.i.i.i.i.i.i.i.i.i.i
  %18 = atomicrmw volatile add ptr %_M_use_count.i.i.i.i.i.i.i.i.i.i.i.i, i32 1 acq_rel, align 4, !noalias !4
  br label %_ZSt10_ConstructISt10shared_ptrIN8facebook5velox4exec17FunctionSignatureEEJRKS5_EEvPT_DpOT0_.exit.i.i.i.i.i.i.i

_ZSt10_ConstructISt10shared_ptrIN8facebook5velox4exec17FunctionSignatureEEJRKS5_EEvPT_DpOT0_.exit.i.i.i.i.i.i.i: ; preds = %if.else.i.i.i.i.i.i.i.i.i.i.i.i.i, %if.then.i.i.i.i.i.i.i.i.i.i.i.i.i
  %.pr = load ptr, ptr %_M_refcount3.i.i.i.i.i.i.i.i.i.i, align 8, !noalias !4
  %_M_finish.i.i.i = getelementptr inbounds %"struct.std::_Vector_base<std::shared_ptr<facebook::velox::exec::FunctionSignature>, std::allocator<std::shared_ptr<facebook::velox::exec::FunctionSignature>>>::_Vector_impl_data", ptr %agg.tmp, i64 0, i32 1
  store ptr %add.ptr.i1.i.i, ptr %_M_finish.i.i.i, align 8, !alias.scope !4
  %cmp.not.i.i.i.i = icmp eq ptr %.pr, null
  br i1 %cmp.not.i.i.i.i, label %_ZN8facebook5velox9functions12_GLOBAL__N_121ArrayContainsFunction10signaturesEv.exit, label %if.then.i.i.i.i

if.then.i.i.i.i:                                  ; preds = %_ZSt10_ConstructISt10shared_ptrIN8facebook5velox4exec17FunctionSignatureEEJRKS5_EEvPT_DpOT0_.exit.i.i.i.i.i.i.i
  %_M_use_count.i.i.i.i.i = getelementptr inbounds %"class.std::_Sp_counted_base", ptr %.pr, i64 0, i32 1
  %19 = load atomic i64, ptr %_M_use_count.i.i.i.i.i acquire, align 8, !noalias !4
  %cmp.i.i.i.i.i = icmp eq i64 %19, 4294967297
  %20 = trunc i64 %19 to i32
  br i1 %cmp.i.i.i.i.i, label %if.then.i.i.i.i.i, label %if.end.i.i.i.i.i

if.then.i.i.i.i.i:                                ; preds = %if.then.i.i.i.i
  store i32 0, ptr %_M_use_count.i.i.i.i.i, align 8, !noalias !4
  %_M_weak_count.i.i.i.i.i = getelementptr inbounds %"class.std::_Sp_counted_base", ptr %.pr, i64 0, i32 2
  store i32 0, ptr %_M_weak_count.i.i.i.i.i, align 4, !noalias !4
  %vtable.i.i.i.i.i = load ptr, ptr %.pr, align 8, !noalias !4
  %vfn.i.i.i.i.i = getelementptr inbounds ptr, ptr %vtable.i.i.i.i.i, i64 2
  %21 = load ptr, ptr %vfn.i.i.i.i.i, align 8, !noalias !4
  call void %21(ptr noundef nonnull align 8 dereferenceable(16) %.pr) #20, !noalias !4
  br label %if.end8.sink.split.i.i.i.i.i

if.end.i.i.i.i.i:                                 ; preds = %if.then.i.i.i.i
  %22 = load i8, ptr @__libc_single_threaded, align 1, !noalias !4
  %tobool.i.i.not.i.i.i.i.i = icmp eq i8 %22, 0
  br i1 %tobool.i.i.not.i.i.i.i.i, label %if.else.i.i.i.i.i.i, label %if.then.i.i.i.i.i.i

if.then.i.i.i.i.i.i:                              ; preds = %if.end.i.i.i.i.i
  %add.i.i.i.i.i.i = add nsw i32 %20, -1
  store i32 %add.i.i.i.i.i.i, ptr %_M_use_count.i.i.i.i.i, align 4, !noalias !4
  br label %_ZN9__gnu_cxx27__exchange_and_add_dispatchEPii.exit.i.i.i.i.i

if.else.i.i.i.i.i.i:                              ; preds = %if.end.i.i.i.i.i
  %23 = atomicrmw volatile add ptr %_M_use_count.i.i.i.i.i, i32 -1 acq_rel, align 4, !noalias !4
  br label %_ZN9__gnu_cxx27__exchange_and_add_dispatchEPii.exit.i.i.i.i.i

_ZN9__gnu_cxx27__exchange_and_add_dispatchEPii.exit.i.i.i.i.i: ; preds = %if.else.i.i.i.i.i.i, %if.then.i.i.i.i.i.i
  %retval.i.0.i.i.i.i.i = phi i32 [ %20, %if.then.i.i.i.i.i.i ], [ %23, %if.else.i.i.i.i.i.i ]
  %cmp6.i.i.i.i.i = icmp eq i32 %retval.i.0.i.i.i.i.i, 1
  br i1 %cmp6.i.i.i.i.i, label %if.then7.i.i.i.i.i, label %_ZN8facebook5velox9functions12_GLOBAL__N_121ArrayContainsFunction10signaturesEv.exit

if.then7.i.i.i.i.i:                               ; preds = %_ZN9__gnu_cxx27__exchange_and_add_dispatchEPii.exit.i.i.i.i.i
  %vtable.i.i.i.i.i.i.i = load ptr, ptr %.pr, align 8, !noalias !4
  %vfn.i.i.i.i.i.i.i = getelementptr inbounds ptr, ptr %vtable.i.i.i.i.i.i.i, i64 2
  %24 = load ptr, ptr %vfn.i.i.i.i.i.i.i, align 8, !noalias !4
  call void %24(ptr noundef nonnull align 8 dereferenceable(16) %.pr) #20, !noalias !4
  %_M_weak_count.i.i.i.i.i.i.i = getelementptr inbounds %"class.std::_Sp_counted_base", ptr %.pr, i64 0, i32 2
  %25 = load i8, ptr @__libc_single_threaded, align 1, !noalias !4
  %tobool.i.i.not.i.i.i.i.i.i.i = icmp eq i8 %25, 0
  br i1 %tobool.i.i.not.i.i.i.i.i.i.i, label %if.else.i.i.i.i.i.i.i.i, label %if.then.i.i.i.i.i.i.i.i

if.then.i.i.i.i.i.i.i.i:                          ; preds = %if.then7.i.i.i.i.i
  %26 = load i32, ptr %_M_weak_count.i.i.i.i.i.i.i, align 4, !noalias !4
  %add.i.i.i.i.i.i.i.i = add nsw i32 %26, -1
  store i32 %add.i.i.i.i.i.i.i.i, ptr %_M_weak_count.i.i.i.i.i.i.i, align 4, !noalias !4
  br label %_ZN9__gnu_cxx27__exchange_and_add_dispatchEPii.exit.i.i.i.i.i.i.i

if.else.i.i.i.i.i.i.i.i:                          ; preds = %if.then7.i.i.i.i.i
  %27 = atomicrmw volatile add ptr %_M_weak_count.i.i.i.i.i.i.i, i32 -1 acq_rel, align 4, !noalias !4
  br label %_ZN9__gnu_cxx27__exchange_and_add_dispatchEPii.exit.i.i.i.i.i.i.i

_ZN9__gnu_cxx27__exchange_and_add_dispatchEPii.exit.i.i.i.i.i.i.i: ; preds = %if.else.i.i.i.i.i.i.i.i, %if.then.i.i.i.i.i.i.i.i
  %retval.i.0.i.i.i.i.i.i.i = phi i32 [ %26, %if.then.i.i.i.i.i.i.i.i ], [ %27, %if.else.i.i.i.i.i.i.i.i ]
  %cmp.i.i.i.i.i.i.i = icmp eq i32 %retval.i.0.i.i.i.i.i.i.i, 1
  br i1 %cmp.i.i.i.i.i.i.i, label %if.end8.sink.split.i.i.i.i.i, label %_ZN8facebook5velox9functions12_GLOBAL__N_121ArrayContainsFunction10signaturesEv.exit

if.end8.sink.split.i.i.i.i.i:                     ; preds = %_ZN9__gnu_cxx27__exchange_and_add_dispatchEPii.exit.i.i.i.i.i.i.i, %if.then.i.i.i.i.i
  %vtable2.i.i.i.i.i.i.i = load ptr, ptr %.pr, align 8, !noalias !4
  %vfn3.i.i.i.i.i.i.i = getelementptr inbounds ptr, ptr %vtable2.i.i.i.i.i.i.i, i64 3
  %28 = load ptr, ptr %vfn3.i.i.i.i.i.i.i, align 8, !noalias !4
  call void %28(ptr noundef nonnull align 8 dereferenceable(16) %.pr) #20, !noalias !4
  br label %_ZN8facebook5velox9functions12_GLOBAL__N_121ArrayContainsFunction10signaturesEv.exit

lpad.i:                                           ; preds = %call.i.noexc.i, %entry
  %29 = landingpad { ptr, i32 }
          cleanup
  br label %ehcleanup44.i

lpad4.i:                                          ; preds = %invoke.cont.i
  %30 = landingpad { ptr, i32 }
          cleanup
  br label %ehcleanup43.i

lpad8.i:                                          ; preds = %call.i.noexc13.i, %invoke.cont5.i
  %31 = landingpad { ptr, i32 }
          cleanup
  br label %ehcleanup42.i

lpad10.i:                                         ; preds = %invoke.cont9.i
  %32 = landingpad { ptr, i32 }
          cleanup
  br label %ehcleanup41.i

lpad15.i:                                         ; preds = %call.i.noexc21.i, %invoke.cont11.i
  %33 = landingpad { ptr, i32 }
          cleanup
  br label %ehcleanup40.i

lpad17.i:                                         ; preds = %invoke.cont16.i
  %34 = landingpad { ptr, i32 }
          cleanup
  br label %ehcleanup39.i

lpad22.i:                                         ; preds = %call.i.noexc29.i, %invoke.cont18.i
  %35 = landingpad { ptr, i32 }
          cleanup
  br label %ehcleanup38.i

lpad24.i:                                         ; preds = %invoke.cont25.i, %invoke.cont23.i
  %36 = landingpad { ptr, i32 }
          cleanup
  br label %ehcleanup.i

lpad29.body.i:                                    ; preds = %invoke.cont27.i
  %37 = landingpad { ptr, i32 }
          cleanup
  call void @_ZNSt10shared_ptrIN8facebook5velox4exec17FunctionSignatureEED2Ev(ptr noundef nonnull align 8 dereferenceable(16) %ref.tmp.i) #20, !noalias !4
  br label %ehcleanup.i

ehcleanup.i:                                      ; preds = %lpad29.body.i, %lpad24.i
  %.pn.i = phi { ptr, i32 } [ %36, %lpad24.i ], [ %37, %lpad29.body.i ]
  call void @_ZNSt7__cxx1112basic_stringIcSt11char_traitsIcESaIcEED1Ev(ptr noundef nonnull align 8 dereferenceable(32) %ref.tmp20.i) #20, !noalias !4
  br label %ehcleanup38.i

ehcleanup38.i:                                    ; preds = %ehcleanup.i, %lpad22.i, %lpad.i21
  %.pn.pn.i = phi { ptr, i32 } [ %.pn.i, %ehcleanup.i ], [ %35, %lpad22.i ], [ %12, %lpad.i21 ]
  call void @_ZNSaIcED1Ev(ptr noundef nonnull align 1 dereferenceable(1) %ref.tmp21.i) #20, !noalias !4
  br label %ehcleanup39.i

ehcleanup39.i:                                    ; preds = %ehcleanup38.i, %lpad17.i
  %.pn.pn.pn.i = phi { ptr, i32 } [ %.pn.pn.i, %ehcleanup38.i ], [ %34, %lpad17.i ]
  call void @_ZNSt7__cxx1112basic_stringIcSt11char_traitsIcESaIcEED1Ev(ptr noundef nonnull align 8 dereferenceable(32) %ref.tmp13.i) #20, !noalias !4
  br label %ehcleanup40.i

ehcleanup40.i:                                    ; preds = %ehcleanup39.i, %lpad15.i, %lpad.i29
  %.pn.pn.pn.pn.i = phi { ptr, i32 } [ %.pn.pn.pn.i, %ehcleanup39.i ], [ %33, %lpad15.i ], [ %9, %lpad.i29 ]
  call void @_ZNSaIcED1Ev(ptr noundef nonnull align 1 dereferenceable(1) %ref.tmp14.i) #20, !noalias !4
  br label %ehcleanup41.i

ehcleanup41.i:                                    ; preds = %ehcleanup40.i, %lpad10.i
  %.pn.pn.pn.pn.pn.i = phi { ptr, i32 } [ %.pn.pn.pn.pn.i, %ehcleanup40.i ], [ %32, %lpad10.i ]
  call void @_ZNSt7__cxx1112basic_stringIcSt11char_traitsIcESaIcEED1Ev(ptr noundef nonnull align 8 dereferenceable(32) %ref.tmp6.i) #20, !noalias !4
  br label %ehcleanup42.i

ehcleanup42.i:                                    ; preds = %ehcleanup41.i, %lpad8.i, %lpad.i39
  %.pn.pn.pn.pn.pn.pn.i = phi { ptr, i32 } [ %.pn.pn.pn.pn.pn.i, %ehcleanup41.i ], [ %31, %lpad8.i ], [ %6, %lpad.i39 ]
  call void @_ZNSaIcED1Ev(ptr noundef nonnull align 1 dereferenceable(1) %ref.tmp7.i) #20, !noalias !4
  br label %ehcleanup43.i

ehcleanup43.i:                                    ; preds = %ehcleanup42.i, %lpad4.i
  %.pn.pn.pn.pn.pn.pn.pn.i = phi { ptr, i32 } [ %.pn.pn.pn.pn.pn.pn.i, %ehcleanup42.i ], [ %30, %lpad4.i ]
  call void @_ZNSt7__cxx1112basic_stringIcSt11char_traitsIcESaIcEED1Ev(ptr noundef nonnull align 8 dereferenceable(32) %ref.tmp2.i) #20, !noalias !4
  br label %ehcleanup44.i

common.resume:                                    ; preds = %ehcleanup, %ehcleanup44.i
  %common.resume.op = phi { ptr, i32 } [ %.pn.pn.pn.pn.pn.pn.pn.pn.i, %ehcleanup44.i ], [ %.pn, %ehcleanup ]
  resume { ptr, i32 } %common.resume.op

ehcleanup44.i:                                    ; preds = %ehcleanup43.i, %lpad.i, %lpad.i49
  %.pn.pn.pn.pn.pn.pn.pn.pn.i = phi { ptr, i32 } [ %.pn.pn.pn.pn.pn.pn.pn.i, %ehcleanup43.i ], [ %29, %lpad.i ], [ %3, %lpad.i49 ]
  call void @_ZNSaIcED1Ev(ptr noundef nonnull align 1 dereferenceable(1) %ref.tmp3.i) #20, !noalias !4
  call void @_ZN8facebook5velox4exec24FunctionSignatureBuilderD2Ev(ptr noundef nonnull align 8 dereferenceable(225) %ref.tmp1.i) #20, !noalias !4
  br label %common.resume

_ZN8facebook5velox9functions12_GLOBAL__N_121ArrayContainsFunction10signaturesEv.exit: ; preds = %_ZSt10_ConstructISt10shared_ptrIN8facebook5velox4exec17FunctionSignatureEEJRKS5_EEvPT_DpOT0_.exit.i.i.i.i.i.i.i.thread, %_ZSt10_ConstructISt10shared_ptrIN8facebook5velox4exec17FunctionSignatureEEJRKS5_EEvPT_DpOT0_.exit.i.i.i.i.i.i.i, %_ZN9__gnu_cxx27__exchange_and_add_dispatchEPii.exit.i.i.i.i.i, %_ZN9__gnu_cxx27__exchange_and_add_dispatchEPii.exit.i.i.i.i.i.i.i, %if.end8.sink.split.i.i.i.i.i
  %_M_finish.i.i.i57 = phi ptr [ %_M_finish.i.i.i55, %_ZSt10_ConstructISt10shared_ptrIN8facebook5velox4exec17FunctionSignatureEEJRKS5_EEvPT_DpOT0_.exit.i.i.i.i.i.i.i.thread ], [ %_M_finish.i.i.i, %_ZSt10_ConstructISt10shared_ptrIN8facebook5velox4exec17FunctionSignatureEEJRKS5_EEvPT_DpOT0_.exit.i.i.i.i.i.i.i ], [ %_M_finish.i.i.i, %_ZN9__gnu_cxx27__exchange_and_add_dispatchEPii.exit.i.i.i.i.i ], [ %_M_finish.i.i.i, %_ZN9__gnu_cxx27__exchange_and_add_dispatchEPii.exit.i.i.i.i.i.i.i ], [ %_M_finish.i.i.i, %if.end8.sink.split.i.i.i.i.i ]
  call void @_ZNSt7__cxx1112basic_stringIcSt11char_traitsIcESaIcEED1Ev(ptr noundef nonnull align 8 dereferenceable(32) %ref.tmp20.i) #20, !noalias !4
  call void @_ZNSaIcED1Ev(ptr noundef nonnull align 1 dereferenceable(1) %ref.tmp21.i) #20, !noalias !4
  call void @_ZNSt7__cxx1112basic_stringIcSt11char_traitsIcESaIcEED1Ev(ptr noundef nonnull align 8 dereferenceable(32) %ref.tmp13.i) #20, !noalias !4
  call void @_ZNSaIcED1Ev(ptr noundef nonnull align 1 dereferenceable(1) %ref.tmp14.i) #20, !noalias !4
  call void @_ZNSt7__cxx1112basic_stringIcSt11char_traitsIcESaIcEED1Ev(ptr noundef nonnull align 8 dereferenceable(32) %ref.tmp6.i) #20, !noalias !4
  call void @_ZNSaIcED1Ev(ptr noundef nonnull align 1 dereferenceable(1) %ref.tmp7.i) #20, !noalias !4
  call void @_ZNSt7__cxx1112basic_stringIcSt11char_traitsIcESaIcEED1Ev(ptr noundef nonnull align 8 dereferenceable(32) %ref.tmp2.i) #20, !noalias !4
  call void @_ZNSaIcED1Ev(ptr noundef nonnull align 1 dereferenceable(1) %ref.tmp3.i) #20, !noalias !4
  call void @_ZN8facebook5velox4exec24FunctionSignatureBuilderD2Ev(ptr noundef nonnull align 8 dereferenceable(225) %ref.tmp1.i) #20, !noalias !4
  call void @llvm.lifetime.end.p0(i64 16, ptr nonnull %ref.tmp.i)
  call void @llvm.lifetime.end.p0(i64 232, ptr nonnull %ref.tmp1.i)
  call void @llvm.lifetime.end.p0(i64 32, ptr nonnull %ref.tmp2.i)
  call void @llvm.lifetime.end.p0(i64 1, ptr nonnull %ref.tmp3.i)
  call void @llvm.lifetime.end.p0(i64 32, ptr nonnull %ref.tmp6.i)
  call void @llvm.lifetime.end.p0(i64 1, ptr nonnull %ref.tmp7.i)
  call void @llvm.lifetime.end.p0(i64 32, ptr nonnull %ref.tmp13.i)
  call void @llvm.lifetime.end.p0(i64 1, ptr nonnull %ref.tmp14.i)
  call void @llvm.lifetime.end.p0(i64 32, ptr nonnull %ref.tmp20.i)
  call void @llvm.lifetime.end.p0(i64 1, ptr nonnull %ref.tmp21.i)
  %call.i23 = invoke noalias noundef nonnull dereferenceable(8) ptr @_Znwm(i64 noundef 8) #22
          to label %invoke.cont unwind label %lpad

invoke.cont:                                      ; preds = %_ZN8facebook5velox9functions12_GLOBAL__N_121ArrayContainsFunction10signaturesEv.exit
  store ptr getelementptr inbounds ({ [12 x ptr] }, ptr @_ZTVN8facebook5velox9functions12_GLOBAL__N_121ArrayContainsFunctionE, i64 0, inrange i32 0, i64 2), ptr %call.i23, align 8, !noalias !7
  store ptr %call.i23, ptr %agg.tmp1, align 8
  %call = invoke noundef zeroext i1 @_ZN8facebook5velox4exec22registerVectorFunctionERKNSt7__cxx1112basic_stringIcSt11char_traitsIcESaIcEEESt6vectorISt10shared_ptrINS1_17FunctionSignatureEESaISD_EESt10unique_ptrINS1_14VectorFunctionESt14default_deleteISH_EENS1_22VectorFunctionMetadataEb(ptr noundef nonnull align 8 dereferenceable(32) %name, ptr noundef nonnull %agg.tmp, ptr noundef nonnull %agg.tmp1, i8 0, i1 noundef zeroext true)
          to label %invoke.cont4 unwind label %lpad3

invoke.cont4:                                     ; preds = %invoke.cont
  %38 = load ptr, ptr %agg.tmp1, align 8
  %cmp.not.i = icmp eq ptr %38, null
  br i1 %cmp.not.i, label %_ZNSt10unique_ptrIN8facebook5velox9functions12_GLOBAL__N_121ArrayContainsFunctionESt14default_deleteIS4_EED2Ev.exit, label %_ZNKSt14default_deleteIN8facebook5velox4exec14VectorFunctionEEclEPS3_.exit.i

_ZNKSt14default_deleteIN8facebook5velox4exec14VectorFunctionEEclEPS3_.exit.i: ; preds = %invoke.cont4
  %vtable.i.i = load ptr, ptr %38, align 8
  %vfn.i.i = getelementptr inbounds ptr, ptr %vtable.i.i, i64 1
  %39 = load ptr, ptr %vfn.i.i, align 8
  call void %39(ptr noundef nonnull align 8 dereferenceable(8) %38) #20
  br label %_ZNSt10unique_ptrIN8facebook5velox9functions12_GLOBAL__N_121ArrayContainsFunctionESt14default_deleteIS4_EED2Ev.exit

_ZNSt10unique_ptrIN8facebook5velox9functions12_GLOBAL__N_121ArrayContainsFunctionESt14default_deleteIS4_EED2Ev.exit: ; preds = %_ZNKSt14default_deleteIN8facebook5velox4exec14VectorFunctionEEclEPS3_.exit.i, %invoke.cont4
  store ptr null, ptr %agg.tmp1, align 8
  %40 = load ptr, ptr %agg.tmp, align 8
  %41 = load ptr, ptr %_M_finish.i.i.i57, align 8
  %cmp.not3.i.i.i.i = icmp eq ptr %40, %41
  br i1 %cmp.not3.i.i.i.i, label %invoke.cont.i10, label %for.body.i.i.i.i

for.body.i.i.i.i:                                 ; preds = %_ZNSt10unique_ptrIN8facebook5velox9functions12_GLOBAL__N_121ArrayContainsFunctionESt14default_deleteIS4_EED2Ev.exit, %_ZSt8_DestroyISt10shared_ptrIN8facebook5velox4exec17FunctionSignatureEEEvPT_.exit.i.i.i.i
  %__first.addr.04.i.i.i.i = phi ptr [ %incdec.ptr.i.i.i.i, %_ZSt8_DestroyISt10shared_ptrIN8facebook5velox4exec17FunctionSignatureEEEvPT_.exit.i.i.i.i ], [ %40, %_ZNSt10unique_ptrIN8facebook5velox9functions12_GLOBAL__N_121ArrayContainsFunctionESt14default_deleteIS4_EED2Ev.exit ]
  %_M_refcount.i.i.i.i.i.i.i = getelementptr inbounds %"class.std::__shared_ptr", ptr %__first.addr.04.i.i.i.i, i64 0, i32 1
  %42 = load ptr, ptr %_M_refcount.i.i.i.i.i.i.i, align 8
  %cmp.not.i.i.i.i.i.i.i.i = icmp eq ptr %42, null
  br i1 %cmp.not.i.i.i.i.i.i.i.i, label %_ZSt8_DestroyISt10shared_ptrIN8facebook5velox4exec17FunctionSignatureEEEvPT_.exit.i.i.i.i, label %if.then.i.i.i.i.i.i.i.i8

if.then.i.i.i.i.i.i.i.i8:                         ; preds = %for.body.i.i.i.i
  %_M_use_count.i.i.i.i.i.i.i.i.i = getelementptr inbounds %"class.std::_Sp_counted_base", ptr %42, i64 0, i32 1
  %43 = load atomic i64, ptr %_M_use_count.i.i.i.i.i.i.i.i.i acquire, align 8
  %cmp.i.i.i.i.i.i.i.i.i = icmp eq i64 %43, 4294967297
  %44 = trunc i64 %43 to i32
  br i1 %cmp.i.i.i.i.i.i.i.i.i, label %if.then.i.i.i.i.i.i.i.i.i, label %if.end.i.i.i.i.i.i.i.i.i

if.then.i.i.i.i.i.i.i.i.i:                        ; preds = %if.then.i.i.i.i.i.i.i.i8
  store i32 0, ptr %_M_use_count.i.i.i.i.i.i.i.i.i, align 8
  %_M_weak_count.i.i.i.i.i.i.i.i.i = getelementptr inbounds %"class.std::_Sp_counted_base", ptr %42, i64 0, i32 2
  store i32 0, ptr %_M_weak_count.i.i.i.i.i.i.i.i.i, align 4
  %vtable.i.i.i.i.i.i.i.i.i = load ptr, ptr %42, align 8
  %vfn.i.i.i.i.i.i.i.i.i = getelementptr inbounds ptr, ptr %vtable.i.i.i.i.i.i.i.i.i, i64 2
  %45 = load ptr, ptr %vfn.i.i.i.i.i.i.i.i.i, align 8
  call void %45(ptr noundef nonnull align 8 dereferenceable(16) %42) #20
  br label %if.end8.sink.split.i.i.i.i.i.i.i.i.i

if.end.i.i.i.i.i.i.i.i.i:                         ; preds = %if.then.i.i.i.i.i.i.i.i8
  %46 = load i8, ptr @__libc_single_threaded, align 1
  %tobool.i.i.not.i.i.i.i.i.i.i.i.i = icmp eq i8 %46, 0
  br i1 %tobool.i.i.not.i.i.i.i.i.i.i.i.i, label %if.else.i.i.i.i.i.i.i.i.i.i, label %if.then.i.i.i.i.i.i.i.i.i.i

if.then.i.i.i.i.i.i.i.i.i.i:                      ; preds = %if.end.i.i.i.i.i.i.i.i.i
  %add.i.i.i.i.i.i.i.i.i.i = add nsw i32 %44, -1
  store i32 %add.i.i.i.i.i.i.i.i.i.i, ptr %_M_use_count.i.i.i.i.i.i.i.i.i, align 4
  br label %_ZN9__gnu_cxx27__exchange_and_add_dispatchEPii.exit.i.i.i.i.i.i.i.i.i

if.else.i.i.i.i.i.i.i.i.i.i:                      ; preds = %if.end.i.i.i.i.i.i.i.i.i
  %47 = atomicrmw volatile add ptr %_M_use_count.i.i.i.i.i.i.i.i.i, i32 -1 acq_rel, align 4
  br label %_ZN9__gnu_cxx27__exchange_and_add_dispatchEPii.exit.i.i.i.i.i.i.i.i.i

_ZN9__gnu_cxx27__exchange_and_add_dispatchEPii.exit.i.i.i.i.i.i.i.i.i: ; preds = %if.else.i.i.i.i.i.i.i.i.i.i, %if.then.i.i.i.i.i.i.i.i.i.i
  %retval.i.0.i.i.i.i.i.i.i.i.i = phi i32 [ %44, %if.then.i.i.i.i.i.i.i.i.i.i ], [ %47, %if.else.i.i.i.i.i.i.i.i.i.i ]
  %cmp6.i.i.i.i.i.i.i.i.i = icmp eq i32 %retval.i.0.i.i.i.i.i.i.i.i.i, 1
  br i1 %cmp6.i.i.i.i.i.i.i.i.i, label %if.then7.i.i.i.i.i.i.i.i.i, label %_ZSt8_DestroyISt10shared_ptrIN8facebook5velox4exec17FunctionSignatureEEEvPT_.exit.i.i.i.i

if.then7.i.i.i.i.i.i.i.i.i:                       ; preds = %_ZN9__gnu_cxx27__exchange_and_add_dispatchEPii.exit.i.i.i.i.i.i.i.i.i
  %vtable.i.i.i.i.i.i.i.i.i.i.i = load ptr, ptr %42, align 8
  %vfn.i.i.i.i.i.i.i.i.i.i.i = getelementptr inbounds ptr, ptr %vtable.i.i.i.i.i.i.i.i.i.i.i, i64 2
  %48 = load ptr, ptr %vfn.i.i.i.i.i.i.i.i.i.i.i, align 8
  call void %48(ptr noundef nonnull align 8 dereferenceable(16) %42) #20
  %_M_weak_count.i.i.i.i.i.i.i.i.i.i.i = getelementptr inbounds %"class.std::_Sp_counted_base", ptr %42, i64 0, i32 2
  %49 = load i8, ptr @__libc_single_threaded, align 1
  %tobool.i.i.not.i.i.i.i.i.i.i.i.i.i.i = icmp eq i8 %49, 0
  br i1 %tobool.i.i.not.i.i.i.i.i.i.i.i.i.i.i, label %if.else.i.i.i.i.i.i.i.i.i.i.i.i, label %if.then.i.i.i.i.i.i.i.i.i.i.i.i

if.then.i.i.i.i.i.i.i.i.i.i.i.i:                  ; preds = %if.then7.i.i.i.i.i.i.i.i.i
  %50 = load i32, ptr %_M_weak_count.i.i.i.i.i.i.i.i.i.i.i, align 4
  %add.i.i.i.i.i.i.i.i.i.i.i.i = add nsw i32 %50, -1
  store i32 %add.i.i.i.i.i.i.i.i.i.i.i.i, ptr %_M_weak_count.i.i.i.i.i.i.i.i.i.i.i, align 4
  br label %_ZN9__gnu_cxx27__exchange_and_add_dispatchEPii.exit.i.i.i.i.i.i.i.i.i.i.i

if.else.i.i.i.i.i.i.i.i.i.i.i.i:                  ; preds = %if.then7.i.i.i.i.i.i.i.i.i
  %51 = atomicrmw volatile add ptr %_M_weak_count.i.i.i.i.i.i.i.i.i.i.i, i32 -1 acq_rel, align 4
  br label %_ZN9__gnu_cxx27__exchange_and_add_dispatchEPii.exit.i.i.i.i.i.i.i.i.i.i.i

_ZN9__gnu_cxx27__exchange_and_add_dispatchEPii.exit.i.i.i.i.i.i.i.i.i.i.i: ; preds = %if.else.i.i.i.i.i.i.i.i.i.i.i.i, %if.then.i.i.i.i.i.i.i.i.i.i.i.i
  %retval.i.0.i.i.i.i.i.i.i.i.i.i.i = phi i32 [ %50, %if.then.i.i.i.i.i.i.i.i.i.i.i.i ], [ %51, %if.else.i.i.i.i.i.i.i.i.i.i.i.i ]
  %cmp.i.i.i.i.i.i.i.i.i.i.i = icmp eq i32 %retval.i.0.i.i.i.i.i.i.i.i.i.i.i, 1
  br i1 %cmp.i.i.i.i.i.i.i.i.i.i.i, label %if.end8.sink.split.i.i.i.i.i.i.i.i.i, label %_ZSt8_DestroyISt10shared_ptrIN8facebook5velox4exec17FunctionSignatureEEEvPT_.exit.i.i.i.i

if.end8.sink.split.i.i.i.i.i.i.i.i.i:             ; preds = %_ZN9__gnu_cxx27__exchange_and_add_dispatchEPii.exit.i.i.i.i.i.i.i.i.i.i.i, %if.then.i.i.i.i.i.i.i.i.i
  %vtable2.i.i.i.i.i.i.i.i.i.i.i = load ptr, ptr %42, align 8
  %vfn3.i.i.i.i.i.i.i.i.i.i.i = getelementptr inbounds ptr, ptr %vtable2.i.i.i.i.i.i.i.i.i.i.i, i64 3
  %52 = load ptr, ptr %vfn3.i.i.i.i.i.i.i.i.i.i.i, align 8
  call void %52(ptr noundef nonnull align 8 dereferenceable(16) %42) #20
  br label %_ZSt8_DestroyISt10shared_ptrIN8facebook5velox4exec17FunctionSignatureEEEvPT_.exit.i.i.i.i

_ZSt8_DestroyISt10shared_ptrIN8facebook5velox4exec17FunctionSignatureEEEvPT_.exit.i.i.i.i: ; preds = %if.end8.sink.split.i.i.i.i.i.i.i.i.i, %_ZN9__gnu_cxx27__exchange_and_add_dispatchEPii.exit.i.i.i.i.i.i.i.i.i.i.i, %_ZN9__gnu_cxx27__exchange_and_add_dispatchEPii.exit.i.i.i.i.i.i.i.i.i, %for.body.i.i.i.i
  %incdec.ptr.i.i.i.i = getelementptr inbounds %"class.std::shared_ptr", ptr %__first.addr.04.i.i.i.i, i64 1
  %cmp.not.i.i.i.i9 = icmp eq ptr %incdec.ptr.i.i.i.i, %41
  br i1 %cmp.not.i.i.i.i9, label %invoke.contthread-pre-split.i, label %for.body.i.i.i.i, !llvm.loop !10

invoke.contthread-pre-split.i:                    ; preds = %_ZSt8_DestroyISt10shared_ptrIN8facebook5velox4exec17FunctionSignatureEEEvPT_.exit.i.i.i.i
  %.pr.i = load ptr, ptr %agg.tmp, align 8
  br label %invoke.cont.i10

invoke.cont.i10:                                  ; preds = %invoke.contthread-pre-split.i, %_ZNSt10unique_ptrIN8facebook5velox9functions12_GLOBAL__N_121ArrayContainsFunctionESt14default_deleteIS4_EED2Ev.exit
  %53 = phi ptr [ %.pr.i, %invoke.contthread-pre-split.i ], [ %40, %_ZNSt10unique_ptrIN8facebook5velox9functions12_GLOBAL__N_121ArrayContainsFunctionESt14default_deleteIS4_EED2Ev.exit ]
  %tobool.not.i.i.i = icmp eq ptr %53, null
  br i1 %tobool.not.i.i.i, label %_ZNSt6vectorISt10shared_ptrIN8facebook5velox4exec17FunctionSignatureEESaIS5_EED2Ev.exit, label %if.then.i.i.i

if.then.i.i.i:                                    ; preds = %invoke.cont.i10
  call void @_ZdlPv(ptr noundef nonnull %53) #23
  br label %_ZNSt6vectorISt10shared_ptrIN8facebook5velox4exec17FunctionSignatureEESaIS5_EED2Ev.exit

_ZNSt6vectorISt10shared_ptrIN8facebook5velox4exec17FunctionSignatureEESaIS5_EED2Ev.exit: ; preds = %invoke.cont.i10, %if.then.i.i.i
  ret void

lpad:                                             ; preds = %_ZN8facebook5velox9functions12_GLOBAL__N_121ArrayContainsFunction10signaturesEv.exit
  %54 = landingpad { ptr, i32 }
          cleanup
  br label %ehcleanup

lpad3:                                            ; preds = %invoke.cont
  %55 = landingpad { ptr, i32 }
          cleanup
  %56 = load ptr, ptr %agg.tmp1, align 8
  %cmp.not.i11 = icmp eq ptr %56, null
  br i1 %cmp.not.i11, label %_ZNSt10unique_ptrIN8facebook5velox9functions12_GLOBAL__N_121ArrayContainsFunctionESt14default_deleteIS4_EED2Ev.exit20, label %_ZNKSt14default_deleteIN8facebook5velox4exec14VectorFunctionEEclEPS3_.exit.i12

_ZNKSt14default_deleteIN8facebook5velox4exec14VectorFunctionEEclEPS3_.exit.i12: ; preds = %lpad3
  %vtable.i.i13 = load ptr, ptr %56, align 8
  %vfn.i.i14 = getelementptr inbounds ptr, ptr %vtable.i.i13, i64 1
  %57 = load ptr, ptr %vfn.i.i14, align 8
  call void %57(ptr noundef nonnull align 8 dereferenceable(8) %56) #20
  br label %_ZNSt10unique_ptrIN8facebook5velox9functions12_GLOBAL__N_121ArrayContainsFunctionESt14default_deleteIS4_EED2Ev.exit20

_ZNSt10unique_ptrIN8facebook5velox9functions12_GLOBAL__N_121ArrayContainsFunctionESt14default_deleteIS4_EED2Ev.exit20: ; preds = %_ZNKSt14default_deleteIN8facebook5velox4exec14VectorFunctionEEclEPS3_.exit.i12, %lpad3
  store ptr null, ptr %agg.tmp1, align 8
  br label %ehcleanup

ehcleanup:                                        ; preds = %_ZNSt10unique_ptrIN8facebook5velox9functions12_GLOBAL__N_121ArrayContainsFunctionESt14default_deleteIS4_EED2Ev.exit20, %lpad
  %.pn = phi { ptr, i32 } [ %55, %_ZNSt10unique_ptrIN8facebook5velox9functions12_GLOBAL__N_121ArrayContainsFunctionESt14default_deleteIS4_EED2Ev.exit20 ], [ %54, %lpad ]
  call void @_ZNSt6vectorISt10shared_ptrIN8facebook5velox4exec17FunctionSignatureEESaIS5_EED2Ev(ptr noundef nonnull align 8 dereferenceable(24) %agg.tmp) #20
  br label %common.resume
}

declare noundef zeroext i1 @_ZN8facebook5velox4exec22registerVectorFunctionERKNSt7__cxx1112basic_stringIcSt11char_traitsIcESaIcEEESt6vectorISt10shared_ptrINS1_17FunctionSignatureEESaISD_EESt10unique_ptrINS1_14VectorFunctionESt14default_deleteISH_EENS1_22VectorFunctionMetadataEb(ptr noundef nonnull align 8 dereferenceable(32), ptr noundef, ptr noundef, i8, i1 noundef zeroext) local_unnamed_addr #1

declare i32 @__gxx_personality_v0(...)

; Function Attrs: mustprogress nounwind uwtable
define linkonce_odr void @_ZNSt6vectorISt10shared_ptrIN8facebook5velox4exec17FunctionSignatureEESaIS5_EED2Ev(ptr noundef nonnull align 8 dereferenceable(24) %this) unnamed_addr #2 comdat align 2 personality ptr @__gxx_personality_v0 {
entry:
  %0 = load ptr, ptr %this, align 8
  %_M_finish = getelementptr inbounds %"struct.std::_Vector_base<std::shared_ptr<facebook::velox::exec::FunctionSignature>, std::allocator<std::shared_ptr<facebook::velox::exec::FunctionSignature>>>::_Vector_impl_data", ptr %this, i64 0, i32 1
  %1 = load ptr, ptr %_M_finish, align 8
  %cmp.not3.i.i.i = icmp eq ptr %0, %1
  br i1 %cmp.not3.i.i.i, label %invoke.cont, label %for.body.i.i.i

for.body.i.i.i:                                   ; preds = %entry, %_ZSt8_DestroyISt10shared_ptrIN8facebook5velox4exec17FunctionSignatureEEEvPT_.exit.i.i.i
  %__first.addr.04.i.i.i = phi ptr [ %incdec.ptr.i.i.i, %_ZSt8_DestroyISt10shared_ptrIN8facebook5velox4exec17FunctionSignatureEEEvPT_.exit.i.i.i ], [ %0, %entry ]
  %_M_refcount.i.i.i.i.i.i = getelementptr inbounds %"class.std::__shared_ptr", ptr %__first.addr.04.i.i.i, i64 0, i32 1
  %2 = load ptr, ptr %_M_refcount.i.i.i.i.i.i, align 8
  %cmp.not.i.i.i.i.i.i.i = icmp eq ptr %2, null
  br i1 %cmp.not.i.i.i.i.i.i.i, label %_ZSt8_DestroyISt10shared_ptrIN8facebook5velox4exec17FunctionSignatureEEEvPT_.exit.i.i.i, label %if.then.i.i.i.i.i.i.i

if.then.i.i.i.i.i.i.i:                            ; preds = %for.body.i.i.i
  %_M_use_count.i.i.i.i.i.i.i.i = getelementptr inbounds %"class.std::_Sp_counted_base", ptr %2, i64 0, i32 1
  %3 = load atomic i64, ptr %_M_use_count.i.i.i.i.i.i.i.i acquire, align 8
  %cmp.i.i.i.i.i.i.i.i = icmp eq i64 %3, 4294967297
  %4 = trunc i64 %3 to i32
  br i1 %cmp.i.i.i.i.i.i.i.i, label %if.then.i.i.i.i.i.i.i.i, label %if.end.i.i.i.i.i.i.i.i

if.then.i.i.i.i.i.i.i.i:                          ; preds = %if.then.i.i.i.i.i.i.i
  store i32 0, ptr %_M_use_count.i.i.i.i.i.i.i.i, align 8
  %_M_weak_count.i.i.i.i.i.i.i.i = getelementptr inbounds %"class.std::_Sp_counted_base", ptr %2, i64 0, i32 2
  store i32 0, ptr %_M_weak_count.i.i.i.i.i.i.i.i, align 4
  %vtable.i.i.i.i.i.i.i.i = load ptr, ptr %2, align 8
  %vfn.i.i.i.i.i.i.i.i = getelementptr inbounds ptr, ptr %vtable.i.i.i.i.i.i.i.i, i64 2
  %5 = load ptr, ptr %vfn.i.i.i.i.i.i.i.i, align 8
  tail call void %5(ptr noundef nonnull align 8 dereferenceable(16) %2) #20
  br label %if.end8.sink.split.i.i.i.i.i.i.i.i

if.end.i.i.i.i.i.i.i.i:                           ; preds = %if.then.i.i.i.i.i.i.i
  %6 = load i8, ptr @__libc_single_threaded, align 1
  %tobool.i.i.not.i.i.i.i.i.i.i.i = icmp eq i8 %6, 0
  br i1 %tobool.i.i.not.i.i.i.i.i.i.i.i, label %if.else.i.i.i.i.i.i.i.i.i, label %if.then.i.i.i.i.i.i.i.i.i

if.then.i.i.i.i.i.i.i.i.i:                        ; preds = %if.end.i.i.i.i.i.i.i.i
  %add.i.i.i.i.i.i.i.i.i = add nsw i32 %4, -1
  store i32 %add.i.i.i.i.i.i.i.i.i, ptr %_M_use_count.i.i.i.i.i.i.i.i, align 4
  br label %_ZN9__gnu_cxx27__exchange_and_add_dispatchEPii.exit.i.i.i.i.i.i.i.i

if.else.i.i.i.i.i.i.i.i.i:                        ; preds = %if.end.i.i.i.i.i.i.i.i
  %7 = atomicrmw volatile add ptr %_M_use_count.i.i.i.i.i.i.i.i, i32 -1 acq_rel, align 4
  br label %_ZN9__gnu_cxx27__exchange_and_add_dispatchEPii.exit.i.i.i.i.i.i.i.i

_ZN9__gnu_cxx27__exchange_and_add_dispatchEPii.exit.i.i.i.i.i.i.i.i: ; preds = %if.else.i.i.i.i.i.i.i.i.i, %if.then.i.i.i.i.i.i.i.i.i
  %retval.i.0.i.i.i.i.i.i.i.i = phi i32 [ %4, %if.then.i.i.i.i.i.i.i.i.i ], [ %7, %if.else.i.i.i.i.i.i.i.i.i ]
  %cmp6.i.i.i.i.i.i.i.i = icmp eq i32 %retval.i.0.i.i.i.i.i.i.i.i, 1
  br i1 %cmp6.i.i.i.i.i.i.i.i, label %if.then7.i.i.i.i.i.i.i.i, label %_ZSt8_DestroyISt10shared_ptrIN8facebook5velox4exec17FunctionSignatureEEEvPT_.exit.i.i.i

if.then7.i.i.i.i.i.i.i.i:                         ; preds = %_ZN9__gnu_cxx27__exchange_and_add_dispatchEPii.exit.i.i.i.i.i.i.i.i
  %vtable.i.i.i.i.i.i.i.i.i.i = load ptr, ptr %2, align 8
  %vfn.i.i.i.i.i.i.i.i.i.i = getelementptr inbounds ptr, ptr %vtable.i.i.i.i.i.i.i.i.i.i, i64 2
  %8 = load ptr, ptr %vfn.i.i.i.i.i.i.i.i.i.i, align 8
  tail call void %8(ptr noundef nonnull align 8 dereferenceable(16) %2) #20
  %_M_weak_count.i.i.i.i.i.i.i.i.i.i = getelementptr inbounds %"class.std::_Sp_counted_base", ptr %2, i64 0, i32 2
  %9 = load i8, ptr @__libc_single_threaded, align 1
  %tobool.i.i.not.i.i.i.i.i.i.i.i.i.i = icmp eq i8 %9, 0
  br i1 %tobool.i.i.not.i.i.i.i.i.i.i.i.i.i, label %if.else.i.i.i.i.i.i.i.i.i.i.i, label %if.then.i.i.i.i.i.i.i.i.i.i.i

if.then.i.i.i.i.i.i.i.i.i.i.i:                    ; preds = %if.then7.i.i.i.i.i.i.i.i
  %10 = load i32, ptr %_M_weak_count.i.i.i.i.i.i.i.i.i.i, align 4
  %add.i.i.i.i.i.i.i.i.i.i.i = add nsw i32 %10, -1
  store i32 %add.i.i.i.i.i.i.i.i.i.i.i, ptr %_M_weak_count.i.i.i.i.i.i.i.i.i.i, align 4
  br label %_ZN9__gnu_cxx27__exchange_and_add_dispatchEPii.exit.i.i.i.i.i.i.i.i.i.i

if.else.i.i.i.i.i.i.i.i.i.i.i:                    ; preds = %if.then7.i.i.i.i.i.i.i.i
  %11 = atomicrmw volatile add ptr %_M_weak_count.i.i.i.i.i.i.i.i.i.i, i32 -1 acq_rel, align 4
  br label %_ZN9__gnu_cxx27__exchange_and_add_dispatchEPii.exit.i.i.i.i.i.i.i.i.i.i

_ZN9__gnu_cxx27__exchange_and_add_dispatchEPii.exit.i.i.i.i.i.i.i.i.i.i: ; preds = %if.else.i.i.i.i.i.i.i.i.i.i.i, %if.then.i.i.i.i.i.i.i.i.i.i.i
  %retval.i.0.i.i.i.i.i.i.i.i.i.i = phi i32 [ %10, %if.then.i.i.i.i.i.i.i.i.i.i.i ], [ %11, %if.else.i.i.i.i.i.i.i.i.i.i.i ]
  %cmp.i.i.i.i.i.i.i.i.i.i = icmp eq i32 %retval.i.0.i.i.i.i.i.i.i.i.i.i, 1
  br i1 %cmp.i.i.i.i.i.i.i.i.i.i, label %if.end8.sink.split.i.i.i.i.i.i.i.i, label %_ZSt8_DestroyISt10shared_ptrIN8facebook5velox4exec17FunctionSignatureEEEvPT_.exit.i.i.i

if.end8.sink.split.i.i.i.i.i.i.i.i:               ; preds = %_ZN9__gnu_cxx27__exchange_and_add_dispatchEPii.exit.i.i.i.i.i.i.i.i.i.i, %if.then.i.i.i.i.i.i.i.i
  %vtable2.i.i.i.i.i.i.i.i.i.i = load ptr, ptr %2, align 8
  %vfn3.i.i.i.i.i.i.i.i.i.i = getelementptr inbounds ptr, ptr %vtable2.i.i.i.i.i.i.i.i.i.i, i64 3
  %12 = load ptr, ptr %vfn3.i.i.i.i.i.i.i.i.i.i, align 8
  tail call void %12(ptr noundef nonnull align 8 dereferenceable(16) %2) #20
  br label %_ZSt8_DestroyISt10shared_ptrIN8facebook5velox4exec17FunctionSignatureEEEvPT_.exit.i.i.i

_ZSt8_DestroyISt10shared_ptrIN8facebook5velox4exec17FunctionSignatureEEEvPT_.exit.i.i.i: ; preds = %if.end8.sink.split.i.i.i.i.i.i.i.i, %_ZN9__gnu_cxx27__exchange_and_add_dispatchEPii.exit.i.i.i.i.i.i.i.i.i.i, %_ZN9__gnu_cxx27__exchange_and_add_dispatchEPii.exit.i.i.i.i.i.i.i.i, %for.body.i.i.i
  %incdec.ptr.i.i.i = getelementptr inbounds %"class.std::shared_ptr", ptr %__first.addr.04.i.i.i, i64 1
  %cmp.not.i.i.i = icmp eq ptr %incdec.ptr.i.i.i, %1
  br i1 %cmp.not.i.i.i, label %invoke.contthread-pre-split, label %for.body.i.i.i, !llvm.loop !10

invoke.contthread-pre-split:                      ; preds = %_ZSt8_DestroyISt10shared_ptrIN8facebook5velox4exec17FunctionSignatureEEEvPT_.exit.i.i.i
  %.pr = load ptr, ptr %this, align 8
  br label %invoke.cont

invoke.cont:                                      ; preds = %invoke.contthread-pre-split, %entry
  %13 = phi ptr [ %.pr, %invoke.contthread-pre-split ], [ %0, %entry ]
  %tobool.not.i.i = icmp eq ptr %13, null
  br i1 %tobool.not.i.i, label %_ZNSt12_Vector_baseISt10shared_ptrIN8facebook5velox4exec17FunctionSignatureEESaIS5_EED2Ev.exit, label %if.then.i.i

if.then.i.i:                                      ; preds = %invoke.cont
  tail call void @_ZdlPv(ptr noundef nonnull %13) #23
  br label %_ZNSt12_Vector_baseISt10shared_ptrIN8facebook5velox4exec17FunctionSignatureEESaIS5_EED2Ev.exit

_ZNSt12_Vector_baseISt10shared_ptrIN8facebook5velox4exec17FunctionSignatureEESaIS5_EED2Ev.exit: ; preds = %invoke.cont, %if.then.i.i
  ret void
}

; Function Attrs: mustprogress nocallback nofree nounwind willreturn memory(argmem: write)
declare void @llvm.memset.p0.i64(ptr nocapture writeonly, i8, i64, i1 immarg) #3

; Function Attrs: mustprogress uwtable
define linkonce_odr noundef nonnull align 8 dereferenceable(225) ptr @_ZN8facebook5velox4exec24FunctionSignatureBuilder12typeVariableERKNSt7__cxx1112basic_stringIcSt11char_traitsIcESaIcEEE(ptr noundef nonnull align 8 dereferenceable(225) %this, ptr noundef nonnull align 8 dereferenceable(32) %name) local_unnamed_addr #0 comdat align 2 personality ptr @__gxx_personality_v0 {
entry:
  %ref.tmp = alloca %"class.facebook::velox::exec::SignatureVariable", align 8
  %agg.tmp = alloca %"class.std::__cxx11::basic_string", align 8
  %agg.tmp2 = alloca %"class.std::optional.24", align 8
  call void @_ZNSt7__cxx1112basic_stringIcSt11char_traitsIcESaIcEEC1ERKS4_(ptr noundef nonnull align 8 dereferenceable(32) %agg.tmp, ptr noundef nonnull align 8 dereferenceable(32) %name)
  invoke void @_ZNSt22_Optional_payload_baseINSt7__cxx1112basic_stringIcSt11char_traitsIcESaIcEEEE8_StorageIS5_Lb0EEC2IJRA1_KcEEESt10in_place_tDpOT_(ptr noundef nonnull align 8 dereferenceable(32) %agg.tmp2, ptr noundef nonnull align 1 dereferenceable(1) @.str.3)
          to label %invoke.cont unwind label %lpad

invoke.cont:                                      ; preds = %entry
  %_M_engaged.i.i.i.i.i = getelementptr inbounds %"struct.std::_Optional_payload_base.29", ptr %agg.tmp2, i64 0, i32 1
  store i8 1, ptr %_M_engaged.i.i.i.i.i, align 8
  invoke void @_ZN8facebook5velox4exec17SignatureVariableC1ENSt7__cxx1112basic_stringIcSt11char_traitsIcESaIcEEESt8optionalIS8_ENS1_13ParameterTypeEbbb(ptr noundef nonnull align 8 dereferenceable(68) %ref.tmp, ptr noundef nonnull %agg.tmp, ptr noundef nonnull %agg.tmp2, i8 noundef signext 0, i1 noundef zeroext false, i1 noundef zeroext false, i1 noundef zeroext false)
          to label %invoke.cont4 unwind label %lpad3

invoke.cont4:                                     ; preds = %invoke.cont
  %call.i.i.i3 = invoke ptr @_ZNKSt10_HashtableINSt7__cxx1112basic_stringIcSt11char_traitsIcESaIcEEESt4pairIKS5_N8facebook5velox4exec17SignatureVariableEESaISC_ENSt8__detail10_Select1stESt8equal_toIS5_ESt4hashIS5_ENSE_18_Mod_range_hashingENSE_20_Default_ranged_hashENSE_20_Prime_rehash_policyENSE_17_Hashtable_traitsILb1ELb0ELb1EEEE4findERS7_(ptr noundef nonnull align 8 dereferenceable(56) %this, ptr noundef nonnull align 8 dereferenceable(32) %ref.tmp)
          to label %call.i.i.i.noexc unwind label %lpad5

call.i.i.i.noexc:                                 ; preds = %invoke.cont4
  %tobool.not.i.i.not.i = icmp eq ptr %call.i.i.i3, null
  br i1 %tobool.not.i.i.not.i, label %if.end.i, label %if.then.i

if.then.i:                                        ; preds = %call.i.i.i.noexc
  call void @llvm.trap()
  unreachable

if.end.i:                                         ; preds = %call.i.i.i.noexc
  %call.i.i4.i4 = invoke { ptr, i8 } @_ZNSt10_HashtableINSt7__cxx1112basic_stringIcSt11char_traitsIcESaIcEEESt4pairIKS5_N8facebook5velox4exec17SignatureVariableEESaISC_ENSt8__detail10_Select1stESt8equal_toIS5_ESt4hashIS5_ENSE_18_Mod_range_hashingENSE_20_Default_ranged_hashENSE_20_Prime_rehash_policyENSE_17_Hashtable_traitsILb1ELb0ELb1EEEE10_M_emplaceIJRS7_RKSB_EEES6_INSE_14_Node_iteratorISC_Lb0ELb1EEEbESt17integral_constantIbLb1EEDpOT_(ptr noundef nonnull align 8 dereferenceable(56) %this, ptr noundef nonnull align 8 dereferenceable(32) %ref.tmp, ptr noundef nonnull align 8 dereferenceable(68) %ref.tmp)
          to label %invoke.cont6 unwind label %lpad5

invoke.cont6:                                     ; preds = %if.end.i
  %constraint_.i = getelementptr inbounds %"class.facebook::velox::exec::SignatureVariable", ptr %ref.tmp, i64 0, i32 1
  call void @_ZNSt7__cxx1112basic_stringIcSt11char_traitsIcESaIcEED1Ev(ptr noundef nonnull align 8 dereferenceable(32) %constraint_.i) #20
  call void @_ZNSt7__cxx1112basic_stringIcSt11char_traitsIcESaIcEED1Ev(ptr noundef nonnull align 8 dereferenceable(32) %ref.tmp) #20
  %0 = load i8, ptr %_M_engaged.i.i.i.i.i, align 8
  %1 = and i8 %0, 1
  %tobool.not.i.i.i.i = icmp eq i8 %1, 0
  br i1 %tobool.not.i.i.i.i, label %_ZNSt8optionalINSt7__cxx1112basic_stringIcSt11char_traitsIcESaIcEEEED2Ev.exit, label %if.then.i.i.i.i

if.then.i.i.i.i:                                  ; preds = %invoke.cont6
  store i8 0, ptr %_M_engaged.i.i.i.i.i, align 8
  call void @_ZNSt7__cxx1112basic_stringIcSt11char_traitsIcESaIcEED1Ev(ptr noundef nonnull align 8 dereferenceable(32) %agg.tmp2) #20
  br label %_ZNSt8optionalINSt7__cxx1112basic_stringIcSt11char_traitsIcESaIcEEEED2Ev.exit

_ZNSt8optionalINSt7__cxx1112basic_stringIcSt11char_traitsIcESaIcEEEED2Ev.exit: ; preds = %invoke.cont6, %if.then.i.i.i.i
  call void @_ZNSt7__cxx1112basic_stringIcSt11char_traitsIcESaIcEED1Ev(ptr noundef nonnull align 8 dereferenceable(32) %agg.tmp) #20
  ret ptr %this

lpad:                                             ; preds = %entry
  %2 = landingpad { ptr, i32 }
          cleanup
  br label %ehcleanup7

lpad3:                                            ; preds = %invoke.cont
  %3 = landingpad { ptr, i32 }
          cleanup
  br label %ehcleanup

lpad5:                                            ; preds = %if.end.i, %invoke.cont4
  %4 = landingpad { ptr, i32 }
          cleanup
  %constraint_.i5 = getelementptr inbounds %"class.facebook::velox::exec::SignatureVariable", ptr %ref.tmp, i64 0, i32 1
  call void @_ZNSt7__cxx1112basic_stringIcSt11char_traitsIcESaIcEED1Ev(ptr noundef nonnull align 8 dereferenceable(32) %constraint_.i5) #20
  call void @_ZNSt7__cxx1112basic_stringIcSt11char_traitsIcESaIcEED1Ev(ptr noundef nonnull align 8 dereferenceable(32) %ref.tmp) #20
  br label %ehcleanup

ehcleanup:                                        ; preds = %lpad5, %lpad3
  %.pn = phi { ptr, i32 } [ %4, %lpad5 ], [ %3, %lpad3 ]
  %5 = load i8, ptr %_M_engaged.i.i.i.i.i, align 8
  %6 = and i8 %5, 1
  %tobool.not.i.i.i.i7 = icmp eq i8 %6, 0
  br i1 %tobool.not.i.i.i.i7, label %ehcleanup7, label %if.then.i.i.i.i8

if.then.i.i.i.i8:                                 ; preds = %ehcleanup
  store i8 0, ptr %_M_engaged.i.i.i.i.i, align 8
  call void @_ZNSt7__cxx1112basic_stringIcSt11char_traitsIcESaIcEED1Ev(ptr noundef nonnull align 8 dereferenceable(32) %agg.tmp2) #20
  br label %ehcleanup7

ehcleanup7:                                       ; preds = %if.then.i.i.i.i8, %ehcleanup, %lpad
  %.pn.pn = phi { ptr, i32 } [ %2, %lpad ], [ %.pn, %ehcleanup ], [ %.pn, %if.then.i.i.i.i8 ]
  call void @_ZNSt7__cxx1112basic_stringIcSt11char_traitsIcESaIcEED1Ev(ptr noundef nonnull align 8 dereferenceable(32) %agg.tmp) #20
  resume { ptr, i32 } %.pn.pn
}

; Function Attrs: nounwind
declare void @_ZNSaIcEC1Ev(ptr noundef nonnull align 1 dereferenceable(1)) unnamed_addr #4

; Function Attrs: mustprogress uwtable
define linkonce_odr noundef nonnull align 8 dereferenceable(225) ptr @_ZN8facebook5velox4exec24FunctionSignatureBuilder10returnTypeERKNSt7__cxx1112basic_stringIcSt11char_traitsIcESaIcEEE(ptr noundef nonnull align 8 dereferenceable(225) %this, ptr noundef nonnull align 8 dereferenceable(32) %type) local_unnamed_addr #0 comdat align 2 personality ptr @__gxx_personality_v0 {
entry:
  %ref.tmp = alloca %"class.facebook::velox::exec::TypeSignature", align 8
  %returnType_ = getelementptr inbounds %"class.facebook::velox::exec::FunctionSignatureBuilder", ptr %this, i64 0, i32 1
  call void @_ZN8facebook5velox4exec18parseTypeSignatureERKNSt7__cxx1112basic_stringIcSt11char_traitsIcESaIcEEE(ptr nonnull sret(%"class.facebook::velox::exec::TypeSignature") align 8 %ref.tmp, ptr noundef nonnull align 8 dereferenceable(32) %type)
  %call = invoke noundef nonnull align 8 dereferenceable(96) ptr @_ZNSt8optionalIN8facebook5velox4exec13TypeSignatureEE7emplaceIJS3_EEENSt9enable_ifIX18is_constructible_vIS3_DpT_EERS3_E4typeEDpOS7_(ptr noundef nonnull align 8 dereferenceable(104) %returnType_, ptr noundef nonnull align 8 dereferenceable(96) %ref.tmp)
          to label %invoke.cont unwind label %lpad

invoke.cont:                                      ; preds = %entry
  %_M_engaged.i.i.i.i.i = getelementptr inbounds %"class.facebook::velox::exec::TypeSignature", ptr %ref.tmp, i64 0, i32 2, i32 0, i32 0, i32 0, i32 0, i32 1
  %0 = load i8, ptr %_M_engaged.i.i.i.i.i, align 8
  %1 = and i8 %0, 1
  %tobool.not.i.i.i.i.i = icmp eq i8 %1, 0
  br i1 %tobool.not.i.i.i.i.i, label %_ZNSt8optionalINSt7__cxx1112basic_stringIcSt11char_traitsIcESaIcEEEED2Ev.exit.i, label %if.then.i.i.i.i.i

if.then.i.i.i.i.i:                                ; preds = %invoke.cont
  %rowFieldName_.i = getelementptr inbounds %"class.facebook::velox::exec::TypeSignature", ptr %ref.tmp, i64 0, i32 2
  store i8 0, ptr %_M_engaged.i.i.i.i.i, align 8
  call void @_ZNSt7__cxx1112basic_stringIcSt11char_traitsIcESaIcEED1Ev(ptr noundef nonnull align 8 dereferenceable(32) %rowFieldName_.i) #20
  br label %_ZNSt8optionalINSt7__cxx1112basic_stringIcSt11char_traitsIcESaIcEEEED2Ev.exit.i

_ZNSt8optionalINSt7__cxx1112basic_stringIcSt11char_traitsIcESaIcEEEED2Ev.exit.i: ; preds = %if.then.i.i.i.i.i, %invoke.cont
  %parameters_.i = getelementptr inbounds %"class.facebook::velox::exec::TypeSignature", ptr %ref.tmp, i64 0, i32 1
  %2 = load ptr, ptr %parameters_.i, align 8
  %_M_finish.i.i = getelementptr inbounds %"class.facebook::velox::exec::TypeSignature", ptr %ref.tmp, i64 0, i32 1, i32 0, i32 0, i32 0, i32 1
  %3 = load ptr, ptr %_M_finish.i.i, align 8
  invoke void @_ZNSt12_Destroy_auxILb0EE9__destroyIPN8facebook5velox4exec13TypeSignatureEEEvT_S7_(ptr noundef %2, ptr noundef %3)
          to label %_ZNSt6vectorIN8facebook5velox4exec13TypeSignatureESaIS3_EED2Ev.exit.i unwind label %terminate.lpad.i.i

terminate.lpad.i.i:                               ; preds = %_ZNSt8optionalINSt7__cxx1112basic_stringIcSt11char_traitsIcESaIcEEEED2Ev.exit.i
  %4 = landingpad { ptr, i32 }
          catch ptr null
  %5 = extractvalue { ptr, i32 } %4, 0
  call void @__clang_call_terminate(ptr %5) #21
  unreachable

_ZNSt6vectorIN8facebook5velox4exec13TypeSignatureESaIS3_EED2Ev.exit.i: ; preds = %_ZNSt8optionalINSt7__cxx1112basic_stringIcSt11char_traitsIcESaIcEEEED2Ev.exit.i
  %6 = load ptr, ptr %parameters_.i, align 8
  %tobool.not.i.i.i = icmp eq ptr %6, null
  br i1 %tobool.not.i.i.i, label %_ZN8facebook5velox4exec13TypeSignatureD2Ev.exit, label %if.then.i.i.i

if.then.i.i.i:                                    ; preds = %_ZNSt6vectorIN8facebook5velox4exec13TypeSignatureESaIS3_EED2Ev.exit.i
  call void @_ZdlPv(ptr noundef nonnull %6) #23
  br label %_ZN8facebook5velox4exec13TypeSignatureD2Ev.exit

_ZN8facebook5velox4exec13TypeSignatureD2Ev.exit:  ; preds = %_ZNSt6vectorIN8facebook5velox4exec13TypeSignatureESaIS3_EED2Ev.exit.i, %if.then.i.i.i
  call void @_ZNSt7__cxx1112basic_stringIcSt11char_traitsIcESaIcEED1Ev(ptr noundef nonnull align 8 dereferenceable(32) %ref.tmp) #20
  ret ptr %this

lpad:                                             ; preds = %entry
  %7 = landingpad { ptr, i32 }
          cleanup
  call void @_ZN8facebook5velox4exec13TypeSignatureD2Ev(ptr noundef nonnull align 8 dereferenceable(96) %ref.tmp) #20
  resume { ptr, i32 } %7
}

; Function Attrs: mustprogress uwtable
define linkonce_odr noundef nonnull align 8 dereferenceable(225) ptr @_ZN8facebook5velox4exec24FunctionSignatureBuilder12argumentTypeERKNSt7__cxx1112basic_stringIcSt11char_traitsIcESaIcEEE(ptr noundef nonnull align 8 dereferenceable(225) %this, ptr noundef nonnull align 8 dereferenceable(32) %type) local_unnamed_addr #0 comdat align 2 personality ptr @__gxx_personality_v0 {
entry:
  %ref.tmp = alloca %"class.facebook::velox::exec::TypeSignature", align 8
  call void @_ZN8facebook5velox4exec18parseTypeSignatureERKNSt7__cxx1112basic_stringIcSt11char_traitsIcESaIcEEE(ptr nonnull sret(%"class.facebook::velox::exec::TypeSignature") align 8 %ref.tmp, ptr noundef nonnull align 8 dereferenceable(32) %type)
  %_M_finish.i = getelementptr inbounds %"class.facebook::velox::exec::FunctionSignatureBuilder", ptr %this, i64 0, i32 2, i32 0, i32 0, i32 0, i32 1
  %0 = load ptr, ptr %_M_finish.i, align 8
  %_M_end_of_storage.i = getelementptr inbounds %"class.facebook::velox::exec::FunctionSignatureBuilder", ptr %this, i64 0, i32 2, i32 0, i32 0, i32 0, i32 2
  %1 = load ptr, ptr %_M_end_of_storage.i, align 8
  %cmp.not.i = icmp eq ptr %0, %1
  br i1 %cmp.not.i, label %if.else.i, label %if.then.i

if.then.i:                                        ; preds = %entry
  invoke void @_ZN8facebook5velox4exec13TypeSignatureC2EOS2_(ptr noundef nonnull align 8 dereferenceable(96) %0, ptr noundef nonnull align 8 dereferenceable(96) %ref.tmp)
          to label %.noexc unwind label %lpad

.noexc:                                           ; preds = %if.then.i
  %2 = load ptr, ptr %_M_finish.i, align 8
  %incdec.ptr.i = getelementptr inbounds %"class.facebook::velox::exec::TypeSignature", ptr %2, i64 1
  store ptr %incdec.ptr.i, ptr %_M_finish.i, align 8
  br label %invoke.cont

if.else.i:                                        ; preds = %entry
  %argumentTypes_ = getelementptr inbounds %"class.facebook::velox::exec::FunctionSignatureBuilder", ptr %this, i64 0, i32 2
  invoke void @_ZNSt6vectorIN8facebook5velox4exec13TypeSignatureESaIS3_EE17_M_realloc_insertIJS3_EEEvN9__gnu_cxx17__normal_iteratorIPS3_S5_EEDpOT_(ptr noundef nonnull align 8 dereferenceable(24) %argumentTypes_, ptr %0, ptr noundef nonnull align 8 dereferenceable(96) %ref.tmp)
          to label %invoke.cont unwind label %lpad

invoke.cont:                                      ; preds = %if.else.i, %.noexc
  %_M_engaged.i.i.i.i.i = getelementptr inbounds %"class.facebook::velox::exec::TypeSignature", ptr %ref.tmp, i64 0, i32 2, i32 0, i32 0, i32 0, i32 0, i32 1
  %3 = load i8, ptr %_M_engaged.i.i.i.i.i, align 8
  %4 = and i8 %3, 1
  %tobool.not.i.i.i.i.i = icmp eq i8 %4, 0
  br i1 %tobool.not.i.i.i.i.i, label %_ZNSt8optionalINSt7__cxx1112basic_stringIcSt11char_traitsIcESaIcEEEED2Ev.exit.i, label %if.then.i.i.i.i.i

if.then.i.i.i.i.i:                                ; preds = %invoke.cont
  %rowFieldName_.i = getelementptr inbounds %"class.facebook::velox::exec::TypeSignature", ptr %ref.tmp, i64 0, i32 2
  store i8 0, ptr %_M_engaged.i.i.i.i.i, align 8
  call void @_ZNSt7__cxx1112basic_stringIcSt11char_traitsIcESaIcEED1Ev(ptr noundef nonnull align 8 dereferenceable(32) %rowFieldName_.i) #20
  br label %_ZNSt8optionalINSt7__cxx1112basic_stringIcSt11char_traitsIcESaIcEEEED2Ev.exit.i

_ZNSt8optionalINSt7__cxx1112basic_stringIcSt11char_traitsIcESaIcEEEED2Ev.exit.i: ; preds = %if.then.i.i.i.i.i, %invoke.cont
  %parameters_.i = getelementptr inbounds %"class.facebook::velox::exec::TypeSignature", ptr %ref.tmp, i64 0, i32 1
  %5 = load ptr, ptr %parameters_.i, align 8
  %_M_finish.i.i = getelementptr inbounds %"class.facebook::velox::exec::TypeSignature", ptr %ref.tmp, i64 0, i32 1, i32 0, i32 0, i32 0, i32 1
  %6 = load ptr, ptr %_M_finish.i.i, align 8
  invoke void @_ZNSt12_Destroy_auxILb0EE9__destroyIPN8facebook5velox4exec13TypeSignatureEEEvT_S7_(ptr noundef %5, ptr noundef %6)
          to label %_ZNSt6vectorIN8facebook5velox4exec13TypeSignatureESaIS3_EED2Ev.exit.i unwind label %terminate.lpad.i.i

terminate.lpad.i.i:                               ; preds = %_ZNSt8optionalINSt7__cxx1112basic_stringIcSt11char_traitsIcESaIcEEEED2Ev.exit.i
  %7 = landingpad { ptr, i32 }
          catch ptr null
  %8 = extractvalue { ptr, i32 } %7, 0
  call void @__clang_call_terminate(ptr %8) #21
  unreachable

_ZNSt6vectorIN8facebook5velox4exec13TypeSignatureESaIS3_EED2Ev.exit.i: ; preds = %_ZNSt8optionalINSt7__cxx1112basic_stringIcSt11char_traitsIcESaIcEEEED2Ev.exit.i
  %9 = load ptr, ptr %parameters_.i, align 8
  %tobool.not.i.i.i = icmp eq ptr %9, null
  br i1 %tobool.not.i.i.i, label %_ZN8facebook5velox4exec13TypeSignatureD2Ev.exit, label %if.then.i.i.i

if.then.i.i.i:                                    ; preds = %_ZNSt6vectorIN8facebook5velox4exec13TypeSignatureESaIS3_EED2Ev.exit.i
  call void @_ZdlPv(ptr noundef nonnull %9) #23
  br label %_ZN8facebook5velox4exec13TypeSignatureD2Ev.exit

_ZN8facebook5velox4exec13TypeSignatureD2Ev.exit:  ; preds = %_ZNSt6vectorIN8facebook5velox4exec13TypeSignatureESaIS3_EED2Ev.exit.i, %if.then.i.i.i
  call void @_ZNSt7__cxx1112basic_stringIcSt11char_traitsIcESaIcEED1Ev(ptr noundef nonnull align 8 dereferenceable(32) %ref.tmp) #20
  %_M_finish.i2 = getelementptr inbounds %"class.facebook::velox::exec::FunctionSignatureBuilder", ptr %this, i64 0, i32 3, i32 0, i32 0, i32 0, i32 1
  %10 = load ptr, ptr %_M_finish.i2, align 8
  %_M_end_of_storage.i.i = getelementptr inbounds %"class.facebook::velox::exec::FunctionSignatureBuilder", ptr %this, i64 0, i32 3, i32 0, i32 0, i32 0, i32 2
  %11 = load ptr, ptr %_M_end_of_storage.i.i, align 8
  %cmp.not.i3 = icmp eq ptr %10, %11
  %retval.sroa.2.0._M_finish.sroa_idx.i.i = getelementptr inbounds %"class.facebook::velox::exec::FunctionSignatureBuilder", ptr %this, i64 0, i32 3, i32 0, i32 0, i32 0, i32 1, i32 0, i32 1
  %retval.sroa.2.0.copyload.i5.i = load i32, ptr %retval.sroa.2.0._M_finish.sroa_idx.i.i, align 8
  br i1 %cmp.not.i3, label %if.else.i6, label %if.then.i4

if.then.i4:                                       ; preds = %_ZN8facebook5velox4exec13TypeSignatureD2Ev.exit
  %inc.i.i.i = add i32 %retval.sroa.2.0.copyload.i5.i, 1
  store i32 %inc.i.i.i, ptr %retval.sroa.2.0._M_finish.sroa_idx.i.i, align 8
  %cmp.i.i.i = icmp eq i32 %retval.sroa.2.0.copyload.i5.i, 63
  br i1 %cmp.i.i.i, label %if.then.i.i.i5, label %_ZNSt13_Bit_iteratorppEi.exit.i

if.then.i.i.i5:                                   ; preds = %if.then.i4
  store i32 0, ptr %retval.sroa.2.0._M_finish.sroa_idx.i.i, align 8
  %incdec.ptr.i.i.i = getelementptr inbounds i64, ptr %10, i64 1
  store ptr %incdec.ptr.i.i.i, ptr %_M_finish.i2, align 8
  br label %_ZNSt13_Bit_iteratorppEi.exit.i

_ZNSt13_Bit_iteratorppEi.exit.i:                  ; preds = %if.then.i.i.i5, %if.then.i4
  %sh_prom.i.i = zext nneg i32 %retval.sroa.2.0.copyload.i5.i to i64
  %shl.i.i = shl nuw i64 1, %sh_prom.i.i
  %not.i.i = xor i64 %shl.i.i, -1
  %12 = load i64, ptr %10, align 8
  %and.i.i = and i64 %12, %not.i.i
  store i64 %and.i.i, ptr %10, align 8
  br label %_ZNSt6vectorIbSaIbEE9push_backEb.exit

if.else.i6:                                       ; preds = %_ZN8facebook5velox4exec13TypeSignatureD2Ev.exit
  %constantArguments_ = getelementptr inbounds %"class.facebook::velox::exec::FunctionSignatureBuilder", ptr %this, i64 0, i32 3
  call void @_ZNSt6vectorIbSaIbEE13_M_insert_auxESt13_Bit_iteratorb(ptr noundef nonnull align 8 dereferenceable(40) %constantArguments_, ptr %10, i32 %retval.sroa.2.0.copyload.i5.i, i1 noundef zeroext false)
  br label %_ZNSt6vectorIbSaIbEE9push_backEb.exit

_ZNSt6vectorIbSaIbEE9push_backEb.exit:            ; preds = %_ZNSt13_Bit_iteratorppEi.exit.i, %if.else.i6
  ret ptr %this

lpad:                                             ; preds = %if.else.i, %if.then.i
  %13 = landingpad { ptr, i32 }
          cleanup
  call void @_ZN8facebook5velox4exec13TypeSignatureD2Ev(ptr noundef nonnull align 8 dereferenceable(96) %ref.tmp) #20
  resume { ptr, i32 } %13
}

declare void @_ZN8facebook5velox4exec24FunctionSignatureBuilder5buildEv(ptr sret(%"class.std::shared_ptr") align 8, ptr noundef nonnull align 8 dereferenceable(225)) local_unnamed_addr #1

; Function Attrs: mustprogress nounwind uwtable
define linkonce_odr void @_ZNSt10shared_ptrIN8facebook5velox4exec17FunctionSignatureEED2Ev(ptr noundef nonnull align 8 dereferenceable(16) %this) unnamed_addr #2 comdat align 2 personality ptr @__gxx_personality_v0 {
entry:
  %_M_refcount.i = getelementptr inbounds %"class.std::__shared_ptr", ptr %this, i64 0, i32 1
  %0 = load ptr, ptr %_M_refcount.i, align 8
  %cmp.not.i.i = icmp eq ptr %0, null
  br i1 %cmp.not.i.i, label %_ZNSt12__shared_ptrIN8facebook5velox4exec17FunctionSignatureELN9__gnu_cxx12_Lock_policyE2EED2Ev.exit, label %if.then.i.i

if.then.i.i:                                      ; preds = %entry
  %_M_use_count.i.i.i = getelementptr inbounds %"class.std::_Sp_counted_base", ptr %0, i64 0, i32 1
  %1 = load atomic i64, ptr %_M_use_count.i.i.i acquire, align 8
  %cmp.i.i.i = icmp eq i64 %1, 4294967297
  %2 = trunc i64 %1 to i32
  br i1 %cmp.i.i.i, label %if.then.i.i.i, label %if.end.i.i.i

if.then.i.i.i:                                    ; preds = %if.then.i.i
  store i32 0, ptr %_M_use_count.i.i.i, align 8
  %_M_weak_count.i.i.i = getelementptr inbounds %"class.std::_Sp_counted_base", ptr %0, i64 0, i32 2
  store i32 0, ptr %_M_weak_count.i.i.i, align 4
  %vtable.i.i.i = load ptr, ptr %0, align 8
  %vfn.i.i.i = getelementptr inbounds ptr, ptr %vtable.i.i.i, i64 2
  %3 = load ptr, ptr %vfn.i.i.i, align 8
  tail call void %3(ptr noundef nonnull align 8 dereferenceable(16) %0) #20
  br label %if.end8.sink.split.i.i.i

if.end.i.i.i:                                     ; preds = %if.then.i.i
  %4 = load i8, ptr @__libc_single_threaded, align 1
  %tobool.i.i.not.i.i.i = icmp eq i8 %4, 0
  br i1 %tobool.i.i.not.i.i.i, label %if.else.i.i.i.i, label %if.then.i.i.i.i

if.then.i.i.i.i:                                  ; preds = %if.end.i.i.i
  %add.i.i.i.i = add nsw i32 %2, -1
  store i32 %add.i.i.i.i, ptr %_M_use_count.i.i.i, align 4
  br label %_ZN9__gnu_cxx27__exchange_and_add_dispatchEPii.exit.i.i.i

if.else.i.i.i.i:                                  ; preds = %if.end.i.i.i
  %5 = atomicrmw volatile add ptr %_M_use_count.i.i.i, i32 -1 acq_rel, align 4
  br label %_ZN9__gnu_cxx27__exchange_and_add_dispatchEPii.exit.i.i.i

_ZN9__gnu_cxx27__exchange_and_add_dispatchEPii.exit.i.i.i: ; preds = %if.else.i.i.i.i, %if.then.i.i.i.i
  %retval.i.0.i.i.i = phi i32 [ %2, %if.then.i.i.i.i ], [ %5, %if.else.i.i.i.i ]
  %cmp6.i.i.i = icmp eq i32 %retval.i.0.i.i.i, 1
  br i1 %cmp6.i.i.i, label %if.then7.i.i.i, label %_ZNSt12__shared_ptrIN8facebook5velox4exec17FunctionSignatureELN9__gnu_cxx12_Lock_policyE2EED2Ev.exit

if.then7.i.i.i:                                   ; preds = %_ZN9__gnu_cxx27__exchange_and_add_dispatchEPii.exit.i.i.i
  %vtable.i.i.i.i.i = load ptr, ptr %0, align 8
  %vfn.i.i.i.i.i = getelementptr inbounds ptr, ptr %vtable.i.i.i.i.i, i64 2
  %6 = load ptr, ptr %vfn.i.i.i.i.i, align 8
  tail call void %6(ptr noundef nonnull align 8 dereferenceable(16) %0) #20
  %_M_weak_count.i.i.i.i.i = getelementptr inbounds %"class.std::_Sp_counted_base", ptr %0, i64 0, i32 2
  %7 = load i8, ptr @__libc_single_threaded, align 1
  %tobool.i.i.not.i.i.i.i.i = icmp eq i8 %7, 0
  br i1 %tobool.i.i.not.i.i.i.i.i, label %if.else.i.i.i.i.i.i, label %if.then.i.i.i.i.i.i

if.then.i.i.i.i.i.i:                              ; preds = %if.then7.i.i.i
  %8 = load i32, ptr %_M_weak_count.i.i.i.i.i, align 4
  %add.i.i.i.i.i.i = add nsw i32 %8, -1
  store i32 %add.i.i.i.i.i.i, ptr %_M_weak_count.i.i.i.i.i, align 4
  br label %_ZN9__gnu_cxx27__exchange_and_add_dispatchEPii.exit.i.i.i.i.i

if.else.i.i.i.i.i.i:                              ; preds = %if.then7.i.i.i
  %9 = atomicrmw volatile add ptr %_M_weak_count.i.i.i.i.i, i32 -1 acq_rel, align 4
  br label %_ZN9__gnu_cxx27__exchange_and_add_dispatchEPii.exit.i.i.i.i.i

_ZN9__gnu_cxx27__exchange_and_add_dispatchEPii.exit.i.i.i.i.i: ; preds = %if.else.i.i.i.i.i.i, %if.then.i.i.i.i.i.i
  %retval.i.0.i.i.i.i.i = phi i32 [ %8, %if.then.i.i.i.i.i.i ], [ %9, %if.else.i.i.i.i.i.i ]
  %cmp.i.i.i.i.i = icmp eq i32 %retval.i.0.i.i.i.i.i, 1
  br i1 %cmp.i.i.i.i.i, label %if.end8.sink.split.i.i.i, label %_ZNSt12__shared_ptrIN8facebook5velox4exec17FunctionSignatureELN9__gnu_cxx12_Lock_policyE2EED2Ev.exit

if.end8.sink.split.i.i.i:                         ; preds = %_ZN9__gnu_cxx27__exchange_and_add_dispatchEPii.exit.i.i.i.i.i, %if.then.i.i.i
  %vtable2.i.i.i.i.i = load ptr, ptr %0, align 8
  %vfn3.i.i.i.i.i = getelementptr inbounds ptr, ptr %vtable2.i.i.i.i.i, i64 3
  %10 = load ptr, ptr %vfn3.i.i.i.i.i, align 8
  tail call void %10(ptr noundef nonnull align 8 dereferenceable(16) %0) #20
  br label %_ZNSt12__shared_ptrIN8facebook5velox4exec17FunctionSignatureELN9__gnu_cxx12_Lock_policyE2EED2Ev.exit

_ZNSt12__shared_ptrIN8facebook5velox4exec17FunctionSignatureELN9__gnu_cxx12_Lock_policyE2EED2Ev.exit: ; preds = %entry, %_ZN9__gnu_cxx27__exchange_and_add_dispatchEPii.exit.i.i.i, %_ZN9__gnu_cxx27__exchange_and_add_dispatchEPii.exit.i.i.i.i.i, %if.end8.sink.split.i.i.i
  ret void
}

; Function Attrs: nounwind
declare void @_ZNSt7__cxx1112basic_stringIcSt11char_traitsIcESaIcEED1Ev(ptr noundef nonnull align 8 dereferenceable(32)) unnamed_addr #4

; Function Attrs: nounwind
declare void @_ZNSaIcED1Ev(ptr noundef nonnull align 1 dereferenceable(1)) unnamed_addr #4

; Function Attrs: mustprogress nounwind uwtable
define linkonce_odr void @_ZN8facebook5velox4exec24FunctionSignatureBuilderD2Ev(ptr noundef nonnull align 8 dereferenceable(225) %this) unnamed_addr #2 comdat align 2 personality ptr @__gxx_personality_v0 {
entry:
  %constantArguments_ = getelementptr inbounds %"class.facebook::velox::exec::FunctionSignatureBuilder", ptr %this, i64 0, i32 3
  %0 = load ptr, ptr %constantArguments_, align 8
  %tobool.not.i.i.i = icmp eq ptr %0, null
  br i1 %tobool.not.i.i.i, label %_ZNSt6vectorIbSaIbEED2Ev.exit, label %if.then.i.i.i

if.then.i.i.i:                                    ; preds = %entry
  %_M_end_of_storage.i.i.i.i = getelementptr inbounds %"class.facebook::velox::exec::FunctionSignatureBuilder", ptr %this, i64 0, i32 3, i32 0, i32 0, i32 0, i32 2
  %1 = load ptr, ptr %_M_end_of_storage.i.i.i.i, align 8
  %sub.ptr.lhs.cast.i.i.i = ptrtoint ptr %1 to i64
  %sub.ptr.rhs.cast.i.i.i = ptrtoint ptr %0 to i64
  %sub.ptr.sub.i.i.i = sub i64 %sub.ptr.lhs.cast.i.i.i, %sub.ptr.rhs.cast.i.i.i
  %sub.ptr.div.i.i.i = ashr exact i64 %sub.ptr.sub.i.i.i, 3
  %idx.neg.i.i.i = sub nsw i64 0, %sub.ptr.div.i.i.i
  %add.ptr.i.i.i = getelementptr inbounds i64, ptr %1, i64 %idx.neg.i.i.i
  tail call void @_ZdlPv(ptr noundef %add.ptr.i.i.i) #23
  store ptr null, ptr %constantArguments_, align 8
  %ref.tmp.sroa.2.0.this.sroa_idx.i.i.i.i = getelementptr inbounds %"class.facebook::velox::exec::FunctionSignatureBuilder", ptr %this, i64 0, i32 3, i32 0, i32 0, i32 0, i32 0, i32 0, i32 1
  store i32 0, ptr %ref.tmp.sroa.2.0.this.sroa_idx.i.i.i.i, align 8
  %ref.tmp.sroa.31.0.this.sroa_idx.i.i.i.i = getelementptr inbounds %"class.facebook::velox::exec::FunctionSignatureBuilder", ptr %this, i64 0, i32 3, i32 0, i32 0, i32 0, i32 1
  store ptr null, ptr %ref.tmp.sroa.31.0.this.sroa_idx.i.i.i.i, align 8
  %ref.tmp.sroa.4.0.this.sroa_idx.i.i.i.i = getelementptr inbounds %"class.facebook::velox::exec::FunctionSignatureBuilder", ptr %this, i64 0, i32 3, i32 0, i32 0, i32 0, i32 1, i32 0, i32 1
  store i32 0, ptr %ref.tmp.sroa.4.0.this.sroa_idx.i.i.i.i, align 8
  store ptr null, ptr %_M_end_of_storage.i.i.i.i, align 8
  br label %_ZNSt6vectorIbSaIbEED2Ev.exit

_ZNSt6vectorIbSaIbEED2Ev.exit:                    ; preds = %entry, %if.then.i.i.i
  %argumentTypes_ = getelementptr inbounds %"class.facebook::velox::exec::FunctionSignatureBuilder", ptr %this, i64 0, i32 2
  %2 = load ptr, ptr %argumentTypes_, align 8
  %_M_finish.i = getelementptr inbounds %"class.facebook::velox::exec::FunctionSignatureBuilder", ptr %this, i64 0, i32 2, i32 0, i32 0, i32 0, i32 1
  %3 = load ptr, ptr %_M_finish.i, align 8
  invoke void @_ZNSt12_Destroy_auxILb0EE9__destroyIPN8facebook5velox4exec13TypeSignatureEEEvT_S7_(ptr noundef %2, ptr noundef %3)
          to label %invoke.cont.i unwind label %terminate.lpad.i

invoke.cont.i:                                    ; preds = %_ZNSt6vectorIbSaIbEED2Ev.exit
  %4 = load ptr, ptr %argumentTypes_, align 8
  %tobool.not.i.i.i1 = icmp eq ptr %4, null
  br i1 %tobool.not.i.i.i1, label %_ZNSt6vectorIN8facebook5velox4exec13TypeSignatureESaIS3_EED2Ev.exit, label %if.then.i.i.i2

if.then.i.i.i2:                                   ; preds = %invoke.cont.i
  tail call void @_ZdlPv(ptr noundef nonnull %4) #23
  br label %_ZNSt6vectorIN8facebook5velox4exec13TypeSignatureESaIS3_EED2Ev.exit

terminate.lpad.i:                                 ; preds = %_ZNSt6vectorIbSaIbEED2Ev.exit
  %5 = landingpad { ptr, i32 }
          catch ptr null
  %6 = extractvalue { ptr, i32 } %5, 0
  tail call void @__clang_call_terminate(ptr %6) #21
  unreachable

_ZNSt6vectorIN8facebook5velox4exec13TypeSignatureESaIS3_EED2Ev.exit: ; preds = %invoke.cont.i, %if.then.i.i.i2
  %returnType_ = getelementptr inbounds %"class.facebook::velox::exec::FunctionSignatureBuilder", ptr %this, i64 0, i32 1
  %_M_engaged.i.i.i.i = getelementptr inbounds %"class.facebook::velox::exec::FunctionSignatureBuilder", ptr %this, i64 0, i32 1, i32 0, i32 0, i32 0, i32 0, i32 1
  %7 = load i8, ptr %_M_engaged.i.i.i.i, align 8
  %8 = and i8 %7, 1
  %tobool.not.i.i.i.i = icmp eq i8 %8, 0
  br i1 %tobool.not.i.i.i.i, label %_ZNSt8optionalIN8facebook5velox4exec13TypeSignatureEED2Ev.exit, label %if.then.i.i.i.i

if.then.i.i.i.i:                                  ; preds = %_ZNSt6vectorIN8facebook5velox4exec13TypeSignatureESaIS3_EED2Ev.exit
  store i8 0, ptr %_M_engaged.i.i.i.i, align 8
  %_M_engaged.i.i.i.i.i.i.i.i.i.i = getelementptr inbounds %"class.facebook::velox::exec::FunctionSignatureBuilder", ptr %this, i64 0, i32 1, i32 0, i32 0, i32 0, i32 0, i32 0, i32 0, i32 2, i32 0, i32 0, i32 0, i32 0, i32 1
  %9 = load i8, ptr %_M_engaged.i.i.i.i.i.i.i.i.i.i, align 8
  %10 = and i8 %9, 1
  %tobool.not.i.i.i.i.i.i.i.i.i.i = icmp eq i8 %10, 0
  br i1 %tobool.not.i.i.i.i.i.i.i.i.i.i, label %_ZNSt8optionalINSt7__cxx1112basic_stringIcSt11char_traitsIcESaIcEEEED2Ev.exit.i.i.i.i.i.i, label %if.then.i.i.i.i.i.i.i.i.i.i

if.then.i.i.i.i.i.i.i.i.i.i:                      ; preds = %if.then.i.i.i.i
  %rowFieldName_.i.i.i.i.i.i = getelementptr inbounds %"class.facebook::velox::exec::FunctionSignatureBuilder", ptr %this, i64 0, i32 1, i32 0, i32 0, i32 0, i32 0, i32 0, i32 0, i32 2
  store i8 0, ptr %_M_engaged.i.i.i.i.i.i.i.i.i.i, align 8
  tail call void @_ZNSt7__cxx1112basic_stringIcSt11char_traitsIcESaIcEED1Ev(ptr noundef nonnull align 8 dereferenceable(32) %rowFieldName_.i.i.i.i.i.i) #20
  br label %_ZNSt8optionalINSt7__cxx1112basic_stringIcSt11char_traitsIcESaIcEEEED2Ev.exit.i.i.i.i.i.i

_ZNSt8optionalINSt7__cxx1112basic_stringIcSt11char_traitsIcESaIcEEEED2Ev.exit.i.i.i.i.i.i: ; preds = %if.then.i.i.i.i.i.i.i.i.i.i, %if.then.i.i.i.i
  %parameters_.i.i.i.i.i.i = getelementptr inbounds %"class.facebook::velox::exec::FunctionSignatureBuilder", ptr %this, i64 0, i32 1, i32 0, i32 0, i32 0, i32 0, i32 0, i32 0, i32 1
  %11 = load ptr, ptr %parameters_.i.i.i.i.i.i, align 8
  %_M_finish.i.i.i.i.i.i.i = getelementptr inbounds %"class.facebook::velox::exec::FunctionSignatureBuilder", ptr %this, i64 0, i32 1, i32 0, i32 0, i32 0, i32 0, i32 0, i32 0, i32 1, i32 0, i32 0, i32 0, i32 1
  %12 = load ptr, ptr %_M_finish.i.i.i.i.i.i.i, align 8
  invoke void @_ZNSt12_Destroy_auxILb0EE9__destroyIPN8facebook5velox4exec13TypeSignatureEEEvT_S7_(ptr noundef %11, ptr noundef %12)
          to label %_ZNSt6vectorIN8facebook5velox4exec13TypeSignatureESaIS3_EED2Ev.exit.i.i.i.i.i.i unwind label %terminate.lpad.i.i.i.i.i.i.i

terminate.lpad.i.i.i.i.i.i.i:                     ; preds = %_ZNSt8optionalINSt7__cxx1112basic_stringIcSt11char_traitsIcESaIcEEEED2Ev.exit.i.i.i.i.i.i
  %13 = landingpad { ptr, i32 }
          catch ptr null
  %14 = extractvalue { ptr, i32 } %13, 0
  tail call void @__clang_call_terminate(ptr %14) #21
  unreachable

_ZNSt6vectorIN8facebook5velox4exec13TypeSignatureESaIS3_EED2Ev.exit.i.i.i.i.i.i: ; preds = %_ZNSt8optionalINSt7__cxx1112basic_stringIcSt11char_traitsIcESaIcEEEED2Ev.exit.i.i.i.i.i.i
  %15 = load ptr, ptr %parameters_.i.i.i.i.i.i, align 8
  %tobool.not.i.i.i.i.i.i.i.i = icmp eq ptr %15, null
  br i1 %tobool.not.i.i.i.i.i.i.i.i, label %_ZNSt22_Optional_payload_baseIN8facebook5velox4exec13TypeSignatureEE10_M_destroyEv.exit.i.i.i.i, label %if.then.i.i.i.i.i.i.i.i

if.then.i.i.i.i.i.i.i.i:                          ; preds = %_ZNSt6vectorIN8facebook5velox4exec13TypeSignatureESaIS3_EED2Ev.exit.i.i.i.i.i.i
  tail call void @_ZdlPv(ptr noundef nonnull %15) #23
  br label %_ZNSt22_Optional_payload_baseIN8facebook5velox4exec13TypeSignatureEE10_M_destroyEv.exit.i.i.i.i

_ZNSt22_Optional_payload_baseIN8facebook5velox4exec13TypeSignatureEE10_M_destroyEv.exit.i.i.i.i: ; preds = %if.then.i.i.i.i.i.i.i.i, %_ZNSt6vectorIN8facebook5velox4exec13TypeSignatureESaIS3_EED2Ev.exit.i.i.i.i.i.i
  tail call void @_ZNSt7__cxx1112basic_stringIcSt11char_traitsIcESaIcEED1Ev(ptr noundef nonnull align 8 dereferenceable(32) %returnType_) #20
  br label %_ZNSt8optionalIN8facebook5velox4exec13TypeSignatureEED2Ev.exit

_ZNSt8optionalIN8facebook5velox4exec13TypeSignatureEED2Ev.exit: ; preds = %_ZNSt6vectorIN8facebook5velox4exec13TypeSignatureESaIS3_EED2Ev.exit, %_ZNSt22_Optional_payload_baseIN8facebook5velox4exec13TypeSignatureEE10_M_destroyEv.exit.i.i.i.i
  %_M_before_begin.i.i.i.i = getelementptr inbounds %"class.std::_Hashtable", ptr %this, i64 0, i32 2
  %16 = load ptr, ptr %_M_before_begin.i.i.i.i, align 8
  %tobool.not3.i.i.i.i = icmp eq ptr %16, null
  br i1 %tobool.not3.i.i.i.i, label %_ZNSt10_HashtableINSt7__cxx1112basic_stringIcSt11char_traitsIcESaIcEEESt4pairIKS5_N8facebook5velox4exec17SignatureVariableEESaISC_ENSt8__detail10_Select1stESt8equal_toIS5_ESt4hashIS5_ENSE_18_Mod_range_hashingENSE_20_Default_ranged_hashENSE_20_Prime_rehash_policyENSE_17_Hashtable_traitsILb1ELb0ELb1EEEE5clearEv.exit.i.i, label %while.body.i.i.i.i

while.body.i.i.i.i:                               ; preds = %_ZNSt8optionalIN8facebook5velox4exec13TypeSignatureEED2Ev.exit, %while.body.i.i.i.i
  %__n.addr.04.i.i.i.i = phi ptr [ %17, %while.body.i.i.i.i ], [ %16, %_ZNSt8optionalIN8facebook5velox4exec13TypeSignatureEED2Ev.exit ]
  %17 = load ptr, ptr %__n.addr.04.i.i.i.i, align 8
  %add.ptr.i.i.i.i.i = getelementptr inbounds i8, ptr %__n.addr.04.i.i.i.i, i64 8
  %second.i.i.i.i.i.i.i.i = getelementptr inbounds i8, ptr %__n.addr.04.i.i.i.i, i64 40
  %constraint_.i.i.i.i.i.i.i.i.i = getelementptr inbounds i8, ptr %__n.addr.04.i.i.i.i, i64 72
  tail call void @_ZNSt7__cxx1112basic_stringIcSt11char_traitsIcESaIcEED1Ev(ptr noundef nonnull align 8 dereferenceable(32) %constraint_.i.i.i.i.i.i.i.i.i) #20
  tail call void @_ZNSt7__cxx1112basic_stringIcSt11char_traitsIcESaIcEED1Ev(ptr noundef nonnull align 8 dereferenceable(32) %second.i.i.i.i.i.i.i.i) #20
  tail call void @_ZNSt7__cxx1112basic_stringIcSt11char_traitsIcESaIcEED1Ev(ptr noundef nonnull align 8 dereferenceable(32) %add.ptr.i.i.i.i.i) #20
  tail call void @_ZdlPv(ptr noundef nonnull %__n.addr.04.i.i.i.i) #23
  %tobool.not.i.i.i.i3 = icmp eq ptr %17, null
  br i1 %tobool.not.i.i.i.i3, label %_ZNSt10_HashtableINSt7__cxx1112basic_stringIcSt11char_traitsIcESaIcEEESt4pairIKS5_N8facebook5velox4exec17SignatureVariableEESaISC_ENSt8__detail10_Select1stESt8equal_toIS5_ESt4hashIS5_ENSE_18_Mod_range_hashingENSE_20_Default_ranged_hashENSE_20_Prime_rehash_policyENSE_17_Hashtable_traitsILb1ELb0ELb1EEEE5clearEv.exit.i.i, label %while.body.i.i.i.i, !llvm.loop !12

_ZNSt10_HashtableINSt7__cxx1112basic_stringIcSt11char_traitsIcESaIcEEESt4pairIKS5_N8facebook5velox4exec17SignatureVariableEESaISC_ENSt8__detail10_Select1stESt8equal_toIS5_ESt4hashIS5_ENSE_18_Mod_range_hashingENSE_20_Default_ranged_hashENSE_20_Prime_rehash_policyENSE_17_Hashtable_traitsILb1ELb0ELb1EEEE5clearEv.exit.i.i: ; preds = %while.body.i.i.i.i, %_ZNSt8optionalIN8facebook5velox4exec13TypeSignatureEED2Ev.exit
  %18 = load ptr, ptr %this, align 8
  %_M_bucket_count.i.i.i = getelementptr inbounds %"class.std::_Hashtable", ptr %this, i64 0, i32 1
  %19 = load i64, ptr %_M_bucket_count.i.i.i, align 8
  %mul.i.i.i = shl i64 %19, 3
  tail call void @llvm.memset.p0.i64(ptr align 8 %18, i8 0, i64 %mul.i.i.i, i1 false)
  tail call void @llvm.memset.p0.i64(ptr noundef nonnull align 8 dereferenceable(16) %_M_before_begin.i.i.i.i, i8 0, i64 16, i1 false)
  %20 = load ptr, ptr %this, align 8
  %_M_single_bucket.i.i.i.i.i = getelementptr inbounds %"class.std::_Hashtable", ptr %this, i64 0, i32 5
  %cmp.i.i.i.i.i = icmp eq ptr %_M_single_bucket.i.i.i.i.i, %20
  br i1 %cmp.i.i.i.i.i, label %_ZNSt13unordered_mapINSt7__cxx1112basic_stringIcSt11char_traitsIcESaIcEEEN8facebook5velox4exec17SignatureVariableESt4hashIS5_ESt8equal_toIS5_ESaISt4pairIKS5_S9_EEED2Ev.exit, label %if.end.i.i.i.i

if.end.i.i.i.i:                                   ; preds = %_ZNSt10_HashtableINSt7__cxx1112basic_stringIcSt11char_traitsIcESaIcEEESt4pairIKS5_N8facebook5velox4exec17SignatureVariableEESaISC_ENSt8__detail10_Select1stESt8equal_toIS5_ESt4hashIS5_ENSE_18_Mod_range_hashingENSE_20_Default_ranged_hashENSE_20_Prime_rehash_policyENSE_17_Hashtable_traitsILb1ELb0ELb1EEEE5clearEv.exit.i.i
  tail call void @_ZdlPv(ptr noundef %20) #23
  br label %_ZNSt13unordered_mapINSt7__cxx1112basic_stringIcSt11char_traitsIcESaIcEEEN8facebook5velox4exec17SignatureVariableESt4hashIS5_ESt8equal_toIS5_ESaISt4pairIKS5_S9_EEED2Ev.exit

_ZNSt13unordered_mapINSt7__cxx1112basic_stringIcSt11char_traitsIcESaIcEEEN8facebook5velox4exec17SignatureVariableESt4hashIS5_ESt8equal_toIS5_ESaISt4pairIKS5_S9_EEED2Ev.exit: ; preds = %_ZNSt10_HashtableINSt7__cxx1112basic_stringIcSt11char_traitsIcESaIcEEESt4pairIKS5_N8facebook5velox4exec17SignatureVariableEESaISC_ENSt8__detail10_Select1stESt8equal_toIS5_ESt4hashIS5_ENSE_18_Mod_range_hashingENSE_20_Default_ranged_hashENSE_20_Prime_rehash_policyENSE_17_Hashtable_traitsILb1ELb0ELb1EEEE5clearEv.exit.i.i, %if.end.i.i.i.i
  ret void
}

; Function Attrs: noreturn nounwind uwtable
define linkonce_odr hidden void @__clang_call_terminate(ptr noundef %0) local_unnamed_addr #5 comdat {
  %2 = tail call ptr @__cxa_begin_catch(ptr %0) #20
  tail call void @_ZSt9terminatev() #21
  unreachable
}

declare ptr @__cxa_begin_catch(ptr) local_unnamed_addr

declare void @_ZSt9terminatev() local_unnamed_addr

declare void @_ZNSt7__cxx1112basic_stringIcSt11char_traitsIcESaIcEEC1ERKS4_(ptr noundef nonnull align 8 dereferenceable(32), ptr noundef nonnull align 8 dereferenceable(32)) unnamed_addr #1

declare void @_ZN8facebook5velox4exec17SignatureVariableC1ENSt7__cxx1112basic_stringIcSt11char_traitsIcESaIcEEESt8optionalIS8_ENS1_13ParameterTypeEbbb(ptr noundef nonnull align 8 dereferenceable(68), ptr noundef, ptr noundef, i8 noundef signext, i1 noundef zeroext, i1 noundef zeroext, i1 noundef zeroext) unnamed_addr #1

; Function Attrs: cold noreturn nounwind memory(inaccessiblemem: write)
declare void @llvm.trap() #6

; Function Attrs: mustprogress uwtable
define linkonce_odr ptr @_ZNKSt10_HashtableINSt7__cxx1112basic_stringIcSt11char_traitsIcESaIcEEESt4pairIKS5_N8facebook5velox4exec17SignatureVariableEESaISC_ENSt8__detail10_Select1stESt8equal_toIS5_ESt4hashIS5_ENSE_18_Mod_range_hashingENSE_20_Default_ranged_hashENSE_20_Prime_rehash_policyENSE_17_Hashtable_traitsILb1ELb0ELb1EEEE4findERS7_(ptr noundef nonnull align 8 dereferenceable(56) %this, ptr noundef nonnull align 8 dereferenceable(32) %__k) local_unnamed_addr #0 comdat align 2 personality ptr @__gxx_personality_v0 {
entry:
  %_M_element_count.i = getelementptr inbounds %"class.std::_Hashtable", ptr %this, i64 0, i32 3
  %0 = load i64, ptr %_M_element_count.i, align 8
  %cmp.not = icmp ugt i64 %0, 20
  br i1 %cmp.not, label %if.end15, label %if.then

if.then:                                          ; preds = %entry
  %_M_before_begin.i.i = getelementptr inbounds %"class.std::_Hashtable", ptr %this, i64 0, i32 2
  %retval.sroa.0.08 = load ptr, ptr %_M_before_begin.i.i, align 8
  %cmp.i.not9 = icmp eq ptr %retval.sroa.0.08, null
  br i1 %cmp.i.not9, label %return, label %for.body

for.body:                                         ; preds = %if.then, %for.inc
  %retval.sroa.0.010 = phi ptr [ %retval.sroa.0.0, %for.inc ], [ %retval.sroa.0.08, %if.then ]
  %add.ptr = getelementptr inbounds i8, ptr %retval.sroa.0.010, i64 8
  %call.i.i.i = tail call noundef i64 @_ZNKSt7__cxx1112basic_stringIcSt11char_traitsIcESaIcEE4sizeEv(ptr noundef nonnull align 8 dereferenceable(32) %__k) #20
  %call1.i.i.i = tail call noundef i64 @_ZNKSt7__cxx1112basic_stringIcSt11char_traitsIcESaIcEE4sizeEv(ptr noundef nonnull align 8 dereferenceable(32) %add.ptr) #20
  %cmp.i.i.i = icmp eq i64 %call.i.i.i, %call1.i.i.i
  br i1 %cmp.i.i.i, label %land.rhs.i.i.i, label %for.inc

land.rhs.i.i.i:                                   ; preds = %for.body
  %call2.i.i.i = tail call noundef ptr @_ZNKSt7__cxx1112basic_stringIcSt11char_traitsIcESaIcEE4dataEv(ptr noundef nonnull align 8 dereferenceable(32) %__k) #20
  %call3.i.i.i = tail call noundef ptr @_ZNKSt7__cxx1112basic_stringIcSt11char_traitsIcESaIcEE4dataEv(ptr noundef nonnull align 8 dereferenceable(32) %add.ptr) #20
  %call4.i.i.i = tail call noundef i64 @_ZNKSt7__cxx1112basic_stringIcSt11char_traitsIcESaIcEE4sizeEv(ptr noundef nonnull align 8 dereferenceable(32) %__k) #20
  %cmp.i.i.i.i = icmp eq i64 %call4.i.i.i, 0
  br i1 %cmp.i.i.i.i, label %return, label %_ZNKSt8__detail15_Hashtable_baseINSt7__cxx1112basic_stringIcSt11char_traitsIcESaIcEEESt4pairIKS6_N8facebook5velox4exec17SignatureVariableEENS_10_Select1stESt8equal_toIS6_ESt4hashIS6_ENS_18_Mod_range_hashingENS_20_Default_ranged_hashENS_17_Hashtable_traitsILb1ELb0ELb1EEEE13_M_key_equalsERS8_RKNS_16_Hash_node_valueISD_Lb1EEE.exit

_ZNKSt8__detail15_Hashtable_baseINSt7__cxx1112basic_stringIcSt11char_traitsIcESaIcEEESt4pairIKS6_N8facebook5velox4exec17SignatureVariableEENS_10_Select1stESt8equal_toIS6_ESt4hashIS6_ENS_18_Mod_range_hashingENS_20_Default_ranged_hashENS_17_Hashtable_traitsILb1ELb0ELb1EEEE13_M_key_equalsERS8_RKNS_16_Hash_node_valueISD_Lb1EEE.exit: ; preds = %land.rhs.i.i.i
  %bcmp.i.i.i = tail call i32 @bcmp(ptr %call2.i.i.i, ptr %call3.i.i.i, i64 %call4.i.i.i)
  %1 = icmp eq i32 %bcmp.i.i.i, 0
  br i1 %1, label %return, label %for.inc

for.inc:                                          ; preds = %for.body, %_ZNKSt8__detail15_Hashtable_baseINSt7__cxx1112basic_stringIcSt11char_traitsIcESaIcEEESt4pairIKS6_N8facebook5velox4exec17SignatureVariableEENS_10_Select1stESt8equal_toIS6_ESt4hashIS6_ENS_18_Mod_range_hashingENS_20_Default_ranged_hashENS_17_Hashtable_traitsILb1ELb0ELb1EEEE13_M_key_equalsERS8_RKNS_16_Hash_node_valueISD_Lb1EEE.exit
  %retval.sroa.0.0 = load ptr, ptr %retval.sroa.0.010, align 8
  %cmp.i.not = icmp eq ptr %retval.sroa.0.0, null
  br i1 %cmp.i.not, label %return, label %for.body, !llvm.loop !13

if.end15:                                         ; preds = %entry
  %call.i.i = tail call noundef ptr @_ZNKSt7__cxx1112basic_stringIcSt11char_traitsIcESaIcEE4dataEv(ptr noundef nonnull align 8 dereferenceable(32) %__k) #20
  %call2.i.i = tail call noundef i64 @_ZNKSt7__cxx1112basic_stringIcSt11char_traitsIcESaIcEE6lengthEv(ptr noundef nonnull align 8 dereferenceable(32) %__k) #20
  %call.i2.i.i = invoke noundef i64 @_ZSt11_Hash_bytesPKvmm(ptr noundef %call.i.i, i64 noundef %call2.i.i, i64 noundef 3339675911)
          to label %_ZNKSt8__detail15_Hash_code_baseINSt7__cxx1112basic_stringIcSt11char_traitsIcESaIcEEESt4pairIKS6_N8facebook5velox4exec17SignatureVariableEENS_10_Select1stESt4hashIS6_ENS_18_Mod_range_hashingENS_20_Default_ranged_hashELb1EE12_M_hash_codeERS8_.exit unwind label %terminate.lpad.i.i

terminate.lpad.i.i:                               ; preds = %if.end15
  %2 = landingpad { ptr, i32 }
          catch ptr null
  %3 = extractvalue { ptr, i32 } %2, 0
  tail call void @__clang_call_terminate(ptr %3) #21
  unreachable

_ZNKSt8__detail15_Hash_code_baseINSt7__cxx1112basic_stringIcSt11char_traitsIcESaIcEEESt4pairIKS6_N8facebook5velox4exec17SignatureVariableEENS_10_Select1stESt4hashIS6_ENS_18_Mod_range_hashingENS_20_Default_ranged_hashELb1EE12_M_hash_codeERS8_.exit: ; preds = %if.end15
  %_M_bucket_count.i = getelementptr inbounds %"class.std::_Hashtable", ptr %this, i64 0, i32 1
  %4 = load i64, ptr %_M_bucket_count.i, align 8
  %rem.i.i.i = urem i64 %call.i2.i.i, %4
  %call.i = tail call noundef ptr @_ZNKSt10_HashtableINSt7__cxx1112basic_stringIcSt11char_traitsIcESaIcEEESt4pairIKS5_N8facebook5velox4exec17SignatureVariableEESaISC_ENSt8__detail10_Select1stESt8equal_toIS5_ESt4hashIS5_ENSE_18_Mod_range_hashingENSE_20_Default_ranged_hashENSE_20_Prime_rehash_policyENSE_17_Hashtable_traitsILb1ELb0ELb1EEEE19_M_find_before_nodeEmRS7_m(ptr noundef nonnull align 8 dereferenceable(56) %this, i64 noundef %rem.i.i.i, ptr noundef nonnull align 8 dereferenceable(32) %__k, i64 noundef %call.i2.i.i)
  %tobool.not.i = icmp eq ptr %call.i, null
  br i1 %tobool.not.i, label %return, label %if.then.i

if.then.i:                                        ; preds = %_ZNKSt8__detail15_Hash_code_baseINSt7__cxx1112basic_stringIcSt11char_traitsIcESaIcEEESt4pairIKS6_N8facebook5velox4exec17SignatureVariableEENS_10_Select1stESt4hashIS6_ENS_18_Mod_range_hashingENS_20_Default_ranged_hashELb1EE12_M_hash_codeERS8_.exit
  %5 = load ptr, ptr %call.i, align 8
  br label %return

return:                                           ; preds = %_ZNKSt8__detail15_Hashtable_baseINSt7__cxx1112basic_stringIcSt11char_traitsIcESaIcEEESt4pairIKS6_N8facebook5velox4exec17SignatureVariableEENS_10_Select1stESt8equal_toIS6_ESt4hashIS6_ENS_18_Mod_range_hashingENS_20_Default_ranged_hashENS_17_Hashtable_traitsILb1ELb0ELb1EEEE13_M_key_equalsERS8_RKNS_16_Hash_node_valueISD_Lb1EEE.exit, %for.inc, %land.rhs.i.i.i, %if.then, %if.then.i, %_ZNKSt8__detail15_Hash_code_baseINSt7__cxx1112basic_stringIcSt11char_traitsIcESaIcEEESt4pairIKS6_N8facebook5velox4exec17SignatureVariableEENS_10_Select1stESt4hashIS6_ENS_18_Mod_range_hashingENS_20_Default_ranged_hashELb1EE12_M_hash_codeERS8_.exit
  %retval.sroa.0.1 = phi ptr [ %5, %if.then.i ], [ null, %_ZNKSt8__detail15_Hash_code_baseINSt7__cxx1112basic_stringIcSt11char_traitsIcESaIcEEESt4pairIKS6_N8facebook5velox4exec17SignatureVariableEENS_10_Select1stESt4hashIS6_ENS_18_Mod_range_hashingENS_20_Default_ranged_hashELb1EE12_M_hash_codeERS8_.exit ], [ null, %if.then ], [ %retval.sroa.0.010, %_ZNKSt8__detail15_Hashtable_baseINSt7__cxx1112basic_stringIcSt11char_traitsIcESaIcEEESt4pairIKS6_N8facebook5velox4exec17SignatureVariableEENS_10_Select1stESt8equal_toIS6_ESt4hashIS6_ENS_18_Mod_range_hashingENS_20_Default_ranged_hashENS_17_Hashtable_traitsILb1ELb0ELb1EEEE13_M_key_equalsERS8_RKNS_16_Hash_node_valueISD_Lb1EEE.exit ], [ null, %for.inc ], [ %retval.sroa.0.010, %land.rhs.i.i.i ]
  ret ptr %retval.sroa.0.1
}

; Function Attrs: nounwind
declare noundef i64 @_ZNKSt7__cxx1112basic_stringIcSt11char_traitsIcESaIcEE4sizeEv(ptr noundef nonnull align 8 dereferenceable(32)) local_unnamed_addr #4

; Function Attrs: nounwind
declare noundef ptr @_ZNKSt7__cxx1112basic_stringIcSt11char_traitsIcESaIcEE4dataEv(ptr noundef nonnull align 8 dereferenceable(32)) local_unnamed_addr #4

; Function Attrs: nounwind
declare noundef i64 @_ZNKSt7__cxx1112basic_stringIcSt11char_traitsIcESaIcEE6lengthEv(ptr noundef nonnull align 8 dereferenceable(32)) local_unnamed_addr #4

declare noundef i64 @_ZSt11_Hash_bytesPKvmm(ptr noundef, i64 noundef, i64 noundef) local_unnamed_addr #1

; Function Attrs: mustprogress uwtable
define linkonce_odr noundef ptr @_ZNKSt10_HashtableINSt7__cxx1112basic_stringIcSt11char_traitsIcESaIcEEESt4pairIKS5_N8facebook5velox4exec17SignatureVariableEESaISC_ENSt8__detail10_Select1stESt8equal_toIS5_ESt4hashIS5_ENSE_18_Mod_range_hashingENSE_20_Default_ranged_hashENSE_20_Prime_rehash_policyENSE_17_Hashtable_traitsILb1ELb0ELb1EEEE19_M_find_before_nodeEmRS7_m(ptr noundef nonnull align 8 dereferenceable(56) %this, i64 noundef %__bkt, ptr noundef nonnull align 8 dereferenceable(32) %__k, i64 noundef %__code) local_unnamed_addr #0 comdat align 2 personality ptr @__gxx_personality_v0 {
entry:
  %0 = load ptr, ptr %this, align 8
  %arrayidx = getelementptr inbounds ptr, ptr %0, i64 %__bkt
  %1 = load ptr, ptr %arrayidx, align 8
  %tobool.not = icmp eq ptr %1, null
  br i1 %tobool.not, label %return, label %if.end

if.end:                                           ; preds = %entry
  %2 = load ptr, ptr %1, align 8
  %_M_bucket_count.i = getelementptr inbounds %"class.std::_Hashtable", ptr %this, i64 0, i32 1
  %add.ptr.i.phi.trans.insert = getelementptr inbounds i8, ptr %2, i64 112
  %.pre = load i64, ptr %add.ptr.i.phi.trans.insert, align 8
  br label %for.cond

for.cond:                                         ; preds = %lor.lhs.false, %if.end
  %3 = phi i64 [ %.pre, %if.end ], [ %7, %lor.lhs.false ]
  %__prev_p.0 = phi ptr [ %1, %if.end ], [ %__p.0, %lor.lhs.false ]
  %__p.0 = phi ptr [ %2, %if.end ], [ %5, %lor.lhs.false ]
  %add.ptr = getelementptr inbounds i8, ptr %__p.0, i64 8
  %cmp.i.i = icmp eq i64 %3, %__code
  br i1 %cmp.i.i, label %land.rhs.i, label %if.end3

land.rhs.i:                                       ; preds = %for.cond
  %call.i.i.i.i = tail call noundef i64 @_ZNKSt7__cxx1112basic_stringIcSt11char_traitsIcESaIcEE4sizeEv(ptr noundef nonnull align 8 dereferenceable(32) %__k) #20
  %call1.i.i.i.i = tail call noundef i64 @_ZNKSt7__cxx1112basic_stringIcSt11char_traitsIcESaIcEE4sizeEv(ptr noundef nonnull align 8 dereferenceable(32) %add.ptr) #20
  %cmp.i.i.i.i = icmp eq i64 %call.i.i.i.i, %call1.i.i.i.i
  br i1 %cmp.i.i.i.i, label %land.rhs.i.i.i.i, label %if.end3

land.rhs.i.i.i.i:                                 ; preds = %land.rhs.i
  %call2.i.i.i.i = tail call noundef ptr @_ZNKSt7__cxx1112basic_stringIcSt11char_traitsIcESaIcEE4dataEv(ptr noundef nonnull align 8 dereferenceable(32) %__k) #20
  %call3.i.i.i.i = tail call noundef ptr @_ZNKSt7__cxx1112basic_stringIcSt11char_traitsIcESaIcEE4dataEv(ptr noundef nonnull align 8 dereferenceable(32) %add.ptr) #20
  %call4.i.i.i.i = tail call noundef i64 @_ZNKSt7__cxx1112basic_stringIcSt11char_traitsIcESaIcEE4sizeEv(ptr noundef nonnull align 8 dereferenceable(32) %__k) #20
  %cmp.i.i.i.i.i = icmp eq i64 %call4.i.i.i.i, 0
  br i1 %cmp.i.i.i.i.i, label %return, label %_ZNKSt8__detail15_Hashtable_baseINSt7__cxx1112basic_stringIcSt11char_traitsIcESaIcEEESt4pairIKS6_N8facebook5velox4exec17SignatureVariableEENS_10_Select1stESt8equal_toIS6_ESt4hashIS6_ENS_18_Mod_range_hashingENS_20_Default_ranged_hashENS_17_Hashtable_traitsILb1ELb0ELb1EEEE9_M_equalsERS8_mRKNS_16_Hash_node_valueISD_Lb1EEE.exit

_ZNKSt8__detail15_Hashtable_baseINSt7__cxx1112basic_stringIcSt11char_traitsIcESaIcEEESt4pairIKS6_N8facebook5velox4exec17SignatureVariableEENS_10_Select1stESt8equal_toIS6_ESt4hashIS6_ENS_18_Mod_range_hashingENS_20_Default_ranged_hashENS_17_Hashtable_traitsILb1ELb0ELb1EEEE9_M_equalsERS8_mRKNS_16_Hash_node_valueISD_Lb1EEE.exit: ; preds = %land.rhs.i.i.i.i
  %bcmp.i.i.i.i = tail call i32 @bcmp(ptr %call2.i.i.i.i, ptr %call3.i.i.i.i, i64 %call4.i.i.i.i)
  %4 = icmp eq i32 %bcmp.i.i.i.i, 0
  br i1 %4, label %return, label %if.end3

if.end3:                                          ; preds = %land.rhs.i, %for.cond, %_ZNKSt8__detail15_Hashtable_baseINSt7__cxx1112basic_stringIcSt11char_traitsIcESaIcEEESt4pairIKS6_N8facebook5velox4exec17SignatureVariableEENS_10_Select1stESt8equal_toIS6_ESt4hashIS6_ENS_18_Mod_range_hashingENS_20_Default_ranged_hashENS_17_Hashtable_traitsILb1ELb0ELb1EEEE9_M_equalsERS8_mRKNS_16_Hash_node_valueISD_Lb1EEE.exit
  %5 = load ptr, ptr %__p.0, align 8
  %tobool5.not = icmp eq ptr %5, null
  br i1 %tobool5.not, label %return, label %lor.lhs.false

lor.lhs.false:                                    ; preds = %if.end3
  %6 = load i64, ptr %_M_bucket_count.i, align 8
  %add.ptr.i.i = getelementptr inbounds i8, ptr %5, i64 112
  %7 = load i64, ptr %add.ptr.i.i, align 8
  %rem.i.i.i = urem i64 %7, %6
  %cmp.not = icmp eq i64 %rem.i.i.i, %__bkt
  br i1 %cmp.not, label %for.cond, label %return, !llvm.loop !14

return:                                           ; preds = %land.rhs.i.i.i.i, %lor.lhs.false, %if.end3, %_ZNKSt8__detail15_Hashtable_baseINSt7__cxx1112basic_stringIcSt11char_traitsIcESaIcEEESt4pairIKS6_N8facebook5velox4exec17SignatureVariableEENS_10_Select1stESt8equal_toIS6_ESt4hashIS6_ENS_18_Mod_range_hashingENS_20_Default_ranged_hashENS_17_Hashtable_traitsILb1ELb0ELb1EEEE9_M_equalsERS8_mRKNS_16_Hash_node_valueISD_Lb1EEE.exit, %entry
  %retval.0 = phi ptr [ null, %entry ], [ %__prev_p.0, %land.rhs.i.i.i.i ], [ null, %lor.lhs.false ], [ null, %if.end3 ], [ %__prev_p.0, %_ZNKSt8__detail15_Hashtable_baseINSt7__cxx1112basic_stringIcSt11char_traitsIcESaIcEEESt4pairIKS6_N8facebook5velox4exec17SignatureVariableEENS_10_Select1stESt8equal_toIS6_ESt4hashIS6_ENS_18_Mod_range_hashingENS_20_Default_ranged_hashENS_17_Hashtable_traitsILb1ELb0ELb1EEEE9_M_equalsERS8_mRKNS_16_Hash_node_valueISD_Lb1EEE.exit ]
  ret ptr %retval.0
}

; Function Attrs: mustprogress uwtable
define linkonce_odr { ptr, i8 } @_ZNSt10_HashtableINSt7__cxx1112basic_stringIcSt11char_traitsIcESaIcEEESt4pairIKS5_N8facebook5velox4exec17SignatureVariableEESaISC_ENSt8__detail10_Select1stESt8equal_toIS5_ESt4hashIS5_ENSE_18_Mod_range_hashingENSE_20_Default_ranged_hashENSE_20_Prime_rehash_policyENSE_17_Hashtable_traitsILb1ELb0ELb1EEEE10_M_emplaceIJRS7_RKSB_EEES6_INSE_14_Node_iteratorISC_Lb0ELb1EEEbESt17integral_constantIbLb1EEDpOT_(ptr noundef nonnull align 8 dereferenceable(56) %this, ptr noundef nonnull align 8 dereferenceable(32) %__args, ptr noundef nonnull align 8 dereferenceable(68) %__args1) local_unnamed_addr #0 comdat align 2 personality ptr @__gxx_personality_v0 {
entry:
  %__node = alloca %"struct.std::_Hashtable<std::__cxx11::basic_string<char>, std::pair<const std::__cxx11::basic_string<char>, facebook::velox::exec::SignatureVariable>, std::allocator<std::pair<const std::__cxx11::basic_string<char>, facebook::velox::exec::SignatureVariable>>, std::__detail::_Select1st, std::equal_to<std::__cxx11::basic_string<char>>, std::hash<string>, std::__detail::_Mod_range_hashing, std::__detail::_Default_ranged_hash, std::__detail::_Prime_rehash_policy, std::__detail::_Hashtable_traits<true, false, true>>::_Scoped_node", align 8
  store ptr %this, ptr %__node, align 8
  %_M_node.i = getelementptr inbounds %"struct.std::_Hashtable<std::__cxx11::basic_string<char>, std::pair<const std::__cxx11::basic_string<char>, facebook::velox::exec::SignatureVariable>, std::allocator<std::pair<const std::__cxx11::basic_string<char>, facebook::velox::exec::SignatureVariable>>, std::__detail::_Select1st, std::equal_to<std::__cxx11::basic_string<char>>, std::hash<string>, std::__detail::_Mod_range_hashing, std::__detail::_Default_ranged_hash, std::__detail::_Prime_rehash_policy, std::__detail::_Hashtable_traits<true, false, true>>::_Scoped_node", ptr %__node, i64 0, i32 1
  %call.i = tail call noundef ptr @_ZNSt8__detail16_Hashtable_allocISaINS_10_Hash_nodeISt4pairIKNSt7__cxx1112basic_stringIcSt11char_traitsIcESaIcEEEN8facebook5velox4exec17SignatureVariableEELb1EEEEE16_M_allocate_nodeIJRS9_RKSD_EEEPSF_DpOT_(ptr noundef nonnull align 1 dereferenceable(1) %this, ptr noundef nonnull align 8 dereferenceable(32) %__args, ptr noundef nonnull align 8 dereferenceable(68) %__args1)
  store ptr %call.i, ptr %_M_node.i, align 8
  %add.ptr = getelementptr inbounds i8, ptr %call.i, i64 8
  %_M_element_count.i = getelementptr inbounds %"class.std::_Hashtable", ptr %this, i64 0, i32 3
  %0 = load i64, ptr %_M_element_count.i, align 8
  %cmp.not = icmp ugt i64 %0, 20
  %_M_before_begin.i.i = getelementptr inbounds %"class.std::_Hashtable", ptr %this, i64 0, i32 2
  %__it.sroa.0.026 = load ptr, ptr %_M_before_begin.i.i, align 8
  %cmp.i.not27 = icmp eq ptr %__it.sroa.0.026, null
  %or.cond = select i1 %cmp.not, i1 true, i1 %cmp.i.not27
  br i1 %or.cond, label %if.end20, label %for.body

for.body:                                         ; preds = %entry, %for.inc
  %__it.sroa.0.028 = phi ptr [ %__it.sroa.0.0, %for.inc ], [ %__it.sroa.0.026, %entry ]
  %add.ptr14 = getelementptr inbounds i8, ptr %__it.sroa.0.028, i64 8
  %call.i.i.i = tail call noundef i64 @_ZNKSt7__cxx1112basic_stringIcSt11char_traitsIcESaIcEE4sizeEv(ptr noundef nonnull align 8 dereferenceable(32) %add.ptr) #20
  %call1.i.i.i = tail call noundef i64 @_ZNKSt7__cxx1112basic_stringIcSt11char_traitsIcESaIcEE4sizeEv(ptr noundef nonnull align 8 dereferenceable(32) %add.ptr14) #20
  %cmp.i.i.i = icmp eq i64 %call.i.i.i, %call1.i.i.i
  br i1 %cmp.i.i.i, label %land.rhs.i.i.i, label %for.inc

land.rhs.i.i.i:                                   ; preds = %for.body
  %call2.i.i.i = tail call noundef ptr @_ZNKSt7__cxx1112basic_stringIcSt11char_traitsIcESaIcEE4dataEv(ptr noundef nonnull align 8 dereferenceable(32) %add.ptr) #20
  %call3.i.i.i = tail call noundef ptr @_ZNKSt7__cxx1112basic_stringIcSt11char_traitsIcESaIcEE4dataEv(ptr noundef nonnull align 8 dereferenceable(32) %add.ptr14) #20
  %call4.i.i.i = tail call noundef i64 @_ZNKSt7__cxx1112basic_stringIcSt11char_traitsIcESaIcEE4sizeEv(ptr noundef nonnull align 8 dereferenceable(32) %add.ptr) #20
  %cmp.i.i.i.i = icmp eq i64 %call4.i.i.i, 0
  br i1 %cmp.i.i.i.i, label %cleanup, label %invoke.cont

invoke.cont:                                      ; preds = %land.rhs.i.i.i
  %bcmp.i.i.i = tail call i32 @bcmp(ptr %call2.i.i.i, ptr %call3.i.i.i, i64 %call4.i.i.i)
  %1 = icmp eq i32 %bcmp.i.i.i, 0
  br i1 %1, label %cleanup, label %for.inc

lpad:                                             ; preds = %if.then28, %if.end36
  %2 = landingpad { ptr, i32 }
          cleanup
  call void @_ZNSt10_HashtableINSt7__cxx1112basic_stringIcSt11char_traitsIcESaIcEEESt4pairIKS5_N8facebook5velox4exec17SignatureVariableEESaISC_ENSt8__detail10_Select1stESt8equal_toIS5_ESt4hashIS5_ENSE_18_Mod_range_hashingENSE_20_Default_ranged_hashENSE_20_Prime_rehash_policyENSE_17_Hashtable_traitsILb1ELb0ELb1EEEE12_Scoped_nodeD2Ev(ptr noundef nonnull align 8 dereferenceable(16) %__node) #20
  resume { ptr, i32 } %2

for.inc:                                          ; preds = %for.body, %invoke.cont
  %__it.sroa.0.0 = load ptr, ptr %__it.sroa.0.028, align 8
  %cmp.i.not = icmp eq ptr %__it.sroa.0.0, null
  br i1 %cmp.i.not, label %if.end20, label %for.body, !llvm.loop !15

if.end20:                                         ; preds = %for.inc, %entry
  %call.i.i = tail call noundef ptr @_ZNKSt7__cxx1112basic_stringIcSt11char_traitsIcESaIcEE4dataEv(ptr noundef nonnull align 8 dereferenceable(32) %add.ptr) #20
  %call2.i.i = tail call noundef i64 @_ZNKSt7__cxx1112basic_stringIcSt11char_traitsIcESaIcEE6lengthEv(ptr noundef nonnull align 8 dereferenceable(32) %add.ptr) #20
  %call.i2.i.i = invoke noundef i64 @_ZSt11_Hash_bytesPKvmm(ptr noundef %call.i.i, i64 noundef %call2.i.i, i64 noundef 3339675911)
          to label %invoke.cont23 unwind label %terminate.lpad.i.i

terminate.lpad.i.i:                               ; preds = %if.end20
  %3 = landingpad { ptr, i32 }
          catch ptr null
  %4 = extractvalue { ptr, i32 } %3, 0
  tail call void @__clang_call_terminate(ptr %4) #21
  unreachable

invoke.cont23:                                    ; preds = %if.end20
  %_M_bucket_count.i = getelementptr inbounds %"class.std::_Hashtable", ptr %this, i64 0, i32 1
  %5 = load i64, ptr %_M_bucket_count.i, align 8
  %rem.i.i.i = urem i64 %call.i2.i.i, %5
  %6 = load i64, ptr %_M_element_count.i, align 8
  %cmp27 = icmp ugt i64 %6, 20
  br i1 %cmp27, label %if.then28, label %if.end36

if.then28:                                        ; preds = %invoke.cont23
  %call.i89 = invoke noundef ptr @_ZNKSt10_HashtableINSt7__cxx1112basic_stringIcSt11char_traitsIcESaIcEEESt4pairIKS5_N8facebook5velox4exec17SignatureVariableEESaISC_ENSt8__detail10_Select1stESt8equal_toIS5_ESt4hashIS5_ENSE_18_Mod_range_hashingENSE_20_Default_ranged_hashENSE_20_Prime_rehash_policyENSE_17_Hashtable_traitsILb1ELb0ELb1EEEE19_M_find_before_nodeEmRS7_m(ptr noundef nonnull align 8 dereferenceable(56) %this, i64 noundef %rem.i.i.i, ptr noundef nonnull align 8 dereferenceable(32) %add.ptr, i64 noundef %call.i2.i.i)
          to label %call.i8.noexc unwind label %lpad

call.i8.noexc:                                    ; preds = %if.then28
  %tobool.not.i = icmp eq ptr %call.i89, null
  br i1 %tobool.not.i, label %if.end36, label %invoke.cont29

invoke.cont29:                                    ; preds = %call.i8.noexc
  %7 = load ptr, ptr %call.i89, align 8
  %tobool.not = icmp eq ptr %7, null
  br i1 %tobool.not, label %if.end36, label %cleanup

if.end36:                                         ; preds = %call.i8.noexc, %invoke.cont29, %invoke.cont23
  %call39 = invoke ptr @_ZNSt10_HashtableINSt7__cxx1112basic_stringIcSt11char_traitsIcESaIcEEESt4pairIKS5_N8facebook5velox4exec17SignatureVariableEESaISC_ENSt8__detail10_Select1stESt8equal_toIS5_ESt4hashIS5_ENSE_18_Mod_range_hashingENSE_20_Default_ranged_hashENSE_20_Prime_rehash_policyENSE_17_Hashtable_traitsILb1ELb0ELb1EEEE21_M_insert_unique_nodeEmmPNSE_10_Hash_nodeISC_Lb1EEEm(ptr noundef nonnull align 8 dereferenceable(56) %this, i64 noundef %rem.i.i.i, i64 noundef %call.i2.i.i, ptr noundef %call.i, i64 noundef 1)
          to label %_ZNSt10_HashtableINSt7__cxx1112basic_stringIcSt11char_traitsIcESaIcEEESt4pairIKS5_N8facebook5velox4exec17SignatureVariableEESaISC_ENSt8__detail10_Select1stESt8equal_toIS5_ESt4hashIS5_ENSE_18_Mod_range_hashingENSE_20_Default_ranged_hashENSE_20_Prime_rehash_policyENSE_17_Hashtable_traitsILb1ELb0ELb1EEEE12_Scoped_nodeD2Ev.exit unwind label %lpad

cleanup:                                          ; preds = %invoke.cont, %land.rhs.i.i.i, %invoke.cont29
  %retval.sroa.0.0.ph = phi ptr [ %7, %invoke.cont29 ], [ %__it.sroa.0.028, %land.rhs.i.i.i ], [ %__it.sroa.0.028, %invoke.cont ]
  %tobool.not.i13 = icmp eq ptr %call.i, null
  br i1 %tobool.not.i13, label %_ZNSt10_HashtableINSt7__cxx1112basic_stringIcSt11char_traitsIcESaIcEEESt4pairIKS5_N8facebook5velox4exec17SignatureVariableEESaISC_ENSt8__detail10_Select1stESt8equal_toIS5_ESt4hashIS5_ENSE_18_Mod_range_hashingENSE_20_Default_ranged_hashENSE_20_Prime_rehash_policyENSE_17_Hashtable_traitsILb1ELb0ELb1EEEE12_Scoped_nodeD2Ev.exit, label %if.then.i14

if.then.i14:                                      ; preds = %cleanup
  %second.i.i.i.i.i = getelementptr inbounds i8, ptr %call.i, i64 40
  %constraint_.i.i.i.i.i.i = getelementptr inbounds i8, ptr %call.i, i64 72
  tail call void @_ZNSt7__cxx1112basic_stringIcSt11char_traitsIcESaIcEED1Ev(ptr noundef nonnull align 8 dereferenceable(32) %constraint_.i.i.i.i.i.i) #20
  tail call void @_ZNSt7__cxx1112basic_stringIcSt11char_traitsIcESaIcEED1Ev(ptr noundef nonnull align 8 dereferenceable(32) %second.i.i.i.i.i) #20
  tail call void @_ZNSt7__cxx1112basic_stringIcSt11char_traitsIcESaIcEED1Ev(ptr noundef nonnull align 8 dereferenceable(32) %add.ptr) #20
  tail call void @_ZdlPv(ptr noundef nonnull %call.i) #23
  br label %_ZNSt10_HashtableINSt7__cxx1112basic_stringIcSt11char_traitsIcESaIcEEESt4pairIKS5_N8facebook5velox4exec17SignatureVariableEESaISC_ENSt8__detail10_Select1stESt8equal_toIS5_ESt4hashIS5_ENSE_18_Mod_range_hashingENSE_20_Default_ranged_hashENSE_20_Prime_rehash_policyENSE_17_Hashtable_traitsILb1ELb0ELb1EEEE12_Scoped_nodeD2Ev.exit

_ZNSt10_HashtableINSt7__cxx1112basic_stringIcSt11char_traitsIcESaIcEEESt4pairIKS5_N8facebook5velox4exec17SignatureVariableEESaISC_ENSt8__detail10_Select1stESt8equal_toIS5_ESt4hashIS5_ENSE_18_Mod_range_hashingENSE_20_Default_ranged_hashENSE_20_Prime_rehash_policyENSE_17_Hashtable_traitsILb1ELb0ELb1EEEE12_Scoped_nodeD2Ev.exit: ; preds = %if.end36, %cleanup, %if.then.i14
  %retval.sroa.4.024 = phi i8 [ 0, %cleanup ], [ 0, %if.then.i14 ], [ 1, %if.end36 ]
  %retval.sroa.0.023 = phi ptr [ %retval.sroa.0.0.ph, %cleanup ], [ %retval.sroa.0.0.ph, %if.then.i14 ], [ %call39, %if.end36 ]
  %.fca.0.insert = insertvalue { ptr, i8 } poison, ptr %retval.sroa.0.023, 0
  %.fca.1.insert = insertvalue { ptr, i8 } %.fca.0.insert, i8 %retval.sroa.4.024, 1
  ret { ptr, i8 } %.fca.1.insert
}

; Function Attrs: mustprogress uwtable
define linkonce_odr ptr @_ZNSt10_HashtableINSt7__cxx1112basic_stringIcSt11char_traitsIcESaIcEEESt4pairIKS5_N8facebook5velox4exec17SignatureVariableEESaISC_ENSt8__detail10_Select1stESt8equal_toIS5_ESt4hashIS5_ENSE_18_Mod_range_hashingENSE_20_Default_ranged_hashENSE_20_Prime_rehash_policyENSE_17_Hashtable_traitsILb1ELb0ELb1EEEE21_M_insert_unique_nodeEmmPNSE_10_Hash_nodeISC_Lb1EEEm(ptr noundef nonnull align 8 dereferenceable(56) %this, i64 noundef %__bkt, i64 noundef %__code, ptr noundef %__node, i64 noundef %__n_elt) local_unnamed_addr #0 comdat align 2 personality ptr @__gxx_personality_v0 {
entry:
  %_M_rehash_policy = getelementptr inbounds %"class.std::_Hashtable", ptr %this, i64 0, i32 4
  %_M_next_resize.i = getelementptr inbounds %"class.std::_Hashtable", ptr %this, i64 0, i32 4, i32 1
  %0 = load i64, ptr %_M_next_resize.i, align 8
  %_M_bucket_count = getelementptr inbounds %"class.std::_Hashtable", ptr %this, i64 0, i32 1
  %1 = load i64, ptr %_M_bucket_count, align 8
  %_M_element_count = getelementptr inbounds %"class.std::_Hashtable", ptr %this, i64 0, i32 3
  %2 = load i64, ptr %_M_element_count, align 8
  %call3 = tail call { i8, i64 } @_ZNKSt8__detail20_Prime_rehash_policy14_M_need_rehashEmmm(ptr noundef nonnull align 8 dereferenceable(16) %_M_rehash_policy, i64 noundef %1, i64 noundef %2, i64 noundef %__n_elt)
  %3 = extractvalue { i8, i64 } %call3, 0
  %4 = and i8 %3, 1
  %tobool.not = icmp eq i8 %4, 0
  br i1 %tobool.not, label %if.end, label %if.then

if.then:                                          ; preds = %entry
  %5 = extractvalue { i8, i64 } %call3, 1
  invoke void @_ZNSt10_HashtableINSt7__cxx1112basic_stringIcSt11char_traitsIcESaIcEEESt4pairIKS5_N8facebook5velox4exec17SignatureVariableEESaISC_ENSt8__detail10_Select1stESt8equal_toIS5_ESt4hashIS5_ENSE_18_Mod_range_hashingENSE_20_Default_ranged_hashENSE_20_Prime_rehash_policyENSE_17_Hashtable_traitsILb1ELb0ELb1EEEE13_M_rehash_auxEmSt17integral_constantIbLb1EE(ptr noundef nonnull align 8 dereferenceable(56) %this, i64 noundef %5)
          to label %_ZNSt10_HashtableINSt7__cxx1112basic_stringIcSt11char_traitsIcESaIcEEESt4pairIKS5_N8facebook5velox4exec17SignatureVariableEESaISC_ENSt8__detail10_Select1stESt8equal_toIS5_ESt4hashIS5_ENSE_18_Mod_range_hashingENSE_20_Default_ranged_hashENSE_20_Prime_rehash_policyENSE_17_Hashtable_traitsILb1ELb0ELb1EEEE9_M_rehashEmRKm.exit unwind label %lpad.i

lpad.i:                                           ; preds = %if.then
  %6 = landingpad { ptr, i32 }
          catch ptr null
  %7 = extractvalue { ptr, i32 } %6, 0
  %8 = tail call ptr @__cxa_begin_catch(ptr %7) #20
  store i64 %0, ptr %_M_next_resize.i, align 8
  invoke void @__cxa_rethrow() #24
          to label %unreachable.i unwind label %lpad2.i

lpad2.i:                                          ; preds = %lpad.i
  %9 = landingpad { ptr, i32 }
          cleanup
  invoke void @__cxa_end_catch()
          to label %eh.resume.i unwind label %terminate.lpad.i

eh.resume.i:                                      ; preds = %lpad2.i
  resume { ptr, i32 } %9

terminate.lpad.i:                                 ; preds = %lpad2.i
  %10 = landingpad { ptr, i32 }
          catch ptr null
  %11 = extractvalue { ptr, i32 } %10, 0
  tail call void @__clang_call_terminate(ptr %11) #21
  unreachable

unreachable.i:                                    ; preds = %lpad.i
  unreachable

_ZNSt10_HashtableINSt7__cxx1112basic_stringIcSt11char_traitsIcESaIcEEESt4pairIKS5_N8facebook5velox4exec17SignatureVariableEESaISC_ENSt8__detail10_Select1stESt8equal_toIS5_ESt4hashIS5_ENSE_18_Mod_range_hashingENSE_20_Default_ranged_hashENSE_20_Prime_rehash_policyENSE_17_Hashtable_traitsILb1ELb0ELb1EEEE9_M_rehashEmRKm.exit: ; preds = %if.then
  %12 = load i64, ptr %_M_bucket_count, align 8
  %rem.i.i.i = urem i64 %__code, %12
  br label %if.end

if.end:                                           ; preds = %_ZNSt10_HashtableINSt7__cxx1112basic_stringIcSt11char_traitsIcESaIcEEESt4pairIKS5_N8facebook5velox4exec17SignatureVariableEESaISC_ENSt8__detail10_Select1stESt8equal_toIS5_ESt4hashIS5_ENSE_18_Mod_range_hashingENSE_20_Default_ranged_hashENSE_20_Prime_rehash_policyENSE_17_Hashtable_traitsILb1ELb0ELb1EEEE9_M_rehashEmRKm.exit, %entry
  %__bkt.addr.0 = phi i64 [ %rem.i.i.i, %_ZNSt10_HashtableINSt7__cxx1112basic_stringIcSt11char_traitsIcESaIcEEESt4pairIKS5_N8facebook5velox4exec17SignatureVariableEESaISC_ENSt8__detail10_Select1stESt8equal_toIS5_ESt4hashIS5_ENSE_18_Mod_range_hashingENSE_20_Default_ranged_hashENSE_20_Prime_rehash_policyENSE_17_Hashtable_traitsILb1ELb0ELb1EEEE9_M_rehashEmRKm.exit ], [ %__bkt, %entry ]
  %add.ptr = getelementptr inbounds i8, ptr %__node, i64 112
  store i64 %__code, ptr %add.ptr, align 8
  %13 = load ptr, ptr %this, align 8
  %arrayidx.i = getelementptr inbounds ptr, ptr %13, i64 %__bkt.addr.0
  %14 = load ptr, ptr %arrayidx.i, align 8
  %tobool.not.i = icmp eq ptr %14, null
  br i1 %tobool.not.i, label %if.else.i, label %if.then.i

if.then.i:                                        ; preds = %if.end
  %15 = load ptr, ptr %14, align 8
  store ptr %15, ptr %__node, align 8
  %16 = load ptr, ptr %this, align 8
  %arrayidx6.i = getelementptr inbounds ptr, ptr %16, i64 %__bkt.addr.0
  %17 = load ptr, ptr %arrayidx6.i, align 8
  store ptr %__node, ptr %17, align 8
  br label %_ZNSt10_HashtableINSt7__cxx1112basic_stringIcSt11char_traitsIcESaIcEEESt4pairIKS5_N8facebook5velox4exec17SignatureVariableEESaISC_ENSt8__detail10_Select1stESt8equal_toIS5_ESt4hashIS5_ENSE_18_Mod_range_hashingENSE_20_Default_ranged_hashENSE_20_Prime_rehash_policyENSE_17_Hashtable_traitsILb1ELb0ELb1EEEE22_M_insert_bucket_beginEmPNSE_10_Hash_nodeISC_Lb1EEE.exit

if.else.i:                                        ; preds = %if.end
  %_M_before_begin.i = getelementptr inbounds %"class.std::_Hashtable", ptr %this, i64 0, i32 2
  %18 = load ptr, ptr %_M_before_begin.i, align 8
  store ptr %18, ptr %__node, align 8
  store ptr %__node, ptr %_M_before_begin.i, align 8
  %19 = load ptr, ptr %__node, align 8
  %tobool13.not.i = icmp eq ptr %19, null
  br i1 %tobool13.not.i, label %if.end.i, label %if.then14.i

if.then14.i:                                      ; preds = %if.else.i
  %20 = load ptr, ptr %this, align 8
  %21 = load i64, ptr %_M_bucket_count, align 8
  %add.ptr.i.i.i = getelementptr inbounds i8, ptr %19, i64 112
  %22 = load i64, ptr %add.ptr.i.i.i, align 8
  %rem.i.i.i.i = urem i64 %22, %21
  %arrayidx17.i = getelementptr inbounds ptr, ptr %20, i64 %rem.i.i.i.i
  store ptr %__node, ptr %arrayidx17.i, align 8
  br label %if.end.i

if.end.i:                                         ; preds = %if.then14.i, %if.else.i
  %23 = load ptr, ptr %this, align 8
  %arrayidx20.i = getelementptr inbounds ptr, ptr %23, i64 %__bkt.addr.0
  store ptr %_M_before_begin.i, ptr %arrayidx20.i, align 8
  br label %_ZNSt10_HashtableINSt7__cxx1112basic_stringIcSt11char_traitsIcESaIcEEESt4pairIKS5_N8facebook5velox4exec17SignatureVariableEESaISC_ENSt8__detail10_Select1stESt8equal_toIS5_ESt4hashIS5_ENSE_18_Mod_range_hashingENSE_20_Default_ranged_hashENSE_20_Prime_rehash_policyENSE_17_Hashtable_traitsILb1ELb0ELb1EEEE22_M_insert_bucket_beginEmPNSE_10_Hash_nodeISC_Lb1EEE.exit

_ZNSt10_HashtableINSt7__cxx1112basic_stringIcSt11char_traitsIcESaIcEEESt4pairIKS5_N8facebook5velox4exec17SignatureVariableEESaISC_ENSt8__detail10_Select1stESt8equal_toIS5_ESt4hashIS5_ENSE_18_Mod_range_hashingENSE_20_Default_ranged_hashENSE_20_Prime_rehash_policyENSE_17_Hashtable_traitsILb1ELb0ELb1EEEE22_M_insert_bucket_beginEmPNSE_10_Hash_nodeISC_Lb1EEE.exit: ; preds = %if.then.i, %if.end.i
  %24 = load i64, ptr %_M_element_count, align 8
  %inc = add i64 %24, 1
  store i64 %inc, ptr %_M_element_count, align 8
  ret ptr %__node
}

; Function Attrs: mustprogress nounwind uwtable
define linkonce_odr void @_ZNSt10_HashtableINSt7__cxx1112basic_stringIcSt11char_traitsIcESaIcEEESt4pairIKS5_N8facebook5velox4exec17SignatureVariableEESaISC_ENSt8__detail10_Select1stESt8equal_toIS5_ESt4hashIS5_ENSE_18_Mod_range_hashingENSE_20_Default_ranged_hashENSE_20_Prime_rehash_policyENSE_17_Hashtable_traitsILb1ELb0ELb1EEEE12_Scoped_nodeD2Ev(ptr noundef nonnull align 8 dereferenceable(16) %this) unnamed_addr #2 comdat align 2 personality ptr @__gxx_personality_v0 {
entry:
  %_M_node = getelementptr inbounds %"struct.std::_Hashtable<std::__cxx11::basic_string<char>, std::pair<const std::__cxx11::basic_string<char>, facebook::velox::exec::SignatureVariable>, std::allocator<std::pair<const std::__cxx11::basic_string<char>, facebook::velox::exec::SignatureVariable>>, std::__detail::_Select1st, std::equal_to<std::__cxx11::basic_string<char>>, std::hash<string>, std::__detail::_Mod_range_hashing, std::__detail::_Default_ranged_hash, std::__detail::_Prime_rehash_policy, std::__detail::_Hashtable_traits<true, false, true>>::_Scoped_node", ptr %this, i64 0, i32 1
  %0 = load ptr, ptr %_M_node, align 8
  %tobool.not = icmp eq ptr %0, null
  br i1 %tobool.not, label %if.end, label %if.then

if.then:                                          ; preds = %entry
  %add.ptr.i = getelementptr inbounds i8, ptr %0, i64 8
  %second.i.i.i.i = getelementptr inbounds i8, ptr %0, i64 40
  %constraint_.i.i.i.i.i = getelementptr inbounds i8, ptr %0, i64 72
  tail call void @_ZNSt7__cxx1112basic_stringIcSt11char_traitsIcESaIcEED1Ev(ptr noundef nonnull align 8 dereferenceable(32) %constraint_.i.i.i.i.i) #20
  tail call void @_ZNSt7__cxx1112basic_stringIcSt11char_traitsIcESaIcEED1Ev(ptr noundef nonnull align 8 dereferenceable(32) %second.i.i.i.i) #20
  tail call void @_ZNSt7__cxx1112basic_stringIcSt11char_traitsIcESaIcEED1Ev(ptr noundef nonnull align 8 dereferenceable(32) %add.ptr.i) #20
  tail call void @_ZdlPv(ptr noundef nonnull %0) #23
  br label %if.end

if.end:                                           ; preds = %if.then, %entry
  ret void
}

; Function Attrs: mustprogress uwtable
define linkonce_odr noundef ptr @_ZNSt8__detail16_Hashtable_allocISaINS_10_Hash_nodeISt4pairIKNSt7__cxx1112basic_stringIcSt11char_traitsIcESaIcEEEN8facebook5velox4exec17SignatureVariableEELb1EEEEE16_M_allocate_nodeIJRS9_RKSD_EEEPSF_DpOT_(ptr noundef nonnull align 1 dereferenceable(1) %this, ptr noundef nonnull align 8 dereferenceable(32) %__args, ptr noundef nonnull align 8 dereferenceable(68) %__args1) local_unnamed_addr #0 comdat align 2 personality ptr @__gxx_personality_v0 {
invoke.cont:
  %call5.i.i = tail call noalias noundef nonnull dereferenceable(120) ptr @_Znwm(i64 noundef 120) #22
  store ptr null, ptr %call5.i.i, align 8
  %add.ptr = getelementptr inbounds i8, ptr %call5.i.i, i64 8
  invoke void @_ZNSt7__cxx1112basic_stringIcSt11char_traitsIcESaIcEEC1ERKS4_(ptr noundef nonnull align 8 dereferenceable(32) %add.ptr, ptr noundef nonnull align 8 dereferenceable(32) %__args)
          to label %.noexc unwind label %lpad

.noexc:                                           ; preds = %invoke.cont
  %second.i.i.i = getelementptr inbounds i8, ptr %call5.i.i, i64 40
  invoke void @_ZNSt7__cxx1112basic_stringIcSt11char_traitsIcESaIcEEC1ERKS4_(ptr noundef nonnull align 8 dereferenceable(32) %second.i.i.i, ptr noundef nonnull align 8 dereferenceable(32) %__args1)
          to label %.noexc.i.i.i unwind label %lpad.i.i.i

.noexc.i.i.i:                                     ; preds = %.noexc
  %constraint_.i.i.i.i = getelementptr inbounds i8, ptr %call5.i.i, i64 72
  %constraint_3.i.i.i.i = getelementptr inbounds %"class.facebook::velox::exec::SignatureVariable", ptr %__args1, i64 0, i32 1
  invoke void @_ZNSt7__cxx1112basic_stringIcSt11char_traitsIcESaIcEEC1ERKS4_(ptr noundef nonnull align 8 dereferenceable(32) %constraint_.i.i.i.i, ptr noundef nonnull align 8 dereferenceable(32) %constraint_3.i.i.i.i)
          to label %invoke.cont8 unwind label %lpad.i.i.i.i

lpad.i.i.i.i:                                     ; preds = %.noexc.i.i.i
  %0 = landingpad { ptr, i32 }
          catch ptr null
  tail call void @_ZNSt7__cxx1112basic_stringIcSt11char_traitsIcESaIcEED1Ev(ptr noundef nonnull align 8 dereferenceable(32) %second.i.i.i) #20
  br label %lpad.body.i.i.i

lpad.i.i.i:                                       ; preds = %.noexc
  %1 = landingpad { ptr, i32 }
          catch ptr null
  br label %lpad.body.i.i.i

lpad.body.i.i.i:                                  ; preds = %lpad.i.i.i, %lpad.i.i.i.i
  %eh.lpad-body.i.i.i = phi { ptr, i32 } [ %1, %lpad.i.i.i ], [ %0, %lpad.i.i.i.i ]
  tail call void @_ZNSt7__cxx1112basic_stringIcSt11char_traitsIcESaIcEED1Ev(ptr noundef nonnull align 8 dereferenceable(32) %add.ptr) #20
  br label %invoke.cont12

invoke.cont8:                                     ; preds = %.noexc.i.i.i
  %type_.i.i.i.i = getelementptr inbounds i8, ptr %call5.i.i, i64 104
  %type_4.i.i.i.i = getelementptr inbounds %"class.facebook::velox::exec::SignatureVariable", ptr %__args1, i64 0, i32 2
  %2 = load i32, ptr %type_4.i.i.i.i, align 8
  store i32 %2, ptr %type_.i.i.i.i, align 8
  ret ptr %call5.i.i

lpad:                                             ; preds = %invoke.cont
  %3 = landingpad { ptr, i32 }
          catch ptr null
  br label %invoke.cont12

invoke.cont12:                                    ; preds = %lpad.body.i.i.i, %lpad
  %eh.lpad-body = phi { ptr, i32 } [ %3, %lpad ], [ %eh.lpad-body.i.i.i, %lpad.body.i.i.i ]
  %4 = extractvalue { ptr, i32 } %eh.lpad-body, 0
  %5 = tail call ptr @__cxa_begin_catch(ptr %4) #20
  tail call void @_ZdlPv(ptr noundef nonnull %call5.i.i) #23
  invoke void @__cxa_rethrow() #24
          to label %unreachable unwind label %lpad9

lpad9:                                            ; preds = %invoke.cont12
  %6 = landingpad { ptr, i32 }
          cleanup
  invoke void @__cxa_end_catch()
          to label %eh.resume unwind label %terminate.lpad

eh.resume:                                        ; preds = %lpad9
  resume { ptr, i32 } %6

terminate.lpad:                                   ; preds = %lpad9
  %7 = landingpad { ptr, i32 }
          catch ptr null
  %8 = extractvalue { ptr, i32 } %7, 0
  tail call void @__clang_call_terminate(ptr %8) #21
  unreachable

unreachable:                                      ; preds = %invoke.cont12
  unreachable
}

declare void @__cxa_rethrow() local_unnamed_addr

declare void @__cxa_end_catch() local_unnamed_addr

; Function Attrs: noreturn
declare void @_ZSt28__throw_bad_array_new_lengthv() local_unnamed_addr #7

; Function Attrs: noreturn
declare void @_ZSt17__throw_bad_allocv() local_unnamed_addr #7

; Function Attrs: nobuiltin allocsize(0)
declare noundef nonnull ptr @_Znwm(i64 noundef) local_unnamed_addr #8

; Function Attrs: mustprogress nocallback nofree nounwind willreturn memory(argmem: readwrite)
declare void @llvm.memcpy.p0.p0.i64(ptr noalias nocapture writeonly, ptr noalias nocapture readonly, i64, i1 immarg) #9

; Function Attrs: nobuiltin nounwind
declare void @_ZdlPv(ptr noundef) local_unnamed_addr #10

declare { i8, i64 } @_ZNKSt8__detail20_Prime_rehash_policy14_M_need_rehashEmmm(ptr noundef nonnull align 8 dereferenceable(16), i64 noundef, i64 noundef, i64 noundef) local_unnamed_addr #1

; Function Attrs: mustprogress uwtable
define linkonce_odr void @_ZNSt10_HashtableINSt7__cxx1112basic_stringIcSt11char_traitsIcESaIcEEESt4pairIKS5_N8facebook5velox4exec17SignatureVariableEESaISC_ENSt8__detail10_Select1stESt8equal_toIS5_ESt4hashIS5_ENSE_18_Mod_range_hashingENSE_20_Default_ranged_hashENSE_20_Prime_rehash_policyENSE_17_Hashtable_traitsILb1ELb0ELb1EEEE13_M_rehash_auxEmSt17integral_constantIbLb1EE(ptr noundef nonnull align 8 dereferenceable(56) %this, i64 noundef %__bkt_count) local_unnamed_addr #0 comdat align 2 personality ptr @__gxx_personality_v0 {
entry:
  %cmp.i = icmp eq i64 %__bkt_count, 1
  br i1 %cmp.i, label %if.then.i, label %if.end.i

if.then.i:                                        ; preds = %entry
  %_M_single_bucket.i = getelementptr inbounds %"class.std::_Hashtable", ptr %this, i64 0, i32 5
  store ptr null, ptr %_M_single_bucket.i, align 8
  br label %_ZNSt10_HashtableINSt7__cxx1112basic_stringIcSt11char_traitsIcESaIcEEESt4pairIKS5_N8facebook5velox4exec17SignatureVariableEESaISC_ENSt8__detail10_Select1stESt8equal_toIS5_ESt4hashIS5_ENSE_18_Mod_range_hashingENSE_20_Default_ranged_hashENSE_20_Prime_rehash_policyENSE_17_Hashtable_traitsILb1ELb0ELb1EEEE19_M_allocate_bucketsEm.exit

if.end.i:                                         ; preds = %entry
  %cmp.i.i.i.i = icmp ugt i64 %__bkt_count, 1152921504606846975
  br i1 %cmp.i.i.i.i, label %if.then.i.i.i.i, label %_ZNSt8__detail16_Hashtable_allocISaINS_10_Hash_nodeISt4pairIKNSt7__cxx1112basic_stringIcSt11char_traitsIcESaIcEEEN8facebook5velox4exec17SignatureVariableEELb1EEEEE19_M_allocate_bucketsEm.exit.i

if.then.i.i.i.i:                                  ; preds = %if.end.i
  %cmp2.i.i.i.i = icmp ugt i64 %__bkt_count, 2305843009213693951
  br i1 %cmp2.i.i.i.i, label %if.then3.i.i.i.i, label %if.end.i.i.i.i

if.then3.i.i.i.i:                                 ; preds = %if.then.i.i.i.i
  tail call void @_ZSt28__throw_bad_array_new_lengthv() #24
  unreachable

if.end.i.i.i.i:                                   ; preds = %if.then.i.i.i.i
  tail call void @_ZSt17__throw_bad_allocv() #24
  unreachable

_ZNSt8__detail16_Hashtable_allocISaINS_10_Hash_nodeISt4pairIKNSt7__cxx1112basic_stringIcSt11char_traitsIcESaIcEEEN8facebook5velox4exec17SignatureVariableEELb1EEEEE19_M_allocate_bucketsEm.exit.i: ; preds = %if.end.i
  %mul.i.i.i.i = shl nuw nsw i64 %__bkt_count, 3
  %call5.i.i4.i.i = tail call noalias noundef nonnull ptr @_Znwm(i64 noundef %mul.i.i.i.i) #22
  tail call void @llvm.memset.p0.i64(ptr nonnull align 8 %call5.i.i4.i.i, i8 0, i64 %mul.i.i.i.i, i1 false)
  br label %_ZNSt10_HashtableINSt7__cxx1112basic_stringIcSt11char_traitsIcESaIcEEESt4pairIKS5_N8facebook5velox4exec17SignatureVariableEESaISC_ENSt8__detail10_Select1stESt8equal_toIS5_ESt4hashIS5_ENSE_18_Mod_range_hashingENSE_20_Default_ranged_hashENSE_20_Prime_rehash_policyENSE_17_Hashtable_traitsILb1ELb0ELb1EEEE19_M_allocate_bucketsEm.exit

_ZNSt10_HashtableINSt7__cxx1112basic_stringIcSt11char_traitsIcESaIcEEESt4pairIKS5_N8facebook5velox4exec17SignatureVariableEESaISC_ENSt8__detail10_Select1stESt8equal_toIS5_ESt4hashIS5_ENSE_18_Mod_range_hashingENSE_20_Default_ranged_hashENSE_20_Prime_rehash_policyENSE_17_Hashtable_traitsILb1ELb0ELb1EEEE19_M_allocate_bucketsEm.exit: ; preds = %if.then.i, %_ZNSt8__detail16_Hashtable_allocISaINS_10_Hash_nodeISt4pairIKNSt7__cxx1112basic_stringIcSt11char_traitsIcESaIcEEEN8facebook5velox4exec17SignatureVariableEELb1EEEEE19_M_allocate_bucketsEm.exit.i
  %retval.0.i = phi ptr [ %_M_single_bucket.i, %if.then.i ], [ %call5.i.i4.i.i, %_ZNSt8__detail16_Hashtable_allocISaINS_10_Hash_nodeISt4pairIKNSt7__cxx1112basic_stringIcSt11char_traitsIcESaIcEEEN8facebook5velox4exec17SignatureVariableEELb1EEEEE19_M_allocate_bucketsEm.exit.i ]
  %_M_before_begin.i = getelementptr inbounds %"class.std::_Hashtable", ptr %this, i64 0, i32 2
  %0 = load ptr, ptr %_M_before_begin.i, align 8
  store ptr null, ptr %_M_before_begin.i, align 8
  %tobool.not20 = icmp eq ptr %0, null
  br i1 %tobool.not20, label %while.end, label %while.body

while.body:                                       ; preds = %_ZNSt10_HashtableINSt7__cxx1112basic_stringIcSt11char_traitsIcESaIcEEESt4pairIKS5_N8facebook5velox4exec17SignatureVariableEESaISC_ENSt8__detail10_Select1stESt8equal_toIS5_ESt4hashIS5_ENSE_18_Mod_range_hashingENSE_20_Default_ranged_hashENSE_20_Prime_rehash_policyENSE_17_Hashtable_traitsILb1ELb0ELb1EEEE19_M_allocate_bucketsEm.exit, %if.end22
  %__p.022 = phi ptr [ %1, %if.end22 ], [ %0, %_ZNSt10_HashtableINSt7__cxx1112basic_stringIcSt11char_traitsIcESaIcEEESt4pairIKS5_N8facebook5velox4exec17SignatureVariableEESaISC_ENSt8__detail10_Select1stESt8equal_toIS5_ESt4hashIS5_ENSE_18_Mod_range_hashingENSE_20_Default_ranged_hashENSE_20_Prime_rehash_policyENSE_17_Hashtable_traitsILb1ELb0ELb1EEEE19_M_allocate_bucketsEm.exit ]
  %__bbegin_bkt.021 = phi i64 [ %__bbegin_bkt.1, %if.end22 ], [ 0, %_ZNSt10_HashtableINSt7__cxx1112basic_stringIcSt11char_traitsIcESaIcEEESt4pairIKS5_N8facebook5velox4exec17SignatureVariableEESaISC_ENSt8__detail10_Select1stESt8equal_toIS5_ESt4hashIS5_ENSE_18_Mod_range_hashingENSE_20_Default_ranged_hashENSE_20_Prime_rehash_policyENSE_17_Hashtable_traitsILb1ELb0ELb1EEEE19_M_allocate_bucketsEm.exit ]
  %1 = load ptr, ptr %__p.022, align 8
  %add.ptr.i = getelementptr inbounds i8, ptr %__p.022, i64 112
  %2 = load i64, ptr %add.ptr.i, align 8
  %rem.i.i = urem i64 %2, %__bkt_count
  %arrayidx = getelementptr inbounds ptr, ptr %retval.0.i, i64 %rem.i.i
  %3 = load ptr, ptr %arrayidx, align 8
  %tobool5.not = icmp eq ptr %3, null
  br i1 %tobool5.not, label %if.then, label %if.else

if.then:                                          ; preds = %while.body
  %4 = load ptr, ptr %_M_before_begin.i, align 8
  store ptr %4, ptr %__p.022, align 8
  store ptr %__p.022, ptr %_M_before_begin.i, align 8
  store ptr %_M_before_begin.i, ptr %arrayidx, align 8
  %5 = load ptr, ptr %__p.022, align 8
  %tobool14.not = icmp eq ptr %5, null
  br i1 %tobool14.not, label %if.end22, label %if.then15

if.then15:                                        ; preds = %if.then
  %arrayidx16 = getelementptr inbounds ptr, ptr %retval.0.i, i64 %__bbegin_bkt.021
  br label %if.end22.sink.split

if.else:                                          ; preds = %while.body
  %6 = load ptr, ptr %3, align 8
  store ptr %6, ptr %__p.022, align 8
  %7 = load ptr, ptr %arrayidx, align 8
  br label %if.end22.sink.split

if.end22.sink.split:                              ; preds = %if.else, %if.then15
  %arrayidx16.sink = phi ptr [ %arrayidx16, %if.then15 ], [ %7, %if.else ]
  %__bbegin_bkt.1.ph = phi i64 [ %rem.i.i, %if.then15 ], [ %__bbegin_bkt.021, %if.else ]
  store ptr %__p.022, ptr %arrayidx16.sink, align 8
  br label %if.end22

if.end22:                                         ; preds = %if.end22.sink.split, %if.then
  %__bbegin_bkt.1 = phi i64 [ %rem.i.i, %if.then ], [ %__bbegin_bkt.1.ph, %if.end22.sink.split ]
  %tobool.not = icmp eq ptr %1, null
  br i1 %tobool.not, label %while.end, label %while.body, !llvm.loop !16

while.end:                                        ; preds = %if.end22, %_ZNSt10_HashtableINSt7__cxx1112basic_stringIcSt11char_traitsIcESaIcEEESt4pairIKS5_N8facebook5velox4exec17SignatureVariableEESaISC_ENSt8__detail10_Select1stESt8equal_toIS5_ESt4hashIS5_ENSE_18_Mod_range_hashingENSE_20_Default_ranged_hashENSE_20_Prime_rehash_policyENSE_17_Hashtable_traitsILb1ELb0ELb1EEEE19_M_allocate_bucketsEm.exit
  %8 = load ptr, ptr %this, align 8
  %_M_single_bucket.i.i.i = getelementptr inbounds %"class.std::_Hashtable", ptr %this, i64 0, i32 5
  %cmp.i.i.i = icmp eq ptr %_M_single_bucket.i.i.i, %8
  br i1 %cmp.i.i.i, label %_ZNSt10_HashtableINSt7__cxx1112basic_stringIcSt11char_traitsIcESaIcEEESt4pairIKS5_N8facebook5velox4exec17SignatureVariableEESaISC_ENSt8__detail10_Select1stESt8equal_toIS5_ESt4hashIS5_ENSE_18_Mod_range_hashingENSE_20_Default_ranged_hashENSE_20_Prime_rehash_policyENSE_17_Hashtable_traitsILb1ELb0ELb1EEEE21_M_deallocate_bucketsEv.exit, label %if.end.i.i

if.end.i.i:                                       ; preds = %while.end
  tail call void @_ZdlPv(ptr noundef %8) #23
  br label %_ZNSt10_HashtableINSt7__cxx1112basic_stringIcSt11char_traitsIcESaIcEEESt4pairIKS5_N8facebook5velox4exec17SignatureVariableEESaISC_ENSt8__detail10_Select1stESt8equal_toIS5_ESt4hashIS5_ENSE_18_Mod_range_hashingENSE_20_Default_ranged_hashENSE_20_Prime_rehash_policyENSE_17_Hashtable_traitsILb1ELb0ELb1EEEE21_M_deallocate_bucketsEv.exit

_ZNSt10_HashtableINSt7__cxx1112basic_stringIcSt11char_traitsIcESaIcEEESt4pairIKS5_N8facebook5velox4exec17SignatureVariableEESaISC_ENSt8__detail10_Select1stESt8equal_toIS5_ESt4hashIS5_ENSE_18_Mod_range_hashingENSE_20_Default_ranged_hashENSE_20_Prime_rehash_policyENSE_17_Hashtable_traitsILb1ELb0ELb1EEEE21_M_deallocate_bucketsEv.exit: ; preds = %while.end, %if.end.i.i
  %_M_bucket_count = getelementptr inbounds %"class.std::_Hashtable", ptr %this, i64 0, i32 1
  store i64 %__bkt_count, ptr %_M_bucket_count, align 8
  store ptr %retval.0.i, ptr %this, align 8
  ret void
}

; Function Attrs: mustprogress uwtable
define linkonce_odr void @_ZNSt22_Optional_payload_baseINSt7__cxx1112basic_stringIcSt11char_traitsIcESaIcEEEE8_StorageIS5_Lb0EEC2IJRA1_KcEEESt10in_place_tDpOT_(ptr noundef nonnull align 8 dereferenceable(32) %this, ptr noundef nonnull align 1 dereferenceable(1) %__args) unnamed_addr #0 comdat align 2 personality ptr @__gxx_personality_v0 {
entry:
  %ref.tmp = alloca %"class.std::allocator.2", align 1
  call void @_ZNSaIcEC1Ev(ptr noundef nonnull align 1 dereferenceable(1) %ref.tmp) #20
  %call.i1 = invoke noundef ptr @_ZNSt7__cxx1112basic_stringIcSt11char_traitsIcESaIcEE13_M_local_dataEv(ptr noundef nonnull align 8 dereferenceable(32) %this)
          to label %call.i.noexc unwind label %lpad

call.i.noexc:                                     ; preds = %entry
  invoke void @_ZNSt7__cxx1112basic_stringIcSt11char_traitsIcESaIcEE12_Alloc_hiderC1EPcRKS3_(ptr noundef nonnull align 8 dereferenceable(8) %this, ptr noundef %call.i1, ptr noundef nonnull align 1 dereferenceable(1) %ref.tmp)
          to label %.noexc unwind label %lpad

.noexc:                                           ; preds = %call.i.noexc
  %call.i.i = call noundef i64 @strlen(ptr noundef nonnull dereferenceable(1) %__args) #20
  %add.ptr.i = getelementptr inbounds i8, ptr %__args, i64 %call.i.i
  invoke void @_ZNSt7__cxx1112basic_stringIcSt11char_traitsIcESaIcEE12_M_constructIPKcEEvT_S8_St20forward_iterator_tag(ptr noundef nonnull align 8 dereferenceable(32) %this, ptr noundef nonnull %__args, ptr noundef nonnull %add.ptr.i)
          to label %invoke.cont unwind label %lpad.i

lpad.i:                                           ; preds = %.noexc
  %0 = landingpad { ptr, i32 }
          cleanup
  call void @_ZNSaIcED2Ev(ptr noundef nonnull align 1 dereferenceable(1) %this) #20
  br label %lpad.body

invoke.cont:                                      ; preds = %.noexc
  call void @_ZNSaIcED1Ev(ptr noundef nonnull align 1 dereferenceable(1) %ref.tmp) #20
  ret void

lpad:                                             ; preds = %call.i.noexc, %entry
  %1 = landingpad { ptr, i32 }
          cleanup
  br label %lpad.body

lpad.body:                                        ; preds = %lpad.i, %lpad
  %eh.lpad-body = phi { ptr, i32 } [ %1, %lpad ], [ %0, %lpad.i ]
  call void @_ZNSaIcED1Ev(ptr noundef nonnull align 1 dereferenceable(1) %ref.tmp) #20
  resume { ptr, i32 } %eh.lpad-body
}

declare noundef ptr @_ZNSt7__cxx1112basic_stringIcSt11char_traitsIcESaIcEE13_M_local_dataEv(ptr noundef nonnull align 8 dereferenceable(32)) local_unnamed_addr #1

declare void @_ZNSt7__cxx1112basic_stringIcSt11char_traitsIcESaIcEE12_Alloc_hiderC1EPcRKS3_(ptr noundef nonnull align 8 dereferenceable(8), ptr noundef, ptr noundef nonnull align 1 dereferenceable(1)) unnamed_addr #1

; Function Attrs: mustprogress uwtable
define linkonce_odr void @_ZNSt7__cxx1112basic_stringIcSt11char_traitsIcESaIcEE12_M_constructIPKcEEvT_S8_St20forward_iterator_tag(ptr noundef nonnull align 8 dereferenceable(32) %this, ptr noundef %__beg, ptr noundef %__end) local_unnamed_addr #0 comdat align 2 personality ptr @__gxx_personality_v0 {
entry:
  %__dnew = alloca i64, align 8
  %__guard = alloca %struct._Guard, align 8
  %sub.ptr.lhs.cast.i.i = ptrtoint ptr %__end to i64
  %sub.ptr.rhs.cast.i.i = ptrtoint ptr %__beg to i64
  %sub.ptr.sub.i.i = sub i64 %sub.ptr.lhs.cast.i.i, %sub.ptr.rhs.cast.i.i
  store i64 %sub.ptr.sub.i.i, ptr %__dnew, align 8
  %cmp = icmp ugt i64 %sub.ptr.sub.i.i, 15
  br i1 %cmp, label %if.then, label %if.else

if.then:                                          ; preds = %entry
  %call2 = call noundef ptr @_ZNSt7__cxx1112basic_stringIcSt11char_traitsIcESaIcEE9_M_createERmm(ptr noundef nonnull align 8 dereferenceable(32) %this, ptr noundef nonnull align 8 dereferenceable(8) %__dnew, i64 noundef 0)
  call void @_ZNSt7__cxx1112basic_stringIcSt11char_traitsIcESaIcEE7_M_dataEPc(ptr noundef nonnull align 8 dereferenceable(32) %this, ptr noundef %call2)
  %0 = load i64, ptr %__dnew, align 8
  call void @_ZNSt7__cxx1112basic_stringIcSt11char_traitsIcESaIcEE11_M_capacityEm(ptr noundef nonnull align 8 dereferenceable(32) %this, i64 noundef %0)
  br label %if.end

if.else:                                          ; preds = %entry
  %call.i = invoke noundef ptr @_ZNSt7__cxx1112basic_stringIcSt11char_traitsIcESaIcEE13_M_local_dataEv(ptr noundef nonnull align 8 dereferenceable(32) %this)
          to label %if.end unwind label %terminate.lpad.i

terminate.lpad.i:                                 ; preds = %if.else
  %1 = landingpad { ptr, i32 }
          catch ptr null
  %2 = extractvalue { ptr, i32 } %1, 0
  tail call void @__clang_call_terminate(ptr %2) #21
  unreachable

if.end:                                           ; preds = %if.else, %if.then
  store ptr %this, ptr %__guard, align 8
  %call4 = invoke noundef ptr @_ZNKSt7__cxx1112basic_stringIcSt11char_traitsIcESaIcEE7_M_dataEv(ptr noundef nonnull align 8 dereferenceable(32) %this)
          to label %invoke.cont unwind label %lpad

invoke.cont:                                      ; preds = %if.end
  call void @_ZNSt7__cxx1112basic_stringIcSt11char_traitsIcESaIcEE13_S_copy_charsEPcPKcS7_(ptr noundef %call4, ptr noundef %__beg, ptr noundef %__end) #20
  store ptr null, ptr %__guard, align 8
  %3 = load i64, ptr %__dnew, align 8
  invoke void @_ZNSt7__cxx1112basic_stringIcSt11char_traitsIcESaIcEE13_M_set_lengthEm(ptr noundef nonnull align 8 dereferenceable(32) %this, i64 noundef %3)
          to label %_ZZNSt7__cxx1112basic_stringIcSt11char_traitsIcESaIcEE12_M_constructIPKcEEvT_S8_St20forward_iterator_tagEN6_GuardD2Ev.exit unwind label %lpad

_ZZNSt7__cxx1112basic_stringIcSt11char_traitsIcESaIcEE12_M_constructIPKcEEvT_S8_St20forward_iterator_tagEN6_GuardD2Ev.exit: ; preds = %invoke.cont
  ret void

lpad:                                             ; preds = %invoke.cont, %if.end
  %4 = landingpad { ptr, i32 }
          cleanup
  call void @_ZZNSt7__cxx1112basic_stringIcSt11char_traitsIcESaIcEE12_M_constructIPKcEEvT_S8_St20forward_iterator_tagEN6_GuardD2Ev(ptr noundef nonnull align 8 dereferenceable(8) %__guard) #20
  resume { ptr, i32 } %4
}

; Function Attrs: mustprogress nofree nounwind willreturn memory(argmem: read)
declare i64 @strlen(ptr nocapture noundef) local_unnamed_addr #11

declare void @_ZNSt7__cxx1112basic_stringIcSt11char_traitsIcESaIcEE7_M_dataEPc(ptr noundef nonnull align 8 dereferenceable(32), ptr noundef) local_unnamed_addr #1

declare noundef ptr @_ZNSt7__cxx1112basic_stringIcSt11char_traitsIcESaIcEE9_M_createERmm(ptr noundef nonnull align 8 dereferenceable(32), ptr noundef nonnull align 8 dereferenceable(8), i64 noundef) local_unnamed_addr #1

declare void @_ZNSt7__cxx1112basic_stringIcSt11char_traitsIcESaIcEE11_M_capacityEm(ptr noundef nonnull align 8 dereferenceable(32), i64 noundef) local_unnamed_addr #1

; Function Attrs: nounwind
declare void @_ZNSt7__cxx1112basic_stringIcSt11char_traitsIcESaIcEE13_S_copy_charsEPcPKcS7_(ptr noundef, ptr noundef, ptr noundef) local_unnamed_addr #4

declare noundef ptr @_ZNKSt7__cxx1112basic_stringIcSt11char_traitsIcESaIcEE7_M_dataEv(ptr noundef nonnull align 8 dereferenceable(32)) local_unnamed_addr #1

declare void @_ZNSt7__cxx1112basic_stringIcSt11char_traitsIcESaIcEE13_M_set_lengthEm(ptr noundef nonnull align 8 dereferenceable(32), i64 noundef) local_unnamed_addr #1

; Function Attrs: mustprogress nounwind uwtable
define linkonce_odr void @_ZZNSt7__cxx1112basic_stringIcSt11char_traitsIcESaIcEE12_M_constructIPKcEEvT_S8_St20forward_iterator_tagEN6_GuardD2Ev(ptr noundef nonnull align 8 dereferenceable(8) %this) unnamed_addr #2 comdat align 2 personality ptr @__gxx_personality_v0 {
entry:
  %0 = load ptr, ptr %this, align 8
  %tobool.not = icmp eq ptr %0, null
  br i1 %tobool.not, label %if.end, label %if.then

if.then:                                          ; preds = %entry
  invoke void @_ZNSt7__cxx1112basic_stringIcSt11char_traitsIcESaIcEE10_M_disposeEv(ptr noundef nonnull align 8 dereferenceable(32) %0)
          to label %if.end unwind label %terminate.lpad

if.end:                                           ; preds = %if.then, %entry
  ret void

terminate.lpad:                                   ; preds = %if.then
  %1 = landingpad { ptr, i32 }
          catch ptr null
  %2 = extractvalue { ptr, i32 } %1, 0
  tail call void @__clang_call_terminate(ptr %2) #21
  unreachable
}

declare void @_ZNSt7__cxx1112basic_stringIcSt11char_traitsIcESaIcEE10_M_disposeEv(ptr noundef nonnull align 8 dereferenceable(32)) local_unnamed_addr #1

; Function Attrs: nounwind
declare void @_ZNSaIcED2Ev(ptr noundef nonnull align 1 dereferenceable(1)) unnamed_addr #4

; Function Attrs: mustprogress uwtable
define linkonce_odr noundef nonnull align 8 dereferenceable(96) ptr @_ZNSt8optionalIN8facebook5velox4exec13TypeSignatureEE7emplaceIJS3_EEENSt9enable_ifIX18is_constructible_vIS3_DpT_EERS3_E4typeEDpOS7_(ptr noundef nonnull align 8 dereferenceable(104) %this, ptr noundef nonnull align 8 dereferenceable(96) %__args) local_unnamed_addr #0 comdat align 2 personality ptr @__gxx_personality_v0 {
entry:
  %_M_engaged.i.i = getelementptr inbounds %"struct.std::_Optional_payload_base", ptr %this, i64 0, i32 1
  %0 = load i8, ptr %_M_engaged.i.i, align 8
  %1 = and i8 %0, 1
  %tobool.not.i.i = icmp eq i8 %1, 0
  br i1 %tobool.not.i.i, label %_ZNSt19_Optional_base_implIN8facebook5velox4exec13TypeSignatureESt14_Optional_baseIS3_Lb0ELb0EEE8_M_resetEv.exit, label %if.then.i.i

if.then.i.i:                                      ; preds = %entry
  store i8 0, ptr %_M_engaged.i.i, align 8
  %_M_engaged.i.i.i.i.i.i.i.i = getelementptr inbounds %"class.facebook::velox::exec::TypeSignature", ptr %this, i64 0, i32 2, i32 0, i32 0, i32 0, i32 0, i32 1
  %2 = load i8, ptr %_M_engaged.i.i.i.i.i.i.i.i, align 8
  %3 = and i8 %2, 1
  %tobool.not.i.i.i.i.i.i.i.i = icmp eq i8 %3, 0
  br i1 %tobool.not.i.i.i.i.i.i.i.i, label %_ZNSt8optionalINSt7__cxx1112basic_stringIcSt11char_traitsIcESaIcEEEED2Ev.exit.i.i.i.i, label %if.then.i.i.i.i.i.i.i.i

if.then.i.i.i.i.i.i.i.i:                          ; preds = %if.then.i.i
  %rowFieldName_.i.i.i.i = getelementptr inbounds %"class.facebook::velox::exec::TypeSignature", ptr %this, i64 0, i32 2
  store i8 0, ptr %_M_engaged.i.i.i.i.i.i.i.i, align 8
  tail call void @_ZNSt7__cxx1112basic_stringIcSt11char_traitsIcESaIcEED1Ev(ptr noundef nonnull align 8 dereferenceable(32) %rowFieldName_.i.i.i.i) #20
  br label %_ZNSt8optionalINSt7__cxx1112basic_stringIcSt11char_traitsIcESaIcEEEED2Ev.exit.i.i.i.i

_ZNSt8optionalINSt7__cxx1112basic_stringIcSt11char_traitsIcESaIcEEEED2Ev.exit.i.i.i.i: ; preds = %if.then.i.i.i.i.i.i.i.i, %if.then.i.i
  %parameters_.i.i.i.i = getelementptr inbounds %"class.facebook::velox::exec::TypeSignature", ptr %this, i64 0, i32 1
  %4 = load ptr, ptr %parameters_.i.i.i.i, align 8
  %_M_finish.i.i.i.i.i = getelementptr inbounds %"class.facebook::velox::exec::TypeSignature", ptr %this, i64 0, i32 1, i32 0, i32 0, i32 0, i32 1
  %5 = load ptr, ptr %_M_finish.i.i.i.i.i, align 8
  invoke void @_ZNSt12_Destroy_auxILb0EE9__destroyIPN8facebook5velox4exec13TypeSignatureEEEvT_S7_(ptr noundef %4, ptr noundef %5)
          to label %_ZNSt6vectorIN8facebook5velox4exec13TypeSignatureESaIS3_EED2Ev.exit.i.i.i.i unwind label %terminate.lpad.i.i.i.i.i

terminate.lpad.i.i.i.i.i:                         ; preds = %_ZNSt8optionalINSt7__cxx1112basic_stringIcSt11char_traitsIcESaIcEEEED2Ev.exit.i.i.i.i
  %6 = landingpad { ptr, i32 }
          catch ptr null
  %7 = extractvalue { ptr, i32 } %6, 0
  tail call void @__clang_call_terminate(ptr %7) #21
  unreachable

_ZNSt6vectorIN8facebook5velox4exec13TypeSignatureESaIS3_EED2Ev.exit.i.i.i.i: ; preds = %_ZNSt8optionalINSt7__cxx1112basic_stringIcSt11char_traitsIcESaIcEEEED2Ev.exit.i.i.i.i
  %8 = load ptr, ptr %parameters_.i.i.i.i, align 8
  %tobool.not.i.i.i.i.i.i = icmp eq ptr %8, null
  br i1 %tobool.not.i.i.i.i.i.i, label %_ZNSt22_Optional_payload_baseIN8facebook5velox4exec13TypeSignatureEE10_M_destroyEv.exit.i.i, label %if.then.i.i.i.i.i.i

if.then.i.i.i.i.i.i:                              ; preds = %_ZNSt6vectorIN8facebook5velox4exec13TypeSignatureESaIS3_EED2Ev.exit.i.i.i.i
  tail call void @_ZdlPv(ptr noundef nonnull %8) #23
  br label %_ZNSt22_Optional_payload_baseIN8facebook5velox4exec13TypeSignatureEE10_M_destroyEv.exit.i.i

_ZNSt22_Optional_payload_baseIN8facebook5velox4exec13TypeSignatureEE10_M_destroyEv.exit.i.i: ; preds = %if.then.i.i.i.i.i.i, %_ZNSt6vectorIN8facebook5velox4exec13TypeSignatureESaIS3_EED2Ev.exit.i.i.i.i
  tail call void @_ZNSt7__cxx1112basic_stringIcSt11char_traitsIcESaIcEED1Ev(ptr noundef nonnull align 8 dereferenceable(32) %this) #20
  br label %_ZNSt19_Optional_base_implIN8facebook5velox4exec13TypeSignatureESt14_Optional_baseIS3_Lb0ELb0EEE8_M_resetEv.exit

_ZNSt19_Optional_base_implIN8facebook5velox4exec13TypeSignatureESt14_Optional_baseIS3_Lb0ELb0EEE8_M_resetEv.exit: ; preds = %entry, %_ZNSt22_Optional_payload_baseIN8facebook5velox4exec13TypeSignatureEE10_M_destroyEv.exit.i.i
  tail call void @_ZN8facebook5velox4exec13TypeSignatureC2EOS2_(ptr noundef nonnull align 8 dereferenceable(96) %this, ptr noundef nonnull align 8 dereferenceable(96) %__args)
  store i8 1, ptr %_M_engaged.i.i, align 8
  ret ptr %this
}

declare void @_ZN8facebook5velox4exec18parseTypeSignatureERKNSt7__cxx1112basic_stringIcSt11char_traitsIcESaIcEEE(ptr sret(%"class.facebook::velox::exec::TypeSignature") align 8, ptr noundef nonnull align 8 dereferenceable(32)) local_unnamed_addr #1

; Function Attrs: mustprogress nounwind uwtable
define linkonce_odr void @_ZN8facebook5velox4exec13TypeSignatureD2Ev(ptr noundef nonnull align 8 dereferenceable(96) %this) unnamed_addr #2 comdat align 2 personality ptr @__gxx_personality_v0 {
entry:
  %_M_engaged.i.i.i.i = getelementptr inbounds %"class.facebook::velox::exec::TypeSignature", ptr %this, i64 0, i32 2, i32 0, i32 0, i32 0, i32 0, i32 1
  %0 = load i8, ptr %_M_engaged.i.i.i.i, align 8
  %1 = and i8 %0, 1
  %tobool.not.i.i.i.i = icmp eq i8 %1, 0
  br i1 %tobool.not.i.i.i.i, label %_ZNSt8optionalINSt7__cxx1112basic_stringIcSt11char_traitsIcESaIcEEEED2Ev.exit, label %if.then.i.i.i.i

if.then.i.i.i.i:                                  ; preds = %entry
  %rowFieldName_ = getelementptr inbounds %"class.facebook::velox::exec::TypeSignature", ptr %this, i64 0, i32 2
  store i8 0, ptr %_M_engaged.i.i.i.i, align 8
  tail call void @_ZNSt7__cxx1112basic_stringIcSt11char_traitsIcESaIcEED1Ev(ptr noundef nonnull align 8 dereferenceable(32) %rowFieldName_) #20
  br label %_ZNSt8optionalINSt7__cxx1112basic_stringIcSt11char_traitsIcESaIcEEEED2Ev.exit

_ZNSt8optionalINSt7__cxx1112basic_stringIcSt11char_traitsIcESaIcEEEED2Ev.exit: ; preds = %entry, %if.then.i.i.i.i
  %parameters_ = getelementptr inbounds %"class.facebook::velox::exec::TypeSignature", ptr %this, i64 0, i32 1
  %2 = load ptr, ptr %parameters_, align 8
  %_M_finish.i = getelementptr inbounds %"class.facebook::velox::exec::TypeSignature", ptr %this, i64 0, i32 1, i32 0, i32 0, i32 0, i32 1
  %3 = load ptr, ptr %_M_finish.i, align 8
  invoke void @_ZNSt12_Destroy_auxILb0EE9__destroyIPN8facebook5velox4exec13TypeSignatureEEEvT_S7_(ptr noundef %2, ptr noundef %3)
          to label %_ZNSt6vectorIN8facebook5velox4exec13TypeSignatureESaIS3_EED2Ev.exit unwind label %terminate.lpad.i

terminate.lpad.i:                                 ; preds = %_ZNSt8optionalINSt7__cxx1112basic_stringIcSt11char_traitsIcESaIcEEEED2Ev.exit
  %4 = landingpad { ptr, i32 }
          catch ptr null
  %5 = extractvalue { ptr, i32 } %4, 0
  tail call void @__clang_call_terminate(ptr %5) #21
  unreachable

_ZNSt6vectorIN8facebook5velox4exec13TypeSignatureESaIS3_EED2Ev.exit: ; preds = %_ZNSt8optionalINSt7__cxx1112basic_stringIcSt11char_traitsIcESaIcEEEED2Ev.exit
  %6 = load ptr, ptr %parameters_, align 8
  %tobool.not.i.i = icmp eq ptr %6, null
  br i1 %tobool.not.i.i, label %_ZNSt12_Vector_baseIN8facebook5velox4exec13TypeSignatureESaIS3_EED2Ev.exit, label %if.then.i.i

if.then.i.i:                                      ; preds = %_ZNSt6vectorIN8facebook5velox4exec13TypeSignatureESaIS3_EED2Ev.exit
  tail call void @_ZdlPv(ptr noundef nonnull %6) #23
  br label %_ZNSt12_Vector_baseIN8facebook5velox4exec13TypeSignatureESaIS3_EED2Ev.exit

_ZNSt12_Vector_baseIN8facebook5velox4exec13TypeSignatureESaIS3_EED2Ev.exit: ; preds = %_ZNSt6vectorIN8facebook5velox4exec13TypeSignatureESaIS3_EED2Ev.exit, %if.then.i.i
  tail call void @_ZNSt7__cxx1112basic_stringIcSt11char_traitsIcESaIcEED1Ev(ptr noundef nonnull align 8 dereferenceable(32) %this) #20
  ret void
}

; Function Attrs: mustprogress uwtable
define linkonce_odr void @_ZN8facebook5velox4exec13TypeSignatureC2EOS2_(ptr noundef nonnull align 8 dereferenceable(96) %this, ptr noundef nonnull align 8 dereferenceable(96) %0) unnamed_addr #0 comdat align 2 personality ptr @__gxx_personality_v0 {
entry:
  tail call void @_ZNSt7__cxx1112basic_stringIcSt11char_traitsIcESaIcEEC1ERKS4_(ptr noundef nonnull align 8 dereferenceable(32) %this, ptr noundef nonnull align 8 dereferenceable(32) %0)
  %parameters_ = getelementptr inbounds %"class.facebook::velox::exec::TypeSignature", ptr %this, i64 0, i32 1
  %parameters_3 = getelementptr inbounds %"class.facebook::velox::exec::TypeSignature", ptr %0, i64 0, i32 1
  %_M_finish.i.i = getelementptr inbounds %"class.facebook::velox::exec::TypeSignature", ptr %0, i64 0, i32 1, i32 0, i32 0, i32 0, i32 1
  %1 = load ptr, ptr %_M_finish.i.i, align 8
  %2 = load ptr, ptr %parameters_3, align 8
  %sub.ptr.lhs.cast.i.i = ptrtoint ptr %1 to i64
  %sub.ptr.rhs.cast.i.i = ptrtoint ptr %2 to i64
  %sub.ptr.sub.i.i = sub i64 %sub.ptr.lhs.cast.i.i, %sub.ptr.rhs.cast.i.i
  %sub.ptr.div.i.i = sdiv exact i64 %sub.ptr.sub.i.i, 96
  tail call void @llvm.memset.p0.i64(ptr noundef nonnull align 8 dereferenceable(24) %parameters_, i8 0, i64 24, i1 false)
  %cmp.not.i.i.i.i = icmp eq ptr %1, %2
  br i1 %cmp.not.i.i.i.i, label %invoke.cont.i, label %cond.true.i.i.i.i

cond.true.i.i.i.i:                                ; preds = %entry
  %cmp.i.i.i.i.i.i = icmp ugt i64 %sub.ptr.div.i.i, 96076792050570581
  br i1 %cmp.i.i.i.i.i.i, label %if.then3.i.i.i.i.i.i, label %_ZNSt16allocator_traitsISaIN8facebook5velox4exec13TypeSignatureEEE8allocateERS4_m.exit.i.i.i.i

if.then3.i.i.i.i.i.i:                             ; preds = %cond.true.i.i.i.i
  invoke void @_ZSt28__throw_bad_array_new_lengthv() #24
          to label %.noexc unwind label %lpad

.noexc:                                           ; preds = %if.then3.i.i.i.i.i.i
  unreachable

_ZNSt16allocator_traitsISaIN8facebook5velox4exec13TypeSignatureEEE8allocateERS4_m.exit.i.i.i.i: ; preds = %cond.true.i.i.i.i
  %call5.i.i.i.i2.i6.i3 = invoke noalias noundef nonnull ptr @_Znwm(i64 noundef %sub.ptr.sub.i.i) #22
          to label %invoke.cont.i unwind label %lpad

invoke.cont.i:                                    ; preds = %_ZNSt16allocator_traitsISaIN8facebook5velox4exec13TypeSignatureEEE8allocateERS4_m.exit.i.i.i.i, %entry
  %cond.i.i.i.i = phi ptr [ null, %entry ], [ %call5.i.i.i.i2.i6.i3, %_ZNSt16allocator_traitsISaIN8facebook5velox4exec13TypeSignatureEEE8allocateERS4_m.exit.i.i.i.i ]
  store ptr %cond.i.i.i.i, ptr %parameters_, align 8
  %_M_finish.i.i.i = getelementptr inbounds %"class.facebook::velox::exec::TypeSignature", ptr %this, i64 0, i32 1, i32 0, i32 0, i32 0, i32 1
  store ptr %cond.i.i.i.i, ptr %_M_finish.i.i.i, align 8
  %add.ptr.i.i.i = getelementptr inbounds %"class.facebook::velox::exec::TypeSignature", ptr %cond.i.i.i.i, i64 %sub.ptr.div.i.i
  %_M_end_of_storage.i.i.i = getelementptr inbounds %"class.facebook::velox::exec::TypeSignature", ptr %this, i64 0, i32 1, i32 0, i32 0, i32 0, i32 2
  store ptr %add.ptr.i.i.i, ptr %_M_end_of_storage.i.i.i, align 8
  %3 = load ptr, ptr %parameters_3, align 8
  %4 = load ptr, ptr %_M_finish.i.i, align 8
  %call.i.i9.i = invoke noundef ptr @_ZSt16__do_uninit_copyIN9__gnu_cxx17__normal_iteratorIPKN8facebook5velox4exec13TypeSignatureESt6vectorIS5_SaIS5_EEEEPS5_ET0_T_SE_SD_(ptr %3, ptr %4, ptr noundef %cond.i.i.i.i)
          to label %invoke.cont unwind label %lpad10.i

lpad10.i:                                         ; preds = %invoke.cont.i
  %5 = landingpad { ptr, i32 }
          cleanup
  %6 = load ptr, ptr %parameters_, align 8
  %tobool.not.i.i.i = icmp eq ptr %6, null
  br i1 %tobool.not.i.i.i, label %lpad.body, label %if.then.i.i.i

if.then.i.i.i:                                    ; preds = %lpad10.i
  tail call void @_ZdlPv(ptr noundef nonnull %6) #23
  br label %lpad.body

invoke.cont:                                      ; preds = %invoke.cont.i
  store ptr %call.i.i9.i, ptr %_M_finish.i.i.i, align 8
  %_M_engaged.i.i = getelementptr inbounds %"class.facebook::velox::exec::TypeSignature", ptr %0, i64 0, i32 2, i32 0, i32 0, i32 0, i32 0, i32 1
  %_M_engaged.i.i.i.i.i = getelementptr inbounds %"class.facebook::velox::exec::TypeSignature", ptr %this, i64 0, i32 2, i32 0, i32 0, i32 0, i32 0, i32 1
  store i8 0, ptr %_M_engaged.i.i.i.i.i, align 8
  %7 = load i8, ptr %_M_engaged.i.i, align 8
  %8 = and i8 %7, 1
  %tobool.not.i.i.i.i.i = icmp eq i8 %8, 0
  br i1 %tobool.not.i.i.i.i.i, label %_ZNSt8optionalINSt7__cxx1112basic_stringIcSt11char_traitsIcESaIcEEEEC2EOS6_.exit, label %if.then.i.i.i.i.i

if.then.i.i.i.i.i:                                ; preds = %invoke.cont
  %rowFieldName_ = getelementptr inbounds %"class.facebook::velox::exec::TypeSignature", ptr %this, i64 0, i32 2
  %rowFieldName_4 = getelementptr inbounds %"class.facebook::velox::exec::TypeSignature", ptr %0, i64 0, i32 2
  tail call void @_ZNSt7__cxx1112basic_stringIcSt11char_traitsIcESaIcEEC1EOS4_(ptr noundef nonnull align 8 dereferenceable(32) %rowFieldName_, ptr noundef nonnull align 8 dereferenceable(32) %rowFieldName_4) #20
  store i8 1, ptr %_M_engaged.i.i.i.i.i, align 8
  br label %_ZNSt8optionalINSt7__cxx1112basic_stringIcSt11char_traitsIcESaIcEEEEC2EOS6_.exit

_ZNSt8optionalINSt7__cxx1112basic_stringIcSt11char_traitsIcESaIcEEEEC2EOS6_.exit: ; preds = %invoke.cont, %if.then.i.i.i.i.i
  ret void

lpad:                                             ; preds = %_ZNSt16allocator_traitsISaIN8facebook5velox4exec13TypeSignatureEEE8allocateERS4_m.exit.i.i.i.i, %if.then3.i.i.i.i.i.i
  %9 = landingpad { ptr, i32 }
          cleanup
  br label %lpad.body

lpad.body:                                        ; preds = %lpad10.i, %if.then.i.i.i, %lpad
  %eh.lpad-body = phi { ptr, i32 } [ %9, %lpad ], [ %5, %if.then.i.i.i ], [ %5, %lpad10.i ]
  tail call void @_ZNSt7__cxx1112basic_stringIcSt11char_traitsIcESaIcEED1Ev(ptr noundef nonnull align 8 dereferenceable(32) %this) #20
  resume { ptr, i32 } %eh.lpad-body
}

; Function Attrs: mustprogress uwtable
define linkonce_odr noundef ptr @_ZSt16__do_uninit_copyIN9__gnu_cxx17__normal_iteratorIPKN8facebook5velox4exec13TypeSignatureESt6vectorIS5_SaIS5_EEEEPS5_ET0_T_SE_SD_(ptr %__first.coerce, ptr %__last.coerce, ptr noundef %__result) local_unnamed_addr #0 comdat personality ptr @__gxx_personality_v0 {
entry:
  %cmp.i.not13 = icmp eq ptr %__first.coerce, %__last.coerce
  br i1 %cmp.i.not13, label %for.end, label %for.body

for.body:                                         ; preds = %entry, %for.inc
  %__cur.015 = phi ptr [ %incdec.ptr, %for.inc ], [ %__result, %entry ]
  %__first.sroa.0.014 = phi ptr [ %incdec.ptr.i, %for.inc ], [ %__first.coerce, %entry ]
  invoke void @_ZNSt7__cxx1112basic_stringIcSt11char_traitsIcESaIcEEC1ERKS4_(ptr noundef nonnull align 8 dereferenceable(32) %__cur.015, ptr noundef nonnull align 8 dereferenceable(32) %__first.sroa.0.014)
          to label %.noexc unwind label %lpad

.noexc:                                           ; preds = %for.body
  %parameters_.i = getelementptr inbounds %"class.facebook::velox::exec::TypeSignature", ptr %__cur.015, i64 0, i32 1
  %parameters_3.i = getelementptr inbounds %"class.facebook::velox::exec::TypeSignature", ptr %__first.sroa.0.014, i64 0, i32 1
  %_M_finish.i.i = getelementptr inbounds %"class.facebook::velox::exec::TypeSignature", ptr %__first.sroa.0.014, i64 0, i32 1, i32 0, i32 0, i32 0, i32 1
  %0 = load ptr, ptr %_M_finish.i.i, align 8
  %1 = load ptr, ptr %parameters_3.i, align 8
  %sub.ptr.lhs.cast.i.i = ptrtoint ptr %0 to i64
  %sub.ptr.rhs.cast.i.i = ptrtoint ptr %1 to i64
  %sub.ptr.sub.i.i = sub i64 %sub.ptr.lhs.cast.i.i, %sub.ptr.rhs.cast.i.i
  %sub.ptr.div.i.i = sdiv exact i64 %sub.ptr.sub.i.i, 96
  tail call void @llvm.memset.p0.i64(ptr noundef nonnull align 8 dereferenceable(24) %parameters_.i, i8 0, i64 24, i1 false)
  %cmp.not.i.i.i.i = icmp eq ptr %0, %1
  br i1 %cmp.not.i.i.i.i, label %invoke.cont.i30, label %cond.true.i.i.i.i

cond.true.i.i.i.i:                                ; preds = %.noexc
  %cmp.i.i.i.i.i.i = icmp ugt i64 %sub.ptr.div.i.i, 96076792050570581
  br i1 %cmp.i.i.i.i.i.i, label %if.then3.i.i.i.i.i.i, label %_ZNSt16allocator_traitsISaIN8facebook5velox4exec13TypeSignatureEEE8allocateERS4_m.exit.i.i.i.i

if.then3.i.i.i.i.i.i:                             ; preds = %cond.true.i.i.i.i
  invoke void @_ZSt28__throw_bad_array_new_lengthv() #24
          to label %.noexc31 unwind label %lpad.i.loopexit.split-lp

.noexc31:                                         ; preds = %if.then3.i.i.i.i.i.i
  unreachable

_ZNSt16allocator_traitsISaIN8facebook5velox4exec13TypeSignatureEEE8allocateERS4_m.exit.i.i.i.i: ; preds = %cond.true.i.i.i.i
  %call5.i.i.i.i2.i6.i32 = invoke noalias noundef nonnull ptr @_Znwm(i64 noundef %sub.ptr.sub.i.i) #22
          to label %invoke.cont.i30 unwind label %lpad.i.loopexit

invoke.cont.i30:                                  ; preds = %_ZNSt16allocator_traitsISaIN8facebook5velox4exec13TypeSignatureEEE8allocateERS4_m.exit.i.i.i.i, %.noexc
  %cond.i.i.i.i = phi ptr [ null, %.noexc ], [ %call5.i.i.i.i2.i6.i32, %_ZNSt16allocator_traitsISaIN8facebook5velox4exec13TypeSignatureEEE8allocateERS4_m.exit.i.i.i.i ]
  store ptr %cond.i.i.i.i, ptr %parameters_.i, align 8
  %_M_finish.i.i.i = getelementptr inbounds %"class.facebook::velox::exec::TypeSignature", ptr %__cur.015, i64 0, i32 1, i32 0, i32 0, i32 0, i32 1
  store ptr %cond.i.i.i.i, ptr %_M_finish.i.i.i, align 8
  %add.ptr.i.i.i = getelementptr inbounds %"class.facebook::velox::exec::TypeSignature", ptr %cond.i.i.i.i, i64 %sub.ptr.div.i.i
  %_M_end_of_storage.i.i.i = getelementptr inbounds %"class.facebook::velox::exec::TypeSignature", ptr %__cur.015, i64 0, i32 1, i32 0, i32 0, i32 0, i32 2
  store ptr %add.ptr.i.i.i, ptr %_M_end_of_storage.i.i.i, align 8
  %2 = load ptr, ptr %parameters_3.i, align 8
  %3 = load ptr, ptr %_M_finish.i.i, align 8
  %call.i.i9.i = invoke noundef ptr @_ZSt16__do_uninit_copyIN9__gnu_cxx17__normal_iteratorIPKN8facebook5velox4exec13TypeSignatureESt6vectorIS5_SaIS5_EEEEPS5_ET0_T_SE_SD_(ptr %2, ptr %3, ptr noundef %cond.i.i.i.i)
          to label %invoke.cont.i unwind label %lpad10.i

lpad10.i:                                         ; preds = %invoke.cont.i30
  %4 = landingpad { ptr, i32 }
          catch ptr null
  %5 = load ptr, ptr %parameters_.i, align 8
  %tobool.not.i.i.i = icmp eq ptr %5, null
  br i1 %tobool.not.i.i.i, label %ehcleanup.i, label %if.then.i.i.i

if.then.i.i.i:                                    ; preds = %lpad10.i
  tail call void @_ZdlPv(ptr noundef nonnull %5) #23
  br label %ehcleanup.i

invoke.cont.i:                                    ; preds = %invoke.cont.i30
  store ptr %call.i.i9.i, ptr %_M_finish.i.i.i, align 8
  %_M_engaged.i.i.i = getelementptr inbounds %"class.facebook::velox::exec::TypeSignature", ptr %__first.sroa.0.014, i64 0, i32 2, i32 0, i32 0, i32 0, i32 0, i32 1
  %_M_engaged.i.i.i.i.i.i = getelementptr inbounds %"class.facebook::velox::exec::TypeSignature", ptr %__cur.015, i64 0, i32 2, i32 0, i32 0, i32 0, i32 0, i32 1
  store i8 0, ptr %_M_engaged.i.i.i.i.i.i, align 8
  %6 = load i8, ptr %_M_engaged.i.i.i, align 8
  %7 = and i8 %6, 1
  %tobool.not.i.i.i.i.i.i = icmp eq i8 %7, 0
  br i1 %tobool.not.i.i.i.i.i.i, label %for.inc, label %if.then.i.i.i.i.i.i

if.then.i.i.i.i.i.i:                              ; preds = %invoke.cont.i
  %rowFieldName_.i = getelementptr inbounds %"class.facebook::velox::exec::TypeSignature", ptr %__cur.015, i64 0, i32 2
  %rowFieldName_4.i = getelementptr inbounds %"class.facebook::velox::exec::TypeSignature", ptr %__first.sroa.0.014, i64 0, i32 2
  invoke void @_ZNSt7__cxx1112basic_stringIcSt11char_traitsIcESaIcEEC1ERKS4_(ptr noundef nonnull align 8 dereferenceable(32) %rowFieldName_.i, ptr noundef nonnull align 8 dereferenceable(32) %rowFieldName_4.i)
          to label %.noexc.i unwind label %lpad5.i

.noexc.i:                                         ; preds = %if.then.i.i.i.i.i.i
  store i8 1, ptr %_M_engaged.i.i.i.i.i.i, align 8
  br label %for.inc

lpad.i.loopexit:                                  ; preds = %_ZNSt16allocator_traitsISaIN8facebook5velox4exec13TypeSignatureEEE8allocateERS4_m.exit.i.i.i.i
  %lpad.loopexit = landingpad { ptr, i32 }
          catch ptr null
  br label %ehcleanup.i

lpad.i.loopexit.split-lp:                         ; preds = %if.then3.i.i.i.i.i.i
  %lpad.loopexit.split-lp = landingpad { ptr, i32 }
          catch ptr null
  br label %ehcleanup.i

lpad5.i:                                          ; preds = %if.then.i.i.i.i.i.i
  %8 = landingpad { ptr, i32 }
          catch ptr null
  tail call void @_ZNSt6vectorIN8facebook5velox4exec13TypeSignatureESaIS3_EED2Ev(ptr noundef nonnull align 8 dereferenceable(24) %parameters_.i) #20
  br label %ehcleanup.i

ehcleanup.i:                                      ; preds = %lpad.i.loopexit, %lpad.i.loopexit.split-lp, %if.then.i.i.i, %lpad10.i, %lpad5.i
  %.pn.i = phi { ptr, i32 } [ %8, %lpad5.i ], [ %4, %if.then.i.i.i ], [ %4, %lpad10.i ], [ %lpad.loopexit, %lpad.i.loopexit ], [ %lpad.loopexit.split-lp, %lpad.i.loopexit.split-lp ]
  tail call void @_ZNSt7__cxx1112basic_stringIcSt11char_traitsIcESaIcEED1Ev(ptr noundef nonnull align 8 dereferenceable(32) %__cur.015) #20
  br label %lpad.body

for.inc:                                          ; preds = %invoke.cont.i, %.noexc.i
  %incdec.ptr.i = getelementptr inbounds %"class.facebook::velox::exec::TypeSignature", ptr %__first.sroa.0.014, i64 1
  %incdec.ptr = getelementptr inbounds %"class.facebook::velox::exec::TypeSignature", ptr %__cur.015, i64 1
  %cmp.i.not = icmp eq ptr %incdec.ptr.i, %__last.coerce
  br i1 %cmp.i.not, label %for.end, label %for.body, !llvm.loop !17

lpad:                                             ; preds = %for.body
  %9 = landingpad { ptr, i32 }
          catch ptr null
  br label %lpad.body

lpad.body:                                        ; preds = %ehcleanup.i, %lpad
  %eh.lpad-body = phi { ptr, i32 } [ %9, %lpad ], [ %.pn.i, %ehcleanup.i ]
  %10 = extractvalue { ptr, i32 } %eh.lpad-body, 0
  %11 = tail call ptr @__cxa_begin_catch(ptr %10) #20
  invoke void @_ZNSt12_Destroy_auxILb0EE9__destroyIPN8facebook5velox4exec13TypeSignatureEEEvT_S7_(ptr noundef %__result, ptr noundef %__cur.015)
          to label %invoke.cont5 unwind label %lpad4

invoke.cont5:                                     ; preds = %lpad.body
  invoke void @__cxa_rethrow() #24
          to label %unreachable unwind label %lpad4

for.end:                                          ; preds = %for.inc, %entry
  %__cur.0.lcssa = phi ptr [ %__result, %entry ], [ %incdec.ptr, %for.inc ]
  ret ptr %__cur.0.lcssa

lpad4:                                            ; preds = %lpad.body, %invoke.cont5
  %12 = landingpad { ptr, i32 }
          cleanup
  invoke void @__cxa_end_catch()
          to label %eh.resume unwind label %terminate.lpad

eh.resume:                                        ; preds = %lpad4
  resume { ptr, i32 } %12

terminate.lpad:                                   ; preds = %lpad4
  %13 = landingpad { ptr, i32 }
          catch ptr null
  %14 = extractvalue { ptr, i32 } %13, 0
  tail call void @__clang_call_terminate(ptr %14) #21
  unreachable

unreachable:                                      ; preds = %invoke.cont5
  unreachable
}

; Function Attrs: mustprogress uwtable
define linkonce_odr void @_ZN8facebook5velox4exec13TypeSignatureC2ERKS2_(ptr noundef nonnull align 8 dereferenceable(96) %this, ptr noundef nonnull align 8 dereferenceable(96) %0) unnamed_addr #0 comdat align 2 personality ptr @__gxx_personality_v0 {
entry:
  tail call void @_ZNSt7__cxx1112basic_stringIcSt11char_traitsIcESaIcEEC1ERKS4_(ptr noundef nonnull align 8 dereferenceable(32) %this, ptr noundef nonnull align 8 dereferenceable(32) %0)
  %parameters_ = getelementptr inbounds %"class.facebook::velox::exec::TypeSignature", ptr %this, i64 0, i32 1
  %parameters_3 = getelementptr inbounds %"class.facebook::velox::exec::TypeSignature", ptr %0, i64 0, i32 1
  %_M_finish.i.i = getelementptr inbounds %"class.facebook::velox::exec::TypeSignature", ptr %0, i64 0, i32 1, i32 0, i32 0, i32 0, i32 1
  %1 = load ptr, ptr %_M_finish.i.i, align 8
  %2 = load ptr, ptr %parameters_3, align 8
  %sub.ptr.lhs.cast.i.i = ptrtoint ptr %1 to i64
  %sub.ptr.rhs.cast.i.i = ptrtoint ptr %2 to i64
  %sub.ptr.sub.i.i = sub i64 %sub.ptr.lhs.cast.i.i, %sub.ptr.rhs.cast.i.i
  %sub.ptr.div.i.i = sdiv exact i64 %sub.ptr.sub.i.i, 96
  tail call void @llvm.memset.p0.i64(ptr noundef nonnull align 8 dereferenceable(24) %parameters_, i8 0, i64 24, i1 false)
  %cmp.not.i.i.i.i = icmp eq ptr %1, %2
  br i1 %cmp.not.i.i.i.i, label %invoke.cont.i, label %cond.true.i.i.i.i

cond.true.i.i.i.i:                                ; preds = %entry
  %cmp.i.i.i.i.i.i = icmp ugt i64 %sub.ptr.div.i.i, 96076792050570581
  br i1 %cmp.i.i.i.i.i.i, label %if.then3.i.i.i.i.i.i, label %_ZNSt16allocator_traitsISaIN8facebook5velox4exec13TypeSignatureEEE8allocateERS4_m.exit.i.i.i.i

if.then3.i.i.i.i.i.i:                             ; preds = %cond.true.i.i.i.i
  invoke void @_ZSt28__throw_bad_array_new_lengthv() #24
          to label %.noexc4 unwind label %lpad

.noexc4:                                          ; preds = %if.then3.i.i.i.i.i.i
  unreachable

_ZNSt16allocator_traitsISaIN8facebook5velox4exec13TypeSignatureEEE8allocateERS4_m.exit.i.i.i.i: ; preds = %cond.true.i.i.i.i
  %call5.i.i.i.i2.i6.i5 = invoke noalias noundef nonnull ptr @_Znwm(i64 noundef %sub.ptr.sub.i.i) #22
          to label %invoke.cont.i unwind label %lpad

invoke.cont.i:                                    ; preds = %_ZNSt16allocator_traitsISaIN8facebook5velox4exec13TypeSignatureEEE8allocateERS4_m.exit.i.i.i.i, %entry
  %cond.i.i.i.i = phi ptr [ null, %entry ], [ %call5.i.i.i.i2.i6.i5, %_ZNSt16allocator_traitsISaIN8facebook5velox4exec13TypeSignatureEEE8allocateERS4_m.exit.i.i.i.i ]
  store ptr %cond.i.i.i.i, ptr %parameters_, align 8
  %_M_finish.i.i.i = getelementptr inbounds %"class.facebook::velox::exec::TypeSignature", ptr %this, i64 0, i32 1, i32 0, i32 0, i32 0, i32 1
  store ptr %cond.i.i.i.i, ptr %_M_finish.i.i.i, align 8
  %add.ptr.i.i.i = getelementptr inbounds %"class.facebook::velox::exec::TypeSignature", ptr %cond.i.i.i.i, i64 %sub.ptr.div.i.i
  %_M_end_of_storage.i.i.i = getelementptr inbounds %"class.facebook::velox::exec::TypeSignature", ptr %this, i64 0, i32 1, i32 0, i32 0, i32 0, i32 2
  store ptr %add.ptr.i.i.i, ptr %_M_end_of_storage.i.i.i, align 8
  %3 = load ptr, ptr %parameters_3, align 8
  %4 = load ptr, ptr %_M_finish.i.i, align 8
  %call.i.i9.i = invoke noundef ptr @_ZSt16__do_uninit_copyIN9__gnu_cxx17__normal_iteratorIPKN8facebook5velox4exec13TypeSignatureESt6vectorIS5_SaIS5_EEEEPS5_ET0_T_SE_SD_(ptr %3, ptr %4, ptr noundef %cond.i.i.i.i)
          to label %invoke.cont unwind label %lpad10.i

lpad10.i:                                         ; preds = %invoke.cont.i
  %5 = landingpad { ptr, i32 }
          cleanup
  %6 = load ptr, ptr %parameters_, align 8
  %tobool.not.i.i.i = icmp eq ptr %6, null
  br i1 %tobool.not.i.i.i, label %ehcleanup, label %if.then.i.i.i

if.then.i.i.i:                                    ; preds = %lpad10.i
  tail call void @_ZdlPv(ptr noundef nonnull %6) #23
  br label %ehcleanup

invoke.cont:                                      ; preds = %invoke.cont.i
  store ptr %call.i.i9.i, ptr %_M_finish.i.i.i, align 8
  %_M_engaged.i.i = getelementptr inbounds %"class.facebook::velox::exec::TypeSignature", ptr %0, i64 0, i32 2, i32 0, i32 0, i32 0, i32 0, i32 1
  %_M_engaged.i.i.i.i.i = getelementptr inbounds %"class.facebook::velox::exec::TypeSignature", ptr %this, i64 0, i32 2, i32 0, i32 0, i32 0, i32 0, i32 1
  store i8 0, ptr %_M_engaged.i.i.i.i.i, align 8
  %7 = load i8, ptr %_M_engaged.i.i, align 8
  %8 = and i8 %7, 1
  %tobool.not.i.i.i.i.i = icmp eq i8 %8, 0
  br i1 %tobool.not.i.i.i.i.i, label %invoke.cont6, label %if.then.i.i.i.i.i

if.then.i.i.i.i.i:                                ; preds = %invoke.cont
  %rowFieldName_ = getelementptr inbounds %"class.facebook::velox::exec::TypeSignature", ptr %this, i64 0, i32 2
  %rowFieldName_4 = getelementptr inbounds %"class.facebook::velox::exec::TypeSignature", ptr %0, i64 0, i32 2
  invoke void @_ZNSt7__cxx1112basic_stringIcSt11char_traitsIcESaIcEEC1ERKS4_(ptr noundef nonnull align 8 dereferenceable(32) %rowFieldName_, ptr noundef nonnull align 8 dereferenceable(32) %rowFieldName_4)
          to label %.noexc unwind label %lpad5

.noexc:                                           ; preds = %if.then.i.i.i.i.i
  store i8 1, ptr %_M_engaged.i.i.i.i.i, align 8
  br label %invoke.cont6

invoke.cont6:                                     ; preds = %.noexc, %invoke.cont
  ret void

lpad:                                             ; preds = %_ZNSt16allocator_traitsISaIN8facebook5velox4exec13TypeSignatureEEE8allocateERS4_m.exit.i.i.i.i, %if.then3.i.i.i.i.i.i
  %9 = landingpad { ptr, i32 }
          cleanup
  br label %ehcleanup

lpad5:                                            ; preds = %if.then.i.i.i.i.i
  %10 = landingpad { ptr, i32 }
          cleanup
  tail call void @_ZNSt6vectorIN8facebook5velox4exec13TypeSignatureESaIS3_EED2Ev(ptr noundef nonnull align 8 dereferenceable(24) %parameters_) #20
  br label %ehcleanup

ehcleanup:                                        ; preds = %lpad, %if.then.i.i.i, %lpad10.i, %lpad5
  %.pn = phi { ptr, i32 } [ %10, %lpad5 ], [ %9, %lpad ], [ %5, %if.then.i.i.i ], [ %5, %lpad10.i ]
  tail call void @_ZNSt7__cxx1112basic_stringIcSt11char_traitsIcESaIcEED1Ev(ptr noundef nonnull align 8 dereferenceable(32) %this) #20
  resume { ptr, i32 } %.pn
}

; Function Attrs: mustprogress nounwind uwtable
define linkonce_odr void @_ZNSt6vectorIN8facebook5velox4exec13TypeSignatureESaIS3_EED2Ev(ptr noundef nonnull align 8 dereferenceable(24) %this) unnamed_addr #2 comdat align 2 personality ptr @__gxx_personality_v0 {
entry:
  %0 = load ptr, ptr %this, align 8
  %_M_finish = getelementptr inbounds %"struct.std::_Vector_base<facebook::velox::exec::TypeSignature, std::allocator<facebook::velox::exec::TypeSignature>>::_Vector_impl_data", ptr %this, i64 0, i32 1
  %1 = load ptr, ptr %_M_finish, align 8
  invoke void @_ZNSt12_Destroy_auxILb0EE9__destroyIPN8facebook5velox4exec13TypeSignatureEEEvT_S7_(ptr noundef %0, ptr noundef %1)
          to label %invoke.cont unwind label %terminate.lpad

invoke.cont:                                      ; preds = %entry
  %2 = load ptr, ptr %this, align 8
  %tobool.not.i.i = icmp eq ptr %2, null
  br i1 %tobool.not.i.i, label %_ZNSt12_Vector_baseIN8facebook5velox4exec13TypeSignatureESaIS3_EED2Ev.exit, label %if.then.i.i

if.then.i.i:                                      ; preds = %invoke.cont
  tail call void @_ZdlPv(ptr noundef nonnull %2) #23
  br label %_ZNSt12_Vector_baseIN8facebook5velox4exec13TypeSignatureESaIS3_EED2Ev.exit

_ZNSt12_Vector_baseIN8facebook5velox4exec13TypeSignatureESaIS3_EED2Ev.exit: ; preds = %invoke.cont, %if.then.i.i
  ret void

terminate.lpad:                                   ; preds = %entry
  %3 = landingpad { ptr, i32 }
          catch ptr null
  %4 = extractvalue { ptr, i32 } %3, 0
  tail call void @__clang_call_terminate(ptr %4) #21
  unreachable
}

; Function Attrs: mustprogress uwtable
define linkonce_odr void @_ZNSt12_Destroy_auxILb0EE9__destroyIPN8facebook5velox4exec13TypeSignatureEEEvT_S7_(ptr noundef %__first, ptr noundef %__last) local_unnamed_addr #0 comdat align 2 personality ptr @__gxx_personality_v0 {
entry:
  %cmp.not3 = icmp eq ptr %__first, %__last
  br i1 %cmp.not3, label %for.end, label %for.body

for.body:                                         ; preds = %entry, %_ZN8facebook5velox4exec13TypeSignatureD2Ev.exit
  %__first.addr.04 = phi ptr [ %incdec.ptr, %_ZN8facebook5velox4exec13TypeSignatureD2Ev.exit ], [ %__first, %entry ]
  %_M_engaged.i.i.i.i.i = getelementptr inbounds %"class.facebook::velox::exec::TypeSignature", ptr %__first.addr.04, i64 0, i32 2, i32 0, i32 0, i32 0, i32 0, i32 1
  %0 = load i8, ptr %_M_engaged.i.i.i.i.i, align 8
  %1 = and i8 %0, 1
  %tobool.not.i.i.i.i.i = icmp eq i8 %1, 0
  br i1 %tobool.not.i.i.i.i.i, label %_ZNSt8optionalINSt7__cxx1112basic_stringIcSt11char_traitsIcESaIcEEEED2Ev.exit.i, label %if.then.i.i.i.i.i

if.then.i.i.i.i.i:                                ; preds = %for.body
  %rowFieldName_.i = getelementptr inbounds %"class.facebook::velox::exec::TypeSignature", ptr %__first.addr.04, i64 0, i32 2
  store i8 0, ptr %_M_engaged.i.i.i.i.i, align 8
  tail call void @_ZNSt7__cxx1112basic_stringIcSt11char_traitsIcESaIcEED1Ev(ptr noundef nonnull align 8 dereferenceable(32) %rowFieldName_.i) #20
  br label %_ZNSt8optionalINSt7__cxx1112basic_stringIcSt11char_traitsIcESaIcEEEED2Ev.exit.i

_ZNSt8optionalINSt7__cxx1112basic_stringIcSt11char_traitsIcESaIcEEEED2Ev.exit.i: ; preds = %if.then.i.i.i.i.i, %for.body
  %parameters_.i = getelementptr inbounds %"class.facebook::velox::exec::TypeSignature", ptr %__first.addr.04, i64 0, i32 1
  %2 = load ptr, ptr %parameters_.i, align 8
  %_M_finish.i.i = getelementptr inbounds %"class.facebook::velox::exec::TypeSignature", ptr %__first.addr.04, i64 0, i32 1, i32 0, i32 0, i32 0, i32 1
  %3 = load ptr, ptr %_M_finish.i.i, align 8
  invoke void @_ZNSt12_Destroy_auxILb0EE9__destroyIPN8facebook5velox4exec13TypeSignatureEEEvT_S7_(ptr noundef %2, ptr noundef %3)
          to label %_ZSt8_DestroyIPN8facebook5velox4exec13TypeSignatureES3_EvT_S5_RSaIT0_E.exit.i unwind label %terminate.lpad.i.i

_ZSt8_DestroyIPN8facebook5velox4exec13TypeSignatureES3_EvT_S5_RSaIT0_E.exit.i: ; preds = %_ZNSt8optionalINSt7__cxx1112basic_stringIcSt11char_traitsIcESaIcEEEED2Ev.exit.i
  %4 = load ptr, ptr %parameters_.i, align 8
  %tobool.not.i.i.i = icmp eq ptr %4, null
  br i1 %tobool.not.i.i.i, label %_ZN8facebook5velox4exec13TypeSignatureD2Ev.exit, label %if.then.i.i.i

terminate.lpad.i.i:                               ; preds = %_ZNSt8optionalINSt7__cxx1112basic_stringIcSt11char_traitsIcESaIcEEEED2Ev.exit.i
  %5 = landingpad { ptr, i32 }
          catch ptr null
  %6 = extractvalue { ptr, i32 } %5, 0
  tail call void @__clang_call_terminate(ptr %6) #21
  unreachable

if.then.i.i.i:                                    ; preds = %_ZSt8_DestroyIPN8facebook5velox4exec13TypeSignatureES3_EvT_S5_RSaIT0_E.exit.i
  tail call void @_ZdlPv(ptr noundef nonnull %4) #23
  br label %_ZN8facebook5velox4exec13TypeSignatureD2Ev.exit

_ZN8facebook5velox4exec13TypeSignatureD2Ev.exit:  ; preds = %_ZSt8_DestroyIPN8facebook5velox4exec13TypeSignatureES3_EvT_S5_RSaIT0_E.exit.i, %if.then.i.i.i
  tail call void @_ZNSt7__cxx1112basic_stringIcSt11char_traitsIcESaIcEED1Ev(ptr noundef nonnull align 8 dereferenceable(32) %__first.addr.04) #20
  %incdec.ptr = getelementptr inbounds %"class.facebook::velox::exec::TypeSignature", ptr %__first.addr.04, i64 1
  %cmp.not = icmp eq ptr %incdec.ptr, %__last
  br i1 %cmp.not, label %for.end, label %for.body, !llvm.loop !18

for.end:                                          ; preds = %_ZN8facebook5velox4exec13TypeSignatureD2Ev.exit, %entry
  ret void
}

; Function Attrs: nounwind
declare void @_ZNSt7__cxx1112basic_stringIcSt11char_traitsIcESaIcEEC1EOS4_(ptr noundef nonnull align 8 dereferenceable(32), ptr noundef nonnull align 8 dereferenceable(32)) unnamed_addr #4

; Function Attrs: mustprogress uwtable
define linkonce_odr void @_ZNSt6vectorIN8facebook5velox4exec13TypeSignatureESaIS3_EE17_M_realloc_insertIJS3_EEEvN9__gnu_cxx17__normal_iteratorIPS3_S5_EEDpOT_(ptr noundef nonnull align 8 dereferenceable(24) %this, ptr %__position.coerce, ptr noundef nonnull align 8 dereferenceable(96) %__args) local_unnamed_addr #0 comdat align 2 personality ptr @__gxx_personality_v0 {
entry:
  %_M_finish.i.i = getelementptr inbounds %"struct.std::_Vector_base<facebook::velox::exec::TypeSignature, std::allocator<facebook::velox::exec::TypeSignature>>::_Vector_impl_data", ptr %this, i64 0, i32 1
  %0 = load ptr, ptr %_M_finish.i.i, align 8
  %1 = load ptr, ptr %this, align 8
  %sub.ptr.lhs.cast.i.i = ptrtoint ptr %0 to i64
  %sub.ptr.rhs.cast.i.i = ptrtoint ptr %1 to i64
  %sub.ptr.sub.i.i = sub i64 %sub.ptr.lhs.cast.i.i, %sub.ptr.rhs.cast.i.i
  %cmp.i = icmp eq i64 %sub.ptr.sub.i.i, 9223372036854775776
  br i1 %cmp.i, label %if.then.i, label %_ZNKSt6vectorIN8facebook5velox4exec13TypeSignatureESaIS3_EE12_M_check_lenEmPKc.exit

if.then.i:                                        ; preds = %entry
  tail call void @_ZSt20__throw_length_errorPKc(ptr noundef nonnull @.str.5) #24
  unreachable

_ZNKSt6vectorIN8facebook5velox4exec13TypeSignatureESaIS3_EE12_M_check_lenEmPKc.exit: ; preds = %entry
  %sub.ptr.div.i.i = sdiv exact i64 %sub.ptr.sub.i.i, 96
  %.sroa.speculated.i = tail call i64 @llvm.umax.i64(i64 %sub.ptr.div.i.i, i64 1)
  %add.i = add i64 %.sroa.speculated.i, %sub.ptr.div.i.i
  %cmp7.i = icmp ult i64 %add.i, %sub.ptr.div.i.i
  %2 = tail call i64 @llvm.umin.i64(i64 %add.i, i64 96076792050570581)
  %cond.i = select i1 %cmp7.i, i64 96076792050570581, i64 %2
  %sub.ptr.lhs.cast.i = ptrtoint ptr %__position.coerce to i64
  %sub.ptr.sub.i = sub i64 %sub.ptr.lhs.cast.i, %sub.ptr.rhs.cast.i.i
  %sub.ptr.div.i = sdiv exact i64 %sub.ptr.sub.i, 96
  %cmp.not.i = icmp eq i64 %cond.i, 0
  br i1 %cmp.not.i, label %_ZNSt12_Vector_baseIN8facebook5velox4exec13TypeSignatureESaIS3_EE11_M_allocateEm.exit, label %cond.true.i

cond.true.i:                                      ; preds = %_ZNKSt6vectorIN8facebook5velox4exec13TypeSignatureESaIS3_EE12_M_check_lenEmPKc.exit
  %mul.i.i.i = mul nuw nsw i64 %cond.i, 96
  %call5.i.i.i = tail call noalias noundef nonnull ptr @_Znwm(i64 noundef %mul.i.i.i) #22
  br label %_ZNSt12_Vector_baseIN8facebook5velox4exec13TypeSignatureESaIS3_EE11_M_allocateEm.exit

_ZNSt12_Vector_baseIN8facebook5velox4exec13TypeSignatureESaIS3_EE11_M_allocateEm.exit: ; preds = %_ZNKSt6vectorIN8facebook5velox4exec13TypeSignatureESaIS3_EE12_M_check_lenEmPKc.exit, %cond.true.i
  %cond.i19 = phi ptr [ %call5.i.i.i, %cond.true.i ], [ null, %_ZNKSt6vectorIN8facebook5velox4exec13TypeSignatureESaIS3_EE12_M_check_lenEmPKc.exit ]
  %add.ptr = getelementptr inbounds %"class.facebook::velox::exec::TypeSignature", ptr %cond.i19, i64 %sub.ptr.div.i
  invoke void @_ZN8facebook5velox4exec13TypeSignatureC2EOS2_(ptr noundef nonnull align 8 dereferenceable(96) %add.ptr, ptr noundef nonnull align 8 dereferenceable(96) %__args)
          to label %invoke.cont unwind label %lpad.body

invoke.cont:                                      ; preds = %_ZNSt12_Vector_baseIN8facebook5velox4exec13TypeSignatureESaIS3_EE11_M_allocateEm.exit
  %cmp.not8.i.i.i.i.i = icmp eq ptr %1, %__position.coerce
  br i1 %cmp.not8.i.i.i.i.i, label %invoke.cont10, label %for.body.i.i.i.i.i

for.body.i.i.i.i.i:                               ; preds = %invoke.cont, %for.inc.i.i.i.i.i
  %__cur.010.i.i.i.i.i = phi ptr [ %incdec.ptr1.i.i.i.i.i, %for.inc.i.i.i.i.i ], [ %cond.i19, %invoke.cont ]
  %__first.addr.09.i.i.i.i.i = phi ptr [ %incdec.ptr.i.i.i.i.i, %for.inc.i.i.i.i.i ], [ %1, %invoke.cont ]
  invoke void @_ZN8facebook5velox4exec13TypeSignatureC2ERKS2_(ptr noundef nonnull align 8 dereferenceable(96) %__cur.010.i.i.i.i.i, ptr noundef nonnull align 8 dereferenceable(96) %__first.addr.09.i.i.i.i.i)
          to label %for.inc.i.i.i.i.i unwind label %lpad.i.i.i.i.i

for.inc.i.i.i.i.i:                                ; preds = %for.body.i.i.i.i.i
  %incdec.ptr.i.i.i.i.i = getelementptr inbounds %"class.facebook::velox::exec::TypeSignature", ptr %__first.addr.09.i.i.i.i.i, i64 1
  %incdec.ptr1.i.i.i.i.i = getelementptr inbounds %"class.facebook::velox::exec::TypeSignature", ptr %__cur.010.i.i.i.i.i, i64 1
  %cmp.not.i.i.i.i.i = icmp eq ptr %incdec.ptr.i.i.i.i.i, %__position.coerce
  br i1 %cmp.not.i.i.i.i.i, label %invoke.cont10, label %for.body.i.i.i.i.i, !llvm.loop !19

lpad.i.i.i.i.i:                                   ; preds = %for.body.i.i.i.i.i
  %3 = landingpad { ptr, i32 }
          catch ptr null
  %4 = extractvalue { ptr, i32 } %3, 0
  %5 = tail call ptr @__cxa_begin_catch(ptr %4) #20
  invoke void @_ZNSt12_Destroy_auxILb0EE9__destroyIPN8facebook5velox4exec13TypeSignatureEEEvT_S7_(ptr noundef %cond.i19, ptr noundef %__cur.010.i.i.i.i.i)
          to label %invoke.cont3.i.i.i.i.i unwind label %lpad2.i.i.i.i.i

invoke.cont3.i.i.i.i.i:                           ; preds = %lpad.i.i.i.i.i
  invoke void @__cxa_rethrow() #24
          to label %unreachable.i.i.i.i.i unwind label %lpad2.i.i.i.i.i

lpad2.i.i.i.i.i:                                  ; preds = %invoke.cont3.i.i.i.i.i, %lpad.i.i.i.i.i
  %6 = landingpad { ptr, i32 }
          catch ptr null
  invoke void @__cxa_end_catch()
          to label %lpad.body.thread unwind label %terminate.lpad.i.i.i.i.i

lpad.body.thread:                                 ; preds = %lpad2.i.i.i.i.i
  %7 = extractvalue { ptr, i32 } %6, 0
  %8 = tail call ptr @__cxa_begin_catch(ptr %7) #20
  br label %if.then

terminate.lpad.i.i.i.i.i:                         ; preds = %lpad2.i.i.i.i.i
  %9 = landingpad { ptr, i32 }
          catch ptr null
  %10 = extractvalue { ptr, i32 } %9, 0
  tail call void @__clang_call_terminate(ptr %10) #21
  unreachable

unreachable.i.i.i.i.i:                            ; preds = %invoke.cont3.i.i.i.i.i
  unreachable

invoke.cont10:                                    ; preds = %for.inc.i.i.i.i.i, %invoke.cont
  %__cur.0.lcssa.i.i.i.i.i = phi ptr [ %cond.i19, %invoke.cont ], [ %incdec.ptr1.i.i.i.i.i, %for.inc.i.i.i.i.i ]
  %incdec.ptr = getelementptr inbounds %"class.facebook::velox::exec::TypeSignature", ptr %__cur.0.lcssa.i.i.i.i.i, i64 1
  %cmp.not8.i.i.i.i.i20 = icmp eq ptr %0, %__position.coerce
  br i1 %cmp.not8.i.i.i.i.i20, label %invoke.cont14, label %for.body.i.i.i.i.i21

for.body.i.i.i.i.i21:                             ; preds = %invoke.cont10, %for.inc.i.i.i.i.i30
  %__cur.010.i.i.i.i.i22 = phi ptr [ %incdec.ptr1.i.i.i.i.i32, %for.inc.i.i.i.i.i30 ], [ %incdec.ptr, %invoke.cont10 ]
  %__first.addr.09.i.i.i.i.i23 = phi ptr [ %incdec.ptr.i.i.i.i.i31, %for.inc.i.i.i.i.i30 ], [ %__position.coerce, %invoke.cont10 ]
  invoke void @_ZN8facebook5velox4exec13TypeSignatureC2ERKS2_(ptr noundef nonnull align 8 dereferenceable(96) %__cur.010.i.i.i.i.i22, ptr noundef nonnull align 8 dereferenceable(96) %__first.addr.09.i.i.i.i.i23)
          to label %for.inc.i.i.i.i.i30 unwind label %lpad.i.i.i.i.i24

for.inc.i.i.i.i.i30:                              ; preds = %for.body.i.i.i.i.i21
  %incdec.ptr.i.i.i.i.i31 = getelementptr inbounds %"class.facebook::velox::exec::TypeSignature", ptr %__first.addr.09.i.i.i.i.i23, i64 1
  %incdec.ptr1.i.i.i.i.i32 = getelementptr inbounds %"class.facebook::velox::exec::TypeSignature", ptr %__cur.010.i.i.i.i.i22, i64 1
  %cmp.not.i.i.i.i.i33 = icmp eq ptr %incdec.ptr.i.i.i.i.i31, %0
  br i1 %cmp.not.i.i.i.i.i33, label %invoke.cont14, label %for.body.i.i.i.i.i21, !llvm.loop !19

lpad.i.i.i.i.i24:                                 ; preds = %for.body.i.i.i.i.i21
  %11 = landingpad { ptr, i32 }
          catch ptr null
  %12 = extractvalue { ptr, i32 } %11, 0
  %13 = tail call ptr @__cxa_begin_catch(ptr %12) #20
  invoke void @_ZNSt12_Destroy_auxILb0EE9__destroyIPN8facebook5velox4exec13TypeSignatureEEEvT_S7_(ptr noundef nonnull %incdec.ptr, ptr noundef nonnull %__cur.010.i.i.i.i.i22)
          to label %invoke.cont3.i.i.i.i.i28 unwind label %lpad2.i.i.i.i.i25

invoke.cont3.i.i.i.i.i28:                         ; preds = %lpad.i.i.i.i.i24
  invoke void @__cxa_rethrow() #24
          to label %unreachable.i.i.i.i.i29 unwind label %lpad2.i.i.i.i.i25

lpad2.i.i.i.i.i25:                                ; preds = %invoke.cont3.i.i.i.i.i28, %lpad.i.i.i.i.i24
  %14 = landingpad { ptr, i32 }
          catch ptr null
  invoke void @__cxa_end_catch()
          to label %lpad.body.thread48 unwind label %terminate.lpad.i.i.i.i.i26

lpad.body.thread48:                               ; preds = %lpad2.i.i.i.i.i25
  %15 = extractvalue { ptr, i32 } %14, 0
  %16 = tail call ptr @__cxa_begin_catch(ptr %15) #20
  br label %if.else

terminate.lpad.i.i.i.i.i26:                       ; preds = %lpad2.i.i.i.i.i25
  %17 = landingpad { ptr, i32 }
          catch ptr null
  %18 = extractvalue { ptr, i32 } %17, 0
  tail call void @__clang_call_terminate(ptr %18) #21
  unreachable

unreachable.i.i.i.i.i29:                          ; preds = %invoke.cont3.i.i.i.i.i28
  unreachable

invoke.cont14:                                    ; preds = %for.inc.i.i.i.i.i30, %invoke.cont10
  %__cur.0.lcssa.i.i.i.i.i34 = phi ptr [ %incdec.ptr, %invoke.cont10 ], [ %incdec.ptr1.i.i.i.i.i32, %for.inc.i.i.i.i.i30 ]
  tail call void @_ZNSt12_Destroy_auxILb0EE9__destroyIPN8facebook5velox4exec13TypeSignatureEEEvT_S7_(ptr noundef %1, ptr noundef %0)
  %tobool.not.i = icmp eq ptr %1, null
  br i1 %tobool.not.i, label %_ZNSt12_Vector_baseIN8facebook5velox4exec13TypeSignatureESaIS3_EE13_M_deallocateEPS3_m.exit, label %if.then.i39

if.then.i39:                                      ; preds = %invoke.cont14
  tail call void @_ZdlPv(ptr noundef nonnull %1) #23
  br label %_ZNSt12_Vector_baseIN8facebook5velox4exec13TypeSignatureESaIS3_EE13_M_deallocateEPS3_m.exit

_ZNSt12_Vector_baseIN8facebook5velox4exec13TypeSignatureESaIS3_EE13_M_deallocateEPS3_m.exit: ; preds = %invoke.cont14, %if.then.i39
  %_M_end_of_storage = getelementptr inbounds %"struct.std::_Vector_base<facebook::velox::exec::TypeSignature, std::allocator<facebook::velox::exec::TypeSignature>>::_Vector_impl_data", ptr %this, i64 0, i32 2
  store ptr %cond.i19, ptr %this, align 8
  store ptr %__cur.0.lcssa.i.i.i.i.i34, ptr %_M_finish.i.i, align 8
  %add.ptr29 = getelementptr inbounds %"class.facebook::velox::exec::TypeSignature", ptr %cond.i19, i64 %cond.i
  store ptr %add.ptr29, ptr %_M_end_of_storage, align 8
  ret void

lpad.body:                                        ; preds = %_ZNSt12_Vector_baseIN8facebook5velox4exec13TypeSignatureESaIS3_EE11_M_allocateEm.exit
  %19 = landingpad { ptr, i32 }
          catch ptr null
  %20 = extractvalue { ptr, i32 } %19, 0
  %21 = tail call ptr @__cxa_begin_catch(ptr %20) #20
  %tobool.not = icmp eq ptr %cond.i19, null
  br i1 %tobool.not, label %if.then, label %if.else

if.then:                                          ; preds = %lpad.body.thread, %lpad.body
  tail call void @_ZNSt16allocator_traitsISaIN8facebook5velox4exec13TypeSignatureEEE7destroyIS3_EEvRS4_PT_(ptr noundef nonnull align 1 dereferenceable(1) %this, ptr noundef %add.ptr) #20
  br label %if.end

if.else:                                          ; preds = %lpad.body.thread48, %lpad.body
  %__new_finish.0.lpad-body52 = phi ptr [ %incdec.ptr, %lpad.body.thread48 ], [ %cond.i19, %lpad.body ]
  invoke void @_ZNSt12_Destroy_auxILb0EE9__destroyIPN8facebook5velox4exec13TypeSignatureEEEvT_S7_(ptr noundef %cond.i19, ptr noundef nonnull %__new_finish.0.lpad-body52)
          to label %if.end unwind label %lpad19

lpad19:                                           ; preds = %if.else, %invoke.cont21
  %22 = landingpad { ptr, i32 }
          cleanup
  invoke void @__cxa_end_catch()
          to label %eh.resume unwind label %terminate.lpad

if.end:                                           ; preds = %if.else, %if.then
  %tobool.not.i40 = icmp eq ptr %cond.i19, null
  br i1 %tobool.not.i40, label %invoke.cont21, label %if.then.i41

if.then.i41:                                      ; preds = %if.end
  tail call void @_ZdlPv(ptr noundef nonnull %cond.i19) #23
  br label %invoke.cont21

invoke.cont21:                                    ; preds = %if.then.i41, %if.end
  invoke void @__cxa_rethrow() #24
          to label %unreachable unwind label %lpad19

eh.resume:                                        ; preds = %lpad19
  resume { ptr, i32 } %22

terminate.lpad:                                   ; preds = %lpad19
  %23 = landingpad { ptr, i32 }
          catch ptr null
  %24 = extractvalue { ptr, i32 } %23, 0
  tail call void @__clang_call_terminate(ptr %24) #21
  unreachable

unreachable:                                      ; preds = %invoke.cont21
  unreachable
}

; Function Attrs: mustprogress nounwind uwtable
define linkonce_odr void @_ZNSt16allocator_traitsISaIN8facebook5velox4exec13TypeSignatureEEE7destroyIS3_EEvRS4_PT_(ptr noundef nonnull align 1 dereferenceable(1) %__a, ptr noundef %__p) local_unnamed_addr #2 comdat align 2 personality ptr @__gxx_personality_v0 {
entry:
  %_M_engaged.i.i.i.i.i.i = getelementptr inbounds %"class.facebook::velox::exec::TypeSignature", ptr %__p, i64 0, i32 2, i32 0, i32 0, i32 0, i32 0, i32 1
  %0 = load i8, ptr %_M_engaged.i.i.i.i.i.i, align 8
  %1 = and i8 %0, 1
  %tobool.not.i.i.i.i.i.i = icmp eq i8 %1, 0
  br i1 %tobool.not.i.i.i.i.i.i, label %_ZNSt8optionalINSt7__cxx1112basic_stringIcSt11char_traitsIcESaIcEEEED2Ev.exit.i.i, label %if.then.i.i.i.i.i.i

if.then.i.i.i.i.i.i:                              ; preds = %entry
  %rowFieldName_.i.i = getelementptr inbounds %"class.facebook::velox::exec::TypeSignature", ptr %__p, i64 0, i32 2
  store i8 0, ptr %_M_engaged.i.i.i.i.i.i, align 8
  tail call void @_ZNSt7__cxx1112basic_stringIcSt11char_traitsIcESaIcEED1Ev(ptr noundef nonnull align 8 dereferenceable(32) %rowFieldName_.i.i) #20
  br label %_ZNSt8optionalINSt7__cxx1112basic_stringIcSt11char_traitsIcESaIcEEEED2Ev.exit.i.i

_ZNSt8optionalINSt7__cxx1112basic_stringIcSt11char_traitsIcESaIcEEEED2Ev.exit.i.i: ; preds = %if.then.i.i.i.i.i.i, %entry
  %parameters_.i.i = getelementptr inbounds %"class.facebook::velox::exec::TypeSignature", ptr %__p, i64 0, i32 1
  %2 = load ptr, ptr %parameters_.i.i, align 8
  %_M_finish.i.i.i = getelementptr inbounds %"class.facebook::velox::exec::TypeSignature", ptr %__p, i64 0, i32 1, i32 0, i32 0, i32 0, i32 1
  %3 = load ptr, ptr %_M_finish.i.i.i, align 8
  invoke void @_ZNSt12_Destroy_auxILb0EE9__destroyIPN8facebook5velox4exec13TypeSignatureEEEvT_S7_(ptr noundef %2, ptr noundef %3)
          to label %_ZNSt6vectorIN8facebook5velox4exec13TypeSignatureESaIS3_EED2Ev.exit.i.i unwind label %terminate.lpad.i.i.i

terminate.lpad.i.i.i:                             ; preds = %_ZNSt8optionalINSt7__cxx1112basic_stringIcSt11char_traitsIcESaIcEEEED2Ev.exit.i.i
  %4 = landingpad { ptr, i32 }
          catch ptr null
  %5 = extractvalue { ptr, i32 } %4, 0
  tail call void @__clang_call_terminate(ptr %5) #21
  unreachable

_ZNSt6vectorIN8facebook5velox4exec13TypeSignatureESaIS3_EED2Ev.exit.i.i: ; preds = %_ZNSt8optionalINSt7__cxx1112basic_stringIcSt11char_traitsIcESaIcEEEED2Ev.exit.i.i
  %6 = load ptr, ptr %parameters_.i.i, align 8
  %tobool.not.i.i.i.i = icmp eq ptr %6, null
  br i1 %tobool.not.i.i.i.i, label %_ZNSt15__new_allocatorIN8facebook5velox4exec13TypeSignatureEE7destroyIS3_EEvPT_.exit, label %if.then.i.i.i.i

if.then.i.i.i.i:                                  ; preds = %_ZNSt6vectorIN8facebook5velox4exec13TypeSignatureESaIS3_EED2Ev.exit.i.i
  tail call void @_ZdlPv(ptr noundef nonnull %6) #23
  br label %_ZNSt15__new_allocatorIN8facebook5velox4exec13TypeSignatureEE7destroyIS3_EEvPT_.exit

_ZNSt15__new_allocatorIN8facebook5velox4exec13TypeSignatureEE7destroyIS3_EEvPT_.exit: ; preds = %_ZNSt6vectorIN8facebook5velox4exec13TypeSignatureESaIS3_EED2Ev.exit.i.i, %if.then.i.i.i.i
  tail call void @_ZNSt7__cxx1112basic_stringIcSt11char_traitsIcESaIcEED1Ev(ptr noundef nonnull align 8 dereferenceable(32) %__p) #20
  ret void
}

; Function Attrs: noreturn
declare void @_ZSt20__throw_length_errorPKc(ptr noundef) local_unnamed_addr #7

; Function Attrs: mustprogress uwtable
define linkonce_odr void @_ZNSt6vectorIbSaIbEE13_M_insert_auxESt13_Bit_iteratorb(ptr noundef nonnull align 8 dereferenceable(40) %this, ptr %__position.coerce0, i32 %__position.coerce1, i1 noundef zeroext %__x) local_unnamed_addr #0 comdat align 2 personality ptr @__gxx_personality_v0 {
entry:
  %_M_finish = getelementptr inbounds %"struct.std::_Bvector_base<std::allocator<bool>>::_Bvector_impl_data", ptr %this, i64 0, i32 1
  %0 = load ptr, ptr %_M_finish, align 8
  %_M_end_of_storage.i = getelementptr inbounds %"struct.std::_Bvector_base<std::allocator<bool>>::_Bvector_impl_data", ptr %this, i64 0, i32 2
  %1 = load ptr, ptr %_M_end_of_storage.i, align 8
  %cmp.not = icmp eq ptr %0, %1
  %_M_offset.i.i.i.i = getelementptr inbounds %"struct.std::_Bvector_base<std::allocator<bool>>::_Bvector_impl_data", ptr %this, i64 0, i32 1, i32 0, i32 1
  %2 = load i32, ptr %_M_offset.i.i.i.i, align 8
  %sub.ptr.lhs.cast.i.i.i = ptrtoint ptr %0 to i64
  br i1 %cmp.not, label %if.else, label %if.then

if.then:                                          ; preds = %entry
  %conv.i.i.i = zext i32 %2 to i64
  %sub.ptr.rhs.cast.i.i.i.i.i.i = ptrtoint ptr %__position.coerce0 to i64
  %sub.ptr.sub.i.i.i.i.i.i = sub i64 %sub.ptr.lhs.cast.i.i.i, %sub.ptr.rhs.cast.i.i.i.i.i.i
  %mul.i.i.i.i.i.i = shl nsw i64 %sub.ptr.sub.i.i.i.i.i.i, 3
  %conv3.i.i.i.i.i.i = zext i32 %__position.coerce1 to i64
  %add.i.i.i.i.i.i = sub nsw i64 %conv.i.i.i, %conv3.i.i.i.i.i.i
  %sub.i.i.i.i.i.i = add i64 %add.i.i.i.i.i.i, %mul.i.i.i.i.i.i
  %cmp24.i.i.i.i.i = icmp sgt i64 %sub.i.i.i.i.i.i, 0
  br i1 %cmp24.i.i.i.i.i, label %for.body.i.i.i.i.i.preheader, label %_ZSt13copy_backwardISt13_Bit_iteratorS0_ET0_T_S2_S1_.exit

for.body.i.i.i.i.i.preheader:                     ; preds = %if.then
  %add.i.i.i = add nuw nsw i64 %conv.i.i.i, 1
  %3 = trunc i64 %add.i.i.i to i32
  %4 = and i32 %3, 63
  %div.i.i.i104106 = lshr i64 %add.i.i.i, 6
  %add.ptr.i.i.i = getelementptr inbounds i64, ptr %0, i64 %div.i.i.i104106
  br label %for.body.i.i.i.i.i

for.body.i.i.i.i.i:                               ; preds = %for.body.i.i.i.i.i.preheader, %_ZNSt14_Bit_referenceaSERKS_.exit.i.i.i.i.i
  %__n.029.i.i.i.i.i = phi i64 [ %dec.i.i.i.i.i, %_ZNSt14_Bit_referenceaSERKS_.exit.i.i.i.i.i ], [ %sub.i.i.i.i.i.i, %for.body.i.i.i.i.i.preheader ]
  %__last.sroa.5.028.i.i.i.i.i = phi i32 [ %spec.select23.i.i.i.i.i, %_ZNSt14_Bit_referenceaSERKS_.exit.i.i.i.i.i ], [ %2, %for.body.i.i.i.i.i.preheader ]
  %__last.sroa.0.027.i.i.i.i.i = phi ptr [ %spec.select.i.i.i.i.i, %_ZNSt14_Bit_referenceaSERKS_.exit.i.i.i.i.i ], [ %0, %for.body.i.i.i.i.i.preheader ]
  %__result.sroa.5.026.i.i.i.i.i = phi i32 [ %__result.sroa.5.1.i.i.i.i.i, %_ZNSt14_Bit_referenceaSERKS_.exit.i.i.i.i.i ], [ %4, %for.body.i.i.i.i.i.preheader ]
  %__result.sroa.0.025.i.i.i.i.i = phi ptr [ %__result.sroa.0.1.i.i.i.i.i, %_ZNSt14_Bit_referenceaSERKS_.exit.i.i.i.i.i ], [ %add.ptr.i.i.i, %for.body.i.i.i.i.i.preheader ]
  %dec.i.i.i.i.i.i.i = add i32 %__last.sroa.5.028.i.i.i.i.i, -1
  %cmp.i.i.i.i.i.i.i = icmp eq i32 %__last.sroa.5.028.i.i.i.i.i, 0
  %spec.select.idx.i.i.i.i.i = sext i1 %cmp.i.i.i.i.i.i.i to i64
  %spec.select.i.i.i.i.i = getelementptr inbounds i64, ptr %__last.sroa.0.027.i.i.i.i.i, i64 %spec.select.idx.i.i.i.i.i
  %spec.select23.i.i.i.i.i = select i1 %cmp.i.i.i.i.i.i.i, i32 63, i32 %dec.i.i.i.i.i.i.i
  %sh_prom.i.i.i.i.i.i = zext nneg i32 %spec.select23.i.i.i.i.i to i64
  %shl.i.i.i.i.i.i = shl nuw i64 1, %sh_prom.i.i.i.i.i.i
  %dec.i.i4.i.i.i.i.i = add i32 %__result.sroa.5.026.i.i.i.i.i, -1
  %cmp.i.i5.i.i.i.i.i = icmp eq i32 %__result.sroa.5.026.i.i.i.i.i, 0
  %__result.sroa.0.1.idx.i.i.i.i.i = sext i1 %cmp.i.i5.i.i.i.i.i to i64
  %__result.sroa.0.1.i.i.i.i.i = getelementptr inbounds i64, ptr %__result.sroa.0.025.i.i.i.i.i, i64 %__result.sroa.0.1.idx.i.i.i.i.i
  %__result.sroa.5.1.i.i.i.i.i = select i1 %cmp.i.i5.i.i.i.i.i, i32 63, i32 %dec.i.i4.i.i.i.i.i
  %sh_prom.i10.i.i.i.i.i = zext nneg i32 %__result.sroa.5.1.i.i.i.i.i to i64
  %shl.i11.i.i.i.i.i = shl nuw i64 1, %sh_prom.i10.i.i.i.i.i
  %5 = load i64, ptr %spec.select.i.i.i.i.i, align 8
  %and.i.i.i.i.i.i.i = and i64 %5, %shl.i.i.i.i.i.i
  %tobool.i.not.i.i.i.i.i.i = icmp eq i64 %and.i.i.i.i.i.i.i, 0
  br i1 %tobool.i.not.i.i.i.i.i.i, label %if.else.i.i.i.i.i.i.i, label %if.then.i.i14.i.i.i.i.i

if.then.i.i14.i.i.i.i.i:                          ; preds = %for.body.i.i.i.i.i
  %6 = load i64, ptr %__result.sroa.0.1.i.i.i.i.i, align 8
  %or.i.i.i.i.i.i.i = or i64 %6, %shl.i11.i.i.i.i.i
  br label %_ZNSt14_Bit_referenceaSERKS_.exit.i.i.i.i.i

if.else.i.i.i.i.i.i.i:                            ; preds = %for.body.i.i.i.i.i
  %not.i.i.i.i.i.i.i = xor i64 %shl.i11.i.i.i.i.i, -1
  %7 = load i64, ptr %__result.sroa.0.1.i.i.i.i.i, align 8
  %and.i2.i.i.i.i.i.i = and i64 %7, %not.i.i.i.i.i.i.i
  br label %_ZNSt14_Bit_referenceaSERKS_.exit.i.i.i.i.i

_ZNSt14_Bit_referenceaSERKS_.exit.i.i.i.i.i:      ; preds = %if.else.i.i.i.i.i.i.i, %if.then.i.i14.i.i.i.i.i
  %storemerge.i.i.i.i.i = phi i64 [ %or.i.i.i.i.i.i.i, %if.then.i.i14.i.i.i.i.i ], [ %and.i2.i.i.i.i.i.i, %if.else.i.i.i.i.i.i.i ]
  store i64 %storemerge.i.i.i.i.i, ptr %__result.sroa.0.1.i.i.i.i.i, align 8
  %dec.i.i.i.i.i = add nsw i64 %__n.029.i.i.i.i.i, -1
  %cmp.i.i.i.i.i = icmp sgt i64 %__n.029.i.i.i.i.i, 1
  br i1 %cmp.i.i.i.i.i, label %for.body.i.i.i.i.i, label %_ZSt13copy_backwardISt13_Bit_iteratorS0_ET0_T_S2_S1_.exit, !llvm.loop !20

_ZSt13copy_backwardISt13_Bit_iteratorS0_ET0_T_S2_S1_.exit: ; preds = %_ZNSt14_Bit_referenceaSERKS_.exit.i.i.i.i.i, %if.then
  %shl.i = shl nuw i64 1, %conv3.i.i.i.i.i.i
  br i1 %__x, label %if.then.i, label %if.else.i

if.then.i:                                        ; preds = %_ZSt13copy_backwardISt13_Bit_iteratorS0_ET0_T_S2_S1_.exit
  %8 = load i64, ptr %__position.coerce0, align 8
  %or.i = or i64 %8, %shl.i
  br label %_ZNSt14_Bit_referenceaSEb.exit

if.else.i:                                        ; preds = %_ZSt13copy_backwardISt13_Bit_iteratorS0_ET0_T_S2_S1_.exit
  %not.i = xor i64 %shl.i, -1
  %9 = load i64, ptr %__position.coerce0, align 8
  %and.i = and i64 %9, %not.i
  br label %_ZNSt14_Bit_referenceaSEb.exit

_ZNSt14_Bit_referenceaSEb.exit:                   ; preds = %if.then.i, %if.else.i
  %storemerge = phi i64 [ %and.i, %if.else.i ], [ %or.i, %if.then.i ]
  store i64 %storemerge, ptr %__position.coerce0, align 8
  %10 = load i32, ptr %_M_offset.i.i.i.i, align 8
  %inc.i.i = add i32 %10, 1
  store i32 %inc.i.i, ptr %_M_offset.i.i.i.i, align 8
  %cmp.i.i = icmp eq i32 %10, 63
  br i1 %cmp.i.i, label %if.then.i.i, label %if.end

if.then.i.i:                                      ; preds = %_ZNSt14_Bit_referenceaSEb.exit
  store i32 0, ptr %_M_offset.i.i.i.i, align 8
  %11 = load ptr, ptr %_M_finish, align 8
  %incdec.ptr.i.i = getelementptr inbounds i64, ptr %11, i64 1
  store ptr %incdec.ptr.i.i, ptr %_M_finish, align 8
  br label %if.end

if.else:                                          ; preds = %entry
  %12 = load ptr, ptr %this, align 8
  %sub.ptr.rhs.cast.i.i.i = ptrtoint ptr %12 to i64
  %sub.ptr.sub.i.i.i = sub i64 %sub.ptr.lhs.cast.i.i.i, %sub.ptr.rhs.cast.i.i.i
  %mul.i.i.i = shl nsw i64 %sub.ptr.sub.i.i.i, 3
  %conv.i.i.i6 = zext i32 %2 to i64
  %add.i.i.i7 = add nsw i64 %mul.i.i.i, %conv.i.i.i6
  %cmp.i = icmp eq i64 %add.i.i.i7, 9223372036854775744
  br i1 %cmp.i, label %if.then.i8, label %_ZNKSt6vectorIbSaIbEE12_M_check_lenEmPKc.exit

if.then.i8:                                       ; preds = %if.else
  tail call void @_ZSt20__throw_length_errorPKc(ptr noundef nonnull @.str.6) #24
  unreachable

_ZNKSt6vectorIbSaIbEE12_M_check_lenEmPKc.exit:    ; preds = %if.else
  %.sroa.speculated.i = tail call i64 @llvm.umax.i64(i64 %add.i.i.i7, i64 1)
  %add.i = add i64 %.sroa.speculated.i, %add.i.i.i7
  %cmp7.i = icmp ult i64 %add.i, %add.i.i.i7
  %13 = tail call i64 @llvm.umin.i64(i64 %add.i, i64 9223372036854775744)
  %14 = add nuw nsw i64 %13, 63
  %sub.i.i = select i1 %cmp7.i, i64 9223372036854775807, i64 %14
  %15 = lshr i64 %sub.i.i, 3
  %mul.i.i.i9 = and i64 %15, 1152921504606846968
  %call5.i.i.i = tail call noalias noundef nonnull ptr @_Znwm(i64 noundef %mul.i.i.i9) #22
  %sub.ptr.lhs.cast.i.i.i.i.i.i18 = ptrtoint ptr %__position.coerce0 to i64
  %sub.ptr.sub.i.i.i.i.i.i20 = sub i64 %sub.ptr.lhs.cast.i.i.i.i.i.i18, %sub.ptr.rhs.cast.i.i.i
  %tobool.not.i.i.i.i.i.i = icmp eq ptr %12, %__position.coerce0
  br i1 %tobool.not.i.i.i.i.i.i, label %_ZSt4copyIPmS0_ET0_T_S2_S1_.exit.i, label %if.then.i.i.i.i.i.i

if.then.i.i.i.i.i.i:                              ; preds = %_ZNKSt6vectorIbSaIbEE12_M_check_lenEmPKc.exit
  tail call void @llvm.memmove.p0.p0.i64(ptr nonnull align 8 %call5.i.i.i, ptr align 8 %12, i64 %sub.ptr.sub.i.i.i.i.i.i20, i1 false)
  br label %_ZSt4copyIPmS0_ET0_T_S2_S1_.exit.i

_ZSt4copyIPmS0_ET0_T_S2_S1_.exit.i:               ; preds = %if.then.i.i.i.i.i.i, %_ZNKSt6vectorIbSaIbEE12_M_check_lenEmPKc.exit
  %add.ptr.i.i.i.i.i.i = getelementptr inbounds i8, ptr %call5.i.i.i, i64 %sub.ptr.sub.i.i.i.i.i.i20
  %cmp20.i.i.i.i.i.not.i = icmp eq i32 %__position.coerce1, 0
  br i1 %cmp20.i.i.i.i.i.not.i, label %_ZNSt13_Bit_iteratorppEi.exit, label %for.body.i.i.i.i.i.preheader.i

for.body.i.i.i.i.i.preheader.i:                   ; preds = %_ZSt4copyIPmS0_ET0_T_S2_S1_.exit.i
  %conv.i.i.i.i.i.i.i = zext i32 %__position.coerce1 to i64
  br label %for.body.i.i.i.i.i.i

for.body.i.i.i.i.i.i:                             ; preds = %_ZNSt14_Bit_referenceaSEb.exit.i.i.i.i.i.i, %for.body.i.i.i.i.i.preheader.i
  %__n.025.i.i.i.i.i.i = phi i64 [ %dec.i.i.i.i.i.i, %_ZNSt14_Bit_referenceaSEb.exit.i.i.i.i.i.i ], [ %conv.i.i.i.i.i.i.i, %for.body.i.i.i.i.i.preheader.i ]
  %__first.sroa.5.024.i.i.i.i.i.i = phi i32 [ %spec.select19.i.i.i.i.i.i, %_ZNSt14_Bit_referenceaSEb.exit.i.i.i.i.i.i ], [ 0, %for.body.i.i.i.i.i.preheader.i ]
  %__first.sroa.0.023.i.i.i.i.i.i = phi ptr [ %spec.select.i.i.i.i.i.i, %_ZNSt14_Bit_referenceaSEb.exit.i.i.i.i.i.i ], [ %__position.coerce0, %for.body.i.i.i.i.i.preheader.i ]
  %__result.sroa.0.022.i.i.i.i.i.i = phi ptr [ %__result.sroa.0.1.i.i.i.i.i.i, %_ZNSt14_Bit_referenceaSEb.exit.i.i.i.i.i.i ], [ %add.ptr.i.i.i.i.i.i, %for.body.i.i.i.i.i.preheader.i ]
  %__result.sroa.5.021.i.i.i.i.i.i = phi i32 [ %__result.sroa.5.1.i.i.i.i.i.i, %_ZNSt14_Bit_referenceaSEb.exit.i.i.i.i.i.i ], [ 0, %for.body.i.i.i.i.i.preheader.i ]
  %sh_prom.i.i.i.i.i.i.i = zext nneg i32 %__first.sroa.5.024.i.i.i.i.i.i to i64
  %shl.i.i.i.i.i.i.i = shl nuw i64 1, %sh_prom.i.i.i.i.i.i.i
  %16 = load i64, ptr %__first.sroa.0.023.i.i.i.i.i.i, align 8
  %and.i.i.i.i.i.i.i.i = and i64 %16, %shl.i.i.i.i.i.i.i
  %tobool.i.i.not.i.i.i.i.i.i = icmp eq i64 %and.i.i.i.i.i.i.i.i, 0
  %sh_prom.i4.i.i.i.i.i.i = zext nneg i32 %__result.sroa.5.021.i.i.i.i.i.i to i64
  %shl.i5.i.i.i.i.i.i = shl nuw i64 1, %sh_prom.i4.i.i.i.i.i.i
  br i1 %tobool.i.i.not.i.i.i.i.i.i, label %if.else.i.i.i.i.i.i.i22, label %if.then.i.i.i.i.i.i.i

if.then.i.i.i.i.i.i.i:                            ; preds = %for.body.i.i.i.i.i.i
  %17 = load i64, ptr %__result.sroa.0.022.i.i.i.i.i.i, align 8
  %or.i.i.i.i.i.i.i21 = or i64 %17, %shl.i5.i.i.i.i.i.i
  br label %_ZNSt14_Bit_referenceaSEb.exit.i.i.i.i.i.i

if.else.i.i.i.i.i.i.i22:                          ; preds = %for.body.i.i.i.i.i.i
  %not.i.i.i.i.i.i.i23 = xor i64 %shl.i5.i.i.i.i.i.i, -1
  %18 = load i64, ptr %__result.sroa.0.022.i.i.i.i.i.i, align 8
  %and.i.i.i.i.i.i.i24 = and i64 %18, %not.i.i.i.i.i.i.i23
  br label %_ZNSt14_Bit_referenceaSEb.exit.i.i.i.i.i.i

_ZNSt14_Bit_referenceaSEb.exit.i.i.i.i.i.i:       ; preds = %if.else.i.i.i.i.i.i.i22, %if.then.i.i.i.i.i.i.i
  %storemerge.i.i.i.i.i.i = phi i64 [ %and.i.i.i.i.i.i.i24, %if.else.i.i.i.i.i.i.i22 ], [ %or.i.i.i.i.i.i.i21, %if.then.i.i.i.i.i.i.i ]
  store i64 %storemerge.i.i.i.i.i.i, ptr %__result.sroa.0.022.i.i.i.i.i.i, align 8
  %inc.i.i.i.i.i.i.i.i = add i32 %__first.sroa.5.024.i.i.i.i.i.i, 1
  %cmp.i.i.i.i.i.i.i.i = icmp eq i32 %__first.sroa.5.024.i.i.i.i.i.i, 63
  %spec.select.idx.i.i.i.i.i.i = zext i1 %cmp.i.i.i.i.i.i.i.i to i64
  %spec.select.i.i.i.i.i.i = getelementptr inbounds i64, ptr %__first.sroa.0.023.i.i.i.i.i.i, i64 %spec.select.idx.i.i.i.i.i.i
  %spec.select19.i.i.i.i.i.i = select i1 %cmp.i.i.i.i.i.i.i.i, i32 0, i32 %inc.i.i.i.i.i.i.i.i
  %inc.i.i7.i.i.i.i.i.i = add i32 %__result.sroa.5.021.i.i.i.i.i.i, 1
  %cmp.i.i8.i.i.i.i.i.i = icmp eq i32 %__result.sroa.5.021.i.i.i.i.i.i, 63
  %__result.sroa.5.1.i.i.i.i.i.i = select i1 %cmp.i.i8.i.i.i.i.i.i, i32 0, i32 %inc.i.i7.i.i.i.i.i.i
  %__result.sroa.0.1.idx.i.i.i.i.i.i = zext i1 %cmp.i.i8.i.i.i.i.i.i to i64
  %__result.sroa.0.1.i.i.i.i.i.i = getelementptr inbounds i64, ptr %__result.sroa.0.022.i.i.i.i.i.i, i64 %__result.sroa.0.1.idx.i.i.i.i.i.i
  %dec.i.i.i.i.i.i = add nsw i64 %__n.025.i.i.i.i.i.i, -1
  %cmp.i.i.i.i.i.i = icmp sgt i64 %__n.025.i.i.i.i.i.i, 1
  br i1 %cmp.i.i.i.i.i.i, label %for.body.i.i.i.i.i.i, label %_ZNSt6vectorIbSaIbEE15_M_copy_alignedESt19_Bit_const_iteratorS2_St13_Bit_iterator.exit, !llvm.loop !21

_ZNSt6vectorIbSaIbEE15_M_copy_alignedESt19_Bit_const_iteratorS2_St13_Bit_iterator.exit: ; preds = %_ZNSt14_Bit_referenceaSEb.exit.i.i.i.i.i.i
  %inc.i.i26 = add i32 %__result.sroa.5.1.i.i.i.i.i.i, 1
  %cmp.i.i27 = icmp eq i32 %__result.sroa.5.1.i.i.i.i.i.i, 63
  br i1 %cmp.i.i27, label %if.then.i.i30, label %_ZNSt13_Bit_iteratorppEi.exit

if.then.i.i30:                                    ; preds = %_ZNSt6vectorIbSaIbEE15_M_copy_alignedESt19_Bit_const_iteratorS2_St13_Bit_iterator.exit
  %incdec.ptr.i.i31 = getelementptr inbounds i64, ptr %__result.sroa.0.1.i.i.i.i.i.i, i64 1
  br label %_ZNSt13_Bit_iteratorppEi.exit

_ZNSt13_Bit_iteratorppEi.exit:                    ; preds = %_ZSt4copyIPmS0_ET0_T_S2_S1_.exit.i, %_ZNSt6vectorIbSaIbEE15_M_copy_alignedESt19_Bit_const_iteratorS2_St13_Bit_iterator.exit, %if.then.i.i30
  %__result.sroa.0.0.lcssa.i.i.i.i.i.i103 = phi ptr [ %__result.sroa.0.1.i.i.i.i.i.i, %if.then.i.i30 ], [ %__result.sroa.0.1.i.i.i.i.i.i, %_ZNSt6vectorIbSaIbEE15_M_copy_alignedESt19_Bit_const_iteratorS2_St13_Bit_iterator.exit ], [ %add.ptr.i.i.i.i.i.i, %_ZSt4copyIPmS0_ET0_T_S2_S1_.exit.i ]
  %__result.sroa.5.0.lcssa.i.i.i.i.i.i102 = phi i32 [ 63, %if.then.i.i30 ], [ %__result.sroa.5.1.i.i.i.i.i.i, %_ZNSt6vectorIbSaIbEE15_M_copy_alignedESt19_Bit_const_iteratorS2_St13_Bit_iterator.exit ], [ 0, %_ZSt4copyIPmS0_ET0_T_S2_S1_.exit.i ]
  %__i.sroa.0.0 = phi ptr [ %incdec.ptr.i.i31, %if.then.i.i30 ], [ %__result.sroa.0.1.i.i.i.i.i.i, %_ZNSt6vectorIbSaIbEE15_M_copy_alignedESt19_Bit_const_iteratorS2_St13_Bit_iterator.exit ], [ %add.ptr.i.i.i.i.i.i, %_ZSt4copyIPmS0_ET0_T_S2_S1_.exit.i ]
  %__i.sroa.4.0 = phi i32 [ 0, %if.then.i.i30 ], [ %inc.i.i26, %_ZNSt6vectorIbSaIbEE15_M_copy_alignedESt19_Bit_const_iteratorS2_St13_Bit_iterator.exit ], [ 1, %_ZSt4copyIPmS0_ET0_T_S2_S1_.exit.i ]
