; ModuleID = 'bench/velox/original/SimpleComparisonMatcher.cpp.ll'
source_filename = "bench/velox/original/SimpleComparisonMatcher.cpp.ll"
target datalayout = "e-m:e-p270:32:32-p271:32:32-p272:64:64-i64:64-i128:128-f80:128-n8:16:32:64-S128"
target triple = "x86_64-unknown-linux-gnu"

%"class.std::optional" = type { %"struct.std::_Optional_base" }
%"struct.std::_Optional_base" = type { %"struct.std::_Optional_payload" }
%"struct.std::_Optional_payload" = type { %"struct.std::_Optional_payload.base", [7 x i8] }
%"struct.std::_Optional_payload.base" = type { %"struct.std::_Optional_payload_base.base" }
%"struct.std::_Optional_payload_base.base" = type { %"union.std::_Optional_payload_base<facebook::velox::functions::prestosql::SimpleComparison>::_Storage", i8 }
%"union.std::_Optional_payload_base<facebook::velox::functions::prestosql::SimpleComparison>::_Storage" = type { %"struct.facebook::velox::functions::prestosql::SimpleComparison" }
%"struct.facebook::velox::functions::prestosql::SimpleComparison" = type <{ %"class.std::shared_ptr", i8, [7 x i8] }>
%"class.std::shared_ptr" = type { %"class.std::__shared_ptr" }
%"class.std::__shared_ptr" = type { ptr, %"class.std::__shared_count" }
%"class.std::__shared_count" = type { ptr }
%"class.std::allocator.53" = type { i8 }
%"class.std::shared_ptr.2" = type { %"class.std::__shared_ptr.3" }
%"class.std::__shared_ptr.3" = type { ptr, %"class.std::__shared_count" }
%"class.std::__cxx11::basic_string" = type { %"struct.std::__cxx11::basic_string<char>::_Alloc_hider", i64, %union.anon }
%"struct.std::__cxx11::basic_string<char>::_Alloc_hider" = type { ptr }
%union.anon = type { i64, [8 x i8] }
%"class.std::shared_ptr.5" = type { %"class.std::__shared_ptr.6" }
%"class.std::__shared_ptr.6" = type { ptr, %"class.std::__shared_count" }
%"class.std::unordered_map" = type { %"class.std::_Hashtable" }
%"class.std::_Hashtable" = type { ptr, i64, %"struct.std::__detail::_Hash_node_base", i64, %"struct.std::__detail::_Prime_rehash_policy", ptr }
%"struct.std::__detail::_Hash_node_base" = type { ptr }
%"struct.std::__detail::_Prime_rehash_policy" = type { float, i64 }
%"class.std::shared_ptr.22" = type { %"class.std::__shared_ptr.23" }
%"class.std::__shared_ptr.23" = type { ptr, %"class.std::__shared_count" }
%"class.std::_Sp_counted_base" = type { ptr, i32, i32 }
%"class.std::_Sp_counted_ptr_inplace.75" = type { %"class.std::_Sp_counted_base", %"class.std::_Sp_counted_ptr_inplace<facebook::velox::functions::prestosql::(anonymous namespace)::AnySingleInputMatcher, std::allocator<void>, __gnu_cxx::_S_atomic>::_Impl" }
%"class.std::_Sp_counted_ptr_inplace<facebook::velox::functions::prestosql::(anonymous namespace)::AnySingleInputMatcher, std::allocator<void>, __gnu_cxx::_S_atomic>::_Impl" = type { %"struct.__gnu_cxx::__aligned_buffer.76" }
%"struct.__gnu_cxx::__aligned_buffer.76" = type { %"union.std::aligned_storage<24, 8>::type" }
%"union.std::aligned_storage<24, 8>::type" = type { [24 x i8] }
%"class.std::_Sp_counted_ptr_inplace.120" = type { %"class.std::_Sp_counted_base", %"class.std::_Sp_counted_ptr_inplace<facebook::velox::functions::prestosql::(anonymous namespace)::ComparisonConstantMatcher, std::allocator<void>, __gnu_cxx::_S_atomic>::_Impl" }
%"class.std::_Sp_counted_ptr_inplace<facebook::velox::functions::prestosql::(anonymous namespace)::ComparisonConstantMatcher, std::allocator<void>, __gnu_cxx::_S_atomic>::_Impl" = type { %"struct.__gnu_cxx::__aligned_buffer.121" }
%"struct.__gnu_cxx::__aligned_buffer.121" = type { %"union.std::aligned_storage<16, 8>::type" }
%"union.std::aligned_storage<16, 8>::type" = type { [16 x i8] }
%"class.facebook::velox::core::LambdaTypedExpr" = type { %"class.facebook::velox::core::ITypedExpr", %"class.std::shared_ptr.14", %"class.std::shared_ptr" }
%"class.facebook::velox::core::ITypedExpr" = type { %"class.facebook::velox::ISerializable", %"class.std::shared_ptr.8", %"class.std::vector" }
%"class.facebook::velox::ISerializable" = type { ptr }
%"class.std::shared_ptr.8" = type { %"class.std::__shared_ptr.9" }
%"class.std::__shared_ptr.9" = type { ptr, %"class.std::__shared_count" }
%"class.std::vector" = type { %"struct.std::_Vector_base" }
%"struct.std::_Vector_base" = type { %"struct.std::_Vector_base<std::shared_ptr<const facebook::velox::core::ITypedExpr>, std::allocator<std::shared_ptr<const facebook::velox::core::ITypedExpr>>>::_Vector_impl" }
%"struct.std::_Vector_base<std::shared_ptr<const facebook::velox::core::ITypedExpr>, std::allocator<std::shared_ptr<const facebook::velox::core::ITypedExpr>>>::_Vector_impl" = type { %"struct.std::_Vector_base<std::shared_ptr<const facebook::velox::core::ITypedExpr>, std::allocator<std::shared_ptr<const facebook::velox::core::ITypedExpr>>>::_Vector_impl_data" }
%"struct.std::_Vector_base<std::shared_ptr<const facebook::velox::core::ITypedExpr>, std::allocator<std::shared_ptr<const facebook::velox::core::ITypedExpr>>>::_Vector_impl_data" = type { ptr, ptr, ptr }
%"class.std::shared_ptr.14" = type { %"class.std::__shared_ptr.15" }
%"class.std::__shared_ptr.15" = type { ptr, %"class.std::__shared_count" }
%"struct.std::_Optional_payload_base" = type { %"union.std::_Optional_payload_base<facebook::velox::functions::prestosql::SimpleComparison>::_Storage", i8, [7 x i8] }
%"class.facebook::velox::core::FieldAccessTypedExpr" = type <{ %"class.facebook::velox::core::ITypedExpr", %"class.std::__cxx11::basic_string", i8, [7 x i8] }>
%"class.facebook::velox::RowType" = type { %"class.facebook::velox::TypeBase.base", %"class.std::vector.25", %"class.std::vector.30", %"class.std::vector.35", %"class.folly::F14FastMap" }
%"class.facebook::velox::TypeBase.base" = type { %"class.facebook::velox::Type.base" }
%"class.facebook::velox::Type.base" = type <{ %"class.facebook::velox::Tree", %"class.facebook::velox::ISerializable", i8 }>
%"class.facebook::velox::Tree" = type { ptr }
%"class.std::vector.25" = type { %"struct.std::_Vector_base.26" }
%"struct.std::_Vector_base.26" = type { %"struct.std::_Vector_base<std::__cxx11::basic_string<char>, std::allocator<std::__cxx11::basic_string<char>>>::_Vector_impl" }
%"struct.std::_Vector_base<std::__cxx11::basic_string<char>, std::allocator<std::__cxx11::basic_string<char>>>::_Vector_impl" = type { %"struct.std::_Vector_base<std::__cxx11::basic_string<char>, std::allocator<std::__cxx11::basic_string<char>>>::_Vector_impl_data" }
%"struct.std::_Vector_base<std::__cxx11::basic_string<char>, std::allocator<std::__cxx11::basic_string<char>>>::_Vector_impl_data" = type { ptr, ptr, ptr }
%"class.std::vector.30" = type { %"struct.std::_Vector_base.31" }
%"struct.std::_Vector_base.31" = type { %"struct.std::_Vector_base<std::shared_ptr<const facebook::velox::Type>, std::allocator<std::shared_ptr<const facebook::velox::Type>>>::_Vector_impl" }
%"struct.std::_Vector_base<std::shared_ptr<const facebook::velox::Type>, std::allocator<std::shared_ptr<const facebook::velox::Type>>>::_Vector_impl" = type { %"struct.std::_Vector_base<std::shared_ptr<const facebook::velox::Type>, std::allocator<std::shared_ptr<const facebook::velox::Type>>>::_Vector_impl_data" }
%"struct.std::_Vector_base<std::shared_ptr<const facebook::velox::Type>, std::allocator<std::shared_ptr<const facebook::velox::Type>>>::_Vector_impl_data" = type { ptr, ptr, ptr }
%"class.std::vector.35" = type { %"struct.std::_Vector_base.36" }
%"struct.std::_Vector_base.36" = type { %"struct.std::_Vector_base<facebook::velox::TypeParameter, std::allocator<facebook::velox::TypeParameter>>::_Vector_impl" }
%"struct.std::_Vector_base<facebook::velox::TypeParameter, std::allocator<facebook::velox::TypeParameter>>::_Vector_impl" = type { %"struct.std::_Vector_base<facebook::velox::TypeParameter, std::allocator<facebook::velox::TypeParameter>>::_Vector_impl_data" }
%"struct.std::_Vector_base<facebook::velox::TypeParameter, std::allocator<facebook::velox::TypeParameter>>::_Vector_impl_data" = type { ptr, ptr, ptr }
%"class.folly::F14FastMap" = type { %"class.folly::f14::detail::F14VectorMapImpl" }
%"class.folly::f14::detail::F14VectorMapImpl" = type { %"class.folly::f14::detail::F14BasicMap" }
%"class.folly::f14::detail::F14BasicMap" = type { %"class.folly::f14::detail::F14Table" }
%"class.folly::f14::detail::F14Table" = type { %"class.folly::f14::detail::VectorContainerPolicy", ptr, i32, %"struct.folly::f14::detail::SizeAndPackedBegin" }
%"class.folly::f14::detail::VectorContainerPolicy" = type { ptr }
%"struct.folly::f14::detail::SizeAndPackedBegin" = type { i32 }
%"class.std::vector.48" = type { %"struct.std::_Vector_base.49" }
%"struct.std::_Vector_base.49" = type { %"struct.std::_Vector_base<std::shared_ptr<facebook::velox::functions::prestosql::(anonymous namespace)::Matcher>, std::allocator<std::shared_ptr<facebook::velox::functions::prestosql::(anonymous namespace)::Matcher>>>::_Vector_impl" }
%"struct.std::_Vector_base<std::shared_ptr<facebook::velox::functions::prestosql::(anonymous namespace)::Matcher>, std::allocator<std::shared_ptr<facebook::velox::functions::prestosql::(anonymous namespace)::Matcher>>>::_Vector_impl" = type { %"struct.std::_Vector_base<std::shared_ptr<facebook::velox::functions::prestosql::(anonymous namespace)::Matcher>, std::allocator<std::shared_ptr<facebook::velox::functions::prestosql::(anonymous namespace)::Matcher>>>::_Vector_impl_data" }
%"struct.std::_Vector_base<std::shared_ptr<facebook::velox::functions::prestosql::(anonymous namespace)::Matcher>, std::allocator<std::shared_ptr<facebook::velox::functions::prestosql::(anonymous namespace)::Matcher>>>::_Vector_impl_data" = type { ptr, ptr, ptr }
%"class.std::_Sp_counted_ptr_inplace" = type { %"class.std::_Sp_counted_base", %"class.std::_Sp_counted_ptr_inplace<facebook::velox::functions::prestosql::(anonymous namespace)::IfMatcher, std::allocator<void>, __gnu_cxx::_S_atomic>::_Impl" }
%"class.std::_Sp_counted_ptr_inplace<facebook::velox::functions::prestosql::(anonymous namespace)::IfMatcher, std::allocator<void>, __gnu_cxx::_S_atomic>::_Impl" = type { %"struct.__gnu_cxx::__aligned_buffer" }
%"struct.__gnu_cxx::__aligned_buffer" = type { %"union.std::aligned_storage<32, 8>::type" }
%"union.std::aligned_storage<32, 8>::type" = type { [32 x i8] }
%"class.std::_Sp_counted_ptr_inplace.64" = type { %"class.std::_Sp_counted_base", %"class.std::_Sp_counted_ptr_inplace<facebook::velox::functions::prestosql::(anonymous namespace)::ComparisonMatcher, std::allocator<void>, __gnu_cxx::_S_atomic>::_Impl" }
%"class.std::_Sp_counted_ptr_inplace<facebook::velox::functions::prestosql::(anonymous namespace)::ComparisonMatcher, std::allocator<void>, __gnu_cxx::_S_atomic>::_Impl" = type { %"struct.__gnu_cxx::__aligned_buffer.65" }
%"struct.__gnu_cxx::__aligned_buffer.65" = type { %"union.std::aligned_storage<72, 8>::type" }
%"union.std::aligned_storage<72, 8>::type" = type { [72 x i8] }
%"class.std::type_info" = type { ptr, ptr }
%"class.facebook::velox::functions::prestosql::(anonymous namespace)::IfMatcher" = type { %"class.facebook::velox::functions::prestosql::(anonymous namespace)::Matcher", %"class.std::vector.48" }
%"class.facebook::velox::functions::prestosql::(anonymous namespace)::Matcher" = type { ptr }
%"class.facebook::velox::functions::prestosql::(anonymous namespace)::ComparisonMatcher" = type { %"class.facebook::velox::functions::prestosql::(anonymous namespace)::Matcher", %"class.std::__cxx11::basic_string", %"class.std::vector.48", ptr }
%"class.std::unordered_set" = type { %"class.std::_Hashtable.79" }
%"class.std::_Hashtable.79" = type { ptr, i64, %"struct.std::__detail::_Hash_node_base", i64, %"struct.std::__detail::_Prime_rehash_policy", ptr }
%"class.facebook::velox::functions::prestosql::(anonymous namespace)::AnySingleInputMatcher" = type { %"class.facebook::velox::functions::prestosql::(anonymous namespace)::Matcher", ptr, ptr }
%"struct.std::__detail::_AllocNode" = type { ptr }
%"struct.std::_Hashtable<std::shared_ptr<const facebook::velox::core::FieldAccessTypedExpr>, std::shared_ptr<const facebook::velox::core::FieldAccessTypedExpr>, std::allocator<std::shared_ptr<const facebook::velox::core::FieldAccessTypedExpr>>, std::__detail::_Identity, std::equal_to<std::shared_ptr<const facebook::velox::core::FieldAccessTypedExpr>>, std::hash<std::shared_ptr<const facebook::velox::core::FieldAccessTypedExpr>>, std::__detail::_Mod_range_hashing, std::__detail::_Default_ranged_hash, std::__detail::_Prime_rehash_policy, std::__detail::_Hashtable_traits<false, true, true>>::_Scoped_node" = type { ptr, ptr }
%"class.facebook::velox::core::ConstantTypedExpr" = type { %"class.facebook::velox::core::ITypedExpr", %"class.facebook::velox::variant", %"class.std::shared_ptr.130" }
%"class.facebook::velox::variant" = type { i8, ptr }
%"class.std::shared_ptr.130" = type { %"class.std::__shared_ptr.131" }
%"class.std::__shared_ptr.131" = type { ptr, %"class.std::__shared_count" }
%"class.facebook::velox::functions::prestosql::(anonymous namespace)::ComparisonConstantMatcher" = type { %"class.facebook::velox::functions::prestosql::(anonymous namespace)::Matcher", ptr }
%"class.std::_Sp_counted_ptr_inplace.160" = type { %"class.std::_Sp_counted_base", %"class.std::_Sp_counted_ptr_inplace<facebook::velox::core::FieldAccessTypedExpr, std::allocator<void>, __gnu_cxx::_S_atomic>::_Impl" }
%"class.std::_Sp_counted_ptr_inplace<facebook::velox::core::FieldAccessTypedExpr, std::allocator<void>, __gnu_cxx::_S_atomic>::_Impl" = type { %"struct.__gnu_cxx::__aligned_buffer.161" }
%"struct.__gnu_cxx::__aligned_buffer.161" = type { %"union.std::aligned_storage<88, 8>::type" }
%"union.std::aligned_storage<88, 8>::type" = type { [88 x i8] }
%"struct.std::_Hashtable<std::__cxx11::basic_string<char>, std::pair<const std::__cxx11::basic_string<char>, std::shared_ptr<const facebook::velox::core::ITypedExpr>>, std::allocator<std::pair<const std::__cxx11::basic_string<char>, std::shared_ptr<const facebook::velox::core::ITypedExpr>>>, std::__detail::_Select1st, std::equal_to<std::__cxx11::basic_string<char>>, std::hash<string>, std::__detail::_Mod_range_hashing, std::__detail::_Default_ranged_hash, std::__detail::_Prime_rehash_policy, std::__detail::_Hashtable_traits<true, false, true>>::_Scoped_node" = type { ptr, ptr }

$_ZNSt10shared_ptrIN8facebook5velox4core20FieldAccessTypedExprEED2Ev = comdat any

$_ZNSt10shared_ptrIKN8facebook5velox4core10ITypedExprEED2Ev = comdat any

$_ZStplIcSt11char_traitsIcESaIcEENSt7__cxx1112basic_stringIT_T0_T1_EERKS8_PKS5_ = comdat any

$_ZSteqIcEN9__gnu_cxx11__enable_ifIXsr9__is_charIT_EE7__valueEbE6__typeERKNSt7__cxx1112basic_stringIS2_St11char_traitsIS2_ESaIS2_EEESC_ = comdat any

$_ZStneIcSt11char_traitsIcESaIcEEbRKNSt7__cxx1112basic_stringIT_T0_T1_EESA_ = comdat any

$_ZN8facebook5velox9functions9prestosql16SimpleComparisonD2Ev = comdat any

$_ZNSt13unordered_mapINSt7__cxx1112basic_stringIcSt11char_traitsIcESaIcEEESt10shared_ptrIKN8facebook5velox4core10ITypedExprEESt4hashIS5_ESt8equal_toIS5_ESaISt4pairIKS5_SC_EEED2Ev = comdat any

$_ZNSt10shared_ptrIKN8facebook5velox4core20FieldAccessTypedExprEED2Ev = comdat any

$__clang_call_terminate = comdat any

$_ZNSt10_HashtableISt10shared_ptrIKN8facebook5velox4core20FieldAccessTypedExprEES6_SaIS6_ENSt8__detail9_IdentityESt8equal_toIS6_ESt4hashIS6_ENS8_18_Mod_range_hashingENS8_20_Default_ranged_hashENS8_20_Prime_rehash_policyENS8_17_Hashtable_traitsILb0ELb1ELb1EEEE16_M_insert_uniqueIRKS6_SM_NS8_10_AllocNodeISaINS8_10_Hash_nodeIS6_Lb0EEEEEEEESt4pairINS8_14_Node_iteratorIS6_Lb1ELb0EEEbEOT_OT0_RKT1_ = comdat any

$_ZNSt10_HashtableISt10shared_ptrIKN8facebook5velox4core20FieldAccessTypedExprEES6_SaIS6_ENSt8__detail9_IdentityESt8equal_toIS6_ESt4hashIS6_ENS8_18_Mod_range_hashingENS8_20_Default_ranged_hashENS8_20_Prime_rehash_policyENS8_17_Hashtable_traitsILb0ELb1ELb1EEEE21_M_insert_unique_nodeEmmPNS8_10_Hash_nodeIS6_Lb0EEEm = comdat any

$_ZNSt10_HashtableISt10shared_ptrIKN8facebook5velox4core20FieldAccessTypedExprEES6_SaIS6_ENSt8__detail9_IdentityESt8equal_toIS6_ESt4hashIS6_ENS8_18_Mod_range_hashingENS8_20_Default_ranged_hashENS8_20_Prime_rehash_policyENS8_17_Hashtable_traitsILb0ELb1ELb1EEEE12_Scoped_nodeD2Ev = comdat any

$_ZNSt10_HashtableISt10shared_ptrIKN8facebook5velox4core20FieldAccessTypedExprEES6_SaIS6_ENSt8__detail9_IdentityESt8equal_toIS6_ESt4hashIS6_ENS8_18_Mod_range_hashingENS8_20_Default_ranged_hashENS8_20_Prime_rehash_policyENS8_17_Hashtable_traitsILb0ELb1ELb1EEEE13_M_rehash_auxEmSt17integral_constantIbLb1EE = comdat any

$_ZNSt10_HashtableISt10shared_ptrIKN8facebook5velox4core20FieldAccessTypedExprEES6_SaIS6_ENSt8__detail9_IdentityESt8equal_toIS6_ESt4hashIS6_ENS8_18_Mod_range_hashingENS8_20_Default_ranged_hashENS8_20_Prime_rehash_policyENS8_17_Hashtable_traitsILb0ELb1ELb1EEEED2Ev = comdat any

$_ZNSt10_HashtableINSt7__cxx1112basic_stringIcSt11char_traitsIcESaIcEEESt4pairIKS5_St10shared_ptrIKN8facebook5velox4core10ITypedExprEEESaISF_ENSt8__detail10_Select1stESt8equal_toIS5_ESt4hashIS5_ENSH_18_Mod_range_hashingENSH_20_Default_ranged_hashENSH_20_Prime_rehash_policyENSH_17_Hashtable_traitsILb1ELb0ELb1EEEE5clearEv = comdat any

$_ZNSt14__shared_countILN9__gnu_cxx12_Lock_policyE2EEC2IN8facebook5velox4core20FieldAccessTypedExprESaIvEJRKSt10shared_ptrIKNS5_4TypeEERKNSt7__cxx1112basic_stringIcSt11char_traitsIcESaIcEEEEEERPT_St20_Sp_alloc_shared_tagIT0_EDpOT1_ = comdat any

$_ZNSt23_Sp_counted_ptr_inplaceIN8facebook5velox4core20FieldAccessTypedExprESaIvELN9__gnu_cxx12_Lock_policyE2EED2Ev = comdat any

$_ZNSt23_Sp_counted_ptr_inplaceIN8facebook5velox4core20FieldAccessTypedExprESaIvELN9__gnu_cxx12_Lock_policyE2EED0Ev = comdat any

$_ZNSt23_Sp_counted_ptr_inplaceIN8facebook5velox4core20FieldAccessTypedExprESaIvELN9__gnu_cxx12_Lock_policyE2EE10_M_disposeEv = comdat any

$_ZNSt23_Sp_counted_ptr_inplaceIN8facebook5velox4core20FieldAccessTypedExprESaIvELN9__gnu_cxx12_Lock_policyE2EE10_M_destroyEv = comdat any

$_ZNSt23_Sp_counted_ptr_inplaceIN8facebook5velox4core20FieldAccessTypedExprESaIvELN9__gnu_cxx12_Lock_policyE2EE14_M_get_deleterERKSt9type_info = comdat any

$_ZNSt10shared_ptrIKN8facebook5velox4TypeEED2Ev = comdat any

$_ZNSt10_HashtableINSt7__cxx1112basic_stringIcSt11char_traitsIcESaIcEEESt4pairIKS5_St10shared_ptrIKN8facebook5velox4core10ITypedExprEEESaISF_ENSt8__detail10_Select1stESt8equal_toIS5_ESt4hashIS5_ENSH_18_Mod_range_hashingENSH_20_Default_ranged_hashENSH_20_Prime_rehash_policyENSH_17_Hashtable_traitsILb1ELb0ELb1EEEE10_M_emplaceIJRS7_S8_INSB_20FieldAccessTypedExprEEEEES6_INSH_14_Node_iteratorISF_Lb0ELb1EEEbESt17integral_constantIbLb1EEDpOT_ = comdat any

$_ZNSt10_HashtableINSt7__cxx1112basic_stringIcSt11char_traitsIcESaIcEEESt4pairIKS5_St10shared_ptrIKN8facebook5velox4core10ITypedExprEEESaISF_ENSt8__detail10_Select1stESt8equal_toIS5_ESt4hashIS5_ENSH_18_Mod_range_hashingENSH_20_Default_ranged_hashENSH_20_Prime_rehash_policyENSH_17_Hashtable_traitsILb1ELb0ELb1EEEE21_M_insert_unique_nodeEmmPNSH_10_Hash_nodeISF_Lb1EEEm = comdat any

$_ZNSt10_HashtableINSt7__cxx1112basic_stringIcSt11char_traitsIcESaIcEEESt4pairIKS5_St10shared_ptrIKN8facebook5velox4core10ITypedExprEEESaISF_ENSt8__detail10_Select1stESt8equal_toIS5_ESt4hashIS5_ENSH_18_Mod_range_hashingENSH_20_Default_ranged_hashENSH_20_Prime_rehash_policyENSH_17_Hashtable_traitsILb1ELb0ELb1EEEE12_Scoped_nodeD2Ev = comdat any

$_ZNSt8__detail16_Hashtable_allocISaINS_10_Hash_nodeISt4pairIKNSt7__cxx1112basic_stringIcSt11char_traitsIcESaIcEEESt10shared_ptrIKN8facebook5velox4core10ITypedExprEEELb1EEEEE16_M_allocate_nodeIJRS9_SA_INSD_20FieldAccessTypedExprEEEEEPSI_DpOT_ = comdat any

$_ZNKSt10_HashtableINSt7__cxx1112basic_stringIcSt11char_traitsIcESaIcEEESt4pairIKS5_St10shared_ptrIKN8facebook5velox4core10ITypedExprEEESaISF_ENSt8__detail10_Select1stESt8equal_toIS5_ESt4hashIS5_ENSH_18_Mod_range_hashingENSH_20_Default_ranged_hashENSH_20_Prime_rehash_policyENSH_17_Hashtable_traitsILb1ELb0ELb1EEEE19_M_find_before_nodeEmRS7_m = comdat any

$_ZNSt10_HashtableINSt7__cxx1112basic_stringIcSt11char_traitsIcESaIcEEESt4pairIKS5_St10shared_ptrIKN8facebook5velox4core10ITypedExprEEESaISF_ENSt8__detail10_Select1stESt8equal_toIS5_ESt4hashIS5_ENSH_18_Mod_range_hashingENSH_20_Default_ranged_hashENSH_20_Prime_rehash_policyENSH_17_Hashtable_traitsILb1ELb0ELb1EEEE13_M_rehash_auxEmSt17integral_constantIbLb1EE = comdat any

$_ZTSSt16_Sp_counted_baseILN9__gnu_cxx12_Lock_policyE2EE = comdat any

$_ZTSSt11_Mutex_baseILN9__gnu_cxx12_Lock_policyE2EE = comdat any

$_ZTISt11_Mutex_baseILN9__gnu_cxx12_Lock_policyE2EE = comdat any

$_ZTISt16_Sp_counted_baseILN9__gnu_cxx12_Lock_policyE2EE = comdat any

$_ZTSN8facebook5velox4core10ITypedExprE = comdat any

$_ZTSN8facebook5velox13ISerializableE = comdat any

$_ZTIN8facebook5velox13ISerializableE = comdat any

$_ZTIN8facebook5velox4core10ITypedExprE = comdat any

$_ZTSSt19_Sp_make_shared_tag = comdat any

$_ZZNSt19_Sp_make_shared_tag5_S_tiEvE5__tag = comdat any

$_ZTSN8facebook5velox12SimpleVectorIlEE = comdat any

$_ZTIN8facebook5velox12SimpleVectorIlEE = comdat any

$_ZTVSt23_Sp_counted_ptr_inplaceIN8facebook5velox4core20FieldAccessTypedExprESaIvELN9__gnu_cxx12_Lock_policyE2EE = comdat any

$_ZTSSt23_Sp_counted_ptr_inplaceIN8facebook5velox4core20FieldAccessTypedExprESaIvELN9__gnu_cxx12_Lock_policyE2EE = comdat any

$_ZTISt23_Sp_counted_ptr_inplaceIN8facebook5velox4core20FieldAccessTypedExprESaIvELN9__gnu_cxx12_Lock_policyE2EE = comdat any

@.str = private unnamed_addr constant [3 x i8] c"eq\00", align 1
@_ZTVSt23_Sp_counted_ptr_inplaceIN8facebook5velox9functions9prestosql12_GLOBAL__N_19IfMatcherESaIvELN9__gnu_cxx12_Lock_policyE2EE = internal unnamed_addr constant { [7 x ptr] } { [7 x ptr] [ptr null, ptr @_ZTISt23_Sp_counted_ptr_inplaceIN8facebook5velox9functions9prestosql12_GLOBAL__N_19IfMatcherESaIvELN9__gnu_cxx12_Lock_policyE2EE, ptr @_ZNSt23_Sp_counted_ptr_inplaceIN8facebook5velox9functions9prestosql12_GLOBAL__N_19IfMatcherESaIvELN9__gnu_cxx12_Lock_policyE2EED2Ev, ptr @_ZNSt23_Sp_counted_ptr_inplaceIN8facebook5velox9functions9prestosql12_GLOBAL__N_19IfMatcherESaIvELN9__gnu_cxx12_Lock_policyE2EED0Ev, ptr @_ZNSt23_Sp_counted_ptr_inplaceIN8facebook5velox9functions9prestosql12_GLOBAL__N_19IfMatcherESaIvELN9__gnu_cxx12_Lock_policyE2EE10_M_disposeEv, ptr @_ZNSt23_Sp_counted_ptr_inplaceIN8facebook5velox9functions9prestosql12_GLOBAL__N_19IfMatcherESaIvELN9__gnu_cxx12_Lock_policyE2EE10_M_destroyEv, ptr @_ZNSt23_Sp_counted_ptr_inplaceIN8facebook5velox9functions9prestosql12_GLOBAL__N_19IfMatcherESaIvELN9__gnu_cxx12_Lock_policyE2EE14_M_get_deleterERKSt9type_info] }, align 8
@_ZTVN10__cxxabiv120__si_class_type_infoE = external global [0 x ptr]
@_ZTSSt23_Sp_counted_ptr_inplaceIN8facebook5velox9functions9prestosql12_GLOBAL__N_19IfMatcherESaIvELN9__gnu_cxx12_Lock_policyE2EE = internal constant [125 x i8] c"St23_Sp_counted_ptr_inplaceIN8facebook5velox9functions9prestosql12_GLOBAL__N_19IfMatcherESaIvELN9__gnu_cxx12_Lock_policyE2EE\00", align 1
@_ZTSSt16_Sp_counted_baseILN9__gnu_cxx12_Lock_policyE2EE = linkonce_odr constant [52 x i8] c"St16_Sp_counted_baseILN9__gnu_cxx12_Lock_policyE2EE\00", comdat, align 1
@_ZTVN10__cxxabiv117__class_type_infoE = external global [0 x ptr]
@_ZTSSt11_Mutex_baseILN9__gnu_cxx12_Lock_policyE2EE = linkonce_odr constant [47 x i8] c"St11_Mutex_baseILN9__gnu_cxx12_Lock_policyE2EE\00", comdat, align 1
@_ZTISt11_Mutex_baseILN9__gnu_cxx12_Lock_policyE2EE = linkonce_odr constant { ptr, ptr } { ptr getelementptr inbounds (ptr, ptr @_ZTVN10__cxxabiv117__class_type_infoE, i64 2), ptr @_ZTSSt11_Mutex_baseILN9__gnu_cxx12_Lock_policyE2EE }, comdat, align 8
@_ZTISt16_Sp_counted_baseILN9__gnu_cxx12_Lock_policyE2EE = linkonce_odr constant { ptr, ptr, ptr } { ptr getelementptr inbounds (ptr, ptr @_ZTVN10__cxxabiv120__si_class_type_infoE, i64 2), ptr @_ZTSSt16_Sp_counted_baseILN9__gnu_cxx12_Lock_policyE2EE, ptr @_ZTISt11_Mutex_baseILN9__gnu_cxx12_Lock_policyE2EE }, comdat, align 8
@_ZTISt23_Sp_counted_ptr_inplaceIN8facebook5velox9functions9prestosql12_GLOBAL__N_19IfMatcherESaIvELN9__gnu_cxx12_Lock_policyE2EE = internal constant { ptr, ptr, ptr } { ptr getelementptr inbounds (ptr, ptr @_ZTVN10__cxxabiv120__si_class_type_infoE, i64 2), ptr @_ZTSSt23_Sp_counted_ptr_inplaceIN8facebook5velox9functions9prestosql12_GLOBAL__N_19IfMatcherESaIvELN9__gnu_cxx12_Lock_policyE2EE, ptr @_ZTISt16_Sp_counted_baseILN9__gnu_cxx12_Lock_policyE2EE }, align 8
@_ZTVN8facebook5velox9functions9prestosql12_GLOBAL__N_19IfMatcherE = internal unnamed_addr constant { [5 x ptr] } { [5 x ptr] [ptr null, ptr @_ZTIN8facebook5velox9functions9prestosql12_GLOBAL__N_19IfMatcherE, ptr @_ZN8facebook5velox9functions9prestosql12_GLOBAL__N_19IfMatcher5matchERKSt10shared_ptrIKNS0_4core10ITypedExprEE, ptr @_ZN8facebook5velox9functions9prestosql12_GLOBAL__N_19IfMatcherD2Ev, ptr @_ZN8facebook5velox9functions9prestosql12_GLOBAL__N_19IfMatcherD0Ev] }, align 8
@_ZTSN8facebook5velox9functions9prestosql12_GLOBAL__N_19IfMatcherE = internal constant [62 x i8] c"N8facebook5velox9functions9prestosql12_GLOBAL__N_19IfMatcherE\00", align 1
@_ZTSN8facebook5velox9functions9prestosql12_GLOBAL__N_17MatcherE = internal constant [60 x i8] c"N8facebook5velox9functions9prestosql12_GLOBAL__N_17MatcherE\00", align 1
@_ZTIN8facebook5velox9functions9prestosql12_GLOBAL__N_17MatcherE = internal constant { ptr, ptr } { ptr getelementptr inbounds (ptr, ptr @_ZTVN10__cxxabiv117__class_type_infoE, i64 2), ptr @_ZTSN8facebook5velox9functions9prestosql12_GLOBAL__N_17MatcherE }, align 8
@_ZTIN8facebook5velox9functions9prestosql12_GLOBAL__N_19IfMatcherE = internal constant { ptr, ptr, ptr } { ptr getelementptr inbounds (ptr, ptr @_ZTVN10__cxxabiv120__si_class_type_infoE, i64 2), ptr @_ZTSN8facebook5velox9functions9prestosql12_GLOBAL__N_19IfMatcherE, ptr @_ZTIN8facebook5velox9functions9prestosql12_GLOBAL__N_17MatcherE }, align 8
@_ZTSN8facebook5velox4core10ITypedExprE = linkonce_odr constant [35 x i8] c"N8facebook5velox4core10ITypedExprE\00", comdat, align 1
@_ZTSN8facebook5velox13ISerializableE = linkonce_odr constant [33 x i8] c"N8facebook5velox13ISerializableE\00", comdat, align 1
@_ZTIN8facebook5velox13ISerializableE = linkonce_odr constant { ptr, ptr } { ptr getelementptr inbounds (ptr, ptr @_ZTVN10__cxxabiv117__class_type_infoE, i64 2), ptr @_ZTSN8facebook5velox13ISerializableE }, comdat, align 8
@_ZTIN8facebook5velox4core10ITypedExprE = linkonce_odr constant { ptr, ptr, ptr } { ptr getelementptr inbounds (ptr, ptr @_ZTVN10__cxxabiv120__si_class_type_infoE, i64 2), ptr @_ZTSN8facebook5velox4core10ITypedExprE, ptr @_ZTIN8facebook5velox13ISerializableE }, comdat, align 8
@_ZTIN8facebook5velox4core13CallTypedExprE = external constant ptr
@.str.1 = private unnamed_addr constant [3 x i8] c"if\00", align 1
@_ZTSSt19_Sp_make_shared_tag = linkonce_odr constant [24 x i8] c"St19_Sp_make_shared_tag\00", comdat, align 1
@_ZZNSt19_Sp_make_shared_tag5_S_tiEvE5__tag = linkonce_odr constant [16 x i8] zeroinitializer, comdat, align 8
@__libc_single_threaded = external local_unnamed_addr global i8, align 1
@_ZTVSt23_Sp_counted_ptr_inplaceIN8facebook5velox9functions9prestosql12_GLOBAL__N_117ComparisonMatcherESaIvELN9__gnu_cxx12_Lock_policyE2EE = internal unnamed_addr constant { [7 x ptr] } { [7 x ptr] [ptr null, ptr @_ZTISt23_Sp_counted_ptr_inplaceIN8facebook5velox9functions9prestosql12_GLOBAL__N_117ComparisonMatcherESaIvELN9__gnu_cxx12_Lock_policyE2EE, ptr @_ZNSt23_Sp_counted_ptr_inplaceIN8facebook5velox9functions9prestosql12_GLOBAL__N_117ComparisonMatcherESaIvELN9__gnu_cxx12_Lock_policyE2EED2Ev, ptr @_ZNSt23_Sp_counted_ptr_inplaceIN8facebook5velox9functions9prestosql12_GLOBAL__N_117ComparisonMatcherESaIvELN9__gnu_cxx12_Lock_policyE2EED0Ev, ptr @_ZNSt23_Sp_counted_ptr_inplaceIN8facebook5velox9functions9prestosql12_GLOBAL__N_117ComparisonMatcherESaIvELN9__gnu_cxx12_Lock_policyE2EE10_M_disposeEv, ptr @_ZNSt23_Sp_counted_ptr_inplaceIN8facebook5velox9functions9prestosql12_GLOBAL__N_117ComparisonMatcherESaIvELN9__gnu_cxx12_Lock_policyE2EE10_M_destroyEv, ptr @_ZNSt23_Sp_counted_ptr_inplaceIN8facebook5velox9functions9prestosql12_GLOBAL__N_117ComparisonMatcherESaIvELN9__gnu_cxx12_Lock_policyE2EE14_M_get_deleterERKSt9type_info] }, align 8
@_ZTSSt23_Sp_counted_ptr_inplaceIN8facebook5velox9functions9prestosql12_GLOBAL__N_117ComparisonMatcherESaIvELN9__gnu_cxx12_Lock_policyE2EE = internal constant [134 x i8] c"St23_Sp_counted_ptr_inplaceIN8facebook5velox9functions9prestosql12_GLOBAL__N_117ComparisonMatcherESaIvELN9__gnu_cxx12_Lock_policyE2EE\00", align 1
@_ZTISt23_Sp_counted_ptr_inplaceIN8facebook5velox9functions9prestosql12_GLOBAL__N_117ComparisonMatcherESaIvELN9__gnu_cxx12_Lock_policyE2EE = internal constant { ptr, ptr, ptr } { ptr getelementptr inbounds (ptr, ptr @_ZTVN10__cxxabiv120__si_class_type_infoE, i64 2), ptr @_ZTSSt23_Sp_counted_ptr_inplaceIN8facebook5velox9functions9prestosql12_GLOBAL__N_117ComparisonMatcherESaIvELN9__gnu_cxx12_Lock_policyE2EE, ptr @_ZTISt16_Sp_counted_baseILN9__gnu_cxx12_Lock_policyE2EE }, align 8
@_ZTVN8facebook5velox9functions9prestosql12_GLOBAL__N_117ComparisonMatcherE = internal unnamed_addr constant { [5 x ptr] } { [5 x ptr] [ptr null, ptr @_ZTIN8facebook5velox9functions9prestosql12_GLOBAL__N_117ComparisonMatcherE, ptr @_ZN8facebook5velox9functions9prestosql12_GLOBAL__N_117ComparisonMatcher5matchERKSt10shared_ptrIKNS0_4core10ITypedExprEE, ptr @_ZN8facebook5velox9functions9prestosql12_GLOBAL__N_117ComparisonMatcherD2Ev, ptr @_ZN8facebook5velox9functions9prestosql12_GLOBAL__N_117ComparisonMatcherD0Ev] }, align 8
@_ZTSN8facebook5velox9functions9prestosql12_GLOBAL__N_117ComparisonMatcherE = internal constant [71 x i8] c"N8facebook5velox9functions9prestosql12_GLOBAL__N_117ComparisonMatcherE\00", align 1
@_ZTIN8facebook5velox9functions9prestosql12_GLOBAL__N_117ComparisonMatcherE = internal constant { ptr, ptr, ptr } { ptr getelementptr inbounds (ptr, ptr @_ZTVN10__cxxabiv120__si_class_type_infoE, i64 2), ptr @_ZTSN8facebook5velox9functions9prestosql12_GLOBAL__N_117ComparisonMatcherE, ptr @_ZTIN8facebook5velox9functions9prestosql12_GLOBAL__N_17MatcherE }, align 8
@.str.3 = private unnamed_addr constant [3 x i8] c"lt\00", align 1
@.str.4 = private unnamed_addr constant [3 x i8] c"gt\00", align 1
@_ZTVSt23_Sp_counted_ptr_inplaceIN8facebook5velox9functions9prestosql12_GLOBAL__N_121AnySingleInputMatcherESaIvELN9__gnu_cxx12_Lock_policyE2EE = internal unnamed_addr constant { [7 x ptr] } { [7 x ptr] [ptr null, ptr @_ZTISt23_Sp_counted_ptr_inplaceIN8facebook5velox9functions9prestosql12_GLOBAL__N_121AnySingleInputMatcherESaIvELN9__gnu_cxx12_Lock_policyE2EE, ptr @_ZNSt23_Sp_counted_ptr_inplaceIN8facebook5velox9functions9prestosql12_GLOBAL__N_121AnySingleInputMatcherESaIvELN9__gnu_cxx12_Lock_policyE2EED2Ev, ptr @_ZNSt23_Sp_counted_ptr_inplaceIN8facebook5velox9functions9prestosql12_GLOBAL__N_121AnySingleInputMatcherESaIvELN9__gnu_cxx12_Lock_policyE2EED0Ev, ptr @_ZNSt23_Sp_counted_ptr_inplaceIN8facebook5velox9functions9prestosql12_GLOBAL__N_121AnySingleInputMatcherESaIvELN9__gnu_cxx12_Lock_policyE2EE10_M_disposeEv, ptr @_ZNSt23_Sp_counted_ptr_inplaceIN8facebook5velox9functions9prestosql12_GLOBAL__N_121AnySingleInputMatcherESaIvELN9__gnu_cxx12_Lock_policyE2EE10_M_destroyEv, ptr @_ZNSt23_Sp_counted_ptr_inplaceIN8facebook5velox9functions9prestosql12_GLOBAL__N_121AnySingleInputMatcherESaIvELN9__gnu_cxx12_Lock_policyE2EE14_M_get_deleterERKSt9type_info] }, align 8
@_ZTSSt23_Sp_counted_ptr_inplaceIN8facebook5velox9functions9prestosql12_GLOBAL__N_121AnySingleInputMatcherESaIvELN9__gnu_cxx12_Lock_policyE2EE = internal constant [138 x i8] c"St23_Sp_counted_ptr_inplaceIN8facebook5velox9functions9prestosql12_GLOBAL__N_121AnySingleInputMatcherESaIvELN9__gnu_cxx12_Lock_policyE2EE\00", align 1
@_ZTISt23_Sp_counted_ptr_inplaceIN8facebook5velox9functions9prestosql12_GLOBAL__N_121AnySingleInputMatcherESaIvELN9__gnu_cxx12_Lock_policyE2EE = internal constant { ptr, ptr, ptr } { ptr getelementptr inbounds (ptr, ptr @_ZTVN10__cxxabiv120__si_class_type_infoE, i64 2), ptr @_ZTSSt23_Sp_counted_ptr_inplaceIN8facebook5velox9functions9prestosql12_GLOBAL__N_121AnySingleInputMatcherESaIvELN9__gnu_cxx12_Lock_policyE2EE, ptr @_ZTISt16_Sp_counted_baseILN9__gnu_cxx12_Lock_policyE2EE }, align 8
@_ZTVN8facebook5velox9functions9prestosql12_GLOBAL__N_121AnySingleInputMatcherE = internal unnamed_addr constant { [5 x ptr] } { [5 x ptr] [ptr null, ptr @_ZTIN8facebook5velox9functions9prestosql12_GLOBAL__N_121AnySingleInputMatcherE, ptr @_ZN8facebook5velox9functions9prestosql12_GLOBAL__N_121AnySingleInputMatcher5matchERKSt10shared_ptrIKNS0_4core10ITypedExprEE, ptr @_ZN8facebook5velox9functions9prestosql12_GLOBAL__N_121AnySingleInputMatcherD2Ev, ptr @_ZN8facebook5velox9functions9prestosql12_GLOBAL__N_121AnySingleInputMatcherD0Ev] }, align 8
@_ZTSN8facebook5velox9functions9prestosql12_GLOBAL__N_121AnySingleInputMatcherE = internal constant [75 x i8] c"N8facebook5velox9functions9prestosql12_GLOBAL__N_121AnySingleInputMatcherE\00", align 1
@_ZTIN8facebook5velox9functions9prestosql12_GLOBAL__N_121AnySingleInputMatcherE = internal constant { ptr, ptr, ptr } { ptr getelementptr inbounds (ptr, ptr @_ZTVN10__cxxabiv120__si_class_type_infoE, i64 2), ptr @_ZTSN8facebook5velox9functions9prestosql12_GLOBAL__N_121AnySingleInputMatcherE, ptr @_ZTIN8facebook5velox9functions9prestosql12_GLOBAL__N_17MatcherE }, align 8
@_ZTIN8facebook5velox4core20FieldAccessTypedExprE = external constant ptr
@_ZTVSt23_Sp_counted_ptr_inplaceIN8facebook5velox9functions9prestosql12_GLOBAL__N_125ComparisonConstantMatcherESaIvELN9__gnu_cxx12_Lock_policyE2EE = internal unnamed_addr constant { [7 x ptr] } { [7 x ptr] [ptr null, ptr @_ZTISt23_Sp_counted_ptr_inplaceIN8facebook5velox9functions9prestosql12_GLOBAL__N_125ComparisonConstantMatcherESaIvELN9__gnu_cxx12_Lock_policyE2EE, ptr @_ZNSt23_Sp_counted_ptr_inplaceIN8facebook5velox9functions9prestosql12_GLOBAL__N_125ComparisonConstantMatcherESaIvELN9__gnu_cxx12_Lock_policyE2EED2Ev, ptr @_ZNSt23_Sp_counted_ptr_inplaceIN8facebook5velox9functions9prestosql12_GLOBAL__N_125ComparisonConstantMatcherESaIvELN9__gnu_cxx12_Lock_policyE2EED0Ev, ptr @_ZNSt23_Sp_counted_ptr_inplaceIN8facebook5velox9functions9prestosql12_GLOBAL__N_125ComparisonConstantMatcherESaIvELN9__gnu_cxx12_Lock_policyE2EE10_M_disposeEv, ptr @_ZNSt23_Sp_counted_ptr_inplaceIN8facebook5velox9functions9prestosql12_GLOBAL__N_125ComparisonConstantMatcherESaIvELN9__gnu_cxx12_Lock_policyE2EE10_M_destroyEv, ptr @_ZNSt23_Sp_counted_ptr_inplaceIN8facebook5velox9functions9prestosql12_GLOBAL__N_125ComparisonConstantMatcherESaIvELN9__gnu_cxx12_Lock_policyE2EE14_M_get_deleterERKSt9type_info] }, align 8
@_ZTSSt23_Sp_counted_ptr_inplaceIN8facebook5velox9functions9prestosql12_GLOBAL__N_125ComparisonConstantMatcherESaIvELN9__gnu_cxx12_Lock_policyE2EE = internal constant [142 x i8] c"St23_Sp_counted_ptr_inplaceIN8facebook5velox9functions9prestosql12_GLOBAL__N_125ComparisonConstantMatcherESaIvELN9__gnu_cxx12_Lock_policyE2EE\00", align 1
@_ZTISt23_Sp_counted_ptr_inplaceIN8facebook5velox9functions9prestosql12_GLOBAL__N_125ComparisonConstantMatcherESaIvELN9__gnu_cxx12_Lock_policyE2EE = internal constant { ptr, ptr, ptr } { ptr getelementptr inbounds (ptr, ptr @_ZTVN10__cxxabiv120__si_class_type_infoE, i64 2), ptr @_ZTSSt23_Sp_counted_ptr_inplaceIN8facebook5velox9functions9prestosql12_GLOBAL__N_125ComparisonConstantMatcherESaIvELN9__gnu_cxx12_Lock_policyE2EE, ptr @_ZTISt16_Sp_counted_baseILN9__gnu_cxx12_Lock_policyE2EE }, align 8
@_ZTVN8facebook5velox9functions9prestosql12_GLOBAL__N_125ComparisonConstantMatcherE = internal unnamed_addr constant { [5 x ptr] } { [5 x ptr] [ptr null, ptr @_ZTIN8facebook5velox9functions9prestosql12_GLOBAL__N_125ComparisonConstantMatcherE, ptr @_ZN8facebook5velox9functions9prestosql12_GLOBAL__N_125ComparisonConstantMatcher5matchERKSt10shared_ptrIKNS0_4core10ITypedExprEE, ptr @_ZN8facebook5velox9functions9prestosql12_GLOBAL__N_125ComparisonConstantMatcherD2Ev, ptr @_ZN8facebook5velox9functions9prestosql12_GLOBAL__N_125ComparisonConstantMatcherD0Ev] }, align 8
@_ZTSN8facebook5velox9functions9prestosql12_GLOBAL__N_125ComparisonConstantMatcherE = internal constant [79 x i8] c"N8facebook5velox9functions9prestosql12_GLOBAL__N_125ComparisonConstantMatcherE\00", align 1
@_ZTIN8facebook5velox9functions9prestosql12_GLOBAL__N_125ComparisonConstantMatcherE = internal constant { ptr, ptr, ptr } { ptr getelementptr inbounds (ptr, ptr @_ZTVN10__cxxabiv120__si_class_type_infoE, i64 2), ptr @_ZTSN8facebook5velox9functions9prestosql12_GLOBAL__N_125ComparisonConstantMatcherE, ptr @_ZTIN8facebook5velox9functions9prestosql12_GLOBAL__N_17MatcherE }, align 8
@_ZTIN8facebook5velox4core17ConstantTypedExprE = external constant ptr
@_ZTIN8facebook5velox10BaseVectorE = external constant ptr
@_ZTSN8facebook5velox12SimpleVectorIlEE = linkonce_odr constant [35 x i8] c"N8facebook5velox12SimpleVectorIlEE\00", comdat, align 1
@_ZTIN8facebook5velox12SimpleVectorIlEE = linkonce_odr constant { ptr, ptr, ptr } { ptr getelementptr inbounds (ptr, ptr @_ZTVN10__cxxabiv120__si_class_type_infoE, i64 2), ptr @_ZTSN8facebook5velox12SimpleVectorIlEE, ptr @_ZTIN8facebook5velox10BaseVectorE }, comdat, align 8
@.str.6 = private unnamed_addr constant [74 x i8] c"vector::_M_range_check: __n (which is %zu) >= this->size() (which is %zu)\00", align 1
@_ZTVSt23_Sp_counted_ptr_inplaceIN8facebook5velox4core20FieldAccessTypedExprESaIvELN9__gnu_cxx12_Lock_policyE2EE = linkonce_odr unnamed_addr constant { [7 x ptr] } { [7 x ptr] [ptr null, ptr @_ZTISt23_Sp_counted_ptr_inplaceIN8facebook5velox4core20FieldAccessTypedExprESaIvELN9__gnu_cxx12_Lock_policyE2EE, ptr @_ZNSt23_Sp_counted_ptr_inplaceIN8facebook5velox4core20FieldAccessTypedExprESaIvELN9__gnu_cxx12_Lock_policyE2EED2Ev, ptr @_ZNSt23_Sp_counted_ptr_inplaceIN8facebook5velox4core20FieldAccessTypedExprESaIvELN9__gnu_cxx12_Lock_policyE2EED0Ev, ptr @_ZNSt23_Sp_counted_ptr_inplaceIN8facebook5velox4core20FieldAccessTypedExprESaIvELN9__gnu_cxx12_Lock_policyE2EE10_M_disposeEv, ptr @_ZNSt23_Sp_counted_ptr_inplaceIN8facebook5velox4core20FieldAccessTypedExprESaIvELN9__gnu_cxx12_Lock_policyE2EE10_M_destroyEv, ptr @_ZNSt23_Sp_counted_ptr_inplaceIN8facebook5velox4core20FieldAccessTypedExprESaIvELN9__gnu_cxx12_Lock_policyE2EE14_M_get_deleterERKSt9type_info] }, comdat, align 8
@_ZTSSt23_Sp_counted_ptr_inplaceIN8facebook5velox4core20FieldAccessTypedExprESaIvELN9__gnu_cxx12_Lock_policyE2EE = linkonce_odr constant [108 x i8] c"St23_Sp_counted_ptr_inplaceIN8facebook5velox4core20FieldAccessTypedExprESaIvELN9__gnu_cxx12_Lock_policyE2EE\00", comdat, align 1
@_ZTISt23_Sp_counted_ptr_inplaceIN8facebook5velox4core20FieldAccessTypedExprESaIvELN9__gnu_cxx12_Lock_policyE2EE = linkonce_odr constant { ptr, ptr, ptr } { ptr getelementptr inbounds (ptr, ptr @_ZTVN10__cxxabiv120__si_class_type_infoE, i64 2), ptr @_ZTSSt23_Sp_counted_ptr_inplaceIN8facebook5velox4core20FieldAccessTypedExprESaIvELN9__gnu_cxx12_Lock_policyE2EE, ptr @_ZTISt16_Sp_counted_baseILN9__gnu_cxx12_Lock_policyE2EE }, comdat, align 8
@_ZTVN8facebook5velox4core20FieldAccessTypedExprE = external unnamed_addr constant { [10 x ptr] }, align 8

; Function Attrs: mustprogress uwtable
define void @_ZN8facebook5velox9functions9prestosql18isSimpleComparisonERKNSt7__cxx1112basic_stringIcSt11char_traitsIcESaIcEEERKNS0_4core15LambdaTypedExprE(ptr noalias nocapture writeonly sret(%"class.std::optional") align 8 %agg.result, ptr noundef nonnull align 8 dereferenceable(32) %prefix, ptr noundef nonnull align 8 dereferenceable(80) %expr) local_unnamed_addr #0 personality ptr @__gxx_personality_v0 {
entry:
  %__a.i = alloca %"class.std::allocator.53", align 1
  %a = alloca %"class.std::shared_ptr.2", align 8
  %b = alloca %"class.std::shared_ptr.2", align 8
  %c = alloca %"class.std::shared_ptr.2", align 8
  %d = alloca %"class.std::shared_ptr.2", align 8
  %x = alloca %"class.std::shared_ptr", align 16
  %y = alloca %"class.std::shared_ptr", align 16
  %u = alloca %"class.std::shared_ptr", align 8
  %v = alloca %"class.std::shared_ptr", align 8
  %op1 = alloca %"class.std::__cxx11::basic_string", align 8
  %op2 = alloca %"class.std::__cxx11::basic_string", align 8
  %c1 = alloca i64, align 8
  %c2 = alloca i64, align 8
  %c3 = alloca i64, align 8
  %matcher = alloca %"class.std::shared_ptr.5", align 8
  %ref.tmp = alloca %"class.std::shared_ptr.5", align 8
  %ref.tmp2 = alloca %"class.std::shared_ptr.5", align 8
  %ref.tmp7 = alloca %"class.std::shared_ptr.5", align 8
  %ref.tmp10 = alloca %"class.std::shared_ptr.5", align 8
  %ref.tmp11 = alloca %"class.std::shared_ptr.5", align 8
  %ref.tmp15 = alloca %"class.std::shared_ptr.5", align 8
  %ref.tmp20 = alloca %"class.std::shared_ptr.5", align 8
  %ref.tmp23 = alloca %"class.std::shared_ptr.5", align 8
  %inputMapping = alloca %"class.std::unordered_map", align 8
  %ref.tmp52 = alloca %"class.std::shared_ptr.22", align 8
  %xRewritten = alloca %"class.std::shared_ptr", align 8
  %ref.tmp69 = alloca %"class.std::shared_ptr", align 8
  %ref.tmp82 = alloca %"class.std::shared_ptr", align 8
  %ref.tmp94 = alloca %"class.std::shared_ptr", align 8
  %eq = alloca %"class.std::__cxx11::basic_string", align 8
  %left = alloca %"class.std::__cxx11::basic_string", align 8
  %transform = alloca %"class.std::shared_ptr", align 16
  %ref.tmp163 = alloca %"struct.facebook::velox::functions::prestosql::SimpleComparison", align 16
  %ref.tmp172 = alloca %"struct.facebook::velox::functions::prestosql::SimpleComparison", align 16
  %ref.tmp194 = alloca %"struct.facebook::velox::functions::prestosql::SimpleComparison", align 8
  call void @llvm.memset.p0.i64(ptr noundef nonnull align 8 dereferenceable(16) %a, i8 0, i64 16, i1 false)
  call void @llvm.memset.p0.i64(ptr noundef nonnull align 8 dereferenceable(16) %b, i8 0, i64 16, i1 false)
  call void @llvm.memset.p0.i64(ptr noundef nonnull align 8 dereferenceable(16) %c, i8 0, i64 16, i1 false)
  call void @llvm.memset.p0.i64(ptr noundef nonnull align 8 dereferenceable(16) %d, i8 0, i64 16, i1 false)
  call void @llvm.memset.p0.i64(ptr noundef nonnull align 16 dereferenceable(16) %x, i8 0, i64 16, i1 false)
  call void @llvm.memset.p0.i64(ptr noundef nonnull align 16 dereferenceable(16) %y, i8 0, i64 16, i1 false)
  call void @llvm.memset.p0.i64(ptr noundef nonnull align 8 dereferenceable(16) %u, i8 0, i64 16, i1 false)
  call void @llvm.memset.p0.i64(ptr noundef nonnull align 8 dereferenceable(16) %v, i8 0, i64 16, i1 false)
  call void @_ZNSt7__cxx1112basic_stringIcSt11char_traitsIcESaIcEEC1Ev(ptr noundef nonnull align 8 dereferenceable(32) %op1) #17
  call void @_ZNSt7__cxx1112basic_stringIcSt11char_traitsIcESaIcEEC1Ev(ptr noundef nonnull align 8 dereferenceable(32) %op2) #17
  %call5.i.i.i5.i.i.i.i.i56 = invoke noalias noundef nonnull dereferenceable(40) ptr @_Znwm(i64 noundef 40) #18
          to label %invoke.cont unwind label %lpad

invoke.cont:                                      ; preds = %entry
  %_M_use_count.i.i.i.i.i.i.i = getelementptr inbounds %"class.std::_Sp_counted_base", ptr %call5.i.i.i5.i.i.i.i.i56, i64 0, i32 1
  store i32 1, ptr %_M_use_count.i.i.i.i.i.i.i, align 8, !noalias !4
  %_M_weak_count.i.i.i.i.i.i.i = getelementptr inbounds %"class.std::_Sp_counted_base", ptr %call5.i.i.i5.i.i.i.i.i56, i64 0, i32 2
  store i32 1, ptr %_M_weak_count.i.i.i.i.i.i.i, align 4, !noalias !4
  store ptr getelementptr inbounds ({ [7 x ptr] }, ptr @_ZTVSt23_Sp_counted_ptr_inplaceIN8facebook5velox9functions9prestosql12_GLOBAL__N_121AnySingleInputMatcherESaIvELN9__gnu_cxx12_Lock_policyE2EE, i64 0, inrange i32 0, i64 2), ptr %call5.i.i.i5.i.i.i.i.i56, align 8, !noalias !4
  %_M_impl.i.i.i.i.i.i.i = getelementptr inbounds %"class.std::_Sp_counted_ptr_inplace.75", ptr %call5.i.i.i5.i.i.i.i.i56, i64 0, i32 1
  store ptr getelementptr inbounds ({ [5 x ptr] }, ptr @_ZTVN8facebook5velox9functions9prestosql12_GLOBAL__N_121AnySingleInputMatcherE, i64 0, inrange i32 0, i64 2), ptr %_M_impl.i.i.i.i.i.i.i, align 8, !noalias !4
  %expr_.i.i.i.i.i.i.i.i.i = getelementptr inbounds %"class.std::_Sp_counted_ptr_inplace.75", ptr %call5.i.i.i5.i.i.i.i.i56, i64 0, i32 1, i32 0, i32 0, i32 0, i64 8
  store ptr %x, ptr %expr_.i.i.i.i.i.i.i.i.i, align 8, !noalias !4
  %input_.i.i.i.i.i.i.i.i.i = getelementptr inbounds %"class.std::_Sp_counted_ptr_inplace.75", ptr %call5.i.i.i5.i.i.i.i.i56, i64 0, i32 1, i32 0, i32 0, i32 0, i64 16
  store ptr %a, ptr %input_.i.i.i.i.i.i.i.i.i, align 8, !noalias !4
  call void @llvm.experimental.noalias.scope.decl(metadata !9)
  %call5.i.i.i5.i.i.i.i.i63 = invoke noalias noundef nonnull dereferenceable(40) ptr @_Znwm(i64 noundef 40) #18
          to label %invoke.cont4 unwind label %lpad3

invoke.cont4:                                     ; preds = %invoke.cont
  %_M_use_count.i.i.i.i.i.i.i57 = getelementptr inbounds %"class.std::_Sp_counted_base", ptr %call5.i.i.i5.i.i.i.i.i63, i64 0, i32 1
  store i32 1, ptr %_M_use_count.i.i.i.i.i.i.i57, align 8, !noalias !12
  %_M_weak_count.i.i.i.i.i.i.i58 = getelementptr inbounds %"class.std::_Sp_counted_base", ptr %call5.i.i.i5.i.i.i.i.i63, i64 0, i32 2
  store i32 1, ptr %_M_weak_count.i.i.i.i.i.i.i58, align 4, !noalias !12
  store ptr getelementptr inbounds ({ [7 x ptr] }, ptr @_ZTVSt23_Sp_counted_ptr_inplaceIN8facebook5velox9functions9prestosql12_GLOBAL__N_121AnySingleInputMatcherESaIvELN9__gnu_cxx12_Lock_policyE2EE, i64 0, inrange i32 0, i64 2), ptr %call5.i.i.i5.i.i.i.i.i63, align 8, !noalias !12
  %_M_impl.i.i.i.i.i.i.i59 = getelementptr inbounds %"class.std::_Sp_counted_ptr_inplace.75", ptr %call5.i.i.i5.i.i.i.i.i63, i64 0, i32 1
  store ptr getelementptr inbounds ({ [5 x ptr] }, ptr @_ZTVN8facebook5velox9functions9prestosql12_GLOBAL__N_121AnySingleInputMatcherE, i64 0, inrange i32 0, i64 2), ptr %_M_impl.i.i.i.i.i.i.i59, align 8, !noalias !12
  %expr_.i.i.i.i.i.i.i.i.i60 = getelementptr inbounds %"class.std::_Sp_counted_ptr_inplace.75", ptr %call5.i.i.i5.i.i.i.i.i63, i64 0, i32 1, i32 0, i32 0, i32 0, i64 8
  store ptr %y, ptr %expr_.i.i.i.i.i.i.i.i.i60, align 8, !noalias !12
  %input_.i.i.i.i.i.i.i.i.i61 = getelementptr inbounds %"class.std::_Sp_counted_ptr_inplace.75", ptr %call5.i.i.i5.i.i.i.i.i63, i64 0, i32 1, i32 0, i32 0, i32 0, i64 16
  store ptr %b, ptr %input_.i.i.i.i.i.i.i.i.i61, align 8, !noalias !12
  store ptr %_M_impl.i.i.i.i.i.i.i59, ptr %ref.tmp2, align 8, !alias.scope !9
  %_M_refcount.i.i.i62 = getelementptr inbounds %"class.std::__shared_ptr.6", ptr %ref.tmp2, i64 0, i32 1
  store ptr %call5.i.i.i5.i.i.i.i.i63, ptr %_M_refcount.i.i.i62, align 8, !alias.scope !9
  invoke fastcc void @_ZN8facebook5velox9functions9prestosql12_GLOBAL__N_110comparisonERKNSt7__cxx1112basic_stringIcSt11char_traitsIcESaIcEEERKSt10shared_ptrINS3_7MatcherEESG_PS9_(ptr noalias nonnull align 8 %ref.tmp, ptr noundef nonnull align 8 dereferenceable(32) %prefix, ptr nonnull %_M_impl.i.i.i.i.i.i.i, ptr nonnull %call5.i.i.i5.i.i.i.i.i56, ptr noundef nonnull align 8 dereferenceable(16) %ref.tmp2, ptr noundef nonnull %op1)
          to label %invoke.cont6 unwind label %lpad5

invoke.cont6:                                     ; preds = %invoke.cont4
  call void @llvm.experimental.noalias.scope.decl(metadata !15)
  %call5.i.i.i5.i.i.i.i.i69 = invoke noalias noundef nonnull dereferenceable(32) ptr @_Znwm(i64 noundef 32) #18
          to label %invoke.cont9 unwind label %lpad8

invoke.cont9:                                     ; preds = %invoke.cont6
  %_M_use_count.i.i.i.i.i.i.i65 = getelementptr inbounds %"class.std::_Sp_counted_base", ptr %call5.i.i.i5.i.i.i.i.i69, i64 0, i32 1
  store i32 1, ptr %_M_use_count.i.i.i.i.i.i.i65, align 8, !noalias !18
  %_M_weak_count.i.i.i.i.i.i.i66 = getelementptr inbounds %"class.std::_Sp_counted_base", ptr %call5.i.i.i5.i.i.i.i.i69, i64 0, i32 2
  store i32 1, ptr %_M_weak_count.i.i.i.i.i.i.i66, align 4, !noalias !18
  store ptr getelementptr inbounds ({ [7 x ptr] }, ptr @_ZTVSt23_Sp_counted_ptr_inplaceIN8facebook5velox9functions9prestosql12_GLOBAL__N_125ComparisonConstantMatcherESaIvELN9__gnu_cxx12_Lock_policyE2EE, i64 0, inrange i32 0, i64 2), ptr %call5.i.i.i5.i.i.i.i.i69, align 8, !noalias !18
  %_M_impl.i.i.i.i.i.i.i67 = getelementptr inbounds %"class.std::_Sp_counted_ptr_inplace.120", ptr %call5.i.i.i5.i.i.i.i.i69, i64 0, i32 1
  store ptr getelementptr inbounds ({ [5 x ptr] }, ptr @_ZTVN8facebook5velox9functions9prestosql12_GLOBAL__N_125ComparisonConstantMatcherE, i64 0, inrange i32 0, i64 2), ptr %_M_impl.i.i.i.i.i.i.i67, align 8, !noalias !18
  %value_.i.i.i.i.i.i.i.i.i = getelementptr inbounds %"class.std::_Sp_counted_ptr_inplace.120", ptr %call5.i.i.i5.i.i.i.i.i69, i64 0, i32 1, i32 0, i32 0, i32 0, i64 8
  store ptr %c1, ptr %value_.i.i.i.i.i.i.i.i.i, align 8, !noalias !18
  store ptr %_M_impl.i.i.i.i.i.i.i67, ptr %ref.tmp7, align 8, !alias.scope !15
  %_M_refcount.i.i.i68 = getelementptr inbounds %"class.std::__shared_ptr.6", ptr %ref.tmp7, i64 0, i32 1
  store ptr %call5.i.i.i5.i.i.i.i.i69, ptr %_M_refcount.i.i.i68, align 8, !alias.scope !15
  %call5.i.i.i5.i.i.i.i.i76 = invoke noalias noundef nonnull dereferenceable(40) ptr @_Znwm(i64 noundef 40) #18
          to label %invoke.cont14 unwind label %lpad13

invoke.cont14:                                    ; preds = %invoke.cont9
  %_M_use_count.i.i.i.i.i.i.i70 = getelementptr inbounds %"class.std::_Sp_counted_base", ptr %call5.i.i.i5.i.i.i.i.i76, i64 0, i32 1
  store i32 1, ptr %_M_use_count.i.i.i.i.i.i.i70, align 8, !noalias !21
  %_M_weak_count.i.i.i.i.i.i.i71 = getelementptr inbounds %"class.std::_Sp_counted_base", ptr %call5.i.i.i5.i.i.i.i.i76, i64 0, i32 2
  store i32 1, ptr %_M_weak_count.i.i.i.i.i.i.i71, align 4, !noalias !21
  store ptr getelementptr inbounds ({ [7 x ptr] }, ptr @_ZTVSt23_Sp_counted_ptr_inplaceIN8facebook5velox9functions9prestosql12_GLOBAL__N_121AnySingleInputMatcherESaIvELN9__gnu_cxx12_Lock_policyE2EE, i64 0, inrange i32 0, i64 2), ptr %call5.i.i.i5.i.i.i.i.i76, align 8, !noalias !21
  %_M_impl.i.i.i.i.i.i.i72 = getelementptr inbounds %"class.std::_Sp_counted_ptr_inplace.75", ptr %call5.i.i.i5.i.i.i.i.i76, i64 0, i32 1
  store ptr getelementptr inbounds ({ [5 x ptr] }, ptr @_ZTVN8facebook5velox9functions9prestosql12_GLOBAL__N_121AnySingleInputMatcherE, i64 0, inrange i32 0, i64 2), ptr %_M_impl.i.i.i.i.i.i.i72, align 8, !noalias !21
  %expr_.i.i.i.i.i.i.i.i.i73 = getelementptr inbounds %"class.std::_Sp_counted_ptr_inplace.75", ptr %call5.i.i.i5.i.i.i.i.i76, i64 0, i32 1, i32 0, i32 0, i32 0, i64 8
  store ptr %u, ptr %expr_.i.i.i.i.i.i.i.i.i73, align 8, !noalias !21
  %input_.i.i.i.i.i.i.i.i.i74 = getelementptr inbounds %"class.std::_Sp_counted_ptr_inplace.75", ptr %call5.i.i.i5.i.i.i.i.i76, i64 0, i32 1, i32 0, i32 0, i32 0, i64 16
  store ptr %c, ptr %input_.i.i.i.i.i.i.i.i.i74, align 8, !noalias !21
  call void @llvm.experimental.noalias.scope.decl(metadata !26)
  %call5.i.i.i5.i.i.i.i.i84 = invoke noalias noundef nonnull dereferenceable(40) ptr @_Znwm(i64 noundef 40) #18
          to label %invoke.cont17 unwind label %lpad16

invoke.cont17:                                    ; preds = %invoke.cont14
  %_M_use_count.i.i.i.i.i.i.i78 = getelementptr inbounds %"class.std::_Sp_counted_base", ptr %call5.i.i.i5.i.i.i.i.i84, i64 0, i32 1
  store i32 1, ptr %_M_use_count.i.i.i.i.i.i.i78, align 8, !noalias !29
  %_M_weak_count.i.i.i.i.i.i.i79 = getelementptr inbounds %"class.std::_Sp_counted_base", ptr %call5.i.i.i5.i.i.i.i.i84, i64 0, i32 2
  store i32 1, ptr %_M_weak_count.i.i.i.i.i.i.i79, align 4, !noalias !29
  store ptr getelementptr inbounds ({ [7 x ptr] }, ptr @_ZTVSt23_Sp_counted_ptr_inplaceIN8facebook5velox9functions9prestosql12_GLOBAL__N_121AnySingleInputMatcherESaIvELN9__gnu_cxx12_Lock_policyE2EE, i64 0, inrange i32 0, i64 2), ptr %call5.i.i.i5.i.i.i.i.i84, align 8, !noalias !29
  %_M_impl.i.i.i.i.i.i.i80 = getelementptr inbounds %"class.std::_Sp_counted_ptr_inplace.75", ptr %call5.i.i.i5.i.i.i.i.i84, i64 0, i32 1
  store ptr getelementptr inbounds ({ [5 x ptr] }, ptr @_ZTVN8facebook5velox9functions9prestosql12_GLOBAL__N_121AnySingleInputMatcherE, i64 0, inrange i32 0, i64 2), ptr %_M_impl.i.i.i.i.i.i.i80, align 8, !noalias !29
  %expr_.i.i.i.i.i.i.i.i.i81 = getelementptr inbounds %"class.std::_Sp_counted_ptr_inplace.75", ptr %call5.i.i.i5.i.i.i.i.i84, i64 0, i32 1, i32 0, i32 0, i32 0, i64 8
  store ptr %v, ptr %expr_.i.i.i.i.i.i.i.i.i81, align 8, !noalias !29
  %input_.i.i.i.i.i.i.i.i.i82 = getelementptr inbounds %"class.std::_Sp_counted_ptr_inplace.75", ptr %call5.i.i.i5.i.i.i.i.i84, i64 0, i32 1, i32 0, i32 0, i32 0, i64 16
  store ptr %d, ptr %input_.i.i.i.i.i.i.i.i.i82, align 8, !noalias !29
  store ptr %_M_impl.i.i.i.i.i.i.i80, ptr %ref.tmp15, align 8, !alias.scope !26
  %_M_refcount.i.i.i83 = getelementptr inbounds %"class.std::__shared_ptr.6", ptr %ref.tmp15, i64 0, i32 1
  store ptr %call5.i.i.i5.i.i.i.i.i84, ptr %_M_refcount.i.i.i83, align 8, !alias.scope !26
  invoke fastcc void @_ZN8facebook5velox9functions9prestosql12_GLOBAL__N_110comparisonERKNSt7__cxx1112basic_stringIcSt11char_traitsIcESaIcEEERKSt10shared_ptrINS3_7MatcherEESG_PS9_(ptr noalias nonnull align 8 %ref.tmp11, ptr noundef nonnull align 8 dereferenceable(32) %prefix, ptr nonnull %_M_impl.i.i.i.i.i.i.i72, ptr nonnull %call5.i.i.i5.i.i.i.i.i76, ptr noundef nonnull align 8 dereferenceable(16) %ref.tmp15, ptr noundef nonnull %op2)
          to label %invoke.cont19 unwind label %lpad18

invoke.cont19:                                    ; preds = %invoke.cont17
  call void @llvm.experimental.noalias.scope.decl(metadata !32)
  %call5.i.i.i5.i.i.i.i.i91 = invoke noalias noundef nonnull dereferenceable(32) ptr @_Znwm(i64 noundef 32) #18
          to label %invoke.cont22 unwind label %lpad21

invoke.cont22:                                    ; preds = %invoke.cont19
  %_M_use_count.i.i.i.i.i.i.i86 = getelementptr inbounds %"class.std::_Sp_counted_base", ptr %call5.i.i.i5.i.i.i.i.i91, i64 0, i32 1
  store i32 1, ptr %_M_use_count.i.i.i.i.i.i.i86, align 8, !noalias !35
  %_M_weak_count.i.i.i.i.i.i.i87 = getelementptr inbounds %"class.std::_Sp_counted_base", ptr %call5.i.i.i5.i.i.i.i.i91, i64 0, i32 2
  store i32 1, ptr %_M_weak_count.i.i.i.i.i.i.i87, align 4, !noalias !35
  store ptr getelementptr inbounds ({ [7 x ptr] }, ptr @_ZTVSt23_Sp_counted_ptr_inplaceIN8facebook5velox9functions9prestosql12_GLOBAL__N_125ComparisonConstantMatcherESaIvELN9__gnu_cxx12_Lock_policyE2EE, i64 0, inrange i32 0, i64 2), ptr %call5.i.i.i5.i.i.i.i.i91, align 8, !noalias !35
  %_M_impl.i.i.i.i.i.i.i88 = getelementptr inbounds %"class.std::_Sp_counted_ptr_inplace.120", ptr %call5.i.i.i5.i.i.i.i.i91, i64 0, i32 1
  store ptr getelementptr inbounds ({ [5 x ptr] }, ptr @_ZTVN8facebook5velox9functions9prestosql12_GLOBAL__N_125ComparisonConstantMatcherE, i64 0, inrange i32 0, i64 2), ptr %_M_impl.i.i.i.i.i.i.i88, align 8, !noalias !35
  %value_.i.i.i.i.i.i.i.i.i89 = getelementptr inbounds %"class.std::_Sp_counted_ptr_inplace.120", ptr %call5.i.i.i5.i.i.i.i.i91, i64 0, i32 1, i32 0, i32 0, i32 0, i64 8
  store ptr %c2, ptr %value_.i.i.i.i.i.i.i.i.i89, align 8, !noalias !35
  store ptr %_M_impl.i.i.i.i.i.i.i88, ptr %ref.tmp20, align 8, !alias.scope !32
  %_M_refcount.i.i.i90 = getelementptr inbounds %"class.std::__shared_ptr.6", ptr %ref.tmp20, i64 0, i32 1
  store ptr %call5.i.i.i5.i.i.i.i.i91, ptr %_M_refcount.i.i.i90, align 8, !alias.scope !32
  call void @llvm.experimental.noalias.scope.decl(metadata !38)
  %call5.i.i.i5.i.i.i.i.i98 = invoke noalias noundef nonnull dereferenceable(32) ptr @_Znwm(i64 noundef 32) #18
          to label %invoke.cont25 unwind label %lpad24

invoke.cont25:                                    ; preds = %invoke.cont22
  %_M_use_count.i.i.i.i.i.i.i93 = getelementptr inbounds %"class.std::_Sp_counted_base", ptr %call5.i.i.i5.i.i.i.i.i98, i64 0, i32 1
  store i32 1, ptr %_M_use_count.i.i.i.i.i.i.i93, align 8, !noalias !41
  %_M_weak_count.i.i.i.i.i.i.i94 = getelementptr inbounds %"class.std::_Sp_counted_base", ptr %call5.i.i.i5.i.i.i.i.i98, i64 0, i32 2
  store i32 1, ptr %_M_weak_count.i.i.i.i.i.i.i94, align 4, !noalias !41
  store ptr getelementptr inbounds ({ [7 x ptr] }, ptr @_ZTVSt23_Sp_counted_ptr_inplaceIN8facebook5velox9functions9prestosql12_GLOBAL__N_125ComparisonConstantMatcherESaIvELN9__gnu_cxx12_Lock_policyE2EE, i64 0, inrange i32 0, i64 2), ptr %call5.i.i.i5.i.i.i.i.i98, align 8, !noalias !41
  %_M_impl.i.i.i.i.i.i.i95 = getelementptr inbounds %"class.std::_Sp_counted_ptr_inplace.120", ptr %call5.i.i.i5.i.i.i.i.i98, i64 0, i32 1
  store ptr getelementptr inbounds ({ [5 x ptr] }, ptr @_ZTVN8facebook5velox9functions9prestosql12_GLOBAL__N_125ComparisonConstantMatcherE, i64 0, inrange i32 0, i64 2), ptr %_M_impl.i.i.i.i.i.i.i95, align 8, !noalias !41
  %value_.i.i.i.i.i.i.i.i.i96 = getelementptr inbounds %"class.std::_Sp_counted_ptr_inplace.120", ptr %call5.i.i.i5.i.i.i.i.i98, i64 0, i32 1, i32 0, i32 0, i32 0, i64 8
  store ptr %c3, ptr %value_.i.i.i.i.i.i.i.i.i96, align 8, !noalias !41
  store ptr %_M_impl.i.i.i.i.i.i.i95, ptr %ref.tmp23, align 8, !alias.scope !38
  %_M_refcount.i.i.i97 = getelementptr inbounds %"class.std::__shared_ptr.6", ptr %ref.tmp23, i64 0, i32 1
  store ptr %call5.i.i.i5.i.i.i.i.i98, ptr %_M_refcount.i.i.i97, align 8, !alias.scope !38
  %ref.tmp11.val50 = load ptr, ptr %ref.tmp11, align 8
  %0 = getelementptr inbounds i8, ptr %ref.tmp11, i64 8
  %ref.tmp11.val51 = load ptr, ptr %0, align 8
  invoke fastcc void @_ZN8facebook5velox9functions9prestosql12_GLOBAL__N_16ifelseERKSt10shared_ptrINS3_7MatcherEES8_S8_(ptr noalias nonnull align 8 %ref.tmp10, ptr %ref.tmp11.val50, ptr %ref.tmp11.val51, ptr noundef nonnull align 8 dereferenceable(16) %ref.tmp20, ptr noundef nonnull align 8 dereferenceable(16) %ref.tmp23)
          to label %invoke.cont27 unwind label %lpad26

invoke.cont27:                                    ; preds = %invoke.cont25
  %ref.tmp.val52 = load ptr, ptr %ref.tmp, align 8
  %1 = getelementptr inbounds i8, ptr %ref.tmp, i64 8
  %ref.tmp.val53 = load ptr, ptr %1, align 8
  invoke fastcc void @_ZN8facebook5velox9functions9prestosql12_GLOBAL__N_16ifelseERKSt10shared_ptrINS3_7MatcherEES8_S8_(ptr noalias nonnull align 8 %matcher, ptr %ref.tmp.val52, ptr %ref.tmp.val53, ptr noundef nonnull align 8 dereferenceable(16) %ref.tmp7, ptr noundef nonnull align 8 dereferenceable(16) %ref.tmp10)
          to label %invoke.cont29 unwind label %lpad28

invoke.cont29:                                    ; preds = %invoke.cont27
  %2 = getelementptr inbounds i8, ptr %ref.tmp10, i64 8
  %ref.tmp10.val = load ptr, ptr %2, align 8
  %cmp.not.i.i.i = icmp eq ptr %ref.tmp10.val, null
  br i1 %cmp.not.i.i.i, label %_ZNSt10shared_ptrIN8facebook5velox9functions9prestosql12_GLOBAL__N_17MatcherEED2Ev.exit, label %if.then.i.i.i

if.then.i.i.i:                                    ; preds = %invoke.cont29
  %_M_use_count.i.i.i.i = getelementptr inbounds %"class.std::_Sp_counted_base", ptr %ref.tmp10.val, i64 0, i32 1
  %3 = load atomic i64, ptr %_M_use_count.i.i.i.i acquire, align 8
  %cmp.i.i.i.i = icmp eq i64 %3, 4294967297
  %4 = trunc i64 %3 to i32
  br i1 %cmp.i.i.i.i, label %if.then.i.i.i.i, label %if.end.i.i.i.i

if.then.i.i.i.i:                                  ; preds = %if.then.i.i.i
  store i32 0, ptr %_M_use_count.i.i.i.i, align 8
  %_M_weak_count.i.i.i.i = getelementptr inbounds %"class.std::_Sp_counted_base", ptr %ref.tmp10.val, i64 0, i32 2
  store i32 0, ptr %_M_weak_count.i.i.i.i, align 4
  %vtable.i.i.i.i = load ptr, ptr %ref.tmp10.val, align 8
  %vfn.i.i.i.i = getelementptr inbounds ptr, ptr %vtable.i.i.i.i, i64 2
  %5 = load ptr, ptr %vfn.i.i.i.i, align 8
  call void %5(ptr noundef nonnull align 8 dereferenceable(16) %ref.tmp10.val) #17
  br label %if.end8.sink.split.i.i.i.i

if.end.i.i.i.i:                                   ; preds = %if.then.i.i.i
  %6 = load i8, ptr @__libc_single_threaded, align 1
  %tobool.i.i.not.i.i.i.i = icmp eq i8 %6, 0
  br i1 %tobool.i.i.not.i.i.i.i, label %if.else.i.i.i.i.i, label %if.then.i.i.i.i.i

if.then.i.i.i.i.i:                                ; preds = %if.end.i.i.i.i
  %add.i.i.i.i.i = add nsw i32 %4, -1
  store i32 %add.i.i.i.i.i, ptr %_M_use_count.i.i.i.i, align 4
  br label %_ZN9__gnu_cxx27__exchange_and_add_dispatchEPii.exit.i.i.i.i

if.else.i.i.i.i.i:                                ; preds = %if.end.i.i.i.i
  %7 = atomicrmw volatile add ptr %_M_use_count.i.i.i.i, i32 -1 acq_rel, align 4
  br label %_ZN9__gnu_cxx27__exchange_and_add_dispatchEPii.exit.i.i.i.i

_ZN9__gnu_cxx27__exchange_and_add_dispatchEPii.exit.i.i.i.i: ; preds = %if.else.i.i.i.i.i, %if.then.i.i.i.i.i
  %retval.i.0.i.i.i.i = phi i32 [ %4, %if.then.i.i.i.i.i ], [ %7, %if.else.i.i.i.i.i ]
  %cmp6.i.i.i.i = icmp eq i32 %retval.i.0.i.i.i.i, 1
  br i1 %cmp6.i.i.i.i, label %if.then7.i.i.i.i, label %_ZNSt10shared_ptrIN8facebook5velox9functions9prestosql12_GLOBAL__N_17MatcherEED2Ev.exit

if.then7.i.i.i.i:                                 ; preds = %_ZN9__gnu_cxx27__exchange_and_add_dispatchEPii.exit.i.i.i.i
  %vtable.i.i.i.i.i.i = load ptr, ptr %ref.tmp10.val, align 8
  %vfn.i.i.i.i.i.i = getelementptr inbounds ptr, ptr %vtable.i.i.i.i.i.i, i64 2
  %8 = load ptr, ptr %vfn.i.i.i.i.i.i, align 8
  call void %8(ptr noundef nonnull align 8 dereferenceable(16) %ref.tmp10.val) #17
  %_M_weak_count.i.i.i.i.i.i = getelementptr inbounds %"class.std::_Sp_counted_base", ptr %ref.tmp10.val, i64 0, i32 2
  %9 = load i8, ptr @__libc_single_threaded, align 1
  %tobool.i.i.not.i.i.i.i.i.i = icmp eq i8 %9, 0
  br i1 %tobool.i.i.not.i.i.i.i.i.i, label %if.else.i.i.i.i.i.i.i, label %if.then.i.i.i.i.i.i.i

if.then.i.i.i.i.i.i.i:                            ; preds = %if.then7.i.i.i.i
  %10 = load i32, ptr %_M_weak_count.i.i.i.i.i.i, align 4
  %add.i.i.i.i.i.i.i = add nsw i32 %10, -1
  store i32 %add.i.i.i.i.i.i.i, ptr %_M_weak_count.i.i.i.i.i.i, align 4
  br label %_ZN9__gnu_cxx27__exchange_and_add_dispatchEPii.exit.i.i.i.i.i.i

if.else.i.i.i.i.i.i.i:                            ; preds = %if.then7.i.i.i.i
  %11 = atomicrmw volatile add ptr %_M_weak_count.i.i.i.i.i.i, i32 -1 acq_rel, align 4
  br label %_ZN9__gnu_cxx27__exchange_and_add_dispatchEPii.exit.i.i.i.i.i.i

_ZN9__gnu_cxx27__exchange_and_add_dispatchEPii.exit.i.i.i.i.i.i: ; preds = %if.else.i.i.i.i.i.i.i, %if.then.i.i.i.i.i.i.i
  %retval.i.0.i.i.i.i.i.i = phi i32 [ %10, %if.then.i.i.i.i.i.i.i ], [ %11, %if.else.i.i.i.i.i.i.i ]
  %cmp.i.i.i.i.i.i = icmp eq i32 %retval.i.0.i.i.i.i.i.i, 1
  br i1 %cmp.i.i.i.i.i.i, label %if.end8.sink.split.i.i.i.i, label %_ZNSt10shared_ptrIN8facebook5velox9functions9prestosql12_GLOBAL__N_17MatcherEED2Ev.exit

if.end8.sink.split.i.i.i.i:                       ; preds = %_ZN9__gnu_cxx27__exchange_and_add_dispatchEPii.exit.i.i.i.i.i.i, %if.then.i.i.i.i
  %vtable2.i.i.i.i.i.i = load ptr, ptr %ref.tmp10.val, align 8
  %vfn3.i.i.i.i.i.i = getelementptr inbounds ptr, ptr %vtable2.i.i.i.i.i.i, i64 3
  %12 = load ptr, ptr %vfn3.i.i.i.i.i.i, align 8
  call void %12(ptr noundef nonnull align 8 dereferenceable(16) %ref.tmp10.val) #17
  br label %_ZNSt10shared_ptrIN8facebook5velox9functions9prestosql12_GLOBAL__N_17MatcherEED2Ev.exit

_ZNSt10shared_ptrIN8facebook5velox9functions9prestosql12_GLOBAL__N_17MatcherEED2Ev.exit: ; preds = %invoke.cont29, %_ZN9__gnu_cxx27__exchange_and_add_dispatchEPii.exit.i.i.i.i, %_ZN9__gnu_cxx27__exchange_and_add_dispatchEPii.exit.i.i.i.i.i.i, %if.end8.sink.split.i.i.i.i
  %ref.tmp23.val = load ptr, ptr %_M_refcount.i.i.i97, align 8
  %cmp.not.i.i.i100 = icmp eq ptr %ref.tmp23.val, null
  br i1 %cmp.not.i.i.i100, label %_ZNSt10shared_ptrIN8facebook5velox9functions9prestosql12_GLOBAL__N_17MatcherEED2Ev.exit130, label %if.then.i.i.i101

if.then.i.i.i101:                                 ; preds = %_ZNSt10shared_ptrIN8facebook5velox9functions9prestosql12_GLOBAL__N_17MatcherEED2Ev.exit
  %_M_use_count.i.i.i.i102 = getelementptr inbounds %"class.std::_Sp_counted_base", ptr %ref.tmp23.val, i64 0, i32 1
  %13 = load atomic i64, ptr %_M_use_count.i.i.i.i102 acquire, align 8
  %cmp.i.i.i.i103 = icmp eq i64 %13, 4294967297
  %14 = trunc i64 %13 to i32
  br i1 %cmp.i.i.i.i103, label %if.then.i.i.i.i126, label %if.end.i.i.i.i104

if.then.i.i.i.i126:                               ; preds = %if.then.i.i.i101
  store i32 0, ptr %_M_use_count.i.i.i.i102, align 8
  %_M_weak_count.i.i.i.i127 = getelementptr inbounds %"class.std::_Sp_counted_base", ptr %ref.tmp23.val, i64 0, i32 2
  store i32 0, ptr %_M_weak_count.i.i.i.i127, align 4
  %vtable.i.i.i.i128 = load ptr, ptr %ref.tmp23.val, align 8
  %vfn.i.i.i.i129 = getelementptr inbounds ptr, ptr %vtable.i.i.i.i128, i64 2
  %15 = load ptr, ptr %vfn.i.i.i.i129, align 8
  call void %15(ptr noundef nonnull align 8 dereferenceable(16) %ref.tmp23.val) #17
  br label %if.end8.sink.split.i.i.i.i121

if.end.i.i.i.i104:                                ; preds = %if.then.i.i.i101
  %16 = load i8, ptr @__libc_single_threaded, align 1
  %tobool.i.i.not.i.i.i.i105 = icmp eq i8 %16, 0
  br i1 %tobool.i.i.not.i.i.i.i105, label %if.else.i.i.i.i.i125, label %if.then.i.i.i.i.i106

if.then.i.i.i.i.i106:                             ; preds = %if.end.i.i.i.i104
  %add.i.i.i.i.i107 = add nsw i32 %14, -1
  store i32 %add.i.i.i.i.i107, ptr %_M_use_count.i.i.i.i102, align 4
  br label %_ZN9__gnu_cxx27__exchange_and_add_dispatchEPii.exit.i.i.i.i108

if.else.i.i.i.i.i125:                             ; preds = %if.end.i.i.i.i104
  %17 = atomicrmw volatile add ptr %_M_use_count.i.i.i.i102, i32 -1 acq_rel, align 4
  br label %_ZN9__gnu_cxx27__exchange_and_add_dispatchEPii.exit.i.i.i.i108

_ZN9__gnu_cxx27__exchange_and_add_dispatchEPii.exit.i.i.i.i108: ; preds = %if.else.i.i.i.i.i125, %if.then.i.i.i.i.i106
  %retval.i.0.i.i.i.i109 = phi i32 [ %14, %if.then.i.i.i.i.i106 ], [ %17, %if.else.i.i.i.i.i125 ]
  %cmp6.i.i.i.i110 = icmp eq i32 %retval.i.0.i.i.i.i109, 1
  br i1 %cmp6.i.i.i.i110, label %if.then7.i.i.i.i111, label %_ZNSt10shared_ptrIN8facebook5velox9functions9prestosql12_GLOBAL__N_17MatcherEED2Ev.exit130

if.then7.i.i.i.i111:                              ; preds = %_ZN9__gnu_cxx27__exchange_and_add_dispatchEPii.exit.i.i.i.i108
  %vtable.i.i.i.i.i.i112 = load ptr, ptr %ref.tmp23.val, align 8
  %vfn.i.i.i.i.i.i113 = getelementptr inbounds ptr, ptr %vtable.i.i.i.i.i.i112, i64 2
  %18 = load ptr, ptr %vfn.i.i.i.i.i.i113, align 8
  call void %18(ptr noundef nonnull align 8 dereferenceable(16) %ref.tmp23.val) #17
  %_M_weak_count.i.i.i.i.i.i114 = getelementptr inbounds %"class.std::_Sp_counted_base", ptr %ref.tmp23.val, i64 0, i32 2
  %19 = load i8, ptr @__libc_single_threaded, align 1
  %tobool.i.i.not.i.i.i.i.i.i115 = icmp eq i8 %19, 0
  br i1 %tobool.i.i.not.i.i.i.i.i.i115, label %if.else.i.i.i.i.i.i.i124, label %if.then.i.i.i.i.i.i.i116

if.then.i.i.i.i.i.i.i116:                         ; preds = %if.then7.i.i.i.i111
  %20 = load i32, ptr %_M_weak_count.i.i.i.i.i.i114, align 4
  %add.i.i.i.i.i.i.i117 = add nsw i32 %20, -1
  store i32 %add.i.i.i.i.i.i.i117, ptr %_M_weak_count.i.i.i.i.i.i114, align 4
  br label %_ZN9__gnu_cxx27__exchange_and_add_dispatchEPii.exit.i.i.i.i.i.i118

if.else.i.i.i.i.i.i.i124:                         ; preds = %if.then7.i.i.i.i111
  %21 = atomicrmw volatile add ptr %_M_weak_count.i.i.i.i.i.i114, i32 -1 acq_rel, align 4
  br label %_ZN9__gnu_cxx27__exchange_and_add_dispatchEPii.exit.i.i.i.i.i.i118

_ZN9__gnu_cxx27__exchange_and_add_dispatchEPii.exit.i.i.i.i.i.i118: ; preds = %if.else.i.i.i.i.i.i.i124, %if.then.i.i.i.i.i.i.i116
  %retval.i.0.i.i.i.i.i.i119 = phi i32 [ %20, %if.then.i.i.i.i.i.i.i116 ], [ %21, %if.else.i.i.i.i.i.i.i124 ]
  %cmp.i.i.i.i.i.i120 = icmp eq i32 %retval.i.0.i.i.i.i.i.i119, 1
  br i1 %cmp.i.i.i.i.i.i120, label %if.end8.sink.split.i.i.i.i121, label %_ZNSt10shared_ptrIN8facebook5velox9functions9prestosql12_GLOBAL__N_17MatcherEED2Ev.exit130

if.end8.sink.split.i.i.i.i121:                    ; preds = %_ZN9__gnu_cxx27__exchange_and_add_dispatchEPii.exit.i.i.i.i.i.i118, %if.then.i.i.i.i126
  %vtable2.i.i.i.i.i.i122 = load ptr, ptr %ref.tmp23.val, align 8
  %vfn3.i.i.i.i.i.i123 = getelementptr inbounds ptr, ptr %vtable2.i.i.i.i.i.i122, i64 3
  %22 = load ptr, ptr %vfn3.i.i.i.i.i.i123, align 8
  call void %22(ptr noundef nonnull align 8 dereferenceable(16) %ref.tmp23.val) #17
  br label %_ZNSt10shared_ptrIN8facebook5velox9functions9prestosql12_GLOBAL__N_17MatcherEED2Ev.exit130

_ZNSt10shared_ptrIN8facebook5velox9functions9prestosql12_GLOBAL__N_17MatcherEED2Ev.exit130: ; preds = %_ZNSt10shared_ptrIN8facebook5velox9functions9prestosql12_GLOBAL__N_17MatcherEED2Ev.exit, %_ZN9__gnu_cxx27__exchange_and_add_dispatchEPii.exit.i.i.i.i108, %_ZN9__gnu_cxx27__exchange_and_add_dispatchEPii.exit.i.i.i.i.i.i118, %if.end8.sink.split.i.i.i.i121
  %ref.tmp20.val = load ptr, ptr %_M_refcount.i.i.i90, align 8
  %cmp.not.i.i.i131 = icmp eq ptr %ref.tmp20.val, null
  br i1 %cmp.not.i.i.i131, label %_ZNSt10shared_ptrIN8facebook5velox9functions9prestosql12_GLOBAL__N_17MatcherEED2Ev.exit161, label %if.then.i.i.i132

if.then.i.i.i132:                                 ; preds = %_ZNSt10shared_ptrIN8facebook5velox9functions9prestosql12_GLOBAL__N_17MatcherEED2Ev.exit130
  %_M_use_count.i.i.i.i133 = getelementptr inbounds %"class.std::_Sp_counted_base", ptr %ref.tmp20.val, i64 0, i32 1
  %23 = load atomic i64, ptr %_M_use_count.i.i.i.i133 acquire, align 8
  %cmp.i.i.i.i134 = icmp eq i64 %23, 4294967297
  %24 = trunc i64 %23 to i32
  br i1 %cmp.i.i.i.i134, label %if.then.i.i.i.i157, label %if.end.i.i.i.i135

if.then.i.i.i.i157:                               ; preds = %if.then.i.i.i132
  store i32 0, ptr %_M_use_count.i.i.i.i133, align 8
  %_M_weak_count.i.i.i.i158 = getelementptr inbounds %"class.std::_Sp_counted_base", ptr %ref.tmp20.val, i64 0, i32 2
  store i32 0, ptr %_M_weak_count.i.i.i.i158, align 4
  %vtable.i.i.i.i159 = load ptr, ptr %ref.tmp20.val, align 8
  %vfn.i.i.i.i160 = getelementptr inbounds ptr, ptr %vtable.i.i.i.i159, i64 2
  %25 = load ptr, ptr %vfn.i.i.i.i160, align 8
  call void %25(ptr noundef nonnull align 8 dereferenceable(16) %ref.tmp20.val) #17
  br label %if.end8.sink.split.i.i.i.i152

if.end.i.i.i.i135:                                ; preds = %if.then.i.i.i132
  %26 = load i8, ptr @__libc_single_threaded, align 1
  %tobool.i.i.not.i.i.i.i136 = icmp eq i8 %26, 0
  br i1 %tobool.i.i.not.i.i.i.i136, label %if.else.i.i.i.i.i156, label %if.then.i.i.i.i.i137

if.then.i.i.i.i.i137:                             ; preds = %if.end.i.i.i.i135
  %add.i.i.i.i.i138 = add nsw i32 %24, -1
  store i32 %add.i.i.i.i.i138, ptr %_M_use_count.i.i.i.i133, align 4
  br label %_ZN9__gnu_cxx27__exchange_and_add_dispatchEPii.exit.i.i.i.i139

if.else.i.i.i.i.i156:                             ; preds = %if.end.i.i.i.i135
  %27 = atomicrmw volatile add ptr %_M_use_count.i.i.i.i133, i32 -1 acq_rel, align 4
  br label %_ZN9__gnu_cxx27__exchange_and_add_dispatchEPii.exit.i.i.i.i139

_ZN9__gnu_cxx27__exchange_and_add_dispatchEPii.exit.i.i.i.i139: ; preds = %if.else.i.i.i.i.i156, %if.then.i.i.i.i.i137
  %retval.i.0.i.i.i.i140 = phi i32 [ %24, %if.then.i.i.i.i.i137 ], [ %27, %if.else.i.i.i.i.i156 ]
  %cmp6.i.i.i.i141 = icmp eq i32 %retval.i.0.i.i.i.i140, 1
  br i1 %cmp6.i.i.i.i141, label %if.then7.i.i.i.i142, label %_ZNSt10shared_ptrIN8facebook5velox9functions9prestosql12_GLOBAL__N_17MatcherEED2Ev.exit161

if.then7.i.i.i.i142:                              ; preds = %_ZN9__gnu_cxx27__exchange_and_add_dispatchEPii.exit.i.i.i.i139
  %vtable.i.i.i.i.i.i143 = load ptr, ptr %ref.tmp20.val, align 8
  %vfn.i.i.i.i.i.i144 = getelementptr inbounds ptr, ptr %vtable.i.i.i.i.i.i143, i64 2
  %28 = load ptr, ptr %vfn.i.i.i.i.i.i144, align 8
  call void %28(ptr noundef nonnull align 8 dereferenceable(16) %ref.tmp20.val) #17
  %_M_weak_count.i.i.i.i.i.i145 = getelementptr inbounds %"class.std::_Sp_counted_base", ptr %ref.tmp20.val, i64 0, i32 2
  %29 = load i8, ptr @__libc_single_threaded, align 1
  %tobool.i.i.not.i.i.i.i.i.i146 = icmp eq i8 %29, 0
  br i1 %tobool.i.i.not.i.i.i.i.i.i146, label %if.else.i.i.i.i.i.i.i155, label %if.then.i.i.i.i.i.i.i147

if.then.i.i.i.i.i.i.i147:                         ; preds = %if.then7.i.i.i.i142
  %30 = load i32, ptr %_M_weak_count.i.i.i.i.i.i145, align 4
  %add.i.i.i.i.i.i.i148 = add nsw i32 %30, -1
  store i32 %add.i.i.i.i.i.i.i148, ptr %_M_weak_count.i.i.i.i.i.i145, align 4
  br label %_ZN9__gnu_cxx27__exchange_and_add_dispatchEPii.exit.i.i.i.i.i.i149

if.else.i.i.i.i.i.i.i155:                         ; preds = %if.then7.i.i.i.i142
  %31 = atomicrmw volatile add ptr %_M_weak_count.i.i.i.i.i.i145, i32 -1 acq_rel, align 4
  br label %_ZN9__gnu_cxx27__exchange_and_add_dispatchEPii.exit.i.i.i.i.i.i149

_ZN9__gnu_cxx27__exchange_and_add_dispatchEPii.exit.i.i.i.i.i.i149: ; preds = %if.else.i.i.i.i.i.i.i155, %if.then.i.i.i.i.i.i.i147
  %retval.i.0.i.i.i.i.i.i150 = phi i32 [ %30, %if.then.i.i.i.i.i.i.i147 ], [ %31, %if.else.i.i.i.i.i.i.i155 ]
  %cmp.i.i.i.i.i.i151 = icmp eq i32 %retval.i.0.i.i.i.i.i.i150, 1
  br i1 %cmp.i.i.i.i.i.i151, label %if.end8.sink.split.i.i.i.i152, label %_ZNSt10shared_ptrIN8facebook5velox9functions9prestosql12_GLOBAL__N_17MatcherEED2Ev.exit161

if.end8.sink.split.i.i.i.i152:                    ; preds = %_ZN9__gnu_cxx27__exchange_and_add_dispatchEPii.exit.i.i.i.i.i.i149, %if.then.i.i.i.i157
  %vtable2.i.i.i.i.i.i153 = load ptr, ptr %ref.tmp20.val, align 8
  %vfn3.i.i.i.i.i.i154 = getelementptr inbounds ptr, ptr %vtable2.i.i.i.i.i.i153, i64 3
  %32 = load ptr, ptr %vfn3.i.i.i.i.i.i154, align 8
  call void %32(ptr noundef nonnull align 8 dereferenceable(16) %ref.tmp20.val) #17
  br label %_ZNSt10shared_ptrIN8facebook5velox9functions9prestosql12_GLOBAL__N_17MatcherEED2Ev.exit161

_ZNSt10shared_ptrIN8facebook5velox9functions9prestosql12_GLOBAL__N_17MatcherEED2Ev.exit161: ; preds = %_ZNSt10shared_ptrIN8facebook5velox9functions9prestosql12_GLOBAL__N_17MatcherEED2Ev.exit130, %_ZN9__gnu_cxx27__exchange_and_add_dispatchEPii.exit.i.i.i.i139, %_ZN9__gnu_cxx27__exchange_and_add_dispatchEPii.exit.i.i.i.i.i.i149, %if.end8.sink.split.i.i.i.i152
  %ref.tmp11.val = load ptr, ptr %0, align 8
  %cmp.not.i.i.i162 = icmp eq ptr %ref.tmp11.val, null
  br i1 %cmp.not.i.i.i162, label %_ZNSt10shared_ptrIN8facebook5velox9functions9prestosql12_GLOBAL__N_17MatcherEED2Ev.exit192, label %if.then.i.i.i163

if.then.i.i.i163:                                 ; preds = %_ZNSt10shared_ptrIN8facebook5velox9functions9prestosql12_GLOBAL__N_17MatcherEED2Ev.exit161
  %_M_use_count.i.i.i.i164 = getelementptr inbounds %"class.std::_Sp_counted_base", ptr %ref.tmp11.val, i64 0, i32 1
  %33 = load atomic i64, ptr %_M_use_count.i.i.i.i164 acquire, align 8
  %cmp.i.i.i.i165 = icmp eq i64 %33, 4294967297
  %34 = trunc i64 %33 to i32
  br i1 %cmp.i.i.i.i165, label %if.then.i.i.i.i188, label %if.end.i.i.i.i166

if.then.i.i.i.i188:                               ; preds = %if.then.i.i.i163
  store i32 0, ptr %_M_use_count.i.i.i.i164, align 8
  %_M_weak_count.i.i.i.i189 = getelementptr inbounds %"class.std::_Sp_counted_base", ptr %ref.tmp11.val, i64 0, i32 2
  store i32 0, ptr %_M_weak_count.i.i.i.i189, align 4
  %vtable.i.i.i.i190 = load ptr, ptr %ref.tmp11.val, align 8
  %vfn.i.i.i.i191 = getelementptr inbounds ptr, ptr %vtable.i.i.i.i190, i64 2
  %35 = load ptr, ptr %vfn.i.i.i.i191, align 8
  call void %35(ptr noundef nonnull align 8 dereferenceable(16) %ref.tmp11.val) #17
  br label %if.end8.sink.split.i.i.i.i183

if.end.i.i.i.i166:                                ; preds = %if.then.i.i.i163
  %36 = load i8, ptr @__libc_single_threaded, align 1
  %tobool.i.i.not.i.i.i.i167 = icmp eq i8 %36, 0
  br i1 %tobool.i.i.not.i.i.i.i167, label %if.else.i.i.i.i.i187, label %if.then.i.i.i.i.i168

if.then.i.i.i.i.i168:                             ; preds = %if.end.i.i.i.i166
  %add.i.i.i.i.i169 = add nsw i32 %34, -1
  store i32 %add.i.i.i.i.i169, ptr %_M_use_count.i.i.i.i164, align 4
  br label %_ZN9__gnu_cxx27__exchange_and_add_dispatchEPii.exit.i.i.i.i170

if.else.i.i.i.i.i187:                             ; preds = %if.end.i.i.i.i166
  %37 = atomicrmw volatile add ptr %_M_use_count.i.i.i.i164, i32 -1 acq_rel, align 4
  br label %_ZN9__gnu_cxx27__exchange_and_add_dispatchEPii.exit.i.i.i.i170

_ZN9__gnu_cxx27__exchange_and_add_dispatchEPii.exit.i.i.i.i170: ; preds = %if.else.i.i.i.i.i187, %if.then.i.i.i.i.i168
  %retval.i.0.i.i.i.i171 = phi i32 [ %34, %if.then.i.i.i.i.i168 ], [ %37, %if.else.i.i.i.i.i187 ]
  %cmp6.i.i.i.i172 = icmp eq i32 %retval.i.0.i.i.i.i171, 1
  br i1 %cmp6.i.i.i.i172, label %if.then7.i.i.i.i173, label %_ZNSt10shared_ptrIN8facebook5velox9functions9prestosql12_GLOBAL__N_17MatcherEED2Ev.exit192

if.then7.i.i.i.i173:                              ; preds = %_ZN9__gnu_cxx27__exchange_and_add_dispatchEPii.exit.i.i.i.i170
  %vtable.i.i.i.i.i.i174 = load ptr, ptr %ref.tmp11.val, align 8
  %vfn.i.i.i.i.i.i175 = getelementptr inbounds ptr, ptr %vtable.i.i.i.i.i.i174, i64 2
  %38 = load ptr, ptr %vfn.i.i.i.i.i.i175, align 8
  call void %38(ptr noundef nonnull align 8 dereferenceable(16) %ref.tmp11.val) #17
  %_M_weak_count.i.i.i.i.i.i176 = getelementptr inbounds %"class.std::_Sp_counted_base", ptr %ref.tmp11.val, i64 0, i32 2
  %39 = load i8, ptr @__libc_single_threaded, align 1
  %tobool.i.i.not.i.i.i.i.i.i177 = icmp eq i8 %39, 0
  br i1 %tobool.i.i.not.i.i.i.i.i.i177, label %if.else.i.i.i.i.i.i.i186, label %if.then.i.i.i.i.i.i.i178

if.then.i.i.i.i.i.i.i178:                         ; preds = %if.then7.i.i.i.i173
  %40 = load i32, ptr %_M_weak_count.i.i.i.i.i.i176, align 4
  %add.i.i.i.i.i.i.i179 = add nsw i32 %40, -1
  store i32 %add.i.i.i.i.i.i.i179, ptr %_M_weak_count.i.i.i.i.i.i176, align 4
  br label %_ZN9__gnu_cxx27__exchange_and_add_dispatchEPii.exit.i.i.i.i.i.i180

if.else.i.i.i.i.i.i.i186:                         ; preds = %if.then7.i.i.i.i173
  %41 = atomicrmw volatile add ptr %_M_weak_count.i.i.i.i.i.i176, i32 -1 acq_rel, align 4
  br label %_ZN9__gnu_cxx27__exchange_and_add_dispatchEPii.exit.i.i.i.i.i.i180

_ZN9__gnu_cxx27__exchange_and_add_dispatchEPii.exit.i.i.i.i.i.i180: ; preds = %if.else.i.i.i.i.i.i.i186, %if.then.i.i.i.i.i.i.i178
  %retval.i.0.i.i.i.i.i.i181 = phi i32 [ %40, %if.then.i.i.i.i.i.i.i178 ], [ %41, %if.else.i.i.i.i.i.i.i186 ]
  %cmp.i.i.i.i.i.i182 = icmp eq i32 %retval.i.0.i.i.i.i.i.i181, 1
  br i1 %cmp.i.i.i.i.i.i182, label %if.end8.sink.split.i.i.i.i183, label %_ZNSt10shared_ptrIN8facebook5velox9functions9prestosql12_GLOBAL__N_17MatcherEED2Ev.exit192

if.end8.sink.split.i.i.i.i183:                    ; preds = %_ZN9__gnu_cxx27__exchange_and_add_dispatchEPii.exit.i.i.i.i.i.i180, %if.then.i.i.i.i188
  %vtable2.i.i.i.i.i.i184 = load ptr, ptr %ref.tmp11.val, align 8
  %vfn3.i.i.i.i.i.i185 = getelementptr inbounds ptr, ptr %vtable2.i.i.i.i.i.i184, i64 3
  %42 = load ptr, ptr %vfn3.i.i.i.i.i.i185, align 8
  call void %42(ptr noundef nonnull align 8 dereferenceable(16) %ref.tmp11.val) #17
  br label %_ZNSt10shared_ptrIN8facebook5velox9functions9prestosql12_GLOBAL__N_17MatcherEED2Ev.exit192

_ZNSt10shared_ptrIN8facebook5velox9functions9prestosql12_GLOBAL__N_17MatcherEED2Ev.exit192: ; preds = %_ZNSt10shared_ptrIN8facebook5velox9functions9prestosql12_GLOBAL__N_17MatcherEED2Ev.exit161, %_ZN9__gnu_cxx27__exchange_and_add_dispatchEPii.exit.i.i.i.i170, %_ZN9__gnu_cxx27__exchange_and_add_dispatchEPii.exit.i.i.i.i.i.i180, %if.end8.sink.split.i.i.i.i183
  %ref.tmp15.val = load ptr, ptr %_M_refcount.i.i.i83, align 8
  %cmp.not.i.i.i193 = icmp eq ptr %ref.tmp15.val, null
  br i1 %cmp.not.i.i.i193, label %if.then.i.i.i225, label %if.then.i.i.i194

if.then.i.i.i194:                                 ; preds = %_ZNSt10shared_ptrIN8facebook5velox9functions9prestosql12_GLOBAL__N_17MatcherEED2Ev.exit192
  %_M_use_count.i.i.i.i195 = getelementptr inbounds %"class.std::_Sp_counted_base", ptr %ref.tmp15.val, i64 0, i32 1
  %43 = load atomic i64, ptr %_M_use_count.i.i.i.i195 acquire, align 8
  %cmp.i.i.i.i196 = icmp eq i64 %43, 4294967297
  %44 = trunc i64 %43 to i32
  br i1 %cmp.i.i.i.i196, label %if.then.i.i.i.i219, label %if.end.i.i.i.i197

if.then.i.i.i.i219:                               ; preds = %if.then.i.i.i194
  store i32 0, ptr %_M_use_count.i.i.i.i195, align 8
  %_M_weak_count.i.i.i.i220 = getelementptr inbounds %"class.std::_Sp_counted_base", ptr %ref.tmp15.val, i64 0, i32 2
  store i32 0, ptr %_M_weak_count.i.i.i.i220, align 4
  %vtable.i.i.i.i221 = load ptr, ptr %ref.tmp15.val, align 8
  %vfn.i.i.i.i222 = getelementptr inbounds ptr, ptr %vtable.i.i.i.i221, i64 2
  %45 = load ptr, ptr %vfn.i.i.i.i222, align 8
  call void %45(ptr noundef nonnull align 8 dereferenceable(16) %ref.tmp15.val) #17
  br label %if.end8.sink.split.i.i.i.i214

if.end.i.i.i.i197:                                ; preds = %if.then.i.i.i194
  %46 = load i8, ptr @__libc_single_threaded, align 1
  %tobool.i.i.not.i.i.i.i198 = icmp eq i8 %46, 0
  br i1 %tobool.i.i.not.i.i.i.i198, label %if.else.i.i.i.i.i218, label %if.then.i.i.i.i.i199

if.then.i.i.i.i.i199:                             ; preds = %if.end.i.i.i.i197
  %add.i.i.i.i.i200 = add nsw i32 %44, -1
  store i32 %add.i.i.i.i.i200, ptr %_M_use_count.i.i.i.i195, align 4
  br label %_ZN9__gnu_cxx27__exchange_and_add_dispatchEPii.exit.i.i.i.i201

if.else.i.i.i.i.i218:                             ; preds = %if.end.i.i.i.i197
  %47 = atomicrmw volatile add ptr %_M_use_count.i.i.i.i195, i32 -1 acq_rel, align 4
  br label %_ZN9__gnu_cxx27__exchange_and_add_dispatchEPii.exit.i.i.i.i201

_ZN9__gnu_cxx27__exchange_and_add_dispatchEPii.exit.i.i.i.i201: ; preds = %if.else.i.i.i.i.i218, %if.then.i.i.i.i.i199
  %retval.i.0.i.i.i.i202 = phi i32 [ %44, %if.then.i.i.i.i.i199 ], [ %47, %if.else.i.i.i.i.i218 ]
  %cmp6.i.i.i.i203 = icmp eq i32 %retval.i.0.i.i.i.i202, 1
  br i1 %cmp6.i.i.i.i203, label %if.then7.i.i.i.i204, label %if.then.i.i.i225

if.then7.i.i.i.i204:                              ; preds = %_ZN9__gnu_cxx27__exchange_and_add_dispatchEPii.exit.i.i.i.i201
  %vtable.i.i.i.i.i.i205 = load ptr, ptr %ref.tmp15.val, align 8
  %vfn.i.i.i.i.i.i206 = getelementptr inbounds ptr, ptr %vtable.i.i.i.i.i.i205, i64 2
  %48 = load ptr, ptr %vfn.i.i.i.i.i.i206, align 8
  call void %48(ptr noundef nonnull align 8 dereferenceable(16) %ref.tmp15.val) #17
  %_M_weak_count.i.i.i.i.i.i207 = getelementptr inbounds %"class.std::_Sp_counted_base", ptr %ref.tmp15.val, i64 0, i32 2
  %49 = load i8, ptr @__libc_single_threaded, align 1
  %tobool.i.i.not.i.i.i.i.i.i208 = icmp eq i8 %49, 0
  br i1 %tobool.i.i.not.i.i.i.i.i.i208, label %if.else.i.i.i.i.i.i.i217, label %if.then.i.i.i.i.i.i.i209

if.then.i.i.i.i.i.i.i209:                         ; preds = %if.then7.i.i.i.i204
  %50 = load i32, ptr %_M_weak_count.i.i.i.i.i.i207, align 4
  %add.i.i.i.i.i.i.i210 = add nsw i32 %50, -1
  store i32 %add.i.i.i.i.i.i.i210, ptr %_M_weak_count.i.i.i.i.i.i207, align 4
  br label %_ZN9__gnu_cxx27__exchange_and_add_dispatchEPii.exit.i.i.i.i.i.i211

if.else.i.i.i.i.i.i.i217:                         ; preds = %if.then7.i.i.i.i204
  %51 = atomicrmw volatile add ptr %_M_weak_count.i.i.i.i.i.i207, i32 -1 acq_rel, align 4
  br label %_ZN9__gnu_cxx27__exchange_and_add_dispatchEPii.exit.i.i.i.i.i.i211

_ZN9__gnu_cxx27__exchange_and_add_dispatchEPii.exit.i.i.i.i.i.i211: ; preds = %if.else.i.i.i.i.i.i.i217, %if.then.i.i.i.i.i.i.i209
  %retval.i.0.i.i.i.i.i.i212 = phi i32 [ %50, %if.then.i.i.i.i.i.i.i209 ], [ %51, %if.else.i.i.i.i.i.i.i217 ]
  %cmp.i.i.i.i.i.i213 = icmp eq i32 %retval.i.0.i.i.i.i.i.i212, 1
  br i1 %cmp.i.i.i.i.i.i213, label %if.end8.sink.split.i.i.i.i214, label %if.then.i.i.i225

if.end8.sink.split.i.i.i.i214:                    ; preds = %_ZN9__gnu_cxx27__exchange_and_add_dispatchEPii.exit.i.i.i.i.i.i211, %if.then.i.i.i.i219
  %vtable2.i.i.i.i.i.i215 = load ptr, ptr %ref.tmp15.val, align 8
  %vfn3.i.i.i.i.i.i216 = getelementptr inbounds ptr, ptr %vtable2.i.i.i.i.i.i215, i64 3
  %52 = load ptr, ptr %vfn3.i.i.i.i.i.i216, align 8
  call void %52(ptr noundef nonnull align 8 dereferenceable(16) %ref.tmp15.val) #17
  br label %if.then.i.i.i225

if.then.i.i.i225:                                 ; preds = %if.end8.sink.split.i.i.i.i214, %_ZN9__gnu_cxx27__exchange_and_add_dispatchEPii.exit.i.i.i.i.i.i211, %_ZN9__gnu_cxx27__exchange_and_add_dispatchEPii.exit.i.i.i.i201, %_ZNSt10shared_ptrIN8facebook5velox9functions9prestosql12_GLOBAL__N_17MatcherEED2Ev.exit192
  %53 = load atomic i64, ptr %_M_use_count.i.i.i.i.i.i.i70 acquire, align 8
  %cmp.i.i.i.i227 = icmp eq i64 %53, 4294967297
  %54 = trunc i64 %53 to i32
  br i1 %cmp.i.i.i.i227, label %if.then.i.i.i.i250, label %if.end.i.i.i.i228

if.then.i.i.i.i250:                               ; preds = %if.then.i.i.i225
  store i32 0, ptr %_M_use_count.i.i.i.i.i.i.i70, align 8
  store i32 0, ptr %_M_weak_count.i.i.i.i.i.i.i71, align 4
  %vtable.i.i.i.i252 = load ptr, ptr %call5.i.i.i5.i.i.i.i.i76, align 8
  %vfn.i.i.i.i253 = getelementptr inbounds ptr, ptr %vtable.i.i.i.i252, i64 2
  %55 = load ptr, ptr %vfn.i.i.i.i253, align 8
  call void %55(ptr noundef nonnull align 8 dereferenceable(16) %call5.i.i.i5.i.i.i.i.i76) #17
  br label %if.end8.sink.split.i.i.i.i245

if.end.i.i.i.i228:                                ; preds = %if.then.i.i.i225
  %56 = load i8, ptr @__libc_single_threaded, align 1
  %tobool.i.i.not.i.i.i.i229 = icmp eq i8 %56, 0
  br i1 %tobool.i.i.not.i.i.i.i229, label %if.else.i.i.i.i.i249, label %if.then.i.i.i.i.i230

if.then.i.i.i.i.i230:                             ; preds = %if.end.i.i.i.i228
  %add.i.i.i.i.i231 = add nsw i32 %54, -1
  store i32 %add.i.i.i.i.i231, ptr %_M_use_count.i.i.i.i.i.i.i70, align 4
  br label %_ZN9__gnu_cxx27__exchange_and_add_dispatchEPii.exit.i.i.i.i232

if.else.i.i.i.i.i249:                             ; preds = %if.end.i.i.i.i228
  %57 = atomicrmw volatile add ptr %_M_use_count.i.i.i.i.i.i.i70, i32 -1 acq_rel, align 4
  br label %_ZN9__gnu_cxx27__exchange_and_add_dispatchEPii.exit.i.i.i.i232

_ZN9__gnu_cxx27__exchange_and_add_dispatchEPii.exit.i.i.i.i232: ; preds = %if.else.i.i.i.i.i249, %if.then.i.i.i.i.i230
  %retval.i.0.i.i.i.i233 = phi i32 [ %54, %if.then.i.i.i.i.i230 ], [ %57, %if.else.i.i.i.i.i249 ]
  %cmp6.i.i.i.i234 = icmp eq i32 %retval.i.0.i.i.i.i233, 1
  br i1 %cmp6.i.i.i.i234, label %if.then7.i.i.i.i235, label %_ZNSt10shared_ptrIN8facebook5velox9functions9prestosql12_GLOBAL__N_17MatcherEED2Ev.exit254

if.then7.i.i.i.i235:                              ; preds = %_ZN9__gnu_cxx27__exchange_and_add_dispatchEPii.exit.i.i.i.i232
  %vtable.i.i.i.i.i.i236 = load ptr, ptr %call5.i.i.i5.i.i.i.i.i76, align 8
  %vfn.i.i.i.i.i.i237 = getelementptr inbounds ptr, ptr %vtable.i.i.i.i.i.i236, i64 2
  %58 = load ptr, ptr %vfn.i.i.i.i.i.i237, align 8
  call void %58(ptr noundef nonnull align 8 dereferenceable(16) %call5.i.i.i5.i.i.i.i.i76) #17
  %59 = load i8, ptr @__libc_single_threaded, align 1
  %tobool.i.i.not.i.i.i.i.i.i239 = icmp eq i8 %59, 0
  br i1 %tobool.i.i.not.i.i.i.i.i.i239, label %if.else.i.i.i.i.i.i.i248, label %if.then.i.i.i.i.i.i.i240

if.then.i.i.i.i.i.i.i240:                         ; preds = %if.then7.i.i.i.i235
  %60 = load i32, ptr %_M_weak_count.i.i.i.i.i.i.i71, align 4
  %add.i.i.i.i.i.i.i241 = add nsw i32 %60, -1
  store i32 %add.i.i.i.i.i.i.i241, ptr %_M_weak_count.i.i.i.i.i.i.i71, align 4
  br label %_ZN9__gnu_cxx27__exchange_and_add_dispatchEPii.exit.i.i.i.i.i.i242

if.else.i.i.i.i.i.i.i248:                         ; preds = %if.then7.i.i.i.i235
  %61 = atomicrmw volatile add ptr %_M_weak_count.i.i.i.i.i.i.i71, i32 -1 acq_rel, align 4
  br label %_ZN9__gnu_cxx27__exchange_and_add_dispatchEPii.exit.i.i.i.i.i.i242

_ZN9__gnu_cxx27__exchange_and_add_dispatchEPii.exit.i.i.i.i.i.i242: ; preds = %if.else.i.i.i.i.i.i.i248, %if.then.i.i.i.i.i.i.i240
  %retval.i.0.i.i.i.i.i.i243 = phi i32 [ %60, %if.then.i.i.i.i.i.i.i240 ], [ %61, %if.else.i.i.i.i.i.i.i248 ]
  %cmp.i.i.i.i.i.i244 = icmp eq i32 %retval.i.0.i.i.i.i.i.i243, 1
  br i1 %cmp.i.i.i.i.i.i244, label %if.end8.sink.split.i.i.i.i245, label %_ZNSt10shared_ptrIN8facebook5velox9functions9prestosql12_GLOBAL__N_17MatcherEED2Ev.exit254

if.end8.sink.split.i.i.i.i245:                    ; preds = %_ZN9__gnu_cxx27__exchange_and_add_dispatchEPii.exit.i.i.i.i.i.i242, %if.then.i.i.i.i250
  %vtable2.i.i.i.i.i.i246 = load ptr, ptr %call5.i.i.i5.i.i.i.i.i76, align 8
  %vfn3.i.i.i.i.i.i247 = getelementptr inbounds ptr, ptr %vtable2.i.i.i.i.i.i246, i64 3
  %62 = load ptr, ptr %vfn3.i.i.i.i.i.i247, align 8
  call void %62(ptr noundef nonnull align 8 dereferenceable(16) %call5.i.i.i5.i.i.i.i.i76) #17
  br label %_ZNSt10shared_ptrIN8facebook5velox9functions9prestosql12_GLOBAL__N_17MatcherEED2Ev.exit254

_ZNSt10shared_ptrIN8facebook5velox9functions9prestosql12_GLOBAL__N_17MatcherEED2Ev.exit254: ; preds = %_ZN9__gnu_cxx27__exchange_and_add_dispatchEPii.exit.i.i.i.i232, %_ZN9__gnu_cxx27__exchange_and_add_dispatchEPii.exit.i.i.i.i.i.i242, %if.end8.sink.split.i.i.i.i245
  %ref.tmp7.val = load ptr, ptr %_M_refcount.i.i.i68, align 8
  %cmp.not.i.i.i255 = icmp eq ptr %ref.tmp7.val, null
  br i1 %cmp.not.i.i.i255, label %_ZNSt10shared_ptrIN8facebook5velox9functions9prestosql12_GLOBAL__N_17MatcherEED2Ev.exit285, label %if.then.i.i.i256

if.then.i.i.i256:                                 ; preds = %_ZNSt10shared_ptrIN8facebook5velox9functions9prestosql12_GLOBAL__N_17MatcherEED2Ev.exit254
  %_M_use_count.i.i.i.i257 = getelementptr inbounds %"class.std::_Sp_counted_base", ptr %ref.tmp7.val, i64 0, i32 1
  %63 = load atomic i64, ptr %_M_use_count.i.i.i.i257 acquire, align 8
  %cmp.i.i.i.i258 = icmp eq i64 %63, 4294967297
  %64 = trunc i64 %63 to i32
  br i1 %cmp.i.i.i.i258, label %if.then.i.i.i.i281, label %if.end.i.i.i.i259

if.then.i.i.i.i281:                               ; preds = %if.then.i.i.i256
  store i32 0, ptr %_M_use_count.i.i.i.i257, align 8
  %_M_weak_count.i.i.i.i282 = getelementptr inbounds %"class.std::_Sp_counted_base", ptr %ref.tmp7.val, i64 0, i32 2
  store i32 0, ptr %_M_weak_count.i.i.i.i282, align 4
  %vtable.i.i.i.i283 = load ptr, ptr %ref.tmp7.val, align 8
  %vfn.i.i.i.i284 = getelementptr inbounds ptr, ptr %vtable.i.i.i.i283, i64 2
  %65 = load ptr, ptr %vfn.i.i.i.i284, align 8
  call void %65(ptr noundef nonnull align 8 dereferenceable(16) %ref.tmp7.val) #17
  br label %if.end8.sink.split.i.i.i.i276

if.end.i.i.i.i259:                                ; preds = %if.then.i.i.i256
  %66 = load i8, ptr @__libc_single_threaded, align 1
  %tobool.i.i.not.i.i.i.i260 = icmp eq i8 %66, 0
  br i1 %tobool.i.i.not.i.i.i.i260, label %if.else.i.i.i.i.i280, label %if.then.i.i.i.i.i261

if.then.i.i.i.i.i261:                             ; preds = %if.end.i.i.i.i259
  %add.i.i.i.i.i262 = add nsw i32 %64, -1
  store i32 %add.i.i.i.i.i262, ptr %_M_use_count.i.i.i.i257, align 4
  br label %_ZN9__gnu_cxx27__exchange_and_add_dispatchEPii.exit.i.i.i.i263

if.else.i.i.i.i.i280:                             ; preds = %if.end.i.i.i.i259
  %67 = atomicrmw volatile add ptr %_M_use_count.i.i.i.i257, i32 -1 acq_rel, align 4
  br label %_ZN9__gnu_cxx27__exchange_and_add_dispatchEPii.exit.i.i.i.i263

_ZN9__gnu_cxx27__exchange_and_add_dispatchEPii.exit.i.i.i.i263: ; preds = %if.else.i.i.i.i.i280, %if.then.i.i.i.i.i261
  %retval.i.0.i.i.i.i264 = phi i32 [ %64, %if.then.i.i.i.i.i261 ], [ %67, %if.else.i.i.i.i.i280 ]
  %cmp6.i.i.i.i265 = icmp eq i32 %retval.i.0.i.i.i.i264, 1
  br i1 %cmp6.i.i.i.i265, label %if.then7.i.i.i.i266, label %_ZNSt10shared_ptrIN8facebook5velox9functions9prestosql12_GLOBAL__N_17MatcherEED2Ev.exit285

if.then7.i.i.i.i266:                              ; preds = %_ZN9__gnu_cxx27__exchange_and_add_dispatchEPii.exit.i.i.i.i263
  %vtable.i.i.i.i.i.i267 = load ptr, ptr %ref.tmp7.val, align 8
  %vfn.i.i.i.i.i.i268 = getelementptr inbounds ptr, ptr %vtable.i.i.i.i.i.i267, i64 2
  %68 = load ptr, ptr %vfn.i.i.i.i.i.i268, align 8
  call void %68(ptr noundef nonnull align 8 dereferenceable(16) %ref.tmp7.val) #17
  %_M_weak_count.i.i.i.i.i.i269 = getelementptr inbounds %"class.std::_Sp_counted_base", ptr %ref.tmp7.val, i64 0, i32 2
  %69 = load i8, ptr @__libc_single_threaded, align 1
  %tobool.i.i.not.i.i.i.i.i.i270 = icmp eq i8 %69, 0
  br i1 %tobool.i.i.not.i.i.i.i.i.i270, label %if.else.i.i.i.i.i.i.i279, label %if.then.i.i.i.i.i.i.i271

if.then.i.i.i.i.i.i.i271:                         ; preds = %if.then7.i.i.i.i266
  %70 = load i32, ptr %_M_weak_count.i.i.i.i.i.i269, align 4
  %add.i.i.i.i.i.i.i272 = add nsw i32 %70, -1
  store i32 %add.i.i.i.i.i.i.i272, ptr %_M_weak_count.i.i.i.i.i.i269, align 4
  br label %_ZN9__gnu_cxx27__exchange_and_add_dispatchEPii.exit.i.i.i.i.i.i273

if.else.i.i.i.i.i.i.i279:                         ; preds = %if.then7.i.i.i.i266
  %71 = atomicrmw volatile add ptr %_M_weak_count.i.i.i.i.i.i269, i32 -1 acq_rel, align 4
  br label %_ZN9__gnu_cxx27__exchange_and_add_dispatchEPii.exit.i.i.i.i.i.i273

_ZN9__gnu_cxx27__exchange_and_add_dispatchEPii.exit.i.i.i.i.i.i273: ; preds = %if.else.i.i.i.i.i.i.i279, %if.then.i.i.i.i.i.i.i271
  %retval.i.0.i.i.i.i.i.i274 = phi i32 [ %70, %if.then.i.i.i.i.i.i.i271 ], [ %71, %if.else.i.i.i.i.i.i.i279 ]
  %cmp.i.i.i.i.i.i275 = icmp eq i32 %retval.i.0.i.i.i.i.i.i274, 1
  br i1 %cmp.i.i.i.i.i.i275, label %if.end8.sink.split.i.i.i.i276, label %_ZNSt10shared_ptrIN8facebook5velox9functions9prestosql12_GLOBAL__N_17MatcherEED2Ev.exit285

if.end8.sink.split.i.i.i.i276:                    ; preds = %_ZN9__gnu_cxx27__exchange_and_add_dispatchEPii.exit.i.i.i.i.i.i273, %if.then.i.i.i.i281
  %vtable2.i.i.i.i.i.i277 = load ptr, ptr %ref.tmp7.val, align 8
  %vfn3.i.i.i.i.i.i278 = getelementptr inbounds ptr, ptr %vtable2.i.i.i.i.i.i277, i64 3
  %72 = load ptr, ptr %vfn3.i.i.i.i.i.i278, align 8
  call void %72(ptr noundef nonnull align 8 dereferenceable(16) %ref.tmp7.val) #17
  br label %_ZNSt10shared_ptrIN8facebook5velox9functions9prestosql12_GLOBAL__N_17MatcherEED2Ev.exit285

_ZNSt10shared_ptrIN8facebook5velox9functions9prestosql12_GLOBAL__N_17MatcherEED2Ev.exit285: ; preds = %_ZNSt10shared_ptrIN8facebook5velox9functions9prestosql12_GLOBAL__N_17MatcherEED2Ev.exit254, %_ZN9__gnu_cxx27__exchange_and_add_dispatchEPii.exit.i.i.i.i263, %_ZN9__gnu_cxx27__exchange_and_add_dispatchEPii.exit.i.i.i.i.i.i273, %if.end8.sink.split.i.i.i.i276
  %ref.tmp.val = load ptr, ptr %1, align 8
  %cmp.not.i.i.i286 = icmp eq ptr %ref.tmp.val, null
  br i1 %cmp.not.i.i.i286, label %_ZNSt10shared_ptrIN8facebook5velox9functions9prestosql12_GLOBAL__N_17MatcherEED2Ev.exit316, label %if.then.i.i.i287

if.then.i.i.i287:                                 ; preds = %_ZNSt10shared_ptrIN8facebook5velox9functions9prestosql12_GLOBAL__N_17MatcherEED2Ev.exit285
  %_M_use_count.i.i.i.i288 = getelementptr inbounds %"class.std::_Sp_counted_base", ptr %ref.tmp.val, i64 0, i32 1
  %73 = load atomic i64, ptr %_M_use_count.i.i.i.i288 acquire, align 8
  %cmp.i.i.i.i289 = icmp eq i64 %73, 4294967297
  %74 = trunc i64 %73 to i32
  br i1 %cmp.i.i.i.i289, label %if.then.i.i.i.i312, label %if.end.i.i.i.i290

if.then.i.i.i.i312:                               ; preds = %if.then.i.i.i287
  store i32 0, ptr %_M_use_count.i.i.i.i288, align 8
  %_M_weak_count.i.i.i.i313 = getelementptr inbounds %"class.std::_Sp_counted_base", ptr %ref.tmp.val, i64 0, i32 2
  store i32 0, ptr %_M_weak_count.i.i.i.i313, align 4
  %vtable.i.i.i.i314 = load ptr, ptr %ref.tmp.val, align 8
  %vfn.i.i.i.i315 = getelementptr inbounds ptr, ptr %vtable.i.i.i.i314, i64 2
  %75 = load ptr, ptr %vfn.i.i.i.i315, align 8
  call void %75(ptr noundef nonnull align 8 dereferenceable(16) %ref.tmp.val) #17
  br label %if.end8.sink.split.i.i.i.i307

if.end.i.i.i.i290:                                ; preds = %if.then.i.i.i287
  %76 = load i8, ptr @__libc_single_threaded, align 1
  %tobool.i.i.not.i.i.i.i291 = icmp eq i8 %76, 0
  br i1 %tobool.i.i.not.i.i.i.i291, label %if.else.i.i.i.i.i311, label %if.then.i.i.i.i.i292

if.then.i.i.i.i.i292:                             ; preds = %if.end.i.i.i.i290
  %add.i.i.i.i.i293 = add nsw i32 %74, -1
  store i32 %add.i.i.i.i.i293, ptr %_M_use_count.i.i.i.i288, align 4
  br label %_ZN9__gnu_cxx27__exchange_and_add_dispatchEPii.exit.i.i.i.i294

if.else.i.i.i.i.i311:                             ; preds = %if.end.i.i.i.i290
  %77 = atomicrmw volatile add ptr %_M_use_count.i.i.i.i288, i32 -1 acq_rel, align 4
  br label %_ZN9__gnu_cxx27__exchange_and_add_dispatchEPii.exit.i.i.i.i294

_ZN9__gnu_cxx27__exchange_and_add_dispatchEPii.exit.i.i.i.i294: ; preds = %if.else.i.i.i.i.i311, %if.then.i.i.i.i.i292
  %retval.i.0.i.i.i.i295 = phi i32 [ %74, %if.then.i.i.i.i.i292 ], [ %77, %if.else.i.i.i.i.i311 ]
  %cmp6.i.i.i.i296 = icmp eq i32 %retval.i.0.i.i.i.i295, 1
  br i1 %cmp6.i.i.i.i296, label %if.then7.i.i.i.i297, label %_ZNSt10shared_ptrIN8facebook5velox9functions9prestosql12_GLOBAL__N_17MatcherEED2Ev.exit316

if.then7.i.i.i.i297:                              ; preds = %_ZN9__gnu_cxx27__exchange_and_add_dispatchEPii.exit.i.i.i.i294
  %vtable.i.i.i.i.i.i298 = load ptr, ptr %ref.tmp.val, align 8
  %vfn.i.i.i.i.i.i299 = getelementptr inbounds ptr, ptr %vtable.i.i.i.i.i.i298, i64 2
  %78 = load ptr, ptr %vfn.i.i.i.i.i.i299, align 8
  call void %78(ptr noundef nonnull align 8 dereferenceable(16) %ref.tmp.val) #17
  %_M_weak_count.i.i.i.i.i.i300 = getelementptr inbounds %"class.std::_Sp_counted_base", ptr %ref.tmp.val, i64 0, i32 2
  %79 = load i8, ptr @__libc_single_threaded, align 1
  %tobool.i.i.not.i.i.i.i.i.i301 = icmp eq i8 %79, 0
  br i1 %tobool.i.i.not.i.i.i.i.i.i301, label %if.else.i.i.i.i.i.i.i310, label %if.then.i.i.i.i.i.i.i302

if.then.i.i.i.i.i.i.i302:                         ; preds = %if.then7.i.i.i.i297
  %80 = load i32, ptr %_M_weak_count.i.i.i.i.i.i300, align 4
  %add.i.i.i.i.i.i.i303 = add nsw i32 %80, -1
  store i32 %add.i.i.i.i.i.i.i303, ptr %_M_weak_count.i.i.i.i.i.i300, align 4
  br label %_ZN9__gnu_cxx27__exchange_and_add_dispatchEPii.exit.i.i.i.i.i.i304

if.else.i.i.i.i.i.i.i310:                         ; preds = %if.then7.i.i.i.i297
  %81 = atomicrmw volatile add ptr %_M_weak_count.i.i.i.i.i.i300, i32 -1 acq_rel, align 4
  br label %_ZN9__gnu_cxx27__exchange_and_add_dispatchEPii.exit.i.i.i.i.i.i304

_ZN9__gnu_cxx27__exchange_and_add_dispatchEPii.exit.i.i.i.i.i.i304: ; preds = %if.else.i.i.i.i.i.i.i310, %if.then.i.i.i.i.i.i.i302
  %retval.i.0.i.i.i.i.i.i305 = phi i32 [ %80, %if.then.i.i.i.i.i.i.i302 ], [ %81, %if.else.i.i.i.i.i.i.i310 ]
  %cmp.i.i.i.i.i.i306 = icmp eq i32 %retval.i.0.i.i.i.i.i.i305, 1
  br i1 %cmp.i.i.i.i.i.i306, label %if.end8.sink.split.i.i.i.i307, label %_ZNSt10shared_ptrIN8facebook5velox9functions9prestosql12_GLOBAL__N_17MatcherEED2Ev.exit316

if.end8.sink.split.i.i.i.i307:                    ; preds = %_ZN9__gnu_cxx27__exchange_and_add_dispatchEPii.exit.i.i.i.i.i.i304, %if.then.i.i.i.i312
  %vtable2.i.i.i.i.i.i308 = load ptr, ptr %ref.tmp.val, align 8
  %vfn3.i.i.i.i.i.i309 = getelementptr inbounds ptr, ptr %vtable2.i.i.i.i.i.i308, i64 3
  %82 = load ptr, ptr %vfn3.i.i.i.i.i.i309, align 8
  call void %82(ptr noundef nonnull align 8 dereferenceable(16) %ref.tmp.val) #17
  br label %_ZNSt10shared_ptrIN8facebook5velox9functions9prestosql12_GLOBAL__N_17MatcherEED2Ev.exit316

_ZNSt10shared_ptrIN8facebook5velox9functions9prestosql12_GLOBAL__N_17MatcherEED2Ev.exit316: ; preds = %_ZNSt10shared_ptrIN8facebook5velox9functions9prestosql12_GLOBAL__N_17MatcherEED2Ev.exit285, %_ZN9__gnu_cxx27__exchange_and_add_dispatchEPii.exit.i.i.i.i294, %_ZN9__gnu_cxx27__exchange_and_add_dispatchEPii.exit.i.i.i.i.i.i304, %if.end8.sink.split.i.i.i.i307
  %ref.tmp2.val = load ptr, ptr %_M_refcount.i.i.i62, align 8
  %cmp.not.i.i.i317 = icmp eq ptr %ref.tmp2.val, null
  br i1 %cmp.not.i.i.i317, label %if.then.i.i.i349, label %if.then.i.i.i318

if.then.i.i.i318:                                 ; preds = %_ZNSt10shared_ptrIN8facebook5velox9functions9prestosql12_GLOBAL__N_17MatcherEED2Ev.exit316
  %_M_use_count.i.i.i.i319 = getelementptr inbounds %"class.std::_Sp_counted_base", ptr %ref.tmp2.val, i64 0, i32 1
  %83 = load atomic i64, ptr %_M_use_count.i.i.i.i319 acquire, align 8
  %cmp.i.i.i.i320 = icmp eq i64 %83, 4294967297
  %84 = trunc i64 %83 to i32
  br i1 %cmp.i.i.i.i320, label %if.then.i.i.i.i343, label %if.end.i.i.i.i321

if.then.i.i.i.i343:                               ; preds = %if.then.i.i.i318
  store i32 0, ptr %_M_use_count.i.i.i.i319, align 8
  %_M_weak_count.i.i.i.i344 = getelementptr inbounds %"class.std::_Sp_counted_base", ptr %ref.tmp2.val, i64 0, i32 2
  store i32 0, ptr %_M_weak_count.i.i.i.i344, align 4
  %vtable.i.i.i.i345 = load ptr, ptr %ref.tmp2.val, align 8
  %vfn.i.i.i.i346 = getelementptr inbounds ptr, ptr %vtable.i.i.i.i345, i64 2
  %85 = load ptr, ptr %vfn.i.i.i.i346, align 8
  call void %85(ptr noundef nonnull align 8 dereferenceable(16) %ref.tmp2.val) #17
  br label %if.end8.sink.split.i.i.i.i338

if.end.i.i.i.i321:                                ; preds = %if.then.i.i.i318
  %86 = load i8, ptr @__libc_single_threaded, align 1
  %tobool.i.i.not.i.i.i.i322 = icmp eq i8 %86, 0
  br i1 %tobool.i.i.not.i.i.i.i322, label %if.else.i.i.i.i.i342, label %if.then.i.i.i.i.i323

if.then.i.i.i.i.i323:                             ; preds = %if.end.i.i.i.i321
  %add.i.i.i.i.i324 = add nsw i32 %84, -1
  store i32 %add.i.i.i.i.i324, ptr %_M_use_count.i.i.i.i319, align 4
  br label %_ZN9__gnu_cxx27__exchange_and_add_dispatchEPii.exit.i.i.i.i325

if.else.i.i.i.i.i342:                             ; preds = %if.end.i.i.i.i321
  %87 = atomicrmw volatile add ptr %_M_use_count.i.i.i.i319, i32 -1 acq_rel, align 4
  br label %_ZN9__gnu_cxx27__exchange_and_add_dispatchEPii.exit.i.i.i.i325

_ZN9__gnu_cxx27__exchange_and_add_dispatchEPii.exit.i.i.i.i325: ; preds = %if.else.i.i.i.i.i342, %if.then.i.i.i.i.i323
  %retval.i.0.i.i.i.i326 = phi i32 [ %84, %if.then.i.i.i.i.i323 ], [ %87, %if.else.i.i.i.i.i342 ]
  %cmp6.i.i.i.i327 = icmp eq i32 %retval.i.0.i.i.i.i326, 1
  br i1 %cmp6.i.i.i.i327, label %if.then7.i.i.i.i328, label %if.then.i.i.i349

if.then7.i.i.i.i328:                              ; preds = %_ZN9__gnu_cxx27__exchange_and_add_dispatchEPii.exit.i.i.i.i325
  %vtable.i.i.i.i.i.i329 = load ptr, ptr %ref.tmp2.val, align 8
  %vfn.i.i.i.i.i.i330 = getelementptr inbounds ptr, ptr %vtable.i.i.i.i.i.i329, i64 2
  %88 = load ptr, ptr %vfn.i.i.i.i.i.i330, align 8
  call void %88(ptr noundef nonnull align 8 dereferenceable(16) %ref.tmp2.val) #17
  %_M_weak_count.i.i.i.i.i.i331 = getelementptr inbounds %"class.std::_Sp_counted_base", ptr %ref.tmp2.val, i64 0, i32 2
  %89 = load i8, ptr @__libc_single_threaded, align 1
  %tobool.i.i.not.i.i.i.i.i.i332 = icmp eq i8 %89, 0
  br i1 %tobool.i.i.not.i.i.i.i.i.i332, label %if.else.i.i.i.i.i.i.i341, label %if.then.i.i.i.i.i.i.i333

if.then.i.i.i.i.i.i.i333:                         ; preds = %if.then7.i.i.i.i328
  %90 = load i32, ptr %_M_weak_count.i.i.i.i.i.i331, align 4
  %add.i.i.i.i.i.i.i334 = add nsw i32 %90, -1
  store i32 %add.i.i.i.i.i.i.i334, ptr %_M_weak_count.i.i.i.i.i.i331, align 4
  br label %_ZN9__gnu_cxx27__exchange_and_add_dispatchEPii.exit.i.i.i.i.i.i335

if.else.i.i.i.i.i.i.i341:                         ; preds = %if.then7.i.i.i.i328
  %91 = atomicrmw volatile add ptr %_M_weak_count.i.i.i.i.i.i331, i32 -1 acq_rel, align 4
  br label %_ZN9__gnu_cxx27__exchange_and_add_dispatchEPii.exit.i.i.i.i.i.i335

_ZN9__gnu_cxx27__exchange_and_add_dispatchEPii.exit.i.i.i.i.i.i335: ; preds = %if.else.i.i.i.i.i.i.i341, %if.then.i.i.i.i.i.i.i333
  %retval.i.0.i.i.i.i.i.i336 = phi i32 [ %90, %if.then.i.i.i.i.i.i.i333 ], [ %91, %if.else.i.i.i.i.i.i.i341 ]
  %cmp.i.i.i.i.i.i337 = icmp eq i32 %retval.i.0.i.i.i.i.i.i336, 1
  br i1 %cmp.i.i.i.i.i.i337, label %if.end8.sink.split.i.i.i.i338, label %if.then.i.i.i349

if.end8.sink.split.i.i.i.i338:                    ; preds = %_ZN9__gnu_cxx27__exchange_and_add_dispatchEPii.exit.i.i.i.i.i.i335, %if.then.i.i.i.i343
  %vtable2.i.i.i.i.i.i339 = load ptr, ptr %ref.tmp2.val, align 8
  %vfn3.i.i.i.i.i.i340 = getelementptr inbounds ptr, ptr %vtable2.i.i.i.i.i.i339, i64 3
  %92 = load ptr, ptr %vfn3.i.i.i.i.i.i340, align 8
  call void %92(ptr noundef nonnull align 8 dereferenceable(16) %ref.tmp2.val) #17
  br label %if.then.i.i.i349

if.then.i.i.i349:                                 ; preds = %if.end8.sink.split.i.i.i.i338, %_ZN9__gnu_cxx27__exchange_and_add_dispatchEPii.exit.i.i.i.i.i.i335, %_ZN9__gnu_cxx27__exchange_and_add_dispatchEPii.exit.i.i.i.i325, %_ZNSt10shared_ptrIN8facebook5velox9functions9prestosql12_GLOBAL__N_17MatcherEED2Ev.exit316
  %93 = load atomic i64, ptr %_M_use_count.i.i.i.i.i.i.i acquire, align 8
  %cmp.i.i.i.i351 = icmp eq i64 %93, 4294967297
  %94 = trunc i64 %93 to i32
  br i1 %cmp.i.i.i.i351, label %if.then.i.i.i.i374, label %if.end.i.i.i.i352

if.then.i.i.i.i374:                               ; preds = %if.then.i.i.i349
  store i32 0, ptr %_M_use_count.i.i.i.i.i.i.i, align 8
  store i32 0, ptr %_M_weak_count.i.i.i.i.i.i.i, align 4
  %vtable.i.i.i.i376 = load ptr, ptr %call5.i.i.i5.i.i.i.i.i56, align 8
  %vfn.i.i.i.i377 = getelementptr inbounds ptr, ptr %vtable.i.i.i.i376, i64 2
  %95 = load ptr, ptr %vfn.i.i.i.i377, align 8
  call void %95(ptr noundef nonnull align 8 dereferenceable(16) %call5.i.i.i5.i.i.i.i.i56) #17
  br label %if.end8.sink.split.i.i.i.i369

if.end.i.i.i.i352:                                ; preds = %if.then.i.i.i349
  %96 = load i8, ptr @__libc_single_threaded, align 1
  %tobool.i.i.not.i.i.i.i353 = icmp eq i8 %96, 0
  br i1 %tobool.i.i.not.i.i.i.i353, label %if.else.i.i.i.i.i373, label %if.then.i.i.i.i.i354

if.then.i.i.i.i.i354:                             ; preds = %if.end.i.i.i.i352
  %add.i.i.i.i.i355 = add nsw i32 %94, -1
  store i32 %add.i.i.i.i.i355, ptr %_M_use_count.i.i.i.i.i.i.i, align 4
  br label %_ZN9__gnu_cxx27__exchange_and_add_dispatchEPii.exit.i.i.i.i356

if.else.i.i.i.i.i373:                             ; preds = %if.end.i.i.i.i352
  %97 = atomicrmw volatile add ptr %_M_use_count.i.i.i.i.i.i.i, i32 -1 acq_rel, align 4
  br label %_ZN9__gnu_cxx27__exchange_and_add_dispatchEPii.exit.i.i.i.i356

_ZN9__gnu_cxx27__exchange_and_add_dispatchEPii.exit.i.i.i.i356: ; preds = %if.else.i.i.i.i.i373, %if.then.i.i.i.i.i354
  %retval.i.0.i.i.i.i357 = phi i32 [ %94, %if.then.i.i.i.i.i354 ], [ %97, %if.else.i.i.i.i.i373 ]
  %cmp6.i.i.i.i358 = icmp eq i32 %retval.i.0.i.i.i.i357, 1
  br i1 %cmp6.i.i.i.i358, label %if.then7.i.i.i.i359, label %_ZNSt10shared_ptrIN8facebook5velox9functions9prestosql12_GLOBAL__N_17MatcherEED2Ev.exit378

if.then7.i.i.i.i359:                              ; preds = %_ZN9__gnu_cxx27__exchange_and_add_dispatchEPii.exit.i.i.i.i356
  %vtable.i.i.i.i.i.i360 = load ptr, ptr %call5.i.i.i5.i.i.i.i.i56, align 8
  %vfn.i.i.i.i.i.i361 = getelementptr inbounds ptr, ptr %vtable.i.i.i.i.i.i360, i64 2
  %98 = load ptr, ptr %vfn.i.i.i.i.i.i361, align 8
  call void %98(ptr noundef nonnull align 8 dereferenceable(16) %call5.i.i.i5.i.i.i.i.i56) #17
  %99 = load i8, ptr @__libc_single_threaded, align 1
  %tobool.i.i.not.i.i.i.i.i.i363 = icmp eq i8 %99, 0
  br i1 %tobool.i.i.not.i.i.i.i.i.i363, label %if.else.i.i.i.i.i.i.i372, label %if.then.i.i.i.i.i.i.i364

if.then.i.i.i.i.i.i.i364:                         ; preds = %if.then7.i.i.i.i359
  %100 = load i32, ptr %_M_weak_count.i.i.i.i.i.i.i, align 4
  %add.i.i.i.i.i.i.i365 = add nsw i32 %100, -1
  store i32 %add.i.i.i.i.i.i.i365, ptr %_M_weak_count.i.i.i.i.i.i.i, align 4
  br label %_ZN9__gnu_cxx27__exchange_and_add_dispatchEPii.exit.i.i.i.i.i.i366

if.else.i.i.i.i.i.i.i372:                         ; preds = %if.then7.i.i.i.i359
  %101 = atomicrmw volatile add ptr %_M_weak_count.i.i.i.i.i.i.i, i32 -1 acq_rel, align 4
  br label %_ZN9__gnu_cxx27__exchange_and_add_dispatchEPii.exit.i.i.i.i.i.i366

_ZN9__gnu_cxx27__exchange_and_add_dispatchEPii.exit.i.i.i.i.i.i366: ; preds = %if.else.i.i.i.i.i.i.i372, %if.then.i.i.i.i.i.i.i364
  %retval.i.0.i.i.i.i.i.i367 = phi i32 [ %100, %if.then.i.i.i.i.i.i.i364 ], [ %101, %if.else.i.i.i.i.i.i.i372 ]
  %cmp.i.i.i.i.i.i368 = icmp eq i32 %retval.i.0.i.i.i.i.i.i367, 1
  br i1 %cmp.i.i.i.i.i.i368, label %if.end8.sink.split.i.i.i.i369, label %_ZNSt10shared_ptrIN8facebook5velox9functions9prestosql12_GLOBAL__N_17MatcherEED2Ev.exit378

if.end8.sink.split.i.i.i.i369:                    ; preds = %_ZN9__gnu_cxx27__exchange_and_add_dispatchEPii.exit.i.i.i.i.i.i366, %if.then.i.i.i.i374
  %vtable2.i.i.i.i.i.i370 = load ptr, ptr %call5.i.i.i5.i.i.i.i.i56, align 8
  %vfn3.i.i.i.i.i.i371 = getelementptr inbounds ptr, ptr %vtable2.i.i.i.i.i.i370, i64 3
  %102 = load ptr, ptr %vfn3.i.i.i.i.i.i371, align 8
  call void %102(ptr noundef nonnull align 8 dereferenceable(16) %call5.i.i.i5.i.i.i.i.i56) #17
  br label %_ZNSt10shared_ptrIN8facebook5velox9functions9prestosql12_GLOBAL__N_17MatcherEED2Ev.exit378

_ZNSt10shared_ptrIN8facebook5velox9functions9prestosql12_GLOBAL__N_17MatcherEED2Ev.exit378: ; preds = %_ZN9__gnu_cxx27__exchange_and_add_dispatchEPii.exit.i.i.i.i356, %_ZN9__gnu_cxx27__exchange_and_add_dispatchEPii.exit.i.i.i.i.i.i366, %if.end8.sink.split.i.i.i.i369
  %matcher.val45 = load ptr, ptr %matcher, align 8
  %body_.i = getelementptr inbounds %"class.facebook::velox::core::LambdaTypedExpr", ptr %expr, i64 0, i32 2
  %vtable = load ptr, ptr %matcher.val45, align 8
  %103 = load ptr, ptr %vtable, align 8
  %call42 = invoke noundef zeroext i1 %103(ptr noundef nonnull align 8 dereferenceable(8) %matcher.val45, ptr noundef nonnull align 8 dereferenceable(16) %body_.i)
          to label %invoke.cont41 unwind label %lpad38

invoke.cont41:                                    ; preds = %_ZNSt10shared_ptrIN8facebook5velox9functions9prestosql12_GLOBAL__N_17MatcherEED2Ev.exit378
  br i1 %call42, label %if.end, label %if.then

if.then:                                          ; preds = %invoke.cont41
  %_M_engaged.i.i.i.i.i = getelementptr inbounds %"struct.std::_Optional_payload_base", ptr %agg.result, i64 0, i32 1
  store i8 0, ptr %_M_engaged.i.i.i.i.i, align 8
  br label %cleanup208

lpad:                                             ; preds = %entry
  %104 = landingpad { ptr, i32 }
          cleanup
  br label %ehcleanup211

lpad3:                                            ; preds = %invoke.cont
  %105 = landingpad { ptr, i32 }
          cleanup
  br label %ehcleanup37

lpad5:                                            ; preds = %invoke.cont4
  %106 = landingpad { ptr, i32 }
          cleanup
  br label %ehcleanup36

lpad8:                                            ; preds = %invoke.cont6
  %107 = landingpad { ptr, i32 }
          cleanup
  br label %ehcleanup35

lpad13:                                           ; preds = %invoke.cont9
  %108 = landingpad { ptr, i32 }
          cleanup
  br label %ehcleanup34

lpad16:                                           ; preds = %invoke.cont14
  %109 = landingpad { ptr, i32 }
          cleanup
  br label %ehcleanup33

lpad18:                                           ; preds = %invoke.cont17
  %110 = landingpad { ptr, i32 }
          cleanup
  br label %ehcleanup32

lpad21:                                           ; preds = %invoke.cont19
  %111 = landingpad { ptr, i32 }
          cleanup
  br label %ehcleanup31

lpad24:                                           ; preds = %invoke.cont22
  %112 = landingpad { ptr, i32 }
          cleanup
  br label %ehcleanup30

lpad26:                                           ; preds = %invoke.cont25
  %113 = landingpad { ptr, i32 }
          cleanup
  br label %ehcleanup

lpad28:                                           ; preds = %invoke.cont27
  %114 = landingpad { ptr, i32 }
          cleanup
  %115 = getelementptr inbounds i8, ptr %ref.tmp10, i64 8
  %ref.tmp10.val34 = load ptr, ptr %115, align 8
  call fastcc void @_ZNSt10shared_ptrIN8facebook5velox9functions9prestosql12_GLOBAL__N_17MatcherEED2Ev(ptr %ref.tmp10.val34) #17
  br label %ehcleanup

ehcleanup:                                        ; preds = %lpad28, %lpad26
  %.pn = phi { ptr, i32 } [ %114, %lpad28 ], [ %113, %lpad26 ]
  call fastcc void @_ZNSt10shared_ptrIN8facebook5velox9functions9prestosql12_GLOBAL__N_17MatcherEED2Ev(ptr nonnull %call5.i.i.i5.i.i.i.i.i98) #17
  br label %ehcleanup30

ehcleanup30:                                      ; preds = %ehcleanup, %lpad24
  %.pn.pn = phi { ptr, i32 } [ %.pn, %ehcleanup ], [ %112, %lpad24 ]
  call fastcc void @_ZNSt10shared_ptrIN8facebook5velox9functions9prestosql12_GLOBAL__N_17MatcherEED2Ev(ptr nonnull %call5.i.i.i5.i.i.i.i.i91) #17
  br label %ehcleanup31

ehcleanup31:                                      ; preds = %ehcleanup30, %lpad21
  %.pn.pn.pn = phi { ptr, i32 } [ %.pn.pn, %ehcleanup30 ], [ %111, %lpad21 ]
  %116 = getelementptr inbounds i8, ptr %ref.tmp11, i64 8
  %ref.tmp11.val37 = load ptr, ptr %116, align 8
  call fastcc void @_ZNSt10shared_ptrIN8facebook5velox9functions9prestosql12_GLOBAL__N_17MatcherEED2Ev(ptr %ref.tmp11.val37) #17
  br label %ehcleanup32

ehcleanup32:                                      ; preds = %ehcleanup31, %lpad18
  %.pn.pn.pn.pn = phi { ptr, i32 } [ %.pn.pn.pn, %ehcleanup31 ], [ %110, %lpad18 ]
  call fastcc void @_ZNSt10shared_ptrIN8facebook5velox9functions9prestosql12_GLOBAL__N_17MatcherEED2Ev(ptr nonnull %call5.i.i.i5.i.i.i.i.i84) #17
  br label %ehcleanup33

ehcleanup33:                                      ; preds = %ehcleanup32, %lpad16
  %.pn.pn.pn.pn.pn = phi { ptr, i32 } [ %.pn.pn.pn.pn, %ehcleanup32 ], [ %109, %lpad16 ]
  call fastcc void @_ZNSt10shared_ptrIN8facebook5velox9functions9prestosql12_GLOBAL__N_17MatcherEED2Ev(ptr nonnull %call5.i.i.i5.i.i.i.i.i76) #17
  br label %ehcleanup34

ehcleanup34:                                      ; preds = %ehcleanup33, %lpad13
  %.pn.pn.pn.pn.pn.pn = phi { ptr, i32 } [ %.pn.pn.pn.pn.pn, %ehcleanup33 ], [ %108, %lpad13 ]
  call fastcc void @_ZNSt10shared_ptrIN8facebook5velox9functions9prestosql12_GLOBAL__N_17MatcherEED2Ev(ptr nonnull %call5.i.i.i5.i.i.i.i.i69) #17
  br label %ehcleanup35

ehcleanup35:                                      ; preds = %ehcleanup34, %lpad8
  %.pn.pn.pn.pn.pn.pn.pn = phi { ptr, i32 } [ %.pn.pn.pn.pn.pn.pn, %ehcleanup34 ], [ %107, %lpad8 ]
  %117 = getelementptr inbounds i8, ptr %ref.tmp, i64 8
  %ref.tmp.val41 = load ptr, ptr %117, align 8
  call fastcc void @_ZNSt10shared_ptrIN8facebook5velox9functions9prestosql12_GLOBAL__N_17MatcherEED2Ev(ptr %ref.tmp.val41) #17
  br label %ehcleanup36

ehcleanup36:                                      ; preds = %ehcleanup35, %lpad5
  %.pn.pn.pn.pn.pn.pn.pn.pn = phi { ptr, i32 } [ %.pn.pn.pn.pn.pn.pn.pn, %ehcleanup35 ], [ %106, %lpad5 ]
  call fastcc void @_ZNSt10shared_ptrIN8facebook5velox9functions9prestosql12_GLOBAL__N_17MatcherEED2Ev(ptr nonnull %call5.i.i.i5.i.i.i.i.i63) #17
  br label %ehcleanup37

ehcleanup37:                                      ; preds = %ehcleanup36, %lpad3
  %.pn.pn.pn.pn.pn.pn.pn.pn.pn = phi { ptr, i32 } [ %.pn.pn.pn.pn.pn.pn.pn.pn, %ehcleanup36 ], [ %105, %lpad3 ]
  call fastcc void @_ZNSt10shared_ptrIN8facebook5velox9functions9prestosql12_GLOBAL__N_17MatcherEED2Ev(ptr nonnull %call5.i.i.i5.i.i.i.i.i56) #17
  br label %ehcleanup211

lpad38:                                           ; preds = %_ZNSt10shared_ptrIN8facebook5velox9functions9prestosql12_GLOBAL__N_17MatcherEED2Ev.exit378
  %118 = landingpad { ptr, i32 }
          cleanup
  br label %ehcleanup209

if.end:                                           ; preds = %invoke.cont41
  %119 = load ptr, ptr %a, align 8
  %120 = load ptr, ptr %b, align 8
  %cmp.i = icmp eq ptr %119, %120
  br i1 %cmp.i, label %if.then45, label %lor.lhs.false

lor.lhs.false:                                    ; preds = %if.end
  %121 = load ptr, ptr %c, align 8
  %122 = load ptr, ptr %d, align 8
  %cmp.i379 = icmp eq ptr %121, %122
  br i1 %cmp.i379, label %if.then45, label %if.end47

if.then45:                                        ; preds = %lor.lhs.false, %if.end
  %_M_engaged.i.i.i.i.i380 = getelementptr inbounds %"struct.std::_Optional_payload_base", ptr %agg.result, i64 0, i32 1
  store i8 0, ptr %_M_engaged.i.i.i.i.i380, align 8
  br label %cleanup208

if.end47:                                         ; preds = %lor.lhs.false
  %_M_single_bucket.i.i = getelementptr inbounds %"class.std::_Hashtable", ptr %inputMapping, i64 0, i32 5
  store ptr %_M_single_bucket.i.i, ptr %inputMapping, align 8
  %_M_bucket_count.i.i = getelementptr inbounds %"class.std::_Hashtable", ptr %inputMapping, i64 0, i32 1
  store i64 1, ptr %_M_bucket_count.i.i, align 8
  %_M_before_begin.i.i = getelementptr inbounds %"class.std::_Hashtable", ptr %inputMapping, i64 0, i32 2
  %_M_rehash_policy.i.i = getelementptr inbounds %"class.std::_Hashtable", ptr %inputMapping, i64 0, i32 4
  call void @llvm.memset.p0.i64(ptr noundef nonnull align 8 dereferenceable(16) %_M_before_begin.i.i, i8 0, i64 16, i1 false)
  store float 1.000000e+00, ptr %_M_rehash_policy.i.i, align 8
  %_M_next_resize.i.i.i = getelementptr inbounds %"class.std::_Hashtable", ptr %inputMapping, i64 0, i32 4, i32 1
  call void @llvm.memset.p0.i64(ptr noundef nonnull align 8 dereferenceable(16) %_M_next_resize.i.i.i, i8 0, i64 16, i1 false)
  %type_.i = getelementptr inbounds %"class.facebook::velox::core::ITypedExpr", ptr %119, i64 0, i32 1
  %name_.i381 = getelementptr inbounds %"class.facebook::velox::core::FieldAccessTypedExpr", ptr %120, i64 0, i32 1
  call void @llvm.lifetime.start.p0(i64 1, ptr nonnull %__a.i)
  store ptr null, ptr %ref.tmp52, align 8, !alias.scope !44
  %_M_refcount.i.i.i382 = getelementptr inbounds %"class.std::__shared_ptr.23", ptr %ref.tmp52, i64 0, i32 1
  invoke void @_ZNSt14__shared_countILN9__gnu_cxx12_Lock_policyE2EEC2IN8facebook5velox4core20FieldAccessTypedExprESaIvEJRKSt10shared_ptrIKNS5_4TypeEERKNSt7__cxx1112basic_stringIcSt11char_traitsIcESaIcEEEEEERPT_St20_Sp_alloc_shared_tagIT0_EDpOT1_(ptr noundef nonnull align 8 dereferenceable(8) %_M_refcount.i.i.i382, ptr noundef nonnull align 8 dereferenceable(8) %ref.tmp52, ptr nonnull %__a.i, ptr noundef nonnull align 8 dereferenceable(16) %type_.i, ptr noundef nonnull align 8 dereferenceable(32) %name_.i381)
          to label %invoke.cont59 unwind label %lpad49

invoke.cont59:                                    ; preds = %if.end47
  %name_.i = getelementptr inbounds %"class.facebook::velox::core::FieldAccessTypedExpr", ptr %119, i64 0, i32 1
  call void @llvm.lifetime.end.p0(i64 1, ptr nonnull %__a.i)
  %call.i.i383 = invoke { ptr, i8 } @_ZNSt10_HashtableINSt7__cxx1112basic_stringIcSt11char_traitsIcESaIcEEESt4pairIKS5_St10shared_ptrIKN8facebook5velox4core10ITypedExprEEESaISF_ENSt8__detail10_Select1stESt8equal_toIS5_ESt4hashIS5_ENSH_18_Mod_range_hashingENSH_20_Default_ranged_hashENSH_20_Prime_rehash_policyENSH_17_Hashtable_traitsILb1ELb0ELb1EEEE10_M_emplaceIJRS7_S8_INSB_20FieldAccessTypedExprEEEEES6_INSH_14_Node_iteratorISF_Lb0ELb1EEEbESt17integral_constantIbLb1EEDpOT_(ptr noundef nonnull align 8 dereferenceable(56) %inputMapping, ptr noundef nonnull align 8 dereferenceable(32) %name_.i, ptr noundef nonnull align 8 dereferenceable(16) %ref.tmp52)
          to label %invoke.cont61 unwind label %lpad60

invoke.cont61:                                    ; preds = %invoke.cont59
  %123 = load ptr, ptr %_M_refcount.i.i.i382, align 8
  %cmp.not.i.i.i384 = icmp eq ptr %123, null
  br i1 %cmp.not.i.i.i384, label %_ZNSt10shared_ptrIN8facebook5velox4core20FieldAccessTypedExprEED2Ev.exit, label %if.then.i.i.i385

if.then.i.i.i385:                                 ; preds = %invoke.cont61
  %_M_use_count.i.i.i.i386 = getelementptr inbounds %"class.std::_Sp_counted_base", ptr %123, i64 0, i32 1
  %124 = load atomic i64, ptr %_M_use_count.i.i.i.i386 acquire, align 8
  %cmp.i.i.i.i387 = icmp eq i64 %124, 4294967297
  %125 = trunc i64 %124 to i32
  br i1 %cmp.i.i.i.i387, label %if.then.i.i.i.i410, label %if.end.i.i.i.i388

if.then.i.i.i.i410:                               ; preds = %if.then.i.i.i385
  store i32 0, ptr %_M_use_count.i.i.i.i386, align 8
  %_M_weak_count.i.i.i.i411 = getelementptr inbounds %"class.std::_Sp_counted_base", ptr %123, i64 0, i32 2
  store i32 0, ptr %_M_weak_count.i.i.i.i411, align 4
  %vtable.i.i.i.i412 = load ptr, ptr %123, align 8
  %vfn.i.i.i.i413 = getelementptr inbounds ptr, ptr %vtable.i.i.i.i412, i64 2
  %126 = load ptr, ptr %vfn.i.i.i.i413, align 8
  call void %126(ptr noundef nonnull align 8 dereferenceable(16) %123) #17
  br label %if.end8.sink.split.i.i.i.i405

if.end.i.i.i.i388:                                ; preds = %if.then.i.i.i385
  %127 = load i8, ptr @__libc_single_threaded, align 1
  %tobool.i.i.not.i.i.i.i389 = icmp eq i8 %127, 0
  br i1 %tobool.i.i.not.i.i.i.i389, label %if.else.i.i.i.i.i409, label %if.then.i.i.i.i.i390

if.then.i.i.i.i.i390:                             ; preds = %if.end.i.i.i.i388
  %add.i.i.i.i.i391 = add nsw i32 %125, -1
  store i32 %add.i.i.i.i.i391, ptr %_M_use_count.i.i.i.i386, align 4
  br label %_ZN9__gnu_cxx27__exchange_and_add_dispatchEPii.exit.i.i.i.i392

if.else.i.i.i.i.i409:                             ; preds = %if.end.i.i.i.i388
  %128 = atomicrmw volatile add ptr %_M_use_count.i.i.i.i386, i32 -1 acq_rel, align 4
  br label %_ZN9__gnu_cxx27__exchange_and_add_dispatchEPii.exit.i.i.i.i392

_ZN9__gnu_cxx27__exchange_and_add_dispatchEPii.exit.i.i.i.i392: ; preds = %if.else.i.i.i.i.i409, %if.then.i.i.i.i.i390
  %retval.i.0.i.i.i.i393 = phi i32 [ %125, %if.then.i.i.i.i.i390 ], [ %128, %if.else.i.i.i.i.i409 ]
  %cmp6.i.i.i.i394 = icmp eq i32 %retval.i.0.i.i.i.i393, 1
  br i1 %cmp6.i.i.i.i394, label %if.then7.i.i.i.i395, label %_ZNSt10shared_ptrIN8facebook5velox4core20FieldAccessTypedExprEED2Ev.exit

if.then7.i.i.i.i395:                              ; preds = %_ZN9__gnu_cxx27__exchange_and_add_dispatchEPii.exit.i.i.i.i392
  %vtable.i.i.i.i.i.i396 = load ptr, ptr %123, align 8
  %vfn.i.i.i.i.i.i397 = getelementptr inbounds ptr, ptr %vtable.i.i.i.i.i.i396, i64 2
  %129 = load ptr, ptr %vfn.i.i.i.i.i.i397, align 8
  call void %129(ptr noundef nonnull align 8 dereferenceable(16) %123) #17
  %_M_weak_count.i.i.i.i.i.i398 = getelementptr inbounds %"class.std::_Sp_counted_base", ptr %123, i64 0, i32 2
  %130 = load i8, ptr @__libc_single_threaded, align 1
  %tobool.i.i.not.i.i.i.i.i.i399 = icmp eq i8 %130, 0
  br i1 %tobool.i.i.not.i.i.i.i.i.i399, label %if.else.i.i.i.i.i.i.i408, label %if.then.i.i.i.i.i.i.i400

if.then.i.i.i.i.i.i.i400:                         ; preds = %if.then7.i.i.i.i395
  %131 = load i32, ptr %_M_weak_count.i.i.i.i.i.i398, align 4
  %add.i.i.i.i.i.i.i401 = add nsw i32 %131, -1
  store i32 %add.i.i.i.i.i.i.i401, ptr %_M_weak_count.i.i.i.i.i.i398, align 4
  br label %_ZN9__gnu_cxx27__exchange_and_add_dispatchEPii.exit.i.i.i.i.i.i402

if.else.i.i.i.i.i.i.i408:                         ; preds = %if.then7.i.i.i.i395
  %132 = atomicrmw volatile add ptr %_M_weak_count.i.i.i.i.i.i398, i32 -1 acq_rel, align 4
  br label %_ZN9__gnu_cxx27__exchange_and_add_dispatchEPii.exit.i.i.i.i.i.i402

_ZN9__gnu_cxx27__exchange_and_add_dispatchEPii.exit.i.i.i.i.i.i402: ; preds = %if.else.i.i.i.i.i.i.i408, %if.then.i.i.i.i.i.i.i400
  %retval.i.0.i.i.i.i.i.i403 = phi i32 [ %131, %if.then.i.i.i.i.i.i.i400 ], [ %132, %if.else.i.i.i.i.i.i.i408 ]
  %cmp.i.i.i.i.i.i404 = icmp eq i32 %retval.i.0.i.i.i.i.i.i403, 1
  br i1 %cmp.i.i.i.i.i.i404, label %if.end8.sink.split.i.i.i.i405, label %_ZNSt10shared_ptrIN8facebook5velox4core20FieldAccessTypedExprEED2Ev.exit

if.end8.sink.split.i.i.i.i405:                    ; preds = %_ZN9__gnu_cxx27__exchange_and_add_dispatchEPii.exit.i.i.i.i.i.i402, %if.then.i.i.i.i410
  %vtable2.i.i.i.i.i.i406 = load ptr, ptr %123, align 8
  %vfn3.i.i.i.i.i.i407 = getelementptr inbounds ptr, ptr %vtable2.i.i.i.i.i.i406, i64 3
  %133 = load ptr, ptr %vfn3.i.i.i.i.i.i407, align 8
  call void %133(ptr noundef nonnull align 8 dereferenceable(16) %123) #17
  br label %_ZNSt10shared_ptrIN8facebook5velox4core20FieldAccessTypedExprEED2Ev.exit

_ZNSt10shared_ptrIN8facebook5velox4core20FieldAccessTypedExprEED2Ev.exit: ; preds = %invoke.cont61, %_ZN9__gnu_cxx27__exchange_and_add_dispatchEPii.exit.i.i.i.i392, %_ZN9__gnu_cxx27__exchange_and_add_dispatchEPii.exit.i.i.i.i.i.i402, %if.end8.sink.split.i.i.i.i405
  %134 = load ptr, ptr %x, align 16
  %vtable65 = load ptr, ptr %134, align 8
  %vfn66 = getelementptr inbounds ptr, ptr %vtable65, i64 3
  %135 = load ptr, ptr %vfn66, align 8
  invoke void %135(ptr nonnull sret(%"class.std::shared_ptr") align 8 %xRewritten, ptr noundef nonnull align 8 dereferenceable(48) %134, ptr noundef nonnull align 8 dereferenceable(56) %inputMapping)
          to label %invoke.cont67 unwind label %lpad49

invoke.cont67:                                    ; preds = %_ZNSt10shared_ptrIN8facebook5velox4core20FieldAccessTypedExprEED2Ev.exit
  %136 = load ptr, ptr %xRewritten, align 8
  %137 = load ptr, ptr %y, align 16
  %vtable71 = load ptr, ptr %137, align 8
  %vfn72 = getelementptr inbounds ptr, ptr %vtable71, i64 3
  %138 = load ptr, ptr %vfn72, align 8
  invoke void %138(ptr nonnull sret(%"class.std::shared_ptr") align 8 %ref.tmp69, ptr noundef nonnull align 8 dereferenceable(48) %137, ptr noundef nonnull align 8 dereferenceable(56) %inputMapping)
          to label %invoke.cont74 unwind label %lpad73

invoke.cont74:                                    ; preds = %invoke.cont67
  %139 = load ptr, ptr %ref.tmp69, align 8
  %vtable76 = load ptr, ptr %136, align 8
  %vfn77 = getelementptr inbounds ptr, ptr %vtable76, i64 6
  %140 = load ptr, ptr %vfn77, align 8
  %call80 = invoke noundef zeroext i1 %140(ptr noundef nonnull align 8 dereferenceable(48) %136, ptr noundef nonnull align 8 dereferenceable(48) %139)
          to label %invoke.cont79 unwind label %lpad78

invoke.cont79:                                    ; preds = %invoke.cont74
  br i1 %call80, label %land.lhs.true, label %cleanup.done112

land.lhs.true:                                    ; preds = %invoke.cont79
  %141 = load ptr, ptr %xRewritten, align 8
  %142 = load ptr, ptr %u, align 8
  %vtable84 = load ptr, ptr %142, align 8
  %vfn85 = getelementptr inbounds ptr, ptr %vtable84, i64 3
  %143 = load ptr, ptr %vfn85, align 8
  invoke void %143(ptr nonnull sret(%"class.std::shared_ptr") align 8 %ref.tmp82, ptr noundef nonnull align 8 dereferenceable(48) %142, ptr noundef nonnull align 8 dereferenceable(56) %inputMapping)
          to label %invoke.cont86 unwind label %lpad78

invoke.cont86:                                    ; preds = %land.lhs.true
  %144 = load ptr, ptr %ref.tmp82, align 8
  %vtable88 = load ptr, ptr %141, align 8
  %vfn89 = getelementptr inbounds ptr, ptr %vtable88, i64 6
  %145 = load ptr, ptr %vfn89, align 8
  %call92 = invoke noundef zeroext i1 %145(ptr noundef nonnull align 8 dereferenceable(48) %141, ptr noundef nonnull align 8 dereferenceable(48) %144)
          to label %invoke.cont91 unwind label %lpad90

invoke.cont91:                                    ; preds = %invoke.cont86
  br i1 %call92, label %land.rhs, label %cleanup.action111

land.rhs:                                         ; preds = %invoke.cont91
  %146 = load ptr, ptr %xRewritten, align 8
  %147 = load ptr, ptr %v, align 8
  %vtable96 = load ptr, ptr %147, align 8
  %vfn97 = getelementptr inbounds ptr, ptr %vtable96, i64 3
  %148 = load ptr, ptr %vfn97, align 8
  invoke void %148(ptr nonnull sret(%"class.std::shared_ptr") align 8 %ref.tmp94, ptr noundef nonnull align 8 dereferenceable(48) %147, ptr noundef nonnull align 8 dereferenceable(56) %inputMapping)
          to label %invoke.cont98 unwind label %lpad90

invoke.cont98:                                    ; preds = %land.rhs
  %149 = load ptr, ptr %ref.tmp94, align 8
  %vtable101 = load ptr, ptr %146, align 8
  %vfn102 = getelementptr inbounds ptr, ptr %vtable101, i64 6
  %150 = load ptr, ptr %vfn102, align 8
  %call105 = invoke noundef zeroext i1 %150(ptr noundef nonnull align 8 dereferenceable(48) %146, ptr noundef nonnull align 8 dereferenceable(48) %149)
          to label %cleanup.action unwind label %lpad103

cleanup.action:                                   ; preds = %invoke.cont98
  %_M_refcount.i.i414 = getelementptr inbounds %"class.std::__shared_ptr", ptr %ref.tmp94, i64 0, i32 1
  %151 = load ptr, ptr %_M_refcount.i.i414, align 8
  %cmp.not.i.i.i415 = icmp eq ptr %151, null
  br i1 %cmp.not.i.i.i415, label %cleanup.action111, label %if.then.i.i.i416

if.then.i.i.i416:                                 ; preds = %cleanup.action
  %_M_use_count.i.i.i.i417 = getelementptr inbounds %"class.std::_Sp_counted_base", ptr %151, i64 0, i32 1
  %152 = load atomic i64, ptr %_M_use_count.i.i.i.i417 acquire, align 8
  %cmp.i.i.i.i418 = icmp eq i64 %152, 4294967297
  %153 = trunc i64 %152 to i32
  br i1 %cmp.i.i.i.i418, label %if.then.i.i.i.i441, label %if.end.i.i.i.i419

if.then.i.i.i.i441:                               ; preds = %if.then.i.i.i416
  store i32 0, ptr %_M_use_count.i.i.i.i417, align 8
  %_M_weak_count.i.i.i.i442 = getelementptr inbounds %"class.std::_Sp_counted_base", ptr %151, i64 0, i32 2
  store i32 0, ptr %_M_weak_count.i.i.i.i442, align 4
  %vtable.i.i.i.i443 = load ptr, ptr %151, align 8
  %vfn.i.i.i.i444 = getelementptr inbounds ptr, ptr %vtable.i.i.i.i443, i64 2
  %154 = load ptr, ptr %vfn.i.i.i.i444, align 8
  call void %154(ptr noundef nonnull align 8 dereferenceable(16) %151) #17
  br label %if.end8.sink.split.i.i.i.i436

if.end.i.i.i.i419:                                ; preds = %if.then.i.i.i416
  %155 = load i8, ptr @__libc_single_threaded, align 1
  %tobool.i.i.not.i.i.i.i420 = icmp eq i8 %155, 0
  br i1 %tobool.i.i.not.i.i.i.i420, label %if.else.i.i.i.i.i440, label %if.then.i.i.i.i.i421

if.then.i.i.i.i.i421:                             ; preds = %if.end.i.i.i.i419
  %add.i.i.i.i.i422 = add nsw i32 %153, -1
  store i32 %add.i.i.i.i.i422, ptr %_M_use_count.i.i.i.i417, align 4
  br label %_ZN9__gnu_cxx27__exchange_and_add_dispatchEPii.exit.i.i.i.i423

if.else.i.i.i.i.i440:                             ; preds = %if.end.i.i.i.i419
  %156 = atomicrmw volatile add ptr %_M_use_count.i.i.i.i417, i32 -1 acq_rel, align 4
  br label %_ZN9__gnu_cxx27__exchange_and_add_dispatchEPii.exit.i.i.i.i423

_ZN9__gnu_cxx27__exchange_and_add_dispatchEPii.exit.i.i.i.i423: ; preds = %if.else.i.i.i.i.i440, %if.then.i.i.i.i.i421
  %retval.i.0.i.i.i.i424 = phi i32 [ %153, %if.then.i.i.i.i.i421 ], [ %156, %if.else.i.i.i.i.i440 ]
  %cmp6.i.i.i.i425 = icmp eq i32 %retval.i.0.i.i.i.i424, 1
  br i1 %cmp6.i.i.i.i425, label %if.then7.i.i.i.i426, label %cleanup.action111

if.then7.i.i.i.i426:                              ; preds = %_ZN9__gnu_cxx27__exchange_and_add_dispatchEPii.exit.i.i.i.i423
  %vtable.i.i.i.i.i.i427 = load ptr, ptr %151, align 8
  %vfn.i.i.i.i.i.i428 = getelementptr inbounds ptr, ptr %vtable.i.i.i.i.i.i427, i64 2
  %157 = load ptr, ptr %vfn.i.i.i.i.i.i428, align 8
  call void %157(ptr noundef nonnull align 8 dereferenceable(16) %151) #17
  %_M_weak_count.i.i.i.i.i.i429 = getelementptr inbounds %"class.std::_Sp_counted_base", ptr %151, i64 0, i32 2
  %158 = load i8, ptr @__libc_single_threaded, align 1
  %tobool.i.i.not.i.i.i.i.i.i430 = icmp eq i8 %158, 0
  br i1 %tobool.i.i.not.i.i.i.i.i.i430, label %if.else.i.i.i.i.i.i.i439, label %if.then.i.i.i.i.i.i.i431

if.then.i.i.i.i.i.i.i431:                         ; preds = %if.then7.i.i.i.i426
  %159 = load i32, ptr %_M_weak_count.i.i.i.i.i.i429, align 4
  %add.i.i.i.i.i.i.i432 = add nsw i32 %159, -1
  store i32 %add.i.i.i.i.i.i.i432, ptr %_M_weak_count.i.i.i.i.i.i429, align 4
  br label %_ZN9__gnu_cxx27__exchange_and_add_dispatchEPii.exit.i.i.i.i.i.i433

if.else.i.i.i.i.i.i.i439:                         ; preds = %if.then7.i.i.i.i426
  %160 = atomicrmw volatile add ptr %_M_weak_count.i.i.i.i.i.i429, i32 -1 acq_rel, align 4
  br label %_ZN9__gnu_cxx27__exchange_and_add_dispatchEPii.exit.i.i.i.i.i.i433

_ZN9__gnu_cxx27__exchange_and_add_dispatchEPii.exit.i.i.i.i.i.i433: ; preds = %if.else.i.i.i.i.i.i.i439, %if.then.i.i.i.i.i.i.i431
  %retval.i.0.i.i.i.i.i.i434 = phi i32 [ %159, %if.then.i.i.i.i.i.i.i431 ], [ %160, %if.else.i.i.i.i.i.i.i439 ]
  %cmp.i.i.i.i.i.i435 = icmp eq i32 %retval.i.0.i.i.i.i.i.i434, 1
  br i1 %cmp.i.i.i.i.i.i435, label %if.end8.sink.split.i.i.i.i436, label %cleanup.action111

if.end8.sink.split.i.i.i.i436:                    ; preds = %_ZN9__gnu_cxx27__exchange_and_add_dispatchEPii.exit.i.i.i.i.i.i433, %if.then.i.i.i.i441
  %vtable2.i.i.i.i.i.i437 = load ptr, ptr %151, align 8
  %vfn3.i.i.i.i.i.i438 = getelementptr inbounds ptr, ptr %vtable2.i.i.i.i.i.i437, i64 3
  %161 = load ptr, ptr %vfn3.i.i.i.i.i.i438, align 8
  call void %161(ptr noundef nonnull align 8 dereferenceable(16) %151) #17
  br label %cleanup.action111

cleanup.action111:                                ; preds = %cleanup.action, %_ZN9__gnu_cxx27__exchange_and_add_dispatchEPii.exit.i.i.i.i423, %_ZN9__gnu_cxx27__exchange_and_add_dispatchEPii.exit.i.i.i.i.i.i433, %if.end8.sink.split.i.i.i.i436, %invoke.cont91
  %162 = phi i1 [ false, %invoke.cont91 ], [ %call105, %if.end8.sink.split.i.i.i.i436 ], [ %call105, %_ZN9__gnu_cxx27__exchange_and_add_dispatchEPii.exit.i.i.i.i.i.i433 ], [ %call105, %_ZN9__gnu_cxx27__exchange_and_add_dispatchEPii.exit.i.i.i.i423 ], [ %call105, %cleanup.action ]
  %_M_refcount.i.i445 = getelementptr inbounds %"class.std::__shared_ptr", ptr %ref.tmp82, i64 0, i32 1
  %163 = load ptr, ptr %_M_refcount.i.i445, align 8
  %cmp.not.i.i.i446 = icmp eq ptr %163, null
  br i1 %cmp.not.i.i.i446, label %cleanup.done112, label %if.then.i.i.i447

if.then.i.i.i447:                                 ; preds = %cleanup.action111
  %_M_use_count.i.i.i.i448 = getelementptr inbounds %"class.std::_Sp_counted_base", ptr %163, i64 0, i32 1
  %164 = load atomic i64, ptr %_M_use_count.i.i.i.i448 acquire, align 8
  %cmp.i.i.i.i449 = icmp eq i64 %164, 4294967297
  %165 = trunc i64 %164 to i32
  br i1 %cmp.i.i.i.i449, label %if.then.i.i.i.i472, label %if.end.i.i.i.i450

if.then.i.i.i.i472:                               ; preds = %if.then.i.i.i447
  store i32 0, ptr %_M_use_count.i.i.i.i448, align 8
  %_M_weak_count.i.i.i.i473 = getelementptr inbounds %"class.std::_Sp_counted_base", ptr %163, i64 0, i32 2
  store i32 0, ptr %_M_weak_count.i.i.i.i473, align 4
  %vtable.i.i.i.i474 = load ptr, ptr %163, align 8
  %vfn.i.i.i.i475 = getelementptr inbounds ptr, ptr %vtable.i.i.i.i474, i64 2
  %166 = load ptr, ptr %vfn.i.i.i.i475, align 8
  call void %166(ptr noundef nonnull align 8 dereferenceable(16) %163) #17
  br label %if.end8.sink.split.i.i.i.i467

if.end.i.i.i.i450:                                ; preds = %if.then.i.i.i447
  %167 = load i8, ptr @__libc_single_threaded, align 1
  %tobool.i.i.not.i.i.i.i451 = icmp eq i8 %167, 0
  br i1 %tobool.i.i.not.i.i.i.i451, label %if.else.i.i.i.i.i471, label %if.then.i.i.i.i.i452

if.then.i.i.i.i.i452:                             ; preds = %if.end.i.i.i.i450
  %add.i.i.i.i.i453 = add nsw i32 %165, -1
  store i32 %add.i.i.i.i.i453, ptr %_M_use_count.i.i.i.i448, align 4
  br label %_ZN9__gnu_cxx27__exchange_and_add_dispatchEPii.exit.i.i.i.i454

if.else.i.i.i.i.i471:                             ; preds = %if.end.i.i.i.i450
  %168 = atomicrmw volatile add ptr %_M_use_count.i.i.i.i448, i32 -1 acq_rel, align 4
  br label %_ZN9__gnu_cxx27__exchange_and_add_dispatchEPii.exit.i.i.i.i454

_ZN9__gnu_cxx27__exchange_and_add_dispatchEPii.exit.i.i.i.i454: ; preds = %if.else.i.i.i.i.i471, %if.then.i.i.i.i.i452
  %retval.i.0.i.i.i.i455 = phi i32 [ %165, %if.then.i.i.i.i.i452 ], [ %168, %if.else.i.i.i.i.i471 ]
  %cmp6.i.i.i.i456 = icmp eq i32 %retval.i.0.i.i.i.i455, 1
  br i1 %cmp6.i.i.i.i456, label %if.then7.i.i.i.i457, label %cleanup.done112

if.then7.i.i.i.i457:                              ; preds = %_ZN9__gnu_cxx27__exchange_and_add_dispatchEPii.exit.i.i.i.i454
  %vtable.i.i.i.i.i.i458 = load ptr, ptr %163, align 8
  %vfn.i.i.i.i.i.i459 = getelementptr inbounds ptr, ptr %vtable.i.i.i.i.i.i458, i64 2
  %169 = load ptr, ptr %vfn.i.i.i.i.i.i459, align 8
  call void %169(ptr noundef nonnull align 8 dereferenceable(16) %163) #17
  %_M_weak_count.i.i.i.i.i.i460 = getelementptr inbounds %"class.std::_Sp_counted_base", ptr %163, i64 0, i32 2
  %170 = load i8, ptr @__libc_single_threaded, align 1
  %tobool.i.i.not.i.i.i.i.i.i461 = icmp eq i8 %170, 0
  br i1 %tobool.i.i.not.i.i.i.i.i.i461, label %if.else.i.i.i.i.i.i.i470, label %if.then.i.i.i.i.i.i.i462

if.then.i.i.i.i.i.i.i462:                         ; preds = %if.then7.i.i.i.i457
  %171 = load i32, ptr %_M_weak_count.i.i.i.i.i.i460, align 4
  %add.i.i.i.i.i.i.i463 = add nsw i32 %171, -1
  store i32 %add.i.i.i.i.i.i.i463, ptr %_M_weak_count.i.i.i.i.i.i460, align 4
  br label %_ZN9__gnu_cxx27__exchange_and_add_dispatchEPii.exit.i.i.i.i.i.i464

if.else.i.i.i.i.i.i.i470:                         ; preds = %if.then7.i.i.i.i457
  %172 = atomicrmw volatile add ptr %_M_weak_count.i.i.i.i.i.i460, i32 -1 acq_rel, align 4
  br label %_ZN9__gnu_cxx27__exchange_and_add_dispatchEPii.exit.i.i.i.i.i.i464

_ZN9__gnu_cxx27__exchange_and_add_dispatchEPii.exit.i.i.i.i.i.i464: ; preds = %if.else.i.i.i.i.i.i.i470, %if.then.i.i.i.i.i.i.i462
  %retval.i.0.i.i.i.i.i.i465 = phi i32 [ %171, %if.then.i.i.i.i.i.i.i462 ], [ %172, %if.else.i.i.i.i.i.i.i470 ]
  %cmp.i.i.i.i.i.i466 = icmp eq i32 %retval.i.0.i.i.i.i.i.i465, 1
  br i1 %cmp.i.i.i.i.i.i466, label %if.end8.sink.split.i.i.i.i467, label %cleanup.done112

if.end8.sink.split.i.i.i.i467:                    ; preds = %_ZN9__gnu_cxx27__exchange_and_add_dispatchEPii.exit.i.i.i.i.i.i464, %if.then.i.i.i.i472
  %vtable2.i.i.i.i.i.i468 = load ptr, ptr %163, align 8
  %vfn3.i.i.i.i.i.i469 = getelementptr inbounds ptr, ptr %vtable2.i.i.i.i.i.i468, i64 3
  %173 = load ptr, ptr %vfn3.i.i.i.i.i.i469, align 8
  call void %173(ptr noundef nonnull align 8 dereferenceable(16) %163) #17
  br label %cleanup.done112

cleanup.done112:                                  ; preds = %if.end8.sink.split.i.i.i.i467, %_ZN9__gnu_cxx27__exchange_and_add_dispatchEPii.exit.i.i.i.i.i.i464, %_ZN9__gnu_cxx27__exchange_and_add_dispatchEPii.exit.i.i.i.i454, %cleanup.action111, %invoke.cont79
  %174 = phi i1 [ false, %invoke.cont79 ], [ %162, %cleanup.action111 ], [ %162, %_ZN9__gnu_cxx27__exchange_and_add_dispatchEPii.exit.i.i.i.i454 ], [ %162, %_ZN9__gnu_cxx27__exchange_and_add_dispatchEPii.exit.i.i.i.i.i.i464 ], [ %162, %if.end8.sink.split.i.i.i.i467 ]
  %_M_refcount.i.i477 = getelementptr inbounds %"class.std::__shared_ptr", ptr %ref.tmp69, i64 0, i32 1
  %175 = load ptr, ptr %_M_refcount.i.i477, align 8
  %cmp.not.i.i.i478 = icmp eq ptr %175, null
  br i1 %cmp.not.i.i.i478, label %_ZNSt10shared_ptrIKN8facebook5velox4core10ITypedExprEED2Ev.exit508, label %if.then.i.i.i479

if.then.i.i.i479:                                 ; preds = %cleanup.done112
  %_M_use_count.i.i.i.i480 = getelementptr inbounds %"class.std::_Sp_counted_base", ptr %175, i64 0, i32 1
  %176 = load atomic i64, ptr %_M_use_count.i.i.i.i480 acquire, align 8
  %cmp.i.i.i.i481 = icmp eq i64 %176, 4294967297
  %177 = trunc i64 %176 to i32
  br i1 %cmp.i.i.i.i481, label %if.then.i.i.i.i504, label %if.end.i.i.i.i482

if.then.i.i.i.i504:                               ; preds = %if.then.i.i.i479
  store i32 0, ptr %_M_use_count.i.i.i.i480, align 8
  %_M_weak_count.i.i.i.i505 = getelementptr inbounds %"class.std::_Sp_counted_base", ptr %175, i64 0, i32 2
  store i32 0, ptr %_M_weak_count.i.i.i.i505, align 4
  %vtable.i.i.i.i506 = load ptr, ptr %175, align 8
  %vfn.i.i.i.i507 = getelementptr inbounds ptr, ptr %vtable.i.i.i.i506, i64 2
  %178 = load ptr, ptr %vfn.i.i.i.i507, align 8
  call void %178(ptr noundef nonnull align 8 dereferenceable(16) %175) #17
  br label %if.end8.sink.split.i.i.i.i499

if.end.i.i.i.i482:                                ; preds = %if.then.i.i.i479
  %179 = load i8, ptr @__libc_single_threaded, align 1
  %tobool.i.i.not.i.i.i.i483 = icmp eq i8 %179, 0
  br i1 %tobool.i.i.not.i.i.i.i483, label %if.else.i.i.i.i.i503, label %if.then.i.i.i.i.i484

if.then.i.i.i.i.i484:                             ; preds = %if.end.i.i.i.i482
  %add.i.i.i.i.i485 = add nsw i32 %177, -1
  store i32 %add.i.i.i.i.i485, ptr %_M_use_count.i.i.i.i480, align 4
  br label %_ZN9__gnu_cxx27__exchange_and_add_dispatchEPii.exit.i.i.i.i486

if.else.i.i.i.i.i503:                             ; preds = %if.end.i.i.i.i482
  %180 = atomicrmw volatile add ptr %_M_use_count.i.i.i.i480, i32 -1 acq_rel, align 4
  br label %_ZN9__gnu_cxx27__exchange_and_add_dispatchEPii.exit.i.i.i.i486

_ZN9__gnu_cxx27__exchange_and_add_dispatchEPii.exit.i.i.i.i486: ; preds = %if.else.i.i.i.i.i503, %if.then.i.i.i.i.i484
  %retval.i.0.i.i.i.i487 = phi i32 [ %177, %if.then.i.i.i.i.i484 ], [ %180, %if.else.i.i.i.i.i503 ]
  %cmp6.i.i.i.i488 = icmp eq i32 %retval.i.0.i.i.i.i487, 1
  br i1 %cmp6.i.i.i.i488, label %if.then7.i.i.i.i489, label %_ZNSt10shared_ptrIKN8facebook5velox4core10ITypedExprEED2Ev.exit508

if.then7.i.i.i.i489:                              ; preds = %_ZN9__gnu_cxx27__exchange_and_add_dispatchEPii.exit.i.i.i.i486
  %vtable.i.i.i.i.i.i490 = load ptr, ptr %175, align 8
  %vfn.i.i.i.i.i.i491 = getelementptr inbounds ptr, ptr %vtable.i.i.i.i.i.i490, i64 2
  %181 = load ptr, ptr %vfn.i.i.i.i.i.i491, align 8
  call void %181(ptr noundef nonnull align 8 dereferenceable(16) %175) #17
  %_M_weak_count.i.i.i.i.i.i492 = getelementptr inbounds %"class.std::_Sp_counted_base", ptr %175, i64 0, i32 2
  %182 = load i8, ptr @__libc_single_threaded, align 1
  %tobool.i.i.not.i.i.i.i.i.i493 = icmp eq i8 %182, 0
  br i1 %tobool.i.i.not.i.i.i.i.i.i493, label %if.else.i.i.i.i.i.i.i502, label %if.then.i.i.i.i.i.i.i494

if.then.i.i.i.i.i.i.i494:                         ; preds = %if.then7.i.i.i.i489
  %183 = load i32, ptr %_M_weak_count.i.i.i.i.i.i492, align 4
  %add.i.i.i.i.i.i.i495 = add nsw i32 %183, -1
  store i32 %add.i.i.i.i.i.i.i495, ptr %_M_weak_count.i.i.i.i.i.i492, align 4
  br label %_ZN9__gnu_cxx27__exchange_and_add_dispatchEPii.exit.i.i.i.i.i.i496

if.else.i.i.i.i.i.i.i502:                         ; preds = %if.then7.i.i.i.i489
  %184 = atomicrmw volatile add ptr %_M_weak_count.i.i.i.i.i.i492, i32 -1 acq_rel, align 4
  br label %_ZN9__gnu_cxx27__exchange_and_add_dispatchEPii.exit.i.i.i.i.i.i496

_ZN9__gnu_cxx27__exchange_and_add_dispatchEPii.exit.i.i.i.i.i.i496: ; preds = %if.else.i.i.i.i.i.i.i502, %if.then.i.i.i.i.i.i.i494
  %retval.i.0.i.i.i.i.i.i497 = phi i32 [ %183, %if.then.i.i.i.i.i.i.i494 ], [ %184, %if.else.i.i.i.i.i.i.i502 ]
  %cmp.i.i.i.i.i.i498 = icmp eq i32 %retval.i.0.i.i.i.i.i.i497, 1
  br i1 %cmp.i.i.i.i.i.i498, label %if.end8.sink.split.i.i.i.i499, label %_ZNSt10shared_ptrIKN8facebook5velox4core10ITypedExprEED2Ev.exit508

if.end8.sink.split.i.i.i.i499:                    ; preds = %_ZN9__gnu_cxx27__exchange_and_add_dispatchEPii.exit.i.i.i.i.i.i496, %if.then.i.i.i.i504
  %vtable2.i.i.i.i.i.i500 = load ptr, ptr %175, align 8
  %vfn3.i.i.i.i.i.i501 = getelementptr inbounds ptr, ptr %vtable2.i.i.i.i.i.i500, i64 3
  %185 = load ptr, ptr %vfn3.i.i.i.i.i.i501, align 8
  call void %185(ptr noundef nonnull align 8 dereferenceable(16) %175) #17
  br label %_ZNSt10shared_ptrIKN8facebook5velox4core10ITypedExprEED2Ev.exit508

_ZNSt10shared_ptrIKN8facebook5velox4core10ITypedExprEED2Ev.exit508: ; preds = %cleanup.done112, %_ZN9__gnu_cxx27__exchange_and_add_dispatchEPii.exit.i.i.i.i486, %_ZN9__gnu_cxx27__exchange_and_add_dispatchEPii.exit.i.i.i.i.i.i496, %if.end8.sink.split.i.i.i.i499
  br i1 %174, label %if.end120, label %if.then118

if.then118:                                       ; preds = %_ZNSt10shared_ptrIKN8facebook5velox4core10ITypedExprEED2Ev.exit508
  %_M_engaged.i.i.i.i.i509 = getelementptr inbounds %"struct.std::_Optional_payload_base", ptr %agg.result, i64 0, i32 1
  store i8 0, ptr %_M_engaged.i.i.i.i.i509, align 8
  br label %cleanup204

lpad49:                                           ; preds = %if.end47, %_ZNSt10shared_ptrIN8facebook5velox4core20FieldAccessTypedExprEED2Ev.exit
  %186 = landingpad { ptr, i32 }
          cleanup
  br label %ehcleanup207

lpad60:                                           ; preds = %invoke.cont59
  %187 = landingpad { ptr, i32 }
          cleanup
  call void @_ZNSt10shared_ptrIN8facebook5velox4core20FieldAccessTypedExprEED2Ev(ptr noundef nonnull align 8 dereferenceable(16) %ref.tmp52) #17
  br label %ehcleanup207

lpad73:                                           ; preds = %if.end127, %invoke.cont67
  %188 = landingpad { ptr, i32 }
          cleanup
  br label %ehcleanup205

lpad78:                                           ; preds = %land.lhs.true, %invoke.cont74
  %189 = landingpad { ptr, i32 }
          cleanup
  br label %ehcleanup117

lpad90:                                           ; preds = %land.rhs, %invoke.cont86
  %190 = landingpad { ptr, i32 }
          cleanup
  br label %cleanup.action115

lpad103:                                          ; preds = %invoke.cont98
  %191 = landingpad { ptr, i32 }
          cleanup
  call void @_ZNSt10shared_ptrIKN8facebook5velox4core10ITypedExprEED2Ev(ptr noundef nonnull align 8 dereferenceable(16) %ref.tmp94) #17
  br label %cleanup.action115

cleanup.action115:                                ; preds = %lpad90, %lpad103
  %.pn23 = phi { ptr, i32 } [ %191, %lpad103 ], [ %190, %lpad90 ]
  call void @_ZNSt10shared_ptrIKN8facebook5velox4core10ITypedExprEED2Ev(ptr noundef nonnull align 8 dereferenceable(16) %ref.tmp82) #17
  br label %ehcleanup117

ehcleanup117:                                     ; preds = %cleanup.action115, %lpad78
  %.pn23.pn = phi { ptr, i32 } [ %.pn23, %cleanup.action115 ], [ %189, %lpad78 ]
  call void @_ZNSt10shared_ptrIKN8facebook5velox4core10ITypedExprEED2Ev(ptr noundef nonnull align 8 dereferenceable(16) %ref.tmp69) #17
  br label %ehcleanup205

if.end120:                                        ; preds = %_ZNSt10shared_ptrIKN8facebook5velox4core10ITypedExprEED2Ev.exit508
  %192 = load i64, ptr %c1, align 8
  %193 = load i64, ptr %c2, align 8
  %cmp = icmp eq i64 %192, %193
  br i1 %cmp, label %if.then125, label %lor.lhs.false121

lor.lhs.false121:                                 ; preds = %if.end120
  %194 = load i64, ptr %c3, align 8
  %cmp122 = icmp eq i64 %193, %194
  %cmp124 = icmp eq i64 %192, %194
  %or.cond33 = or i1 %cmp122, %cmp124
  br i1 %or.cond33, label %if.then125, label %if.end127

if.then125:                                       ; preds = %lor.lhs.false121, %if.end120
  %_M_engaged.i.i.i.i.i510 = getelementptr inbounds %"struct.std::_Optional_payload_base", ptr %agg.result, i64 0, i32 1
  store i8 0, ptr %_M_engaged.i.i.i.i.i510, align 8
  br label %cleanup204

if.end127:                                        ; preds = %lor.lhs.false121
  invoke void @_ZStplIcSt11char_traitsIcESaIcEENSt7__cxx1112basic_stringIT_T0_T1_EERKS8_PKS5_(ptr nonnull sret(%"class.std::__cxx11::basic_string") align 8 %eq, ptr noundef nonnull align 8 dereferenceable(32) %prefix, ptr noundef nonnull @.str)
          to label %invoke.cont128 unwind label %lpad73

invoke.cont128:                                   ; preds = %if.end127
  %call129 = call noundef zeroext i1 @_ZSteqIcEN9__gnu_cxx11__enable_ifIXsr9__is_charIT_EE7__valueEbE6__typeERKNSt7__cxx1112basic_stringIS2_St11char_traitsIS2_ESaIS2_EEESC_(ptr noundef nonnull align 8 dereferenceable(32) %op1, ptr noundef nonnull align 8 dereferenceable(32) %eq) #17
  %195 = load i64, ptr %c1, align 8
  %cmp131 = icmp ne i64 %195, 0
  %or.cond = select i1 %call129, i1 %cmp131, i1 false
  br i1 %or.cond, label %if.then136, label %lor.lhs.false132

lor.lhs.false132:                                 ; preds = %invoke.cont128
  %call133 = call noundef zeroext i1 @_ZStneIcSt11char_traitsIcESaIcEEbRKNSt7__cxx1112basic_stringIT_T0_T1_EESA_(ptr noundef nonnull align 8 dereferenceable(32) %op1, ptr noundef nonnull align 8 dereferenceable(32) %eq) #17
  %196 = load i64, ptr %c1, align 8
  %cmp135 = icmp eq i64 %196, 0
  %or.cond1 = select i1 %call133, i1 %cmp135, i1 false
  br i1 %or.cond1, label %if.then136, label %if.end138

if.then136:                                       ; preds = %lor.lhs.false132, %invoke.cont128
  %_M_engaged.i.i.i.i.i511 = getelementptr inbounds %"struct.std::_Optional_payload_base", ptr %agg.result, i64 0, i32 1
  store i8 0, ptr %_M_engaged.i.i.i.i.i511, align 8
  br label %cleanup202

if.end138:                                        ; preds = %lor.lhs.false132
  %call139 = call noundef zeroext i1 @_ZSteqIcEN9__gnu_cxx11__enable_ifIXsr9__is_charIT_EE7__valueEbE6__typeERKNSt7__cxx1112basic_stringIS2_St11char_traitsIS2_ESaIS2_EEESC_(ptr noundef nonnull align 8 dereferenceable(32) %op2, ptr noundef nonnull align 8 dereferenceable(32) %eq) #17
  %197 = load i64, ptr %c2, align 8
  %cmp141 = icmp ne i64 %197, 0
  %or.cond2 = select i1 %call139, i1 %cmp141, i1 false
  br i1 %or.cond2, label %if.then146, label %lor.lhs.false142

lor.lhs.false142:                                 ; preds = %if.end138
  %call143 = call noundef zeroext i1 @_ZStneIcSt11char_traitsIcESaIcEEbRKNSt7__cxx1112basic_stringIT_T0_T1_EESA_(ptr noundef nonnull align 8 dereferenceable(32) %op2, ptr noundef nonnull align 8 dereferenceable(32) %eq) #17
  %198 = load i64, ptr %c2, align 8
  %cmp145 = icmp eq i64 %198, 0
  %or.cond3 = select i1 %call143, i1 %cmp145, i1 false
  br i1 %or.cond3, label %if.then146, label %if.end148

if.then146:                                       ; preds = %lor.lhs.false142, %if.end138
  %_M_engaged.i.i.i.i.i512 = getelementptr inbounds %"struct.std::_Optional_payload_base", ptr %agg.result, i64 0, i32 1
  store i8 0, ptr %_M_engaged.i.i.i.i.i512, align 8
  br label %cleanup202

if.end148:                                        ; preds = %lor.lhs.false142
  %signature_.i = getelementptr inbounds %"class.facebook::velox::core::LambdaTypedExpr", ptr %expr, i64 0, i32 1
  %199 = load ptr, ptr %signature_.i, align 8
  %names_.i = getelementptr inbounds %"class.facebook::velox::RowType", ptr %199, i64 0, i32 1
  %_M_finish.i.i.i.i = getelementptr inbounds %"class.facebook::velox::RowType", ptr %199, i64 0, i32 1, i32 0, i32 0, i32 0, i32 1
  %200 = load ptr, ptr %_M_finish.i.i.i.i, align 8
  %201 = load ptr, ptr %names_.i, align 8
  %cmp.not.i.i.i513.not = icmp eq ptr %200, %201
  br i1 %cmp.not.i.i.i513.not, label %if.then.i.i.i514, label %invoke.cont153

if.then.i.i.i514:                                 ; preds = %if.end148
  invoke void (ptr, ...) @_ZSt24__throw_out_of_range_fmtPKcz(ptr noundef nonnull @.str.6, i64 noundef 0, i64 noundef 0) #19
          to label %.noexc unwind label %lpad149

.noexc:                                           ; preds = %if.then.i.i.i514
  unreachable

invoke.cont153:                                   ; preds = %if.end148
  invoke void @_ZNSt7__cxx1112basic_stringIcSt11char_traitsIcESaIcEEC1ERKS4_(ptr noundef nonnull align 8 dereferenceable(32) %left, ptr noundef nonnull align 8 dereferenceable(32) %201)
          to label %invoke.cont155 unwind label %lpad149

invoke.cont155:                                   ; preds = %invoke.cont153
  %202 = load ptr, ptr %a, align 8
  %name_.i515 = getelementptr inbounds %"class.facebook::velox::core::FieldAccessTypedExpr", ptr %202, i64 0, i32 1
  %call160 = call noundef zeroext i1 @_ZSteqIcEN9__gnu_cxx11__enable_ifIXsr9__is_charIT_EE7__valueEbE6__typeERKNSt7__cxx1112basic_stringIS2_St11char_traitsIS2_ESaIS2_EEESC_(ptr noundef nonnull align 8 dereferenceable(32) %name_.i515, ptr noundef nonnull align 8 dereferenceable(32) %left) #17
  %_M_refcount.i.i516 = getelementptr inbounds %"class.std::__shared_ptr", ptr %transform, i64 0, i32 1
  %203 = load <2 x ptr>, ptr %x, align 16
  %204 = load <2 x ptr>, ptr %y, align 16
  %205 = insertelement <2 x i1> poison, i1 %call160, i64 0
  %206 = shufflevector <2 x i1> %205, <2 x i1> poison, <2 x i32> zeroinitializer
  %207 = select <2 x i1> %206, <2 x ptr> %203, <2 x ptr> %204
  store <2 x ptr> %207, ptr %transform, align 16
  %208 = extractelement <2 x ptr> %207, i64 1
  %cmp.not.i.i.i517 = icmp eq ptr %208, null
  br i1 %cmp.not.i.i.i517, label %_ZNSt10shared_ptrIKN8facebook5velox4core10ITypedExprEEC2ERKS5_.exit, label %if.then.i.i.i518

if.then.i.i.i518:                                 ; preds = %invoke.cont155
  %_M_use_count.i.i.i.i519 = getelementptr inbounds %"class.std::_Sp_counted_base", ptr %208, i64 0, i32 1
  %209 = load i8, ptr @__libc_single_threaded, align 1
  %tobool.i.not.i.i.i.i = icmp eq i8 %209, 0
  br i1 %tobool.i.not.i.i.i.i, label %if.else.i.i.i.i.i522, label %if.then.i.i.i.i.i520

if.then.i.i.i.i.i520:                             ; preds = %if.then.i.i.i518
  %210 = load i32, ptr %_M_use_count.i.i.i.i519, align 4
  %add.i.i.i.i.i521 = add nsw i32 %210, 1
  store i32 %add.i.i.i.i.i521, ptr %_M_use_count.i.i.i.i519, align 4
  br label %_ZNSt10shared_ptrIKN8facebook5velox4core10ITypedExprEEC2ERKS5_.exit

if.else.i.i.i.i.i522:                             ; preds = %if.then.i.i.i518
  %211 = atomicrmw volatile add ptr %_M_use_count.i.i.i.i519, i32 1 acq_rel, align 4
  br label %_ZNSt10shared_ptrIKN8facebook5velox4core10ITypedExprEEC2ERKS5_.exit

_ZNSt10shared_ptrIKN8facebook5velox4core10ITypedExprEEC2ERKS5_.exit: ; preds = %invoke.cont155, %if.then.i.i.i.i.i520, %if.else.i.i.i.i.i522
  %call161 = call noundef zeroext i1 @_ZSteqIcEN9__gnu_cxx11__enable_ifIXsr9__is_charIT_EE7__valueEbE6__typeERKNSt7__cxx1112basic_stringIS2_St11char_traitsIS2_ESaIS2_EEESC_(ptr noundef nonnull align 8 dereferenceable(32) %op1, ptr noundef nonnull align 8 dereferenceable(32) %eq) #17
  br i1 %call161, label %if.then162, label %if.end169

if.then162:                                       ; preds = %_ZNSt10shared_ptrIKN8facebook5velox4core10ITypedExprEEC2ERKS5_.exit
  %_M_refcount.i.i523 = getelementptr inbounds %"class.std::__shared_ptr", ptr %ref.tmp163, i64 0, i32 1
  %212 = load <2 x ptr>, ptr %transform, align 16
  store <2 x ptr> %212, ptr %ref.tmp163, align 16
  %213 = extractelement <2 x ptr> %212, i64 1
  %cmp.not.i.i.i525 = icmp eq ptr %213, null
  br i1 %cmp.not.i.i.i525, label %_ZNSt10shared_ptrIKN8facebook5velox4core10ITypedExprEEC2ERKS5_.exit532, label %if.then.i.i.i526

if.then.i.i.i526:                                 ; preds = %if.then162
  %_M_use_count.i.i.i.i527 = getelementptr inbounds %"class.std::_Sp_counted_base", ptr %213, i64 0, i32 1
  %214 = load i8, ptr @__libc_single_threaded, align 1
  %tobool.i.not.i.i.i.i528 = icmp eq i8 %214, 0
  br i1 %tobool.i.not.i.i.i.i528, label %if.else.i.i.i.i.i531, label %if.then.i.i.i.i.i529

if.then.i.i.i.i.i529:                             ; preds = %if.then.i.i.i526
  %215 = load i32, ptr %_M_use_count.i.i.i.i527, align 4
  %add.i.i.i.i.i530 = add nsw i32 %215, 1
  store i32 %add.i.i.i.i.i530, ptr %_M_use_count.i.i.i.i527, align 4
  br label %_ZNSt10shared_ptrIKN8facebook5velox4core10ITypedExprEEC2ERKS5_.exit532

if.else.i.i.i.i.i531:                             ; preds = %if.then.i.i.i526
  %216 = atomicrmw volatile add ptr %_M_use_count.i.i.i.i527, i32 1 acq_rel, align 4
  br label %_ZNSt10shared_ptrIKN8facebook5velox4core10ITypedExprEEC2ERKS5_.exit532

_ZNSt10shared_ptrIKN8facebook5velox4core10ITypedExprEEC2ERKS5_.exit532: ; preds = %if.then162, %if.then.i.i.i.i.i529, %if.else.i.i.i.i.i531
  %217 = load i64, ptr %c2, align 8
  %c.val = load ptr, ptr %c, align 8
  %call167 = invoke fastcc noundef zeroext i1 @_ZN8facebook5velox9functions9prestosql12_GLOBAL__N_110isLessThenERKNSt7__cxx1112basic_stringIcSt11char_traitsIcESaIcEEESB_RKSt10shared_ptrIKNS0_4core20FieldAccessTypedExprEElSB_(ptr noundef nonnull align 8 dereferenceable(32) %prefix, ptr noundef nonnull align 8 dereferenceable(32) %op2, ptr %c.val, i64 noundef %217, ptr noundef nonnull align 8 dereferenceable(32) %left)
          to label %invoke.cont166 unwind label %lpad165

invoke.cont166:                                   ; preds = %_ZNSt10shared_ptrIKN8facebook5velox4core10ITypedExprEEC2ERKS5_.exit532
  %isLessThen = getelementptr inbounds %"struct.facebook::velox::functions::prestosql::SimpleComparison", ptr %ref.tmp163, i64 0, i32 1
  %frombool = zext i1 %call167 to i8
  store i8 %frombool, ptr %isLessThen, align 16
  %218 = load <2 x ptr>, ptr %ref.tmp163, align 16
  store ptr null, ptr %_M_refcount.i.i523, align 8
  store <2 x ptr> %218, ptr %agg.result, align 8
  store ptr null, ptr %ref.tmp163, align 16
  %isLessThen.i.i.i.i.i.i.i = getelementptr inbounds %"struct.facebook::velox::functions::prestosql::SimpleComparison", ptr %agg.result, i64 0, i32 1
  store i8 %frombool, ptr %isLessThen.i.i.i.i.i.i.i, align 8
  %_M_engaged.i.i.i.i.i533 = getelementptr inbounds %"struct.std::_Optional_payload_base", ptr %agg.result, i64 0, i32 1
  store i8 1, ptr %_M_engaged.i.i.i.i.i533, align 8
  call void @_ZN8facebook5velox9functions9prestosql16SimpleComparisonD2Ev(ptr noundef nonnull align 8 dereferenceable(17) %ref.tmp163) #17
  br label %cleanup

lpad149:                                          ; preds = %if.then.i.i.i514, %invoke.cont153
  %219 = landingpad { ptr, i32 }
          cleanup
  br label %ehcleanup203

lpad165:                                          ; preds = %_ZNSt10shared_ptrIKN8facebook5velox4core10ITypedExprEEC2ERKS5_.exit532
  %220 = landingpad { ptr, i32 }
          cleanup
  call void @_ZNSt10shared_ptrIKN8facebook5velox4core10ITypedExprEED2Ev(ptr noundef nonnull align 8 dereferenceable(16) %ref.tmp163) #17
  br label %ehcleanup199

if.end169:                                        ; preds = %_ZNSt10shared_ptrIKN8facebook5velox4core10ITypedExprEEC2ERKS5_.exit
  %call170 = call noundef zeroext i1 @_ZSteqIcEN9__gnu_cxx11__enable_ifIXsr9__is_charIT_EE7__valueEbE6__typeERKNSt7__cxx1112basic_stringIS2_St11char_traitsIS2_ESaIS2_EEESC_(ptr noundef nonnull align 8 dereferenceable(32) %op2, ptr noundef nonnull align 8 dereferenceable(32) %eq) #17
  br i1 %call170, label %if.then171, label %if.end180

if.then171:                                       ; preds = %if.end169
  %_M_refcount.i.i534 = getelementptr inbounds %"class.std::__shared_ptr", ptr %ref.tmp172, i64 0, i32 1
  %221 = load <2 x ptr>, ptr %transform, align 16
  store <2 x ptr> %221, ptr %ref.tmp172, align 16
  %222 = extractelement <2 x ptr> %221, i64 1
  %cmp.not.i.i.i536 = icmp eq ptr %222, null
  br i1 %cmp.not.i.i.i536, label %_ZNSt10shared_ptrIKN8facebook5velox4core10ITypedExprEEC2ERKS5_.exit543, label %if.then.i.i.i537

if.then.i.i.i537:                                 ; preds = %if.then171
  %_M_use_count.i.i.i.i538 = getelementptr inbounds %"class.std::_Sp_counted_base", ptr %222, i64 0, i32 1
  %223 = load i8, ptr @__libc_single_threaded, align 1
  %tobool.i.not.i.i.i.i539 = icmp eq i8 %223, 0
  br i1 %tobool.i.not.i.i.i.i539, label %if.else.i.i.i.i.i542, label %if.then.i.i.i.i.i540

if.then.i.i.i.i.i540:                             ; preds = %if.then.i.i.i537
  %224 = load i32, ptr %_M_use_count.i.i.i.i538, align 4
  %add.i.i.i.i.i541 = add nsw i32 %224, 1
  store i32 %add.i.i.i.i.i541, ptr %_M_use_count.i.i.i.i538, align 4
  br label %_ZNSt10shared_ptrIKN8facebook5velox4core10ITypedExprEEC2ERKS5_.exit543

if.else.i.i.i.i.i542:                             ; preds = %if.then.i.i.i537
  %225 = atomicrmw volatile add ptr %_M_use_count.i.i.i.i538, i32 1 acq_rel, align 4
  br label %_ZNSt10shared_ptrIKN8facebook5velox4core10ITypedExprEEC2ERKS5_.exit543

_ZNSt10shared_ptrIKN8facebook5velox4core10ITypedExprEEC2ERKS5_.exit543: ; preds = %if.then171, %if.then.i.i.i.i.i540, %if.else.i.i.i.i.i542
  %226 = load i64, ptr %c1, align 8
  %a.val = load ptr, ptr %a, align 8
  %call177 = invoke fastcc noundef zeroext i1 @_ZN8facebook5velox9functions9prestosql12_GLOBAL__N_110isLessThenERKNSt7__cxx1112basic_stringIcSt11char_traitsIcESaIcEEESB_RKSt10shared_ptrIKNS0_4core20FieldAccessTypedExprEElSB_(ptr noundef nonnull align 8 dereferenceable(32) %prefix, ptr noundef nonnull align 8 dereferenceable(32) %op1, ptr %a.val, i64 noundef %226, ptr noundef nonnull align 8 dereferenceable(32) %left)
          to label %invoke.cont176 unwind label %lpad175

invoke.cont176:                                   ; preds = %_ZNSt10shared_ptrIKN8facebook5velox4core10ITypedExprEEC2ERKS5_.exit543
  %isLessThen174 = getelementptr inbounds %"struct.facebook::velox::functions::prestosql::SimpleComparison", ptr %ref.tmp172, i64 0, i32 1
  %frombool178 = zext i1 %call177 to i8
  store i8 %frombool178, ptr %isLessThen174, align 16
  %227 = load <2 x ptr>, ptr %ref.tmp172, align 16
  store ptr null, ptr %_M_refcount.i.i534, align 8
  store <2 x ptr> %227, ptr %agg.result, align 8
  store ptr null, ptr %ref.tmp172, align 16
  %isLessThen.i.i.i.i.i.i.i546 = getelementptr inbounds %"struct.facebook::velox::functions::prestosql::SimpleComparison", ptr %agg.result, i64 0, i32 1
  store i8 %frombool178, ptr %isLessThen.i.i.i.i.i.i.i546, align 8
  %_M_engaged.i.i.i.i.i548 = getelementptr inbounds %"struct.std::_Optional_payload_base", ptr %agg.result, i64 0, i32 1
  store i8 1, ptr %_M_engaged.i.i.i.i.i548, align 8
  call void @_ZN8facebook5velox9functions9prestosql16SimpleComparisonD2Ev(ptr noundef nonnull align 8 dereferenceable(17) %ref.tmp172) #17
  br label %cleanup

lpad175:                                          ; preds = %_ZNSt10shared_ptrIKN8facebook5velox4core10ITypedExprEEC2ERKS5_.exit543
  %228 = landingpad { ptr, i32 }
          cleanup
  call void @_ZNSt10shared_ptrIKN8facebook5velox4core10ITypedExprEED2Ev(ptr noundef nonnull align 8 dereferenceable(16) %ref.tmp172) #17
  br label %ehcleanup199

if.end180:                                        ; preds = %if.end169
  %229 = load i64, ptr %c1, align 8
  %a.val54 = load ptr, ptr %a, align 8
  %call183 = invoke fastcc noundef zeroext i1 @_ZN8facebook5velox9functions9prestosql12_GLOBAL__N_110isLessThenERKNSt7__cxx1112basic_stringIcSt11char_traitsIcESaIcEEESB_RKSt10shared_ptrIKNS0_4core20FieldAccessTypedExprEElSB_(ptr noundef nonnull align 8 dereferenceable(32) %prefix, ptr noundef nonnull align 8 dereferenceable(32) %op1, ptr %a.val54, i64 noundef %229, ptr noundef nonnull align 8 dereferenceable(32) %left)
          to label %invoke.cont182 unwind label %lpad181

invoke.cont182:                                   ; preds = %if.end180
  %frombool184 = zext i1 %call183 to i8
  %230 = load i64, ptr %c2, align 8
  %c.val55 = load ptr, ptr %c, align 8
  %call186 = invoke fastcc noundef zeroext i1 @_ZN8facebook5velox9functions9prestosql12_GLOBAL__N_110isLessThenERKNSt7__cxx1112basic_stringIcSt11char_traitsIcESaIcEEESB_RKSt10shared_ptrIKNS0_4core20FieldAccessTypedExprEElSB_(ptr noundef nonnull align 8 dereferenceable(32) %prefix, ptr noundef nonnull align 8 dereferenceable(32) %op2, ptr %c.val55, i64 noundef %230, ptr noundef nonnull align 8 dereferenceable(32) %left)
          to label %invoke.cont185 unwind label %lpad181

invoke.cont185:                                   ; preds = %invoke.cont182
  %231 = xor i1 %call183, %call186
  br i1 %231, label %if.then191, label %if.end193

if.then191:                                       ; preds = %invoke.cont185
  %_M_engaged.i.i.i.i.i549 = getelementptr inbounds %"struct.std::_Optional_payload_base", ptr %agg.result, i64 0, i32 1
  store i8 0, ptr %_M_engaged.i.i.i.i.i549, align 8
  br label %cleanup

lpad181:                                          ; preds = %invoke.cont182, %if.end180
  %232 = landingpad { ptr, i32 }
          cleanup
  br label %ehcleanup199

if.end193:                                        ; preds = %invoke.cont185
  %233 = load ptr, ptr %transform, align 16
  store ptr %233, ptr %ref.tmp194, align 8
  %_M_refcount.i.i550 = getelementptr inbounds %"class.std::__shared_ptr", ptr %ref.tmp194, i64 0, i32 1
  %234 = load ptr, ptr %_M_refcount.i.i516, align 8
  store ptr %234, ptr %_M_refcount.i.i550, align 8
  %cmp.not.i.i.i552 = icmp eq ptr %234, null
  br i1 %cmp.not.i.i.i552, label %_ZNSt10shared_ptrIKN8facebook5velox4core10ITypedExprEEC2ERKS5_.exit559, label %if.then.i.i.i553

if.then.i.i.i553:                                 ; preds = %if.end193
  %_M_use_count.i.i.i.i554 = getelementptr inbounds %"class.std::_Sp_counted_base", ptr %234, i64 0, i32 1
  %235 = load i8, ptr @__libc_single_threaded, align 1
  %tobool.i.not.i.i.i.i555 = icmp eq i8 %235, 0
  br i1 %tobool.i.not.i.i.i.i555, label %if.else.i.i.i.i.i558, label %if.then.i.i.i.i.i556

if.then.i.i.i.i.i556:                             ; preds = %if.then.i.i.i553
  %236 = load i32, ptr %_M_use_count.i.i.i.i554, align 4
  %add.i.i.i.i.i557 = add nsw i32 %236, 1
  store i32 %add.i.i.i.i.i557, ptr %_M_use_count.i.i.i.i554, align 4
  br label %_ZNSt10shared_ptrIKN8facebook5velox4core10ITypedExprEEC2ERKS5_.exit559

if.else.i.i.i.i.i558:                             ; preds = %if.then.i.i.i553
  %237 = atomicrmw volatile add ptr %_M_use_count.i.i.i.i554, i32 1 acq_rel, align 4
  %.pre = load ptr, ptr %ref.tmp194, align 8
  br label %_ZNSt10shared_ptrIKN8facebook5velox4core10ITypedExprEEC2ERKS5_.exit559

_ZNSt10shared_ptrIKN8facebook5velox4core10ITypedExprEEC2ERKS5_.exit559: ; preds = %if.end193, %if.then.i.i.i.i.i556, %if.else.i.i.i.i.i558
  %238 = phi ptr [ %233, %if.end193 ], [ %233, %if.then.i.i.i.i.i556 ], [ %.pre, %if.else.i.i.i.i.i558 ]
  %isLessThen196 = getelementptr inbounds %"struct.facebook::velox::functions::prestosql::SimpleComparison", ptr %ref.tmp194, i64 0, i32 1
  store i8 %frombool184, ptr %isLessThen196, align 8
  store ptr %238, ptr %agg.result, align 8
  %_M_refcount.i.i.i.i.i.i.i.i.i560 = getelementptr inbounds %"class.std::__shared_ptr", ptr %agg.result, i64 0, i32 1
  %239 = load ptr, ptr %_M_refcount.i.i550, align 8
  store ptr null, ptr %_M_refcount.i.i550, align 8
  store ptr %239, ptr %_M_refcount.i.i.i.i.i.i.i.i.i560, align 8
  store ptr null, ptr %ref.tmp194, align 8
  %isLessThen.i.i.i.i.i.i.i562 = getelementptr inbounds %"struct.facebook::velox::functions::prestosql::SimpleComparison", ptr %agg.result, i64 0, i32 1
  store i8 %frombool184, ptr %isLessThen.i.i.i.i.i.i.i562, align 8
  %_M_engaged.i.i.i.i.i564 = getelementptr inbounds %"struct.std::_Optional_payload_base", ptr %agg.result, i64 0, i32 1
  store i8 1, ptr %_M_engaged.i.i.i.i.i564, align 8
  call void @_ZN8facebook5velox9functions9prestosql16SimpleComparisonD2Ev(ptr noundef nonnull align 8 dereferenceable(17) %ref.tmp194) #17
  br label %cleanup

cleanup:                                          ; preds = %_ZNSt10shared_ptrIKN8facebook5velox4core10ITypedExprEEC2ERKS5_.exit559, %if.then191, %invoke.cont176, %invoke.cont166
  call void @_ZNSt10shared_ptrIKN8facebook5velox4core10ITypedExprEED2Ev(ptr noundef nonnull align 8 dereferenceable(16) %transform) #17
  call void @_ZNSt7__cxx1112basic_stringIcSt11char_traitsIcESaIcEED1Ev(ptr noundef nonnull align 8 dereferenceable(32) %left) #17
  br label %cleanup202

ehcleanup199:                                     ; preds = %lpad181, %lpad175, %lpad165
  %.pn26 = phi { ptr, i32 } [ %220, %lpad165 ], [ %228, %lpad175 ], [ %232, %lpad181 ]
  call void @_ZNSt10shared_ptrIKN8facebook5velox4core10ITypedExprEED2Ev(ptr noundef nonnull align 8 dereferenceable(16) %transform) #17
  call void @_ZNSt7__cxx1112basic_stringIcSt11char_traitsIcESaIcEED1Ev(ptr noundef nonnull align 8 dereferenceable(32) %left) #17
  br label %ehcleanup203

cleanup202:                                       ; preds = %cleanup, %if.then146, %if.then136
  call void @_ZNSt7__cxx1112basic_stringIcSt11char_traitsIcESaIcEED1Ev(ptr noundef nonnull align 8 dereferenceable(32) %eq) #17
  br label %cleanup204

ehcleanup203:                                     ; preds = %ehcleanup199, %lpad149
  %.pn26.pn = phi { ptr, i32 } [ %.pn26, %ehcleanup199 ], [ %219, %lpad149 ]
  call void @_ZNSt7__cxx1112basic_stringIcSt11char_traitsIcESaIcEED1Ev(ptr noundef nonnull align 8 dereferenceable(32) %eq) #17
  br label %ehcleanup205

cleanup204:                                       ; preds = %cleanup202, %if.then125, %if.then118
  %_M_refcount.i.i565 = getelementptr inbounds %"class.std::__shared_ptr", ptr %xRewritten, i64 0, i32 1
  %240 = load ptr, ptr %_M_refcount.i.i565, align 8
  %cmp.not.i.i.i566 = icmp eq ptr %240, null
  br i1 %cmp.not.i.i.i566, label %_ZNSt10shared_ptrIKN8facebook5velox4core10ITypedExprEED2Ev.exit596, label %if.then.i.i.i567

if.then.i.i.i567:                                 ; preds = %cleanup204
  %_M_use_count.i.i.i.i568 = getelementptr inbounds %"class.std::_Sp_counted_base", ptr %240, i64 0, i32 1
  %241 = load atomic i64, ptr %_M_use_count.i.i.i.i568 acquire, align 8
  %cmp.i.i.i.i569 = icmp eq i64 %241, 4294967297
  %242 = trunc i64 %241 to i32
  br i1 %cmp.i.i.i.i569, label %if.then.i.i.i.i592, label %if.end.i.i.i.i570

if.then.i.i.i.i592:                               ; preds = %if.then.i.i.i567
  store i32 0, ptr %_M_use_count.i.i.i.i568, align 8
  %_M_weak_count.i.i.i.i593 = getelementptr inbounds %"class.std::_Sp_counted_base", ptr %240, i64 0, i32 2
  store i32 0, ptr %_M_weak_count.i.i.i.i593, align 4
  %vtable.i.i.i.i594 = load ptr, ptr %240, align 8
  %vfn.i.i.i.i595 = getelementptr inbounds ptr, ptr %vtable.i.i.i.i594, i64 2
  %243 = load ptr, ptr %vfn.i.i.i.i595, align 8
  call void %243(ptr noundef nonnull align 8 dereferenceable(16) %240) #17
  br label %if.end8.sink.split.i.i.i.i587

if.end.i.i.i.i570:                                ; preds = %if.then.i.i.i567
  %244 = load i8, ptr @__libc_single_threaded, align 1
  %tobool.i.i.not.i.i.i.i571 = icmp eq i8 %244, 0
  br i1 %tobool.i.i.not.i.i.i.i571, label %if.else.i.i.i.i.i591, label %if.then.i.i.i.i.i572

if.then.i.i.i.i.i572:                             ; preds = %if.end.i.i.i.i570
  %add.i.i.i.i.i573 = add nsw i32 %242, -1
  store i32 %add.i.i.i.i.i573, ptr %_M_use_count.i.i.i.i568, align 4
  br label %_ZN9__gnu_cxx27__exchange_and_add_dispatchEPii.exit.i.i.i.i574

if.else.i.i.i.i.i591:                             ; preds = %if.end.i.i.i.i570
  %245 = atomicrmw volatile add ptr %_M_use_count.i.i.i.i568, i32 -1 acq_rel, align 4
  br label %_ZN9__gnu_cxx27__exchange_and_add_dispatchEPii.exit.i.i.i.i574

_ZN9__gnu_cxx27__exchange_and_add_dispatchEPii.exit.i.i.i.i574: ; preds = %if.else.i.i.i.i.i591, %if.then.i.i.i.i.i572
  %retval.i.0.i.i.i.i575 = phi i32 [ %242, %if.then.i.i.i.i.i572 ], [ %245, %if.else.i.i.i.i.i591 ]
  %cmp6.i.i.i.i576 = icmp eq i32 %retval.i.0.i.i.i.i575, 1
  br i1 %cmp6.i.i.i.i576, label %if.then7.i.i.i.i577, label %_ZNSt10shared_ptrIKN8facebook5velox4core10ITypedExprEED2Ev.exit596

if.then7.i.i.i.i577:                              ; preds = %_ZN9__gnu_cxx27__exchange_and_add_dispatchEPii.exit.i.i.i.i574
  %vtable.i.i.i.i.i.i578 = load ptr, ptr %240, align 8
  %vfn.i.i.i.i.i.i579 = getelementptr inbounds ptr, ptr %vtable.i.i.i.i.i.i578, i64 2
  %246 = load ptr, ptr %vfn.i.i.i.i.i.i579, align 8
  call void %246(ptr noundef nonnull align 8 dereferenceable(16) %240) #17
  %_M_weak_count.i.i.i.i.i.i580 = getelementptr inbounds %"class.std::_Sp_counted_base", ptr %240, i64 0, i32 2
  %247 = load i8, ptr @__libc_single_threaded, align 1
  %tobool.i.i.not.i.i.i.i.i.i581 = icmp eq i8 %247, 0
  br i1 %tobool.i.i.not.i.i.i.i.i.i581, label %if.else.i.i.i.i.i.i.i590, label %if.then.i.i.i.i.i.i.i582

if.then.i.i.i.i.i.i.i582:                         ; preds = %if.then7.i.i.i.i577
  %248 = load i32, ptr %_M_weak_count.i.i.i.i.i.i580, align 4
  %add.i.i.i.i.i.i.i583 = add nsw i32 %248, -1
  store i32 %add.i.i.i.i.i.i.i583, ptr %_M_weak_count.i.i.i.i.i.i580, align 4
  br label %_ZN9__gnu_cxx27__exchange_and_add_dispatchEPii.exit.i.i.i.i.i.i584

if.else.i.i.i.i.i.i.i590:                         ; preds = %if.then7.i.i.i.i577
  %249 = atomicrmw volatile add ptr %_M_weak_count.i.i.i.i.i.i580, i32 -1 acq_rel, align 4
  br label %_ZN9__gnu_cxx27__exchange_and_add_dispatchEPii.exit.i.i.i.i.i.i584

_ZN9__gnu_cxx27__exchange_and_add_dispatchEPii.exit.i.i.i.i.i.i584: ; preds = %if.else.i.i.i.i.i.i.i590, %if.then.i.i.i.i.i.i.i582
  %retval.i.0.i.i.i.i.i.i585 = phi i32 [ %248, %if.then.i.i.i.i.i.i.i582 ], [ %249, %if.else.i.i.i.i.i.i.i590 ]
  %cmp.i.i.i.i.i.i586 = icmp eq i32 %retval.i.0.i.i.i.i.i.i585, 1
  br i1 %cmp.i.i.i.i.i.i586, label %if.end8.sink.split.i.i.i.i587, label %_ZNSt10shared_ptrIKN8facebook5velox4core10ITypedExprEED2Ev.exit596

if.end8.sink.split.i.i.i.i587:                    ; preds = %_ZN9__gnu_cxx27__exchange_and_add_dispatchEPii.exit.i.i.i.i.i.i584, %if.then.i.i.i.i592
  %vtable2.i.i.i.i.i.i588 = load ptr, ptr %240, align 8
  %vfn3.i.i.i.i.i.i589 = getelementptr inbounds ptr, ptr %vtable2.i.i.i.i.i.i588, i64 3
  %250 = load ptr, ptr %vfn3.i.i.i.i.i.i589, align 8
  call void %250(ptr noundef nonnull align 8 dereferenceable(16) %240) #17
  br label %_ZNSt10shared_ptrIKN8facebook5velox4core10ITypedExprEED2Ev.exit596

_ZNSt10shared_ptrIKN8facebook5velox4core10ITypedExprEED2Ev.exit596: ; preds = %cleanup204, %_ZN9__gnu_cxx27__exchange_and_add_dispatchEPii.exit.i.i.i.i574, %_ZN9__gnu_cxx27__exchange_and_add_dispatchEPii.exit.i.i.i.i.i.i584, %if.end8.sink.split.i.i.i.i587
  call void @_ZNSt10_HashtableINSt7__cxx1112basic_stringIcSt11char_traitsIcESaIcEEESt4pairIKS5_St10shared_ptrIKN8facebook5velox4core10ITypedExprEEESaISF_ENSt8__detail10_Select1stESt8equal_toIS5_ESt4hashIS5_ENSH_18_Mod_range_hashingENSH_20_Default_ranged_hashENSH_20_Prime_rehash_policyENSH_17_Hashtable_traitsILb1ELb0ELb1EEEE5clearEv(ptr noundef nonnull align 8 dereferenceable(56) %inputMapping) #17
  %251 = load ptr, ptr %inputMapping, align 8
  %cmp.i.i.i.i.i = icmp eq ptr %_M_single_bucket.i.i, %251
  br i1 %cmp.i.i.i.i.i, label %cleanup208, label %if.end.i.i.i.i597

if.end.i.i.i.i597:                                ; preds = %_ZNSt10shared_ptrIKN8facebook5velox4core10ITypedExprEED2Ev.exit596
  call void @_ZdlPv(ptr noundef %251) #20
  br label %cleanup208

ehcleanup205:                                     ; preds = %ehcleanup203, %ehcleanup117, %lpad73
  %.pn26.pn.pn = phi { ptr, i32 } [ %.pn26.pn, %ehcleanup203 ], [ %188, %lpad73 ], [ %.pn23.pn, %ehcleanup117 ]
  call void @_ZNSt10shared_ptrIKN8facebook5velox4core10ITypedExprEED2Ev(ptr noundef nonnull align 8 dereferenceable(16) %xRewritten) #17
  br label %ehcleanup207

ehcleanup207:                                     ; preds = %ehcleanup205, %lpad60, %lpad49
  %.pn26.pn.pn.pn = phi { ptr, i32 } [ %.pn26.pn.pn, %ehcleanup205 ], [ %186, %lpad49 ], [ %187, %lpad60 ]
  call void @_ZNSt13unordered_mapINSt7__cxx1112basic_stringIcSt11char_traitsIcESaIcEEESt10shared_ptrIKN8facebook5velox4core10ITypedExprEESt4hashIS5_ESt8equal_toIS5_ESaISt4pairIKS5_SC_EEED2Ev(ptr noundef nonnull align 8 dereferenceable(56) %inputMapping) #17
  br label %ehcleanup209

cleanup208:                                       ; preds = %if.end.i.i.i.i597, %_ZNSt10shared_ptrIKN8facebook5velox4core10ITypedExprEED2Ev.exit596, %if.then45, %if.then
  %252 = getelementptr inbounds i8, ptr %matcher, i64 8
  %matcher.val = load ptr, ptr %252, align 8
  %cmp.not.i.i.i598 = icmp eq ptr %matcher.val, null
  br i1 %cmp.not.i.i.i598, label %_ZNSt10shared_ptrIN8facebook5velox9functions9prestosql12_GLOBAL__N_17MatcherEED2Ev.exit628, label %if.then.i.i.i599

if.then.i.i.i599:                                 ; preds = %cleanup208
  %_M_use_count.i.i.i.i600 = getelementptr inbounds %"class.std::_Sp_counted_base", ptr %matcher.val, i64 0, i32 1
  %253 = load atomic i64, ptr %_M_use_count.i.i.i.i600 acquire, align 8
  %cmp.i.i.i.i601 = icmp eq i64 %253, 4294967297
  %254 = trunc i64 %253 to i32
  br i1 %cmp.i.i.i.i601, label %if.then.i.i.i.i624, label %if.end.i.i.i.i602

if.then.i.i.i.i624:                               ; preds = %if.then.i.i.i599
  store i32 0, ptr %_M_use_count.i.i.i.i600, align 8
  %_M_weak_count.i.i.i.i625 = getelementptr inbounds %"class.std::_Sp_counted_base", ptr %matcher.val, i64 0, i32 2
  store i32 0, ptr %_M_weak_count.i.i.i.i625, align 4
  %vtable.i.i.i.i626 = load ptr, ptr %matcher.val, align 8
  %vfn.i.i.i.i627 = getelementptr inbounds ptr, ptr %vtable.i.i.i.i626, i64 2
  %255 = load ptr, ptr %vfn.i.i.i.i627, align 8
  call void %255(ptr noundef nonnull align 8 dereferenceable(16) %matcher.val) #17
  br label %if.end8.sink.split.i.i.i.i619

if.end.i.i.i.i602:                                ; preds = %if.then.i.i.i599
  %256 = load i8, ptr @__libc_single_threaded, align 1
  %tobool.i.i.not.i.i.i.i603 = icmp eq i8 %256, 0
  br i1 %tobool.i.i.not.i.i.i.i603, label %if.else.i.i.i.i.i623, label %if.then.i.i.i.i.i604

if.then.i.i.i.i.i604:                             ; preds = %if.end.i.i.i.i602
  %add.i.i.i.i.i605 = add nsw i32 %254, -1
  store i32 %add.i.i.i.i.i605, ptr %_M_use_count.i.i.i.i600, align 4
  br label %_ZN9__gnu_cxx27__exchange_and_add_dispatchEPii.exit.i.i.i.i606

if.else.i.i.i.i.i623:                             ; preds = %if.end.i.i.i.i602
  %257 = atomicrmw volatile add ptr %_M_use_count.i.i.i.i600, i32 -1 acq_rel, align 4
  br label %_ZN9__gnu_cxx27__exchange_and_add_dispatchEPii.exit.i.i.i.i606

_ZN9__gnu_cxx27__exchange_and_add_dispatchEPii.exit.i.i.i.i606: ; preds = %if.else.i.i.i.i.i623, %if.then.i.i.i.i.i604
  %retval.i.0.i.i.i.i607 = phi i32 [ %254, %if.then.i.i.i.i.i604 ], [ %257, %if.else.i.i.i.i.i623 ]
  %cmp6.i.i.i.i608 = icmp eq i32 %retval.i.0.i.i.i.i607, 1
  br i1 %cmp6.i.i.i.i608, label %if.then7.i.i.i.i609, label %_ZNSt10shared_ptrIN8facebook5velox9functions9prestosql12_GLOBAL__N_17MatcherEED2Ev.exit628

if.then7.i.i.i.i609:                              ; preds = %_ZN9__gnu_cxx27__exchange_and_add_dispatchEPii.exit.i.i.i.i606
  %vtable.i.i.i.i.i.i610 = load ptr, ptr %matcher.val, align 8
  %vfn.i.i.i.i.i.i611 = getelementptr inbounds ptr, ptr %vtable.i.i.i.i.i.i610, i64 2
  %258 = load ptr, ptr %vfn.i.i.i.i.i.i611, align 8
  call void %258(ptr noundef nonnull align 8 dereferenceable(16) %matcher.val) #17
  %_M_weak_count.i.i.i.i.i.i612 = getelementptr inbounds %"class.std::_Sp_counted_base", ptr %matcher.val, i64 0, i32 2
  %259 = load i8, ptr @__libc_single_threaded, align 1
  %tobool.i.i.not.i.i.i.i.i.i613 = icmp eq i8 %259, 0
  br i1 %tobool.i.i.not.i.i.i.i.i.i613, label %if.else.i.i.i.i.i.i.i622, label %if.then.i.i.i.i.i.i.i614

if.then.i.i.i.i.i.i.i614:                         ; preds = %if.then7.i.i.i.i609
  %260 = load i32, ptr %_M_weak_count.i.i.i.i.i.i612, align 4
  %add.i.i.i.i.i.i.i615 = add nsw i32 %260, -1
  store i32 %add.i.i.i.i.i.i.i615, ptr %_M_weak_count.i.i.i.i.i.i612, align 4
  br label %_ZN9__gnu_cxx27__exchange_and_add_dispatchEPii.exit.i.i.i.i.i.i616

if.else.i.i.i.i.i.i.i622:                         ; preds = %if.then7.i.i.i.i609
  %261 = atomicrmw volatile add ptr %_M_weak_count.i.i.i.i.i.i612, i32 -1 acq_rel, align 4
  br label %_ZN9__gnu_cxx27__exchange_and_add_dispatchEPii.exit.i.i.i.i.i.i616

_ZN9__gnu_cxx27__exchange_and_add_dispatchEPii.exit.i.i.i.i.i.i616: ; preds = %if.else.i.i.i.i.i.i.i622, %if.then.i.i.i.i.i.i.i614
  %retval.i.0.i.i.i.i.i.i617 = phi i32 [ %260, %if.then.i.i.i.i.i.i.i614 ], [ %261, %if.else.i.i.i.i.i.i.i622 ]
  %cmp.i.i.i.i.i.i618 = icmp eq i32 %retval.i.0.i.i.i.i.i.i617, 1
  br i1 %cmp.i.i.i.i.i.i618, label %if.end8.sink.split.i.i.i.i619, label %_ZNSt10shared_ptrIN8facebook5velox9functions9prestosql12_GLOBAL__N_17MatcherEED2Ev.exit628

if.end8.sink.split.i.i.i.i619:                    ; preds = %_ZN9__gnu_cxx27__exchange_and_add_dispatchEPii.exit.i.i.i.i.i.i616, %if.then.i.i.i.i624
  %vtable2.i.i.i.i.i.i620 = load ptr, ptr %matcher.val, align 8
  %vfn3.i.i.i.i.i.i621 = getelementptr inbounds ptr, ptr %vtable2.i.i.i.i.i.i620, i64 3
  %262 = load ptr, ptr %vfn3.i.i.i.i.i.i621, align 8
  call void %262(ptr noundef nonnull align 8 dereferenceable(16) %matcher.val) #17
  br label %_ZNSt10shared_ptrIN8facebook5velox9functions9prestosql12_GLOBAL__N_17MatcherEED2Ev.exit628

_ZNSt10shared_ptrIN8facebook5velox9functions9prestosql12_GLOBAL__N_17MatcherEED2Ev.exit628: ; preds = %cleanup208, %_ZN9__gnu_cxx27__exchange_and_add_dispatchEPii.exit.i.i.i.i606, %_ZN9__gnu_cxx27__exchange_and_add_dispatchEPii.exit.i.i.i.i.i.i616, %if.end8.sink.split.i.i.i.i619
  call void @_ZNSt7__cxx1112basic_stringIcSt11char_traitsIcESaIcEED1Ev(ptr noundef nonnull align 8 dereferenceable(32) %op2) #17
  call void @_ZNSt7__cxx1112basic_stringIcSt11char_traitsIcESaIcEED1Ev(ptr noundef nonnull align 8 dereferenceable(32) %op1) #17
  %_M_refcount.i.i629 = getelementptr inbounds %"class.std::__shared_ptr", ptr %v, i64 0, i32 1
  %263 = load ptr, ptr %_M_refcount.i.i629, align 8
  %cmp.not.i.i.i630 = icmp eq ptr %263, null
  br i1 %cmp.not.i.i.i630, label %_ZNSt10shared_ptrIKN8facebook5velox4core10ITypedExprEED2Ev.exit660, label %if.then.i.i.i631

if.then.i.i.i631:                                 ; preds = %_ZNSt10shared_ptrIN8facebook5velox9functions9prestosql12_GLOBAL__N_17MatcherEED2Ev.exit628
  %_M_use_count.i.i.i.i632 = getelementptr inbounds %"class.std::_Sp_counted_base", ptr %263, i64 0, i32 1
  %264 = load atomic i64, ptr %_M_use_count.i.i.i.i632 acquire, align 8
  %cmp.i.i.i.i633 = icmp eq i64 %264, 4294967297
  %265 = trunc i64 %264 to i32
  br i1 %cmp.i.i.i.i633, label %if.then.i.i.i.i656, label %if.end.i.i.i.i634

if.then.i.i.i.i656:                               ; preds = %if.then.i.i.i631
  store i32 0, ptr %_M_use_count.i.i.i.i632, align 8
  %_M_weak_count.i.i.i.i657 = getelementptr inbounds %"class.std::_Sp_counted_base", ptr %263, i64 0, i32 2
  store i32 0, ptr %_M_weak_count.i.i.i.i657, align 4
  %vtable.i.i.i.i658 = load ptr, ptr %263, align 8
  %vfn.i.i.i.i659 = getelementptr inbounds ptr, ptr %vtable.i.i.i.i658, i64 2
  %266 = load ptr, ptr %vfn.i.i.i.i659, align 8
  call void %266(ptr noundef nonnull align 8 dereferenceable(16) %263) #17
  br label %if.end8.sink.split.i.i.i.i651

if.end.i.i.i.i634:                                ; preds = %if.then.i.i.i631
  %267 = load i8, ptr @__libc_single_threaded, align 1
  %tobool.i.i.not.i.i.i.i635 = icmp eq i8 %267, 0
  br i1 %tobool.i.i.not.i.i.i.i635, label %if.else.i.i.i.i.i655, label %if.then.i.i.i.i.i636

if.then.i.i.i.i.i636:                             ; preds = %if.end.i.i.i.i634
  %add.i.i.i.i.i637 = add nsw i32 %265, -1
  store i32 %add.i.i.i.i.i637, ptr %_M_use_count.i.i.i.i632, align 4
  br label %_ZN9__gnu_cxx27__exchange_and_add_dispatchEPii.exit.i.i.i.i638

if.else.i.i.i.i.i655:                             ; preds = %if.end.i.i.i.i634
  %268 = atomicrmw volatile add ptr %_M_use_count.i.i.i.i632, i32 -1 acq_rel, align 4
  br label %_ZN9__gnu_cxx27__exchange_and_add_dispatchEPii.exit.i.i.i.i638

_ZN9__gnu_cxx27__exchange_and_add_dispatchEPii.exit.i.i.i.i638: ; preds = %if.else.i.i.i.i.i655, %if.then.i.i.i.i.i636
  %retval.i.0.i.i.i.i639 = phi i32 [ %265, %if.then.i.i.i.i.i636 ], [ %268, %if.else.i.i.i.i.i655 ]
  %cmp6.i.i.i.i640 = icmp eq i32 %retval.i.0.i.i.i.i639, 1
  br i1 %cmp6.i.i.i.i640, label %if.then7.i.i.i.i641, label %_ZNSt10shared_ptrIKN8facebook5velox4core10ITypedExprEED2Ev.exit660

if.then7.i.i.i.i641:                              ; preds = %_ZN9__gnu_cxx27__exchange_and_add_dispatchEPii.exit.i.i.i.i638
  %vtable.i.i.i.i.i.i642 = load ptr, ptr %263, align 8
  %vfn.i.i.i.i.i.i643 = getelementptr inbounds ptr, ptr %vtable.i.i.i.i.i.i642, i64 2
  %269 = load ptr, ptr %vfn.i.i.i.i.i.i643, align 8
  call void %269(ptr noundef nonnull align 8 dereferenceable(16) %263) #17
  %_M_weak_count.i.i.i.i.i.i644 = getelementptr inbounds %"class.std::_Sp_counted_base", ptr %263, i64 0, i32 2
  %270 = load i8, ptr @__libc_single_threaded, align 1
  %tobool.i.i.not.i.i.i.i.i.i645 = icmp eq i8 %270, 0
  br i1 %tobool.i.i.not.i.i.i.i.i.i645, label %if.else.i.i.i.i.i.i.i654, label %if.then.i.i.i.i.i.i.i646

if.then.i.i.i.i.i.i.i646:                         ; preds = %if.then7.i.i.i.i641
  %271 = load i32, ptr %_M_weak_count.i.i.i.i.i.i644, align 4
  %add.i.i.i.i.i.i.i647 = add nsw i32 %271, -1
  store i32 %add.i.i.i.i.i.i.i647, ptr %_M_weak_count.i.i.i.i.i.i644, align 4
  br label %_ZN9__gnu_cxx27__exchange_and_add_dispatchEPii.exit.i.i.i.i.i.i648

if.else.i.i.i.i.i.i.i654:                         ; preds = %if.then7.i.i.i.i641
  %272 = atomicrmw volatile add ptr %_M_weak_count.i.i.i.i.i.i644, i32 -1 acq_rel, align 4
  br label %_ZN9__gnu_cxx27__exchange_and_add_dispatchEPii.exit.i.i.i.i.i.i648

_ZN9__gnu_cxx27__exchange_and_add_dispatchEPii.exit.i.i.i.i.i.i648: ; preds = %if.else.i.i.i.i.i.i.i654, %if.then.i.i.i.i.i.i.i646
  %retval.i.0.i.i.i.i.i.i649 = phi i32 [ %271, %if.then.i.i.i.i.i.i.i646 ], [ %272, %if.else.i.i.i.i.i.i.i654 ]
  %cmp.i.i.i.i.i.i650 = icmp eq i32 %retval.i.0.i.i.i.i.i.i649, 1
  br i1 %cmp.i.i.i.i.i.i650, label %if.end8.sink.split.i.i.i.i651, label %_ZNSt10shared_ptrIKN8facebook5velox4core10ITypedExprEED2Ev.exit660

if.end8.sink.split.i.i.i.i651:                    ; preds = %_ZN9__gnu_cxx27__exchange_and_add_dispatchEPii.exit.i.i.i.i.i.i648, %if.then.i.i.i.i656
  %vtable2.i.i.i.i.i.i652 = load ptr, ptr %263, align 8
  %vfn3.i.i.i.i.i.i653 = getelementptr inbounds ptr, ptr %vtable2.i.i.i.i.i.i652, i64 3
  %273 = load ptr, ptr %vfn3.i.i.i.i.i.i653, align 8
  call void %273(ptr noundef nonnull align 8 dereferenceable(16) %263) #17
  br label %_ZNSt10shared_ptrIKN8facebook5velox4core10ITypedExprEED2Ev.exit660

_ZNSt10shared_ptrIKN8facebook5velox4core10ITypedExprEED2Ev.exit660: ; preds = %_ZNSt10shared_ptrIN8facebook5velox9functions9prestosql12_GLOBAL__N_17MatcherEED2Ev.exit628, %_ZN9__gnu_cxx27__exchange_and_add_dispatchEPii.exit.i.i.i.i638, %_ZN9__gnu_cxx27__exchange_and_add_dispatchEPii.exit.i.i.i.i.i.i648, %if.end8.sink.split.i.i.i.i651
  %_M_refcount.i.i661 = getelementptr inbounds %"class.std::__shared_ptr", ptr %u, i64 0, i32 1
  %274 = load ptr, ptr %_M_refcount.i.i661, align 8
  %cmp.not.i.i.i662 = icmp eq ptr %274, null
  br i1 %cmp.not.i.i.i662, label %_ZNSt10shared_ptrIKN8facebook5velox4core10ITypedExprEED2Ev.exit692, label %if.then.i.i.i663

if.then.i.i.i663:                                 ; preds = %_ZNSt10shared_ptrIKN8facebook5velox4core10ITypedExprEED2Ev.exit660
  %_M_use_count.i.i.i.i664 = getelementptr inbounds %"class.std::_Sp_counted_base", ptr %274, i64 0, i32 1
  %275 = load atomic i64, ptr %_M_use_count.i.i.i.i664 acquire, align 8
  %cmp.i.i.i.i665 = icmp eq i64 %275, 4294967297
  %276 = trunc i64 %275 to i32
  br i1 %cmp.i.i.i.i665, label %if.then.i.i.i.i688, label %if.end.i.i.i.i666

if.then.i.i.i.i688:                               ; preds = %if.then.i.i.i663
  store i32 0, ptr %_M_use_count.i.i.i.i664, align 8
  %_M_weak_count.i.i.i.i689 = getelementptr inbounds %"class.std::_Sp_counted_base", ptr %274, i64 0, i32 2
  store i32 0, ptr %_M_weak_count.i.i.i.i689, align 4
  %vtable.i.i.i.i690 = load ptr, ptr %274, align 8
  %vfn.i.i.i.i691 = getelementptr inbounds ptr, ptr %vtable.i.i.i.i690, i64 2
  %277 = load ptr, ptr %vfn.i.i.i.i691, align 8
  call void %277(ptr noundef nonnull align 8 dereferenceable(16) %274) #17
  br label %if.end8.sink.split.i.i.i.i683

if.end.i.i.i.i666:                                ; preds = %if.then.i.i.i663
  %278 = load i8, ptr @__libc_single_threaded, align 1
  %tobool.i.i.not.i.i.i.i667 = icmp eq i8 %278, 0
  br i1 %tobool.i.i.not.i.i.i.i667, label %if.else.i.i.i.i.i687, label %if.then.i.i.i.i.i668

if.then.i.i.i.i.i668:                             ; preds = %if.end.i.i.i.i666
  %add.i.i.i.i.i669 = add nsw i32 %276, -1
  store i32 %add.i.i.i.i.i669, ptr %_M_use_count.i.i.i.i664, align 4
  br label %_ZN9__gnu_cxx27__exchange_and_add_dispatchEPii.exit.i.i.i.i670

if.else.i.i.i.i.i687:                             ; preds = %if.end.i.i.i.i666
  %279 = atomicrmw volatile add ptr %_M_use_count.i.i.i.i664, i32 -1 acq_rel, align 4
  br label %_ZN9__gnu_cxx27__exchange_and_add_dispatchEPii.exit.i.i.i.i670

_ZN9__gnu_cxx27__exchange_and_add_dispatchEPii.exit.i.i.i.i670: ; preds = %if.else.i.i.i.i.i687, %if.then.i.i.i.i.i668
  %retval.i.0.i.i.i.i671 = phi i32 [ %276, %if.then.i.i.i.i.i668 ], [ %279, %if.else.i.i.i.i.i687 ]
  %cmp6.i.i.i.i672 = icmp eq i32 %retval.i.0.i.i.i.i671, 1
  br i1 %cmp6.i.i.i.i672, label %if.then7.i.i.i.i673, label %_ZNSt10shared_ptrIKN8facebook5velox4core10ITypedExprEED2Ev.exit692

if.then7.i.i.i.i673:                              ; preds = %_ZN9__gnu_cxx27__exchange_and_add_dispatchEPii.exit.i.i.i.i670
  %vtable.i.i.i.i.i.i674 = load ptr, ptr %274, align 8
  %vfn.i.i.i.i.i.i675 = getelementptr inbounds ptr, ptr %vtable.i.i.i.i.i.i674, i64 2
  %280 = load ptr, ptr %vfn.i.i.i.i.i.i675, align 8
  call void %280(ptr noundef nonnull align 8 dereferenceable(16) %274) #17
  %_M_weak_count.i.i.i.i.i.i676 = getelementptr inbounds %"class.std::_Sp_counted_base", ptr %274, i64 0, i32 2
  %281 = load i8, ptr @__libc_single_threaded, align 1
  %tobool.i.i.not.i.i.i.i.i.i677 = icmp eq i8 %281, 0
  br i1 %tobool.i.i.not.i.i.i.i.i.i677, label %if.else.i.i.i.i.i.i.i686, label %if.then.i.i.i.i.i.i.i678

if.then.i.i.i.i.i.i.i678:                         ; preds = %if.then7.i.i.i.i673
  %282 = load i32, ptr %_M_weak_count.i.i.i.i.i.i676, align 4
  %add.i.i.i.i.i.i.i679 = add nsw i32 %282, -1
  store i32 %add.i.i.i.i.i.i.i679, ptr %_M_weak_count.i.i.i.i.i.i676, align 4
  br label %_ZN9__gnu_cxx27__exchange_and_add_dispatchEPii.exit.i.i.i.i.i.i680

if.else.i.i.i.i.i.i.i686:                         ; preds = %if.then7.i.i.i.i673
  %283 = atomicrmw volatile add ptr %_M_weak_count.i.i.i.i.i.i676, i32 -1 acq_rel, align 4
  br label %_ZN9__gnu_cxx27__exchange_and_add_dispatchEPii.exit.i.i.i.i.i.i680

_ZN9__gnu_cxx27__exchange_and_add_dispatchEPii.exit.i.i.i.i.i.i680: ; preds = %if.else.i.i.i.i.i.i.i686, %if.then.i.i.i.i.i.i.i678
  %retval.i.0.i.i.i.i.i.i681 = phi i32 [ %282, %if.then.i.i.i.i.i.i.i678 ], [ %283, %if.else.i.i.i.i.i.i.i686 ]
  %cmp.i.i.i.i.i.i682 = icmp eq i32 %retval.i.0.i.i.i.i.i.i681, 1
  br i1 %cmp.i.i.i.i.i.i682, label %if.end8.sink.split.i.i.i.i683, label %_ZNSt10shared_ptrIKN8facebook5velox4core10ITypedExprEED2Ev.exit692

if.end8.sink.split.i.i.i.i683:                    ; preds = %_ZN9__gnu_cxx27__exchange_and_add_dispatchEPii.exit.i.i.i.i.i.i680, %if.then.i.i.i.i688
  %vtable2.i.i.i.i.i.i684 = load ptr, ptr %274, align 8
  %vfn3.i.i.i.i.i.i685 = getelementptr inbounds ptr, ptr %vtable2.i.i.i.i.i.i684, i64 3
  %284 = load ptr, ptr %vfn3.i.i.i.i.i.i685, align 8
  call void %284(ptr noundef nonnull align 8 dereferenceable(16) %274) #17
  br label %_ZNSt10shared_ptrIKN8facebook5velox4core10ITypedExprEED2Ev.exit692

_ZNSt10shared_ptrIKN8facebook5velox4core10ITypedExprEED2Ev.exit692: ; preds = %_ZNSt10shared_ptrIKN8facebook5velox4core10ITypedExprEED2Ev.exit660, %_ZN9__gnu_cxx27__exchange_and_add_dispatchEPii.exit.i.i.i.i670, %_ZN9__gnu_cxx27__exchange_and_add_dispatchEPii.exit.i.i.i.i.i.i680, %if.end8.sink.split.i.i.i.i683
  %_M_refcount.i.i693 = getelementptr inbounds %"class.std::__shared_ptr", ptr %y, i64 0, i32 1
  %285 = load ptr, ptr %_M_refcount.i.i693, align 8
  %cmp.not.i.i.i694 = icmp eq ptr %285, null
  br i1 %cmp.not.i.i.i694, label %_ZNSt10shared_ptrIKN8facebook5velox4core10ITypedExprEED2Ev.exit724, label %if.then.i.i.i695

if.then.i.i.i695:                                 ; preds = %_ZNSt10shared_ptrIKN8facebook5velox4core10ITypedExprEED2Ev.exit692
  %_M_use_count.i.i.i.i696 = getelementptr inbounds %"class.std::_Sp_counted_base", ptr %285, i64 0, i32 1
  %286 = load atomic i64, ptr %_M_use_count.i.i.i.i696 acquire, align 8
  %cmp.i.i.i.i697 = icmp eq i64 %286, 4294967297
  %287 = trunc i64 %286 to i32
  br i1 %cmp.i.i.i.i697, label %if.then.i.i.i.i720, label %if.end.i.i.i.i698

if.then.i.i.i.i720:                               ; preds = %if.then.i.i.i695
  store i32 0, ptr %_M_use_count.i.i.i.i696, align 8
  %_M_weak_count.i.i.i.i721 = getelementptr inbounds %"class.std::_Sp_counted_base", ptr %285, i64 0, i32 2
  store i32 0, ptr %_M_weak_count.i.i.i.i721, align 4
  %vtable.i.i.i.i722 = load ptr, ptr %285, align 8
  %vfn.i.i.i.i723 = getelementptr inbounds ptr, ptr %vtable.i.i.i.i722, i64 2
  %288 = load ptr, ptr %vfn.i.i.i.i723, align 8
  call void %288(ptr noundef nonnull align 8 dereferenceable(16) %285) #17
  br label %if.end8.sink.split.i.i.i.i715

if.end.i.i.i.i698:                                ; preds = %if.then.i.i.i695
  %289 = load i8, ptr @__libc_single_threaded, align 1
  %tobool.i.i.not.i.i.i.i699 = icmp eq i8 %289, 0
  br i1 %tobool.i.i.not.i.i.i.i699, label %if.else.i.i.i.i.i719, label %if.then.i.i.i.i.i700

if.then.i.i.i.i.i700:                             ; preds = %if.end.i.i.i.i698
  %add.i.i.i.i.i701 = add nsw i32 %287, -1
  store i32 %add.i.i.i.i.i701, ptr %_M_use_count.i.i.i.i696, align 4
  br label %_ZN9__gnu_cxx27__exchange_and_add_dispatchEPii.exit.i.i.i.i702

if.else.i.i.i.i.i719:                             ; preds = %if.end.i.i.i.i698
  %290 = atomicrmw volatile add ptr %_M_use_count.i.i.i.i696, i32 -1 acq_rel, align 4
  br label %_ZN9__gnu_cxx27__exchange_and_add_dispatchEPii.exit.i.i.i.i702

_ZN9__gnu_cxx27__exchange_and_add_dispatchEPii.exit.i.i.i.i702: ; preds = %if.else.i.i.i.i.i719, %if.then.i.i.i.i.i700
  %retval.i.0.i.i.i.i703 = phi i32 [ %287, %if.then.i.i.i.i.i700 ], [ %290, %if.else.i.i.i.i.i719 ]
  %cmp6.i.i.i.i704 = icmp eq i32 %retval.i.0.i.i.i.i703, 1
  br i1 %cmp6.i.i.i.i704, label %if.then7.i.i.i.i705, label %_ZNSt10shared_ptrIKN8facebook5velox4core10ITypedExprEED2Ev.exit724

if.then7.i.i.i.i705:                              ; preds = %_ZN9__gnu_cxx27__exchange_and_add_dispatchEPii.exit.i.i.i.i702
  %vtable.i.i.i.i.i.i706 = load ptr, ptr %285, align 8
  %vfn.i.i.i.i.i.i707 = getelementptr inbounds ptr, ptr %vtable.i.i.i.i.i.i706, i64 2
  %291 = load ptr, ptr %vfn.i.i.i.i.i.i707, align 8
  call void %291(ptr noundef nonnull align 8 dereferenceable(16) %285) #17
  %_M_weak_count.i.i.i.i.i.i708 = getelementptr inbounds %"class.std::_Sp_counted_base", ptr %285, i64 0, i32 2
  %292 = load i8, ptr @__libc_single_threaded, align 1
  %tobool.i.i.not.i.i.i.i.i.i709 = icmp eq i8 %292, 0
  br i1 %tobool.i.i.not.i.i.i.i.i.i709, label %if.else.i.i.i.i.i.i.i718, label %if.then.i.i.i.i.i.i.i710

if.then.i.i.i.i.i.i.i710:                         ; preds = %if.then7.i.i.i.i705
  %293 = load i32, ptr %_M_weak_count.i.i.i.i.i.i708, align 4
  %add.i.i.i.i.i.i.i711 = add nsw i32 %293, -1
  store i32 %add.i.i.i.i.i.i.i711, ptr %_M_weak_count.i.i.i.i.i.i708, align 4
  br label %_ZN9__gnu_cxx27__exchange_and_add_dispatchEPii.exit.i.i.i.i.i.i712

if.else.i.i.i.i.i.i.i718:                         ; preds = %if.then7.i.i.i.i705
  %294 = atomicrmw volatile add ptr %_M_weak_count.i.i.i.i.i.i708, i32 -1 acq_rel, align 4
  br label %_ZN9__gnu_cxx27__exchange_and_add_dispatchEPii.exit.i.i.i.i.i.i712

_ZN9__gnu_cxx27__exchange_and_add_dispatchEPii.exit.i.i.i.i.i.i712: ; preds = %if.else.i.i.i.i.i.i.i718, %if.then.i.i.i.i.i.i.i710
  %retval.i.0.i.i.i.i.i.i713 = phi i32 [ %293, %if.then.i.i.i.i.i.i.i710 ], [ %294, %if.else.i.i.i.i.i.i.i718 ]
  %cmp.i.i.i.i.i.i714 = icmp eq i32 %retval.i.0.i.i.i.i.i.i713, 1
  br i1 %cmp.i.i.i.i.i.i714, label %if.end8.sink.split.i.i.i.i715, label %_ZNSt10shared_ptrIKN8facebook5velox4core10ITypedExprEED2Ev.exit724

if.end8.sink.split.i.i.i.i715:                    ; preds = %_ZN9__gnu_cxx27__exchange_and_add_dispatchEPii.exit.i.i.i.i.i.i712, %if.then.i.i.i.i720
  %vtable2.i.i.i.i.i.i716 = load ptr, ptr %285, align 8
  %vfn3.i.i.i.i.i.i717 = getelementptr inbounds ptr, ptr %vtable2.i.i.i.i.i.i716, i64 3
  %295 = load ptr, ptr %vfn3.i.i.i.i.i.i717, align 8
  call void %295(ptr noundef nonnull align 8 dereferenceable(16) %285) #17
  br label %_ZNSt10shared_ptrIKN8facebook5velox4core10ITypedExprEED2Ev.exit724

_ZNSt10shared_ptrIKN8facebook5velox4core10ITypedExprEED2Ev.exit724: ; preds = %_ZNSt10shared_ptrIKN8facebook5velox4core10ITypedExprEED2Ev.exit692, %_ZN9__gnu_cxx27__exchange_and_add_dispatchEPii.exit.i.i.i.i702, %_ZN9__gnu_cxx27__exchange_and_add_dispatchEPii.exit.i.i.i.i.i.i712, %if.end8.sink.split.i.i.i.i715
  %_M_refcount.i.i725 = getelementptr inbounds %"class.std::__shared_ptr", ptr %x, i64 0, i32 1
  %296 = load ptr, ptr %_M_refcount.i.i725, align 8
  %cmp.not.i.i.i726 = icmp eq ptr %296, null
  br i1 %cmp.not.i.i.i726, label %_ZNSt10shared_ptrIKN8facebook5velox4core10ITypedExprEED2Ev.exit756, label %if.then.i.i.i727

if.then.i.i.i727:                                 ; preds = %_ZNSt10shared_ptrIKN8facebook5velox4core10ITypedExprEED2Ev.exit724
  %_M_use_count.i.i.i.i728 = getelementptr inbounds %"class.std::_Sp_counted_base", ptr %296, i64 0, i32 1
  %297 = load atomic i64, ptr %_M_use_count.i.i.i.i728 acquire, align 8
  %cmp.i.i.i.i729 = icmp eq i64 %297, 4294967297
  %298 = trunc i64 %297 to i32
  br i1 %cmp.i.i.i.i729, label %if.then.i.i.i.i752, label %if.end.i.i.i.i730

if.then.i.i.i.i752:                               ; preds = %if.then.i.i.i727
  store i32 0, ptr %_M_use_count.i.i.i.i728, align 8
  %_M_weak_count.i.i.i.i753 = getelementptr inbounds %"class.std::_Sp_counted_base", ptr %296, i64 0, i32 2
  store i32 0, ptr %_M_weak_count.i.i.i.i753, align 4
  %vtable.i.i.i.i754 = load ptr, ptr %296, align 8
  %vfn.i.i.i.i755 = getelementptr inbounds ptr, ptr %vtable.i.i.i.i754, i64 2
  %299 = load ptr, ptr %vfn.i.i.i.i755, align 8
  call void %299(ptr noundef nonnull align 8 dereferenceable(16) %296) #17
  br label %if.end8.sink.split.i.i.i.i747

if.end.i.i.i.i730:                                ; preds = %if.then.i.i.i727
  %300 = load i8, ptr @__libc_single_threaded, align 1
  %tobool.i.i.not.i.i.i.i731 = icmp eq i8 %300, 0
  br i1 %tobool.i.i.not.i.i.i.i731, label %if.else.i.i.i.i.i751, label %if.then.i.i.i.i.i732

if.then.i.i.i.i.i732:                             ; preds = %if.end.i.i.i.i730
  %add.i.i.i.i.i733 = add nsw i32 %298, -1
  store i32 %add.i.i.i.i.i733, ptr %_M_use_count.i.i.i.i728, align 4
  br label %_ZN9__gnu_cxx27__exchange_and_add_dispatchEPii.exit.i.i.i.i734

if.else.i.i.i.i.i751:                             ; preds = %if.end.i.i.i.i730
  %301 = atomicrmw volatile add ptr %_M_use_count.i.i.i.i728, i32 -1 acq_rel, align 4
  br label %_ZN9__gnu_cxx27__exchange_and_add_dispatchEPii.exit.i.i.i.i734

_ZN9__gnu_cxx27__exchange_and_add_dispatchEPii.exit.i.i.i.i734: ; preds = %if.else.i.i.i.i.i751, %if.then.i.i.i.i.i732
  %retval.i.0.i.i.i.i735 = phi i32 [ %298, %if.then.i.i.i.i.i732 ], [ %301, %if.else.i.i.i.i.i751 ]
  %cmp6.i.i.i.i736 = icmp eq i32 %retval.i.0.i.i.i.i735, 1
  br i1 %cmp6.i.i.i.i736, label %if.then7.i.i.i.i737, label %_ZNSt10shared_ptrIKN8facebook5velox4core10ITypedExprEED2Ev.exit756

if.then7.i.i.i.i737:                              ; preds = %_ZN9__gnu_cxx27__exchange_and_add_dispatchEPii.exit.i.i.i.i734
  %vtable.i.i.i.i.i.i738 = load ptr, ptr %296, align 8
  %vfn.i.i.i.i.i.i739 = getelementptr inbounds ptr, ptr %vtable.i.i.i.i.i.i738, i64 2
  %302 = load ptr, ptr %vfn.i.i.i.i.i.i739, align 8
  call void %302(ptr noundef nonnull align 8 dereferenceable(16) %296) #17
  %_M_weak_count.i.i.i.i.i.i740 = getelementptr inbounds %"class.std::_Sp_counted_base", ptr %296, i64 0, i32 2
  %303 = load i8, ptr @__libc_single_threaded, align 1
  %tobool.i.i.not.i.i.i.i.i.i741 = icmp eq i8 %303, 0
  br i1 %tobool.i.i.not.i.i.i.i.i.i741, label %if.else.i.i.i.i.i.i.i750, label %if.then.i.i.i.i.i.i.i742

if.then.i.i.i.i.i.i.i742:                         ; preds = %if.then7.i.i.i.i737
  %304 = load i32, ptr %_M_weak_count.i.i.i.i.i.i740, align 4
  %add.i.i.i.i.i.i.i743 = add nsw i32 %304, -1
  store i32 %add.i.i.i.i.i.i.i743, ptr %_M_weak_count.i.i.i.i.i.i740, align 4
  br label %_ZN9__gnu_cxx27__exchange_and_add_dispatchEPii.exit.i.i.i.i.i.i744

if.else.i.i.i.i.i.i.i750:                         ; preds = %if.then7.i.i.i.i737
  %305 = atomicrmw volatile add ptr %_M_weak_count.i.i.i.i.i.i740, i32 -1 acq_rel, align 4
  br label %_ZN9__gnu_cxx27__exchange_and_add_dispatchEPii.exit.i.i.i.i.i.i744

_ZN9__gnu_cxx27__exchange_and_add_dispatchEPii.exit.i.i.i.i.i.i744: ; preds = %if.else.i.i.i.i.i.i.i750, %if.then.i.i.i.i.i.i.i742
  %retval.i.0.i.i.i.i.i.i745 = phi i32 [ %304, %if.then.i.i.i.i.i.i.i742 ], [ %305, %if.else.i.i.i.i.i.i.i750 ]
  %cmp.i.i.i.i.i.i746 = icmp eq i32 %retval.i.0.i.i.i.i.i.i745, 1
  br i1 %cmp.i.i.i.i.i.i746, label %if.end8.sink.split.i.i.i.i747, label %_ZNSt10shared_ptrIKN8facebook5velox4core10ITypedExprEED2Ev.exit756

if.end8.sink.split.i.i.i.i747:                    ; preds = %_ZN9__gnu_cxx27__exchange_and_add_dispatchEPii.exit.i.i.i.i.i.i744, %if.then.i.i.i.i752
  %vtable2.i.i.i.i.i.i748 = load ptr, ptr %296, align 8
  %vfn3.i.i.i.i.i.i749 = getelementptr inbounds ptr, ptr %vtable2.i.i.i.i.i.i748, i64 3
  %306 = load ptr, ptr %vfn3.i.i.i.i.i.i749, align 8
  call void %306(ptr noundef nonnull align 8 dereferenceable(16) %296) #17
  br label %_ZNSt10shared_ptrIKN8facebook5velox4core10ITypedExprEED2Ev.exit756

_ZNSt10shared_ptrIKN8facebook5velox4core10ITypedExprEED2Ev.exit756: ; preds = %_ZNSt10shared_ptrIKN8facebook5velox4core10ITypedExprEED2Ev.exit724, %_ZN9__gnu_cxx27__exchange_and_add_dispatchEPii.exit.i.i.i.i734, %_ZN9__gnu_cxx27__exchange_and_add_dispatchEPii.exit.i.i.i.i.i.i744, %if.end8.sink.split.i.i.i.i747
  %_M_refcount.i.i757 = getelementptr inbounds %"class.std::__shared_ptr.3", ptr %d, i64 0, i32 1
  %307 = load ptr, ptr %_M_refcount.i.i757, align 8
  %cmp.not.i.i.i758 = icmp eq ptr %307, null
  br i1 %cmp.not.i.i.i758, label %_ZNSt10shared_ptrIKN8facebook5velox4core20FieldAccessTypedExprEED2Ev.exit, label %if.then.i.i.i759

if.then.i.i.i759:                                 ; preds = %_ZNSt10shared_ptrIKN8facebook5velox4core10ITypedExprEED2Ev.exit756
  %_M_use_count.i.i.i.i760 = getelementptr inbounds %"class.std::_Sp_counted_base", ptr %307, i64 0, i32 1
  %308 = load atomic i64, ptr %_M_use_count.i.i.i.i760 acquire, align 8
  %cmp.i.i.i.i761 = icmp eq i64 %308, 4294967297
  %309 = trunc i64 %308 to i32
  br i1 %cmp.i.i.i.i761, label %if.then.i.i.i.i784, label %if.end.i.i.i.i762

if.then.i.i.i.i784:                               ; preds = %if.then.i.i.i759
  store i32 0, ptr %_M_use_count.i.i.i.i760, align 8
  %_M_weak_count.i.i.i.i785 = getelementptr inbounds %"class.std::_Sp_counted_base", ptr %307, i64 0, i32 2
  store i32 0, ptr %_M_weak_count.i.i.i.i785, align 4
  %vtable.i.i.i.i786 = load ptr, ptr %307, align 8
  %vfn.i.i.i.i787 = getelementptr inbounds ptr, ptr %vtable.i.i.i.i786, i64 2
  %310 = load ptr, ptr %vfn.i.i.i.i787, align 8
  call void %310(ptr noundef nonnull align 8 dereferenceable(16) %307) #17
  br label %if.end8.sink.split.i.i.i.i779

if.end.i.i.i.i762:                                ; preds = %if.then.i.i.i759
  %311 = load i8, ptr @__libc_single_threaded, align 1
  %tobool.i.i.not.i.i.i.i763 = icmp eq i8 %311, 0
  br i1 %tobool.i.i.not.i.i.i.i763, label %if.else.i.i.i.i.i783, label %if.then.i.i.i.i.i764

if.then.i.i.i.i.i764:                             ; preds = %if.end.i.i.i.i762
  %add.i.i.i.i.i765 = add nsw i32 %309, -1
  store i32 %add.i.i.i.i.i765, ptr %_M_use_count.i.i.i.i760, align 4
  br label %_ZN9__gnu_cxx27__exchange_and_add_dispatchEPii.exit.i.i.i.i766

if.else.i.i.i.i.i783:                             ; preds = %if.end.i.i.i.i762
  %312 = atomicrmw volatile add ptr %_M_use_count.i.i.i.i760, i32 -1 acq_rel, align 4
  br label %_ZN9__gnu_cxx27__exchange_and_add_dispatchEPii.exit.i.i.i.i766

_ZN9__gnu_cxx27__exchange_and_add_dispatchEPii.exit.i.i.i.i766: ; preds = %if.else.i.i.i.i.i783, %if.then.i.i.i.i.i764
  %retval.i.0.i.i.i.i767 = phi i32 [ %309, %if.then.i.i.i.i.i764 ], [ %312, %if.else.i.i.i.i.i783 ]
  %cmp6.i.i.i.i768 = icmp eq i32 %retval.i.0.i.i.i.i767, 1
  br i1 %cmp6.i.i.i.i768, label %if.then7.i.i.i.i769, label %_ZNSt10shared_ptrIKN8facebook5velox4core20FieldAccessTypedExprEED2Ev.exit

if.then7.i.i.i.i769:                              ; preds = %_ZN9__gnu_cxx27__exchange_and_add_dispatchEPii.exit.i.i.i.i766
  %vtable.i.i.i.i.i.i770 = load ptr, ptr %307, align 8
  %vfn.i.i.i.i.i.i771 = getelementptr inbounds ptr, ptr %vtable.i.i.i.i.i.i770, i64 2
  %313 = load ptr, ptr %vfn.i.i.i.i.i.i771, align 8
  call void %313(ptr noundef nonnull align 8 dereferenceable(16) %307) #17
  %_M_weak_count.i.i.i.i.i.i772 = getelementptr inbounds %"class.std::_Sp_counted_base", ptr %307, i64 0, i32 2
  %314 = load i8, ptr @__libc_single_threaded, align 1
  %tobool.i.i.not.i.i.i.i.i.i773 = icmp eq i8 %314, 0
  br i1 %tobool.i.i.not.i.i.i.i.i.i773, label %if.else.i.i.i.i.i.i.i782, label %if.then.i.i.i.i.i.i.i774

if.then.i.i.i.i.i.i.i774:                         ; preds = %if.then7.i.i.i.i769
  %315 = load i32, ptr %_M_weak_count.i.i.i.i.i.i772, align 4
  %add.i.i.i.i.i.i.i775 = add nsw i32 %315, -1
  store i32 %add.i.i.i.i.i.i.i775, ptr %_M_weak_count.i.i.i.i.i.i772, align 4
  br label %_ZN9__gnu_cxx27__exchange_and_add_dispatchEPii.exit.i.i.i.i.i.i776

if.else.i.i.i.i.i.i.i782:                         ; preds = %if.then7.i.i.i.i769
  %316 = atomicrmw volatile add ptr %_M_weak_count.i.i.i.i.i.i772, i32 -1 acq_rel, align 4
  br label %_ZN9__gnu_cxx27__exchange_and_add_dispatchEPii.exit.i.i.i.i.i.i776

_ZN9__gnu_cxx27__exchange_and_add_dispatchEPii.exit.i.i.i.i.i.i776: ; preds = %if.else.i.i.i.i.i.i.i782, %if.then.i.i.i.i.i.i.i774
  %retval.i.0.i.i.i.i.i.i777 = phi i32 [ %315, %if.then.i.i.i.i.i.i.i774 ], [ %316, %if.else.i.i.i.i.i.i.i782 ]
  %cmp.i.i.i.i.i.i778 = icmp eq i32 %retval.i.0.i.i.i.i.i.i777, 1
  br i1 %cmp.i.i.i.i.i.i778, label %if.end8.sink.split.i.i.i.i779, label %_ZNSt10shared_ptrIKN8facebook5velox4core20FieldAccessTypedExprEED2Ev.exit

if.end8.sink.split.i.i.i.i779:                    ; preds = %_ZN9__gnu_cxx27__exchange_and_add_dispatchEPii.exit.i.i.i.i.i.i776, %if.then.i.i.i.i784
  %vtable2.i.i.i.i.i.i780 = load ptr, ptr %307, align 8
  %vfn3.i.i.i.i.i.i781 = getelementptr inbounds ptr, ptr %vtable2.i.i.i.i.i.i780, i64 3
  %317 = load ptr, ptr %vfn3.i.i.i.i.i.i781, align 8
  call void %317(ptr noundef nonnull align 8 dereferenceable(16) %307) #17
  br label %_ZNSt10shared_ptrIKN8facebook5velox4core20FieldAccessTypedExprEED2Ev.exit

_ZNSt10shared_ptrIKN8facebook5velox4core20FieldAccessTypedExprEED2Ev.exit: ; preds = %_ZNSt10shared_ptrIKN8facebook5velox4core10ITypedExprEED2Ev.exit756, %_ZN9__gnu_cxx27__exchange_and_add_dispatchEPii.exit.i.i.i.i766, %_ZN9__gnu_cxx27__exchange_and_add_dispatchEPii.exit.i.i.i.i.i.i776, %if.end8.sink.split.i.i.i.i779
  %_M_refcount.i.i788 = getelementptr inbounds %"class.std::__shared_ptr.3", ptr %c, i64 0, i32 1
  %318 = load ptr, ptr %_M_refcount.i.i788, align 8
  %cmp.not.i.i.i789 = icmp eq ptr %318, null
  br i1 %cmp.not.i.i.i789, label %_ZNSt10shared_ptrIKN8facebook5velox4core20FieldAccessTypedExprEED2Ev.exit819, label %if.then.i.i.i790

if.then.i.i.i790:                                 ; preds = %_ZNSt10shared_ptrIKN8facebook5velox4core20FieldAccessTypedExprEED2Ev.exit
  %_M_use_count.i.i.i.i791 = getelementptr inbounds %"class.std::_Sp_counted_base", ptr %318, i64 0, i32 1
  %319 = load atomic i64, ptr %_M_use_count.i.i.i.i791 acquire, align 8
  %cmp.i.i.i.i792 = icmp eq i64 %319, 4294967297
  %320 = trunc i64 %319 to i32
  br i1 %cmp.i.i.i.i792, label %if.then.i.i.i.i815, label %if.end.i.i.i.i793

if.then.i.i.i.i815:                               ; preds = %if.then.i.i.i790
  store i32 0, ptr %_M_use_count.i.i.i.i791, align 8
  %_M_weak_count.i.i.i.i816 = getelementptr inbounds %"class.std::_Sp_counted_base", ptr %318, i64 0, i32 2
  store i32 0, ptr %_M_weak_count.i.i.i.i816, align 4
  %vtable.i.i.i.i817 = load ptr, ptr %318, align 8
  %vfn.i.i.i.i818 = getelementptr inbounds ptr, ptr %vtable.i.i.i.i817, i64 2
  %321 = load ptr, ptr %vfn.i.i.i.i818, align 8
  call void %321(ptr noundef nonnull align 8 dereferenceable(16) %318) #17
  br label %if.end8.sink.split.i.i.i.i810

if.end.i.i.i.i793:                                ; preds = %if.then.i.i.i790
  %322 = load i8, ptr @__libc_single_threaded, align 1
  %tobool.i.i.not.i.i.i.i794 = icmp eq i8 %322, 0
  br i1 %tobool.i.i.not.i.i.i.i794, label %if.else.i.i.i.i.i814, label %if.then.i.i.i.i.i795

if.then.i.i.i.i.i795:                             ; preds = %if.end.i.i.i.i793
  %add.i.i.i.i.i796 = add nsw i32 %320, -1
  store i32 %add.i.i.i.i.i796, ptr %_M_use_count.i.i.i.i791, align 4
  br label %_ZN9__gnu_cxx27__exchange_and_add_dispatchEPii.exit.i.i.i.i797

if.else.i.i.i.i.i814:                             ; preds = %if.end.i.i.i.i793
  %323 = atomicrmw volatile add ptr %_M_use_count.i.i.i.i791, i32 -1 acq_rel, align 4
  br label %_ZN9__gnu_cxx27__exchange_and_add_dispatchEPii.exit.i.i.i.i797

_ZN9__gnu_cxx27__exchange_and_add_dispatchEPii.exit.i.i.i.i797: ; preds = %if.else.i.i.i.i.i814, %if.then.i.i.i.i.i795
  %retval.i.0.i.i.i.i798 = phi i32 [ %320, %if.then.i.i.i.i.i795 ], [ %323, %if.else.i.i.i.i.i814 ]
  %cmp6.i.i.i.i799 = icmp eq i32 %retval.i.0.i.i.i.i798, 1
  br i1 %cmp6.i.i.i.i799, label %if.then7.i.i.i.i800, label %_ZNSt10shared_ptrIKN8facebook5velox4core20FieldAccessTypedExprEED2Ev.exit819

if.then7.i.i.i.i800:                              ; preds = %_ZN9__gnu_cxx27__exchange_and_add_dispatchEPii.exit.i.i.i.i797
  %vtable.i.i.i.i.i.i801 = load ptr, ptr %318, align 8
  %vfn.i.i.i.i.i.i802 = getelementptr inbounds ptr, ptr %vtable.i.i.i.i.i.i801, i64 2
  %324 = load ptr, ptr %vfn.i.i.i.i.i.i802, align 8
  call void %324(ptr noundef nonnull align 8 dereferenceable(16) %318) #17
  %_M_weak_count.i.i.i.i.i.i803 = getelementptr inbounds %"class.std::_Sp_counted_base", ptr %318, i64 0, i32 2
  %325 = load i8, ptr @__libc_single_threaded, align 1
  %tobool.i.i.not.i.i.i.i.i.i804 = icmp eq i8 %325, 0
  br i1 %tobool.i.i.not.i.i.i.i.i.i804, label %if.else.i.i.i.i.i.i.i813, label %if.then.i.i.i.i.i.i.i805

if.then.i.i.i.i.i.i.i805:                         ; preds = %if.then7.i.i.i.i800
  %326 = load i32, ptr %_M_weak_count.i.i.i.i.i.i803, align 4
  %add.i.i.i.i.i.i.i806 = add nsw i32 %326, -1
  store i32 %add.i.i.i.i.i.i.i806, ptr %_M_weak_count.i.i.i.i.i.i803, align 4
  br label %_ZN9__gnu_cxx27__exchange_and_add_dispatchEPii.exit.i.i.i.i.i.i807

if.else.i.i.i.i.i.i.i813:                         ; preds = %if.then7.i.i.i.i800
  %327 = atomicrmw volatile add ptr %_M_weak_count.i.i.i.i.i.i803, i32 -1 acq_rel, align 4
  br label %_ZN9__gnu_cxx27__exchange_and_add_dispatchEPii.exit.i.i.i.i.i.i807

_ZN9__gnu_cxx27__exchange_and_add_dispatchEPii.exit.i.i.i.i.i.i807: ; preds = %if.else.i.i.i.i.i.i.i813, %if.then.i.i.i.i.i.i.i805
  %retval.i.0.i.i.i.i.i.i808 = phi i32 [ %326, %if.then.i.i.i.i.i.i.i805 ], [ %327, %if.else.i.i.i.i.i.i.i813 ]
  %cmp.i.i.i.i.i.i809 = icmp eq i32 %retval.i.0.i.i.i.i.i.i808, 1
  br i1 %cmp.i.i.i.i.i.i809, label %if.end8.sink.split.i.i.i.i810, label %_ZNSt10shared_ptrIKN8facebook5velox4core20FieldAccessTypedExprEED2Ev.exit819

if.end8.sink.split.i.i.i.i810:                    ; preds = %_ZN9__gnu_cxx27__exchange_and_add_dispatchEPii.exit.i.i.i.i.i.i807, %if.then.i.i.i.i815
  %vtable2.i.i.i.i.i.i811 = load ptr, ptr %318, align 8
  %vfn3.i.i.i.i.i.i812 = getelementptr inbounds ptr, ptr %vtable2.i.i.i.i.i.i811, i64 3
  %328 = load ptr, ptr %vfn3.i.i.i.i.i.i812, align 8
  call void %328(ptr noundef nonnull align 8 dereferenceable(16) %318) #17
  br label %_ZNSt10shared_ptrIKN8facebook5velox4core20FieldAccessTypedExprEED2Ev.exit819

_ZNSt10shared_ptrIKN8facebook5velox4core20FieldAccessTypedExprEED2Ev.exit819: ; preds = %_ZNSt10shared_ptrIKN8facebook5velox4core20FieldAccessTypedExprEED2Ev.exit, %_ZN9__gnu_cxx27__exchange_and_add_dispatchEPii.exit.i.i.i.i797, %_ZN9__gnu_cxx27__exchange_and_add_dispatchEPii.exit.i.i.i.i.i.i807, %if.end8.sink.split.i.i.i.i810
  %_M_refcount.i.i820 = getelementptr inbounds %"class.std::__shared_ptr.3", ptr %b, i64 0, i32 1
  %329 = load ptr, ptr %_M_refcount.i.i820, align 8
  %cmp.not.i.i.i821 = icmp eq ptr %329, null
  br i1 %cmp.not.i.i.i821, label %_ZNSt10shared_ptrIKN8facebook5velox4core20FieldAccessTypedExprEED2Ev.exit851, label %if.then.i.i.i822

if.then.i.i.i822:                                 ; preds = %_ZNSt10shared_ptrIKN8facebook5velox4core20FieldAccessTypedExprEED2Ev.exit819
  %_M_use_count.i.i.i.i823 = getelementptr inbounds %"class.std::_Sp_counted_base", ptr %329, i64 0, i32 1
  %330 = load atomic i64, ptr %_M_use_count.i.i.i.i823 acquire, align 8
  %cmp.i.i.i.i824 = icmp eq i64 %330, 4294967297
  %331 = trunc i64 %330 to i32
  br i1 %cmp.i.i.i.i824, label %if.then.i.i.i.i847, label %if.end.i.i.i.i825

if.then.i.i.i.i847:                               ; preds = %if.then.i.i.i822
  store i32 0, ptr %_M_use_count.i.i.i.i823, align 8
  %_M_weak_count.i.i.i.i848 = getelementptr inbounds %"class.std::_Sp_counted_base", ptr %329, i64 0, i32 2
  store i32 0, ptr %_M_weak_count.i.i.i.i848, align 4
  %vtable.i.i.i.i849 = load ptr, ptr %329, align 8
  %vfn.i.i.i.i850 = getelementptr inbounds ptr, ptr %vtable.i.i.i.i849, i64 2
  %332 = load ptr, ptr %vfn.i.i.i.i850, align 8
  call void %332(ptr noundef nonnull align 8 dereferenceable(16) %329) #17
  br label %if.end8.sink.split.i.i.i.i842

if.end.i.i.i.i825:                                ; preds = %if.then.i.i.i822
  %333 = load i8, ptr @__libc_single_threaded, align 1
  %tobool.i.i.not.i.i.i.i826 = icmp eq i8 %333, 0
  br i1 %tobool.i.i.not.i.i.i.i826, label %if.else.i.i.i.i.i846, label %if.then.i.i.i.i.i827

if.then.i.i.i.i.i827:                             ; preds = %if.end.i.i.i.i825
  %add.i.i.i.i.i828 = add nsw i32 %331, -1
  store i32 %add.i.i.i.i.i828, ptr %_M_use_count.i.i.i.i823, align 4
  br label %_ZN9__gnu_cxx27__exchange_and_add_dispatchEPii.exit.i.i.i.i829

if.else.i.i.i.i.i846:                             ; preds = %if.end.i.i.i.i825
  %334 = atomicrmw volatile add ptr %_M_use_count.i.i.i.i823, i32 -1 acq_rel, align 4
  br label %_ZN9__gnu_cxx27__exchange_and_add_dispatchEPii.exit.i.i.i.i829

_ZN9__gnu_cxx27__exchange_and_add_dispatchEPii.exit.i.i.i.i829: ; preds = %if.else.i.i.i.i.i846, %if.then.i.i.i.i.i827
  %retval.i.0.i.i.i.i830 = phi i32 [ %331, %if.then.i.i.i.i.i827 ], [ %334, %if.else.i.i.i.i.i846 ]
  %cmp6.i.i.i.i831 = icmp eq i32 %retval.i.0.i.i.i.i830, 1
  br i1 %cmp6.i.i.i.i831, label %if.then7.i.i.i.i832, label %_ZNSt10shared_ptrIKN8facebook5velox4core20FieldAccessTypedExprEED2Ev.exit851

if.then7.i.i.i.i832:                              ; preds = %_ZN9__gnu_cxx27__exchange_and_add_dispatchEPii.exit.i.i.i.i829
  %vtable.i.i.i.i.i.i833 = load ptr, ptr %329, align 8
  %vfn.i.i.i.i.i.i834 = getelementptr inbounds ptr, ptr %vtable.i.i.i.i.i.i833, i64 2
  %335 = load ptr, ptr %vfn.i.i.i.i.i.i834, align 8
  call void %335(ptr noundef nonnull align 8 dereferenceable(16) %329) #17
  %_M_weak_count.i.i.i.i.i.i835 = getelementptr inbounds %"class.std::_Sp_counted_base", ptr %329, i64 0, i32 2
  %336 = load i8, ptr @__libc_single_threaded, align 1
  %tobool.i.i.not.i.i.i.i.i.i836 = icmp eq i8 %336, 0
  br i1 %tobool.i.i.not.i.i.i.i.i.i836, label %if.else.i.i.i.i.i.i.i845, label %if.then.i.i.i.i.i.i.i837

if.then.i.i.i.i.i.i.i837:                         ; preds = %if.then7.i.i.i.i832
  %337 = load i32, ptr %_M_weak_count.i.i.i.i.i.i835, align 4
  %add.i.i.i.i.i.i.i838 = add nsw i32 %337, -1
  store i32 %add.i.i.i.i.i.i.i838, ptr %_M_weak_count.i.i.i.i.i.i835, align 4
  br label %_ZN9__gnu_cxx27__exchange_and_add_dispatchEPii.exit.i.i.i.i.i.i839

if.else.i.i.i.i.i.i.i845:                         ; preds = %if.then7.i.i.i.i832
  %338 = atomicrmw volatile add ptr %_M_weak_count.i.i.i.i.i.i835, i32 -1 acq_rel, align 4
  br label %_ZN9__gnu_cxx27__exchange_and_add_dispatchEPii.exit.i.i.i.i.i.i839

_ZN9__gnu_cxx27__exchange_and_add_dispatchEPii.exit.i.i.i.i.i.i839: ; preds = %if.else.i.i.i.i.i.i.i845, %if.then.i.i.i.i.i.i.i837
  %retval.i.0.i.i.i.i.i.i840 = phi i32 [ %337, %if.then.i.i.i.i.i.i.i837 ], [ %338, %if.else.i.i.i.i.i.i.i845 ]
  %cmp.i.i.i.i.i.i841 = icmp eq i32 %retval.i.0.i.i.i.i.i.i840, 1
  br i1 %cmp.i.i.i.i.i.i841, label %if.end8.sink.split.i.i.i.i842, label %_ZNSt10shared_ptrIKN8facebook5velox4core20FieldAccessTypedExprEED2Ev.exit851

if.end8.sink.split.i.i.i.i842:                    ; preds = %_ZN9__gnu_cxx27__exchange_and_add_dispatchEPii.exit.i.i.i.i.i.i839, %if.then.i.i.i.i847
  %vtable2.i.i.i.i.i.i843 = load ptr, ptr %329, align 8
  %vfn3.i.i.i.i.i.i844 = getelementptr inbounds ptr, ptr %vtable2.i.i.i.i.i.i843, i64 3
  %339 = load ptr, ptr %vfn3.i.i.i.i.i.i844, align 8
  call void %339(ptr noundef nonnull align 8 dereferenceable(16) %329) #17
  br label %_ZNSt10shared_ptrIKN8facebook5velox4core20FieldAccessTypedExprEED2Ev.exit851

_ZNSt10shared_ptrIKN8facebook5velox4core20FieldAccessTypedExprEED2Ev.exit851: ; preds = %_ZNSt10shared_ptrIKN8facebook5velox4core20FieldAccessTypedExprEED2Ev.exit819, %_ZN9__gnu_cxx27__exchange_and_add_dispatchEPii.exit.i.i.i.i829, %_ZN9__gnu_cxx27__exchange_and_add_dispatchEPii.exit.i.i.i.i.i.i839, %if.end8.sink.split.i.i.i.i842
  %_M_refcount.i.i852 = getelementptr inbounds %"class.std::__shared_ptr.3", ptr %a, i64 0, i32 1
  %340 = load ptr, ptr %_M_refcount.i.i852, align 8
  %cmp.not.i.i.i853 = icmp eq ptr %340, null
  br i1 %cmp.not.i.i.i853, label %_ZNSt10shared_ptrIKN8facebook5velox4core20FieldAccessTypedExprEED2Ev.exit883, label %if.then.i.i.i854

if.then.i.i.i854:                                 ; preds = %_ZNSt10shared_ptrIKN8facebook5velox4core20FieldAccessTypedExprEED2Ev.exit851
  %_M_use_count.i.i.i.i855 = getelementptr inbounds %"class.std::_Sp_counted_base", ptr %340, i64 0, i32 1
  %341 = load atomic i64, ptr %_M_use_count.i.i.i.i855 acquire, align 8
  %cmp.i.i.i.i856 = icmp eq i64 %341, 4294967297
  %342 = trunc i64 %341 to i32
  br i1 %cmp.i.i.i.i856, label %if.then.i.i.i.i879, label %if.end.i.i.i.i857

if.then.i.i.i.i879:                               ; preds = %if.then.i.i.i854
  store i32 0, ptr %_M_use_count.i.i.i.i855, align 8
  %_M_weak_count.i.i.i.i880 = getelementptr inbounds %"class.std::_Sp_counted_base", ptr %340, i64 0, i32 2
  store i32 0, ptr %_M_weak_count.i.i.i.i880, align 4
  %vtable.i.i.i.i881 = load ptr, ptr %340, align 8
  %vfn.i.i.i.i882 = getelementptr inbounds ptr, ptr %vtable.i.i.i.i881, i64 2
  %343 = load ptr, ptr %vfn.i.i.i.i882, align 8
  call void %343(ptr noundef nonnull align 8 dereferenceable(16) %340) #17
  br label %if.end8.sink.split.i.i.i.i874

if.end.i.i.i.i857:                                ; preds = %if.then.i.i.i854
  %344 = load i8, ptr @__libc_single_threaded, align 1
  %tobool.i.i.not.i.i.i.i858 = icmp eq i8 %344, 0
  br i1 %tobool.i.i.not.i.i.i.i858, label %if.else.i.i.i.i.i878, label %if.then.i.i.i.i.i859

if.then.i.i.i.i.i859:                             ; preds = %if.end.i.i.i.i857
  %add.i.i.i.i.i860 = add nsw i32 %342, -1
  store i32 %add.i.i.i.i.i860, ptr %_M_use_count.i.i.i.i855, align 4
  br label %_ZN9__gnu_cxx27__exchange_and_add_dispatchEPii.exit.i.i.i.i861

if.else.i.i.i.i.i878:                             ; preds = %if.end.i.i.i.i857
  %345 = atomicrmw volatile add ptr %_M_use_count.i.i.i.i855, i32 -1 acq_rel, align 4
  br label %_ZN9__gnu_cxx27__exchange_and_add_dispatchEPii.exit.i.i.i.i861

_ZN9__gnu_cxx27__exchange_and_add_dispatchEPii.exit.i.i.i.i861: ; preds = %if.else.i.i.i.i.i878, %if.then.i.i.i.i.i859
  %retval.i.0.i.i.i.i862 = phi i32 [ %342, %if.then.i.i.i.i.i859 ], [ %345, %if.else.i.i.i.i.i878 ]
  %cmp6.i.i.i.i863 = icmp eq i32 %retval.i.0.i.i.i.i862, 1
  br i1 %cmp6.i.i.i.i863, label %if.then7.i.i.i.i864, label %_ZNSt10shared_ptrIKN8facebook5velox4core20FieldAccessTypedExprEED2Ev.exit883

if.then7.i.i.i.i864:                              ; preds = %_ZN9__gnu_cxx27__exchange_and_add_dispatchEPii.exit.i.i.i.i861
  %vtable.i.i.i.i.i.i865 = load ptr, ptr %340, align 8
  %vfn.i.i.i.i.i.i866 = getelementptr inbounds ptr, ptr %vtable.i.i.i.i.i.i865, i64 2
  %346 = load ptr, ptr %vfn.i.i.i.i.i.i866, align 8
  call void %346(ptr noundef nonnull align 8 dereferenceable(16) %340) #17
  %_M_weak_count.i.i.i.i.i.i867 = getelementptr inbounds %"class.std::_Sp_counted_base", ptr %340, i64 0, i32 2
  %347 = load i8, ptr @__libc_single_threaded, align 1
  %tobool.i.i.not.i.i.i.i.i.i868 = icmp eq i8 %347, 0
  br i1 %tobool.i.i.not.i.i.i.i.i.i868, label %if.else.i.i.i.i.i.i.i877, label %if.then.i.i.i.i.i.i.i869

if.then.i.i.i.i.i.i.i869:                         ; preds = %if.then7.i.i.i.i864
  %348 = load i32, ptr %_M_weak_count.i.i.i.i.i.i867, align 4
  %add.i.i.i.i.i.i.i870 = add nsw i32 %348, -1
  store i32 %add.i.i.i.i.i.i.i870, ptr %_M_weak_count.i.i.i.i.i.i867, align 4
  br label %_ZN9__gnu_cxx27__exchange_and_add_dispatchEPii.exit.i.i.i.i.i.i871

if.else.i.i.i.i.i.i.i877:                         ; preds = %if.then7.i.i.i.i864
  %349 = atomicrmw volatile add ptr %_M_weak_count.i.i.i.i.i.i867, i32 -1 acq_rel, align 4
  br label %_ZN9__gnu_cxx27__exchange_and_add_dispatchEPii.exit.i.i.i.i.i.i871

_ZN9__gnu_cxx27__exchange_and_add_dispatchEPii.exit.i.i.i.i.i.i871: ; preds = %if.else.i.i.i.i.i.i.i877, %if.then.i.i.i.i.i.i.i869
  %retval.i.0.i.i.i.i.i.i872 = phi i32 [ %348, %if.then.i.i.i.i.i.i.i869 ], [ %349, %if.else.i.i.i.i.i.i.i877 ]
  %cmp.i.i.i.i.i.i873 = icmp eq i32 %retval.i.0.i.i.i.i.i.i872, 1
  br i1 %cmp.i.i.i.i.i.i873, label %if.end8.sink.split.i.i.i.i874, label %_ZNSt10shared_ptrIKN8facebook5velox4core20FieldAccessTypedExprEED2Ev.exit883

if.end8.sink.split.i.i.i.i874:                    ; preds = %_ZN9__gnu_cxx27__exchange_and_add_dispatchEPii.exit.i.i.i.i.i.i871, %if.then.i.i.i.i879
  %vtable2.i.i.i.i.i.i875 = load ptr, ptr %340, align 8
  %vfn3.i.i.i.i.i.i876 = getelementptr inbounds ptr, ptr %vtable2.i.i.i.i.i.i875, i64 3
  %350 = load ptr, ptr %vfn3.i.i.i.i.i.i876, align 8
  call void %350(ptr noundef nonnull align 8 dereferenceable(16) %340) #17
  br label %_ZNSt10shared_ptrIKN8facebook5velox4core20FieldAccessTypedExprEED2Ev.exit883

_ZNSt10shared_ptrIKN8facebook5velox4core20FieldAccessTypedExprEED2Ev.exit883: ; preds = %_ZNSt10shared_ptrIKN8facebook5velox4core20FieldAccessTypedExprEED2Ev.exit851, %_ZN9__gnu_cxx27__exchange_and_add_dispatchEPii.exit.i.i.i.i861, %_ZN9__gnu_cxx27__exchange_and_add_dispatchEPii.exit.i.i.i.i.i.i871, %if.end8.sink.split.i.i.i.i874
  ret void

ehcleanup209:                                     ; preds = %ehcleanup207, %lpad38
  %.pn26.pn.pn.pn.pn = phi { ptr, i32 } [ %.pn26.pn.pn.pn, %ehcleanup207 ], [ %118, %lpad38 ]
  %351 = getelementptr inbounds i8, ptr %matcher, i64 8
  %matcher.val44 = load ptr, ptr %351, align 8
  call fastcc void @_ZNSt10shared_ptrIN8facebook5velox9functions9prestosql12_GLOBAL__N_17MatcherEED2Ev(ptr %matcher.val44) #17
  br label %ehcleanup211

ehcleanup211:                                     ; preds = %ehcleanup209, %ehcleanup37, %lpad
  %.pn26.pn.pn.pn.pn.pn = phi { ptr, i32 } [ %.pn26.pn.pn.pn.pn, %ehcleanup209 ], [ %.pn.pn.pn.pn.pn.pn.pn.pn.pn, %ehcleanup37 ], [ %104, %lpad ]
  call void @_ZNSt7__cxx1112basic_stringIcSt11char_traitsIcESaIcEED1Ev(ptr noundef nonnull align 8 dereferenceable(32) %op2) #17
  call void @_ZNSt7__cxx1112basic_stringIcSt11char_traitsIcESaIcEED1Ev(ptr noundef nonnull align 8 dereferenceable(32) %op1) #17
  call void @_ZNSt10shared_ptrIKN8facebook5velox4core10ITypedExprEED2Ev(ptr noundef nonnull align 8 dereferenceable(16) %v) #17
  call void @_ZNSt10shared_ptrIKN8facebook5velox4core10ITypedExprEED2Ev(ptr noundef nonnull align 8 dereferenceable(16) %u) #17
  call void @_ZNSt10shared_ptrIKN8facebook5velox4core10ITypedExprEED2Ev(ptr noundef nonnull align 8 dereferenceable(16) %y) #17
  call void @_ZNSt10shared_ptrIKN8facebook5velox4core10ITypedExprEED2Ev(ptr noundef nonnull align 8 dereferenceable(16) %x) #17
  call void @_ZNSt10shared_ptrIKN8facebook5velox4core20FieldAccessTypedExprEED2Ev(ptr noundef nonnull align 8 dereferenceable(16) %d) #17
  call void @_ZNSt10shared_ptrIKN8facebook5velox4core20FieldAccessTypedExprEED2Ev(ptr noundef nonnull align 8 dereferenceable(16) %c) #17
  call void @_ZNSt10shared_ptrIKN8facebook5velox4core20FieldAccessTypedExprEED2Ev(ptr noundef nonnull align 8 dereferenceable(16) %b) #17
  call void @_ZNSt10shared_ptrIKN8facebook5velox4core20FieldAccessTypedExprEED2Ev(ptr noundef nonnull align 8 dereferenceable(16) %a) #17
  resume { ptr, i32 } %.pn26.pn.pn.pn.pn.pn
}

; Function Attrs: nounwind
declare void @_ZNSt7__cxx1112basic_stringIcSt11char_traitsIcESaIcEEC1Ev(ptr noundef nonnull align 8 dereferenceable(32)) unnamed_addr #1

; Function Attrs: mustprogress uwtable
define internal fastcc void @_ZN8facebook5velox9functions9prestosql12_GLOBAL__N_16ifelseERKSt10shared_ptrINS3_7MatcherEES8_S8_(ptr noalias nocapture writeonly align 8 %agg.result, ptr %condition.0.val, ptr %condition.8.val, ptr nocapture noundef nonnull readonly align 8 dereferenceable(16) %thenClause, ptr nocapture noundef nonnull readonly align 8 dereferenceable(16) %elseClause) unnamed_addr #0 personality ptr @__gxx_personality_v0 {
entry:
  %ref.tmp1 = alloca %"class.std::vector.48", align 8
  %ref.tmp2 = alloca [3 x %"class.std::shared_ptr.5"], align 8
  store ptr %condition.0.val, ptr %ref.tmp2, align 8
  %_M_refcount.i.i = getelementptr inbounds %"class.std::__shared_ptr.6", ptr %ref.tmp2, i64 0, i32 1
  store ptr %condition.8.val, ptr %_M_refcount.i.i, align 8
  %cmp.not.i.i.i = icmp eq ptr %condition.8.val, null
  br i1 %cmp.not.i.i.i, label %_ZNSt10shared_ptrIN8facebook5velox9functions9prestosql12_GLOBAL__N_17MatcherEEC2ERKS6_.exit, label %if.then.i.i.i

if.then.i.i.i:                                    ; preds = %entry
  %_M_use_count.i.i.i.i = getelementptr inbounds %"class.std::_Sp_counted_base", ptr %condition.8.val, i64 0, i32 1
  %0 = load i8, ptr @__libc_single_threaded, align 1
  %tobool.i.not.i.i.i.i = icmp eq i8 %0, 0
  br i1 %tobool.i.not.i.i.i.i, label %if.else.i.i.i.i.i, label %if.then.i.i.i.i.i

if.then.i.i.i.i.i:                                ; preds = %if.then.i.i.i
  %1 = load i32, ptr %_M_use_count.i.i.i.i, align 4
  %add.i.i.i.i.i = add nsw i32 %1, 1
  store i32 %add.i.i.i.i.i, ptr %_M_use_count.i.i.i.i, align 4
  br label %_ZNSt10shared_ptrIN8facebook5velox9functions9prestosql12_GLOBAL__N_17MatcherEEC2ERKS6_.exit

if.else.i.i.i.i.i:                                ; preds = %if.then.i.i.i
  %2 = atomicrmw volatile add ptr %_M_use_count.i.i.i.i, i32 1 acq_rel, align 4
  br label %_ZNSt10shared_ptrIN8facebook5velox9functions9prestosql12_GLOBAL__N_17MatcherEEC2ERKS6_.exit

_ZNSt10shared_ptrIN8facebook5velox9functions9prestosql12_GLOBAL__N_17MatcherEEC2ERKS6_.exit: ; preds = %entry, %if.then.i.i.i.i.i, %if.else.i.i.i.i.i
  %arrayinit.element = getelementptr inbounds %"class.std::shared_ptr.5", ptr %ref.tmp2, i64 1
  %3 = load <2 x ptr>, ptr %thenClause, align 8
  store <2 x ptr> %3, ptr %arrayinit.element, align 8
  %4 = extractelement <2 x ptr> %3, i64 1
  %cmp.not.i.i.i4 = icmp eq ptr %4, null
  br i1 %cmp.not.i.i.i4, label %_ZNSt10shared_ptrIN8facebook5velox9functions9prestosql12_GLOBAL__N_17MatcherEEC2ERKS6_.exit11, label %if.then.i.i.i5

if.then.i.i.i5:                                   ; preds = %_ZNSt10shared_ptrIN8facebook5velox9functions9prestosql12_GLOBAL__N_17MatcherEEC2ERKS6_.exit
  %_M_use_count.i.i.i.i6 = getelementptr inbounds %"class.std::_Sp_counted_base", ptr %4, i64 0, i32 1
  %5 = load i8, ptr @__libc_single_threaded, align 1
  %tobool.i.not.i.i.i.i7 = icmp eq i8 %5, 0
  br i1 %tobool.i.not.i.i.i.i7, label %if.else.i.i.i.i.i10, label %if.then.i.i.i.i.i8

if.then.i.i.i.i.i8:                               ; preds = %if.then.i.i.i5
  %6 = load i32, ptr %_M_use_count.i.i.i.i6, align 4
  %add.i.i.i.i.i9 = add nsw i32 %6, 1
  store i32 %add.i.i.i.i.i9, ptr %_M_use_count.i.i.i.i6, align 4
  br label %_ZNSt10shared_ptrIN8facebook5velox9functions9prestosql12_GLOBAL__N_17MatcherEEC2ERKS6_.exit11

if.else.i.i.i.i.i10:                              ; preds = %if.then.i.i.i5
  %7 = atomicrmw volatile add ptr %_M_use_count.i.i.i.i6, i32 1 acq_rel, align 4
  br label %_ZNSt10shared_ptrIN8facebook5velox9functions9prestosql12_GLOBAL__N_17MatcherEEC2ERKS6_.exit11

_ZNSt10shared_ptrIN8facebook5velox9functions9prestosql12_GLOBAL__N_17MatcherEEC2ERKS6_.exit11: ; preds = %_ZNSt10shared_ptrIN8facebook5velox9functions9prestosql12_GLOBAL__N_17MatcherEEC2ERKS6_.exit, %if.then.i.i.i.i.i8, %if.else.i.i.i.i.i10
  %arrayinit.element3 = getelementptr inbounds %"class.std::shared_ptr.5", ptr %ref.tmp2, i64 2
  %8 = load <2 x ptr>, ptr %elseClause, align 8
  store <2 x ptr> %8, ptr %arrayinit.element3, align 8
  %9 = extractelement <2 x ptr> %8, i64 1
  %cmp.not.i.i.i14 = icmp eq ptr %9, null
  br i1 %cmp.not.i.i.i14, label %_ZNSt10shared_ptrIN8facebook5velox9functions9prestosql12_GLOBAL__N_17MatcherEEC2ERKS6_.exit21, label %if.then.i.i.i15

if.then.i.i.i15:                                  ; preds = %_ZNSt10shared_ptrIN8facebook5velox9functions9prestosql12_GLOBAL__N_17MatcherEEC2ERKS6_.exit11
  %_M_use_count.i.i.i.i16 = getelementptr inbounds %"class.std::_Sp_counted_base", ptr %9, i64 0, i32 1
  %10 = load i8, ptr @__libc_single_threaded, align 1
  %tobool.i.not.i.i.i.i17 = icmp eq i8 %10, 0
  br i1 %tobool.i.not.i.i.i.i17, label %if.else.i.i.i.i.i20, label %if.then.i.i.i.i.i18

if.then.i.i.i.i.i18:                              ; preds = %if.then.i.i.i15
  %11 = load i32, ptr %_M_use_count.i.i.i.i16, align 4
  %add.i.i.i.i.i19 = add nsw i32 %11, 1
  store i32 %add.i.i.i.i.i19, ptr %_M_use_count.i.i.i.i16, align 4
  br label %_ZNSt10shared_ptrIN8facebook5velox9functions9prestosql12_GLOBAL__N_17MatcherEEC2ERKS6_.exit21

if.else.i.i.i.i.i20:                              ; preds = %if.then.i.i.i15
  %12 = atomicrmw volatile add ptr %_M_use_count.i.i.i.i16, i32 1 acq_rel, align 4
  br label %_ZNSt10shared_ptrIN8facebook5velox9functions9prestosql12_GLOBAL__N_17MatcherEEC2ERKS6_.exit21

_ZNSt10shared_ptrIN8facebook5velox9functions9prestosql12_GLOBAL__N_17MatcherEEC2ERKS6_.exit21: ; preds = %_ZNSt10shared_ptrIN8facebook5velox9functions9prestosql12_GLOBAL__N_17MatcherEEC2ERKS6_.exit11, %if.then.i.i.i.i.i18, %if.else.i.i.i.i.i20
  %13 = getelementptr inbounds i8, ptr %ref.tmp1, i64 8
  store i64 0, ptr %13, align 8
  %add.ptr.i.i = getelementptr inbounds %"class.std::shared_ptr.5", ptr %ref.tmp2, i64 3
  %call5.i.i.i.i5.i = invoke noalias noundef nonnull dereferenceable(48) ptr @_Znwm(i64 noundef 48) #18
          to label %call5.i.i.i.i.noexc.i unwind label %lpad.i

call5.i.i.i.i.noexc.i:                            ; preds = %_ZNSt10shared_ptrIN8facebook5velox9functions9prestosql12_GLOBAL__N_17MatcherEEC2ERKS6_.exit21
  store ptr %call5.i.i.i.i5.i, ptr %ref.tmp1, align 8
  %add.ptr.i4.i = getelementptr inbounds %"class.std::shared_ptr.5", ptr %call5.i.i.i.i5.i, i64 3
  %_M_end_of_storage.i.i = getelementptr inbounds %"struct.std::_Vector_base<std::shared_ptr<facebook::velox::functions::prestosql::(anonymous namespace)::Matcher>, std::allocator<std::shared_ptr<facebook::velox::functions::prestosql::(anonymous namespace)::Matcher>>>::_Vector_impl_data", ptr %ref.tmp1, i64 0, i32 2
  store ptr %add.ptr.i4.i, ptr %_M_end_of_storage.i.i, align 8
  br label %for.body.i.i.i.i.i.i

for.body.i.i.i.i.i.i:                             ; preds = %_ZSt10_ConstructISt10shared_ptrIN8facebook5velox9functions9prestosql12_GLOBAL__N_17MatcherEEJRKS7_EEvPT_DpOT0_.exit.i.i.i.i.i.i, %call5.i.i.i.i.noexc.i
  %__cur.07.i.i.i.i.i.i = phi ptr [ %incdec.ptr1.i.i.i.i.i.i, %_ZSt10_ConstructISt10shared_ptrIN8facebook5velox9functions9prestosql12_GLOBAL__N_17MatcherEEJRKS7_EEvPT_DpOT0_.exit.i.i.i.i.i.i ], [ %call5.i.i.i.i5.i, %call5.i.i.i.i.noexc.i ]
  %__first.addr.06.i.i.i.i.i.i.idx = phi i64 [ %__first.addr.06.i.i.i.i.i.i.add, %_ZSt10_ConstructISt10shared_ptrIN8facebook5velox9functions9prestosql12_GLOBAL__N_17MatcherEEJRKS7_EEvPT_DpOT0_.exit.i.i.i.i.i.i ], [ 0, %call5.i.i.i.i.noexc.i ]
  %__first.addr.06.i.i.i.i.i.i.ptr = getelementptr inbounds i8, ptr %ref.tmp2, i64 %__first.addr.06.i.i.i.i.i.i.idx
  %14 = load <2 x ptr>, ptr %__first.addr.06.i.i.i.i.i.i.ptr, align 8
  store <2 x ptr> %14, ptr %__cur.07.i.i.i.i.i.i, align 8
  %15 = extractelement <2 x ptr> %14, i64 1
  %cmp.not.i.i.i.i.i.i.i.i.i.i = icmp eq ptr %15, null
  br i1 %cmp.not.i.i.i.i.i.i.i.i.i.i, label %_ZSt10_ConstructISt10shared_ptrIN8facebook5velox9functions9prestosql12_GLOBAL__N_17MatcherEEJRKS7_EEvPT_DpOT0_.exit.i.i.i.i.i.i, label %if.then.i.i.i.i.i.i.i.i.i.i

if.then.i.i.i.i.i.i.i.i.i.i:                      ; preds = %for.body.i.i.i.i.i.i
  %_M_use_count.i.i.i.i.i.i.i.i.i.i.i = getelementptr inbounds %"class.std::_Sp_counted_base", ptr %15, i64 0, i32 1
  %16 = load i8, ptr @__libc_single_threaded, align 1
  %tobool.i.not.i.i.i.i.i.i.i.i.i.i.i = icmp eq i8 %16, 0
  br i1 %tobool.i.not.i.i.i.i.i.i.i.i.i.i.i, label %if.else.i.i.i.i.i.i.i.i.i.i.i.i, label %if.then.i.i.i.i.i.i.i.i.i.i.i.i

if.then.i.i.i.i.i.i.i.i.i.i.i.i:                  ; preds = %if.then.i.i.i.i.i.i.i.i.i.i
  %17 = load i32, ptr %_M_use_count.i.i.i.i.i.i.i.i.i.i.i, align 4
  %add.i.i.i.i.i.i.i.i.i.i.i.i = add nsw i32 %17, 1
  store i32 %add.i.i.i.i.i.i.i.i.i.i.i.i, ptr %_M_use_count.i.i.i.i.i.i.i.i.i.i.i, align 4
  br label %_ZSt10_ConstructISt10shared_ptrIN8facebook5velox9functions9prestosql12_GLOBAL__N_17MatcherEEJRKS7_EEvPT_DpOT0_.exit.i.i.i.i.i.i

if.else.i.i.i.i.i.i.i.i.i.i.i.i:                  ; preds = %if.then.i.i.i.i.i.i.i.i.i.i
  %18 = atomicrmw volatile add ptr %_M_use_count.i.i.i.i.i.i.i.i.i.i.i, i32 1 acq_rel, align 4
  br label %_ZSt10_ConstructISt10shared_ptrIN8facebook5velox9functions9prestosql12_GLOBAL__N_17MatcherEEJRKS7_EEvPT_DpOT0_.exit.i.i.i.i.i.i

_ZSt10_ConstructISt10shared_ptrIN8facebook5velox9functions9prestosql12_GLOBAL__N_17MatcherEEJRKS7_EEvPT_DpOT0_.exit.i.i.i.i.i.i: ; preds = %if.else.i.i.i.i.i.i.i.i.i.i.i.i, %if.then.i.i.i.i.i.i.i.i.i.i.i.i, %for.body.i.i.i.i.i.i
  %__first.addr.06.i.i.i.i.i.i.add = add nuw nsw i64 %__first.addr.06.i.i.i.i.i.i.idx, 16
  %incdec.ptr1.i.i.i.i.i.i = getelementptr inbounds %"class.std::shared_ptr.5", ptr %__cur.07.i.i.i.i.i.i, i64 1
  %cmp.not.i.i.i.i.i.i = icmp eq i64 %__first.addr.06.i.i.i.i.i.i.add, 48
  br i1 %cmp.not.i.i.i.i.i.i, label %invoke.cont, label %for.body.i.i.i.i.i.i, !llvm.loop !47

lpad.i:                                           ; preds = %_ZNSt10shared_ptrIN8facebook5velox9functions9prestosql12_GLOBAL__N_17MatcherEEC2ERKS6_.exit21
  %19 = landingpad { ptr, i32 }
          cleanup
  br label %ehcleanup

invoke.cont:                                      ; preds = %_ZSt10_ConstructISt10shared_ptrIN8facebook5velox9functions9prestosql12_GLOBAL__N_17MatcherEEJRKS7_EEvPT_DpOT0_.exit.i.i.i.i.i.i
  %_M_finish.i.i = getelementptr inbounds %"struct.std::_Vector_base<std::shared_ptr<facebook::velox::functions::prestosql::(anonymous namespace)::Matcher>, std::allocator<std::shared_ptr<facebook::velox::functions::prestosql::(anonymous namespace)::Matcher>>>::_Vector_impl_data", ptr %ref.tmp1, i64 0, i32 1
  store ptr %incdec.ptr1.i.i.i.i.i.i, ptr %_M_finish.i.i, align 8
  %call5.i.i.i5.i.i.i.i22 = invoke noalias noundef nonnull dereferenceable(48) ptr @_Znwm(i64 noundef 48) #18
          to label %call5.i.i.i5.i.i.i.i.noexc unwind label %lpad5

call5.i.i.i5.i.i.i.i.noexc:                       ; preds = %invoke.cont
  %_M_use_count.i.i.i.i.i.i = getelementptr inbounds %"class.std::_Sp_counted_base", ptr %call5.i.i.i5.i.i.i.i22, i64 0, i32 1
  store i32 1, ptr %_M_use_count.i.i.i.i.i.i, align 8, !noalias !49
  %_M_weak_count.i.i.i.i.i.i = getelementptr inbounds %"class.std::_Sp_counted_base", ptr %call5.i.i.i5.i.i.i.i22, i64 0, i32 2
  store i32 1, ptr %_M_weak_count.i.i.i.i.i.i, align 4, !noalias !49
  store ptr getelementptr inbounds ({ [7 x ptr] }, ptr @_ZTVSt23_Sp_counted_ptr_inplaceIN8facebook5velox9functions9prestosql12_GLOBAL__N_19IfMatcherESaIvELN9__gnu_cxx12_Lock_policyE2EE, i64 0, inrange i32 0, i64 2), ptr %call5.i.i.i5.i.i.i.i22, align 8, !noalias !49
  %_M_impl.i.i.i.i.i.i = getelementptr inbounds %"class.std::_Sp_counted_ptr_inplace", ptr %call5.i.i.i5.i.i.i.i22, i64 0, i32 1
  %20 = load ptr, ptr %ref.tmp1, align 8, !noalias !49
  %21 = load ptr, ptr %_M_end_of_storage.i.i, align 8, !noalias !49
  call void @llvm.memset.p0.i64(ptr noundef nonnull align 8 dereferenceable(24) %ref.tmp1, i8 0, i64 24, i1 false), !noalias !49
  store ptr getelementptr inbounds ({ [5 x ptr] }, ptr @_ZTVN8facebook5velox9functions9prestosql12_GLOBAL__N_19IfMatcherE, i64 0, inrange i32 0, i64 2), ptr %_M_impl.i.i.i.i.i.i, align 8, !noalias !49
  %inputMatchers_.i.i.i.i.i.i.i.i = getelementptr inbounds %"class.std::_Sp_counted_ptr_inplace", ptr %call5.i.i.i5.i.i.i.i22, i64 0, i32 1, i32 0, i32 0, i32 0, i64 8
  store ptr %20, ptr %inputMatchers_.i.i.i.i.i.i.i.i, align 8, !noalias !49
  %_M_finish.i.i.i.i.i.i.i.i.i.i.i.i = getelementptr inbounds %"class.std::_Sp_counted_ptr_inplace", ptr %call5.i.i.i5.i.i.i.i22, i64 0, i32 1, i32 0, i32 0, i32 0, i64 16
  store ptr %incdec.ptr1.i.i.i.i.i.i, ptr %_M_finish.i.i.i.i.i.i.i.i.i.i.i.i, align 8, !noalias !49
  %_M_end_of_storage.i.i.i.i.i.i.i.i.i.i.i.i = getelementptr inbounds %"class.std::_Sp_counted_ptr_inplace", ptr %call5.i.i.i5.i.i.i.i22, i64 0, i32 1, i32 0, i32 0, i32 0, i64 24
  store ptr %21, ptr %_M_end_of_storage.i.i.i.i.i.i.i.i.i.i.i.i, align 8, !noalias !49
  %sub.ptr.lhs.cast.i.i.i.i.i.i.i.i.i = ptrtoint ptr %incdec.ptr1.i.i.i.i.i.i to i64
  %sub.ptr.rhs.cast.i.i.i.i.i.i.i.i.i = ptrtoint ptr %20 to i64
  %sub.ptr.sub.i.i.i.i.i.i.i.i.i = sub i64 %sub.ptr.lhs.cast.i.i.i.i.i.i.i.i.i, %sub.ptr.rhs.cast.i.i.i.i.i.i.i.i.i
  %cmp.not.i.i.i.i.i.i.i.i = icmp eq i64 %sub.ptr.sub.i.i.i.i.i.i.i.i.i, 48
  br i1 %cmp.not.i.i.i.i.i.i.i.i, label %_ZNSt6vectorISt10shared_ptrIN8facebook5velox9functions9prestosql12_GLOBAL__N_17MatcherEESaIS7_EED2Ev.exit, label %if.then.i.i.i.i.i.i.i.i

if.then.i.i.i.i.i.i.i.i:                          ; preds = %call5.i.i.i5.i.i.i.i.noexc
  tail call void @llvm.trap()
  unreachable

_ZNSt6vectorISt10shared_ptrIN8facebook5velox9functions9prestosql12_GLOBAL__N_17MatcherEESaIS7_EED2Ev.exit: ; preds = %call5.i.i.i5.i.i.i.i.noexc
  store ptr %_M_impl.i.i.i.i.i.i, ptr %agg.result, align 8
  %_M_refcount.i.i23 = getelementptr inbounds %"class.std::__shared_ptr.6", ptr %agg.result, i64 0, i32 1
  store ptr %call5.i.i.i5.i.i.i.i22, ptr %_M_refcount.i.i23, align 8
  br label %arraydestroy.body

arraydestroy.body:                                ; preds = %_ZNSt10shared_ptrIN8facebook5velox9functions9prestosql12_GLOBAL__N_17MatcherEED2Ev.exit, %_ZNSt6vectorISt10shared_ptrIN8facebook5velox9functions9prestosql12_GLOBAL__N_17MatcherEESaIS7_EED2Ev.exit
  %arraydestroy.elementPast = phi ptr [ %add.ptr.i.i, %_ZNSt6vectorISt10shared_ptrIN8facebook5velox9functions9prestosql12_GLOBAL__N_17MatcherEESaIS7_EED2Ev.exit ], [ %arraydestroy.element, %_ZNSt10shared_ptrIN8facebook5velox9functions9prestosql12_GLOBAL__N_17MatcherEED2Ev.exit ]
  %arraydestroy.element = getelementptr inbounds %"class.std::shared_ptr.5", ptr %arraydestroy.elementPast, i64 -1
  %22 = getelementptr %"class.std::shared_ptr.5", ptr %arraydestroy.elementPast, i64 -1, i32 0, i32 1
  %arraydestroy.element.val = load ptr, ptr %22, align 8
  %cmp.not.i.i.i41 = icmp eq ptr %arraydestroy.element.val, null
  br i1 %cmp.not.i.i.i41, label %_ZNSt10shared_ptrIN8facebook5velox9functions9prestosql12_GLOBAL__N_17MatcherEED2Ev.exit, label %if.then.i.i.i42

if.then.i.i.i42:                                  ; preds = %arraydestroy.body
  %_M_use_count.i.i.i.i43 = getelementptr inbounds %"class.std::_Sp_counted_base", ptr %arraydestroy.element.val, i64 0, i32 1
  %23 = load atomic i64, ptr %_M_use_count.i.i.i.i43 acquire, align 8
  %cmp.i.i.i.i44 = icmp eq i64 %23, 4294967297
  %24 = trunc i64 %23 to i32
  br i1 %cmp.i.i.i.i44, label %if.then.i.i.i.i67, label %if.end.i.i.i.i45

if.then.i.i.i.i67:                                ; preds = %if.then.i.i.i42
  store i32 0, ptr %_M_use_count.i.i.i.i43, align 8
  %_M_weak_count.i.i.i.i68 = getelementptr inbounds %"class.std::_Sp_counted_base", ptr %arraydestroy.element.val, i64 0, i32 2
  store i32 0, ptr %_M_weak_count.i.i.i.i68, align 4
  %vtable.i.i.i.i69 = load ptr, ptr %arraydestroy.element.val, align 8
  %vfn.i.i.i.i70 = getelementptr inbounds ptr, ptr %vtable.i.i.i.i69, i64 2
  %25 = load ptr, ptr %vfn.i.i.i.i70, align 8
  call void %25(ptr noundef nonnull align 8 dereferenceable(16) %arraydestroy.element.val) #17
  br label %if.end8.sink.split.i.i.i.i62

if.end.i.i.i.i45:                                 ; preds = %if.then.i.i.i42
  %26 = load i8, ptr @__libc_single_threaded, align 1
  %tobool.i.i.not.i.i.i.i46 = icmp eq i8 %26, 0
  br i1 %tobool.i.i.not.i.i.i.i46, label %if.else.i.i.i.i.i66, label %if.then.i.i.i.i.i47

if.then.i.i.i.i.i47:                              ; preds = %if.end.i.i.i.i45
  %add.i.i.i.i.i48 = add nsw i32 %24, -1
  store i32 %add.i.i.i.i.i48, ptr %_M_use_count.i.i.i.i43, align 4
  br label %_ZN9__gnu_cxx27__exchange_and_add_dispatchEPii.exit.i.i.i.i49

if.else.i.i.i.i.i66:                              ; preds = %if.end.i.i.i.i45
  %27 = atomicrmw volatile add ptr %_M_use_count.i.i.i.i43, i32 -1 acq_rel, align 4
  br label %_ZN9__gnu_cxx27__exchange_and_add_dispatchEPii.exit.i.i.i.i49

_ZN9__gnu_cxx27__exchange_and_add_dispatchEPii.exit.i.i.i.i49: ; preds = %if.else.i.i.i.i.i66, %if.then.i.i.i.i.i47
  %retval.i.0.i.i.i.i50 = phi i32 [ %24, %if.then.i.i.i.i.i47 ], [ %27, %if.else.i.i.i.i.i66 ]
  %cmp6.i.i.i.i51 = icmp eq i32 %retval.i.0.i.i.i.i50, 1
  br i1 %cmp6.i.i.i.i51, label %if.then7.i.i.i.i52, label %_ZNSt10shared_ptrIN8facebook5velox9functions9prestosql12_GLOBAL__N_17MatcherEED2Ev.exit

if.then7.i.i.i.i52:                               ; preds = %_ZN9__gnu_cxx27__exchange_and_add_dispatchEPii.exit.i.i.i.i49
  %vtable.i.i.i.i.i.i53 = load ptr, ptr %arraydestroy.element.val, align 8
  %vfn.i.i.i.i.i.i54 = getelementptr inbounds ptr, ptr %vtable.i.i.i.i.i.i53, i64 2
  %28 = load ptr, ptr %vfn.i.i.i.i.i.i54, align 8
  call void %28(ptr noundef nonnull align 8 dereferenceable(16) %arraydestroy.element.val) #17
  %_M_weak_count.i.i.i.i.i.i55 = getelementptr inbounds %"class.std::_Sp_counted_base", ptr %arraydestroy.element.val, i64 0, i32 2
  %29 = load i8, ptr @__libc_single_threaded, align 1
  %tobool.i.i.not.i.i.i.i.i.i56 = icmp eq i8 %29, 0
  br i1 %tobool.i.i.not.i.i.i.i.i.i56, label %if.else.i.i.i.i.i.i.i65, label %if.then.i.i.i.i.i.i.i57

if.then.i.i.i.i.i.i.i57:                          ; preds = %if.then7.i.i.i.i52
  %30 = load i32, ptr %_M_weak_count.i.i.i.i.i.i55, align 4
  %add.i.i.i.i.i.i.i58 = add nsw i32 %30, -1
  store i32 %add.i.i.i.i.i.i.i58, ptr %_M_weak_count.i.i.i.i.i.i55, align 4
  br label %_ZN9__gnu_cxx27__exchange_and_add_dispatchEPii.exit.i.i.i.i.i.i59

if.else.i.i.i.i.i.i.i65:                          ; preds = %if.then7.i.i.i.i52
  %31 = atomicrmw volatile add ptr %_M_weak_count.i.i.i.i.i.i55, i32 -1 acq_rel, align 4
  br label %_ZN9__gnu_cxx27__exchange_and_add_dispatchEPii.exit.i.i.i.i.i.i59

_ZN9__gnu_cxx27__exchange_and_add_dispatchEPii.exit.i.i.i.i.i.i59: ; preds = %if.else.i.i.i.i.i.i.i65, %if.then.i.i.i.i.i.i.i57
  %retval.i.0.i.i.i.i.i.i60 = phi i32 [ %30, %if.then.i.i.i.i.i.i.i57 ], [ %31, %if.else.i.i.i.i.i.i.i65 ]
  %cmp.i.i.i.i.i.i61 = icmp eq i32 %retval.i.0.i.i.i.i.i.i60, 1
  br i1 %cmp.i.i.i.i.i.i61, label %if.end8.sink.split.i.i.i.i62, label %_ZNSt10shared_ptrIN8facebook5velox9functions9prestosql12_GLOBAL__N_17MatcherEED2Ev.exit

if.end8.sink.split.i.i.i.i62:                     ; preds = %_ZN9__gnu_cxx27__exchange_and_add_dispatchEPii.exit.i.i.i.i.i.i59, %if.then.i.i.i.i67
  %vtable2.i.i.i.i.i.i63 = load ptr, ptr %arraydestroy.element.val, align 8
  %vfn3.i.i.i.i.i.i64 = getelementptr inbounds ptr, ptr %vtable2.i.i.i.i.i.i63, i64 3
  %32 = load ptr, ptr %vfn3.i.i.i.i.i.i64, align 8
  call void %32(ptr noundef nonnull align 8 dereferenceable(16) %arraydestroy.element.val) #17
  br label %_ZNSt10shared_ptrIN8facebook5velox9functions9prestosql12_GLOBAL__N_17MatcherEED2Ev.exit

_ZNSt10shared_ptrIN8facebook5velox9functions9prestosql12_GLOBAL__N_17MatcherEED2Ev.exit: ; preds = %arraydestroy.body, %_ZN9__gnu_cxx27__exchange_and_add_dispatchEPii.exit.i.i.i.i49, %_ZN9__gnu_cxx27__exchange_and_add_dispatchEPii.exit.i.i.i.i.i.i59, %if.end8.sink.split.i.i.i.i62
  %arraydestroy.done = icmp eq ptr %arraydestroy.element, %ref.tmp2
  br i1 %arraydestroy.done, label %arraydestroy.done7, label %arraydestroy.body

arraydestroy.done7:                               ; preds = %_ZNSt10shared_ptrIN8facebook5velox9functions9prestosql12_GLOBAL__N_17MatcherEED2Ev.exit
  ret void

lpad5:                                            ; preds = %invoke.cont
  %33 = landingpad { ptr, i32 }
          cleanup
  call fastcc void @_ZNSt6vectorISt10shared_ptrIN8facebook5velox9functions9prestosql12_GLOBAL__N_17MatcherEESaIS7_EED2Ev(ptr noundef nonnull align 8 dereferenceable(24) %ref.tmp1) #17
  br label %ehcleanup

ehcleanup:                                        ; preds = %lpad.i, %lpad5
  %.pn = phi { ptr, i32 } [ %33, %lpad5 ], [ %19, %lpad.i ]
  br label %arraydestroy.body10

arraydestroy.body10:                              ; preds = %arraydestroy.body10, %ehcleanup
  %arraydestroy.elementPast11 = phi ptr [ %add.ptr.i.i, %ehcleanup ], [ %arraydestroy.element12, %arraydestroy.body10 ]
  %arraydestroy.element12 = getelementptr inbounds %"class.std::shared_ptr.5", ptr %arraydestroy.elementPast11, i64 -1
  %34 = getelementptr %"class.std::shared_ptr.5", ptr %arraydestroy.elementPast11, i64 -1, i32 0, i32 1
  %arraydestroy.element12.val = load ptr, ptr %34, align 8
  call fastcc void @_ZNSt10shared_ptrIN8facebook5velox9functions9prestosql12_GLOBAL__N_17MatcherEED2Ev(ptr %arraydestroy.element12.val) #17
  %arraydestroy.done13 = icmp eq ptr %arraydestroy.element12, %ref.tmp2
  br i1 %arraydestroy.done13, label %eh.resume, label %arraydestroy.body10

eh.resume:                                        ; preds = %arraydestroy.body10
  resume { ptr, i32 } %.pn
}

; Function Attrs: mustprogress uwtable
define internal fastcc void @_ZN8facebook5velox9functions9prestosql12_GLOBAL__N_110comparisonERKNSt7__cxx1112basic_stringIcSt11char_traitsIcESaIcEEERKSt10shared_ptrINS3_7MatcherEESG_PS9_(ptr noalias nocapture writeonly align 8 %agg.result, ptr noundef nonnull align 8 dereferenceable(32) %prefix, ptr %left.0.val, ptr %left.8.val, ptr nocapture noundef nonnull readonly align 8 dereferenceable(16) %right, ptr noundef %op) unnamed_addr #0 personality ptr @__gxx_personality_v0 {
entry:
  %agg.tmp.i.i.i.i.i.i.i = alloca %"class.std::vector.48", align 8
  %ref.tmp1 = alloca %"class.std::vector.48", align 8
  %ref.tmp2 = alloca [2 x %"class.std::shared_ptr.5"], align 8
  store ptr %left.0.val, ptr %ref.tmp2, align 8
  %_M_refcount.i.i = getelementptr inbounds %"class.std::__shared_ptr.6", ptr %ref.tmp2, i64 0, i32 1
  store ptr %left.8.val, ptr %_M_refcount.i.i, align 8
  %cmp.not.i.i.i = icmp eq ptr %left.8.val, null
  br i1 %cmp.not.i.i.i, label %_ZNSt10shared_ptrIN8facebook5velox9functions9prestosql12_GLOBAL__N_17MatcherEEC2ERKS6_.exit, label %if.then.i.i.i

if.then.i.i.i:                                    ; preds = %entry
  %_M_use_count.i.i.i.i = getelementptr inbounds %"class.std::_Sp_counted_base", ptr %left.8.val, i64 0, i32 1
  %0 = load i8, ptr @__libc_single_threaded, align 1
  %tobool.i.not.i.i.i.i = icmp eq i8 %0, 0
  br i1 %tobool.i.not.i.i.i.i, label %if.else.i.i.i.i.i, label %if.then.i.i.i.i.i

if.then.i.i.i.i.i:                                ; preds = %if.then.i.i.i
  %1 = load i32, ptr %_M_use_count.i.i.i.i, align 4
  %add.i.i.i.i.i = add nsw i32 %1, 1
  store i32 %add.i.i.i.i.i, ptr %_M_use_count.i.i.i.i, align 4
  br label %_ZNSt10shared_ptrIN8facebook5velox9functions9prestosql12_GLOBAL__N_17MatcherEEC2ERKS6_.exit

if.else.i.i.i.i.i:                                ; preds = %if.then.i.i.i
  %2 = atomicrmw volatile add ptr %_M_use_count.i.i.i.i, i32 1 acq_rel, align 4
  br label %_ZNSt10shared_ptrIN8facebook5velox9functions9prestosql12_GLOBAL__N_17MatcherEEC2ERKS6_.exit

_ZNSt10shared_ptrIN8facebook5velox9functions9prestosql12_GLOBAL__N_17MatcherEEC2ERKS6_.exit: ; preds = %entry, %if.then.i.i.i.i.i, %if.else.i.i.i.i.i
  %arrayinit.element = getelementptr inbounds %"class.std::shared_ptr.5", ptr %ref.tmp2, i64 1
  %3 = load <2 x ptr>, ptr %right, align 8
  store <2 x ptr> %3, ptr %arrayinit.element, align 8
  %4 = extractelement <2 x ptr> %3, i64 1
  %cmp.not.i.i.i4 = icmp eq ptr %4, null
  br i1 %cmp.not.i.i.i4, label %_ZNSt10shared_ptrIN8facebook5velox9functions9prestosql12_GLOBAL__N_17MatcherEEC2ERKS6_.exit11, label %if.then.i.i.i5

if.then.i.i.i5:                                   ; preds = %_ZNSt10shared_ptrIN8facebook5velox9functions9prestosql12_GLOBAL__N_17MatcherEEC2ERKS6_.exit
  %_M_use_count.i.i.i.i6 = getelementptr inbounds %"class.std::_Sp_counted_base", ptr %4, i64 0, i32 1
  %5 = load i8, ptr @__libc_single_threaded, align 1
  %tobool.i.not.i.i.i.i7 = icmp eq i8 %5, 0
  br i1 %tobool.i.not.i.i.i.i7, label %if.else.i.i.i.i.i10, label %if.then.i.i.i.i.i8

if.then.i.i.i.i.i8:                               ; preds = %if.then.i.i.i5
  %6 = load i32, ptr %_M_use_count.i.i.i.i6, align 4
  %add.i.i.i.i.i9 = add nsw i32 %6, 1
  store i32 %add.i.i.i.i.i9, ptr %_M_use_count.i.i.i.i6, align 4
  br label %_ZNSt10shared_ptrIN8facebook5velox9functions9prestosql12_GLOBAL__N_17MatcherEEC2ERKS6_.exit11

if.else.i.i.i.i.i10:                              ; preds = %if.then.i.i.i5
  %7 = atomicrmw volatile add ptr %_M_use_count.i.i.i.i6, i32 1 acq_rel, align 4
  br label %_ZNSt10shared_ptrIN8facebook5velox9functions9prestosql12_GLOBAL__N_17MatcherEEC2ERKS6_.exit11

_ZNSt10shared_ptrIN8facebook5velox9functions9prestosql12_GLOBAL__N_17MatcherEEC2ERKS6_.exit11: ; preds = %_ZNSt10shared_ptrIN8facebook5velox9functions9prestosql12_GLOBAL__N_17MatcherEEC2ERKS6_.exit, %if.then.i.i.i.i.i8, %if.else.i.i.i.i.i10
  %8 = getelementptr inbounds i8, ptr %ref.tmp1, i64 8
  store i64 0, ptr %8, align 8
  %add.ptr.i.i = getelementptr inbounds %"class.std::shared_ptr.5", ptr %ref.tmp2, i64 2
  %call5.i.i.i.i5.i = invoke noalias noundef nonnull dereferenceable(32) ptr @_Znwm(i64 noundef 32) #18
          to label %call5.i.i.i.i.noexc.i unwind label %lpad.i

call5.i.i.i.i.noexc.i:                            ; preds = %_ZNSt10shared_ptrIN8facebook5velox9functions9prestosql12_GLOBAL__N_17MatcherEEC2ERKS6_.exit11
  store ptr %call5.i.i.i.i5.i, ptr %ref.tmp1, align 8
  %add.ptr.i4.i = getelementptr inbounds %"class.std::shared_ptr.5", ptr %call5.i.i.i.i5.i, i64 2
  %_M_end_of_storage.i.i = getelementptr inbounds %"struct.std::_Vector_base<std::shared_ptr<facebook::velox::functions::prestosql::(anonymous namespace)::Matcher>, std::allocator<std::shared_ptr<facebook::velox::functions::prestosql::(anonymous namespace)::Matcher>>>::_Vector_impl_data", ptr %ref.tmp1, i64 0, i32 2
  store ptr %add.ptr.i4.i, ptr %_M_end_of_storage.i.i, align 8
  br label %for.body.i.i.i.i.i.i

for.body.i.i.i.i.i.i:                             ; preds = %_ZSt10_ConstructISt10shared_ptrIN8facebook5velox9functions9prestosql12_GLOBAL__N_17MatcherEEJRKS7_EEvPT_DpOT0_.exit.i.i.i.i.i.i, %call5.i.i.i.i.noexc.i
