; ModuleID = 'bench/velox/original/SubscriptUtil.cpp.ll'
source_filename = "bench/velox/original/SubscriptUtil.cpp.ll"
target datalayout = "e-m:e-p270:32:32-p271:32:32-p272:64:64-i64:64-i128:128-f80:128-n8:16:32:64-S128"
target triple = "x86_64-unknown-linux-gnu"

%"class.std::__exception_ptr::exception_ptr" = type { ptr }
%"union.std::aligned_storage<32, 16>::type" = type { [32 x i8] }
%"struct.folly::detail::safe_assert_arg" = type { ptr, ptr, i32, ptr, ptr }
%"struct.folly::c_array" = type { [2 x i8] }
%"class.std::shared_ptr" = type { %"class.std::__shared_ptr" }
%"class.std::__shared_ptr" = type { ptr, %"class.std::__shared_count" }
%"class.std::__shared_count" = type { ptr }
%class.anon.1043 = type { i8, ptr, %class.anon.1039 }
%class.anon.1039 = type { ptr, ptr, ptr, ptr, ptr, ptr, ptr }
%class.anon.1042 = type { i8, ptr, %class.anon.1039 }
%"class.boost::intrusive_ptr" = type { ptr }
%"struct.facebook::velox::NullsBuilder" = type { i32, ptr, %"class.boost::intrusive_ptr", ptr }
%"class.facebook::velox::exec::LocalDecodedVector" = type { %"class.std::reference_wrapper", %"class.std::unique_ptr.43" }
%"class.std::reference_wrapper" = type { ptr }
%"class.std::unique_ptr.43" = type { %"struct.std::__uniq_ptr_data.44" }
%"struct.std::__uniq_ptr_data.44" = type { %"class.std::__uniq_ptr_impl.45" }
%"class.std::__uniq_ptr_impl.45" = type { %"class.std::tuple.46" }
%"class.std::tuple.46" = type { %"struct.std::_Tuple_impl.47" }
%"struct.std::_Tuple_impl.47" = type { %"struct.std::_Head_base.50" }
%"struct.std::_Head_base.50" = type { ptr }
%"class.facebook::velox::exec::LocalSelectivityVector" = type { ptr, %"class.std::unique_ptr.64" }
%"class.std::unique_ptr.64" = type { %"struct.std::__uniq_ptr_data.65" }
%"struct.std::__uniq_ptr_data.65" = type { %"class.std::__uniq_ptr_impl.66" }
%"class.std::__uniq_ptr_impl.66" = type { %"class.std::tuple.67" }
%"class.std::tuple.67" = type { %"struct.std::_Tuple_impl.68" }
%"struct.std::_Tuple_impl.68" = type { %"struct.std::_Head_base.71" }
%"struct.std::_Head_base.71" = type { ptr }
%"class.std::vector.59" = type { %"struct.std::_Vector_base.60" }
%"struct.std::_Vector_base.60" = type { %"struct.std::_Vector_base<int, std::allocator<int>>::_Vector_impl" }
%"struct.std::_Vector_base<int, std::allocator<int>>::_Vector_impl" = type { %"struct.std::_Vector_base<int, std::allocator<int>>::_Vector_impl_data" }
%"struct.std::_Vector_base<int, std::allocator<int>>::_Vector_impl_data" = type { ptr, ptr, ptr }
%"class.std::vector.1033" = type { %"struct.std::_Vector_base.1034" }
%"struct.std::_Vector_base.1034" = type { %"struct.std::_Vector_base<facebook::velox::functions::(anonymous namespace)::MapKey, std::allocator<facebook::velox::functions::(anonymous namespace)::MapKey>>::_Vector_impl" }
%"struct.std::_Vector_base<facebook::velox::functions::(anonymous namespace)::MapKey, std::allocator<facebook::velox::functions::(anonymous namespace)::MapKey>>::_Vector_impl" = type { %"struct.std::_Vector_base<facebook::velox::functions::(anonymous namespace)::MapKey, std::allocator<facebook::velox::functions::(anonymous namespace)::MapKey>>::_Vector_impl_data" }
%"struct.std::_Vector_base<facebook::velox::functions::(anonymous namespace)::MapKey, std::allocator<facebook::velox::functions::(anonymous namespace)::MapKey>>::_Vector_impl_data" = type { ptr, ptr, ptr }
%class.anon = type { ptr, ptr, ptr, ptr, ptr, ptr }
%"class.facebook::velox::BaseVector" = type <{ ptr, %"class.std::shared_ptr.0", i8, [3 x i8], i32, %"class.boost::intrusive_ptr", ptr, ptr, i32, %"class.std::optional", %"class.std::optional", %"class.std::optional", %"class.std::optional", i32, i8, i8, i8, [5 x i8] }>
%"class.std::shared_ptr.0" = type { %"class.std::__shared_ptr.1" }
%"class.std::__shared_ptr.1" = type { ptr, %"class.std::__shared_count" }
%"class.std::optional" = type { %"struct.std::_Optional_base" }
%"struct.std::_Optional_base" = type { %"struct.std::_Optional_payload" }
%"struct.std::_Optional_payload" = type { %"struct.std::_Optional_payload_base.base", [3 x i8] }
%"struct.std::_Optional_payload_base.base" = type <{ %"union.std::_Optional_payload_base<int>::_Storage", i8 }>
%"union.std::_Optional_payload_base<int>::_Storage" = type { i32 }
%"class.facebook::velox::SelectivityVector" = type <{ %"class.std::vector.6", i32, i32, i32, %"class.std::optional.11", [2 x i8] }>
%"class.std::vector.6" = type { %"struct.std::_Vector_base.7" }
%"struct.std::_Vector_base.7" = type { %"struct.std::_Vector_base<unsigned long, std::allocator<unsigned long>>::_Vector_impl" }
%"struct.std::_Vector_base<unsigned long, std::allocator<unsigned long>>::_Vector_impl" = type { %"struct.std::_Vector_base<unsigned long, std::allocator<unsigned long>>::_Vector_impl_data" }
%"struct.std::_Vector_base<unsigned long, std::allocator<unsigned long>>::_Vector_impl_data" = type { ptr, ptr, ptr }
%"class.std::optional.11" = type { %"struct.std::_Optional_base.12" }
%"struct.std::_Optional_base.12" = type { %"struct.std::_Optional_payload.14" }
%"struct.std::_Optional_payload.14" = type { %"struct.std::_Optional_payload_base.15" }
%"struct.std::_Optional_payload_base.15" = type { %"union.std::_Optional_payload_base<bool>::_Storage", i8 }
%"union.std::_Optional_payload_base<bool>::_Storage" = type { %"struct.std::_Optional_payload_base<bool>::_Empty_byte" }
%"struct.std::_Optional_payload_base<bool>::_Empty_byte" = type { i8 }
%"class.facebook::velox::Buffer" = type { ptr, ptr, ptr, i64, i64, %"struct.std::atomic.41", i8, [2 x i64] }
%"struct.std::atomic.41" = type { %"struct.std::__atomic_base.42" }
%"struct.std::__atomic_base.42" = type { i32 }
%"class.facebook::velox::DecodedVector" = type { i32, ptr, ptr, ptr, %"class.std::optional.51", ptr, i8, i8, i8, i8, i8, i32, %"class.std::vector.59", %"class.std::vector.6" }
%"class.std::optional.51" = type { %"struct.std::_Optional_base.52" }
%"struct.std::_Optional_base.52" = type { %"struct.std::_Optional_payload.54" }
%"struct.std::_Optional_payload.54" = type { %"struct.std::_Optional_payload_base.base.56", [7 x i8] }
%"struct.std::_Optional_payload_base.base.56" = type <{ %"union.std::_Optional_payload_base<const unsigned long *>::_Storage", i8 }>
%"union.std::_Optional_payload_base<const unsigned long *>::_Storage" = type { ptr }
%"class.facebook::velox::MapVector" = type <{ %"struct.facebook::velox::ArrayVectorBase", %"class.std::shared_ptr", %"class.std::shared_ptr", i8, [7 x i8] }>
%"struct.facebook::velox::ArrayVectorBase" = type { %"class.facebook::velox::BaseVector.base", %"class.boost::intrusive_ptr", ptr, %"class.boost::intrusive_ptr", ptr }
%"class.facebook::velox::BaseVector.base" = type <{ ptr, %"class.std::shared_ptr.0", i8, [3 x i8], i32, %"class.boost::intrusive_ptr", ptr, ptr, i32, %"class.std::optional", %"class.std::optional", %"class.std::optional", %"class.std::optional", i32, i8, i8, i8 }>
%"class.std::_Sp_counted_base" = type { ptr, i32, i32 }
%"struct.facebook::velox::functions::(anonymous namespace)::MapKey" = type { ptr, i32, i32 }
%"class.facebook::velox::core::ExecCtx" = type { ptr, ptr, i8, %"class.std::vector.118", %"class.std::vector.123", %"class.std::unique_ptr.128" }
%"class.std::vector.118" = type { %"struct.std::_Vector_base.119" }
%"struct.std::_Vector_base.119" = type { %"struct.std::_Vector_base<std::unique_ptr<facebook::velox::DecodedVector>, std::allocator<std::unique_ptr<facebook::velox::DecodedVector>>>::_Vector_impl" }
%"struct.std::_Vector_base<std::unique_ptr<facebook::velox::DecodedVector>, std::allocator<std::unique_ptr<facebook::velox::DecodedVector>>>::_Vector_impl" = type { %"struct.std::_Vector_base<std::unique_ptr<facebook::velox::DecodedVector>, std::allocator<std::unique_ptr<facebook::velox::DecodedVector>>>::_Vector_impl_data" }
%"struct.std::_Vector_base<std::unique_ptr<facebook::velox::DecodedVector>, std::allocator<std::unique_ptr<facebook::velox::DecodedVector>>>::_Vector_impl_data" = type { ptr, ptr, ptr }
%"class.std::vector.123" = type { %"struct.std::_Vector_base.124" }
%"struct.std::_Vector_base.124" = type { %"struct.std::_Vector_base<std::unique_ptr<facebook::velox::SelectivityVector>, std::allocator<std::unique_ptr<facebook::velox::SelectivityVector>>>::_Vector_impl" }
%"struct.std::_Vector_base<std::unique_ptr<facebook::velox::SelectivityVector>, std::allocator<std::unique_ptr<facebook::velox::SelectivityVector>>>::_Vector_impl" = type { %"struct.std::_Vector_base<std::unique_ptr<facebook::velox::SelectivityVector>, std::allocator<std::unique_ptr<facebook::velox::SelectivityVector>>>::_Vector_impl_data" }
%"struct.std::_Vector_base<std::unique_ptr<facebook::velox::SelectivityVector>, std::allocator<std::unique_ptr<facebook::velox::SelectivityVector>>>::_Vector_impl_data" = type { ptr, ptr, ptr }
%"class.std::unique_ptr.128" = type { %"struct.std::__uniq_ptr_data.129" }
%"struct.std::__uniq_ptr_data.129" = type { %"class.std::__uniq_ptr_impl.130" }
%"class.std::__uniq_ptr_impl.130" = type { %"class.std::tuple.131" }
%"class.std::tuple.131" = type { %"struct.std::_Tuple_impl.132" }
%"struct.std::_Tuple_impl.132" = type { %"struct.std::_Head_base.135" }
%"struct.std::_Head_base.135" = type { ptr }
%"class.facebook::velox::Type" = type <{ %"class.facebook::velox::Tree", %"class.facebook::velox::ISerializable", i8, [7 x i8] }>
%"class.facebook::velox::Tree" = type { ptr }
%"class.facebook::velox::ISerializable" = type { ptr }
%"class.facebook::velox::functions::MapSubscript" = type { i8, %"class.std::shared_ptr", %"class.std::shared_ptr.3" }
%"class.std::shared_ptr.3" = type { %"class.std::__shared_ptr.4" }
%"class.std::__shared_ptr.4" = type { ptr, %"class.std::__shared_count" }
%class.anon.961 = type { ptr, ptr, ptr, ptr, ptr, ptr, ptr, ptr }
%class.anon.936 = type { ptr, ptr, ptr, ptr, ptr, ptr, ptr, ptr }
%class.anon.859 = type { ptr, ptr, ptr, ptr, ptr, ptr, ptr, ptr }
%class.anon.765 = type { ptr, ptr, ptr, ptr, ptr, ptr, ptr, ptr }
%class.anon.672 = type { ptr, ptr, ptr, ptr, ptr, ptr, ptr, ptr }
%class.anon.587 = type { ptr, ptr, ptr, ptr, ptr, ptr, ptr, ptr }
%class.anon.491 = type { ptr, ptr, ptr, ptr, ptr, ptr, ptr, ptr }
%class.anon.398 = type { ptr, ptr, ptr, ptr, ptr, ptr, ptr, ptr }
%class.anon.305 = type { ptr, ptr, ptr, ptr, ptr, ptr, ptr, ptr }
%class.anon.220 = type { ptr, ptr, ptr, ptr, ptr, ptr, ptr, ptr }
%class.anon.72 = type { ptr, ptr, ptr, ptr, ptr, ptr, ptr, ptr }
%"class.std::_Sp_counted_ptr_inplace" = type { %"class.std::_Sp_counted_base", %"class.std::_Sp_counted_ptr_inplace<facebook::velox::functions::LookupTable<facebook::velox::TypeKind::BOOLEAN>, std::allocator<void>, __gnu_cxx::_S_atomic>::_Impl" }
%"class.std::_Sp_counted_ptr_inplace<facebook::velox::functions::LookupTable<facebook::velox::TypeKind::BOOLEAN>, std::allocator<void>, __gnu_cxx::_S_atomic>::_Impl" = type { %"struct.__gnu_cxx::__aligned_buffer" }
%"struct.__gnu_cxx::__aligned_buffer" = type { %"union.std::aligned_storage<24, 8>::type" }
%"union.std::aligned_storage<24, 8>::type" = type { [24 x i8] }
%"class.folly::f14::detail::VectorContainerPolicy" = type { %"struct.folly::f14::detail::BasePolicy", ptr }
%"struct.folly::f14::detail::BasePolicy" = type { %"struct.folly::f14::detail::ObjectHolder.84" }
%"struct.folly::f14::detail::ObjectHolder.84" = type { %"class.facebook::velox::memory::StlAllocator" }
%"class.facebook::velox::memory::StlAllocator" = type { ptr }
%"class.folly::f14::detail::F14Table" = type { %"class.folly::f14::detail::VectorContainerPolicy", ptr, i32, %"struct.folly::f14::detail::SizeAndPackedBegin" }
%"struct.folly::f14::detail::SizeAndPackedBegin" = type { i32 }
%"class.std::_Sp_counted_ptr_inplace.227" = type { %"class.std::_Sp_counted_base", %"class.std::_Sp_counted_ptr_inplace<facebook::velox::functions::LookupTable<facebook::velox::TypeKind::INTEGER>, std::allocator<void>, __gnu_cxx::_S_atomic>::_Impl" }
%"class.std::_Sp_counted_ptr_inplace<facebook::velox::functions::LookupTable<facebook::velox::TypeKind::INTEGER>, std::allocator<void>, __gnu_cxx::_S_atomic>::_Impl" = type { %"struct.__gnu_cxx::__aligned_buffer.228" }
%"struct.__gnu_cxx::__aligned_buffer.228" = type { %"union.std::aligned_storage<24, 8>::type" }
%"class.folly::f14::detail::VectorContainerPolicy.234" = type { %"struct.folly::f14::detail::BasePolicy.235", ptr }
%"struct.folly::f14::detail::BasePolicy.235" = type { %"struct.folly::f14::detail::ObjectHolder.236" }
%"struct.folly::f14::detail::ObjectHolder.236" = type { %"class.facebook::velox::memory::StlAllocator.229" }
%"class.facebook::velox::memory::StlAllocator.229" = type { ptr }
%"class.folly::f14::detail::F14Table.233" = type { %"class.folly::f14::detail::VectorContainerPolicy.234", ptr, i32, %"struct.folly::f14::detail::SizeAndPackedBegin" }
%"class.std::_Sp_counted_ptr_inplace.312" = type { %"class.std::_Sp_counted_base", %"class.std::_Sp_counted_ptr_inplace<facebook::velox::functions::LookupTable<facebook::velox::TypeKind::TINYINT>, std::allocator<void>, __gnu_cxx::_S_atomic>::_Impl" }
%"class.std::_Sp_counted_ptr_inplace<facebook::velox::functions::LookupTable<facebook::velox::TypeKind::TINYINT>, std::allocator<void>, __gnu_cxx::_S_atomic>::_Impl" = type { %"struct.__gnu_cxx::__aligned_buffer.313" }
%"struct.__gnu_cxx::__aligned_buffer.313" = type { %"union.std::aligned_storage<24, 8>::type" }
%"class.folly::f14::detail::VectorContainerPolicy.319" = type { %"struct.folly::f14::detail::BasePolicy.320", ptr }
%"struct.folly::f14::detail::BasePolicy.320" = type { %"struct.folly::f14::detail::ObjectHolder.321" }
%"struct.folly::f14::detail::ObjectHolder.321" = type { %"class.facebook::velox::memory::StlAllocator.314" }
%"class.facebook::velox::memory::StlAllocator.314" = type { ptr }
%"class.folly::f14::detail::F14Table.318" = type { %"class.folly::f14::detail::VectorContainerPolicy.319", ptr, i32, %"struct.folly::f14::detail::SizeAndPackedBegin" }
%"class.std::_Sp_counted_ptr_inplace.405" = type { %"class.std::_Sp_counted_base", %"class.std::_Sp_counted_ptr_inplace<facebook::velox::functions::LookupTable<facebook::velox::TypeKind::SMALLINT>, std::allocator<void>, __gnu_cxx::_S_atomic>::_Impl" }
%"class.std::_Sp_counted_ptr_inplace<facebook::velox::functions::LookupTable<facebook::velox::TypeKind::SMALLINT>, std::allocator<void>, __gnu_cxx::_S_atomic>::_Impl" = type { %"struct.__gnu_cxx::__aligned_buffer.406" }
%"struct.__gnu_cxx::__aligned_buffer.406" = type { %"union.std::aligned_storage<24, 8>::type" }
%"class.folly::f14::detail::VectorContainerPolicy.412" = type { %"struct.folly::f14::detail::BasePolicy.413", ptr }
%"struct.folly::f14::detail::BasePolicy.413" = type { %"struct.folly::f14::detail::ObjectHolder.414" }
%"struct.folly::f14::detail::ObjectHolder.414" = type { %"class.facebook::velox::memory::StlAllocator.407" }
%"class.facebook::velox::memory::StlAllocator.407" = type { ptr }
%"class.folly::f14::detail::F14Table.411" = type { %"class.folly::f14::detail::VectorContainerPolicy.412", ptr, i32, %"struct.folly::f14::detail::SizeAndPackedBegin" }
%"class.std::_Sp_counted_ptr_inplace.498" = type { %"class.std::_Sp_counted_base", %"class.std::_Sp_counted_ptr_inplace<facebook::velox::functions::LookupTable<facebook::velox::TypeKind::BIGINT>, std::allocator<void>, __gnu_cxx::_S_atomic>::_Impl" }
%"class.std::_Sp_counted_ptr_inplace<facebook::velox::functions::LookupTable<facebook::velox::TypeKind::BIGINT>, std::allocator<void>, __gnu_cxx::_S_atomic>::_Impl" = type { %"struct.__gnu_cxx::__aligned_buffer.499" }
%"struct.__gnu_cxx::__aligned_buffer.499" = type { %"union.std::aligned_storage<24, 8>::type" }
%"class.folly::f14::detail::VectorContainerPolicy.505" = type { %"struct.folly::f14::detail::BasePolicy.506", ptr }
%"struct.folly::f14::detail::BasePolicy.506" = type { %"struct.folly::f14::detail::ObjectHolder.507" }
%"struct.folly::f14::detail::ObjectHolder.507" = type { %"class.facebook::velox::memory::StlAllocator.500" }
%"class.facebook::velox::memory::StlAllocator.500" = type { ptr }
%"class.folly::f14::detail::F14Table.504" = type { %"class.folly::f14::detail::VectorContainerPolicy.505", ptr, i32, %"struct.folly::f14::detail::SizeAndPackedBegin" }
%"class.std::_Sp_counted_ptr_inplace.594" = type { %"class.std::_Sp_counted_base", %"class.std::_Sp_counted_ptr_inplace<facebook::velox::functions::LookupTable<facebook::velox::TypeKind::HUGEINT>, std::allocator<void>, __gnu_cxx::_S_atomic>::_Impl" }
%"class.std::_Sp_counted_ptr_inplace<facebook::velox::functions::LookupTable<facebook::velox::TypeKind::HUGEINT>, std::allocator<void>, __gnu_cxx::_S_atomic>::_Impl" = type { %"struct.__gnu_cxx::__aligned_buffer.595" }
%"struct.__gnu_cxx::__aligned_buffer.595" = type { %"union.std::aligned_storage<24, 8>::type" }
%"class.folly::f14::detail::VectorContainerPolicy.601" = type { %"struct.folly::f14::detail::BasePolicy.602", ptr }
%"struct.folly::f14::detail::BasePolicy.602" = type { %"struct.folly::f14::detail::ObjectHolder.603" }
%"struct.folly::f14::detail::ObjectHolder.603" = type { %"class.facebook::velox::memory::StlAllocator.596" }
%"class.facebook::velox::memory::StlAllocator.596" = type { ptr }
%"class.folly::f14::detail::F14Table.600" = type { %"class.folly::f14::detail::VectorContainerPolicy.601", ptr, i32, %"struct.folly::f14::detail::SizeAndPackedBegin" }
%"class.std::_Sp_counted_ptr_inplace.679" = type { %"class.std::_Sp_counted_base", %"class.std::_Sp_counted_ptr_inplace<facebook::velox::functions::LookupTable<facebook::velox::TypeKind::REAL>, std::allocator<void>, __gnu_cxx::_S_atomic>::_Impl" }
%"class.std::_Sp_counted_ptr_inplace<facebook::velox::functions::LookupTable<facebook::velox::TypeKind::REAL>, std::allocator<void>, __gnu_cxx::_S_atomic>::_Impl" = type { %"struct.__gnu_cxx::__aligned_buffer.680" }
%"struct.__gnu_cxx::__aligned_buffer.680" = type { %"union.std::aligned_storage<24, 8>::type" }
%"class.folly::f14::detail::VectorContainerPolicy.686" = type { %"struct.folly::f14::detail::BasePolicy.687", ptr }
%"struct.folly::f14::detail::BasePolicy.687" = type { %"struct.folly::f14::detail::ObjectHolder.688" }
%"struct.folly::f14::detail::ObjectHolder.688" = type { %"class.facebook::velox::memory::StlAllocator.681" }
%"class.facebook::velox::memory::StlAllocator.681" = type { ptr }
%"class.folly::f14::detail::F14Table.685" = type { %"class.folly::f14::detail::VectorContainerPolicy.686", ptr, i32, %"struct.folly::f14::detail::SizeAndPackedBegin" }
%"class.std::_Sp_counted_ptr_inplace.772" = type { %"class.std::_Sp_counted_base", %"class.std::_Sp_counted_ptr_inplace<facebook::velox::functions::LookupTable<facebook::velox::TypeKind::DOUBLE>, std::allocator<void>, __gnu_cxx::_S_atomic>::_Impl" }
%"class.std::_Sp_counted_ptr_inplace<facebook::velox::functions::LookupTable<facebook::velox::TypeKind::DOUBLE>, std::allocator<void>, __gnu_cxx::_S_atomic>::_Impl" = type { %"struct.__gnu_cxx::__aligned_buffer.773" }
%"struct.__gnu_cxx::__aligned_buffer.773" = type { %"union.std::aligned_storage<24, 8>::type" }
%"class.folly::f14::detail::VectorContainerPolicy.779" = type { %"struct.folly::f14::detail::BasePolicy.780", ptr }
%"struct.folly::f14::detail::BasePolicy.780" = type { %"struct.folly::f14::detail::ObjectHolder.781" }
%"struct.folly::f14::detail::ObjectHolder.781" = type { %"class.facebook::velox::memory::StlAllocator.774" }
%"class.facebook::velox::memory::StlAllocator.774" = type { ptr }
%"class.folly::f14::detail::F14Table.778" = type { %"class.folly::f14::detail::VectorContainerPolicy.779", ptr, i32, %"struct.folly::f14::detail::SizeAndPackedBegin" }
%"class.std::_Sp_counted_ptr_inplace.867" = type { %"class.std::_Sp_counted_base", %"class.std::_Sp_counted_ptr_inplace<facebook::velox::functions::LookupTable<facebook::velox::TypeKind::VARCHAR>, std::allocator<void>, __gnu_cxx::_S_atomic>::_Impl" }
%"class.std::_Sp_counted_ptr_inplace<facebook::velox::functions::LookupTable<facebook::velox::TypeKind::VARCHAR>, std::allocator<void>, __gnu_cxx::_S_atomic>::_Impl" = type { %"struct.__gnu_cxx::__aligned_buffer.868" }
%"struct.__gnu_cxx::__aligned_buffer.868" = type { %"union.std::aligned_storage<24, 8>::type" }
%"class.folly::f14::detail::VectorContainerPolicy.874" = type { %"struct.folly::f14::detail::BasePolicy.875", ptr }
%"struct.folly::f14::detail::BasePolicy.875" = type { %"struct.folly::f14::detail::ObjectHolder.876" }
%"struct.folly::f14::detail::ObjectHolder.876" = type { %"class.facebook::velox::memory::StlAllocator.869" }
%"class.facebook::velox::memory::StlAllocator.869" = type { ptr }
%"class.folly::f14::detail::F14Table.873" = type { %"class.folly::f14::detail::VectorContainerPolicy.874", ptr, i32, %"struct.folly::f14::detail::SizeAndPackedBegin" }
%"struct.facebook::velox::StringView" = type { i32, [4 x i8], %union.anon.860 }
%union.anon.860 = type { ptr }
%"class.std::_Sp_counted_ptr_inplace.943" = type { %"class.std::_Sp_counted_base", %"class.std::_Sp_counted_ptr_inplace<facebook::velox::functions::LookupTable<facebook::velox::TypeKind::VARBINARY>, std::allocator<void>, __gnu_cxx::_S_atomic>::_Impl" }
%"class.std::_Sp_counted_ptr_inplace<facebook::velox::functions::LookupTable<facebook::velox::TypeKind::VARBINARY>, std::allocator<void>, __gnu_cxx::_S_atomic>::_Impl" = type { %"struct.__gnu_cxx::__aligned_buffer.944" }
%"struct.__gnu_cxx::__aligned_buffer.944" = type { %"union.std::aligned_storage<24, 8>::type" }
%"class.std::_Sp_counted_ptr_inplace.968" = type { %"class.std::_Sp_counted_base", %"class.std::_Sp_counted_ptr_inplace<facebook::velox::functions::LookupTable<facebook::velox::TypeKind::TIMESTAMP>, std::allocator<void>, __gnu_cxx::_S_atomic>::_Impl" }
%"class.std::_Sp_counted_ptr_inplace<facebook::velox::functions::LookupTable<facebook::velox::TypeKind::TIMESTAMP>, std::allocator<void>, __gnu_cxx::_S_atomic>::_Impl" = type { %"struct.__gnu_cxx::__aligned_buffer.969" }
%"struct.__gnu_cxx::__aligned_buffer.969" = type { %"union.std::aligned_storage<24, 8>::type" }
%"class.folly::f14::detail::VectorContainerPolicy.975" = type { %"struct.folly::f14::detail::BasePolicy.976", ptr }
%"struct.folly::f14::detail::BasePolicy.976" = type { %"struct.folly::f14::detail::ObjectHolder.977" }
%"struct.folly::f14::detail::ObjectHolder.977" = type { %"class.facebook::velox::memory::StlAllocator.970" }
%"class.facebook::velox::memory::StlAllocator.970" = type { ptr }
%"class.folly::f14::detail::F14Table.974" = type { %"class.folly::f14::detail::VectorContainerPolicy.975", ptr, i32, %"struct.folly::f14::detail::SizeAndPackedBegin" }
%"struct.facebook::velox::Timestamp" = type { i64, i64 }
%"class.std::type_info" = type { ptr, ptr }
%"class.facebook::velox::functions::LookupTable" = type { %"class.facebook::velox::functions::LookupTableBase", ptr, %"class.std::unique_ptr" }
%"class.facebook::velox::functions::LookupTableBase" = type { ptr }
%"class.std::unique_ptr" = type { %"struct.std::__uniq_ptr_data" }
%"struct.std::__uniq_ptr_data" = type { %"class.std::__uniq_ptr_impl" }
%"class.std::__uniq_ptr_impl" = type { %"class.std::tuple" }
%"class.std::tuple" = type { %"struct.std::_Tuple_impl" }
%"struct.std::_Tuple_impl" = type { %"struct.std::_Head_base.40" }
%"struct.std::_Head_base.40" = type { ptr }
%"class.std::bad_alloc" = type { %"class.std::exception" }
%"class.std::exception" = type { ptr }
%"struct.std::pair.92" = type { i32, %"class.folly::F14FastMap.94" }
%"class.folly::F14FastMap.94" = type { %"class.folly::F14ValueMap" }
%"class.folly::F14ValueMap" = type { %"class.folly::f14::detail::F14BasicMap.95" }
%"class.folly::f14::detail::F14BasicMap.95" = type { %"class.folly::f14::detail::F14Table.96" }
%"class.folly::f14::detail::F14Table.96" = type { %"class.folly::f14::detail::ValueContainerPolicy", ptr, i64, %"struct.folly::f14::detail::SizeAndPackedBegin.108" }
%"class.folly::f14::detail::ValueContainerPolicy" = type { %"struct.folly::f14::detail::BasePolicy.97" }
%"struct.folly::f14::detail::BasePolicy.97" = type { %"struct.folly::f14::detail::ObjectHolder.106" }
%"struct.folly::f14::detail::ObjectHolder.106" = type { %"class.facebook::velox::memory::StlAllocator.107" }
%"class.facebook::velox::memory::StlAllocator.107" = type { ptr }
%"struct.folly::f14::detail::SizeAndPackedBegin.108" = type { i64, %"class.folly::f14::detail::PackedChunkItemPtr" }
%"class.folly::f14::detail::PackedChunkItemPtr" = type { i64 }
%"struct.folly::f14::detail::F14Chunk" = type { %"struct.std::array", i8, i8, %"struct.std::array.113" }
%"struct.std::array" = type { [14 x i8] }
%"struct.std::array.113" = type { [14 x %"union.std::aligned_storage<8, 4>::type"] }
%"union.std::aligned_storage<8, 4>::type" = type { [8 x i8] }
%class.anon.150 = type <{ ptr, ptr, i8, [7 x i8] }>
%class.anon.152 = type <{ ptr, ptr, i8, [7 x i8] }>
%"struct.std::pair.181" = type <{ %"class.folly::f14::detail::F14ItemIter", i8, [7 x i8] }>
%"class.folly::f14::detail::F14ItemIter" = type { ptr, i64 }
%"struct.std::pair.165" = type <{ %"class.folly::f14::detail::F14ItemIter.160", i8, [7 x i8] }>
%"class.folly::f14::detail::F14ItemIter.160" = type { ptr, i64 }
%"struct.folly::f14::detail::F14Chunk.115" = type { %"struct.std::array", i8, i8, %"struct.std::array.116" }
%"struct.std::array.116" = type { [12 x %"union.std::aligned_storage<4, 4>::type"] }
%"union.std::aligned_storage<4, 4>::type" = type { [4 x i8] }
%"class.folly::detail::ScopeGuardImpl" = type { %"class.folly::detail::ScopeGuardImplBase", %class.anon.175 }
%"class.folly::detail::ScopeGuardImplBase" = type { i8 }
%class.anon.175 = type { ptr, ptr, ptr, ptr, ptr, ptr, ptr, ptr, ptr, ptr, ptr }
%"struct.std::array.176" = type { [256 x i8] }
%"struct.std::pair.158" = type { i8, i32 }
%"class.folly::detail::ScopeGuardImpl.190" = type { %"class.folly::detail::ScopeGuardImplBase", %class.anon.191 }
%class.anon.191 = type { ptr, ptr, ptr, ptr, ptr, ptr, ptr, ptr, ptr, ptr, ptr }
%"class.facebook::velox::functions::LookupTable.211" = type { %"class.facebook::velox::functions::LookupTableBase", ptr, %"class.std::unique_ptr.212" }
%"class.std::unique_ptr.212" = type { %"struct.std::__uniq_ptr_data.213" }
%"struct.std::__uniq_ptr_data.213" = type { %"class.std::__uniq_ptr_impl.214" }
%"class.std::__uniq_ptr_impl.214" = type { %"class.std::tuple.215" }
%"class.std::tuple.215" = type { %"struct.std::_Tuple_impl.216" }
%"struct.std::_Tuple_impl.216" = type { %"struct.std::_Head_base.219" }
%"struct.std::_Head_base.219" = type { ptr }
%"struct.std::pair.237" = type { i32, %"class.folly::F14FastMap.239" }
%"class.folly::F14FastMap.239" = type { %"class.folly::F14ValueMap.240" }
%"class.folly::F14ValueMap.240" = type { %"class.folly::f14::detail::F14BasicMap.241" }
%"class.folly::f14::detail::F14BasicMap.241" = type { %"class.folly::f14::detail::F14Table.242" }
%"class.folly::f14::detail::F14Table.242" = type { %"class.folly::f14::detail::ValueContainerPolicy.243", ptr, i64, %"struct.folly::f14::detail::SizeAndPackedBegin.247" }
%"class.folly::f14::detail::ValueContainerPolicy.243" = type { %"struct.folly::f14::detail::BasePolicy.244" }
%"struct.folly::f14::detail::BasePolicy.244" = type { %"struct.folly::f14::detail::ObjectHolder.245" }
%"struct.folly::f14::detail::ObjectHolder.245" = type { %"class.facebook::velox::memory::StlAllocator.246" }
%"class.facebook::velox::memory::StlAllocator.246" = type { ptr }
%"struct.folly::f14::detail::SizeAndPackedBegin.247" = type { i64, %"class.folly::f14::detail::PackedChunkItemPtr.248" }
%"class.folly::f14::detail::PackedChunkItemPtr.248" = type { i64 }
%"struct.folly::f14::detail::F14Chunk.252" = type { %"struct.std::array", i8, i8, %"struct.std::array.113" }
%"struct.std::pair.274" = type <{ %"class.folly::f14::detail::F14ItemIter.251", i8, [7 x i8] }>
%"class.folly::f14::detail::F14ItemIter.251" = type { ptr, i64 }
%"class.folly::detail::ScopeGuardImpl.268" = type { %"class.folly::detail::ScopeGuardImplBase", %class.anon.269 }
%class.anon.269 = type { ptr, ptr, ptr, ptr, ptr, ptr, ptr, ptr, ptr, ptr, ptr }
%"struct.std::pair.260" = type { i32, i32 }
%"class.folly::detail::ScopeGuardImpl.281" = type { %"class.folly::detail::ScopeGuardImplBase", %class.anon.282 }
%class.anon.282 = type { ptr, ptr, ptr, ptr, ptr, ptr, ptr, ptr, ptr, ptr, ptr }
%"class.facebook::velox::functions::LookupTable.296" = type { %"class.facebook::velox::functions::LookupTableBase", ptr, %"class.std::unique_ptr.297" }
%"class.std::unique_ptr.297" = type { %"struct.std::__uniq_ptr_data.298" }
%"struct.std::__uniq_ptr_data.298" = type { %"class.std::__uniq_ptr_impl.299" }
%"class.std::__uniq_ptr_impl.299" = type { %"class.std::tuple.300" }
%"class.std::tuple.300" = type { %"struct.std::_Tuple_impl.301" }
%"struct.std::_Tuple_impl.301" = type { %"struct.std::_Head_base.304" }
%"struct.std::_Head_base.304" = type { ptr }
%"struct.std::pair.322" = type { i32, %"class.folly::F14FastMap.324" }
%"class.folly::F14FastMap.324" = type { %"class.folly::F14ValueMap.325" }
%"class.folly::F14ValueMap.325" = type { %"class.folly::f14::detail::F14BasicMap.326" }
%"class.folly::f14::detail::F14BasicMap.326" = type { %"class.folly::f14::detail::F14Table.327" }
%"class.folly::f14::detail::F14Table.327" = type { %"class.folly::f14::detail::ValueContainerPolicy.328", ptr, i64, %"struct.folly::f14::detail::SizeAndPackedBegin.340" }
%"class.folly::f14::detail::ValueContainerPolicy.328" = type { %"struct.folly::f14::detail::BasePolicy.329" }
%"struct.folly::f14::detail::BasePolicy.329" = type { %"struct.folly::f14::detail::ObjectHolder.338" }
%"struct.folly::f14::detail::ObjectHolder.338" = type { %"class.facebook::velox::memory::StlAllocator.339" }
%"class.facebook::velox::memory::StlAllocator.339" = type { ptr }
%"struct.folly::f14::detail::SizeAndPackedBegin.340" = type { i64, %"class.folly::f14::detail::PackedChunkItemPtr.341" }
%"class.folly::f14::detail::PackedChunkItemPtr.341" = type { i64 }
%"struct.folly::f14::detail::F14Chunk.345" = type { %"struct.std::array", i8, i8, %"struct.std::array.113" }
%"struct.std::pair.367" = type <{ %"class.folly::f14::detail::F14ItemIter.344", i8, [7 x i8] }>
%"class.folly::f14::detail::F14ItemIter.344" = type { ptr, i64 }
%"class.folly::detail::ScopeGuardImpl.361" = type { %"class.folly::detail::ScopeGuardImplBase", %class.anon.362 }
%class.anon.362 = type { ptr, ptr, ptr, ptr, ptr, ptr, ptr, ptr, ptr, ptr, ptr }
%"struct.std::pair.353" = type { i8, i32 }
%"class.folly::detail::ScopeGuardImpl.374" = type { %"class.folly::detail::ScopeGuardImplBase", %class.anon.375 }
%class.anon.375 = type { ptr, ptr, ptr, ptr, ptr, ptr, ptr, ptr, ptr, ptr, ptr }
%"class.facebook::velox::functions::LookupTable.389" = type { %"class.facebook::velox::functions::LookupTableBase", ptr, %"class.std::unique_ptr.390" }
%"class.std::unique_ptr.390" = type { %"struct.std::__uniq_ptr_data.391" }
%"struct.std::__uniq_ptr_data.391" = type { %"class.std::__uniq_ptr_impl.392" }
%"class.std::__uniq_ptr_impl.392" = type { %"class.std::tuple.393" }
%"class.std::tuple.393" = type { %"struct.std::_Tuple_impl.394" }
%"struct.std::_Tuple_impl.394" = type { %"struct.std::_Head_base.397" }
%"struct.std::_Head_base.397" = type { ptr }
%"struct.std::pair.415" = type { i32, %"class.folly::F14FastMap.417" }
%"class.folly::F14FastMap.417" = type { %"class.folly::F14ValueMap.418" }
%"class.folly::F14ValueMap.418" = type { %"class.folly::f14::detail::F14BasicMap.419" }
%"class.folly::f14::detail::F14BasicMap.419" = type { %"class.folly::f14::detail::F14Table.420" }
%"class.folly::f14::detail::F14Table.420" = type { %"class.folly::f14::detail::ValueContainerPolicy.421", ptr, i64, %"struct.folly::f14::detail::SizeAndPackedBegin.433" }
%"class.folly::f14::detail::ValueContainerPolicy.421" = type { %"struct.folly::f14::detail::BasePolicy.422" }
%"struct.folly::f14::detail::BasePolicy.422" = type { %"struct.folly::f14::detail::ObjectHolder.431" }
%"struct.folly::f14::detail::ObjectHolder.431" = type { %"class.facebook::velox::memory::StlAllocator.432" }
%"class.facebook::velox::memory::StlAllocator.432" = type { ptr }
%"struct.folly::f14::detail::SizeAndPackedBegin.433" = type { i64, %"class.folly::f14::detail::PackedChunkItemPtr.434" }
%"class.folly::f14::detail::PackedChunkItemPtr.434" = type { i64 }
%"struct.folly::f14::detail::F14Chunk.438" = type { %"struct.std::array", i8, i8, %"struct.std::array.113" }
%"struct.std::pair.460" = type <{ %"class.folly::f14::detail::F14ItemIter.437", i8, [7 x i8] }>
%"class.folly::f14::detail::F14ItemIter.437" = type { ptr, i64 }
%"class.folly::detail::ScopeGuardImpl.454" = type { %"class.folly::detail::ScopeGuardImplBase", %class.anon.455 }
%class.anon.455 = type { ptr, ptr, ptr, ptr, ptr, ptr, ptr, ptr, ptr, ptr, ptr }
%"struct.std::pair.446" = type { i16, i32 }
%"class.folly::detail::ScopeGuardImpl.467" = type { %"class.folly::detail::ScopeGuardImplBase", %class.anon.468 }
%class.anon.468 = type { ptr, ptr, ptr, ptr, ptr, ptr, ptr, ptr, ptr, ptr, ptr }
%"class.facebook::velox::functions::LookupTable.482" = type { %"class.facebook::velox::functions::LookupTableBase", ptr, %"class.std::unique_ptr.483" }
%"class.std::unique_ptr.483" = type { %"struct.std::__uniq_ptr_data.484" }
%"struct.std::__uniq_ptr_data.484" = type { %"class.std::__uniq_ptr_impl.485" }
%"class.std::__uniq_ptr_impl.485" = type { %"class.std::tuple.486" }
%"class.std::tuple.486" = type { %"struct.std::_Tuple_impl.487" }
%"struct.std::_Tuple_impl.487" = type { %"struct.std::_Head_base.490" }
%"struct.std::_Head_base.490" = type { ptr }
%"struct.std::pair.508" = type { i32, %"class.folly::F14FastMap.510" }
%"class.folly::F14FastMap.510" = type { %"class.folly::F14ValueMap.511" }
%"class.folly::F14ValueMap.511" = type { %"class.folly::f14::detail::F14BasicMap.512" }
%"class.folly::f14::detail::F14BasicMap.512" = type { %"class.folly::f14::detail::F14Table.513" }
%"class.folly::f14::detail::F14Table.513" = type { %"class.folly::f14::detail::ValueContainerPolicy.514", ptr, i64, %"struct.folly::f14::detail::SizeAndPackedBegin.526" }
%"class.folly::f14::detail::ValueContainerPolicy.514" = type { %"struct.folly::f14::detail::BasePolicy.515" }
%"struct.folly::f14::detail::BasePolicy.515" = type { %"struct.folly::f14::detail::ObjectHolder.524" }
%"struct.folly::f14::detail::ObjectHolder.524" = type { %"class.facebook::velox::memory::StlAllocator.525" }
%"class.facebook::velox::memory::StlAllocator.525" = type { ptr }
%"struct.folly::f14::detail::SizeAndPackedBegin.526" = type { i64, %"class.folly::f14::detail::PackedChunkItemPtr.527" }
%"class.folly::f14::detail::PackedChunkItemPtr.527" = type { i64 }
%"struct.folly::f14::detail::F14Chunk.531" = type { %"struct.std::array", i8, i8, %"struct.std::array.532" }
%"struct.std::array.532" = type { [15 x %"union.std::aligned_storage<16, 8>::type"] }
%"union.std::aligned_storage<16, 8>::type" = type { [16 x i8] }
%"struct.std::pair.556" = type <{ %"class.folly::f14::detail::F14ItemIter.530", i8, [7 x i8] }>
%"class.folly::f14::detail::F14ItemIter.530" = type { ptr, i64 }
%"struct.std::pair.541" = type <{ i64, i32, [4 x i8] }>
%"class.folly::detail::ScopeGuardImpl.550" = type { %"class.folly::detail::ScopeGuardImplBase", %class.anon.551 }
%class.anon.551 = type { ptr, ptr, ptr, ptr, ptr, ptr, ptr, ptr, ptr, ptr, ptr }
%"class.folly::detail::ScopeGuardImpl.563" = type { %"class.folly::detail::ScopeGuardImplBase", %class.anon.564 }
%class.anon.564 = type { ptr, ptr, ptr, ptr, ptr, ptr, ptr, ptr, ptr, ptr, ptr }
%"class.facebook::velox::functions::LookupTable.578" = type { %"class.facebook::velox::functions::LookupTableBase", ptr, %"class.std::unique_ptr.579" }
%"class.std::unique_ptr.579" = type { %"struct.std::__uniq_ptr_data.580" }
%"struct.std::__uniq_ptr_data.580" = type { %"class.std::__uniq_ptr_impl.581" }
%"class.std::__uniq_ptr_impl.581" = type { %"class.std::tuple.582" }
%"class.std::tuple.582" = type { %"struct.std::_Tuple_impl.583" }
%"struct.std::_Tuple_impl.583" = type { %"struct.std::_Head_base.586" }
%"struct.std::_Head_base.586" = type { ptr }
%"struct.std::pair.604" = type { i32, %"class.folly::F14FastMap.606" }
%"class.folly::F14FastMap.606" = type { %"class.folly::f14::detail::F14VectorMapImpl.607" }
%"class.folly::f14::detail::F14VectorMapImpl.607" = type { %"class.folly::f14::detail::F14BasicMap.608" }
%"class.folly::f14::detail::F14BasicMap.608" = type { %"class.folly::f14::detail::F14Table.609" }
%"class.folly::f14::detail::F14Table.609" = type { %"class.folly::f14::detail::VectorContainerPolicy.610", ptr, i32, %"struct.folly::f14::detail::SizeAndPackedBegin" }
%"class.folly::f14::detail::VectorContainerPolicy.610" = type { %"struct.folly::f14::detail::BasePolicy.611", ptr }
%"struct.folly::f14::detail::BasePolicy.611" = type { %"struct.folly::f14::detail::ObjectHolder.620" }
%"struct.folly::f14::detail::ObjectHolder.620" = type { %"class.facebook::velox::memory::StlAllocator.621" }
%"class.facebook::velox::memory::StlAllocator.621" = type { ptr }
%"struct.std::pair.624" = type <{ i128, i32, [12 x i8] }>
%"class.folly::detail::ScopeGuardImpl.640" = type { %"class.folly::detail::ScopeGuardImplBase", %class.anon.641 }
%class.anon.641 = type { ptr, ptr, ptr, ptr, ptr, ptr, ptr, ptr, ptr, ptr, ptr }
%"class.folly::detail::ScopeGuardImpl.650" = type { %"class.folly::detail::ScopeGuardImplBase", %class.anon.651 }
%class.anon.651 = type { ptr, ptr, ptr, ptr, ptr, ptr, ptr, ptr, ptr, ptr, ptr }
%"class.facebook::velox::functions::LookupTable.663" = type { %"class.facebook::velox::functions::LookupTableBase", ptr, %"class.std::unique_ptr.664" }
%"class.std::unique_ptr.664" = type { %"struct.std::__uniq_ptr_data.665" }
%"struct.std::__uniq_ptr_data.665" = type { %"class.std::__uniq_ptr_impl.666" }
%"class.std::__uniq_ptr_impl.666" = type { %"class.std::tuple.667" }
%"class.std::tuple.667" = type { %"struct.std::_Tuple_impl.668" }
%"struct.std::_Tuple_impl.668" = type { %"struct.std::_Head_base.671" }
%"struct.std::_Head_base.671" = type { ptr }
%"struct.std::pair.689" = type { i32, %"class.folly::F14FastMap.691" }
%"class.folly::F14FastMap.691" = type { %"class.folly::F14ValueMap.692" }
%"class.folly::F14ValueMap.692" = type { %"class.folly::f14::detail::F14BasicMap.693" }
%"class.folly::f14::detail::F14BasicMap.693" = type { %"class.folly::f14::detail::F14Table.694" }
%"class.folly::f14::detail::F14Table.694" = type { %"class.folly::f14::detail::ValueContainerPolicy.695", ptr, i64, %"struct.folly::f14::detail::SizeAndPackedBegin.707" }
%"class.folly::f14::detail::ValueContainerPolicy.695" = type { %"struct.folly::f14::detail::BasePolicy.696" }
%"struct.folly::f14::detail::BasePolicy.696" = type { %"struct.folly::f14::detail::ObjectHolder.705" }
%"struct.folly::f14::detail::ObjectHolder.705" = type { %"class.facebook::velox::memory::StlAllocator.706" }
%"class.facebook::velox::memory::StlAllocator.706" = type { ptr }
%"struct.folly::f14::detail::SizeAndPackedBegin.707" = type { i64, %"class.folly::f14::detail::PackedChunkItemPtr.708" }
%"class.folly::f14::detail::PackedChunkItemPtr.708" = type { i64 }
%"struct.folly::f14::detail::F14Chunk.712" = type { %"struct.std::array", i8, i8, %"struct.std::array.113" }
%"struct.std::pair.734" = type <{ %"class.folly::f14::detail::F14ItemIter.711", i8, [7 x i8] }>
%"class.folly::f14::detail::F14ItemIter.711" = type { ptr, i64 }
%"class.folly::detail::ScopeGuardImpl.728" = type { %"class.folly::detail::ScopeGuardImplBase", %class.anon.729 }
%class.anon.729 = type { ptr, ptr, ptr, ptr, ptr, ptr, ptr, ptr, ptr, ptr, ptr }
%"struct.std::pair.720" = type { float, i32 }
%"class.folly::detail::ScopeGuardImpl.741" = type { %"class.folly::detail::ScopeGuardImplBase", %class.anon.742 }
%class.anon.742 = type { ptr, ptr, ptr, ptr, ptr, ptr, ptr, ptr, ptr, ptr, ptr }
%"class.facebook::velox::functions::LookupTable.756" = type { %"class.facebook::velox::functions::LookupTableBase", ptr, %"class.std::unique_ptr.757" }
%"class.std::unique_ptr.757" = type { %"struct.std::__uniq_ptr_data.758" }
%"struct.std::__uniq_ptr_data.758" = type { %"class.std::__uniq_ptr_impl.759" }
%"class.std::__uniq_ptr_impl.759" = type { %"class.std::tuple.760" }
%"class.std::tuple.760" = type { %"struct.std::_Tuple_impl.761" }
%"struct.std::_Tuple_impl.761" = type { %"struct.std::_Head_base.764" }
%"struct.std::_Head_base.764" = type { ptr }
%"struct.std::pair.782" = type { i32, %"class.folly::F14FastMap.784" }
%"class.folly::F14FastMap.784" = type { %"class.folly::F14ValueMap.785" }
%"class.folly::F14ValueMap.785" = type { %"class.folly::f14::detail::F14BasicMap.786" }
%"class.folly::f14::detail::F14BasicMap.786" = type { %"class.folly::f14::detail::F14Table.787" }
%"class.folly::f14::detail::F14Table.787" = type { %"class.folly::f14::detail::ValueContainerPolicy.788", ptr, i64, %"struct.folly::f14::detail::SizeAndPackedBegin.800" }
%"class.folly::f14::detail::ValueContainerPolicy.788" = type { %"struct.folly::f14::detail::BasePolicy.789" }
%"struct.folly::f14::detail::BasePolicy.789" = type { %"struct.folly::f14::detail::ObjectHolder.798" }
%"struct.folly::f14::detail::ObjectHolder.798" = type { %"class.facebook::velox::memory::StlAllocator.799" }
%"class.facebook::velox::memory::StlAllocator.799" = type { ptr }
%"struct.folly::f14::detail::SizeAndPackedBegin.800" = type { i64, %"class.folly::f14::detail::PackedChunkItemPtr.801" }
%"class.folly::f14::detail::PackedChunkItemPtr.801" = type { i64 }
%"struct.folly::f14::detail::F14Chunk.805" = type { %"struct.std::array", i8, i8, %"struct.std::array.532" }
%"struct.std::pair.828" = type <{ %"class.folly::f14::detail::F14ItemIter.804", i8, [7 x i8] }>
%"class.folly::f14::detail::F14ItemIter.804" = type { ptr, i64 }
%"struct.std::pair.813" = type <{ double, i32, [4 x i8] }>
%"class.folly::detail::ScopeGuardImpl.822" = type { %"class.folly::detail::ScopeGuardImplBase", %class.anon.823 }
%class.anon.823 = type { ptr, ptr, ptr, ptr, ptr, ptr, ptr, ptr, ptr, ptr, ptr }
%"class.folly::detail::ScopeGuardImpl.835" = type { %"class.folly::detail::ScopeGuardImplBase", %class.anon.836 }
%class.anon.836 = type { ptr, ptr, ptr, ptr, ptr, ptr, ptr, ptr, ptr, ptr, ptr }
%"class.facebook::velox::functions::LookupTable.850" = type { %"class.facebook::velox::functions::LookupTableBase", ptr, %"class.std::unique_ptr.851" }
%"class.std::unique_ptr.851" = type { %"struct.std::__uniq_ptr_data.852" }
%"struct.std::__uniq_ptr_data.852" = type { %"class.std::__uniq_ptr_impl.853" }
%"class.std::__uniq_ptr_impl.853" = type { %"class.std::tuple.854" }
%"class.std::tuple.854" = type { %"struct.std::_Tuple_impl.855" }
%"struct.std::_Tuple_impl.855" = type { %"struct.std::_Head_base.858" }
%"struct.std::_Head_base.858" = type { ptr }
%"struct.std::pair.877" = type { i32, %"class.folly::F14FastMap.879" }
%"class.folly::F14FastMap.879" = type { %"class.folly::f14::detail::F14VectorMapImpl.880" }
%"class.folly::f14::detail::F14VectorMapImpl.880" = type { %"class.folly::f14::detail::F14BasicMap.881" }
%"class.folly::f14::detail::F14BasicMap.881" = type { %"class.folly::f14::detail::F14Table.882" }
%"class.folly::f14::detail::F14Table.882" = type { %"class.folly::f14::detail::VectorContainerPolicy.883", ptr, i32, %"struct.folly::f14::detail::SizeAndPackedBegin" }
%"class.folly::f14::detail::VectorContainerPolicy.883" = type { %"struct.folly::f14::detail::BasePolicy.884", ptr }
%"struct.folly::f14::detail::BasePolicy.884" = type { %"struct.folly::f14::detail::ObjectHolder.892" }
%"struct.folly::f14::detail::ObjectHolder.892" = type { %"class.facebook::velox::memory::StlAllocator.893" }
%"class.facebook::velox::memory::StlAllocator.893" = type { ptr }
%"struct.std::pair.896" = type <{ %"struct.facebook::velox::StringView", i32, [4 x i8] }>
%"class.folly::detail::ScopeGuardImpl.912" = type { %"class.folly::detail::ScopeGuardImplBase", %class.anon.913 }
%class.anon.913 = type { ptr, ptr, ptr, ptr, ptr, ptr, ptr, ptr, ptr, ptr, ptr }
%"class.folly::detail::ScopeGuardImpl.922" = type { %"class.folly::detail::ScopeGuardImplBase", %class.anon.923 }
%class.anon.923 = type { ptr, ptr, ptr, ptr, ptr, ptr, ptr, ptr, ptr, ptr, ptr }
%"class.folly::detail::ScopeGuardImpl.924" = type { %"class.folly::detail::ScopeGuardImplBase", %class.anon.925 }
%class.anon.925 = type { ptr, ptr, ptr, ptr }
%"class.facebook::velox::functions::LookupTable.935" = type { %"class.facebook::velox::functions::LookupTableBase", ptr, %"class.std::unique_ptr.851" }
%"class.facebook::velox::functions::LookupTable.952" = type { %"class.facebook::velox::functions::LookupTableBase", ptr, %"class.std::unique_ptr.953" }
%"class.std::unique_ptr.953" = type { %"struct.std::__uniq_ptr_data.954" }
%"struct.std::__uniq_ptr_data.954" = type { %"class.std::__uniq_ptr_impl.955" }
%"class.std::__uniq_ptr_impl.955" = type { %"class.std::tuple.956" }
%"class.std::tuple.956" = type { %"struct.std::_Tuple_impl.957" }
%"struct.std::_Tuple_impl.957" = type { %"struct.std::_Head_base.960" }
%"struct.std::_Head_base.960" = type { ptr }
%"struct.std::pair.978" = type { i32, %"class.folly::F14FastMap.980" }
%"class.folly::F14FastMap.980" = type { %"class.folly::f14::detail::F14VectorMapImpl.981" }
%"class.folly::f14::detail::F14VectorMapImpl.981" = type { %"class.folly::f14::detail::F14BasicMap.982" }
%"class.folly::f14::detail::F14BasicMap.982" = type { %"class.folly::f14::detail::F14Table.983" }
%"class.folly::f14::detail::F14Table.983" = type { %"class.folly::f14::detail::VectorContainerPolicy.984", ptr, i32, %"struct.folly::f14::detail::SizeAndPackedBegin" }
%"class.folly::f14::detail::VectorContainerPolicy.984" = type { %"struct.folly::f14::detail::BasePolicy.985", ptr }
%"struct.folly::f14::detail::BasePolicy.985" = type { %"struct.folly::f14::detail::ObjectHolder.993" }
%"struct.folly::f14::detail::ObjectHolder.993" = type { %"class.facebook::velox::memory::StlAllocator.994" }
%"class.facebook::velox::memory::StlAllocator.994" = type { ptr }
%"struct.std::pair.997" = type <{ %"struct.facebook::velox::Timestamp", i32, [4 x i8] }>
%"class.folly::detail::ScopeGuardImpl.1013" = type { %"class.folly::detail::ScopeGuardImplBase", %class.anon.1014 }
%class.anon.1014 = type { ptr, ptr, ptr, ptr, ptr, ptr, ptr, ptr, ptr, ptr, ptr }
%"class.folly::detail::ScopeGuardImpl.1023" = type { %"class.folly::detail::ScopeGuardImplBase", %class.anon.1024 }
%class.anon.1024 = type { ptr, ptr, ptr, ptr, ptr, ptr, ptr, ptr, ptr, ptr, ptr }

$_ZNK8facebook5velox9functions12MapSubscript20shouldTriggerCachingERKSt10shared_ptrINS0_10BaseVectorEE = comdat any

$__clang_call_terminate = comdat any

$_ZN8facebook5velox4exec18LocalDecodedVector3getEv = comdat any

$_ZNSt10shared_ptrIN8facebook5velox10BaseVectorEED2Ev = comdat any

$_ZN5boost13intrusive_ptrIN8facebook5velox6BufferEED2Ev = comdat any

$_ZN8facebook5velox4exec18LocalDecodedVectorD2Ev = comdat any

$_ZN8facebook5velox4exec22LocalSelectivityVectorD2Ev = comdat any

$_ZN8facebook5velox12NullsBuilderD2Ev = comdat any

$_ZNSt23_Sp_counted_ptr_inplaceIN8facebook5velox9functions11LookupTableILNS1_8TypeKindE0EEESaIvELN9__gnu_cxx12_Lock_policyE2EED2Ev = comdat any

$_ZNSt23_Sp_counted_ptr_inplaceIN8facebook5velox9functions11LookupTableILNS1_8TypeKindE0EEESaIvELN9__gnu_cxx12_Lock_policyE2EED0Ev = comdat any

$_ZNSt23_Sp_counted_ptr_inplaceIN8facebook5velox9functions11LookupTableILNS1_8TypeKindE0EEESaIvELN9__gnu_cxx12_Lock_policyE2EE10_M_disposeEv = comdat any

$_ZNSt23_Sp_counted_ptr_inplaceIN8facebook5velox9functions11LookupTableILNS1_8TypeKindE0EEESaIvELN9__gnu_cxx12_Lock_policyE2EE10_M_destroyEv = comdat any

$_ZNSt23_Sp_counted_ptr_inplaceIN8facebook5velox9functions11LookupTableILNS1_8TypeKindE0EEESaIvELN9__gnu_cxx12_Lock_policyE2EE14_M_get_deleterERKSt9type_info = comdat any

$_ZN8facebook5velox9functions11LookupTableILNS0_8TypeKindE0EED2Ev = comdat any

$_ZN8facebook5velox9functions11LookupTableILNS0_8TypeKindE0EED0Ev = comdat any

$_ZN5folly6detail16throw_exception_ISt9bad_allocJEEEvDpT0_ = comdat any

$_ZN5folly15throw_exceptionISt9bad_allocEEvOT_ = comdat any

$_ZN5folly3f146detail21VectorContainerPolicyIiNS_10F14FastMapIbiNS_23HeterogeneousAccessHashIbvEENS_26HeterogeneousAccessEqualToIbvEEN8facebook5velox6memory12StlAllocatorISt4pairIKbiEEEEEvvNSB_ISC_IKiSG_EEESt17integral_constantIbLb1EEE8transferERSJ_PSI_SO_m = comdat any

$_ZN5folly3f146detail8F14TableINS1_21VectorContainerPolicyIiNS_10F14FastMapIbiNS_23HeterogeneousAccessHashIbvEENS_26HeterogeneousAccessEqualToIbvEEN8facebook5velox6memory12StlAllocatorISt4pairIKbiEEEEEvvNSC_ISD_IKiSH_EEESt17integral_constantIbLb1EEEEE9clearImplILb1EEEvv = comdat any

$_ZN8facebook5velox13AlignedBufferD2Ev = comdat any

$_ZN8facebook5velox13AlignedBufferD0Ev = comdat any

$_ZN8facebook5velox6Buffer7setSizeEm = comdat any

$_ZNK8facebook5velox6Buffer6isViewEv = comdat any

$_ZN8facebook5velox13AlignedBuffer15setEndGuardImplEv = comdat any

$_ZNK8facebook5velox13AlignedBuffer17checkEndGuardImplEv = comdat any

$_ZN8facebook5velox13AlignedBuffer10freeToPoolEv = comdat any

$_ZN8facebook5velox6Buffer8copyFromEPKS1_m = comdat any

$_ZN8facebook5velox6Buffer16releaseResourcesEv = comdat any

$_ZNSt10unique_ptrIN8facebook5velox13DecodedVectorESt14default_deleteIS2_EED2Ev = comdat any

$_ZN8facebook5velox4core7ExecCtx20getSelectivityVectorEi = comdat any

$_ZN8facebook5velox17SelectivityVector6resizeEib = comdat any

$_ZNSt10unique_ptrIN8facebook5velox17SelectivityVectorESt14default_deleteIS2_EED2Ev = comdat any

$_ZNSt6vectorImSaImEE14_M_fill_insertEN9__gnu_cxx17__normal_iteratorIPmS1_EEmRKm = comdat any

$_ZN8facebook5velox4bits16testWordsReverseIZNS1_11findLastBitEPKmiibEUlimE_ZNS1_11findLastBitES4_iibEUliE_EEbiiT_T0_ = comdat any

$_ZSt27__throw_bad_optional_accessv = comdat any

$_ZNSt19bad_optional_accessD2Ev = comdat any

$_ZNSt19bad_optional_accessD0Ev = comdat any

$_ZNKSt19bad_optional_access4whatEv = comdat any

$_ZN8facebook5velox12NullsBuilder7setNullEi = comdat any

$_ZN5folly3f146detail8F14TableINS1_21VectorContainerPolicyIiNS_10F14FastMapIbiNS_23HeterogeneousAccessHashIbvEENS_26HeterogeneousAccessEqualToIbvEEN8facebook5velox6memory12StlAllocatorISt4pairIKbiEEEEEvvNSC_ISD_IKiSH_EEESt17integral_constantIbLb1EEEEE19tryEmplaceValueImplIiJRiRNSB_10MemoryPoolEEEESD_INS1_11F14ItemIterIPNS1_8F14ChunkIjEEEEbESD_ImmERKT_DpOT0_ = comdat any

$_ZN5folly3f146detail8F14TableINS1_21VectorContainerPolicyIiNS_10F14FastMapIbiNS_23HeterogeneousAccessHashIbvEENS_26HeterogeneousAccessEqualToIbvEEN8facebook5velox6memory12StlAllocatorISt4pairIKbiEEEEEvvNSC_ISD_IKiSH_EEESt17integral_constantIbLb1EEEEE16reserveForInsertEm = comdat any

$_ZN5folly3f146detail8F14TableINS1_21VectorContainerPolicyIiNS_10F14FastMapIbiNS_23HeterogeneousAccessHashIbvEENS_26HeterogeneousAccessEqualToIbvEEN8facebook5velox6memory12StlAllocatorISt4pairIKbiEEEEEvvNSC_ISD_IKiSH_EEESt17integral_constantIbLb1EEEEE10rehashImplEmmmmm = comdat any

$_ZZN5folly3f146detail8F14TableINS1_21VectorContainerPolicyIiNS_10F14FastMapIbiNS_23HeterogeneousAccessHashIbvEENS_26HeterogeneousAccessEqualToIbvEEN8facebook5velox6memory12StlAllocatorISt4pairIKbiEEEEEvvNSC_ISD_IKiSH_EEESt17integral_constantIbLb1EEEEE10rehashImplEmmmmmENKUlvE_clEv = comdat any

$_ZN5folly3f146detail8F14TableINS1_20ValueContainerPolicyIbivvN8facebook5velox6memory12StlAllocatorISt4pairIKbiEEEEEE19tryEmplaceValueImplIbJbRmEEES8_INS1_11F14ItemIterIPNS1_8F14ChunkISA_EEEEbES8_ImmERKT_DpOT0_ = comdat any

$_ZN5folly3f146detail8F14TableINS1_20ValueContainerPolicyIbivvN8facebook5velox6memory12StlAllocatorISt4pairIKbiEEEEEE10rehashImplEmmmmm = comdat any

$_ZN5folly6detail14ScopeGuardImplIZNS_3f146detail8F14TableINS3_20ValueContainerPolicyIbivvN8facebook5velox6memory12StlAllocatorISt4pairIKbiEEEEEE10rehashImplEmmmmmEUlvE_Lb1EED2Ev = comdat any

$_ZNSt6vectorISt10unique_ptrIN8facebook5velox13DecodedVectorESt14default_deleteIS3_EESaIS6_EE17_M_realloc_insertIJS6_EEEvN9__gnu_cxx17__normal_iteratorIPS6_S8_EEDpOT_ = comdat any

$_ZNSt6vectorISt10unique_ptrIN8facebook5velox17SelectivityVectorESt14default_deleteIS3_EESaIS6_EE17_M_realloc_insertIJS6_EEEvN9__gnu_cxx17__normal_iteratorIPS6_S8_EEDpOT_ = comdat any

$_ZNSt23_Sp_counted_ptr_inplaceIN8facebook5velox9functions11LookupTableILNS1_8TypeKindE3EEESaIvELN9__gnu_cxx12_Lock_policyE2EED2Ev = comdat any

$_ZNSt23_Sp_counted_ptr_inplaceIN8facebook5velox9functions11LookupTableILNS1_8TypeKindE3EEESaIvELN9__gnu_cxx12_Lock_policyE2EED0Ev = comdat any

$_ZNSt23_Sp_counted_ptr_inplaceIN8facebook5velox9functions11LookupTableILNS1_8TypeKindE3EEESaIvELN9__gnu_cxx12_Lock_policyE2EE10_M_disposeEv = comdat any

$_ZNSt23_Sp_counted_ptr_inplaceIN8facebook5velox9functions11LookupTableILNS1_8TypeKindE3EEESaIvELN9__gnu_cxx12_Lock_policyE2EE10_M_destroyEv = comdat any

$_ZNSt23_Sp_counted_ptr_inplaceIN8facebook5velox9functions11LookupTableILNS1_8TypeKindE3EEESaIvELN9__gnu_cxx12_Lock_policyE2EE14_M_get_deleterERKSt9type_info = comdat any

$_ZN8facebook5velox9functions11LookupTableILNS0_8TypeKindE3EED2Ev = comdat any

$_ZN8facebook5velox9functions11LookupTableILNS0_8TypeKindE3EED0Ev = comdat any

$_ZN5folly3f146detail21VectorContainerPolicyIiNS_10F14FastMapIiiNS_23HeterogeneousAccessHashIivEENS_26HeterogeneousAccessEqualToIivEEN8facebook5velox6memory12StlAllocatorISt4pairIKiiEEEEEvvNSB_ISC_ISD_SG_EEESt17integral_constantIbLb1EEE8transferERSI_PSH_SN_m = comdat any

$_ZN5folly3f146detail8F14TableINS1_21VectorContainerPolicyIiNS_10F14FastMapIiiNS_23HeterogeneousAccessHashIivEENS_26HeterogeneousAccessEqualToIivEEN8facebook5velox6memory12StlAllocatorISt4pairIKiiEEEEEvvNSC_ISD_ISE_SH_EEESt17integral_constantIbLb1EEEEE9clearImplILb1EEEvv = comdat any

$_ZN5folly3f146detail8F14TableINS1_21VectorContainerPolicyIiNS_10F14FastMapIiiNS_23HeterogeneousAccessHashIivEENS_26HeterogeneousAccessEqualToIivEEN8facebook5velox6memory12StlAllocatorISt4pairIKiiEEEEEvvNSC_ISD_ISE_SH_EEESt17integral_constantIbLb1EEEEE19tryEmplaceValueImplIiJRiRNSB_10MemoryPoolEEEESD_INS1_11F14ItemIterIPNS1_8F14ChunkIjEEEEbESD_ImmERKT_DpOT0_ = comdat any

$_ZN5folly3f146detail8F14TableINS1_21VectorContainerPolicyIiNS_10F14FastMapIiiNS_23HeterogeneousAccessHashIivEENS_26HeterogeneousAccessEqualToIivEEN8facebook5velox6memory12StlAllocatorISt4pairIKiiEEEEEvvNSC_ISD_ISE_SH_EEESt17integral_constantIbLb1EEEEE16reserveForInsertEm = comdat any

$_ZN5folly3f146detail8F14TableINS1_21VectorContainerPolicyIiNS_10F14FastMapIiiNS_23HeterogeneousAccessHashIivEENS_26HeterogeneousAccessEqualToIivEEN8facebook5velox6memory12StlAllocatorISt4pairIKiiEEEEEvvNSC_ISD_ISE_SH_EEESt17integral_constantIbLb1EEEEE10rehashImplEmmmmm = comdat any

$_ZZN5folly3f146detail8F14TableINS1_21VectorContainerPolicyIiNS_10F14FastMapIiiNS_23HeterogeneousAccessHashIivEENS_26HeterogeneousAccessEqualToIivEEN8facebook5velox6memory12StlAllocatorISt4pairIKiiEEEEEvvNSC_ISD_ISE_SH_EEESt17integral_constantIbLb1EEEEE10rehashImplEmmmmmENKUlvE_clEv = comdat any

$_ZN5folly3f146detail8F14TableINS1_20ValueContainerPolicyIiivvN8facebook5velox6memory12StlAllocatorISt4pairIKiiEEEEEE19tryEmplaceValueImplIiJiRmEEES8_INS1_11F14ItemIterIPNS1_8F14ChunkISA_EEEEbES8_ImmERKT_DpOT0_ = comdat any

$_ZN5folly3f146detail8F14TableINS1_20ValueContainerPolicyIiivvN8facebook5velox6memory12StlAllocatorISt4pairIKiiEEEEEE10rehashImplEmmmmm = comdat any

$_ZN5folly6detail14ScopeGuardImplIZNS_3f146detail8F14TableINS3_20ValueContainerPolicyIiivvN8facebook5velox6memory12StlAllocatorISt4pairIKiiEEEEEE10rehashImplEmmmmmEUlvE_Lb1EED2Ev = comdat any

$_ZNSt23_Sp_counted_ptr_inplaceIN8facebook5velox9functions11LookupTableILNS1_8TypeKindE1EEESaIvELN9__gnu_cxx12_Lock_policyE2EED2Ev = comdat any

$_ZNSt23_Sp_counted_ptr_inplaceIN8facebook5velox9functions11LookupTableILNS1_8TypeKindE1EEESaIvELN9__gnu_cxx12_Lock_policyE2EED0Ev = comdat any

$_ZNSt23_Sp_counted_ptr_inplaceIN8facebook5velox9functions11LookupTableILNS1_8TypeKindE1EEESaIvELN9__gnu_cxx12_Lock_policyE2EE10_M_disposeEv = comdat any

$_ZNSt23_Sp_counted_ptr_inplaceIN8facebook5velox9functions11LookupTableILNS1_8TypeKindE1EEESaIvELN9__gnu_cxx12_Lock_policyE2EE10_M_destroyEv = comdat any

$_ZNSt23_Sp_counted_ptr_inplaceIN8facebook5velox9functions11LookupTableILNS1_8TypeKindE1EEESaIvELN9__gnu_cxx12_Lock_policyE2EE14_M_get_deleterERKSt9type_info = comdat any

$_ZN8facebook5velox9functions11LookupTableILNS0_8TypeKindE1EED2Ev = comdat any

$_ZN8facebook5velox9functions11LookupTableILNS0_8TypeKindE1EED0Ev = comdat any

$_ZN5folly3f146detail21VectorContainerPolicyIiNS_10F14FastMapIaiNS_23HeterogeneousAccessHashIavEENS_26HeterogeneousAccessEqualToIavEEN8facebook5velox6memory12StlAllocatorISt4pairIKaiEEEEEvvNSB_ISC_IKiSG_EEESt17integral_constantIbLb1EEE8transferERSJ_PSI_SO_m = comdat any

$_ZN5folly3f146detail8F14TableINS1_21VectorContainerPolicyIiNS_10F14FastMapIaiNS_23HeterogeneousAccessHashIavEENS_26HeterogeneousAccessEqualToIavEEN8facebook5velox6memory12StlAllocatorISt4pairIKaiEEEEEvvNSC_ISD_IKiSH_EEESt17integral_constantIbLb1EEEEE9clearImplILb1EEEvv = comdat any

$_ZN5folly3f146detail8F14TableINS1_21VectorContainerPolicyIiNS_10F14FastMapIaiNS_23HeterogeneousAccessHashIavEENS_26HeterogeneousAccessEqualToIavEEN8facebook5velox6memory12StlAllocatorISt4pairIKaiEEEEEvvNSC_ISD_IKiSH_EEESt17integral_constantIbLb1EEEEE19tryEmplaceValueImplIiJRiRNSB_10MemoryPoolEEEESD_INS1_11F14ItemIterIPNS1_8F14ChunkIjEEEEbESD_ImmERKT_DpOT0_ = comdat any

$_ZN5folly3f146detail8F14TableINS1_21VectorContainerPolicyIiNS_10F14FastMapIaiNS_23HeterogeneousAccessHashIavEENS_26HeterogeneousAccessEqualToIavEEN8facebook5velox6memory12StlAllocatorISt4pairIKaiEEEEEvvNSC_ISD_IKiSH_EEESt17integral_constantIbLb1EEEEE16reserveForInsertEm = comdat any

$_ZN5folly3f146detail8F14TableINS1_21VectorContainerPolicyIiNS_10F14FastMapIaiNS_23HeterogeneousAccessHashIavEENS_26HeterogeneousAccessEqualToIavEEN8facebook5velox6memory12StlAllocatorISt4pairIKaiEEEEEvvNSC_ISD_IKiSH_EEESt17integral_constantIbLb1EEEEE10rehashImplEmmmmm = comdat any

$_ZZN5folly3f146detail8F14TableINS1_21VectorContainerPolicyIiNS_10F14FastMapIaiNS_23HeterogeneousAccessHashIavEENS_26HeterogeneousAccessEqualToIavEEN8facebook5velox6memory12StlAllocatorISt4pairIKaiEEEEEvvNSC_ISD_IKiSH_EEESt17integral_constantIbLb1EEEEE10rehashImplEmmmmmENKUlvE_clEv = comdat any

$_ZN5folly3f146detail8F14TableINS1_20ValueContainerPolicyIaivvN8facebook5velox6memory12StlAllocatorISt4pairIKaiEEEEEE19tryEmplaceValueImplIaJaRmEEES8_INS1_11F14ItemIterIPNS1_8F14ChunkISA_EEEEbES8_ImmERKT_DpOT0_ = comdat any

$_ZN5folly3f146detail8F14TableINS1_20ValueContainerPolicyIaivvN8facebook5velox6memory12StlAllocatorISt4pairIKaiEEEEEE10rehashImplEmmmmm = comdat any

$_ZN5folly6detail14ScopeGuardImplIZNS_3f146detail8F14TableINS3_20ValueContainerPolicyIaivvN8facebook5velox6memory12StlAllocatorISt4pairIKaiEEEEEE10rehashImplEmmmmmEUlvE_Lb1EED2Ev = comdat any

$_ZNSt23_Sp_counted_ptr_inplaceIN8facebook5velox9functions11LookupTableILNS1_8TypeKindE2EEESaIvELN9__gnu_cxx12_Lock_policyE2EED2Ev = comdat any

$_ZNSt23_Sp_counted_ptr_inplaceIN8facebook5velox9functions11LookupTableILNS1_8TypeKindE2EEESaIvELN9__gnu_cxx12_Lock_policyE2EED0Ev = comdat any

$_ZNSt23_Sp_counted_ptr_inplaceIN8facebook5velox9functions11LookupTableILNS1_8TypeKindE2EEESaIvELN9__gnu_cxx12_Lock_policyE2EE10_M_disposeEv = comdat any

$_ZNSt23_Sp_counted_ptr_inplaceIN8facebook5velox9functions11LookupTableILNS1_8TypeKindE2EEESaIvELN9__gnu_cxx12_Lock_policyE2EE10_M_destroyEv = comdat any

$_ZNSt23_Sp_counted_ptr_inplaceIN8facebook5velox9functions11LookupTableILNS1_8TypeKindE2EEESaIvELN9__gnu_cxx12_Lock_policyE2EE14_M_get_deleterERKSt9type_info = comdat any

$_ZN8facebook5velox9functions11LookupTableILNS0_8TypeKindE2EED2Ev = comdat any

$_ZN8facebook5velox9functions11LookupTableILNS0_8TypeKindE2EED0Ev = comdat any

$_ZN5folly3f146detail21VectorContainerPolicyIiNS_10F14FastMapIsiNS_23HeterogeneousAccessHashIsvEENS_26HeterogeneousAccessEqualToIsvEEN8facebook5velox6memory12StlAllocatorISt4pairIKsiEEEEEvvNSB_ISC_IKiSG_EEESt17integral_constantIbLb1EEE8transferERSJ_PSI_SO_m = comdat any

$_ZN5folly3f146detail8F14TableINS1_21VectorContainerPolicyIiNS_10F14FastMapIsiNS_23HeterogeneousAccessHashIsvEENS_26HeterogeneousAccessEqualToIsvEEN8facebook5velox6memory12StlAllocatorISt4pairIKsiEEEEEvvNSC_ISD_IKiSH_EEESt17integral_constantIbLb1EEEEE9clearImplILb1EEEvv = comdat any

$_ZN5folly3f146detail8F14TableINS1_21VectorContainerPolicyIiNS_10F14FastMapIsiNS_23HeterogeneousAccessHashIsvEENS_26HeterogeneousAccessEqualToIsvEEN8facebook5velox6memory12StlAllocatorISt4pairIKsiEEEEEvvNSC_ISD_IKiSH_EEESt17integral_constantIbLb1EEEEE19tryEmplaceValueImplIiJRiRNSB_10MemoryPoolEEEESD_INS1_11F14ItemIterIPNS1_8F14ChunkIjEEEEbESD_ImmERKT_DpOT0_ = comdat any

$_ZN5folly3f146detail8F14TableINS1_21VectorContainerPolicyIiNS_10F14FastMapIsiNS_23HeterogeneousAccessHashIsvEENS_26HeterogeneousAccessEqualToIsvEEN8facebook5velox6memory12StlAllocatorISt4pairIKsiEEEEEvvNSC_ISD_IKiSH_EEESt17integral_constantIbLb1EEEEE16reserveForInsertEm = comdat any

$_ZN5folly3f146detail8F14TableINS1_21VectorContainerPolicyIiNS_10F14FastMapIsiNS_23HeterogeneousAccessHashIsvEENS_26HeterogeneousAccessEqualToIsvEEN8facebook5velox6memory12StlAllocatorISt4pairIKsiEEEEEvvNSC_ISD_IKiSH_EEESt17integral_constantIbLb1EEEEE10rehashImplEmmmmm = comdat any

$_ZZN5folly3f146detail8F14TableINS1_21VectorContainerPolicyIiNS_10F14FastMapIsiNS_23HeterogeneousAccessHashIsvEENS_26HeterogeneousAccessEqualToIsvEEN8facebook5velox6memory12StlAllocatorISt4pairIKsiEEEEEvvNSC_ISD_IKiSH_EEESt17integral_constantIbLb1EEEEE10rehashImplEmmmmmENKUlvE_clEv = comdat any

$_ZN5folly3f146detail8F14TableINS1_20ValueContainerPolicyIsivvN8facebook5velox6memory12StlAllocatorISt4pairIKsiEEEEEE19tryEmplaceValueImplIsJsRmEEES8_INS1_11F14ItemIterIPNS1_8F14ChunkISA_EEEEbES8_ImmERKT_DpOT0_ = comdat any

$_ZN5folly3f146detail8F14TableINS1_20ValueContainerPolicyIsivvN8facebook5velox6memory12StlAllocatorISt4pairIKsiEEEEEE10rehashImplEmmmmm = comdat any

$_ZN5folly6detail14ScopeGuardImplIZNS_3f146detail8F14TableINS3_20ValueContainerPolicyIsivvN8facebook5velox6memory12StlAllocatorISt4pairIKsiEEEEEE10rehashImplEmmmmmEUlvE_Lb1EED2Ev = comdat any

$_ZNSt23_Sp_counted_ptr_inplaceIN8facebook5velox9functions11LookupTableILNS1_8TypeKindE4EEESaIvELN9__gnu_cxx12_Lock_policyE2EED2Ev = comdat any

$_ZNSt23_Sp_counted_ptr_inplaceIN8facebook5velox9functions11LookupTableILNS1_8TypeKindE4EEESaIvELN9__gnu_cxx12_Lock_policyE2EED0Ev = comdat any

$_ZNSt23_Sp_counted_ptr_inplaceIN8facebook5velox9functions11LookupTableILNS1_8TypeKindE4EEESaIvELN9__gnu_cxx12_Lock_policyE2EE10_M_disposeEv = comdat any

$_ZNSt23_Sp_counted_ptr_inplaceIN8facebook5velox9functions11LookupTableILNS1_8TypeKindE4EEESaIvELN9__gnu_cxx12_Lock_policyE2EE10_M_destroyEv = comdat any

$_ZNSt23_Sp_counted_ptr_inplaceIN8facebook5velox9functions11LookupTableILNS1_8TypeKindE4EEESaIvELN9__gnu_cxx12_Lock_policyE2EE14_M_get_deleterERKSt9type_info = comdat any

$_ZN8facebook5velox9functions11LookupTableILNS0_8TypeKindE4EED2Ev = comdat any

$_ZN8facebook5velox9functions11LookupTableILNS0_8TypeKindE4EED0Ev = comdat any

$_ZN5folly3f146detail21VectorContainerPolicyIiNS_10F14FastMapIliNS_23HeterogeneousAccessHashIlvEENS_26HeterogeneousAccessEqualToIlvEEN8facebook5velox6memory12StlAllocatorISt4pairIKliEEEEEvvNSB_ISC_IKiSG_EEESt17integral_constantIbLb1EEE12beforeRehashEmmmmRPh = comdat any

$_ZN5folly3f146detail21VectorContainerPolicyIiNS_10F14FastMapIliNS_23HeterogeneousAccessHashIlvEENS_26HeterogeneousAccessEqualToIlvEEN8facebook5velox6memory12StlAllocatorISt4pairIKliEEEEEvvNSB_ISC_IKiSG_EEESt17integral_constantIbLb1EEE17afterFailedRehashEPSI_m = comdat any

$_ZN5folly3f146detail8F14TableINS1_21VectorContainerPolicyIiNS_10F14FastMapIliNS_23HeterogeneousAccessHashIlvEENS_26HeterogeneousAccessEqualToIlvEEN8facebook5velox6memory12StlAllocatorISt4pairIKliEEEEEvvNSC_ISD_IKiSH_EEESt17integral_constantIbLb1EEEEE9clearImplILb1EEEvv = comdat any

$_ZN5folly3f146detail8F14TableINS1_21VectorContainerPolicyIiNS_10F14FastMapIliNS_23HeterogeneousAccessHashIlvEENS_26HeterogeneousAccessEqualToIlvEEN8facebook5velox6memory12StlAllocatorISt4pairIKliEEEEEvvNSC_ISD_IKiSH_EEESt17integral_constantIbLb1EEEEE19tryEmplaceValueImplIiJRiRNSB_10MemoryPoolEEEESD_INS1_11F14ItemIterIPNS1_8F14ChunkIjEEEEbESD_ImmERKT_DpOT0_ = comdat any

$_ZN5folly3f146detail8F14TableINS1_21VectorContainerPolicyIiNS_10F14FastMapIliNS_23HeterogeneousAccessHashIlvEENS_26HeterogeneousAccessEqualToIlvEEN8facebook5velox6memory12StlAllocatorISt4pairIKliEEEEEvvNSC_ISD_IKiSH_EEESt17integral_constantIbLb1EEEEE16reserveForInsertEm = comdat any

$_ZN5folly3f146detail8F14TableINS1_21VectorContainerPolicyIiNS_10F14FastMapIliNS_23HeterogeneousAccessHashIlvEENS_26HeterogeneousAccessEqualToIlvEEN8facebook5velox6memory12StlAllocatorISt4pairIKliEEEEEvvNSC_ISD_IKiSH_EEESt17integral_constantIbLb1EEEEE10rehashImplEmmmmm = comdat any

$_ZZN5folly3f146detail8F14TableINS1_21VectorContainerPolicyIiNS_10F14FastMapIliNS_23HeterogeneousAccessHashIlvEENS_26HeterogeneousAccessEqualToIlvEEN8facebook5velox6memory12StlAllocatorISt4pairIKliEEEEEvvNSC_ISD_IKiSH_EEESt17integral_constantIbLb1EEEEE10rehashImplEmmmmmENKUlvE_clEv = comdat any

$_ZN5folly3f146detail8F14TableINS1_20ValueContainerPolicyIlivvN8facebook5velox6memory12StlAllocatorISt4pairIKliEEEEEE19tryEmplaceValueImplIlJlRmEEES8_INS1_11F14ItemIterIPNS1_8F14ChunkISA_EEEEbES8_ImmERKT_DpOT0_ = comdat any

$_ZN5folly3f146detail8F14TableINS1_20ValueContainerPolicyIlivvN8facebook5velox6memory12StlAllocatorISt4pairIKliEEEEEE10rehashImplEmmmmm = comdat any

$_ZN5folly6detail14ScopeGuardImplIZNS_3f146detail8F14TableINS3_20ValueContainerPolicyIlivvN8facebook5velox6memory12StlAllocatorISt4pairIKliEEEEEE10rehashImplEmmmmmEUlvE_Lb1EED2Ev = comdat any

$_ZNSt23_Sp_counted_ptr_inplaceIN8facebook5velox9functions11LookupTableILNS1_8TypeKindE10EEESaIvELN9__gnu_cxx12_Lock_policyE2EED2Ev = comdat any

$_ZNSt23_Sp_counted_ptr_inplaceIN8facebook5velox9functions11LookupTableILNS1_8TypeKindE10EEESaIvELN9__gnu_cxx12_Lock_policyE2EED0Ev = comdat any

$_ZNSt23_Sp_counted_ptr_inplaceIN8facebook5velox9functions11LookupTableILNS1_8TypeKindE10EEESaIvELN9__gnu_cxx12_Lock_policyE2EE10_M_disposeEv = comdat any

$_ZNSt23_Sp_counted_ptr_inplaceIN8facebook5velox9functions11LookupTableILNS1_8TypeKindE10EEESaIvELN9__gnu_cxx12_Lock_policyE2EE10_M_destroyEv = comdat any

$_ZNSt23_Sp_counted_ptr_inplaceIN8facebook5velox9functions11LookupTableILNS1_8TypeKindE10EEESaIvELN9__gnu_cxx12_Lock_policyE2EE14_M_get_deleterERKSt9type_info = comdat any

$_ZN8facebook5velox9functions11LookupTableILNS0_8TypeKindE10EED2Ev = comdat any

$_ZN8facebook5velox9functions11LookupTableILNS0_8TypeKindE10EED0Ev = comdat any

$_ZN5folly3f146detail21VectorContainerPolicyIiNS_10F14FastMapIniNS_23HeterogeneousAccessHashInvEENS_26HeterogeneousAccessEqualToInvEEN8facebook5velox6memory12StlAllocatorISt4pairIKniEEEEEvvNSB_ISC_IKiSG_EEESt17integral_constantIbLb1EEE8transferERSJ_PSI_SO_m = comdat any

$_ZN5folly3f146detail8F14TableINS1_21VectorContainerPolicyIiNS_10F14FastMapIniNS_23HeterogeneousAccessHashInvEENS_26HeterogeneousAccessEqualToInvEEN8facebook5velox6memory12StlAllocatorISt4pairIKniEEEEEvvNSC_ISD_IKiSH_EEESt17integral_constantIbLb1EEEEE9clearImplILb1EEEvv = comdat any

$_ZN5folly3f146detail8F14TableINS1_21VectorContainerPolicyIiNS_10F14FastMapIniNS_23HeterogeneousAccessHashInvEENS_26HeterogeneousAccessEqualToInvEEN8facebook5velox6memory12StlAllocatorISt4pairIKniEEEEEvvNSC_ISD_IKiSH_EEESt17integral_constantIbLb1EEEEE19tryEmplaceValueImplIiJRiRNSB_10MemoryPoolEEEESD_INS1_11F14ItemIterIPNS1_8F14ChunkIjEEEEbESD_ImmERKT_DpOT0_ = comdat any

$_ZN5folly3f146detail8F14TableINS1_21VectorContainerPolicyIiNS_10F14FastMapIniNS_23HeterogeneousAccessHashInvEENS_26HeterogeneousAccessEqualToInvEEN8facebook5velox6memory12StlAllocatorISt4pairIKniEEEEEvvNSC_ISD_IKiSH_EEESt17integral_constantIbLb1EEEEE16reserveForInsertEm = comdat any

$_ZN5folly3f146detail8F14TableINS1_21VectorContainerPolicyIiNS_10F14FastMapIniNS_23HeterogeneousAccessHashInvEENS_26HeterogeneousAccessEqualToInvEEN8facebook5velox6memory12StlAllocatorISt4pairIKniEEEEEvvNSC_ISD_IKiSH_EEESt17integral_constantIbLb1EEEEE10rehashImplEmmmmm = comdat any

$_ZZN5folly3f146detail8F14TableINS1_21VectorContainerPolicyIiNS_10F14FastMapIniNS_23HeterogeneousAccessHashInvEENS_26HeterogeneousAccessEqualToInvEEN8facebook5velox6memory12StlAllocatorISt4pairIKniEEEEEvvNSC_ISD_IKiSH_EEESt17integral_constantIbLb1EEEEE10rehashImplEmmmmmENKUlvE_clEv = comdat any

$_ZN5folly3f146detail8F14TableINS1_21VectorContainerPolicyInivvN8facebook5velox6memory12StlAllocatorISt4pairIKniEEESt17integral_constantIbLb1EEEEE19tryEmplaceValueImplInJnRmEEES8_INS1_11F14ItemIterIPNS1_8F14ChunkIjEEEEbES8_ImmERKT_DpOT0_ = comdat any

$_ZN5folly3f146detail8F14TableINS1_21VectorContainerPolicyInivvN8facebook5velox6memory12StlAllocatorISt4pairIKniEEESt17integral_constantIbLb1EEEEE16reserveForInsertEm = comdat any

$_ZN5folly3f146detail8F14TableINS1_21VectorContainerPolicyInivvN8facebook5velox6memory12StlAllocatorISt4pairIKniEEESt17integral_constantIbLb1EEEEE10rehashImplEmmmmm = comdat any

$_ZZN5folly3f146detail8F14TableINS1_21VectorContainerPolicyInivvN8facebook5velox6memory12StlAllocatorISt4pairIKniEEESt17integral_constantIbLb1EEEEE10rehashImplEmmmmmENKUlvE_clEv = comdat any

$_ZNSt23_Sp_counted_ptr_inplaceIN8facebook5velox9functions11LookupTableILNS1_8TypeKindE5EEESaIvELN9__gnu_cxx12_Lock_policyE2EED2Ev = comdat any

$_ZNSt23_Sp_counted_ptr_inplaceIN8facebook5velox9functions11LookupTableILNS1_8TypeKindE5EEESaIvELN9__gnu_cxx12_Lock_policyE2EED0Ev = comdat any

$_ZNSt23_Sp_counted_ptr_inplaceIN8facebook5velox9functions11LookupTableILNS1_8TypeKindE5EEESaIvELN9__gnu_cxx12_Lock_policyE2EE10_M_disposeEv = comdat any

$_ZNSt23_Sp_counted_ptr_inplaceIN8facebook5velox9functions11LookupTableILNS1_8TypeKindE5EEESaIvELN9__gnu_cxx12_Lock_policyE2EE10_M_destroyEv = comdat any

$_ZNSt23_Sp_counted_ptr_inplaceIN8facebook5velox9functions11LookupTableILNS1_8TypeKindE5EEESaIvELN9__gnu_cxx12_Lock_policyE2EE14_M_get_deleterERKSt9type_info = comdat any

$_ZN8facebook5velox9functions11LookupTableILNS0_8TypeKindE5EED2Ev = comdat any

$_ZN8facebook5velox9functions11LookupTableILNS0_8TypeKindE5EED0Ev = comdat any

$_ZN5folly3f146detail21VectorContainerPolicyIiNS_10F14FastMapIfiNS_23HeterogeneousAccessHashIfvEENS_26HeterogeneousAccessEqualToIfvEEN8facebook5velox6memory12StlAllocatorISt4pairIKfiEEEEEvvNSB_ISC_IKiSG_EEESt17integral_constantIbLb1EEE8transferERSJ_PSI_SO_m = comdat any

$_ZN5folly3f146detail8F14TableINS1_21VectorContainerPolicyIiNS_10F14FastMapIfiNS_23HeterogeneousAccessHashIfvEENS_26HeterogeneousAccessEqualToIfvEEN8facebook5velox6memory12StlAllocatorISt4pairIKfiEEEEEvvNSC_ISD_IKiSH_EEESt17integral_constantIbLb1EEEEE9clearImplILb1EEEvv = comdat any

$_ZN5folly3f146detail8F14TableINS1_21VectorContainerPolicyIiNS_10F14FastMapIfiNS_23HeterogeneousAccessHashIfvEENS_26HeterogeneousAccessEqualToIfvEEN8facebook5velox6memory12StlAllocatorISt4pairIKfiEEEEEvvNSC_ISD_IKiSH_EEESt17integral_constantIbLb1EEEEE19tryEmplaceValueImplIiJRiRNSB_10MemoryPoolEEEESD_INS1_11F14ItemIterIPNS1_8F14ChunkIjEEEEbESD_ImmERKT_DpOT0_ = comdat any

$_ZN5folly3f146detail8F14TableINS1_21VectorContainerPolicyIiNS_10F14FastMapIfiNS_23HeterogeneousAccessHashIfvEENS_26HeterogeneousAccessEqualToIfvEEN8facebook5velox6memory12StlAllocatorISt4pairIKfiEEEEEvvNSC_ISD_IKiSH_EEESt17integral_constantIbLb1EEEEE16reserveForInsertEm = comdat any

$_ZN5folly3f146detail8F14TableINS1_21VectorContainerPolicyIiNS_10F14FastMapIfiNS_23HeterogeneousAccessHashIfvEENS_26HeterogeneousAccessEqualToIfvEEN8facebook5velox6memory12StlAllocatorISt4pairIKfiEEEEEvvNSC_ISD_IKiSH_EEESt17integral_constantIbLb1EEEEE10rehashImplEmmmmm = comdat any

$_ZZN5folly3f146detail8F14TableINS1_21VectorContainerPolicyIiNS_10F14FastMapIfiNS_23HeterogeneousAccessHashIfvEENS_26HeterogeneousAccessEqualToIfvEEN8facebook5velox6memory12StlAllocatorISt4pairIKfiEEEEEvvNSC_ISD_IKiSH_EEESt17integral_constantIbLb1EEEEE10rehashImplEmmmmmENKUlvE_clEv = comdat any

$_ZN5folly3f146detail8F14TableINS1_20ValueContainerPolicyIfivvN8facebook5velox6memory12StlAllocatorISt4pairIKfiEEEEEE19tryEmplaceValueImplIfJfRmEEES8_INS1_11F14ItemIterIPNS1_8F14ChunkISA_EEEEbES8_ImmERKT_DpOT0_ = comdat any

$_ZN5folly3f146detail8F14TableINS1_20ValueContainerPolicyIfivvN8facebook5velox6memory12StlAllocatorISt4pairIKfiEEEEEE10rehashImplEmmmmm = comdat any

$_ZN5folly6detail14ScopeGuardImplIZNS_3f146detail8F14TableINS3_20ValueContainerPolicyIfivvN8facebook5velox6memory12StlAllocatorISt4pairIKfiEEEEEE10rehashImplEmmmmmEUlvE_Lb1EED2Ev = comdat any

$_ZNSt23_Sp_counted_ptr_inplaceIN8facebook5velox9functions11LookupTableILNS1_8TypeKindE6EEESaIvELN9__gnu_cxx12_Lock_policyE2EED2Ev = comdat any

$_ZNSt23_Sp_counted_ptr_inplaceIN8facebook5velox9functions11LookupTableILNS1_8TypeKindE6EEESaIvELN9__gnu_cxx12_Lock_policyE2EED0Ev = comdat any

$_ZNSt23_Sp_counted_ptr_inplaceIN8facebook5velox9functions11LookupTableILNS1_8TypeKindE6EEESaIvELN9__gnu_cxx12_Lock_policyE2EE10_M_disposeEv = comdat any

$_ZNSt23_Sp_counted_ptr_inplaceIN8facebook5velox9functions11LookupTableILNS1_8TypeKindE6EEESaIvELN9__gnu_cxx12_Lock_policyE2EE10_M_destroyEv = comdat any

$_ZNSt23_Sp_counted_ptr_inplaceIN8facebook5velox9functions11LookupTableILNS1_8TypeKindE6EEESaIvELN9__gnu_cxx12_Lock_policyE2EE14_M_get_deleterERKSt9type_info = comdat any

$_ZN8facebook5velox9functions11LookupTableILNS0_8TypeKindE6EED2Ev = comdat any

$_ZN8facebook5velox9functions11LookupTableILNS0_8TypeKindE6EED0Ev = comdat any

$_ZN5folly3f146detail21VectorContainerPolicyIiNS_10F14FastMapIdiNS_23HeterogeneousAccessHashIdvEENS_26HeterogeneousAccessEqualToIdvEEN8facebook5velox6memory12StlAllocatorISt4pairIKdiEEEEEvvNSB_ISC_IKiSG_EEESt17integral_constantIbLb1EEE12beforeRehashEmmmmRPh = comdat any

$_ZN5folly3f146detail21VectorContainerPolicyIiNS_10F14FastMapIdiNS_23HeterogeneousAccessHashIdvEENS_26HeterogeneousAccessEqualToIdvEEN8facebook5velox6memory12StlAllocatorISt4pairIKdiEEEEEvvNSB_ISC_IKiSG_EEESt17integral_constantIbLb1EEE17afterFailedRehashEPSI_m = comdat any

$_ZN5folly3f146detail8F14TableINS1_21VectorContainerPolicyIiNS_10F14FastMapIdiNS_23HeterogeneousAccessHashIdvEENS_26HeterogeneousAccessEqualToIdvEEN8facebook5velox6memory12StlAllocatorISt4pairIKdiEEEEEvvNSC_ISD_IKiSH_EEESt17integral_constantIbLb1EEEEE9clearImplILb1EEEvv = comdat any

$_ZN5folly3f146detail8F14TableINS1_21VectorContainerPolicyIiNS_10F14FastMapIdiNS_23HeterogeneousAccessHashIdvEENS_26HeterogeneousAccessEqualToIdvEEN8facebook5velox6memory12StlAllocatorISt4pairIKdiEEEEEvvNSC_ISD_IKiSH_EEESt17integral_constantIbLb1EEEEE19tryEmplaceValueImplIiJRiRNSB_10MemoryPoolEEEESD_INS1_11F14ItemIterIPNS1_8F14ChunkIjEEEEbESD_ImmERKT_DpOT0_ = comdat any

$_ZN5folly3f146detail8F14TableINS1_21VectorContainerPolicyIiNS_10F14FastMapIdiNS_23HeterogeneousAccessHashIdvEENS_26HeterogeneousAccessEqualToIdvEEN8facebook5velox6memory12StlAllocatorISt4pairIKdiEEEEEvvNSC_ISD_IKiSH_EEESt17integral_constantIbLb1EEEEE16reserveForInsertEm = comdat any

$_ZN5folly3f146detail8F14TableINS1_21VectorContainerPolicyIiNS_10F14FastMapIdiNS_23HeterogeneousAccessHashIdvEENS_26HeterogeneousAccessEqualToIdvEEN8facebook5velox6memory12StlAllocatorISt4pairIKdiEEEEEvvNSC_ISD_IKiSH_EEESt17integral_constantIbLb1EEEEE10rehashImplEmmmmm = comdat any

$_ZZN5folly3f146detail8F14TableINS1_21VectorContainerPolicyIiNS_10F14FastMapIdiNS_23HeterogeneousAccessHashIdvEENS_26HeterogeneousAccessEqualToIdvEEN8facebook5velox6memory12StlAllocatorISt4pairIKdiEEEEEvvNSC_ISD_IKiSH_EEESt17integral_constantIbLb1EEEEE10rehashImplEmmmmmENKUlvE_clEv = comdat any

$_ZN5folly3f146detail8F14TableINS1_20ValueContainerPolicyIdivvN8facebook5velox6memory12StlAllocatorISt4pairIKdiEEEEEE19tryEmplaceValueImplIdJdRmEEES8_INS1_11F14ItemIterIPNS1_8F14ChunkISA_EEEEbES8_ImmERKT_DpOT0_ = comdat any

$_ZN5folly3f146detail8F14TableINS1_20ValueContainerPolicyIdivvN8facebook5velox6memory12StlAllocatorISt4pairIKdiEEEEEE10rehashImplEmmmmm = comdat any

$_ZN5folly6detail14ScopeGuardImplIZNS_3f146detail8F14TableINS3_20ValueContainerPolicyIdivvN8facebook5velox6memory12StlAllocatorISt4pairIKdiEEEEEE10rehashImplEmmmmmEUlvE_Lb1EED2Ev = comdat any

$_ZNSt23_Sp_counted_ptr_inplaceIN8facebook5velox9functions11LookupTableILNS1_8TypeKindE7EEESaIvELN9__gnu_cxx12_Lock_policyE2EED2Ev = comdat any

$_ZNSt23_Sp_counted_ptr_inplaceIN8facebook5velox9functions11LookupTableILNS1_8TypeKindE7EEESaIvELN9__gnu_cxx12_Lock_policyE2EED0Ev = comdat any

$_ZNSt23_Sp_counted_ptr_inplaceIN8facebook5velox9functions11LookupTableILNS1_8TypeKindE7EEESaIvELN9__gnu_cxx12_Lock_policyE2EE10_M_disposeEv = comdat any

$_ZNSt23_Sp_counted_ptr_inplaceIN8facebook5velox9functions11LookupTableILNS1_8TypeKindE7EEESaIvELN9__gnu_cxx12_Lock_policyE2EE10_M_destroyEv = comdat any

$_ZNSt23_Sp_counted_ptr_inplaceIN8facebook5velox9functions11LookupTableILNS1_8TypeKindE7EEESaIvELN9__gnu_cxx12_Lock_policyE2EE14_M_get_deleterERKSt9type_info = comdat any

$_ZN8facebook5velox9functions11LookupTableILNS0_8TypeKindE7EED2Ev = comdat any

$_ZN8facebook5velox9functions11LookupTableILNS0_8TypeKindE7EED0Ev = comdat any

$_ZN5folly3f146detail21VectorContainerPolicyIiNS_10F14FastMapIN8facebook5velox10StringViewEiNS_23HeterogeneousAccessHashIS6_vEENS_26HeterogeneousAccessEqualToIS6_vEENS5_6memory12StlAllocatorISt4pairIKS6_iEEEEEvvNSC_ISD_IKiSH_EEESt17integral_constantIbLb1EEE8transferERSK_PSJ_SP_m = comdat any

$_ZN5folly3f146detail8F14TableINS1_21VectorContainerPolicyIiNS_10F14FastMapIN8facebook5velox10StringViewEiNS_23HeterogeneousAccessHashIS7_vEENS_26HeterogeneousAccessEqualToIS7_vEENS6_6memory12StlAllocatorISt4pairIKS7_iEEEEEvvNSD_ISE_IKiSI_EEESt17integral_constantIbLb1EEEEE9clearImplILb1EEEvv = comdat any

$_ZN5folly3f146detail8F14TableINS1_21VectorContainerPolicyIiNS_10F14FastMapIN8facebook5velox10StringViewEiNS_23HeterogeneousAccessHashIS7_vEENS_26HeterogeneousAccessEqualToIS7_vEENS6_6memory12StlAllocatorISt4pairIKS7_iEEEEEvvNSD_ISE_IKiSI_EEESt17integral_constantIbLb1EEEEE19tryEmplaceValueImplIiJRiRNSC_10MemoryPoolEEEESE_INS1_11F14ItemIterIPNS1_8F14ChunkIjEEEEbESE_ImmERKT_DpOT0_ = comdat any

$_ZN5folly3f146detail8F14TableINS1_21VectorContainerPolicyIiNS_10F14FastMapIN8facebook5velox10StringViewEiNS_23HeterogeneousAccessHashIS7_vEENS_26HeterogeneousAccessEqualToIS7_vEENS6_6memory12StlAllocatorISt4pairIKS7_iEEEEEvvNSD_ISE_IKiSI_EEESt17integral_constantIbLb1EEEEE16reserveForInsertEm = comdat any

$_ZN5folly3f146detail8F14TableINS1_21VectorContainerPolicyIiNS_10F14FastMapIN8facebook5velox10StringViewEiNS_23HeterogeneousAccessHashIS7_vEENS_26HeterogeneousAccessEqualToIS7_vEENS6_6memory12StlAllocatorISt4pairIKS7_iEEEEEvvNSD_ISE_IKiSI_EEESt17integral_constantIbLb1EEEEE10rehashImplEmmmmm = comdat any

$_ZZN5folly3f146detail8F14TableINS1_21VectorContainerPolicyIiNS_10F14FastMapIN8facebook5velox10StringViewEiNS_23HeterogeneousAccessHashIS7_vEENS_26HeterogeneousAccessEqualToIS7_vEENS6_6memory12StlAllocatorISt4pairIKS7_iEEEEEvvNSD_ISE_IKiSI_EEESt17integral_constantIbLb1EEEEE10rehashImplEmmmmmENKUlvE_clEv = comdat any

$_ZN5folly3f146detail8F14TableINS1_21VectorContainerPolicyIN8facebook5velox10StringViewEivvNS5_6memory12StlAllocatorISt4pairIKS6_iEEESt17integral_constantIbLb1EEEEE19tryEmplaceValueImplIS6_JS6_RmEEES9_INS1_11F14ItemIterIPNS1_8F14ChunkIjEEEEbES9_ImmERKT_DpOT0_ = comdat any

$_ZN5folly3f146detail8F14TableINS1_21VectorContainerPolicyIN8facebook5velox10StringViewEivvNS5_6memory12StlAllocatorISt4pairIKS6_iEEESt17integral_constantIbLb1EEEEE16reserveForInsertEm = comdat any

$_ZN5folly3f146detail8F14TableINS1_21VectorContainerPolicyIN8facebook5velox10StringViewEivvNS5_6memory12StlAllocatorISt4pairIKS6_iEEESt17integral_constantIbLb1EEEEE10rehashImplEmmmmm = comdat any

$_ZN5folly6detail14ScopeGuardImplIZNS_3f146detail8F14TableINS3_21VectorContainerPolicyIN8facebook5velox10StringViewEivvNS7_6memory12StlAllocatorISt4pairIKS8_iEEESt17integral_constantIbLb1EEEEE10rehashImplEmmmmmEUlvE0_Lb1EED2Ev = comdat any

$_ZZN5folly3f146detail8F14TableINS1_21VectorContainerPolicyIN8facebook5velox10StringViewEivvNS5_6memory12StlAllocatorISt4pairIKS6_iEEESt17integral_constantIbLb1EEEEE10rehashImplEmmmmmENKUlvE_clEv = comdat any

$_ZNSt23_Sp_counted_ptr_inplaceIN8facebook5velox9functions11LookupTableILNS1_8TypeKindE8EEESaIvELN9__gnu_cxx12_Lock_policyE2EED2Ev = comdat any

$_ZNSt23_Sp_counted_ptr_inplaceIN8facebook5velox9functions11LookupTableILNS1_8TypeKindE8EEESaIvELN9__gnu_cxx12_Lock_policyE2EED0Ev = comdat any

$_ZNSt23_Sp_counted_ptr_inplaceIN8facebook5velox9functions11LookupTableILNS1_8TypeKindE8EEESaIvELN9__gnu_cxx12_Lock_policyE2EE10_M_disposeEv = comdat any

$_ZNSt23_Sp_counted_ptr_inplaceIN8facebook5velox9functions11LookupTableILNS1_8TypeKindE8EEESaIvELN9__gnu_cxx12_Lock_policyE2EE10_M_destroyEv = comdat any

$_ZNSt23_Sp_counted_ptr_inplaceIN8facebook5velox9functions11LookupTableILNS1_8TypeKindE8EEESaIvELN9__gnu_cxx12_Lock_policyE2EE14_M_get_deleterERKSt9type_info = comdat any

$_ZN8facebook5velox9functions11LookupTableILNS0_8TypeKindE8EED2Ev = comdat any

$_ZN8facebook5velox9functions11LookupTableILNS0_8TypeKindE8EED0Ev = comdat any

$_ZNSt23_Sp_counted_ptr_inplaceIN8facebook5velox9functions11LookupTableILNS1_8TypeKindE9EEESaIvELN9__gnu_cxx12_Lock_policyE2EED2Ev = comdat any

$_ZNSt23_Sp_counted_ptr_inplaceIN8facebook5velox9functions11LookupTableILNS1_8TypeKindE9EEESaIvELN9__gnu_cxx12_Lock_policyE2EED0Ev = comdat any

$_ZNSt23_Sp_counted_ptr_inplaceIN8facebook5velox9functions11LookupTableILNS1_8TypeKindE9EEESaIvELN9__gnu_cxx12_Lock_policyE2EE10_M_disposeEv = comdat any

$_ZNSt23_Sp_counted_ptr_inplaceIN8facebook5velox9functions11LookupTableILNS1_8TypeKindE9EEESaIvELN9__gnu_cxx12_Lock_policyE2EE10_M_destroyEv = comdat any

$_ZNSt23_Sp_counted_ptr_inplaceIN8facebook5velox9functions11LookupTableILNS1_8TypeKindE9EEESaIvELN9__gnu_cxx12_Lock_policyE2EE14_M_get_deleterERKSt9type_info = comdat any

$_ZN8facebook5velox9functions11LookupTableILNS0_8TypeKindE9EED2Ev = comdat any

$_ZN8facebook5velox9functions11LookupTableILNS0_8TypeKindE9EED0Ev = comdat any

$_ZN5folly3f146detail21VectorContainerPolicyIiNS_10F14FastMapIN8facebook5velox9TimestampEiNS_23HeterogeneousAccessHashIS6_vEENS_26HeterogeneousAccessEqualToIS6_vEENS5_6memory12StlAllocatorISt4pairIKS6_iEEEEEvvNSC_ISD_IKiSH_EEESt17integral_constantIbLb1EEE8transferERSK_PSJ_SP_m = comdat any

$_ZN5folly3f146detail8F14TableINS1_21VectorContainerPolicyIiNS_10F14FastMapIN8facebook5velox9TimestampEiNS_23HeterogeneousAccessHashIS7_vEENS_26HeterogeneousAccessEqualToIS7_vEENS6_6memory12StlAllocatorISt4pairIKS7_iEEEEEvvNSD_ISE_IKiSI_EEESt17integral_constantIbLb1EEEEE9clearImplILb1EEEvv = comdat any

$_ZN5folly3f146detail8F14TableINS1_21VectorContainerPolicyIiNS_10F14FastMapIN8facebook5velox9TimestampEiNS_23HeterogeneousAccessHashIS7_vEENS_26HeterogeneousAccessEqualToIS7_vEENS6_6memory12StlAllocatorISt4pairIKS7_iEEEEEvvNSD_ISE_IKiSI_EEESt17integral_constantIbLb1EEEEE19tryEmplaceValueImplIiJRiRNSC_10MemoryPoolEEEESE_INS1_11F14ItemIterIPNS1_8F14ChunkIjEEEEbESE_ImmERKT_DpOT0_ = comdat any

$_ZN5folly3f146detail8F14TableINS1_21VectorContainerPolicyIiNS_10F14FastMapIN8facebook5velox9TimestampEiNS_23HeterogeneousAccessHashIS7_vEENS_26HeterogeneousAccessEqualToIS7_vEENS6_6memory12StlAllocatorISt4pairIKS7_iEEEEEvvNSD_ISE_IKiSI_EEESt17integral_constantIbLb1EEEEE16reserveForInsertEm = comdat any

$_ZN5folly3f146detail8F14TableINS1_21VectorContainerPolicyIiNS_10F14FastMapIN8facebook5velox9TimestampEiNS_23HeterogeneousAccessHashIS7_vEENS_26HeterogeneousAccessEqualToIS7_vEENS6_6memory12StlAllocatorISt4pairIKS7_iEEEEEvvNSD_ISE_IKiSI_EEESt17integral_constantIbLb1EEEEE10rehashImplEmmmmm = comdat any

$_ZZN5folly3f146detail8F14TableINS1_21VectorContainerPolicyIiNS_10F14FastMapIN8facebook5velox9TimestampEiNS_23HeterogeneousAccessHashIS7_vEENS_26HeterogeneousAccessEqualToIS7_vEENS6_6memory12StlAllocatorISt4pairIKS7_iEEEEEvvNSD_ISE_IKiSI_EEESt17integral_constantIbLb1EEEEE10rehashImplEmmmmmENKUlvE_clEv = comdat any

$_ZN5folly3f146detail8F14TableINS1_21VectorContainerPolicyIN8facebook5velox9TimestampEivvNS5_6memory12StlAllocatorISt4pairIKS6_iEEESt17integral_constantIbLb1EEEEE19tryEmplaceValueImplIS6_JS6_RmEEES9_INS1_11F14ItemIterIPNS1_8F14ChunkIjEEEEbES9_ImmERKT_DpOT0_ = comdat any

$_ZN5folly3f146detail8F14TableINS1_21VectorContainerPolicyIN8facebook5velox9TimestampEivvNS5_6memory12StlAllocatorISt4pairIKS6_iEEESt17integral_constantIbLb1EEEEE16reserveForInsertEm = comdat any

$_ZN5folly3f146detail8F14TableINS1_21VectorContainerPolicyIN8facebook5velox9TimestampEivvNS5_6memory12StlAllocatorISt4pairIKS6_iEEESt17integral_constantIbLb1EEEEE10rehashImplEmmmmm = comdat any

$_ZZN5folly3f146detail8F14TableINS1_21VectorContainerPolicyIN8facebook5velox9TimestampEivvNS5_6memory12StlAllocatorISt4pairIKS6_iEEESt17integral_constantIbLb1EEEEE10rehashImplEmmmmmENKUlvE_clEv = comdat any

$_ZTVSt23_Sp_counted_ptr_inplaceIN8facebook5velox9functions11LookupTableILNS1_8TypeKindE0EEESaIvELN9__gnu_cxx12_Lock_policyE2EE = comdat any

$_ZTSSt23_Sp_counted_ptr_inplaceIN8facebook5velox9functions11LookupTableILNS1_8TypeKindE0EEESaIvELN9__gnu_cxx12_Lock_policyE2EE = comdat any

$_ZTSSt16_Sp_counted_baseILN9__gnu_cxx12_Lock_policyE2EE = comdat any

$_ZTSSt11_Mutex_baseILN9__gnu_cxx12_Lock_policyE2EE = comdat any

$_ZTISt11_Mutex_baseILN9__gnu_cxx12_Lock_policyE2EE = comdat any

$_ZTISt16_Sp_counted_baseILN9__gnu_cxx12_Lock_policyE2EE = comdat any

$_ZTISt23_Sp_counted_ptr_inplaceIN8facebook5velox9functions11LookupTableILNS1_8TypeKindE0EEESaIvELN9__gnu_cxx12_Lock_policyE2EE = comdat any

$_ZTVN8facebook5velox9functions11LookupTableILNS0_8TypeKindE0EEE = comdat any

$_ZTSN8facebook5velox9functions11LookupTableILNS0_8TypeKindE0EEE = comdat any

$_ZTSN8facebook5velox9functions15LookupTableBaseE = comdat any

$_ZTIN8facebook5velox9functions15LookupTableBaseE = comdat any

$_ZTIN8facebook5velox9functions11LookupTableILNS0_8TypeKindE0EEE = comdat any

$_ZTSSt19_Sp_make_shared_tag = comdat any

$_ZZNSt19_Sp_make_shared_tag5_S_tiEvE5__tag = comdat any

$_ZTVN8facebook5velox13AlignedBufferE = comdat any

$_ZTSN8facebook5velox13AlignedBufferE = comdat any

$_ZTSN8facebook5velox6BufferE = comdat any

$_ZTIN8facebook5velox6BufferE = comdat any

$_ZTIN8facebook5velox13AlignedBufferE = comdat any

$_ZTSSt19bad_optional_access = comdat any

$_ZTISt19bad_optional_access = comdat any

$_ZTVSt19bad_optional_access = comdat any

$_ZZN5folly3f146detail8F14TableINS1_21VectorContainerPolicyIiNS_10F14FastMapIbiNS_23HeterogeneousAccessHashIbvEENS_26HeterogeneousAccessEqualToIbvEEN8facebook5velox6memory12StlAllocatorISt4pairIKbiEEEEEvvNSC_ISD_IKiSH_EEESt17integral_constantIbLb1EEEEE10rehashImplEmmmmmE30__folly_detail_safe_assert_arg_0 = comdat any

$_ZN5folly6detail21safe_assert_msg_typesINS0_22safe_assert_msg_type_sIJLNS0_20safe_assert_msg_typeE1EEEEE5valueE = comdat any

$_ZZN5folly3f146detail8F14ChunkIjE6setTagEmmE30__folly_detail_safe_assert_arg_0 = comdat any

$_ZZN5folly3f146detail8F14TableINS1_20ValueContainerPolicyIbivvN8facebook5velox6memory12StlAllocatorISt4pairIKbiEEEEEE10rehashImplEmmmmmE30__folly_detail_safe_assert_arg_0 = comdat any

$_ZZN5folly3f146detail8F14ChunkISt4pairIKbiEE6setTagEmmE30__folly_detail_safe_assert_arg_0 = comdat any

$_ZTVSt23_Sp_counted_ptr_inplaceIN8facebook5velox9functions11LookupTableILNS1_8TypeKindE3EEESaIvELN9__gnu_cxx12_Lock_policyE2EE = comdat any

$_ZTSSt23_Sp_counted_ptr_inplaceIN8facebook5velox9functions11LookupTableILNS1_8TypeKindE3EEESaIvELN9__gnu_cxx12_Lock_policyE2EE = comdat any

$_ZTISt23_Sp_counted_ptr_inplaceIN8facebook5velox9functions11LookupTableILNS1_8TypeKindE3EEESaIvELN9__gnu_cxx12_Lock_policyE2EE = comdat any

$_ZTVN8facebook5velox9functions11LookupTableILNS0_8TypeKindE3EEE = comdat any

$_ZTSN8facebook5velox9functions11LookupTableILNS0_8TypeKindE3EEE = comdat any

$_ZTIN8facebook5velox9functions11LookupTableILNS0_8TypeKindE3EEE = comdat any

$_ZZN5folly3f146detail8F14TableINS1_21VectorContainerPolicyIiNS_10F14FastMapIiiNS_23HeterogeneousAccessHashIivEENS_26HeterogeneousAccessEqualToIivEEN8facebook5velox6memory12StlAllocatorISt4pairIKiiEEEEEvvNSC_ISD_ISE_SH_EEESt17integral_constantIbLb1EEEEE10rehashImplEmmmmmE30__folly_detail_safe_assert_arg_0 = comdat any

$_ZZN5folly3f146detail8F14TableINS1_20ValueContainerPolicyIiivvN8facebook5velox6memory12StlAllocatorISt4pairIKiiEEEEEE10rehashImplEmmmmmE30__folly_detail_safe_assert_arg_0 = comdat any

$_ZZN5folly3f146detail8F14ChunkISt4pairIKiiEE6setTagEmmE30__folly_detail_safe_assert_arg_0 = comdat any

$_ZTVSt23_Sp_counted_ptr_inplaceIN8facebook5velox9functions11LookupTableILNS1_8TypeKindE1EEESaIvELN9__gnu_cxx12_Lock_policyE2EE = comdat any

$_ZTSSt23_Sp_counted_ptr_inplaceIN8facebook5velox9functions11LookupTableILNS1_8TypeKindE1EEESaIvELN9__gnu_cxx12_Lock_policyE2EE = comdat any

$_ZTISt23_Sp_counted_ptr_inplaceIN8facebook5velox9functions11LookupTableILNS1_8TypeKindE1EEESaIvELN9__gnu_cxx12_Lock_policyE2EE = comdat any

$_ZTVN8facebook5velox9functions11LookupTableILNS0_8TypeKindE1EEE = comdat any

$_ZTSN8facebook5velox9functions11LookupTableILNS0_8TypeKindE1EEE = comdat any

$_ZTIN8facebook5velox9functions11LookupTableILNS0_8TypeKindE1EEE = comdat any

$_ZZN5folly3f146detail8F14TableINS1_21VectorContainerPolicyIiNS_10F14FastMapIaiNS_23HeterogeneousAccessHashIavEENS_26HeterogeneousAccessEqualToIavEEN8facebook5velox6memory12StlAllocatorISt4pairIKaiEEEEEvvNSC_ISD_IKiSH_EEESt17integral_constantIbLb1EEEEE10rehashImplEmmmmmE30__folly_detail_safe_assert_arg_0 = comdat any

$_ZZN5folly3f146detail8F14TableINS1_20ValueContainerPolicyIaivvN8facebook5velox6memory12StlAllocatorISt4pairIKaiEEEEEE10rehashImplEmmmmmE30__folly_detail_safe_assert_arg_0 = comdat any

$_ZZN5folly3f146detail8F14ChunkISt4pairIKaiEE6setTagEmmE30__folly_detail_safe_assert_arg_0 = comdat any

$_ZTVSt23_Sp_counted_ptr_inplaceIN8facebook5velox9functions11LookupTableILNS1_8TypeKindE2EEESaIvELN9__gnu_cxx12_Lock_policyE2EE = comdat any

$_ZTSSt23_Sp_counted_ptr_inplaceIN8facebook5velox9functions11LookupTableILNS1_8TypeKindE2EEESaIvELN9__gnu_cxx12_Lock_policyE2EE = comdat any

$_ZTISt23_Sp_counted_ptr_inplaceIN8facebook5velox9functions11LookupTableILNS1_8TypeKindE2EEESaIvELN9__gnu_cxx12_Lock_policyE2EE = comdat any

$_ZTVN8facebook5velox9functions11LookupTableILNS0_8TypeKindE2EEE = comdat any

$_ZTSN8facebook5velox9functions11LookupTableILNS0_8TypeKindE2EEE = comdat any

$_ZTIN8facebook5velox9functions11LookupTableILNS0_8TypeKindE2EEE = comdat any

$_ZZN5folly3f146detail8F14TableINS1_21VectorContainerPolicyIiNS_10F14FastMapIsiNS_23HeterogeneousAccessHashIsvEENS_26HeterogeneousAccessEqualToIsvEEN8facebook5velox6memory12StlAllocatorISt4pairIKsiEEEEEvvNSC_ISD_IKiSH_EEESt17integral_constantIbLb1EEEEE10rehashImplEmmmmmE30__folly_detail_safe_assert_arg_0 = comdat any

$_ZZN5folly3f146detail8F14TableINS1_20ValueContainerPolicyIsivvN8facebook5velox6memory12StlAllocatorISt4pairIKsiEEEEEE10rehashImplEmmmmmE30__folly_detail_safe_assert_arg_0 = comdat any

$_ZZN5folly3f146detail8F14ChunkISt4pairIKsiEE6setTagEmmE30__folly_detail_safe_assert_arg_0 = comdat any

$_ZTVSt23_Sp_counted_ptr_inplaceIN8facebook5velox9functions11LookupTableILNS1_8TypeKindE4EEESaIvELN9__gnu_cxx12_Lock_policyE2EE = comdat any

$_ZTSSt23_Sp_counted_ptr_inplaceIN8facebook5velox9functions11LookupTableILNS1_8TypeKindE4EEESaIvELN9__gnu_cxx12_Lock_policyE2EE = comdat any

$_ZTISt23_Sp_counted_ptr_inplaceIN8facebook5velox9functions11LookupTableILNS1_8TypeKindE4EEESaIvELN9__gnu_cxx12_Lock_policyE2EE = comdat any

$_ZTVN8facebook5velox9functions11LookupTableILNS0_8TypeKindE4EEE = comdat any

$_ZTSN8facebook5velox9functions11LookupTableILNS0_8TypeKindE4EEE = comdat any

$_ZTIN8facebook5velox9functions11LookupTableILNS0_8TypeKindE4EEE = comdat any

$_ZZN5folly3f146detail8F14TableINS1_21VectorContainerPolicyIiNS_10F14FastMapIliNS_23HeterogeneousAccessHashIlvEENS_26HeterogeneousAccessEqualToIlvEEN8facebook5velox6memory12StlAllocatorISt4pairIKliEEEEEvvNSC_ISD_IKiSH_EEESt17integral_constantIbLb1EEEEE10rehashImplEmmmmmE30__folly_detail_safe_assert_arg_0 = comdat any

$_ZZN5folly3f146detail8F14TableINS1_20ValueContainerPolicyIlivvN8facebook5velox6memory12StlAllocatorISt4pairIKliEEEEEE10rehashImplEmmmmmE30__folly_detail_safe_assert_arg_0 = comdat any

$_ZZN5folly3f146detail8F14ChunkISt4pairIKliEE6setTagEmmE30__folly_detail_safe_assert_arg_0 = comdat any

$_ZTVSt23_Sp_counted_ptr_inplaceIN8facebook5velox9functions11LookupTableILNS1_8TypeKindE10EEESaIvELN9__gnu_cxx12_Lock_policyE2EE = comdat any

$_ZTSSt23_Sp_counted_ptr_inplaceIN8facebook5velox9functions11LookupTableILNS1_8TypeKindE10EEESaIvELN9__gnu_cxx12_Lock_policyE2EE = comdat any

$_ZTISt23_Sp_counted_ptr_inplaceIN8facebook5velox9functions11LookupTableILNS1_8TypeKindE10EEESaIvELN9__gnu_cxx12_Lock_policyE2EE = comdat any

$_ZTVN8facebook5velox9functions11LookupTableILNS0_8TypeKindE10EEE = comdat any

$_ZTSN8facebook5velox9functions11LookupTableILNS0_8TypeKindE10EEE = comdat any

$_ZTIN8facebook5velox9functions11LookupTableILNS0_8TypeKindE10EEE = comdat any

$_ZZN5folly3f146detail8F14TableINS1_21VectorContainerPolicyIiNS_10F14FastMapIniNS_23HeterogeneousAccessHashInvEENS_26HeterogeneousAccessEqualToInvEEN8facebook5velox6memory12StlAllocatorISt4pairIKniEEEEEvvNSC_ISD_IKiSH_EEESt17integral_constantIbLb1EEEEE10rehashImplEmmmmmE30__folly_detail_safe_assert_arg_0 = comdat any

$_ZZN5folly3f146detail8F14TableINS1_21VectorContainerPolicyInivvN8facebook5velox6memory12StlAllocatorISt4pairIKniEEESt17integral_constantIbLb1EEEEE10rehashImplEmmmmmE30__folly_detail_safe_assert_arg_0 = comdat any

$_ZTVSt23_Sp_counted_ptr_inplaceIN8facebook5velox9functions11LookupTableILNS1_8TypeKindE5EEESaIvELN9__gnu_cxx12_Lock_policyE2EE = comdat any

$_ZTSSt23_Sp_counted_ptr_inplaceIN8facebook5velox9functions11LookupTableILNS1_8TypeKindE5EEESaIvELN9__gnu_cxx12_Lock_policyE2EE = comdat any

$_ZTISt23_Sp_counted_ptr_inplaceIN8facebook5velox9functions11LookupTableILNS1_8TypeKindE5EEESaIvELN9__gnu_cxx12_Lock_policyE2EE = comdat any

$_ZTVN8facebook5velox9functions11LookupTableILNS0_8TypeKindE5EEE = comdat any

$_ZTSN8facebook5velox9functions11LookupTableILNS0_8TypeKindE5EEE = comdat any

$_ZTIN8facebook5velox9functions11LookupTableILNS0_8TypeKindE5EEE = comdat any

$_ZZN5folly3f146detail8F14TableINS1_21VectorContainerPolicyIiNS_10F14FastMapIfiNS_23HeterogeneousAccessHashIfvEENS_26HeterogeneousAccessEqualToIfvEEN8facebook5velox6memory12StlAllocatorISt4pairIKfiEEEEEvvNSC_ISD_IKiSH_EEESt17integral_constantIbLb1EEEEE10rehashImplEmmmmmE30__folly_detail_safe_assert_arg_0 = comdat any

$_ZZN5folly3f146detail8F14TableINS1_20ValueContainerPolicyIfivvN8facebook5velox6memory12StlAllocatorISt4pairIKfiEEEEEE10rehashImplEmmmmmE30__folly_detail_safe_assert_arg_0 = comdat any

$_ZZN5folly3f146detail8F14ChunkISt4pairIKfiEE6setTagEmmE30__folly_detail_safe_assert_arg_0 = comdat any

$_ZTVSt23_Sp_counted_ptr_inplaceIN8facebook5velox9functions11LookupTableILNS1_8TypeKindE6EEESaIvELN9__gnu_cxx12_Lock_policyE2EE = comdat any

$_ZTSSt23_Sp_counted_ptr_inplaceIN8facebook5velox9functions11LookupTableILNS1_8TypeKindE6EEESaIvELN9__gnu_cxx12_Lock_policyE2EE = comdat any

$_ZTISt23_Sp_counted_ptr_inplaceIN8facebook5velox9functions11LookupTableILNS1_8TypeKindE6EEESaIvELN9__gnu_cxx12_Lock_policyE2EE = comdat any

$_ZTVN8facebook5velox9functions11LookupTableILNS0_8TypeKindE6EEE = comdat any

$_ZTSN8facebook5velox9functions11LookupTableILNS0_8TypeKindE6EEE = comdat any

$_ZTIN8facebook5velox9functions11LookupTableILNS0_8TypeKindE6EEE = comdat any

$_ZZN5folly3f146detail8F14TableINS1_21VectorContainerPolicyIiNS_10F14FastMapIdiNS_23HeterogeneousAccessHashIdvEENS_26HeterogeneousAccessEqualToIdvEEN8facebook5velox6memory12StlAllocatorISt4pairIKdiEEEEEvvNSC_ISD_IKiSH_EEESt17integral_constantIbLb1EEEEE10rehashImplEmmmmmE30__folly_detail_safe_assert_arg_0 = comdat any

$_ZZN5folly3f146detail8F14TableINS1_20ValueContainerPolicyIdivvN8facebook5velox6memory12StlAllocatorISt4pairIKdiEEEEEE10rehashImplEmmmmmE30__folly_detail_safe_assert_arg_0 = comdat any

$_ZZN5folly3f146detail8F14ChunkISt4pairIKdiEE6setTagEmmE30__folly_detail_safe_assert_arg_0 = comdat any

$_ZTVSt23_Sp_counted_ptr_inplaceIN8facebook5velox9functions11LookupTableILNS1_8TypeKindE7EEESaIvELN9__gnu_cxx12_Lock_policyE2EE = comdat any

$_ZTSSt23_Sp_counted_ptr_inplaceIN8facebook5velox9functions11LookupTableILNS1_8TypeKindE7EEESaIvELN9__gnu_cxx12_Lock_policyE2EE = comdat any

$_ZTISt23_Sp_counted_ptr_inplaceIN8facebook5velox9functions11LookupTableILNS1_8TypeKindE7EEESaIvELN9__gnu_cxx12_Lock_policyE2EE = comdat any

$_ZTVN8facebook5velox9functions11LookupTableILNS0_8TypeKindE7EEE = comdat any

$_ZTSN8facebook5velox9functions11LookupTableILNS0_8TypeKindE7EEE = comdat any

$_ZTIN8facebook5velox9functions11LookupTableILNS0_8TypeKindE7EEE = comdat any

$_ZZN5folly3f146detail8F14TableINS1_21VectorContainerPolicyIiNS_10F14FastMapIN8facebook5velox10StringViewEiNS_23HeterogeneousAccessHashIS7_vEENS_26HeterogeneousAccessEqualToIS7_vEENS6_6memory12StlAllocatorISt4pairIKS7_iEEEEEvvNSD_ISE_IKiSI_EEESt17integral_constantIbLb1EEEEE10rehashImplEmmmmmE30__folly_detail_safe_assert_arg_0 = comdat any

$_ZZN5folly3f146detail8F14TableINS1_21VectorContainerPolicyIN8facebook5velox10StringViewEivvNS5_6memory12StlAllocatorISt4pairIKS6_iEEESt17integral_constantIbLb1EEEEE10rehashImplEmmmmmE30__folly_detail_safe_assert_arg_0 = comdat any

$_ZTVSt23_Sp_counted_ptr_inplaceIN8facebook5velox9functions11LookupTableILNS1_8TypeKindE8EEESaIvELN9__gnu_cxx12_Lock_policyE2EE = comdat any

$_ZTSSt23_Sp_counted_ptr_inplaceIN8facebook5velox9functions11LookupTableILNS1_8TypeKindE8EEESaIvELN9__gnu_cxx12_Lock_policyE2EE = comdat any

$_ZTISt23_Sp_counted_ptr_inplaceIN8facebook5velox9functions11LookupTableILNS1_8TypeKindE8EEESaIvELN9__gnu_cxx12_Lock_policyE2EE = comdat any

$_ZTVN8facebook5velox9functions11LookupTableILNS0_8TypeKindE8EEE = comdat any

$_ZTSN8facebook5velox9functions11LookupTableILNS0_8TypeKindE8EEE = comdat any

$_ZTIN8facebook5velox9functions11LookupTableILNS0_8TypeKindE8EEE = comdat any

$_ZTVSt23_Sp_counted_ptr_inplaceIN8facebook5velox9functions11LookupTableILNS1_8TypeKindE9EEESaIvELN9__gnu_cxx12_Lock_policyE2EE = comdat any

$_ZTSSt23_Sp_counted_ptr_inplaceIN8facebook5velox9functions11LookupTableILNS1_8TypeKindE9EEESaIvELN9__gnu_cxx12_Lock_policyE2EE = comdat any

$_ZTISt23_Sp_counted_ptr_inplaceIN8facebook5velox9functions11LookupTableILNS1_8TypeKindE9EEESaIvELN9__gnu_cxx12_Lock_policyE2EE = comdat any

$_ZTVN8facebook5velox9functions11LookupTableILNS0_8TypeKindE9EEE = comdat any

$_ZTSN8facebook5velox9functions11LookupTableILNS0_8TypeKindE9EEE = comdat any

$_ZTIN8facebook5velox9functions11LookupTableILNS0_8TypeKindE9EEE = comdat any

$_ZZN5folly3f146detail8F14TableINS1_21VectorContainerPolicyIiNS_10F14FastMapIN8facebook5velox9TimestampEiNS_23HeterogeneousAccessHashIS7_vEENS_26HeterogeneousAccessEqualToIS7_vEENS6_6memory12StlAllocatorISt4pairIKS7_iEEEEEvvNSD_ISE_IKiSI_EEESt17integral_constantIbLb1EEEEE10rehashImplEmmmmmE30__folly_detail_safe_assert_arg_0 = comdat any

$_ZZN5folly3f146detail8F14TableINS1_21VectorContainerPolicyIN8facebook5velox9TimestampEivvNS5_6memory12StlAllocatorISt4pairIKS6_iEEESt17integral_constantIbLb1EEEEE10rehashImplEmmmmmE30__folly_detail_safe_assert_arg_0 = comdat any

@_ZZN8facebook5velox9functions18zeroSubscriptErrorEvE5error = internal global %"class.std::__exception_ptr::exception_ptr" zeroinitializer, align 8
@_ZGVZN8facebook5velox9functions18zeroSubscriptErrorEvE5error = internal global i64 0, align 8
@_ZZN8facebook5velox9functions17badSubscriptErrorEvE5error = internal global %"class.std::__exception_ptr::exception_ptr" zeroinitializer, align 8
@_ZGVZN8facebook5velox9functions17badSubscriptErrorEvE5error = internal global i64 0, align 8
@_ZZN8facebook5velox9functions22negativeSubscriptErrorEvE5error = internal global %"class.std::__exception_ptr::exception_ptr" zeroinitializer, align 8
@_ZGVZN8facebook5velox9functions22negativeSubscriptErrorEvE5error = internal global i64 0, align 8
@__libc_single_threaded = external local_unnamed_addr global i8, align 1
@_ZTVSt23_Sp_counted_ptr_inplaceIN8facebook5velox9functions11LookupTableILNS1_8TypeKindE0EEESaIvELN9__gnu_cxx12_Lock_policyE2EE = linkonce_odr unnamed_addr constant { [7 x ptr] } { [7 x ptr] [ptr null, ptr @_ZTISt23_Sp_counted_ptr_inplaceIN8facebook5velox9functions11LookupTableILNS1_8TypeKindE0EEESaIvELN9__gnu_cxx12_Lock_policyE2EE, ptr @_ZNSt23_Sp_counted_ptr_inplaceIN8facebook5velox9functions11LookupTableILNS1_8TypeKindE0EEESaIvELN9__gnu_cxx12_Lock_policyE2EED2Ev, ptr @_ZNSt23_Sp_counted_ptr_inplaceIN8facebook5velox9functions11LookupTableILNS1_8TypeKindE0EEESaIvELN9__gnu_cxx12_Lock_policyE2EED0Ev, ptr @_ZNSt23_Sp_counted_ptr_inplaceIN8facebook5velox9functions11LookupTableILNS1_8TypeKindE0EEESaIvELN9__gnu_cxx12_Lock_policyE2EE10_M_disposeEv, ptr @_ZNSt23_Sp_counted_ptr_inplaceIN8facebook5velox9functions11LookupTableILNS1_8TypeKindE0EEESaIvELN9__gnu_cxx12_Lock_policyE2EE10_M_destroyEv, ptr @_ZNSt23_Sp_counted_ptr_inplaceIN8facebook5velox9functions11LookupTableILNS1_8TypeKindE0EEESaIvELN9__gnu_cxx12_Lock_policyE2EE14_M_get_deleterERKSt9type_info] }, comdat, align 8
@_ZTVN10__cxxabiv120__si_class_type_infoE = external global [0 x ptr]
@_ZTSSt23_Sp_counted_ptr_inplaceIN8facebook5velox9functions11LookupTableILNS1_8TypeKindE0EEESaIvELN9__gnu_cxx12_Lock_policyE2EE = linkonce_odr constant [123 x i8] c"St23_Sp_counted_ptr_inplaceIN8facebook5velox9functions11LookupTableILNS1_8TypeKindE0EEESaIvELN9__gnu_cxx12_Lock_policyE2EE\00", comdat, align 1
@_ZTSSt16_Sp_counted_baseILN9__gnu_cxx12_Lock_policyE2EE = linkonce_odr constant [52 x i8] c"St16_Sp_counted_baseILN9__gnu_cxx12_Lock_policyE2EE\00", comdat, align 1
@_ZTVN10__cxxabiv117__class_type_infoE = external global [0 x ptr]
@_ZTSSt11_Mutex_baseILN9__gnu_cxx12_Lock_policyE2EE = linkonce_odr constant [47 x i8] c"St11_Mutex_baseILN9__gnu_cxx12_Lock_policyE2EE\00", comdat, align 1
@_ZTISt11_Mutex_baseILN9__gnu_cxx12_Lock_policyE2EE = linkonce_odr constant { ptr, ptr } { ptr getelementptr inbounds (ptr, ptr @_ZTVN10__cxxabiv117__class_type_infoE, i64 2), ptr @_ZTSSt11_Mutex_baseILN9__gnu_cxx12_Lock_policyE2EE }, comdat, align 8
@_ZTISt16_Sp_counted_baseILN9__gnu_cxx12_Lock_policyE2EE = linkonce_odr constant { ptr, ptr, ptr } { ptr getelementptr inbounds (ptr, ptr @_ZTVN10__cxxabiv120__si_class_type_infoE, i64 2), ptr @_ZTSSt16_Sp_counted_baseILN9__gnu_cxx12_Lock_policyE2EE, ptr @_ZTISt11_Mutex_baseILN9__gnu_cxx12_Lock_policyE2EE }, comdat, align 8
@_ZTISt23_Sp_counted_ptr_inplaceIN8facebook5velox9functions11LookupTableILNS1_8TypeKindE0EEESaIvELN9__gnu_cxx12_Lock_policyE2EE = linkonce_odr constant { ptr, ptr, ptr } { ptr getelementptr inbounds (ptr, ptr @_ZTVN10__cxxabiv120__si_class_type_infoE, i64 2), ptr @_ZTSSt23_Sp_counted_ptr_inplaceIN8facebook5velox9functions11LookupTableILNS1_8TypeKindE0EEESaIvELN9__gnu_cxx12_Lock_policyE2EE, ptr @_ZTISt16_Sp_counted_baseILN9__gnu_cxx12_Lock_policyE2EE }, comdat, align 8
@_ZTVN8facebook5velox9functions11LookupTableILNS0_8TypeKindE0EEE = linkonce_odr unnamed_addr constant { [4 x ptr] } { [4 x ptr] [ptr null, ptr @_ZTIN8facebook5velox9functions11LookupTableILNS0_8TypeKindE0EEE, ptr @_ZN8facebook5velox9functions11LookupTableILNS0_8TypeKindE0EED2Ev, ptr @_ZN8facebook5velox9functions11LookupTableILNS0_8TypeKindE0EED0Ev] }, comdat, align 8
@_ZTSN8facebook5velox9functions11LookupTableILNS0_8TypeKindE0EEE = linkonce_odr constant [60 x i8] c"N8facebook5velox9functions11LookupTableILNS0_8TypeKindE0EEE\00", comdat, align 1
@_ZTSN8facebook5velox9functions15LookupTableBaseE = linkonce_odr constant [45 x i8] c"N8facebook5velox9functions15LookupTableBaseE\00", comdat, align 1
@_ZTIN8facebook5velox9functions15LookupTableBaseE = linkonce_odr constant { ptr, ptr } { ptr getelementptr inbounds (ptr, ptr @_ZTVN10__cxxabiv117__class_type_infoE, i64 2), ptr @_ZTSN8facebook5velox9functions15LookupTableBaseE }, comdat, align 8
@_ZTIN8facebook5velox9functions11LookupTableILNS0_8TypeKindE0EEE = linkonce_odr constant { ptr, ptr, ptr } { ptr getelementptr inbounds (ptr, ptr @_ZTVN10__cxxabiv120__si_class_type_infoE, i64 2), ptr @_ZTSN8facebook5velox9functions11LookupTableILNS0_8TypeKindE0EEE, ptr @_ZTIN8facebook5velox9functions15LookupTableBaseE }, comdat, align 8
@_ZN5folly3f146detail15kEmptyTagVectorE = external global %"union.std::aligned_storage<32, 16>::type", align 16
@_ZTISt9bad_alloc = external constant ptr
@_ZTVSt9bad_alloc = external unnamed_addr constant { [5 x ptr] }, align 8
@_ZTSSt19_Sp_make_shared_tag = linkonce_odr constant [24 x i8] c"St19_Sp_make_shared_tag\00", comdat, align 1
@_ZZNSt19_Sp_make_shared_tag5_S_tiEvE5__tag = linkonce_odr constant [16 x i8] zeroinitializer, comdat, align 8
@_ZTVN8facebook5velox13AlignedBufferE = linkonce_odr unnamed_addr constant { [11 x ptr] } { [11 x ptr] [ptr null, ptr @_ZTIN8facebook5velox13AlignedBufferE, ptr @_ZN8facebook5velox13AlignedBufferD2Ev, ptr @_ZN8facebook5velox13AlignedBufferD0Ev, ptr @_ZN8facebook5velox6Buffer7setSizeEm, ptr @_ZNK8facebook5velox6Buffer6isViewEv, ptr @_ZN8facebook5velox13AlignedBuffer15setEndGuardImplEv, ptr @_ZNK8facebook5velox13AlignedBuffer17checkEndGuardImplEv, ptr @_ZN8facebook5velox13AlignedBuffer10freeToPoolEv, ptr @_ZN8facebook5velox6Buffer8copyFromEPKS1_m, ptr @_ZN8facebook5velox6Buffer16releaseResourcesEv] }, comdat, align 8
@_ZTSN8facebook5velox13AlignedBufferE = linkonce_odr constant [33 x i8] c"N8facebook5velox13AlignedBufferE\00", comdat, align 1
@_ZTSN8facebook5velox6BufferE = linkonce_odr constant [25 x i8] c"N8facebook5velox6BufferE\00", comdat, align 1
@_ZTIN8facebook5velox6BufferE = linkonce_odr constant { ptr, ptr } { ptr getelementptr inbounds (ptr, ptr @_ZTVN10__cxxabiv117__class_type_infoE, i64 2), ptr @_ZTSN8facebook5velox6BufferE }, comdat, align 8
@_ZTIN8facebook5velox13AlignedBufferE = linkonce_odr constant { ptr, ptr, ptr } { ptr getelementptr inbounds (ptr, ptr @_ZTVN10__cxxabiv120__si_class_type_infoE, i64 2), ptr @_ZTSN8facebook5velox13AlignedBufferE, ptr @_ZTIN8facebook5velox6BufferE }, comdat, align 8
@_ZTIN8facebook5velox10BaseVectorE = external constant ptr
@_ZTIN8facebook5velox9MapVectorE = external constant ptr
@.str.1 = private unnamed_addr constant [23 x i8] c"vector::_M_fill_insert\00", align 1
@_ZTSSt19bad_optional_access = linkonce_odr constant [24 x i8] c"St19bad_optional_access\00", comdat, align 1
@_ZTISt9exception = external constant ptr
@_ZTISt19bad_optional_access = linkonce_odr constant { ptr, ptr, ptr } { ptr getelementptr inbounds (ptr, ptr @_ZTVN10__cxxabiv120__si_class_type_infoE, i64 2), ptr @_ZTSSt19bad_optional_access, ptr @_ZTISt9exception }, comdat, align 8
@_ZTVSt19bad_optional_access = linkonce_odr unnamed_addr constant { [5 x ptr] } { [5 x ptr] [ptr null, ptr @_ZTISt19bad_optional_access, ptr @_ZNSt19bad_optional_accessD2Ev, ptr @_ZNSt19bad_optional_accessD0Ev, ptr @_ZNKSt19bad_optional_access4whatEv] }, comdat, align 8
@.str.2 = private unnamed_addr constant [20 x i8] c"bad optional access\00", align 1
@.str.3 = private unnamed_addr constant [11 x i8] c"rehashImpl\00", align 1
@_ZZN5folly3f146detail8F14TableINS1_21VectorContainerPolicyIiNS_10F14FastMapIbiNS_23HeterogeneousAccessHashIbvEENS_26HeterogeneousAccessEqualToIbvEEN8facebook5velox6memory12StlAllocatorISt4pairIKbiEEEEEvvNSC_ISD_IKiSH_EEESt17integral_constantIbLb1EEEEE10rehashImplEmmmmmE30__folly_detail_safe_assert_arg_0 = linkonce_odr constant %"struct.folly::detail::safe_assert_arg" { ptr @.str.4, ptr @.str.5, i32 1923, ptr @.str.3, ptr @_ZN5folly6detail21safe_assert_msg_typesINS0_22safe_assert_msg_type_sIJLNS0_20safe_assert_msg_typeE1EEEEE5valueE }, comdat, align 8
@.str.4 = private unnamed_addr constant [33 x i8] c"hp.second == srcChunk->tag(srcI)\00", align 1
@.str.5 = private unnamed_addr constant [145 x i8] c"generated/home/dtcxzyw/WorkSpace/Projects/compilers/llvm-opt-benchmark/bench/velox/bench_build/_deps/folly-src/folly/container/detail/F14Table.h\00", align 1
@_ZN5folly6detail21safe_assert_msg_typesINS0_22safe_assert_msg_type_sIJLNS0_20safe_assert_msg_typeE1EEEEE5valueE = linkonce_odr constant %"struct.folly::c_array" { [2 x i8] c"\01\00" }, comdat, align 1
@.str.6 = private unnamed_addr constant [1 x i8] zeroinitializer, align 1
@.str.7 = private unnamed_addr constant [7 x i8] c"setTag\00", align 1
@_ZZN5folly3f146detail8F14ChunkIjE6setTagEmmE30__folly_detail_safe_assert_arg_0 = linkonce_odr constant %"struct.folly::detail::safe_assert_arg" { ptr @.str.8, ptr @.str.5, i32 426, ptr @.str.7, ptr @_ZN5folly6detail21safe_assert_msg_typesINS0_22safe_assert_msg_type_sIJLNS0_20safe_assert_msg_typeE1EEEEE5valueE }, comdat, align 8
@.str.8 = private unnamed_addr constant [18 x i8] c"tags_[index] == 0\00", align 1
@_ZZN5folly3f146detail8F14TableINS1_20ValueContainerPolicyIbivvN8facebook5velox6memory12StlAllocatorISt4pairIKbiEEEEEE10rehashImplEmmmmmE30__folly_detail_safe_assert_arg_0 = linkonce_odr constant %"struct.folly::detail::safe_assert_arg" { ptr @.str.4, ptr @.str.5, i32 1923, ptr @.str.3, ptr @_ZN5folly6detail21safe_assert_msg_typesINS0_22safe_assert_msg_type_sIJLNS0_20safe_assert_msg_typeE1EEEEE5valueE }, comdat, align 8
@_ZZN5folly3f146detail8F14ChunkISt4pairIKbiEE6setTagEmmE30__folly_detail_safe_assert_arg_0 = linkonce_odr constant %"struct.folly::detail::safe_assert_arg" { ptr @.str.8, ptr @.str.5, i32 426, ptr @.str.7, ptr @_ZN5folly6detail21safe_assert_msg_typesINS0_22safe_assert_msg_type_sIJLNS0_20safe_assert_msg_typeE1EEEEE5valueE }, comdat, align 8
@_ZN8facebook5velox4bitsL13kZeroBitmasksE = internal unnamed_addr constant [8 x i8] c"\FE\FD\FB\F7\EF\DF\BF\7F", align 1
@.str.11 = private unnamed_addr constant [26 x i8] c"vector::_M_realloc_insert\00", align 1
@_ZTVSt23_Sp_counted_ptr_inplaceIN8facebook5velox9functions11LookupTableILNS1_8TypeKindE3EEESaIvELN9__gnu_cxx12_Lock_policyE2EE = linkonce_odr unnamed_addr constant { [7 x ptr] } { [7 x ptr] [ptr null, ptr @_ZTISt23_Sp_counted_ptr_inplaceIN8facebook5velox9functions11LookupTableILNS1_8TypeKindE3EEESaIvELN9__gnu_cxx12_Lock_policyE2EE, ptr @_ZNSt23_Sp_counted_ptr_inplaceIN8facebook5velox9functions11LookupTableILNS1_8TypeKindE3EEESaIvELN9__gnu_cxx12_Lock_policyE2EED2Ev, ptr @_ZNSt23_Sp_counted_ptr_inplaceIN8facebook5velox9functions11LookupTableILNS1_8TypeKindE3EEESaIvELN9__gnu_cxx12_Lock_policyE2EED0Ev, ptr @_ZNSt23_Sp_counted_ptr_inplaceIN8facebook5velox9functions11LookupTableILNS1_8TypeKindE3EEESaIvELN9__gnu_cxx12_Lock_policyE2EE10_M_disposeEv, ptr @_ZNSt23_Sp_counted_ptr_inplaceIN8facebook5velox9functions11LookupTableILNS1_8TypeKindE3EEESaIvELN9__gnu_cxx12_Lock_policyE2EE10_M_destroyEv, ptr @_ZNSt23_Sp_counted_ptr_inplaceIN8facebook5velox9functions11LookupTableILNS1_8TypeKindE3EEESaIvELN9__gnu_cxx12_Lock_policyE2EE14_M_get_deleterERKSt9type_info] }, comdat, align 8
@_ZTSSt23_Sp_counted_ptr_inplaceIN8facebook5velox9functions11LookupTableILNS1_8TypeKindE3EEESaIvELN9__gnu_cxx12_Lock_policyE2EE = linkonce_odr constant [123 x i8] c"St23_Sp_counted_ptr_inplaceIN8facebook5velox9functions11LookupTableILNS1_8TypeKindE3EEESaIvELN9__gnu_cxx12_Lock_policyE2EE\00", comdat, align 1
@_ZTISt23_Sp_counted_ptr_inplaceIN8facebook5velox9functions11LookupTableILNS1_8TypeKindE3EEESaIvELN9__gnu_cxx12_Lock_policyE2EE = linkonce_odr constant { ptr, ptr, ptr } { ptr getelementptr inbounds (ptr, ptr @_ZTVN10__cxxabiv120__si_class_type_infoE, i64 2), ptr @_ZTSSt23_Sp_counted_ptr_inplaceIN8facebook5velox9functions11LookupTableILNS1_8TypeKindE3EEESaIvELN9__gnu_cxx12_Lock_policyE2EE, ptr @_ZTISt16_Sp_counted_baseILN9__gnu_cxx12_Lock_policyE2EE }, comdat, align 8
@_ZTVN8facebook5velox9functions11LookupTableILNS0_8TypeKindE3EEE = linkonce_odr unnamed_addr constant { [4 x ptr] } { [4 x ptr] [ptr null, ptr @_ZTIN8facebook5velox9functions11LookupTableILNS0_8TypeKindE3EEE, ptr @_ZN8facebook5velox9functions11LookupTableILNS0_8TypeKindE3EED2Ev, ptr @_ZN8facebook5velox9functions11LookupTableILNS0_8TypeKindE3EED0Ev] }, comdat, align 8
@_ZTSN8facebook5velox9functions11LookupTableILNS0_8TypeKindE3EEE = linkonce_odr constant [60 x i8] c"N8facebook5velox9functions11LookupTableILNS0_8TypeKindE3EEE\00", comdat, align 1
@_ZTIN8facebook5velox9functions11LookupTableILNS0_8TypeKindE3EEE = linkonce_odr constant { ptr, ptr, ptr } { ptr getelementptr inbounds (ptr, ptr @_ZTVN10__cxxabiv120__si_class_type_infoE, i64 2), ptr @_ZTSN8facebook5velox9functions11LookupTableILNS0_8TypeKindE3EEE, ptr @_ZTIN8facebook5velox9functions15LookupTableBaseE }, comdat, align 8
@_ZZN5folly3f146detail8F14TableINS1_21VectorContainerPolicyIiNS_10F14FastMapIiiNS_23HeterogeneousAccessHashIivEENS_26HeterogeneousAccessEqualToIivEEN8facebook5velox6memory12StlAllocatorISt4pairIKiiEEEEEvvNSC_ISD_ISE_SH_EEESt17integral_constantIbLb1EEEEE10rehashImplEmmmmmE30__folly_detail_safe_assert_arg_0 = linkonce_odr constant %"struct.folly::detail::safe_assert_arg" { ptr @.str.4, ptr @.str.5, i32 1923, ptr @.str.3, ptr @_ZN5folly6detail21safe_assert_msg_typesINS0_22safe_assert_msg_type_sIJLNS0_20safe_assert_msg_typeE1EEEEE5valueE }, comdat, align 8
@_ZZN5folly3f146detail8F14TableINS1_20ValueContainerPolicyIiivvN8facebook5velox6memory12StlAllocatorISt4pairIKiiEEEEEE10rehashImplEmmmmmE30__folly_detail_safe_assert_arg_0 = linkonce_odr constant %"struct.folly::detail::safe_assert_arg" { ptr @.str.4, ptr @.str.5, i32 1923, ptr @.str.3, ptr @_ZN5folly6detail21safe_assert_msg_typesINS0_22safe_assert_msg_type_sIJLNS0_20safe_assert_msg_typeE1EEEEE5valueE }, comdat, align 8
@_ZZN5folly3f146detail8F14ChunkISt4pairIKiiEE6setTagEmmE30__folly_detail_safe_assert_arg_0 = linkonce_odr constant %"struct.folly::detail::safe_assert_arg" { ptr @.str.8, ptr @.str.5, i32 426, ptr @.str.7, ptr @_ZN5folly6detail21safe_assert_msg_typesINS0_22safe_assert_msg_type_sIJLNS0_20safe_assert_msg_typeE1EEEEE5valueE }, comdat, align 8
@_ZTVSt23_Sp_counted_ptr_inplaceIN8facebook5velox9functions11LookupTableILNS1_8TypeKindE1EEESaIvELN9__gnu_cxx12_Lock_policyE2EE = linkonce_odr unnamed_addr constant { [7 x ptr] } { [7 x ptr] [ptr null, ptr @_ZTISt23_Sp_counted_ptr_inplaceIN8facebook5velox9functions11LookupTableILNS1_8TypeKindE1EEESaIvELN9__gnu_cxx12_Lock_policyE2EE, ptr @_ZNSt23_Sp_counted_ptr_inplaceIN8facebook5velox9functions11LookupTableILNS1_8TypeKindE1EEESaIvELN9__gnu_cxx12_Lock_policyE2EED2Ev, ptr @_ZNSt23_Sp_counted_ptr_inplaceIN8facebook5velox9functions11LookupTableILNS1_8TypeKindE1EEESaIvELN9__gnu_cxx12_Lock_policyE2EED0Ev, ptr @_ZNSt23_Sp_counted_ptr_inplaceIN8facebook5velox9functions11LookupTableILNS1_8TypeKindE1EEESaIvELN9__gnu_cxx12_Lock_policyE2EE10_M_disposeEv, ptr @_ZNSt23_Sp_counted_ptr_inplaceIN8facebook5velox9functions11LookupTableILNS1_8TypeKindE1EEESaIvELN9__gnu_cxx12_Lock_policyE2EE10_M_destroyEv, ptr @_ZNSt23_Sp_counted_ptr_inplaceIN8facebook5velox9functions11LookupTableILNS1_8TypeKindE1EEESaIvELN9__gnu_cxx12_Lock_policyE2EE14_M_get_deleterERKSt9type_info] }, comdat, align 8
@_ZTSSt23_Sp_counted_ptr_inplaceIN8facebook5velox9functions11LookupTableILNS1_8TypeKindE1EEESaIvELN9__gnu_cxx12_Lock_policyE2EE = linkonce_odr constant [123 x i8] c"St23_Sp_counted_ptr_inplaceIN8facebook5velox9functions11LookupTableILNS1_8TypeKindE1EEESaIvELN9__gnu_cxx12_Lock_policyE2EE\00", comdat, align 1
@_ZTISt23_Sp_counted_ptr_inplaceIN8facebook5velox9functions11LookupTableILNS1_8TypeKindE1EEESaIvELN9__gnu_cxx12_Lock_policyE2EE = linkonce_odr constant { ptr, ptr, ptr } { ptr getelementptr inbounds (ptr, ptr @_ZTVN10__cxxabiv120__si_class_type_infoE, i64 2), ptr @_ZTSSt23_Sp_counted_ptr_inplaceIN8facebook5velox9functions11LookupTableILNS1_8TypeKindE1EEESaIvELN9__gnu_cxx12_Lock_policyE2EE, ptr @_ZTISt16_Sp_counted_baseILN9__gnu_cxx12_Lock_policyE2EE }, comdat, align 8
@_ZTVN8facebook5velox9functions11LookupTableILNS0_8TypeKindE1EEE = linkonce_odr unnamed_addr constant { [4 x ptr] } { [4 x ptr] [ptr null, ptr @_ZTIN8facebook5velox9functions11LookupTableILNS0_8TypeKindE1EEE, ptr @_ZN8facebook5velox9functions11LookupTableILNS0_8TypeKindE1EED2Ev, ptr @_ZN8facebook5velox9functions11LookupTableILNS0_8TypeKindE1EED0Ev] }, comdat, align 8
@_ZTSN8facebook5velox9functions11LookupTableILNS0_8TypeKindE1EEE = linkonce_odr constant [60 x i8] c"N8facebook5velox9functions11LookupTableILNS0_8TypeKindE1EEE\00", comdat, align 1
@_ZTIN8facebook5velox9functions11LookupTableILNS0_8TypeKindE1EEE = linkonce_odr constant { ptr, ptr, ptr } { ptr getelementptr inbounds (ptr, ptr @_ZTVN10__cxxabiv120__si_class_type_infoE, i64 2), ptr @_ZTSN8facebook5velox9functions11LookupTableILNS0_8TypeKindE1EEE, ptr @_ZTIN8facebook5velox9functions15LookupTableBaseE }, comdat, align 8
@_ZZN5folly3f146detail8F14TableINS1_21VectorContainerPolicyIiNS_10F14FastMapIaiNS_23HeterogeneousAccessHashIavEENS_26HeterogeneousAccessEqualToIavEEN8facebook5velox6memory12StlAllocatorISt4pairIKaiEEEEEvvNSC_ISD_IKiSH_EEESt17integral_constantIbLb1EEEEE10rehashImplEmmmmmE30__folly_detail_safe_assert_arg_0 = linkonce_odr constant %"struct.folly::detail::safe_assert_arg" { ptr @.str.4, ptr @.str.5, i32 1923, ptr @.str.3, ptr @_ZN5folly6detail21safe_assert_msg_typesINS0_22safe_assert_msg_type_sIJLNS0_20safe_assert_msg_typeE1EEEEE5valueE }, comdat, align 8
@_ZZN5folly3f146detail8F14TableINS1_20ValueContainerPolicyIaivvN8facebook5velox6memory12StlAllocatorISt4pairIKaiEEEEEE10rehashImplEmmmmmE30__folly_detail_safe_assert_arg_0 = linkonce_odr constant %"struct.folly::detail::safe_assert_arg" { ptr @.str.4, ptr @.str.5, i32 1923, ptr @.str.3, ptr @_ZN5folly6detail21safe_assert_msg_typesINS0_22safe_assert_msg_type_sIJLNS0_20safe_assert_msg_typeE1EEEEE5valueE }, comdat, align 8
@_ZZN5folly3f146detail8F14ChunkISt4pairIKaiEE6setTagEmmE30__folly_detail_safe_assert_arg_0 = linkonce_odr constant %"struct.folly::detail::safe_assert_arg" { ptr @.str.8, ptr @.str.5, i32 426, ptr @.str.7, ptr @_ZN5folly6detail21safe_assert_msg_typesINS0_22safe_assert_msg_type_sIJLNS0_20safe_assert_msg_typeE1EEEEE5valueE }, comdat, align 8
@_ZTVSt23_Sp_counted_ptr_inplaceIN8facebook5velox9functions11LookupTableILNS1_8TypeKindE2EEESaIvELN9__gnu_cxx12_Lock_policyE2EE = linkonce_odr unnamed_addr constant { [7 x ptr] } { [7 x ptr] [ptr null, ptr @_ZTISt23_Sp_counted_ptr_inplaceIN8facebook5velox9functions11LookupTableILNS1_8TypeKindE2EEESaIvELN9__gnu_cxx12_Lock_policyE2EE, ptr @_ZNSt23_Sp_counted_ptr_inplaceIN8facebook5velox9functions11LookupTableILNS1_8TypeKindE2EEESaIvELN9__gnu_cxx12_Lock_policyE2EED2Ev, ptr @_ZNSt23_Sp_counted_ptr_inplaceIN8facebook5velox9functions11LookupTableILNS1_8TypeKindE2EEESaIvELN9__gnu_cxx12_Lock_policyE2EED0Ev, ptr @_ZNSt23_Sp_counted_ptr_inplaceIN8facebook5velox9functions11LookupTableILNS1_8TypeKindE2EEESaIvELN9__gnu_cxx12_Lock_policyE2EE10_M_disposeEv, ptr @_ZNSt23_Sp_counted_ptr_inplaceIN8facebook5velox9functions11LookupTableILNS1_8TypeKindE2EEESaIvELN9__gnu_cxx12_Lock_policyE2EE10_M_destroyEv, ptr @_ZNSt23_Sp_counted_ptr_inplaceIN8facebook5velox9functions11LookupTableILNS1_8TypeKindE2EEESaIvELN9__gnu_cxx12_Lock_policyE2EE14_M_get_deleterERKSt9type_info] }, comdat, align 8
@_ZTSSt23_Sp_counted_ptr_inplaceIN8facebook5velox9functions11LookupTableILNS1_8TypeKindE2EEESaIvELN9__gnu_cxx12_Lock_policyE2EE = linkonce_odr constant [123 x i8] c"St23_Sp_counted_ptr_inplaceIN8facebook5velox9functions11LookupTableILNS1_8TypeKindE2EEESaIvELN9__gnu_cxx12_Lock_policyE2EE\00", comdat, align 1
@_ZTISt23_Sp_counted_ptr_inplaceIN8facebook5velox9functions11LookupTableILNS1_8TypeKindE2EEESaIvELN9__gnu_cxx12_Lock_policyE2EE = linkonce_odr constant { ptr, ptr, ptr } { ptr getelementptr inbounds (ptr, ptr @_ZTVN10__cxxabiv120__si_class_type_infoE, i64 2), ptr @_ZTSSt23_Sp_counted_ptr_inplaceIN8facebook5velox9functions11LookupTableILNS1_8TypeKindE2EEESaIvELN9__gnu_cxx12_Lock_policyE2EE, ptr @_ZTISt16_Sp_counted_baseILN9__gnu_cxx12_Lock_policyE2EE }, comdat, align 8
@_ZTVN8facebook5velox9functions11LookupTableILNS0_8TypeKindE2EEE = linkonce_odr unnamed_addr constant { [4 x ptr] } { [4 x ptr] [ptr null, ptr @_ZTIN8facebook5velox9functions11LookupTableILNS0_8TypeKindE2EEE, ptr @_ZN8facebook5velox9functions11LookupTableILNS0_8TypeKindE2EED2Ev, ptr @_ZN8facebook5velox9functions11LookupTableILNS0_8TypeKindE2EED0Ev] }, comdat, align 8
@_ZTSN8facebook5velox9functions11LookupTableILNS0_8TypeKindE2EEE = linkonce_odr constant [60 x i8] c"N8facebook5velox9functions11LookupTableILNS0_8TypeKindE2EEE\00", comdat, align 1
@_ZTIN8facebook5velox9functions11LookupTableILNS0_8TypeKindE2EEE = linkonce_odr constant { ptr, ptr, ptr } { ptr getelementptr inbounds (ptr, ptr @_ZTVN10__cxxabiv120__si_class_type_infoE, i64 2), ptr @_ZTSN8facebook5velox9functions11LookupTableILNS0_8TypeKindE2EEE, ptr @_ZTIN8facebook5velox9functions15LookupTableBaseE }, comdat, align 8
@_ZZN5folly3f146detail8F14TableINS1_21VectorContainerPolicyIiNS_10F14FastMapIsiNS_23HeterogeneousAccessHashIsvEENS_26HeterogeneousAccessEqualToIsvEEN8facebook5velox6memory12StlAllocatorISt4pairIKsiEEEEEvvNSC_ISD_IKiSH_EEESt17integral_constantIbLb1EEEEE10rehashImplEmmmmmE30__folly_detail_safe_assert_arg_0 = linkonce_odr constant %"struct.folly::detail::safe_assert_arg" { ptr @.str.4, ptr @.str.5, i32 1923, ptr @.str.3, ptr @_ZN5folly6detail21safe_assert_msg_typesINS0_22safe_assert_msg_type_sIJLNS0_20safe_assert_msg_typeE1EEEEE5valueE }, comdat, align 8
@_ZZN5folly3f146detail8F14TableINS1_20ValueContainerPolicyIsivvN8facebook5velox6memory12StlAllocatorISt4pairIKsiEEEEEE10rehashImplEmmmmmE30__folly_detail_safe_assert_arg_0 = linkonce_odr constant %"struct.folly::detail::safe_assert_arg" { ptr @.str.4, ptr @.str.5, i32 1923, ptr @.str.3, ptr @_ZN5folly6detail21safe_assert_msg_typesINS0_22safe_assert_msg_type_sIJLNS0_20safe_assert_msg_typeE1EEEEE5valueE }, comdat, align 8
@_ZZN5folly3f146detail8F14ChunkISt4pairIKsiEE6setTagEmmE30__folly_detail_safe_assert_arg_0 = linkonce_odr constant %"struct.folly::detail::safe_assert_arg" { ptr @.str.8, ptr @.str.5, i32 426, ptr @.str.7, ptr @_ZN5folly6detail21safe_assert_msg_typesINS0_22safe_assert_msg_type_sIJLNS0_20safe_assert_msg_typeE1EEEEE5valueE }, comdat, align 8
@_ZTVSt23_Sp_counted_ptr_inplaceIN8facebook5velox9functions11LookupTableILNS1_8TypeKindE4EEESaIvELN9__gnu_cxx12_Lock_policyE2EE = linkonce_odr unnamed_addr constant { [7 x ptr] } { [7 x ptr] [ptr null, ptr @_ZTISt23_Sp_counted_ptr_inplaceIN8facebook5velox9functions11LookupTableILNS1_8TypeKindE4EEESaIvELN9__gnu_cxx12_Lock_policyE2EE, ptr @_ZNSt23_Sp_counted_ptr_inplaceIN8facebook5velox9functions11LookupTableILNS1_8TypeKindE4EEESaIvELN9__gnu_cxx12_Lock_policyE2EED2Ev, ptr @_ZNSt23_Sp_counted_ptr_inplaceIN8facebook5velox9functions11LookupTableILNS1_8TypeKindE4EEESaIvELN9__gnu_cxx12_Lock_policyE2EED0Ev, ptr @_ZNSt23_Sp_counted_ptr_inplaceIN8facebook5velox9functions11LookupTableILNS1_8TypeKindE4EEESaIvELN9__gnu_cxx12_Lock_policyE2EE10_M_disposeEv, ptr @_ZNSt23_Sp_counted_ptr_inplaceIN8facebook5velox9functions11LookupTableILNS1_8TypeKindE4EEESaIvELN9__gnu_cxx12_Lock_policyE2EE10_M_destroyEv, ptr @_ZNSt23_Sp_counted_ptr_inplaceIN8facebook5velox9functions11LookupTableILNS1_8TypeKindE4EEESaIvELN9__gnu_cxx12_Lock_policyE2EE14_M_get_deleterERKSt9type_info] }, comdat, align 8
@_ZTSSt23_Sp_counted_ptr_inplaceIN8facebook5velox9functions11LookupTableILNS1_8TypeKindE4EEESaIvELN9__gnu_cxx12_Lock_policyE2EE = linkonce_odr constant [123 x i8] c"St23_Sp_counted_ptr_inplaceIN8facebook5velox9functions11LookupTableILNS1_8TypeKindE4EEESaIvELN9__gnu_cxx12_Lock_policyE2EE\00", comdat, align 1
@_ZTISt23_Sp_counted_ptr_inplaceIN8facebook5velox9functions11LookupTableILNS1_8TypeKindE4EEESaIvELN9__gnu_cxx12_Lock_policyE2EE = linkonce_odr constant { ptr, ptr, ptr } { ptr getelementptr inbounds (ptr, ptr @_ZTVN10__cxxabiv120__si_class_type_infoE, i64 2), ptr @_ZTSSt23_Sp_counted_ptr_inplaceIN8facebook5velox9functions11LookupTableILNS1_8TypeKindE4EEESaIvELN9__gnu_cxx12_Lock_policyE2EE, ptr @_ZTISt16_Sp_counted_baseILN9__gnu_cxx12_Lock_policyE2EE }, comdat, align 8
@_ZTVN8facebook5velox9functions11LookupTableILNS0_8TypeKindE4EEE = linkonce_odr unnamed_addr constant { [4 x ptr] } { [4 x ptr] [ptr null, ptr @_ZTIN8facebook5velox9functions11LookupTableILNS0_8TypeKindE4EEE, ptr @_ZN8facebook5velox9functions11LookupTableILNS0_8TypeKindE4EED2Ev, ptr @_ZN8facebook5velox9functions11LookupTableILNS0_8TypeKindE4EED0Ev] }, comdat, align 8
@_ZTSN8facebook5velox9functions11LookupTableILNS0_8TypeKindE4EEE = linkonce_odr constant [60 x i8] c"N8facebook5velox9functions11LookupTableILNS0_8TypeKindE4EEE\00", comdat, align 1
@_ZTIN8facebook5velox9functions11LookupTableILNS0_8TypeKindE4EEE = linkonce_odr constant { ptr, ptr, ptr } { ptr getelementptr inbounds (ptr, ptr @_ZTVN10__cxxabiv120__si_class_type_infoE, i64 2), ptr @_ZTSN8facebook5velox9functions11LookupTableILNS0_8TypeKindE4EEE, ptr @_ZTIN8facebook5velox9functions15LookupTableBaseE }, comdat, align 8
@_ZZN5folly3f146detail8F14TableINS1_21VectorContainerPolicyIiNS_10F14FastMapIliNS_23HeterogeneousAccessHashIlvEENS_26HeterogeneousAccessEqualToIlvEEN8facebook5velox6memory12StlAllocatorISt4pairIKliEEEEEvvNSC_ISD_IKiSH_EEESt17integral_constantIbLb1EEEEE10rehashImplEmmmmmE30__folly_detail_safe_assert_arg_0 = linkonce_odr constant %"struct.folly::detail::safe_assert_arg" { ptr @.str.4, ptr @.str.5, i32 1923, ptr @.str.3, ptr @_ZN5folly6detail21safe_assert_msg_typesINS0_22safe_assert_msg_type_sIJLNS0_20safe_assert_msg_typeE1EEEEE5valueE }, comdat, align 8
@_ZZN5folly3f146detail8F14TableINS1_20ValueContainerPolicyIlivvN8facebook5velox6memory12StlAllocatorISt4pairIKliEEEEEE10rehashImplEmmmmmE30__folly_detail_safe_assert_arg_0 = linkonce_odr constant %"struct.folly::detail::safe_assert_arg" { ptr @.str.4, ptr @.str.5, i32 1923, ptr @.str.3, ptr @_ZN5folly6detail21safe_assert_msg_typesINS0_22safe_assert_msg_type_sIJLNS0_20safe_assert_msg_typeE1EEEEE5valueE }, comdat, align 8
@_ZZN5folly3f146detail8F14ChunkISt4pairIKliEE6setTagEmmE30__folly_detail_safe_assert_arg_0 = linkonce_odr constant %"struct.folly::detail::safe_assert_arg" { ptr @.str.8, ptr @.str.5, i32 426, ptr @.str.7, ptr @_ZN5folly6detail21safe_assert_msg_typesINS0_22safe_assert_msg_type_sIJLNS0_20safe_assert_msg_typeE1EEEEE5valueE }, comdat, align 8
@_ZTVSt23_Sp_counted_ptr_inplaceIN8facebook5velox9functions11LookupTableILNS1_8TypeKindE10EEESaIvELN9__gnu_cxx12_Lock_policyE2EE = linkonce_odr unnamed_addr constant { [7 x ptr] } { [7 x ptr] [ptr null, ptr @_ZTISt23_Sp_counted_ptr_inplaceIN8facebook5velox9functions11LookupTableILNS1_8TypeKindE10EEESaIvELN9__gnu_cxx12_Lock_policyE2EE, ptr @_ZNSt23_Sp_counted_ptr_inplaceIN8facebook5velox9functions11LookupTableILNS1_8TypeKindE10EEESaIvELN9__gnu_cxx12_Lock_policyE2EED2Ev, ptr @_ZNSt23_Sp_counted_ptr_inplaceIN8facebook5velox9functions11LookupTableILNS1_8TypeKindE10EEESaIvELN9__gnu_cxx12_Lock_policyE2EED0Ev, ptr @_ZNSt23_Sp_counted_ptr_inplaceIN8facebook5velox9functions11LookupTableILNS1_8TypeKindE10EEESaIvELN9__gnu_cxx12_Lock_policyE2EE10_M_disposeEv, ptr @_ZNSt23_Sp_counted_ptr_inplaceIN8facebook5velox9functions11LookupTableILNS1_8TypeKindE10EEESaIvELN9__gnu_cxx12_Lock_policyE2EE10_M_destroyEv, ptr @_ZNSt23_Sp_counted_ptr_inplaceIN8facebook5velox9functions11LookupTableILNS1_8TypeKindE10EEESaIvELN9__gnu_cxx12_Lock_policyE2EE14_M_get_deleterERKSt9type_info] }, comdat, align 8
@_ZTSSt23_Sp_counted_ptr_inplaceIN8facebook5velox9functions11LookupTableILNS1_8TypeKindE10EEESaIvELN9__gnu_cxx12_Lock_policyE2EE = linkonce_odr constant [124 x i8] c"St23_Sp_counted_ptr_inplaceIN8facebook5velox9functions11LookupTableILNS1_8TypeKindE10EEESaIvELN9__gnu_cxx12_Lock_policyE2EE\00", comdat, align 1
@_ZTISt23_Sp_counted_ptr_inplaceIN8facebook5velox9functions11LookupTableILNS1_8TypeKindE10EEESaIvELN9__gnu_cxx12_Lock_policyE2EE = linkonce_odr constant { ptr, ptr, ptr } { ptr getelementptr inbounds (ptr, ptr @_ZTVN10__cxxabiv120__si_class_type_infoE, i64 2), ptr @_ZTSSt23_Sp_counted_ptr_inplaceIN8facebook5velox9functions11LookupTableILNS1_8TypeKindE10EEESaIvELN9__gnu_cxx12_Lock_policyE2EE, ptr @_ZTISt16_Sp_counted_baseILN9__gnu_cxx12_Lock_policyE2EE }, comdat, align 8
@_ZTVN8facebook5velox9functions11LookupTableILNS0_8TypeKindE10EEE = linkonce_odr unnamed_addr constant { [4 x ptr] } { [4 x ptr] [ptr null, ptr @_ZTIN8facebook5velox9functions11LookupTableILNS0_8TypeKindE10EEE, ptr @_ZN8facebook5velox9functions11LookupTableILNS0_8TypeKindE10EED2Ev, ptr @_ZN8facebook5velox9functions11LookupTableILNS0_8TypeKindE10EED0Ev] }, comdat, align 8
@_ZTSN8facebook5velox9functions11LookupTableILNS0_8TypeKindE10EEE = linkonce_odr constant [61 x i8] c"N8facebook5velox9functions11LookupTableILNS0_8TypeKindE10EEE\00", comdat, align 1
@_ZTIN8facebook5velox9functions11LookupTableILNS0_8TypeKindE10EEE = linkonce_odr constant { ptr, ptr, ptr } { ptr getelementptr inbounds (ptr, ptr @_ZTVN10__cxxabiv120__si_class_type_infoE, i64 2), ptr @_ZTSN8facebook5velox9functions11LookupTableILNS0_8TypeKindE10EEE, ptr @_ZTIN8facebook5velox9functions15LookupTableBaseE }, comdat, align 8
@_ZZN5folly3f146detail8F14TableINS1_21VectorContainerPolicyIiNS_10F14FastMapIniNS_23HeterogeneousAccessHashInvEENS_26HeterogeneousAccessEqualToInvEEN8facebook5velox6memory12StlAllocatorISt4pairIKniEEEEEvvNSC_ISD_IKiSH_EEESt17integral_constantIbLb1EEEEE10rehashImplEmmmmmE30__folly_detail_safe_assert_arg_0 = linkonce_odr constant %"struct.folly::detail::safe_assert_arg" { ptr @.str.4, ptr @.str.5, i32 1923, ptr @.str.3, ptr @_ZN5folly6detail21safe_assert_msg_typesINS0_22safe_assert_msg_type_sIJLNS0_20safe_assert_msg_typeE1EEEEE5valueE }, comdat, align 8
@_ZZN5folly3f146detail8F14TableINS1_21VectorContainerPolicyInivvN8facebook5velox6memory12StlAllocatorISt4pairIKniEEESt17integral_constantIbLb1EEEEE10rehashImplEmmmmmE30__folly_detail_safe_assert_arg_0 = linkonce_odr constant %"struct.folly::detail::safe_assert_arg" { ptr @.str.4, ptr @.str.5, i32 1923, ptr @.str.3, ptr @_ZN5folly6detail21safe_assert_msg_typesINS0_22safe_assert_msg_type_sIJLNS0_20safe_assert_msg_typeE1EEEEE5valueE }, comdat, align 8
@_ZTVSt23_Sp_counted_ptr_inplaceIN8facebook5velox9functions11LookupTableILNS1_8TypeKindE5EEESaIvELN9__gnu_cxx12_Lock_policyE2EE = linkonce_odr unnamed_addr constant { [7 x ptr] } { [7 x ptr] [ptr null, ptr @_ZTISt23_Sp_counted_ptr_inplaceIN8facebook5velox9functions11LookupTableILNS1_8TypeKindE5EEESaIvELN9__gnu_cxx12_Lock_policyE2EE, ptr @_ZNSt23_Sp_counted_ptr_inplaceIN8facebook5velox9functions11LookupTableILNS1_8TypeKindE5EEESaIvELN9__gnu_cxx12_Lock_policyE2EED2Ev, ptr @_ZNSt23_Sp_counted_ptr_inplaceIN8facebook5velox9functions11LookupTableILNS1_8TypeKindE5EEESaIvELN9__gnu_cxx12_Lock_policyE2EED0Ev, ptr @_ZNSt23_Sp_counted_ptr_inplaceIN8facebook5velox9functions11LookupTableILNS1_8TypeKindE5EEESaIvELN9__gnu_cxx12_Lock_policyE2EE10_M_disposeEv, ptr @_ZNSt23_Sp_counted_ptr_inplaceIN8facebook5velox9functions11LookupTableILNS1_8TypeKindE5EEESaIvELN9__gnu_cxx12_Lock_policyE2EE10_M_destroyEv, ptr @_ZNSt23_Sp_counted_ptr_inplaceIN8facebook5velox9functions11LookupTableILNS1_8TypeKindE5EEESaIvELN9__gnu_cxx12_Lock_policyE2EE14_M_get_deleterERKSt9type_info] }, comdat, align 8
@_ZTSSt23_Sp_counted_ptr_inplaceIN8facebook5velox9functions11LookupTableILNS1_8TypeKindE5EEESaIvELN9__gnu_cxx12_Lock_policyE2EE = linkonce_odr constant [123 x i8] c"St23_Sp_counted_ptr_inplaceIN8facebook5velox9functions11LookupTableILNS1_8TypeKindE5EEESaIvELN9__gnu_cxx12_Lock_policyE2EE\00", comdat, align 1
@_ZTISt23_Sp_counted_ptr_inplaceIN8facebook5velox9functions11LookupTableILNS1_8TypeKindE5EEESaIvELN9__gnu_cxx12_Lock_policyE2EE = linkonce_odr constant { ptr, ptr, ptr } { ptr getelementptr inbounds (ptr, ptr @_ZTVN10__cxxabiv120__si_class_type_infoE, i64 2), ptr @_ZTSSt23_Sp_counted_ptr_inplaceIN8facebook5velox9functions11LookupTableILNS1_8TypeKindE5EEESaIvELN9__gnu_cxx12_Lock_policyE2EE, ptr @_ZTISt16_Sp_counted_baseILN9__gnu_cxx12_Lock_policyE2EE }, comdat, align 8
@_ZTVN8facebook5velox9functions11LookupTableILNS0_8TypeKindE5EEE = linkonce_odr unnamed_addr constant { [4 x ptr] } { [4 x ptr] [ptr null, ptr @_ZTIN8facebook5velox9functions11LookupTableILNS0_8TypeKindE5EEE, ptr @_ZN8facebook5velox9functions11LookupTableILNS0_8TypeKindE5EED2Ev, ptr @_ZN8facebook5velox9functions11LookupTableILNS0_8TypeKindE5EED0Ev] }, comdat, align 8
@_ZTSN8facebook5velox9functions11LookupTableILNS0_8TypeKindE5EEE = linkonce_odr constant [60 x i8] c"N8facebook5velox9functions11LookupTableILNS0_8TypeKindE5EEE\00", comdat, align 1
@_ZTIN8facebook5velox9functions11LookupTableILNS0_8TypeKindE5EEE = linkonce_odr constant { ptr, ptr, ptr } { ptr getelementptr inbounds (ptr, ptr @_ZTVN10__cxxabiv120__si_class_type_infoE, i64 2), ptr @_ZTSN8facebook5velox9functions11LookupTableILNS0_8TypeKindE5EEE, ptr @_ZTIN8facebook5velox9functions15LookupTableBaseE }, comdat, align 8
@_ZZN5folly3f146detail8F14TableINS1_21VectorContainerPolicyIiNS_10F14FastMapIfiNS_23HeterogeneousAccessHashIfvEENS_26HeterogeneousAccessEqualToIfvEEN8facebook5velox6memory12StlAllocatorISt4pairIKfiEEEEEvvNSC_ISD_IKiSH_EEESt17integral_constantIbLb1EEEEE10rehashImplEmmmmmE30__folly_detail_safe_assert_arg_0 = linkonce_odr constant %"struct.folly::detail::safe_assert_arg" { ptr @.str.4, ptr @.str.5, i32 1923, ptr @.str.3, ptr @_ZN5folly6detail21safe_assert_msg_typesINS0_22safe_assert_msg_type_sIJLNS0_20safe_assert_msg_typeE1EEEEE5valueE }, comdat, align 8
@_ZZN5folly3f146detail8F14TableINS1_20ValueContainerPolicyIfivvN8facebook5velox6memory12StlAllocatorISt4pairIKfiEEEEEE10rehashImplEmmmmmE30__folly_detail_safe_assert_arg_0 = linkonce_odr constant %"struct.folly::detail::safe_assert_arg" { ptr @.str.4, ptr @.str.5, i32 1923, ptr @.str.3, ptr @_ZN5folly6detail21safe_assert_msg_typesINS0_22safe_assert_msg_type_sIJLNS0_20safe_assert_msg_typeE1EEEEE5valueE }, comdat, align 8
@_ZZN5folly3f146detail8F14ChunkISt4pairIKfiEE6setTagEmmE30__folly_detail_safe_assert_arg_0 = linkonce_odr constant %"struct.folly::detail::safe_assert_arg" { ptr @.str.8, ptr @.str.5, i32 426, ptr @.str.7, ptr @_ZN5folly6detail21safe_assert_msg_typesINS0_22safe_assert_msg_type_sIJLNS0_20safe_assert_msg_typeE1EEEEE5valueE }, comdat, align 8
@_ZTVSt23_Sp_counted_ptr_inplaceIN8facebook5velox9functions11LookupTableILNS1_8TypeKindE6EEESaIvELN9__gnu_cxx12_Lock_policyE2EE = linkonce_odr unnamed_addr constant { [7 x ptr] } { [7 x ptr] [ptr null, ptr @_ZTISt23_Sp_counted_ptr_inplaceIN8facebook5velox9functions11LookupTableILNS1_8TypeKindE6EEESaIvELN9__gnu_cxx12_Lock_policyE2EE, ptr @_ZNSt23_Sp_counted_ptr_inplaceIN8facebook5velox9functions11LookupTableILNS1_8TypeKindE6EEESaIvELN9__gnu_cxx12_Lock_policyE2EED2Ev, ptr @_ZNSt23_Sp_counted_ptr_inplaceIN8facebook5velox9functions11LookupTableILNS1_8TypeKindE6EEESaIvELN9__gnu_cxx12_Lock_policyE2EED0Ev, ptr @_ZNSt23_Sp_counted_ptr_inplaceIN8facebook5velox9functions11LookupTableILNS1_8TypeKindE6EEESaIvELN9__gnu_cxx12_Lock_policyE2EE10_M_disposeEv, ptr @_ZNSt23_Sp_counted_ptr_inplaceIN8facebook5velox9functions11LookupTableILNS1_8TypeKindE6EEESaIvELN9__gnu_cxx12_Lock_policyE2EE10_M_destroyEv, ptr @_ZNSt23_Sp_counted_ptr_inplaceIN8facebook5velox9functions11LookupTableILNS1_8TypeKindE6EEESaIvELN9__gnu_cxx12_Lock_policyE2EE14_M_get_deleterERKSt9type_info] }, comdat, align 8
@_ZTSSt23_Sp_counted_ptr_inplaceIN8facebook5velox9functions11LookupTableILNS1_8TypeKindE6EEESaIvELN9__gnu_cxx12_Lock_policyE2EE = linkonce_odr constant [123 x i8] c"St23_Sp_counted_ptr_inplaceIN8facebook5velox9functions11LookupTableILNS1_8TypeKindE6EEESaIvELN9__gnu_cxx12_Lock_policyE2EE\00", comdat, align 1
@_ZTISt23_Sp_counted_ptr_inplaceIN8facebook5velox9functions11LookupTableILNS1_8TypeKindE6EEESaIvELN9__gnu_cxx12_Lock_policyE2EE = linkonce_odr constant { ptr, ptr, ptr } { ptr getelementptr inbounds (ptr, ptr @_ZTVN10__cxxabiv120__si_class_type_infoE, i64 2), ptr @_ZTSSt23_Sp_counted_ptr_inplaceIN8facebook5velox9functions11LookupTableILNS1_8TypeKindE6EEESaIvELN9__gnu_cxx12_Lock_policyE2EE, ptr @_ZTISt16_Sp_counted_baseILN9__gnu_cxx12_Lock_policyE2EE }, comdat, align 8
@_ZTVN8facebook5velox9functions11LookupTableILNS0_8TypeKindE6EEE = linkonce_odr unnamed_addr constant { [4 x ptr] } { [4 x ptr] [ptr null, ptr @_ZTIN8facebook5velox9functions11LookupTableILNS0_8TypeKindE6EEE, ptr @_ZN8facebook5velox9functions11LookupTableILNS0_8TypeKindE6EED2Ev, ptr @_ZN8facebook5velox9functions11LookupTableILNS0_8TypeKindE6EED0Ev] }, comdat, align 8
@_ZTSN8facebook5velox9functions11LookupTableILNS0_8TypeKindE6EEE = linkonce_odr constant [60 x i8] c"N8facebook5velox9functions11LookupTableILNS0_8TypeKindE6EEE\00", comdat, align 1
@_ZTIN8facebook5velox9functions11LookupTableILNS0_8TypeKindE6EEE = linkonce_odr constant { ptr, ptr, ptr } { ptr getelementptr inbounds (ptr, ptr @_ZTVN10__cxxabiv120__si_class_type_infoE, i64 2), ptr @_ZTSN8facebook5velox9functions11LookupTableILNS0_8TypeKindE6EEE, ptr @_ZTIN8facebook5velox9functions15LookupTableBaseE }, comdat, align 8
@_ZZN5folly3f146detail8F14TableINS1_21VectorContainerPolicyIiNS_10F14FastMapIdiNS_23HeterogeneousAccessHashIdvEENS_26HeterogeneousAccessEqualToIdvEEN8facebook5velox6memory12StlAllocatorISt4pairIKdiEEEEEvvNSC_ISD_IKiSH_EEESt17integral_constantIbLb1EEEEE10rehashImplEmmmmmE30__folly_detail_safe_assert_arg_0 = linkonce_odr constant %"struct.folly::detail::safe_assert_arg" { ptr @.str.4, ptr @.str.5, i32 1923, ptr @.str.3, ptr @_ZN5folly6detail21safe_assert_msg_typesINS0_22safe_assert_msg_type_sIJLNS0_20safe_assert_msg_typeE1EEEEE5valueE }, comdat, align 8
@_ZZN5folly3f146detail8F14TableINS1_20ValueContainerPolicyIdivvN8facebook5velox6memory12StlAllocatorISt4pairIKdiEEEEEE10rehashImplEmmmmmE30__folly_detail_safe_assert_arg_0 = linkonce_odr constant %"struct.folly::detail::safe_assert_arg" { ptr @.str.4, ptr @.str.5, i32 1923, ptr @.str.3, ptr @_ZN5folly6detail21safe_assert_msg_typesINS0_22safe_assert_msg_type_sIJLNS0_20safe_assert_msg_typeE1EEEEE5valueE }, comdat, align 8
@_ZZN5folly3f146detail8F14ChunkISt4pairIKdiEE6setTagEmmE30__folly_detail_safe_assert_arg_0 = linkonce_odr constant %"struct.folly::detail::safe_assert_arg" { ptr @.str.8, ptr @.str.5, i32 426, ptr @.str.7, ptr @_ZN5folly6detail21safe_assert_msg_typesINS0_22safe_assert_msg_type_sIJLNS0_20safe_assert_msg_typeE1EEEEE5valueE }, comdat, align 8
@_ZTVSt23_Sp_counted_ptr_inplaceIN8facebook5velox9functions11LookupTableILNS1_8TypeKindE7EEESaIvELN9__gnu_cxx12_Lock_policyE2EE = linkonce_odr unnamed_addr constant { [7 x ptr] } { [7 x ptr] [ptr null, ptr @_ZTISt23_Sp_counted_ptr_inplaceIN8facebook5velox9functions11LookupTableILNS1_8TypeKindE7EEESaIvELN9__gnu_cxx12_Lock_policyE2EE, ptr @_ZNSt23_Sp_counted_ptr_inplaceIN8facebook5velox9functions11LookupTableILNS1_8TypeKindE7EEESaIvELN9__gnu_cxx12_Lock_policyE2EED2Ev, ptr @_ZNSt23_Sp_counted_ptr_inplaceIN8facebook5velox9functions11LookupTableILNS1_8TypeKindE7EEESaIvELN9__gnu_cxx12_Lock_policyE2EED0Ev, ptr @_ZNSt23_Sp_counted_ptr_inplaceIN8facebook5velox9functions11LookupTableILNS1_8TypeKindE7EEESaIvELN9__gnu_cxx12_Lock_policyE2EE10_M_disposeEv, ptr @_ZNSt23_Sp_counted_ptr_inplaceIN8facebook5velox9functions11LookupTableILNS1_8TypeKindE7EEESaIvELN9__gnu_cxx12_Lock_policyE2EE10_M_destroyEv, ptr @_ZNSt23_Sp_counted_ptr_inplaceIN8facebook5velox9functions11LookupTableILNS1_8TypeKindE7EEESaIvELN9__gnu_cxx12_Lock_policyE2EE14_M_get_deleterERKSt9type_info] }, comdat, align 8
@_ZTSSt23_Sp_counted_ptr_inplaceIN8facebook5velox9functions11LookupTableILNS1_8TypeKindE7EEESaIvELN9__gnu_cxx12_Lock_policyE2EE = linkonce_odr constant [123 x i8] c"St23_Sp_counted_ptr_inplaceIN8facebook5velox9functions11LookupTableILNS1_8TypeKindE7EEESaIvELN9__gnu_cxx12_Lock_policyE2EE\00", comdat, align 1
@_ZTISt23_Sp_counted_ptr_inplaceIN8facebook5velox9functions11LookupTableILNS1_8TypeKindE7EEESaIvELN9__gnu_cxx12_Lock_policyE2EE = linkonce_odr constant { ptr, ptr, ptr } { ptr getelementptr inbounds (ptr, ptr @_ZTVN10__cxxabiv120__si_class_type_infoE, i64 2), ptr @_ZTSSt23_Sp_counted_ptr_inplaceIN8facebook5velox9functions11LookupTableILNS1_8TypeKindE7EEESaIvELN9__gnu_cxx12_Lock_policyE2EE, ptr @_ZTISt16_Sp_counted_baseILN9__gnu_cxx12_Lock_policyE2EE }, comdat, align 8
@_ZTVN8facebook5velox9functions11LookupTableILNS0_8TypeKindE7EEE = linkonce_odr unnamed_addr constant { [4 x ptr] } { [4 x ptr] [ptr null, ptr @_ZTIN8facebook5velox9functions11LookupTableILNS0_8TypeKindE7EEE, ptr @_ZN8facebook5velox9functions11LookupTableILNS0_8TypeKindE7EED2Ev, ptr @_ZN8facebook5velox9functions11LookupTableILNS0_8TypeKindE7EED0Ev] }, comdat, align 8
@_ZTSN8facebook5velox9functions11LookupTableILNS0_8TypeKindE7EEE = linkonce_odr constant [60 x i8] c"N8facebook5velox9functions11LookupTableILNS0_8TypeKindE7EEE\00", comdat, align 1
@_ZTIN8facebook5velox9functions11LookupTableILNS0_8TypeKindE7EEE = linkonce_odr constant { ptr, ptr, ptr } { ptr getelementptr inbounds (ptr, ptr @_ZTVN10__cxxabiv120__si_class_type_infoE, i64 2), ptr @_ZTSN8facebook5velox9functions11LookupTableILNS0_8TypeKindE7EEE, ptr @_ZTIN8facebook5velox9functions15LookupTableBaseE }, comdat, align 8
@_ZZN5folly3f146detail8F14TableINS1_21VectorContainerPolicyIiNS_10F14FastMapIN8facebook5velox10StringViewEiNS_23HeterogeneousAccessHashIS7_vEENS_26HeterogeneousAccessEqualToIS7_vEENS6_6memory12StlAllocatorISt4pairIKS7_iEEEEEvvNSD_ISE_IKiSI_EEESt17integral_constantIbLb1EEEEE10rehashImplEmmmmmE30__folly_detail_safe_assert_arg_0 = linkonce_odr constant %"struct.folly::detail::safe_assert_arg" { ptr @.str.4, ptr @.str.5, i32 1923, ptr @.str.3, ptr @_ZN5folly6detail21safe_assert_msg_typesINS0_22safe_assert_msg_type_sIJLNS0_20safe_assert_msg_typeE1EEEEE5valueE }, comdat, align 8
@_ZZN5folly3f146detail8F14TableINS1_21VectorContainerPolicyIN8facebook5velox10StringViewEivvNS5_6memory12StlAllocatorISt4pairIKS6_iEEESt17integral_constantIbLb1EEEEE10rehashImplEmmmmmE30__folly_detail_safe_assert_arg_0 = linkonce_odr constant %"struct.folly::detail::safe_assert_arg" { ptr @.str.4, ptr @.str.5, i32 1923, ptr @.str.3, ptr @_ZN5folly6detail21safe_assert_msg_typesINS0_22safe_assert_msg_type_sIJLNS0_20safe_assert_msg_typeE1EEEEE5valueE }, comdat, align 8
@_ZTVSt23_Sp_counted_ptr_inplaceIN8facebook5velox9functions11LookupTableILNS1_8TypeKindE8EEESaIvELN9__gnu_cxx12_Lock_policyE2EE = linkonce_odr unnamed_addr constant { [7 x ptr] } { [7 x ptr] [ptr null, ptr @_ZTISt23_Sp_counted_ptr_inplaceIN8facebook5velox9functions11LookupTableILNS1_8TypeKindE8EEESaIvELN9__gnu_cxx12_Lock_policyE2EE, ptr @_ZNSt23_Sp_counted_ptr_inplaceIN8facebook5velox9functions11LookupTableILNS1_8TypeKindE8EEESaIvELN9__gnu_cxx12_Lock_policyE2EED2Ev, ptr @_ZNSt23_Sp_counted_ptr_inplaceIN8facebook5velox9functions11LookupTableILNS1_8TypeKindE8EEESaIvELN9__gnu_cxx12_Lock_policyE2EED0Ev, ptr @_ZNSt23_Sp_counted_ptr_inplaceIN8facebook5velox9functions11LookupTableILNS1_8TypeKindE8EEESaIvELN9__gnu_cxx12_Lock_policyE2EE10_M_disposeEv, ptr @_ZNSt23_Sp_counted_ptr_inplaceIN8facebook5velox9functions11LookupTableILNS1_8TypeKindE8EEESaIvELN9__gnu_cxx12_Lock_policyE2EE10_M_destroyEv, ptr @_ZNSt23_Sp_counted_ptr_inplaceIN8facebook5velox9functions11LookupTableILNS1_8TypeKindE8EEESaIvELN9__gnu_cxx12_Lock_policyE2EE14_M_get_deleterERKSt9type_info] }, comdat, align 8
@_ZTSSt23_Sp_counted_ptr_inplaceIN8facebook5velox9functions11LookupTableILNS1_8TypeKindE8EEESaIvELN9__gnu_cxx12_Lock_policyE2EE = linkonce_odr constant [123 x i8] c"St23_Sp_counted_ptr_inplaceIN8facebook5velox9functions11LookupTableILNS1_8TypeKindE8EEESaIvELN9__gnu_cxx12_Lock_policyE2EE\00", comdat, align 1
@_ZTISt23_Sp_counted_ptr_inplaceIN8facebook5velox9functions11LookupTableILNS1_8TypeKindE8EEESaIvELN9__gnu_cxx12_Lock_policyE2EE = linkonce_odr constant { ptr, ptr, ptr } { ptr getelementptr inbounds (ptr, ptr @_ZTVN10__cxxabiv120__si_class_type_infoE, i64 2), ptr @_ZTSSt23_Sp_counted_ptr_inplaceIN8facebook5velox9functions11LookupTableILNS1_8TypeKindE8EEESaIvELN9__gnu_cxx12_Lock_policyE2EE, ptr @_ZTISt16_Sp_counted_baseILN9__gnu_cxx12_Lock_policyE2EE }, comdat, align 8
@_ZTVN8facebook5velox9functions11LookupTableILNS0_8TypeKindE8EEE = linkonce_odr unnamed_addr constant { [4 x ptr] } { [4 x ptr] [ptr null, ptr @_ZTIN8facebook5velox9functions11LookupTableILNS0_8TypeKindE8EEE, ptr @_ZN8facebook5velox9functions11LookupTableILNS0_8TypeKindE8EED2Ev, ptr @_ZN8facebook5velox9functions11LookupTableILNS0_8TypeKindE8EED0Ev] }, comdat, align 8
@_ZTSN8facebook5velox9functions11LookupTableILNS0_8TypeKindE8EEE = linkonce_odr constant [60 x i8] c"N8facebook5velox9functions11LookupTableILNS0_8TypeKindE8EEE\00", comdat, align 1
@_ZTIN8facebook5velox9functions11LookupTableILNS0_8TypeKindE8EEE = linkonce_odr constant { ptr, ptr, ptr } { ptr getelementptr inbounds (ptr, ptr @_ZTVN10__cxxabiv120__si_class_type_infoE, i64 2), ptr @_ZTSN8facebook5velox9functions11LookupTableILNS0_8TypeKindE8EEE, ptr @_ZTIN8facebook5velox9functions15LookupTableBaseE }, comdat, align 8
@_ZTVSt23_Sp_counted_ptr_inplaceIN8facebook5velox9functions11LookupTableILNS1_8TypeKindE9EEESaIvELN9__gnu_cxx12_Lock_policyE2EE = linkonce_odr unnamed_addr constant { [7 x ptr] } { [7 x ptr] [ptr null, ptr @_ZTISt23_Sp_counted_ptr_inplaceIN8facebook5velox9functions11LookupTableILNS1_8TypeKindE9EEESaIvELN9__gnu_cxx12_Lock_policyE2EE, ptr @_ZNSt23_Sp_counted_ptr_inplaceIN8facebook5velox9functions11LookupTableILNS1_8TypeKindE9EEESaIvELN9__gnu_cxx12_Lock_policyE2EED2Ev, ptr @_ZNSt23_Sp_counted_ptr_inplaceIN8facebook5velox9functions11LookupTableILNS1_8TypeKindE9EEESaIvELN9__gnu_cxx12_Lock_policyE2EED0Ev, ptr @_ZNSt23_Sp_counted_ptr_inplaceIN8facebook5velox9functions11LookupTableILNS1_8TypeKindE9EEESaIvELN9__gnu_cxx12_Lock_policyE2EE10_M_disposeEv, ptr @_ZNSt23_Sp_counted_ptr_inplaceIN8facebook5velox9functions11LookupTableILNS1_8TypeKindE9EEESaIvELN9__gnu_cxx12_Lock_policyE2EE10_M_destroyEv, ptr @_ZNSt23_Sp_counted_ptr_inplaceIN8facebook5velox9functions11LookupTableILNS1_8TypeKindE9EEESaIvELN9__gnu_cxx12_Lock_policyE2EE14_M_get_deleterERKSt9type_info] }, comdat, align 8
@_ZTSSt23_Sp_counted_ptr_inplaceIN8facebook5velox9functions11LookupTableILNS1_8TypeKindE9EEESaIvELN9__gnu_cxx12_Lock_policyE2EE = linkonce_odr constant [123 x i8] c"St23_Sp_counted_ptr_inplaceIN8facebook5velox9functions11LookupTableILNS1_8TypeKindE9EEESaIvELN9__gnu_cxx12_Lock_policyE2EE\00", comdat, align 1
@_ZTISt23_Sp_counted_ptr_inplaceIN8facebook5velox9functions11LookupTableILNS1_8TypeKindE9EEESaIvELN9__gnu_cxx12_Lock_policyE2EE = linkonce_odr constant { ptr, ptr, ptr } { ptr getelementptr inbounds (ptr, ptr @_ZTVN10__cxxabiv120__si_class_type_infoE, i64 2), ptr @_ZTSSt23_Sp_counted_ptr_inplaceIN8facebook5velox9functions11LookupTableILNS1_8TypeKindE9EEESaIvELN9__gnu_cxx12_Lock_policyE2EE, ptr @_ZTISt16_Sp_counted_baseILN9__gnu_cxx12_Lock_policyE2EE }, comdat, align 8
@_ZTVN8facebook5velox9functions11LookupTableILNS0_8TypeKindE9EEE = linkonce_odr unnamed_addr constant { [4 x ptr] } { [4 x ptr] [ptr null, ptr @_ZTIN8facebook5velox9functions11LookupTableILNS0_8TypeKindE9EEE, ptr @_ZN8facebook5velox9functions11LookupTableILNS0_8TypeKindE9EED2Ev, ptr @_ZN8facebook5velox9functions11LookupTableILNS0_8TypeKindE9EED0Ev] }, comdat, align 8
@_ZTSN8facebook5velox9functions11LookupTableILNS0_8TypeKindE9EEE = linkonce_odr constant [60 x i8] c"N8facebook5velox9functions11LookupTableILNS0_8TypeKindE9EEE\00", comdat, align 1
@_ZTIN8facebook5velox9functions11LookupTableILNS0_8TypeKindE9EEE = linkonce_odr constant { ptr, ptr, ptr } { ptr getelementptr inbounds (ptr, ptr @_ZTVN10__cxxabiv120__si_class_type_infoE, i64 2), ptr @_ZTSN8facebook5velox9functions11LookupTableILNS0_8TypeKindE9EEE, ptr @_ZTIN8facebook5velox9functions15LookupTableBaseE }, comdat, align 8
@_ZZN5folly3f146detail8F14TableINS1_21VectorContainerPolicyIiNS_10F14FastMapIN8facebook5velox9TimestampEiNS_23HeterogeneousAccessHashIS7_vEENS_26HeterogeneousAccessEqualToIS7_vEENS6_6memory12StlAllocatorISt4pairIKS7_iEEEEEvvNSD_ISE_IKiSI_EEESt17integral_constantIbLb1EEEEE10rehashImplEmmmmmE30__folly_detail_safe_assert_arg_0 = linkonce_odr constant %"struct.folly::detail::safe_assert_arg" { ptr @.str.4, ptr @.str.5, i32 1923, ptr @.str.3, ptr @_ZN5folly6detail21safe_assert_msg_typesINS0_22safe_assert_msg_type_sIJLNS0_20safe_assert_msg_typeE1EEEEE5valueE }, comdat, align 8
@_ZZN5folly3f146detail8F14TableINS1_21VectorContainerPolicyIN8facebook5velox9TimestampEivvNS5_6memory12StlAllocatorISt4pairIKS6_iEEESt17integral_constantIbLb1EEEEE10rehashImplEmmmmmE30__folly_detail_safe_assert_arg_0 = linkonce_odr constant %"struct.folly::detail::safe_assert_arg" { ptr @.str.4, ptr @.str.5, i32 1923, ptr @.str.3, ptr @_ZN5folly6detail21safe_assert_msg_typesINS0_22safe_assert_msg_type_sIJLNS0_20safe_assert_msg_typeE1EEEEE5valueE }, comdat, align 8
@.str.12 = private unnamed_addr constant [16 x i8] c"vector::reserve\00", align 1

; Function Attrs: mustprogress uwtable
define void @_ZNK8facebook5velox9functions12MapSubscript8applyMapERKNS0_17SelectivityVectorERSt6vectorISt10shared_ptrINS0_10BaseVectorEESaIS9_EERNS0_4exec7EvalCtxE(ptr noalias sret(%"class.std::shared_ptr") align 8 %agg.result, ptr noundef nonnull align 8 dereferenceable(40) %this, ptr noundef nonnull align 8 dereferenceable(38) %rows, ptr nocapture noundef nonnull readonly align 8 dereferenceable(24) %args, ptr noundef nonnull align 8 dereferenceable(104) %context) local_unnamed_addr #0 align 2 personality ptr @__gxx_personality_v0 {
entry:
  %agg.tmp24.i.i.i.i = alloca %class.anon.1043, align 8
  %agg.tmp3.i.i.i.i = alloca %class.anon.1042, align 8
  %agg.tmp93.i = alloca %class.anon.1039, align 8
  %indices.i = alloca %"class.boost::intrusive_ptr", align 8
  %rawIndices.i = alloca ptr, align 8
  %nullsBuilder.i = alloca %"struct.facebook::velox::NullsBuilder", align 8
  %mapHolder.i = alloca %"class.facebook::velox::exec::LocalDecodedVector", align 8
  %mapIndices.i = alloca ptr, align 8
  %mapKeys.i = alloca %"class.std::shared_ptr", align 8
  %allElementRows.i = alloca %"class.facebook::velox::exec::LocalSelectivityVector", align 8
  %mapKeysHolder.i = alloca %"class.facebook::velox::exec::LocalDecodedVector", align 8
  %mapKeysBase.i = alloca ptr, align 8
  %indexHolder.i = alloca %"class.facebook::velox::exec::LocalDecodedVector", align 8
  %searchBase.i = alloca ptr, align 8
  %searchIndices.i = alloca ptr, align 8
  %sortedKeyIndices.i = alloca %"class.std::vector.59", align 8
  %sortedKeys.i = alloca %"class.std::vector.1033", align 8
  %agg.tmp73.i = alloca %"class.boost::intrusive_ptr", align 8
  %agg.tmp75.i = alloca %"class.boost::intrusive_ptr", align 8
  %agg.tmp79.i = alloca %"class.std::shared_ptr", align 16
  %triggerCaching = alloca i8, align 1
  %ref.tmp = alloca %class.anon, align 8
  %0 = load ptr, ptr %args, align 8
  %add.ptr.i = getelementptr inbounds %"class.std::shared_ptr", ptr %0, i64 1
  %1 = load ptr, ptr %0, align 8
  %type_.i = getelementptr inbounds %"class.facebook::velox::BaseVector", ptr %1, i64 0, i32 1
  %2 = load ptr, ptr %type_.i, align 8
  %vtable = load ptr, ptr %2, align 8
  %vfn = getelementptr inbounds ptr, ptr %vtable, i64 3
  %3 = load ptr, ptr %vfn, align 8
  %call6 = tail call noundef nonnull align 8 dereferenceable(16) ptr %3(ptr noundef nonnull align 8 dereferenceable(8) %2, i32 noundef 0)
  %4 = load ptr, ptr %call6, align 8
  %5 = load ptr, ptr %add.ptr.i, align 8
  %type_.i10 = getelementptr inbounds %"class.facebook::velox::BaseVector", ptr %5, i64 0, i32 1
  %6 = load ptr, ptr %type_.i10, align 8
  %vtable11 = load ptr, ptr %4, align 8
  %vfn12 = getelementptr inbounds ptr, ptr %vtable11, i64 11
  %7 = load ptr, ptr %vfn12, align 8
  %call13 = tail call noundef zeroext i1 %7(ptr noundef nonnull align 8 dereferenceable(17) %4, ptr noundef nonnull align 8 dereferenceable(17) %6)
  br i1 %call13, label %if.end, label %if.then

if.then:                                          ; preds = %entry
  tail call void @llvm.trap()
  unreachable

if.end:                                           ; preds = %entry
  %8 = load ptr, ptr %add.ptr.i, align 8
  %type_.i11 = getelementptr inbounds %"class.facebook::velox::BaseVector", ptr %8, i64 0, i32 1
  %9 = load ptr, ptr %type_.i11, align 8
  %vtable17 = load ptr, ptr %9, align 8
  %vfn18 = getelementptr inbounds ptr, ptr %vtable17, i64 4
  %10 = load ptr, ptr %vfn18, align 8
  %call19 = tail call noundef zeroext i1 %10(ptr noundef nonnull align 8 dereferenceable(17) %9)
  br i1 %call19, label %if.then20, label %if.else

if.then20:                                        ; preds = %if.end
  %call21 = tail call noundef zeroext i1 @_ZNK8facebook5velox9functions12MapSubscript20shouldTriggerCachingERKSt10shared_ptrINS0_10BaseVectorEE(ptr noundef nonnull align 8 dereferenceable(40) %this, ptr noundef nonnull align 8 dereferenceable(16) %0)
  %frombool = zext i1 %call21 to i8
  store i8 %frombool, ptr %triggerCaching, align 1
  store ptr %add.ptr.i, ptr %ref.tmp, align 8
  %11 = getelementptr inbounds %class.anon, ptr %ref.tmp, i64 0, i32 1
  store ptr %triggerCaching, ptr %11, align 8
  %12 = getelementptr inbounds %class.anon, ptr %ref.tmp, i64 0, i32 2
  store ptr %this, ptr %12, align 8
  %13 = getelementptr inbounds %class.anon, ptr %ref.tmp, i64 0, i32 3
  store ptr %rows, ptr %13, align 8
  %14 = getelementptr inbounds %class.anon, ptr %ref.tmp, i64 0, i32 4
  store ptr %0, ptr %14, align 8
  %15 = getelementptr inbounds %class.anon, ptr %ref.tmp, i64 0, i32 5
  store ptr %context, ptr %15, align 8
  call fastcc void @"_ZZNK8facebook5velox9functions12MapSubscript8applyMapERKNS0_17SelectivityVectorERSt6vectorISt10shared_ptrINS0_10BaseVectorEESaIS9_EERNS0_4exec7EvalCtxEENK3$_0clEv"(ptr noalias align 8 %agg.result, ptr noundef nonnull align 8 dereferenceable(48) %ref.tmp)
  br label %return

if.else:                                          ; preds = %if.end
  call void @llvm.lifetime.start.p0(i64 8, ptr nonnull %indices.i)
  call void @llvm.lifetime.start.p0(i64 8, ptr nonnull %rawIndices.i)
  call void @llvm.lifetime.start.p0(i64 32, ptr nonnull %nullsBuilder.i)
  call void @llvm.lifetime.start.p0(i64 16, ptr nonnull %mapHolder.i)
  call void @llvm.lifetime.start.p0(i64 8, ptr nonnull %mapIndices.i)
  call void @llvm.lifetime.start.p0(i64 16, ptr nonnull %mapKeys.i)
  call void @llvm.lifetime.start.p0(i64 16, ptr nonnull %allElementRows.i)
  call void @llvm.lifetime.start.p0(i64 16, ptr nonnull %mapKeysHolder.i)
  call void @llvm.lifetime.start.p0(i64 8, ptr nonnull %mapKeysBase.i)
  call void @llvm.lifetime.start.p0(i64 16, ptr nonnull %indexHolder.i)
  call void @llvm.lifetime.start.p0(i64 8, ptr nonnull %searchBase.i)
  call void @llvm.lifetime.start.p0(i64 8, ptr nonnull %searchIndices.i)
  call void @llvm.lifetime.start.p0(i64 24, ptr nonnull %sortedKeyIndices.i)
  call void @llvm.lifetime.start.p0(i64 24, ptr nonnull %sortedKeys.i)
  call void @llvm.lifetime.start.p0(i64 8, ptr nonnull %agg.tmp73.i)
  call void @llvm.lifetime.start.p0(i64 8, ptr nonnull %agg.tmp75.i)
  call void @llvm.lifetime.start.p0(i64 16, ptr nonnull %agg.tmp79.i)
  %16 = load ptr, ptr %context, align 8, !noalias !4
  %17 = load ptr, ptr %16, align 8, !noalias !4
  %end_.i.i = getelementptr inbounds %"class.facebook::velox::SelectivityVector", ptr %rows, i64 0, i32 3
  %18 = load i32, ptr %end_.i.i, align 8, !noalias !4
  tail call void @llvm.experimental.noalias.scope.decl(metadata !7)
  tail call void @llvm.experimental.noalias.scope.decl(metadata !10)
  %19 = icmp slt i32 %18, 0
  br i1 %19, label %if.then.i.i.i.i, label %_ZN5boost13intrusive_ptrIN8facebook5velox6BufferEEC2EPS3_b.exit.i.i.i

if.then.i.i.i.i:                                  ; preds = %if.else
  tail call void @llvm.trap()
  unreachable

_ZN5boost13intrusive_ptrIN8facebook5velox6BufferEEC2EPS3_b.exit.i.i.i: ; preds = %if.else
  %conv.i.i = zext nneg i32 %18 to i64
  %20 = shl nuw nsw i64 %conv.i.i, 2
  %21 = add nuw nsw i64 %20, 96
  %vtable.i.i.i = load ptr, ptr %17, align 8, !noalias !13
  %vfn.i.i.i = getelementptr inbounds ptr, ptr %vtable.i.i.i, i64 24
  %22 = load ptr, ptr %vfn.i.i.i, align 8, !noalias !13
  %call3.i.i.i = tail call noundef i64 %22(ptr noundef nonnull align 8 dereferenceable(168) %17, i64 noundef %21), !noalias !13
  %vtable4.i.i.i = load ptr, ptr %17, align 8, !noalias !13
  %vfn5.i.i.i = getelementptr inbounds ptr, ptr %vtable4.i.i.i, i64 13
  %23 = load ptr, ptr %vfn5.i.i.i, align 8, !noalias !13
  %call6.i.i.i = tail call noundef ptr %23(ptr noundef nonnull align 8 dereferenceable(168) %17, i64 noundef %call3.i.i.i), !noalias !13
  %sub.i.i.i = add i64 %call3.i.i.i, -96
  %add.ptr.i.i.i.i = getelementptr inbounds i8, ptr %call6.i.i.i, i64 64
  %pool_.i.i.i.i.i = getelementptr inbounds %"class.facebook::velox::Buffer", ptr %call6.i.i.i, i64 0, i32 1
  store ptr %17, ptr %pool_.i.i.i.i.i, align 8, !noalias !13
  %data_.i.i.i.i.i = getelementptr inbounds %"class.facebook::velox::Buffer", ptr %call6.i.i.i, i64 0, i32 2
  store ptr %add.ptr.i.i.i.i, ptr %data_.i.i.i.i.i, align 8, !noalias !13
  %size_.i.i.i.i.i = getelementptr inbounds %"class.facebook::velox::Buffer", ptr %call6.i.i.i, i64 0, i32 3
  %capacity_.i.i.i.i.i = getelementptr inbounds %"class.facebook::velox::Buffer", ptr %call6.i.i.i, i64 0, i32 4
  store i64 %sub.i.i.i, ptr %capacity_.i.i.i.i.i, align 8, !noalias !13
  %referenceCount_.i.i.i.i.i = getelementptr inbounds %"class.facebook::velox::Buffer", ptr %call6.i.i.i, i64 0, i32 5
  store i32 0, ptr %referenceCount_.i.i.i.i.i, align 4, !noalias !13
  %podType_.i.i.i.i.i = getelementptr inbounds %"class.facebook::velox::Buffer", ptr %call6.i.i.i, i64 0, i32 6
  store i8 1, ptr %podType_.i.i.i.i.i, align 4, !noalias !13
  %padding_.i.i.i.i.i = getelementptr inbounds %"class.facebook::velox::Buffer", ptr %call6.i.i.i, i64 0, i32 7
  tail call void @llvm.memset.p0.i64(ptr noundef nonnull align 8 dereferenceable(16) %padding_.i.i.i.i.i, i8 -1, i64 16, i1 false), !noalias !13
  store ptr getelementptr inbounds ({ [11 x ptr] }, ptr @_ZTVN8facebook5velox13AlignedBufferE, i64 0, inrange i32 0, i64 2), ptr %call6.i.i.i, align 8, !noalias !13
  store i64 %20, ptr %size_.i.i.i.i.i, align 8, !noalias !13
  store ptr %call6.i.i.i, ptr %indices.i, align 8, !alias.scope !13, !noalias !4
  %24 = atomicrmw add ptr %referenceCount_.i.i.i.i.i, i32 1 seq_cst, align 4, !noalias !13
  %25 = load i64, ptr %capacity_.i.i.i.i.i, align 8, !noalias !13
  %cmp.not.i9.i.i.i = icmp ult i64 %25, %20
  br i1 %cmp.not.i9.i.i.i, label %if.then.i11.i.i.i, label %if.end.i.i.i.i

if.then.i11.i.i.i:                                ; preds = %_ZN5boost13intrusive_ptrIN8facebook5velox6BufferEEC2EPS3_b.exit.i.i.i
  tail call void @llvm.trap()
  unreachable

if.end.i.i.i.i:                                   ; preds = %_ZN5boost13intrusive_ptrIN8facebook5velox6BufferEEC2EPS3_b.exit.i.i.i
  %cmp2.not.i.not.i.i.i = icmp eq i32 %18, 0
  br i1 %cmp2.not.i.not.i.i.i, label %_ZN8facebook5velox15allocateIndicesEiPNS0_6memory10MemoryPoolE.exit.i, label %if.then6.i.i.i.i

if.then6.i.i.i.i:                                 ; preds = %if.end.i.i.i.i
  %vtable.i.i.i.i.i = load ptr, ptr %call6.i.i.i, align 8, !noalias !13
  %vfn.i.i.i.i.i = getelementptr inbounds ptr, ptr %vtable.i.i.i.i.i, i64 3
  %26 = load ptr, ptr %vfn.i.i.i.i.i, align 8, !noalias !13
  %call.i.i12.i.i.i = invoke noundef zeroext i1 %26(ptr noundef nonnull align 8 dereferenceable(64) %call6.i.i.i)
          to label %call.i.i.noexc.i.i.i unwind label %lpad.i.i.i, !noalias !13

call.i.i.noexc.i.i.i:                             ; preds = %if.then6.i.i.i.i
  br i1 %call.i.i12.i.i.i, label %if.then.i.i.i.i.i, label %for.body.i.i.i.preheader.i.i.i.i

if.then.i.i.i.i.i:                                ; preds = %call.i.i.noexc.i.i.i
  tail call void @llvm.trap()
  unreachable

for.body.i.i.i.preheader.i.i.i.i:                 ; preds = %call.i.i.noexc.i.i.i
  %27 = load ptr, ptr %data_.i.i.i.i.i, align 8, !noalias !13
  tail call void @llvm.memset.p0.i64(ptr align 4 %27, i8 0, i64 %20, i1 false), !noalias !13
  br label %_ZN8facebook5velox15allocateIndicesEiPNS0_6memory10MemoryPoolE.exit.i

common.resume.i:                                  ; preds = %ehcleanup93.i, %lpad.i, %lpad.i.i.i
  %common.resume.op.i = phi { ptr, i32 } [ %28, %lpad.i.i.i ], [ %.pn27.pn.pn.pn.pn.pn.i, %ehcleanup93.i ], [ %86, %lpad.i ]
  call void @_ZN5boost13intrusive_ptrIN8facebook5velox6BufferEED2Ev(ptr noundef nonnull align 8 dereferenceable(8) %indices.i) #26
  resume { ptr, i32 } %common.resume.op.i

lpad.i.i.i:                                       ; preds = %if.then6.i.i.i.i
  %28 = landingpad { ptr, i32 }
          cleanup
  br label %common.resume.i

_ZN8facebook5velox15allocateIndicesEiPNS0_6memory10MemoryPoolE.exit.i: ; preds = %for.body.i.i.i.preheader.i.i.i.i, %if.end.i.i.i.i
  %29 = load ptr, ptr %indices.i, align 8, !noalias !4
  %vtable.i.i = load ptr, ptr %29, align 8
  %vfn.i.i = getelementptr inbounds ptr, ptr %vtable.i.i, i64 3
  %30 = load ptr, ptr %vfn.i.i, align 8
  %call.i38.i = invoke noundef zeroext i1 %30(ptr noundef nonnull align 8 dereferenceable(64) %29)
          to label %call.i.noexc.i unwind label %lpad.i

call.i.noexc.i:                                   ; preds = %_ZN8facebook5velox15allocateIndicesEiPNS0_6memory10MemoryPoolE.exit.i
  br i1 %call.i38.i, label %if.then.i.i, label %invoke.cont5.i

if.then.i.i:                                      ; preds = %call.i.noexc.i
  tail call void @llvm.trap()
  unreachable

invoke.cont5.i:                                   ; preds = %call.i.noexc.i
  %data_.i.i = getelementptr inbounds %"class.facebook::velox::Buffer", ptr %29, i64 0, i32 2
  %31 = load ptr, ptr %data_.i.i, align 8
  store ptr %31, ptr %rawIndices.i, align 8, !noalias !4
  %32 = load i32, ptr %end_.i.i, align 8, !noalias !4
  store i32 %32, ptr %nullsBuilder.i, align 8, !noalias !4
  %pool_.i.i = getelementptr inbounds %"struct.facebook::velox::NullsBuilder", ptr %nullsBuilder.i, i64 0, i32 1
  store ptr %17, ptr %pool_.i.i, align 8, !noalias !4
  %nulls_.i.i = getelementptr inbounds %"struct.facebook::velox::NullsBuilder", ptr %nullsBuilder.i, i64 0, i32 2
  call void @llvm.memset.p0.i64(ptr noundef nonnull align 8 dereferenceable(16) %nulls_.i.i, i8 0, i64 16, i1 false), !noalias !4
  %33 = load ptr, ptr %0, align 8, !noalias !4
  %34 = load ptr, ptr %context, align 8, !noalias !4
  store ptr %34, ptr %mapHolder.i, align 8, !noalias !4
  %vector_.i.i = getelementptr inbounds %"class.facebook::velox::exec::LocalDecodedVector", ptr %mapHolder.i, i64 0, i32 1
  store ptr null, ptr %vector_.i.i, align 8, !noalias !4
  %call2.i.i = invoke noundef ptr @_ZN8facebook5velox4exec18LocalDecodedVector3getEv(ptr noundef nonnull align 8 dereferenceable(16) %mapHolder.i)
          to label %invoke.cont.i.i unwind label %lpad.i.i

invoke.cont.i.i:                                  ; preds = %invoke.cont5.i
  invoke void @_ZN8facebook5velox13DecodedVector6decodeERKNS0_10BaseVectorEPKNS0_17SelectivityVectorEb(ptr noundef nonnull align 8 dereferenceable(120) %call2.i.i, ptr noundef nonnull align 8 dereferenceable(99) %33, ptr noundef nonnull %rows, i1 noundef zeroext true)
          to label %invoke.cont8.i unwind label %lpad.i.i

lpad.i.i:                                         ; preds = %invoke.cont.i.i, %invoke.cont5.i
  %35 = landingpad { ptr, i32 }
          cleanup
  call void @_ZNSt10unique_ptrIN8facebook5velox13DecodedVectorESt14default_deleteIS2_EED2Ev(ptr noundef nonnull align 8 dereferenceable(8) %vector_.i.i) #26
  br label %ehcleanup93.i

invoke.cont8.i:                                   ; preds = %invoke.cont.i.i
  %call11.i = invoke noundef ptr @_ZN8facebook5velox4exec18LocalDecodedVector3getEv(ptr noundef nonnull align 8 dereferenceable(16) %mapHolder.i)
          to label %invoke.cont10.i unwind label %lpad9.i

invoke.cont10.i:                                  ; preds = %invoke.cont8.i
  %baseVector_.i.i = getelementptr inbounds %"class.facebook::velox::DecodedVector", ptr %call11.i, i64 0, i32 5
  %36 = load ptr, ptr %baseVector_.i.i, align 8
  %37 = call noundef ptr @__dynamic_cast(ptr nonnull %36, ptr nonnull @_ZTIN8facebook5velox10BaseVectorE, ptr nonnull @_ZTIN8facebook5velox9MapVectorE, i64 0) #26
  %indices_.i.i = getelementptr inbounds %"class.facebook::velox::DecodedVector", ptr %call11.i, i64 0, i32 1
  %38 = load ptr, ptr %indices_.i.i, align 8
  %tobool.not.i.i = icmp eq ptr %38, null
  br i1 %tobool.not.i.i, label %if.then.i40.i, label %invoke.cont14.i

if.then.i40.i:                                    ; preds = %invoke.cont10.i
  invoke void @_ZN8facebook5velox13DecodedVector13fillInIndicesEv(ptr noundef nonnull align 8 dereferenceable(120) %call11.i)
          to label %.noexc.i unwind label %lpad9.i

.noexc.i:                                         ; preds = %if.then.i40.i
  %.pre.i.i = load ptr, ptr %indices_.i.i, align 8
  br label %invoke.cont14.i

invoke.cont14.i:                                  ; preds = %.noexc.i, %invoke.cont10.i
  %39 = phi ptr [ %.pre.i.i, %.noexc.i ], [ %38, %invoke.cont10.i ]
  store ptr %39, ptr %mapIndices.i, align 8, !noalias !4
  %keys_.i.i = getelementptr inbounds %"class.facebook::velox::MapVector", ptr %37, i64 0, i32 1
  %40 = load ptr, ptr %keys_.i.i, align 8
  store ptr %40, ptr %mapKeys.i, align 8, !noalias !4
  %_M_refcount.i.i.i = getelementptr inbounds %"class.std::__shared_ptr", ptr %mapKeys.i, i64 0, i32 1
  %_M_refcount3.i.i.i = getelementptr inbounds %"class.facebook::velox::MapVector", ptr %37, i64 0, i32 1, i32 0, i32 1
  %41 = load ptr, ptr %_M_refcount3.i.i.i, align 8
  store ptr %41, ptr %_M_refcount.i.i.i, align 8, !noalias !4
  %cmp.not.i.i.i.i = icmp eq ptr %41, null
  br i1 %cmp.not.i.i.i.i, label %_ZNSt10shared_ptrIN8facebook5velox10BaseVectorEEC2ERKS3_.exit.i, label %if.then.i.i.i41.i

if.then.i.i.i41.i:                                ; preds = %invoke.cont14.i
  %_M_use_count.i.i.i.i.i = getelementptr inbounds %"class.std::_Sp_counted_base", ptr %41, i64 0, i32 1
  %42 = load i8, ptr @__libc_single_threaded, align 1, !noalias !4
  %tobool.i.not.i.i.i.i.i = icmp eq i8 %42, 0
  br i1 %tobool.i.not.i.i.i.i.i, label %if.else.i.i.i.i.i.i, label %if.then.i.i.i.i.i.i

if.then.i.i.i.i.i.i:                              ; preds = %if.then.i.i.i41.i
  %43 = load i32, ptr %_M_use_count.i.i.i.i.i, align 4
  %add.i.i.i.i.i.i = add nsw i32 %43, 1
  store i32 %add.i.i.i.i.i.i, ptr %_M_use_count.i.i.i.i.i, align 4
  br label %_ZNSt10shared_ptrIN8facebook5velox10BaseVectorEEC2ERKS3_.exit.i

if.else.i.i.i.i.i.i:                              ; preds = %if.then.i.i.i41.i
  %44 = atomicrmw volatile add ptr %_M_use_count.i.i.i.i.i, i32 1 acq_rel, align 4
  %.pre.i = load ptr, ptr %mapKeys.i, align 8, !noalias !4
  br label %_ZNSt10shared_ptrIN8facebook5velox10BaseVectorEEC2ERKS3_.exit.i

_ZNSt10shared_ptrIN8facebook5velox10BaseVectorEEC2ERKS3_.exit.i: ; preds = %if.else.i.i.i.i.i.i, %if.then.i.i.i.i.i.i, %invoke.cont14.i
  %45 = phi ptr [ %40, %invoke.cont14.i ], [ %40, %if.then.i.i.i.i.i.i ], [ %.pre.i, %if.else.i.i.i.i.i.i ]
  %length_.i.i = getelementptr inbounds %"class.facebook::velox::BaseVector", ptr %45, i64 0, i32 8
  %46 = load i32, ptr %length_.i.i, align 8
  %47 = load ptr, ptr %context, align 8, !noalias !4
  store ptr %47, ptr %allElementRows.i, align 8, !noalias !4
  %vector_.i42.i = getelementptr inbounds %"class.facebook::velox::exec::LocalSelectivityVector", ptr %allElementRows.i, i64 0, i32 1
  invoke void @_ZN8facebook5velox4core7ExecCtx20getSelectivityVectorEi(ptr nonnull sret(%"class.std::unique_ptr.64") align 8 %vector_.i42.i, ptr noundef nonnull align 8 dereferenceable(80) %47, i32 noundef %46)
          to label %invoke.cont20.i unwind label %lpad19.i

invoke.cont20.i:                                  ; preds = %_ZNSt10shared_ptrIN8facebook5velox10BaseVectorEEC2ERKS3_.exit.i
  %48 = load ptr, ptr %vector_.i42.i, align 8, !noalias !4
  %49 = load ptr, ptr %48, align 8
  %size_.i.i = getelementptr inbounds %"class.facebook::velox::SelectivityVector", ptr %48, i64 0, i32 1
  %50 = load i32, ptr %size_.i.i, align 8
  %cmp.not.i.i.i = icmp sgt i32 %50, 0
  br i1 %cmp.not.i.i.i, label %if.end.i.i.i, label %invoke.cont23.i

if.end.i.i.i:                                     ; preds = %invoke.cont20.i
  %51 = and i32 %50, 2147483584
  %cmp15.not65.i.i.i = icmp eq i32 %51, 0
  br i1 %cmp15.not65.i.i.i, label %for.end.i.i.i, label %for.body.i.preheader.i.i

for.body.i.preheader.i.i:                         ; preds = %if.end.i.i.i
  %52 = or disjoint i32 %51, 1
  %umax.i.i = call i32 @llvm.umax.i32(i32 %52, i32 128)
  %53 = add nsw i32 %umax.i.i, -65
  %54 = lshr i32 %53, 3
  %55 = and i32 %54, 536870904
  %narrow.i.i = add nuw nsw i32 %55, 8
  %56 = zext nneg i32 %narrow.i.i to i64
  call void @llvm.memset.p0.i64(ptr noundef nonnull align 8 dereferenceable(1) %49, i8 -1, i64 %56, i1 false)
  br label %for.end.i.i.i

for.end.i.i.i:                                    ; preds = %for.body.i.preheader.i.i, %if.end.i.i.i
  %cmp18.not.i.i.i = icmp eq i32 %51, %50
  br i1 %cmp18.not.i.i.i, label %invoke.cont23.i, label %if.then19.i.i.i

if.then19.i.i.i:                                  ; preds = %for.end.i.i.i
  %div20.i.i.i = lshr i32 %50, 6
  %sub21.i.i.i = and i32 %50, 63
  %sh_prom.i44.i.i.i = zext nneg i32 %sub21.i.i.i to i64
  %notmask.i45.i.i.i = shl nsw i64 -1, %sh_prom.i44.i.i.i
  %sub.i46.i.i.i = xor i64 %notmask.i45.i.i.i, -1
  %idxprom.i49.i.i.i = zext nneg i32 %div20.i.i.i to i64
  %arrayidx.i50.i.i.i = getelementptr inbounds i64, ptr %49, i64 %idxprom.i49.i.i.i
  %57 = load i64, ptr %arrayidx.i50.i.i.i, align 8
  %or.i51.i.i.i = or i64 %57, %sub.i46.i.i.i
  store i64 %or.i51.i.i.i, ptr %arrayidx.i50.i.i.i, align 8
  br label %invoke.cont23.i

invoke.cont23.i:                                  ; preds = %if.then19.i.i.i, %for.end.i.i.i, %invoke.cont20.i
  %begin_.i.i = getelementptr inbounds %"class.facebook::velox::SelectivityVector", ptr %48, i64 0, i32 2
  store i32 0, ptr %begin_.i.i, align 4
  %58 = load i32, ptr %size_.i.i, align 8
  %end_.i45.i = getelementptr inbounds %"class.facebook::velox::SelectivityVector", ptr %48, i64 0, i32 3
  store i32 %58, ptr %end_.i45.i, align 8
  %allSelected_.i.i = getelementptr inbounds %"class.facebook::velox::SelectivityVector", ptr %48, i64 0, i32 4
  store i16 257, ptr %allSelected_.i.i, align 4
  %59 = load ptr, ptr %vector_.i42.i, align 8, !noalias !4
  %60 = load ptr, ptr %context, align 8, !noalias !4
  store ptr %60, ptr %mapKeysHolder.i, align 8, !noalias !4
  %vector_.i47.i = getelementptr inbounds %"class.facebook::velox::exec::LocalDecodedVector", ptr %mapKeysHolder.i, i64 0, i32 1
  store ptr null, ptr %vector_.i47.i, align 8, !noalias !4
  %call2.i48.i = invoke noundef ptr @_ZN8facebook5velox4exec18LocalDecodedVector3getEv(ptr noundef nonnull align 8 dereferenceable(16) %mapKeysHolder.i)
          to label %invoke.cont.i50.i unwind label %lpad.i49.i

invoke.cont.i50.i:                                ; preds = %invoke.cont23.i
  invoke void @_ZN8facebook5velox13DecodedVector6decodeERKNS0_10BaseVectorEPKNS0_17SelectivityVectorEb(ptr noundef nonnull align 8 dereferenceable(120) %call2.i48.i, ptr noundef nonnull align 8 dereferenceable(99) %45, ptr noundef nonnull %59, i1 noundef zeroext true)
          to label %invoke.cont26.i unwind label %lpad.i49.i

lpad.i49.i:                                       ; preds = %invoke.cont.i50.i, %invoke.cont23.i
  %61 = landingpad { ptr, i32 }
          cleanup
  call void @_ZNSt10unique_ptrIN8facebook5velox13DecodedVectorESt14default_deleteIS2_EED2Ev(ptr noundef nonnull align 8 dereferenceable(8) %vector_.i47.i) #26
  br label %ehcleanup87.i

invoke.cont26.i:                                  ; preds = %invoke.cont.i50.i
  %call29.i = invoke noundef ptr @_ZN8facebook5velox4exec18LocalDecodedVector3getEv(ptr noundef nonnull align 8 dereferenceable(16) %mapKeysHolder.i)
          to label %invoke.cont28.i unwind label %lpad27.i

invoke.cont28.i:                                  ; preds = %invoke.cont26.i
  %baseVector_.i53.i = getelementptr inbounds %"class.facebook::velox::DecodedVector", ptr %call29.i, i64 0, i32 5
  %62 = load ptr, ptr %baseVector_.i53.i, align 8
  store ptr %62, ptr %mapKeysBase.i, align 8, !noalias !4
  %indices_.i54.i = getelementptr inbounds %"class.facebook::velox::DecodedVector", ptr %call29.i, i64 0, i32 1
  %63 = load ptr, ptr %indices_.i54.i, align 8
  %tobool.not.i55.i = icmp eq ptr %63, null
  br i1 %tobool.not.i55.i, label %if.then.i56.i, label %invoke.cont31.i

if.then.i56.i:                                    ; preds = %invoke.cont28.i
  invoke void @_ZN8facebook5velox13DecodedVector13fillInIndicesEv(ptr noundef nonnull align 8 dereferenceable(120) %call29.i)
          to label %.noexc58.i unwind label %lpad27.i

.noexc58.i:                                       ; preds = %if.then.i56.i
  %.pre.i57.i = load ptr, ptr %indices_.i54.i, align 8
  br label %invoke.cont31.i

invoke.cont31.i:                                  ; preds = %.noexc58.i, %invoke.cont28.i
  %64 = phi ptr [ %.pre.i57.i, %.noexc58.i ], [ %63, %invoke.cont28.i ]
  %65 = load ptr, ptr %add.ptr.i, align 8, !noalias !4
  %66 = load ptr, ptr %context, align 8, !noalias !4
  store ptr %66, ptr %indexHolder.i, align 8, !noalias !4
  %vector_.i60.i = getelementptr inbounds %"class.facebook::velox::exec::LocalDecodedVector", ptr %indexHolder.i, i64 0, i32 1
  store ptr null, ptr %vector_.i60.i, align 8, !noalias !4
  %call2.i61.i = invoke noundef ptr @_ZN8facebook5velox4exec18LocalDecodedVector3getEv(ptr noundef nonnull align 8 dereferenceable(16) %indexHolder.i)
          to label %invoke.cont.i63.i unwind label %lpad.i62.i

invoke.cont.i63.i:                                ; preds = %invoke.cont31.i
  invoke void @_ZN8facebook5velox13DecodedVector6decodeERKNS0_10BaseVectorEPKNS0_17SelectivityVectorEb(ptr noundef nonnull align 8 dereferenceable(120) %call2.i61.i, ptr noundef nonnull align 8 dereferenceable(99) %65, ptr noundef nonnull %rows, i1 noundef zeroext true)
          to label %invoke.cont34.i unwind label %lpad.i62.i

lpad.i62.i:                                       ; preds = %invoke.cont.i63.i, %invoke.cont31.i
  %67 = landingpad { ptr, i32 }
          cleanup
  call void @_ZNSt10unique_ptrIN8facebook5velox13DecodedVectorESt14default_deleteIS2_EED2Ev(ptr noundef nonnull align 8 dereferenceable(8) %vector_.i60.i) #26
  br label %ehcleanup85.i

invoke.cont34.i:                                  ; preds = %invoke.cont.i63.i
  %call37.i = invoke noundef ptr @_ZN8facebook5velox4exec18LocalDecodedVector3getEv(ptr noundef nonnull align 8 dereferenceable(16) %indexHolder.i)
          to label %invoke.cont36.i unwind label %lpad35.loopexit.split-lp.loopexit.split-lp.loopexit.split-lp.loopexit.split-lp.loopexit.split-lp.loopexit.split-lp.loopexit.split-lp.loopexit.split-lp.loopexit.split-lp.loopexit.split-lp.loopexit.split-lp.loopexit.split-lp.i

invoke.cont36.i:                                  ; preds = %invoke.cont34.i
  %baseVector_.i66.i = getelementptr inbounds %"class.facebook::velox::DecodedVector", ptr %call37.i, i64 0, i32 5
  %68 = load ptr, ptr %baseVector_.i66.i, align 8
  store ptr %68, ptr %searchBase.i, align 8, !noalias !4
  %indices_.i67.i = getelementptr inbounds %"class.facebook::velox::DecodedVector", ptr %call37.i, i64 0, i32 1
  %69 = load ptr, ptr %indices_.i67.i, align 8
  %tobool.not.i68.i = icmp eq ptr %69, null
  br i1 %tobool.not.i68.i, label %if.then.i69.i, label %invoke.cont39.i

if.then.i69.i:                                    ; preds = %invoke.cont36.i
  invoke void @_ZN8facebook5velox13DecodedVector13fillInIndicesEv(ptr noundef nonnull align 8 dereferenceable(120) %call37.i)
          to label %.noexc71.i unwind label %lpad35.loopexit.split-lp.loopexit.split-lp.loopexit.split-lp.loopexit.split-lp.loopexit.split-lp.loopexit.split-lp.loopexit.split-lp.loopexit.split-lp.loopexit.split-lp.loopexit.split-lp.loopexit.split-lp.loopexit.split-lp.i

.noexc71.i:                                       ; preds = %if.then.i69.i
  %.pre.i70.i = load ptr, ptr %indices_.i67.i, align 8
  br label %invoke.cont39.i

invoke.cont39.i:                                  ; preds = %.noexc71.i, %invoke.cont36.i
  %70 = phi ptr [ %.pre.i70.i, %.noexc71.i ], [ %69, %invoke.cont36.i ]
  store ptr %70, ptr %searchIndices.i, align 8, !noalias !4
  %rawSizes_.i.i = getelementptr inbounds %"struct.facebook::velox::ArrayVectorBase", ptr %37, i64 0, i32 4
  %71 = load ptr, ptr %rawSizes_.i.i, align 8
  %rawOffsets_.i.i = getelementptr inbounds %"struct.facebook::velox::ArrayVectorBase", ptr %37, i64 0, i32 2
  %72 = load ptr, ptr %rawOffsets_.i.i, align 8
  %length_.i73.i = getelementptr inbounds %"class.facebook::velox::BaseVector", ptr %37, i64 0, i32 8
  %73 = load i32, ptr %length_.i73.i, align 8
  %cmp.i = icmp eq i32 %73, 1
  br i1 %cmp.i, label %if.then.i, label %if.else.i

if.then.i:                                        ; preds = %invoke.cont39.i
  invoke void @_ZNK8facebook5velox9MapVector16sortedKeyIndicesEi(ptr nonnull sret(%"class.std::vector.59") align 8 %sortedKeyIndices.i, ptr noundef nonnull align 8 dereferenceable(169) %37, i32 noundef 0)
          to label %invoke.cont44.i unwind label %lpad35.loopexit.split-lp.loopexit.split-lp.loopexit.split-lp.loopexit.split-lp.loopexit.split-lp.loopexit.split-lp.loopexit.split-lp.loopexit.split-lp.loopexit.split-lp.loopexit.split-lp.loopexit.split-lp.loopexit.split-lp.i

invoke.cont44.i:                                  ; preds = %if.then.i
  call void @llvm.memset.p0.i64(ptr noundef nonnull align 8 dereferenceable(24) %sortedKeys.i, i8 0, i64 24, i1 false), !noalias !4
  %_M_finish.i.i = getelementptr inbounds %"struct.std::_Vector_base<int, std::allocator<int>>::_Vector_impl_data", ptr %sortedKeyIndices.i, i64 0, i32 1
  %74 = load ptr, ptr %_M_finish.i.i, align 8, !noalias !4
  %75 = load ptr, ptr %sortedKeyIndices.i, align 8, !noalias !4
  %sub.ptr.lhs.cast.i.i = ptrtoint ptr %74 to i64
  %sub.ptr.rhs.cast.i.i = ptrtoint ptr %75 to i64
  %sub.ptr.sub.i.i = sub i64 %sub.ptr.lhs.cast.i.i, %sub.ptr.rhs.cast.i.i
  %sub.ptr.div.i.i = ashr exact i64 %sub.ptr.sub.i.i, 2
  %cmp.i.i = icmp ugt i64 %sub.ptr.div.i.i, 576460752303423487
  br i1 %cmp.i.i, label %if.then.i.i.i83.invoke.i, label %if.end.i.i

if.end.i.i:                                       ; preds = %invoke.cont44.i
  %76 = getelementptr inbounds i8, ptr %sortedKeys.i, i64 16
  %cmp3.i.not.i = icmp eq ptr %74, %75
  br i1 %cmp3.i.not.i, label %for.end.i, label %_ZNSt12_Vector_baseIN8facebook5velox9functions12_GLOBAL__N_16MapKeyESaIS4_EE11_M_allocateEm.exit.i.i

_ZNSt12_Vector_baseIN8facebook5velox9functions12_GLOBAL__N_16MapKeyESaIS4_EE11_M_allocateEm.exit.i.i: ; preds = %if.end.i.i
  %mul.i.i.i.i.i = shl nuw nsw i64 %sub.ptr.sub.i.i, 2
  %call5.i.i.i.i76.i = invoke noalias noundef nonnull ptr @_Znwm(i64 noundef %mul.i.i.i.i.i) #27
          to label %for.body.lr.ph.i unwind label %lpad46.loopexit.split-lp.loopexit.split-lp.loopexit.split-lp.loopexit.split-lp.loopexit.split-lp.loopexit.split-lp.loopexit.split-lp.loopexit.split-lp.i

for.body.lr.ph.i:                                 ; preds = %_ZNSt12_Vector_baseIN8facebook5velox9functions12_GLOBAL__N_16MapKeyESaIS4_EE11_M_allocateEm.exit.i.i
  %77 = getelementptr inbounds i8, ptr %sortedKeys.i, i64 8
  store ptr %call5.i.i.i.i76.i, ptr %sortedKeys.i, align 8, !noalias !4
  store ptr %call5.i.i.i.i76.i, ptr %77, align 8, !noalias !4
  %add.ptr21.i.i = getelementptr inbounds %"struct.facebook::velox::functions::(anonymous namespace)::MapKey", ptr %call5.i.i.i.i76.i, i64 %sub.ptr.div.i.i
  store ptr %add.ptr21.i.i, ptr %76, align 8, !noalias !4
  br label %for.body.i

for.body.i:                                       ; preds = %for.inc.i, %for.body.lr.ph.i
  %78 = phi ptr [ %call5.i.i.i.i76.i, %for.body.lr.ph.i ], [ %85, %for.inc.i ]
  %__begin4.sroa.0.0477.i = phi ptr [ %75, %for.body.lr.ph.i ], [ %incdec.ptr.i86.i, %for.inc.i ]
  %79 = load ptr, ptr %mapKeysBase.i, align 8, !noalias !4
  %80 = load i32, ptr %__begin4.sroa.0.0477.i, align 4
  %idxprom.i = sext i32 %80 to i64
  %arrayidx.i = getelementptr inbounds i32, ptr %64, i64 %idxprom.i
  %81 = load i32, ptr %arrayidx.i, align 4
  %82 = load ptr, ptr %76, align 8, !noalias !4
  %cmp.not.i.i = icmp eq ptr %78, %82
  br i1 %cmp.not.i.i, label %if.else.i.i, label %if.then.i80.i

if.then.i80.i:                                    ; preds = %for.body.i
  store ptr %79, ptr %78, align 8
  %ref.tmp.sroa.3.0..sroa_idx.i = getelementptr inbounds i8, ptr %78, i64 8
  store i32 %81, ptr %ref.tmp.sroa.3.0..sroa_idx.i, align 8
  %ref.tmp.sroa.4.0..sroa_idx.i = getelementptr inbounds i8, ptr %78, i64 12
  store i32 %80, ptr %ref.tmp.sroa.4.0..sroa_idx.i, align 4
  %83 = load ptr, ptr %77, align 8, !noalias !4
  %incdec.ptr.i.i = getelementptr inbounds %"struct.facebook::velox::functions::(anonymous namespace)::MapKey", ptr %83, i64 1
  store ptr %incdec.ptr.i.i, ptr %77, align 8, !noalias !4
  br label %for.inc.i

if.else.i.i:                                      ; preds = %for.body.i
  %this.val.i.i.i = load ptr, ptr %sortedKeys.i, align 8, !noalias !4
  %sub.ptr.lhs.cast.i.i.i.i.i = ptrtoint ptr %78 to i64
  %sub.ptr.rhs.cast.i.i.i.i.i = ptrtoint ptr %this.val.i.i.i to i64
  %sub.ptr.sub.i.i.i.i.i = sub i64 %sub.ptr.lhs.cast.i.i.i.i.i, %sub.ptr.rhs.cast.i.i.i.i.i
  %cmp.i.i.i.i = icmp eq i64 %sub.ptr.sub.i.i.i.i.i, 9223372036854775792
  br i1 %cmp.i.i.i.i, label %if.then.i.i.i83.invoke.i, label %_ZNKSt6vectorIN8facebook5velox9functions12_GLOBAL__N_16MapKeyESaIS4_EE12_M_check_lenEmPKc.exit.i.i.i

if.then.i.i.i83.invoke.i:                         ; preds = %if.else.i.i, %invoke.cont44.i
  %84 = phi ptr [ @.str.12, %invoke.cont44.i ], [ @.str.11, %if.else.i.i ]
  invoke void @_ZSt20__throw_length_errorPKc(ptr noundef nonnull %84) #28
          to label %if.then.i.i.i83.cont.i unwind label %lpad46.loopexit.split-lp.loopexit.split-lp.loopexit.split-lp.loopexit.split-lp.loopexit.split-lp.loopexit.split-lp.loopexit.split-lp.loopexit.split-lp.i

if.then.i.i.i83.cont.i:                           ; preds = %if.then.i.i.i83.invoke.i
  unreachable

_ZNKSt6vectorIN8facebook5velox9functions12_GLOBAL__N_16MapKeyESaIS4_EE12_M_check_lenEmPKc.exit.i.i.i: ; preds = %if.else.i.i
  %sub.ptr.div.i.i.i.i.i = ashr exact i64 %sub.ptr.sub.i.i.i.i.i, 4
  %cmp.i.i.i.i.i = icmp eq ptr %78, %this.val.i.i.i
  %.sroa.speculated.i.i.i.i = select i1 %cmp.i.i.i.i.i, i64 1, i64 %sub.ptr.div.i.i.i.i.i
  %add.i.i.i.i = add nsw i64 %.sroa.speculated.i.i.i.i, %sub.ptr.div.i.i.i.i.i
  %cmp7.i.i.i.i = icmp ult i64 %add.i.i.i.i, %sub.ptr.div.i.i.i.i.i
  %cmp9.i.i.i.i = icmp ugt i64 %add.i.i.i.i, 576460752303423487
  %or.cond.i.i.i.i = or i1 %cmp7.i.i.i.i, %cmp9.i.i.i.i
  %cond.i.i.i.i = select i1 %or.cond.i.i.i.i, i64 576460752303423487, i64 %add.i.i.i.i
  %cmp.not.i.i.i82.i = icmp eq i64 %cond.i.i.i.i, 0
  br i1 %cmp.not.i.i.i82.i, label %_ZNSt12_Vector_baseIN8facebook5velox9functions12_GLOBAL__N_16MapKeyESaIS4_EE11_M_allocateEm.exit.i.i.i, label %_ZNSt16allocator_traitsISaIN8facebook5velox9functions12_GLOBAL__N_16MapKeyEEE8allocateERS5_m.exit.i.i.i.i

_ZNSt16allocator_traitsISaIN8facebook5velox9functions12_GLOBAL__N_16MapKeyEEE8allocateERS5_m.exit.i.i.i.i: ; preds = %_ZNKSt6vectorIN8facebook5velox9functions12_GLOBAL__N_16MapKeyESaIS4_EE12_M_check_lenEmPKc.exit.i.i.i
  %mul.i.i.i.i.i.i = shl nuw nsw i64 %cond.i.i.i.i, 4
  %call5.i.i.i.i.i85.i = invoke noalias noundef nonnull ptr @_Znwm(i64 noundef %mul.i.i.i.i.i.i) #27
          to label %_ZNSt12_Vector_baseIN8facebook5velox9functions12_GLOBAL__N_16MapKeyESaIS4_EE11_M_allocateEm.exit.i.i.i unwind label %lpad46.loopexit.split-lp.loopexit.split-lp.loopexit.split-lp.loopexit.split-lp.loopexit.split-lp.loopexit.split-lp.loopexit.split-lp.loopexit.i

_ZNSt12_Vector_baseIN8facebook5velox9functions12_GLOBAL__N_16MapKeyESaIS4_EE11_M_allocateEm.exit.i.i.i: ; preds = %_ZNSt16allocator_traitsISaIN8facebook5velox9functions12_GLOBAL__N_16MapKeyEEE8allocateERS5_m.exit.i.i.i.i, %_ZNKSt6vectorIN8facebook5velox9functions12_GLOBAL__N_16MapKeyESaIS4_EE12_M_check_lenEmPKc.exit.i.i.i
  %cond.i12.i.i.i = phi ptr [ null, %_ZNKSt6vectorIN8facebook5velox9functions12_GLOBAL__N_16MapKeyESaIS4_EE12_M_check_lenEmPKc.exit.i.i.i ], [ %call5.i.i.i.i.i85.i, %_ZNSt16allocator_traitsISaIN8facebook5velox9functions12_GLOBAL__N_16MapKeyEEE8allocateERS5_m.exit.i.i.i.i ]
  %add.ptr.i.i.i = getelementptr inbounds %"struct.facebook::velox::functions::(anonymous namespace)::MapKey", ptr %cond.i12.i.i.i, i64 %sub.ptr.div.i.i.i.i.i
  store ptr %79, ptr %add.ptr.i.i.i, align 8
  %ref.tmp.sroa.3.0.add.ptr.i.i.sroa_idx.i = getelementptr inbounds i8, ptr %add.ptr.i.i.i, i64 8
  store i32 %81, ptr %ref.tmp.sroa.3.0.add.ptr.i.i.sroa_idx.i, align 8
  %ref.tmp.sroa.4.0.add.ptr.i.i.sroa_idx.i = getelementptr inbounds i8, ptr %add.ptr.i.i.i, i64 12
  store i32 %80, ptr %ref.tmp.sroa.4.0.add.ptr.i.i.sroa_idx.i, align 4
  %cmp.i.i.i13.i.i.i = icmp sgt i64 %sub.ptr.div.i.i.i.i.i, 0
  br i1 %cmp.i.i.i13.i.i.i, label %if.then.i.i.i14.i.i.i, label %_ZNSt6vectorIN8facebook5velox9functions12_GLOBAL__N_16MapKeyESaIS4_EE11_S_relocateEPS4_S7_S7_RS5_.exit22.i.i.i

if.then.i.i.i14.i.i.i:                            ; preds = %_ZNSt12_Vector_baseIN8facebook5velox9functions12_GLOBAL__N_16MapKeyESaIS4_EE11_M_allocateEm.exit.i.i.i
  call void @llvm.memmove.p0.p0.i64(ptr nonnull align 8 %cond.i12.i.i.i, ptr align 8 %this.val.i.i.i, i64 %sub.ptr.sub.i.i.i.i.i, i1 false)
  br label %_ZNSt6vectorIN8facebook5velox9functions12_GLOBAL__N_16MapKeyESaIS4_EE11_S_relocateEPS4_S7_S7_RS5_.exit22.i.i.i

_ZNSt6vectorIN8facebook5velox9functions12_GLOBAL__N_16MapKeyESaIS4_EE11_S_relocateEPS4_S7_S7_RS5_.exit22.i.i.i: ; preds = %if.then.i.i.i14.i.i.i, %_ZNSt12_Vector_baseIN8facebook5velox9functions12_GLOBAL__N_16MapKeyESaIS4_EE11_M_allocateEm.exit.i.i.i
  %incdec.ptr.i.i.i = getelementptr inbounds %"struct.facebook::velox::functions::(anonymous namespace)::MapKey", ptr %add.ptr.i.i.i, i64 1
  %tobool.not.i.i.i.i = icmp eq ptr %this.val.i.i.i, null
  br i1 %tobool.not.i.i.i.i, label %_ZNSt6vectorIN8facebook5velox9functions12_GLOBAL__N_16MapKeyESaIS4_EE17_M_realloc_insertIJS4_EEEvN9__gnu_cxx17__normal_iteratorIPS4_S6_EEDpOT_.exit.i.i, label %if.then.i23.i.i.i

if.then.i23.i.i.i:                                ; preds = %_ZNSt6vectorIN8facebook5velox9functions12_GLOBAL__N_16MapKeyESaIS4_EE11_S_relocateEPS4_S7_S7_RS5_.exit22.i.i.i
  call void @_ZdlPv(ptr noundef nonnull %this.val.i.i.i) #29
  br label %_ZNSt6vectorIN8facebook5velox9functions12_GLOBAL__N_16MapKeyESaIS4_EE17_M_realloc_insertIJS4_EEEvN9__gnu_cxx17__normal_iteratorIPS4_S6_EEDpOT_.exit.i.i

_ZNSt6vectorIN8facebook5velox9functions12_GLOBAL__N_16MapKeyESaIS4_EE17_M_realloc_insertIJS4_EEEvN9__gnu_cxx17__normal_iteratorIPS4_S6_EEDpOT_.exit.i.i: ; preds = %if.then.i23.i.i.i, %_ZNSt6vectorIN8facebook5velox9functions12_GLOBAL__N_16MapKeyESaIS4_EE11_S_relocateEPS4_S7_S7_RS5_.exit22.i.i.i
  store ptr %cond.i12.i.i.i, ptr %sortedKeys.i, align 8, !noalias !4
  store ptr %incdec.ptr.i.i.i, ptr %77, align 8, !noalias !4
  %add.ptr19.i.i.i = getelementptr inbounds %"struct.facebook::velox::functions::(anonymous namespace)::MapKey", ptr %cond.i12.i.i.i, i64 %cond.i.i.i.i
  store ptr %add.ptr19.i.i.i, ptr %76, align 8, !noalias !4
  br label %for.inc.i

for.inc.i:                                        ; preds = %_ZNSt6vectorIN8facebook5velox9functions12_GLOBAL__N_16MapKeyESaIS4_EE17_M_realloc_insertIJS4_EEEvN9__gnu_cxx17__normal_iteratorIPS4_S6_EEDpOT_.exit.i.i, %if.then.i80.i
  %85 = phi ptr [ %incdec.ptr.i.i.i, %_ZNSt6vectorIN8facebook5velox9functions12_GLOBAL__N_16MapKeyESaIS4_EE17_M_realloc_insertIJS4_EEEvN9__gnu_cxx17__normal_iteratorIPS4_S6_EEDpOT_.exit.i.i ], [ %incdec.ptr.i.i, %if.then.i80.i ]
  %incdec.ptr.i86.i = getelementptr inbounds i32, ptr %__begin4.sroa.0.0477.i, i64 1
  %cmp.i78.not.i = icmp eq ptr %incdec.ptr.i86.i, %74
  br i1 %cmp.i78.not.i, label %for.end.i, label %for.body.i

lpad.i:                                           ; preds = %_ZN8facebook5velox15allocateIndicesEiPNS0_6memory10MemoryPoolE.exit.i
  %86 = landingpad { ptr, i32 }
          cleanup
  br label %common.resume.i

lpad9.i:                                          ; preds = %if.then.i40.i, %invoke.cont8.i
  %87 = landingpad { ptr, i32 }
          cleanup
  br label %ehcleanup91.i

lpad19.i:                                         ; preds = %_ZNSt10shared_ptrIN8facebook5velox10BaseVectorEEC2ERKS3_.exit.i
  %88 = landingpad { ptr, i32 }
          cleanup
  br label %ehcleanup89.i

lpad27.i:                                         ; preds = %if.then.i56.i, %invoke.cont26.i
  %89 = landingpad { ptr, i32 }
          cleanup
  br label %ehcleanup85.i

lpad35.loopexit.i:                                ; preds = %for.body.i.i78.i.i.i.i
  %lpad.loopexit431.i = landingpad { ptr, i32 }
          cleanup
  br label %ehcleanup83.i

lpad35.loopexit.split-lp.loopexit.i:              ; preds = %if.then16.i.i88.i.i.i.i
  %lpad.loopexit433.i = landingpad { ptr, i32 }
          cleanup
  br label %ehcleanup83.i

lpad35.loopexit.split-lp.loopexit.split-lp.loopexit.i: ; preds = %for.body.i.i9.i.i.i.i
  %lpad.loopexit436.i = landingpad { ptr, i32 }
          cleanup
  br label %ehcleanup83.i

lpad35.loopexit.split-lp.loopexit.split-lp.loopexit.split-lp.loopexit.i: ; preds = %if.then16.i.i.i.i.i.i
  %lpad.loopexit438.i = landingpad { ptr, i32 }
          cleanup
  br label %ehcleanup83.i

lpad35.loopexit.split-lp.loopexit.split-lp.loopexit.split-lp.loopexit.split-lp.loopexit.i: ; preds = %for.body.i21.i.i.i.i.i.i
  %lpad.loopexit442.i = landingpad { ptr, i32 }
          cleanup
  br label %ehcleanup83.i

lpad35.loopexit.split-lp.loopexit.split-lp.loopexit.split-lp.loopexit.split-lp.loopexit.split-lp.loopexit.i: ; preds = %for.body.i.i.i.i.i.i.i
  %lpad.loopexit444.i = landingpad { ptr, i32 }
          cleanup
  br label %ehcleanup83.i

lpad35.loopexit.split-lp.loopexit.split-lp.loopexit.split-lp.loopexit.split-lp.loopexit.split-lp.loopexit.split-lp.loopexit.i: ; preds = %if.then16.i31.i.i.i.i.i.i
  %lpad.loopexit447.i = landingpad { ptr, i32 }
          cleanup
  br label %ehcleanup83.i

lpad35.loopexit.split-lp.loopexit.split-lp.loopexit.split-lp.loopexit.split-lp.loopexit.split-lp.loopexit.split-lp.loopexit.split-lp.loopexit.i: ; preds = %if.then16.i.i.i.i.i.i.i
  %lpad.loopexit449.i = landingpad { ptr, i32 }
          cleanup
  br label %ehcleanup83.i

lpad35.loopexit.split-lp.loopexit.split-lp.loopexit.split-lp.loopexit.split-lp.loopexit.split-lp.loopexit.split-lp.loopexit.split-lp.loopexit.split-lp.loopexit.i: ; preds = %for.body.i.i36.i.i.i.i
  %lpad.loopexit453.i = landingpad { ptr, i32 }
          cleanup
  br label %ehcleanup83.i

lpad35.loopexit.split-lp.loopexit.split-lp.loopexit.split-lp.loopexit.split-lp.loopexit.split-lp.loopexit.split-lp.loopexit.split-lp.loopexit.split-lp.loopexit.split-lp.loopexit.i: ; preds = %if.then16.i.i46.i.i.i.i
  %lpad.loopexit455.i = landingpad { ptr, i32 }
          cleanup
  br label %ehcleanup83.i

lpad35.loopexit.split-lp.loopexit.split-lp.loopexit.split-lp.loopexit.split-lp.loopexit.split-lp.loopexit.split-lp.loopexit.split-lp.loopexit.split-lp.loopexit.split-lp.loopexit.split-lp.loopexit.i: ; preds = %for.body.i.i.i
  %lpad.loopexit458.i = landingpad { ptr, i32 }
          cleanup
  br label %ehcleanup83.i

lpad35.loopexit.split-lp.loopexit.split-lp.loopexit.split-lp.loopexit.split-lp.loopexit.split-lp.loopexit.split-lp.loopexit.split-lp.loopexit.split-lp.loopexit.split-lp.loopexit.split-lp.loopexit.split-lp.loopexit.i: ; preds = %if.then16.i.i.i
  %lpad.loopexit460.i = landingpad { ptr, i32 }
          cleanup
  br label %ehcleanup83.i

lpad35.loopexit.split-lp.loopexit.split-lp.loopexit.split-lp.loopexit.split-lp.loopexit.split-lp.loopexit.split-lp.loopexit.split-lp.loopexit.split-lp.loopexit.split-lp.loopexit.split-lp.loopexit.split-lp.loopexit.split-lp.i: ; preds = %invoke.cont69.i, %if.then.i, %if.then.i69.i, %invoke.cont34.i
  %lpad.loopexit.split-lp461.i = landingpad { ptr, i32 }
          cleanup
  br label %ehcleanup83.i

lpad46.loopexit.i:                                ; preds = %while.body.i.i.i.i.i.i
  %lpad.loopexit.i = landingpad { ptr, i32 }
          cleanup
  br label %lpad46.i

lpad46.loopexit.split-lp.loopexit.i:              ; preds = %while.body.i73.i.i.i.i.i
  %lpad.loopexit411.i = landingpad { ptr, i32 }
          cleanup
  br label %lpad46.i

lpad46.loopexit.split-lp.loopexit.split-lp.loopexit.i: ; preds = %while.body.i.i.i.i.i.i.i.i
  %lpad.loopexit415.i = landingpad { ptr, i32 }
          cleanup
  br label %lpad46.i

lpad46.loopexit.split-lp.loopexit.split-lp.loopexit.split-lp.loopexit.i: ; preds = %if.then26.i.i.i.i.i.i, %if.then15.i.i.i.i.i.i
  %lpad.loopexit417.i = landingpad { ptr, i32 }
          cleanup
  br label %lpad46.i

lpad46.loopexit.split-lp.loopexit.split-lp.loopexit.split-lp.loopexit.split-lp.loopexit.i: ; preds = %for.body.i.i.i.i.i.i
  %lpad.loopexit420.i = landingpad { ptr, i32 }
          cleanup
  br label %lpad46.i

lpad46.loopexit.split-lp.loopexit.split-lp.loopexit.split-lp.loopexit.split-lp.loopexit.split-lp.loopexit.i: ; preds = %while.body.i43.i.i.i.i.i
  %lpad.loopexit423.i = landingpad { ptr, i32 }
          cleanup
  br label %lpad46.i

lpad46.loopexit.split-lp.loopexit.split-lp.loopexit.split-lp.loopexit.split-lp.loopexit.split-lp.loopexit.split-lp.loopexit.i: ; preds = %for.body.i.i
  %lpad.loopexit426.i = landingpad { ptr, i32 }
          cleanup
  br label %lpad46.i

lpad46.loopexit.split-lp.loopexit.split-lp.loopexit.split-lp.loopexit.split-lp.loopexit.split-lp.loopexit.split-lp.loopexit.split-lp.loopexit.i: ; preds = %_ZNSt16allocator_traitsISaIN8facebook5velox9functions12_GLOBAL__N_16MapKeyEEE8allocateERS5_m.exit.i.i.i.i
  %lpad.loopexit428.i = landingpad { ptr, i32 }
          cleanup
  br label %lpad46.i

lpad46.loopexit.split-lp.loopexit.split-lp.loopexit.split-lp.loopexit.split-lp.loopexit.split-lp.loopexit.split-lp.loopexit.split-lp.loopexit.split-lp.i: ; preds = %if.end.i.i.i.i.i.i.i.i.i.i.i.i, %if.then.i.i.i83.invoke.i, %_ZNSt12_Vector_baseIN8facebook5velox9functions12_GLOBAL__N_16MapKeyESaIS4_EE11_M_allocateEm.exit.i.i
  %lpad.loopexit.split-lp429.i = landingpad { ptr, i32 }
          cleanup
  br label %lpad46.i

lpad46.i:                                         ; preds = %lpad46.loopexit.split-lp.loopexit.split-lp.loopexit.split-lp.loopexit.split-lp.loopexit.split-lp.loopexit.split-lp.loopexit.split-lp.loopexit.split-lp.i, %lpad46.loopexit.split-lp.loopexit.split-lp.loopexit.split-lp.loopexit.split-lp.loopexit.split-lp.loopexit.split-lp.loopexit.split-lp.loopexit.i, %lpad46.loopexit.split-lp.loopexit.split-lp.loopexit.split-lp.loopexit.split-lp.loopexit.split-lp.loopexit.split-lp.loopexit.i, %lpad46.loopexit.split-lp.loopexit.split-lp.loopexit.split-lp.loopexit.split-lp.loopexit.split-lp.loopexit.i, %lpad46.loopexit.split-lp.loopexit.split-lp.loopexit.split-lp.loopexit.split-lp.loopexit.i, %lpad46.loopexit.split-lp.loopexit.split-lp.loopexit.split-lp.loopexit.i, %lpad46.loopexit.split-lp.loopexit.split-lp.loopexit.i, %lpad46.loopexit.split-lp.loopexit.i, %lpad46.loopexit.i
  %lpad.phi.i = phi { ptr, i32 } [ %lpad.loopexit.i, %lpad46.loopexit.i ], [ %lpad.loopexit411.i, %lpad46.loopexit.split-lp.loopexit.i ], [ %lpad.loopexit415.i, %lpad46.loopexit.split-lp.loopexit.split-lp.loopexit.i ], [ %lpad.loopexit417.i, %lpad46.loopexit.split-lp.loopexit.split-lp.loopexit.split-lp.loopexit.i ], [ %lpad.loopexit420.i, %lpad46.loopexit.split-lp.loopexit.split-lp.loopexit.split-lp.loopexit.split-lp.loopexit.i ], [ %lpad.loopexit423.i, %lpad46.loopexit.split-lp.loopexit.split-lp.loopexit.split-lp.loopexit.split-lp.loopexit.split-lp.loopexit.i ], [ %lpad.loopexit426.i, %lpad46.loopexit.split-lp.loopexit.split-lp.loopexit.split-lp.loopexit.split-lp.loopexit.split-lp.loopexit.split-lp.loopexit.i ], [ %lpad.loopexit428.i, %lpad46.loopexit.split-lp.loopexit.split-lp.loopexit.split-lp.loopexit.split-lp.loopexit.split-lp.loopexit.split-lp.loopexit.split-lp.loopexit.i ], [ %lpad.loopexit.split-lp429.i, %lpad46.loopexit.split-lp.loopexit.split-lp.loopexit.split-lp.loopexit.split-lp.loopexit.split-lp.loopexit.split-lp.loopexit.split-lp.loopexit.split-lp.i ]
  %sortedKeys.val.i = load ptr, ptr %sortedKeys.i, align 8, !noalias !4
  %tobool.not.i.i.i88.i = icmp eq ptr %sortedKeys.val.i, null
  br i1 %tobool.not.i.i.i88.i, label %_ZNSt6vectorIN8facebook5velox9functions12_GLOBAL__N_16MapKeyESaIS4_EED2Ev.exit.i, label %if.then.i.i.i89.i

if.then.i.i.i89.i:                                ; preds = %lpad46.i
  call void @_ZdlPv(ptr noundef nonnull %sortedKeys.val.i) #29
  br label %_ZNSt6vectorIN8facebook5velox9functions12_GLOBAL__N_16MapKeyESaIS4_EED2Ev.exit.i

_ZNSt6vectorIN8facebook5velox9functions12_GLOBAL__N_16MapKeyESaIS4_EED2Ev.exit.i: ; preds = %if.then.i.i.i89.i, %lpad46.i
  %90 = load ptr, ptr %sortedKeyIndices.i, align 8, !noalias !4
  %tobool.not.i.i.i91.i = icmp eq ptr %90, null
  br i1 %tobool.not.i.i.i91.i, label %ehcleanup83.i, label %if.then.i.i.i92.i

if.then.i.i.i92.i:                                ; preds = %_ZNSt6vectorIN8facebook5velox9functions12_GLOBAL__N_16MapKeyESaIS4_EED2Ev.exit.i
  call void @_ZdlPv(ptr noundef nonnull %90) #29
  br label %ehcleanup83.i

for.end.i:                                        ; preds = %for.inc.i, %if.end.i.i
  call void @llvm.lifetime.start.p0(i64 56, ptr nonnull %agg.tmp93.i), !noalias !4
  store ptr %mapIndices.i, ptr %agg.tmp93.i, align 8, !noalias !4
  %agg.tmp.sroa.2.0.agg.tmp93.sroa_idx.i = getelementptr inbounds i8, ptr %agg.tmp93.i, i64 8
  store ptr %searchIndices.i, ptr %agg.tmp.sroa.2.0.agg.tmp93.sroa_idx.i, align 8, !noalias !4
  %agg.tmp.sroa.3.0.agg.tmp93.sroa_idx.i = getelementptr inbounds i8, ptr %agg.tmp93.i, i64 16
  store ptr %sortedKeys.i, ptr %agg.tmp.sroa.3.0.agg.tmp93.sroa_idx.i, align 8, !noalias !4
  %agg.tmp.sroa.4.0.agg.tmp93.sroa_idx.i = getelementptr inbounds i8, ptr %agg.tmp93.i, i64 24
  store ptr %searchBase.i, ptr %agg.tmp.sroa.4.0.agg.tmp93.sroa_idx.i, align 8, !noalias !4
  %agg.tmp.sroa.5.0.agg.tmp93.sroa_idx.i = getelementptr inbounds i8, ptr %agg.tmp93.i, i64 32
  store ptr %mapKeysBase.i, ptr %agg.tmp.sroa.5.0.agg.tmp93.sroa_idx.i, align 8, !noalias !4
  %agg.tmp.sroa.6.0.agg.tmp93.sroa_idx.i = getelementptr inbounds i8, ptr %agg.tmp93.i, i64 40
  store ptr %rawIndices.i, ptr %agg.tmp.sroa.6.0.agg.tmp93.sroa_idx.i, align 8, !noalias !4
  %agg.tmp.sroa.7.0.agg.tmp93.sroa_idx.i = getelementptr inbounds i8, ptr %agg.tmp93.i, i64 48
  store ptr %nullsBuilder.i, ptr %agg.tmp.sroa.7.0.agg.tmp93.sroa_idx.i, align 8, !noalias !4
  %allSelected_.i.i.i = getelementptr inbounds %"class.facebook::velox::SelectivityVector", ptr %rows, i64 0, i32 4
  %_M_engaged.i.i.i.i.i = getelementptr inbounds %"class.facebook::velox::SelectivityVector", ptr %rows, i64 0, i32 4, i32 0, i32 0, i32 0, i32 1
  %91 = load i8, ptr %_M_engaged.i.i.i.i.i, align 1, !noalias !4
  %92 = and i8 %91, 1
  %tobool.i.i.not.i.i.i = icmp eq i8 %92, 0
  br i1 %tobool.i.i.not.i.i.i, label %if.end.i.i103.i, label %entry.return_crit_edge.i.i.i

entry.return_crit_edge.i.i.i:                     ; preds = %for.end.i
  %retval.0.in.in.pre.i.i.i = load i8, ptr %allSelected_.i.i.i, align 4, !noalias !4
  br label %_ZNK8facebook5velox17SelectivityVector13isAllSelectedEv.exit.i.i

if.end.i.i103.i:                                  ; preds = %for.end.i
  %begin_.i.i.i = getelementptr inbounds %"class.facebook::velox::SelectivityVector", ptr %rows, i64 0, i32 2
  %93 = load i32, ptr %begin_.i.i.i, align 4, !noalias !4
  %cmp.i.i.i = icmp eq i32 %93, 0
  br i1 %cmp.i.i.i, label %land.lhs.true.i.i.i, label %land.end.i.i.i

land.lhs.true.i.i.i:                              ; preds = %if.end.i.i103.i
  %94 = load i32, ptr %end_.i.i, align 8, !noalias !4
  %size_.i.i.i = getelementptr inbounds %"class.facebook::velox::SelectivityVector", ptr %rows, i64 0, i32 1
  %95 = load i32, ptr %size_.i.i.i, align 8, !noalias !4
  %cmp5.i.i.i = icmp eq i32 %94, %95
  br i1 %cmp5.i.i.i, label %land.rhs.i.i.i, label %land.end.i.i.i

land.rhs.i.i.i:                                   ; preds = %land.lhs.true.i.i.i
  %96 = load ptr, ptr %rows, align 8, !noalias !4
  %cmp.not.i.i.i104.i = icmp sgt i32 %94, 0
  br i1 %cmp.not.i.i.i104.i, label %if.end.i.i.i.i.i, label %land.end.i.i.i

if.end.i.i.i.i.i:                                 ; preds = %land.rhs.i.i.i
  %97 = and i32 %94, 2147483584
  %98 = zext nneg i32 %97 to i64
  br label %for.cond.i.i.i.i.i

for.cond.i.i.i.i.i:                               ; preds = %for.body.i.i.i.i.i, %if.end.i.i.i.i.i
  %indvars.iv.i.i.i = phi i64 [ %indvars.iv.next.i.i.i, %for.body.i.i.i.i.i ], [ 0, %if.end.i.i.i.i.i ]
  %indvars.iv.next.i.i.i = add nuw nsw i64 %indvars.iv.i.i.i, 64
  %cmp19.not.i.i.i.i.i = icmp ugt i64 %indvars.iv.next.i.i.i, %98
  br i1 %cmp19.not.i.i.i.i.i, label %for.end.i.i.i.i.i, label %for.body.i.i.i.i.i

for.body.i.i.i.i.i:                               ; preds = %for.cond.i.i.i.i.i
  %99 = lshr exact i64 %indvars.iv.i.i.i, 6
  %arrayidx.i35.i.i.i.i.i = getelementptr inbounds i64, ptr %96, i64 %99
  %100 = load i64, ptr %arrayidx.i35.i.i.i.i.i, align 8
  %cmp.i36.i.i.i.i.i = icmp eq i64 %100, -1
  br i1 %cmp.i36.i.i.i.i.i, label %for.cond.i.i.i.i.i, label %land.end.i.i.i, !llvm.loop !14

for.end.i.i.i.i.i:                                ; preds = %for.cond.i.i.i.i.i
  %cmp25.not.i.i.i.i.i = icmp eq i32 %97, %94
  br i1 %cmp25.not.i.i.i.i.i, label %land.end.i.i.i, label %if.then26.i.i.i.i.i

if.then26.i.i.i.i.i:                              ; preds = %for.end.i.i.i.i.i
  %div27.i.i.i.i.i = lshr i32 %94, 6
  %sub28.i.i.i.i.i = and i32 %94, 63
  %sh_prom.i37.i.i.i.i.i = zext nneg i32 %sub28.i.i.i.i.i to i64
  %notmask.i38.i.i.i.i.i = shl nsw i64 -1, %sh_prom.i37.i.i.i.i.i
  %idxprom.i40.i.i.i.i.i = zext nneg i32 %div27.i.i.i.i.i to i64
  %arrayidx.i41.i.i.i.i.i = getelementptr inbounds i64, ptr %96, i64 %idxprom.i40.i.i.i.i.i
  %101 = load i64, ptr %arrayidx.i41.i.i.i.i.i, align 8
  %.demorgan.i.i.i = or i64 %101, %notmask.i38.i.i.i.i.i
  %cmp.i42.i.i.i.i.i = icmp eq i64 %.demorgan.i.i.i, -1
  %102 = zext i1 %cmp.i42.i.i.i.i.i to i16
  %103 = or disjoint i16 %102, 256
  br label %land.end.i.i.i

land.end.i.i.i:                                   ; preds = %for.body.i.i.i.i.i, %if.then26.i.i.i.i.i, %for.end.i.i.i.i.i, %land.rhs.i.i.i, %land.lhs.true.i.i.i, %if.end.i.i103.i
  %frombool.i.i.i = phi i16 [ 256, %land.lhs.true.i.i.i ], [ 256, %if.end.i.i103.i ], [ 257, %land.rhs.i.i.i ], [ 257, %for.end.i.i.i.i.i ], [ %103, %if.then26.i.i.i.i.i ], [ 256, %for.body.i.i.i.i.i ]
  store i16 %frombool.i.i.i, ptr %allSelected_.i.i.i, align 4, !noalias !4
  %104 = trunc i16 %frombool.i.i.i to i8
  br label %_ZNK8facebook5velox17SelectivityVector13isAllSelectedEv.exit.i.i

_ZNK8facebook5velox17SelectivityVector13isAllSelectedEv.exit.i.i: ; preds = %land.end.i.i.i, %entry.return_crit_edge.i.i.i
  %retval.0.in.in.i.i.i = phi i8 [ %retval.0.in.in.pre.i.i.i, %entry.return_crit_edge.i.i.i ], [ %104, %land.end.i.i.i ]
  %retval.0.in.i.i.i = and i8 %retval.0.in.in.i.i.i, 1
  %retval.0.i.not.i.i = icmp eq i8 %retval.0.in.i.i.i, 0
  br i1 %retval.0.i.not.i.i, label %if.else.i99.i, label %if.then.i94.i

if.then.i94.i:                                    ; preds = %_ZNK8facebook5velox17SelectivityVector13isAllSelectedEv.exit.i.i
  %begin_.i95.i = getelementptr inbounds %"class.facebook::velox::SelectivityVector", ptr %rows, i64 0, i32 2
  %105 = load i32, ptr %begin_.i95.i, align 4, !noalias !4
  %106 = load i32, ptr %end_.i.i, align 8, !noalias !4
  %cmp9.i.i = icmp slt i32 %105, %106
  br i1 %cmp9.i.i, label %for.body.i.i, label %invoke.cont57.i

for.body.i.i:                                     ; preds = %if.then.i94.i, %.noexc105.i
  %row.010.i.i = phi i32 [ %inc.i.i, %.noexc105.i ], [ %105, %if.then.i94.i ]
  invoke fastcc void @"_ZZN8facebook5velox9functions12_GLOBAL__N_119applyMapComplexTypeERKNS0_17SelectivityVectorERKSt10shared_ptrINS0_10BaseVectorEESA_RNS0_4exec7EvalCtxEENK3$_0clEi"(ptr noundef nonnull align 8 dereferenceable(56) %agg.tmp93.i, i32 noundef %row.010.i.i)
          to label %.noexc105.i unwind label %lpad46.loopexit.split-lp.loopexit.split-lp.loopexit.split-lp.loopexit.split-lp.loopexit.split-lp.loopexit.split-lp.loopexit.i

.noexc105.i:                                      ; preds = %for.body.i.i
  %inc.i.i = add nsw i32 %row.010.i.i, 1
  %107 = load i32, ptr %end_.i.i, align 8, !noalias !4
  %cmp.i98.i = icmp slt i32 %inc.i.i, %107
  br i1 %cmp.i98.i, label %for.body.i.i, label %invoke.cont57.i, !llvm.loop !16

if.else.i99.i:                                    ; preds = %_ZNK8facebook5velox17SelectivityVector13isAllSelectedEv.exit.i.i
  %108 = load ptr, ptr %rows, align 8, !noalias !4
  %begin_3.i.i = getelementptr inbounds %"class.facebook::velox::SelectivityVector", ptr %rows, i64 0, i32 2
  %109 = load i32, ptr %begin_3.i.i, align 4, !noalias !4
  %110 = load i32, ptr %end_.i.i, align 8, !noalias !4
  %agg.tmp.sroa.3.0.agg.tmp3.sroa_idx.i.i.i.i = getelementptr inbounds i8, ptr %agg.tmp3.i.i.i.i, i64 16
  call void @llvm.lifetime.start.p0(i64 72, ptr nonnull %agg.tmp3.i.i.i.i), !noalias !4
  call void @llvm.memcpy.p0.p0.i64(ptr noundef nonnull align 8 dereferenceable(56) %agg.tmp.sroa.3.0.agg.tmp3.sroa_idx.i.i.i.i, ptr noundef nonnull align 8 dereferenceable(56) %agg.tmp93.i, i64 56, i1 false), !noalias !4
  %agg.tmp2.sroa.3.0.agg.tmp24.sroa_idx.i.i.i.i = getelementptr inbounds i8, ptr %agg.tmp24.i.i.i.i, i64 16
  call void @llvm.lifetime.start.p0(i64 72, ptr nonnull %agg.tmp24.i.i.i.i), !noalias !4
  call void @llvm.memcpy.p0.p0.i64(ptr noundef nonnull align 8 dereferenceable(56) %agg.tmp2.sroa.3.0.agg.tmp24.sroa_idx.i.i.i.i, ptr noundef nonnull align 8 dereferenceable(56) %agg.tmp93.i, i64 56, i1 false), !noalias !4
  store i8 1, ptr %agg.tmp24.i.i.i.i, align 8, !noalias !4
  %agg.tmp2.sroa.25.0.agg.tmp24.sroa_idx.i.i.i.i = getelementptr inbounds i8, ptr %agg.tmp24.i.i.i.i, i64 8
  store ptr %108, ptr %agg.tmp2.sroa.25.0.agg.tmp24.sroa_idx.i.i.i.i, align 8, !noalias !4
  store i8 1, ptr %agg.tmp3.i.i.i.i, align 8, !noalias !4
  %agg.tmp.sroa.26.0.agg.tmp3.sroa_idx.i.i.i.i = getelementptr inbounds i8, ptr %agg.tmp3.i.i.i.i, i64 8
  store ptr %108, ptr %agg.tmp.sroa.26.0.agg.tmp3.sroa_idx.i.i.i.i, align 8, !noalias !4
  %cmp.not.i.i.i.i.i = icmp slt i32 %109, %110
  br i1 %cmp.not.i.i.i.i.i, label %if.end.i.i.i4.i.i, label %"_ZN8facebook5velox4bits13forEachSetBitIZNS0_9functions12_GLOBAL__N_119applyMapComplexTypeERKNS0_17SelectivityVectorERKSt10shared_ptrINS0_10BaseVectorEESC_RNS0_4exec7EvalCtxEE3$_0EEvPKmiiT_.exit.i.i"

if.end.i.i.i4.i.i:                                ; preds = %if.else.i99.i
  %add.i.i.i.i.i100.i = add i32 %109, 63
  %111 = srem i32 %add.i.i.i.i.i100.i, 64
  %mul.i.i.i.i.i101.i = sub nsw i32 %add.i.i.i.i.i100.i, %111
  %112 = and i32 %110, -64
  %cmp2.i.i.i.i.i = icmp slt i32 %112, %mul.i.i.i.i.i101.i
  br i1 %cmp2.i.i.i.i.i, label %if.then3.i.i.i.i.i, label %if.end8.i.i.i.i.i

if.then3.i.i.i.i.i:                               ; preds = %if.end.i.i.i4.i.i
  %div.i.i.i.i.i = ashr i32 %110, 6
  %sub.i.i.i.i.i = and i32 %110, 63
  %sh_prom.i.i.i.i.i.i = zext nneg i32 %sub.i.i.i.i.i to i64
  %notmask.i.i.i.i.i.i = shl nsw i64 -1, %sh_prom.i.i.i.i.i.i
  %sub.i22.i.i.i.i.i = xor i64 %notmask.i.i.i.i.i.i, -1
  %sub5.i.i.i.i.i = sub nsw i32 %mul.i.i.i.i.i101.i, %109
  %sh_prom.i.i.i.i.i.i.i = zext nneg i32 %sub5.i.i.i.i.i to i64
  %notmask.i.i.i.i.i.i.i = shl nsw i64 -1, %sh_prom.i.i.i.i.i.i.i
  %sub.i.i.i.i.i.i.i = xor i64 %notmask.i.i.i.i.i.i.i, -1
  %sub.i23.i.i.i.i.i = sub nsw i32 64, %sub5.i.i.i.i.i
  %sh_prom.i24.i.i.i.i.i = zext nneg i32 %sub.i23.i.i.i.i.i to i64
  %shl.i.i.i.i.i.i = shl i64 %sub.i.i.i.i.i.i.i, %sh_prom.i24.i.i.i.i.i
  %and7.i.i.i.i.i = and i64 %shl.i.i.i.i.i.i, %sub.i22.i.i.i.i.i
  %idxprom2.i.i.i.i.i.i = sext i32 %div.i.i.i.i.i to i64
  %arrayidx3.i.i.i.i.i.i = getelementptr inbounds i64, ptr %108, i64 %idxprom2.i.i.i.i.i.i
  %113 = load i64, ptr %arrayidx3.i.i.i.i.i.i, align 8
  %and.i.i.i.i.i.i = and i64 %and7.i.i.i.i.i, %113
  %tobool4.not.i.i.i.i.i.i = icmp eq i64 %and.i.i.i.i.i.i, 0
  br i1 %tobool4.not.i.i.i.i.i.i, label %"_ZN8facebook5velox4bits13forEachSetBitIZNS0_9functions12_GLOBAL__N_119applyMapComplexTypeERKNS0_17SelectivityVectorERKSt10shared_ptrINS0_10BaseVectorEESC_RNS0_4exec7EvalCtxEE3$_0EEvPKmiiT_.exit.i.i", label %while.body.i.i.i.i.i.i

while.body.i.i.i.i.i.i:                           ; preds = %if.then3.i.i.i.i.i, %.noexc106.i
  %word.0.i.i.i.i.i.i = phi i64 [ %and6.i.i.i.i.i.i, %.noexc106.i ], [ %and.i.i.i.i.i.i, %if.then3.i.i.i.i.i ]
  %114 = call i64 @llvm.cttz.i64(i64 %word.0.i.i.i.i.i.i, i1 true), !range !17
  %cast.i.i.i.i.i.i = trunc i64 %114 to i32
  %add.i26.i.i.i.i.i = or disjoint i32 %112, %cast.i.i.i.i.i.i
  invoke fastcc void @"_ZZN8facebook5velox9functions12_GLOBAL__N_119applyMapComplexTypeERKNS0_17SelectivityVectorERKSt10shared_ptrINS0_10BaseVectorEESA_RNS0_4exec7EvalCtxEENK3$_0clEi"(ptr noundef nonnull align 8 dereferenceable(56) %agg.tmp.sroa.3.0.agg.tmp3.sroa_idx.i.i.i.i, i32 noundef %add.i26.i.i.i.i.i)
          to label %.noexc106.i unwind label %lpad46.loopexit.i

.noexc106.i:                                      ; preds = %while.body.i.i.i.i.i.i
  %sub.i27.i.i.i.i.i = add nsw i64 %word.0.i.i.i.i.i.i, -1
  %and6.i.i.i.i.i.i = and i64 %sub.i27.i.i.i.i.i, %word.0.i.i.i.i.i.i
  %tobool5.old.not.i.i.i.i.i.i = icmp eq i64 %and6.i.i.i.i.i.i, 0
  br i1 %tobool5.old.not.i.i.i.i.i.i, label %"_ZN8facebook5velox4bits13forEachSetBitIZNS0_9functions12_GLOBAL__N_119applyMapComplexTypeERKNS0_17SelectivityVectorERKSt10shared_ptrINS0_10BaseVectorEESC_RNS0_4exec7EvalCtxEE3$_0EEvPKmiiT_.exit.i.i", label %while.body.i.i.i.i.i.i

if.end8.i.i.i.i.i:                                ; preds = %if.end.i.i.i4.i.i
  %cmp9.not.i.i.i.i.i = icmp eq i32 %mul.i.i.i.i.i101.i, %109
  br i1 %cmp9.not.i.i.i.i.i, label %if.end14.i.i.i.i.i, label %if.then10.i.i.i.i.i

if.then10.i.i.i.i.i:                              ; preds = %if.end8.i.i.i.i.i
  %div11.i.i.i.i.i = sdiv i32 %109, 64
  %sub12.i.i.i.i.i = sub nsw i32 %mul.i.i.i.i.i101.i, %109
  %sh_prom.i.i28.i.i.i.i.i = zext nneg i32 %sub12.i.i.i.i.i to i64
  %notmask.i.i29.i.i.i.i.i = shl nsw i64 -1, %sh_prom.i.i28.i.i.i.i.i
  %sub.i.i30.i.i.i.i.i = xor i64 %notmask.i.i29.i.i.i.i.i, -1
  %sub.i31.i.i.i.i.i = sub nsw i32 64, %sub12.i.i.i.i.i
  %sh_prom.i32.i.i.i.i.i = zext nneg i32 %sub.i31.i.i.i.i.i to i64
  %shl.i33.i.i.i.i.i = shl i64 %sub.i.i30.i.i.i.i.i, %sh_prom.i32.i.i.i.i.i
  %idxprom2.i34.i.i.i.i.i = sext i32 %div11.i.i.i.i.i to i64
  %arrayidx3.i35.i.i.i.i.i = getelementptr inbounds i64, ptr %108, i64 %idxprom2.i34.i.i.i.i.i
  %115 = load i64, ptr %arrayidx3.i35.i.i.i.i.i, align 8
  %and.i39.i.i.i.i.i = and i64 %115, %shl.i33.i.i.i.i.i
  %tobool4.not.i40.i.i.i.i.i = icmp eq i64 %and.i39.i.i.i.i.i, 0
  br i1 %tobool4.not.i40.i.i.i.i.i, label %if.end14.i.i.i.i.i, label %while.body.preheader.i41.i.i.i.i.i

while.body.preheader.i41.i.i.i.i.i:               ; preds = %if.then10.i.i.i.i.i
  %mul.i42.i.i.i.i.i = shl nsw i32 %div11.i.i.i.i.i, 6
  br label %while.body.i43.i.i.i.i.i

while.body.i43.i.i.i.i.i:                         ; preds = %.noexc107.i, %while.body.preheader.i41.i.i.i.i.i
  %word.0.i44.i.i.i.i.i = phi i64 [ %and6.i48.i.i.i.i.i, %.noexc107.i ], [ %and.i39.i.i.i.i.i, %while.body.preheader.i41.i.i.i.i.i ]
  %116 = call i64 @llvm.cttz.i64(i64 %word.0.i44.i.i.i.i.i, i1 true), !range !17
  %cast.i45.i.i.i.i.i = trunc i64 %116 to i32
  %add.i46.i.i.i.i.i = or disjoint i32 %mul.i42.i.i.i.i.i, %cast.i45.i.i.i.i.i
  invoke fastcc void @"_ZZN8facebook5velox9functions12_GLOBAL__N_119applyMapComplexTypeERKNS0_17SelectivityVectorERKSt10shared_ptrINS0_10BaseVectorEESA_RNS0_4exec7EvalCtxEENK3$_0clEi"(ptr noundef nonnull align 8 dereferenceable(56) %agg.tmp.sroa.3.0.agg.tmp3.sroa_idx.i.i.i.i, i32 noundef %add.i46.i.i.i.i.i)
          to label %.noexc107.i unwind label %lpad46.loopexit.split-lp.loopexit.split-lp.loopexit.split-lp.loopexit.split-lp.loopexit.split-lp.loopexit.i

.noexc107.i:                                      ; preds = %while.body.i43.i.i.i.i.i
  %sub.i47.i.i.i.i.i = add i64 %word.0.i44.i.i.i.i.i, -1
  %and6.i48.i.i.i.i.i = and i64 %sub.i47.i.i.i.i.i, %word.0.i44.i.i.i.i.i
  %tobool5.old.not.i49.i.i.i.i.i = icmp eq i64 %and6.i48.i.i.i.i.i, 0
  br i1 %tobool5.old.not.i49.i.i.i.i.i, label %if.end14.i.i.i.i.i, label %while.body.i43.i.i.i.i.i

if.end14.i.i.i.i.i:                               ; preds = %.noexc107.i, %if.then10.i.i.i.i.i, %if.end8.i.i.i.i.i
  %add85.i.i.i.i.i = add nsw i32 %mul.i.i.i.i.i101.i, 64
  %cmp15.not86.i.i.i.i.i = icmp sgt i32 %add85.i.i.i.i.i, %112
  br i1 %cmp15.not86.i.i.i.i.i, label %for.end.i.i.i6.i.i, label %for.body.lr.ph.i.i.i.i.i

for.body.lr.ph.i.i.i.i.i:                         ; preds = %if.end14.i.i.i.i.i
  %117 = load ptr, ptr %agg.tmp2.sroa.3.0.agg.tmp24.sroa_idx.i.i.i.i, align 8, !noalias !4
  %118 = getelementptr inbounds %class.anon.1043, ptr %agg.tmp24.i.i.i.i, i64 0, i32 2, i32 1
  %119 = load ptr, ptr %118, align 8, !noalias !4
  %120 = getelementptr inbounds %class.anon.1043, ptr %agg.tmp24.i.i.i.i, i64 0, i32 2, i32 2
  %121 = load ptr, ptr %120, align 8, !noalias !4
  %122 = getelementptr i8, ptr %121, i64 8
  %123 = getelementptr inbounds %class.anon.1043, ptr %agg.tmp24.i.i.i.i, i64 0, i32 2, i32 3
  %124 = load ptr, ptr %123, align 8, !noalias !4
  %125 = getelementptr inbounds %class.anon.1043, ptr %agg.tmp24.i.i.i.i, i64 0, i32 2, i32 4
  %126 = load ptr, ptr %125, align 8, !noalias !4
  %127 = getelementptr inbounds %class.anon.1043, ptr %agg.tmp24.i.i.i.i, i64 0, i32 2, i32 5
  %128 = load ptr, ptr %127, align 8, !noalias !4
  %129 = getelementptr inbounds %class.anon.1043, ptr %agg.tmp24.i.i.i.i, i64 0, i32 2, i32 6
  %130 = load ptr, ptr %129, align 8, !noalias !4
  br label %for.body.i.i.i5.i.i

for.body.i.i.i5.i.i:                              ; preds = %"_ZZN8facebook5velox4bits10forEachBitIZNS0_9functions12_GLOBAL__N_119applyMapComplexTypeERKNS0_17SelectivityVectorERKSt10shared_ptrINS0_10BaseVectorEESC_RNS0_4exec7EvalCtxEE3$_0EEvPKmiibT_ENKUliE_clEi.exit.i.i.i.i.i", %for.body.lr.ph.i.i.i.i.i
  %add88.i.i.i.i.i = phi i32 [ %add85.i.i.i.i.i, %for.body.lr.ph.i.i.i.i.i ], [ %add.i.i.i.i.i, %"_ZZN8facebook5velox4bits10forEachBitIZNS0_9functions12_GLOBAL__N_119applyMapComplexTypeERKNS0_17SelectivityVectorERKSt10shared_ptrINS0_10BaseVectorEESC_RNS0_4exec7EvalCtxEE3$_0EEvPKmiibT_ENKUliE_clEi.exit.i.i.i.i.i" ]
  %i.087.i.i.i.i.i = phi i32 [ %mul.i.i.i.i.i101.i, %for.body.lr.ph.i.i.i.i.i ], [ %add88.i.i.i.i.i, %"_ZZN8facebook5velox4bits10forEachBitIZNS0_9functions12_GLOBAL__N_119applyMapComplexTypeERKNS0_17SelectivityVectorERKSt10shared_ptrINS0_10BaseVectorEESC_RNS0_4exec7EvalCtxEE3$_0EEvPKmiibT_ENKUliE_clEi.exit.i.i.i.i.i" ]
  %div16.i.i.i.i.i = sdiv i32 %i.087.i.i.i.i.i, 64
  %idxprom2.i51.i.i.i.i.i = sext i32 %div16.i.i.i.i.i to i64
  %arrayidx3.i52.i.i.i.i.i = getelementptr inbounds i64, ptr %108, i64 %idxprom2.i51.i.i.i.i.i
  %131 = load i64, ptr %arrayidx3.i52.i.i.i.i.i, align 8
  switch i64 %131, label %while.body.lr.ph.i.i.i.i.i.i [
    i64 -1, label %if.then.i.i.i.i.i102.i
    i64 0, label %"_ZZN8facebook5velox4bits10forEachBitIZNS0_9functions12_GLOBAL__N_119applyMapComplexTypeERKNS0_17SelectivityVectorERKSt10shared_ptrINS0_10BaseVectorEESC_RNS0_4exec7EvalCtxEE3$_0EEvPKmiibT_ENKUliE_clEi.exit.i.i.i.i.i"
  ]

while.body.lr.ph.i.i.i.i.i.i:                     ; preds = %for.body.i.i.i5.i.i
  %mul9.i.i.i.i.i.i = shl nsw i32 %div16.i.i.i.i.i, 6
  br label %while.body.i57.i.i.i.i.i

if.then.i.i.i.i.i102.i:                           ; preds = %for.body.i.i.i5.i.i
  %mul.i56.i.i.i.i.i = shl nsw i32 %div16.i.i.i.i.i, 6
  %mul4.i.i.i.i.i.i = add i32 %mul.i56.i.i.i.i.i, 64
  %conv5.i.i.i.i.i.i = sext i32 %mul4.i.i.i.i.i.i to i64
  %i.0.off.i.i.i.i.i = add i32 %i.087.i.i.i.i.i, 127
  %cmp614.not.i.i.i.i.i.i = icmp ult i32 %i.0.off.i.i.i.i.i, 64
  br i1 %cmp614.not.i.i.i.i.i.i, label %"_ZZN8facebook5velox4bits10forEachBitIZNS0_9functions12_GLOBAL__N_119applyMapComplexTypeERKNS0_17SelectivityVectorERKSt10shared_ptrINS0_10BaseVectorEESC_RNS0_4exec7EvalCtxEE3$_0EEvPKmiibT_ENKUliE_clEi.exit.i.i.i.i.i", label %for.body.lr.ph.i.i.i.i.i.i

for.body.lr.ph.i.i.i.i.i.i:                       ; preds = %if.then.i.i.i.i.i102.i
  %conv.i.i.i.i.i.i = sext i32 %mul.i56.i.i.i.i.i to i64
  br label %for.body.i.i.i.i.i.i

for.body.i.i.i.i.i.i:                             ; preds = %.noexc108.i, %for.body.lr.ph.i.i.i.i.i.i
  %row.015.i.i.i.i.i.i = phi i64 [ %conv.i.i.i.i.i.i, %for.body.lr.ph.i.i.i.i.i.i ], [ %inc.i.i.i.i.i.i, %.noexc108.i ]
  %conv7.i.i.i.i.i.i = trunc i64 %row.015.i.i.i.i.i.i to i32
  invoke fastcc void @"_ZZN8facebook5velox9functions12_GLOBAL__N_119applyMapComplexTypeERKNS0_17SelectivityVectorERKSt10shared_ptrINS0_10BaseVectorEESA_RNS0_4exec7EvalCtxEENK3$_0clEi"(ptr noundef nonnull align 8 dereferenceable(56) %agg.tmp2.sroa.3.0.agg.tmp24.sroa_idx.i.i.i.i, i32 noundef %conv7.i.i.i.i.i.i)
          to label %.noexc108.i unwind label %lpad46.loopexit.split-lp.loopexit.split-lp.loopexit.split-lp.loopexit.split-lp.loopexit.i

.noexc108.i:                                      ; preds = %for.body.i.i.i.i.i.i
  %inc.i.i.i.i.i.i = add nuw i64 %row.015.i.i.i.i.i.i, 1
  %cmp6.i.i.i.i.i.i = icmp ult i64 %inc.i.i.i.i.i.i, %conv5.i.i.i.i.i.i
  br i1 %cmp6.i.i.i.i.i.i, label %for.body.i.i.i.i.i.i, label %"_ZZN8facebook5velox4bits10forEachBitIZNS0_9functions12_GLOBAL__N_119applyMapComplexTypeERKNS0_17SelectivityVectorERKSt10shared_ptrINS0_10BaseVectorEESC_RNS0_4exec7EvalCtxEE3$_0EEvPKmiibT_ENKUliE_clEi.exit.i.i.i.i.i", !llvm.loop !18

while.body.i57.i.i.i.i.i:                         ; preds = %"_ZZN8facebook5velox9functions12_GLOBAL__N_119applyMapComplexTypeERKNS0_17SelectivityVectorERKSt10shared_ptrINS0_10BaseVectorEESA_RNS0_4exec7EvalCtxEENK3$_0clEi.exit.i.i.i.i.i", %while.body.lr.ph.i.i.i.i.i.i
  %word.013.i.i.i.i.i.i = phi i64 [ %131, %while.body.lr.ph.i.i.i.i.i.i ], [ %and.i60.i.i.i.i.i, %"_ZZN8facebook5velox9functions12_GLOBAL__N_119applyMapComplexTypeERKNS0_17SelectivityVectorERKSt10shared_ptrINS0_10BaseVectorEESA_RNS0_4exec7EvalCtxEENK3$_0clEi.exit.i.i.i.i.i" ]
  %132 = call i64 @llvm.cttz.i64(i64 %word.013.i.i.i.i.i.i, i1 true), !range !17
  %cast.i58.i.i.i.i.i = trunc i64 %132 to i32
  %add10.i.i.i.i.i.i = or disjoint i32 %mul9.i.i.i.i.i.i, %cast.i58.i.i.i.i.i
  %133 = load ptr, ptr %117, align 8
  %idxprom.i.i.i.i.i.i = sext i32 %add10.i.i.i.i.i.i to i64
  %arrayidx.i.i.i.i.i.i = getelementptr inbounds i32, ptr %133, i64 %idxprom.i.i.i.i.i.i
  %134 = load i32, ptr %arrayidx.i.i.i.i.i.i, align 4
  %cmp.not.i.i.i.i.i.i = icmp eq i32 %134, 0
  br i1 %cmp.not.i.i.i.i.i.i, label %if.end.i.i.i.i.i.i, label %if.then.i81.i.i.i.i.i

if.then.i81.i.i.i.i.i:                            ; preds = %while.body.i57.i.i.i.i.i
  call void @llvm.trap()
  unreachable

if.end.i.i.i.i.i.i:                               ; preds = %while.body.i57.i.i.i.i.i
  %135 = load ptr, ptr %119, align 8
  %arrayidx3.i82.i.i.i.i.i = getelementptr inbounds i32, ptr %135, i64 %idxprom.i.i.i.i.i.i
  %136 = load i32, ptr %arrayidx3.i82.i.i.i.i.i, align 4
  %.val7.i.i.i.i.i.i = load ptr, ptr %121, align 8
  %.val6.i.i.i.i.i.i = load ptr, ptr %122, align 8
  %137 = load ptr, ptr %124, align 8
  %sub.ptr.lhs.cast.i.i.i.i.i.i.i.i.i.i.i = ptrtoint ptr %.val6.i.i.i.i.i.i to i64
  %sub.ptr.rhs.cast.i.i.i.i.i.i.i.i.i.i.i = ptrtoint ptr %.val7.i.i.i.i.i.i to i64
  %sub.ptr.sub.i.i.i.i.i.i.i.i.i.i.i = sub i64 %sub.ptr.lhs.cast.i.i.i.i.i.i.i.i.i.i.i, %sub.ptr.rhs.cast.i.i.i.i.i.i.i.i.i.i.i
  %sub.ptr.div.i.i.i.i.i.i.i.i.i.i.i = ashr exact i64 %sub.ptr.sub.i.i.i.i.i.i.i.i.i.i.i, 4
  %cmp8.i.i.i.i.i.i.i.i = icmp sgt i64 %sub.ptr.div.i.i.i.i.i.i.i.i.i.i.i, 0
  br i1 %cmp8.i.i.i.i.i.i.i.i, label %while.body.i.i.i.i.i.i.i.i, label %_ZSt11lower_boundIN9__gnu_cxx17__normal_iteratorIPN8facebook5velox9functions12_GLOBAL__N_16MapKeyESt6vectorIS6_SaIS6_EEEES6_ET_SC_SC_RKT0_.exit.i.i.i.i.i.i

while.body.i.i.i.i.i.i.i.i:                       ; preds = %if.end.i.i.i.i.i.i, %_ZNK9__gnu_cxx5__ops14_Iter_less_valclINS_17__normal_iteratorIPN8facebook5velox9functions12_GLOBAL__N_16MapKeyESt6vectorIS8_SaIS8_EEEEKS8_EEbT_RT0_.exit.i.i.i.i.i.i.i.i
  %__len.010.i.i.i.i.i.i.i.i = phi i64 [ %__len.1.i.i.i.i.i.i.i.i, %_ZNK9__gnu_cxx5__ops14_Iter_less_valclINS_17__normal_iteratorIPN8facebook5velox9functions12_GLOBAL__N_16MapKeyESt6vectorIS8_SaIS8_EEEEKS8_EEbT_RT0_.exit.i.i.i.i.i.i.i.i ], [ %sub.ptr.div.i.i.i.i.i.i.i.i.i.i.i, %if.end.i.i.i.i.i.i ]
  %__first.sroa.0.09.i.i.i.i.i.i.i.i = phi ptr [ %__first.sroa.0.1.i.i.i.i.i.i.i.i, %_ZNK9__gnu_cxx5__ops14_Iter_less_valclINS_17__normal_iteratorIPN8facebook5velox9functions12_GLOBAL__N_16MapKeyESt6vectorIS8_SaIS8_EEEEKS8_EEbT_RT0_.exit.i.i.i.i.i.i.i.i ], [ %.val7.i.i.i.i.i.i, %if.end.i.i.i.i.i.i ]
  %shr.i.i.i.i.i.i.i.i = lshr i64 %__len.010.i.i.i.i.i.i.i.i, 1
  %storemerge.i.i.i.i.i.i.i.i.i.i = getelementptr inbounds %"struct.facebook::velox::functions::(anonymous namespace)::MapKey", ptr %__first.sroa.0.09.i.i.i.i.i.i.i.i, i64 %shr.i.i.i.i.i.i.i.i
  %call.val.i.i.i.i.i.i.i.i.i = load ptr, ptr %storemerge.i.i.i.i.i.i.i.i.i.i, align 8
  %138 = getelementptr i8, ptr %storemerge.i.i.i.i.i.i.i.i.i.i, i64 8
  %call.val1.i.i.i.i.i.i.i.i.i = load i32, ptr %138, align 8
  %vtable.i.i.i.i.i.i.i.i.i.i.i = load ptr, ptr %call.val.i.i.i.i.i.i.i.i.i, align 8
  %vfn.i.i.i.i.i.i.i.i.i.i.i = getelementptr inbounds ptr, ptr %vtable.i.i.i.i.i.i.i.i.i.i.i, i64 10
  %139 = load ptr, ptr %vfn.i.i.i.i.i.i.i.i.i.i.i, align 8
  %call.i.i.i.i.i.i.i.i.i.i109.i = invoke i64 %139(ptr noundef nonnull align 8 dereferenceable(99) %call.val.i.i.i.i.i.i.i.i.i, ptr noundef %137, i32 noundef %call.val1.i.i.i.i.i.i.i.i.i, i32 noundef %136, i64 257)
          to label %call.i.i.i.i.i.i.i.i.i.i.noexc.i unwind label %lpad46.loopexit.split-lp.loopexit.split-lp.loopexit.i

call.i.i.i.i.i.i.i.i.i.i.noexc.i:                 ; preds = %while.body.i.i.i.i.i.i.i.i
  %140 = and i64 %call.i.i.i.i.i.i.i.i.i.i109.i, 4294967296
  %tobool.i.not.i.i.i.i.i.i.i.i.i.i.i.i = icmp eq i64 %140, 0
  br i1 %tobool.i.not.i.i.i.i.i.i.i.i.i.i.i.i, label %if.end.i.i.i.i.i.i.i.i.i.i.i.i, label %_ZNK9__gnu_cxx5__ops14_Iter_less_valclINS_17__normal_iteratorIPN8facebook5velox9functions12_GLOBAL__N_16MapKeyESt6vectorIS8_SaIS8_EEEEKS8_EEbT_RT0_.exit.i.i.i.i.i.i.i.i

if.end.i.i.i.i.i.i.i.i.i.i.i.i:                   ; preds = %call.i.i.i.i.i.i.i.i.i.i.noexc.i
  invoke void @_ZSt27__throw_bad_optional_accessv() #28
          to label %.noexc110.i unwind label %lpad46.loopexit.split-lp.loopexit.split-lp.loopexit.split-lp.loopexit.split-lp.loopexit.split-lp.loopexit.split-lp.loopexit.split-lp.loopexit.split-lp.i

.noexc110.i:                                      ; preds = %if.end.i.i.i.i.i.i.i.i.i.i.i.i
  unreachable

_ZNK9__gnu_cxx5__ops14_Iter_less_valclINS_17__normal_iteratorIPN8facebook5velox9functions12_GLOBAL__N_16MapKeyESt6vectorIS8_SaIS8_EEEEKS8_EEbT_RT0_.exit.i.i.i.i.i.i.i.i: ; preds = %call.i.i.i.i.i.i.i.i.i.i.noexc.i
  %141 = and i64 %call.i.i.i.i.i.i.i.i.i.i109.i, 2147483648
  %cmp.i.i6.not.i.i.i.i.i.i.i.i = icmp eq i64 %141, 0
  %incdec.ptr.i.i.i.i.i.i.i.i.i = getelementptr inbounds %"struct.facebook::velox::functions::(anonymous namespace)::MapKey", ptr %storemerge.i.i.i.i.i.i.i.i.i.i, i64 1
  %142 = xor i64 %shr.i.i.i.i.i.i.i.i, -1
  %sub9.i.i.i.i.i.i.i.i = add nsw i64 %__len.010.i.i.i.i.i.i.i.i, %142
  %__first.sroa.0.1.i.i.i.i.i.i.i.i = select i1 %cmp.i.i6.not.i.i.i.i.i.i.i.i, ptr %__first.sroa.0.09.i.i.i.i.i.i.i.i, ptr %incdec.ptr.i.i.i.i.i.i.i.i.i
  %__len.1.i.i.i.i.i.i.i.i = select i1 %cmp.i.i6.not.i.i.i.i.i.i.i.i, i64 %shr.i.i.i.i.i.i.i.i, i64 %sub9.i.i.i.i.i.i.i.i
  %cmp.i.i.i.i.i.i.i.i = icmp sgt i64 %__len.1.i.i.i.i.i.i.i.i, 0
  br i1 %cmp.i.i.i.i.i.i.i.i, label %while.body.i.i.i.i.i.i.i.i, label %_ZSt11lower_boundIN9__gnu_cxx17__normal_iteratorIPN8facebook5velox9functions12_GLOBAL__N_16MapKeyESt6vectorIS6_SaIS6_EEEES6_ET_SC_SC_RKT0_.exit.loopexit.i.i.i.i.i.i, !llvm.loop !19

_ZSt11lower_boundIN9__gnu_cxx17__normal_iteratorIPN8facebook5velox9functions12_GLOBAL__N_16MapKeyESt6vectorIS6_SaIS6_EEEES6_ET_SC_SC_RKT0_.exit.loopexit.i.i.i.i.i.i: ; preds = %_ZNK9__gnu_cxx5__ops14_Iter_less_valclINS_17__normal_iteratorIPN8facebook5velox9functions12_GLOBAL__N_16MapKeyESt6vectorIS8_SaIS8_EEEEKS8_EEbT_RT0_.exit.i.i.i.i.i.i.i.i
  %.val.pre.i.i.i.i.i.i = load ptr, ptr %122, align 8
  br label %_ZSt11lower_boundIN9__gnu_cxx17__normal_iteratorIPN8facebook5velox9functions12_GLOBAL__N_16MapKeyESt6vectorIS6_SaIS6_EEEES6_ET_SC_SC_RKT0_.exit.i.i.i.i.i.i

_ZSt11lower_boundIN9__gnu_cxx17__normal_iteratorIPN8facebook5velox9functions12_GLOBAL__N_16MapKeyESt6vectorIS6_SaIS6_EEEES6_ET_SC_SC_RKT0_.exit.i.i.i.i.i.i: ; preds = %_ZSt11lower_boundIN9__gnu_cxx17__normal_iteratorIPN8facebook5velox9functions12_GLOBAL__N_16MapKeyESt6vectorIS6_SaIS6_EEEES6_ET_SC_SC_RKT0_.exit.loopexit.i.i.i.i.i.i, %if.end.i.i.i.i.i.i
  %.val.i.i.i.i.i.i = phi ptr [ %.val6.i.i.i.i.i.i, %if.end.i.i.i.i.i.i ], [ %.val.pre.i.i.i.i.i.i, %_ZSt11lower_boundIN9__gnu_cxx17__normal_iteratorIPN8facebook5velox9functions12_GLOBAL__N_16MapKeyESt6vectorIS6_SaIS6_EEEES6_ET_SC_SC_RKT0_.exit.loopexit.i.i.i.i.i.i ]
  %__first.sroa.0.0.lcssa.i.i.i.i.i.i.i.i = phi ptr [ %.val7.i.i.i.i.i.i, %if.end.i.i.i.i.i.i ], [ %__first.sroa.0.1.i.i.i.i.i.i.i.i, %_ZSt11lower_boundIN9__gnu_cxx17__normal_iteratorIPN8facebook5velox9functions12_GLOBAL__N_16MapKeyESt6vectorIS6_SaIS6_EEEES6_ET_SC_SC_RKT0_.exit.loopexit.i.i.i.i.i.i ]
  %cmp.i.not.i.i.i.i.i.i = icmp eq ptr %__first.sroa.0.0.lcssa.i.i.i.i.i.i.i.i, %.val.i.i.i.i.i.i
  br i1 %cmp.i.not.i.i.i.i.i.i, label %if.then26.i.i.i.i.i.i, label %if.then15.i.i.i.i.i.i

if.then15.i.i.i.i.i.i:                            ; preds = %_ZSt11lower_boundIN9__gnu_cxx17__normal_iteratorIPN8facebook5velox9functions12_GLOBAL__N_16MapKeyESt6vectorIS6_SaIS6_EEEES6_ET_SC_SC_RKT0_.exit.i.i.i.i.i.i
  %143 = load ptr, ptr %126, align 8
  %144 = load ptr, ptr %124, align 8
  %baseIndex17.i.i.i.i.i.i = getelementptr inbounds %"struct.facebook::velox::functions::(anonymous namespace)::MapKey", ptr %__first.sroa.0.0.lcssa.i.i.i.i.i.i.i.i, i64 0, i32 1
  %145 = load i32, ptr %baseIndex17.i.i.i.i.i.i, align 8
  %vtable.i.i.i.i.i.i = load ptr, ptr %143, align 8
  %vfn.i.i.i.i.i.i = getelementptr inbounds ptr, ptr %vtable.i.i.i.i.i.i, i64 8
  %146 = load ptr, ptr %vfn.i.i.i.i.i.i, align 8
  %call18.i.i.i.i.i111.i = invoke noundef zeroext i1 %146(ptr noundef nonnull align 8 dereferenceable(99) %143, ptr noundef %144, i32 noundef %145, i32 noundef %136)
          to label %call18.i.i.i.i.i.noexc.i unwind label %lpad46.loopexit.split-lp.loopexit.split-lp.loopexit.split-lp.loopexit.i

call18.i.i.i.i.i.noexc.i:                         ; preds = %if.then15.i.i.i.i.i.i
  br i1 %call18.i.i.i.i.i111.i, label %if.then19.i.i.i.i.i.i, label %if.then26.i.i.i.i.i.i

if.then19.i.i.i.i.i.i:                            ; preds = %call18.i.i.i.i.i.noexc.i
  %index21.i.i.i.i.i.i = getelementptr inbounds %"struct.facebook::velox::functions::(anonymous namespace)::MapKey", ptr %__first.sroa.0.0.lcssa.i.i.i.i.i.i.i.i, i64 0, i32 2
  %147 = load i32, ptr %index21.i.i.i.i.i.i, align 4
  %148 = load ptr, ptr %128, align 8
  %arrayidx23.i.i.i.i.i.i = getelementptr inbounds i32, ptr %148, i64 %idxprom.i.i.i.i.i.i
  store i32 %147, ptr %arrayidx23.i.i.i.i.i.i, align 4
  br label %"_ZZN8facebook5velox9functions12_GLOBAL__N_119applyMapComplexTypeERKNS0_17SelectivityVectorERKSt10shared_ptrINS0_10BaseVectorEESA_RNS0_4exec7EvalCtxEENK3$_0clEi.exit.i.i.i.i.i"

if.then26.i.i.i.i.i.i:                            ; preds = %call18.i.i.i.i.i.noexc.i, %_ZSt11lower_boundIN9__gnu_cxx17__normal_iteratorIPN8facebook5velox9functions12_GLOBAL__N_16MapKeyESt6vectorIS6_SaIS6_EEEES6_ET_SC_SC_RKT0_.exit.i.i.i.i.i.i
  invoke void @_ZN8facebook5velox12NullsBuilder7setNullEi(ptr noundef nonnull align 8 dereferenceable(32) %130, i32 noundef %add10.i.i.i.i.i.i)
          to label %"_ZZN8facebook5velox9functions12_GLOBAL__N_119applyMapComplexTypeERKNS0_17SelectivityVectorERKSt10shared_ptrINS0_10BaseVectorEESA_RNS0_4exec7EvalCtxEENK3$_0clEi.exit.i.i.i.i.i" unwind label %lpad46.loopexit.split-lp.loopexit.split-lp.loopexit.split-lp.loopexit.i

"_ZZN8facebook5velox9functions12_GLOBAL__N_119applyMapComplexTypeERKNS0_17SelectivityVectorERKSt10shared_ptrINS0_10BaseVectorEESA_RNS0_4exec7EvalCtxEENK3$_0clEi.exit.i.i.i.i.i": ; preds = %if.then26.i.i.i.i.i.i, %if.then19.i.i.i.i.i.i
  %sub.i59.i.i.i.i.i = add i64 %word.013.i.i.i.i.i.i, -1
  %and.i60.i.i.i.i.i = and i64 %sub.i59.i.i.i.i.i, %word.013.i.i.i.i.i.i
  %tobool8.not.i.i.i.i.i.i = icmp eq i64 %and.i60.i.i.i.i.i, 0
  br i1 %tobool8.not.i.i.i.i.i.i, label %"_ZZN8facebook5velox4bits10forEachBitIZNS0_9functions12_GLOBAL__N_119applyMapComplexTypeERKNS0_17SelectivityVectorERKSt10shared_ptrINS0_10BaseVectorEESC_RNS0_4exec7EvalCtxEE3$_0EEvPKmiibT_ENKUliE_clEi.exit.i.i.i.i.i", label %while.body.i57.i.i.i.i.i, !llvm.loop !20

"_ZZN8facebook5velox4bits10forEachBitIZNS0_9functions12_GLOBAL__N_119applyMapComplexTypeERKNS0_17SelectivityVectorERKSt10shared_ptrINS0_10BaseVectorEESC_RNS0_4exec7EvalCtxEE3$_0EEvPKmiibT_ENKUliE_clEi.exit.i.i.i.i.i": ; preds = %.noexc108.i, %"_ZZN8facebook5velox9functions12_GLOBAL__N_119applyMapComplexTypeERKNS0_17SelectivityVectorERKSt10shared_ptrINS0_10BaseVectorEESA_RNS0_4exec7EvalCtxEENK3$_0clEi.exit.i.i.i.i.i", %if.then.i.i.i.i.i102.i, %for.body.i.i.i5.i.i
  %add.i.i.i.i.i = add nsw i32 %add88.i.i.i.i.i, 64
  %cmp15.not.i.i.i.i.i = icmp sgt i32 %add.i.i.i.i.i, %112
  br i1 %cmp15.not.i.i.i.i.i, label %for.end.i.i.i6.i.i, label %for.body.i.i.i5.i.i, !llvm.loop !21

for.end.i.i.i6.i.i:                               ; preds = %"_ZZN8facebook5velox4bits10forEachBitIZNS0_9functions12_GLOBAL__N_119applyMapComplexTypeERKNS0_17SelectivityVectorERKSt10shared_ptrINS0_10BaseVectorEESC_RNS0_4exec7EvalCtxEE3$_0EEvPKmiibT_ENKUliE_clEi.exit.i.i.i.i.i", %if.end14.i.i.i.i.i
  %cmp18.not.i.i.i.i.i = icmp eq i32 %112, %110
  br i1 %cmp18.not.i.i.i.i.i, label %"_ZN8facebook5velox4bits13forEachSetBitIZNS0_9functions12_GLOBAL__N_119applyMapComplexTypeERKNS0_17SelectivityVectorERKSt10shared_ptrINS0_10BaseVectorEESC_RNS0_4exec7EvalCtxEE3$_0EEvPKmiiT_.exit.i.i", label %if.then19.i.i.i.i.i

if.then19.i.i.i.i.i:                              ; preds = %for.end.i.i.i6.i.i
  %div20.i.i.i.i.i = ashr i32 %110, 6
  %sub21.i.i.i.i.i = and i32 %110, 63
  %sh_prom.i61.i.i.i.i.i = zext nneg i32 %sub21.i.i.i.i.i to i64
  %notmask.i62.i.i.i.i.i = shl nsw i64 -1, %sh_prom.i61.i.i.i.i.i
  %sub.i63.i.i.i.i.i = xor i64 %notmask.i62.i.i.i.i.i, -1
  %idxprom2.i64.i.i.i.i.i = sext i32 %div20.i.i.i.i.i to i64
  %arrayidx3.i65.i.i.i.i.i = getelementptr inbounds i64, ptr %108, i64 %idxprom2.i64.i.i.i.i.i
  %149 = load i64, ptr %arrayidx3.i65.i.i.i.i.i, align 8
  %and.i69.i.i.i.i.i = and i64 %149, %sub.i63.i.i.i.i.i
  %tobool4.not.i70.i.i.i.i.i = icmp eq i64 %and.i69.i.i.i.i.i, 0
  br i1 %tobool4.not.i70.i.i.i.i.i, label %"_ZN8facebook5velox4bits13forEachSetBitIZNS0_9functions12_GLOBAL__N_119applyMapComplexTypeERKNS0_17SelectivityVectorERKSt10shared_ptrINS0_10BaseVectorEESC_RNS0_4exec7EvalCtxEE3$_0EEvPKmiiT_.exit.i.i", label %while.body.i73.i.i.i.i.i

while.body.i73.i.i.i.i.i:                         ; preds = %if.then19.i.i.i.i.i, %.noexc113.i
  %word.0.i74.i.i.i.i.i = phi i64 [ %and6.i78.i.i.i.i.i, %.noexc113.i ], [ %and.i69.i.i.i.i.i, %if.then19.i.i.i.i.i ]
  %150 = call i64 @llvm.cttz.i64(i64 %word.0.i74.i.i.i.i.i, i1 true), !range !17
  %cast.i75.i.i.i.i.i = trunc i64 %150 to i32
  %add.i76.i.i.i.i.i = or disjoint i32 %112, %cast.i75.i.i.i.i.i
  invoke fastcc void @"_ZZN8facebook5velox9functions12_GLOBAL__N_119applyMapComplexTypeERKNS0_17SelectivityVectorERKSt10shared_ptrINS0_10BaseVectorEESA_RNS0_4exec7EvalCtxEENK3$_0clEi"(ptr noundef nonnull align 8 dereferenceable(56) %agg.tmp.sroa.3.0.agg.tmp3.sroa_idx.i.i.i.i, i32 noundef %add.i76.i.i.i.i.i)
          to label %.noexc113.i unwind label %lpad46.loopexit.split-lp.loopexit.i

.noexc113.i:                                      ; preds = %while.body.i73.i.i.i.i.i
  %sub.i77.i.i.i.i.i = add nsw i64 %word.0.i74.i.i.i.i.i, -1
  %and6.i78.i.i.i.i.i = and i64 %sub.i77.i.i.i.i.i, %word.0.i74.i.i.i.i.i
  %tobool5.old.not.i79.i.i.i.i.i = icmp eq i64 %and6.i78.i.i.i.i.i, 0
  br i1 %tobool5.old.not.i79.i.i.i.i.i, label %"_ZN8facebook5velox4bits13forEachSetBitIZNS0_9functions12_GLOBAL__N_119applyMapComplexTypeERKNS0_17SelectivityVectorERKSt10shared_ptrINS0_10BaseVectorEESC_RNS0_4exec7EvalCtxEE3$_0EEvPKmiiT_.exit.i.i", label %while.body.i73.i.i.i.i.i

"_ZN8facebook5velox4bits13forEachSetBitIZNS0_9functions12_GLOBAL__N_119applyMapComplexTypeERKNS0_17SelectivityVectorERKSt10shared_ptrINS0_10BaseVectorEESC_RNS0_4exec7EvalCtxEE3$_0EEvPKmiiT_.exit.i.i": ; preds = %.noexc113.i, %.noexc106.i, %if.then19.i.i.i.i.i, %for.end.i.i.i6.i.i, %if.then3.i.i.i.i.i, %if.else.i99.i
  call void @llvm.lifetime.end.p0(i64 72, ptr nonnull %agg.tmp3.i.i.i.i), !noalias !4
  call void @llvm.lifetime.end.p0(i64 72, ptr nonnull %agg.tmp24.i.i.i.i), !noalias !4
  br label %invoke.cont57.i

invoke.cont57.i:                                  ; preds = %.noexc105.i, %"_ZN8facebook5velox4bits13forEachSetBitIZNS0_9functions12_GLOBAL__N_119applyMapComplexTypeERKNS0_17SelectivityVectorERKSt10shared_ptrINS0_10BaseVectorEESC_RNS0_4exec7EvalCtxEE3$_0EEvPKmiiT_.exit.i.i", %if.then.i94.i
  call void @llvm.lifetime.end.p0(i64 56, ptr nonnull %agg.tmp93.i), !noalias !4
  %sortedKeys.val36.i = load ptr, ptr %sortedKeys.i, align 8, !noalias !4
  %tobool.not.i.i.i115.i = icmp eq ptr %sortedKeys.val36.i, null
  br i1 %tobool.not.i.i.i115.i, label %_ZNSt6vectorIN8facebook5velox9functions12_GLOBAL__N_16MapKeyESaIS4_EED2Ev.exit117.i, label %if.then.i.i.i116.i

if.then.i.i.i116.i:                               ; preds = %invoke.cont57.i
  call void @_ZdlPv(ptr noundef nonnull %sortedKeys.val36.i) #29
  br label %_ZNSt6vectorIN8facebook5velox9functions12_GLOBAL__N_16MapKeyESaIS4_EED2Ev.exit117.i

_ZNSt6vectorIN8facebook5velox9functions12_GLOBAL__N_16MapKeyESaIS4_EED2Ev.exit117.i: ; preds = %if.then.i.i.i116.i, %invoke.cont57.i
  %151 = load ptr, ptr %sortedKeyIndices.i, align 8, !noalias !4
  %tobool.not.i.i.i119.i = icmp eq ptr %151, null
  br i1 %tobool.not.i.i.i119.i, label %if.end.i, label %if.then.i.i.i120.i

if.then.i.i.i120.i:                               ; preds = %_ZNSt6vectorIN8facebook5velox9functions12_GLOBAL__N_16MapKeyESaIS4_EED2Ev.exit117.i
  call void @_ZdlPv(ptr noundef nonnull %151) #29
  br label %if.end.i

if.else.i:                                        ; preds = %invoke.cont39.i
  %allSelected_.i.i123.i = getelementptr inbounds %"class.facebook::velox::SelectivityVector", ptr %rows, i64 0, i32 4
  %_M_engaged.i.i.i.i124.i = getelementptr inbounds %"class.facebook::velox::SelectivityVector", ptr %rows, i64 0, i32 4, i32 0, i32 0, i32 0, i32 1
  %152 = load i8, ptr %_M_engaged.i.i.i.i124.i, align 1, !noalias !4
  %153 = and i8 %152, 1
  %tobool.i.i.not.i.i125.i = icmp eq i8 %153, 0
  br i1 %tobool.i.i.not.i.i125.i, label %if.end.i.i198.i, label %entry.return_crit_edge.i.i126.i

entry.return_crit_edge.i.i126.i:                  ; preds = %if.else.i
  %retval.0.in.in.pre.i.i127.i = load i8, ptr %allSelected_.i.i123.i, align 4, !noalias !4
  br label %_ZNK8facebook5velox17SelectivityVector13isAllSelectedEv.exit.i128.i

if.end.i.i198.i:                                  ; preds = %if.else.i
  %begin_.i.i199.i = getelementptr inbounds %"class.facebook::velox::SelectivityVector", ptr %rows, i64 0, i32 2
  %154 = load i32, ptr %begin_.i.i199.i, align 4, !noalias !4
  %cmp.i.i200.i = icmp eq i32 %154, 0
  br i1 %cmp.i.i200.i, label %land.lhs.true.i.i203.i, label %land.end.i.i201.i

land.lhs.true.i.i203.i:                           ; preds = %if.end.i.i198.i
  %155 = load i32, ptr %end_.i.i, align 8, !noalias !4
  %size_.i.i205.i = getelementptr inbounds %"class.facebook::velox::SelectivityVector", ptr %rows, i64 0, i32 1
  %156 = load i32, ptr %size_.i.i205.i, align 8, !noalias !4
  %cmp5.i.i206.i = icmp eq i32 %155, %156
  br i1 %cmp5.i.i206.i, label %land.rhs.i.i207.i, label %land.end.i.i201.i

land.rhs.i.i207.i:                                ; preds = %land.lhs.true.i.i203.i
  %157 = load ptr, ptr %rows, align 8, !noalias !4
  %cmp.not.i.i.i208.i = icmp sgt i32 %155, 0
  br i1 %cmp.not.i.i.i208.i, label %if.end.i.i.i.i209.i, label %land.end.i.i201.i

if.end.i.i.i.i209.i:                              ; preds = %land.rhs.i.i207.i
  %158 = and i32 %155, 2147483584
  %159 = zext nneg i32 %158 to i64
  br label %for.cond.i.i.i.i210.i

for.cond.i.i.i.i210.i:                            ; preds = %for.body.i.i.i.i214.i, %if.end.i.i.i.i209.i
  %indvars.iv.i.i211.i = phi i64 [ %indvars.iv.next.i.i212.i, %for.body.i.i.i.i214.i ], [ 0, %if.end.i.i.i.i209.i ]
  %indvars.iv.next.i.i212.i = add nuw nsw i64 %indvars.iv.i.i211.i, 64
  %cmp19.not.i.i.i.i213.i = icmp ugt i64 %indvars.iv.next.i.i212.i, %159
  br i1 %cmp19.not.i.i.i.i213.i, label %for.end.i.i.i.i217.i, label %for.body.i.i.i.i214.i

for.body.i.i.i.i214.i:                            ; preds = %for.cond.i.i.i.i210.i
  %160 = lshr exact i64 %indvars.iv.i.i211.i, 6
  %arrayidx.i35.i.i.i.i215.i = getelementptr inbounds i64, ptr %157, i64 %160
  %161 = load i64, ptr %arrayidx.i35.i.i.i.i215.i, align 8
  %cmp.i36.i.i.i.i216.i = icmp eq i64 %161, -1
  br i1 %cmp.i36.i.i.i.i216.i, label %for.cond.i.i.i.i210.i, label %land.end.i.i201.i, !llvm.loop !14

for.end.i.i.i.i217.i:                             ; preds = %for.cond.i.i.i.i210.i
  %cmp25.not.i.i.i.i218.i = icmp eq i32 %158, %155
  br i1 %cmp25.not.i.i.i.i218.i, label %land.end.i.i201.i, label %if.then26.i.i.i.i219.i

if.then26.i.i.i.i219.i:                           ; preds = %for.end.i.i.i.i217.i
  %div27.i.i.i.i220.i = lshr i32 %155, 6
  %sub28.i.i.i.i221.i = and i32 %155, 63
  %sh_prom.i37.i.i.i.i222.i = zext nneg i32 %sub28.i.i.i.i221.i to i64
  %notmask.i38.i.i.i.i223.i = shl nsw i64 -1, %sh_prom.i37.i.i.i.i222.i
  %idxprom.i40.i.i.i.i224.i = zext nneg i32 %div27.i.i.i.i220.i to i64
  %arrayidx.i41.i.i.i.i225.i = getelementptr inbounds i64, ptr %157, i64 %idxprom.i40.i.i.i.i224.i
  %162 = load i64, ptr %arrayidx.i41.i.i.i.i225.i, align 8
  %.demorgan.i.i226.i = or i64 %162, %notmask.i38.i.i.i.i223.i
  %cmp.i42.i.i.i.i227.i = icmp eq i64 %.demorgan.i.i226.i, -1
  %163 = zext i1 %cmp.i42.i.i.i.i227.i to i16
  %164 = or disjoint i16 %163, 256
  br label %land.end.i.i201.i

land.end.i.i201.i:                                ; preds = %for.body.i.i.i.i214.i, %if.then26.i.i.i.i219.i, %for.end.i.i.i.i217.i, %land.rhs.i.i207.i, %land.lhs.true.i.i203.i, %if.end.i.i198.i
  %frombool.i.i202.i = phi i16 [ 256, %land.lhs.true.i.i203.i ], [ 256, %if.end.i.i198.i ], [ 257, %land.rhs.i.i207.i ], [ 257, %for.end.i.i.i.i217.i ], [ %164, %if.then26.i.i.i.i219.i ], [ 256, %for.body.i.i.i.i214.i ]
  store i16 %frombool.i.i202.i, ptr %allSelected_.i.i123.i, align 4, !noalias !4
  %165 = trunc i16 %frombool.i.i202.i to i8
  br label %_ZNK8facebook5velox17SelectivityVector13isAllSelectedEv.exit.i128.i

_ZNK8facebook5velox17SelectivityVector13isAllSelectedEv.exit.i128.i: ; preds = %land.end.i.i201.i, %entry.return_crit_edge.i.i126.i
  %retval.0.in.in.i.i129.i = phi i8 [ %retval.0.in.in.pre.i.i127.i, %entry.return_crit_edge.i.i126.i ], [ %165, %land.end.i.i201.i ]
  %retval.0.in.i.i130.i = and i8 %retval.0.in.in.i.i129.i, 1
  %retval.0.i.not.i131.i = icmp eq i8 %retval.0.in.i.i130.i, 0
  br i1 %retval.0.i.not.i131.i, label %if.else.i141.i, label %if.then.i132.i

if.then.i132.i:                                   ; preds = %_ZNK8facebook5velox17SelectivityVector13isAllSelectedEv.exit.i128.i
  %begin_.i133.i = getelementptr inbounds %"class.facebook::velox::SelectivityVector", ptr %rows, i64 0, i32 2
  %166 = load i32, ptr %begin_.i133.i, align 4, !noalias !4
  %167 = load i32, ptr %end_.i.i, align 8, !noalias !4
  %cmp18.i.i = icmp slt i32 %166, %167
  br i1 %cmp18.i.i, label %for.body.lr.ph.i.i, label %if.end.i

for.body.lr.ph.i.i:                               ; preds = %if.then.i132.i
  %168 = sext i32 %166 to i64
  br label %for.body.i136.i

for.body.i136.i:                                  ; preds = %"_ZZN8facebook5velox9functions12_GLOBAL__N_119applyMapComplexTypeERKNS0_17SelectivityVectorERKSt10shared_ptrINS0_10BaseVectorEESA_RNS0_4exec7EvalCtxEENK3$_1clEi.exit.i.i", %for.body.lr.ph.i.i
  %indvars.iv.i.i = phi i64 [ %168, %for.body.lr.ph.i.i ], [ %indvars.iv.next.i.i, %"_ZZN8facebook5velox9functions12_GLOBAL__N_119applyMapComplexTypeERKNS0_17SelectivityVectorERKSt10shared_ptrINS0_10BaseVectorEESA_RNS0_4exec7EvalCtxEENK3$_1clEi.exit.i.i" ]
  %169 = load ptr, ptr %mapIndices.i, align 8, !noalias !4
  %arrayidx.i.i.i = getelementptr inbounds i32, ptr %169, i64 %indvars.iv.i.i
  %170 = load i32, ptr %arrayidx.i.i.i, align 4
  %conv.i.i.i = sext i32 %170 to i64
  %arrayidx2.i.i.i = getelementptr inbounds i32, ptr %71, i64 %conv.i.i.i
  %171 = load i32, ptr %arrayidx2.i.i.i, align 4
  %arrayidx4.i.i.i = getelementptr inbounds i32, ptr %72, i64 %conv.i.i.i
  %172 = load i32, ptr %arrayidx4.i.i.i, align 4
  %conv5.i.i.i = sext i32 %172 to i64
  %173 = load ptr, ptr %searchIndices.i, align 8, !noalias !4
  %arrayidx7.i.i.i = getelementptr inbounds i32, ptr %173, i64 %indvars.iv.i.i
  %174 = load i32, ptr %arrayidx7.i.i.i, align 4
  %cmp9.not.i.i.i = icmp eq i32 %171, 0
  br i1 %cmp9.not.i.i.i, label %if.then16.i.i.i, label %for.body.lr.ph.i.i.i

for.body.lr.ph.i.i.i:                             ; preds = %for.body.i136.i
  %wide.trip.count.i.i.i = zext i32 %171 to i64
  br label %for.body.i.i.i

for.cond.i.i.i:                                   ; preds = %call.i.i.noexc.i
  %indvars.iv.next.i4.i.i = add nuw nsw i64 %indvars.iv.i3.i.i, 1
  %exitcond.not.i.i.i = icmp eq i64 %indvars.iv.next.i4.i.i, %wide.trip.count.i.i.i
  br i1 %exitcond.not.i.i.i, label %if.then16.i.i.i, label %for.body.i.i.i, !llvm.loop !22

for.body.i.i.i:                                   ; preds = %for.cond.i.i.i, %for.body.lr.ph.i.i.i
  %indvars.iv.i3.i.i = phi i64 [ 0, %for.body.lr.ph.i.i.i ], [ %indvars.iv.next.i4.i.i, %for.cond.i.i.i ]
  %175 = load ptr, ptr %mapKeysBase.i, align 8, !noalias !4
  %176 = load ptr, ptr %searchBase.i, align 8, !noalias !4
  %add.i.i.i = add nsw i64 %indvars.iv.i3.i.i, %conv5.i.i.i
  %arrayidx10.i.i.i = getelementptr inbounds i32, ptr %64, i64 %add.i.i.i
  %177 = load i32, ptr %arrayidx10.i.i.i, align 4
  %vtable.i.i137.i = load ptr, ptr %175, align 8
  %vfn.i.i138.i = getelementptr inbounds ptr, ptr %vtable.i.i137.i, i64 8
  %178 = load ptr, ptr %vfn.i.i138.i, align 8
  %call.i.i228.i = invoke noundef zeroext i1 %178(ptr noundef nonnull align 8 dereferenceable(99) %175, ptr noundef %176, i32 noundef %177, i32 noundef %174)
          to label %call.i.i.noexc.i unwind label %lpad35.loopexit.split-lp.loopexit.split-lp.loopexit.split-lp.loopexit.split-lp.loopexit.split-lp.loopexit.split-lp.loopexit.split-lp.loopexit.split-lp.loopexit.split-lp.loopexit.split-lp.loopexit.i

call.i.i.noexc.i:                                 ; preds = %for.body.i.i.i
  br i1 %call.i.i228.i, label %if.then.i.i140.i, label %for.cond.i.i.i

if.then.i.i140.i:                                 ; preds = %call.i.i.noexc.i
  %conv13.i.i.i = trunc i64 %add.i.i.i to i32
  %179 = load ptr, ptr %rawIndices.i, align 8, !noalias !4
  %arrayidx15.i.i.i = getelementptr inbounds i32, ptr %179, i64 %indvars.iv.i.i
  store i32 %conv13.i.i.i, ptr %arrayidx15.i.i.i, align 4
  br label %"_ZZN8facebook5velox9functions12_GLOBAL__N_119applyMapComplexTypeERKNS0_17SelectivityVectorERKSt10shared_ptrINS0_10BaseVectorEESA_RNS0_4exec7EvalCtxEENK3$_1clEi.exit.i.i"

if.then16.i.i.i:                                  ; preds = %for.cond.i.i.i, %for.body.i136.i
  %180 = trunc i64 %indvars.iv.i.i to i32
  invoke void @_ZN8facebook5velox12NullsBuilder7setNullEi(ptr noundef nonnull align 8 dereferenceable(32) %nullsBuilder.i, i32 noundef %180)
          to label %"_ZZN8facebook5velox9functions12_GLOBAL__N_119applyMapComplexTypeERKNS0_17SelectivityVectorERKSt10shared_ptrINS0_10BaseVectorEESA_RNS0_4exec7EvalCtxEENK3$_1clEi.exit.i.i" unwind label %lpad35.loopexit.split-lp.loopexit.split-lp.loopexit.split-lp.loopexit.split-lp.loopexit.split-lp.loopexit.split-lp.loopexit.split-lp.loopexit.split-lp.loopexit.split-lp.loopexit.split-lp.loopexit.split-lp.loopexit.i

"_ZZN8facebook5velox9functions12_GLOBAL__N_119applyMapComplexTypeERKNS0_17SelectivityVectorERKSt10shared_ptrINS0_10BaseVectorEESA_RNS0_4exec7EvalCtxEENK3$_1clEi.exit.i.i": ; preds = %if.then16.i.i.i, %if.then.i.i140.i
  %indvars.iv.next.i.i = add nsw i64 %indvars.iv.i.i, 1
  %181 = load i32, ptr %end_.i.i, align 8, !noalias !4
  %182 = sext i32 %181 to i64
  %cmp.i139.i = icmp slt i64 %indvars.iv.next.i.i, %182
  br i1 %cmp.i139.i, label %for.body.i136.i, label %if.end.i, !llvm.loop !23

if.else.i141.i:                                   ; preds = %_ZNK8facebook5velox17SelectivityVector13isAllSelectedEv.exit.i128.i
  %183 = load ptr, ptr %rows, align 8, !noalias !4
  %begin_3.i142.i = getelementptr inbounds %"class.facebook::velox::SelectivityVector", ptr %rows, i64 0, i32 2
  %184 = load i32, ptr %begin_3.i142.i, align 4, !noalias !4
  %185 = load i32, ptr %end_.i.i, align 8, !noalias !4
  %cmp.not.i.i.i.i144.i = icmp slt i32 %184, %185
  br i1 %cmp.not.i.i.i.i144.i, label %if.end.i.i.i6.i.i, label %if.end.i

if.end.i.i.i6.i.i:                                ; preds = %if.else.i141.i
  %add.i.i.i.i.i145.i = add i32 %184, 63
  %186 = srem i32 %add.i.i.i.i.i145.i, 64
  %mul.i.i.i.i.i146.i = sub nsw i32 %add.i.i.i.i.i145.i, %186
  %187 = and i32 %185, -64
  %cmp2.i.i.i.i147.i = icmp slt i32 %187, %mul.i.i.i.i.i146.i
  br i1 %cmp2.i.i.i.i147.i, label %if.then3.i.i.i.i184.i, label %if.end8.i.i.i.i148.i

if.then3.i.i.i.i184.i:                            ; preds = %if.end.i.i.i6.i.i
  %div.i.i.i.i185.i = ashr i32 %185, 6
  %sub.i.i.i.i186.i = and i32 %185, 63
  %sh_prom.i.i.i.i.i187.i = zext nneg i32 %sub.i.i.i.i186.i to i64
  %notmask.i.i.i.i.i188.i = shl nsw i64 -1, %sh_prom.i.i.i.i.i187.i
  %sub.i22.i.i.i.i189.i = xor i64 %notmask.i.i.i.i.i188.i, -1
  %sub5.i.i.i.i190.i = sub nsw i32 %mul.i.i.i.i.i146.i, %184
  %sh_prom.i.i.i.i.i.i191.i = zext nneg i32 %sub5.i.i.i.i190.i to i64
  %notmask.i.i.i.i.i.i192.i = shl nsw i64 -1, %sh_prom.i.i.i.i.i.i191.i
  %sub.i.i.i.i.i.i193.i = xor i64 %notmask.i.i.i.i.i.i192.i, -1
  %sub.i23.i.i.i.i194.i = sub nsw i32 64, %sub5.i.i.i.i190.i
  %sh_prom.i24.i.i.i.i195.i = zext nneg i32 %sub.i23.i.i.i.i194.i to i64
  %shl.i.i.i.i.i196.i = shl i64 %sub.i.i.i.i.i.i193.i, %sh_prom.i24.i.i.i.i195.i
  %and7.i.i.i.i197.i = and i64 %shl.i.i.i.i.i196.i, %sub.i22.i.i.i.i189.i
  %idxprom2.i55.i.i.i.i = sext i32 %div.i.i.i.i185.i to i64
  %arrayidx3.i56.i.i.i.i = getelementptr inbounds i64, ptr %183, i64 %idxprom2.i55.i.i.i.i
  %188 = load i64, ptr %arrayidx3.i56.i.i.i.i, align 8
  %and.i60.i.i.i.i = and i64 %and7.i.i.i.i197.i, %188
  %tobool4.not.i61.i.i.i.i = icmp eq i64 %and.i60.i.i.i.i, 0
  br i1 %tobool4.not.i61.i.i.i.i, label %if.end.i, label %while.body.i64.i.i.i.i

while.body.i64.i.i.i.i:                           ; preds = %if.then3.i.i.i.i184.i, %"_ZZN8facebook5velox9functions12_GLOBAL__N_119applyMapComplexTypeERKNS0_17SelectivityVectorERKSt10shared_ptrINS0_10BaseVectorEESA_RNS0_4exec7EvalCtxEENK3$_1clEi.exit.i89.i.i.i.i"
  %word.0.i65.i.i.i.i = phi i64 [ %and6.i91.i.i.i.i, %"_ZZN8facebook5velox9functions12_GLOBAL__N_119applyMapComplexTypeERKNS0_17SelectivityVectorERKSt10shared_ptrINS0_10BaseVectorEESA_RNS0_4exec7EvalCtxEENK3$_1clEi.exit.i89.i.i.i.i" ], [ %and.i60.i.i.i.i, %if.then3.i.i.i.i184.i ]
  %189 = call i64 @llvm.cttz.i64(i64 %word.0.i65.i.i.i.i, i1 true), !range !17
  %cast.i66.i.i.i.i = trunc i64 %189 to i32
  %add.i67.i.i.i.i = or disjoint i32 %187, %cast.i66.i.i.i.i
  %190 = load ptr, ptr %mapIndices.i, align 8, !noalias !4
  %idxprom.i.i68.i.i.i.i = sext i32 %add.i67.i.i.i.i to i64
  %arrayidx.i.i69.i.i.i.i = getelementptr inbounds i32, ptr %190, i64 %idxprom.i.i68.i.i.i.i
  %191 = load i32, ptr %arrayidx.i.i69.i.i.i.i, align 4
  %conv.i.i70.i.i.i.i = sext i32 %191 to i64
  %arrayidx2.i.i71.i.i.i.i = getelementptr inbounds i32, ptr %71, i64 %conv.i.i70.i.i.i.i
  %192 = load i32, ptr %arrayidx2.i.i71.i.i.i.i, align 4
  %arrayidx4.i.i72.i.i.i.i = getelementptr inbounds i32, ptr %72, i64 %conv.i.i70.i.i.i.i
  %193 = load i32, ptr %arrayidx4.i.i72.i.i.i.i, align 4
  %conv5.i.i73.i.i.i.i = sext i32 %193 to i64
  %194 = load ptr, ptr %searchIndices.i, align 8, !noalias !4
  %arrayidx7.i.i74.i.i.i.i = getelementptr inbounds i32, ptr %194, i64 %idxprom.i.i68.i.i.i.i
  %195 = load i32, ptr %arrayidx7.i.i74.i.i.i.i, align 4
  %cmp9.not.i.i75.i.i.i.i = icmp eq i32 %192, 0
  br i1 %cmp9.not.i.i75.i.i.i.i, label %if.then16.i.i88.i.i.i.i, label %for.body.lr.ph.i.i76.i.i.i.i

for.body.lr.ph.i.i76.i.i.i.i:                     ; preds = %while.body.i64.i.i.i.i
  %wide.trip.count.i.i77.i.i.i.i = zext i32 %192 to i64
  br label %for.body.i.i78.i.i.i.i

for.cond.i.i85.i.i.i.i:                           ; preds = %call.i.i84.i.i.i.noexc.i
  %indvars.iv.next.i.i86.i.i.i.i = add nuw nsw i64 %indvars.iv.i.i79.i.i.i.i, 1
  %exitcond.not.i.i87.i.i.i.i = icmp eq i64 %indvars.iv.next.i.i86.i.i.i.i, %wide.trip.count.i.i77.i.i.i.i
  br i1 %exitcond.not.i.i87.i.i.i.i, label %if.then16.i.i88.i.i.i.i, label %for.body.i.i78.i.i.i.i, !llvm.loop !22

for.body.i.i78.i.i.i.i:                           ; preds = %for.cond.i.i85.i.i.i.i, %for.body.lr.ph.i.i76.i.i.i.i
  %indvars.iv.i.i79.i.i.i.i = phi i64 [ 0, %for.body.lr.ph.i.i76.i.i.i.i ], [ %indvars.iv.next.i.i86.i.i.i.i, %for.cond.i.i85.i.i.i.i ]
  %196 = load ptr, ptr %mapKeysBase.i, align 8, !noalias !4
  %197 = load ptr, ptr %searchBase.i, align 8, !noalias !4
  %add.i.i80.i.i.i.i = add nsw i64 %indvars.iv.i.i79.i.i.i.i, %conv5.i.i73.i.i.i.i
  %arrayidx10.i.i81.i.i.i.i = getelementptr inbounds i32, ptr %64, i64 %add.i.i80.i.i.i.i
  %198 = load i32, ptr %arrayidx10.i.i81.i.i.i.i, align 4
  %vtable.i.i82.i.i.i.i = load ptr, ptr %196, align 8
  %vfn.i.i83.i.i.i.i = getelementptr inbounds ptr, ptr %vtable.i.i82.i.i.i.i, i64 8
  %199 = load ptr, ptr %vfn.i.i83.i.i.i.i, align 8
  %call.i.i84.i.i.i230.i = invoke noundef zeroext i1 %199(ptr noundef nonnull align 8 dereferenceable(99) %196, ptr noundef %197, i32 noundef %198, i32 noundef %195)
          to label %call.i.i84.i.i.i.noexc.i unwind label %lpad35.loopexit.i

call.i.i84.i.i.i.noexc.i:                         ; preds = %for.body.i.i78.i.i.i.i
  br i1 %call.i.i84.i.i.i230.i, label %if.then.i.i93.i.i.i.i, label %for.cond.i.i85.i.i.i.i

if.then.i.i93.i.i.i.i:                            ; preds = %call.i.i84.i.i.i.noexc.i
  %conv13.i.i94.i.i.i.i = trunc i64 %add.i.i80.i.i.i.i to i32
  %200 = load ptr, ptr %rawIndices.i, align 8, !noalias !4
  %arrayidx15.i.i95.i.i.i.i = getelementptr inbounds i32, ptr %200, i64 %idxprom.i.i68.i.i.i.i
  store i32 %conv13.i.i94.i.i.i.i, ptr %arrayidx15.i.i95.i.i.i.i, align 4
  br label %"_ZZN8facebook5velox9functions12_GLOBAL__N_119applyMapComplexTypeERKNS0_17SelectivityVectorERKSt10shared_ptrINS0_10BaseVectorEESA_RNS0_4exec7EvalCtxEENK3$_1clEi.exit.i89.i.i.i.i"

if.then16.i.i88.i.i.i.i:                          ; preds = %for.cond.i.i85.i.i.i.i, %while.body.i64.i.i.i.i
  invoke void @_ZN8facebook5velox12NullsBuilder7setNullEi(ptr noundef nonnull align 8 dereferenceable(32) %nullsBuilder.i, i32 noundef %add.i67.i.i.i.i)
          to label %"_ZZN8facebook5velox9functions12_GLOBAL__N_119applyMapComplexTypeERKNS0_17SelectivityVectorERKSt10shared_ptrINS0_10BaseVectorEESA_RNS0_4exec7EvalCtxEENK3$_1clEi.exit.i89.i.i.i.i" unwind label %lpad35.loopexit.split-lp.loopexit.i

"_ZZN8facebook5velox9functions12_GLOBAL__N_119applyMapComplexTypeERKNS0_17SelectivityVectorERKSt10shared_ptrINS0_10BaseVectorEESA_RNS0_4exec7EvalCtxEENK3$_1clEi.exit.i89.i.i.i.i": ; preds = %if.then16.i.i88.i.i.i.i, %if.then.i.i93.i.i.i.i
  %sub.i90.i.i.i.i = add nsw i64 %word.0.i65.i.i.i.i, -1
  %and6.i91.i.i.i.i = and i64 %sub.i90.i.i.i.i, %word.0.i65.i.i.i.i
  %tobool5.old.not.i92.i.i.i.i = icmp eq i64 %and6.i91.i.i.i.i, 0
  br i1 %tobool5.old.not.i92.i.i.i.i, label %if.end.i, label %while.body.i64.i.i.i.i

if.end8.i.i.i.i148.i:                             ; preds = %if.end.i.i.i6.i.i
  %cmp9.not.i.i.i.i149.i = icmp eq i32 %mul.i.i.i.i.i146.i, %184
  br i1 %cmp9.not.i.i.i.i149.i, label %if.end14.i.i.i.i153.i, label %if.then10.i.i.i.i150.i

if.then10.i.i.i.i150.i:                           ; preds = %if.end8.i.i.i.i148.i
  %div11.i.i.i.i151.i = sdiv i32 %184, 64
  %sub12.i.i.i.i152.i = sub nsw i32 %mul.i.i.i.i.i146.i, %184
  %sh_prom.i.i25.i.i.i.i.i = zext nneg i32 %sub12.i.i.i.i152.i to i64
  %notmask.i.i26.i.i.i.i.i = shl nsw i64 -1, %sh_prom.i.i25.i.i.i.i.i
  %sub.i.i27.i.i.i.i.i = xor i64 %notmask.i.i26.i.i.i.i.i, -1
  %sub.i28.i.i.i.i.i = sub nsw i32 64, %sub12.i.i.i.i152.i
  %sh_prom.i29.i.i.i.i.i = zext nneg i32 %sub.i28.i.i.i.i.i to i64
  %shl.i30.i.i.i.i.i = shl i64 %sub.i.i27.i.i.i.i.i, %sh_prom.i29.i.i.i.i.i
  %idxprom2.i13.i.i.i.i = sext i32 %div11.i.i.i.i151.i to i64
  %arrayidx3.i14.i.i.i.i = getelementptr inbounds i64, ptr %183, i64 %idxprom2.i13.i.i.i.i
  %201 = load i64, ptr %arrayidx3.i14.i.i.i.i, align 8
  %and.i18.i.i.i.i = and i64 %201, %shl.i30.i.i.i.i.i
  %tobool4.not.i19.i.i.i.i = icmp eq i64 %and.i18.i.i.i.i, 0
  br i1 %tobool4.not.i19.i.i.i.i, label %if.end14.i.i.i.i153.i, label %while.body.preheader.i20.i.i.i.i

while.body.preheader.i20.i.i.i.i:                 ; preds = %if.then10.i.i.i.i150.i
  %mul.i21.i.i.i.i = shl nsw i32 %div11.i.i.i.i151.i, 6
  br label %while.body.i22.i.i.i.i

while.body.i22.i.i.i.i:                           ; preds = %"_ZZN8facebook5velox9functions12_GLOBAL__N_119applyMapComplexTypeERKNS0_17SelectivityVectorERKSt10shared_ptrINS0_10BaseVectorEESA_RNS0_4exec7EvalCtxEENK3$_1clEi.exit.i47.i.i.i.i", %while.body.preheader.i20.i.i.i.i
  %word.0.i23.i.i.i.i = phi i64 [ %and6.i49.i.i.i.i, %"_ZZN8facebook5velox9functions12_GLOBAL__N_119applyMapComplexTypeERKNS0_17SelectivityVectorERKSt10shared_ptrINS0_10BaseVectorEESA_RNS0_4exec7EvalCtxEENK3$_1clEi.exit.i47.i.i.i.i" ], [ %and.i18.i.i.i.i, %while.body.preheader.i20.i.i.i.i ]
  %202 = call i64 @llvm.cttz.i64(i64 %word.0.i23.i.i.i.i, i1 true), !range !17
  %cast.i24.i.i.i.i = trunc i64 %202 to i32
  %add.i25.i.i.i.i = or disjoint i32 %mul.i21.i.i.i.i, %cast.i24.i.i.i.i
  %203 = load ptr, ptr %mapIndices.i, align 8, !noalias !4
  %idxprom.i.i26.i.i.i.i = sext i32 %add.i25.i.i.i.i to i64
  %arrayidx.i.i27.i.i.i.i = getelementptr inbounds i32, ptr %203, i64 %idxprom.i.i26.i.i.i.i
  %204 = load i32, ptr %arrayidx.i.i27.i.i.i.i, align 4
  %conv.i.i28.i.i.i.i = sext i32 %204 to i64
  %arrayidx2.i.i29.i.i.i.i = getelementptr inbounds i32, ptr %71, i64 %conv.i.i28.i.i.i.i
  %205 = load i32, ptr %arrayidx2.i.i29.i.i.i.i, align 4
  %arrayidx4.i.i30.i.i.i.i = getelementptr inbounds i32, ptr %72, i64 %conv.i.i28.i.i.i.i
  %206 = load i32, ptr %arrayidx4.i.i30.i.i.i.i, align 4
  %conv5.i.i31.i.i.i.i = sext i32 %206 to i64
  %207 = load ptr, ptr %searchIndices.i, align 8, !noalias !4
  %arrayidx7.i.i32.i.i.i.i = getelementptr inbounds i32, ptr %207, i64 %idxprom.i.i26.i.i.i.i
  %208 = load i32, ptr %arrayidx7.i.i32.i.i.i.i, align 4
  %cmp9.not.i.i33.i.i.i.i = icmp eq i32 %205, 0
  br i1 %cmp9.not.i.i33.i.i.i.i, label %if.then16.i.i46.i.i.i.i, label %for.body.lr.ph.i.i34.i.i.i.i

for.body.lr.ph.i.i34.i.i.i.i:                     ; preds = %while.body.i22.i.i.i.i
  %wide.trip.count.i.i35.i.i.i.i = zext i32 %205 to i64
  br label %for.body.i.i36.i.i.i.i

for.cond.i.i43.i.i.i.i:                           ; preds = %call.i.i42.i.i.i.noexc.i
  %indvars.iv.next.i.i44.i.i.i.i = add nuw nsw i64 %indvars.iv.i.i37.i.i.i.i, 1
  %exitcond.not.i.i45.i.i.i.i = icmp eq i64 %indvars.iv.next.i.i44.i.i.i.i, %wide.trip.count.i.i35.i.i.i.i
  br i1 %exitcond.not.i.i45.i.i.i.i, label %if.then16.i.i46.i.i.i.i, label %for.body.i.i36.i.i.i.i, !llvm.loop !22

for.body.i.i36.i.i.i.i:                           ; preds = %for.cond.i.i43.i.i.i.i, %for.body.lr.ph.i.i34.i.i.i.i
  %indvars.iv.i.i37.i.i.i.i = phi i64 [ 0, %for.body.lr.ph.i.i34.i.i.i.i ], [ %indvars.iv.next.i.i44.i.i.i.i, %for.cond.i.i43.i.i.i.i ]
  %209 = load ptr, ptr %mapKeysBase.i, align 8, !noalias !4
  %210 = load ptr, ptr %searchBase.i, align 8, !noalias !4
  %add.i.i38.i.i.i.i = add nsw i64 %indvars.iv.i.i37.i.i.i.i, %conv5.i.i31.i.i.i.i
  %arrayidx10.i.i39.i.i.i.i = getelementptr inbounds i32, ptr %64, i64 %add.i.i38.i.i.i.i
  %211 = load i32, ptr %arrayidx10.i.i39.i.i.i.i, align 4
  %vtable.i.i40.i.i.i.i = load ptr, ptr %209, align 8
  %vfn.i.i41.i.i.i.i = getelementptr inbounds ptr, ptr %vtable.i.i40.i.i.i.i, i64 8
  %212 = load ptr, ptr %vfn.i.i41.i.i.i.i, align 8
  %call.i.i42.i.i.i232.i = invoke noundef zeroext i1 %212(ptr noundef nonnull align 8 dereferenceable(99) %209, ptr noundef %210, i32 noundef %211, i32 noundef %208)
          to label %call.i.i42.i.i.i.noexc.i unwind label %lpad35.loopexit.split-lp.loopexit.split-lp.loopexit.split-lp.loopexit.split-lp.loopexit.split-lp.loopexit.split-lp.loopexit.split-lp.loopexit.split-lp.loopexit.i

call.i.i42.i.i.i.noexc.i:                         ; preds = %for.body.i.i36.i.i.i.i
  br i1 %call.i.i42.i.i.i232.i, label %if.then.i.i51.i.i.i.i, label %for.cond.i.i43.i.i.i.i

if.then.i.i51.i.i.i.i:                            ; preds = %call.i.i42.i.i.i.noexc.i
  %conv13.i.i52.i.i.i.i = trunc i64 %add.i.i38.i.i.i.i to i32
  %213 = load ptr, ptr %rawIndices.i, align 8, !noalias !4
  %arrayidx15.i.i53.i.i.i.i = getelementptr inbounds i32, ptr %213, i64 %idxprom.i.i26.i.i.i.i
  store i32 %conv13.i.i52.i.i.i.i, ptr %arrayidx15.i.i53.i.i.i.i, align 4
  br label %"_ZZN8facebook5velox9functions12_GLOBAL__N_119applyMapComplexTypeERKNS0_17SelectivityVectorERKSt10shared_ptrINS0_10BaseVectorEESA_RNS0_4exec7EvalCtxEENK3$_1clEi.exit.i47.i.i.i.i"

if.then16.i.i46.i.i.i.i:                          ; preds = %for.cond.i.i43.i.i.i.i, %while.body.i22.i.i.i.i
  invoke void @_ZN8facebook5velox12NullsBuilder7setNullEi(ptr noundef nonnull align 8 dereferenceable(32) %nullsBuilder.i, i32 noundef %add.i25.i.i.i.i)
          to label %"_ZZN8facebook5velox9functions12_GLOBAL__N_119applyMapComplexTypeERKNS0_17SelectivityVectorERKSt10shared_ptrINS0_10BaseVectorEESA_RNS0_4exec7EvalCtxEENK3$_1clEi.exit.i47.i.i.i.i" unwind label %lpad35.loopexit.split-lp.loopexit.split-lp.loopexit.split-lp.loopexit.split-lp.loopexit.split-lp.loopexit.split-lp.loopexit.split-lp.loopexit.split-lp.loopexit.split-lp.loopexit.i

"_ZZN8facebook5velox9functions12_GLOBAL__N_119applyMapComplexTypeERKNS0_17SelectivityVectorERKSt10shared_ptrINS0_10BaseVectorEESA_RNS0_4exec7EvalCtxEENK3$_1clEi.exit.i47.i.i.i.i": ; preds = %if.then16.i.i46.i.i.i.i, %if.then.i.i51.i.i.i.i
  %sub.i48.i.i.i.i = add i64 %word.0.i23.i.i.i.i, -1
  %and6.i49.i.i.i.i = and i64 %sub.i48.i.i.i.i, %word.0.i23.i.i.i.i
  %tobool5.old.not.i50.i.i.i.i = icmp eq i64 %and6.i49.i.i.i.i, 0
  br i1 %tobool5.old.not.i50.i.i.i.i, label %if.end14.i.i.i.i153.i, label %while.body.i22.i.i.i.i

if.end14.i.i.i.i153.i:                            ; preds = %"_ZZN8facebook5velox9functions12_GLOBAL__N_119applyMapComplexTypeERKNS0_17SelectivityVectorERKSt10shared_ptrINS0_10BaseVectorEESA_RNS0_4exec7EvalCtxEENK3$_1clEi.exit.i47.i.i.i.i", %if.then10.i.i.i.i150.i, %if.end8.i.i.i.i148.i
  %add39.i.i.i.i.i = add nsw i32 %mul.i.i.i.i.i146.i, 64
  %cmp15.not40.i.i.i.i.i = icmp sgt i32 %add39.i.i.i.i.i, %187
  br i1 %cmp15.not40.i.i.i.i.i, label %for.end.i.i.i8.i.i, label %for.body.i.i.i7.i.i

for.body.i.i.i7.i.i:                              ; preds = %if.end14.i.i.i.i153.i, %"_ZZN8facebook5velox4bits10forEachBitIZNS0_9functions12_GLOBAL__N_119applyMapComplexTypeERKNS0_17SelectivityVectorERKSt10shared_ptrINS0_10BaseVectorEESC_RNS0_4exec7EvalCtxEE3$_1EEvPKmiibT_ENKUliE_clEi.exit.i.i.i.i.i"
  %add42.i.i.i.i.i = phi i32 [ %add.i.i.i.i157.i, %"_ZZN8facebook5velox4bits10forEachBitIZNS0_9functions12_GLOBAL__N_119applyMapComplexTypeERKNS0_17SelectivityVectorERKSt10shared_ptrINS0_10BaseVectorEESC_RNS0_4exec7EvalCtxEE3$_1EEvPKmiibT_ENKUliE_clEi.exit.i.i.i.i.i" ], [ %add39.i.i.i.i.i, %if.end14.i.i.i.i153.i ]
  %i.041.i.i.i.i.i = phi i32 [ %add42.i.i.i.i.i, %"_ZZN8facebook5velox4bits10forEachBitIZNS0_9functions12_GLOBAL__N_119applyMapComplexTypeERKNS0_17SelectivityVectorERKSt10shared_ptrINS0_10BaseVectorEESC_RNS0_4exec7EvalCtxEE3$_1EEvPKmiibT_ENKUliE_clEi.exit.i.i.i.i.i" ], [ %mul.i.i.i.i.i146.i, %if.end14.i.i.i.i153.i ]
  %div16.i.i.i.i154.i = sdiv i32 %i.041.i.i.i.i.i, 64
  %idxprom2.i.i.i.i.i155.i = sext i32 %div16.i.i.i.i154.i to i64
  %arrayidx3.i.i.i.i.i156.i = getelementptr inbounds i64, ptr %183, i64 %idxprom2.i.i.i.i.i155.i
  %214 = load i64, ptr %arrayidx3.i.i.i.i.i156.i, align 8
  switch i64 %214, label %while.body.lr.ph.i.i.i.i.i177.i [
    i64 -1, label %if.then.i.i.i.i.i167.i
    i64 0, label %"_ZZN8facebook5velox4bits10forEachBitIZNS0_9functions12_GLOBAL__N_119applyMapComplexTypeERKNS0_17SelectivityVectorERKSt10shared_ptrINS0_10BaseVectorEESC_RNS0_4exec7EvalCtxEE3$_1EEvPKmiibT_ENKUliE_clEi.exit.i.i.i.i.i"
  ]

while.body.lr.ph.i.i.i.i.i177.i:                  ; preds = %for.body.i.i.i7.i.i
  %mul9.i.i.i.i.i178.i = shl nsw i32 %div16.i.i.i.i154.i, 6
  br label %while.body.i.i.i.i.i179.i

if.then.i.i.i.i.i167.i:                           ; preds = %for.body.i.i.i7.i.i
  %mul.i31.i.i.i.i.i = shl nsw i32 %div16.i.i.i.i154.i, 6
  %mul4.i.i.i.i.i168.i = add i32 %mul.i31.i.i.i.i.i, 64
  %conv5.i.i.i.i.i169.i = sext i32 %mul4.i.i.i.i.i168.i to i64
  %i.0.off.i.i.i.i170.i = add i32 %i.041.i.i.i.i.i, 127
  %cmp641.not.i.i.i.i.i.i = icmp ult i32 %i.0.off.i.i.i.i170.i, 64
  br i1 %cmp641.not.i.i.i.i.i.i, label %"_ZZN8facebook5velox4bits10forEachBitIZNS0_9functions12_GLOBAL__N_119applyMapComplexTypeERKNS0_17SelectivityVectorERKSt10shared_ptrINS0_10BaseVectorEESC_RNS0_4exec7EvalCtxEE3$_1EEvPKmiibT_ENKUliE_clEi.exit.i.i.i.i.i", label %for.body.lr.ph.i.i.i.i.i171.i

for.body.lr.ph.i.i.i.i.i171.i:                    ; preds = %if.then.i.i.i.i.i167.i
  %conv.i.i.i.i.i172.i = sext i32 %mul.i31.i.i.i.i.i to i64
  br label %for.body.i.i.i.i.i173.i

for.body.i.i.i.i.i173.i:                          ; preds = %"_ZZN8facebook5velox9functions12_GLOBAL__N_119applyMapComplexTypeERKNS0_17SelectivityVectorERKSt10shared_ptrINS0_10BaseVectorEESA_RNS0_4exec7EvalCtxEENK3$_1clEi.exit.i.i.i.i.i.i", %for.body.lr.ph.i.i.i.i.i171.i
  %row.042.i.i.i.i.i.i = phi i64 [ %conv.i.i.i.i.i172.i, %for.body.lr.ph.i.i.i.i.i171.i ], [ %inc.i.i.i.i.i175.i, %"_ZZN8facebook5velox9functions12_GLOBAL__N_119applyMapComplexTypeERKNS0_17SelectivityVectorERKSt10shared_ptrINS0_10BaseVectorEESA_RNS0_4exec7EvalCtxEENK3$_1clEi.exit.i.i.i.i.i.i" ]
  %conv7.i.i.i.i.i174.i = trunc i64 %row.042.i.i.i.i.i.i to i32
  %215 = load ptr, ptr %mapIndices.i, align 8, !noalias !4
  %sext.i.i.i.i.i.i = shl i64 %row.042.i.i.i.i.i.i, 32
  %idxprom.i.i.i.i.i.i.i = ashr exact i64 %sext.i.i.i.i.i.i, 32
  %arrayidx.i.i.i.i.i.i.i = getelementptr inbounds i32, ptr %215, i64 %idxprom.i.i.i.i.i.i.i
  %216 = load i32, ptr %arrayidx.i.i.i.i.i.i.i, align 4
  %conv.i.i.i.i.i.i.i = sext i32 %216 to i64
  %arrayidx2.i.i.i.i.i.i.i = getelementptr inbounds i32, ptr %71, i64 %conv.i.i.i.i.i.i.i
  %217 = load i32, ptr %arrayidx2.i.i.i.i.i.i.i, align 4
  %arrayidx4.i.i.i.i.i.i.i = getelementptr inbounds i32, ptr %72, i64 %conv.i.i.i.i.i.i.i
  %218 = load i32, ptr %arrayidx4.i.i.i.i.i.i.i, align 4
  %conv5.i.i.i.i.i.i.i = sext i32 %218 to i64
  %219 = load ptr, ptr %searchIndices.i, align 8, !noalias !4
  %arrayidx7.i.i.i.i.i.i.i = getelementptr inbounds i32, ptr %219, i64 %idxprom.i.i.i.i.i.i.i
  %220 = load i32, ptr %arrayidx7.i.i.i.i.i.i.i, align 4
  %cmp9.not.i.i.i.i.i.i.i = icmp eq i32 %217, 0
  br i1 %cmp9.not.i.i.i.i.i.i.i, label %if.then16.i.i.i.i.i.i.i, label %for.body.lr.ph.i.i.i.i.i.i.i

for.body.lr.ph.i.i.i.i.i.i.i:                     ; preds = %for.body.i.i.i.i.i173.i
  %wide.trip.count.i.i.i.i.i.i.i = zext i32 %217 to i64
  br label %for.body.i.i.i.i.i.i.i

for.cond.i.i.i.i.i.i.i:                           ; preds = %call.i.i.i.i.i.i.noexc.i
  %indvars.iv.next.i.i.i.i.i.i.i = add nuw nsw i64 %indvars.iv.i.i.i.i.i.i.i, 1
  %exitcond.not.i.i.i.i.i.i.i = icmp eq i64 %indvars.iv.next.i.i.i.i.i.i.i, %wide.trip.count.i.i.i.i.i.i.i
  br i1 %exitcond.not.i.i.i.i.i.i.i, label %if.then16.i.i.i.i.i.i.i, label %for.body.i.i.i.i.i.i.i, !llvm.loop !22

for.body.i.i.i.i.i.i.i:                           ; preds = %for.cond.i.i.i.i.i.i.i, %for.body.lr.ph.i.i.i.i.i.i.i
  %indvars.iv.i.i.i.i.i.i.i = phi i64 [ 0, %for.body.lr.ph.i.i.i.i.i.i.i ], [ %indvars.iv.next.i.i.i.i.i.i.i, %for.cond.i.i.i.i.i.i.i ]
  %221 = load ptr, ptr %mapKeysBase.i, align 8, !noalias !4
  %222 = load ptr, ptr %searchBase.i, align 8, !noalias !4
  %add.i.i.i.i.i.i.i = add nsw i64 %indvars.iv.i.i.i.i.i.i.i, %conv5.i.i.i.i.i.i.i
  %arrayidx10.i.i.i.i.i.i.i = getelementptr inbounds i32, ptr %64, i64 %add.i.i.i.i.i.i.i
  %223 = load i32, ptr %arrayidx10.i.i.i.i.i.i.i, align 4
  %vtable.i.i.i.i.i.i.i = load ptr, ptr %221, align 8
  %vfn.i.i.i.i.i.i.i = getelementptr inbounds ptr, ptr %vtable.i.i.i.i.i.i.i, i64 8
  %224 = load ptr, ptr %vfn.i.i.i.i.i.i.i, align 8
  %call.i.i.i.i.i.i234.i = invoke noundef zeroext i1 %224(ptr noundef nonnull align 8 dereferenceable(99) %221, ptr noundef %222, i32 noundef %223, i32 noundef %220)
          to label %call.i.i.i.i.i.i.noexc.i unwind label %lpad35.loopexit.split-lp.loopexit.split-lp.loopexit.split-lp.loopexit.split-lp.loopexit.split-lp.loopexit.i

call.i.i.i.i.i.i.noexc.i:                         ; preds = %for.body.i.i.i.i.i.i.i
  br i1 %call.i.i.i.i.i.i234.i, label %if.then.i.i.i.i.i.i.i, label %for.cond.i.i.i.i.i.i.i

if.then.i.i.i.i.i.i.i:                            ; preds = %call.i.i.i.i.i.i.noexc.i
  %conv13.i.i.i.i.i.i.i = trunc i64 %add.i.i.i.i.i.i.i to i32
  %225 = load ptr, ptr %rawIndices.i, align 8, !noalias !4
  %arrayidx15.i.i.i.i.i.i.i = getelementptr inbounds i32, ptr %225, i64 %idxprom.i.i.i.i.i.i.i
  store i32 %conv13.i.i.i.i.i.i.i, ptr %arrayidx15.i.i.i.i.i.i.i, align 4
  br label %"_ZZN8facebook5velox9functions12_GLOBAL__N_119applyMapComplexTypeERKNS0_17SelectivityVectorERKSt10shared_ptrINS0_10BaseVectorEESA_RNS0_4exec7EvalCtxEENK3$_1clEi.exit.i.i.i.i.i.i"

if.then16.i.i.i.i.i.i.i:                          ; preds = %for.cond.i.i.i.i.i.i.i, %for.body.i.i.i.i.i173.i
  invoke void @_ZN8facebook5velox12NullsBuilder7setNullEi(ptr noundef nonnull align 8 dereferenceable(32) %nullsBuilder.i, i32 noundef %conv7.i.i.i.i.i174.i)
          to label %"_ZZN8facebook5velox9functions12_GLOBAL__N_119applyMapComplexTypeERKNS0_17SelectivityVectorERKSt10shared_ptrINS0_10BaseVectorEESA_RNS0_4exec7EvalCtxEENK3$_1clEi.exit.i.i.i.i.i.i" unwind label %lpad35.loopexit.split-lp.loopexit.split-lp.loopexit.split-lp.loopexit.split-lp.loopexit.split-lp.loopexit.split-lp.loopexit.split-lp.loopexit.i

"_ZZN8facebook5velox9functions12_GLOBAL__N_119applyMapComplexTypeERKNS0_17SelectivityVectorERKSt10shared_ptrINS0_10BaseVectorEESA_RNS0_4exec7EvalCtxEENK3$_1clEi.exit.i.i.i.i.i.i": ; preds = %if.then16.i.i.i.i.i.i.i, %if.then.i.i.i.i.i.i.i
  %inc.i.i.i.i.i175.i = add nuw i64 %row.042.i.i.i.i.i.i, 1
  %cmp6.i.i.i.i.i176.i = icmp ult i64 %inc.i.i.i.i.i175.i, %conv5.i.i.i.i.i169.i
  br i1 %cmp6.i.i.i.i.i176.i, label %for.body.i.i.i.i.i173.i, label %"_ZZN8facebook5velox4bits10forEachBitIZNS0_9functions12_GLOBAL__N_119applyMapComplexTypeERKNS0_17SelectivityVectorERKSt10shared_ptrINS0_10BaseVectorEESC_RNS0_4exec7EvalCtxEE3$_1EEvPKmiibT_ENKUliE_clEi.exit.i.i.i.i.i", !llvm.loop !24

while.body.i.i.i.i.i179.i:                        ; preds = %"_ZZN8facebook5velox9functions12_GLOBAL__N_119applyMapComplexTypeERKNS0_17SelectivityVectorERKSt10shared_ptrINS0_10BaseVectorEESA_RNS0_4exec7EvalCtxEENK3$_1clEi.exit35.i.i.i.i.i.i", %while.body.lr.ph.i.i.i.i.i177.i
  %word.040.i.i.i.i.i.i = phi i64 [ %214, %while.body.lr.ph.i.i.i.i.i177.i ], [ %and.i.i.i.i.i182.i, %"_ZZN8facebook5velox9functions12_GLOBAL__N_119applyMapComplexTypeERKNS0_17SelectivityVectorERKSt10shared_ptrINS0_10BaseVectorEESA_RNS0_4exec7EvalCtxEENK3$_1clEi.exit35.i.i.i.i.i.i" ]
  %226 = call i64 @llvm.cttz.i64(i64 %word.040.i.i.i.i.i.i, i1 true), !range !17
  %cast.i.i.i.i.i180.i = trunc i64 %226 to i32
  %add10.i.i.i.i.i181.i = or disjoint i32 %mul9.i.i.i.i.i178.i, %cast.i.i.i.i.i180.i
  %227 = load ptr, ptr %mapIndices.i, align 8, !noalias !4
  %idxprom.i11.i.i.i.i.i.i = sext i32 %add10.i.i.i.i.i181.i to i64
  %arrayidx.i12.i.i.i.i.i.i = getelementptr inbounds i32, ptr %227, i64 %idxprom.i11.i.i.i.i.i.i
  %228 = load i32, ptr %arrayidx.i12.i.i.i.i.i.i, align 4
  %conv.i13.i.i.i.i.i.i = sext i32 %228 to i64
  %arrayidx2.i14.i.i.i.i.i.i = getelementptr inbounds i32, ptr %71, i64 %conv.i13.i.i.i.i.i.i
  %229 = load i32, ptr %arrayidx2.i14.i.i.i.i.i.i, align 4
  %arrayidx4.i15.i.i.i.i.i.i = getelementptr inbounds i32, ptr %72, i64 %conv.i13.i.i.i.i.i.i
  %230 = load i32, ptr %arrayidx4.i15.i.i.i.i.i.i, align 4
  %conv5.i16.i.i.i.i.i.i = sext i32 %230 to i64
  %231 = load ptr, ptr %searchIndices.i, align 8, !noalias !4
  %arrayidx7.i17.i.i.i.i.i.i = getelementptr inbounds i32, ptr %231, i64 %idxprom.i11.i.i.i.i.i.i
  %232 = load i32, ptr %arrayidx7.i17.i.i.i.i.i.i, align 4
  %cmp9.not.i18.i.i.i.i.i.i = icmp eq i32 %229, 0
  br i1 %cmp9.not.i18.i.i.i.i.i.i, label %if.then16.i31.i.i.i.i.i.i, label %for.body.lr.ph.i19.i.i.i.i.i.i

for.body.lr.ph.i19.i.i.i.i.i.i:                   ; preds = %while.body.i.i.i.i.i179.i
  %wide.trip.count.i20.i.i.i.i.i.i = zext i32 %229 to i64
  br label %for.body.i21.i.i.i.i.i.i

for.cond.i28.i.i.i.i.i.i:                         ; preds = %call.i27.i.i.i.i.i.noexc.i
  %indvars.iv.next.i29.i.i.i.i.i.i = add nuw nsw i64 %indvars.iv.i22.i.i.i.i.i.i, 1
  %exitcond.not.i30.i.i.i.i.i.i = icmp eq i64 %indvars.iv.next.i29.i.i.i.i.i.i, %wide.trip.count.i20.i.i.i.i.i.i
  br i1 %exitcond.not.i30.i.i.i.i.i.i, label %if.then16.i31.i.i.i.i.i.i, label %for.body.i21.i.i.i.i.i.i, !llvm.loop !22

for.body.i21.i.i.i.i.i.i:                         ; preds = %for.cond.i28.i.i.i.i.i.i, %for.body.lr.ph.i19.i.i.i.i.i.i
  %indvars.iv.i22.i.i.i.i.i.i = phi i64 [ 0, %for.body.lr.ph.i19.i.i.i.i.i.i ], [ %indvars.iv.next.i29.i.i.i.i.i.i, %for.cond.i28.i.i.i.i.i.i ]
  %233 = load ptr, ptr %mapKeysBase.i, align 8, !noalias !4
  %234 = load ptr, ptr %searchBase.i, align 8, !noalias !4
  %add.i23.i.i.i.i.i.i = add nsw i64 %indvars.iv.i22.i.i.i.i.i.i, %conv5.i16.i.i.i.i.i.i
  %arrayidx10.i24.i.i.i.i.i.i = getelementptr inbounds i32, ptr %64, i64 %add.i23.i.i.i.i.i.i
  %235 = load i32, ptr %arrayidx10.i24.i.i.i.i.i.i, align 4
  %vtable.i25.i.i.i.i.i.i = load ptr, ptr %233, align 8
  %vfn.i26.i.i.i.i.i.i = getelementptr inbounds ptr, ptr %vtable.i25.i.i.i.i.i.i, i64 8
  %236 = load ptr, ptr %vfn.i26.i.i.i.i.i.i, align 8
  %call.i27.i.i.i.i.i236.i = invoke noundef zeroext i1 %236(ptr noundef nonnull align 8 dereferenceable(99) %233, ptr noundef %234, i32 noundef %235, i32 noundef %232)
          to label %call.i27.i.i.i.i.i.noexc.i unwind label %lpad35.loopexit.split-lp.loopexit.split-lp.loopexit.split-lp.loopexit.split-lp.loopexit.i

call.i27.i.i.i.i.i.noexc.i:                       ; preds = %for.body.i21.i.i.i.i.i.i
  br i1 %call.i27.i.i.i.i.i236.i, label %if.then.i32.i.i.i.i.i.i, label %for.cond.i28.i.i.i.i.i.i

if.then.i32.i.i.i.i.i.i:                          ; preds = %call.i27.i.i.i.i.i.noexc.i
  %conv13.i33.i.i.i.i.i.i = trunc i64 %add.i23.i.i.i.i.i.i to i32
  %237 = load ptr, ptr %rawIndices.i, align 8, !noalias !4
  %arrayidx15.i34.i.i.i.i.i.i = getelementptr inbounds i32, ptr %237, i64 %idxprom.i11.i.i.i.i.i.i
  store i32 %conv13.i33.i.i.i.i.i.i, ptr %arrayidx15.i34.i.i.i.i.i.i, align 4
  br label %"_ZZN8facebook5velox9functions12_GLOBAL__N_119applyMapComplexTypeERKNS0_17SelectivityVectorERKSt10shared_ptrINS0_10BaseVectorEESA_RNS0_4exec7EvalCtxEENK3$_1clEi.exit35.i.i.i.i.i.i"

if.then16.i31.i.i.i.i.i.i:                        ; preds = %for.cond.i28.i.i.i.i.i.i, %while.body.i.i.i.i.i179.i
  invoke void @_ZN8facebook5velox12NullsBuilder7setNullEi(ptr noundef nonnull align 8 dereferenceable(32) %nullsBuilder.i, i32 noundef %add10.i.i.i.i.i181.i)
          to label %"_ZZN8facebook5velox9functions12_GLOBAL__N_119applyMapComplexTypeERKNS0_17SelectivityVectorERKSt10shared_ptrINS0_10BaseVectorEESA_RNS0_4exec7EvalCtxEENK3$_1clEi.exit35.i.i.i.i.i.i" unwind label %lpad35.loopexit.split-lp.loopexit.split-lp.loopexit.split-lp.loopexit.split-lp.loopexit.split-lp.loopexit.split-lp.loopexit.i

"_ZZN8facebook5velox9functions12_GLOBAL__N_119applyMapComplexTypeERKNS0_17SelectivityVectorERKSt10shared_ptrINS0_10BaseVectorEESA_RNS0_4exec7EvalCtxEENK3$_1clEi.exit35.i.i.i.i.i.i": ; preds = %if.then16.i31.i.i.i.i.i.i, %if.then.i32.i.i.i.i.i.i
  %sub.i32.i.i.i.i.i = add i64 %word.040.i.i.i.i.i.i, -1
  %and.i.i.i.i.i182.i = and i64 %sub.i32.i.i.i.i.i, %word.040.i.i.i.i.i.i
  %tobool8.not.i.i.i.i.i183.i = icmp eq i64 %and.i.i.i.i.i182.i, 0
  br i1 %tobool8.not.i.i.i.i.i183.i, label %"_ZZN8facebook5velox4bits10forEachBitIZNS0_9functions12_GLOBAL__N_119applyMapComplexTypeERKNS0_17SelectivityVectorERKSt10shared_ptrINS0_10BaseVectorEESC_RNS0_4exec7EvalCtxEE3$_1EEvPKmiibT_ENKUliE_clEi.exit.i.i.i.i.i", label %while.body.i.i.i.i.i179.i, !llvm.loop !25

"_ZZN8facebook5velox4bits10forEachBitIZNS0_9functions12_GLOBAL__N_119applyMapComplexTypeERKNS0_17SelectivityVectorERKSt10shared_ptrINS0_10BaseVectorEESC_RNS0_4exec7EvalCtxEE3$_1EEvPKmiibT_ENKUliE_clEi.exit.i.i.i.i.i": ; preds = %"_ZZN8facebook5velox9functions12_GLOBAL__N_119applyMapComplexTypeERKNS0_17SelectivityVectorERKSt10shared_ptrINS0_10BaseVectorEESA_RNS0_4exec7EvalCtxEENK3$_1clEi.exit.i.i.i.i.i.i", %"_ZZN8facebook5velox9functions12_GLOBAL__N_119applyMapComplexTypeERKNS0_17SelectivityVectorERKSt10shared_ptrINS0_10BaseVectorEESA_RNS0_4exec7EvalCtxEENK3$_1clEi.exit35.i.i.i.i.i.i", %if.then.i.i.i.i.i167.i, %for.body.i.i.i7.i.i
  %add.i.i.i.i157.i = add nsw i32 %add42.i.i.i.i.i, 64
  %cmp15.not.i.i.i.i158.i = icmp sgt i32 %add.i.i.i.i157.i, %187
  br i1 %cmp15.not.i.i.i.i158.i, label %for.end.i.i.i8.i.i, label %for.body.i.i.i7.i.i, !llvm.loop !26

for.end.i.i.i8.i.i:                               ; preds = %"_ZZN8facebook5velox4bits10forEachBitIZNS0_9functions12_GLOBAL__N_119applyMapComplexTypeERKNS0_17SelectivityVectorERKSt10shared_ptrINS0_10BaseVectorEESC_RNS0_4exec7EvalCtxEE3$_1EEvPKmiibT_ENKUliE_clEi.exit.i.i.i.i.i", %if.end14.i.i.i.i153.i
  %cmp18.not.i.i.i.i159.i = icmp eq i32 %187, %185
  br i1 %cmp18.not.i.i.i.i159.i, label %if.end.i, label %if.then19.i.i.i.i160.i

if.then19.i.i.i.i160.i:                           ; preds = %for.end.i.i.i8.i.i
  %div20.i.i.i.i161.i = ashr i32 %185, 6
  %sub21.i.i.i.i162.i = and i32 %185, 63
  %sh_prom.i33.i.i.i.i.i = zext nneg i32 %sub21.i.i.i.i162.i to i64
  %notmask.i34.i.i.i.i.i = shl nsw i64 -1, %sh_prom.i33.i.i.i.i.i
  %sub.i35.i.i.i.i.i = xor i64 %notmask.i34.i.i.i.i.i, -1
  %idxprom2.i.i.i.i.i = sext i32 %div20.i.i.i.i161.i to i64
  %arrayidx3.i.i.i.i.i = getelementptr inbounds i64, ptr %183, i64 %idxprom2.i.i.i.i.i
  %238 = load i64, ptr %arrayidx3.i.i.i.i.i, align 8
  %and.i.i.i.i.i = and i64 %238, %sub.i35.i.i.i.i.i
  %tobool4.not.i.i.i.i.i = icmp eq i64 %and.i.i.i.i.i, 0
  br i1 %tobool4.not.i.i.i.i.i, label %if.end.i, label %while.body.i.i.i.i.i

while.body.i.i.i.i.i:                             ; preds = %if.then19.i.i.i.i160.i, %"_ZZN8facebook5velox9functions12_GLOBAL__N_119applyMapComplexTypeERKNS0_17SelectivityVectorERKSt10shared_ptrINS0_10BaseVectorEESA_RNS0_4exec7EvalCtxEENK3$_1clEi.exit.i.i.i.i.i"
  %word.0.i.i.i.i.i = phi i64 [ %and6.i.i.i.i.i, %"_ZZN8facebook5velox9functions12_GLOBAL__N_119applyMapComplexTypeERKNS0_17SelectivityVectorERKSt10shared_ptrINS0_10BaseVectorEESA_RNS0_4exec7EvalCtxEENK3$_1clEi.exit.i.i.i.i.i" ], [ %and.i.i.i.i.i, %if.then19.i.i.i.i160.i ]
  %239 = call i64 @llvm.cttz.i64(i64 %word.0.i.i.i.i.i, i1 true), !range !17
  %cast.i.i.i.i.i = trunc i64 %239 to i32
  %add.i5.i.i.i.i = or disjoint i32 %187, %cast.i.i.i.i.i
  %240 = load ptr, ptr %mapIndices.i, align 8, !noalias !4
  %idxprom.i.i.i.i.i163.i = sext i32 %add.i5.i.i.i.i to i64
  %arrayidx.i.i.i.i.i164.i = getelementptr inbounds i32, ptr %240, i64 %idxprom.i.i.i.i.i163.i
  %241 = load i32, ptr %arrayidx.i.i.i.i.i164.i, align 4
  %conv.i.i6.i.i.i.i = sext i32 %241 to i64
  %arrayidx2.i.i.i.i.i.i = getelementptr inbounds i32, ptr %71, i64 %conv.i.i6.i.i.i.i
  %242 = load i32, ptr %arrayidx2.i.i.i.i.i.i, align 4
  %arrayidx4.i.i.i.i.i.i = getelementptr inbounds i32, ptr %72, i64 %conv.i.i6.i.i.i.i
  %243 = load i32, ptr %arrayidx4.i.i.i.i.i.i, align 4
  %conv5.i.i7.i.i.i.i = sext i32 %243 to i64
  %244 = load ptr, ptr %searchIndices.i, align 8, !noalias !4
  %arrayidx7.i.i.i.i.i.i = getelementptr inbounds i32, ptr %244, i64 %idxprom.i.i.i.i.i163.i
  %245 = load i32, ptr %arrayidx7.i.i.i.i.i.i, align 4
  %cmp9.not.i.i.i.i.i.i = icmp eq i32 %242, 0
  br i1 %cmp9.not.i.i.i.i.i.i, label %if.then16.i.i.i.i.i.i, label %for.body.lr.ph.i.i8.i.i.i.i

for.body.lr.ph.i.i8.i.i.i.i:                      ; preds = %while.body.i.i.i.i.i
  %wide.trip.count.i.i.i.i.i.i = zext i32 %242 to i64
  br label %for.body.i.i9.i.i.i.i

for.cond.i.i.i.i.i.i:                             ; preds = %call.i.i.i.i.i.noexc.i
  %indvars.iv.next.i.i.i.i.i.i = add nuw nsw i64 %indvars.iv.i.i.i.i.i.i, 1
  %exitcond.not.i.i.i.i.i.i = icmp eq i64 %indvars.iv.next.i.i.i.i.i.i, %wide.trip.count.i.i.i.i.i.i
  br i1 %exitcond.not.i.i.i.i.i.i, label %if.then16.i.i.i.i.i.i, label %for.body.i.i9.i.i.i.i, !llvm.loop !22

for.body.i.i9.i.i.i.i:                            ; preds = %for.cond.i.i.i.i.i.i, %for.body.lr.ph.i.i8.i.i.i.i
  %indvars.iv.i.i.i.i.i.i = phi i64 [ 0, %for.body.lr.ph.i.i8.i.i.i.i ], [ %indvars.iv.next.i.i.i.i.i.i, %for.cond.i.i.i.i.i.i ]
  %246 = load ptr, ptr %mapKeysBase.i, align 8, !noalias !4
  %247 = load ptr, ptr %searchBase.i, align 8, !noalias !4
  %add.i.i10.i.i.i.i = add nsw i64 %indvars.iv.i.i.i.i.i.i, %conv5.i.i7.i.i.i.i
  %arrayidx10.i.i.i.i.i.i = getelementptr inbounds i32, ptr %64, i64 %add.i.i10.i.i.i.i
  %248 = load i32, ptr %arrayidx10.i.i.i.i.i.i, align 4
  %vtable.i.i.i.i.i165.i = load ptr, ptr %246, align 8
  %vfn.i.i.i.i.i166.i = getelementptr inbounds ptr, ptr %vtable.i.i.i.i.i165.i, i64 8
  %249 = load ptr, ptr %vfn.i.i.i.i.i166.i, align 8
  %call.i.i.i.i.i238.i = invoke noundef zeroext i1 %249(ptr noundef nonnull align 8 dereferenceable(99) %246, ptr noundef %247, i32 noundef %248, i32 noundef %245)
          to label %call.i.i.i.i.i.noexc.i unwind label %lpad35.loopexit.split-lp.loopexit.split-lp.loopexit.i

call.i.i.i.i.i.noexc.i:                           ; preds = %for.body.i.i9.i.i.i.i
  br i1 %call.i.i.i.i.i238.i, label %if.then.i.i12.i.i.i.i, label %for.cond.i.i.i.i.i.i

if.then.i.i12.i.i.i.i:                            ; preds = %call.i.i.i.i.i.noexc.i
  %conv13.i.i.i.i.i.i = trunc i64 %add.i.i10.i.i.i.i to i32
  %250 = load ptr, ptr %rawIndices.i, align 8, !noalias !4
  %arrayidx15.i.i.i.i.i.i = getelementptr inbounds i32, ptr %250, i64 %idxprom.i.i.i.i.i163.i
  store i32 %conv13.i.i.i.i.i.i, ptr %arrayidx15.i.i.i.i.i.i, align 4
  br label %"_ZZN8facebook5velox9functions12_GLOBAL__N_119applyMapComplexTypeERKNS0_17SelectivityVectorERKSt10shared_ptrINS0_10BaseVectorEESA_RNS0_4exec7EvalCtxEENK3$_1clEi.exit.i.i.i.i.i"

if.then16.i.i.i.i.i.i:                            ; preds = %for.cond.i.i.i.i.i.i, %while.body.i.i.i.i.i
  invoke void @_ZN8facebook5velox12NullsBuilder7setNullEi(ptr noundef nonnull align 8 dereferenceable(32) %nullsBuilder.i, i32 noundef %add.i5.i.i.i.i)
          to label %"_ZZN8facebook5velox9functions12_GLOBAL__N_119applyMapComplexTypeERKNS0_17SelectivityVectorERKSt10shared_ptrINS0_10BaseVectorEESA_RNS0_4exec7EvalCtxEENK3$_1clEi.exit.i.i.i.i.i" unwind label %lpad35.loopexit.split-lp.loopexit.split-lp.loopexit.split-lp.loopexit.i

"_ZZN8facebook5velox9functions12_GLOBAL__N_119applyMapComplexTypeERKNS0_17SelectivityVectorERKSt10shared_ptrINS0_10BaseVectorEESA_RNS0_4exec7EvalCtxEENK3$_1clEi.exit.i.i.i.i.i": ; preds = %if.then16.i.i.i.i.i.i, %if.then.i.i12.i.i.i.i
  %sub.i11.i.i.i.i = add nsw i64 %word.0.i.i.i.i.i, -1
  %and6.i.i.i.i.i = and i64 %sub.i11.i.i.i.i, %word.0.i.i.i.i.i
  %tobool5.old.not.i.i.i.i.i = icmp eq i64 %and6.i.i.i.i.i, 0
  br i1 %tobool5.old.not.i.i.i.i.i, label %if.end.i, label %while.body.i.i.i.i.i

if.end.i:                                         ; preds = %"_ZZN8facebook5velox9functions12_GLOBAL__N_119applyMapComplexTypeERKNS0_17SelectivityVectorERKSt10shared_ptrINS0_10BaseVectorEESA_RNS0_4exec7EvalCtxEENK3$_1clEi.exit.i.i", %"_ZZN8facebook5velox9functions12_GLOBAL__N_119applyMapComplexTypeERKNS0_17SelectivityVectorERKSt10shared_ptrINS0_10BaseVectorEESA_RNS0_4exec7EvalCtxEENK3$_1clEi.exit.i.i.i.i.i", %"_ZZN8facebook5velox9functions12_GLOBAL__N_119applyMapComplexTypeERKNS0_17SelectivityVectorERKSt10shared_ptrINS0_10BaseVectorEESA_RNS0_4exec7EvalCtxEENK3$_1clEi.exit.i89.i.i.i.i", %if.then19.i.i.i.i160.i, %for.end.i.i.i8.i.i, %if.then3.i.i.i.i184.i, %if.else.i141.i, %if.then.i132.i, %if.then.i.i.i120.i, %_ZNSt6vectorIN8facebook5velox9functions12_GLOBAL__N_16MapKeyESaIS4_EED2Ev.exit117.i
  %values_.i.i = getelementptr inbounds %"class.facebook::velox::MapVector", ptr %37, i64 0, i32 2
  %251 = load ptr, ptr %values_.i.i, align 8
  %length_.i240.i = getelementptr inbounds %"class.facebook::velox::BaseVector", ptr %251, i64 0, i32 8
  %252 = load i32, ptr %length_.i240.i, align 8
  %cmp63.i = icmp eq i32 %252, 0
  br i1 %cmp63.i, label %invoke.cont69.i, label %if.end72.i

invoke.cont69.i:                                  ; preds = %if.end.i
  %type_.i.i = getelementptr inbounds %"class.facebook::velox::BaseVector", ptr %251, i64 0, i32 1
  %253 = load i32, ptr %end_.i.i, align 8, !noalias !4
  %254 = load ptr, ptr %context, align 8, !noalias !4
  %255 = load ptr, ptr %254, align 8
  invoke void @_ZN8facebook5velox10BaseVector18createNullConstantERKSt10shared_ptrIKNS0_4TypeEEiPNS0_6memory10MemoryPoolE(ptr sret(%"class.std::shared_ptr") align 8 %agg.result, ptr noundef nonnull align 8 dereferenceable(16) %type_.i.i, i32 noundef %253, ptr noundef %255)
          to label %cleanup.i unwind label %lpad35.loopexit.split-lp.loopexit.split-lp.loopexit.split-lp.loopexit.split-lp.loopexit.split-lp.loopexit.split-lp.loopexit.split-lp.loopexit.split-lp.loopexit.split-lp.loopexit.split-lp.loopexit.split-lp.loopexit.split-lp.i

if.end72.i:                                       ; preds = %if.end.i
  call void @llvm.experimental.noalias.scope.decl(metadata !27)
  %256 = load ptr, ptr %nulls_.i.i, align 8, !noalias !30
  store ptr %256, ptr %agg.tmp73.i, align 8, !alias.scope !27, !noalias !4
  %cmp.not.i.i244.i = icmp eq ptr %256, null
  br i1 %cmp.not.i.i244.i, label %invoke.cont74.i, label %if.then.i.i245.i

if.then.i.i245.i:                                 ; preds = %if.end72.i
  %referenceCount_.i.i.i.i246.i = getelementptr inbounds %"class.facebook::velox::Buffer", ptr %256, i64 0, i32 5
  %257 = atomicrmw add ptr %referenceCount_.i.i.i.i246.i, i32 1 seq_cst, align 4, !noalias !27
  br label %invoke.cont74.i

invoke.cont74.i:                                  ; preds = %if.then.i.i245.i, %if.end72.i
  %258 = load ptr, ptr %indices.i, align 8, !noalias !4
  store ptr %258, ptr %agg.tmp75.i, align 8, !noalias !4
  %cmp.not.i247.i = icmp eq ptr %258, null
  br i1 %cmp.not.i247.i, label %invoke.cont77.i, label %if.then.i248.i

if.then.i248.i:                                   ; preds = %invoke.cont74.i
  %referenceCount_.i.i.i.i = getelementptr inbounds %"class.facebook::velox::Buffer", ptr %258, i64 0, i32 5
  %259 = atomicrmw add ptr %referenceCount_.i.i.i.i, i32 1 seq_cst, align 4
  br label %invoke.cont77.i

invoke.cont77.i:                                  ; preds = %if.then.i248.i, %invoke.cont74.i
  %260 = load i32, ptr %end_.i.i, align 8, !noalias !4
  %_M_refcount.i.i252.i = getelementptr inbounds %"class.std::__shared_ptr", ptr %agg.tmp79.i, i64 0, i32 1
  %261 = load <2 x ptr>, ptr %values_.i.i, align 8
  store <2 x ptr> %261, ptr %agg.tmp79.i, align 16, !noalias !4
  %262 = extractelement <2 x ptr> %261, i64 1
  %cmp.not.i.i.i254.i = icmp eq ptr %262, null
  br i1 %cmp.not.i.i.i254.i, label %_ZNSt10shared_ptrIN8facebook5velox10BaseVectorEEC2ERKS3_.exit261.i, label %if.then.i.i.i255.i

if.then.i.i.i255.i:                               ; preds = %invoke.cont77.i
  %_M_use_count.i.i.i.i256.i = getelementptr inbounds %"class.std::_Sp_counted_base", ptr %262, i64 0, i32 1
  %263 = load i8, ptr @__libc_single_threaded, align 1, !noalias !4
  %tobool.i.not.i.i.i.i257.i = icmp eq i8 %263, 0
  br i1 %tobool.i.not.i.i.i.i257.i, label %if.else.i.i.i.i.i260.i, label %if.then.i.i.i.i.i258.i

if.then.i.i.i.i.i258.i:                           ; preds = %if.then.i.i.i255.i
  %264 = load i32, ptr %_M_use_count.i.i.i.i256.i, align 4
  %add.i.i.i.i.i259.i = add nsw i32 %264, 1
  store i32 %add.i.i.i.i.i259.i, ptr %_M_use_count.i.i.i.i256.i, align 4
  br label %_ZNSt10shared_ptrIN8facebook5velox10BaseVectorEEC2ERKS3_.exit261.i

if.else.i.i.i.i.i260.i:                           ; preds = %if.then.i.i.i255.i
  %265 = atomicrmw volatile add ptr %_M_use_count.i.i.i.i256.i, i32 1 acq_rel, align 4
  br label %_ZNSt10shared_ptrIN8facebook5velox10BaseVectorEEC2ERKS3_.exit261.i

_ZNSt10shared_ptrIN8facebook5velox10BaseVectorEEC2ERKS3_.exit261.i: ; preds = %if.else.i.i.i.i.i260.i, %if.then.i.i.i.i.i258.i, %invoke.cont77.i
  invoke void @_ZN8facebook5velox10BaseVector16wrapInDictionaryEN5boost13intrusive_ptrINS0_6BufferEEES5_iSt10shared_ptrIS1_E(ptr sret(%"class.std::shared_ptr") align 8 %agg.result, ptr noundef nonnull %agg.tmp73.i, ptr noundef nonnull %agg.tmp75.i, i32 noundef %260, ptr noundef nonnull %agg.tmp79.i)
          to label %invoke.cont82.i unwind label %lpad81.i

invoke.cont82.i:                                  ; preds = %_ZNSt10shared_ptrIN8facebook5velox10BaseVectorEEC2ERKS3_.exit261.i
  %266 = load ptr, ptr %_M_refcount.i.i252.i, align 8, !noalias !4
  %cmp.not.i.i.i263.i = icmp eq ptr %266, null
  br i1 %cmp.not.i.i.i263.i, label %_ZNSt10shared_ptrIN8facebook5velox10BaseVectorEED2Ev.exit.i, label %if.then.i.i.i264.i

if.then.i.i.i264.i:                               ; preds = %invoke.cont82.i
  %_M_use_count.i.i.i.i265.i = getelementptr inbounds %"class.std::_Sp_counted_base", ptr %266, i64 0, i32 1
  %267 = load atomic i64, ptr %_M_use_count.i.i.i.i265.i acquire, align 8
  %cmp.i.i.i.i266.i = icmp eq i64 %267, 4294967297
  %268 = trunc i64 %267 to i32
  br i1 %cmp.i.i.i.i266.i, label %if.then.i.i.i.i273.i, label %if.end.i.i.i.i267.i

if.then.i.i.i.i273.i:                             ; preds = %if.then.i.i.i264.i
  store i32 0, ptr %_M_use_count.i.i.i.i265.i, align 8
  %_M_weak_count.i.i.i.i.i = getelementptr inbounds %"class.std::_Sp_counted_base", ptr %266, i64 0, i32 2
  store i32 0, ptr %_M_weak_count.i.i.i.i.i, align 4
  %vtable.i.i.i.i274.i = load ptr, ptr %266, align 8
  %vfn.i.i.i.i275.i = getelementptr inbounds ptr, ptr %vtable.i.i.i.i274.i, i64 2
  %269 = load ptr, ptr %vfn.i.i.i.i275.i, align 8
  call void %269(ptr noundef nonnull align 8 dereferenceable(16) %266) #26
  br label %if.end8.sink.split.i.i.i.i.i

if.end.i.i.i.i267.i:                              ; preds = %if.then.i.i.i264.i
  %270 = load i8, ptr @__libc_single_threaded, align 1, !noalias !4
  %tobool.i.i.not.i.i.i.i.i = icmp eq i8 %270, 0
  br i1 %tobool.i.i.not.i.i.i.i.i, label %if.else.i.i.i.i.i272.i, label %if.then.i.i.i.i.i268.i

if.then.i.i.i.i.i268.i:                           ; preds = %if.end.i.i.i.i267.i
  %add.i.i.i.i.i269.i = add nsw i32 %268, -1
  store i32 %add.i.i.i.i.i269.i, ptr %_M_use_count.i.i.i.i265.i, align 4
  br label %_ZN9__gnu_cxx27__exchange_and_add_dispatchEPii.exit.i.i.i.i.i

if.else.i.i.i.i.i272.i:                           ; preds = %if.end.i.i.i.i267.i
  %271 = atomicrmw volatile add ptr %_M_use_count.i.i.i.i265.i, i32 -1 acq_rel, align 4
  br label %_ZN9__gnu_cxx27__exchange_and_add_dispatchEPii.exit.i.i.i.i.i

_ZN9__gnu_cxx27__exchange_and_add_dispatchEPii.exit.i.i.i.i.i: ; preds = %if.else.i.i.i.i.i272.i, %if.then.i.i.i.i.i268.i
  %retval.i.0.i.i.i.i.i = phi i32 [ %268, %if.then.i.i.i.i.i268.i ], [ %271, %if.else.i.i.i.i.i272.i ]
  %cmp6.i.i.i.i.i = icmp eq i32 %retval.i.0.i.i.i.i.i, 1
  br i1 %cmp6.i.i.i.i.i, label %if.then7.i.i.i.i.i, label %_ZNSt10shared_ptrIN8facebook5velox10BaseVectorEED2Ev.exit.i

if.then7.i.i.i.i.i:                               ; preds = %_ZN9__gnu_cxx27__exchange_and_add_dispatchEPii.exit.i.i.i.i.i
  %vtable.i.i.i.i.i.i270.i = load ptr, ptr %266, align 8
  %vfn.i.i.i.i.i.i271.i = getelementptr inbounds ptr, ptr %vtable.i.i.i.i.i.i270.i, i64 2
  %272 = load ptr, ptr %vfn.i.i.i.i.i.i271.i, align 8
  call void %272(ptr noundef nonnull align 8 dereferenceable(16) %266) #26
  %_M_weak_count.i.i.i.i.i.i.i = getelementptr inbounds %"class.std::_Sp_counted_base", ptr %266, i64 0, i32 2
  %273 = load i8, ptr @__libc_single_threaded, align 1, !noalias !4
  %tobool.i.i.not.i.i.i.i.i.i.i = icmp eq i8 %273, 0
  br i1 %tobool.i.i.not.i.i.i.i.i.i.i, label %if.else.i.i.i.i.i.i.i.i, label %if.then.i.i.i.i.i.i.i.i

if.then.i.i.i.i.i.i.i.i:                          ; preds = %if.then7.i.i.i.i.i
  %274 = load i32, ptr %_M_weak_count.i.i.i.i.i.i.i, align 4
  %add.i.i.i.i.i.i.i.i = add nsw i32 %274, -1
  store i32 %add.i.i.i.i.i.i.i.i, ptr %_M_weak_count.i.i.i.i.i.i.i, align 4
  br label %_ZN9__gnu_cxx27__exchange_and_add_dispatchEPii.exit.i.i.i.i.i.i.i

if.else.i.i.i.i.i.i.i.i:                          ; preds = %if.then7.i.i.i.i.i
  %275 = atomicrmw volatile add ptr %_M_weak_count.i.i.i.i.i.i.i, i32 -1 acq_rel, align 4
  br label %_ZN9__gnu_cxx27__exchange_and_add_dispatchEPii.exit.i.i.i.i.i.i.i

_ZN9__gnu_cxx27__exchange_and_add_dispatchEPii.exit.i.i.i.i.i.i.i: ; preds = %if.else.i.i.i.i.i.i.i.i, %if.then.i.i.i.i.i.i.i.i
  %retval.i.0.i.i.i.i.i.i.i = phi i32 [ %274, %if.then.i.i.i.i.i.i.i.i ], [ %275, %if.else.i.i.i.i.i.i.i.i ]
  %cmp.i.i.i.i.i.i.i = icmp eq i32 %retval.i.0.i.i.i.i.i.i.i, 1
  br i1 %cmp.i.i.i.i.i.i.i, label %if.end8.sink.split.i.i.i.i.i, label %_ZNSt10shared_ptrIN8facebook5velox10BaseVectorEED2Ev.exit.i

if.end8.sink.split.i.i.i.i.i:                     ; preds = %_ZN9__gnu_cxx27__exchange_and_add_dispatchEPii.exit.i.i.i.i.i.i.i, %if.then.i.i.i.i273.i
  %vtable2.i.i.i.i.i.i.i = load ptr, ptr %266, align 8
  %vfn3.i.i.i.i.i.i.i = getelementptr inbounds ptr, ptr %vtable2.i.i.i.i.i.i.i, i64 3
  %276 = load ptr, ptr %vfn3.i.i.i.i.i.i.i, align 8
  call void %276(ptr noundef nonnull align 8 dereferenceable(16) %266) #26
  br label %_ZNSt10shared_ptrIN8facebook5velox10BaseVectorEED2Ev.exit.i

_ZNSt10shared_ptrIN8facebook5velox10BaseVectorEED2Ev.exit.i: ; preds = %if.end8.sink.split.i.i.i.i.i, %_ZN9__gnu_cxx27__exchange_and_add_dispatchEPii.exit.i.i.i.i.i.i.i, %_ZN9__gnu_cxx27__exchange_and_add_dispatchEPii.exit.i.i.i.i.i, %invoke.cont82.i
  %277 = load ptr, ptr %agg.tmp75.i, align 8, !noalias !4
  %cmp.not.i276.i = icmp eq ptr %277, null
  br i1 %cmp.not.i276.i, label %_ZN5boost13intrusive_ptrIN8facebook5velox6BufferEED2Ev.exit.i, label %if.then.i277.i

if.then.i277.i:                                   ; preds = %_ZNSt10shared_ptrIN8facebook5velox10BaseVectorEED2Ev.exit.i
  %referenceCount_.i.i.i278.i = getelementptr inbounds %"class.facebook::velox::Buffer", ptr %277, i64 0, i32 5
  %278 = atomicrmw sub ptr %referenceCount_.i.i.i278.i, i32 1 seq_cst, align 4
  %cmp.i.i.i279.i = icmp eq i32 %278, 1
  br i1 %cmp.i.i.i279.i, label %if.then.i.i.i281.i, label %_ZN5boost13intrusive_ptrIN8facebook5velox6BufferEED2Ev.exit.i

if.then.i.i.i281.i:                               ; preds = %if.then.i277.i
  %vtable.i.i.i.i = load ptr, ptr %277, align 8
  %vfn.i.i.i.i = getelementptr inbounds ptr, ptr %vtable.i.i.i.i, i64 8
  %279 = load ptr, ptr %vfn.i.i.i.i, align 8
  invoke void %279(ptr noundef nonnull align 8 dereferenceable(64) %277)
          to label %.noexc.i.i unwind label %terminate.lpad.i.i

.noexc.i.i:                                       ; preds = %if.then.i.i.i281.i
  %pool_.i.i.i.i = getelementptr inbounds %"class.facebook::velox::Buffer", ptr %277, i64 0, i32 1
  %280 = load ptr, ptr %pool_.i.i.i.i, align 8
  %tobool.not.i.i.i282.i = icmp eq ptr %280, null
  %vtable5.i.i.i.i = load ptr, ptr %277, align 8
  br i1 %tobool.not.i.i.i282.i, label %delete.notnull.i.i.i.i, label %if.then2.i.i.i.i

if.then2.i.i.i.i:                                 ; preds = %.noexc.i.i
  %vfn4.i.i.i.i = getelementptr inbounds ptr, ptr %vtable5.i.i.i.i, i64 6
  %281 = load ptr, ptr %vfn4.i.i.i.i, align 8
  invoke void %281(ptr noundef nonnull align 8 dereferenceable(64) %277)
          to label %_ZN5boost13intrusive_ptrIN8facebook5velox6BufferEED2Ev.exit.i unwind label %terminate.lpad.i.i

delete.notnull.i.i.i.i:                           ; preds = %.noexc.i.i
  %vfn6.i.i.i.i = getelementptr inbounds ptr, ptr %vtable5.i.i.i.i, i64 1
  %282 = load ptr, ptr %vfn6.i.i.i.i, align 8
  call void %282(ptr noundef nonnull align 8 dereferenceable(64) %277) #26
  br label %_ZN5boost13intrusive_ptrIN8facebook5velox6BufferEED2Ev.exit.i

terminate.lpad.i.i:                               ; preds = %if.then2.i.i.i.i, %if.then.i.i.i281.i
  %283 = landingpad { ptr, i32 }
          catch ptr null
  %284 = extractvalue { ptr, i32 } %283, 0
  call void @__clang_call_terminate(ptr %284) #30
  unreachable

_ZN5boost13intrusive_ptrIN8facebook5velox6BufferEED2Ev.exit.i: ; preds = %delete.notnull.i.i.i.i, %if.then2.i.i.i.i, %if.then.i277.i, %_ZNSt10shared_ptrIN8facebook5velox10BaseVectorEED2Ev.exit.i
  %285 = load ptr, ptr %agg.tmp73.i, align 8, !noalias !4
  %cmp.not.i283.i = icmp eq ptr %285, null
  br i1 %cmp.not.i283.i, label %cleanup.i, label %if.then.i284.i

if.then.i284.i:                                   ; preds = %_ZN5boost13intrusive_ptrIN8facebook5velox6BufferEED2Ev.exit.i
  %referenceCount_.i.i.i285.i = getelementptr inbounds %"class.facebook::velox::Buffer", ptr %285, i64 0, i32 5
  %286 = atomicrmw sub ptr %referenceCount_.i.i.i285.i, i32 1 seq_cst, align 4
  %cmp.i.i.i286.i = icmp eq i32 %286, 1
  br i1 %cmp.i.i.i286.i, label %if.then.i.i.i288.i, label %cleanup.i

if.then.i.i.i288.i:                               ; preds = %if.then.i284.i
  %vtable.i.i.i289.i = load ptr, ptr %285, align 8
  %vfn.i.i.i290.i = getelementptr inbounds ptr, ptr %vtable.i.i.i289.i, i64 8
  %287 = load ptr, ptr %vfn.i.i.i290.i, align 8
  invoke void %287(ptr noundef nonnull align 8 dereferenceable(64) %285)
          to label %.noexc.i292.i unwind label %terminate.lpad.i291.i

.noexc.i292.i:                                    ; preds = %if.then.i.i.i288.i
  %pool_.i.i.i293.i = getelementptr inbounds %"class.facebook::velox::Buffer", ptr %285, i64 0, i32 1
  %288 = load ptr, ptr %pool_.i.i.i293.i, align 8
  %tobool.not.i.i.i294.i = icmp eq ptr %288, null
  %vtable5.i.i.i295.i = load ptr, ptr %285, align 8
  br i1 %tobool.not.i.i.i294.i, label %delete.notnull.i.i.i298.i, label %if.then2.i.i.i296.i

if.then2.i.i.i296.i:                              ; preds = %.noexc.i292.i
  %vfn4.i.i.i297.i = getelementptr inbounds ptr, ptr %vtable5.i.i.i295.i, i64 6
  %289 = load ptr, ptr %vfn4.i.i.i297.i, align 8
  invoke void %289(ptr noundef nonnull align 8 dereferenceable(64) %285)
          to label %cleanup.i unwind label %terminate.lpad.i291.i

delete.notnull.i.i.i298.i:                        ; preds = %.noexc.i292.i
  %vfn6.i.i.i299.i = getelementptr inbounds ptr, ptr %vtable5.i.i.i295.i, i64 1
  %290 = load ptr, ptr %vfn6.i.i.i299.i, align 8
  call void %290(ptr noundef nonnull align 8 dereferenceable(64) %285) #26
  br label %cleanup.i

terminate.lpad.i291.i:                            ; preds = %if.then2.i.i.i296.i, %if.then.i.i.i288.i
  %291 = landingpad { ptr, i32 }
          catch ptr null
  %292 = extractvalue { ptr, i32 } %291, 0
  call void @__clang_call_terminate(ptr %292) #30
  unreachable

lpad81.i:                                         ; preds = %_ZNSt10shared_ptrIN8facebook5velox10BaseVectorEEC2ERKS3_.exit261.i
  %293 = landingpad { ptr, i32 }
          cleanup
  call void @_ZNSt10shared_ptrIN8facebook5velox10BaseVectorEED2Ev(ptr noundef nonnull align 8 dereferenceable(16) %agg.tmp79.i) #26
  call void @_ZN5boost13intrusive_ptrIN8facebook5velox6BufferEED2Ev(ptr noundef nonnull align 8 dereferenceable(8) %agg.tmp75.i) #26
  call void @_ZN5boost13intrusive_ptrIN8facebook5velox6BufferEED2Ev(ptr noundef nonnull align 8 dereferenceable(8) %agg.tmp73.i) #26
  br label %ehcleanup83.i

cleanup.i:                                        ; preds = %delete.notnull.i.i.i298.i, %if.then2.i.i.i296.i, %if.then.i284.i, %_ZN5boost13intrusive_ptrIN8facebook5velox6BufferEED2Ev.exit.i, %invoke.cont69.i
  call void @_ZN8facebook5velox4exec18LocalDecodedVectorD2Ev(ptr noundef nonnull align 8 dereferenceable(16) %indexHolder.i) #26
  call void @_ZN8facebook5velox4exec18LocalDecodedVectorD2Ev(ptr noundef nonnull align 8 dereferenceable(16) %mapKeysHolder.i) #26
  %294 = load ptr, ptr %vector_.i42.i, align 8, !noalias !4
  %cmp.i.not.i.i = icmp eq ptr %294, null
  %295 = ptrtoint ptr %294 to i64
  br i1 %cmp.i.not.i.i, label %_ZN8facebook5velox4exec22LocalSelectivityVectorD2Ev.exit.i, label %if.then.i302.i

if.then.i302.i:                                   ; preds = %cleanup.i
  %296 = load ptr, ptr %allElementRows.i, align 8, !noalias !4
  %exprEvalCacheEnabled_.i.i.i = getelementptr inbounds %"class.facebook::velox::core::ExecCtx", ptr %296, i64 0, i32 2
  %297 = load i8, ptr %exprEvalCacheEnabled_.i.i.i, align 8
  %298 = and i8 %297, 1
  %tobool.not.i.not.i.i = icmp eq i8 %298, 0
  br i1 %tobool.not.i.not.i.i, label %delete.notnull.i.i.i308.i, label %if.then.i.i303.i

if.then.i.i303.i:                                 ; preds = %if.then.i302.i
  %_M_finish.i.i.i.i.i = getelementptr inbounds %"class.facebook::velox::core::ExecCtx", ptr %296, i64 0, i32 4, i32 0, i32 0, i32 0, i32 1
  %299 = load ptr, ptr %_M_finish.i.i.i.i.i, align 8
  %_M_end_of_storage.i.i.i.i.i = getelementptr inbounds %"class.facebook::velox::core::ExecCtx", ptr %296, i64 0, i32 4, i32 0, i32 0, i32 0, i32 2
  %300 = load ptr, ptr %_M_end_of_storage.i.i.i.i.i, align 8
  %cmp.not.i.i.i.i304.i = icmp eq ptr %299, %300
  br i1 %cmp.not.i.i.i.i304.i, label %if.else.i.i.i.i.i, label %if.end.i306.thread.i

if.end.i306.thread.i:                             ; preds = %if.then.i.i303.i
  store i64 %295, ptr %299, align 8
  %301 = load ptr, ptr %_M_finish.i.i.i.i.i, align 8
  %incdec.ptr.i.i.i.i.i = getelementptr inbounds %"class.std::unique_ptr.64", ptr %301, i64 1
  store ptr %incdec.ptr.i.i.i.i.i, ptr %_M_finish.i.i.i.i.i, align 8
  br label %_ZN8facebook5velox4exec22LocalSelectivityVectorD2Ev.exit.i

if.else.i.i.i.i.i:                                ; preds = %if.then.i.i303.i
  %selectivityVectorPool_.i.i.i = getelementptr inbounds %"class.facebook::velox::core::ExecCtx", ptr %296, i64 0, i32 4
  %302 = load ptr, ptr %selectivityVectorPool_.i.i.i, align 8
  %sub.ptr.lhs.cast.i.i.i.i = ptrtoint ptr %299 to i64
  %sub.ptr.rhs.cast.i.i.i.i = ptrtoint ptr %302 to i64
  %sub.ptr.sub.i.i.i.i = sub i64 %sub.ptr.lhs.cast.i.i.i.i, %sub.ptr.rhs.cast.i.i.i.i
  %cmp.i.i370.i = icmp eq i64 %sub.ptr.sub.i.i.i.i, 9223372036854775800
  br i1 %cmp.i.i370.i, label %if.then.i.i384.i, label %_ZNKSt6vectorISt10unique_ptrIN8facebook5velox17SelectivityVectorESt14default_deleteIS3_EESaIS6_EE12_M_check_lenEmPKc.exit.i.i

if.then.i.i384.i:                                 ; preds = %if.else.i.i.i.i.i
  invoke void @_ZSt20__throw_length_errorPKc(ptr noundef nonnull @.str.11) #28
          to label %.noexc385.i unwind label %terminate.lpad.i310.i

.noexc385.i:                                      ; preds = %if.then.i.i384.i
  unreachable

_ZNKSt6vectorISt10unique_ptrIN8facebook5velox17SelectivityVectorESt14default_deleteIS3_EESaIS6_EE12_M_check_lenEmPKc.exit.i.i: ; preds = %if.else.i.i.i.i.i
  %sub.ptr.div.i.i.i.i = ashr exact i64 %sub.ptr.sub.i.i.i.i, 3
  %.sroa.speculated.i.i.i = call i64 @llvm.umax.i64(i64 %sub.ptr.div.i.i.i.i, i64 1)
  %add.i.i371.i = add i64 %.sroa.speculated.i.i.i, %sub.ptr.div.i.i.i.i
  %cmp7.i.i.i = icmp ult i64 %add.i.i371.i, %sub.ptr.div.i.i.i.i
  %cmp9.i.i.i = icmp ugt i64 %add.i.i371.i, 1152921504606846975
  %or.cond.i.i.i = or i1 %cmp7.i.i.i, %cmp9.i.i.i
  %cond.i.i.i = select i1 %or.cond.i.i.i, i64 1152921504606846975, i64 %add.i.i371.i
  %cmp.not.i.i375.i = icmp eq i64 %cond.i.i.i, 0
  br i1 %cmp.not.i.i375.i, label %_ZNSt12_Vector_baseISt10unique_ptrIN8facebook5velox17SelectivityVectorESt14default_deleteIS3_EESaIS6_EE11_M_allocateEm.exit.i.i, label %_ZNSt16allocator_traitsISaISt10unique_ptrIN8facebook5velox17SelectivityVectorESt14default_deleteIS3_EEEE8allocateERS7_m.exit.i.i.i

_ZNSt16allocator_traitsISaISt10unique_ptrIN8facebook5velox17SelectivityVectorESt14default_deleteIS3_EEEE8allocateERS7_m.exit.i.i.i: ; preds = %_ZNKSt6vectorISt10unique_ptrIN8facebook5velox17SelectivityVectorESt14default_deleteIS3_EESaIS6_EE12_M_check_lenEmPKc.exit.i.i
  %mul.i.i.i.i376.i = shl nuw nsw i64 %cond.i.i.i, 3
  %call5.i.i.i.i387.i = invoke noalias noundef nonnull ptr @_Znwm(i64 noundef %mul.i.i.i.i376.i) #27
          to label %_ZNSt12_Vector_baseISt10unique_ptrIN8facebook5velox17SelectivityVectorESt14default_deleteIS3_EESaIS6_EE11_M_allocateEm.exit.i.i unwind label %terminate.lpad.i310.i

_ZNSt12_Vector_baseISt10unique_ptrIN8facebook5velox17SelectivityVectorESt14default_deleteIS3_EESaIS6_EE11_M_allocateEm.exit.i.i: ; preds = %_ZNSt16allocator_traitsISaISt10unique_ptrIN8facebook5velox17SelectivityVectorESt14default_deleteIS3_EEEE8allocateERS7_m.exit.i.i.i, %_ZNKSt6vectorISt10unique_ptrIN8facebook5velox17SelectivityVectorESt14default_deleteIS3_EESaIS6_EE12_M_check_lenEmPKc.exit.i.i
  %cond.i10.i.i = phi ptr [ null, %_ZNKSt6vectorISt10unique_ptrIN8facebook5velox17SelectivityVectorESt14default_deleteIS3_EESaIS6_EE12_M_check_lenEmPKc.exit.i.i ], [ %call5.i.i.i.i387.i, %_ZNSt16allocator_traitsISaISt10unique_ptrIN8facebook5velox17SelectivityVectorESt14default_deleteIS3_EEEE8allocateERS7_m.exit.i.i.i ]
  %add.ptr.i377.i = getelementptr inbounds %"class.std::unique_ptr.64", ptr %cond.i10.i.i, i64 %sub.ptr.div.i.i.i.i
  store i64 %295, ptr %add.ptr.i377.i, align 8
  store ptr null, ptr %vector_.i42.i, align 8, !noalias !4
  %cmp.not5.i.i.i.i.i = icmp eq ptr %302, %299
  br i1 %cmp.not5.i.i.i.i.i, label %_ZNSt6vectorISt10unique_ptrIN8facebook5velox17SelectivityVectorESt14default_deleteIS3_EESaIS6_EE11_S_relocateEPS6_S9_S9_RS7_.exit19.i.i, label %for.body.i.i.i.i378.i

for.body.i.i.i.i378.i:                            ; preds = %_ZNSt12_Vector_baseISt10unique_ptrIN8facebook5velox17SelectivityVectorESt14default_deleteIS3_EESaIS6_EE11_M_allocateEm.exit.i.i, %for.body.i.i.i.i378.i
  %__cur.07.i.i.i.i.i = phi ptr [ %incdec.ptr1.i.i.i.i.i, %for.body.i.i.i.i378.i ], [ %cond.i10.i.i, %_ZNSt12_Vector_baseISt10unique_ptrIN8facebook5velox17SelectivityVectorESt14default_deleteIS3_EESaIS6_EE11_M_allocateEm.exit.i.i ]
  %__first.addr.06.i.i.i.i.i = phi ptr [ %incdec.ptr.i.i.i.i379.i, %for.body.i.i.i.i378.i ], [ %302, %_ZNSt12_Vector_baseISt10unique_ptrIN8facebook5velox17SelectivityVectorESt14default_deleteIS3_EESaIS6_EE11_M_allocateEm.exit.i.i ]
  call void @llvm.experimental.noalias.scope.decl(metadata !31)
  call void @llvm.experimental.noalias.scope.decl(metadata !34)
  %303 = load i64, ptr %__first.addr.06.i.i.i.i.i, align 8, !alias.scope !34, !noalias !31
  store i64 %303, ptr %__cur.07.i.i.i.i.i, align 8, !alias.scope !31, !noalias !34
  store ptr null, ptr %__first.addr.06.i.i.i.i.i, align 8, !alias.scope !34, !noalias !31
  %incdec.ptr.i.i.i.i379.i = getelementptr inbounds %"class.std::unique_ptr.64", ptr %__first.addr.06.i.i.i.i.i, i64 1
  %incdec.ptr1.i.i.i.i.i = getelementptr inbounds %"class.std::unique_ptr.64", ptr %__cur.07.i.i.i.i.i, i64 1
  %cmp.not.i.i.i.i380.i = icmp eq ptr %incdec.ptr.i.i.i.i379.i, %299
  br i1 %cmp.not.i.i.i.i380.i, label %_ZNSt6vectorISt10unique_ptrIN8facebook5velox17SelectivityVectorESt14default_deleteIS3_EESaIS6_EE11_S_relocateEPS6_S9_S9_RS7_.exit19.i.i, label %for.body.i.i.i.i378.i, !llvm.loop !36

_ZNSt6vectorISt10unique_ptrIN8facebook5velox17SelectivityVectorESt14default_deleteIS3_EESaIS6_EE11_S_relocateEPS6_S9_S9_RS7_.exit19.i.i: ; preds = %for.body.i.i.i.i378.i, %_ZNSt12_Vector_baseISt10unique_ptrIN8facebook5velox17SelectivityVectorESt14default_deleteIS3_EESaIS6_EE11_M_allocateEm.exit.i.i
  %__cur.0.lcssa.i.i.i.i.i = phi ptr [ %cond.i10.i.i, %_ZNSt12_Vector_baseISt10unique_ptrIN8facebook5velox17SelectivityVectorESt14default_deleteIS3_EESaIS6_EE11_M_allocateEm.exit.i.i ], [ %incdec.ptr1.i.i.i.i.i, %for.body.i.i.i.i378.i ]
  %incdec.ptr.i381.i = getelementptr %"class.std::unique_ptr.64", ptr %__cur.0.lcssa.i.i.i.i.i, i64 1
  %tobool.not.i.i382.i = icmp eq ptr %302, null
  br i1 %tobool.not.i.i382.i, label %if.end.i306.i, label %if.then.i20.i.i

if.then.i20.i.i:                                  ; preds = %_ZNSt6vectorISt10unique_ptrIN8facebook5velox17SelectivityVectorESt14default_deleteIS3_EESaIS6_EE11_S_relocateEPS6_S9_S9_RS7_.exit19.i.i
  call void @_ZdlPv(ptr noundef nonnull %302) #29
  br label %if.end.i306.i

if.end.i306.i:                                    ; preds = %if.then.i20.i.i, %_ZNSt6vectorISt10unique_ptrIN8facebook5velox17SelectivityVectorESt14default_deleteIS3_EESaIS6_EE11_S_relocateEPS6_S9_S9_RS7_.exit19.i.i
  store ptr %cond.i10.i.i, ptr %selectivityVectorPool_.i.i.i, align 8
  store ptr %incdec.ptr.i381.i, ptr %_M_finish.i.i.i.i.i, align 8
  %add.ptr19.i.i = getelementptr inbounds %"class.std::unique_ptr.64", ptr %cond.i10.i.i, i64 %cond.i.i.i
  store ptr %add.ptr19.i.i, ptr %_M_end_of_storage.i.i.i.i.i, align 8
  %.pr.i.pr.pre.i = load ptr, ptr %vector_.i42.i, align 8, !noalias !4
  %cmp.not.i.i307.i = icmp eq ptr %.pr.i.pr.pre.i, null
  br i1 %cmp.not.i.i307.i, label %_ZN8facebook5velox4exec22LocalSelectivityVectorD2Ev.exit.i, label %delete.notnull.i.i.i308.i

delete.notnull.i.i.i308.i:                        ; preds = %if.end.i306.i, %if.then.i302.i
  %.pr.i.pr499.i = phi ptr [ %.pr.i.pr.pre.i, %if.end.i306.i ], [ %294, %if.then.i302.i ]
  %304 = load ptr, ptr %.pr.i.pr499.i, align 8
  %tobool.not.i.i.i.i.i.i.i.i = icmp eq ptr %304, null
  br i1 %tobool.not.i.i.i.i.i.i.i.i, label %_ZNKSt14default_deleteIN8facebook5velox17SelectivityVectorEEclEPS2_.exit.i.i.i, label %if.then.i.i.i.i.i.i.i309.i

if.then.i.i.i.i.i.i.i309.i:                       ; preds = %delete.notnull.i.i.i308.i
  call void @_ZdlPv(ptr noundef nonnull %304) #29
  br label %_ZNKSt14default_deleteIN8facebook5velox17SelectivityVectorEEclEPS2_.exit.i.i.i

_ZNKSt14default_deleteIN8facebook5velox17SelectivityVectorEEclEPS2_.exit.i.i.i: ; preds = %if.then.i.i.i.i.i.i.i309.i, %delete.notnull.i.i.i308.i
  call void @_ZdlPv(ptr noundef nonnull %.pr.i.pr499.i) #29
  br label %_ZN8facebook5velox4exec22LocalSelectivityVectorD2Ev.exit.i

terminate.lpad.i310.i:                            ; preds = %_ZNSt16allocator_traitsISaISt10unique_ptrIN8facebook5velox17SelectivityVectorESt14default_deleteIS3_EEEE8allocateERS7_m.exit.i.i.i, %if.then.i.i384.i
  %305 = landingpad { ptr, i32 }
          catch ptr null
  %306 = extractvalue { ptr, i32 } %305, 0
  call void @__clang_call_terminate(ptr %306) #30
  unreachable

_ZN8facebook5velox4exec22LocalSelectivityVectorD2Ev.exit.i: ; preds = %_ZNKSt14default_deleteIN8facebook5velox17SelectivityVectorEEclEPS2_.exit.i.i.i, %if.end.i306.i, %if.end.i306.thread.i, %cleanup.i
  store ptr null, ptr %vector_.i42.i, align 8, !noalias !4
  %307 = load ptr, ptr %_M_refcount.i.i.i, align 8, !noalias !4
  %cmp.not.i.i.i312.i = icmp eq ptr %307, null
  br i1 %cmp.not.i.i.i312.i, label %_ZNSt10shared_ptrIN8facebook5velox10BaseVectorEED2Ev.exit342.i, label %if.then.i.i.i313.i

if.then.i.i.i313.i:                               ; preds = %_ZN8facebook5velox4exec22LocalSelectivityVectorD2Ev.exit.i
  %_M_use_count.i.i.i.i314.i = getelementptr inbounds %"class.std::_Sp_counted_base", ptr %307, i64 0, i32 1
  %308 = load atomic i64, ptr %_M_use_count.i.i.i.i314.i acquire, align 8
  %cmp.i.i.i.i315.i = icmp eq i64 %308, 4294967297
  %309 = trunc i64 %308 to i32
  br i1 %cmp.i.i.i.i315.i, label %if.then.i.i.i.i338.i, label %if.end.i.i.i.i316.i

if.then.i.i.i.i338.i:                             ; preds = %if.then.i.i.i313.i
  store i32 0, ptr %_M_use_count.i.i.i.i314.i, align 8
  %_M_weak_count.i.i.i.i339.i = getelementptr inbounds %"class.std::_Sp_counted_base", ptr %307, i64 0, i32 2
  store i32 0, ptr %_M_weak_count.i.i.i.i339.i, align 4
  %vtable.i.i.i.i340.i = load ptr, ptr %307, align 8
  %vfn.i.i.i.i341.i = getelementptr inbounds ptr, ptr %vtable.i.i.i.i340.i, i64 2
  %310 = load ptr, ptr %vfn.i.i.i.i341.i, align 8
  call void %310(ptr noundef nonnull align 8 dereferenceable(16) %307) #26
  br label %if.end8.sink.split.i.i.i.i333.i

if.end.i.i.i.i316.i:                              ; preds = %if.then.i.i.i313.i
  %311 = load i8, ptr @__libc_single_threaded, align 1, !noalias !4
  %tobool.i.i.not.i.i.i.i317.i = icmp eq i8 %311, 0
  br i1 %tobool.i.i.not.i.i.i.i317.i, label %if.else.i.i.i.i.i337.i, label %if.then.i.i.i.i.i318.i

if.then.i.i.i.i.i318.i:                           ; preds = %if.end.i.i.i.i316.i
  %add.i.i.i.i.i319.i = add nsw i32 %309, -1
  store i32 %add.i.i.i.i.i319.i, ptr %_M_use_count.i.i.i.i314.i, align 4
  br label %_ZN9__gnu_cxx27__exchange_and_add_dispatchEPii.exit.i.i.i.i320.i

if.else.i.i.i.i.i337.i:                           ; preds = %if.end.i.i.i.i316.i
  %312 = atomicrmw volatile add ptr %_M_use_count.i.i.i.i314.i, i32 -1 acq_rel, align 4
  br label %_ZN9__gnu_cxx27__exchange_and_add_dispatchEPii.exit.i.i.i.i320.i

_ZN9__gnu_cxx27__exchange_and_add_dispatchEPii.exit.i.i.i.i320.i: ; preds = %if.else.i.i.i.i.i337.i, %if.then.i.i.i.i.i318.i
  %retval.i.0.i.i.i.i321.i = phi i32 [ %309, %if.then.i.i.i.i.i318.i ], [ %312, %if.else.i.i.i.i.i337.i ]
  %cmp6.i.i.i.i322.i = icmp eq i32 %retval.i.0.i.i.i.i321.i, 1
  br i1 %cmp6.i.i.i.i322.i, label %if.then7.i.i.i.i323.i, label %_ZNSt10shared_ptrIN8facebook5velox10BaseVectorEED2Ev.exit342.i

if.then7.i.i.i.i323.i:                            ; preds = %_ZN9__gnu_cxx27__exchange_and_add_dispatchEPii.exit.i.i.i.i320.i
  %vtable.i.i.i.i.i.i324.i = load ptr, ptr %307, align 8
  %vfn.i.i.i.i.i.i325.i = getelementptr inbounds ptr, ptr %vtable.i.i.i.i.i.i324.i, i64 2
  %313 = load ptr, ptr %vfn.i.i.i.i.i.i325.i, align 8
  call void %313(ptr noundef nonnull align 8 dereferenceable(16) %307) #26
  %_M_weak_count.i.i.i.i.i.i326.i = getelementptr inbounds %"class.std::_Sp_counted_base", ptr %307, i64 0, i32 2
  %314 = load i8, ptr @__libc_single_threaded, align 1, !noalias !4
  %tobool.i.i.not.i.i.i.i.i.i327.i = icmp eq i8 %314, 0
  br i1 %tobool.i.i.not.i.i.i.i.i.i327.i, label %if.else.i.i.i.i.i.i.i336.i, label %if.then.i.i.i.i.i.i.i328.i

if.then.i.i.i.i.i.i.i328.i:                       ; preds = %if.then7.i.i.i.i323.i
  %315 = load i32, ptr %_M_weak_count.i.i.i.i.i.i326.i, align 4
  %add.i.i.i.i.i.i.i329.i = add nsw i32 %315, -1
  store i32 %add.i.i.i.i.i.i.i329.i, ptr %_M_weak_count.i.i.i.i.i.i326.i, align 4
  br label %_ZN9__gnu_cxx27__exchange_and_add_dispatchEPii.exit.i.i.i.i.i.i330.i

if.else.i.i.i.i.i.i.i336.i:                       ; preds = %if.then7.i.i.i.i323.i
  %316 = atomicrmw volatile add ptr %_M_weak_count.i.i.i.i.i.i326.i, i32 -1 acq_rel, align 4
  br label %_ZN9__gnu_cxx27__exchange_and_add_dispatchEPii.exit.i.i.i.i.i.i330.i

_ZN9__gnu_cxx27__exchange_and_add_dispatchEPii.exit.i.i.i.i.i.i330.i: ; preds = %if.else.i.i.i.i.i.i.i336.i, %if.then.i.i.i.i.i.i.i328.i
  %retval.i.0.i.i.i.i.i.i331.i = phi i32 [ %315, %if.then.i.i.i.i.i.i.i328.i ], [ %316, %if.else.i.i.i.i.i.i.i336.i ]
  %cmp.i.i.i.i.i.i332.i = icmp eq i32 %retval.i.0.i.i.i.i.i.i331.i, 1
  br i1 %cmp.i.i.i.i.i.i332.i, label %if.end8.sink.split.i.i.i.i333.i, label %_ZNSt10shared_ptrIN8facebook5velox10BaseVectorEED2Ev.exit342.i

if.end8.sink.split.i.i.i.i333.i:                  ; preds = %_ZN9__gnu_cxx27__exchange_and_add_dispatchEPii.exit.i.i.i.i.i.i330.i, %if.then.i.i.i.i338.i
  %vtable2.i.i.i.i.i.i334.i = load ptr, ptr %307, align 8
  %vfn3.i.i.i.i.i.i335.i = getelementptr inbounds ptr, ptr %vtable2.i.i.i.i.i.i334.i, i64 3
  %317 = load ptr, ptr %vfn3.i.i.i.i.i.i335.i, align 8
  call void %317(ptr noundef nonnull align 8 dereferenceable(16) %307) #26
  br label %_ZNSt10shared_ptrIN8facebook5velox10BaseVectorEED2Ev.exit342.i

_ZNSt10shared_ptrIN8facebook5velox10BaseVectorEED2Ev.exit342.i: ; preds = %if.end8.sink.split.i.i.i.i333.i, %_ZN9__gnu_cxx27__exchange_and_add_dispatchEPii.exit.i.i.i.i.i.i330.i, %_ZN9__gnu_cxx27__exchange_and_add_dispatchEPii.exit.i.i.i.i320.i, %_ZN8facebook5velox4exec22LocalSelectivityVectorD2Ev.exit.i
  call void @_ZN8facebook5velox4exec18LocalDecodedVectorD2Ev(ptr noundef nonnull align 8 dereferenceable(16) %mapHolder.i) #26
  %318 = load ptr, ptr %nulls_.i.i, align 8, !noalias !4
  %cmp.not.i.i344.i = icmp eq ptr %318, null
  br i1 %cmp.not.i.i344.i, label %_ZN8facebook5velox12NullsBuilderD2Ev.exit.i, label %if.then.i.i345.i

if.then.i.i345.i:                                 ; preds = %_ZNSt10shared_ptrIN8facebook5velox10BaseVectorEED2Ev.exit342.i
  %referenceCount_.i.i.i.i346.i = getelementptr inbounds %"class.facebook::velox::Buffer", ptr %318, i64 0, i32 5
  %319 = atomicrmw sub ptr %referenceCount_.i.i.i.i346.i, i32 1 seq_cst, align 4
  %cmp.i.i.i.i347.i = icmp eq i32 %319, 1
  br i1 %cmp.i.i.i.i347.i, label %if.then.i.i.i.i348.i, label %_ZN8facebook5velox12NullsBuilderD2Ev.exit.i

if.then.i.i.i.i348.i:                             ; preds = %if.then.i.i345.i
  %vtable.i.i.i.i349.i = load ptr, ptr %318, align 8
  %vfn.i.i.i.i350.i = getelementptr inbounds ptr, ptr %vtable.i.i.i.i349.i, i64 8
  %320 = load ptr, ptr %vfn.i.i.i.i350.i, align 8
  invoke void %320(ptr noundef nonnull align 8 dereferenceable(64) %318)
          to label %.noexc.i.i.i unwind label %terminate.lpad.i.i.i

.noexc.i.i.i:                                     ; preds = %if.then.i.i.i.i348.i
  %pool_.i.i.i.i351.i = getelementptr inbounds %"class.facebook::velox::Buffer", ptr %318, i64 0, i32 1
  %321 = load ptr, ptr %pool_.i.i.i.i351.i, align 8
  %tobool.not.i.i.i.i.i = icmp eq ptr %321, null
  %vtable5.i.i.i.i.i = load ptr, ptr %318, align 8
  br i1 %tobool.not.i.i.i.i.i, label %delete.notnull.i.i.i.i.i, label %if.then2.i.i.i.i.i

if.then2.i.i.i.i.i:                               ; preds = %.noexc.i.i.i
  %vfn4.i.i.i.i.i = getelementptr inbounds ptr, ptr %vtable5.i.i.i.i.i, i64 6
  %322 = load ptr, ptr %vfn4.i.i.i.i.i, align 8
  invoke void %322(ptr noundef nonnull align 8 dereferenceable(64) %318)
          to label %_ZN8facebook5velox12NullsBuilderD2Ev.exit.i unwind label %terminate.lpad.i.i.i

delete.notnull.i.i.i.i.i:                         ; preds = %.noexc.i.i.i
  %vfn6.i.i.i.i.i = getelementptr inbounds ptr, ptr %vtable5.i.i.i.i.i, i64 1
  %323 = load ptr, ptr %vfn6.i.i.i.i.i, align 8
  call void %323(ptr noundef nonnull align 8 dereferenceable(64) %318) #26
  br label %_ZN8facebook5velox12NullsBuilderD2Ev.exit.i

terminate.lpad.i.i.i:                             ; preds = %if.then2.i.i.i.i.i, %if.then.i.i.i.i348.i
  %324 = landingpad { ptr, i32 }
          catch ptr null
  %325 = extractvalue { ptr, i32 } %324, 0
  call void @__clang_call_terminate(ptr %325) #30
  unreachable

_ZN8facebook5velox12NullsBuilderD2Ev.exit.i:      ; preds = %delete.notnull.i.i.i.i.i, %if.then2.i.i.i.i.i, %if.then.i.i345.i, %_ZNSt10shared_ptrIN8facebook5velox10BaseVectorEED2Ev.exit342.i
  %326 = load ptr, ptr %indices.i, align 8, !noalias !4
  %cmp.not.i352.i = icmp eq ptr %326, null
  br i1 %cmp.not.i352.i, label %_ZN8facebook5velox9functions12_GLOBAL__N_119applyMapComplexTypeERKNS0_17SelectivityVectorERKSt10shared_ptrINS0_10BaseVectorEESA_RNS0_4exec7EvalCtxE.exit, label %if.then.i353.i

if.then.i353.i:                                   ; preds = %_ZN8facebook5velox12NullsBuilderD2Ev.exit.i
  %referenceCount_.i.i.i354.i = getelementptr inbounds %"class.facebook::velox::Buffer", ptr %326, i64 0, i32 5
  %327 = atomicrmw sub ptr %referenceCount_.i.i.i354.i, i32 1 seq_cst, align 4
  %cmp.i.i.i355.i = icmp eq i32 %327, 1
  br i1 %cmp.i.i.i355.i, label %if.then.i.i.i357.i, label %_ZN8facebook5velox9functions12_GLOBAL__N_119applyMapComplexTypeERKNS0_17SelectivityVectorERKSt10shared_ptrINS0_10BaseVectorEESA_RNS0_4exec7EvalCtxE.exit

if.then.i.i.i357.i:                               ; preds = %if.then.i353.i
  %vtable.i.i.i358.i = load ptr, ptr %326, align 8
  %vfn.i.i.i359.i = getelementptr inbounds ptr, ptr %vtable.i.i.i358.i, i64 8
  %328 = load ptr, ptr %vfn.i.i.i359.i, align 8
  invoke void %328(ptr noundef nonnull align 8 dereferenceable(64) %326)
          to label %.noexc.i361.i unwind label %terminate.lpad.i360.i

.noexc.i361.i:                                    ; preds = %if.then.i.i.i357.i
  %pool_.i.i.i362.i = getelementptr inbounds %"class.facebook::velox::Buffer", ptr %326, i64 0, i32 1
  %329 = load ptr, ptr %pool_.i.i.i362.i, align 8
  %tobool.not.i.i.i363.i = icmp eq ptr %329, null
  %vtable5.i.i.i364.i = load ptr, ptr %326, align 8
  br i1 %tobool.not.i.i.i363.i, label %delete.notnull.i.i.i367.i, label %if.then2.i.i.i365.i

if.then2.i.i.i365.i:                              ; preds = %.noexc.i361.i
  %vfn4.i.i.i366.i = getelementptr inbounds ptr, ptr %vtable5.i.i.i364.i, i64 6
  %330 = load ptr, ptr %vfn4.i.i.i366.i, align 8
  invoke void %330(ptr noundef nonnull align 8 dereferenceable(64) %326)
          to label %_ZN8facebook5velox9functions12_GLOBAL__N_119applyMapComplexTypeERKNS0_17SelectivityVectorERKSt10shared_ptrINS0_10BaseVectorEESA_RNS0_4exec7EvalCtxE.exit unwind label %terminate.lpad.i360.i

delete.notnull.i.i.i367.i:                        ; preds = %.noexc.i361.i
  %vfn6.i.i.i368.i = getelementptr inbounds ptr, ptr %vtable5.i.i.i364.i, i64 1
  %331 = load ptr, ptr %vfn6.i.i.i368.i, align 8
  call void %331(ptr noundef nonnull align 8 dereferenceable(64) %326) #26
  br label %_ZN8facebook5velox9functions12_GLOBAL__N_119applyMapComplexTypeERKNS0_17SelectivityVectorERKSt10shared_ptrINS0_10BaseVectorEESA_RNS0_4exec7EvalCtxE.exit

terminate.lpad.i360.i:                            ; preds = %if.then2.i.i.i365.i, %if.then.i.i.i357.i
  %332 = landingpad { ptr, i32 }
          catch ptr null
  %333 = extractvalue { ptr, i32 } %332, 0
  call void @__clang_call_terminate(ptr %333) #30
  unreachable

ehcleanup83.i:                                    ; preds = %lpad81.i, %if.then.i.i.i92.i, %_ZNSt6vectorIN8facebook5velox9functions12_GLOBAL__N_16MapKeyESaIS4_EED2Ev.exit.i, %lpad35.loopexit.split-lp.loopexit.split-lp.loopexit.split-lp.loopexit.split-lp.loopexit.split-lp.loopexit.split-lp.loopexit.split-lp.loopexit.split-lp.loopexit.split-lp.loopexit.split-lp.loopexit.split-lp.loopexit.split-lp.i, %lpad35.loopexit.split-lp.loopexit.split-lp.loopexit.split-lp.loopexit.split-lp.loopexit.split-lp.loopexit.split-lp.loopexit.split-lp.loopexit.split-lp.loopexit.split-lp.loopexit.split-lp.loopexit.split-lp.loopexit.i, %lpad35.loopexit.split-lp.loopexit.split-lp.loopexit.split-lp.loopexit.split-lp.loopexit.split-lp.loopexit.split-lp.loopexit.split-lp.loopexit.split-lp.loopexit.split-lp.loopexit.split-lp.loopexit.i, %lpad35.loopexit.split-lp.loopexit.split-lp.loopexit.split-lp.loopexit.split-lp.loopexit.split-lp.loopexit.split-lp.loopexit.split-lp.loopexit.split-lp.loopexit.split-lp.loopexit.i, %lpad35.loopexit.split-lp.loopexit.split-lp.loopexit.split-lp.loopexit.split-lp.loopexit.split-lp.loopexit.split-lp.loopexit.split-lp.loopexit.split-lp.loopexit.i, %lpad35.loopexit.split-lp.loopexit.split-lp.loopexit.split-lp.loopexit.split-lp.loopexit.split-lp.loopexit.split-lp.loopexit.split-lp.loopexit.i, %lpad35.loopexit.split-lp.loopexit.split-lp.loopexit.split-lp.loopexit.split-lp.loopexit.split-lp.loopexit.split-lp.loopexit.i, %lpad35.loopexit.split-lp.loopexit.split-lp.loopexit.split-lp.loopexit.split-lp.loopexit.split-lp.loopexit.i, %lpad35.loopexit.split-lp.loopexit.split-lp.loopexit.split-lp.loopexit.split-lp.loopexit.i, %lpad35.loopexit.split-lp.loopexit.split-lp.loopexit.split-lp.loopexit.i, %lpad35.loopexit.split-lp.loopexit.split-lp.loopexit.i, %lpad35.loopexit.split-lp.loopexit.i, %lpad35.loopexit.i
  %.pn27.i = phi { ptr, i32 } [ %293, %lpad81.i ], [ %lpad.phi.i, %_ZNSt6vectorIN8facebook5velox9functions12_GLOBAL__N_16MapKeyESaIS4_EED2Ev.exit.i ], [ %lpad.phi.i, %if.then.i.i.i92.i ], [ %lpad.loopexit431.i, %lpad35.loopexit.i ], [ %lpad.loopexit433.i, %lpad35.loopexit.split-lp.loopexit.i ], [ %lpad.loopexit436.i, %lpad35.loopexit.split-lp.loopexit.split-lp.loopexit.i ], [ %lpad.loopexit438.i, %lpad35.loopexit.split-lp.loopexit.split-lp.loopexit.split-lp.loopexit.i ], [ %lpad.loopexit442.i, %lpad35.loopexit.split-lp.loopexit.split-lp.loopexit.split-lp.loopexit.split-lp.loopexit.i ], [ %lpad.loopexit444.i, %lpad35.loopexit.split-lp.loopexit.split-lp.loopexit.split-lp.loopexit.split-lp.loopexit.split-lp.loopexit.i ], [ %lpad.loopexit447.i, %lpad35.loopexit.split-lp.loopexit.split-lp.loopexit.split-lp.loopexit.split-lp.loopexit.split-lp.loopexit.split-lp.loopexit.i ], [ %lpad.loopexit449.i, %lpad35.loopexit.split-lp.loopexit.split-lp.loopexit.split-lp.loopexit.split-lp.loopexit.split-lp.loopexit.split-lp.loopexit.split-lp.loopexit.i ], [ %lpad.loopexit453.i, %lpad35.loopexit.split-lp.loopexit.split-lp.loopexit.split-lp.loopexit.split-lp.loopexit.split-lp.loopexit.split-lp.loopexit.split-lp.loopexit.split-lp.loopexit.i ], [ %lpad.loopexit455.i, %lpad35.loopexit.split-lp.loopexit.split-lp.loopexit.split-lp.loopexit.split-lp.loopexit.split-lp.loopexit.split-lp.loopexit.split-lp.loopexit.split-lp.loopexit.split-lp.loopexit.i ], [ %lpad.loopexit458.i, %lpad35.loopexit.split-lp.loopexit.split-lp.loopexit.split-lp.loopexit.split-lp.loopexit.split-lp.loopexit.split-lp.loopexit.split-lp.loopexit.split-lp.loopexit.split-lp.loopexit.split-lp.loopexit.i ], [ %lpad.loopexit460.i, %lpad35.loopexit.split-lp.loopexit.split-lp.loopexit.split-lp.loopexit.split-lp.loopexit.split-lp.loopexit.split-lp.loopexit.split-lp.loopexit.split-lp.loopexit.split-lp.loopexit.split-lp.loopexit.split-lp.loopexit.i ], [ %lpad.loopexit.split-lp461.i, %lpad35.loopexit.split-lp.loopexit.split-lp.loopexit.split-lp.loopexit.split-lp.loopexit.split-lp.loopexit.split-lp.loopexit.split-lp.loopexit.split-lp.loopexit.split-lp.loopexit.split-lp.loopexit.split-lp.loopexit.split-lp.i ]
  call void @_ZN8facebook5velox4exec18LocalDecodedVectorD2Ev(ptr noundef nonnull align 8 dereferenceable(16) %indexHolder.i) #26
  br label %ehcleanup85.i

ehcleanup85.i:                                    ; preds = %ehcleanup83.i, %lpad27.i, %lpad.i62.i
  %.pn27.pn.i = phi { ptr, i32 } [ %.pn27.i, %ehcleanup83.i ], [ %89, %lpad27.i ], [ %67, %lpad.i62.i ]
  call void @_ZN8facebook5velox4exec18LocalDecodedVectorD2Ev(ptr noundef nonnull align 8 dereferenceable(16) %mapKeysHolder.i) #26
  br label %ehcleanup87.i

ehcleanup87.i:                                    ; preds = %ehcleanup85.i, %lpad.i49.i
  %.pn27.pn.pn.i = phi { ptr, i32 } [ %.pn27.pn.i, %ehcleanup85.i ], [ %61, %lpad.i49.i ]
  call void @_ZN8facebook5velox4exec22LocalSelectivityVectorD2Ev(ptr noundef nonnull align 8 dereferenceable(16) %allElementRows.i) #26
  br label %ehcleanup89.i

ehcleanup89.i:                                    ; preds = %ehcleanup87.i, %lpad19.i
  %.pn27.pn.pn.pn.i = phi { ptr, i32 } [ %.pn27.pn.pn.i, %ehcleanup87.i ], [ %88, %lpad19.i ]
  call void @_ZNSt10shared_ptrIN8facebook5velox10BaseVectorEED2Ev(ptr noundef nonnull align 8 dereferenceable(16) %mapKeys.i) #26
  br label %ehcleanup91.i

ehcleanup91.i:                                    ; preds = %ehcleanup89.i, %lpad9.i
  %.pn27.pn.pn.pn.pn.i = phi { ptr, i32 } [ %.pn27.pn.pn.pn.i, %ehcleanup89.i ], [ %87, %lpad9.i ]
  call void @_ZN8facebook5velox4exec18LocalDecodedVectorD2Ev(ptr noundef nonnull align 8 dereferenceable(16) %mapHolder.i) #26
  br label %ehcleanup93.i

ehcleanup93.i:                                    ; preds = %ehcleanup91.i, %lpad.i.i
  %.pn27.pn.pn.pn.pn.pn.i = phi { ptr, i32 } [ %.pn27.pn.pn.pn.pn.i, %ehcleanup91.i ], [ %35, %lpad.i.i ]
  call void @_ZN8facebook5velox12NullsBuilderD2Ev(ptr noundef nonnull align 8 dereferenceable(32) %nullsBuilder.i) #26
  br label %common.resume.i

_ZN8facebook5velox9functions12_GLOBAL__N_119applyMapComplexTypeERKNS0_17SelectivityVectorERKSt10shared_ptrINS0_10BaseVectorEESA_RNS0_4exec7EvalCtxE.exit: ; preds = %_ZN8facebook5velox12NullsBuilderD2Ev.exit.i, %if.then.i353.i, %if.then2.i.i.i365.i, %delete.notnull.i.i.i367.i
  call void @llvm.lifetime.end.p0(i64 8, ptr nonnull %indices.i)
  call void @llvm.lifetime.end.p0(i64 8, ptr nonnull %rawIndices.i)
  call void @llvm.lifetime.end.p0(i64 32, ptr nonnull %nullsBuilder.i)
  call void @llvm.lifetime.end.p0(i64 16, ptr nonnull %mapHolder.i)
  call void @llvm.lifetime.end.p0(i64 8, ptr nonnull %mapIndices.i)
  call void @llvm.lifetime.end.p0(i64 16, ptr nonnull %mapKeys.i)
  call void @llvm.lifetime.end.p0(i64 16, ptr nonnull %allElementRows.i)
  call void @llvm.lifetime.end.p0(i64 16, ptr nonnull %mapKeysHolder.i)
  call void @llvm.lifetime.end.p0(i64 8, ptr nonnull %mapKeysBase.i)
  call void @llvm.lifetime.end.p0(i64 16, ptr nonnull %indexHolder.i)
  call void @llvm.lifetime.end.p0(i64 8, ptr nonnull %searchBase.i)
  call void @llvm.lifetime.end.p0(i64 8, ptr nonnull %searchIndices.i)
  call void @llvm.lifetime.end.p0(i64 24, ptr nonnull %sortedKeyIndices.i)
  call void @llvm.lifetime.end.p0(i64 24, ptr nonnull %sortedKeys.i)
  call void @llvm.lifetime.end.p0(i64 8, ptr nonnull %agg.tmp73.i)
  call void @llvm.lifetime.end.p0(i64 8, ptr nonnull %agg.tmp75.i)
  call void @llvm.lifetime.end.p0(i64 16, ptr nonnull %agg.tmp79.i)
  br label %return

return:                                           ; preds = %_ZN8facebook5velox9functions12_GLOBAL__N_119applyMapComplexTypeERKNS0_17SelectivityVectorERKSt10shared_ptrINS0_10BaseVectorEESA_RNS0_4exec7EvalCtxE.exit, %if.then20
  ret void
}

; Function Attrs: cold noreturn nounwind memory(inaccessiblemem: write)
declare void @llvm.trap() #1

; Function Attrs: mustprogress uwtable
define linkonce_odr noundef zeroext i1 @_ZNK8facebook5velox9functions12MapSubscript20shouldTriggerCachingERKSt10shared_ptrINS0_10BaseVectorEE(ptr noundef nonnull align 8 dereferenceable(40) %this, ptr noundef nonnull align 8 dereferenceable(16) %mapArg) local_unnamed_addr #0 comdat align 2 personality ptr @__gxx_personality_v0 {
entry:
  %0 = load i8, ptr %this, align 8
  %1 = and i8 %0, 1
  %tobool.not = icmp eq i8 %1, 0
  br i1 %tobool.not, label %return, label %if.end

if.end:                                           ; preds = %entry
  %2 = load ptr, ptr %mapArg, align 8
  %type_.i = getelementptr inbounds %"class.facebook::velox::BaseVector", ptr %2, i64 0, i32 1
  %3 = load ptr, ptr %type_.i, align 8
  %vtable = load ptr, ptr %3, align 8
  %vfn = getelementptr inbounds ptr, ptr %vtable, i64 3
  %4 = load ptr, ptr %vfn, align 8
  %call4 = tail call noundef nonnull align 8 dereferenceable(16) ptr %4(ptr noundef nonnull align 8 dereferenceable(8) %3, i32 noundef 0)
  %5 = load ptr, ptr %call4, align 8
  %vtable6 = load ptr, ptr %5, align 8
  %vfn7 = getelementptr inbounds ptr, ptr %vtable6, i64 4
  %6 = load ptr, ptr %vfn7, align 8
  %call8 = tail call noundef zeroext i1 %6(ptr noundef nonnull align 8 dereferenceable(17) %5)
  br i1 %call8, label %if.end19, label %land.lhs.true

land.lhs.true:                                    ; preds = %if.end
  %7 = load ptr, ptr %mapArg, align 8
  %type_.i4 = getelementptr inbounds %"class.facebook::velox::BaseVector", ptr %7, i64 0, i32 1
  %8 = load ptr, ptr %type_.i4, align 8
  %vtable12 = load ptr, ptr %8, align 8
  %vfn13 = getelementptr inbounds ptr, ptr %vtable12, i64 3
  %9 = load ptr, ptr %vfn13, align 8
  %call14 = tail call noundef nonnull align 8 dereferenceable(16) ptr %9(ptr noundef nonnull align 8 dereferenceable(8) %8, i32 noundef 0)
  %10 = load ptr, ptr %call14, align 8
  %kind_.i.i = getelementptr inbounds %"class.facebook::velox::Type", ptr %10, i64 0, i32 2
  %11 = load i8, ptr %kind_.i.i, align 8
  %cmp.i = icmp eq i8 %11, 0
  br i1 %cmp.i, label %if.then17, label %if.end19

if.then17:                                        ; preds = %land.lhs.true
  store i8 0, ptr %this, align 8
  br label %return

if.end19:                                         ; preds = %land.lhs.true, %if.end
  %firstSeenMap_ = getelementptr inbounds %"class.facebook::velox::functions::MapSubscript", ptr %this, i64 0, i32 1
  %12 = load ptr, ptr %firstSeenMap_, align 8
  %cmp.i5.not = icmp eq ptr %12, null
  br i1 %cmp.i5.not, label %if.then21, label %if.end24

if.then21:                                        ; preds = %if.end19
  %13 = load ptr, ptr %mapArg, align 8
  store ptr %13, ptr %firstSeenMap_, align 8
  %_M_refcount.i.i = getelementptr inbounds %"class.facebook::velox::functions::MapSubscript", ptr %this, i64 0, i32 1, i32 0, i32 1
  %_M_refcount3.i.i = getelementptr inbounds %"class.std::__shared_ptr", ptr %mapArg, i64 0, i32 1
  %14 = load ptr, ptr %_M_refcount3.i.i, align 8
  %15 = load ptr, ptr %_M_refcount.i.i, align 8
  %cmp.not.i.i.i = icmp eq ptr %14, %15
  br i1 %cmp.not.i.i.i, label %return, label %if.then.i.i.i

if.then.i.i.i:                                    ; preds = %if.then21
  %cmp3.not.i.i.i = icmp eq ptr %14, null
  br i1 %cmp3.not.i.i.i, label %if.end.i.i.i, label %if.then4.i.i.i

if.then4.i.i.i:                                   ; preds = %if.then.i.i.i
  %_M_use_count.i.i.i.i = getelementptr inbounds %"class.std::_Sp_counted_base", ptr %14, i64 0, i32 1
  %16 = load i8, ptr @__libc_single_threaded, align 1
  %tobool.i.not.i.i.i.i = icmp eq i8 %16, 0
  br i1 %tobool.i.not.i.i.i.i, label %if.else.i.i.i.i.i, label %if.then.i.i.i.i.i

if.then.i.i.i.i.i:                                ; preds = %if.then4.i.i.i
  %17 = load i32, ptr %_M_use_count.i.i.i.i, align 4
  %add.i.i.i.i.i = add nsw i32 %17, 1
  store i32 %add.i.i.i.i.i, ptr %_M_use_count.i.i.i.i, align 4
  br label %if.endthread-pre-split.i.i.i

if.else.i.i.i.i.i:                                ; preds = %if.then4.i.i.i
  %18 = atomicrmw volatile add ptr %_M_use_count.i.i.i.i, i32 1 acq_rel, align 4
  br label %if.endthread-pre-split.i.i.i

if.endthread-pre-split.i.i.i:                     ; preds = %if.else.i.i.i.i.i, %if.then.i.i.i.i.i
  %.pr.i.i.i = load ptr, ptr %_M_refcount.i.i, align 8
  br label %if.end.i.i.i

if.end.i.i.i:                                     ; preds = %if.endthread-pre-split.i.i.i, %if.then.i.i.i
  %19 = phi ptr [ %.pr.i.i.i, %if.endthread-pre-split.i.i.i ], [ %15, %if.then.i.i.i ]
  %cmp6.not.i.i.i = icmp eq ptr %19, null
  br i1 %cmp6.not.i.i.i, label %if.end9.i.i.i, label %if.then7.i.i.i

if.then7.i.i.i:                                   ; preds = %if.end.i.i.i
  %_M_use_count.i5.i.i.i = getelementptr inbounds %"class.std::_Sp_counted_base", ptr %19, i64 0, i32 1
  %20 = load atomic i64, ptr %_M_use_count.i5.i.i.i acquire, align 8
  %cmp.i.i.i.i = icmp eq i64 %20, 4294967297
  %21 = trunc i64 %20 to i32
  br i1 %cmp.i.i.i.i, label %if.then.i.i.i.i, label %if.end.i.i.i.i

if.then.i.i.i.i:                                  ; preds = %if.then7.i.i.i
  store i32 0, ptr %_M_use_count.i5.i.i.i, align 8
  %_M_weak_count.i.i.i.i = getelementptr inbounds %"class.std::_Sp_counted_base", ptr %19, i64 0, i32 2
  store i32 0, ptr %_M_weak_count.i.i.i.i, align 4
  %vtable.i.i.i.i = load ptr, ptr %19, align 8
  %vfn.i.i.i.i = getelementptr inbounds ptr, ptr %vtable.i.i.i.i, i64 2
  %22 = load ptr, ptr %vfn.i.i.i.i, align 8
  tail call void %22(ptr noundef nonnull align 8 dereferenceable(16) %19) #26
  br label %if.end8.sink.split.i.i.i.i

if.end.i.i.i.i:                                   ; preds = %if.then7.i.i.i
  %23 = load i8, ptr @__libc_single_threaded, align 1
  %tobool.i.i.not.i.i.i.i = icmp eq i8 %23, 0
  br i1 %tobool.i.i.not.i.i.i.i, label %if.else.i.i8.i.i.i, label %if.then.i.i6.i.i.i

if.then.i.i6.i.i.i:                               ; preds = %if.end.i.i.i.i
  %add.i.i7.i.i.i = add nsw i32 %21, -1
  store i32 %add.i.i7.i.i.i, ptr %_M_use_count.i5.i.i.i, align 4
  br label %_ZN9__gnu_cxx27__exchange_and_add_dispatchEPii.exit.i.i.i.i

if.else.i.i8.i.i.i:                               ; preds = %if.end.i.i.i.i
  %24 = atomicrmw volatile add ptr %_M_use_count.i5.i.i.i, i32 -1 acq_rel, align 4
  br label %_ZN9__gnu_cxx27__exchange_and_add_dispatchEPii.exit.i.i.i.i

_ZN9__gnu_cxx27__exchange_and_add_dispatchEPii.exit.i.i.i.i: ; preds = %if.else.i.i8.i.i.i, %if.then.i.i6.i.i.i
  %retval.i.0.i.i.i.i = phi i32 [ %21, %if.then.i.i6.i.i.i ], [ %24, %if.else.i.i8.i.i.i ]
  %cmp6.i.i.i.i = icmp eq i32 %retval.i.0.i.i.i.i, 1
  br i1 %cmp6.i.i.i.i, label %if.then7.i.i.i.i, label %if.end9.i.i.i

if.then7.i.i.i.i:                                 ; preds = %_ZN9__gnu_cxx27__exchange_and_add_dispatchEPii.exit.i.i.i.i
  %vtable.i.i.i.i.i.i = load ptr, ptr %19, align 8
  %vfn.i.i.i.i.i.i = getelementptr inbounds ptr, ptr %vtable.i.i.i.i.i.i, i64 2
  %25 = load ptr, ptr %vfn.i.i.i.i.i.i, align 8
  tail call void %25(ptr noundef nonnull align 8 dereferenceable(16) %19) #26
  %_M_weak_count.i.i.i.i.i.i = getelementptr inbounds %"class.std::_Sp_counted_base", ptr %19, i64 0, i32 2
  %26 = load i8, ptr @__libc_single_threaded, align 1
  %tobool.i.i.not.i.i.i.i.i.i = icmp eq i8 %26, 0
  br i1 %tobool.i.i.not.i.i.i.i.i.i, label %if.else.i.i.i.i.i.i.i, label %if.then.i.i.i.i.i.i.i

if.then.i.i.i.i.i.i.i:                            ; preds = %if.then7.i.i.i.i
  %27 = load i32, ptr %_M_weak_count.i.i.i.i.i.i, align 4
  %add.i.i.i.i.i.i.i = add nsw i32 %27, -1
  store i32 %add.i.i.i.i.i.i.i, ptr %_M_weak_count.i.i.i.i.i.i, align 4
  br label %_ZN9__gnu_cxx27__exchange_and_add_dispatchEPii.exit.i.i.i.i.i.i

if.else.i.i.i.i.i.i.i:                            ; preds = %if.then7.i.i.i.i
  %28 = atomicrmw volatile add ptr %_M_weak_count.i.i.i.i.i.i, i32 -1 acq_rel, align 4
  br label %_ZN9__gnu_cxx27__exchange_and_add_dispatchEPii.exit.i.i.i.i.i.i

_ZN9__gnu_cxx27__exchange_and_add_dispatchEPii.exit.i.i.i.i.i.i: ; preds = %if.else.i.i.i.i.i.i.i, %if.then.i.i.i.i.i.i.i
  %retval.i.0.i.i.i.i.i.i = phi i32 [ %27, %if.then.i.i.i.i.i.i.i ], [ %28, %if.else.i.i.i.i.i.i.i ]
  %cmp.i.i.i.i.i.i = icmp eq i32 %retval.i.0.i.i.i.i.i.i, 1
  br i1 %cmp.i.i.i.i.i.i, label %if.end8.sink.split.i.i.i.i, label %if.end9.i.i.i

if.end8.sink.split.i.i.i.i:                       ; preds = %_ZN9__gnu_cxx27__exchange_and_add_dispatchEPii.exit.i.i.i.i.i.i, %if.then.i.i.i.i
  %vtable2.i.i.i.i.i.i = load ptr, ptr %19, align 8
  %vfn3.i.i.i.i.i.i = getelementptr inbounds ptr, ptr %vtable2.i.i.i.i.i.i, i64 3
  %29 = load ptr, ptr %vfn3.i.i.i.i.i.i, align 8
  tail call void %29(ptr noundef nonnull align 8 dereferenceable(16) %19) #26
  br label %if.end9.i.i.i

if.end9.i.i.i:                                    ; preds = %if.end8.sink.split.i.i.i.i, %_ZN9__gnu_cxx27__exchange_and_add_dispatchEPii.exit.i.i.i.i.i.i, %_ZN9__gnu_cxx27__exchange_and_add_dispatchEPii.exit.i.i.i.i, %if.end.i.i.i
  store ptr %14, ptr %_M_refcount.i.i, align 8
  br label %return

if.end24:                                         ; preds = %if.end19
  %vtable27 = load ptr, ptr %12, align 8
  %vfn28 = getelementptr inbounds ptr, ptr %vtable27, i64 16
  %30 = load ptr, ptr %vfn28, align 8
  %call29 = tail call noundef ptr %30(ptr noundef nonnull align 8 dereferenceable(99) %12)
  %31 = load ptr, ptr %mapArg, align 8
  %vtable31 = load ptr, ptr %31, align 8
  %vfn32 = getelementptr inbounds ptr, ptr %vtable31, i64 16
  %32 = load ptr, ptr %vfn32, align 8
  %call33 = tail call noundef ptr %32(ptr noundef nonnull align 8 dereferenceable(99) %31)
  %cmp = icmp eq ptr %call29, %call33
  br i1 %cmp, label %return, label %if.end35

if.end35:                                         ; preds = %if.end24
  store i8 0, ptr %this, align 8
  %lookupTable_ = getelementptr inbounds %"class.facebook::velox::functions::MapSubscript", ptr %this, i64 0, i32 2
  store ptr null, ptr %lookupTable_, align 8
  %_M_refcount3.i.i6 = getelementptr inbounds %"class.facebook::velox::functions::MapSubscript", ptr %this, i64 0, i32 2, i32 0, i32 1
  %33 = load ptr, ptr %_M_refcount3.i.i6, align 8
  store ptr null, ptr %_M_refcount3.i.i6, align 8
  %cmp.not.i.i.i7 = icmp eq ptr %33, null
  br i1 %cmp.not.i.i.i7, label %_ZNSt12__shared_ptrIN8facebook5velox9functions15LookupTableBaseELN9__gnu_cxx12_Lock_policyE2EE5resetEv.exit, label %if.then.i.i.i8

if.then.i.i.i8:                                   ; preds = %if.end35
  %_M_use_count.i.i.i.i9 = getelementptr inbounds %"class.std::_Sp_counted_base", ptr %33, i64 0, i32 1
  %34 = load atomic i64, ptr %_M_use_count.i.i.i.i9 acquire, align 8
  %cmp.i.i.i.i10 = icmp eq i64 %34, 4294967297
  %35 = trunc i64 %34 to i32
  br i1 %cmp.i.i.i.i10, label %if.then.i.i.i.i33, label %if.end.i.i.i.i11

if.then.i.i.i.i33:                                ; preds = %if.then.i.i.i8
  store i32 0, ptr %_M_use_count.i.i.i.i9, align 8
  %_M_weak_count.i.i.i.i34 = getelementptr inbounds %"class.std::_Sp_counted_base", ptr %33, i64 0, i32 2
  store i32 0, ptr %_M_weak_count.i.i.i.i34, align 4
  %vtable.i.i.i.i35 = load ptr, ptr %33, align 8
  %vfn.i.i.i.i36 = getelementptr inbounds ptr, ptr %vtable.i.i.i.i35, i64 2
  %36 = load ptr, ptr %vfn.i.i.i.i36, align 8
  tail call void %36(ptr noundef nonnull align 8 dereferenceable(16) %33) #26
  br label %if.end8.sink.split.i.i.i.i28

if.end.i.i.i.i11:                                 ; preds = %if.then.i.i.i8
  %37 = load i8, ptr @__libc_single_threaded, align 1
  %tobool.i.i.not.i.i.i.i12 = icmp eq i8 %37, 0
  br i1 %tobool.i.i.not.i.i.i.i12, label %if.else.i.i.i.i.i32, label %if.then.i.i.i.i.i13

if.then.i.i.i.i.i13:                              ; preds = %if.end.i.i.i.i11
  %add.i.i.i.i.i14 = add nsw i32 %35, -1
  store i32 %add.i.i.i.i.i14, ptr %_M_use_count.i.i.i.i9, align 4
  br label %_ZN9__gnu_cxx27__exchange_and_add_dispatchEPii.exit.i.i.i.i15

if.else.i.i.i.i.i32:                              ; preds = %if.end.i.i.i.i11
  %38 = atomicrmw volatile add ptr %_M_use_count.i.i.i.i9, i32 -1 acq_rel, align 4
  br label %_ZN9__gnu_cxx27__exchange_and_add_dispatchEPii.exit.i.i.i.i15

_ZN9__gnu_cxx27__exchange_and_add_dispatchEPii.exit.i.i.i.i15: ; preds = %if.else.i.i.i.i.i32, %if.then.i.i.i.i.i13
  %retval.i.0.i.i.i.i16 = phi i32 [ %35, %if.then.i.i.i.i.i13 ], [ %38, %if.else.i.i.i.i.i32 ]
  %cmp6.i.i.i.i17 = icmp eq i32 %retval.i.0.i.i.i.i16, 1
  br i1 %cmp6.i.i.i.i17, label %if.then7.i.i.i.i18, label %_ZNSt12__shared_ptrIN8facebook5velox9functions15LookupTableBaseELN9__gnu_cxx12_Lock_policyE2EE5resetEv.exit

if.then7.i.i.i.i18:                               ; preds = %_ZN9__gnu_cxx27__exchange_and_add_dispatchEPii.exit.i.i.i.i15
  %vtable.i.i.i.i.i.i19 = load ptr, ptr %33, align 8
  %vfn.i.i.i.i.i.i20 = getelementptr inbounds ptr, ptr %vtable.i.i.i.i.i.i19, i64 2
  %39 = load ptr, ptr %vfn.i.i.i.i.i.i20, align 8
  tail call void %39(ptr noundef nonnull align 8 dereferenceable(16) %33) #26
  %_M_weak_count.i.i.i.i.i.i21 = getelementptr inbounds %"class.std::_Sp_counted_base", ptr %33, i64 0, i32 2
  %40 = load i8, ptr @__libc_single_threaded, align 1
  %tobool.i.i.not.i.i.i.i.i.i22 = icmp eq i8 %40, 0
  br i1 %tobool.i.i.not.i.i.i.i.i.i22, label %if.else.i.i.i.i.i.i.i31, label %if.then.i.i.i.i.i.i.i23

if.then.i.i.i.i.i.i.i23:                          ; preds = %if.then7.i.i.i.i18
  %41 = load i32, ptr %_M_weak_count.i.i.i.i.i.i21, align 4
  %add.i.i.i.i.i.i.i24 = add nsw i32 %41, -1
  store i32 %add.i.i.i.i.i.i.i24, ptr %_M_weak_count.i.i.i.i.i.i21, align 4
  br label %_ZN9__gnu_cxx27__exchange_and_add_dispatchEPii.exit.i.i.i.i.i.i25

if.else.i.i.i.i.i.i.i31:                          ; preds = %if.then7.i.i.i.i18
  %42 = atomicrmw volatile add ptr %_M_weak_count.i.i.i.i.i.i21, i32 -1 acq_rel, align 4
  br label %_ZN9__gnu_cxx27__exchange_and_add_dispatchEPii.exit.i.i.i.i.i.i25

_ZN9__gnu_cxx27__exchange_and_add_dispatchEPii.exit.i.i.i.i.i.i25: ; preds = %if.else.i.i.i.i.i.i.i31, %if.then.i.i.i.i.i.i.i23
  %retval.i.0.i.i.i.i.i.i26 = phi i32 [ %41, %if.then.i.i.i.i.i.i.i23 ], [ %42, %if.else.i.i.i.i.i.i.i31 ]
  %cmp.i.i.i.i.i.i27 = icmp eq i32 %retval.i.0.i.i.i.i.i.i26, 1
  br i1 %cmp.i.i.i.i.i.i27, label %if.end8.sink.split.i.i.i.i28, label %_ZNSt12__shared_ptrIN8facebook5velox9functions15LookupTableBaseELN9__gnu_cxx12_Lock_policyE2EE5resetEv.exit

if.end8.sink.split.i.i.i.i28:                     ; preds = %_ZN9__gnu_cxx27__exchange_and_add_dispatchEPii.exit.i.i.i.i.i.i25, %if.then.i.i.i.i33
  %vtable2.i.i.i.i.i.i29 = load ptr, ptr %33, align 8
  %vfn3.i.i.i.i.i.i30 = getelementptr inbounds ptr, ptr %vtable2.i.i.i.i.i.i29, i64 3
  %43 = load ptr, ptr %vfn3.i.i.i.i.i.i30, align 8
  tail call void %43(ptr noundef nonnull align 8 dereferenceable(16) %33) #26
  br label %_ZNSt12__shared_ptrIN8facebook5velox9functions15LookupTableBaseELN9__gnu_cxx12_Lock_policyE2EE5resetEv.exit

_ZNSt12__shared_ptrIN8facebook5velox9functions15LookupTableBaseELN9__gnu_cxx12_Lock_policyE2EE5resetEv.exit: ; preds = %if.end35, %_ZN9__gnu_cxx27__exchange_and_add_dispatchEPii.exit.i.i.i.i15, %_ZN9__gnu_cxx27__exchange_and_add_dispatchEPii.exit.i.i.i.i.i.i25, %if.end8.sink.split.i.i.i.i28
  store ptr null, ptr %firstSeenMap_, align 8
  %_M_refcount3.i.i37 = getelementptr inbounds %"class.facebook::velox::functions::MapSubscript", ptr %this, i64 0, i32 1, i32 0, i32 1
  %44 = load ptr, ptr %_M_refcount3.i.i37, align 8
  store ptr null, ptr %_M_refcount3.i.i37, align 8
  %cmp.not.i.i.i38 = icmp eq ptr %44, null
  br i1 %cmp.not.i.i.i38, label %return, label %if.then.i.i.i39

if.then.i.i.i39:                                  ; preds = %_ZNSt12__shared_ptrIN8facebook5velox9functions15LookupTableBaseELN9__gnu_cxx12_Lock_policyE2EE5resetEv.exit
  %_M_use_count.i.i.i.i40 = getelementptr inbounds %"class.std::_Sp_counted_base", ptr %44, i64 0, i32 1
  %45 = load atomic i64, ptr %_M_use_count.i.i.i.i40 acquire, align 8
  %cmp.i.i.i.i41 = icmp eq i64 %45, 4294967297
  %46 = trunc i64 %45 to i32
  br i1 %cmp.i.i.i.i41, label %if.then.i.i.i.i64, label %if.end.i.i.i.i42

if.then.i.i.i.i64:                                ; preds = %if.then.i.i.i39
  store i32 0, ptr %_M_use_count.i.i.i.i40, align 8
  %_M_weak_count.i.i.i.i65 = getelementptr inbounds %"class.std::_Sp_counted_base", ptr %44, i64 0, i32 2
  store i32 0, ptr %_M_weak_count.i.i.i.i65, align 4
  %vtable.i.i.i.i66 = load ptr, ptr %44, align 8
  %vfn.i.i.i.i67 = getelementptr inbounds ptr, ptr %vtable.i.i.i.i66, i64 2
  %47 = load ptr, ptr %vfn.i.i.i.i67, align 8
  tail call void %47(ptr noundef nonnull align 8 dereferenceable(16) %44) #26
  br label %if.end8.sink.split.i.i.i.i59

if.end.i.i.i.i42:                                 ; preds = %if.then.i.i.i39
  %48 = load i8, ptr @__libc_single_threaded, align 1
  %tobool.i.i.not.i.i.i.i43 = icmp eq i8 %48, 0
  br i1 %tobool.i.i.not.i.i.i.i43, label %if.else.i.i.i.i.i63, label %if.then.i.i.i.i.i44

if.then.i.i.i.i.i44:                              ; preds = %if.end.i.i.i.i42
  %add.i.i.i.i.i45 = add nsw i32 %46, -1
  store i32 %add.i.i.i.i.i45, ptr %_M_use_count.i.i.i.i40, align 4
  br label %_ZN9__gnu_cxx27__exchange_and_add_dispatchEPii.exit.i.i.i.i46

if.else.i.i.i.i.i63:                              ; preds = %if.end.i.i.i.i42
  %49 = atomicrmw volatile add ptr %_M_use_count.i.i.i.i40, i32 -1 acq_rel, align 4
  br label %_ZN9__gnu_cxx27__exchange_and_add_dispatchEPii.exit.i.i.i.i46

_ZN9__gnu_cxx27__exchange_and_add_dispatchEPii.exit.i.i.i.i46: ; preds = %if.else.i.i.i.i.i63, %if.then.i.i.i.i.i44
  %retval.i.0.i.i.i.i47 = phi i32 [ %46, %if.then.i.i.i.i.i44 ], [ %49, %if.else.i.i.i.i.i63 ]
  %cmp6.i.i.i.i48 = icmp eq i32 %retval.i.0.i.i.i.i47, 1
  br i1 %cmp6.i.i.i.i48, label %if.then7.i.i.i.i49, label %return

if.then7.i.i.i.i49:                               ; preds = %_ZN9__gnu_cxx27__exchange_and_add_dispatchEPii.exit.i.i.i.i46
  %vtable.i.i.i.i.i.i50 = load ptr, ptr %44, align 8
  %vfn.i.i.i.i.i.i51 = getelementptr inbounds ptr, ptr %vtable.i.i.i.i.i.i50, i64 2
  %50 = load ptr, ptr %vfn.i.i.i.i.i.i51, align 8
  tail call void %50(ptr noundef nonnull align 8 dereferenceable(16) %44) #26
  %_M_weak_count.i.i.i.i.i.i52 = getelementptr inbounds %"class.std::_Sp_counted_base", ptr %44, i64 0, i32 2
  %51 = load i8, ptr @__libc_single_threaded, align 1
  %tobool.i.i.not.i.i.i.i.i.i53 = icmp eq i8 %51, 0
  br i1 %tobool.i.i.not.i.i.i.i.i.i53, label %if.else.i.i.i.i.i.i.i62, label %if.then.i.i.i.i.i.i.i54

if.then.i.i.i.i.i.i.i54:                          ; preds = %if.then7.i.i.i.i49
  %52 = load i32, ptr %_M_weak_count.i.i.i.i.i.i52, align 4
  %add.i.i.i.i.i.i.i55 = add nsw i32 %52, -1
  store i32 %add.i.i.i.i.i.i.i55, ptr %_M_weak_count.i.i.i.i.i.i52, align 4
  br label %_ZN9__gnu_cxx27__exchange_and_add_dispatchEPii.exit.i.i.i.i.i.i56

if.else.i.i.i.i.i.i.i62:                          ; preds = %if.then7.i.i.i.i49
  %53 = atomicrmw volatile add ptr %_M_weak_count.i.i.i.i.i.i52, i32 -1 acq_rel, align 4
  br label %_ZN9__gnu_cxx27__exchange_and_add_dispatchEPii.exit.i.i.i.i.i.i56

_ZN9__gnu_cxx27__exchange_and_add_dispatchEPii.exit.i.i.i.i.i.i56: ; preds = %if.else.i.i.i.i.i.i.i62, %if.then.i.i.i.i.i.i.i54
  %retval.i.0.i.i.i.i.i.i57 = phi i32 [ %52, %if.then.i.i.i.i.i.i.i54 ], [ %53, %if.else.i.i.i.i.i.i.i62 ]
  %cmp.i.i.i.i.i.i58 = icmp eq i32 %retval.i.0.i.i.i.i.i.i57, 1
  br i1 %cmp.i.i.i.i.i.i58, label %if.end8.sink.split.i.i.i.i59, label %return

if.end8.sink.split.i.i.i.i59:                     ; preds = %_ZN9__gnu_cxx27__exchange_and_add_dispatchEPii.exit.i.i.i.i.i.i56, %if.then.i.i.i.i64
  %vtable2.i.i.i.i.i.i60 = load ptr, ptr %44, align 8
  %vfn3.i.i.i.i.i.i61 = getelementptr inbounds ptr, ptr %vtable2.i.i.i.i.i.i60, i64 3
  %54 = load ptr, ptr %vfn3.i.i.i.i.i.i61, align 8
  tail call void %54(ptr noundef nonnull align 8 dereferenceable(16) %44) #26
  br label %return

return:                                           ; preds = %if.end8.sink.split.i.i.i.i59, %_ZN9__gnu_cxx27__exchange_and_add_dispatchEPii.exit.i.i.i.i.i.i56, %_ZN9__gnu_cxx27__exchange_and_add_dispatchEPii.exit.i.i.i.i46, %_ZNSt12__shared_ptrIN8facebook5velox9functions15LookupTableBaseELN9__gnu_cxx12_Lock_policyE2EE5resetEv.exit, %if.end9.i.i.i, %if.then21, %if.end24, %entry, %if.then17
  %retval.0 = phi i1 [ false, %if.then17 ], [ false, %entry ], [ true, %if.end24 ], [ false, %if.then21 ], [ false, %if.end9.i.i.i ], [ false, %_ZNSt12__shared_ptrIN8facebook5velox9functions15LookupTableBaseELN9__gnu_cxx12_Lock_policyE2EE5resetEv.exit ], [ false, %_ZN9__gnu_cxx27__exchange_and_add_dispatchEPii.exit.i.i.i.i46 ], [ false, %_ZN9__gnu_cxx27__exchange_and_add_dispatchEPii.exit.i.i.i.i.i.i56 ], [ false, %if.end8.sink.split.i.i.i.i59 ]
  ret i1 %retval.0
}

; Function Attrs: mustprogress uwtable
define internal fastcc void @"_ZZNK8facebook5velox9functions12MapSubscript8applyMapERKNS0_17SelectivityVectorERSt6vectorISt10shared_ptrINS0_10BaseVectorEESaIS9_EERNS0_4exec7EvalCtxEENK3$_0clEv"(ptr noalias align 8 %agg.result, ptr nocapture noundef nonnull readonly align 8 dereferenceable(48) %this) unnamed_addr #0 align 2 personality ptr @__gxx_personality_v0 {
entry:
  %triggeCaching.addr.i6741 = alloca i8, align 1
  %indices.i6742 = alloca %"class.boost::intrusive_ptr", align 8
  %rawIndices.i6743 = alloca ptr, align 8
  %nullsBuilder.i6744 = alloca %"struct.facebook::velox::NullsBuilder", align 8
  %mapHolder.i6745 = alloca %"class.facebook::velox::exec::LocalDecodedVector", align 8
  %mapIndices.i6746 = alloca ptr, align 8
  %mapKeys.i6747 = alloca %"class.std::shared_ptr", align 8
  %allElementRows.i6748 = alloca %"class.facebook::velox::exec::LocalSelectivityVector", align 8
  %mapKeysHolder.i6749 = alloca %"class.facebook::velox::exec::LocalDecodedVector", align 8
  %decodedMapKeys.i6750 = alloca ptr, align 8
  %indexHolder.i6751 = alloca %"class.facebook::velox::exec::LocalDecodedVector", align 8
  %rawSizes.i6752 = alloca ptr, align 8
  %rawOffsets.i6753 = alloca ptr, align 8
  %processRow.i6754 = alloca %class.anon.961, align 8
  %agg.tmp64.i6755 = alloca %"class.boost::intrusive_ptr", align 8
  %agg.tmp66.i6756 = alloca %"class.boost::intrusive_ptr", align 8
  %agg.tmp70.i6757 = alloca %"class.std::shared_ptr", align 16
  %triggeCaching.addr.i5891 = alloca i8, align 1
  %indices.i5892 = alloca %"class.boost::intrusive_ptr", align 8
  %rawIndices.i5893 = alloca ptr, align 8
  %nullsBuilder.i5894 = alloca %"struct.facebook::velox::NullsBuilder", align 8
  %mapHolder.i5895 = alloca %"class.facebook::velox::exec::LocalDecodedVector", align 8
  %mapIndices.i5896 = alloca ptr, align 8
  %mapKeys.i5897 = alloca %"class.std::shared_ptr", align 8
  %allElementRows.i5898 = alloca %"class.facebook::velox::exec::LocalSelectivityVector", align 8
  %mapKeysHolder.i5899 = alloca %"class.facebook::velox::exec::LocalDecodedVector", align 8
  %decodedMapKeys.i5900 = alloca ptr, align 8
  %indexHolder.i5901 = alloca %"class.facebook::velox::exec::LocalDecodedVector", align 8
  %rawSizes.i5902 = alloca ptr, align 8
  %rawOffsets.i5903 = alloca ptr, align 8
  %processRow.i5904 = alloca %class.anon.936, align 8
  %agg.tmp63.i = alloca %"class.boost::intrusive_ptr", align 8
  %agg.tmp65.i = alloca %"class.boost::intrusive_ptr", align 8
  %agg.tmp69.i = alloca %"class.std::shared_ptr", align 16
  %triggeCaching.addr.i5170 = alloca i8, align 1
  %indices.i5171 = alloca %"class.boost::intrusive_ptr", align 8
  %rawIndices.i5172 = alloca ptr, align 8
  %nullsBuilder.i5173 = alloca %"struct.facebook::velox::NullsBuilder", align 8
  %mapHolder.i5174 = alloca %"class.facebook::velox::exec::LocalDecodedVector", align 8
  %mapIndices.i5175 = alloca ptr, align 8
  %mapKeys.i5176 = alloca %"class.std::shared_ptr", align 8
  %allElementRows.i5177 = alloca %"class.facebook::velox::exec::LocalSelectivityVector", align 8
  %mapKeysHolder.i5178 = alloca %"class.facebook::velox::exec::LocalDecodedVector", align 8
  %decodedMapKeys.i5179 = alloca ptr, align 8
  %indexHolder.i5180 = alloca %"class.facebook::velox::exec::LocalDecodedVector", align 8
  %rawSizes.i5181 = alloca ptr, align 8
  %rawOffsets.i5182 = alloca ptr, align 8
  %processRow.i5183 = alloca %class.anon.859, align 8
  %agg.tmp64.i5184 = alloca %"class.boost::intrusive_ptr", align 8
  %agg.tmp66.i5185 = alloca %"class.boost::intrusive_ptr", align 8
  %agg.tmp70.i5186 = alloca %"class.std::shared_ptr", align 16
  %triggeCaching.addr.i4326 = alloca i8, align 1
  %indices.i4327 = alloca %"class.boost::intrusive_ptr", align 8
  %rawIndices.i4328 = alloca ptr, align 8
  %nullsBuilder.i4329 = alloca %"struct.facebook::velox::NullsBuilder", align 8
  %mapHolder.i4330 = alloca %"class.facebook::velox::exec::LocalDecodedVector", align 8
  %mapIndices.i4331 = alloca ptr, align 8
  %mapKeys.i4332 = alloca %"class.std::shared_ptr", align 8
  %allElementRows.i4333 = alloca %"class.facebook::velox::exec::LocalSelectivityVector", align 8
  %mapKeysHolder.i4334 = alloca %"class.facebook::velox::exec::LocalDecodedVector", align 8
  %decodedMapKeys.i4335 = alloca ptr, align 8
  %indexHolder.i4336 = alloca %"class.facebook::velox::exec::LocalDecodedVector", align 8
  %rawSizes.i4337 = alloca ptr, align 8
  %rawOffsets.i4338 = alloca ptr, align 8
  %processRow.i4339 = alloca %class.anon.765, align 8
  %agg.tmp64.i4340 = alloca %"class.boost::intrusive_ptr", align 8
  %agg.tmp66.i4341 = alloca %"class.boost::intrusive_ptr", align 8
  %agg.tmp70.i4342 = alloca %"class.std::shared_ptr", align 16
  %triggeCaching.addr.i3488 = alloca i8, align 1
  %indices.i3489 = alloca %"class.boost::intrusive_ptr", align 8
  %rawIndices.i3490 = alloca ptr, align 8
  %nullsBuilder.i3491 = alloca %"struct.facebook::velox::NullsBuilder", align 8
  %mapHolder.i3492 = alloca %"class.facebook::velox::exec::LocalDecodedVector", align 8
  %mapIndices.i3493 = alloca ptr, align 8
  %mapKeys.i3494 = alloca %"class.std::shared_ptr", align 8
  %allElementRows.i3495 = alloca %"class.facebook::velox::exec::LocalSelectivityVector", align 8
  %mapKeysHolder.i3496 = alloca %"class.facebook::velox::exec::LocalDecodedVector", align 8
  %decodedMapKeys.i3497 = alloca ptr, align 8
  %indexHolder.i3498 = alloca %"class.facebook::velox::exec::LocalDecodedVector", align 8
  %rawSizes.i3499 = alloca ptr, align 8
  %rawOffsets.i3500 = alloca ptr, align 8
  %processRow.i3501 = alloca %class.anon.672, align 8
  %agg.tmp64.i3502 = alloca %"class.boost::intrusive_ptr", align 8
  %agg.tmp66.i3503 = alloca %"class.boost::intrusive_ptr", align 8
  %agg.tmp70.i3504 = alloca %"class.std::shared_ptr", align 16
  %triggeCaching.addr.i2941 = alloca i8, align 1
  %indices.i2942 = alloca %"class.boost::intrusive_ptr", align 8
  %rawIndices.i2943 = alloca ptr, align 8
  %nullsBuilder.i2944 = alloca %"struct.facebook::velox::NullsBuilder", align 8
  %mapHolder.i2945 = alloca %"class.facebook::velox::exec::LocalDecodedVector", align 8
  %mapIndices.i2946 = alloca ptr, align 8
  %mapKeys.i2947 = alloca %"class.std::shared_ptr", align 8
  %allElementRows.i2948 = alloca %"class.facebook::velox::exec::LocalSelectivityVector", align 8
  %mapKeysHolder.i2949 = alloca %"class.facebook::velox::exec::LocalDecodedVector", align 8
  %decodedMapKeys.i2950 = alloca ptr, align 8
  %indexHolder.i2951 = alloca %"class.facebook::velox::exec::LocalDecodedVector", align 8
  %rawSizes.i2952 = alloca ptr, align 8
  %rawOffsets.i2953 = alloca ptr, align 8
  %processRow.i2954 = alloca %class.anon.587, align 8
  %agg.tmp64.i2955 = alloca %"class.boost::intrusive_ptr", align 8
  %agg.tmp66.i2956 = alloca %"class.boost::intrusive_ptr", align 8
  %agg.tmp70.i2957 = alloca %"class.std::shared_ptr", align 16
  %triggeCaching.addr.i2097 = alloca i8, align 1
  %indices.i2098 = alloca %"class.boost::intrusive_ptr", align 8
  %rawIndices.i2099 = alloca ptr, align 8
  %nullsBuilder.i2100 = alloca %"struct.facebook::velox::NullsBuilder", align 8
  %mapHolder.i2101 = alloca %"class.facebook::velox::exec::LocalDecodedVector", align 8
  %mapIndices.i2102 = alloca ptr, align 8
  %mapKeys.i2103 = alloca %"class.std::shared_ptr", align 8
  %allElementRows.i2104 = alloca %"class.facebook::velox::exec::LocalSelectivityVector", align 8
  %mapKeysHolder.i2105 = alloca %"class.facebook::velox::exec::LocalDecodedVector", align 8
  %decodedMapKeys.i2106 = alloca ptr, align 8
  %indexHolder.i2107 = alloca %"class.facebook::velox::exec::LocalDecodedVector", align 8
  %rawSizes.i2108 = alloca ptr, align 8
  %rawOffsets.i2109 = alloca ptr, align 8
  %processRow.i2110 = alloca %class.anon.491, align 8
  %agg.tmp64.i2111 = alloca %"class.boost::intrusive_ptr", align 8
  %agg.tmp66.i2112 = alloca %"class.boost::intrusive_ptr", align 8
  %agg.tmp70.i2113 = alloca %"class.std::shared_ptr", align 16
  %triggeCaching.addr.i1253 = alloca i8, align 1
  %indices.i1254 = alloca %"class.boost::intrusive_ptr", align 8
  %rawIndices.i1255 = alloca ptr, align 8
  %nullsBuilder.i1256 = alloca %"struct.facebook::velox::NullsBuilder", align 8
  %mapHolder.i1257 = alloca %"class.facebook::velox::exec::LocalDecodedVector", align 8
  %mapIndices.i1258 = alloca ptr, align 8
  %mapKeys.i1259 = alloca %"class.std::shared_ptr", align 8
  %allElementRows.i1260 = alloca %"class.facebook::velox::exec::LocalSelectivityVector", align 8
  %mapKeysHolder.i1261 = alloca %"class.facebook::velox::exec::LocalDecodedVector", align 8
  %decodedMapKeys.i1262 = alloca ptr, align 8
  %indexHolder.i1263 = alloca %"class.facebook::velox::exec::LocalDecodedVector", align 8
  %rawSizes.i1264 = alloca ptr, align 8
  %rawOffsets.i1265 = alloca ptr, align 8
  %processRow.i1266 = alloca %class.anon.398, align 8
  %agg.tmp64.i1267 = alloca %"class.boost::intrusive_ptr", align 8
  %agg.tmp66.i1268 = alloca %"class.boost::intrusive_ptr", align 8
  %agg.tmp70.i1269 = alloca %"class.std::shared_ptr", align 16
  %triggeCaching.addr.i409 = alloca i8, align 1
  %indices.i410 = alloca %"class.boost::intrusive_ptr", align 8
  %rawIndices.i411 = alloca ptr, align 8
  %nullsBuilder.i412 = alloca %"struct.facebook::velox::NullsBuilder", align 8
  %mapHolder.i413 = alloca %"class.facebook::velox::exec::LocalDecodedVector", align 8
  %mapIndices.i414 = alloca ptr, align 8
  %mapKeys.i415 = alloca %"class.std::shared_ptr", align 8
  %allElementRows.i416 = alloca %"class.facebook::velox::exec::LocalSelectivityVector", align 8
  %mapKeysHolder.i417 = alloca %"class.facebook::velox::exec::LocalDecodedVector", align 8
  %decodedMapKeys.i418 = alloca ptr, align 8
  %indexHolder.i419 = alloca %"class.facebook::velox::exec::LocalDecodedVector", align 8
  %rawSizes.i420 = alloca ptr, align 8
  %rawOffsets.i421 = alloca ptr, align 8
  %processRow.i422 = alloca %class.anon.305, align 8
  %agg.tmp64.i423 = alloca %"class.boost::intrusive_ptr", align 8
  %agg.tmp66.i424 = alloca %"class.boost::intrusive_ptr", align 8
  %agg.tmp70.i425 = alloca %"class.std::shared_ptr", align 16
  %triggeCaching.addr.i1 = alloca i8, align 1
  %indices.i2 = alloca %"class.boost::intrusive_ptr", align 8
  %rawIndices.i3 = alloca ptr, align 8
  %nullsBuilder.i4 = alloca %"struct.facebook::velox::NullsBuilder", align 8
  %mapHolder.i5 = alloca %"class.facebook::velox::exec::LocalDecodedVector", align 8
  %mapIndices.i6 = alloca ptr, align 8
  %mapKeys.i7 = alloca %"class.std::shared_ptr", align 8
  %allElementRows.i8 = alloca %"class.facebook::velox::exec::LocalSelectivityVector", align 8
  %mapKeysHolder.i9 = alloca %"class.facebook::velox::exec::LocalDecodedVector", align 8
  %decodedMapKeys.i10 = alloca ptr, align 8
  %indexHolder.i11 = alloca %"class.facebook::velox::exec::LocalDecodedVector", align 8
  %rawSizes.i12 = alloca ptr, align 8
  %rawOffsets.i13 = alloca ptr, align 8
  %processRow.i14 = alloca %class.anon.220, align 8
  %agg.tmp64.i = alloca %"class.boost::intrusive_ptr", align 8
  %agg.tmp66.i = alloca %"class.boost::intrusive_ptr", align 8
  %agg.tmp70.i = alloca %"class.std::shared_ptr", align 16
  %triggeCaching.addr.i = alloca i8, align 1
  %indices.i = alloca %"class.boost::intrusive_ptr", align 8
  %rawIndices.i = alloca ptr, align 8
  %nullsBuilder.i = alloca %"struct.facebook::velox::NullsBuilder", align 8
  %mapHolder.i = alloca %"class.facebook::velox::exec::LocalDecodedVector", align 8
  %mapIndices.i = alloca ptr, align 8
  %mapKeys.i = alloca %"class.std::shared_ptr", align 8
  %allElementRows.i = alloca %"class.facebook::velox::exec::LocalSelectivityVector", align 8
  %mapKeysHolder.i = alloca %"class.facebook::velox::exec::LocalDecodedVector", align 8
  %decodedMapKeys.i = alloca ptr, align 8
  %indexHolder.i = alloca %"class.facebook::velox::exec::LocalDecodedVector", align 8
  %rawSizes.i = alloca ptr, align 8
  %rawOffsets.i = alloca ptr, align 8
  %processRow.i = alloca %class.anon.72, align 8
  %agg.tmp79.i = alloca %"class.boost::intrusive_ptr", align 8
  %agg.tmp81.i = alloca %"class.boost::intrusive_ptr", align 8
  %agg.tmp87.i = alloca %"class.std::shared_ptr", align 16
  %0 = getelementptr inbounds %class.anon, ptr %this, i64 0, i32 2
  %1 = load ptr, ptr %0, align 8
  %2 = load ptr, ptr %this, align 8
  %3 = load ptr, ptr %2, align 8
  %typeKind_.i = getelementptr inbounds %"class.facebook::velox::BaseVector", ptr %3, i64 0, i32 2
  %4 = load i8, ptr %typeKind_.i, align 8
  switch i8 %4, label %sw.default [
    i8 0, label %sw.bb
    i8 3, label %sw.bb3
    i8 1, label %sw.bb6
    i8 2, label %sw.bb9
    i8 4, label %sw.bb12
    i8 10, label %sw.bb15
    i8 5, label %sw.bb18
    i8 6, label %sw.bb21
    i8 7, label %sw.bb24
    i8 8, label %sw.bb27
    i8 9, label %sw.bb30
  ]

sw.bb:                                            ; preds = %entry
  %5 = getelementptr inbounds %class.anon, ptr %this, i64 0, i32 1
  %6 = load ptr, ptr %5, align 8
  %7 = load i8, ptr %6, align 1
  %8 = and i8 %7, 1
  %tobool = icmp ne i8 %8, 0
  %lookupTable_ = getelementptr inbounds %"class.facebook::velox::functions::MapSubscript", ptr %1, i64 0, i32 2
  %9 = getelementptr inbounds %class.anon, ptr %this, i64 0, i32 3
  %10 = load ptr, ptr %9, align 8
  %11 = getelementptr inbounds %class.anon, ptr %this, i64 0, i32 4
  %12 = load ptr, ptr %11, align 8
  %13 = getelementptr inbounds %class.anon, ptr %this, i64 0, i32 5
  %14 = load ptr, ptr %13, align 8
  call void @llvm.lifetime.start.p0(i64 1, ptr nonnull %triggeCaching.addr.i)
  call void @llvm.lifetime.start.p0(i64 8, ptr nonnull %indices.i)
  call void @llvm.lifetime.start.p0(i64 8, ptr nonnull %rawIndices.i)
  call void @llvm.lifetime.start.p0(i64 32, ptr nonnull %nullsBuilder.i)
  call void @llvm.lifetime.start.p0(i64 16, ptr nonnull %mapHolder.i)
  call void @llvm.lifetime.start.p0(i64 8, ptr nonnull %mapIndices.i)
  call void @llvm.lifetime.start.p0(i64 16, ptr nonnull %mapKeys.i)
  call void @llvm.lifetime.start.p0(i64 16, ptr nonnull %allElementRows.i)
  call void @llvm.lifetime.start.p0(i64 16, ptr nonnull %mapKeysHolder.i)
  call void @llvm.lifetime.start.p0(i64 8, ptr nonnull %decodedMapKeys.i)
  call void @llvm.lifetime.start.p0(i64 16, ptr nonnull %indexHolder.i)
  call void @llvm.lifetime.start.p0(i64 8, ptr nonnull %rawSizes.i)
  call void @llvm.lifetime.start.p0(i64 8, ptr nonnull %rawOffsets.i)
  call void @llvm.lifetime.start.p0(i64 64, ptr nonnull %processRow.i)
  call void @llvm.lifetime.start.p0(i64 8, ptr nonnull %agg.tmp79.i)
  call void @llvm.lifetime.start.p0(i64 8, ptr nonnull %agg.tmp81.i)
  call void @llvm.lifetime.start.p0(i64 16, ptr nonnull %agg.tmp87.i)
  store i8 %8, ptr %triggeCaching.addr.i, align 1, !noalias !37
  %15 = load ptr, ptr %lookupTable_, align 8, !noalias !37
  %cmp.i.i = icmp eq ptr %15, null
  %or.cond.not.i = select i1 %tobool, i1 %cmp.i.i, i1 false
  br i1 %or.cond.not.i, label %if.then1.i, label %if.end4.i

if.then1.i:                                       ; preds = %sw.bb
  %16 = load ptr, ptr %14, align 8, !noalias !37
  %17 = load ptr, ptr %16, align 8
  %call5.i.i.i3.i.i.i.i.i = tail call noalias noundef nonnull dereferenceable(40) ptr @_Znwm(i64 noundef 40) #27, !noalias !40
  %_M_use_count.i.i.i.i.i.i.i = getelementptr inbounds %"class.std::_Sp_counted_base", ptr %call5.i.i.i3.i.i.i.i.i, i64 0, i32 1
  store i32 1, ptr %_M_use_count.i.i.i.i.i.i.i, align 8, !noalias !40
  %_M_weak_count.i.i.i.i.i.i.i = getelementptr inbounds %"class.std::_Sp_counted_base", ptr %call5.i.i.i3.i.i.i.i.i, i64 0, i32 2
  store i32 1, ptr %_M_weak_count.i.i.i.i.i.i.i, align 4, !noalias !40
  store ptr getelementptr inbounds ({ [7 x ptr] }, ptr @_ZTVSt23_Sp_counted_ptr_inplaceIN8facebook5velox9functions11LookupTableILNS1_8TypeKindE0EEESaIvELN9__gnu_cxx12_Lock_policyE2EE, i64 0, inrange i32 0, i64 2), ptr %call5.i.i.i3.i.i.i.i.i, align 8, !noalias !40
  %_M_impl.i.i.i.i.i.i.i = getelementptr inbounds %"class.std::_Sp_counted_ptr_inplace", ptr %call5.i.i.i3.i.i.i.i.i, i64 0, i32 1
  store ptr getelementptr inbounds ({ [4 x ptr] }, ptr @_ZTVN8facebook5velox9functions11LookupTableILNS0_8TypeKindE0EEE, i64 0, inrange i32 0, i64 2), ptr %_M_impl.i.i.i.i.i.i.i, align 8, !noalias !40
  %pool_.i.i.i.i.i.i.i.i.i = getelementptr inbounds %"class.std::_Sp_counted_ptr_inplace", ptr %call5.i.i.i3.i.i.i.i.i, i64 0, i32 1, i32 0, i32 0, i32 0, i64 8
  store ptr %17, ptr %pool_.i.i.i.i.i.i.i.i.i, align 8, !noalias !40
  tail call void @llvm.experimental.noalias.scope.decl(metadata !43)
  %call.i2.i.i.i1.i4.i.i.i.i.i = invoke noalias noundef nonnull dereferenceable(32) ptr @_Znwm(i64 noundef 32) #27
          to label %_ZSt11make_sharedIN8facebook5velox9functions11LookupTableILNS1_8TypeKindE0EEEJRNS1_6memory10MemoryPoolEEESt10shared_ptrINSt9enable_ifIXntsr8is_arrayIT_EE5valueESB_E4typeEEDpOT0_.exit.i unwind label %_ZNSt15__allocated_ptrISaISt23_Sp_counted_ptr_inplaceIN8facebook5velox9functions11LookupTableILNS2_8TypeKindE0EEESaIvELN9__gnu_cxx12_Lock_policyE2EEEED2Ev.exit10.i.i.i.i.i, !noalias !40

common.resume:                                    ; preds = %_ZNSt15__allocated_ptrISaISt23_Sp_counted_ptr_inplaceIN8facebook5velox9functions11LookupTableILNS2_8TypeKindE9EEESaIvELN9__gnu_cxx12_Lock_policyE2EEEED2Ev.exit10.i.i.i.i.i, %lpad.i.i.i6787, %ehcleanup86.i6797, %_ZNSt15__allocated_ptrISaISt23_Sp_counted_ptr_inplaceIN8facebook5velox9functions11LookupTableILNS2_8TypeKindE8EEESaIvELN9__gnu_cxx12_Lock_policyE2EEEED2Ev.exit10.i.i.i.i.i, %lpad.i.i.i5934, %ehcleanup85.i, %_ZNSt15__allocated_ptrISaISt23_Sp_counted_ptr_inplaceIN8facebook5velox9functions11LookupTableILNS2_8TypeKindE7EEESaIvELN9__gnu_cxx12_Lock_policyE2EEEED2Ev.exit10.i.i.i.i.i, %lpad.i.i.i5216, %ehcleanup86.i5226, %_ZNSt15__allocated_ptrISaISt23_Sp_counted_ptr_inplaceIN8facebook5velox9functions11LookupTableILNS2_8TypeKindE6EEESaIvELN9__gnu_cxx12_Lock_policyE2EEEED2Ev.exit10.i.i.i.i.i, %lpad.i.i.i4372, %ehcleanup86.i4382, %_ZNSt15__allocated_ptrISaISt23_Sp_counted_ptr_inplaceIN8facebook5velox9functions11LookupTableILNS2_8TypeKindE5EEESaIvELN9__gnu_cxx12_Lock_policyE2EEEED2Ev.exit10.i.i.i.i.i, %lpad.i.i.i3534, %ehcleanup86.i3544, %_ZNSt15__allocated_ptrISaISt23_Sp_counted_ptr_inplaceIN8facebook5velox9functions11LookupTableILNS2_8TypeKindE10EEESaIvELN9__gnu_cxx12_Lock_policyE2EEEED2Ev.exit10.i.i.i.i.i, %lpad.i.i.i2987, %ehcleanup86.i2997, %_ZNSt15__allocated_ptrISaISt23_Sp_counted_ptr_inplaceIN8facebook5velox9functions11LookupTableILNS2_8TypeKindE4EEESaIvELN9__gnu_cxx12_Lock_policyE2EEEED2Ev.exit10.i.i.i.i.i, %lpad.i.i.i2143, %ehcleanup86.i2153, %_ZNSt15__allocated_ptrISaISt23_Sp_counted_ptr_inplaceIN8facebook5velox9functions11LookupTableILNS2_8TypeKindE2EEESaIvELN9__gnu_cxx12_Lock_policyE2EEEED2Ev.exit10.i.i.i.i.i, %lpad.i.i.i1299, %ehcleanup86.i1309, %_ZNSt15__allocated_ptrISaISt23_Sp_counted_ptr_inplaceIN8facebook5velox9functions11LookupTableILNS2_8TypeKindE1EEESaIvELN9__gnu_cxx12_Lock_policyE2EEEED2Ev.exit10.i.i.i.i.i, %lpad.i.i.i455, %ehcleanup86.i465, %_ZNSt15__allocated_ptrISaISt23_Sp_counted_ptr_inplaceIN8facebook5velox9functions11LookupTableILNS2_8TypeKindE3EEESaIvELN9__gnu_cxx12_Lock_policyE2EEEED2Ev.exit10.i.i.i.i.i, %lpad.i.i.i44, %ehcleanup86.i, %_ZNSt15__allocated_ptrISaISt23_Sp_counted_ptr_inplaceIN8facebook5velox9functions11LookupTableILNS2_8TypeKindE0EEESaIvELN9__gnu_cxx12_Lock_policyE2EEEED2Ev.exit10.i.i.i.i.i, %lpad.i.i.i, %ehcleanup105.i
  %common.resume.op = phi { ptr, i32 } [ %18, %_ZNSt15__allocated_ptrISaISt23_Sp_counted_ptr_inplaceIN8facebook5velox9functions11LookupTableILNS2_8TypeKindE0EEESaIvELN9__gnu_cxx12_Lock_policyE2EEEED2Ev.exit10.i.i.i.i.i ], [ %44, %lpad.i.i.i ], [ %.pn24.pn.pn.pn.pn.pn.pn.i, %ehcleanup105.i ], [ %314, %_ZNSt15__allocated_ptrISaISt23_Sp_counted_ptr_inplaceIN8facebook5velox9functions11LookupTableILNS2_8TypeKindE3EEESaIvELN9__gnu_cxx12_Lock_policyE2EEEED2Ev.exit10.i.i.i.i.i ], [ %340, %lpad.i.i.i44 ], [ %.pn24.pn.pn.pn.pn.pn.pn.i54, %ehcleanup86.i ], [ %610, %_ZNSt15__allocated_ptrISaISt23_Sp_counted_ptr_inplaceIN8facebook5velox9functions11LookupTableILNS2_8TypeKindE1EEESaIvELN9__gnu_cxx12_Lock_policyE2EEEED2Ev.exit10.i.i.i.i.i ], [ %636, %lpad.i.i.i455 ], [ %.pn24.pn.pn.pn.pn.pn.pn.i466, %ehcleanup86.i465 ], [ %906, %_ZNSt15__allocated_ptrISaISt23_Sp_counted_ptr_inplaceIN8facebook5velox9functions11LookupTableILNS2_8TypeKindE2EEESaIvELN9__gnu_cxx12_Lock_policyE2EEEED2Ev.exit10.i.i.i.i.i ], [ %932, %lpad.i.i.i1299 ], [ %.pn24.pn.pn.pn.pn.pn.pn.i1310, %ehcleanup86.i1309 ], [ %1202, %_ZNSt15__allocated_ptrISaISt23_Sp_counted_ptr_inplaceIN8facebook5velox9functions11LookupTableILNS2_8TypeKindE4EEESaIvELN9__gnu_cxx12_Lock_policyE2EEEED2Ev.exit10.i.i.i.i.i ], [ %1228, %lpad.i.i.i2143 ], [ %.pn24.pn.pn.pn.pn.pn.pn.i2154, %ehcleanup86.i2153 ], [ %1498, %_ZNSt15__allocated_ptrISaISt23_Sp_counted_ptr_inplaceIN8facebook5velox9functions11LookupTableILNS2_8TypeKindE10EEESaIvELN9__gnu_cxx12_Lock_policyE2EEEED2Ev.exit10.i.i.i.i.i ], [ %1524, %lpad.i.i.i2987 ], [ %.pn24.pn.pn.pn.pn.pn.pn.i2998, %ehcleanup86.i2997 ], [ %1787, %_ZNSt15__allocated_ptrISaISt23_Sp_counted_ptr_inplaceIN8facebook5velox9functions11LookupTableILNS2_8TypeKindE5EEESaIvELN9__gnu_cxx12_Lock_policyE2EEEED2Ev.exit10.i.i.i.i.i ], [ %1813, %lpad.i.i.i3534 ], [ %.pn24.pn.pn.pn.pn.pn.pn.i3545, %ehcleanup86.i3544 ], [ %2083, %_ZNSt15__allocated_ptrISaISt23_Sp_counted_ptr_inplaceIN8facebook5velox9functions11LookupTableILNS2_8TypeKindE6EEESaIvELN9__gnu_cxx12_Lock_policyE2EEEED2Ev.exit10.i.i.i.i.i ], [ %2109, %lpad.i.i.i4372 ], [ %.pn24.pn.pn.pn.pn.pn.pn.i4383, %ehcleanup86.i4382 ], [ %2379, %_ZNSt15__allocated_ptrISaISt23_Sp_counted_ptr_inplaceIN8facebook5velox9functions11LookupTableILNS2_8TypeKindE7EEESaIvELN9__gnu_cxx12_Lock_policyE2EEEED2Ev.exit10.i.i.i.i.i ], [ %2405, %lpad.i.i.i5216 ], [ %.pn24.pn.pn.pn.pn.pn.pn.i5227, %ehcleanup86.i5226 ], [ %2668, %_ZNSt15__allocated_ptrISaISt23_Sp_counted_ptr_inplaceIN8facebook5velox9functions11LookupTableILNS2_8TypeKindE8EEESaIvELN9__gnu_cxx12_Lock_policyE2EEEED2Ev.exit10.i.i.i.i.i ], [ %2694, %lpad.i.i.i5934 ], [ %.pn24.pn.pn.pn.pn.pn.pn.i5944, %ehcleanup85.i ], [ %2957, %_ZNSt15__allocated_ptrISaISt23_Sp_counted_ptr_inplaceIN8facebook5velox9functions11LookupTableILNS2_8TypeKindE9EEESaIvELN9__gnu_cxx12_Lock_policyE2EEEED2Ev.exit10.i.i.i.i.i ], [ %2983, %lpad.i.i.i6787 ], [ %.pn24.pn.pn.pn.pn.pn.pn.i6798, %ehcleanup86.i6797 ]
  resume { ptr, i32 } %common.resume.op

_ZNSt15__allocated_ptrISaISt23_Sp_counted_ptr_inplaceIN8facebook5velox9functions11LookupTableILNS2_8TypeKindE0EEESaIvELN9__gnu_cxx12_Lock_policyE2EEEED2Ev.exit10.i.i.i.i.i: ; preds = %if.then1.i
  %18 = landingpad { ptr, i32 }
          cleanup
  tail call void @_ZdlPv(ptr noundef nonnull %call5.i.i.i3.i.i.i.i.i) #29, !noalias !40
  br label %common.resume

_ZSt11make_sharedIN8facebook5velox9functions11LookupTableILNS1_8TypeKindE0EEEJRNS1_6memory10MemoryPoolEEESt10shared_ptrINSt9enable_ifIXntsr8is_arrayIT_EE5valueESB_E4typeEEDpOT0_.exit.i: ; preds = %if.then1.i
  %map_.i.i.i.i.i.i.i.i.i = getelementptr inbounds %"class.std::_Sp_counted_ptr_inplace", ptr %call5.i.i.i3.i.i.i.i.i, i64 0, i32 1, i32 0, i32 0, i32 0, i64 16
  %19 = ptrtoint ptr %17 to i64
  store i64 %19, ptr %call.i2.i.i.i1.i4.i.i.i.i.i, align 8, !noalias !46
  %values_.i.i.i.i.i.i.i.i.i.i.i.i.i.i.i = getelementptr inbounds %"class.folly::f14::detail::VectorContainerPolicy", ptr %call.i2.i.i.i1.i4.i.i.i.i.i, i64 0, i32 1
  store ptr null, ptr %values_.i.i.i.i.i.i.i.i.i.i.i.i.i.i.i, align 8, !noalias !46
  %chunks_.i.i.i.i.i.i.i.i.i.i.i.i.i.i = getelementptr inbounds %"class.folly::f14::detail::F14Table", ptr %call.i2.i.i.i1.i4.i.i.i.i.i, i64 0, i32 1
  store ptr @_ZN5folly3f146detail15kEmptyTagVectorE, ptr %chunks_.i.i.i.i.i.i.i.i.i.i.i.i.i.i, align 8, !noalias !46
  %chunkMask_.i.i.i.i.i.i.i.i.i.i.i.i.i.i = getelementptr inbounds %"class.folly::f14::detail::F14Table", ptr %call.i2.i.i.i1.i4.i.i.i.i.i, i64 0, i32 2
  store i32 0, ptr %chunkMask_.i.i.i.i.i.i.i.i.i.i.i.i.i.i, align 8, !noalias !46
  %sizeAndPackedBegin_.i.i.i.i.i.i.i.i.i.i.i.i.i.i = getelementptr inbounds %"class.folly::f14::detail::F14Table", ptr %call.i2.i.i.i1.i4.i.i.i.i.i, i64 0, i32 3
  store i32 0, ptr %sizeAndPackedBegin_.i.i.i.i.i.i.i.i.i.i.i.i.i.i, align 4, !noalias !46
  store ptr %call.i2.i.i.i1.i4.i.i.i.i.i, ptr %map_.i.i.i.i.i.i.i.i.i, align 8, !alias.scope !43, !noalias !40
  store ptr %_M_impl.i.i.i.i.i.i.i, ptr %lookupTable_, align 8, !noalias !37
  %_M_refcount3.i.i.i.i = getelementptr inbounds %"class.facebook::velox::functions::MapSubscript", ptr %1, i64 0, i32 2, i32 0, i32 1
  %20 = load ptr, ptr %_M_refcount3.i.i.i.i, align 8, !noalias !37
  store ptr %call5.i.i.i3.i.i.i.i.i, ptr %_M_refcount3.i.i.i.i, align 8, !noalias !37
  %cmp.not.i.i.i.i.i = icmp eq ptr %20, null
  br i1 %cmp.not.i.i.i.i.i, label %if.end4.i, label %if.then.i.i.i.i.i

if.then.i.i.i.i.i:                                ; preds = %_ZSt11make_sharedIN8facebook5velox9functions11LookupTableILNS1_8TypeKindE0EEEJRNS1_6memory10MemoryPoolEEESt10shared_ptrINSt9enable_ifIXntsr8is_arrayIT_EE5valueESB_E4typeEEDpOT0_.exit.i
  %_M_use_count.i.i.i.i.i.i = getelementptr inbounds %"class.std::_Sp_counted_base", ptr %20, i64 0, i32 1
  %21 = load atomic i64, ptr %_M_use_count.i.i.i.i.i.i acquire, align 8
  %cmp.i.i.i.i.i.i = icmp eq i64 %21, 4294967297
  %22 = trunc i64 %21 to i32
  br i1 %cmp.i.i.i.i.i.i, label %if.then.i.i.i.i.i.i, label %if.end.i.i.i.i.i.i

if.then.i.i.i.i.i.i:                              ; preds = %if.then.i.i.i.i.i
  store i32 0, ptr %_M_use_count.i.i.i.i.i.i, align 8
  %_M_weak_count.i.i.i.i.i.i = getelementptr inbounds %"class.std::_Sp_counted_base", ptr %20, i64 0, i32 2
  store i32 0, ptr %_M_weak_count.i.i.i.i.i.i, align 4
  %vtable.i.i.i.i.i.i = load ptr, ptr %20, align 8
  %vfn.i.i.i.i.i.i = getelementptr inbounds ptr, ptr %vtable.i.i.i.i.i.i, i64 2
  %23 = load ptr, ptr %vfn.i.i.i.i.i.i, align 8
  tail call void %23(ptr noundef nonnull align 8 dereferenceable(16) %20) #26
  br label %if.end8.sink.split.i.i.i.i.i.i

if.end.i.i.i.i.i.i:                               ; preds = %if.then.i.i.i.i.i
  %24 = load i8, ptr @__libc_single_threaded, align 1, !noalias !37
  %tobool.i.i.not.i.i.i.i.i.i = icmp eq i8 %24, 0
  br i1 %tobool.i.i.not.i.i.i.i.i.i, label %if.else.i.i.i.i.i.i.i, label %if.then.i.i.i.i.i.i.i

if.then.i.i.i.i.i.i.i:                            ; preds = %if.end.i.i.i.i.i.i
  %add.i.i.i.i.i.i.i = add nsw i32 %22, -1
  store i32 %add.i.i.i.i.i.i.i, ptr %_M_use_count.i.i.i.i.i.i, align 4
  br label %_ZN9__gnu_cxx27__exchange_and_add_dispatchEPii.exit.i.i.i.i.i.i

if.else.i.i.i.i.i.i.i:                            ; preds = %if.end.i.i.i.i.i.i
  %25 = atomicrmw volatile add ptr %_M_use_count.i.i.i.i.i.i, i32 -1 acq_rel, align 4
  br label %_ZN9__gnu_cxx27__exchange_and_add_dispatchEPii.exit.i.i.i.i.i.i

_ZN9__gnu_cxx27__exchange_and_add_dispatchEPii.exit.i.i.i.i.i.i: ; preds = %if.else.i.i.i.i.i.i.i, %if.then.i.i.i.i.i.i.i
  %retval.i.0.i.i.i.i.i.i = phi i32 [ %22, %if.then.i.i.i.i.i.i.i ], [ %25, %if.else.i.i.i.i.i.i.i ]
  %cmp6.i.i.i.i.i.i = icmp eq i32 %retval.i.0.i.i.i.i.i.i, 1
  br i1 %cmp6.i.i.i.i.i.i, label %if.then7.i.i.i.i.i.i, label %if.end4.i

if.then7.i.i.i.i.i.i:                             ; preds = %_ZN9__gnu_cxx27__exchange_and_add_dispatchEPii.exit.i.i.i.i.i.i
  %vtable.i.i.i.i.i.i.i.i = load ptr, ptr %20, align 8
  %vfn.i.i.i.i.i.i.i.i = getelementptr inbounds ptr, ptr %vtable.i.i.i.i.i.i.i.i, i64 2
  %26 = load ptr, ptr %vfn.i.i.i.i.i.i.i.i, align 8
  tail call void %26(ptr noundef nonnull align 8 dereferenceable(16) %20) #26
  %_M_weak_count.i.i.i.i.i.i.i.i = getelementptr inbounds %"class.std::_Sp_counted_base", ptr %20, i64 0, i32 2
  %27 = load i8, ptr @__libc_single_threaded, align 1, !noalias !37
  %tobool.i.i.not.i.i.i.i.i.i.i.i = icmp eq i8 %27, 0
  br i1 %tobool.i.i.not.i.i.i.i.i.i.i.i, label %if.else.i.i.i.i.i.i.i.i.i, label %if.then.i.i.i.i.i.i.i.i.i

if.then.i.i.i.i.i.i.i.i.i:                        ; preds = %if.then7.i.i.i.i.i.i
  %28 = load i32, ptr %_M_weak_count.i.i.i.i.i.i.i.i, align 4
  %add.i.i.i.i.i.i.i.i.i = add nsw i32 %28, -1
  store i32 %add.i.i.i.i.i.i.i.i.i, ptr %_M_weak_count.i.i.i.i.i.i.i.i, align 4
  br label %_ZN9__gnu_cxx27__exchange_and_add_dispatchEPii.exit.i.i.i.i.i.i.i.i

if.else.i.i.i.i.i.i.i.i.i:                        ; preds = %if.then7.i.i.i.i.i.i
  %29 = atomicrmw volatile add ptr %_M_weak_count.i.i.i.i.i.i.i.i, i32 -1 acq_rel, align 4
  br label %_ZN9__gnu_cxx27__exchange_and_add_dispatchEPii.exit.i.i.i.i.i.i.i.i

_ZN9__gnu_cxx27__exchange_and_add_dispatchEPii.exit.i.i.i.i.i.i.i.i: ; preds = %if.else.i.i.i.i.i.i.i.i.i, %if.then.i.i.i.i.i.i.i.i.i
  %retval.i.0.i.i.i.i.i.i.i.i = phi i32 [ %28, %if.then.i.i.i.i.i.i.i.i.i ], [ %29, %if.else.i.i.i.i.i.i.i.i.i ]
  %cmp.i.i.i.i.i.i.i.i = icmp eq i32 %retval.i.0.i.i.i.i.i.i.i.i, 1
  br i1 %cmp.i.i.i.i.i.i.i.i, label %if.end8.sink.split.i.i.i.i.i.i, label %if.end4.i

if.end8.sink.split.i.i.i.i.i.i:                   ; preds = %_ZN9__gnu_cxx27__exchange_and_add_dispatchEPii.exit.i.i.i.i.i.i.i.i, %if.then.i.i.i.i.i.i
  %vtable2.i.i.i.i.i.i.i.i = load ptr, ptr %20, align 8
  %vfn3.i.i.i.i.i.i.i.i = getelementptr inbounds ptr, ptr %vtable2.i.i.i.i.i.i.i.i, i64 3
  %30 = load ptr, ptr %vfn3.i.i.i.i.i.i.i.i, align 8
  tail call void %30(ptr noundef nonnull align 8 dereferenceable(16) %20) #26
  br label %if.end4.i

if.end4.i:                                        ; preds = %if.end8.sink.split.i.i.i.i.i.i, %_ZN9__gnu_cxx27__exchange_and_add_dispatchEPii.exit.i.i.i.i.i.i.i.i, %_ZN9__gnu_cxx27__exchange_and_add_dispatchEPii.exit.i.i.i.i.i.i, %_ZSt11make_sharedIN8facebook5velox9functions11LookupTableILNS1_8TypeKindE0EEEJRNS1_6memory10MemoryPoolEEESt10shared_ptrINSt9enable_ifIXntsr8is_arrayIT_EE5valueESB_E4typeEEDpOT0_.exit.i, %sw.bb
  %31 = load ptr, ptr %lookupTable_, align 8, !noalias !37
  %32 = load ptr, ptr %14, align 8, !noalias !37
  %33 = load ptr, ptr %32, align 8
  %end_.i.i = getelementptr inbounds %"class.facebook::velox::SelectivityVector", ptr %10, i64 0, i32 3
  %34 = load i32, ptr %end_.i.i, align 8, !noalias !37
  tail call void @llvm.experimental.noalias.scope.decl(metadata !47)
  tail call void @llvm.experimental.noalias.scope.decl(metadata !50)
  %35 = icmp slt i32 %34, 0
  br i1 %35, label %if.then.i.i.i38.i, label %_ZN5boost13intrusive_ptrIN8facebook5velox6BufferEEC2EPS3_b.exit.i.i.i

if.then.i.i.i38.i:                                ; preds = %if.end4.i
  tail call void @llvm.trap()
  unreachable

_ZN5boost13intrusive_ptrIN8facebook5velox6BufferEEC2EPS3_b.exit.i.i.i: ; preds = %if.end4.i
  %conv.i.i = zext nneg i32 %34 to i64
  %36 = shl nuw nsw i64 %conv.i.i, 2
  %37 = add nuw nsw i64 %36, 96
  %vtable.i.i.i = load ptr, ptr %33, align 8, !noalias !53
  %vfn.i.i.i = getelementptr inbounds ptr, ptr %vtable.i.i.i, i64 24
  %38 = load ptr, ptr %vfn.i.i.i, align 8, !noalias !53
  %call3.i.i.i = tail call noundef i64 %38(ptr noundef nonnull align 8 dereferenceable(168) %33, i64 noundef %37), !noalias !53
  %vtable4.i.i.i = load ptr, ptr %33, align 8, !noalias !53
  %vfn5.i.i.i = getelementptr inbounds ptr, ptr %vtable4.i.i.i, i64 13
  %39 = load ptr, ptr %vfn5.i.i.i, align 8, !noalias !53
  %call6.i.i.i = tail call noundef ptr %39(ptr noundef nonnull align 8 dereferenceable(168) %33, i64 noundef %call3.i.i.i), !noalias !53
  %sub.i.i.i = add i64 %call3.i.i.i, -96
  %add.ptr.i.i.i.i = getelementptr inbounds i8, ptr %call6.i.i.i, i64 64
  %pool_.i.i.i.i.i = getelementptr inbounds %"class.facebook::velox::Buffer", ptr %call6.i.i.i, i64 0, i32 1
  store ptr %33, ptr %pool_.i.i.i.i.i, align 8, !noalias !53
  %data_.i.i.i.i.i = getelementptr inbounds %"class.facebook::velox::Buffer", ptr %call6.i.i.i, i64 0, i32 2
  store ptr %add.ptr.i.i.i.i, ptr %data_.i.i.i.i.i, align 8, !noalias !53
  %size_.i.i.i.i.i = getelementptr inbounds %"class.facebook::velox::Buffer", ptr %call6.i.i.i, i64 0, i32 3
  %capacity_.i.i.i.i.i = getelementptr inbounds %"class.facebook::velox::Buffer", ptr %call6.i.i.i, i64 0, i32 4
  store i64 %sub.i.i.i, ptr %capacity_.i.i.i.i.i, align 8, !noalias !53
  %referenceCount_.i.i.i.i.i = getelementptr inbounds %"class.facebook::velox::Buffer", ptr %call6.i.i.i, i64 0, i32 5
  store i32 0, ptr %referenceCount_.i.i.i.i.i, align 4, !noalias !53
  %podType_.i.i.i.i.i = getelementptr inbounds %"class.facebook::velox::Buffer", ptr %call6.i.i.i, i64 0, i32 6
  store i8 1, ptr %podType_.i.i.i.i.i, align 4, !noalias !53
  %padding_.i.i.i.i.i = getelementptr inbounds %"class.facebook::velox::Buffer", ptr %call6.i.i.i, i64 0, i32 7
  tail call void @llvm.memset.p0.i64(ptr noundef nonnull align 8 dereferenceable(16) %padding_.i.i.i.i.i, i8 -1, i64 16, i1 false), !noalias !53
  store ptr getelementptr inbounds ({ [11 x ptr] }, ptr @_ZTVN8facebook5velox13AlignedBufferE, i64 0, inrange i32 0, i64 2), ptr %call6.i.i.i, align 8, !noalias !53
  store i64 %36, ptr %size_.i.i.i.i.i, align 8, !noalias !53
  store ptr %call6.i.i.i, ptr %indices.i, align 8, !alias.scope !53, !noalias !37
  %40 = atomicrmw add ptr %referenceCount_.i.i.i.i.i, i32 1 seq_cst, align 4, !noalias !53
  %41 = load i64, ptr %capacity_.i.i.i.i.i, align 8, !noalias !53
  %cmp.not.i9.i.i.i = icmp ult i64 %41, %36
  br i1 %cmp.not.i9.i.i.i, label %if.then.i11.i.i.i, label %if.end.i.i.i.i

if.then.i11.i.i.i:                                ; preds = %_ZN5boost13intrusive_ptrIN8facebook5velox6BufferEEC2EPS3_b.exit.i.i.i
  tail call void @llvm.trap()
  unreachable

if.end.i.i.i.i:                                   ; preds = %_ZN5boost13intrusive_ptrIN8facebook5velox6BufferEEC2EPS3_b.exit.i.i.i
  %cmp2.not.i.not.i.i.i = icmp eq i32 %34, 0
  br i1 %cmp2.not.i.not.i.i.i, label %_ZN8facebook5velox15allocateIndicesEiPNS0_6memory10MemoryPoolE.exit.i, label %if.then6.i.i.i.i

if.then6.i.i.i.i:                                 ; preds = %if.end.i.i.i.i
  %vtable.i.i.i.i35.i = load ptr, ptr %call6.i.i.i, align 8, !noalias !53
  %vfn.i.i.i.i36.i = getelementptr inbounds ptr, ptr %vtable.i.i.i.i35.i, i64 3
  %42 = load ptr, ptr %vfn.i.i.i.i36.i, align 8, !noalias !53
  %call.i.i12.i.i.i = invoke noundef zeroext i1 %42(ptr noundef nonnull align 8 dereferenceable(64) %call6.i.i.i)
          to label %call.i.i.noexc.i.i.i unwind label %lpad.i.i.i, !noalias !53

call.i.i.noexc.i.i.i:                             ; preds = %if.then6.i.i.i.i
  br i1 %call.i.i12.i.i.i, label %if.then.i.i.i.i37.i, label %for.body.i.i.i.preheader.i.i.i.i

if.then.i.i.i.i37.i:                              ; preds = %call.i.i.noexc.i.i.i
  tail call void @llvm.trap()
  unreachable

for.body.i.i.i.preheader.i.i.i.i:                 ; preds = %call.i.i.noexc.i.i.i
  %43 = load ptr, ptr %data_.i.i.i.i.i, align 8, !noalias !53
  tail call void @llvm.memset.p0.i64(ptr align 4 %43, i8 0, i64 %36, i1 false), !noalias !53
  br label %_ZN8facebook5velox15allocateIndicesEiPNS0_6memory10MemoryPoolE.exit.i

lpad.i.i.i:                                       ; preds = %if.then6.i.i.i.i
  %44 = landingpad { ptr, i32 }
          cleanup
  call void @_ZN5boost13intrusive_ptrIN8facebook5velox6BufferEED2Ev(ptr noundef nonnull align 8 dereferenceable(8) %indices.i) #26
  br label %common.resume

_ZN8facebook5velox15allocateIndicesEiPNS0_6memory10MemoryPoolE.exit.i: ; preds = %for.body.i.i.i.preheader.i.i.i.i, %if.end.i.i.i.i
  %45 = load ptr, ptr %indices.i, align 8, !noalias !37
  %vtable.i.i = load ptr, ptr %45, align 8
  %vfn.i.i = getelementptr inbounds ptr, ptr %vtable.i.i, i64 3
  %46 = load ptr, ptr %vfn.i.i, align 8
  %call.i39.i = invoke noundef zeroext i1 %46(ptr noundef nonnull align 8 dereferenceable(64) %45)
          to label %call.i.noexc.i unwind label %lpad.i

call.i.noexc.i:                                   ; preds = %_ZN8facebook5velox15allocateIndicesEiPNS0_6memory10MemoryPoolE.exit.i
  br i1 %call.i39.i, label %if.then.i.i, label %invoke.cont13.i

if.then.i.i:                                      ; preds = %call.i.noexc.i
  tail call void @llvm.trap()
  unreachable

invoke.cont13.i:                                  ; preds = %call.i.noexc.i
  %data_.i.i = getelementptr inbounds %"class.facebook::velox::Buffer", ptr %45, i64 0, i32 2
  %47 = load ptr, ptr %data_.i.i, align 8
  store ptr %47, ptr %rawIndices.i, align 8, !noalias !37
  %48 = load i32, ptr %end_.i.i, align 8, !noalias !37
  store i32 %48, ptr %nullsBuilder.i, align 8, !noalias !37
  %pool_.i.i = getelementptr inbounds %"struct.facebook::velox::NullsBuilder", ptr %nullsBuilder.i, i64 0, i32 1
  store ptr %33, ptr %pool_.i.i, align 8, !noalias !37
  %nulls_.i.i = getelementptr inbounds %"struct.facebook::velox::NullsBuilder", ptr %nullsBuilder.i, i64 0, i32 2
  call void @llvm.memset.p0.i64(ptr noundef nonnull align 8 dereferenceable(16) %nulls_.i.i, i8 0, i64 16, i1 false), !noalias !37
  %49 = load ptr, ptr %12, align 8, !noalias !37
  %50 = load ptr, ptr %14, align 8, !noalias !37
  store ptr %50, ptr %mapHolder.i, align 8, !noalias !37
  %vector_.i.i = getelementptr inbounds %"class.facebook::velox::exec::LocalDecodedVector", ptr %mapHolder.i, i64 0, i32 1
  store ptr null, ptr %vector_.i.i, align 8, !noalias !37
  %call2.i.i = invoke noundef ptr @_ZN8facebook5velox4exec18LocalDecodedVector3getEv(ptr noundef nonnull align 8 dereferenceable(16) %mapHolder.i)
          to label %invoke.cont.i.i unwind label %lpad.i.i

invoke.cont.i.i:                                  ; preds = %invoke.cont13.i
  invoke void @_ZN8facebook5velox13DecodedVector6decodeERKNS0_10BaseVectorEPKNS0_17SelectivityVectorEb(ptr noundef nonnull align 8 dereferenceable(120) %call2.i.i, ptr noundef nonnull align 8 dereferenceable(99) %49, ptr noundef nonnull %10, i1 noundef zeroext true)
          to label %invoke.cont16.i unwind label %lpad.i.i

lpad.i.i:                                         ; preds = %invoke.cont.i.i, %invoke.cont13.i
  %51 = landingpad { ptr, i32 }
          cleanup
  call void @_ZNSt10unique_ptrIN8facebook5velox13DecodedVectorESt14default_deleteIS2_EED2Ev(ptr noundef nonnull align 8 dereferenceable(8) %vector_.i.i) #26
  br label %ehcleanup103.i

invoke.cont16.i:                                  ; preds = %invoke.cont.i.i
  %call19.i = invoke noundef ptr @_ZN8facebook5velox4exec18LocalDecodedVector3getEv(ptr noundef nonnull align 8 dereferenceable(16) %mapHolder.i)
          to label %invoke.cont18.i unwind label %lpad17.i

invoke.cont18.i:                                  ; preds = %invoke.cont16.i
  %baseVector_.i.i = getelementptr inbounds %"class.facebook::velox::DecodedVector", ptr %call19.i, i64 0, i32 5
  %52 = load ptr, ptr %baseVector_.i.i, align 8
  %53 = call noundef ptr @__dynamic_cast(ptr nonnull %52, ptr nonnull @_ZTIN8facebook5velox10BaseVectorE, ptr nonnull @_ZTIN8facebook5velox9MapVectorE, i64 0) #26
  %indices_.i.i = getelementptr inbounds %"class.facebook::velox::DecodedVector", ptr %call19.i, i64 0, i32 1
  %54 = load ptr, ptr %indices_.i.i, align 8
  %tobool.not.i.i = icmp eq ptr %54, null
  br i1 %tobool.not.i.i, label %if.then.i41.i, label %invoke.cont24.i

if.then.i41.i:                                    ; preds = %invoke.cont18.i
  invoke void @_ZN8facebook5velox13DecodedVector13fillInIndicesEv(ptr noundef nonnull align 8 dereferenceable(120) %call19.i)
          to label %.noexc.i unwind label %lpad17.i

.noexc.i:                                         ; preds = %if.then.i41.i
  %.pre.i.i = load ptr, ptr %indices_.i.i, align 8
  br label %invoke.cont24.i

invoke.cont24.i:                                  ; preds = %.noexc.i, %invoke.cont18.i
  %55 = phi ptr [ %.pre.i.i, %.noexc.i ], [ %54, %invoke.cont18.i ]
  store ptr %55, ptr %mapIndices.i, align 8, !noalias !37
  %keys_.i.i = getelementptr inbounds %"class.facebook::velox::MapVector", ptr %53, i64 0, i32 1
  %56 = load ptr, ptr %keys_.i.i, align 8
  store ptr %56, ptr %mapKeys.i, align 8, !noalias !37
  %_M_refcount.i.i42.i = getelementptr inbounds %"class.std::__shared_ptr", ptr %mapKeys.i, i64 0, i32 1
  %_M_refcount3.i.i.i = getelementptr inbounds %"class.facebook::velox::MapVector", ptr %53, i64 0, i32 1, i32 0, i32 1
  %57 = load ptr, ptr %_M_refcount3.i.i.i, align 8
  store ptr %57, ptr %_M_refcount.i.i42.i, align 8, !noalias !37
  %cmp.not.i.i.i43.i = icmp eq ptr %57, null
  br i1 %cmp.not.i.i.i43.i, label %_ZNSt10shared_ptrIN8facebook5velox10BaseVectorEEC2ERKS3_.exit.i, label %if.then.i.i.i44.i

if.then.i.i.i44.i:                                ; preds = %invoke.cont24.i
  %_M_use_count.i.i.i.i45.i = getelementptr inbounds %"class.std::_Sp_counted_base", ptr %57, i64 0, i32 1
  %58 = load i8, ptr @__libc_single_threaded, align 1, !noalias !37
  %tobool.i.not.i.i.i.i.i = icmp eq i8 %58, 0
  br i1 %tobool.i.not.i.i.i.i.i, label %if.else.i.i.i.i.i48.i, label %if.then.i.i.i.i.i46.i

if.then.i.i.i.i.i46.i:                            ; preds = %if.then.i.i.i44.i
  %59 = load i32, ptr %_M_use_count.i.i.i.i45.i, align 4
  %add.i.i.i.i.i47.i = add nsw i32 %59, 1
  store i32 %add.i.i.i.i.i47.i, ptr %_M_use_count.i.i.i.i45.i, align 4
  br label %_ZNSt10shared_ptrIN8facebook5velox10BaseVectorEEC2ERKS3_.exit.i

if.else.i.i.i.i.i48.i:                            ; preds = %if.then.i.i.i44.i
  %60 = atomicrmw volatile add ptr %_M_use_count.i.i.i.i45.i, i32 1 acq_rel, align 4
  %.pre.i = load ptr, ptr %mapKeys.i, align 8, !noalias !37
  br label %_ZNSt10shared_ptrIN8facebook5velox10BaseVectorEEC2ERKS3_.exit.i

_ZNSt10shared_ptrIN8facebook5velox10BaseVectorEEC2ERKS3_.exit.i: ; preds = %if.else.i.i.i.i.i48.i, %if.then.i.i.i.i.i46.i, %invoke.cont24.i
  %61 = phi ptr [ %56, %invoke.cont24.i ], [ %56, %if.then.i.i.i.i.i46.i ], [ %.pre.i, %if.else.i.i.i.i.i48.i ]
  %length_.i.i = getelementptr inbounds %"class.facebook::velox::BaseVector", ptr %61, i64 0, i32 8
  %62 = load i32, ptr %length_.i.i, align 8
  %63 = load ptr, ptr %14, align 8, !noalias !37
  store ptr %63, ptr %allElementRows.i, align 8, !noalias !37
  %vector_.i49.i = getelementptr inbounds %"class.facebook::velox::exec::LocalSelectivityVector", ptr %allElementRows.i, i64 0, i32 1
  invoke void @_ZN8facebook5velox4core7ExecCtx20getSelectivityVectorEi(ptr nonnull sret(%"class.std::unique_ptr.64") align 8 %vector_.i49.i, ptr noundef nonnull align 8 dereferenceable(80) %63, i32 noundef %62)
          to label %invoke.cont32.i unwind label %lpad29.i

invoke.cont32.i:                                  ; preds = %_ZNSt10shared_ptrIN8facebook5velox10BaseVectorEEC2ERKS3_.exit.i
  %64 = load ptr, ptr %vector_.i49.i, align 8, !noalias !37
  %65 = load ptr, ptr %64, align 8
  %size_.i.i = getelementptr inbounds %"class.facebook::velox::SelectivityVector", ptr %64, i64 0, i32 1
  %66 = load i32, ptr %size_.i.i, align 8
  %cmp.not.i.i.i = icmp sgt i32 %66, 0
  br i1 %cmp.not.i.i.i, label %if.end.i.i.i, label %invoke.cont36.i

if.end.i.i.i:                                     ; preds = %invoke.cont32.i
  %67 = and i32 %66, 2147483584
  %cmp15.not65.i.i.i = icmp eq i32 %67, 0
  br i1 %cmp15.not65.i.i.i, label %for.end.i.i.i, label %for.body.i.preheader.i.i

for.body.i.preheader.i.i:                         ; preds = %if.end.i.i.i
  %68 = or disjoint i32 %67, 1
  %umax.i.i = call i32 @llvm.umax.i32(i32 %68, i32 128)
  %69 = add nsw i32 %umax.i.i, -65
  %70 = lshr i32 %69, 3
  %71 = and i32 %70, 536870904
  %narrow.i.i = add nuw nsw i32 %71, 8
  %72 = zext nneg i32 %narrow.i.i to i64
  call void @llvm.memset.p0.i64(ptr noundef nonnull align 8 dereferenceable(1) %65, i8 -1, i64 %72, i1 false)
  br label %for.end.i.i.i

for.end.i.i.i:                                    ; preds = %for.body.i.preheader.i.i, %if.end.i.i.i
  %cmp18.not.i.i.i = icmp eq i32 %67, %66
  br i1 %cmp18.not.i.i.i, label %invoke.cont36.i, label %if.then19.i.i.i

if.then19.i.i.i:                                  ; preds = %for.end.i.i.i
  %div20.i.i.i = lshr i32 %66, 6
  %sub21.i.i.i = and i32 %66, 63
  %sh_prom.i44.i.i.i = zext nneg i32 %sub21.i.i.i to i64
  %notmask.i45.i.i.i = shl nsw i64 -1, %sh_prom.i44.i.i.i
  %sub.i46.i.i.i = xor i64 %notmask.i45.i.i.i, -1
  %idxprom.i49.i.i.i = zext nneg i32 %div20.i.i.i to i64
  %arrayidx.i50.i.i.i = getelementptr inbounds i64, ptr %65, i64 %idxprom.i49.i.i.i
  %73 = load i64, ptr %arrayidx.i50.i.i.i, align 8
  %or.i51.i.i.i = or i64 %73, %sub.i46.i.i.i
  store i64 %or.i51.i.i.i, ptr %arrayidx.i50.i.i.i, align 8
  br label %invoke.cont36.i

invoke.cont36.i:                                  ; preds = %if.then19.i.i.i, %for.end.i.i.i, %invoke.cont32.i
  %begin_.i.i = getelementptr inbounds %"class.facebook::velox::SelectivityVector", ptr %64, i64 0, i32 2
  store i32 0, ptr %begin_.i.i, align 4
  %74 = load i32, ptr %size_.i.i, align 8
  %end_.i52.i = getelementptr inbounds %"class.facebook::velox::SelectivityVector", ptr %64, i64 0, i32 3
  store i32 %74, ptr %end_.i52.i, align 8
  %allSelected_.i.i = getelementptr inbounds %"class.facebook::velox::SelectivityVector", ptr %64, i64 0, i32 4
  store i16 257, ptr %allSelected_.i.i, align 4
  %75 = load ptr, ptr %vector_.i49.i, align 8, !noalias !37
  %76 = load ptr, ptr %14, align 8, !noalias !37
  store ptr %76, ptr %mapKeysHolder.i, align 8, !noalias !37
  %vector_.i54.i = getelementptr inbounds %"class.facebook::velox::exec::LocalDecodedVector", ptr %mapKeysHolder.i, i64 0, i32 1
  store ptr null, ptr %vector_.i54.i, align 8, !noalias !37
  %call2.i55.i = invoke noundef ptr @_ZN8facebook5velox4exec18LocalDecodedVector3getEv(ptr noundef nonnull align 8 dereferenceable(16) %mapKeysHolder.i)
          to label %invoke.cont.i57.i unwind label %lpad.i56.i

invoke.cont.i57.i:                                ; preds = %invoke.cont36.i
  invoke void @_ZN8facebook5velox13DecodedVector6decodeERKNS0_10BaseVectorEPKNS0_17SelectivityVectorEb(ptr noundef nonnull align 8 dereferenceable(120) %call2.i55.i, ptr noundef nonnull align 8 dereferenceable(99) %61, ptr noundef nonnull %75, i1 noundef zeroext true)
          to label %invoke.cont40.i unwind label %lpad.i56.i

lpad.i56.i:                                       ; preds = %invoke.cont.i57.i, %invoke.cont36.i
  %77 = landingpad { ptr, i32 }
          cleanup
  call void @_ZNSt10unique_ptrIN8facebook5velox13DecodedVectorESt14default_deleteIS2_EED2Ev(ptr noundef nonnull align 8 dereferenceable(8) %vector_.i54.i) #26
  br label %ehcleanup97.i

invoke.cont40.i:                                  ; preds = %invoke.cont.i57.i
  %call43.i = invoke noundef ptr @_ZN8facebook5velox4exec18LocalDecodedVector3getEv(ptr noundef nonnull align 8 dereferenceable(16) %mapKeysHolder.i)
          to label %invoke.cont42.i unwind label %lpad41.i

invoke.cont42.i:                                  ; preds = %invoke.cont40.i
  store ptr %call43.i, ptr %decodedMapKeys.i, align 8, !noalias !37
  %78 = load ptr, ptr %2, align 8, !noalias !37
  %79 = load ptr, ptr %14, align 8, !noalias !37
  store ptr %79, ptr %indexHolder.i, align 8, !noalias !37
  %vector_.i60.i = getelementptr inbounds %"class.facebook::velox::exec::LocalDecodedVector", ptr %indexHolder.i, i64 0, i32 1
  store ptr null, ptr %vector_.i60.i, align 8, !noalias !37
  %call2.i61.i = invoke noundef ptr @_ZN8facebook5velox4exec18LocalDecodedVector3getEv(ptr noundef nonnull align 8 dereferenceable(16) %indexHolder.i)
          to label %invoke.cont.i63.i unwind label %lpad.i62.i

invoke.cont.i63.i:                                ; preds = %invoke.cont42.i
  invoke void @_ZN8facebook5velox13DecodedVector6decodeERKNS0_10BaseVectorEPKNS0_17SelectivityVectorEb(ptr noundef nonnull align 8 dereferenceable(120) %call2.i61.i, ptr noundef nonnull align 8 dereferenceable(99) %78, ptr noundef nonnull %10, i1 noundef zeroext true)
          to label %invoke.cont45.i unwind label %lpad.i62.i

lpad.i62.i:                                       ; preds = %invoke.cont.i63.i, %invoke.cont42.i
  %80 = landingpad { ptr, i32 }
          cleanup
  call void @_ZNSt10unique_ptrIN8facebook5velox13DecodedVectorESt14default_deleteIS2_EED2Ev(ptr noundef nonnull align 8 dereferenceable(8) %vector_.i60.i) #26
  br label %ehcleanup95.i

invoke.cont45.i:                                  ; preds = %invoke.cont.i63.i
  %call48.i = invoke noundef ptr @_ZN8facebook5velox4exec18LocalDecodedVector3getEv(ptr noundef nonnull align 8 dereferenceable(16) %indexHolder.i)
          to label %invoke.cont47.i unwind label %lpad46.loopexit.split-lp.loopexit.split-lp.loopexit.split-lp.loopexit.split-lp.loopexit.split-lp.loopexit.split-lp.loopexit.split-lp.loopexit.split-lp.loopexit.split-lp.loopexit.split-lp.loopexit.split-lp.loopexit.split-lp.i

invoke.cont47.i:                                  ; preds = %invoke.cont45.i
  %rawSizes_.i.i = getelementptr inbounds %"struct.facebook::velox::ArrayVectorBase", ptr %53, i64 0, i32 4
  %81 = load ptr, ptr %rawSizes_.i.i, align 8
  store ptr %81, ptr %rawSizes.i, align 8, !noalias !37
  %rawOffsets_.i.i = getelementptr inbounds %"struct.facebook::velox::ArrayVectorBase", ptr %53, i64 0, i32 2
  %82 = load ptr, ptr %rawOffsets_.i.i, align 8
  store ptr %82, ptr %rawOffsets.i, align 8, !noalias !37
  store ptr %mapIndices.i, ptr %processRow.i, align 8, !noalias !37
  %83 = getelementptr inbounds %class.anon.72, ptr %processRow.i, i64 0, i32 1
  store ptr %rawSizes.i, ptr %83, align 8, !noalias !37
  %84 = getelementptr inbounds %class.anon.72, ptr %processRow.i, i64 0, i32 2
  store ptr %rawOffsets.i, ptr %84, align 8, !noalias !37
  %85 = getelementptr inbounds %class.anon.72, ptr %processRow.i, i64 0, i32 3
  store ptr %triggeCaching.addr.i, ptr %85, align 8, !noalias !37
  %86 = getelementptr inbounds %class.anon.72, ptr %processRow.i, i64 0, i32 4
  store ptr %31, ptr %86, align 8, !noalias !37
  %87 = getelementptr inbounds %class.anon.72, ptr %processRow.i, i64 0, i32 5
  store ptr %decodedMapKeys.i, ptr %87, align 8, !noalias !37
  %88 = getelementptr inbounds %class.anon.72, ptr %processRow.i, i64 0, i32 6
  store ptr %rawIndices.i, ptr %88, align 8, !noalias !37
  %89 = getelementptr inbounds %class.anon.72, ptr %processRow.i, i64 0, i32 7
  store ptr %nullsBuilder.i, ptr %89, align 8, !noalias !37
  %isConstantMapping_.i.i = getelementptr inbounds %"class.facebook::velox::DecodedVector", ptr %call48.i, i64 0, i32 9
  %90 = load i8, ptr %isConstantMapping_.i.i, align 1
  %91 = and i8 %90, 1
  %tobool.i.not.i = icmp eq i8 %91, 0
  br i1 %tobool.i.not.i, label %if.else.i, label %if.then55.i

if.then55.i:                                      ; preds = %invoke.cont47.i
  %data_.i66.i = getelementptr inbounds %"class.facebook::velox::DecodedVector", ptr %call48.i, i64 0, i32 2
  %92 = load ptr, ptr %data_.i66.i, align 8
  %isIdentityMapping_.i.i.i = getelementptr inbounds %"class.facebook::velox::DecodedVector", ptr %call48.i, i64 0, i32 8
  %93 = load i8, ptr %isIdentityMapping_.i.i.i, align 2
  %94 = and i8 %93, 1
  %tobool.not.i.i.i = icmp eq i8 %94, 0
  br i1 %tobool.not.i.i.i, label %if.then3.i.i.i, label %invoke.cont56.i

if.then3.i.i.i:                                   ; preds = %if.then55.i
  %constantIndex_.i.i.i = getelementptr inbounds %"class.facebook::velox::DecodedVector", ptr %call48.i, i64 0, i32 11
  %95 = load i32, ptr %constantIndex_.i.i.i, align 8
  br label %invoke.cont56.i

invoke.cont56.i:                                  ; preds = %if.then3.i.i.i, %if.then55.i
  %retval.0.i.i.i = phi i32 [ %95, %if.then3.i.i.i ], [ 0, %if.then55.i ]
  %conv.i.i.i = sext i32 %retval.0.i.i.i to i64
  %div2.i.i.i = lshr i64 %conv.i.i.i, 6
  %arrayidx.i1.i.i = getelementptr inbounds i64, ptr %92, i64 %div2.i.i.i
  %96 = load i64, ptr %arrayidx.i1.i.i, align 8
  %and.i.i.i = and i64 %conv.i.i.i, 63
  %shl.i.i.i = shl nuw i64 1, %and.i.i.i
  %and2.i.i.i = and i64 %shl.i.i.i, %96
  %tobool.i.i.i = icmp ne i64 %and2.i.i.i, 0
  %allSelected_.i.i.i = getelementptr inbounds %"class.facebook::velox::SelectivityVector", ptr %10, i64 0, i32 4
  %_M_engaged.i.i.i.i.i = getelementptr inbounds %"class.facebook::velox::SelectivityVector", ptr %10, i64 0, i32 4, i32 0, i32 0, i32 0, i32 1
  %97 = load i8, ptr %_M_engaged.i.i.i.i.i, align 1, !noalias !37
  %98 = and i8 %97, 1
  %tobool.i.i.not.i.i.i = icmp eq i8 %98, 0
  br i1 %tobool.i.i.not.i.i.i, label %if.end.i.i77.i, label %entry.return_crit_edge.i.i.i

entry.return_crit_edge.i.i.i:                     ; preds = %invoke.cont56.i
  %retval.0.in.in.pre.i.i.i = load i8, ptr %allSelected_.i.i.i, align 1, !noalias !37
  br label %_ZNK8facebook5velox17SelectivityVector13isAllSelectedEv.exit.i.i

if.end.i.i77.i:                                   ; preds = %invoke.cont56.i
  %begin_.i.i.i = getelementptr inbounds %"class.facebook::velox::SelectivityVector", ptr %10, i64 0, i32 2
  %99 = load i32, ptr %begin_.i.i.i, align 4, !noalias !37
  %cmp.i.i.i = icmp eq i32 %99, 0
  br i1 %cmp.i.i.i, label %land.lhs.true.i.i.i, label %land.end.i.i.i

land.lhs.true.i.i.i:                              ; preds = %if.end.i.i77.i
  %100 = load i32, ptr %end_.i.i, align 8, !noalias !37
  %size_.i.i.i = getelementptr inbounds %"class.facebook::velox::SelectivityVector", ptr %10, i64 0, i32 1
  %101 = load i32, ptr %size_.i.i.i, align 8, !noalias !37
  %cmp5.i.i.i = icmp eq i32 %100, %101
  br i1 %cmp5.i.i.i, label %land.rhs.i.i.i, label %land.end.i.i.i

land.rhs.i.i.i:                                   ; preds = %land.lhs.true.i.i.i
  %102 = load ptr, ptr %10, align 8, !noalias !37
  %cmp.not.i.i.i78.i = icmp sgt i32 %100, 0
  br i1 %cmp.not.i.i.i78.i, label %if.end.i.i.i.i79.i, label %land.end.i.i.i

if.end.i.i.i.i79.i:                               ; preds = %land.rhs.i.i.i
  %103 = and i32 %100, 2147483584
  %104 = zext nneg i32 %103 to i64
  br label %for.cond.i.i.i.i.i

for.cond.i.i.i.i.i:                               ; preds = %for.body.i.i.i.i.i, %if.end.i.i.i.i79.i
  %indvars.iv.i.i.i = phi i64 [ %indvars.iv.next.i.i.i, %for.body.i.i.i.i.i ], [ 0, %if.end.i.i.i.i79.i ]
  %indvars.iv.next.i.i.i = add nuw nsw i64 %indvars.iv.i.i.i, 64
  %cmp19.not.i.i.i.i.i = icmp ugt i64 %indvars.iv.next.i.i.i, %104
  br i1 %cmp19.not.i.i.i.i.i, label %for.end.i.i.i.i.i, label %for.body.i.i.i.i.i

for.body.i.i.i.i.i:                               ; preds = %for.cond.i.i.i.i.i
  %105 = lshr exact i64 %indvars.iv.i.i.i, 6
  %arrayidx.i35.i.i.i.i.i = getelementptr inbounds i64, ptr %102, i64 %105
  %106 = load i64, ptr %arrayidx.i35.i.i.i.i.i, align 8
  %cmp.i36.i.i.i.i.i = icmp eq i64 %106, -1
  br i1 %cmp.i36.i.i.i.i.i, label %for.cond.i.i.i.i.i, label %land.end.i.i.i, !llvm.loop !14

for.end.i.i.i.i.i:                                ; preds = %for.cond.i.i.i.i.i
  %cmp25.not.i.i.i.i.i = icmp eq i32 %103, %100
  br i1 %cmp25.not.i.i.i.i.i, label %land.end.i.i.i, label %if.then26.i.i.i.i.i

if.then26.i.i.i.i.i:                              ; preds = %for.end.i.i.i.i.i
  %div27.i.i.i.i.i = lshr i32 %100, 6
  %sub28.i.i.i.i.i = and i32 %100, 63
  %sh_prom.i37.i.i.i.i.i = zext nneg i32 %sub28.i.i.i.i.i to i64
  %notmask.i38.i.i.i.i.i = shl nsw i64 -1, %sh_prom.i37.i.i.i.i.i
  %idxprom.i40.i.i.i.i.i = zext nneg i32 %div27.i.i.i.i.i to i64
  %arrayidx.i41.i.i.i.i.i = getelementptr inbounds i64, ptr %102, i64 %idxprom.i40.i.i.i.i.i
  %107 = load i64, ptr %arrayidx.i41.i.i.i.i.i, align 8
  %.demorgan.i.i.i = or i64 %107, %notmask.i38.i.i.i.i.i
  %cmp.i42.i.i.i.i.i = icmp eq i64 %.demorgan.i.i.i, -1
  %108 = zext i1 %cmp.i42.i.i.i.i.i to i16
  %109 = or disjoint i16 %108, 256
  br label %land.end.i.i.i

land.end.i.i.i:                                   ; preds = %for.body.i.i.i.i.i, %if.then26.i.i.i.i.i, %for.end.i.i.i.i.i, %land.rhs.i.i.i, %land.lhs.true.i.i.i, %if.end.i.i77.i
  %frombool.i.i.i = phi i16 [ 256, %land.lhs.true.i.i.i ], [ 256, %if.end.i.i77.i ], [ 257, %land.rhs.i.i.i ], [ 257, %for.end.i.i.i.i.i ], [ %109, %if.then26.i.i.i.i.i ], [ 256, %for.body.i.i.i.i.i ]
  store i16 %frombool.i.i.i, ptr %allSelected_.i.i.i, align 4, !noalias !37
  %110 = trunc i16 %frombool.i.i.i to i8
  br label %_ZNK8facebook5velox17SelectivityVector13isAllSelectedEv.exit.i.i

_ZNK8facebook5velox17SelectivityVector13isAllSelectedEv.exit.i.i: ; preds = %land.end.i.i.i, %entry.return_crit_edge.i.i.i
  %retval.0.in.in.i.i.i = phi i8 [ %retval.0.in.in.pre.i.i.i, %entry.return_crit_edge.i.i.i ], [ %110, %land.end.i.i.i ]
  %retval.0.in.i.i.i = and i8 %retval.0.in.in.i.i.i, 1
  %retval.0.i.not.i.i = icmp eq i8 %retval.0.in.i.i.i, 0
  br i1 %retval.0.i.not.i.i, label %if.else.i.i, label %if.then.i68.i

if.then.i68.i:                                    ; preds = %_ZNK8facebook5velox17SelectivityVector13isAllSelectedEv.exit.i.i
  %begin_.i69.i = getelementptr inbounds %"class.facebook::velox::SelectivityVector", ptr %10, i64 0, i32 2
  %111 = load i32, ptr %begin_.i69.i, align 4, !noalias !37
  %112 = load i32, ptr %end_.i.i, align 8, !noalias !37
  %cmp10.i.i = icmp slt i32 %111, %112
  br i1 %cmp10.i.i, label %for.body.i.i, label %if.end62.i

for.body.i.i:                                     ; preds = %if.then.i68.i, %.noexc80.i
  %row.011.i.i = phi i32 [ %inc.i.i, %.noexc80.i ], [ %111, %if.then.i68.i ]
  invoke fastcc void @_ZZN8facebook5velox9functions12_GLOBAL__N_113applyMapTypedILNS0_8TypeKindE0EEESt10shared_ptrINS0_10BaseVectorEEbRS5_INS1_15LookupTableBaseEERKNS0_17SelectivityVectorERKS7_SF_RNS0_4exec7EvalCtxEENKUlibE_clEib(ptr noundef nonnull align 8 dereferenceable(64) %processRow.i, i32 noundef %row.011.i.i, i1 noundef zeroext %tobool.i.i.i)
          to label %.noexc80.i unwind label %lpad46.loopexit.split-lp.loopexit.split-lp.loopexit.split-lp.loopexit.split-lp.loopexit.split-lp.loopexit.split-lp.loopexit.split-lp.loopexit.split-lp.loopexit.split-lp.loopexit.split-lp.loopexit.split-lp.loopexit.i

.noexc80.i:                                       ; preds = %for.body.i.i
  %inc.i.i = add nsw i32 %row.011.i.i, 1
  %113 = load i32, ptr %end_.i.i, align 8, !noalias !37
  %cmp.i72.i = icmp slt i32 %inc.i.i, %113
  br i1 %cmp.i72.i, label %for.body.i.i, label %if.end62.i, !llvm.loop !54

if.else.i.i:                                      ; preds = %_ZNK8facebook5velox17SelectivityVector13isAllSelectedEv.exit.i.i
  %114 = load ptr, ptr %10, align 8, !noalias !37
  %begin_3.i.i = getelementptr inbounds %"class.facebook::velox::SelectivityVector", ptr %10, i64 0, i32 2
  %115 = load i32, ptr %begin_3.i.i, align 4, !noalias !37
  %116 = load i32, ptr %end_.i.i, align 8, !noalias !37
  %cmp.not.i.i.i.i73.i = icmp slt i32 %115, %116
  br i1 %cmp.not.i.i.i.i73.i, label %if.end.i.i.i4.i.i, label %if.end62.i

if.end.i.i.i4.i.i:                                ; preds = %if.else.i.i
  %add.i.i.i.i.i74.i = add i32 %115, 63
  %117 = srem i32 %add.i.i.i.i.i74.i, 64
  %mul.i.i.i.i.i.i = sub nsw i32 %add.i.i.i.i.i74.i, %117
  %118 = and i32 %116, -64
  %cmp2.i.i.i.i.i = icmp slt i32 %118, %mul.i.i.i.i.i.i
  br i1 %cmp2.i.i.i.i.i, label %if.then3.i.i.i.i.i, label %if.end8.i.i.i.i.i

if.then3.i.i.i.i.i:                               ; preds = %if.end.i.i.i4.i.i
  %div.i.i.i.i.i = ashr i32 %116, 6
  %sub.i.i.i.i.i = and i32 %116, 63
  %sh_prom.i.i.i.i.i.i = zext nneg i32 %sub.i.i.i.i.i to i64
  %notmask.i.i.i.i.i.i = shl nsw i64 -1, %sh_prom.i.i.i.i.i.i
  %sub.i22.i.i.i.i.i = xor i64 %notmask.i.i.i.i.i.i, -1
  %sub5.i.i.i.i.i = sub nsw i32 %mul.i.i.i.i.i.i, %115
  %sh_prom.i.i.i.i.i.i.i = zext nneg i32 %sub5.i.i.i.i.i to i64
  %notmask.i.i.i.i.i.i.i = shl nsw i64 -1, %sh_prom.i.i.i.i.i.i.i
  %sub.i.i.i.i.i.i.i = xor i64 %notmask.i.i.i.i.i.i.i, -1
  %sub.i23.i.i.i.i.i = sub nsw i32 64, %sub5.i.i.i.i.i
  %sh_prom.i24.i.i.i.i.i = zext nneg i32 %sub.i23.i.i.i.i.i to i64
  %shl.i.i.i.i.i.i = shl i64 %sub.i.i.i.i.i.i.i, %sh_prom.i24.i.i.i.i.i
  %and7.i.i.i.i.i = and i64 %shl.i.i.i.i.i.i, %sub.i22.i.i.i.i.i
  %idxprom2.i.i.i.i.i.i = sext i32 %div.i.i.i.i.i to i64
  %arrayidx3.i.i.i.i.i.i = getelementptr inbounds i64, ptr %114, i64 %idxprom2.i.i.i.i.i.i
  %119 = load i64, ptr %arrayidx3.i.i.i.i.i.i, align 8
  %and.i.i.i.i.i.i = and i64 %and7.i.i.i.i.i, %119
  %tobool4.not.i.i.i.i.i.i = icmp eq i64 %and.i.i.i.i.i.i, 0
  br i1 %tobool4.not.i.i.i.i.i.i, label %if.end62.i, label %while.body.i.i.i.i.i.i

while.body.i.i.i.i.i.i:                           ; preds = %if.then3.i.i.i.i.i, %.noexc81.i
  %word.0.i.i.i.i.i.i = phi i64 [ %and6.i.i.i.i.i.i, %.noexc81.i ], [ %and.i.i.i.i.i.i, %if.then3.i.i.i.i.i ]
  %120 = call i64 @llvm.cttz.i64(i64 %word.0.i.i.i.i.i.i, i1 true), !range !17
  %cast.i.i.i.i.i.i = trunc i64 %120 to i32
  %add.i26.i.i.i.i.i = or disjoint i32 %118, %cast.i.i.i.i.i.i
  invoke fastcc void @_ZZN8facebook5velox9functions12_GLOBAL__N_113applyMapTypedILNS0_8TypeKindE0EEESt10shared_ptrINS0_10BaseVectorEEbRS5_INS1_15LookupTableBaseEERKNS0_17SelectivityVectorERKS7_SF_RNS0_4exec7EvalCtxEENKUlibE_clEib(ptr noundef nonnull align 8 dereferenceable(64) %processRow.i, i32 noundef %add.i26.i.i.i.i.i, i1 noundef zeroext %tobool.i.i.i)
          to label %.noexc81.i unwind label %lpad46.loopexit.split-lp.loopexit.split-lp.loopexit.split-lp.loopexit.split-lp.loopexit.split-lp.loopexit.split-lp.loopexit.i

.noexc81.i:                                       ; preds = %while.body.i.i.i.i.i.i
  %sub.i27.i.i.i.i.i = add nsw i64 %word.0.i.i.i.i.i.i, -1
  %and6.i.i.i.i.i.i = and i64 %sub.i27.i.i.i.i.i, %word.0.i.i.i.i.i.i
  %tobool5.old.not.i.i.i.i.i.i = icmp eq i64 %and6.i.i.i.i.i.i, 0
  br i1 %tobool5.old.not.i.i.i.i.i.i, label %if.end62.i, label %while.body.i.i.i.i.i.i

if.end8.i.i.i.i.i:                                ; preds = %if.end.i.i.i4.i.i
  %cmp9.not.i.i.i.i.i = icmp eq i32 %mul.i.i.i.i.i.i, %115
  br i1 %cmp9.not.i.i.i.i.i, label %if.end14.i.i.i.i.i, label %if.then10.i.i.i.i.i

if.then10.i.i.i.i.i:                              ; preds = %if.end8.i.i.i.i.i
  %div11.i.i.i.i.i = sdiv i32 %115, 64
  %sub12.i.i.i.i.i = sub nsw i32 %mul.i.i.i.i.i.i, %115
  %sh_prom.i.i28.i.i.i.i.i = zext nneg i32 %sub12.i.i.i.i.i to i64
  %notmask.i.i29.i.i.i.i.i = shl nsw i64 -1, %sh_prom.i.i28.i.i.i.i.i
  %sub.i.i30.i.i.i.i.i = xor i64 %notmask.i.i29.i.i.i.i.i, -1
  %sub.i31.i.i.i.i.i = sub nsw i32 64, %sub12.i.i.i.i.i
  %sh_prom.i32.i.i.i.i.i = zext nneg i32 %sub.i31.i.i.i.i.i to i64
  %shl.i33.i.i.i.i.i = shl i64 %sub.i.i30.i.i.i.i.i, %sh_prom.i32.i.i.i.i.i
  %idxprom2.i34.i.i.i.i.i = sext i32 %div11.i.i.i.i.i to i64
  %arrayidx3.i35.i.i.i.i.i = getelementptr inbounds i64, ptr %114, i64 %idxprom2.i34.i.i.i.i.i
  %121 = load i64, ptr %arrayidx3.i35.i.i.i.i.i, align 8
  %and.i39.i.i.i.i.i = and i64 %121, %shl.i33.i.i.i.i.i
  %tobool4.not.i40.i.i.i.i.i = icmp eq i64 %and.i39.i.i.i.i.i, 0
  br i1 %tobool4.not.i40.i.i.i.i.i, label %if.end14.i.i.i.i.i, label %while.body.preheader.i41.i.i.i.i.i

while.body.preheader.i41.i.i.i.i.i:               ; preds = %if.then10.i.i.i.i.i
  %mul.i42.i.i.i.i.i = shl nsw i32 %div11.i.i.i.i.i, 6
  br label %while.body.i43.i.i.i.i.i

while.body.i43.i.i.i.i.i:                         ; preds = %.noexc82.i, %while.body.preheader.i41.i.i.i.i.i
  %word.0.i44.i.i.i.i.i = phi i64 [ %and6.i52.i.i.i.i.i, %.noexc82.i ], [ %and.i39.i.i.i.i.i, %while.body.preheader.i41.i.i.i.i.i ]
  %122 = call i64 @llvm.cttz.i64(i64 %word.0.i44.i.i.i.i.i, i1 true), !range !17
  %cast.i45.i.i.i.i.i = trunc i64 %122 to i32
  %add.i46.i.i.i.i.i = or disjoint i32 %mul.i42.i.i.i.i.i, %cast.i45.i.i.i.i.i
  invoke fastcc void @_ZZN8facebook5velox9functions12_GLOBAL__N_113applyMapTypedILNS0_8TypeKindE0EEESt10shared_ptrINS0_10BaseVectorEEbRS5_INS1_15LookupTableBaseEERKNS0_17SelectivityVectorERKS7_SF_RNS0_4exec7EvalCtxEENKUlibE_clEib(ptr noundef nonnull align 8 dereferenceable(64) %processRow.i, i32 noundef %add.i46.i.i.i.i.i, i1 noundef zeroext %tobool.i.i.i)
          to label %.noexc82.i unwind label %lpad46.loopexit.split-lp.loopexit.split-lp.loopexit.split-lp.loopexit.split-lp.loopexit.split-lp.loopexit.split-lp.loopexit.split-lp.loopexit.split-lp.loopexit.split-lp.loopexit.split-lp.loopexit.i

.noexc82.i:                                       ; preds = %while.body.i43.i.i.i.i.i
  %sub.i51.i.i.i.i.i = add i64 %word.0.i44.i.i.i.i.i, -1
  %and6.i52.i.i.i.i.i = and i64 %sub.i51.i.i.i.i.i, %word.0.i44.i.i.i.i.i
  %tobool5.old.not.i53.i.i.i.i.i = icmp eq i64 %and6.i52.i.i.i.i.i, 0
  br i1 %tobool5.old.not.i53.i.i.i.i.i, label %if.end14.i.i.i.i.i, label %while.body.i43.i.i.i.i.i

if.end14.i.i.i.i.i:                               ; preds = %.noexc82.i, %if.then10.i.i.i.i.i, %if.end8.i.i.i.i.i
  %add93.i.i.i.i.i = add nsw i32 %mul.i.i.i.i.i.i, 64
  %cmp15.not94.i.i.i.i.i = icmp sgt i32 %add93.i.i.i.i.i, %118
  br i1 %cmp15.not94.i.i.i.i.i, label %for.end.i.i.i6.i.i, label %for.body.i.i.i5.i.i

for.body.i.i.i5.i.i:                              ; preds = %if.end14.i.i.i.i.i, %_ZZN8facebook5velox4bits10forEachBitIZNS0_9functions12_GLOBAL__N_113applyMapTypedILNS0_8TypeKindE0EEESt10shared_ptrINS0_10BaseVectorEEbRS7_INS3_15LookupTableBaseEERKNS0_17SelectivityVectorERKS9_SH_RNS0_4exec7EvalCtxEEUliE_EEvPKmiibT_ENKUliE_clEi.exit.i.i.i.i.i
  %add96.i.i.i.i.i = phi i32 [ %add.i.i.i.i.i, %_ZZN8facebook5velox4bits10forEachBitIZNS0_9functions12_GLOBAL__N_113applyMapTypedILNS0_8TypeKindE0EEESt10shared_ptrINS0_10BaseVectorEEbRS7_INS3_15LookupTableBaseEERKNS0_17SelectivityVectorERKS9_SH_RNS0_4exec7EvalCtxEEUliE_EEvPKmiibT_ENKUliE_clEi.exit.i.i.i.i.i ], [ %add93.i.i.i.i.i, %if.end14.i.i.i.i.i ]
  %i.095.i.i.i.i.i = phi i32 [ %add96.i.i.i.i.i, %_ZZN8facebook5velox4bits10forEachBitIZNS0_9functions12_GLOBAL__N_113applyMapTypedILNS0_8TypeKindE0EEESt10shared_ptrINS0_10BaseVectorEEbRS7_INS3_15LookupTableBaseEERKNS0_17SelectivityVectorERKS9_SH_RNS0_4exec7EvalCtxEEUliE_EEvPKmiibT_ENKUliE_clEi.exit.i.i.i.i.i ], [ %mul.i.i.i.i.i.i, %if.end14.i.i.i.i.i ]
  %div16.i.i.i.i.i = sdiv i32 %i.095.i.i.i.i.i, 64
  %idxprom2.i55.i.i.i.i.i = sext i32 %div16.i.i.i.i.i to i64
  %arrayidx3.i56.i.i.i.i.i = getelementptr inbounds i64, ptr %114, i64 %idxprom2.i55.i.i.i.i.i
  %123 = load i64, ptr %arrayidx3.i56.i.i.i.i.i, align 8
  switch i64 %123, label %while.body.lr.ph.i.i.i.i.i.i [
    i64 -1, label %if.then.i.i.i.i.i75.i
    i64 0, label %_ZZN8facebook5velox4bits10forEachBitIZNS0_9functions12_GLOBAL__N_113applyMapTypedILNS0_8TypeKindE0EEESt10shared_ptrINS0_10BaseVectorEEbRS7_INS3_15LookupTableBaseEERKNS0_17SelectivityVectorERKS9_SH_RNS0_4exec7EvalCtxEEUliE_EEvPKmiibT_ENKUliE_clEi.exit.i.i.i.i.i
  ]

while.body.lr.ph.i.i.i.i.i.i:                     ; preds = %for.body.i.i.i5.i.i
  %mul9.i.i.i.i.i.i = shl nsw i32 %div16.i.i.i.i.i, 6
  br label %while.body.i62.i.i.i.i.i

if.then.i.i.i.i.i75.i:                            ; preds = %for.body.i.i.i5.i.i
  %mul.i60.i.i.i.i.i = shl nsw i32 %div16.i.i.i.i.i, 6
  %mul4.i.i.i.i.i.i = add i32 %mul.i60.i.i.i.i.i, 64
  %conv5.i.i.i.i.i.i = sext i32 %mul4.i.i.i.i.i.i to i64
  %i.0.off.i.i.i.i.i = add i32 %i.095.i.i.i.i.i, 127
  %cmp618.not.i.i.i.i.i.i = icmp ult i32 %i.0.off.i.i.i.i.i, 64
  br i1 %cmp618.not.i.i.i.i.i.i, label %_ZZN8facebook5velox4bits10forEachBitIZNS0_9functions12_GLOBAL__N_113applyMapTypedILNS0_8TypeKindE0EEESt10shared_ptrINS0_10BaseVectorEEbRS7_INS3_15LookupTableBaseEERKNS0_17SelectivityVectorERKS9_SH_RNS0_4exec7EvalCtxEEUliE_EEvPKmiibT_ENKUliE_clEi.exit.i.i.i.i.i, label %for.body.lr.ph.i.i.i.i.i.i

for.body.lr.ph.i.i.i.i.i.i:                       ; preds = %if.then.i.i.i.i.i75.i
  %conv.i.i.i.i.i.i = sext i32 %mul.i60.i.i.i.i.i to i64
  br label %for.body.i.i.i.i.i.i

for.body.i.i.i.i.i.i:                             ; preds = %.noexc83.i, %for.body.lr.ph.i.i.i.i.i.i
  %row.019.i.i.i.i.i.i = phi i64 [ %conv.i.i.i.i.i.i, %for.body.lr.ph.i.i.i.i.i.i ], [ %inc.i.i.i.i.i.i, %.noexc83.i ]
  %conv7.i.i.i.i.i.i = trunc i64 %row.019.i.i.i.i.i.i to i32
  invoke fastcc void @_ZZN8facebook5velox9functions12_GLOBAL__N_113applyMapTypedILNS0_8TypeKindE0EEESt10shared_ptrINS0_10BaseVectorEEbRS5_INS1_15LookupTableBaseEERKNS0_17SelectivityVectorERKS7_SF_RNS0_4exec7EvalCtxEENKUlibE_clEib(ptr noundef nonnull align 8 dereferenceable(64) %processRow.i, i32 noundef %conv7.i.i.i.i.i.i, i1 noundef zeroext %tobool.i.i.i)
          to label %.noexc83.i unwind label %lpad46.loopexit.split-lp.loopexit.split-lp.loopexit.split-lp.loopexit.split-lp.loopexit.split-lp.loopexit.split-lp.loopexit.split-lp.loopexit.split-lp.loopexit.split-lp.loopexit.i

.noexc83.i:                                       ; preds = %for.body.i.i.i.i.i.i
  %inc.i.i.i.i.i.i = add nuw i64 %row.019.i.i.i.i.i.i, 1
  %cmp6.i.i.i.i.i76.i = icmp ult i64 %inc.i.i.i.i.i.i, %conv5.i.i.i.i.i.i
  br i1 %cmp6.i.i.i.i.i76.i, label %for.body.i.i.i.i.i.i, label %_ZZN8facebook5velox4bits10forEachBitIZNS0_9functions12_GLOBAL__N_113applyMapTypedILNS0_8TypeKindE0EEESt10shared_ptrINS0_10BaseVectorEEbRS7_INS3_15LookupTableBaseEERKNS0_17SelectivityVectorERKS9_SH_RNS0_4exec7EvalCtxEEUliE_EEvPKmiibT_ENKUliE_clEi.exit.i.i.i.i.i, !llvm.loop !55

while.body.i62.i.i.i.i.i:                         ; preds = %.noexc84.i, %while.body.lr.ph.i.i.i.i.i.i
  %word.017.i.i.i.i.i.i = phi i64 [ %123, %while.body.lr.ph.i.i.i.i.i.i ], [ %and.i66.i.i.i.i.i, %.noexc84.i ]
  %124 = call i64 @llvm.cttz.i64(i64 %word.017.i.i.i.i.i.i, i1 true), !range !17
  %cast.i63.i.i.i.i.i = trunc i64 %124 to i32
  %add10.i.i.i.i.i.i = or disjoint i32 %mul9.i.i.i.i.i.i, %cast.i63.i.i.i.i.i
  invoke fastcc void @_ZZN8facebook5velox9functions12_GLOBAL__N_113applyMapTypedILNS0_8TypeKindE0EEESt10shared_ptrINS0_10BaseVectorEEbRS5_INS1_15LookupTableBaseEERKNS0_17SelectivityVectorERKS7_SF_RNS0_4exec7EvalCtxEENKUlibE_clEib(ptr noundef nonnull align 8 dereferenceable(64) %processRow.i, i32 noundef %add10.i.i.i.i.i.i, i1 noundef zeroext %tobool.i.i.i)
          to label %.noexc84.i unwind label %lpad46.loopexit.split-lp.loopexit.split-lp.loopexit.split-lp.loopexit.split-lp.loopexit.split-lp.loopexit.split-lp.loopexit.split-lp.loopexit.split-lp.loopexit.i

.noexc84.i:                                       ; preds = %while.body.i62.i.i.i.i.i
  %sub.i65.i.i.i.i.i = add i64 %word.017.i.i.i.i.i.i, -1
  %and.i66.i.i.i.i.i = and i64 %sub.i65.i.i.i.i.i, %word.017.i.i.i.i.i.i
  %tobool8.not.i.i.i.i.i.i = icmp eq i64 %and.i66.i.i.i.i.i, 0
  br i1 %tobool8.not.i.i.i.i.i.i, label %_ZZN8facebook5velox4bits10forEachBitIZNS0_9functions12_GLOBAL__N_113applyMapTypedILNS0_8TypeKindE0EEESt10shared_ptrINS0_10BaseVectorEEbRS7_INS3_15LookupTableBaseEERKNS0_17SelectivityVectorERKS9_SH_RNS0_4exec7EvalCtxEEUliE_EEvPKmiibT_ENKUliE_clEi.exit.i.i.i.i.i, label %while.body.i62.i.i.i.i.i, !llvm.loop !56

_ZZN8facebook5velox4bits10forEachBitIZNS0_9functions12_GLOBAL__N_113applyMapTypedILNS0_8TypeKindE0EEESt10shared_ptrINS0_10BaseVectorEEbRS7_INS3_15LookupTableBaseEERKNS0_17SelectivityVectorERKS9_SH_RNS0_4exec7EvalCtxEEUliE_EEvPKmiibT_ENKUliE_clEi.exit.i.i.i.i.i: ; preds = %.noexc83.i, %.noexc84.i, %if.then.i.i.i.i.i75.i, %for.body.i.i.i5.i.i
  %add.i.i.i.i.i = add nsw i32 %add96.i.i.i.i.i, 64
  %cmp15.not.i.i.i.i.i = icmp sgt i32 %add.i.i.i.i.i, %118
  br i1 %cmp15.not.i.i.i.i.i, label %for.end.i.i.i6.i.i, label %for.body.i.i.i5.i.i, !llvm.loop !57

for.end.i.i.i6.i.i:                               ; preds = %_ZZN8facebook5velox4bits10forEachBitIZNS0_9functions12_GLOBAL__N_113applyMapTypedILNS0_8TypeKindE0EEESt10shared_ptrINS0_10BaseVectorEEbRS7_INS3_15LookupTableBaseEERKNS0_17SelectivityVectorERKS9_SH_RNS0_4exec7EvalCtxEEUliE_EEvPKmiibT_ENKUliE_clEi.exit.i.i.i.i.i, %if.end14.i.i.i.i.i
  %cmp18.not.i.i.i.i.i = icmp eq i32 %118, %116
  br i1 %cmp18.not.i.i.i.i.i, label %if.end62.i, label %if.then19.i.i.i.i.i

if.then19.i.i.i.i.i:                              ; preds = %for.end.i.i.i6.i.i
  %div20.i.i.i.i.i = ashr i32 %116, 6
  %sub21.i.i.i.i.i = and i32 %116, 63
  %sh_prom.i67.i.i.i.i.i = zext nneg i32 %sub21.i.i.i.i.i to i64
  %notmask.i68.i.i.i.i.i = shl nsw i64 -1, %sh_prom.i67.i.i.i.i.i
  %sub.i69.i.i.i.i.i = xor i64 %notmask.i68.i.i.i.i.i, -1
  %idxprom2.i70.i.i.i.i.i = sext i32 %div20.i.i.i.i.i to i64
  %arrayidx3.i71.i.i.i.i.i = getelementptr inbounds i64, ptr %114, i64 %idxprom2.i70.i.i.i.i.i
  %125 = load i64, ptr %arrayidx3.i71.i.i.i.i.i, align 8
  %and.i75.i.i.i.i.i = and i64 %125, %sub.i69.i.i.i.i.i
  %tobool4.not.i76.i.i.i.i.i = icmp eq i64 %and.i75.i.i.i.i.i, 0
  br i1 %tobool4.not.i76.i.i.i.i.i, label %if.end62.i, label %while.body.i79.i.i.i.i.i

while.body.i79.i.i.i.i.i:                         ; preds = %if.then19.i.i.i.i.i, %.noexc85.i
  %word.0.i80.i.i.i.i.i = phi i64 [ %and6.i88.i.i.i.i.i, %.noexc85.i ], [ %and.i75.i.i.i.i.i, %if.then19.i.i.i.i.i ]
  %126 = call i64 @llvm.cttz.i64(i64 %word.0.i80.i.i.i.i.i, i1 true), !range !17
  %cast.i81.i.i.i.i.i = trunc i64 %126 to i32
  %add.i82.i.i.i.i.i = or disjoint i32 %118, %cast.i81.i.i.i.i.i
  invoke fastcc void @_ZZN8facebook5velox9functions12_GLOBAL__N_113applyMapTypedILNS0_8TypeKindE0EEESt10shared_ptrINS0_10BaseVectorEEbRS5_INS1_15LookupTableBaseEERKNS0_17SelectivityVectorERKS7_SF_RNS0_4exec7EvalCtxEENKUlibE_clEib(ptr noundef nonnull align 8 dereferenceable(64) %processRow.i, i32 noundef %add.i82.i.i.i.i.i, i1 noundef zeroext %tobool.i.i.i)
          to label %.noexc85.i unwind label %lpad46.loopexit.split-lp.loopexit.split-lp.loopexit.split-lp.loopexit.split-lp.loopexit.split-lp.loopexit.split-lp.loopexit.split-lp.loopexit.i

.noexc85.i:                                       ; preds = %while.body.i79.i.i.i.i.i
  %sub.i87.i.i.i.i.i = add nsw i64 %word.0.i80.i.i.i.i.i, -1
  %and6.i88.i.i.i.i.i = and i64 %sub.i87.i.i.i.i.i, %word.0.i80.i.i.i.i.i
  %tobool5.old.not.i89.i.i.i.i.i = icmp eq i64 %and6.i88.i.i.i.i.i, 0
  br i1 %tobool5.old.not.i89.i.i.i.i.i, label %if.end62.i, label %while.body.i79.i.i.i.i.i

lpad.i:                                           ; preds = %_ZN8facebook5velox15allocateIndicesEiPNS0_6memory10MemoryPoolE.exit.i
  %127 = landingpad { ptr, i32 }
          cleanup
  br label %ehcleanup105.i

lpad17.i:                                         ; preds = %if.then.i41.i, %invoke.cont16.i
  %128 = landingpad { ptr, i32 }
          cleanup
  br label %ehcleanup101.i

lpad29.i:                                         ; preds = %_ZNSt10shared_ptrIN8facebook5velox10BaseVectorEEC2ERKS3_.exit.i
  %129 = landingpad { ptr, i32 }
          cleanup
  br label %ehcleanup99.i

lpad41.i:                                         ; preds = %invoke.cont40.i
  %130 = landingpad { ptr, i32 }
          cleanup
  br label %ehcleanup95.i

lpad46.loopexit.i:                                ; preds = %_ZZN8facebook5velox9functions12_GLOBAL__N_113applyMapTypedILNS0_8TypeKindE0EEESt10shared_ptrINS0_10BaseVectorEEbRS5_INS1_15LookupTableBaseEERKNS0_17SelectivityVectorERKS7_SF_RNS0_4exec7EvalCtxEENKUliE0_clEi.exit.i.i.i.i.i.i
  %lpad.loopexit.i = landingpad { ptr, i32 }
          cleanup
  br label %ehcleanup93.i

lpad46.loopexit.split-lp.loopexit.i:              ; preds = %_ZZN8facebook5velox9functions12_GLOBAL__N_113applyMapTypedILNS0_8TypeKindE0EEESt10shared_ptrINS0_10BaseVectorEEbRS5_INS1_15LookupTableBaseEERKNS0_17SelectivityVectorERKS7_SF_RNS0_4exec7EvalCtxEENKUliE0_clEi.exit.i130.i.i.i.i.i
  %lpad.loopexit370.i = landingpad { ptr, i32 }
          cleanup
  br label %ehcleanup93.i

lpad46.loopexit.split-lp.loopexit.split-lp.loopexit.i: ; preds = %_ZZN8facebook5velox9functions12_GLOBAL__N_113applyMapTypedILNS0_8TypeKindE0EEESt10shared_ptrINS0_10BaseVectorEEbRS5_INS1_15LookupTableBaseEERKNS0_17SelectivityVectorERKS7_SF_RNS0_4exec7EvalCtxEENKUliE0_clEi.exit34.i.i.i.i.i.i
  %lpad.loopexit374.i = landingpad { ptr, i32 }
          cleanup
  br label %ehcleanup93.i

lpad46.loopexit.split-lp.loopexit.split-lp.loopexit.split-lp.loopexit.i: ; preds = %_ZZN8facebook5velox9functions12_GLOBAL__N_113applyMapTypedILNS0_8TypeKindE0EEESt10shared_ptrINS0_10BaseVectorEEbRS5_INS1_15LookupTableBaseEERKNS0_17SelectivityVectorERKS7_SF_RNS0_4exec7EvalCtxEENKUliE0_clEi.exit.i83.i.i.i.i.i
  %lpad.loopexit376.i = landingpad { ptr, i32 }
          cleanup
  br label %ehcleanup93.i

lpad46.loopexit.split-lp.loopexit.split-lp.loopexit.split-lp.loopexit.split-lp.loopexit.i: ; preds = %_ZZN8facebook5velox9functions12_GLOBAL__N_113applyMapTypedILNS0_8TypeKindE0EEESt10shared_ptrINS0_10BaseVectorEEbRS5_INS1_15LookupTableBaseEERKNS0_17SelectivityVectorERKS7_SF_RNS0_4exec7EvalCtxEENKUliE0_clEi.exit.i53.i.i.i.i.i
  %lpad.loopexit380.i = landingpad { ptr, i32 }
          cleanup
  br label %ehcleanup93.i

lpad46.loopexit.split-lp.loopexit.split-lp.loopexit.split-lp.loopexit.split-lp.loopexit.split-lp.loopexit.i: ; preds = %_ZZN8facebook5velox9functions12_GLOBAL__N_113applyMapTypedILNS0_8TypeKindE0EEESt10shared_ptrINS0_10BaseVectorEEbRS5_INS1_15LookupTableBaseEERKNS0_17SelectivityVectorERKS7_SF_RNS0_4exec7EvalCtxEENKUliE0_clEi.exit.i.i
  %lpad.loopexit382.i = landingpad { ptr, i32 }
          cleanup
  br label %ehcleanup93.i

lpad46.loopexit.split-lp.loopexit.split-lp.loopexit.split-lp.loopexit.split-lp.loopexit.split-lp.loopexit.split-lp.loopexit.i: ; preds = %while.body.i.i.i.i.i.i
  %lpad.loopexit386.i = landingpad { ptr, i32 }
          cleanup
  br label %ehcleanup93.i

lpad46.loopexit.split-lp.loopexit.split-lp.loopexit.split-lp.loopexit.split-lp.loopexit.split-lp.loopexit.split-lp.loopexit.split-lp.loopexit.i: ; preds = %while.body.i79.i.i.i.i.i
  %lpad.loopexit389.i = landingpad { ptr, i32 }
          cleanup
  br label %ehcleanup93.i

lpad46.loopexit.split-lp.loopexit.split-lp.loopexit.split-lp.loopexit.split-lp.loopexit.split-lp.loopexit.split-lp.loopexit.split-lp.loopexit.split-lp.loopexit.i: ; preds = %while.body.i62.i.i.i.i.i
  %lpad.loopexit393.i = landingpad { ptr, i32 }
          cleanup
  br label %ehcleanup93.i

lpad46.loopexit.split-lp.loopexit.split-lp.loopexit.split-lp.loopexit.split-lp.loopexit.split-lp.loopexit.split-lp.loopexit.split-lp.loopexit.split-lp.loopexit.split-lp.loopexit.i: ; preds = %for.body.i.i.i.i.i.i
  %lpad.loopexit395.i = landingpad { ptr, i32 }
          cleanup
  br label %ehcleanup93.i

lpad46.loopexit.split-lp.loopexit.split-lp.loopexit.split-lp.loopexit.split-lp.loopexit.split-lp.loopexit.split-lp.loopexit.split-lp.loopexit.split-lp.loopexit.split-lp.loopexit.split-lp.loopexit.i: ; preds = %while.body.i43.i.i.i.i.i
  %lpad.loopexit399.i = landingpad { ptr, i32 }
          cleanup
  br label %ehcleanup93.i

lpad46.loopexit.split-lp.loopexit.split-lp.loopexit.split-lp.loopexit.split-lp.loopexit.split-lp.loopexit.split-lp.loopexit.split-lp.loopexit.split-lp.loopexit.split-lp.loopexit.split-lp.loopexit.split-lp.loopexit.i: ; preds = %for.body.i.i
  %lpad.loopexit401.i = landingpad { ptr, i32 }
          cleanup
  br label %ehcleanup93.i

lpad46.loopexit.split-lp.loopexit.split-lp.loopexit.split-lp.loopexit.split-lp.loopexit.split-lp.loopexit.split-lp.loopexit.split-lp.loopexit.split-lp.loopexit.split-lp.loopexit.split-lp.loopexit.split-lp.loopexit.split-lp.i: ; preds = %invoke.cont75.i, %invoke.cont45.i
  %lpad.loopexit.split-lp402.i = landingpad { ptr, i32 }
          cleanup
  br label %ehcleanup93.i

if.else.i:                                        ; preds = %invoke.cont47.i
  %allSelected_.i.i86.i = getelementptr inbounds %"class.facebook::velox::SelectivityVector", ptr %10, i64 0, i32 4
  %_M_engaged.i.i.i.i87.i = getelementptr inbounds %"class.facebook::velox::SelectivityVector", ptr %10, i64 0, i32 4, i32 0, i32 0, i32 0, i32 1
  %131 = load i8, ptr %_M_engaged.i.i.i.i87.i, align 1, !noalias !37
  %132 = and i8 %131, 1
  %tobool.i.i.not.i.i88.i = icmp eq i8 %132, 0
  br i1 %tobool.i.i.not.i.i88.i, label %if.end.i.i176.i, label %entry.return_crit_edge.i.i89.i

entry.return_crit_edge.i.i89.i:                   ; preds = %if.else.i
  %retval.0.in.in.pre.i.i90.i = load i8, ptr %allSelected_.i.i86.i, align 1, !noalias !37
  br label %_ZNK8facebook5velox17SelectivityVector13isAllSelectedEv.exit.i91.i

if.end.i.i176.i:                                  ; preds = %if.else.i
  %begin_.i.i177.i = getelementptr inbounds %"class.facebook::velox::SelectivityVector", ptr %10, i64 0, i32 2
  %133 = load i32, ptr %begin_.i.i177.i, align 4, !noalias !37
  %cmp.i.i178.i = icmp eq i32 %133, 0
  br i1 %cmp.i.i178.i, label %land.lhs.true.i.i181.i, label %land.end.i.i179.i

land.lhs.true.i.i181.i:                           ; preds = %if.end.i.i176.i
  %134 = load i32, ptr %end_.i.i, align 8, !noalias !37
  %size_.i.i183.i = getelementptr inbounds %"class.facebook::velox::SelectivityVector", ptr %10, i64 0, i32 1
  %135 = load i32, ptr %size_.i.i183.i, align 8, !noalias !37
  %cmp5.i.i184.i = icmp eq i32 %134, %135
  br i1 %cmp5.i.i184.i, label %land.rhs.i.i185.i, label %land.end.i.i179.i

land.rhs.i.i185.i:                                ; preds = %land.lhs.true.i.i181.i
  %136 = load ptr, ptr %10, align 8, !noalias !37
  %cmp.not.i.i.i186.i = icmp sgt i32 %134, 0
  br i1 %cmp.not.i.i.i186.i, label %if.end.i.i.i.i187.i, label %land.end.i.i179.i

if.end.i.i.i.i187.i:                              ; preds = %land.rhs.i.i185.i
  %137 = and i32 %134, 2147483584
  %138 = zext nneg i32 %137 to i64
  br label %for.cond.i.i.i.i188.i

for.cond.i.i.i.i188.i:                            ; preds = %for.body.i.i.i.i192.i, %if.end.i.i.i.i187.i
  %indvars.iv.i.i189.i = phi i64 [ %indvars.iv.next.i.i190.i, %for.body.i.i.i.i192.i ], [ 0, %if.end.i.i.i.i187.i ]
  %indvars.iv.next.i.i190.i = add nuw nsw i64 %indvars.iv.i.i189.i, 64
  %cmp19.not.i.i.i.i191.i = icmp ugt i64 %indvars.iv.next.i.i190.i, %138
  br i1 %cmp19.not.i.i.i.i191.i, label %for.end.i.i.i.i195.i, label %for.body.i.i.i.i192.i

for.body.i.i.i.i192.i:                            ; preds = %for.cond.i.i.i.i188.i
  %139 = lshr exact i64 %indvars.iv.i.i189.i, 6
  %arrayidx.i35.i.i.i.i193.i = getelementptr inbounds i64, ptr %136, i64 %139
  %140 = load i64, ptr %arrayidx.i35.i.i.i.i193.i, align 8
  %cmp.i36.i.i.i.i194.i = icmp eq i64 %140, -1
  br i1 %cmp.i36.i.i.i.i194.i, label %for.cond.i.i.i.i188.i, label %land.end.i.i179.i, !llvm.loop !14

for.end.i.i.i.i195.i:                             ; preds = %for.cond.i.i.i.i188.i
  %cmp25.not.i.i.i.i196.i = icmp eq i32 %137, %134
  br i1 %cmp25.not.i.i.i.i196.i, label %land.end.i.i179.i, label %if.then26.i.i.i.i197.i

if.then26.i.i.i.i197.i:                           ; preds = %for.end.i.i.i.i195.i
  %div27.i.i.i.i198.i = lshr i32 %134, 6
  %sub28.i.i.i.i199.i = and i32 %134, 63
  %sh_prom.i37.i.i.i.i200.i = zext nneg i32 %sub28.i.i.i.i199.i to i64
  %notmask.i38.i.i.i.i201.i = shl nsw i64 -1, %sh_prom.i37.i.i.i.i200.i
  %idxprom.i40.i.i.i.i202.i = zext nneg i32 %div27.i.i.i.i198.i to i64
  %arrayidx.i41.i.i.i.i203.i = getelementptr inbounds i64, ptr %136, i64 %idxprom.i40.i.i.i.i202.i
  %141 = load i64, ptr %arrayidx.i41.i.i.i.i203.i, align 8
  %.demorgan.i.i204.i = or i64 %141, %notmask.i38.i.i.i.i201.i
  %cmp.i42.i.i.i.i205.i = icmp eq i64 %.demorgan.i.i204.i, -1
  %142 = zext i1 %cmp.i42.i.i.i.i205.i to i16
  %143 = or disjoint i16 %142, 256
  br label %land.end.i.i179.i

land.end.i.i179.i:                                ; preds = %for.body.i.i.i.i192.i, %if.then26.i.i.i.i197.i, %for.end.i.i.i.i195.i, %land.rhs.i.i185.i, %land.lhs.true.i.i181.i, %if.end.i.i176.i
  %frombool.i.i180.i = phi i16 [ 256, %land.lhs.true.i.i181.i ], [ 256, %if.end.i.i176.i ], [ 257, %land.rhs.i.i185.i ], [ 257, %for.end.i.i.i.i195.i ], [ %143, %if.then26.i.i.i.i197.i ], [ 256, %for.body.i.i.i.i192.i ]
  store i16 %frombool.i.i180.i, ptr %allSelected_.i.i86.i, align 4, !noalias !37
  %144 = trunc i16 %frombool.i.i180.i to i8
  br label %_ZNK8facebook5velox17SelectivityVector13isAllSelectedEv.exit.i91.i

_ZNK8facebook5velox17SelectivityVector13isAllSelectedEv.exit.i91.i: ; preds = %land.end.i.i179.i, %entry.return_crit_edge.i.i89.i
  %retval.0.in.in.i.i92.i = phi i8 [ %retval.0.in.in.pre.i.i90.i, %entry.return_crit_edge.i.i89.i ], [ %144, %land.end.i.i179.i ]
  %retval.0.in.i.i93.i = and i8 %retval.0.in.in.i.i92.i, 1
  %retval.0.i.not.i94.i = icmp eq i8 %retval.0.in.i.i93.i, 0
  br i1 %retval.0.i.not.i94.i, label %if.else.i102.i, label %if.then.i95.i

if.then.i95.i:                                    ; preds = %_ZNK8facebook5velox17SelectivityVector13isAllSelectedEv.exit.i91.i
  %begin_.i96.i = getelementptr inbounds %"class.facebook::velox::SelectivityVector", ptr %10, i64 0, i32 2
  %145 = load i32, ptr %begin_.i96.i, align 4, !noalias !37
  %146 = load i32, ptr %end_.i.i, align 8, !noalias !37
  %cmp12.i.i = icmp slt i32 %145, %146
  br i1 %cmp12.i.i, label %for.body.preheader.i.i, label %if.end62.i

for.body.preheader.i.i:                           ; preds = %if.then.i95.i
  %147 = sext i32 %145 to i64
  %data_.i.i.i.i = getelementptr inbounds %"class.facebook::velox::DecodedVector", ptr %call48.i, i64 0, i32 2
  %isIdentityMapping_.i.i.i.i.i = getelementptr inbounds %"class.facebook::velox::DecodedVector", ptr %call48.i, i64 0, i32 8
  %constantIndex_.i.i.i.i.i = getelementptr inbounds %"class.facebook::velox::DecodedVector", ptr %call48.i, i64 0, i32 11
  %indices_.i.i.i.i.i = getelementptr inbounds %"class.facebook::velox::DecodedVector", ptr %call48.i, i64 0, i32 1
  br label %for.body.i98.i

for.body.i98.i:                                   ; preds = %.noexc206.i, %for.body.preheader.i.i
  %indvars.iv.i.i = phi i64 [ %147, %for.body.preheader.i.i ], [ %indvars.iv.next.i.i, %.noexc206.i ]
  %148 = load ptr, ptr %data_.i.i.i.i, align 8
  %149 = load i8, ptr %isIdentityMapping_.i.i.i.i.i, align 2
  %150 = and i8 %149, 1
  %tobool.not.i.i.i.i.i = icmp eq i8 %150, 0
  %151 = trunc i64 %indvars.iv.i.i to i32
  br i1 %tobool.not.i.i.i.i.i, label %if.end.i.i.i4.i100.i, label %_ZZN8facebook5velox9functions12_GLOBAL__N_113applyMapTypedILNS0_8TypeKindE0EEESt10shared_ptrINS0_10BaseVectorEEbRS5_INS1_15LookupTableBaseEERKNS0_17SelectivityVectorERKS7_SF_RNS0_4exec7EvalCtxEENKUliE0_clEi.exit.i.i

if.end.i.i.i4.i100.i:                             ; preds = %for.body.i98.i
  %152 = load i8, ptr %isConstantMapping_.i.i, align 1
  %153 = and i8 %152, 1
  %tobool2.not.i.i.i.i.i = icmp eq i8 %153, 0
  br i1 %tobool2.not.i.i.i.i.i, label %if.end4.i.i.i.i.i, label %if.then3.i.i.i.i101.i

if.then3.i.i.i.i101.i:                            ; preds = %if.end.i.i.i4.i100.i
  %154 = load i32, ptr %constantIndex_.i.i.i.i.i, align 8
  br label %_ZZN8facebook5velox9functions12_GLOBAL__N_113applyMapTypedILNS0_8TypeKindE0EEESt10shared_ptrINS0_10BaseVectorEEbRS5_INS1_15LookupTableBaseEERKNS0_17SelectivityVectorERKS7_SF_RNS0_4exec7EvalCtxEENKUliE0_clEi.exit.i.i

if.end4.i.i.i.i.i:                                ; preds = %if.end.i.i.i4.i100.i
  %155 = load ptr, ptr %indices_.i.i.i.i.i, align 8
  %arrayidx.i.i.i.i.i = getelementptr inbounds i32, ptr %155, i64 %indvars.iv.i.i
  %156 = load i32, ptr %arrayidx.i.i.i.i.i, align 4
  br label %_ZZN8facebook5velox9functions12_GLOBAL__N_113applyMapTypedILNS0_8TypeKindE0EEESt10shared_ptrINS0_10BaseVectorEEbRS5_INS1_15LookupTableBaseEERKNS0_17SelectivityVectorERKS7_SF_RNS0_4exec7EvalCtxEENKUliE0_clEi.exit.i.i

_ZZN8facebook5velox9functions12_GLOBAL__N_113applyMapTypedILNS0_8TypeKindE0EEESt10shared_ptrINS0_10BaseVectorEEbRS5_INS1_15LookupTableBaseEERKNS0_17SelectivityVectorERKS7_SF_RNS0_4exec7EvalCtxEENKUliE0_clEi.exit.i.i: ; preds = %if.end4.i.i.i.i.i, %if.then3.i.i.i.i101.i, %for.body.i98.i
  %retval.0.i.i.i.i.i = phi i32 [ %154, %if.then3.i.i.i.i101.i ], [ %156, %if.end4.i.i.i.i.i ], [ %151, %for.body.i98.i ]
  %conv.i.i.i.i.i = sext i32 %retval.0.i.i.i.i.i to i64
  %div2.i.i.i.i.i = lshr i64 %conv.i.i.i.i.i, 6
  %arrayidx.i1.i.i.i.i = getelementptr inbounds i64, ptr %148, i64 %div2.i.i.i.i.i
  %157 = load i64, ptr %arrayidx.i1.i.i.i.i, align 8
  %and.i.i.i.i.i = and i64 %conv.i.i.i.i.i, 63
  %shl.i.i.i.i.i = shl nuw i64 1, %and.i.i.i.i.i
  %and2.i.i.i.i.i = and i64 %shl.i.i.i.i.i, %157
  %tobool.i.i.i.i.i = icmp ne i64 %and2.i.i.i.i.i, 0
  invoke fastcc void @_ZZN8facebook5velox9functions12_GLOBAL__N_113applyMapTypedILNS0_8TypeKindE0EEESt10shared_ptrINS0_10BaseVectorEEbRS5_INS1_15LookupTableBaseEERKNS0_17SelectivityVectorERKS7_SF_RNS0_4exec7EvalCtxEENKUlibE_clEib(ptr noundef nonnull align 8 dereferenceable(64) %processRow.i, i32 noundef %151, i1 noundef zeroext %tobool.i.i.i.i.i)
          to label %.noexc206.i unwind label %lpad46.loopexit.split-lp.loopexit.split-lp.loopexit.split-lp.loopexit.split-lp.loopexit.split-lp.loopexit.i

.noexc206.i:                                      ; preds = %_ZZN8facebook5velox9functions12_GLOBAL__N_113applyMapTypedILNS0_8TypeKindE0EEESt10shared_ptrINS0_10BaseVectorEEbRS5_INS1_15LookupTableBaseEERKNS0_17SelectivityVectorERKS7_SF_RNS0_4exec7EvalCtxEENKUliE0_clEi.exit.i.i
  %indvars.iv.next.i.i = add nsw i64 %indvars.iv.i.i, 1
  %158 = load i32, ptr %end_.i.i, align 8, !noalias !37
  %159 = sext i32 %158 to i64
  %cmp.i99.i = icmp slt i64 %indvars.iv.next.i.i, %159
  br i1 %cmp.i99.i, label %for.body.i98.i, label %if.end62.i, !llvm.loop !58

if.else.i102.i:                                   ; preds = %_ZNK8facebook5velox17SelectivityVector13isAllSelectedEv.exit.i91.i
  %160 = load ptr, ptr %10, align 8, !noalias !37
  %begin_3.i103.i = getelementptr inbounds %"class.facebook::velox::SelectivityVector", ptr %10, i64 0, i32 2
  %161 = load i32, ptr %begin_3.i103.i, align 4, !noalias !37
  %162 = load i32, ptr %end_.i.i, align 8, !noalias !37
  %cmp.not.i.i.i.i105.i = icmp slt i32 %161, %162
  br i1 %cmp.not.i.i.i.i105.i, label %if.end.i.i.i5.i.i, label %if.end62.i

if.end.i.i.i5.i.i:                                ; preds = %if.else.i102.i
  %add.i.i.i.i.i106.i = add i32 %161, 63
  %163 = srem i32 %add.i.i.i.i.i106.i, 64
  %mul.i.i.i.i.i107.i = sub nsw i32 %add.i.i.i.i.i106.i, %163
  %164 = and i32 %162, -64
  %cmp2.i.i.i.i108.i = icmp slt i32 %164, %mul.i.i.i.i.i107.i
  br i1 %cmp2.i.i.i.i108.i, label %if.then3.i.i.i8.i.i, label %if.end8.i.i.i.i109.i

if.then3.i.i.i8.i.i:                              ; preds = %if.end.i.i.i5.i.i
  %div.i.i.i.i152.i = ashr i32 %162, 6
  %sub.i.i.i.i153.i = and i32 %162, 63
  %sh_prom.i.i.i.i.i154.i = zext nneg i32 %sub.i.i.i.i153.i to i64
  %notmask.i.i.i.i.i155.i = shl nsw i64 -1, %sh_prom.i.i.i.i.i154.i
  %sub.i22.i.i.i.i156.i = xor i64 %notmask.i.i.i.i.i155.i, -1
  %sub5.i.i.i.i157.i = sub nsw i32 %mul.i.i.i.i.i107.i, %161
  %sh_prom.i.i.i.i.i.i158.i = zext nneg i32 %sub5.i.i.i.i157.i to i64
  %notmask.i.i.i.i.i.i159.i = shl nsw i64 -1, %sh_prom.i.i.i.i.i.i158.i
  %sub.i.i.i.i.i.i160.i = xor i64 %notmask.i.i.i.i.i.i159.i, -1
  %sub.i23.i.i.i.i161.i = sub nsw i32 64, %sub5.i.i.i.i157.i
  %sh_prom.i24.i.i.i.i162.i = zext nneg i32 %sub.i23.i.i.i.i161.i to i64
  %shl.i.i.i.i.i163.i = shl i64 %sub.i.i.i.i.i.i160.i, %sh_prom.i24.i.i.i.i162.i
  %and7.i.i.i.i164.i = and i64 %shl.i.i.i.i.i163.i, %sub.i22.i.i.i.i156.i
  %idxprom2.i.i.i.i.i165.i = sext i32 %div.i.i.i.i152.i to i64
  %arrayidx3.i.i.i.i.i166.i = getelementptr inbounds i64, ptr %160, i64 %idxprom2.i.i.i.i.i165.i
  %165 = load i64, ptr %arrayidx3.i.i.i.i.i166.i, align 8
  %and.i.i.i.i.i167.i = and i64 %and7.i.i.i.i164.i, %165
  %tobool4.not.i.i.i.i.i168.i = icmp eq i64 %and.i.i.i.i.i167.i, 0
  br i1 %tobool4.not.i.i.i.i.i168.i, label %if.end62.i, label %while.body.i.i.i.i.i169.preheader.i

while.body.i.i.i.i.i169.preheader.i:              ; preds = %if.then3.i.i.i8.i.i
  %data_.i.i.i.i.i.i.i.i = getelementptr inbounds %"class.facebook::velox::DecodedVector", ptr %call48.i, i64 0, i32 2
  %isIdentityMapping_.i.i.i.i.i.i.i.i.i = getelementptr inbounds %"class.facebook::velox::DecodedVector", ptr %call48.i, i64 0, i32 8
  %constantIndex_.i.i.i.i.i.i.i.i.i = getelementptr inbounds %"class.facebook::velox::DecodedVector", ptr %call48.i, i64 0, i32 11
  %indices_.i.i.i.i.i.i.i.i.i = getelementptr inbounds %"class.facebook::velox::DecodedVector", ptr %call48.i, i64 0, i32 1
  br label %while.body.i.i.i.i.i169.i

while.body.i.i.i.i.i169.i:                        ; preds = %.noexc207.i, %while.body.i.i.i.i.i169.preheader.i
  %word.0.i.i.i.i.i170.i = phi i64 [ %and6.i.i.i.i.i174.i, %.noexc207.i ], [ %and.i.i.i.i.i167.i, %while.body.i.i.i.i.i169.preheader.i ]
  %166 = call i64 @llvm.cttz.i64(i64 %word.0.i.i.i.i.i170.i, i1 true), !range !17
  %cast.i.i.i.i.i171.i = trunc i64 %166 to i32
  %add.i26.i.i.i.i172.i = or disjoint i32 %164, %cast.i.i.i.i.i171.i
  %167 = load ptr, ptr %data_.i.i.i.i.i.i.i.i, align 8
  %168 = load i8, ptr %isIdentityMapping_.i.i.i.i.i.i.i.i.i, align 2
  %169 = and i8 %168, 1
  %tobool.not.i.i.i.i.i.i.i.i.i = icmp eq i8 %169, 0
  br i1 %tobool.not.i.i.i.i.i.i.i.i.i, label %if.end.i.i.i.i.i.i.i.i.i, label %_ZZN8facebook5velox9functions12_GLOBAL__N_113applyMapTypedILNS0_8TypeKindE0EEESt10shared_ptrINS0_10BaseVectorEEbRS5_INS1_15LookupTableBaseEERKNS0_17SelectivityVectorERKS7_SF_RNS0_4exec7EvalCtxEENKUliE0_clEi.exit.i.i.i.i.i.i

if.end.i.i.i.i.i.i.i.i.i:                         ; preds = %while.body.i.i.i.i.i169.i
  %170 = load i8, ptr %isConstantMapping_.i.i, align 1
  %171 = and i8 %170, 1
  %tobool2.not.i.i.i.i.i.i.i.i.i = icmp eq i8 %171, 0
  br i1 %tobool2.not.i.i.i.i.i.i.i.i.i, label %if.end4.i.i.i.i.i.i.i.i.i, label %if.then3.i.i.i.i.i.i.i.i.i

if.then3.i.i.i.i.i.i.i.i.i:                       ; preds = %if.end.i.i.i.i.i.i.i.i.i
  %172 = load i32, ptr %constantIndex_.i.i.i.i.i.i.i.i.i, align 8
  br label %_ZZN8facebook5velox9functions12_GLOBAL__N_113applyMapTypedILNS0_8TypeKindE0EEESt10shared_ptrINS0_10BaseVectorEEbRS5_INS1_15LookupTableBaseEERKNS0_17SelectivityVectorERKS7_SF_RNS0_4exec7EvalCtxEENKUliE0_clEi.exit.i.i.i.i.i.i

if.end4.i.i.i.i.i.i.i.i.i:                        ; preds = %if.end.i.i.i.i.i.i.i.i.i
  %173 = load ptr, ptr %indices_.i.i.i.i.i.i.i.i.i, align 8
  %idxprom.i.i.i.i.i.i.i.i.i = sext i32 %add.i26.i.i.i.i172.i to i64
  %arrayidx.i.i.i.i.i.i.i.i.i = getelementptr inbounds i32, ptr %173, i64 %idxprom.i.i.i.i.i.i.i.i.i
  %174 = load i32, ptr %arrayidx.i.i.i.i.i.i.i.i.i, align 4
  br label %_ZZN8facebook5velox9functions12_GLOBAL__N_113applyMapTypedILNS0_8TypeKindE0EEESt10shared_ptrINS0_10BaseVectorEEbRS5_INS1_15LookupTableBaseEERKNS0_17SelectivityVectorERKS7_SF_RNS0_4exec7EvalCtxEENKUliE0_clEi.exit.i.i.i.i.i.i

_ZZN8facebook5velox9functions12_GLOBAL__N_113applyMapTypedILNS0_8TypeKindE0EEESt10shared_ptrINS0_10BaseVectorEEbRS5_INS1_15LookupTableBaseEERKNS0_17SelectivityVectorERKS7_SF_RNS0_4exec7EvalCtxEENKUliE0_clEi.exit.i.i.i.i.i.i: ; preds = %if.end4.i.i.i.i.i.i.i.i.i, %if.then3.i.i.i.i.i.i.i.i.i, %while.body.i.i.i.i.i169.i
  %retval.0.i.i.i.i.i.i.i.i.i = phi i32 [ %172, %if.then3.i.i.i.i.i.i.i.i.i ], [ %174, %if.end4.i.i.i.i.i.i.i.i.i ], [ %add.i26.i.i.i.i172.i, %while.body.i.i.i.i.i169.i ]
  %conv.i.i.i.i.i.i.i.i.i = sext i32 %retval.0.i.i.i.i.i.i.i.i.i to i64
  %div2.i.i.i.i.i.i.i.i.i = lshr i64 %conv.i.i.i.i.i.i.i.i.i, 6
  %arrayidx.i1.i.i.i.i.i.i.i.i = getelementptr inbounds i64, ptr %167, i64 %div2.i.i.i.i.i.i.i.i.i
  %175 = load i64, ptr %arrayidx.i1.i.i.i.i.i.i.i.i, align 8
  %and.i.i.i.i.i.i.i.i.i = and i64 %conv.i.i.i.i.i.i.i.i.i, 63
  %shl.i.i.i.i.i.i.i.i.i = shl nuw i64 1, %and.i.i.i.i.i.i.i.i.i
  %and2.i.i.i.i.i.i.i.i.i = and i64 %shl.i.i.i.i.i.i.i.i.i, %175
  %tobool.i.i.i.i.i.i.i.i.i = icmp ne i64 %and2.i.i.i.i.i.i.i.i.i, 0
  invoke fastcc void @_ZZN8facebook5velox9functions12_GLOBAL__N_113applyMapTypedILNS0_8TypeKindE0EEESt10shared_ptrINS0_10BaseVectorEEbRS5_INS1_15LookupTableBaseEERKNS0_17SelectivityVectorERKS7_SF_RNS0_4exec7EvalCtxEENKUlibE_clEib(ptr noundef nonnull align 8 dereferenceable(64) %processRow.i, i32 noundef %add.i26.i.i.i.i172.i, i1 noundef zeroext %tobool.i.i.i.i.i.i.i.i.i)
          to label %.noexc207.i unwind label %lpad46.loopexit.i

.noexc207.i:                                      ; preds = %_ZZN8facebook5velox9functions12_GLOBAL__N_113applyMapTypedILNS0_8TypeKindE0EEESt10shared_ptrINS0_10BaseVectorEEbRS5_INS1_15LookupTableBaseEERKNS0_17SelectivityVectorERKS7_SF_RNS0_4exec7EvalCtxEENKUliE0_clEi.exit.i.i.i.i.i.i
  %sub.i27.i.i.i.i173.i = add nsw i64 %word.0.i.i.i.i.i170.i, -1
  %and6.i.i.i.i.i174.i = and i64 %sub.i27.i.i.i.i173.i, %word.0.i.i.i.i.i170.i
  %tobool5.old.not.i.i.i.i.i175.i = icmp eq i64 %and6.i.i.i.i.i174.i, 0
  br i1 %tobool5.old.not.i.i.i.i.i175.i, label %if.end62.i, label %while.body.i.i.i.i.i169.i

if.end8.i.i.i.i109.i:                             ; preds = %if.end.i.i.i5.i.i
  %cmp9.not.i.i.i.i110.i = icmp eq i32 %mul.i.i.i.i.i107.i, %161
  br i1 %cmp9.not.i.i.i.i110.i, label %if.end14.i.i.i.i130.i, label %if.then10.i.i.i.i111.i

if.then10.i.i.i.i111.i:                           ; preds = %if.end8.i.i.i.i109.i
  %div11.i.i.i.i112.i = sdiv i32 %161, 64
  %sub12.i.i.i.i113.i = sub nsw i32 %mul.i.i.i.i.i107.i, %161
  %sh_prom.i.i28.i.i.i.i114.i = zext nneg i32 %sub12.i.i.i.i113.i to i64
  %notmask.i.i29.i.i.i.i115.i = shl nsw i64 -1, %sh_prom.i.i28.i.i.i.i114.i
  %sub.i.i30.i.i.i.i116.i = xor i64 %notmask.i.i29.i.i.i.i115.i, -1
  %sub.i31.i.i.i.i117.i = sub nsw i32 64, %sub12.i.i.i.i113.i
  %sh_prom.i32.i.i.i.i118.i = zext nneg i32 %sub.i31.i.i.i.i117.i to i64
  %shl.i33.i.i.i.i119.i = shl i64 %sub.i.i30.i.i.i.i116.i, %sh_prom.i32.i.i.i.i118.i
  %idxprom2.i34.i.i.i.i120.i = sext i32 %div11.i.i.i.i112.i to i64
  %arrayidx3.i35.i.i.i.i121.i = getelementptr inbounds i64, ptr %160, i64 %idxprom2.i34.i.i.i.i120.i
  %176 = load i64, ptr %arrayidx3.i35.i.i.i.i121.i, align 8
  %and.i39.i.i.i.i122.i = and i64 %176, %shl.i33.i.i.i.i119.i
  %tobool4.not.i40.i.i.i.i123.i = icmp eq i64 %and.i39.i.i.i.i122.i, 0
  br i1 %tobool4.not.i40.i.i.i.i123.i, label %if.end14.i.i.i.i130.i, label %while.body.preheader.i41.i.i.i.i124.i

while.body.preheader.i41.i.i.i.i124.i:            ; preds = %if.then10.i.i.i.i111.i
  %mul.i42.i.i.i.i125.i = shl nsw i32 %div11.i.i.i.i112.i, 6
  %data_.i.i.i50.i.i.i.i.i = getelementptr inbounds %"class.facebook::velox::DecodedVector", ptr %call48.i, i64 0, i32 2
  %isIdentityMapping_.i.i.i.i51.i.i.i.i.i = getelementptr inbounds %"class.facebook::velox::DecodedVector", ptr %call48.i, i64 0, i32 8
  %constantIndex_.i.i.i.i69.i.i.i.i.i = getelementptr inbounds %"class.facebook::velox::DecodedVector", ptr %call48.i, i64 0, i32 11
  %indices_.i.i.i.i71.i.i.i.i.i = getelementptr inbounds %"class.facebook::velox::DecodedVector", ptr %call48.i, i64 0, i32 1
  br label %while.body.i43.i.i.i.i126.i

while.body.i43.i.i.i.i126.i:                      ; preds = %.noexc208.i, %while.body.preheader.i41.i.i.i.i124.i
  %word.0.i44.i.i.i.i127.i = phi i64 [ %and6.i63.i.i.i.i.i, %.noexc208.i ], [ %and.i39.i.i.i.i122.i, %while.body.preheader.i41.i.i.i.i124.i ]
  %177 = call i64 @llvm.cttz.i64(i64 %word.0.i44.i.i.i.i127.i, i1 true), !range !17
  %cast.i45.i.i.i.i128.i = trunc i64 %177 to i32
  %add.i46.i.i.i.i129.i = or disjoint i32 %mul.i42.i.i.i.i125.i, %cast.i45.i.i.i.i128.i
  %178 = load ptr, ptr %data_.i.i.i50.i.i.i.i.i, align 8
  %179 = load i8, ptr %isIdentityMapping_.i.i.i.i51.i.i.i.i.i, align 2
  %180 = and i8 %179, 1
  %tobool.not.i.i.i.i52.i.i.i.i.i = icmp eq i8 %180, 0
  br i1 %tobool.not.i.i.i.i52.i.i.i.i.i, label %if.end.i.i.i.i65.i.i.i.i.i, label %_ZZN8facebook5velox9functions12_GLOBAL__N_113applyMapTypedILNS0_8TypeKindE0EEESt10shared_ptrINS0_10BaseVectorEEbRS5_INS1_15LookupTableBaseEERKNS0_17SelectivityVectorERKS7_SF_RNS0_4exec7EvalCtxEENKUliE0_clEi.exit.i53.i.i.i.i.i

if.end.i.i.i.i65.i.i.i.i.i:                       ; preds = %while.body.i43.i.i.i.i126.i
  %181 = load i8, ptr %isConstantMapping_.i.i, align 1
  %182 = and i8 %181, 1
  %tobool2.not.i.i.i.i67.i.i.i.i.i = icmp eq i8 %182, 0
  br i1 %tobool2.not.i.i.i.i67.i.i.i.i.i, label %if.end4.i.i.i.i70.i.i.i.i.i, label %if.then3.i.i.i.i68.i.i.i.i.i

if.then3.i.i.i.i68.i.i.i.i.i:                     ; preds = %if.end.i.i.i.i65.i.i.i.i.i
  %183 = load i32, ptr %constantIndex_.i.i.i.i69.i.i.i.i.i, align 8
  br label %_ZZN8facebook5velox9functions12_GLOBAL__N_113applyMapTypedILNS0_8TypeKindE0EEESt10shared_ptrINS0_10BaseVectorEEbRS5_INS1_15LookupTableBaseEERKNS0_17SelectivityVectorERKS7_SF_RNS0_4exec7EvalCtxEENKUliE0_clEi.exit.i53.i.i.i.i.i

if.end4.i.i.i.i70.i.i.i.i.i:                      ; preds = %if.end.i.i.i.i65.i.i.i.i.i
  %184 = load ptr, ptr %indices_.i.i.i.i71.i.i.i.i.i, align 8
  %idxprom.i.i.i.i72.i.i.i.i.i = sext i32 %add.i46.i.i.i.i129.i to i64
  %arrayidx.i.i.i.i73.i.i.i.i.i = getelementptr inbounds i32, ptr %184, i64 %idxprom.i.i.i.i72.i.i.i.i.i
  %185 = load i32, ptr %arrayidx.i.i.i.i73.i.i.i.i.i, align 4
  br label %_ZZN8facebook5velox9functions12_GLOBAL__N_113applyMapTypedILNS0_8TypeKindE0EEESt10shared_ptrINS0_10BaseVectorEEbRS5_INS1_15LookupTableBaseEERKNS0_17SelectivityVectorERKS7_SF_RNS0_4exec7EvalCtxEENKUliE0_clEi.exit.i53.i.i.i.i.i

_ZZN8facebook5velox9functions12_GLOBAL__N_113applyMapTypedILNS0_8TypeKindE0EEESt10shared_ptrINS0_10BaseVectorEEbRS5_INS1_15LookupTableBaseEERKNS0_17SelectivityVectorERKS7_SF_RNS0_4exec7EvalCtxEENKUliE0_clEi.exit.i53.i.i.i.i.i: ; preds = %if.end4.i.i.i.i70.i.i.i.i.i, %if.then3.i.i.i.i68.i.i.i.i.i, %while.body.i43.i.i.i.i126.i
  %retval.0.i.i.i.i54.i.i.i.i.i = phi i32 [ %183, %if.then3.i.i.i.i68.i.i.i.i.i ], [ %185, %if.end4.i.i.i.i70.i.i.i.i.i ], [ %add.i46.i.i.i.i129.i, %while.body.i43.i.i.i.i126.i ]
  %conv.i.i.i.i55.i.i.i.i.i = sext i32 %retval.0.i.i.i.i54.i.i.i.i.i to i64
  %div2.i.i.i.i56.i.i.i.i.i = lshr i64 %conv.i.i.i.i55.i.i.i.i.i, 6
  %arrayidx.i1.i.i.i57.i.i.i.i.i = getelementptr inbounds i64, ptr %178, i64 %div2.i.i.i.i56.i.i.i.i.i
  %186 = load i64, ptr %arrayidx.i1.i.i.i57.i.i.i.i.i, align 8
  %and.i.i.i.i58.i.i.i.i.i = and i64 %conv.i.i.i.i55.i.i.i.i.i, 63
  %shl.i.i.i.i59.i.i.i.i.i = shl nuw i64 1, %and.i.i.i.i58.i.i.i.i.i
  %and2.i.i.i.i60.i.i.i.i.i = and i64 %shl.i.i.i.i59.i.i.i.i.i, %186
  %tobool.i.i.i.i61.i.i.i.i.i = icmp ne i64 %and2.i.i.i.i60.i.i.i.i.i, 0
  invoke fastcc void @_ZZN8facebook5velox9functions12_GLOBAL__N_113applyMapTypedILNS0_8TypeKindE0EEESt10shared_ptrINS0_10BaseVectorEEbRS5_INS1_15LookupTableBaseEERKNS0_17SelectivityVectorERKS7_SF_RNS0_4exec7EvalCtxEENKUlibE_clEib(ptr noundef nonnull align 8 dereferenceable(64) %processRow.i, i32 noundef %add.i46.i.i.i.i129.i, i1 noundef zeroext %tobool.i.i.i.i61.i.i.i.i.i)
          to label %.noexc208.i unwind label %lpad46.loopexit.split-lp.loopexit.split-lp.loopexit.split-lp.loopexit.split-lp.loopexit.i

.noexc208.i:                                      ; preds = %_ZZN8facebook5velox9functions12_GLOBAL__N_113applyMapTypedILNS0_8TypeKindE0EEESt10shared_ptrINS0_10BaseVectorEEbRS5_INS1_15LookupTableBaseEERKNS0_17SelectivityVectorERKS7_SF_RNS0_4exec7EvalCtxEENKUliE0_clEi.exit.i53.i.i.i.i.i
  %sub.i62.i.i.i.i.i = add i64 %word.0.i44.i.i.i.i127.i, -1
  %and6.i63.i.i.i.i.i = and i64 %sub.i62.i.i.i.i.i, %word.0.i44.i.i.i.i127.i
  %tobool5.old.not.i64.i.i.i.i.i = icmp eq i64 %and6.i63.i.i.i.i.i, 0
  br i1 %tobool5.old.not.i64.i.i.i.i.i, label %if.end14.i.i.i.i130.i, label %while.body.i43.i.i.i.i126.i

if.end14.i.i.i.i130.i:                            ; preds = %.noexc208.i, %if.then10.i.i.i.i111.i, %if.end8.i.i.i.i109.i
  %add154.i.i.i.i.i = add nsw i32 %mul.i.i.i.i.i107.i, 64
  %cmp15.not155.i.i.i.i.i = icmp sgt i32 %add154.i.i.i.i.i, %164
  br i1 %cmp15.not155.i.i.i.i.i, label %for.end.i.i.i7.i.i, label %for.body.i.i.i6.i.preheader.i

for.body.i.i.i6.i.preheader.i:                    ; preds = %if.end14.i.i.i.i130.i
  %data_.i.i.i80.i.i.i.i.i = getelementptr inbounds %"class.facebook::velox::DecodedVector", ptr %call48.i, i64 0, i32 2
  %isIdentityMapping_.i.i.i.i81.i.i.i.i.i = getelementptr inbounds %"class.facebook::velox::DecodedVector", ptr %call48.i, i64 0, i32 8
  %constantIndex_.i.i.i.i96.i.i.i.i.i = getelementptr inbounds %"class.facebook::velox::DecodedVector", ptr %call48.i, i64 0, i32 11
  %indices_.i.i.i.i98.i.i.i.i.i = getelementptr inbounds %"class.facebook::velox::DecodedVector", ptr %call48.i, i64 0, i32 1
  br label %for.body.i.i.i6.i.i

for.body.i.i.i6.i.i:                              ; preds = %_ZZN8facebook5velox4bits10forEachBitIZNS0_9functions12_GLOBAL__N_113applyMapTypedILNS0_8TypeKindE0EEESt10shared_ptrINS0_10BaseVectorEEbRS7_INS3_15LookupTableBaseEERKNS0_17SelectivityVectorERKS9_SH_RNS0_4exec7EvalCtxEEUliE0_EEvPKmiibT_ENKUliE_clEi.exit.i.i.i.i.i, %for.body.i.i.i6.i.preheader.i
  %add157.i.i.i.i.i = phi i32 [ %add.i.i.i.i132.i, %_ZZN8facebook5velox4bits10forEachBitIZNS0_9functions12_GLOBAL__N_113applyMapTypedILNS0_8TypeKindE0EEESt10shared_ptrINS0_10BaseVectorEEbRS7_INS3_15LookupTableBaseEERKNS0_17SelectivityVectorERKS9_SH_RNS0_4exec7EvalCtxEEUliE0_EEvPKmiibT_ENKUliE_clEi.exit.i.i.i.i.i ], [ %add154.i.i.i.i.i, %for.body.i.i.i6.i.preheader.i ]
  %i.0156.i.i.i.i.i = phi i32 [ %add157.i.i.i.i.i, %_ZZN8facebook5velox4bits10forEachBitIZNS0_9functions12_GLOBAL__N_113applyMapTypedILNS0_8TypeKindE0EEESt10shared_ptrINS0_10BaseVectorEEbRS7_INS3_15LookupTableBaseEERKNS0_17SelectivityVectorERKS9_SH_RNS0_4exec7EvalCtxEEUliE0_EEvPKmiibT_ENKUliE_clEi.exit.i.i.i.i.i ], [ %mul.i.i.i.i.i107.i, %for.body.i.i.i6.i.preheader.i ]
  %div16.i.i.i.i131.i = sdiv i32 %i.0156.i.i.i.i.i, 64
  %idxprom2.i75.i.i.i.i.i = sext i32 %div16.i.i.i.i131.i to i64
  %arrayidx3.i76.i.i.i.i.i = getelementptr inbounds i64, ptr %160, i64 %idxprom2.i75.i.i.i.i.i
  %187 = load i64, ptr %arrayidx3.i76.i.i.i.i.i, align 8
  switch i64 %187, label %while.body.lr.ph.i.i.i.i.i148.i [
    i64 -1, label %if.then.i.i.i.i.i138.i
    i64 0, label %_ZZN8facebook5velox4bits10forEachBitIZNS0_9functions12_GLOBAL__N_113applyMapTypedILNS0_8TypeKindE0EEESt10shared_ptrINS0_10BaseVectorEEbRS7_INS3_15LookupTableBaseEERKNS0_17SelectivityVectorERKS9_SH_RNS0_4exec7EvalCtxEEUliE0_EEvPKmiibT_ENKUliE_clEi.exit.i.i.i.i.i
  ]

while.body.lr.ph.i.i.i.i.i148.i:                  ; preds = %for.body.i.i.i6.i.i
  %mul9.i.i.i.i.i149.i = shl nsw i32 %div16.i.i.i.i131.i, 6
  br label %while.body.i102.i.i.i.i.i

if.then.i.i.i.i.i138.i:                           ; preds = %for.body.i.i.i6.i.i
  %mul.i79.i.i.i.i.i = shl nsw i32 %div16.i.i.i.i131.i, 6
  %mul4.i.i.i.i.i139.i = add i32 %mul.i79.i.i.i.i.i, 64
  %conv5.i.i.i.i.i140.i = sext i32 %mul4.i.i.i.i.i139.i to i64
  %i.0.off.i.i.i.i141.i = add i32 %i.0156.i.i.i.i.i, 127
  %cmp638.not.i.i.i.i.i.i = icmp ult i32 %i.0.off.i.i.i.i141.i, 64
  br i1 %cmp638.not.i.i.i.i.i.i, label %_ZZN8facebook5velox4bits10forEachBitIZNS0_9functions12_GLOBAL__N_113applyMapTypedILNS0_8TypeKindE0EEESt10shared_ptrINS0_10BaseVectorEEbRS7_INS3_15LookupTableBaseEERKNS0_17SelectivityVectorERKS9_SH_RNS0_4exec7EvalCtxEEUliE0_EEvPKmiibT_ENKUliE_clEi.exit.i.i.i.i.i, label %for.body.lr.ph.i.i.i.i.i142.i

for.body.lr.ph.i.i.i.i.i142.i:                    ; preds = %if.then.i.i.i.i.i138.i
  %conv.i.i.i.i.i143.i = sext i32 %mul.i79.i.i.i.i.i to i64
  br label %for.body.i.i.i.i.i144.i

for.body.i.i.i.i.i144.i:                          ; preds = %.noexc209.i, %for.body.lr.ph.i.i.i.i.i142.i
  %row.039.i.i.i.i.i.i = phi i64 [ %conv.i.i.i.i.i143.i, %for.body.lr.ph.i.i.i.i.i142.i ], [ %inc.i.i.i.i.i146.i, %.noexc209.i ]
  %conv7.i.i.i.i.i145.i = trunc i64 %row.039.i.i.i.i.i.i to i32
  %188 = load ptr, ptr %data_.i.i.i80.i.i.i.i.i, align 8
  %189 = load i8, ptr %isIdentityMapping_.i.i.i.i81.i.i.i.i.i, align 2
  %190 = and i8 %189, 1
  %tobool.not.i.i.i.i82.i.i.i.i.i = icmp eq i8 %190, 0
  br i1 %tobool.not.i.i.i.i82.i.i.i.i.i, label %if.end.i.i.i.i92.i.i.i.i.i, label %_ZZN8facebook5velox9functions12_GLOBAL__N_113applyMapTypedILNS0_8TypeKindE0EEESt10shared_ptrINS0_10BaseVectorEEbRS5_INS1_15LookupTableBaseEERKNS0_17SelectivityVectorERKS7_SF_RNS0_4exec7EvalCtxEENKUliE0_clEi.exit.i83.i.i.i.i.i

if.end.i.i.i.i92.i.i.i.i.i:                       ; preds = %for.body.i.i.i.i.i144.i
  %191 = load i8, ptr %isConstantMapping_.i.i, align 1
  %192 = and i8 %191, 1
  %tobool2.not.i.i.i.i94.i.i.i.i.i = icmp eq i8 %192, 0
  br i1 %tobool2.not.i.i.i.i94.i.i.i.i.i, label %if.end4.i.i.i.i97.i.i.i.i.i, label %if.then3.i.i.i.i95.i.i.i.i.i

if.then3.i.i.i.i95.i.i.i.i.i:                     ; preds = %if.end.i.i.i.i92.i.i.i.i.i
  %193 = load i32, ptr %constantIndex_.i.i.i.i96.i.i.i.i.i, align 8
  br label %_ZZN8facebook5velox9functions12_GLOBAL__N_113applyMapTypedILNS0_8TypeKindE0EEESt10shared_ptrINS0_10BaseVectorEEbRS5_INS1_15LookupTableBaseEERKNS0_17SelectivityVectorERKS7_SF_RNS0_4exec7EvalCtxEENKUliE0_clEi.exit.i83.i.i.i.i.i

if.end4.i.i.i.i97.i.i.i.i.i:                      ; preds = %if.end.i.i.i.i92.i.i.i.i.i
  %194 = load ptr, ptr %indices_.i.i.i.i98.i.i.i.i.i, align 8
  %sext.i99.i.i.i.i.i = shl i64 %row.039.i.i.i.i.i.i, 32
  %idxprom.i.i.i.i100.i.i.i.i.i = ashr exact i64 %sext.i99.i.i.i.i.i, 32
  %arrayidx.i.i.i.i101.i.i.i.i.i = getelementptr inbounds i32, ptr %194, i64 %idxprom.i.i.i.i100.i.i.i.i.i
  %195 = load i32, ptr %arrayidx.i.i.i.i101.i.i.i.i.i, align 4
  br label %_ZZN8facebook5velox9functions12_GLOBAL__N_113applyMapTypedILNS0_8TypeKindE0EEESt10shared_ptrINS0_10BaseVectorEEbRS5_INS1_15LookupTableBaseEERKNS0_17SelectivityVectorERKS7_SF_RNS0_4exec7EvalCtxEENKUliE0_clEi.exit.i83.i.i.i.i.i

_ZZN8facebook5velox9functions12_GLOBAL__N_113applyMapTypedILNS0_8TypeKindE0EEESt10shared_ptrINS0_10BaseVectorEEbRS5_INS1_15LookupTableBaseEERKNS0_17SelectivityVectorERKS7_SF_RNS0_4exec7EvalCtxEENKUliE0_clEi.exit.i83.i.i.i.i.i: ; preds = %if.end4.i.i.i.i97.i.i.i.i.i, %if.then3.i.i.i.i95.i.i.i.i.i, %for.body.i.i.i.i.i144.i
  %retval.0.i.i.i.i84.i.i.i.i.i = phi i32 [ %193, %if.then3.i.i.i.i95.i.i.i.i.i ], [ %195, %if.end4.i.i.i.i97.i.i.i.i.i ], [ %conv7.i.i.i.i.i145.i, %for.body.i.i.i.i.i144.i ]
  %conv.i.i.i.i85.i.i.i.i.i = sext i32 %retval.0.i.i.i.i84.i.i.i.i.i to i64
  %div2.i.i.i.i86.i.i.i.i.i = lshr i64 %conv.i.i.i.i85.i.i.i.i.i, 6
  %arrayidx.i1.i.i.i87.i.i.i.i.i = getelementptr inbounds i64, ptr %188, i64 %div2.i.i.i.i86.i.i.i.i.i
  %196 = load i64, ptr %arrayidx.i1.i.i.i87.i.i.i.i.i, align 8
  %and.i.i.i.i88.i.i.i.i.i = and i64 %conv.i.i.i.i85.i.i.i.i.i, 63
  %shl.i.i.i.i89.i.i.i.i.i = shl nuw i64 1, %and.i.i.i.i88.i.i.i.i.i
  %and2.i.i.i.i90.i.i.i.i.i = and i64 %shl.i.i.i.i89.i.i.i.i.i, %196
  %tobool.i.i.i.i91.i.i.i.i.i = icmp ne i64 %and2.i.i.i.i90.i.i.i.i.i, 0
  invoke fastcc void @_ZZN8facebook5velox9functions12_GLOBAL__N_113applyMapTypedILNS0_8TypeKindE0EEESt10shared_ptrINS0_10BaseVectorEEbRS5_INS1_15LookupTableBaseEERKNS0_17SelectivityVectorERKS7_SF_RNS0_4exec7EvalCtxEENKUlibE_clEib(ptr noundef nonnull align 8 dereferenceable(64) %processRow.i, i32 noundef %conv7.i.i.i.i.i145.i, i1 noundef zeroext %tobool.i.i.i.i91.i.i.i.i.i)
          to label %.noexc209.i unwind label %lpad46.loopexit.split-lp.loopexit.split-lp.loopexit.split-lp.loopexit.i

.noexc209.i:                                      ; preds = %_ZZN8facebook5velox9functions12_GLOBAL__N_113applyMapTypedILNS0_8TypeKindE0EEESt10shared_ptrINS0_10BaseVectorEEbRS5_INS1_15LookupTableBaseEERKNS0_17SelectivityVectorERKS7_SF_RNS0_4exec7EvalCtxEENKUliE0_clEi.exit.i83.i.i.i.i.i
  %inc.i.i.i.i.i146.i = add nuw i64 %row.039.i.i.i.i.i.i, 1
  %cmp6.i.i.i.i.i147.i = icmp ult i64 %inc.i.i.i.i.i146.i, %conv5.i.i.i.i.i140.i
  br i1 %cmp6.i.i.i.i.i147.i, label %for.body.i.i.i.i.i144.i, label %_ZZN8facebook5velox4bits10forEachBitIZNS0_9functions12_GLOBAL__N_113applyMapTypedILNS0_8TypeKindE0EEESt10shared_ptrINS0_10BaseVectorEEbRS7_INS3_15LookupTableBaseEERKNS0_17SelectivityVectorERKS9_SH_RNS0_4exec7EvalCtxEEUliE0_EEvPKmiibT_ENKUliE_clEi.exit.i.i.i.i.i, !llvm.loop !59

while.body.i102.i.i.i.i.i:                        ; preds = %.noexc210.i, %while.body.lr.ph.i.i.i.i.i148.i
  %word.037.i.i.i.i.i.i = phi i64 [ %187, %while.body.lr.ph.i.i.i.i.i148.i ], [ %and.i107.i.i.i.i.i, %.noexc210.i ]
  %197 = call i64 @llvm.cttz.i64(i64 %word.037.i.i.i.i.i.i, i1 true), !range !17
  %cast.i103.i.i.i.i.i = trunc i64 %197 to i32
  %add10.i.i.i.i.i150.i = or disjoint i32 %mul9.i.i.i.i.i149.i, %cast.i103.i.i.i.i.i
  %198 = load ptr, ptr %data_.i.i.i80.i.i.i.i.i, align 8
  %199 = load i8, ptr %isIdentityMapping_.i.i.i.i81.i.i.i.i.i, align 2
  %200 = and i8 %199, 1
  %tobool.not.i.i.i16.i.i.i.i.i.i = icmp eq i8 %200, 0
  br i1 %tobool.not.i.i.i16.i.i.i.i.i.i, label %if.end.i.i.i25.i.i.i.i.i.i, label %_ZZN8facebook5velox9functions12_GLOBAL__N_113applyMapTypedILNS0_8TypeKindE0EEESt10shared_ptrINS0_10BaseVectorEEbRS5_INS1_15LookupTableBaseEERKNS0_17SelectivityVectorERKS7_SF_RNS0_4exec7EvalCtxEENKUliE0_clEi.exit34.i.i.i.i.i.i

if.end.i.i.i25.i.i.i.i.i.i:                       ; preds = %while.body.i102.i.i.i.i.i
  %201 = load i8, ptr %isConstantMapping_.i.i, align 1
  %202 = and i8 %201, 1
  %tobool2.not.i.i.i27.i.i.i.i.i.i = icmp eq i8 %202, 0
  br i1 %tobool2.not.i.i.i27.i.i.i.i.i.i, label %if.end4.i.i.i30.i.i.i.i.i.i, label %if.then3.i.i.i28.i.i.i.i.i.i

if.then3.i.i.i28.i.i.i.i.i.i:                     ; preds = %if.end.i.i.i25.i.i.i.i.i.i
  %203 = load i32, ptr %constantIndex_.i.i.i.i96.i.i.i.i.i, align 8
  br label %_ZZN8facebook5velox9functions12_GLOBAL__N_113applyMapTypedILNS0_8TypeKindE0EEESt10shared_ptrINS0_10BaseVectorEEbRS5_INS1_15LookupTableBaseEERKNS0_17SelectivityVectorERKS7_SF_RNS0_4exec7EvalCtxEENKUliE0_clEi.exit34.i.i.i.i.i.i

if.end4.i.i.i30.i.i.i.i.i.i:                      ; preds = %if.end.i.i.i25.i.i.i.i.i.i
  %204 = load ptr, ptr %indices_.i.i.i.i98.i.i.i.i.i, align 8
  %idxprom.i.i.i32.i.i.i.i.i.i = sext i32 %add10.i.i.i.i.i150.i to i64
  %arrayidx.i.i.i33.i.i.i.i.i.i = getelementptr inbounds i32, ptr %204, i64 %idxprom.i.i.i32.i.i.i.i.i.i
  %205 = load i32, ptr %arrayidx.i.i.i33.i.i.i.i.i.i, align 4
  br label %_ZZN8facebook5velox9functions12_GLOBAL__N_113applyMapTypedILNS0_8TypeKindE0EEESt10shared_ptrINS0_10BaseVectorEEbRS5_INS1_15LookupTableBaseEERKNS0_17SelectivityVectorERKS7_SF_RNS0_4exec7EvalCtxEENKUliE0_clEi.exit34.i.i.i.i.i.i

_ZZN8facebook5velox9functions12_GLOBAL__N_113applyMapTypedILNS0_8TypeKindE0EEESt10shared_ptrINS0_10BaseVectorEEbRS5_INS1_15LookupTableBaseEERKNS0_17SelectivityVectorERKS7_SF_RNS0_4exec7EvalCtxEENKUliE0_clEi.exit34.i.i.i.i.i.i: ; preds = %if.end4.i.i.i30.i.i.i.i.i.i, %if.then3.i.i.i28.i.i.i.i.i.i, %while.body.i102.i.i.i.i.i
  %retval.0.i.i.i17.i.i.i.i.i.i = phi i32 [ %203, %if.then3.i.i.i28.i.i.i.i.i.i ], [ %205, %if.end4.i.i.i30.i.i.i.i.i.i ], [ %add10.i.i.i.i.i150.i, %while.body.i102.i.i.i.i.i ]
  %conv.i.i.i18.i.i.i.i.i.i = sext i32 %retval.0.i.i.i17.i.i.i.i.i.i to i64
  %div2.i.i.i19.i.i.i.i.i.i = lshr i64 %conv.i.i.i18.i.i.i.i.i.i, 6
  %arrayidx.i1.i.i20.i.i.i.i.i.i = getelementptr inbounds i64, ptr %198, i64 %div2.i.i.i19.i.i.i.i.i.i
  %206 = load i64, ptr %arrayidx.i1.i.i20.i.i.i.i.i.i, align 8
  %and.i.i.i21.i.i.i.i.i.i = and i64 %conv.i.i.i18.i.i.i.i.i.i, 63
  %shl.i.i.i22.i.i.i.i.i.i = shl nuw i64 1, %and.i.i.i21.i.i.i.i.i.i
  %and2.i.i.i23.i.i.i.i.i.i = and i64 %shl.i.i.i22.i.i.i.i.i.i, %206
  %tobool.i.i.i24.i.i.i.i.i.i = icmp ne i64 %and2.i.i.i23.i.i.i.i.i.i, 0
  invoke fastcc void @_ZZN8facebook5velox9functions12_GLOBAL__N_113applyMapTypedILNS0_8TypeKindE0EEESt10shared_ptrINS0_10BaseVectorEEbRS5_INS1_15LookupTableBaseEERKNS0_17SelectivityVectorERKS7_SF_RNS0_4exec7EvalCtxEENKUlibE_clEib(ptr noundef nonnull align 8 dereferenceable(64) %processRow.i, i32 noundef %add10.i.i.i.i.i150.i, i1 noundef zeroext %tobool.i.i.i24.i.i.i.i.i.i)
          to label %.noexc210.i unwind label %lpad46.loopexit.split-lp.loopexit.split-lp.loopexit.i

.noexc210.i:                                      ; preds = %_ZZN8facebook5velox9functions12_GLOBAL__N_113applyMapTypedILNS0_8TypeKindE0EEESt10shared_ptrINS0_10BaseVectorEEbRS5_INS1_15LookupTableBaseEERKNS0_17SelectivityVectorERKS7_SF_RNS0_4exec7EvalCtxEENKUliE0_clEi.exit34.i.i.i.i.i.i
  %sub.i106.i.i.i.i.i = add i64 %word.037.i.i.i.i.i.i, -1
  %and.i107.i.i.i.i.i = and i64 %sub.i106.i.i.i.i.i, %word.037.i.i.i.i.i.i
  %tobool8.not.i.i.i.i.i151.i = icmp eq i64 %and.i107.i.i.i.i.i, 0
  br i1 %tobool8.not.i.i.i.i.i151.i, label %_ZZN8facebook5velox4bits10forEachBitIZNS0_9functions12_GLOBAL__N_113applyMapTypedILNS0_8TypeKindE0EEESt10shared_ptrINS0_10BaseVectorEEbRS7_INS3_15LookupTableBaseEERKNS0_17SelectivityVectorERKS9_SH_RNS0_4exec7EvalCtxEEUliE0_EEvPKmiibT_ENKUliE_clEi.exit.i.i.i.i.i, label %while.body.i102.i.i.i.i.i, !llvm.loop !60

_ZZN8facebook5velox4bits10forEachBitIZNS0_9functions12_GLOBAL__N_113applyMapTypedILNS0_8TypeKindE0EEESt10shared_ptrINS0_10BaseVectorEEbRS7_INS3_15LookupTableBaseEERKNS0_17SelectivityVectorERKS9_SH_RNS0_4exec7EvalCtxEEUliE0_EEvPKmiibT_ENKUliE_clEi.exit.i.i.i.i.i: ; preds = %.noexc209.i, %.noexc210.i, %if.then.i.i.i.i.i138.i, %for.body.i.i.i6.i.i
  %add.i.i.i.i132.i = add nsw i32 %add157.i.i.i.i.i, 64
  %cmp15.not.i.i.i.i133.i = icmp sgt i32 %add.i.i.i.i132.i, %164
  br i1 %cmp15.not.i.i.i.i133.i, label %for.end.i.i.i7.i.i, label %for.body.i.i.i6.i.i, !llvm.loop !61

for.end.i.i.i7.i.i:                               ; preds = %_ZZN8facebook5velox4bits10forEachBitIZNS0_9functions12_GLOBAL__N_113applyMapTypedILNS0_8TypeKindE0EEESt10shared_ptrINS0_10BaseVectorEEbRS7_INS3_15LookupTableBaseEERKNS0_17SelectivityVectorERKS9_SH_RNS0_4exec7EvalCtxEEUliE0_EEvPKmiibT_ENKUliE_clEi.exit.i.i.i.i.i, %if.end14.i.i.i.i130.i
  %cmp18.not.i.i.i.i134.i = icmp eq i32 %164, %162
  br i1 %cmp18.not.i.i.i.i134.i, label %if.end62.i, label %if.then19.i.i.i.i135.i

if.then19.i.i.i.i135.i:                           ; preds = %for.end.i.i.i7.i.i
  %div20.i.i.i.i136.i = ashr i32 %162, 6
  %sub21.i.i.i.i137.i = and i32 %162, 63
  %sh_prom.i108.i.i.i.i.i = zext nneg i32 %sub21.i.i.i.i137.i to i64
  %notmask.i109.i.i.i.i.i = shl nsw i64 -1, %sh_prom.i108.i.i.i.i.i
  %sub.i110.i.i.i.i.i = xor i64 %notmask.i109.i.i.i.i.i, -1
  %idxprom2.i111.i.i.i.i.i = sext i32 %div20.i.i.i.i136.i to i64
  %arrayidx3.i112.i.i.i.i.i = getelementptr inbounds i64, ptr %160, i64 %idxprom2.i111.i.i.i.i.i
  %207 = load i64, ptr %arrayidx3.i112.i.i.i.i.i, align 8
  %and.i116.i.i.i.i.i = and i64 %207, %sub.i110.i.i.i.i.i
  %tobool4.not.i117.i.i.i.i.i = icmp eq i64 %and.i116.i.i.i.i.i, 0
  br i1 %tobool4.not.i117.i.i.i.i.i, label %if.end62.i, label %while.body.i120.i.i.i.i.preheader.i

while.body.i120.i.i.i.i.preheader.i:              ; preds = %if.then19.i.i.i.i135.i
  %data_.i.i.i127.i.i.i.i.i = getelementptr inbounds %"class.facebook::velox::DecodedVector", ptr %call48.i, i64 0, i32 2
  %isIdentityMapping_.i.i.i.i128.i.i.i.i.i = getelementptr inbounds %"class.facebook::velox::DecodedVector", ptr %call48.i, i64 0, i32 8
  %constantIndex_.i.i.i.i146.i.i.i.i.i = getelementptr inbounds %"class.facebook::velox::DecodedVector", ptr %call48.i, i64 0, i32 11
  %indices_.i.i.i.i148.i.i.i.i.i = getelementptr inbounds %"class.facebook::velox::DecodedVector", ptr %call48.i, i64 0, i32 1
  br label %while.body.i120.i.i.i.i.i

while.body.i120.i.i.i.i.i:                        ; preds = %.noexc211.i, %while.body.i120.i.i.i.i.preheader.i
  %word.0.i121.i.i.i.i.i = phi i64 [ %and6.i140.i.i.i.i.i, %.noexc211.i ], [ %and.i116.i.i.i.i.i, %while.body.i120.i.i.i.i.preheader.i ]
  %208 = call i64 @llvm.cttz.i64(i64 %word.0.i121.i.i.i.i.i, i1 true), !range !17
  %cast.i122.i.i.i.i.i = trunc i64 %208 to i32
  %add.i123.i.i.i.i.i = or disjoint i32 %164, %cast.i122.i.i.i.i.i
  %209 = load ptr, ptr %data_.i.i.i127.i.i.i.i.i, align 8
  %210 = load i8, ptr %isIdentityMapping_.i.i.i.i128.i.i.i.i.i, align 2
  %211 = and i8 %210, 1
  %tobool.not.i.i.i.i129.i.i.i.i.i = icmp eq i8 %211, 0
  br i1 %tobool.not.i.i.i.i129.i.i.i.i.i, label %if.end.i.i.i.i142.i.i.i.i.i, label %_ZZN8facebook5velox9functions12_GLOBAL__N_113applyMapTypedILNS0_8TypeKindE0EEESt10shared_ptrINS0_10BaseVectorEEbRS5_INS1_15LookupTableBaseEERKNS0_17SelectivityVectorERKS7_SF_RNS0_4exec7EvalCtxEENKUliE0_clEi.exit.i130.i.i.i.i.i

if.end.i.i.i.i142.i.i.i.i.i:                      ; preds = %while.body.i120.i.i.i.i.i
  %212 = load i8, ptr %isConstantMapping_.i.i, align 1
  %213 = and i8 %212, 1
  %tobool2.not.i.i.i.i144.i.i.i.i.i = icmp eq i8 %213, 0
  br i1 %tobool2.not.i.i.i.i144.i.i.i.i.i, label %if.end4.i.i.i.i147.i.i.i.i.i, label %if.then3.i.i.i.i145.i.i.i.i.i

if.then3.i.i.i.i145.i.i.i.i.i:                    ; preds = %if.end.i.i.i.i142.i.i.i.i.i
  %214 = load i32, ptr %constantIndex_.i.i.i.i146.i.i.i.i.i, align 8
  br label %_ZZN8facebook5velox9functions12_GLOBAL__N_113applyMapTypedILNS0_8TypeKindE0EEESt10shared_ptrINS0_10BaseVectorEEbRS5_INS1_15LookupTableBaseEERKNS0_17SelectivityVectorERKS7_SF_RNS0_4exec7EvalCtxEENKUliE0_clEi.exit.i130.i.i.i.i.i

if.end4.i.i.i.i147.i.i.i.i.i:                     ; preds = %if.end.i.i.i.i142.i.i.i.i.i
  %215 = load ptr, ptr %indices_.i.i.i.i148.i.i.i.i.i, align 8
  %idxprom.i.i.i.i149.i.i.i.i.i = sext i32 %add.i123.i.i.i.i.i to i64
  %arrayidx.i.i.i.i150.i.i.i.i.i = getelementptr inbounds i32, ptr %215, i64 %idxprom.i.i.i.i149.i.i.i.i.i
  %216 = load i32, ptr %arrayidx.i.i.i.i150.i.i.i.i.i, align 4
  br label %_ZZN8facebook5velox9functions12_GLOBAL__N_113applyMapTypedILNS0_8TypeKindE0EEESt10shared_ptrINS0_10BaseVectorEEbRS5_INS1_15LookupTableBaseEERKNS0_17SelectivityVectorERKS7_SF_RNS0_4exec7EvalCtxEENKUliE0_clEi.exit.i130.i.i.i.i.i

_ZZN8facebook5velox9functions12_GLOBAL__N_113applyMapTypedILNS0_8TypeKindE0EEESt10shared_ptrINS0_10BaseVectorEEbRS5_INS1_15LookupTableBaseEERKNS0_17SelectivityVectorERKS7_SF_RNS0_4exec7EvalCtxEENKUliE0_clEi.exit.i130.i.i.i.i.i: ; preds = %if.end4.i.i.i.i147.i.i.i.i.i, %if.then3.i.i.i.i145.i.i.i.i.i, %while.body.i120.i.i.i.i.i
  %retval.0.i.i.i.i131.i.i.i.i.i = phi i32 [ %214, %if.then3.i.i.i.i145.i.i.i.i.i ], [ %216, %if.end4.i.i.i.i147.i.i.i.i.i ], [ %add.i123.i.i.i.i.i, %while.body.i120.i.i.i.i.i ]
  %conv.i.i.i.i132.i.i.i.i.i = sext i32 %retval.0.i.i.i.i131.i.i.i.i.i to i64
  %div2.i.i.i.i133.i.i.i.i.i = lshr i64 %conv.i.i.i.i132.i.i.i.i.i, 6
  %arrayidx.i1.i.i.i134.i.i.i.i.i = getelementptr inbounds i64, ptr %209, i64 %div2.i.i.i.i133.i.i.i.i.i
  %217 = load i64, ptr %arrayidx.i1.i.i.i134.i.i.i.i.i, align 8
  %and.i.i.i.i135.i.i.i.i.i = and i64 %conv.i.i.i.i132.i.i.i.i.i, 63
  %shl.i.i.i.i136.i.i.i.i.i = shl nuw i64 1, %and.i.i.i.i135.i.i.i.i.i
  %and2.i.i.i.i137.i.i.i.i.i = and i64 %shl.i.i.i.i136.i.i.i.i.i, %217
  %tobool.i.i.i.i138.i.i.i.i.i = icmp ne i64 %and2.i.i.i.i137.i.i.i.i.i, 0
  invoke fastcc void @_ZZN8facebook5velox9functions12_GLOBAL__N_113applyMapTypedILNS0_8TypeKindE0EEESt10shared_ptrINS0_10BaseVectorEEbRS5_INS1_15LookupTableBaseEERKNS0_17SelectivityVectorERKS7_SF_RNS0_4exec7EvalCtxEENKUlibE_clEib(ptr noundef nonnull align 8 dereferenceable(64) %processRow.i, i32 noundef %add.i123.i.i.i.i.i, i1 noundef zeroext %tobool.i.i.i.i138.i.i.i.i.i)
          to label %.noexc211.i unwind label %lpad46.loopexit.split-lp.loopexit.i

.noexc211.i:                                      ; preds = %_ZZN8facebook5velox9functions12_GLOBAL__N_113applyMapTypedILNS0_8TypeKindE0EEESt10shared_ptrINS0_10BaseVectorEEbRS5_INS1_15LookupTableBaseEERKNS0_17SelectivityVectorERKS7_SF_RNS0_4exec7EvalCtxEENKUliE0_clEi.exit.i130.i.i.i.i.i
  %sub.i139.i.i.i.i.i = add nsw i64 %word.0.i121.i.i.i.i.i, -1
  %and6.i140.i.i.i.i.i = and i64 %sub.i139.i.i.i.i.i, %word.0.i121.i.i.i.i.i
  %tobool5.old.not.i141.i.i.i.i.i = icmp eq i64 %and6.i140.i.i.i.i.i, 0
  br i1 %tobool5.old.not.i141.i.i.i.i.i, label %if.end62.i, label %while.body.i120.i.i.i.i.i

if.end62.i:                                       ; preds = %.noexc80.i, %.noexc85.i, %.noexc81.i, %.noexc206.i, %.noexc211.i, %.noexc207.i, %if.then19.i.i.i.i135.i, %for.end.i.i.i7.i.i, %if.then3.i.i.i8.i.i, %if.else.i102.i, %if.then.i95.i, %if.then19.i.i.i.i.i, %for.end.i.i.i6.i.i, %if.then3.i.i.i.i.i, %if.else.i.i, %if.then.i68.i
  %values_.i.i = getelementptr inbounds %"class.facebook::velox::MapVector", ptr %53, i64 0, i32 2
  %218 = load ptr, ptr %values_.i.i, align 8
  %length_.i212.i = getelementptr inbounds %"class.facebook::velox::BaseVector", ptr %218, i64 0, i32 8
  %219 = load i32, ptr %length_.i212.i, align 8
  %cmp.i = icmp eq i32 %219, 0
  br i1 %cmp.i, label %invoke.cont75.i, label %if.end78.i

invoke.cont75.i:                                  ; preds = %if.end62.i
  %type_.i.i = getelementptr inbounds %"class.facebook::velox::BaseVector", ptr %218, i64 0, i32 1
  %220 = load i32, ptr %end_.i.i, align 8, !noalias !37
  %221 = load ptr, ptr %14, align 8, !noalias !37
  %222 = load ptr, ptr %221, align 8
  invoke void @_ZN8facebook5velox10BaseVector18createNullConstantERKSt10shared_ptrIKNS0_4TypeEEiPNS0_6memory10MemoryPoolE(ptr sret(%"class.std::shared_ptr") align 8 %agg.result, ptr noundef nonnull align 8 dereferenceable(16) %type_.i.i, i32 noundef %220, ptr noundef %222)
          to label %cleanup.i unwind label %lpad46.loopexit.split-lp.loopexit.split-lp.loopexit.split-lp.loopexit.split-lp.loopexit.split-lp.loopexit.split-lp.loopexit.split-lp.loopexit.split-lp.loopexit.split-lp.loopexit.split-lp.loopexit.split-lp.loopexit.split-lp.i

if.end78.i:                                       ; preds = %if.end62.i
  call void @llvm.experimental.noalias.scope.decl(metadata !62)
  %223 = load ptr, ptr %nulls_.i.i, align 8, !noalias !65
  store ptr %223, ptr %agg.tmp79.i, align 8, !alias.scope !62, !noalias !37
  %cmp.not.i.i216.i = icmp eq ptr %223, null
  br i1 %cmp.not.i.i216.i, label %invoke.cont80.i, label %if.then.i.i.i

if.then.i.i.i:                                    ; preds = %if.end78.i
  %referenceCount_.i.i.i.i217.i = getelementptr inbounds %"class.facebook::velox::Buffer", ptr %223, i64 0, i32 5
  %224 = atomicrmw add ptr %referenceCount_.i.i.i.i217.i, i32 1 seq_cst, align 4, !noalias !62
  br label %invoke.cont80.i

invoke.cont80.i:                                  ; preds = %if.then.i.i.i, %if.end78.i
  %225 = load ptr, ptr %indices.i, align 8, !noalias !37
  store ptr %225, ptr %agg.tmp81.i, align 8, !noalias !37
  %cmp.not.i.i = icmp eq ptr %225, null
  br i1 %cmp.not.i.i, label %invoke.cont83.i, label %if.then.i218.i

if.then.i218.i:                                   ; preds = %invoke.cont80.i
  %referenceCount_.i.i.i.i = getelementptr inbounds %"class.facebook::velox::Buffer", ptr %225, i64 0, i32 5
  %226 = atomicrmw add ptr %referenceCount_.i.i.i.i, i32 1 seq_cst, align 4
  br label %invoke.cont83.i

invoke.cont83.i:                                  ; preds = %if.then.i218.i, %invoke.cont80.i
  %227 = load i32, ptr %end_.i.i, align 8, !noalias !37
  %_M_refcount.i.i221.i = getelementptr inbounds %"class.std::__shared_ptr", ptr %agg.tmp87.i, i64 0, i32 1
  %228 = load <2 x ptr>, ptr %values_.i.i, align 8
  store <2 x ptr> %228, ptr %agg.tmp87.i, align 16, !noalias !37
  %229 = extractelement <2 x ptr> %228, i64 1
  %cmp.not.i.i.i223.i = icmp eq ptr %229, null
  br i1 %cmp.not.i.i.i223.i, label %_ZNSt10shared_ptrIN8facebook5velox10BaseVectorEEC2ERKS3_.exit230.i, label %if.then.i.i.i224.i

if.then.i.i.i224.i:                               ; preds = %invoke.cont83.i
  %_M_use_count.i.i.i.i225.i = getelementptr inbounds %"class.std::_Sp_counted_base", ptr %229, i64 0, i32 1
  %230 = load i8, ptr @__libc_single_threaded, align 1, !noalias !37
  %tobool.i.not.i.i.i.i226.i = icmp eq i8 %230, 0
  br i1 %tobool.i.not.i.i.i.i226.i, label %if.else.i.i.i.i.i229.i, label %if.then.i.i.i.i.i227.i

if.then.i.i.i.i.i227.i:                           ; preds = %if.then.i.i.i224.i
  %231 = load i32, ptr %_M_use_count.i.i.i.i225.i, align 4
  %add.i.i.i.i.i228.i = add nsw i32 %231, 1
  store i32 %add.i.i.i.i.i228.i, ptr %_M_use_count.i.i.i.i225.i, align 4
  br label %_ZNSt10shared_ptrIN8facebook5velox10BaseVectorEEC2ERKS3_.exit230.i

if.else.i.i.i.i.i229.i:                           ; preds = %if.then.i.i.i224.i
  %232 = atomicrmw volatile add ptr %_M_use_count.i.i.i.i225.i, i32 1 acq_rel, align 4
  br label %_ZNSt10shared_ptrIN8facebook5velox10BaseVectorEEC2ERKS3_.exit230.i

_ZNSt10shared_ptrIN8facebook5velox10BaseVectorEEC2ERKS3_.exit230.i: ; preds = %if.else.i.i.i.i.i229.i, %if.then.i.i.i.i.i227.i, %invoke.cont83.i
  invoke void @_ZN8facebook5velox10BaseVector16wrapInDictionaryEN5boost13intrusive_ptrINS0_6BufferEEES5_iSt10shared_ptrIS1_E(ptr sret(%"class.std::shared_ptr") align 8 %agg.result, ptr noundef nonnull %agg.tmp79.i, ptr noundef nonnull %agg.tmp81.i, i32 noundef %227, ptr noundef nonnull %agg.tmp87.i)
          to label %invoke.cont91.i unwind label %lpad90.i

invoke.cont91.i:                                  ; preds = %_ZNSt10shared_ptrIN8facebook5velox10BaseVectorEEC2ERKS3_.exit230.i
  %233 = load ptr, ptr %_M_refcount.i.i221.i, align 8, !noalias !37
  %cmp.not.i.i.i232.i = icmp eq ptr %233, null
  br i1 %cmp.not.i.i.i232.i, label %_ZNSt10shared_ptrIN8facebook5velox10BaseVectorEED2Ev.exit.i, label %if.then.i.i.i233.i

if.then.i.i.i233.i:                               ; preds = %invoke.cont91.i
  %_M_use_count.i.i.i.i234.i = getelementptr inbounds %"class.std::_Sp_counted_base", ptr %233, i64 0, i32 1
  %234 = load atomic i64, ptr %_M_use_count.i.i.i.i234.i acquire, align 8
  %cmp.i.i.i.i235.i = icmp eq i64 %234, 4294967297
  %235 = trunc i64 %234 to i32
  br i1 %cmp.i.i.i.i235.i, label %if.then.i.i.i.i258.i, label %if.end.i.i.i.i236.i

if.then.i.i.i.i258.i:                             ; preds = %if.then.i.i.i233.i
  store i32 0, ptr %_M_use_count.i.i.i.i234.i, align 8
  %_M_weak_count.i.i.i.i259.i = getelementptr inbounds %"class.std::_Sp_counted_base", ptr %233, i64 0, i32 2
  store i32 0, ptr %_M_weak_count.i.i.i.i259.i, align 4
  %vtable.i.i.i.i260.i = load ptr, ptr %233, align 8
  %vfn.i.i.i.i261.i = getelementptr inbounds ptr, ptr %vtable.i.i.i.i260.i, i64 2
  %236 = load ptr, ptr %vfn.i.i.i.i261.i, align 8
  call void %236(ptr noundef nonnull align 8 dereferenceable(16) %233) #26
  br label %if.end8.sink.split.i.i.i.i253.i

if.end.i.i.i.i236.i:                              ; preds = %if.then.i.i.i233.i
  %237 = load i8, ptr @__libc_single_threaded, align 1, !noalias !37
  %tobool.i.i.not.i.i.i.i237.i = icmp eq i8 %237, 0
  br i1 %tobool.i.i.not.i.i.i.i237.i, label %if.else.i.i.i.i.i257.i, label %if.then.i.i.i.i.i238.i

if.then.i.i.i.i.i238.i:                           ; preds = %if.end.i.i.i.i236.i
  %add.i.i.i.i.i239.i = add nsw i32 %235, -1
  store i32 %add.i.i.i.i.i239.i, ptr %_M_use_count.i.i.i.i234.i, align 4
  br label %_ZN9__gnu_cxx27__exchange_and_add_dispatchEPii.exit.i.i.i.i240.i

if.else.i.i.i.i.i257.i:                           ; preds = %if.end.i.i.i.i236.i
  %238 = atomicrmw volatile add ptr %_M_use_count.i.i.i.i234.i, i32 -1 acq_rel, align 4
  br label %_ZN9__gnu_cxx27__exchange_and_add_dispatchEPii.exit.i.i.i.i240.i

_ZN9__gnu_cxx27__exchange_and_add_dispatchEPii.exit.i.i.i.i240.i: ; preds = %if.else.i.i.i.i.i257.i, %if.then.i.i.i.i.i238.i
  %retval.i.0.i.i.i.i241.i = phi i32 [ %235, %if.then.i.i.i.i.i238.i ], [ %238, %if.else.i.i.i.i.i257.i ]
  %cmp6.i.i.i.i242.i = icmp eq i32 %retval.i.0.i.i.i.i241.i, 1
  br i1 %cmp6.i.i.i.i242.i, label %if.then7.i.i.i.i243.i, label %_ZNSt10shared_ptrIN8facebook5velox10BaseVectorEED2Ev.exit.i

if.then7.i.i.i.i243.i:                            ; preds = %_ZN9__gnu_cxx27__exchange_and_add_dispatchEPii.exit.i.i.i.i240.i
  %vtable.i.i.i.i.i.i244.i = load ptr, ptr %233, align 8
  %vfn.i.i.i.i.i.i245.i = getelementptr inbounds ptr, ptr %vtable.i.i.i.i.i.i244.i, i64 2
  %239 = load ptr, ptr %vfn.i.i.i.i.i.i245.i, align 8
  call void %239(ptr noundef nonnull align 8 dereferenceable(16) %233) #26
  %_M_weak_count.i.i.i.i.i.i246.i = getelementptr inbounds %"class.std::_Sp_counted_base", ptr %233, i64 0, i32 2
  %240 = load i8, ptr @__libc_single_threaded, align 1, !noalias !37
  %tobool.i.i.not.i.i.i.i.i.i247.i = icmp eq i8 %240, 0
  br i1 %tobool.i.i.not.i.i.i.i.i.i247.i, label %if.else.i.i.i.i.i.i.i256.i, label %if.then.i.i.i.i.i.i.i248.i

if.then.i.i.i.i.i.i.i248.i:                       ; preds = %if.then7.i.i.i.i243.i
  %241 = load i32, ptr %_M_weak_count.i.i.i.i.i.i246.i, align 4
  %add.i.i.i.i.i.i.i249.i = add nsw i32 %241, -1
  store i32 %add.i.i.i.i.i.i.i249.i, ptr %_M_weak_count.i.i.i.i.i.i246.i, align 4
  br label %_ZN9__gnu_cxx27__exchange_and_add_dispatchEPii.exit.i.i.i.i.i.i250.i

if.else.i.i.i.i.i.i.i256.i:                       ; preds = %if.then7.i.i.i.i243.i
  %242 = atomicrmw volatile add ptr %_M_weak_count.i.i.i.i.i.i246.i, i32 -1 acq_rel, align 4
  br label %_ZN9__gnu_cxx27__exchange_and_add_dispatchEPii.exit.i.i.i.i.i.i250.i

_ZN9__gnu_cxx27__exchange_and_add_dispatchEPii.exit.i.i.i.i.i.i250.i: ; preds = %if.else.i.i.i.i.i.i.i256.i, %if.then.i.i.i.i.i.i.i248.i
  %retval.i.0.i.i.i.i.i.i251.i = phi i32 [ %241, %if.then.i.i.i.i.i.i.i248.i ], [ %242, %if.else.i.i.i.i.i.i.i256.i ]
  %cmp.i.i.i.i.i.i252.i = icmp eq i32 %retval.i.0.i.i.i.i.i.i251.i, 1
  br i1 %cmp.i.i.i.i.i.i252.i, label %if.end8.sink.split.i.i.i.i253.i, label %_ZNSt10shared_ptrIN8facebook5velox10BaseVectorEED2Ev.exit.i

if.end8.sink.split.i.i.i.i253.i:                  ; preds = %_ZN9__gnu_cxx27__exchange_and_add_dispatchEPii.exit.i.i.i.i.i.i250.i, %if.then.i.i.i.i258.i
  %vtable2.i.i.i.i.i.i254.i = load ptr, ptr %233, align 8
  %vfn3.i.i.i.i.i.i255.i = getelementptr inbounds ptr, ptr %vtable2.i.i.i.i.i.i254.i, i64 3
  %243 = load ptr, ptr %vfn3.i.i.i.i.i.i255.i, align 8
  call void %243(ptr noundef nonnull align 8 dereferenceable(16) %233) #26
  br label %_ZNSt10shared_ptrIN8facebook5velox10BaseVectorEED2Ev.exit.i

_ZNSt10shared_ptrIN8facebook5velox10BaseVectorEED2Ev.exit.i: ; preds = %if.end8.sink.split.i.i.i.i253.i, %_ZN9__gnu_cxx27__exchange_and_add_dispatchEPii.exit.i.i.i.i.i.i250.i, %_ZN9__gnu_cxx27__exchange_and_add_dispatchEPii.exit.i.i.i.i240.i, %invoke.cont91.i
  %244 = load ptr, ptr %agg.tmp81.i, align 8, !noalias !37
  %cmp.not.i262.i = icmp eq ptr %244, null
  br i1 %cmp.not.i262.i, label %_ZN5boost13intrusive_ptrIN8facebook5velox6BufferEED2Ev.exit.i, label %if.then.i263.i

if.then.i263.i:                                   ; preds = %_ZNSt10shared_ptrIN8facebook5velox10BaseVectorEED2Ev.exit.i
  %referenceCount_.i.i.i264.i = getelementptr inbounds %"class.facebook::velox::Buffer", ptr %244, i64 0, i32 5
  %245 = atomicrmw sub ptr %referenceCount_.i.i.i264.i, i32 1 seq_cst, align 4
  %cmp.i.i.i.i = icmp eq i32 %245, 1
  br i1 %cmp.i.i.i.i, label %if.then.i.i.i265.i, label %_ZN5boost13intrusive_ptrIN8facebook5velox6BufferEED2Ev.exit.i

if.then.i.i.i265.i:                               ; preds = %if.then.i263.i
  %vtable.i.i.i.i = load ptr, ptr %244, align 8
  %vfn.i.i.i.i = getelementptr inbounds ptr, ptr %vtable.i.i.i.i, i64 8
  %246 = load ptr, ptr %vfn.i.i.i.i, align 8
  invoke void %246(ptr noundef nonnull align 8 dereferenceable(64) %244)
          to label %.noexc.i.i unwind label %terminate.lpad.i.i

.noexc.i.i:                                       ; preds = %if.then.i.i.i265.i
  %pool_.i.i.i.i = getelementptr inbounds %"class.facebook::velox::Buffer", ptr %244, i64 0, i32 1
  %247 = load ptr, ptr %pool_.i.i.i.i, align 8
  %tobool.not.i.i.i.i = icmp eq ptr %247, null
  %vtable5.i.i.i.i = load ptr, ptr %244, align 8
  br i1 %tobool.not.i.i.i.i, label %delete.notnull.i.i.i.i, label %if.then2.i.i.i.i

if.then2.i.i.i.i:                                 ; preds = %.noexc.i.i
  %vfn4.i.i.i.i = getelementptr inbounds ptr, ptr %vtable5.i.i.i.i, i64 6
  %248 = load ptr, ptr %vfn4.i.i.i.i, align 8
  invoke void %248(ptr noundef nonnull align 8 dereferenceable(64) %244)
          to label %_ZN5boost13intrusive_ptrIN8facebook5velox6BufferEED2Ev.exit.i unwind label %terminate.lpad.i.i

delete.notnull.i.i.i.i:                           ; preds = %.noexc.i.i
  %vfn6.i.i.i.i = getelementptr inbounds ptr, ptr %vtable5.i.i.i.i, i64 1
  %249 = load ptr, ptr %vfn6.i.i.i.i, align 8
  call void %249(ptr noundef nonnull align 8 dereferenceable(64) %244) #26
  br label %_ZN5boost13intrusive_ptrIN8facebook5velox6BufferEED2Ev.exit.i

terminate.lpad.i.i:                               ; preds = %if.then2.i.i.i.i, %if.then.i.i.i265.i
  %250 = landingpad { ptr, i32 }
          catch ptr null
  %251 = extractvalue { ptr, i32 } %250, 0
  call void @__clang_call_terminate(ptr %251) #30
  unreachable

_ZN5boost13intrusive_ptrIN8facebook5velox6BufferEED2Ev.exit.i: ; preds = %delete.notnull.i.i.i.i, %if.then2.i.i.i.i, %if.then.i263.i, %_ZNSt10shared_ptrIN8facebook5velox10BaseVectorEED2Ev.exit.i
  %252 = load ptr, ptr %agg.tmp79.i, align 8, !noalias !37
  %cmp.not.i266.i = icmp eq ptr %252, null
  br i1 %cmp.not.i266.i, label %cleanup.i, label %if.then.i267.i

if.then.i267.i:                                   ; preds = %_ZN5boost13intrusive_ptrIN8facebook5velox6BufferEED2Ev.exit.i
  %referenceCount_.i.i.i268.i = getelementptr inbounds %"class.facebook::velox::Buffer", ptr %252, i64 0, i32 5
  %253 = atomicrmw sub ptr %referenceCount_.i.i.i268.i, i32 1 seq_cst, align 4
  %cmp.i.i.i269.i = icmp eq i32 %253, 1
  br i1 %cmp.i.i.i269.i, label %if.then.i.i.i270.i, label %cleanup.i

if.then.i.i.i270.i:                               ; preds = %if.then.i267.i
  %vtable.i.i.i271.i = load ptr, ptr %252, align 8
  %vfn.i.i.i272.i = getelementptr inbounds ptr, ptr %vtable.i.i.i271.i, i64 8
  %254 = load ptr, ptr %vfn.i.i.i272.i, align 8
  invoke void %254(ptr noundef nonnull align 8 dereferenceable(64) %252)
          to label %.noexc.i274.i unwind label %terminate.lpad.i273.i

.noexc.i274.i:                                    ; preds = %if.then.i.i.i270.i
  %pool_.i.i.i275.i = getelementptr inbounds %"class.facebook::velox::Buffer", ptr %252, i64 0, i32 1
  %255 = load ptr, ptr %pool_.i.i.i275.i, align 8
  %tobool.not.i.i.i276.i = icmp eq ptr %255, null
  %vtable5.i.i.i277.i = load ptr, ptr %252, align 8
  br i1 %tobool.not.i.i.i276.i, label %delete.notnull.i.i.i280.i, label %if.then2.i.i.i278.i

if.then2.i.i.i278.i:                              ; preds = %.noexc.i274.i
  %vfn4.i.i.i279.i = getelementptr inbounds ptr, ptr %vtable5.i.i.i277.i, i64 6
  %256 = load ptr, ptr %vfn4.i.i.i279.i, align 8
  invoke void %256(ptr noundef nonnull align 8 dereferenceable(64) %252)
          to label %cleanup.i unwind label %terminate.lpad.i273.i

delete.notnull.i.i.i280.i:                        ; preds = %.noexc.i274.i
  %vfn6.i.i.i281.i = getelementptr inbounds ptr, ptr %vtable5.i.i.i277.i, i64 1
  %257 = load ptr, ptr %vfn6.i.i.i281.i, align 8
  call void %257(ptr noundef nonnull align 8 dereferenceable(64) %252) #26
  br label %cleanup.i

terminate.lpad.i273.i:                            ; preds = %if.then2.i.i.i278.i, %if.then.i.i.i270.i
  %258 = landingpad { ptr, i32 }
          catch ptr null
  %259 = extractvalue { ptr, i32 } %258, 0
  call void @__clang_call_terminate(ptr %259) #30
  unreachable

lpad90.i:                                         ; preds = %_ZNSt10shared_ptrIN8facebook5velox10BaseVectorEEC2ERKS3_.exit230.i
  %260 = landingpad { ptr, i32 }
          cleanup
  call void @_ZNSt10shared_ptrIN8facebook5velox10BaseVectorEED2Ev(ptr noundef nonnull align 8 dereferenceable(16) %agg.tmp87.i) #26
  call void @_ZN5boost13intrusive_ptrIN8facebook5velox6BufferEED2Ev(ptr noundef nonnull align 8 dereferenceable(8) %agg.tmp81.i) #26
  call void @_ZN5boost13intrusive_ptrIN8facebook5velox6BufferEED2Ev(ptr noundef nonnull align 8 dereferenceable(8) %agg.tmp79.i) #26
  br label %ehcleanup93.i

cleanup.i:                                        ; preds = %delete.notnull.i.i.i280.i, %if.then2.i.i.i278.i, %if.then.i267.i, %_ZN5boost13intrusive_ptrIN8facebook5velox6BufferEED2Ev.exit.i, %invoke.cont75.i
  call void @_ZN8facebook5velox4exec18LocalDecodedVectorD2Ev(ptr noundef nonnull align 8 dereferenceable(16) %indexHolder.i) #26
  call void @_ZN8facebook5velox4exec18LocalDecodedVectorD2Ev(ptr noundef nonnull align 8 dereferenceable(16) %mapKeysHolder.i) #26
  %261 = load ptr, ptr %vector_.i49.i, align 8, !noalias !37
  %cmp.i.not.i.i = icmp eq ptr %261, null
  %262 = ptrtoint ptr %261 to i64
  br i1 %cmp.i.not.i.i, label %_ZN8facebook5velox4exec22LocalSelectivityVectorD2Ev.exit.i, label %if.then.i284.i

if.then.i284.i:                                   ; preds = %cleanup.i
  %263 = load ptr, ptr %allElementRows.i, align 8, !noalias !37
  %exprEvalCacheEnabled_.i.i.i = getelementptr inbounds %"class.facebook::velox::core::ExecCtx", ptr %263, i64 0, i32 2
  %264 = load i8, ptr %exprEvalCacheEnabled_.i.i.i, align 8
  %265 = and i8 %264, 1
  %tobool.not.i.not.i.i = icmp eq i8 %265, 0
  br i1 %tobool.not.i.not.i.i, label %delete.notnull.i.i.i289.i, label %if.then.i.i285.i

if.then.i.i285.i:                                 ; preds = %if.then.i284.i
  %_M_finish.i.i.i.i.i = getelementptr inbounds %"class.facebook::velox::core::ExecCtx", ptr %263, i64 0, i32 4, i32 0, i32 0, i32 0, i32 1
  %266 = load ptr, ptr %_M_finish.i.i.i.i.i, align 8
  %_M_end_of_storage.i.i.i.i.i = getelementptr inbounds %"class.facebook::velox::core::ExecCtx", ptr %263, i64 0, i32 4, i32 0, i32 0, i32 0, i32 2
  %267 = load ptr, ptr %_M_end_of_storage.i.i.i.i.i, align 8
  %cmp.not.i.i.i.i286.i = icmp eq ptr %266, %267
  br i1 %cmp.not.i.i.i.i286.i, label %if.else.i.i.i.i.i, label %if.end.i.thread.i

if.end.i.thread.i:                                ; preds = %if.then.i.i285.i
  store i64 %262, ptr %266, align 8
  %268 = load ptr, ptr %_M_finish.i.i.i.i.i, align 8
  %incdec.ptr.i.i.i.i.i = getelementptr inbounds %"class.std::unique_ptr.64", ptr %268, i64 1
  store ptr %incdec.ptr.i.i.i.i.i, ptr %_M_finish.i.i.i.i.i, align 8
  br label %_ZN8facebook5velox4exec22LocalSelectivityVectorD2Ev.exit.i

if.else.i.i.i.i.i:                                ; preds = %if.then.i.i285.i
  %selectivityVectorPool_.i.i.i = getelementptr inbounds %"class.facebook::velox::core::ExecCtx", ptr %263, i64 0, i32 4
  %269 = load ptr, ptr %selectivityVectorPool_.i.i.i, align 8
  %sub.ptr.lhs.cast.i.i.i.i = ptrtoint ptr %266 to i64
  %sub.ptr.rhs.cast.i.i.i.i = ptrtoint ptr %269 to i64
  %sub.ptr.sub.i.i.i.i = sub i64 %sub.ptr.lhs.cast.i.i.i.i, %sub.ptr.rhs.cast.i.i.i.i
  %cmp.i.i352.i = icmp eq i64 %sub.ptr.sub.i.i.i.i, 9223372036854775800
  br i1 %cmp.i.i352.i, label %if.then.i.i358.i, label %_ZNKSt6vectorISt10unique_ptrIN8facebook5velox17SelectivityVectorESt14default_deleteIS3_EESaIS6_EE12_M_check_lenEmPKc.exit.i.i

if.then.i.i358.i:                                 ; preds = %if.else.i.i.i.i.i
  invoke void @_ZSt20__throw_length_errorPKc(ptr noundef nonnull @.str.11) #28
          to label %.noexc359.i unwind label %terminate.lpad.i291.i

.noexc359.i:                                      ; preds = %if.then.i.i358.i
  unreachable

_ZNKSt6vectorISt10unique_ptrIN8facebook5velox17SelectivityVectorESt14default_deleteIS3_EESaIS6_EE12_M_check_lenEmPKc.exit.i.i: ; preds = %if.else.i.i.i.i.i
  %sub.ptr.div.i.i.i.i = ashr exact i64 %sub.ptr.sub.i.i.i.i, 3
  %.sroa.speculated.i.i.i = call i64 @llvm.umax.i64(i64 %sub.ptr.div.i.i.i.i, i64 1)
  %add.i.i.i = add i64 %.sroa.speculated.i.i.i, %sub.ptr.div.i.i.i.i
  %cmp7.i.i.i = icmp ult i64 %add.i.i.i, %sub.ptr.div.i.i.i.i
  %cmp9.i.i.i = icmp ugt i64 %add.i.i.i, 1152921504606846975
  %or.cond.i.i.i = or i1 %cmp7.i.i.i, %cmp9.i.i.i
  %cond.i.i.i = select i1 %or.cond.i.i.i, i64 1152921504606846975, i64 %add.i.i.i
  %cmp.not.i.i353.i = icmp eq i64 %cond.i.i.i, 0
  br i1 %cmp.not.i.i353.i, label %_ZNSt12_Vector_baseISt10unique_ptrIN8facebook5velox17SelectivityVectorESt14default_deleteIS3_EESaIS6_EE11_M_allocateEm.exit.i.i, label %_ZNSt16allocator_traitsISaISt10unique_ptrIN8facebook5velox17SelectivityVectorESt14default_deleteIS3_EEEE8allocateERS7_m.exit.i.i.i

_ZNSt16allocator_traitsISaISt10unique_ptrIN8facebook5velox17SelectivityVectorESt14default_deleteIS3_EEEE8allocateERS7_m.exit.i.i.i: ; preds = %_ZNKSt6vectorISt10unique_ptrIN8facebook5velox17SelectivityVectorESt14default_deleteIS3_EESaIS6_EE12_M_check_lenEmPKc.exit.i.i
  %mul.i.i.i.i.i = shl nuw nsw i64 %cond.i.i.i, 3
  %call5.i.i.i.i360.i = invoke noalias noundef nonnull ptr @_Znwm(i64 noundef %mul.i.i.i.i.i) #27
          to label %_ZNSt12_Vector_baseISt10unique_ptrIN8facebook5velox17SelectivityVectorESt14default_deleteIS3_EESaIS6_EE11_M_allocateEm.exit.i.i unwind label %terminate.lpad.i291.i

_ZNSt12_Vector_baseISt10unique_ptrIN8facebook5velox17SelectivityVectorESt14default_deleteIS3_EESaIS6_EE11_M_allocateEm.exit.i.i: ; preds = %_ZNSt16allocator_traitsISaISt10unique_ptrIN8facebook5velox17SelectivityVectorESt14default_deleteIS3_EEEE8allocateERS7_m.exit.i.i.i, %_ZNKSt6vectorISt10unique_ptrIN8facebook5velox17SelectivityVectorESt14default_deleteIS3_EESaIS6_EE12_M_check_lenEmPKc.exit.i.i
  %cond.i10.i.i = phi ptr [ null, %_ZNKSt6vectorISt10unique_ptrIN8facebook5velox17SelectivityVectorESt14default_deleteIS3_EESaIS6_EE12_M_check_lenEmPKc.exit.i.i ], [ %call5.i.i.i.i360.i, %_ZNSt16allocator_traitsISaISt10unique_ptrIN8facebook5velox17SelectivityVectorESt14default_deleteIS3_EEEE8allocateERS7_m.exit.i.i.i ]
  %add.ptr.i.i = getelementptr inbounds %"class.std::unique_ptr.64", ptr %cond.i10.i.i, i64 %sub.ptr.div.i.i.i.i
  store i64 %262, ptr %add.ptr.i.i, align 8
  store ptr null, ptr %vector_.i49.i, align 8, !noalias !37
  %cmp.not5.i.i.i.i.i = icmp eq ptr %269, %266
  br i1 %cmp.not5.i.i.i.i.i, label %_ZNSt6vectorISt10unique_ptrIN8facebook5velox17SelectivityVectorESt14default_deleteIS3_EESaIS6_EE11_S_relocateEPS6_S9_S9_RS7_.exit19.i.i, label %for.body.i.i.i.i354.i

for.body.i.i.i.i354.i:                            ; preds = %_ZNSt12_Vector_baseISt10unique_ptrIN8facebook5velox17SelectivityVectorESt14default_deleteIS3_EESaIS6_EE11_M_allocateEm.exit.i.i, %for.body.i.i.i.i354.i
  %__cur.07.i.i.i.i.i = phi ptr [ %incdec.ptr1.i.i.i.i.i, %for.body.i.i.i.i354.i ], [ %cond.i10.i.i, %_ZNSt12_Vector_baseISt10unique_ptrIN8facebook5velox17SelectivityVectorESt14default_deleteIS3_EESaIS6_EE11_M_allocateEm.exit.i.i ]
  %__first.addr.06.i.i.i.i.i = phi ptr [ %incdec.ptr.i.i.i.i355.i, %for.body.i.i.i.i354.i ], [ %269, %_ZNSt12_Vector_baseISt10unique_ptrIN8facebook5velox17SelectivityVectorESt14default_deleteIS3_EESaIS6_EE11_M_allocateEm.exit.i.i ]
  call void @llvm.experimental.noalias.scope.decl(metadata !66)
  call void @llvm.experimental.noalias.scope.decl(metadata !69)
  %270 = load i64, ptr %__first.addr.06.i.i.i.i.i, align 8, !alias.scope !69, !noalias !66
  store i64 %270, ptr %__cur.07.i.i.i.i.i, align 8, !alias.scope !66, !noalias !69
  store ptr null, ptr %__first.addr.06.i.i.i.i.i, align 8, !alias.scope !69, !noalias !66
  %incdec.ptr.i.i.i.i355.i = getelementptr inbounds %"class.std::unique_ptr.64", ptr %__first.addr.06.i.i.i.i.i, i64 1
  %incdec.ptr1.i.i.i.i.i = getelementptr inbounds %"class.std::unique_ptr.64", ptr %__cur.07.i.i.i.i.i, i64 1
  %cmp.not.i.i.i.i356.i = icmp eq ptr %incdec.ptr.i.i.i.i355.i, %266
  br i1 %cmp.not.i.i.i.i356.i, label %_ZNSt6vectorISt10unique_ptrIN8facebook5velox17SelectivityVectorESt14default_deleteIS3_EESaIS6_EE11_S_relocateEPS6_S9_S9_RS7_.exit19.i.i, label %for.body.i.i.i.i354.i, !llvm.loop !36

_ZNSt6vectorISt10unique_ptrIN8facebook5velox17SelectivityVectorESt14default_deleteIS3_EESaIS6_EE11_S_relocateEPS6_S9_S9_RS7_.exit19.i.i: ; preds = %for.body.i.i.i.i354.i, %_ZNSt12_Vector_baseISt10unique_ptrIN8facebook5velox17SelectivityVectorESt14default_deleteIS3_EESaIS6_EE11_M_allocateEm.exit.i.i
  %__cur.0.lcssa.i.i.i.i.i = phi ptr [ %cond.i10.i.i, %_ZNSt12_Vector_baseISt10unique_ptrIN8facebook5velox17SelectivityVectorESt14default_deleteIS3_EESaIS6_EE11_M_allocateEm.exit.i.i ], [ %incdec.ptr1.i.i.i.i.i, %for.body.i.i.i.i354.i ]
  %incdec.ptr.i.i = getelementptr %"class.std::unique_ptr.64", ptr %__cur.0.lcssa.i.i.i.i.i, i64 1
  %tobool.not.i.i357.i = icmp eq ptr %269, null
  br i1 %tobool.not.i.i357.i, label %if.end.i.i, label %if.then.i20.i.i

if.then.i20.i.i:                                  ; preds = %_ZNSt6vectorISt10unique_ptrIN8facebook5velox17SelectivityVectorESt14default_deleteIS3_EESaIS6_EE11_S_relocateEPS6_S9_S9_RS7_.exit19.i.i
  call void @_ZdlPv(ptr noundef nonnull %269) #29
  br label %if.end.i.i

if.end.i.i:                                       ; preds = %if.then.i20.i.i, %_ZNSt6vectorISt10unique_ptrIN8facebook5velox17SelectivityVectorESt14default_deleteIS3_EESaIS6_EE11_S_relocateEPS6_S9_S9_RS7_.exit19.i.i
  store ptr %cond.i10.i.i, ptr %selectivityVectorPool_.i.i.i, align 8
  store ptr %incdec.ptr.i.i, ptr %_M_finish.i.i.i.i.i, align 8
  %add.ptr19.i.i = getelementptr inbounds %"class.std::unique_ptr.64", ptr %cond.i10.i.i, i64 %cond.i.i.i
  store ptr %add.ptr19.i.i, ptr %_M_end_of_storage.i.i.i.i.i, align 8
  %.pr.i.pr.pre.i = load ptr, ptr %vector_.i49.i, align 8, !noalias !37
  %cmp.not.i.i288.i = icmp eq ptr %.pr.i.pr.pre.i, null
  br i1 %cmp.not.i.i288.i, label %_ZN8facebook5velox4exec22LocalSelectivityVectorD2Ev.exit.i, label %delete.notnull.i.i.i289.i

delete.notnull.i.i.i289.i:                        ; preds = %if.end.i.i, %if.then.i284.i
  %.pr.i.pr416.i = phi ptr [ %.pr.i.pr.pre.i, %if.end.i.i ], [ %261, %if.then.i284.i ]
  %271 = load ptr, ptr %.pr.i.pr416.i, align 8
  %tobool.not.i.i.i.i.i.i.i.i = icmp eq ptr %271, null
  br i1 %tobool.not.i.i.i.i.i.i.i.i, label %_ZNKSt14default_deleteIN8facebook5velox17SelectivityVectorEEclEPS2_.exit.i.i.i, label %if.then.i.i.i.i.i.i.i290.i

if.then.i.i.i.i.i.i.i290.i:                       ; preds = %delete.notnull.i.i.i289.i
  call void @_ZdlPv(ptr noundef nonnull %271) #29
  br label %_ZNKSt14default_deleteIN8facebook5velox17SelectivityVectorEEclEPS2_.exit.i.i.i

_ZNKSt14default_deleteIN8facebook5velox17SelectivityVectorEEclEPS2_.exit.i.i.i: ; preds = %if.then.i.i.i.i.i.i.i290.i, %delete.notnull.i.i.i289.i
  call void @_ZdlPv(ptr noundef nonnull %.pr.i.pr416.i) #29
  br label %_ZN8facebook5velox4exec22LocalSelectivityVectorD2Ev.exit.i

terminate.lpad.i291.i:                            ; preds = %_ZNSt16allocator_traitsISaISt10unique_ptrIN8facebook5velox17SelectivityVectorESt14default_deleteIS3_EEEE8allocateERS7_m.exit.i.i.i, %if.then.i.i358.i
  %272 = landingpad { ptr, i32 }
          catch ptr null
  %273 = extractvalue { ptr, i32 } %272, 0
  call void @__clang_call_terminate(ptr %273) #30
  unreachable

_ZN8facebook5velox4exec22LocalSelectivityVectorD2Ev.exit.i: ; preds = %_ZNKSt14default_deleteIN8facebook5velox17SelectivityVectorEEclEPS2_.exit.i.i.i, %if.end.i.i, %if.end.i.thread.i, %cleanup.i
  store ptr null, ptr %vector_.i49.i, align 8, !noalias !37
  %274 = load ptr, ptr %_M_refcount.i.i42.i, align 8, !noalias !37
  %cmp.not.i.i.i293.i = icmp eq ptr %274, null
  br i1 %cmp.not.i.i.i293.i, label %_ZNSt10shared_ptrIN8facebook5velox10BaseVectorEED2Ev.exit323.i, label %if.then.i.i.i294.i

if.then.i.i.i294.i:                               ; preds = %_ZN8facebook5velox4exec22LocalSelectivityVectorD2Ev.exit.i
  %_M_use_count.i.i.i.i295.i = getelementptr inbounds %"class.std::_Sp_counted_base", ptr %274, i64 0, i32 1
  %275 = load atomic i64, ptr %_M_use_count.i.i.i.i295.i acquire, align 8
  %cmp.i.i.i.i296.i = icmp eq i64 %275, 4294967297
  %276 = trunc i64 %275 to i32
  br i1 %cmp.i.i.i.i296.i, label %if.then.i.i.i.i319.i, label %if.end.i.i.i.i297.i

if.then.i.i.i.i319.i:                             ; preds = %if.then.i.i.i294.i
  store i32 0, ptr %_M_use_count.i.i.i.i295.i, align 8
  %_M_weak_count.i.i.i.i320.i = getelementptr inbounds %"class.std::_Sp_counted_base", ptr %274, i64 0, i32 2
  store i32 0, ptr %_M_weak_count.i.i.i.i320.i, align 4
  %vtable.i.i.i.i321.i = load ptr, ptr %274, align 8
  %vfn.i.i.i.i322.i = getelementptr inbounds ptr, ptr %vtable.i.i.i.i321.i, i64 2
  %277 = load ptr, ptr %vfn.i.i.i.i322.i, align 8
  call void %277(ptr noundef nonnull align 8 dereferenceable(16) %274) #26
  br label %if.end8.sink.split.i.i.i.i314.i

if.end.i.i.i.i297.i:                              ; preds = %if.then.i.i.i294.i
  %278 = load i8, ptr @__libc_single_threaded, align 1, !noalias !37
  %tobool.i.i.not.i.i.i.i298.i = icmp eq i8 %278, 0
  br i1 %tobool.i.i.not.i.i.i.i298.i, label %if.else.i.i.i.i.i318.i, label %if.then.i.i.i.i.i299.i

if.then.i.i.i.i.i299.i:                           ; preds = %if.end.i.i.i.i297.i
  %add.i.i.i.i.i300.i = add nsw i32 %276, -1
  store i32 %add.i.i.i.i.i300.i, ptr %_M_use_count.i.i.i.i295.i, align 4
  br label %_ZN9__gnu_cxx27__exchange_and_add_dispatchEPii.exit.i.i.i.i301.i

if.else.i.i.i.i.i318.i:                           ; preds = %if.end.i.i.i.i297.i
  %279 = atomicrmw volatile add ptr %_M_use_count.i.i.i.i295.i, i32 -1 acq_rel, align 4
  br label %_ZN9__gnu_cxx27__exchange_and_add_dispatchEPii.exit.i.i.i.i301.i

_ZN9__gnu_cxx27__exchange_and_add_dispatchEPii.exit.i.i.i.i301.i: ; preds = %if.else.i.i.i.i.i318.i, %if.then.i.i.i.i.i299.i
  %retval.i.0.i.i.i.i302.i = phi i32 [ %276, %if.then.i.i.i.i.i299.i ], [ %279, %if.else.i.i.i.i.i318.i ]
  %cmp6.i.i.i.i303.i = icmp eq i32 %retval.i.0.i.i.i.i302.i, 1
  br i1 %cmp6.i.i.i.i303.i, label %if.then7.i.i.i.i304.i, label %_ZNSt10shared_ptrIN8facebook5velox10BaseVectorEED2Ev.exit323.i

if.then7.i.i.i.i304.i:                            ; preds = %_ZN9__gnu_cxx27__exchange_and_add_dispatchEPii.exit.i.i.i.i301.i
  %vtable.i.i.i.i.i.i305.i = load ptr, ptr %274, align 8
  %vfn.i.i.i.i.i.i306.i = getelementptr inbounds ptr, ptr %vtable.i.i.i.i.i.i305.i, i64 2
  %280 = load ptr, ptr %vfn.i.i.i.i.i.i306.i, align 8
  call void %280(ptr noundef nonnull align 8 dereferenceable(16) %274) #26
  %_M_weak_count.i.i.i.i.i.i307.i = getelementptr inbounds %"class.std::_Sp_counted_base", ptr %274, i64 0, i32 2
  %281 = load i8, ptr @__libc_single_threaded, align 1, !noalias !37
  %tobool.i.i.not.i.i.i.i.i.i308.i = icmp eq i8 %281, 0
  br i1 %tobool.i.i.not.i.i.i.i.i.i308.i, label %if.else.i.i.i.i.i.i.i317.i, label %if.then.i.i.i.i.i.i.i309.i

if.then.i.i.i.i.i.i.i309.i:                       ; preds = %if.then7.i.i.i.i304.i
  %282 = load i32, ptr %_M_weak_count.i.i.i.i.i.i307.i, align 4
  %add.i.i.i.i.i.i.i310.i = add nsw i32 %282, -1
  store i32 %add.i.i.i.i.i.i.i310.i, ptr %_M_weak_count.i.i.i.i.i.i307.i, align 4
  br label %_ZN9__gnu_cxx27__exchange_and_add_dispatchEPii.exit.i.i.i.i.i.i311.i

if.else.i.i.i.i.i.i.i317.i:                       ; preds = %if.then7.i.i.i.i304.i
  %283 = atomicrmw volatile add ptr %_M_weak_count.i.i.i.i.i.i307.i, i32 -1 acq_rel, align 4
  br label %_ZN9__gnu_cxx27__exchange_and_add_dispatchEPii.exit.i.i.i.i.i.i311.i

_ZN9__gnu_cxx27__exchange_and_add_dispatchEPii.exit.i.i.i.i.i.i311.i: ; preds = %if.else.i.i.i.i.i.i.i317.i, %if.then.i.i.i.i.i.i.i309.i
  %retval.i.0.i.i.i.i.i.i312.i = phi i32 [ %282, %if.then.i.i.i.i.i.i.i309.i ], [ %283, %if.else.i.i.i.i.i.i.i317.i ]
  %cmp.i.i.i.i.i.i313.i = icmp eq i32 %retval.i.0.i.i.i.i.i.i312.i, 1
  br i1 %cmp.i.i.i.i.i.i313.i, label %if.end8.sink.split.i.i.i.i314.i, label %_ZNSt10shared_ptrIN8facebook5velox10BaseVectorEED2Ev.exit323.i

if.end8.sink.split.i.i.i.i314.i:                  ; preds = %_ZN9__gnu_cxx27__exchange_and_add_dispatchEPii.exit.i.i.i.i.i.i311.i, %if.then.i.i.i.i319.i
  %vtable2.i.i.i.i.i.i315.i = load ptr, ptr %274, align 8
  %vfn3.i.i.i.i.i.i316.i = getelementptr inbounds ptr, ptr %vtable2.i.i.i.i.i.i315.i, i64 3
