; ModuleID = 'bench/velox/original/Type.cpp.ll'
source_filename = "bench/velox/original/Type.cpp.ll"
target datalayout = "e-m:e-p270:32:32-p271:32:32-p272:64:64-i64:64-i128:128-f80:128-n8:16:32:64-S128"
target triple = "x86_64-unknown-linux-gnu"

%"class.std::unordered_map" = type { %"class.std::_Hashtable" }
%"class.std::_Hashtable" = type { ptr, i64, %"struct.std::__detail::_Hash_node_base", i64, %"struct.std::__detail::_Prime_rehash_policy", ptr }
%"struct.std::__detail::_Hash_node_base" = type { ptr }
%"struct.std::__detail::_Prime_rehash_policy" = type { float, i64 }
%"class.std::unordered_map.8" = type { %"class.std::_Hashtable.9" }
%"class.std::_Hashtable.9" = type { ptr, i64, %"struct.std::__detail::_Hash_node_base", i64, %"struct.std::__detail::_Prime_rehash_policy", ptr }
%"struct.folly::c_array" = type { [20 x i64] }
%"struct.folly::c_array.425" = type { [100 x i16] }
%"struct.folly::c_array.438" = type { [5 x i8] }
%"struct.facebook::velox::(anonymous namespace)::OpaqueSerdeRegistry" = type { %"class.std::unordered_map.62", %"class.std::unordered_map.81" }
%"class.std::unordered_map.62" = type { %"class.std::_Hashtable.63" }
%"class.std::_Hashtable.63" = type { ptr, i64, %"struct.std::__detail::_Hash_node_base", i64, %"struct.std::__detail::_Prime_rehash_policy", ptr }
%"class.std::unordered_map.81" = type { %"class.std::_Hashtable.82" }
%"class.std::_Hashtable.82" = type { ptr, i64, %"struct.std::__detail::_Hash_node_base", i64, %"struct.std::__detail::_Prime_rehash_policy", ptr }
%"class.std::shared_ptr.459" = type { %"class.std::__shared_ptr.460" }
%"class.std::__shared_ptr.460" = type { ptr, %"class.std::__shared_count" }
%"class.std::__shared_count" = type { ptr }
%"class.std::vector" = type { %"struct.std::_Vector_base" }
%"struct.std::_Vector_base" = type { %"struct.std::_Vector_base<facebook::velox::TypeParameter, std::allocator<facebook::velox::TypeParameter>>::_Vector_impl" }
%"struct.std::_Vector_base<facebook::velox::TypeParameter, std::allocator<facebook::velox::TypeParameter>>::_Vector_impl" = type { %"struct.std::_Vector_base<facebook::velox::TypeParameter, std::allocator<facebook::velox::TypeParameter>>::_Vector_impl_data" }
%"struct.std::_Vector_base<facebook::velox::TypeParameter, std::allocator<facebook::velox::TypeParameter>>::_Vector_impl_data" = type { ptr, ptr, ptr }
%"class.std::shared_ptr.462" = type { %"class.std::__shared_ptr.463" }
%"class.std::__shared_ptr.463" = type { ptr, %"class.std::__shared_count" }
%"class.std::shared_ptr.470" = type { %"class.std::__shared_ptr.471" }
%"class.std::__shared_ptr.471" = type { ptr, %"class.std::__shared_count" }
%"union.std::aligned_storage<32, 16>::type" = type { [32 x i8] }
%"struct.folly::detail::safe_assert_arg" = type { ptr, ptr, i32, ptr, ptr }
%"struct.folly::c_array.501" = type { [2 x i8] }
%"struct.std::piecewise_construct_t" = type { i8 }
%"class.std::__cxx11::basic_string" = type { %"struct.std::__cxx11::basic_string<char>::_Alloc_hider", i64, %union.anon }
%"struct.std::__cxx11::basic_string<char>::_Alloc_hider" = type { ptr }
%union.anon = type { i64, [8 x i8] }
%"class.std::unordered_map.252" = type { %"class.std::_Hashtable.253" }
%"class.std::_Hashtable.253" = type { ptr, i64, %"struct.std::__detail::_Hash_node_base", i64, %"struct.std::__detail::_Prime_rehash_policy", ptr }
%"class.std::unordered_map.289" = type { %"class.std::_Hashtable.290" }
%"class.std::_Hashtable.290" = type { ptr, i64, %"struct.std::__detail::_Hash_node_base", i64, %"struct.std::__detail::_Prime_rehash_policy", ptr }
%"class.std::unordered_map.303" = type { %"class.std::_Hashtable.304" }
%"class.std::_Hashtable.304" = type { ptr, i64, %"struct.std::__detail::_Hash_node_base", i64, %"struct.std::__detail::_Prime_rehash_policy", ptr }
%"class.std::shared_ptr.198" = type { %"class.std::__shared_ptr.199" }
%"class.std::__shared_ptr.199" = type { ptr, %"class.std::__shared_count" }
%"class.std::shared_ptr.201" = type { %"class.std::__shared_ptr.202" }
%"class.std::__shared_ptr.202" = type { ptr, %"class.std::__shared_count" }
%"class.std::shared_ptr.204" = type { %"class.std::__shared_ptr.205" }
%"class.std::__shared_ptr.205" = type { ptr, %"class.std::__shared_count" }
%"class.std::shared_ptr.207" = type { %"class.std::__shared_ptr.208" }
%"class.std::__shared_ptr.208" = type { ptr, %"class.std::__shared_count" }
%"class.std::shared_ptr.210" = type { %"class.std::__shared_ptr.211" }
%"class.std::__shared_ptr.211" = type { ptr, %"class.std::__shared_count" }
%"class.std::shared_ptr.213" = type { %"class.std::__shared_ptr.214" }
%"class.std::__shared_ptr.214" = type { ptr, %"class.std::__shared_count" }
%"class.std::shared_ptr.216" = type { %"class.std::__shared_ptr.217" }
%"class.std::__shared_ptr.217" = type { ptr, %"class.std::__shared_count" }
%"class.std::shared_ptr.219" = type { %"class.std::__shared_ptr.220" }
%"class.std::__shared_ptr.220" = type { ptr, %"class.std::__shared_count" }
%"class.std::shared_ptr.222" = type { %"class.std::__shared_ptr.223" }
%"class.std::__shared_ptr.223" = type { ptr, %"class.std::__shared_count" }
%"class.std::shared_ptr.225" = type { %"class.std::__shared_ptr.226" }
%"class.std::__shared_ptr.226" = type { ptr, %"class.std::__shared_count" }
%"class.std::shared_ptr.228" = type { %"class.std::__shared_ptr.229" }
%"class.std::__shared_ptr.229" = type { ptr, %"class.std::__shared_count" }
%"struct.std::pair" = type <{ %"class.std::__cxx11::basic_string", i8, [7 x i8] }>
%"struct.std::hash" = type { i8 }
%"struct.std::equal_to" = type { i8 }
%"class.std::allocator.5" = type { i8 }
%"class.std::allocator.2" = type { i8 }
%"struct.std::pair.28" = type { i8, %"class.std::__cxx11::basic_string" }
%"struct.std::hash.13" = type { i8 }
%"struct.std::equal_to.15" = type { i8 }
%"class.std::allocator.30" = type { i8 }
%"class.facebook::velox::DecimalType" = type { %"class.facebook::velox::ScalarType.base", %"class.std::vector" }
%"class.facebook::velox::ScalarType.base" = type { %"class.facebook::velox::TypeBase.base" }
%"class.facebook::velox::TypeBase.base" = type { %"class.facebook::velox::Type.base" }
%"class.facebook::velox::Type.base" = type <{ %"class.facebook::velox::Tree", %"class.facebook::velox::ISerializable", i8 }>
%"class.facebook::velox::Tree" = type { ptr }
%"class.facebook::velox::ISerializable" = type { ptr }
%"struct.facebook::velox::TypeParameter" = type { i32, %"class.std::shared_ptr", %"class.std::optional.132" }
%"class.std::shared_ptr" = type { %"class.std::__shared_ptr" }
%"class.std::__shared_ptr" = type { ptr, %"class.std::__shared_count" }
%"class.std::optional.132" = type { %"struct.std::_Optional_base.133" }
%"struct.std::_Optional_base.133" = type { %"struct.std::_Optional_payload.135" }
%"struct.std::_Optional_payload.135" = type { %"struct.std::_Optional_payload_base.base.137", [7 x i8] }
%"struct.std::_Optional_payload_base.base.137" = type <{ %"union.std::_Optional_payload_base<long>::_Storage", i8 }>
%"union.std::_Optional_payload_base<long>::_Storage" = type { i64 }
%"class.facebook::velox::DecimalType.39" = type { %"class.facebook::velox::ScalarType.base.43", %"class.std::vector" }
%"class.facebook::velox::ScalarType.base.43" = type { %"class.facebook::velox::TypeBase.base.42" }
%"class.facebook::velox::TypeBase.base.42" = type { %"class.facebook::velox::Type.base" }
%"class.std::vector.44" = type { %"struct.std::_Vector_base.45" }
%"struct.std::_Vector_base.45" = type { %"struct.std::_Vector_base<std::shared_ptr<const facebook::velox::Type>, std::allocator<std::shared_ptr<const facebook::velox::Type>>>::_Vector_impl" }
%"struct.std::_Vector_base<std::shared_ptr<const facebook::velox::Type>, std::allocator<std::shared_ptr<const facebook::velox::Type>>>::_Vector_impl" = type { %"struct.std::_Vector_base<std::shared_ptr<const facebook::velox::Type>, std::allocator<std::shared_ptr<const facebook::velox::Type>>>::_Vector_impl_data" }
%"struct.std::_Vector_base<std::shared_ptr<const facebook::velox::Type>, std::allocator<std::shared_ptr<const facebook::velox::Type>>>::_Vector_impl_data" = type { ptr, ptr, ptr }
%"struct.folly::dynamic::const_item_iterator" = type { %"class.folly::detail::IteratorAdaptor" }
%"class.folly::detail::IteratorAdaptor" = type { %"class.folly::f14::detail::NodeContainerIterator" }
%"class.folly::f14::detail::NodeContainerIterator" = type { %"class.folly::f14::detail::F14ItemIter" }
%"class.folly::f14::detail::F14ItemIter" = type { ptr, i64 }
%"class.std::vector.54" = type { %"struct.std::_Vector_base.55" }
%"struct.std::_Vector_base.55" = type { %"struct.std::_Vector_base<std::__cxx11::basic_string<char>, std::allocator<std::__cxx11::basic_string<char>>>::_Vector_impl" }
%"struct.std::_Vector_base<std::__cxx11::basic_string<char>, std::allocator<std::__cxx11::basic_string<char>>>::_Vector_impl" = type { %"struct.std::_Vector_base<std::__cxx11::basic_string<char>, std::allocator<std::__cxx11::basic_string<char>>>::_Vector_impl_data" }
%"struct.std::_Vector_base<std::__cxx11::basic_string<char>, std::allocator<std::__cxx11::basic_string<char>>>::_Vector_impl_data" = type { ptr, ptr, ptr }
%"class.std::shared_ptr.97" = type { %"class.std::__shared_ptr.98" }
%"class.std::__shared_ptr.98" = type { ptr, %"class.std::__shared_count" }
%"class.std::_Sp_counted_base" = type { ptr, i32, i32 }
%"struct.folly::dynamic" = type { i32, %"union.folly::dynamic::Data" }
%"union.folly::dynamic::Data" = type { %"class.std::__cxx11::basic_string" }
%"class.std::_Sp_counted_ptr_inplace.754" = type { %"class.std::_Sp_counted_base", %"class.std::_Sp_counted_ptr_inplace<facebook::velox::ShortDecimalType, std::allocator<void>, __gnu_cxx::_S_atomic>::_Impl" }
%"class.std::_Sp_counted_ptr_inplace<facebook::velox::ShortDecimalType, std::allocator<void>, __gnu_cxx::_S_atomic>::_Impl" = type { %"struct.__gnu_cxx::__aligned_buffer.755" }
%"struct.__gnu_cxx::__aligned_buffer.755" = type { %"union.std::aligned_storage<48, 8>::type" }
%"union.std::aligned_storage<48, 8>::type" = type { [48 x i8] }
%"class.std::_Sp_counted_ptr_inplace.763" = type { %"class.std::_Sp_counted_base", %"class.std::_Sp_counted_ptr_inplace<facebook::velox::LongDecimalType, std::allocator<void>, __gnu_cxx::_S_atomic>::_Impl" }
%"class.std::_Sp_counted_ptr_inplace<facebook::velox::LongDecimalType, std::allocator<void>, __gnu_cxx::_S_atomic>::_Impl" = type { %"struct.__gnu_cxx::__aligned_buffer.764" }
%"struct.__gnu_cxx::__aligned_buffer.764" = type { %"union.std::aligned_storage<48, 8>::type" }
%"class.std::_Sp_counted_ptr_inplace.609" = type { %"class.std::_Sp_counted_base", %"class.std::_Sp_counted_ptr_inplace<const facebook::velox::RowType, std::allocator<void>, __gnu_cxx::_S_atomic>::_Impl" }
%"class.std::_Sp_counted_ptr_inplace<const facebook::velox::RowType, std::allocator<void>, __gnu_cxx::_S_atomic>::_Impl" = type { %"struct.__gnu_cxx::__aligned_buffer.610" }
%"struct.__gnu_cxx::__aligned_buffer.610" = type { %"union.std::aligned_storage<120, 8>::type" }
%"union.std::aligned_storage<120, 8>::type" = type { [120 x i8] }
%"struct.folly::f14::detail::F14Chunk" = type { %"struct.std::array", i8, i8, %"struct.std::array.346" }
%"struct.std::array" = type { [14 x i8] }
%"struct.std::array.346" = type { [14 x %"union.std::aligned_storage<8, 8>::type"] }
%"union.std::aligned_storage<8, 8>::type" = type { [8 x i8] }
%"class.std::locale" = type { ptr }
%"class.std::_Sp_counted_ptr_inplace.769" = type { %"class.std::_Sp_counted_base", %"class.std::_Sp_counted_ptr_inplace<facebook::velox::FunctionType, std::allocator<void>, __gnu_cxx::_S_atomic>::_Impl" }
%"class.std::_Sp_counted_ptr_inplace<facebook::velox::FunctionType, std::allocator<void>, __gnu_cxx::_S_atomic>::_Impl" = type { %"struct.__gnu_cxx::__aligned_buffer.770" }
%"struct.__gnu_cxx::__aligned_buffer.770" = type { %"union.std::aligned_storage<72, 8>::type" }
%"union.std::aligned_storage<72, 8>::type" = type { [72 x i8] }
%"class.std::_Sp_counted_ptr_inplace" = type { %"class.std::_Sp_counted_base", %"class.std::_Sp_counted_ptr_inplace<facebook::velox::UnknownType, std::allocator<void>, __gnu_cxx::_S_atomic>::_Impl" }
%"class.std::_Sp_counted_ptr_inplace<facebook::velox::UnknownType, std::allocator<void>, __gnu_cxx::_S_atomic>::_Impl" = type { %"struct.__gnu_cxx::__aligned_buffer.524" }
%"struct.__gnu_cxx::__aligned_buffer.524" = type { %"union.std::aligned_storage<24, 8>::type" }
%"union.std::aligned_storage<24, 8>::type" = type { [24 x i8] }
%"class.std::function" = type { %"class.std::_Function_base", ptr }
%"class.std::_Function_base" = type { %"union.std::_Any_data", ptr }
%"union.std::_Any_data" = type { %"union.std::_Nocopy_types" }
%"union.std::_Nocopy_types" = type { { i64, i64 } }
%"class.std::optional.123" = type { %"struct.std::_Optional_base.124" }
%"struct.std::_Optional_base.124" = type { %"struct.std::_Optional_payload.126" }
%"struct.std::_Optional_payload.126" = type { %"struct.std::_Optional_payload_base.base", [7 x i8] }
%"struct.std::_Optional_payload_base.base" = type <{ %"union.std::_Optional_payload_base<std::basic_string_view<char>>::_Storage", i8 }>
%"union.std::_Optional_payload_base<std::basic_string_view<char>>::_Storage" = type { %"class.std::basic_string_view" }
%"class.std::basic_string_view" = type { i64, ptr }
%"struct.std::_Optional_payload_base.127" = type <{ %"union.std::_Optional_payload_base<std::basic_string_view<char>>::_Storage", i8, [7 x i8] }>
%"struct.std::pair.628" = type <{ %"class.folly::f14::detail::F14ItemIter.417", i8, [7 x i8] }>
%"class.folly::f14::detail::F14ItemIter.417" = type { ptr, i64 }
%"class.std::tuple.511" = type { %"struct.std::_Tuple_impl.512" }
%"struct.std::_Tuple_impl.512" = type { %"struct.std::_Head_base.513" }
%"struct.std::_Head_base.513" = type { ptr }
%"class.std::tuple.514" = type { i8 }
%"class.facebook::velox::Registry" = type { %"class.folly::F14NodeMap", %"class.std::unordered_map.109", %"class.std::mutex", %"struct.facebook::velox::Registry<std::__cxx11::basic_string<char>, std::shared_ptr<const facebook::velox::ISerializable> (const folly::dynamic &)>::CreateFunction" }
%"class.folly::F14NodeMap" = type { %"class.folly::f14::detail::F14BasicMap" }
%"class.folly::f14::detail::F14BasicMap" = type { %"class.folly::f14::detail::F14Table" }
%"class.folly::f14::detail::F14Table" = type { ptr, i64, %"struct.folly::f14::detail::SizeAndPackedBegin" }
%"struct.folly::f14::detail::SizeAndPackedBegin" = type { i64, %"class.folly::f14::detail::PackedChunkItemPtr" }
%"class.folly::f14::detail::PackedChunkItemPtr" = type { i64 }
%"class.std::unordered_map.109" = type { %"class.std::_Hashtable.110" }
%"class.std::_Hashtable.110" = type { ptr, i64, %"struct.std::__detail::_Hash_node_base", i64, %"struct.std::__detail::_Prime_rehash_policy", ptr }
%"class.std::mutex" = type { %"class.std::__mutex_base" }
%"class.std::__mutex_base" = type { %union.pthread_mutex_t }
%union.pthread_mutex_t = type { %struct.__pthread_mutex_s }
%struct.__pthread_mutex_s = type { i32, i32, i32, i32, i32, i16, i16, %struct.__pthread_internal_list }
%struct.__pthread_internal_list = type { ptr, ptr }
%"struct.facebook::velox::Registry<std::__cxx11::basic_string<char>, std::shared_ptr<const facebook::velox::ISerializable> (const folly::dynamic &)>::CreateFunction" = type { ptr }
%"struct.std::pair.419" = type { %"class.std::__cxx11::basic_string", %"class.std::function" }
%"class.facebook::velox::ArrayType" = type { %"class.facebook::velox::TypeBase.base.130", %"class.std::shared_ptr", %"class.std::vector" }
%"class.facebook::velox::TypeBase.base.130" = type { %"class.facebook::velox::Type.base" }
%"class.facebook::velox::Type" = type <{ %"class.facebook::velox::Tree", %"class.facebook::velox::ISerializable", i8, [7 x i8] }>
%"class.std::type_info" = type { ptr, ptr }
%"class.facebook::velox::MapType" = type { %"class.facebook::velox::TypeBase.base.141", %"class.std::shared_ptr", %"class.std::shared_ptr", %"class.std::vector" }
%"class.facebook::velox::TypeBase.base.141" = type { %"class.facebook::velox::Type.base" }
%"struct.std::pair.505" = type <{ %"class.folly::f14::detail::VectorContainerIterator.477", i8, [7 x i8] }>
%"class.folly::f14::detail::VectorContainerIterator.477" = type { ptr, ptr }
%"class.facebook::velox::RowType" = type { %"class.facebook::velox::TypeBase.base.143", %"class.std::vector.54", %"class.std::vector.44", %"class.std::vector", %"class.folly::F14FastMap" }
%"class.facebook::velox::TypeBase.base.143" = type { %"class.facebook::velox::Type.base" }
%"class.folly::F14FastMap" = type { %"class.folly::f14::detail::F14VectorMapImpl" }
%"class.folly::f14::detail::F14VectorMapImpl" = type { %"class.folly::f14::detail::F14BasicMap.144" }
%"class.folly::f14::detail::F14BasicMap.144" = type { %"class.folly::f14::detail::F14Table.145" }
%"class.folly::f14::detail::F14Table.145" = type { %"class.folly::f14::detail::VectorContainerPolicy", ptr, i32, %"struct.folly::f14::detail::SizeAndPackedBegin.151" }
%"class.folly::f14::detail::VectorContainerPolicy" = type { ptr }
%"struct.folly::f14::detail::SizeAndPackedBegin.151" = type { i32 }
%"struct.folly::f14::detail::F14Chunk.494" = type { %"struct.std::array", i8, i8, %"struct.std::array.495" }
%"struct.std::array.495" = type { [12 x %"union.std::aligned_storage<4, 4>::type"] }
%"union.std::aligned_storage<4, 4>::type" = type { [4 x i8] }
%"struct.std::pair.164" = type <{ %"class.std::__cxx11::basic_string", i32, [4 x i8] }>
%"struct.std::__cxx11::basic_string<char>::__sv_wrapper" = type { %"class.std::basic_string_view" }
%"class.re2::StringPiece" = type { ptr, i64 }
%"class.re2::RE2" = type <{ %"class.std::__cxx11::basic_string", %"class.re2::RE2::Options", ptr, ptr, i32, [4 x i8], %"class.std::__cxx11::basic_string", %"class.std::__cxx11::basic_string", i8, [7 x i8], ptr, ptr, i32, i8, [3 x i8], ptr, ptr, ptr, %"struct.std::once_flag", %"struct.std::once_flag", %"struct.std::once_flag", [4 x i8] }>
%"class.re2::RE2::Options" = type { i32, i8, i8, i8, i64, i8, i8, i8, i8, i8, i8, i8, i8 }
%"struct.std::once_flag" = type { i32 }
%"struct.std::__detail::_Quoted_string" = type <{ ptr, i8, i8, [6 x i8] }>
%"class.std::__cxx11::basic_ostringstream" = type { %"class.std::basic_ostream.base", %"class.std::__cxx11::basic_stringbuf", %"class.std::basic_ios" }
%"class.std::basic_ostream.base" = type { ptr }
%"class.std::__cxx11::basic_stringbuf" = type { %"class.std::basic_streambuf", i32, %"class.std::__cxx11::basic_string" }
%"class.std::basic_streambuf" = type { ptr, ptr, ptr, ptr, ptr, ptr, ptr, %"class.std::locale" }
%"class.std::basic_ios" = type { %"class.std::ios_base", ptr, i8, i8, ptr, ptr, ptr, ptr }
%"class.std::ios_base" = type { ptr, i64, i64, i32, i32, i32, ptr, %"struct.std::ios_base::_Words", [8 x %"struct.std::ios_base::_Words"], i32, ptr, %"class.std::locale" }
%"struct.std::ios_base::_Words" = type { ptr, i64 }
%"class.std::shared_ptr.167" = type { %"class.std::__shared_ptr.168" }
%"class.std::__shared_ptr.168" = type { ptr, %"class.std::__shared_count" }
%"class.std::_Sp_counted_ptr_inplace.655" = type { %"class.std::_Sp_counted_base", %"class.std::_Sp_counted_ptr_inplace<facebook::velox::RowType, std::allocator<void>, __gnu_cxx::_S_atomic>::_Impl" }
%"class.std::_Sp_counted_ptr_inplace<facebook::velox::RowType, std::allocator<void>, __gnu_cxx::_S_atomic>::_Impl" = type { %"struct.__gnu_cxx::__aligned_buffer.656" }
%"struct.__gnu_cxx::__aligned_buffer.656" = type { %"union.std::aligned_storage<120, 8>::type" }
%"class.std::__cxx11::basic_stringstream" = type { %"class.std::basic_iostream.base", %"class.std::__cxx11::basic_stringbuf", %"class.std::basic_ios" }
%"class.std::basic_iostream.base" = type { %"class.std::basic_istream.base", %"class.std::basic_ostream.base" }
%"class.std::basic_istream.base" = type { ptr, i64 }
%"class.facebook::velox::FunctionType" = type { %"class.facebook::velox::TypeBase.base.173", %"class.std::vector.44", %"class.std::vector" }
%"class.facebook::velox::TypeBase.base.173" = type { %"class.facebook::velox::Type.base" }
%"class.facebook::velox::OpaqueType" = type { %"class.facebook::velox::TypeBase.base.101", %"struct.std::type_index" }
%"class.facebook::velox::TypeBase.base.101" = type { %"class.facebook::velox::Type.base" }
%"struct.std::type_index" = type { ptr }
%"class.folly::basic_fbstring" = type { %"class.folly::fbstring_core" }
%"class.folly::fbstring_core" = type { %union.anon.174 }
%union.anon.174 = type { %"struct.folly::fbstring_core<char>::MediumLarge" }
%"struct.folly::fbstring_core<char>::MediumLarge" = type { ptr, i64, i64 }
%"class.std::function.179" = type { %"class.std::_Function_base", ptr }
%"class.std::function.182" = type { %"class.std::_Function_base", ptr }
%"struct.facebook::velox::(anonymous namespace)::OpaqueSerdeRegistry::Entry" = type { %"class.std::__cxx11::basic_string", %"class.std::function.179", %"class.std::function.182" }
%"class.std::shared_ptr.185" = type { %"class.std::__shared_ptr.186" }
%"class.std::__shared_ptr.186" = type { ptr, %"class.std::__shared_count" }
%"class.std::_Sp_counted_ptr_inplace.666" = type { %"class.std::_Sp_counted_base", %"class.std::_Sp_counted_ptr_inplace<const facebook::velox::ArrayType, std::allocator<void>, __gnu_cxx::_S_atomic>::_Impl" }
%"class.std::_Sp_counted_ptr_inplace<const facebook::velox::ArrayType, std::allocator<void>, __gnu_cxx::_S_atomic>::_Impl" = type { %"struct.__gnu_cxx::__aligned_buffer.667" }
%"struct.__gnu_cxx::__aligned_buffer.667" = type { %"union.std::aligned_storage<64, 8>::type" }
%"union.std::aligned_storage<64, 8>::type" = type { [64 x i8] }
%"class.std::shared_ptr.59" = type { %"class.std::__shared_ptr.60" }
%"class.std::__shared_ptr.60" = type { ptr, %"class.std::__shared_count" }
%"class.std::initializer_list.188" = type { ptr, i64 }
%"struct.std::pair.189" = type { %"class.std::__cxx11::basic_string", %"class.std::shared_ptr" }
%"class.std::shared_ptr.192" = type { %"class.std::__shared_ptr.193" }
%"class.std::__shared_ptr.193" = type { ptr, %"class.std::__shared_count" }
%"class.std::_Sp_counted_ptr_inplace.672" = type { %"class.std::_Sp_counted_base", %"class.std::_Sp_counted_ptr_inplace<const facebook::velox::MapType, std::allocator<void>, __gnu_cxx::_S_atomic>::_Impl" }
%"class.std::_Sp_counted_ptr_inplace<const facebook::velox::MapType, std::allocator<void>, __gnu_cxx::_S_atomic>::_Impl" = type { %"struct.__gnu_cxx::__aligned_buffer.673" }
%"struct.__gnu_cxx::__aligned_buffer.673" = type { %"union.std::aligned_storage<80, 8>::type" }
%"union.std::aligned_storage<80, 8>::type" = type { [80 x i8] }
%"class.std::shared_ptr.195" = type { %"class.std::__shared_ptr.196" }
%"class.std::__shared_ptr.196" = type { ptr, %"class.std::__shared_count" }
%"class.std::_Sp_counted_ptr_inplace.680" = type { %"class.std::_Sp_counted_base", %"class.std::_Sp_counted_ptr_inplace<const facebook::velox::FunctionType, std::allocator<void>, __gnu_cxx::_S_atomic>::_Impl" }
%"class.std::_Sp_counted_ptr_inplace<const facebook::velox::FunctionType, std::allocator<void>, __gnu_cxx::_S_atomic>::_Impl" = type { %"struct.__gnu_cxx::__aligned_buffer.681" }
%"struct.__gnu_cxx::__aligned_buffer.681" = type { %"union.std::aligned_storage<72, 8>::type" }
%"class.std::unordered_set" = type { %"class.std::_Hashtable.266" }
%"class.std::_Hashtable.266" = type { ptr, i64, %"struct.std::__detail::_Hash_node_base", i64, %"struct.std::__detail::_Prime_rehash_policy", ptr }
%"struct.std::__detail::_AllocNode.775" = type { ptr }
%"class.std::shared_ptr.286" = type { %"class.std::__shared_ptr.287" }
%"class.std::__shared_ptr.287" = type { ptr, %"class.std::__shared_count" }
%"class.fmt::v8::format_arg_store.776" = type { %"struct.fmt::v8::detail::arg_data.777" }
%"struct.fmt::v8::detail::arg_data.777" = type { [3 x %"class.fmt::v8::detail::value"] }
%"class.fmt::v8::detail::value" = type { %union.anon.758 }
%union.anon.758 = type { i128 }
%struct.tm = type { i32, i32, i32, i32, i32, i32, i32, i32, i32, i64, ptr }
%"struct.facebook::velox::TimestampToStringOptions" = type { i8, i8, i8, i8 }
%"class.std::allocator.572" = type { i8 }
%"struct.std::pair.587" = type { %"class.std::__cxx11::basic_string", %"class.std::function.317" }
%"class.std::function.317" = type { %"class.std::_Function_base", ptr }
%"class.std::allocator.589" = type { i8 }
%"struct.folly::TypeError" = type { %"class.std::runtime_error" }
%"class.std::runtime_error" = type { %"class.std::exception", %"struct.std::__cow_string" }
%"class.std::exception" = type { ptr }
%"struct.std::__cow_string" = type { %union.anon.341 }
%union.anon.341 = type { ptr }
%"class.std::unique_ptr.352" = type { %"struct.std::__uniq_ptr_data.353" }
%"struct.std::__uniq_ptr_data.353" = type { %"class.std::__uniq_ptr_impl.354" }
%"class.std::__uniq_ptr_impl.354" = type { %"class.std::tuple.355" }
%"class.std::tuple.355" = type { %"struct.std::_Tuple_impl.356" }
%"struct.std::_Tuple_impl.356" = type { %"struct.std::_Head_base.359" }
%"struct.std::_Head_base.359" = type { ptr }
%"class.std::shared_ptr.360" = type { %"class.std::__shared_ptr.361" }
%"class.std::__shared_ptr.361" = type { ptr, %"class.std::__shared_count" }
%"class.std::shared_ptr.375" = type { %"class.std::__shared_ptr.376" }
%"class.std::__shared_ptr.376" = type { ptr, %"class.std::__shared_count" }
%"class.facebook::velox::Registry.363" = type { %"class.folly::F14NodeMap.364", %"class.std::unordered_map.109", %"class.std::mutex", %"struct.facebook::velox::Registry<std::__cxx11::basic_string<char>, std::shared_ptr<const facebook::velox::ISerializable> (const folly::dynamic &, void *)>::CreateFunction" }
%"class.folly::F14NodeMap.364" = type { %"class.folly::f14::detail::F14BasicMap.365" }
%"class.folly::f14::detail::F14BasicMap.365" = type { %"class.folly::f14::detail::F14Table.366" }
%"class.folly::f14::detail::F14Table.366" = type { ptr, i64, %"struct.folly::f14::detail::SizeAndPackedBegin.373" }
%"struct.folly::f14::detail::SizeAndPackedBegin.373" = type { i64, %"class.folly::f14::detail::PackedChunkItemPtr.374" }
%"class.folly::f14::detail::PackedChunkItemPtr.374" = type { i64 }
%"struct.facebook::velox::Registry<std::__cxx11::basic_string<char>, std::shared_ptr<const facebook::velox::ISerializable> (const folly::dynamic &, void *)>::CreateFunction" = type { ptr }
%"class.facebook::velox::Registry.378" = type { %"class.folly::F14NodeMap.379", %"class.std::unordered_map.109", %"class.std::mutex", %"struct.facebook::velox::Registry<std::__cxx11::basic_string<char>, std::unique_ptr<facebook::velox::ISerializable> (const folly::dynamic &)>::CreateFunction" }
%"class.folly::F14NodeMap.379" = type { %"class.folly::f14::detail::F14BasicMap.380" }
%"class.folly::f14::detail::F14BasicMap.380" = type { %"class.folly::f14::detail::F14Table.381" }
%"class.folly::f14::detail::F14Table.381" = type { ptr, i64, %"struct.folly::f14::detail::SizeAndPackedBegin.388" }
%"struct.folly::f14::detail::SizeAndPackedBegin.388" = type { i64, %"class.folly::f14::detail::PackedChunkItemPtr.389" }
%"class.folly::f14::detail::PackedChunkItemPtr.389" = type { i64 }
%"struct.facebook::velox::Registry<std::__cxx11::basic_string<char>, std::unique_ptr<facebook::velox::ISerializable> (const folly::dynamic &)>::CreateFunction" = type { ptr }
%"struct.folly::f14::detail::F14Chunk.407" = type { %"struct.std::array", i8, i8, %"struct.std::array.346" }
%"struct.std::pair.408" = type { %"class.std::__cxx11::basic_string", %"class.std::function.410" }
%"class.std::function.410" = type { %"class.std::_Function_base", ptr }
%"struct.folly::f14::detail::F14Chunk.418" = type { %"struct.std::array", i8, i8, %"struct.std::array.346" }
%"struct.folly::f14::detail::F14Chunk.391" = type { %"struct.std::array", i8, i8, %"struct.std::array.346" }
%"struct.std::pair.392" = type { %"class.std::__cxx11::basic_string", %"class.std::function.394" }
%"class.std::function.394" = type { %"class.std::_Function_base", ptr }
%"class.std::_Sp_counted_deleter" = type { %"class.std::_Sp_counted_base", %"class.std::_Sp_counted_deleter<facebook::velox::ISerializable *, std::default_delete<facebook::velox::ISerializable>, std::allocator<void>, __gnu_cxx::_S_atomic>::_Impl" }
%"class.std::_Sp_counted_deleter<facebook::velox::ISerializable *, std::default_delete<facebook::velox::ISerializable>, std::allocator<void>, __gnu_cxx::_S_atomic>::_Impl" = type { ptr }
%"class.double_conversion::DoubleToStringConverter" = type { i32, ptr, ptr, i8, i32, i32, i32, i32, i32 }
%"class.double_conversion::StringBuilder" = type { %"class.double_conversion::Vector", i32, [4 x i8] }
%"class.double_conversion::Vector" = type <{ ptr, i32, [4 x i8] }>
%"class.folly::BadExpectedAccess" = type { %"class.std::exception" }
%"class.folly::ConversionError" = type <{ %"struct.folly::ConversionErrorBase", i8, [7 x i8] }>
%"struct.folly::ConversionErrorBase" = type { %"class.std::range_error" }
%"class.std::range_error" = type { %"class.std::runtime_error" }
%"class.folly::BadExpectedAccess.432" = type <{ %"class.folly::BadExpectedAccess", i8, [7 x i8] }>
%class.anon.437 = type { ptr }
%"class.folly::Range" = type { ptr, ptr }
%"class.folly::Expected" = type { %"struct.folly::expected_detail::ExpectedStorage.base", [7 x i8] }
%"struct.folly::expected_detail::ExpectedStorage.base" = type <{ %union.anon.426, i8 }>
%union.anon.426 = type { %"class.folly::Range" }
%class.anon.442 = type { ptr }
%class.anon.444 = type { ptr }
%"struct.folly::expected_detail::ExpectedStorage" = type <{ %union.anon.426, i8, [7 x i8] }>
%"class.std::_Sp_counted_ptr" = type { %"class.std::_Sp_counted_base", ptr }
%"class.std::_Sp_counted_ptr.469" = type { %"class.std::_Sp_counted_base", ptr }
%"class.std::_Sp_counted_ptr.473" = type { %"class.std::_Sp_counted_base", ptr }
%"struct.std::_Vector_base<folly::dynamic, std::allocator<folly::dynamic>>::_Vector_impl_data" = type { ptr, ptr, ptr }
%"class.std::bad_alloc" = type { %"class.std::exception" }
%"class.folly::detail::ScopeGuardImpl" = type { %"class.folly::detail::ScopeGuardImplBase", %class.anon.497 }
%"class.folly::detail::ScopeGuardImplBase" = type { i8 }
%class.anon.497 = type { ptr, ptr, ptr, ptr, ptr, ptr, ptr, ptr, ptr, ptr, ptr }
%"struct.std::array.498" = type { [256 x i8] }
%"struct.std::pair.508" = type <{ %"class.folly::f14::detail::F14ItemIter.502", i8, [7 x i8] }>
%"class.folly::f14::detail::F14ItemIter.502" = type { ptr, i64 }
%"struct.std::__detail::_AllocNode" = type { ptr }
%"struct.std::_Hashtable<std::__cxx11::basic_string<char>, std::pair<const std::__cxx11::basic_string<char>, std::shared_ptr<const facebook::velox::Type>>, std::allocator<std::pair<const std::__cxx11::basic_string<char>, std::shared_ptr<const facebook::velox::Type>>>, std::__detail::_Select1st, std::equal_to<std::__cxx11::basic_string<char>>, std::hash<string>, std::__detail::_Mod_range_hashing, std::__detail::_Default_ranged_hash, std::__detail::_Prime_rehash_policy, std::__detail::_Hashtable_traits<true, false, true>>::_Scoped_node" = type { ptr, ptr }
%"struct.std::__detail::_AllocNode.598" = type { ptr }
%"struct.std::_Hashtable<std::__cxx11::basic_string<char>, std::pair<const std::__cxx11::basic_string<char>, std::function<std::shared_ptr<const facebook::velox::Type> (const std::vector<facebook::velox::TypeParameter> &)>>, std::allocator<std::pair<const std::__cxx11::basic_string<char>, std::function<std::shared_ptr<const facebook::velox::Type> (const std::vector<facebook::velox::TypeParameter> &)>>>, std::__detail::_Select1st, std::equal_to<std::__cxx11::basic_string<char>>, std::hash<string>, std::__detail::_Mod_range_hashing, std::__detail::_Default_ranged_hash, std::__detail::_Prime_rehash_policy, std::__detail::_Hashtable_traits<true, false, true>>::_Scoped_node" = type { ptr, ptr }
%struct._Guard = type { ptr }
%"struct.std::__detail::_AllocNode.617" = type { ptr }
%"struct.std::_Hashtable<std::__cxx11::basic_string<char>, std::pair<const std::__cxx11::basic_string<char>, facebook::velox::TypeKind>, std::allocator<std::pair<const std::__cxx11::basic_string<char>, facebook::velox::TypeKind>>, std::__detail::_Select1st, std::equal_to<std::__cxx11::basic_string<char>>, std::hash<string>, std::__detail::_Mod_range_hashing, std::__detail::_Default_ranged_hash, std::__detail::_Prime_rehash_policy, std::__detail::_Hashtable_traits<true, false, true>>::_Scoped_node" = type { ptr, ptr }
%"struct.std::__detail::_AllocNode.621" = type { ptr }
%"struct.std::_Hashtable<facebook::velox::TypeKind, std::pair<const facebook::velox::TypeKind, std::__cxx11::basic_string<char>>, std::allocator<std::pair<const facebook::velox::TypeKind, std::__cxx11::basic_string<char>>>, std::__detail::_Select1st, std::equal_to<facebook::velox::TypeKind>, std::hash<facebook::velox::TypeKind>, std::__detail::_Mod_range_hashing, std::__detail::_Default_ranged_hash, std::__detail::_Prime_rehash_policy, std::__detail::_Hashtable_traits<true, false, true>>::_Scoped_node" = type { ptr, ptr }
%"class.folly::detail::ScopeGuardImpl.631" = type { %"class.folly::detail::ScopeGuardImplBase", %class.anon.632 }
%class.anon.632 = type { ptr, ptr, ptr, ptr, ptr, ptr, ptr, ptr, ptr, ptr, ptr }
%"struct.std::_Hashtable<std::__cxx11::basic_string<char>, std::pair<const std::__cxx11::basic_string<char>, std::__cxx11::basic_string<char>>, std::allocator<std::pair<const std::__cxx11::basic_string<char>, std::__cxx11::basic_string<char>>>, std::__detail::_Select1st, std::equal_to<std::__cxx11::basic_string<char>>, std::hash<string>, std::__detail::_Mod_range_hashing, std::__detail::_Default_ranged_hash, std::__detail::_Prime_rehash_policy, std::__detail::_Hashtable_traits<true, false, true>>::_Scoped_node" = type { ptr, ptr }
%"struct.std::_Hashtable<std::__cxx11::basic_string<char>, std::pair<const std::__cxx11::basic_string<char>, std::shared_ptr<const facebook::velox::OpaqueType>>, std::allocator<std::pair<const std::__cxx11::basic_string<char>, std::shared_ptr<const facebook::velox::OpaqueType>>>, std::__detail::_Select1st, std::equal_to<std::__cxx11::basic_string<char>>, std::hash<string>, std::__detail::_Mod_range_hashing, std::__detail::_Default_ranged_hash, std::__detail::_Prime_rehash_policy, std::__detail::_Hashtable_traits<true, false, true>>::_Scoped_node" = type { ptr, ptr }
%"class.std::_Sp_counted_ptr_inplace.688" = type { %"class.std::_Sp_counted_base", %"class.std::_Sp_counted_ptr_inplace<const facebook::velox::ScalarType<facebook::velox::TypeKind::INTEGER>, std::allocator<void>, __gnu_cxx::_S_atomic>::_Impl" }
%"class.std::_Sp_counted_ptr_inplace<const facebook::velox::ScalarType<facebook::velox::TypeKind::INTEGER>, std::allocator<void>, __gnu_cxx::_S_atomic>::_Impl" = type { %"struct.__gnu_cxx::__aligned_buffer.689" }
%"struct.__gnu_cxx::__aligned_buffer.689" = type { %"union.std::aligned_storage<24, 8>::type" }
%"class.std::_Sp_counted_ptr_inplace.694" = type { %"class.std::_Sp_counted_base", %"class.std::_Sp_counted_ptr_inplace<const facebook::velox::ScalarType<facebook::velox::TypeKind::BOOLEAN>, std::allocator<void>, __gnu_cxx::_S_atomic>::_Impl" }
%"class.std::_Sp_counted_ptr_inplace<const facebook::velox::ScalarType<facebook::velox::TypeKind::BOOLEAN>, std::allocator<void>, __gnu_cxx::_S_atomic>::_Impl" = type { %"struct.__gnu_cxx::__aligned_buffer.695" }
%"struct.__gnu_cxx::__aligned_buffer.695" = type { %"union.std::aligned_storage<24, 8>::type" }
%"class.std::_Sp_counted_ptr_inplace.700" = type { %"class.std::_Sp_counted_base", %"class.std::_Sp_counted_ptr_inplace<const facebook::velox::ScalarType<facebook::velox::TypeKind::TINYINT>, std::allocator<void>, __gnu_cxx::_S_atomic>::_Impl" }
%"class.std::_Sp_counted_ptr_inplace<const facebook::velox::ScalarType<facebook::velox::TypeKind::TINYINT>, std::allocator<void>, __gnu_cxx::_S_atomic>::_Impl" = type { %"struct.__gnu_cxx::__aligned_buffer.701" }
%"struct.__gnu_cxx::__aligned_buffer.701" = type { %"union.std::aligned_storage<24, 8>::type" }
%"class.std::_Sp_counted_ptr_inplace.706" = type { %"class.std::_Sp_counted_base", %"class.std::_Sp_counted_ptr_inplace<const facebook::velox::ScalarType<facebook::velox::TypeKind::SMALLINT>, std::allocator<void>, __gnu_cxx::_S_atomic>::_Impl" }
%"class.std::_Sp_counted_ptr_inplace<const facebook::velox::ScalarType<facebook::velox::TypeKind::SMALLINT>, std::allocator<void>, __gnu_cxx::_S_atomic>::_Impl" = type { %"struct.__gnu_cxx::__aligned_buffer.707" }
%"struct.__gnu_cxx::__aligned_buffer.707" = type { %"union.std::aligned_storage<24, 8>::type" }
%"class.std::_Sp_counted_ptr_inplace.712" = type { %"class.std::_Sp_counted_base", %"class.std::_Sp_counted_ptr_inplace<const facebook::velox::ScalarType<facebook::velox::TypeKind::BIGINT>, std::allocator<void>, __gnu_cxx::_S_atomic>::_Impl" }
%"class.std::_Sp_counted_ptr_inplace<const facebook::velox::ScalarType<facebook::velox::TypeKind::BIGINT>, std::allocator<void>, __gnu_cxx::_S_atomic>::_Impl" = type { %"struct.__gnu_cxx::__aligned_buffer.713" }
%"struct.__gnu_cxx::__aligned_buffer.713" = type { %"union.std::aligned_storage<24, 8>::type" }
%"class.std::_Sp_counted_ptr_inplace.718" = type { %"class.std::_Sp_counted_base", %"class.std::_Sp_counted_ptr_inplace<const facebook::velox::ScalarType<facebook::velox::TypeKind::HUGEINT>, std::allocator<void>, __gnu_cxx::_S_atomic>::_Impl" }
%"class.std::_Sp_counted_ptr_inplace<const facebook::velox::ScalarType<facebook::velox::TypeKind::HUGEINT>, std::allocator<void>, __gnu_cxx::_S_atomic>::_Impl" = type { %"struct.__gnu_cxx::__aligned_buffer.719" }
%"struct.__gnu_cxx::__aligned_buffer.719" = type { %"union.std::aligned_storage<24, 8>::type" }
%"class.std::_Sp_counted_ptr_inplace.724" = type { %"class.std::_Sp_counted_base", %"class.std::_Sp_counted_ptr_inplace<const facebook::velox::ScalarType<facebook::velox::TypeKind::REAL>, std::allocator<void>, __gnu_cxx::_S_atomic>::_Impl" }
%"class.std::_Sp_counted_ptr_inplace<const facebook::velox::ScalarType<facebook::velox::TypeKind::REAL>, std::allocator<void>, __gnu_cxx::_S_atomic>::_Impl" = type { %"struct.__gnu_cxx::__aligned_buffer.725" }
%"struct.__gnu_cxx::__aligned_buffer.725" = type { %"union.std::aligned_storage<24, 8>::type" }
%"class.std::_Sp_counted_ptr_inplace.730" = type { %"class.std::_Sp_counted_base", %"class.std::_Sp_counted_ptr_inplace<const facebook::velox::ScalarType<facebook::velox::TypeKind::DOUBLE>, std::allocator<void>, __gnu_cxx::_S_atomic>::_Impl" }
%"class.std::_Sp_counted_ptr_inplace<const facebook::velox::ScalarType<facebook::velox::TypeKind::DOUBLE>, std::allocator<void>, __gnu_cxx::_S_atomic>::_Impl" = type { %"struct.__gnu_cxx::__aligned_buffer.731" }
%"struct.__gnu_cxx::__aligned_buffer.731" = type { %"union.std::aligned_storage<24, 8>::type" }
%"class.std::_Sp_counted_ptr_inplace.736" = type { %"class.std::_Sp_counted_base", %"class.std::_Sp_counted_ptr_inplace<const facebook::velox::ScalarType<facebook::velox::TypeKind::TIMESTAMP>, std::allocator<void>, __gnu_cxx::_S_atomic>::_Impl" }
%"class.std::_Sp_counted_ptr_inplace<const facebook::velox::ScalarType<facebook::velox::TypeKind::TIMESTAMP>, std::allocator<void>, __gnu_cxx::_S_atomic>::_Impl" = type { %"struct.__gnu_cxx::__aligned_buffer.737" }
%"struct.__gnu_cxx::__aligned_buffer.737" = type { %"union.std::aligned_storage<24, 8>::type" }
%"class.std::_Sp_counted_ptr_inplace.742" = type { %"class.std::_Sp_counted_base", %"class.std::_Sp_counted_ptr_inplace<const facebook::velox::ScalarType<facebook::velox::TypeKind::VARCHAR>, std::allocator<void>, __gnu_cxx::_S_atomic>::_Impl" }
%"class.std::_Sp_counted_ptr_inplace<const facebook::velox::ScalarType<facebook::velox::TypeKind::VARCHAR>, std::allocator<void>, __gnu_cxx::_S_atomic>::_Impl" = type { %"struct.__gnu_cxx::__aligned_buffer.743" }
%"struct.__gnu_cxx::__aligned_buffer.743" = type { %"union.std::aligned_storage<24, 8>::type" }
%"class.std::_Sp_counted_ptr_inplace.748" = type { %"class.std::_Sp_counted_base", %"class.std::_Sp_counted_ptr_inplace<const facebook::velox::ScalarType<facebook::velox::TypeKind::VARBINARY>, std::allocator<void>, __gnu_cxx::_S_atomic>::_Impl" }
%"class.std::_Sp_counted_ptr_inplace<const facebook::velox::ScalarType<facebook::velox::TypeKind::VARBINARY>, std::allocator<void>, __gnu_cxx::_S_atomic>::_Impl" = type { %"struct.__gnu_cxx::__aligned_buffer.749" }
%"struct.__gnu_cxx::__aligned_buffer.749" = type { %"union.std::aligned_storage<24, 8>::type" }
%"class.fmt::v8::format_arg_store" = type { %"struct.fmt::v8::detail::arg_data" }
%"struct.fmt::v8::detail::arg_data" = type { [2 x %"class.fmt::v8::detail::value"] }
%struct._Guard.773 = type { ptr }
%"struct.std::_Hashtable<std::__cxx11::basic_string<char>, std::pair<const std::__cxx11::basic_string<char>, std::unique_ptr<const facebook::velox::CustomTypeFactories>>, std::allocator<std::pair<const std::__cxx11::basic_string<char>, std::unique_ptr<const facebook::velox::CustomTypeFactories>>>, std::__detail::_Select1st, std::equal_to<std::__cxx11::basic_string<char>>, std::hash<string>, std::__detail::_Mod_range_hashing, std::__detail::_Default_ranged_hash, std::__detail::_Prime_rehash_policy, std::__detail::_Hashtable_traits<true, false, true>>::_Scoped_node" = type { ptr, ptr }
%"struct.std::_Hashtable<std::__cxx11::basic_string<char>, std::__cxx11::basic_string<char>, std::allocator<std::__cxx11::basic_string<char>>, std::__detail::_Identity, std::equal_to<std::__cxx11::basic_string<char>>, std::hash<string>, std::__detail::_Mod_range_hashing, std::__detail::_Default_ranged_hash, std::__detail::_Prime_rehash_policy, std::__detail::_Hashtable_traits<true, true, true>>::_Scoped_node" = type { ptr, ptr }

$_ZNSt4pairIKNSt7__cxx1112basic_stringIcSt11char_traitsIcESaIcEEEN8facebook5velox8TypeKindEEC2IRA8_KcS9_TnNSt9enable_ifIXaaclsr5_PCCPE22_MoveConstructiblePairIT_T0_EEclsr5_PCCPE30_ImplicitlyMoveConvertiblePairISG_SH_EEEbE4typeELb1EEEOSG_OSH_ = comdat any

$_ZNSt4pairIKNSt7__cxx1112basic_stringIcSt11char_traitsIcESaIcEEEN8facebook5velox8TypeKindEEC2IRA9_KcS9_TnNSt9enable_ifIXaaclsr5_PCCPE22_MoveConstructiblePairIT_T0_EEclsr5_PCCPE30_ImplicitlyMoveConvertiblePairISG_SH_EEEbE4typeELb1EEEOSG_OSH_ = comdat any

$_ZNSt4pairIKNSt7__cxx1112basic_stringIcSt11char_traitsIcESaIcEEEN8facebook5velox8TypeKindEEC2IRA7_KcS9_TnNSt9enable_ifIXaaclsr5_PCCPE22_MoveConstructiblePairIT_T0_EEclsr5_PCCPE30_ImplicitlyMoveConvertiblePairISG_SH_EEEbE4typeELb1EEEOSG_OSH_ = comdat any

$_ZNSt4pairIKNSt7__cxx1112basic_stringIcSt11char_traitsIcESaIcEEEN8facebook5velox8TypeKindEEC2IRA5_KcS9_TnNSt9enable_ifIXaaclsr5_PCCPE22_MoveConstructiblePairIT_T0_EEclsr5_PCCPE30_ImplicitlyMoveConvertiblePairISG_SH_EEEbE4typeELb1EEEOSG_OSH_ = comdat any

$_ZNSt4pairIKNSt7__cxx1112basic_stringIcSt11char_traitsIcESaIcEEEN8facebook5velox8TypeKindEEC2IRA10_KcS9_TnNSt9enable_ifIXaaclsr5_PCCPE22_MoveConstructiblePairIT_T0_EEclsr5_PCCPE30_ImplicitlyMoveConvertiblePairISG_SH_EEEbE4typeELb1EEEOSG_OSH_ = comdat any

$_ZNSt4pairIKNSt7__cxx1112basic_stringIcSt11char_traitsIcESaIcEEEN8facebook5velox8TypeKindEEC2IRA6_KcS9_TnNSt9enable_ifIXaaclsr5_PCCPE22_MoveConstructiblePairIT_T0_EEclsr5_PCCPE30_ImplicitlyMoveConvertiblePairISG_SH_EEEbE4typeELb1EEEOSG_OSH_ = comdat any

$_ZNSt4pairIKNSt7__cxx1112basic_stringIcSt11char_traitsIcESaIcEEEN8facebook5velox8TypeKindEEC2IRA4_KcS9_TnNSt9enable_ifIXaaclsr5_PCCPE22_MoveConstructiblePairIT_T0_EEclsr5_PCCPE30_ImplicitlyMoveConvertiblePairISG_SH_EEEbE4typeELb1EEEOSG_OSH_ = comdat any

$_ZNSt13unordered_mapINSt7__cxx1112basic_stringIcSt11char_traitsIcESaIcEEEN8facebook5velox8TypeKindESt4hashIS5_ESt8equal_toIS5_ESaISt4pairIKS5_S8_EEED2Ev = comdat any

$_ZNSt4pairIKN8facebook5velox8TypeKindENSt7__cxx1112basic_stringIcSt11char_traitsIcESaIcEEEEC2IS2_RA8_KcTnNSt9enable_ifIXaaclsr5_PCCPE22_MoveConstructiblePairIT_T0_EEclsr5_PCCPE30_ImplicitlyMoveConvertiblePairISG_SH_EEEbE4typeELb1EEEOSG_OSH_ = comdat any

$_ZNSt4pairIKN8facebook5velox8TypeKindENSt7__cxx1112basic_stringIcSt11char_traitsIcESaIcEEEEC2IS2_RA9_KcTnNSt9enable_ifIXaaclsr5_PCCPE22_MoveConstructiblePairIT_T0_EEclsr5_PCCPE30_ImplicitlyMoveConvertiblePairISG_SH_EEEbE4typeELb1EEEOSG_OSH_ = comdat any

$_ZNSt4pairIKN8facebook5velox8TypeKindENSt7__cxx1112basic_stringIcSt11char_traitsIcESaIcEEEEC2IS2_RA7_KcTnNSt9enable_ifIXaaclsr5_PCCPE22_MoveConstructiblePairIT_T0_EEclsr5_PCCPE30_ImplicitlyMoveConvertiblePairISG_SH_EEEbE4typeELb1EEEOSG_OSH_ = comdat any

$_ZNSt4pairIKN8facebook5velox8TypeKindENSt7__cxx1112basic_stringIcSt11char_traitsIcESaIcEEEEC2IS2_RA5_KcTnNSt9enable_ifIXaaclsr5_PCCPE22_MoveConstructiblePairIT_T0_EEclsr5_PCCPE30_ImplicitlyMoveConvertiblePairISG_SH_EEEbE4typeELb1EEEOSG_OSH_ = comdat any

$_ZNSt4pairIKN8facebook5velox8TypeKindENSt7__cxx1112basic_stringIcSt11char_traitsIcESaIcEEEEC2IS2_RA10_KcTnNSt9enable_ifIXaaclsr5_PCCPE22_MoveConstructiblePairIT_T0_EEclsr5_PCCPE30_ImplicitlyMoveConvertiblePairISG_SH_EEEbE4typeELb1EEEOSG_OSH_ = comdat any

$_ZNSt4pairIKN8facebook5velox8TypeKindENSt7__cxx1112basic_stringIcSt11char_traitsIcESaIcEEEEC2IS2_RA6_KcTnNSt9enable_ifIXaaclsr5_PCCPE22_MoveConstructiblePairIT_T0_EEclsr5_PCCPE30_ImplicitlyMoveConvertiblePairISG_SH_EEEbE4typeELb1EEEOSG_OSH_ = comdat any

$_ZNSt4pairIKN8facebook5velox8TypeKindENSt7__cxx1112basic_stringIcSt11char_traitsIcESaIcEEEEC2IS2_RA4_KcTnNSt9enable_ifIXaaclsr5_PCCPE22_MoveConstructiblePairIT_T0_EEclsr5_PCCPE30_ImplicitlyMoveConvertiblePairISG_SH_EEEbE4typeELb1EEEOSG_OSH_ = comdat any

$_ZNSt13unordered_mapIN8facebook5velox8TypeKindENSt7__cxx1112basic_stringIcSt11char_traitsIcESaIcEEESt4hashIS2_ESt8equal_toIS2_ESaISt4pairIKS2_S8_EEED2Ev = comdat any

$_ZNK5folly7dynamic4findENS_5RangeIPKcEE = comdat any

$_ZNSt6vectorISt10shared_ptrIKN8facebook5velox4TypeEESaIS5_EED2Ev = comdat any

$_ZNSt6vectorINSt7__cxx1112basic_stringIcSt11char_traitsIcESaIcEEESaIS5_EED2Ev = comdat any

$_ZN8facebook5velox8RegistryINSt7__cxx1112basic_stringIcSt11char_traitsIcESaIcEEEFSt10shared_ptrIKNS0_13ISerializableEERKN5folly7dynamicEEE8RegisterERKS7_St8functionISG_ESt8optionalISt17basic_string_viewIcS5_EE = comdat any

$_ZNSt7__cxx1112basic_stringIcSt11char_traitsIcESaIcEEC2IS3_EEPKcRKS3_ = comdat any

$_ZN8facebook5velox19IntervalDayTimeType11deserializeERKN5folly7dynamicE = comdat any

$_ZN8facebook5velox21IntervalYearMonthType11deserializeERKN5folly7dynamicE = comdat any

$_ZN8facebook5velox8DateType11deserializeERKN5folly7dynamicE = comdat any

$_ZN8facebook5velox13TypeParameterD2Ev = comdat any

$_ZNSt10shared_ptrIKN8facebook5velox4TypeEED2Ev = comdat any

$_ZN5folly7dynamicC2EPKc = comdat any

$_ZNSt6vectorIN8facebook5velox13TypeParameterESaIS2_EED2Ev = comdat any

$_ZNSt8__detaillsIcSt11char_traitsIcERKNSt7__cxx1112basic_stringIcS2_SaIcEEEEERSt13basic_ostreamIT_T0_ESD_RKNS_14_Quoted_stringIT1_SA_EE = comdat any

$_ZN8facebook5velox13ISerializable9serializeINSt7__cxx1112basic_stringIcSt11char_traitsIcESaIcEEEEEN5folly7dynamicERKSt6vectorIT_SaISC_EE = comdat any

$_ZN8facebook5velox13ISerializable9serializeISt10shared_ptrIKNS0_4TypeEEEEN5folly7dynamicERKSt6vectorIT_SaISA_EE = comdat any

$_ZN5folly14basic_fbstringIcSt11char_traitsIcESaIcENS_13fbstring_coreIcEEED2Ev = comdat any

$_ZN8facebook5velox10ScalarTypeILNS0_8TypeKindE3EE6createEv = comdat any

$_ZN8facebook5velox10ScalarTypeILNS0_8TypeKindE0EE6createEv = comdat any

$_ZN8facebook5velox10ScalarTypeILNS0_8TypeKindE1EE6createEv = comdat any

$_ZN8facebook5velox10ScalarTypeILNS0_8TypeKindE2EE6createEv = comdat any

$_ZN8facebook5velox10ScalarTypeILNS0_8TypeKindE4EE6createEv = comdat any

$_ZN8facebook5velox10ScalarTypeILNS0_8TypeKindE10EE6createEv = comdat any

$_ZN8facebook5velox10ScalarTypeILNS0_8TypeKindE5EE6createEv = comdat any

$_ZN8facebook5velox10ScalarTypeILNS0_8TypeKindE6EE6createEv = comdat any

$_ZN8facebook5velox10ScalarTypeILNS0_8TypeKindE9EE6createEv = comdat any

$_ZN8facebook5velox10ScalarTypeILNS0_8TypeKindE7EE6createEv = comdat any

$_ZN8facebook5velox10ScalarTypeILNS0_8TypeKindE8EE6createEv = comdat any

$_ZNSt13unordered_setINSt7__cxx1112basic_stringIcSt11char_traitsIcESaIcEEESt4hashIS5_ESt8equal_toIS5_ESaIS5_EED2Ev = comdat any

$_ZNSt10shared_ptrIKN8facebook5velox10ScalarTypeILNS1_8TypeKindE1EEEED2Ev = comdat any

$_ZNSt10shared_ptrIKN8facebook5velox10ScalarTypeILNS1_8TypeKindE0EEEED2Ev = comdat any

$_ZNSt10shared_ptrIKN8facebook5velox10ScalarTypeILNS1_8TypeKindE2EEEED2Ev = comdat any

$_ZNSt10shared_ptrIKN8facebook5velox10ScalarTypeILNS1_8TypeKindE4EEEED2Ev = comdat any

$_ZNSt10shared_ptrIKN8facebook5velox10ScalarTypeILNS1_8TypeKindE3EEEED2Ev = comdat any

$_ZNSt10shared_ptrIKN8facebook5velox10ScalarTypeILNS1_8TypeKindE5EEEED2Ev = comdat any

$_ZNSt10shared_ptrIKN8facebook5velox10ScalarTypeILNS1_8TypeKindE7EEEED2Ev = comdat any

$_ZNSt10shared_ptrIKN8facebook5velox10ScalarTypeILNS1_8TypeKindE8EEEED2Ev = comdat any

$_ZNSt10shared_ptrIKN8facebook5velox10ScalarTypeILNS1_8TypeKindE9EEEED2Ev = comdat any

$_ZNSt10shared_ptrIKN8facebook5velox10ScalarTypeILNS1_8TypeKindE6EEEED2Ev = comdat any

$_ZN8facebook5velox9ArrayTypeD2Ev = comdat any

$_ZN8facebook5velox9ArrayTypeD0Ev = comdat any

$_ZNK8facebook5velox9ArrayType4sizeEv = comdat any

$_ZNK8facebook5velox8TypeBaseILNS0_8TypeKindE30EE15isPrimitiveTypeEv = comdat any

$_ZNK8facebook5velox9ArrayType12isComparableEv = comdat any

$_ZNK8facebook5velox9ArrayType11isOrderableEv = comdat any

$_ZNK8facebook5velox8TypeBaseILNS0_8TypeKindE30EE4nameEv = comdat any

$_ZNK8facebook5velox9ArrayType10parametersEv = comdat any

$_ZNK8facebook5velox8TypeBaseILNS0_8TypeKindE30EE8kindNameEv = comdat any

$_ZNK8facebook5velox4TypeeqERKS1_ = comdat any

$_ZNK8facebook5velox4Type14cppSizeInBytesEv = comdat any

$_ZNK8facebook5velox8TypeBaseILNS0_8TypeKindE30EE12isFixedWidthEv = comdat any

$_ZThn8_N8facebook5velox9ArrayTypeD1Ev = comdat any

$_ZThn8_N8facebook5velox9ArrayTypeD0Ev = comdat any

$_ZN8facebook5velox7MapTypeD2Ev = comdat any

$_ZN8facebook5velox7MapTypeD0Ev = comdat any

$_ZNK8facebook5velox7MapType4sizeEv = comdat any

$_ZNK8facebook5velox8TypeBaseILNS0_8TypeKindE31EE15isPrimitiveTypeEv = comdat any

$_ZNK8facebook5velox7MapType12isComparableEv = comdat any

$_ZNK8facebook5velox8TypeBaseILNS0_8TypeKindE31EE11isOrderableEv = comdat any

$_ZNK8facebook5velox8TypeBaseILNS0_8TypeKindE31EE4nameEv = comdat any

$_ZNK8facebook5velox7MapType10parametersEv = comdat any

$_ZNK8facebook5velox8TypeBaseILNS0_8TypeKindE31EE8kindNameEv = comdat any

$_ZNK8facebook5velox8TypeBaseILNS0_8TypeKindE31EE12isFixedWidthEv = comdat any

$_ZThn8_N8facebook5velox7MapTypeD1Ev = comdat any

$_ZThn8_N8facebook5velox7MapTypeD0Ev = comdat any

$_ZN8facebook5velox7RowTypeD2Ev = comdat any

$_ZN8facebook5velox7RowTypeD0Ev = comdat any

$_ZNK8facebook5velox8TypeBaseILNS0_8TypeKindE32EE15isPrimitiveTypeEv = comdat any

$_ZNK8facebook5velox8TypeBaseILNS0_8TypeKindE32EE4nameEv = comdat any

$_ZNK8facebook5velox7RowType10parametersEv = comdat any

$_ZNK8facebook5velox8TypeBaseILNS0_8TypeKindE32EE8kindNameEv = comdat any

$_ZNK8facebook5velox8TypeBaseILNS0_8TypeKindE32EE12isFixedWidthEv = comdat any

$_ZThn8_N8facebook5velox7RowTypeD1Ev = comdat any

$_ZThn8_N8facebook5velox7RowTypeD0Ev = comdat any

$_ZN8facebook5velox12FunctionTypeD2Ev = comdat any

$_ZN8facebook5velox12FunctionTypeD0Ev = comdat any

$_ZNK8facebook5velox12FunctionType4sizeEv = comdat any

$_ZNK8facebook5velox12FunctionType7childAtEj = comdat any

$_ZNK8facebook5velox8TypeBaseILNS0_8TypeKindE34EE15isPrimitiveTypeEv = comdat any

$_ZNK8facebook5velox12FunctionType12isComparableEv = comdat any

$_ZNK8facebook5velox12FunctionType11isOrderableEv = comdat any

$_ZNK8facebook5velox8TypeBaseILNS0_8TypeKindE34EE4nameEv = comdat any

$_ZNK8facebook5velox12FunctionType10parametersEv = comdat any

$_ZNK8facebook5velox8TypeBaseILNS0_8TypeKindE34EE8kindNameEv = comdat any

$_ZNK8facebook5velox8TypeBaseILNS0_8TypeKindE34EE12isFixedWidthEv = comdat any

$_ZThn8_N8facebook5velox12FunctionTypeD1Ev = comdat any

$_ZThn8_N8facebook5velox12FunctionTypeD0Ev = comdat any

$_ZN8facebook5velox10OpaqueTypeD2Ev = comdat any

$_ZN8facebook5velox10OpaqueTypeD0Ev = comdat any

$_ZNK8facebook5velox10OpaqueType4sizeEv = comdat any

$_ZNK8facebook5velox10OpaqueType7childAtEj = comdat any

$_ZNK8facebook5velox8TypeBaseILNS0_8TypeKindE35EE15isPrimitiveTypeEv = comdat any

$_ZNK8facebook5velox8TypeBaseILNS0_8TypeKindE35EE12isComparableEv = comdat any

$_ZNK8facebook5velox8TypeBaseILNS0_8TypeKindE35EE11isOrderableEv = comdat any

$_ZNK8facebook5velox8TypeBaseILNS0_8TypeKindE35EE4nameEv = comdat any

$_ZNK8facebook5velox8TypeBaseILNS0_8TypeKindE35EE10parametersEv = comdat any

$_ZNK8facebook5velox8TypeBaseILNS0_8TypeKindE35EE8kindNameEv = comdat any

$_ZNK8facebook5velox8TypeBaseILNS0_8TypeKindE35EE12isFixedWidthEv = comdat any

$_ZThn8_N8facebook5velox10OpaqueTypeD1Ev = comdat any

$_ZThn8_N8facebook5velox10OpaqueTypeD0Ev = comdat any

$_ZNSt10_HashtableINSt7__cxx1112basic_stringIcSt11char_traitsIcESaIcEEESt4pairIKS5_N8facebook5velox8TypeKindEESaISB_ENSt8__detail10_Select1stESt8equal_toIS5_ESt4hashIS5_ENSD_18_Mod_range_hashingENSD_20_Default_ranged_hashENSD_20_Prime_rehash_policyENSD_17_Hashtable_traitsILb1ELb0ELb1EEEED2Ev = comdat any

$__clang_call_terminate = comdat any

$_ZNSt10_HashtableIN8facebook5velox8TypeKindESt4pairIKS2_NSt7__cxx1112basic_stringIcSt11char_traitsIcESaIcEEEESaISB_ENSt8__detail10_Select1stESt8equal_toIS2_ESt4hashIS2_ENSD_18_Mod_range_hashingENSD_20_Default_ranged_hashENSD_20_Prime_rehash_policyENSD_17_Hashtable_traitsILb1ELb0ELb1EEEED2Ev = comdat any

$_ZN5folly6detail16throw_exception_INS_9TypeErrorEJPKcNS_7dynamic4TypeEEEEvDpT0_ = comdat any

$_ZN5folly15throw_exceptionINS_9TypeErrorEEEvOT_ = comdat any

$_ZN5folly9TypeErrorD2Ev = comdat any

$_ZN5folly9TypeErrorC2EOS0_ = comdat any

$_ZN5folly9TypeErrorD0Ev = comdat any

$_ZN8facebook5velox13ISerializable11deserializeISt6vectorINS0_4TypeESaIS4_EEvEEDaRKN5folly7dynamicEPv = comdat any

$_ZN8facebook5velox13ISerializable11deserializeINS0_4TypeEvEESt10shared_ptrIKT_ERKN5folly7dynamicEPv = comdat any

$_ZNSt6vectorISt10shared_ptrIKN8facebook5velox4TypeEESaIS5_EE17_M_realloc_insertIJS5_EEEvN9__gnu_cxx17__normal_iteratorIPS5_S7_EEDpOT_ = comdat any

$_ZN8facebook5velox13ISerializable22deserializeAsUniquePtrINS0_4TypeEvEEDaRKN5folly7dynamicE = comdat any

$_ZNK8facebook5velox8RegistryINSt7__cxx1112basic_stringIcSt11char_traitsIcESaIcEEEFSt10shared_ptrIKNS0_13ISerializableEERKN5folly7dynamicEPvEE3HasERKS7_ = comdat any

$_ZNK8facebook5velox8RegistryINSt7__cxx1112basic_stringIcSt11char_traitsIcESaIcEEEFSt10shared_ptrIKNS0_13ISerializableEERKN5folly7dynamicEPvEE14CreateFunctionISH_EclERKS7_SF_SG_ = comdat any

$_ZNK8facebook5velox8RegistryINSt7__cxx1112basic_stringIcSt11char_traitsIcESaIcEEEFSt10shared_ptrIKNS0_13ISerializableEERKN5folly7dynamicEEE3HasERKS7_ = comdat any

$_ZNK8facebook5velox8RegistryINSt7__cxx1112basic_stringIcSt11char_traitsIcESaIcEEEFSt10shared_ptrIKNS0_13ISerializableEERKN5folly7dynamicEEE14CreateFunctionISG_EclERKS7_SF_ = comdat any

$_ZNK8facebook5velox8RegistryINSt7__cxx1112basic_stringIcSt11char_traitsIcESaIcEEEFSt10unique_ptrINS0_13ISerializableESt14default_deleteIS9_EERKN5folly7dynamicEEE3HasERKS7_ = comdat any

$_ZNK8facebook5velox8RegistryINSt7__cxx1112basic_stringIcSt11char_traitsIcESaIcEEEFSt10unique_ptrINS0_13ISerializableESt14default_deleteIS9_EERKN5folly7dynamicEEE14CreateFunctionISH_EclERKS7_SG_ = comdat any

$_ZNSt12__shared_ptrIN8facebook5velox13ISerializableELN9__gnu_cxx12_Lock_policyE2EEC2IS2_St14default_deleteIS2_EvEEOSt10unique_ptrIT_T0_E = comdat any

$_ZNSt14__shared_countILN9__gnu_cxx12_Lock_policyE2EED2Ev = comdat any

$_ZNSt19_Sp_counted_deleterIPN8facebook5velox13ISerializableESt14default_deleteIS2_ESaIvELN9__gnu_cxx12_Lock_policyE2EED2Ev = comdat any

$_ZNSt19_Sp_counted_deleterIPN8facebook5velox13ISerializableESt14default_deleteIS2_ESaIvELN9__gnu_cxx12_Lock_policyE2EED0Ev = comdat any

$_ZNSt19_Sp_counted_deleterIPN8facebook5velox13ISerializableESt14default_deleteIS2_ESaIvELN9__gnu_cxx12_Lock_policyE2EE10_M_disposeEv = comdat any

$_ZNSt19_Sp_counted_deleterIPN8facebook5velox13ISerializableESt14default_deleteIS2_ESaIvELN9__gnu_cxx12_Lock_policyE2EE10_M_destroyEv = comdat any

$_ZNSt19_Sp_counted_deleterIPN8facebook5velox13ISerializableESt14default_deleteIS2_ESaIvELN9__gnu_cxx12_Lock_policyE2EE14_M_get_deleterERKSt9type_info = comdat any

$_ZNK5folly7dynamic6asImplINSt7__cxx1112basic_stringIcSt11char_traitsIcESaIcEEEEET_v = comdat any

$_ZN5folly2toINSt7__cxx1112basic_stringIcSt11char_traitsIcESaIcEEEdEENSt9enable_ifIXaasr12IsSomeStringIT_EE5valuesr3std17is_floating_pointIT0_EE5valueES8_E4typeES9_ = comdat any

$_ZN5folly2toINSt7__cxx1112basic_stringIcSt11char_traitsIcESaIcEEES6_EENSt9enable_ifIXaasr12IsSomeStringIT0_EE5valuentsr3std7is_sameINS_5RangeIPKcEET_EE5valueESD_E4typeERKS8_ = comdat any

$_ZN5folly11toAppendFitIJlPNSt7__cxx1112basic_stringIcSt11char_traitsIcESaIcEEEEEENSt9enable_ifIXsr12IsSomeStringINSt14remove_pointerINS_6detail11LastElementIJDpRKT_EE4typeEE4typeEEE5valueEvE4typeESF_ = comdat any

$_ZN5folly11toAppendFitIJbPNSt7__cxx1112basic_stringIcSt11char_traitsIcESaIcEEEEEENSt9enable_ifIXsr12IsSomeStringINSt14remove_pointerINS_6detail11LastElementIJDpRKT_EE4typeEE4typeEEE5valueEvE4typeESF_ = comdat any

$_ZN5folly6detail16throw_exception_INS_17BadExpectedAccessIvEEJEEEvDpT0_ = comdat any

$_ZN5folly15throw_exceptionINS_17BadExpectedAccessIvEEEEvOT_ = comdat any

$_ZN5folly17BadExpectedAccessIvED2Ev = comdat any

$_ZN5folly17BadExpectedAccessIvED0Ev = comdat any

$_ZNK5folly17BadExpectedAccessIvE4whatEv = comdat any

$_ZN5folly15throw_exceptionINS_15ConversionErrorEEEvOT_ = comdat any

$_ZN5folly15ConversionErrorD2Ev = comdat any

$_ZN5folly15ConversionErrorC2EOS0_ = comdat any

$_ZN5folly15ConversionErrorD0Ev = comdat any

$_ZN5folly6detail16throw_exception_INS_17BadExpectedAccessINS_14ConversionCodeEEEJS3_EEEvDpT0_ = comdat any

$_ZN5folly15throw_exceptionINS_17BadExpectedAccessINS_14ConversionCodeEEEEEvOT_ = comdat any

$_ZN5folly17BadExpectedAccessINS_14ConversionCodeEED2Ev = comdat any

$_ZN5folly17BadExpectedAccessINS_14ConversionCodeEED0Ev = comdat any

$_ZN5folly2toIldEENSt9enable_ifIXsr6detail14IsArithToArithIT_T0_EE5valueES2_E4typeERKS3_ = comdat any

$_ZZN5folly2toIldEENSt9enable_ifIXsr6detail14IsArithToArithIT_T0_EE5valueES2_E4typeERKS3_ENKUlNS_14ConversionCodeEE_clES8_ = comdat any

$_ZN5folly2toINSt7__cxx1112basic_stringIcSt11char_traitsIcESaIcEEEJA2_cPKcA3_cdEEENSt9enable_ifIXaasr12IsSomeStringIT_EE5valueoonesZT0_Li1Entsr3std7is_sameISC_NS_6detail11LastElementIJDpRKT0_EE4typeEEE5valueESC_E4typeESI_ = comdat any

$_ZN5folly6detail15toAppendStrImplIA3_cJdPNSt7__cxx1112basic_stringIcSt11char_traitsIcESaIcEEEEEENSt9enable_ifIXaagesZT0_Li2Esr12IsSomeStringINSt14remove_pointerINS0_11LastElementIJDpRKT0_EE4typeEE4typeEEE5valueEvE4typeERKT_SG_ = comdat any

$_ZN5folly2toIlEENSt9enable_ifIXntsr3std7is_sameINS_5RangeIPKcEET_EE5valueES6_E4typeES5_ = comdat any

$_ZZN5folly2toIlEENSt9enable_ifIXntsr3std7is_sameINS_5RangeIPKcEET_EE5valueES6_E4typeES5_ENKUlNS_14ConversionCodeEE_clES9_ = comdat any

$_ZZN5folly2toIlEENSt9enable_ifIXntsr3std7is_sameINS_5RangeIPKcEET_EE5valueES6_E4typeES5_ENKUlNS_14ConversionCodeEE0_clES9_ = comdat any

$_ZNSt10_HashtableINSt7__cxx1112basic_stringIcSt11char_traitsIcESaIcEEESt4pairIKS5_St10shared_ptrIKN8facebook5velox10OpaqueTypeEEESaISE_ENSt8__detail10_Select1stESt8equal_toIS5_ESt4hashIS5_ENSG_18_Mod_range_hashingENSG_20_Default_ranged_hashENSG_20_Prime_rehash_policyENSG_17_Hashtable_traitsILb1ELb0ELb1EEEE5clearEv = comdat any

$_ZN8facebook5velox19IntervalDayTimeType3getEv = comdat any

$_ZNSt10shared_ptrIKN8facebook5velox19IntervalDayTimeTypeEEC2IS2_vEEPT_ = comdat any

$_ZNSt10shared_ptrIKN8facebook5velox19IntervalDayTimeTypeEED2Ev = comdat any

$_ZN8facebook5velox19IntervalDayTimeTypeD2Ev = comdat any

$_ZN8facebook5velox19IntervalDayTimeTypeD0Ev = comdat any

$_ZNK8facebook5velox10ScalarTypeILNS0_8TypeKindE4EE4sizeEv = comdat any

$_ZNK8facebook5velox10ScalarTypeILNS0_8TypeKindE4EE7childAtEj = comdat any

$_ZNK8facebook5velox8TypeBaseILNS0_8TypeKindE4EE15isPrimitiveTypeEv = comdat any

$_ZNK8facebook5velox10ScalarTypeILNS0_8TypeKindE4EE12isComparableEv = comdat any

$_ZNK8facebook5velox10ScalarTypeILNS0_8TypeKindE4EE11isOrderableEv = comdat any

$_ZNK8facebook5velox19IntervalDayTimeType4nameEv = comdat any

$_ZNK8facebook5velox8TypeBaseILNS0_8TypeKindE4EE10parametersEv = comdat any

$_ZNK8facebook5velox8TypeBaseILNS0_8TypeKindE4EE8kindNameEv = comdat any

$_ZNK8facebook5velox19IntervalDayTimeType8toStringB5cxx11Ev = comdat any

$_ZNK8facebook5velox19IntervalDayTimeType10equivalentERKNS0_4TypeE = comdat any

$_ZNK8facebook5velox10ScalarTypeILNS0_8TypeKindE4EE14cppSizeInBytesEv = comdat any

$_ZNK8facebook5velox8TypeBaseILNS0_8TypeKindE4EE12isFixedWidthEv = comdat any

$_ZNK8facebook5velox19IntervalDayTimeType9serializeEv = comdat any

$_ZThn8_NK8facebook5velox19IntervalDayTimeType9serializeEv = comdat any

$_ZThn8_N8facebook5velox19IntervalDayTimeTypeD1Ev = comdat any

$_ZThn8_N8facebook5velox19IntervalDayTimeTypeD0Ev = comdat any

$_ZN8facebook5velox10ScalarTypeILNS0_8TypeKindE4EED2Ev = comdat any

$_ZN8facebook5velox10ScalarTypeILNS0_8TypeKindE4EED0Ev = comdat any

$_ZNK8facebook5velox8TypeBaseILNS0_8TypeKindE4EE4nameEv = comdat any

$_ZNK8facebook5velox10ScalarTypeILNS0_8TypeKindE4EE8toStringB5cxx11Ev = comdat any

$_ZNK8facebook5velox10ScalarTypeILNS0_8TypeKindE4EE10equivalentERKNS0_4TypeE = comdat any

$_ZNK8facebook5velox10ScalarTypeILNS0_8TypeKindE4EE9serializeEv = comdat any

$_ZThn8_NK8facebook5velox10ScalarTypeILNS0_8TypeKindE4EE9serializeEv = comdat any

$_ZThn8_N8facebook5velox10ScalarTypeILNS0_8TypeKindE4EED1Ev = comdat any

$_ZThn8_N8facebook5velox10ScalarTypeILNS0_8TypeKindE4EED0Ev = comdat any

$_ZNSt15_Sp_counted_ptrIPN8facebook5velox19IntervalDayTimeTypeELN9__gnu_cxx12_Lock_policyE2EED2Ev = comdat any

$_ZNSt15_Sp_counted_ptrIPN8facebook5velox19IntervalDayTimeTypeELN9__gnu_cxx12_Lock_policyE2EED0Ev = comdat any

$_ZNSt15_Sp_counted_ptrIPN8facebook5velox19IntervalDayTimeTypeELN9__gnu_cxx12_Lock_policyE2EE10_M_disposeEv = comdat any

$_ZNSt15_Sp_counted_ptrIPN8facebook5velox19IntervalDayTimeTypeELN9__gnu_cxx12_Lock_policyE2EE10_M_destroyEv = comdat any

$_ZNSt15_Sp_counted_ptrIPN8facebook5velox19IntervalDayTimeTypeELN9__gnu_cxx12_Lock_policyE2EE14_M_get_deleterERKSt9type_info = comdat any

$_ZN8facebook5velox21IntervalYearMonthType3getEv = comdat any

$_ZNSt10shared_ptrIKN8facebook5velox21IntervalYearMonthTypeEEC2IS2_vEEPT_ = comdat any

$_ZNSt10shared_ptrIKN8facebook5velox21IntervalYearMonthTypeEED2Ev = comdat any

$_ZN8facebook5velox21IntervalYearMonthTypeD2Ev = comdat any

$_ZN8facebook5velox21IntervalYearMonthTypeD0Ev = comdat any

$_ZNK8facebook5velox10ScalarTypeILNS0_8TypeKindE3EE4sizeEv = comdat any

$_ZNK8facebook5velox10ScalarTypeILNS0_8TypeKindE3EE7childAtEj = comdat any

$_ZNK8facebook5velox8TypeBaseILNS0_8TypeKindE3EE15isPrimitiveTypeEv = comdat any

$_ZNK8facebook5velox10ScalarTypeILNS0_8TypeKindE3EE12isComparableEv = comdat any

$_ZNK8facebook5velox10ScalarTypeILNS0_8TypeKindE3EE11isOrderableEv = comdat any

$_ZNK8facebook5velox21IntervalYearMonthType4nameEv = comdat any

$_ZNK8facebook5velox8TypeBaseILNS0_8TypeKindE3EE10parametersEv = comdat any

$_ZNK8facebook5velox8TypeBaseILNS0_8TypeKindE3EE8kindNameEv = comdat any

$_ZNK8facebook5velox21IntervalYearMonthType8toStringB5cxx11Ev = comdat any

$_ZNK8facebook5velox21IntervalYearMonthType10equivalentERKNS0_4TypeE = comdat any

$_ZNK8facebook5velox10ScalarTypeILNS0_8TypeKindE3EE14cppSizeInBytesEv = comdat any

$_ZNK8facebook5velox8TypeBaseILNS0_8TypeKindE3EE12isFixedWidthEv = comdat any

$_ZNK8facebook5velox21IntervalYearMonthType9serializeEv = comdat any

$_ZThn8_NK8facebook5velox21IntervalYearMonthType9serializeEv = comdat any

$_ZThn8_N8facebook5velox21IntervalYearMonthTypeD1Ev = comdat any

$_ZThn8_N8facebook5velox21IntervalYearMonthTypeD0Ev = comdat any

$_ZN8facebook5velox10ScalarTypeILNS0_8TypeKindE3EED2Ev = comdat any

$_ZN8facebook5velox10ScalarTypeILNS0_8TypeKindE3EED0Ev = comdat any

$_ZNK8facebook5velox8TypeBaseILNS0_8TypeKindE3EE4nameEv = comdat any

$_ZNK8facebook5velox10ScalarTypeILNS0_8TypeKindE3EE8toStringB5cxx11Ev = comdat any

$_ZNK8facebook5velox10ScalarTypeILNS0_8TypeKindE3EE10equivalentERKNS0_4TypeE = comdat any

$_ZNK8facebook5velox10ScalarTypeILNS0_8TypeKindE3EE9serializeEv = comdat any

$_ZThn8_NK8facebook5velox10ScalarTypeILNS0_8TypeKindE3EE9serializeEv = comdat any

$_ZThn8_N8facebook5velox10ScalarTypeILNS0_8TypeKindE3EED1Ev = comdat any

$_ZThn8_N8facebook5velox10ScalarTypeILNS0_8TypeKindE3EED0Ev = comdat any

$_ZNSt15_Sp_counted_ptrIPN8facebook5velox21IntervalYearMonthTypeELN9__gnu_cxx12_Lock_policyE2EED2Ev = comdat any

$_ZNSt15_Sp_counted_ptrIPN8facebook5velox21IntervalYearMonthTypeELN9__gnu_cxx12_Lock_policyE2EED0Ev = comdat any

$_ZNSt15_Sp_counted_ptrIPN8facebook5velox21IntervalYearMonthTypeELN9__gnu_cxx12_Lock_policyE2EE10_M_disposeEv = comdat any

$_ZNSt15_Sp_counted_ptrIPN8facebook5velox21IntervalYearMonthTypeELN9__gnu_cxx12_Lock_policyE2EE10_M_destroyEv = comdat any

$_ZNSt15_Sp_counted_ptrIPN8facebook5velox21IntervalYearMonthTypeELN9__gnu_cxx12_Lock_policyE2EE14_M_get_deleterERKSt9type_info = comdat any

$_ZN8facebook5velox8DateType3getEv = comdat any

$_ZNSt10shared_ptrIKN8facebook5velox8DateTypeEEC2IS2_vEEPT_ = comdat any

$_ZNSt10shared_ptrIKN8facebook5velox8DateTypeEED2Ev = comdat any

$_ZN8facebook5velox8DateTypeD2Ev = comdat any

$_ZN8facebook5velox8DateTypeD0Ev = comdat any

$_ZNK8facebook5velox8DateType4nameEv = comdat any

$_ZNK8facebook5velox8DateType8toStringB5cxx11Ev = comdat any

$_ZNK8facebook5velox8DateType10equivalentERKNS0_4TypeE = comdat any

$_ZNK8facebook5velox8DateType9serializeEv = comdat any

$_ZThn8_NK8facebook5velox8DateType9serializeEv = comdat any

$_ZThn8_N8facebook5velox8DateTypeD1Ev = comdat any

$_ZThn8_N8facebook5velox8DateTypeD0Ev = comdat any

$_ZNSt15_Sp_counted_ptrIPN8facebook5velox8DateTypeELN9__gnu_cxx12_Lock_policyE2EED2Ev = comdat any

$_ZNSt15_Sp_counted_ptrIPN8facebook5velox8DateTypeELN9__gnu_cxx12_Lock_policyE2EED0Ev = comdat any

$_ZNSt15_Sp_counted_ptrIPN8facebook5velox8DateTypeELN9__gnu_cxx12_Lock_policyE2EE10_M_disposeEv = comdat any

$_ZNSt15_Sp_counted_ptrIPN8facebook5velox8DateTypeELN9__gnu_cxx12_Lock_policyE2EE10_M_destroyEv = comdat any

$_ZNSt15_Sp_counted_ptrIPN8facebook5velox8DateTypeELN9__gnu_cxx12_Lock_policyE2EE14_M_get_deleterERKSt9type_info = comdat any

$_ZNSt6vectorIN5folly7dynamicESaIS1_EE17_M_realloc_insertIJS1_EEEvN9__gnu_cxx17__normal_iteratorIPS1_S3_EEDpOT_ = comdat any

$_ZNSt6vectorIN8facebook5velox13TypeParameterESaIS2_EE7reserveEm = comdat any

$_ZNSt6vectorIN8facebook5velox13TypeParameterESaIS2_EE17_M_realloc_insertIJS2_EEEvN9__gnu_cxx17__normal_iteratorIPS2_S4_EEDpOT_ = comdat any

$_ZN5folly10F14FastMapINSt7__cxx1112basic_stringIcSt11char_traitsIcESaIcEEEjNS_23HeterogeneousAccessHashIS6_vEENS_26HeterogeneousAccessEqualToIS6_vEESaISt4pairIKS6_jEEED2Ev = comdat any

$_ZN5folly3f146detail8F14TableINS1_21VectorContainerPolicyINSt7__cxx1112basic_stringIcSt11char_traitsIcESaIcEEEjvvvSt17integral_constantIbLb1EEEEE14initialReserveEm = comdat any

$_ZN5folly6detail16throw_exception_ISt9bad_allocJEEEvDpT0_ = comdat any

$_ZN5folly15throw_exceptionISt9bad_allocEEvOT_ = comdat any

$_ZN5folly3f146detail8F14TableINS1_21VectorContainerPolicyINSt7__cxx1112basic_stringIcSt11char_traitsIcESaIcEEEjvvvSt17integral_constantIbLb1EEEEE10rehashImplEmmmmm = comdat any

$_ZZN5folly3f146detail8F14TableINS1_21VectorContainerPolicyINSt7__cxx1112basic_stringIcSt11char_traitsIcESaIcEEEjvvvSt17integral_constantIbLb1EEEEE10rehashImplEmmmmmENKUlvE_clEv = comdat any

$_ZN5folly3f146detail11F14BasicMapINS1_21VectorContainerPolicyINSt7__cxx1112basic_stringIcSt11char_traitsIcESaIcEEEjvvvSt17integral_constantIbLb1EEEEE11try_emplaceIJEEESt4pairINS1_23VectorContainerIteratorIPSF_IKS9_jEEEbERSH_DpOT_ = comdat any

$_ZN5folly3f146detail8F14TableINS1_21VectorContainerPolicyINSt7__cxx1112basic_stringIcSt11char_traitsIcESaIcEEEjvvvSt17integral_constantIbLb1EEEEE19tryEmplaceValueImplIS9_JRKSt21piecewise_construct_tSt5tupleIJRKS9_EESI_IJEEEEESt4pairINS1_11F14ItemIterIPNS1_8F14ChunkIjEEEEbESN_ImmERKT_DpOT0_ = comdat any

$_ZN5folly3f146detail8F14TableINS1_21VectorContainerPolicyINSt7__cxx1112basic_stringIcSt11char_traitsIcESaIcEEEjvvvSt17integral_constantIbLb1EEEEE16reserveForInsertEm = comdat any

$_ZN5folly3f146detail8F14TableINS1_21VectorContainerPolicyINSt7__cxx1112basic_stringIcSt11char_traitsIcESaIcEEEjvvvSt17integral_constantIbLb1EEEEE10eraseBlankENS1_11F14ItemIterIPNS1_8F14ChunkIjEEEESt4pairImmE = comdat any

$_ZSt27__throw_bad_optional_accessv = comdat any

$_ZNSt19bad_optional_accessD2Ev = comdat any

$_ZNSt19bad_optional_accessD0Ev = comdat any

$_ZNKSt19bad_optional_access4whatEv = comdat any

$_ZNSt23_Sp_counted_ptr_inplaceIN8facebook5velox11UnknownTypeESaIvELN9__gnu_cxx12_Lock_policyE2EED2Ev = comdat any

$_ZNSt23_Sp_counted_ptr_inplaceIN8facebook5velox11UnknownTypeESaIvELN9__gnu_cxx12_Lock_policyE2EED0Ev = comdat any

$_ZNSt23_Sp_counted_ptr_inplaceIN8facebook5velox11UnknownTypeESaIvELN9__gnu_cxx12_Lock_policyE2EE10_M_disposeEv = comdat any

$_ZNSt23_Sp_counted_ptr_inplaceIN8facebook5velox11UnknownTypeESaIvELN9__gnu_cxx12_Lock_policyE2EE10_M_destroyEv = comdat any

$_ZNSt23_Sp_counted_ptr_inplaceIN8facebook5velox11UnknownTypeESaIvELN9__gnu_cxx12_Lock_policyE2EE14_M_get_deleterERKSt9type_info = comdat any

$_ZN8facebook5velox11UnknownTypeD2Ev = comdat any

$_ZN8facebook5velox11UnknownTypeD0Ev = comdat any

$_ZNK8facebook5velox11UnknownType4sizeEv = comdat any

$_ZNK8facebook5velox11UnknownType7childAtEj = comdat any

$_ZNK8facebook5velox8TypeBaseILNS0_8TypeKindE33EE15isPrimitiveTypeEv = comdat any

$_ZNK8facebook5velox8TypeBaseILNS0_8TypeKindE33EE12isComparableEv = comdat any

$_ZNK8facebook5velox8TypeBaseILNS0_8TypeKindE33EE11isOrderableEv = comdat any

$_ZNK8facebook5velox8TypeBaseILNS0_8TypeKindE33EE4nameEv = comdat any

$_ZNK8facebook5velox8TypeBaseILNS0_8TypeKindE33EE10parametersEv = comdat any

$_ZNK8facebook5velox8TypeBaseILNS0_8TypeKindE33EE8kindNameEv = comdat any

$_ZNK8facebook5velox11UnknownType8toStringB5cxx11Ev = comdat any

$_ZNK8facebook5velox11UnknownType10equivalentERKNS0_4TypeE = comdat any

$_ZNK8facebook5velox11UnknownType14cppSizeInBytesEv = comdat any

$_ZNK8facebook5velox8TypeBaseILNS0_8TypeKindE33EE12isFixedWidthEv = comdat any

$_ZNK8facebook5velox11UnknownType9serializeEv = comdat any

$_ZThn8_NK8facebook5velox11UnknownType9serializeEv = comdat any

$_ZThn8_N8facebook5velox11UnknownTypeD1Ev = comdat any

$_ZThn8_N8facebook5velox11UnknownTypeD0Ev = comdat any

$_ZN8facebook5velox16createScalarTypeILNS0_8TypeKindE0EEESt10shared_ptrIKNS0_4TypeEEv = comdat any

$_ZN8facebook5velox16createScalarTypeILNS0_8TypeKindE3EEESt10shared_ptrIKNS0_4TypeEEv = comdat any

$_ZN8facebook5velox16createScalarTypeILNS0_8TypeKindE1EEESt10shared_ptrIKNS0_4TypeEEv = comdat any

$_ZN8facebook5velox16createScalarTypeILNS0_8TypeKindE2EEESt10shared_ptrIKNS0_4TypeEEv = comdat any

$_ZN8facebook5velox16createScalarTypeILNS0_8TypeKindE4EEESt10shared_ptrIKNS0_4TypeEEv = comdat any

$_ZN8facebook5velox16createScalarTypeILNS0_8TypeKindE10EEESt10shared_ptrIKNS0_4TypeEEv = comdat any

$_ZN8facebook5velox16createScalarTypeILNS0_8TypeKindE5EEESt10shared_ptrIKNS0_4TypeEEv = comdat any

$_ZN8facebook5velox16createScalarTypeILNS0_8TypeKindE6EEESt10shared_ptrIKNS0_4TypeEEv = comdat any

$_ZN8facebook5velox16createScalarTypeILNS0_8TypeKindE7EEESt10shared_ptrIKNS0_4TypeEEv = comdat any

$_ZN8facebook5velox16createScalarTypeILNS0_8TypeKindE8EEESt10shared_ptrIKNS0_4TypeEEv = comdat any

$_ZN8facebook5velox16createScalarTypeILNS0_8TypeKindE9EEESt10shared_ptrIKNS0_4TypeEEv = comdat any

$_ZNSt10shared_ptrIKN8facebook5velox10ScalarTypeILNS1_8TypeKindE10EEEED2Ev = comdat any

$_ZN8facebook5velox10createTypeILNS0_8TypeKindE0EEESt10shared_ptrIKNS0_4TypeEEOSt6vectorIS6_SaIS6_EE = comdat any

$_ZN8facebook5velox10createTypeILNS0_8TypeKindE3EEESt10shared_ptrIKNS0_4TypeEEOSt6vectorIS6_SaIS6_EE = comdat any

$_ZN8facebook5velox10createTypeILNS0_8TypeKindE1EEESt10shared_ptrIKNS0_4TypeEEOSt6vectorIS6_SaIS6_EE = comdat any

$_ZN8facebook5velox10createTypeILNS0_8TypeKindE2EEESt10shared_ptrIKNS0_4TypeEEOSt6vectorIS6_SaIS6_EE = comdat any

$_ZN8facebook5velox10createTypeILNS0_8TypeKindE4EEESt10shared_ptrIKNS0_4TypeEEOSt6vectorIS6_SaIS6_EE = comdat any

$_ZN8facebook5velox10createTypeILNS0_8TypeKindE10EEESt10shared_ptrIKNS0_4TypeEEOSt6vectorIS6_SaIS6_EE = comdat any

$_ZN8facebook5velox10createTypeILNS0_8TypeKindE5EEESt10shared_ptrIKNS0_4TypeEEOSt6vectorIS6_SaIS6_EE = comdat any

$_ZN8facebook5velox10createTypeILNS0_8TypeKindE6EEESt10shared_ptrIKNS0_4TypeEEOSt6vectorIS6_SaIS6_EE = comdat any

$_ZN8facebook5velox10createTypeILNS0_8TypeKindE7EEESt10shared_ptrIKNS0_4TypeEEOSt6vectorIS6_SaIS6_EE = comdat any

$_ZN8facebook5velox10createTypeILNS0_8TypeKindE8EEESt10shared_ptrIKNS0_4TypeEEOSt6vectorIS6_SaIS6_EE = comdat any

$_ZN8facebook5velox10createTypeILNS0_8TypeKindE9EEESt10shared_ptrIKNS0_4TypeEEOSt6vectorIS6_SaIS6_EE = comdat any

$_ZNSt13unordered_mapINSt7__cxx1112basic_stringIcSt11char_traitsIcESaIcEEESt10unique_ptrIKN8facebook5velox19CustomTypeFactoriesESt14default_deleteISA_EESt4hashIS5_ESt8equal_toIS5_ESaISt4pairIKS5_SD_EEED2Ev = comdat any

$_ZNSt4pairIKNSt7__cxx1112basic_stringIcSt11char_traitsIcESaIcEEESt10shared_ptrIKN8facebook5velox4TypeEEEC2IRA8_KcS7_IKNS9_10ScalarTypeILNS9_8TypeKindE0EEEETnNSt9enable_ifIXaaclsr5_PCCPE22_MoveConstructiblePairIT_T0_EEclsr5_PCCPE30_ImplicitlyMoveConvertiblePairISO_SP_EEEbE4typeELb1EEEOSO_OSP_ = comdat any

$_ZNSt4pairIKNSt7__cxx1112basic_stringIcSt11char_traitsIcESaIcEEESt10shared_ptrIKN8facebook5velox4TypeEEEC2IRA8_KcS7_IKNS9_10ScalarTypeILNS9_8TypeKindE1EEEETnNSt9enable_ifIXaaclsr5_PCCPE22_MoveConstructiblePairIT_T0_EEclsr5_PCCPE30_ImplicitlyMoveConvertiblePairISO_SP_EEEbE4typeELb1EEEOSO_OSP_ = comdat any

$_ZNSt4pairIKNSt7__cxx1112basic_stringIcSt11char_traitsIcESaIcEEESt10shared_ptrIKN8facebook5velox4TypeEEEC2IRA9_KcS7_IKNS9_10ScalarTypeILNS9_8TypeKindE2EEEETnNSt9enable_ifIXaaclsr5_PCCPE22_MoveConstructiblePairIT_T0_EEclsr5_PCCPE30_ImplicitlyMoveConvertiblePairISO_SP_EEEbE4typeELb1EEEOSO_OSP_ = comdat any

$_ZNSt4pairIKNSt7__cxx1112basic_stringIcSt11char_traitsIcESaIcEEESt10shared_ptrIKN8facebook5velox4TypeEEEC2IRA8_KcS7_IKNS9_10ScalarTypeILNS9_8TypeKindE3EEEETnNSt9enable_ifIXaaclsr5_PCCPE22_MoveConstructiblePairIT_T0_EEclsr5_PCCPE30_ImplicitlyMoveConvertiblePairISO_SP_EEEbE4typeELb1EEEOSO_OSP_ = comdat any

$_ZNSt4pairIKNSt7__cxx1112basic_stringIcSt11char_traitsIcESaIcEEESt10shared_ptrIKN8facebook5velox4TypeEEEC2IRA7_KcS7_IKNS9_10ScalarTypeILNS9_8TypeKindE4EEEETnNSt9enable_ifIXaaclsr5_PCCPE22_MoveConstructiblePairIT_T0_EEclsr5_PCCPE30_ImplicitlyMoveConvertiblePairISO_SP_EEEbE4typeELb1EEEOSO_OSP_ = comdat any

$_ZNSt4pairIKNSt7__cxx1112basic_stringIcSt11char_traitsIcESaIcEEESt10shared_ptrIKN8facebook5velox4TypeEEEC2IRA8_KcS7_IKNS9_10ScalarTypeILNS9_8TypeKindE10EEEETnNSt9enable_ifIXaaclsr5_PCCPE22_MoveConstructiblePairIT_T0_EEclsr5_PCCPE30_ImplicitlyMoveConvertiblePairISO_SP_EEEbE4typeELb1EEEOSO_OSP_ = comdat any

$_ZNSt4pairIKNSt7__cxx1112basic_stringIcSt11char_traitsIcESaIcEEESt10shared_ptrIKN8facebook5velox4TypeEEEC2IRA5_KcS7_IKNS9_10ScalarTypeILNS9_8TypeKindE5EEEETnNSt9enable_ifIXaaclsr5_PCCPE22_MoveConstructiblePairIT_T0_EEclsr5_PCCPE30_ImplicitlyMoveConvertiblePairISO_SP_EEEbE4typeELb1EEEOSO_OSP_ = comdat any

$_ZNSt4pairIKNSt7__cxx1112basic_stringIcSt11char_traitsIcESaIcEEESt10shared_ptrIKN8facebook5velox4TypeEEEC2IRA7_KcS7_IKNS9_10ScalarTypeILNS9_8TypeKindE6EEEETnNSt9enable_ifIXaaclsr5_PCCPE22_MoveConstructiblePairIT_T0_EEclsr5_PCCPE30_ImplicitlyMoveConvertiblePairISO_SP_EEEbE4typeELb1EEEOSO_OSP_ = comdat any

$_ZNSt4pairIKNSt7__cxx1112basic_stringIcSt11char_traitsIcESaIcEEESt10shared_ptrIKN8facebook5velox4TypeEEEC2IRA8_KcS7_IKNS9_10ScalarTypeILNS9_8TypeKindE7EEEETnNSt9enable_ifIXaaclsr5_PCCPE22_MoveConstructiblePairIT_T0_EEclsr5_PCCPE30_ImplicitlyMoveConvertiblePairISO_SP_EEEbE4typeELb1EEEOSO_OSP_ = comdat any

$_ZNSt4pairIKNSt7__cxx1112basic_stringIcSt11char_traitsIcESaIcEEESt10shared_ptrIKN8facebook5velox4TypeEEEC2IRA10_KcS7_IKNS9_10ScalarTypeILNS9_8TypeKindE8EEEETnNSt9enable_ifIXaaclsr5_PCCPE22_MoveConstructiblePairIT_T0_EEclsr5_PCCPE30_ImplicitlyMoveConvertiblePairISO_SP_EEEbE4typeELb1EEEOSO_OSP_ = comdat any

$_ZNSt4pairIKNSt7__cxx1112basic_stringIcSt11char_traitsIcESaIcEEESt10shared_ptrIKN8facebook5velox4TypeEEEC2IRA10_KcS7_IKNS9_10ScalarTypeILNS9_8TypeKindE9EEEETnNSt9enable_ifIXaaclsr5_PCCPE22_MoveConstructiblePairIT_T0_EEclsr5_PCCPE30_ImplicitlyMoveConvertiblePairISO_SP_EEEbE4typeELb1EEEOSO_OSP_ = comdat any

$_ZNSt4pairIKNSt7__cxx1112basic_stringIcSt11char_traitsIcESaIcEEESt10shared_ptrIKN8facebook5velox4TypeEEEC2IRA23_KcRKS7_IKNS9_19IntervalDayTimeTypeEETnNSt9enable_ifIXaaclsr5_PCCPE22_MoveConstructiblePairIT_T0_EEclsr5_PCCPE30_ImplicitlyMoveConvertiblePairISO_SP_EEEbE4typeELb1EEEOSO_OSP_ = comdat any

$_ZNSt4pairIKNSt7__cxx1112basic_stringIcSt11char_traitsIcESaIcEEESt10shared_ptrIKN8facebook5velox4TypeEEEC2IRA23_KcRKS7_IKNS9_21IntervalYearMonthTypeEETnNSt9enable_ifIXaaclsr5_PCCPE22_MoveConstructiblePairIT_T0_EEclsr5_PCCPE30_ImplicitlyMoveConvertiblePairISO_SP_EEEbE4typeELb1EEEOSO_OSP_ = comdat any

$_ZNSt4pairIKNSt7__cxx1112basic_stringIcSt11char_traitsIcESaIcEEESt10shared_ptrIKN8facebook5velox4TypeEEEC2IRA5_KcRKS7_IKNS9_8DateTypeEETnNSt9enable_ifIXaaclsr5_PCCPE22_MoveConstructiblePairIT_T0_EEclsr5_PCCPE30_ImplicitlyMoveConvertiblePairISO_SP_EEEbE4typeELb1EEEOSO_OSP_ = comdat any

$_ZNSt4pairIKNSt7__cxx1112basic_stringIcSt11char_traitsIcESaIcEEESt10shared_ptrIKN8facebook5velox4TypeEEEC2IRA8_KcSC_TnNSt9enable_ifIXaaclsr5_PCCPE22_MoveConstructiblePairIT_T0_EEclsr5_PCCPE30_ImplicitlyMoveConvertiblePairISJ_SK_EEEbE4typeELb1EEEOSJ_OSK_ = comdat any

$_ZNSt4pairIKNSt7__cxx1112basic_stringIcSt11char_traitsIcESaIcEEESt10shared_ptrIKN8facebook5velox4TypeEEED2Ev = comdat any

$_ZNSt13unordered_mapINSt7__cxx1112basic_stringIcSt11char_traitsIcESaIcEEESt10shared_ptrIKN8facebook5velox4TypeEESt4hashIS5_ESt8equal_toIS5_ESaISt4pairIKS5_SB_EEED2Ev = comdat any

$_ZNSt10_HashtableINSt7__cxx1112basic_stringIcSt11char_traitsIcESaIcEEESt4pairIKS5_St10shared_ptrIKN8facebook5velox4TypeEEESaISE_ENSt8__detail10_Select1stESt8equal_toIS5_ESt4hashIS5_ENSG_18_Mod_range_hashingENSG_20_Default_ranged_hashENSG_20_Prime_rehash_policyENSG_17_Hashtable_traitsILb1ELb0ELb1EEEEC2IPKSE_EET_SV_mRKSL_RKSJ_RKSF_St17integral_constantIbLb1EE = comdat any

$_ZNSt10_HashtableINSt7__cxx1112basic_stringIcSt11char_traitsIcESaIcEEESt4pairIKS5_St10shared_ptrIKN8facebook5velox4TypeEEESaISE_ENSt8__detail10_Select1stESt8equal_toIS5_ESt4hashIS5_ENSG_18_Mod_range_hashingENSG_20_Default_ranged_hashENSG_20_Prime_rehash_policyENSG_17_Hashtable_traitsILb1ELb0ELb1EEEE16_M_insert_uniqueIRS7_RKSE_NSG_10_AllocNodeISaINSG_10_Hash_nodeISE_Lb1EEEEEEEES6_INSG_14_Node_iteratorISE_Lb0ELb1EEEbEOT_OT0_RKT1_ = comdat any

$_ZNSt10_HashtableINSt7__cxx1112basic_stringIcSt11char_traitsIcESaIcEEESt4pairIKS5_St10shared_ptrIKN8facebook5velox4TypeEEESaISE_ENSt8__detail10_Select1stESt8equal_toIS5_ESt4hashIS5_ENSG_18_Mod_range_hashingENSG_20_Default_ranged_hashENSG_20_Prime_rehash_policyENSG_17_Hashtable_traitsILb1ELb0ELb1EEEE21_M_insert_unique_nodeEmmPNSG_10_Hash_nodeISE_Lb1EEEm = comdat any

$_ZNSt10_HashtableINSt7__cxx1112basic_stringIcSt11char_traitsIcESaIcEEESt4pairIKS5_St10shared_ptrIKN8facebook5velox4TypeEEESaISE_ENSt8__detail10_Select1stESt8equal_toIS5_ESt4hashIS5_ENSG_18_Mod_range_hashingENSG_20_Default_ranged_hashENSG_20_Prime_rehash_policyENSG_17_Hashtable_traitsILb1ELb0ELb1EEEE12_Scoped_nodeD2Ev = comdat any

$_ZNKSt10_HashtableINSt7__cxx1112basic_stringIcSt11char_traitsIcESaIcEEESt4pairIKS5_St10shared_ptrIKN8facebook5velox4TypeEEESaISE_ENSt8__detail10_Select1stESt8equal_toIS5_ESt4hashIS5_ENSG_18_Mod_range_hashingENSG_20_Default_ranged_hashENSG_20_Prime_rehash_policyENSG_17_Hashtable_traitsILb1ELb0ELb1EEEE22_M_find_before_node_trIS5_EEPNSG_15_Hash_node_baseEmRKT_m = comdat any

$_ZNSt8__detail16_Hashtable_allocISaINS_10_Hash_nodeISt4pairIKNSt7__cxx1112basic_stringIcSt11char_traitsIcESaIcEEESt10shared_ptrIKN8facebook5velox4TypeEEELb1EEEEE16_M_allocate_nodeIJRS9_RKSF_EEEPSH_DpOT_ = comdat any

$_ZNSt10_HashtableINSt7__cxx1112basic_stringIcSt11char_traitsIcESaIcEEESt4pairIKS5_St10shared_ptrIKN8facebook5velox4TypeEEESaISE_ENSt8__detail10_Select1stESt8equal_toIS5_ESt4hashIS5_ENSG_18_Mod_range_hashingENSG_20_Default_ranged_hashENSG_20_Prime_rehash_policyENSG_17_Hashtable_traitsILb1ELb0ELb1EEEE13_M_rehash_auxEmSt17integral_constantIbLb1EE = comdat any

$_ZNSt10_HashtableINSt7__cxx1112basic_stringIcSt11char_traitsIcESaIcEEESt4pairIKS5_St10shared_ptrIKN8facebook5velox4TypeEEESaISE_ENSt8__detail10_Select1stESt8equal_toIS5_ESt4hashIS5_ENSG_18_Mod_range_hashingENSG_20_Default_ranged_hashENSG_20_Prime_rehash_policyENSG_17_Hashtable_traitsILb1ELb0ELb1EEEE5clearEv = comdat any

$_ZNSt10_HashtableINSt7__cxx1112basic_stringIcSt11char_traitsIcESaIcEEESt4pairIKS5_St10shared_ptrIKN8facebook5velox4TypeEEESaISE_ENSt8__detail10_Select1stESt8equal_toIS5_ESt4hashIS5_ENSG_18_Mod_range_hashingENSG_20_Default_ranged_hashENSG_20_Prime_rehash_policyENSG_17_Hashtable_traitsILb1ELb0ELb1EEEED2Ev = comdat any

$_ZNSt4pairIKNSt7__cxx1112basic_stringIcSt11char_traitsIcESaIcEEESt8functionIFSt10shared_ptrIKN8facebook5velox4TypeEERKSt6vectorINSA_13TypeParameterESaISF_EEEEEC2IRA8_KcRSK_TnNSt9enable_ifIXaaclsr5_PCCPE22_MoveConstructiblePairIT_T0_EEclsr5_PCCPE30_ImplicitlyMoveConvertiblePairIST_SU_EEEbE4typeELb1EEEOST_OSU_ = comdat any

$_ZNSt4pairIKNSt7__cxx1112basic_stringIcSt11char_traitsIcESaIcEEESt8functionIFSt10shared_ptrIKN8facebook5velox4TypeEERKSt6vectorINSA_13TypeParameterESaISF_EEEEEC2IRA6_KcRSK_TnNSt9enable_ifIXaaclsr5_PCCPE22_MoveConstructiblePairIT_T0_EEclsr5_PCCPE30_ImplicitlyMoveConvertiblePairIST_SU_EEEbE4typeELb1EEEOST_OSU_ = comdat any

$_ZNSt4pairIKNSt7__cxx1112basic_stringIcSt11char_traitsIcESaIcEEESt8functionIFSt10shared_ptrIKN8facebook5velox4TypeEERKSt6vectorINSA_13TypeParameterESaISF_EEEEEC2IRA4_KcRSK_TnNSt9enable_ifIXaaclsr5_PCCPE22_MoveConstructiblePairIT_T0_EEclsr5_PCCPE30_ImplicitlyMoveConvertiblePairIST_SU_EEEbE4typeELb1EEEOST_OSU_ = comdat any

$_ZNSt4pairIKNSt7__cxx1112basic_stringIcSt11char_traitsIcESaIcEEESt8functionIFSt10shared_ptrIKN8facebook5velox4TypeEERKSt6vectorINSA_13TypeParameterESaISF_EEEEEC2IRA9_KcRSK_TnNSt9enable_ifIXaaclsr5_PCCPE22_MoveConstructiblePairIT_T0_EEclsr5_PCCPE30_ImplicitlyMoveConvertiblePairIST_SU_EEEbE4typeELb1EEEOST_OSU_ = comdat any

$_ZNSt4pairIKNSt7__cxx1112basic_stringIcSt11char_traitsIcESaIcEEESt8functionIFSt10shared_ptrIKN8facebook5velox4TypeEERKSt6vectorINSA_13TypeParameterESaISF_EEEEED2Ev = comdat any

$_ZNSt13unordered_mapINSt7__cxx1112basic_stringIcSt11char_traitsIcESaIcEEESt8functionIFSt10shared_ptrIKN8facebook5velox4TypeEERKSt6vectorINS9_13TypeParameterESaISE_EEEESt4hashIS5_ESt8equal_toIS5_ESaISt4pairIKS5_SK_EEED2Ev = comdat any

$_ZNSt17_Function_handlerIFSt10shared_ptrIKN8facebook5velox4TypeEERKSt6vectorINS2_13TypeParameterESaIS7_EEEPSC_E9_M_invokeERKSt9_Any_dataSB_ = comdat any

$_ZNSt17_Function_handlerIFSt10shared_ptrIKN8facebook5velox4TypeEERKSt6vectorINS2_13TypeParameterESaIS7_EEEPSC_E10_M_managerERSt9_Any_dataRKSF_St18_Manager_operation = comdat any

$_ZNSt10_HashtableINSt7__cxx1112basic_stringIcSt11char_traitsIcESaIcEEESt4pairIKS5_St8functionIFSt10shared_ptrIKN8facebook5velox4TypeEERKSt6vectorINSB_13TypeParameterESaISG_EEEEESaISN_ENSt8__detail10_Select1stESt8equal_toIS5_ESt4hashIS5_ENSP_18_Mod_range_hashingENSP_20_Default_ranged_hashENSP_20_Prime_rehash_policyENSP_17_Hashtable_traitsILb1ELb0ELb1EEEEC2IPKSN_EET_S14_mRKSU_RKSS_RKSO_St17integral_constantIbLb1EE = comdat any

$_ZNSt10_HashtableINSt7__cxx1112basic_stringIcSt11char_traitsIcESaIcEEESt4pairIKS5_St8functionIFSt10shared_ptrIKN8facebook5velox4TypeEERKSt6vectorINSB_13TypeParameterESaISG_EEEEESaISN_ENSt8__detail10_Select1stESt8equal_toIS5_ESt4hashIS5_ENSP_18_Mod_range_hashingENSP_20_Default_ranged_hashENSP_20_Prime_rehash_policyENSP_17_Hashtable_traitsILb1ELb0ELb1EEEE16_M_insert_uniqueIRS7_RKSN_NSP_10_AllocNodeISaINSP_10_Hash_nodeISN_Lb1EEEEEEEES6_INSP_14_Node_iteratorISN_Lb0ELb1EEEbEOT_OT0_RKT1_ = comdat any

$_ZNSt10_HashtableINSt7__cxx1112basic_stringIcSt11char_traitsIcESaIcEEESt4pairIKS5_St8functionIFSt10shared_ptrIKN8facebook5velox4TypeEERKSt6vectorINSB_13TypeParameterESaISG_EEEEESaISN_ENSt8__detail10_Select1stESt8equal_toIS5_ESt4hashIS5_ENSP_18_Mod_range_hashingENSP_20_Default_ranged_hashENSP_20_Prime_rehash_policyENSP_17_Hashtable_traitsILb1ELb0ELb1EEEE21_M_insert_unique_nodeEmmPNSP_10_Hash_nodeISN_Lb1EEEm = comdat any

$_ZNSt10_HashtableINSt7__cxx1112basic_stringIcSt11char_traitsIcESaIcEEESt4pairIKS5_St8functionIFSt10shared_ptrIKN8facebook5velox4TypeEERKSt6vectorINSB_13TypeParameterESaISG_EEEEESaISN_ENSt8__detail10_Select1stESt8equal_toIS5_ESt4hashIS5_ENSP_18_Mod_range_hashingENSP_20_Default_ranged_hashENSP_20_Prime_rehash_policyENSP_17_Hashtable_traitsILb1ELb0ELb1EEEE12_Scoped_nodeD2Ev = comdat any

$_ZNKSt10_HashtableINSt7__cxx1112basic_stringIcSt11char_traitsIcESaIcEEESt4pairIKS5_St8functionIFSt10shared_ptrIKN8facebook5velox4TypeEERKSt6vectorINSB_13TypeParameterESaISG_EEEEESaISN_ENSt8__detail10_Select1stESt8equal_toIS5_ESt4hashIS5_ENSP_18_Mod_range_hashingENSP_20_Default_ranged_hashENSP_20_Prime_rehash_policyENSP_17_Hashtable_traitsILb1ELb0ELb1EEEE22_M_find_before_node_trIS5_EEPNSP_15_Hash_node_baseEmRKT_m = comdat any

$_ZNSt8__detail16_Hashtable_allocISaINS_10_Hash_nodeISt4pairIKNSt7__cxx1112basic_stringIcSt11char_traitsIcESaIcEEESt8functionIFSt10shared_ptrIKN8facebook5velox4TypeEERKSt6vectorINSD_13TypeParameterESaISI_EEEEELb1EEEEE16_M_allocate_nodeIJRS9_RKSO_EEEPSQ_DpOT_ = comdat any

$_ZNSt10_HashtableINSt7__cxx1112basic_stringIcSt11char_traitsIcESaIcEEESt4pairIKS5_St8functionIFSt10shared_ptrIKN8facebook5velox4TypeEERKSt6vectorINSB_13TypeParameterESaISG_EEEEESaISN_ENSt8__detail10_Select1stESt8equal_toIS5_ESt4hashIS5_ENSP_18_Mod_range_hashingENSP_20_Default_ranged_hashENSP_20_Prime_rehash_policyENSP_17_Hashtable_traitsILb1ELb0ELb1EEEE13_M_rehash_auxEmSt17integral_constantIbLb1EE = comdat any

$_ZNSt10_HashtableINSt7__cxx1112basic_stringIcSt11char_traitsIcESaIcEEESt4pairIKS5_St8functionIFSt10shared_ptrIKN8facebook5velox4TypeEERKSt6vectorINSB_13TypeParameterESaISG_EEEEESaISN_ENSt8__detail10_Select1stESt8equal_toIS5_ESt4hashIS5_ENSP_18_Mod_range_hashingENSP_20_Default_ranged_hashENSP_20_Prime_rehash_policyENSP_17_Hashtable_traitsILb1ELb0ELb1EEEED2Ev = comdat any

$_ZNSt7__cxx1112basic_stringIcSt11char_traitsIcESaIcEE12_M_constructIPKcEEvT_S8_St20forward_iterator_tag = comdat any

$_ZZNSt7__cxx1112basic_stringIcSt11char_traitsIcESaIcEE12_M_constructIPKcEEvT_S8_St20forward_iterator_tagEN6_GuardD2Ev = comdat any

$_ZNSt6vectorISt10shared_ptrIKN8facebook5velox4TypeEESaIS5_EE17_M_realloc_insertIJRKS5_EEEvN9__gnu_cxx17__normal_iteratorIPS5_S7_EEDpOT_ = comdat any

$_ZNSt23_Sp_counted_ptr_inplaceIKN8facebook5velox7RowTypeESaIvELN9__gnu_cxx12_Lock_policyE2EED2Ev = comdat any

$_ZNSt23_Sp_counted_ptr_inplaceIKN8facebook5velox7RowTypeESaIvELN9__gnu_cxx12_Lock_policyE2EED0Ev = comdat any

$_ZNSt23_Sp_counted_ptr_inplaceIKN8facebook5velox7RowTypeESaIvELN9__gnu_cxx12_Lock_policyE2EE10_M_disposeEv = comdat any

$_ZNSt23_Sp_counted_ptr_inplaceIKN8facebook5velox7RowTypeESaIvELN9__gnu_cxx12_Lock_policyE2EE10_M_destroyEv = comdat any

$_ZNSt23_Sp_counted_ptr_inplaceIKN8facebook5velox7RowTypeESaIvELN9__gnu_cxx12_Lock_policyE2EE14_M_get_deleterERKSt9type_info = comdat any

$_ZNSt10_HashtableINSt7__cxx1112basic_stringIcSt11char_traitsIcESaIcEEESt4pairIKS5_N8facebook5velox8TypeKindEESaISB_ENSt8__detail10_Select1stESt8equal_toIS5_ESt4hashIS5_ENSD_18_Mod_range_hashingENSD_20_Default_ranged_hashENSD_20_Prime_rehash_policyENSD_17_Hashtable_traitsILb1ELb0ELb1EEEEC2IPKSB_EET_SS_mRKSI_RKSG_RKSC_St17integral_constantIbLb1EE = comdat any

$_ZNSt10_HashtableINSt7__cxx1112basic_stringIcSt11char_traitsIcESaIcEEESt4pairIKS5_N8facebook5velox8TypeKindEESaISB_ENSt8__detail10_Select1stESt8equal_toIS5_ESt4hashIS5_ENSD_18_Mod_range_hashingENSD_20_Default_ranged_hashENSD_20_Prime_rehash_policyENSD_17_Hashtable_traitsILb1ELb0ELb1EEEE16_M_insert_uniqueIRS7_RKSB_NSD_10_AllocNodeISaINSD_10_Hash_nodeISB_Lb1EEEEEEEES6_INSD_14_Node_iteratorISB_Lb0ELb1EEEbEOT_OT0_RKT1_ = comdat any

$_ZNSt10_HashtableINSt7__cxx1112basic_stringIcSt11char_traitsIcESaIcEEESt4pairIKS5_N8facebook5velox8TypeKindEESaISB_ENSt8__detail10_Select1stESt8equal_toIS5_ESt4hashIS5_ENSD_18_Mod_range_hashingENSD_20_Default_ranged_hashENSD_20_Prime_rehash_policyENSD_17_Hashtable_traitsILb1ELb0ELb1EEEE21_M_insert_unique_nodeEmmPNSD_10_Hash_nodeISB_Lb1EEEm = comdat any

$_ZNSt10_HashtableINSt7__cxx1112basic_stringIcSt11char_traitsIcESaIcEEESt4pairIKS5_N8facebook5velox8TypeKindEESaISB_ENSt8__detail10_Select1stESt8equal_toIS5_ESt4hashIS5_ENSD_18_Mod_range_hashingENSD_20_Default_ranged_hashENSD_20_Prime_rehash_policyENSD_17_Hashtable_traitsILb1ELb0ELb1EEEE12_Scoped_nodeD2Ev = comdat any

$_ZNKSt10_HashtableINSt7__cxx1112basic_stringIcSt11char_traitsIcESaIcEEESt4pairIKS5_N8facebook5velox8TypeKindEESaISB_ENSt8__detail10_Select1stESt8equal_toIS5_ESt4hashIS5_ENSD_18_Mod_range_hashingENSD_20_Default_ranged_hashENSD_20_Prime_rehash_policyENSD_17_Hashtable_traitsILb1ELb0ELb1EEEE22_M_find_before_node_trIS5_EEPNSD_15_Hash_node_baseEmRKT_m = comdat any

$_ZNSt10_HashtableINSt7__cxx1112basic_stringIcSt11char_traitsIcESaIcEEESt4pairIKS5_N8facebook5velox8TypeKindEESaISB_ENSt8__detail10_Select1stESt8equal_toIS5_ESt4hashIS5_ENSD_18_Mod_range_hashingENSD_20_Default_ranged_hashENSD_20_Prime_rehash_policyENSD_17_Hashtable_traitsILb1ELb0ELb1EEEE13_M_rehash_auxEmSt17integral_constantIbLb1EE = comdat any

$_ZNKSt10_HashtableINSt7__cxx1112basic_stringIcSt11char_traitsIcESaIcEEESt4pairIKS5_N8facebook5velox8TypeKindEESaISB_ENSt8__detail10_Select1stESt8equal_toIS5_ESt4hashIS5_ENSD_18_Mod_range_hashingENSD_20_Default_ranged_hashENSD_20_Prime_rehash_policyENSD_17_Hashtable_traitsILb1ELb0ELb1EEEE4findERS7_ = comdat any

$_ZNKSt10_HashtableINSt7__cxx1112basic_stringIcSt11char_traitsIcESaIcEEESt4pairIKS5_N8facebook5velox8TypeKindEESaISB_ENSt8__detail10_Select1stESt8equal_toIS5_ESt4hashIS5_ENSD_18_Mod_range_hashingENSD_20_Default_ranged_hashENSD_20_Prime_rehash_policyENSD_17_Hashtable_traitsILb1ELb0ELb1EEEE19_M_find_before_nodeEmRS7_m = comdat any

$_ZNSt10_HashtableIN8facebook5velox8TypeKindESt4pairIKS2_NSt7__cxx1112basic_stringIcSt11char_traitsIcESaIcEEEESaISB_ENSt8__detail10_Select1stESt8equal_toIS2_ESt4hashIS2_ENSD_18_Mod_range_hashingENSD_20_Default_ranged_hashENSD_20_Prime_rehash_policyENSD_17_Hashtable_traitsILb1ELb0ELb1EEEEC2IPKSB_EET_SS_mRKSI_RKSG_RKSC_St17integral_constantIbLb1EE = comdat any

$_ZNSt10_HashtableIN8facebook5velox8TypeKindESt4pairIKS2_NSt7__cxx1112basic_stringIcSt11char_traitsIcESaIcEEEESaISB_ENSt8__detail10_Select1stESt8equal_toIS2_ESt4hashIS2_ENSD_18_Mod_range_hashingENSD_20_Default_ranged_hashENSD_20_Prime_rehash_policyENSD_17_Hashtable_traitsILb1ELb0ELb1EEEE16_M_insert_uniqueIRS4_RKSB_NSD_10_AllocNodeISaINSD_10_Hash_nodeISB_Lb1EEEEEEEES3_INSD_14_Node_iteratorISB_Lb0ELb1EEEbEOT_OT0_RKT1_ = comdat any

$_ZNSt10_HashtableIN8facebook5velox8TypeKindESt4pairIKS2_NSt7__cxx1112basic_stringIcSt11char_traitsIcESaIcEEEESaISB_ENSt8__detail10_Select1stESt8equal_toIS2_ESt4hashIS2_ENSD_18_Mod_range_hashingENSD_20_Default_ranged_hashENSD_20_Prime_rehash_policyENSD_17_Hashtable_traitsILb1ELb0ELb1EEEE21_M_insert_unique_nodeEmmPNSD_10_Hash_nodeISB_Lb1EEEm = comdat any

$_ZNSt10_HashtableIN8facebook5velox8TypeKindESt4pairIKS2_NSt7__cxx1112basic_stringIcSt11char_traitsIcESaIcEEEESaISB_ENSt8__detail10_Select1stESt8equal_toIS2_ESt4hashIS2_ENSD_18_Mod_range_hashingENSD_20_Default_ranged_hashENSD_20_Prime_rehash_policyENSD_17_Hashtable_traitsILb1ELb0ELb1EEEE12_Scoped_nodeD2Ev = comdat any

$_ZNSt10_HashtableIN8facebook5velox8TypeKindESt4pairIKS2_NSt7__cxx1112basic_stringIcSt11char_traitsIcESaIcEEEESaISB_ENSt8__detail10_Select1stESt8equal_toIS2_ESt4hashIS2_ENSD_18_Mod_range_hashingENSD_20_Default_ranged_hashENSD_20_Prime_rehash_policyENSD_17_Hashtable_traitsILb1ELb0ELb1EEEE13_M_rehash_auxEmSt17integral_constantIbLb1EE = comdat any

$_ZNSt6vectorINSt7__cxx1112basic_stringIcSt11char_traitsIcESaIcEEESaIS5_EE17_M_realloc_insertIJS5_EEEvN9__gnu_cxx17__normal_iteratorIPS5_S7_EEDpOT_ = comdat any

$_ZNKSt10_HashtableINSt7__cxx1112basic_stringIcSt11char_traitsIcESaIcEEESt4pairIKS5_St10shared_ptrIKN8facebook5velox10OpaqueTypeEEESaISE_ENSt8__detail10_Select1stESt8equal_toIS5_ESt4hashIS5_ENSG_18_Mod_range_hashingENSG_20_Default_ranged_hashENSG_20_Prime_rehash_policyENSG_17_Hashtable_traitsILb1ELb0ELb1EEEE4findERS7_ = comdat any

$_ZNKSt10_HashtableINSt7__cxx1112basic_stringIcSt11char_traitsIcESaIcEEESt4pairIKS5_St10shared_ptrIKN8facebook5velox10OpaqueTypeEEESaISE_ENSt8__detail10_Select1stESt8equal_toIS5_ESt4hashIS5_ENSG_18_Mod_range_hashingENSG_20_Default_ranged_hashENSG_20_Prime_rehash_policyENSG_17_Hashtable_traitsILb1ELb0ELb1EEEE19_M_find_before_nodeEmRS7_m = comdat any

$_ZN5folly3f146detail8F14TableINS1_19NodeContainerPolicyINSt7__cxx1112basic_stringIcSt11char_traitsIcESaIcEEESt8functionIFSt10shared_ptrIKN8facebook5velox13ISerializableEERKNS_7dynamicEEEvvvEEE19tryEmplaceValueImplIS9_JRKSt21piecewise_construct_tSt5tupleIJRKS9_EESS_IJEEEEESt4pairINS1_11F14ItemIterIPNS1_8F14ChunkIPSX_IST_SL_EEEEEbESX_ImmERKT_DpOT0_ = comdat any

$_ZN5folly3f146detail8F14TableINS1_19NodeContainerPolicyINSt7__cxx1112basic_stringIcSt11char_traitsIcESaIcEEESt8functionIFSt10shared_ptrIKN8facebook5velox13ISerializableEERKNS_7dynamicEEEvvvEEE13insertAtBlankIJRKSt21piecewise_construct_tSt5tupleIJRKS9_EESS_IJEEEEEvNS1_11F14ItemIterIPNS1_8F14ChunkIPSt4pairIST_SL_EEEEESZ_ImmEDpOT_ = comdat any

$_ZN5folly3f146detail8F14TableINS1_19NodeContainerPolicyINSt7__cxx1112basic_stringIcSt11char_traitsIcESaIcEEESt8functionIFSt10shared_ptrIKN8facebook5velox13ISerializableEERKNS_7dynamicEEEvvvEEE10rehashImplEmmmmm = comdat any

$_ZN5folly6detail14ScopeGuardImplIZNS_3f146detail8F14TableINS3_19NodeContainerPolicyINSt7__cxx1112basic_stringIcSt11char_traitsIcESaIcEEESt8functionIFSt10shared_ptrIKN8facebook5velox13ISerializableEERKNS_7dynamicEEEvvvEEE10rehashImplEmmmmmEUlvE_Lb1EED2Ev = comdat any

$_ZN5folly3f146detail8F14TableINS1_19NodeContainerPolicyINSt7__cxx1112basic_stringIcSt11char_traitsIcESaIcEEESt8functionIFSt10shared_ptrIKN8facebook5velox13ISerializableEERKNS_7dynamicEEEvvvEEE10eraseBlankENS1_11F14ItemIterIPNS1_8F14ChunkIPSt4pairIKS9_SL_EEEEESQ_ImmE = comdat any

$_ZNSt8__detail9_Map_baseINSt7__cxx1112basic_stringIcSt11char_traitsIcESaIcEEESt4pairIKS6_S6_ESaIS9_ENS_10_Select1stESt8equal_toIS6_ESt4hashIS6_ENS_18_Mod_range_hashingENS_20_Default_ranged_hashENS_20_Prime_rehash_policyENS_17_Hashtable_traitsILb1ELb0ELb1EEELb1EEixERS8_ = comdat any

$_ZNSt10_HashtableINSt7__cxx1112basic_stringIcSt11char_traitsIcESaIcEEESt4pairIKS5_S5_ESaIS8_ENSt8__detail10_Select1stESt8equal_toIS5_ESt4hashIS5_ENSA_18_Mod_range_hashingENSA_20_Default_ranged_hashENSA_20_Prime_rehash_policyENSA_17_Hashtable_traitsILb1ELb0ELb1EEEE21_M_insert_unique_nodeEmmPNSA_10_Hash_nodeIS8_Lb1EEEm = comdat any

$_ZNSt10_HashtableINSt7__cxx1112basic_stringIcSt11char_traitsIcESaIcEEESt4pairIKS5_S5_ESaIS8_ENSt8__detail10_Select1stESt8equal_toIS5_ESt4hashIS5_ENSA_18_Mod_range_hashingENSA_20_Default_ranged_hashENSA_20_Prime_rehash_policyENSA_17_Hashtable_traitsILb1ELb0ELb1EEEE12_Scoped_nodeD2Ev = comdat any

$_ZNKSt10_HashtableINSt7__cxx1112basic_stringIcSt11char_traitsIcESaIcEEESt4pairIKS5_S5_ESaIS8_ENSt8__detail10_Select1stESt8equal_toIS5_ESt4hashIS5_ENSA_18_Mod_range_hashingENSA_20_Default_ranged_hashENSA_20_Prime_rehash_policyENSA_17_Hashtable_traitsILb1ELb0ELb1EEEE19_M_find_before_nodeEmRS7_m = comdat any

$_ZNSt8__detail16_Hashtable_allocISaINS_10_Hash_nodeISt4pairIKNSt7__cxx1112basic_stringIcSt11char_traitsIcESaIcEEES8_ELb1EEEEE16_M_allocate_nodeIJRKSt21piecewise_construct_tSt5tupleIJRS9_EESI_IJEEEEEPSB_DpOT_ = comdat any

$_ZNSt10_HashtableINSt7__cxx1112basic_stringIcSt11char_traitsIcESaIcEEESt4pairIKS5_S5_ESaIS8_ENSt8__detail10_Select1stESt8equal_toIS5_ESt4hashIS5_ENSA_18_Mod_range_hashingENSA_20_Default_ranged_hashENSA_20_Prime_rehash_policyENSA_17_Hashtable_traitsILb1ELb0ELb1EEEE13_M_rehash_auxEmSt17integral_constantIbLb1EE = comdat any

$_ZNSt17_Function_handlerIFSt10shared_ptrIKN8facebook5velox13ISerializableEERKN5folly7dynamicEEPFS0_IKNS2_4TypeEES9_EE9_M_invokeERKSt9_Any_dataS9_ = comdat any

$_ZNSt17_Function_handlerIFSt10shared_ptrIKN8facebook5velox13ISerializableEERKN5folly7dynamicEEPFS0_IKNS2_4TypeEES9_EE10_M_managerERSt9_Any_dataRKSH_St18_Manager_operation = comdat any

$_ZNSt23_Sp_counted_ptr_inplaceIN8facebook5velox7RowTypeESaIvELN9__gnu_cxx12_Lock_policyE2EED2Ev = comdat any

$_ZNSt23_Sp_counted_ptr_inplaceIN8facebook5velox7RowTypeESaIvELN9__gnu_cxx12_Lock_policyE2EED0Ev = comdat any

$_ZNSt23_Sp_counted_ptr_inplaceIN8facebook5velox7RowTypeESaIvELN9__gnu_cxx12_Lock_policyE2EE10_M_disposeEv = comdat any

$_ZNSt23_Sp_counted_ptr_inplaceIN8facebook5velox7RowTypeESaIvELN9__gnu_cxx12_Lock_policyE2EE10_M_destroyEv = comdat any

$_ZNSt23_Sp_counted_ptr_inplaceIN8facebook5velox7RowTypeESaIvELN9__gnu_cxx12_Lock_policyE2EE14_M_get_deleterERKSt9type_info = comdat any

$_ZNSt8__detail9_Map_baseINSt7__cxx1112basic_stringIcSt11char_traitsIcESaIcEEESt4pairIKS6_St10shared_ptrIKN8facebook5velox10OpaqueTypeEEESaISF_ENS_10_Select1stESt8equal_toIS6_ESt4hashIS6_ENS_18_Mod_range_hashingENS_20_Default_ranged_hashENS_20_Prime_rehash_policyENS_17_Hashtable_traitsILb1ELb0ELb1EEELb1EEixERS8_ = comdat any

$_ZNSt10_HashtableINSt7__cxx1112basic_stringIcSt11char_traitsIcESaIcEEESt4pairIKS5_St10shared_ptrIKN8facebook5velox10OpaqueTypeEEESaISE_ENSt8__detail10_Select1stESt8equal_toIS5_ESt4hashIS5_ENSG_18_Mod_range_hashingENSG_20_Default_ranged_hashENSG_20_Prime_rehash_policyENSG_17_Hashtable_traitsILb1ELb0ELb1EEEE21_M_insert_unique_nodeEmmPNSG_10_Hash_nodeISE_Lb1EEEm = comdat any

$_ZNSt10_HashtableINSt7__cxx1112basic_stringIcSt11char_traitsIcESaIcEEESt4pairIKS5_St10shared_ptrIKN8facebook5velox10OpaqueTypeEEESaISE_ENSt8__detail10_Select1stESt8equal_toIS5_ESt4hashIS5_ENSG_18_Mod_range_hashingENSG_20_Default_ranged_hashENSG_20_Prime_rehash_policyENSG_17_Hashtable_traitsILb1ELb0ELb1EEEE12_Scoped_nodeD2Ev = comdat any

$_ZNSt10_HashtableINSt7__cxx1112basic_stringIcSt11char_traitsIcESaIcEEESt4pairIKS5_St10shared_ptrIKN8facebook5velox10OpaqueTypeEEESaISE_ENSt8__detail10_Select1stESt8equal_toIS5_ESt4hashIS5_ENSG_18_Mod_range_hashingENSG_20_Default_ranged_hashENSG_20_Prime_rehash_policyENSG_17_Hashtable_traitsILb1ELb0ELb1EEEE13_M_rehash_auxEmSt17integral_constantIbLb1EE = comdat any

$_ZNSt23_Sp_counted_ptr_inplaceIKN8facebook5velox9ArrayTypeESaIvELN9__gnu_cxx12_Lock_policyE2EEC2IJSt10shared_ptrIKNS1_4TypeEEEEES4_DpOT_ = comdat any

$_ZNSt23_Sp_counted_ptr_inplaceIKN8facebook5velox9ArrayTypeESaIvELN9__gnu_cxx12_Lock_policyE2EED2Ev = comdat any

$_ZNSt23_Sp_counted_ptr_inplaceIKN8facebook5velox9ArrayTypeESaIvELN9__gnu_cxx12_Lock_policyE2EED0Ev = comdat any

$_ZNSt23_Sp_counted_ptr_inplaceIKN8facebook5velox9ArrayTypeESaIvELN9__gnu_cxx12_Lock_policyE2EE10_M_disposeEv = comdat any

$_ZNSt23_Sp_counted_ptr_inplaceIKN8facebook5velox9ArrayTypeESaIvELN9__gnu_cxx12_Lock_policyE2EE10_M_destroyEv = comdat any

$_ZNSt23_Sp_counted_ptr_inplaceIKN8facebook5velox9ArrayTypeESaIvELN9__gnu_cxx12_Lock_policyE2EE14_M_get_deleterERKSt9type_info = comdat any

$_ZNSt6vectorINSt7__cxx1112basic_stringIcSt11char_traitsIcESaIcEEESaIS5_EE17_M_realloc_insertIJRKS5_EEEvN9__gnu_cxx17__normal_iteratorIPS5_S7_EEDpOT_ = comdat any

$_ZNSt23_Sp_counted_ptr_inplaceIKN8facebook5velox7MapTypeESaIvELN9__gnu_cxx12_Lock_policyE2EED2Ev = comdat any

$_ZNSt23_Sp_counted_ptr_inplaceIKN8facebook5velox7MapTypeESaIvELN9__gnu_cxx12_Lock_policyE2EED0Ev = comdat any

$_ZNSt23_Sp_counted_ptr_inplaceIKN8facebook5velox7MapTypeESaIvELN9__gnu_cxx12_Lock_policyE2EE10_M_disposeEv = comdat any

$_ZNSt23_Sp_counted_ptr_inplaceIKN8facebook5velox7MapTypeESaIvELN9__gnu_cxx12_Lock_policyE2EE10_M_destroyEv = comdat any

$_ZNSt23_Sp_counted_ptr_inplaceIKN8facebook5velox7MapTypeESaIvELN9__gnu_cxx12_Lock_policyE2EE14_M_get_deleterERKSt9type_info = comdat any

$_ZSt10_ConstructIKN8facebook5velox7MapTypeEJSt10shared_ptrIKNS1_4TypeEES7_EEvPT_DpOT0_ = comdat any

$_ZNSt23_Sp_counted_ptr_inplaceIKN8facebook5velox12FunctionTypeESaIvELN9__gnu_cxx12_Lock_policyE2EEC2IJSt6vectorISt10shared_ptrIKNS1_4TypeEESaISD_EESD_EEES4_DpOT_ = comdat any

$_ZNSt23_Sp_counted_ptr_inplaceIKN8facebook5velox12FunctionTypeESaIvELN9__gnu_cxx12_Lock_policyE2EED2Ev = comdat any

$_ZNSt23_Sp_counted_ptr_inplaceIKN8facebook5velox12FunctionTypeESaIvELN9__gnu_cxx12_Lock_policyE2EED0Ev = comdat any

$_ZNSt23_Sp_counted_ptr_inplaceIKN8facebook5velox12FunctionTypeESaIvELN9__gnu_cxx12_Lock_policyE2EE10_M_disposeEv = comdat any

$_ZNSt23_Sp_counted_ptr_inplaceIKN8facebook5velox12FunctionTypeESaIvELN9__gnu_cxx12_Lock_policyE2EE10_M_destroyEv = comdat any

$_ZNSt23_Sp_counted_ptr_inplaceIKN8facebook5velox12FunctionTypeESaIvELN9__gnu_cxx12_Lock_policyE2EE14_M_get_deleterERKSt9type_info = comdat any

$_ZSt11make_sharedIKN8facebook5velox10ScalarTypeILNS1_8TypeKindE3EEEJEESt10shared_ptrINSt9enable_ifIXntsr8is_arrayIT_EE5valueES8_E4typeEEDpOT0_ = comdat any

$_ZNSt23_Sp_counted_ptr_inplaceIKN8facebook5velox10ScalarTypeILNS1_8TypeKindE3EEESaIvELN9__gnu_cxx12_Lock_policyE2EED2Ev = comdat any

$_ZNSt23_Sp_counted_ptr_inplaceIKN8facebook5velox10ScalarTypeILNS1_8TypeKindE3EEESaIvELN9__gnu_cxx12_Lock_policyE2EED0Ev = comdat any

$_ZNSt23_Sp_counted_ptr_inplaceIKN8facebook5velox10ScalarTypeILNS1_8TypeKindE3EEESaIvELN9__gnu_cxx12_Lock_policyE2EE10_M_disposeEv = comdat any

$_ZNSt23_Sp_counted_ptr_inplaceIKN8facebook5velox10ScalarTypeILNS1_8TypeKindE3EEESaIvELN9__gnu_cxx12_Lock_policyE2EE10_M_destroyEv = comdat any

$_ZNSt23_Sp_counted_ptr_inplaceIKN8facebook5velox10ScalarTypeILNS1_8TypeKindE3EEESaIvELN9__gnu_cxx12_Lock_policyE2EE14_M_get_deleterERKSt9type_info = comdat any

$_ZSt11make_sharedIKN8facebook5velox10ScalarTypeILNS1_8TypeKindE0EEEJEESt10shared_ptrINSt9enable_ifIXntsr8is_arrayIT_EE5valueES8_E4typeEEDpOT0_ = comdat any

$_ZNSt23_Sp_counted_ptr_inplaceIKN8facebook5velox10ScalarTypeILNS1_8TypeKindE0EEESaIvELN9__gnu_cxx12_Lock_policyE2EED2Ev = comdat any

$_ZNSt23_Sp_counted_ptr_inplaceIKN8facebook5velox10ScalarTypeILNS1_8TypeKindE0EEESaIvELN9__gnu_cxx12_Lock_policyE2EED0Ev = comdat any

$_ZNSt23_Sp_counted_ptr_inplaceIKN8facebook5velox10ScalarTypeILNS1_8TypeKindE0EEESaIvELN9__gnu_cxx12_Lock_policyE2EE10_M_disposeEv = comdat any

$_ZNSt23_Sp_counted_ptr_inplaceIKN8facebook5velox10ScalarTypeILNS1_8TypeKindE0EEESaIvELN9__gnu_cxx12_Lock_policyE2EE10_M_destroyEv = comdat any

$_ZNSt23_Sp_counted_ptr_inplaceIKN8facebook5velox10ScalarTypeILNS1_8TypeKindE0EEESaIvELN9__gnu_cxx12_Lock_policyE2EE14_M_get_deleterERKSt9type_info = comdat any

$_ZN8facebook5velox10ScalarTypeILNS0_8TypeKindE0EED2Ev = comdat any

$_ZN8facebook5velox10ScalarTypeILNS0_8TypeKindE0EED0Ev = comdat any

$_ZNK8facebook5velox10ScalarTypeILNS0_8TypeKindE0EE4sizeEv = comdat any

$_ZNK8facebook5velox10ScalarTypeILNS0_8TypeKindE0EE7childAtEj = comdat any

$_ZNK8facebook5velox8TypeBaseILNS0_8TypeKindE0EE15isPrimitiveTypeEv = comdat any

$_ZNK8facebook5velox10ScalarTypeILNS0_8TypeKindE0EE12isComparableEv = comdat any

$_ZNK8facebook5velox10ScalarTypeILNS0_8TypeKindE0EE11isOrderableEv = comdat any

$_ZNK8facebook5velox8TypeBaseILNS0_8TypeKindE0EE4nameEv = comdat any

$_ZNK8facebook5velox8TypeBaseILNS0_8TypeKindE0EE10parametersEv = comdat any

$_ZNK8facebook5velox8TypeBaseILNS0_8TypeKindE0EE8kindNameEv = comdat any

$_ZNK8facebook5velox10ScalarTypeILNS0_8TypeKindE0EE8toStringB5cxx11Ev = comdat any

$_ZNK8facebook5velox10ScalarTypeILNS0_8TypeKindE0EE10equivalentERKNS0_4TypeE = comdat any

$_ZNK8facebook5velox10ScalarTypeILNS0_8TypeKindE0EE14cppSizeInBytesEv = comdat any

$_ZNK8facebook5velox8TypeBaseILNS0_8TypeKindE0EE12isFixedWidthEv = comdat any

$_ZNK8facebook5velox10ScalarTypeILNS0_8TypeKindE0EE9serializeEv = comdat any

$_ZThn8_NK8facebook5velox10ScalarTypeILNS0_8TypeKindE0EE9serializeEv = comdat any

$_ZThn8_N8facebook5velox10ScalarTypeILNS0_8TypeKindE0EED1Ev = comdat any

$_ZThn8_N8facebook5velox10ScalarTypeILNS0_8TypeKindE0EED0Ev = comdat any

$_ZSt11make_sharedIKN8facebook5velox10ScalarTypeILNS1_8TypeKindE1EEEJEESt10shared_ptrINSt9enable_ifIXntsr8is_arrayIT_EE5valueES8_E4typeEEDpOT0_ = comdat any

$_ZNSt23_Sp_counted_ptr_inplaceIKN8facebook5velox10ScalarTypeILNS1_8TypeKindE1EEESaIvELN9__gnu_cxx12_Lock_policyE2EED2Ev = comdat any

$_ZNSt23_Sp_counted_ptr_inplaceIKN8facebook5velox10ScalarTypeILNS1_8TypeKindE1EEESaIvELN9__gnu_cxx12_Lock_policyE2EED0Ev = comdat any

$_ZNSt23_Sp_counted_ptr_inplaceIKN8facebook5velox10ScalarTypeILNS1_8TypeKindE1EEESaIvELN9__gnu_cxx12_Lock_policyE2EE10_M_disposeEv = comdat any

$_ZNSt23_Sp_counted_ptr_inplaceIKN8facebook5velox10ScalarTypeILNS1_8TypeKindE1EEESaIvELN9__gnu_cxx12_Lock_policyE2EE10_M_destroyEv = comdat any

$_ZNSt23_Sp_counted_ptr_inplaceIKN8facebook5velox10ScalarTypeILNS1_8TypeKindE1EEESaIvELN9__gnu_cxx12_Lock_policyE2EE14_M_get_deleterERKSt9type_info = comdat any

$_ZN8facebook5velox10ScalarTypeILNS0_8TypeKindE1EED2Ev = comdat any

$_ZN8facebook5velox10ScalarTypeILNS0_8TypeKindE1EED0Ev = comdat any

$_ZNK8facebook5velox10ScalarTypeILNS0_8TypeKindE1EE4sizeEv = comdat any

$_ZNK8facebook5velox10ScalarTypeILNS0_8TypeKindE1EE7childAtEj = comdat any

$_ZNK8facebook5velox8TypeBaseILNS0_8TypeKindE1EE15isPrimitiveTypeEv = comdat any

$_ZNK8facebook5velox10ScalarTypeILNS0_8TypeKindE1EE12isComparableEv = comdat any

$_ZNK8facebook5velox10ScalarTypeILNS0_8TypeKindE1EE11isOrderableEv = comdat any

$_ZNK8facebook5velox8TypeBaseILNS0_8TypeKindE1EE4nameEv = comdat any

$_ZNK8facebook5velox8TypeBaseILNS0_8TypeKindE1EE10parametersEv = comdat any

$_ZNK8facebook5velox8TypeBaseILNS0_8TypeKindE1EE8kindNameEv = comdat any

$_ZNK8facebook5velox10ScalarTypeILNS0_8TypeKindE1EE8toStringB5cxx11Ev = comdat any

$_ZNK8facebook5velox10ScalarTypeILNS0_8TypeKindE1EE10equivalentERKNS0_4TypeE = comdat any

$_ZNK8facebook5velox10ScalarTypeILNS0_8TypeKindE1EE14cppSizeInBytesEv = comdat any

$_ZNK8facebook5velox8TypeBaseILNS0_8TypeKindE1EE12isFixedWidthEv = comdat any

$_ZNK8facebook5velox10ScalarTypeILNS0_8TypeKindE1EE9serializeEv = comdat any

$_ZThn8_NK8facebook5velox10ScalarTypeILNS0_8TypeKindE1EE9serializeEv = comdat any

$_ZThn8_N8facebook5velox10ScalarTypeILNS0_8TypeKindE1EED1Ev = comdat any

$_ZThn8_N8facebook5velox10ScalarTypeILNS0_8TypeKindE1EED0Ev = comdat any

$_ZSt11make_sharedIKN8facebook5velox10ScalarTypeILNS1_8TypeKindE2EEEJEESt10shared_ptrINSt9enable_ifIXntsr8is_arrayIT_EE5valueES8_E4typeEEDpOT0_ = comdat any

$_ZNSt23_Sp_counted_ptr_inplaceIKN8facebook5velox10ScalarTypeILNS1_8TypeKindE2EEESaIvELN9__gnu_cxx12_Lock_policyE2EED2Ev = comdat any

$_ZNSt23_Sp_counted_ptr_inplaceIKN8facebook5velox10ScalarTypeILNS1_8TypeKindE2EEESaIvELN9__gnu_cxx12_Lock_policyE2EED0Ev = comdat any

$_ZNSt23_Sp_counted_ptr_inplaceIKN8facebook5velox10ScalarTypeILNS1_8TypeKindE2EEESaIvELN9__gnu_cxx12_Lock_policyE2EE10_M_disposeEv = comdat any

$_ZNSt23_Sp_counted_ptr_inplaceIKN8facebook5velox10ScalarTypeILNS1_8TypeKindE2EEESaIvELN9__gnu_cxx12_Lock_policyE2EE10_M_destroyEv = comdat any

$_ZNSt23_Sp_counted_ptr_inplaceIKN8facebook5velox10ScalarTypeILNS1_8TypeKindE2EEESaIvELN9__gnu_cxx12_Lock_policyE2EE14_M_get_deleterERKSt9type_info = comdat any

$_ZN8facebook5velox10ScalarTypeILNS0_8TypeKindE2EED2Ev = comdat any

$_ZN8facebook5velox10ScalarTypeILNS0_8TypeKindE2EED0Ev = comdat any

$_ZNK8facebook5velox10ScalarTypeILNS0_8TypeKindE2EE4sizeEv = comdat any

$_ZNK8facebook5velox10ScalarTypeILNS0_8TypeKindE2EE7childAtEj = comdat any

$_ZNK8facebook5velox8TypeBaseILNS0_8TypeKindE2EE15isPrimitiveTypeEv = comdat any

$_ZNK8facebook5velox10ScalarTypeILNS0_8TypeKindE2EE12isComparableEv = comdat any

$_ZNK8facebook5velox10ScalarTypeILNS0_8TypeKindE2EE11isOrderableEv = comdat any

$_ZNK8facebook5velox8TypeBaseILNS0_8TypeKindE2EE4nameEv = comdat any

$_ZNK8facebook5velox8TypeBaseILNS0_8TypeKindE2EE10parametersEv = comdat any

$_ZNK8facebook5velox8TypeBaseILNS0_8TypeKindE2EE8kindNameEv = comdat any

$_ZNK8facebook5velox10ScalarTypeILNS0_8TypeKindE2EE8toStringB5cxx11Ev = comdat any

$_ZNK8facebook5velox10ScalarTypeILNS0_8TypeKindE2EE10equivalentERKNS0_4TypeE = comdat any

$_ZNK8facebook5velox10ScalarTypeILNS0_8TypeKindE2EE14cppSizeInBytesEv = comdat any

$_ZNK8facebook5velox8TypeBaseILNS0_8TypeKindE2EE12isFixedWidthEv = comdat any

$_ZNK8facebook5velox10ScalarTypeILNS0_8TypeKindE2EE9serializeEv = comdat any

$_ZThn8_NK8facebook5velox10ScalarTypeILNS0_8TypeKindE2EE9serializeEv = comdat any

$_ZThn8_N8facebook5velox10ScalarTypeILNS0_8TypeKindE2EED1Ev = comdat any

$_ZThn8_N8facebook5velox10ScalarTypeILNS0_8TypeKindE2EED0Ev = comdat any

$_ZSt11make_sharedIKN8facebook5velox10ScalarTypeILNS1_8TypeKindE4EEEJEESt10shared_ptrINSt9enable_ifIXntsr8is_arrayIT_EE5valueES8_E4typeEEDpOT0_ = comdat any

$_ZNSt23_Sp_counted_ptr_inplaceIKN8facebook5velox10ScalarTypeILNS1_8TypeKindE4EEESaIvELN9__gnu_cxx12_Lock_policyE2EED2Ev = comdat any

$_ZNSt23_Sp_counted_ptr_inplaceIKN8facebook5velox10ScalarTypeILNS1_8TypeKindE4EEESaIvELN9__gnu_cxx12_Lock_policyE2EED0Ev = comdat any

$_ZNSt23_Sp_counted_ptr_inplaceIKN8facebook5velox10ScalarTypeILNS1_8TypeKindE4EEESaIvELN9__gnu_cxx12_Lock_policyE2EE10_M_disposeEv = comdat any

$_ZNSt23_Sp_counted_ptr_inplaceIKN8facebook5velox10ScalarTypeILNS1_8TypeKindE4EEESaIvELN9__gnu_cxx12_Lock_policyE2EE10_M_destroyEv = comdat any

$_ZNSt23_Sp_counted_ptr_inplaceIKN8facebook5velox10ScalarTypeILNS1_8TypeKindE4EEESaIvELN9__gnu_cxx12_Lock_policyE2EE14_M_get_deleterERKSt9type_info = comdat any

$_ZSt11make_sharedIKN8facebook5velox10ScalarTypeILNS1_8TypeKindE10EEEJEESt10shared_ptrINSt9enable_ifIXntsr8is_arrayIT_EE5valueES8_E4typeEEDpOT0_ = comdat any

$_ZNSt23_Sp_counted_ptr_inplaceIKN8facebook5velox10ScalarTypeILNS1_8TypeKindE10EEESaIvELN9__gnu_cxx12_Lock_policyE2EED2Ev = comdat any

$_ZNSt23_Sp_counted_ptr_inplaceIKN8facebook5velox10ScalarTypeILNS1_8TypeKindE10EEESaIvELN9__gnu_cxx12_Lock_policyE2EED0Ev = comdat any

$_ZNSt23_Sp_counted_ptr_inplaceIKN8facebook5velox10ScalarTypeILNS1_8TypeKindE10EEESaIvELN9__gnu_cxx12_Lock_policyE2EE10_M_disposeEv = comdat any

$_ZNSt23_Sp_counted_ptr_inplaceIKN8facebook5velox10ScalarTypeILNS1_8TypeKindE10EEESaIvELN9__gnu_cxx12_Lock_policyE2EE10_M_destroyEv = comdat any

$_ZNSt23_Sp_counted_ptr_inplaceIKN8facebook5velox10ScalarTypeILNS1_8TypeKindE10EEESaIvELN9__gnu_cxx12_Lock_policyE2EE14_M_get_deleterERKSt9type_info = comdat any

$_ZN8facebook5velox10ScalarTypeILNS0_8TypeKindE10EED2Ev = comdat any

$_ZN8facebook5velox10ScalarTypeILNS0_8TypeKindE10EED0Ev = comdat any

$_ZNK8facebook5velox10ScalarTypeILNS0_8TypeKindE10EE4sizeEv = comdat any

$_ZNK8facebook5velox10ScalarTypeILNS0_8TypeKindE10EE7childAtEj = comdat any

$_ZNK8facebook5velox8TypeBaseILNS0_8TypeKindE10EE15isPrimitiveTypeEv = comdat any

$_ZNK8facebook5velox10ScalarTypeILNS0_8TypeKindE10EE12isComparableEv = comdat any

$_ZNK8facebook5velox10ScalarTypeILNS0_8TypeKindE10EE11isOrderableEv = comdat any

$_ZNK8facebook5velox8TypeBaseILNS0_8TypeKindE10EE4nameEv = comdat any

$_ZNK8facebook5velox8TypeBaseILNS0_8TypeKindE10EE10parametersEv = comdat any

$_ZNK8facebook5velox8TypeBaseILNS0_8TypeKindE10EE8kindNameEv = comdat any

$_ZNK8facebook5velox10ScalarTypeILNS0_8TypeKindE10EE8toStringB5cxx11Ev = comdat any

$_ZNK8facebook5velox10ScalarTypeILNS0_8TypeKindE10EE10equivalentERKNS0_4TypeE = comdat any

$_ZNK8facebook5velox10ScalarTypeILNS0_8TypeKindE10EE14cppSizeInBytesEv = comdat any

$_ZNK8facebook5velox8TypeBaseILNS0_8TypeKindE10EE12isFixedWidthEv = comdat any

$_ZNK8facebook5velox10ScalarTypeILNS0_8TypeKindE10EE9serializeEv = comdat any

$_ZThn8_NK8facebook5velox10ScalarTypeILNS0_8TypeKindE10EE9serializeEv = comdat any

$_ZThn8_N8facebook5velox10ScalarTypeILNS0_8TypeKindE10EED1Ev = comdat any

$_ZThn8_N8facebook5velox10ScalarTypeILNS0_8TypeKindE10EED0Ev = comdat any

$_ZSt11make_sharedIKN8facebook5velox10ScalarTypeILNS1_8TypeKindE5EEEJEESt10shared_ptrINSt9enable_ifIXntsr8is_arrayIT_EE5valueES8_E4typeEEDpOT0_ = comdat any

$_ZNSt23_Sp_counted_ptr_inplaceIKN8facebook5velox10ScalarTypeILNS1_8TypeKindE5EEESaIvELN9__gnu_cxx12_Lock_policyE2EED2Ev = comdat any

$_ZNSt23_Sp_counted_ptr_inplaceIKN8facebook5velox10ScalarTypeILNS1_8TypeKindE5EEESaIvELN9__gnu_cxx12_Lock_policyE2EED0Ev = comdat any

$_ZNSt23_Sp_counted_ptr_inplaceIKN8facebook5velox10ScalarTypeILNS1_8TypeKindE5EEESaIvELN9__gnu_cxx12_Lock_policyE2EE10_M_disposeEv = comdat any

$_ZNSt23_Sp_counted_ptr_inplaceIKN8facebook5velox10ScalarTypeILNS1_8TypeKindE5EEESaIvELN9__gnu_cxx12_Lock_policyE2EE10_M_destroyEv = comdat any

$_ZNSt23_Sp_counted_ptr_inplaceIKN8facebook5velox10ScalarTypeILNS1_8TypeKindE5EEESaIvELN9__gnu_cxx12_Lock_policyE2EE14_M_get_deleterERKSt9type_info = comdat any

$_ZN8facebook5velox10ScalarTypeILNS0_8TypeKindE5EED2Ev = comdat any

$_ZN8facebook5velox10ScalarTypeILNS0_8TypeKindE5EED0Ev = comdat any

$_ZNK8facebook5velox10ScalarTypeILNS0_8TypeKindE5EE4sizeEv = comdat any

$_ZNK8facebook5velox10ScalarTypeILNS0_8TypeKindE5EE7childAtEj = comdat any

$_ZNK8facebook5velox8TypeBaseILNS0_8TypeKindE5EE15isPrimitiveTypeEv = comdat any

$_ZNK8facebook5velox10ScalarTypeILNS0_8TypeKindE5EE12isComparableEv = comdat any

$_ZNK8facebook5velox10ScalarTypeILNS0_8TypeKindE5EE11isOrderableEv = comdat any

$_ZNK8facebook5velox8TypeBaseILNS0_8TypeKindE5EE4nameEv = comdat any

$_ZNK8facebook5velox8TypeBaseILNS0_8TypeKindE5EE10parametersEv = comdat any

$_ZNK8facebook5velox8TypeBaseILNS0_8TypeKindE5EE8kindNameEv = comdat any

$_ZNK8facebook5velox10ScalarTypeILNS0_8TypeKindE5EE8toStringB5cxx11Ev = comdat any

$_ZNK8facebook5velox10ScalarTypeILNS0_8TypeKindE5EE10equivalentERKNS0_4TypeE = comdat any

$_ZNK8facebook5velox10ScalarTypeILNS0_8TypeKindE5EE14cppSizeInBytesEv = comdat any

$_ZNK8facebook5velox8TypeBaseILNS0_8TypeKindE5EE12isFixedWidthEv = comdat any

$_ZNK8facebook5velox10ScalarTypeILNS0_8TypeKindE5EE9serializeEv = comdat any

$_ZThn8_NK8facebook5velox10ScalarTypeILNS0_8TypeKindE5EE9serializeEv = comdat any

$_ZThn8_N8facebook5velox10ScalarTypeILNS0_8TypeKindE5EED1Ev = comdat any

$_ZThn8_N8facebook5velox10ScalarTypeILNS0_8TypeKindE5EED0Ev = comdat any

$_ZSt11make_sharedIKN8facebook5velox10ScalarTypeILNS1_8TypeKindE6EEEJEESt10shared_ptrINSt9enable_ifIXntsr8is_arrayIT_EE5valueES8_E4typeEEDpOT0_ = comdat any

$_ZNSt23_Sp_counted_ptr_inplaceIKN8facebook5velox10ScalarTypeILNS1_8TypeKindE6EEESaIvELN9__gnu_cxx12_Lock_policyE2EED2Ev = comdat any

$_ZNSt23_Sp_counted_ptr_inplaceIKN8facebook5velox10ScalarTypeILNS1_8TypeKindE6EEESaIvELN9__gnu_cxx12_Lock_policyE2EED0Ev = comdat any

$_ZNSt23_Sp_counted_ptr_inplaceIKN8facebook5velox10ScalarTypeILNS1_8TypeKindE6EEESaIvELN9__gnu_cxx12_Lock_policyE2EE10_M_disposeEv = comdat any

$_ZNSt23_Sp_counted_ptr_inplaceIKN8facebook5velox10ScalarTypeILNS1_8TypeKindE6EEESaIvELN9__gnu_cxx12_Lock_policyE2EE10_M_destroyEv = comdat any

$_ZNSt23_Sp_counted_ptr_inplaceIKN8facebook5velox10ScalarTypeILNS1_8TypeKindE6EEESaIvELN9__gnu_cxx12_Lock_policyE2EE14_M_get_deleterERKSt9type_info = comdat any

$_ZN8facebook5velox10ScalarTypeILNS0_8TypeKindE6EED2Ev = comdat any

$_ZN8facebook5velox10ScalarTypeILNS0_8TypeKindE6EED0Ev = comdat any

$_ZNK8facebook5velox10ScalarTypeILNS0_8TypeKindE6EE4sizeEv = comdat any

$_ZNK8facebook5velox10ScalarTypeILNS0_8TypeKindE6EE7childAtEj = comdat any

$_ZNK8facebook5velox8TypeBaseILNS0_8TypeKindE6EE15isPrimitiveTypeEv = comdat any

$_ZNK8facebook5velox10ScalarTypeILNS0_8TypeKindE6EE12isComparableEv = comdat any

$_ZNK8facebook5velox10ScalarTypeILNS0_8TypeKindE6EE11isOrderableEv = comdat any

$_ZNK8facebook5velox8TypeBaseILNS0_8TypeKindE6EE4nameEv = comdat any

$_ZNK8facebook5velox8TypeBaseILNS0_8TypeKindE6EE10parametersEv = comdat any

$_ZNK8facebook5velox8TypeBaseILNS0_8TypeKindE6EE8kindNameEv = comdat any

$_ZNK8facebook5velox10ScalarTypeILNS0_8TypeKindE6EE8toStringB5cxx11Ev = comdat any

$_ZNK8facebook5velox10ScalarTypeILNS0_8TypeKindE6EE10equivalentERKNS0_4TypeE = comdat any

$_ZNK8facebook5velox10ScalarTypeILNS0_8TypeKindE6EE14cppSizeInBytesEv = comdat any

$_ZNK8facebook5velox8TypeBaseILNS0_8TypeKindE6EE12isFixedWidthEv = comdat any

$_ZNK8facebook5velox10ScalarTypeILNS0_8TypeKindE6EE9serializeEv = comdat any

$_ZThn8_NK8facebook5velox10ScalarTypeILNS0_8TypeKindE6EE9serializeEv = comdat any

$_ZThn8_N8facebook5velox10ScalarTypeILNS0_8TypeKindE6EED1Ev = comdat any

$_ZThn8_N8facebook5velox10ScalarTypeILNS0_8TypeKindE6EED0Ev = comdat any

$_ZSt11make_sharedIKN8facebook5velox10ScalarTypeILNS1_8TypeKindE9EEEJEESt10shared_ptrINSt9enable_ifIXntsr8is_arrayIT_EE5valueES8_E4typeEEDpOT0_ = comdat any

$_ZNSt23_Sp_counted_ptr_inplaceIKN8facebook5velox10ScalarTypeILNS1_8TypeKindE9EEESaIvELN9__gnu_cxx12_Lock_policyE2EED2Ev = comdat any

$_ZNSt23_Sp_counted_ptr_inplaceIKN8facebook5velox10ScalarTypeILNS1_8TypeKindE9EEESaIvELN9__gnu_cxx12_Lock_policyE2EED0Ev = comdat any

$_ZNSt23_Sp_counted_ptr_inplaceIKN8facebook5velox10ScalarTypeILNS1_8TypeKindE9EEESaIvELN9__gnu_cxx12_Lock_policyE2EE10_M_disposeEv = comdat any

$_ZNSt23_Sp_counted_ptr_inplaceIKN8facebook5velox10ScalarTypeILNS1_8TypeKindE9EEESaIvELN9__gnu_cxx12_Lock_policyE2EE10_M_destroyEv = comdat any

$_ZNSt23_Sp_counted_ptr_inplaceIKN8facebook5velox10ScalarTypeILNS1_8TypeKindE9EEESaIvELN9__gnu_cxx12_Lock_policyE2EE14_M_get_deleterERKSt9type_info = comdat any

$_ZN8facebook5velox10ScalarTypeILNS0_8TypeKindE9EED2Ev = comdat any

$_ZN8facebook5velox10ScalarTypeILNS0_8TypeKindE9EED0Ev = comdat any

$_ZNK8facebook5velox10ScalarTypeILNS0_8TypeKindE9EE4sizeEv = comdat any

$_ZNK8facebook5velox10ScalarTypeILNS0_8TypeKindE9EE7childAtEj = comdat any

$_ZNK8facebook5velox8TypeBaseILNS0_8TypeKindE9EE15isPrimitiveTypeEv = comdat any

$_ZNK8facebook5velox10ScalarTypeILNS0_8TypeKindE9EE12isComparableEv = comdat any

$_ZNK8facebook5velox10ScalarTypeILNS0_8TypeKindE9EE11isOrderableEv = comdat any

$_ZNK8facebook5velox8TypeBaseILNS0_8TypeKindE9EE4nameEv = comdat any

$_ZNK8facebook5velox8TypeBaseILNS0_8TypeKindE9EE10parametersEv = comdat any

$_ZNK8facebook5velox8TypeBaseILNS0_8TypeKindE9EE8kindNameEv = comdat any

$_ZNK8facebook5velox10ScalarTypeILNS0_8TypeKindE9EE8toStringB5cxx11Ev = comdat any

$_ZNK8facebook5velox10ScalarTypeILNS0_8TypeKindE9EE10equivalentERKNS0_4TypeE = comdat any

$_ZNK8facebook5velox10ScalarTypeILNS0_8TypeKindE9EE14cppSizeInBytesEv = comdat any

$_ZNK8facebook5velox8TypeBaseILNS0_8TypeKindE9EE12isFixedWidthEv = comdat any

$_ZNK8facebook5velox10ScalarTypeILNS0_8TypeKindE9EE9serializeEv = comdat any

$_ZThn8_NK8facebook5velox10ScalarTypeILNS0_8TypeKindE9EE9serializeEv = comdat any

$_ZThn8_N8facebook5velox10ScalarTypeILNS0_8TypeKindE9EED1Ev = comdat any

$_ZThn8_N8facebook5velox10ScalarTypeILNS0_8TypeKindE9EED0Ev = comdat any

$_ZSt11make_sharedIKN8facebook5velox10ScalarTypeILNS1_8TypeKindE7EEEJEESt10shared_ptrINSt9enable_ifIXntsr8is_arrayIT_EE5valueES8_E4typeEEDpOT0_ = comdat any

$_ZNSt23_Sp_counted_ptr_inplaceIKN8facebook5velox10ScalarTypeILNS1_8TypeKindE7EEESaIvELN9__gnu_cxx12_Lock_policyE2EED2Ev = comdat any

$_ZNSt23_Sp_counted_ptr_inplaceIKN8facebook5velox10ScalarTypeILNS1_8TypeKindE7EEESaIvELN9__gnu_cxx12_Lock_policyE2EED0Ev = comdat any

$_ZNSt23_Sp_counted_ptr_inplaceIKN8facebook5velox10ScalarTypeILNS1_8TypeKindE7EEESaIvELN9__gnu_cxx12_Lock_policyE2EE10_M_disposeEv = comdat any

$_ZNSt23_Sp_counted_ptr_inplaceIKN8facebook5velox10ScalarTypeILNS1_8TypeKindE7EEESaIvELN9__gnu_cxx12_Lock_policyE2EE10_M_destroyEv = comdat any

$_ZNSt23_Sp_counted_ptr_inplaceIKN8facebook5velox10ScalarTypeILNS1_8TypeKindE7EEESaIvELN9__gnu_cxx12_Lock_policyE2EE14_M_get_deleterERKSt9type_info = comdat any

$_ZN8facebook5velox10ScalarTypeILNS0_8TypeKindE7EED2Ev = comdat any

$_ZN8facebook5velox10ScalarTypeILNS0_8TypeKindE7EED0Ev = comdat any

$_ZNK8facebook5velox10ScalarTypeILNS0_8TypeKindE7EE4sizeEv = comdat any

$_ZNK8facebook5velox10ScalarTypeILNS0_8TypeKindE7EE7childAtEj = comdat any

$_ZNK8facebook5velox8TypeBaseILNS0_8TypeKindE7EE15isPrimitiveTypeEv = comdat any

$_ZNK8facebook5velox10ScalarTypeILNS0_8TypeKindE7EE12isComparableEv = comdat any

$_ZNK8facebook5velox10ScalarTypeILNS0_8TypeKindE7EE11isOrderableEv = comdat any

$_ZNK8facebook5velox8TypeBaseILNS0_8TypeKindE7EE4nameEv = comdat any

$_ZNK8facebook5velox8TypeBaseILNS0_8TypeKindE7EE10parametersEv = comdat any

$_ZNK8facebook5velox8TypeBaseILNS0_8TypeKindE7EE8kindNameEv = comdat any

$_ZNK8facebook5velox10ScalarTypeILNS0_8TypeKindE7EE8toStringB5cxx11Ev = comdat any

$_ZNK8facebook5velox10ScalarTypeILNS0_8TypeKindE7EE10equivalentERKNS0_4TypeE = comdat any

$_ZNK8facebook5velox10ScalarTypeILNS0_8TypeKindE7EE14cppSizeInBytesEv = comdat any

$_ZNK8facebook5velox8TypeBaseILNS0_8TypeKindE7EE12isFixedWidthEv = comdat any

$_ZNK8facebook5velox10ScalarTypeILNS0_8TypeKindE7EE9serializeEv = comdat any

$_ZThn8_NK8facebook5velox10ScalarTypeILNS0_8TypeKindE7EE9serializeEv = comdat any

$_ZThn8_N8facebook5velox10ScalarTypeILNS0_8TypeKindE7EED1Ev = comdat any

$_ZThn8_N8facebook5velox10ScalarTypeILNS0_8TypeKindE7EED0Ev = comdat any

$_ZSt11make_sharedIKN8facebook5velox10ScalarTypeILNS1_8TypeKindE8EEEJEESt10shared_ptrINSt9enable_ifIXntsr8is_arrayIT_EE5valueES8_E4typeEEDpOT0_ = comdat any

$_ZNSt23_Sp_counted_ptr_inplaceIKN8facebook5velox10ScalarTypeILNS1_8TypeKindE8EEESaIvELN9__gnu_cxx12_Lock_policyE2EED2Ev = comdat any

$_ZNSt23_Sp_counted_ptr_inplaceIKN8facebook5velox10ScalarTypeILNS1_8TypeKindE8EEESaIvELN9__gnu_cxx12_Lock_policyE2EED0Ev = comdat any

$_ZNSt23_Sp_counted_ptr_inplaceIKN8facebook5velox10ScalarTypeILNS1_8TypeKindE8EEESaIvELN9__gnu_cxx12_Lock_policyE2EE10_M_disposeEv = comdat any

$_ZNSt23_Sp_counted_ptr_inplaceIKN8facebook5velox10ScalarTypeILNS1_8TypeKindE8EEESaIvELN9__gnu_cxx12_Lock_policyE2EE10_M_destroyEv = comdat any

$_ZNSt23_Sp_counted_ptr_inplaceIKN8facebook5velox10ScalarTypeILNS1_8TypeKindE8EEESaIvELN9__gnu_cxx12_Lock_policyE2EE14_M_get_deleterERKSt9type_info = comdat any

$_ZN8facebook5velox10ScalarTypeILNS0_8TypeKindE8EED2Ev = comdat any

$_ZN8facebook5velox10ScalarTypeILNS0_8TypeKindE8EED0Ev = comdat any

$_ZNK8facebook5velox10ScalarTypeILNS0_8TypeKindE8EE4sizeEv = comdat any

$_ZNK8facebook5velox10ScalarTypeILNS0_8TypeKindE8EE7childAtEj = comdat any

$_ZNK8facebook5velox8TypeBaseILNS0_8TypeKindE8EE15isPrimitiveTypeEv = comdat any

$_ZNK8facebook5velox10ScalarTypeILNS0_8TypeKindE8EE12isComparableEv = comdat any

$_ZNK8facebook5velox10ScalarTypeILNS0_8TypeKindE8EE11isOrderableEv = comdat any

$_ZNK8facebook5velox8TypeBaseILNS0_8TypeKindE8EE4nameEv = comdat any

$_ZNK8facebook5velox8TypeBaseILNS0_8TypeKindE8EE10parametersEv = comdat any

$_ZNK8facebook5velox8TypeBaseILNS0_8TypeKindE8EE8kindNameEv = comdat any

$_ZNK8facebook5velox10ScalarTypeILNS0_8TypeKindE8EE8toStringB5cxx11Ev = comdat any

$_ZNK8facebook5velox10ScalarTypeILNS0_8TypeKindE8EE10equivalentERKNS0_4TypeE = comdat any

$_ZNK8facebook5velox10ScalarTypeILNS0_8TypeKindE8EE14cppSizeInBytesEv = comdat any

$_ZNK8facebook5velox8TypeBaseILNS0_8TypeKindE8EE12isFixedWidthEv = comdat any

$_ZNK8facebook5velox10ScalarTypeILNS0_8TypeKindE8EE9serializeEv = comdat any

$_ZThn8_NK8facebook5velox10ScalarTypeILNS0_8TypeKindE8EE9serializeEv = comdat any

$_ZThn8_N8facebook5velox10ScalarTypeILNS0_8TypeKindE8EED1Ev = comdat any

$_ZThn8_N8facebook5velox10ScalarTypeILNS0_8TypeKindE8EED0Ev = comdat any

$_ZNSt23_Sp_counted_ptr_inplaceIN8facebook5velox16ShortDecimalTypeESaIvELN9__gnu_cxx12_Lock_policyE2EED2Ev = comdat any

$_ZNSt23_Sp_counted_ptr_inplaceIN8facebook5velox16ShortDecimalTypeESaIvELN9__gnu_cxx12_Lock_policyE2EED0Ev = comdat any

$_ZNSt23_Sp_counted_ptr_inplaceIN8facebook5velox16ShortDecimalTypeESaIvELN9__gnu_cxx12_Lock_policyE2EE10_M_disposeEv = comdat any

$_ZNSt23_Sp_counted_ptr_inplaceIN8facebook5velox16ShortDecimalTypeESaIvELN9__gnu_cxx12_Lock_policyE2EE10_M_destroyEv = comdat any

$_ZNSt23_Sp_counted_ptr_inplaceIN8facebook5velox16ShortDecimalTypeESaIvELN9__gnu_cxx12_Lock_policyE2EE14_M_get_deleterERKSt9type_info = comdat any

$_ZN8facebook5velox11DecimalTypeILNS0_8TypeKindE4EEC2Ehh = comdat any

$_ZN8facebook5velox16ShortDecimalTypeD2Ev = comdat any

$_ZN8facebook5velox16ShortDecimalTypeD0Ev = comdat any

$_ZNK8facebook5velox11DecimalTypeILNS0_8TypeKindE4EE4nameEv = comdat any

$_ZNK8facebook5velox11DecimalTypeILNS0_8TypeKindE4EE10parametersEv = comdat any

$_ZNK8facebook5velox11DecimalTypeILNS0_8TypeKindE4EE8toStringB5cxx11Ev = comdat any

$_ZNK8facebook5velox11DecimalTypeILNS0_8TypeKindE4EE10equivalentERKNS0_4TypeE = comdat any

$_ZNK8facebook5velox11DecimalTypeILNS0_8TypeKindE4EE9serializeEv = comdat any

$_ZThn8_NK8facebook5velox11DecimalTypeILNS0_8TypeKindE4EE9serializeEv = comdat any

$_ZThn8_N8facebook5velox16ShortDecimalTypeD1Ev = comdat any

$_ZThn8_N8facebook5velox16ShortDecimalTypeD0Ev = comdat any

$_ZN8facebook5velox11DecimalTypeILNS0_8TypeKindE4EED2Ev = comdat any

$_ZN8facebook5velox11DecimalTypeILNS0_8TypeKindE4EED0Ev = comdat any

$_ZThn8_N8facebook5velox11DecimalTypeILNS0_8TypeKindE4EED1Ev = comdat any

$_ZThn8_N8facebook5velox11DecimalTypeILNS0_8TypeKindE4EED0Ev = comdat any

$_ZNSt23_Sp_counted_ptr_inplaceIN8facebook5velox15LongDecimalTypeESaIvELN9__gnu_cxx12_Lock_policyE2EED2Ev = comdat any

$_ZNSt23_Sp_counted_ptr_inplaceIN8facebook5velox15LongDecimalTypeESaIvELN9__gnu_cxx12_Lock_policyE2EED0Ev = comdat any

$_ZNSt23_Sp_counted_ptr_inplaceIN8facebook5velox15LongDecimalTypeESaIvELN9__gnu_cxx12_Lock_policyE2EE10_M_disposeEv = comdat any

$_ZNSt23_Sp_counted_ptr_inplaceIN8facebook5velox15LongDecimalTypeESaIvELN9__gnu_cxx12_Lock_policyE2EE10_M_destroyEv = comdat any

$_ZNSt23_Sp_counted_ptr_inplaceIN8facebook5velox15LongDecimalTypeESaIvELN9__gnu_cxx12_Lock_policyE2EE14_M_get_deleterERKSt9type_info = comdat any

$_ZN8facebook5velox11DecimalTypeILNS0_8TypeKindE10EEC2Ehh = comdat any

$_ZN8facebook5velox15LongDecimalTypeD2Ev = comdat any

$_ZN8facebook5velox15LongDecimalTypeD0Ev = comdat any

$_ZNK8facebook5velox11DecimalTypeILNS0_8TypeKindE10EE4nameEv = comdat any

$_ZNK8facebook5velox11DecimalTypeILNS0_8TypeKindE10EE10parametersEv = comdat any

$_ZNK8facebook5velox11DecimalTypeILNS0_8TypeKindE10EE8toStringB5cxx11Ev = comdat any

$_ZNK8facebook5velox11DecimalTypeILNS0_8TypeKindE10EE10equivalentERKNS0_4TypeE = comdat any

$_ZNK8facebook5velox11DecimalTypeILNS0_8TypeKindE10EE9serializeEv = comdat any

$_ZThn8_NK8facebook5velox11DecimalTypeILNS0_8TypeKindE10EE9serializeEv = comdat any

$_ZThn8_N8facebook5velox15LongDecimalTypeD1Ev = comdat any

$_ZThn8_N8facebook5velox15LongDecimalTypeD0Ev = comdat any

$_ZN8facebook5velox11DecimalTypeILNS0_8TypeKindE10EED2Ev = comdat any

$_ZN8facebook5velox11DecimalTypeILNS0_8TypeKindE10EED0Ev = comdat any

$_ZThn8_N8facebook5velox11DecimalTypeILNS0_8TypeKindE10EED1Ev = comdat any

$_ZThn8_N8facebook5velox11DecimalTypeILNS0_8TypeKindE10EED0Ev = comdat any

$_ZNSt23_Sp_counted_ptr_inplaceIN8facebook5velox12FunctionTypeESaIvELN9__gnu_cxx12_Lock_policyE2EED2Ev = comdat any

$_ZNSt23_Sp_counted_ptr_inplaceIN8facebook5velox12FunctionTypeESaIvELN9__gnu_cxx12_Lock_policyE2EED0Ev = comdat any

$_ZNSt23_Sp_counted_ptr_inplaceIN8facebook5velox12FunctionTypeESaIvELN9__gnu_cxx12_Lock_policyE2EE10_M_disposeEv = comdat any

$_ZNSt23_Sp_counted_ptr_inplaceIN8facebook5velox12FunctionTypeESaIvELN9__gnu_cxx12_Lock_policyE2EE10_M_destroyEv = comdat any

$_ZNSt23_Sp_counted_ptr_inplaceIN8facebook5velox12FunctionTypeESaIvELN9__gnu_cxx12_Lock_policyE2EE14_M_get_deleterERKSt9type_info = comdat any

$_ZSt10_ConstructIN8facebook5velox12FunctionTypeEJSt6vectorISt10shared_ptrIKNS1_4TypeEESaIS7_EERS7_EEvPT_DpOT0_ = comdat any

$_ZN5boost9algorithm6detail20transform_range_copyINSt7__cxx1112basic_stringIcSt11char_traitsIcESaIcEEES8_NS1_9to_upperFIcEEEET_RKT0_T1_ = comdat any

$_ZNSt7__cxx1112basic_stringIcSt11char_traitsIcESaIcEE12_M_constructIN5boost9iterators18transform_iteratorINS6_9algorithm6detail9to_upperFIcEEN9__gnu_cxx17__normal_iteratorIPKcS4_EENS6_11use_defaultESI_EEEEvT_SK_St18input_iterator_tag = comdat any

$_ZZNSt7__cxx1112basic_stringIcSt11char_traitsIcESaIcEE12_M_constructIN5boost9iterators18transform_iteratorINS6_9algorithm6detail9to_upperFIcEEN9__gnu_cxx17__normal_iteratorIPKcS4_EENS6_11use_defaultESI_EEEEvT_SK_St18input_iterator_tagEN6_GuardD2Ev = comdat any

$_ZNSt10_HashtableINSt7__cxx1112basic_stringIcSt11char_traitsIcESaIcEEESt4pairIKS5_St10unique_ptrIKN8facebook5velox19CustomTypeFactoriesESt14default_deleteISC_EEESaISG_ENSt8__detail10_Select1stESt8equal_toIS5_ESt4hashIS5_ENSI_18_Mod_range_hashingENSI_20_Default_ranged_hashENSI_20_Prime_rehash_policyENSI_17_Hashtable_traitsILb1ELb0ELb1EEEE10_M_emplaceIJRS5_SF_EEES6_INSI_14_Node_iteratorISG_Lb0ELb1EEEbESt17integral_constantIbLb1EEDpOT_ = comdat any

$_ZNSt10_HashtableINSt7__cxx1112basic_stringIcSt11char_traitsIcESaIcEEESt4pairIKS5_St10unique_ptrIKN8facebook5velox19CustomTypeFactoriesESt14default_deleteISC_EEESaISG_ENSt8__detail10_Select1stESt8equal_toIS5_ESt4hashIS5_ENSI_18_Mod_range_hashingENSI_20_Default_ranged_hashENSI_20_Prime_rehash_policyENSI_17_Hashtable_traitsILb1ELb0ELb1EEEE21_M_insert_unique_nodeEmmPNSI_10_Hash_nodeISG_Lb1EEEm = comdat any

$_ZNSt10_HashtableINSt7__cxx1112basic_stringIcSt11char_traitsIcESaIcEEESt4pairIKS5_St10unique_ptrIKN8facebook5velox19CustomTypeFactoriesESt14default_deleteISC_EEESaISG_ENSt8__detail10_Select1stESt8equal_toIS5_ESt4hashIS5_ENSI_18_Mod_range_hashingENSI_20_Default_ranged_hashENSI_20_Prime_rehash_policyENSI_17_Hashtable_traitsILb1ELb0ELb1EEEE12_Scoped_nodeD2Ev = comdat any

$_ZNKSt10_HashtableINSt7__cxx1112basic_stringIcSt11char_traitsIcESaIcEEESt4pairIKS5_St10unique_ptrIKN8facebook5velox19CustomTypeFactoriesESt14default_deleteISC_EEESaISG_ENSt8__detail10_Select1stESt8equal_toIS5_ESt4hashIS5_ENSI_18_Mod_range_hashingENSI_20_Default_ranged_hashENSI_20_Prime_rehash_policyENSI_17_Hashtable_traitsILb1ELb0ELb1EEEE19_M_find_before_nodeEmRS7_m = comdat any

$_ZNSt10_HashtableINSt7__cxx1112basic_stringIcSt11char_traitsIcESaIcEEESt4pairIKS5_St10unique_ptrIKN8facebook5velox19CustomTypeFactoriesESt14default_deleteISC_EEESaISG_ENSt8__detail10_Select1stESt8equal_toIS5_ESt4hashIS5_ENSI_18_Mod_range_hashingENSI_20_Default_ranged_hashENSI_20_Prime_rehash_policyENSI_17_Hashtable_traitsILb1ELb0ELb1EEEE13_M_rehash_auxEmSt17integral_constantIbLb1EE = comdat any

$_ZNKSt10_HashtableINSt7__cxx1112basic_stringIcSt11char_traitsIcESaIcEEESt4pairIKS5_St10unique_ptrIKN8facebook5velox19CustomTypeFactoriesESt14default_deleteISC_EEESaISG_ENSt8__detail10_Select1stESt8equal_toIS5_ESt4hashIS5_ENSI_18_Mod_range_hashingENSI_20_Default_ranged_hashENSI_20_Prime_rehash_policyENSI_17_Hashtable_traitsILb1ELb0ELb1EEEE4findERS7_ = comdat any

$_ZNSt10_HashtableINSt7__cxx1112basic_stringIcSt11char_traitsIcESaIcEEES5_SaIS5_ENSt8__detail9_IdentityESt8equal_toIS5_ESt4hashIS5_ENS7_18_Mod_range_hashingENS7_20_Default_ranged_hashENS7_20_Prime_rehash_policyENS7_17_Hashtable_traitsILb1ELb1ELb1EEEE16_M_insert_uniqueIRKS5_SL_NS7_10_AllocNodeISaINS7_10_Hash_nodeIS5_Lb1EEEEEEEESt4pairINS7_14_Node_iteratorIS5_Lb1ELb1EEEbEOT_OT0_RKT1_ = comdat any

$_ZNSt10_HashtableINSt7__cxx1112basic_stringIcSt11char_traitsIcESaIcEEES5_SaIS5_ENSt8__detail9_IdentityESt8equal_toIS5_ESt4hashIS5_ENS7_18_Mod_range_hashingENS7_20_Default_ranged_hashENS7_20_Prime_rehash_policyENS7_17_Hashtable_traitsILb1ELb1ELb1EEEE21_M_insert_unique_nodeEmmPNS7_10_Hash_nodeIS5_Lb1EEEm = comdat any

$_ZNSt10_HashtableINSt7__cxx1112basic_stringIcSt11char_traitsIcESaIcEEES5_SaIS5_ENSt8__detail9_IdentityESt8equal_toIS5_ESt4hashIS5_ENS7_18_Mod_range_hashingENS7_20_Default_ranged_hashENS7_20_Prime_rehash_policyENS7_17_Hashtable_traitsILb1ELb1ELb1EEEE12_Scoped_nodeD2Ev = comdat any

$_ZNKSt10_HashtableINSt7__cxx1112basic_stringIcSt11char_traitsIcESaIcEEES5_SaIS5_ENSt8__detail9_IdentityESt8equal_toIS5_ESt4hashIS5_ENS7_18_Mod_range_hashingENS7_20_Default_ranged_hashENS7_20_Prime_rehash_policyENS7_17_Hashtable_traitsILb1ELb1ELb1EEEE22_M_find_before_node_trIS5_EEPNS7_15_Hash_node_baseEmRKT_m = comdat any

$_ZNSt10_HashtableINSt7__cxx1112basic_stringIcSt11char_traitsIcESaIcEEES5_SaIS5_ENSt8__detail9_IdentityESt8equal_toIS5_ESt4hashIS5_ENS7_18_Mod_range_hashingENS7_20_Default_ranged_hashENS7_20_Prime_rehash_policyENS7_17_Hashtable_traitsILb1ELb1ELb1EEEE13_M_rehash_auxEmSt17integral_constantIbLb1EE = comdat any

$_ZNSt10_HashtableINSt7__cxx1112basic_stringIcSt11char_traitsIcESaIcEEESt4pairIKS5_St10unique_ptrIKN8facebook5velox19CustomTypeFactoriesESt14default_deleteISC_EEESaISG_ENSt8__detail10_Select1stESt8equal_toIS5_ESt4hashIS5_ENSI_18_Mod_range_hashingENSI_20_Default_ranged_hashENSI_20_Prime_rehash_policyENSI_17_Hashtable_traitsILb1ELb0ELb1EEEE8_M_eraseESt17integral_constantIbLb1EERS7_ = comdat any

$_ZNSt10_HashtableINSt7__cxx1112basic_stringIcSt11char_traitsIcESaIcEEESt4pairIKS5_St10unique_ptrIKN8facebook5velox19CustomTypeFactoriesESt14default_deleteISC_EEESaISG_ENSt8__detail10_Select1stESt8equal_toIS5_ESt4hashIS5_ENSI_18_Mod_range_hashingENSI_20_Default_ranged_hashENSI_20_Prime_rehash_policyENSI_17_Hashtable_traitsILb1ELb0ELb1EEEE4findERS7_ = comdat any

$_ZNKSt10_HashtableINSt7__cxx1112basic_stringIcSt11char_traitsIcESaIcEEESt4pairIKS5_St10shared_ptrIKN8facebook5velox4TypeEEESaISE_ENSt8__detail10_Select1stESt8equal_toIS5_ESt4hashIS5_ENSG_18_Mod_range_hashingENSG_20_Default_ranged_hashENSG_20_Prime_rehash_policyENSG_17_Hashtable_traitsILb1ELb0ELb1EEEE4findERS7_ = comdat any

$_ZNKSt10_HashtableINSt7__cxx1112basic_stringIcSt11char_traitsIcESaIcEEESt4pairIKS5_St10shared_ptrIKN8facebook5velox4TypeEEESaISE_ENSt8__detail10_Select1stESt8equal_toIS5_ESt4hashIS5_ENSG_18_Mod_range_hashingENSG_20_Default_ranged_hashENSG_20_Prime_rehash_policyENSG_17_Hashtable_traitsILb1ELb0ELb1EEEE19_M_find_before_nodeEmRS7_m = comdat any

$_ZNKSt10_HashtableINSt7__cxx1112basic_stringIcSt11char_traitsIcESaIcEEESt4pairIKS5_St8functionIFSt10shared_ptrIKN8facebook5velox4TypeEERKSt6vectorINSB_13TypeParameterESaISG_EEEEESaISN_ENSt8__detail10_Select1stESt8equal_toIS5_ESt4hashIS5_ENSP_18_Mod_range_hashingENSP_20_Default_ranged_hashENSP_20_Prime_rehash_policyENSP_17_Hashtable_traitsILb1ELb0ELb1EEEE4findERS7_ = comdat any

$_ZNKSt10_HashtableINSt7__cxx1112basic_stringIcSt11char_traitsIcESaIcEEESt4pairIKS5_St8functionIFSt10shared_ptrIKN8facebook5velox4TypeEERKSt6vectorINSB_13TypeParameterESaISG_EEEEESaISN_ENSt8__detail10_Select1stESt8equal_toIS5_ESt4hashIS5_ENSP_18_Mod_range_hashingENSP_20_Default_ranged_hashENSP_20_Prime_rehash_policyENSP_17_Hashtable_traitsILb1ELb0ELb1EEEE19_M_find_before_nodeEmRS7_m = comdat any

$_ZTSN8facebook5velox8TypeBaseILNS0_8TypeKindE30EEE = comdat any

$_ZTSN8facebook5velox4TypeE = comdat any

$_ZTSN8facebook5velox4TreeIKSt10shared_ptrIKNS0_4TypeEEEE = comdat any

$_ZTIN8facebook5velox4TreeIKSt10shared_ptrIKNS0_4TypeEEEE = comdat any

$_ZTSN8facebook5velox13ISerializableE = comdat any

$_ZTIN8facebook5velox13ISerializableE = comdat any

$_ZTIN8facebook5velox4TypeE = comdat any

$_ZTIN8facebook5velox8TypeBaseILNS0_8TypeKindE30EEE = comdat any

$_ZTSN8facebook5velox8TypeBaseILNS0_8TypeKindE31EEE = comdat any

$_ZTIN8facebook5velox8TypeBaseILNS0_8TypeKindE31EEE = comdat any

$_ZTSN8facebook5velox8TypeBaseILNS0_8TypeKindE32EEE = comdat any

$_ZTIN8facebook5velox8TypeBaseILNS0_8TypeKindE32EEE = comdat any

$_ZTSN8facebook5velox8TypeBaseILNS0_8TypeKindE34EEE = comdat any

$_ZTIN8facebook5velox8TypeBaseILNS0_8TypeKindE34EEE = comdat any

$_ZTSN8facebook5velox8TypeBaseILNS0_8TypeKindE35EEE = comdat any

$_ZTIN8facebook5velox8TypeBaseILNS0_8TypeKindE35EEE = comdat any

$_ZTSN8facebook5velox16ShortDecimalTypeE = comdat any

$_ZTSN8facebook5velox11DecimalTypeILNS0_8TypeKindE4EEE = comdat any

$_ZTSN8facebook5velox10ScalarTypeILNS0_8TypeKindE4EEE = comdat any

$_ZTSN8facebook5velox8TypeBaseILNS0_8TypeKindE4EEE = comdat any

$_ZTIN8facebook5velox8TypeBaseILNS0_8TypeKindE4EEE = comdat any

$_ZTIN8facebook5velox10ScalarTypeILNS0_8TypeKindE4EEE = comdat any

$_ZTIN8facebook5velox11DecimalTypeILNS0_8TypeKindE4EEE = comdat any

$_ZTIN8facebook5velox16ShortDecimalTypeE = comdat any

$_ZTSN8facebook5velox15LongDecimalTypeE = comdat any

$_ZTSN8facebook5velox11DecimalTypeILNS0_8TypeKindE10EEE = comdat any

$_ZTSN8facebook5velox10ScalarTypeILNS0_8TypeKindE10EEE = comdat any

$_ZTSN8facebook5velox8TypeBaseILNS0_8TypeKindE10EEE = comdat any

$_ZTIN8facebook5velox8TypeBaseILNS0_8TypeKindE10EEE = comdat any

$_ZTIN8facebook5velox10ScalarTypeILNS0_8TypeKindE10EEE = comdat any

$_ZTIN8facebook5velox11DecimalTypeILNS0_8TypeKindE10EEE = comdat any

$_ZTIN8facebook5velox15LongDecimalTypeE = comdat any

$_ZTSN5folly9TypeErrorE = comdat any

$_ZTIN5folly9TypeErrorE = comdat any

$_ZTVN5folly9TypeErrorE = comdat any

$_ZTVSt19_Sp_counted_deleterIPN8facebook5velox13ISerializableESt14default_deleteIS2_ESaIvELN9__gnu_cxx12_Lock_policyE2EE = comdat any

$_ZTSSt19_Sp_counted_deleterIPN8facebook5velox13ISerializableESt14default_deleteIS2_ESaIvELN9__gnu_cxx12_Lock_policyE2EE = comdat any

$_ZTSSt16_Sp_counted_baseILN9__gnu_cxx12_Lock_policyE2EE = comdat any

$_ZTSSt11_Mutex_baseILN9__gnu_cxx12_Lock_policyE2EE = comdat any

$_ZTISt11_Mutex_baseILN9__gnu_cxx12_Lock_policyE2EE = comdat any

$_ZTISt16_Sp_counted_baseILN9__gnu_cxx12_Lock_policyE2EE = comdat any

$_ZTISt19_Sp_counted_deleterIPN8facebook5velox13ISerializableESt14default_deleteIS2_ESaIvELN9__gnu_cxx12_Lock_policyE2EE = comdat any

$_ZTSSt14default_deleteIN8facebook5velox13ISerializableEE = comdat any

$_ZTSN5folly17BadExpectedAccessIvEE = comdat any

$_ZTIN5folly17BadExpectedAccessIvEE = comdat any

$_ZTVN5folly17BadExpectedAccessIvEE = comdat any

$_ZTSN5folly15ConversionErrorE = comdat any

$_ZTSN5folly19ConversionErrorBaseE = comdat any

$_ZTIN5folly19ConversionErrorBaseE = comdat any

$_ZTIN5folly15ConversionErrorE = comdat any

$_ZTVN5folly15ConversionErrorE = comdat any

$_ZTSN5folly17BadExpectedAccessINS_14ConversionCodeEEE = comdat any

$_ZTIN5folly17BadExpectedAccessINS_14ConversionCodeEEE = comdat any

$_ZTVN5folly17BadExpectedAccessINS_14ConversionCodeEEE = comdat any

$_ZN5folly6detail18pretty_name_zarrayIlNS0_14pretty_tag_gccEE6zarrayE = comdat any

$_ZZN8facebook5velox19IntervalDayTimeType3getEvE5kType = comdat any

$_ZGVZN8facebook5velox19IntervalDayTimeType3getEvE5kType = comdat any

$_ZTVN8facebook5velox19IntervalDayTimeTypeE = comdat any

$_ZTSN8facebook5velox19IntervalDayTimeTypeE = comdat any

$_ZTIN8facebook5velox19IntervalDayTimeTypeE = comdat any

$_ZTVN8facebook5velox10ScalarTypeILNS0_8TypeKindE4EEE = comdat any

$_ZZNK8facebook5velox8TypeBaseILNS0_8TypeKindE4EE10parametersEvE6kEmpty = comdat any

$_ZGVZNK8facebook5velox8TypeBaseILNS0_8TypeKindE4EE10parametersEvE6kEmpty = comdat any

$_ZTVSt15_Sp_counted_ptrIPN8facebook5velox19IntervalDayTimeTypeELN9__gnu_cxx12_Lock_policyE2EE = comdat any

$_ZTSSt15_Sp_counted_ptrIPN8facebook5velox19IntervalDayTimeTypeELN9__gnu_cxx12_Lock_policyE2EE = comdat any

$_ZTISt15_Sp_counted_ptrIPN8facebook5velox19IntervalDayTimeTypeELN9__gnu_cxx12_Lock_policyE2EE = comdat any

$_ZZN8facebook5velox21IntervalYearMonthType3getEvE5kType = comdat any

$_ZGVZN8facebook5velox21IntervalYearMonthType3getEvE5kType = comdat any

$_ZTVN8facebook5velox21IntervalYearMonthTypeE = comdat any

$_ZTSN8facebook5velox21IntervalYearMonthTypeE = comdat any

$_ZTSN8facebook5velox10ScalarTypeILNS0_8TypeKindE3EEE = comdat any

$_ZTSN8facebook5velox8TypeBaseILNS0_8TypeKindE3EEE = comdat any

$_ZTIN8facebook5velox8TypeBaseILNS0_8TypeKindE3EEE = comdat any

$_ZTIN8facebook5velox10ScalarTypeILNS0_8TypeKindE3EEE = comdat any

$_ZTIN8facebook5velox21IntervalYearMonthTypeE = comdat any

$_ZTVN8facebook5velox10ScalarTypeILNS0_8TypeKindE3EEE = comdat any

$_ZZNK8facebook5velox8TypeBaseILNS0_8TypeKindE3EE10parametersEvE6kEmpty = comdat any

$_ZGVZNK8facebook5velox8TypeBaseILNS0_8TypeKindE3EE10parametersEvE6kEmpty = comdat any

$_ZTVSt15_Sp_counted_ptrIPN8facebook5velox21IntervalYearMonthTypeELN9__gnu_cxx12_Lock_policyE2EE = comdat any

$_ZTSSt15_Sp_counted_ptrIPN8facebook5velox21IntervalYearMonthTypeELN9__gnu_cxx12_Lock_policyE2EE = comdat any

$_ZTISt15_Sp_counted_ptrIPN8facebook5velox21IntervalYearMonthTypeELN9__gnu_cxx12_Lock_policyE2EE = comdat any

$_ZZN8facebook5velox8DateType3getEvE5kType = comdat any

$_ZGVZN8facebook5velox8DateType3getEvE5kType = comdat any

$_ZTVN8facebook5velox8DateTypeE = comdat any

$_ZTSN8facebook5velox8DateTypeE = comdat any

$_ZTIN8facebook5velox8DateTypeE = comdat any

$_ZTVSt15_Sp_counted_ptrIPN8facebook5velox8DateTypeELN9__gnu_cxx12_Lock_policyE2EE = comdat any

$_ZTSSt15_Sp_counted_ptrIPN8facebook5velox8DateTypeELN9__gnu_cxx12_Lock_policyE2EE = comdat any

$_ZTISt15_Sp_counted_ptrIPN8facebook5velox8DateTypeELN9__gnu_cxx12_Lock_policyE2EE = comdat any

$_ZZN5folly3f146detail8F14TableINS1_21VectorContainerPolicyINSt7__cxx1112basic_stringIcSt11char_traitsIcESaIcEEEjvvvSt17integral_constantIbLb1EEEEE10rehashImplEmmmmmE30__folly_detail_safe_assert_arg_0 = comdat any

$_ZN5folly6detail21safe_assert_msg_typesINS0_22safe_assert_msg_type_sIJLNS0_20safe_assert_msg_typeE1EEEEE5valueE = comdat any

$_ZZN5folly3f146detail8F14ChunkIjE6setTagEmmE30__folly_detail_safe_assert_arg_0 = comdat any

$_ZSt19piecewise_construct = comdat any

$_ZZN5folly3f146detail8F14ChunkIjE8clearTagEmE30__folly_detail_safe_assert_arg = comdat any

$_ZTSSt19bad_optional_access = comdat any

$_ZTISt19bad_optional_access = comdat any

$_ZTVSt19bad_optional_access = comdat any

$_ZTVSt23_Sp_counted_ptr_inplaceIN8facebook5velox11UnknownTypeESaIvELN9__gnu_cxx12_Lock_policyE2EE = comdat any

$_ZTSSt23_Sp_counted_ptr_inplaceIN8facebook5velox11UnknownTypeESaIvELN9__gnu_cxx12_Lock_policyE2EE = comdat any

$_ZTISt23_Sp_counted_ptr_inplaceIN8facebook5velox11UnknownTypeESaIvELN9__gnu_cxx12_Lock_policyE2EE = comdat any

$_ZTVN8facebook5velox11UnknownTypeE = comdat any

$_ZTSN8facebook5velox11UnknownTypeE = comdat any

$_ZTSN8facebook5velox8TypeBaseILNS0_8TypeKindE33EEE = comdat any

$_ZTIN8facebook5velox8TypeBaseILNS0_8TypeKindE33EEE = comdat any

$_ZTIN8facebook5velox11UnknownTypeE = comdat any

$_ZZNK8facebook5velox8TypeBaseILNS0_8TypeKindE33EE10parametersEvE6kEmpty = comdat any

$_ZGVZNK8facebook5velox8TypeBaseILNS0_8TypeKindE33EE10parametersEvE6kEmpty = comdat any

$_ZTSSt19_Sp_make_shared_tag = comdat any

$_ZZNSt19_Sp_make_shared_tag5_S_tiEvE5__tag = comdat any

$_ZTSPFSt10shared_ptrIKN8facebook5velox4TypeEERKSt6vectorINS1_13TypeParameterESaIS6_EEE = comdat any

$_ZTSFSt10shared_ptrIKN8facebook5velox4TypeEERKSt6vectorINS1_13TypeParameterESaIS6_EEE = comdat any

$_ZTIFSt10shared_ptrIKN8facebook5velox4TypeEERKSt6vectorINS1_13TypeParameterESaIS6_EEE = comdat any

$_ZTIPFSt10shared_ptrIKN8facebook5velox4TypeEERKSt6vectorINS1_13TypeParameterESaIS6_EEE = comdat any

$_ZTVSt23_Sp_counted_ptr_inplaceIKN8facebook5velox7RowTypeESaIvELN9__gnu_cxx12_Lock_policyE2EE = comdat any

$_ZTSSt23_Sp_counted_ptr_inplaceIKN8facebook5velox7RowTypeESaIvELN9__gnu_cxx12_Lock_policyE2EE = comdat any

$_ZTISt23_Sp_counted_ptr_inplaceIKN8facebook5velox7RowTypeESaIvELN9__gnu_cxx12_Lock_policyE2EE = comdat any

$_ZZN5folly3f146detail8F14TableINS1_19NodeContainerPolicyINSt7__cxx1112basic_stringIcSt11char_traitsIcESaIcEEESt8functionIFSt10shared_ptrIKN8facebook5velox13ISerializableEERKNS_7dynamicEEEvvvEEE10rehashImplEmmmmmE30__folly_detail_safe_assert_arg_0 = comdat any

$_ZZN5folly3f146detail8F14ChunkIPSt4pairIKNSt7__cxx1112basic_stringIcSt11char_traitsIcESaIcEEESt8functionIFSt10shared_ptrIKN8facebook5velox13ISerializableEERKNS_7dynamicEEEEE6setTagEmmE30__folly_detail_safe_assert_arg_0 = comdat any

$_ZZN5folly3f146detail8F14ChunkIPSt4pairIKNSt7__cxx1112basic_stringIcSt11char_traitsIcESaIcEEESt8functionIFSt10shared_ptrIKN8facebook5velox13ISerializableEERKNS_7dynamicEEEEE8clearTagEmE30__folly_detail_safe_assert_arg = comdat any

$_ZTSPFSt10shared_ptrIKN8facebook5velox4TypeEERKN5folly7dynamicEE = comdat any

$_ZTSFSt10shared_ptrIKN8facebook5velox4TypeEERKN5folly7dynamicEE = comdat any

$_ZTIFSt10shared_ptrIKN8facebook5velox4TypeEERKN5folly7dynamicEE = comdat any

$_ZTIPFSt10shared_ptrIKN8facebook5velox4TypeEERKN5folly7dynamicEE = comdat any

$_ZTVSt23_Sp_counted_ptr_inplaceIN8facebook5velox7RowTypeESaIvELN9__gnu_cxx12_Lock_policyE2EE = comdat any

$_ZTSSt23_Sp_counted_ptr_inplaceIN8facebook5velox7RowTypeESaIvELN9__gnu_cxx12_Lock_policyE2EE = comdat any

$_ZTISt23_Sp_counted_ptr_inplaceIN8facebook5velox7RowTypeESaIvELN9__gnu_cxx12_Lock_policyE2EE = comdat any

$_ZTVSt23_Sp_counted_ptr_inplaceIKN8facebook5velox9ArrayTypeESaIvELN9__gnu_cxx12_Lock_policyE2EE = comdat any

$_ZTSSt23_Sp_counted_ptr_inplaceIKN8facebook5velox9ArrayTypeESaIvELN9__gnu_cxx12_Lock_policyE2EE = comdat any

$_ZTISt23_Sp_counted_ptr_inplaceIKN8facebook5velox9ArrayTypeESaIvELN9__gnu_cxx12_Lock_policyE2EE = comdat any

$_ZTVSt23_Sp_counted_ptr_inplaceIKN8facebook5velox7MapTypeESaIvELN9__gnu_cxx12_Lock_policyE2EE = comdat any

$_ZTSSt23_Sp_counted_ptr_inplaceIKN8facebook5velox7MapTypeESaIvELN9__gnu_cxx12_Lock_policyE2EE = comdat any

$_ZTISt23_Sp_counted_ptr_inplaceIKN8facebook5velox7MapTypeESaIvELN9__gnu_cxx12_Lock_policyE2EE = comdat any

$_ZTVSt23_Sp_counted_ptr_inplaceIKN8facebook5velox12FunctionTypeESaIvELN9__gnu_cxx12_Lock_policyE2EE = comdat any

$_ZTSSt23_Sp_counted_ptr_inplaceIKN8facebook5velox12FunctionTypeESaIvELN9__gnu_cxx12_Lock_policyE2EE = comdat any

$_ZTISt23_Sp_counted_ptr_inplaceIKN8facebook5velox12FunctionTypeESaIvELN9__gnu_cxx12_Lock_policyE2EE = comdat any

$_ZZN8facebook5velox10ScalarTypeILNS0_8TypeKindE3EE6createEvE8instance = comdat any

$_ZGVZN8facebook5velox10ScalarTypeILNS0_8TypeKindE3EE6createEvE8instance = comdat any

$_ZTVSt23_Sp_counted_ptr_inplaceIKN8facebook5velox10ScalarTypeILNS1_8TypeKindE3EEESaIvELN9__gnu_cxx12_Lock_policyE2EE = comdat any

$_ZTSSt23_Sp_counted_ptr_inplaceIKN8facebook5velox10ScalarTypeILNS1_8TypeKindE3EEESaIvELN9__gnu_cxx12_Lock_policyE2EE = comdat any

$_ZTISt23_Sp_counted_ptr_inplaceIKN8facebook5velox10ScalarTypeILNS1_8TypeKindE3EEESaIvELN9__gnu_cxx12_Lock_policyE2EE = comdat any

$_ZZN8facebook5velox10ScalarTypeILNS0_8TypeKindE0EE6createEvE8instance = comdat any

$_ZGVZN8facebook5velox10ScalarTypeILNS0_8TypeKindE0EE6createEvE8instance = comdat any

$_ZTVSt23_Sp_counted_ptr_inplaceIKN8facebook5velox10ScalarTypeILNS1_8TypeKindE0EEESaIvELN9__gnu_cxx12_Lock_policyE2EE = comdat any

$_ZTSSt23_Sp_counted_ptr_inplaceIKN8facebook5velox10ScalarTypeILNS1_8TypeKindE0EEESaIvELN9__gnu_cxx12_Lock_policyE2EE = comdat any

$_ZTISt23_Sp_counted_ptr_inplaceIKN8facebook5velox10ScalarTypeILNS1_8TypeKindE0EEESaIvELN9__gnu_cxx12_Lock_policyE2EE = comdat any

$_ZTVN8facebook5velox10ScalarTypeILNS0_8TypeKindE0EEE = comdat any

$_ZTSN8facebook5velox10ScalarTypeILNS0_8TypeKindE0EEE = comdat any

$_ZTSN8facebook5velox8TypeBaseILNS0_8TypeKindE0EEE = comdat any

$_ZTIN8facebook5velox8TypeBaseILNS0_8TypeKindE0EEE = comdat any

$_ZTIN8facebook5velox10ScalarTypeILNS0_8TypeKindE0EEE = comdat any

$_ZZNK8facebook5velox8TypeBaseILNS0_8TypeKindE0EE10parametersEvE6kEmpty = comdat any

$_ZGVZNK8facebook5velox8TypeBaseILNS0_8TypeKindE0EE10parametersEvE6kEmpty = comdat any

$_ZZN8facebook5velox10ScalarTypeILNS0_8TypeKindE1EE6createEvE8instance = comdat any

$_ZGVZN8facebook5velox10ScalarTypeILNS0_8TypeKindE1EE6createEvE8instance = comdat any

$_ZTVSt23_Sp_counted_ptr_inplaceIKN8facebook5velox10ScalarTypeILNS1_8TypeKindE1EEESaIvELN9__gnu_cxx12_Lock_policyE2EE = comdat any

$_ZTSSt23_Sp_counted_ptr_inplaceIKN8facebook5velox10ScalarTypeILNS1_8TypeKindE1EEESaIvELN9__gnu_cxx12_Lock_policyE2EE = comdat any

$_ZTISt23_Sp_counted_ptr_inplaceIKN8facebook5velox10ScalarTypeILNS1_8TypeKindE1EEESaIvELN9__gnu_cxx12_Lock_policyE2EE = comdat any

$_ZTVN8facebook5velox10ScalarTypeILNS0_8TypeKindE1EEE = comdat any

$_ZTSN8facebook5velox10ScalarTypeILNS0_8TypeKindE1EEE = comdat any

$_ZTSN8facebook5velox8TypeBaseILNS0_8TypeKindE1EEE = comdat any

$_ZTIN8facebook5velox8TypeBaseILNS0_8TypeKindE1EEE = comdat any

$_ZTIN8facebook5velox10ScalarTypeILNS0_8TypeKindE1EEE = comdat any

$_ZZNK8facebook5velox8TypeBaseILNS0_8TypeKindE1EE10parametersEvE6kEmpty = comdat any

$_ZGVZNK8facebook5velox8TypeBaseILNS0_8TypeKindE1EE10parametersEvE6kEmpty = comdat any

$_ZZN8facebook5velox10ScalarTypeILNS0_8TypeKindE2EE6createEvE8instance = comdat any

$_ZGVZN8facebook5velox10ScalarTypeILNS0_8TypeKindE2EE6createEvE8instance = comdat any

$_ZTVSt23_Sp_counted_ptr_inplaceIKN8facebook5velox10ScalarTypeILNS1_8TypeKindE2EEESaIvELN9__gnu_cxx12_Lock_policyE2EE = comdat any

$_ZTSSt23_Sp_counted_ptr_inplaceIKN8facebook5velox10ScalarTypeILNS1_8TypeKindE2EEESaIvELN9__gnu_cxx12_Lock_policyE2EE = comdat any

$_ZTISt23_Sp_counted_ptr_inplaceIKN8facebook5velox10ScalarTypeILNS1_8TypeKindE2EEESaIvELN9__gnu_cxx12_Lock_policyE2EE = comdat any

$_ZTVN8facebook5velox10ScalarTypeILNS0_8TypeKindE2EEE = comdat any

$_ZTSN8facebook5velox10ScalarTypeILNS0_8TypeKindE2EEE = comdat any

$_ZTSN8facebook5velox8TypeBaseILNS0_8TypeKindE2EEE = comdat any

$_ZTIN8facebook5velox8TypeBaseILNS0_8TypeKindE2EEE = comdat any

$_ZTIN8facebook5velox10ScalarTypeILNS0_8TypeKindE2EEE = comdat any

$_ZZNK8facebook5velox8TypeBaseILNS0_8TypeKindE2EE10parametersEvE6kEmpty = comdat any

$_ZGVZNK8facebook5velox8TypeBaseILNS0_8TypeKindE2EE10parametersEvE6kEmpty = comdat any

$_ZZN8facebook5velox10ScalarTypeILNS0_8TypeKindE4EE6createEvE8instance = comdat any

$_ZGVZN8facebook5velox10ScalarTypeILNS0_8TypeKindE4EE6createEvE8instance = comdat any

$_ZTVSt23_Sp_counted_ptr_inplaceIKN8facebook5velox10ScalarTypeILNS1_8TypeKindE4EEESaIvELN9__gnu_cxx12_Lock_policyE2EE = comdat any

$_ZTSSt23_Sp_counted_ptr_inplaceIKN8facebook5velox10ScalarTypeILNS1_8TypeKindE4EEESaIvELN9__gnu_cxx12_Lock_policyE2EE = comdat any

$_ZTISt23_Sp_counted_ptr_inplaceIKN8facebook5velox10ScalarTypeILNS1_8TypeKindE4EEESaIvELN9__gnu_cxx12_Lock_policyE2EE = comdat any

$_ZZN8facebook5velox10ScalarTypeILNS0_8TypeKindE10EE6createEvE8instance = comdat any

$_ZGVZN8facebook5velox10ScalarTypeILNS0_8TypeKindE10EE6createEvE8instance = comdat any

$_ZTVSt23_Sp_counted_ptr_inplaceIKN8facebook5velox10ScalarTypeILNS1_8TypeKindE10EEESaIvELN9__gnu_cxx12_Lock_policyE2EE = comdat any

$_ZTSSt23_Sp_counted_ptr_inplaceIKN8facebook5velox10ScalarTypeILNS1_8TypeKindE10EEESaIvELN9__gnu_cxx12_Lock_policyE2EE = comdat any

$_ZTISt23_Sp_counted_ptr_inplaceIKN8facebook5velox10ScalarTypeILNS1_8TypeKindE10EEESaIvELN9__gnu_cxx12_Lock_policyE2EE = comdat any

$_ZTVN8facebook5velox10ScalarTypeILNS0_8TypeKindE10EEE = comdat any

$_ZZNK8facebook5velox8TypeBaseILNS0_8TypeKindE10EE10parametersEvE6kEmpty = comdat any

$_ZGVZNK8facebook5velox8TypeBaseILNS0_8TypeKindE10EE10parametersEvE6kEmpty = comdat any

$_ZZN8facebook5velox10ScalarTypeILNS0_8TypeKindE5EE6createEvE8instance = comdat any

$_ZGVZN8facebook5velox10ScalarTypeILNS0_8TypeKindE5EE6createEvE8instance = comdat any

$_ZTVSt23_Sp_counted_ptr_inplaceIKN8facebook5velox10ScalarTypeILNS1_8TypeKindE5EEESaIvELN9__gnu_cxx12_Lock_policyE2EE = comdat any

$_ZTSSt23_Sp_counted_ptr_inplaceIKN8facebook5velox10ScalarTypeILNS1_8TypeKindE5EEESaIvELN9__gnu_cxx12_Lock_policyE2EE = comdat any

$_ZTISt23_Sp_counted_ptr_inplaceIKN8facebook5velox10ScalarTypeILNS1_8TypeKindE5EEESaIvELN9__gnu_cxx12_Lock_policyE2EE = comdat any

$_ZTVN8facebook5velox10ScalarTypeILNS0_8TypeKindE5EEE = comdat any

$_ZTSN8facebook5velox10ScalarTypeILNS0_8TypeKindE5EEE = comdat any

$_ZTSN8facebook5velox8TypeBaseILNS0_8TypeKindE5EEE = comdat any

$_ZTIN8facebook5velox8TypeBaseILNS0_8TypeKindE5EEE = comdat any

$_ZTIN8facebook5velox10ScalarTypeILNS0_8TypeKindE5EEE = comdat any

$_ZZNK8facebook5velox8TypeBaseILNS0_8TypeKindE5EE10parametersEvE6kEmpty = comdat any

$_ZGVZNK8facebook5velox8TypeBaseILNS0_8TypeKindE5EE10parametersEvE6kEmpty = comdat any

$_ZZN8facebook5velox10ScalarTypeILNS0_8TypeKindE6EE6createEvE8instance = comdat any

$_ZGVZN8facebook5velox10ScalarTypeILNS0_8TypeKindE6EE6createEvE8instance = comdat any

$_ZTVSt23_Sp_counted_ptr_inplaceIKN8facebook5velox10ScalarTypeILNS1_8TypeKindE6EEESaIvELN9__gnu_cxx12_Lock_policyE2EE = comdat any

$_ZTSSt23_Sp_counted_ptr_inplaceIKN8facebook5velox10ScalarTypeILNS1_8TypeKindE6EEESaIvELN9__gnu_cxx12_Lock_policyE2EE = comdat any

$_ZTISt23_Sp_counted_ptr_inplaceIKN8facebook5velox10ScalarTypeILNS1_8TypeKindE6EEESaIvELN9__gnu_cxx12_Lock_policyE2EE = comdat any

$_ZTVN8facebook5velox10ScalarTypeILNS0_8TypeKindE6EEE = comdat any

$_ZTSN8facebook5velox10ScalarTypeILNS0_8TypeKindE6EEE = comdat any

$_ZTSN8facebook5velox8TypeBaseILNS0_8TypeKindE6EEE = comdat any

$_ZTIN8facebook5velox8TypeBaseILNS0_8TypeKindE6EEE = comdat any

$_ZTIN8facebook5velox10ScalarTypeILNS0_8TypeKindE6EEE = comdat any

$_ZZNK8facebook5velox8TypeBaseILNS0_8TypeKindE6EE10parametersEvE6kEmpty = comdat any

$_ZGVZNK8facebook5velox8TypeBaseILNS0_8TypeKindE6EE10parametersEvE6kEmpty = comdat any

$_ZZN8facebook5velox10ScalarTypeILNS0_8TypeKindE9EE6createEvE8instance = comdat any

$_ZGVZN8facebook5velox10ScalarTypeILNS0_8TypeKindE9EE6createEvE8instance = comdat any

$_ZTVSt23_Sp_counted_ptr_inplaceIKN8facebook5velox10ScalarTypeILNS1_8TypeKindE9EEESaIvELN9__gnu_cxx12_Lock_policyE2EE = comdat any

$_ZTSSt23_Sp_counted_ptr_inplaceIKN8facebook5velox10ScalarTypeILNS1_8TypeKindE9EEESaIvELN9__gnu_cxx12_Lock_policyE2EE = comdat any

$_ZTISt23_Sp_counted_ptr_inplaceIKN8facebook5velox10ScalarTypeILNS1_8TypeKindE9EEESaIvELN9__gnu_cxx12_Lock_policyE2EE = comdat any

$_ZTVN8facebook5velox10ScalarTypeILNS0_8TypeKindE9EEE = comdat any

$_ZTSN8facebook5velox10ScalarTypeILNS0_8TypeKindE9EEE = comdat any

$_ZTSN8facebook5velox8TypeBaseILNS0_8TypeKindE9EEE = comdat any

$_ZTIN8facebook5velox8TypeBaseILNS0_8TypeKindE9EEE = comdat any

$_ZTIN8facebook5velox10ScalarTypeILNS0_8TypeKindE9EEE = comdat any

$_ZZNK8facebook5velox8TypeBaseILNS0_8TypeKindE9EE10parametersEvE6kEmpty = comdat any

$_ZGVZNK8facebook5velox8TypeBaseILNS0_8TypeKindE9EE10parametersEvE6kEmpty = comdat any

$_ZZN8facebook5velox10ScalarTypeILNS0_8TypeKindE7EE6createEvE8instance = comdat any

$_ZGVZN8facebook5velox10ScalarTypeILNS0_8TypeKindE7EE6createEvE8instance = comdat any

$_ZTVSt23_Sp_counted_ptr_inplaceIKN8facebook5velox10ScalarTypeILNS1_8TypeKindE7EEESaIvELN9__gnu_cxx12_Lock_policyE2EE = comdat any

$_ZTSSt23_Sp_counted_ptr_inplaceIKN8facebook5velox10ScalarTypeILNS1_8TypeKindE7EEESaIvELN9__gnu_cxx12_Lock_policyE2EE = comdat any

$_ZTISt23_Sp_counted_ptr_inplaceIKN8facebook5velox10ScalarTypeILNS1_8TypeKindE7EEESaIvELN9__gnu_cxx12_Lock_policyE2EE = comdat any

$_ZTVN8facebook5velox10ScalarTypeILNS0_8TypeKindE7EEE = comdat any

$_ZTSN8facebook5velox10ScalarTypeILNS0_8TypeKindE7EEE = comdat any

$_ZTSN8facebook5velox8TypeBaseILNS0_8TypeKindE7EEE = comdat any

$_ZTIN8facebook5velox8TypeBaseILNS0_8TypeKindE7EEE = comdat any

$_ZTIN8facebook5velox10ScalarTypeILNS0_8TypeKindE7EEE = comdat any

$_ZZNK8facebook5velox8TypeBaseILNS0_8TypeKindE7EE10parametersEvE6kEmpty = comdat any

$_ZGVZNK8facebook5velox8TypeBaseILNS0_8TypeKindE7EE10parametersEvE6kEmpty = comdat any

$_ZZN8facebook5velox10ScalarTypeILNS0_8TypeKindE8EE6createEvE8instance = comdat any

$_ZGVZN8facebook5velox10ScalarTypeILNS0_8TypeKindE8EE6createEvE8instance = comdat any

$_ZTVSt23_Sp_counted_ptr_inplaceIKN8facebook5velox10ScalarTypeILNS1_8TypeKindE8EEESaIvELN9__gnu_cxx12_Lock_policyE2EE = comdat any

$_ZTSSt23_Sp_counted_ptr_inplaceIKN8facebook5velox10ScalarTypeILNS1_8TypeKindE8EEESaIvELN9__gnu_cxx12_Lock_policyE2EE = comdat any

$_ZTISt23_Sp_counted_ptr_inplaceIKN8facebook5velox10ScalarTypeILNS1_8TypeKindE8EEESaIvELN9__gnu_cxx12_Lock_policyE2EE = comdat any

$_ZTVN8facebook5velox10ScalarTypeILNS0_8TypeKindE8EEE = comdat any

$_ZTSN8facebook5velox10ScalarTypeILNS0_8TypeKindE8EEE = comdat any

$_ZTSN8facebook5velox8TypeBaseILNS0_8TypeKindE8EEE = comdat any

$_ZTIN8facebook5velox8TypeBaseILNS0_8TypeKindE8EEE = comdat any

$_ZTIN8facebook5velox10ScalarTypeILNS0_8TypeKindE8EEE = comdat any

$_ZZNK8facebook5velox8TypeBaseILNS0_8TypeKindE8EE10parametersEvE6kEmpty = comdat any

$_ZGVZNK8facebook5velox8TypeBaseILNS0_8TypeKindE8EE10parametersEvE6kEmpty = comdat any

$_ZTVSt23_Sp_counted_ptr_inplaceIN8facebook5velox16ShortDecimalTypeESaIvELN9__gnu_cxx12_Lock_policyE2EE = comdat any

$_ZTSSt23_Sp_counted_ptr_inplaceIN8facebook5velox16ShortDecimalTypeESaIvELN9__gnu_cxx12_Lock_policyE2EE = comdat any

$_ZTISt23_Sp_counted_ptr_inplaceIN8facebook5velox16ShortDecimalTypeESaIvELN9__gnu_cxx12_Lock_policyE2EE = comdat any

$_ZTVN8facebook5velox16ShortDecimalTypeE = comdat any

$_ZTVN8facebook5velox11DecimalTypeILNS0_8TypeKindE4EEE = comdat any

$_ZTVSt23_Sp_counted_ptr_inplaceIN8facebook5velox15LongDecimalTypeESaIvELN9__gnu_cxx12_Lock_policyE2EE = comdat any

$_ZTSSt23_Sp_counted_ptr_inplaceIN8facebook5velox15LongDecimalTypeESaIvELN9__gnu_cxx12_Lock_policyE2EE = comdat any

$_ZTISt23_Sp_counted_ptr_inplaceIN8facebook5velox15LongDecimalTypeESaIvELN9__gnu_cxx12_Lock_policyE2EE = comdat any

$_ZTVN8facebook5velox15LongDecimalTypeE = comdat any

$_ZTVN8facebook5velox11DecimalTypeILNS0_8TypeKindE10EEE = comdat any

$_ZTVSt23_Sp_counted_ptr_inplaceIN8facebook5velox12FunctionTypeESaIvELN9__gnu_cxx12_Lock_policyE2EE = comdat any

$_ZTSSt23_Sp_counted_ptr_inplaceIN8facebook5velox12FunctionTypeESaIvELN9__gnu_cxx12_Lock_policyE2EE = comdat any

$_ZTISt23_Sp_counted_ptr_inplaceIN8facebook5velox12FunctionTypeESaIvELN9__gnu_cxx12_Lock_policyE2EE = comdat any

$_ZZNK8facebook5velox8TypeBaseILNS0_8TypeKindE35EE10parametersEvE6kEmpty = comdat any

$_ZGVZNK8facebook5velox8TypeBaseILNS0_8TypeKindE35EE10parametersEvE6kEmpty = comdat any

@_ZZN8facebook5velox16getTypeStringMapB5cxx11EvE14kTypeStringMapB5cxx11 = internal global %"class.std::unordered_map" zeroinitializer, align 8
@_ZGVZN8facebook5velox16getTypeStringMapB5cxx11EvE14kTypeStringMapB5cxx11 = internal global i64 0, align 8
@.str = private unnamed_addr constant [8 x i8] c"BOOLEAN\00", align 1
@.str.1 = private unnamed_addr constant [8 x i8] c"TINYINT\00", align 1
@.str.2 = private unnamed_addr constant [9 x i8] c"SMALLINT\00", align 1
@.str.3 = private unnamed_addr constant [8 x i8] c"INTEGER\00", align 1
@.str.4 = private unnamed_addr constant [7 x i8] c"BIGINT\00", align 1
@.str.5 = private unnamed_addr constant [8 x i8] c"HUGEINT\00", align 1
@.str.6 = private unnamed_addr constant [5 x i8] c"REAL\00", align 1
@.str.7 = private unnamed_addr constant [7 x i8] c"DOUBLE\00", align 1
@.str.8 = private unnamed_addr constant [8 x i8] c"VARCHAR\00", align 1
@.str.9 = private unnamed_addr constant [10 x i8] c"VARBINARY\00", align 1
@.str.10 = private unnamed_addr constant [10 x i8] c"TIMESTAMP\00", align 1
@.str.11 = private unnamed_addr constant [6 x i8] c"ARRAY\00", align 1
@.str.12 = private unnamed_addr constant [4 x i8] c"MAP\00", align 1
@.str.13 = private unnamed_addr constant [4 x i8] c"ROW\00", align 1
@.str.14 = private unnamed_addr constant [9 x i8] c"FUNCTION\00", align 1
@.str.15 = private unnamed_addr constant [8 x i8] c"UNKNOWN\00", align 1
@.str.16 = private unnamed_addr constant [7 x i8] c"OPAQUE\00", align 1
@.str.17 = private unnamed_addr constant [8 x i8] c"INVALID\00", align 1
@__dso_handle = external hidden global i8
@_ZZN8facebook5velox17mapTypeKindToNameB5cxx11ERKNS0_8TypeKindEE11typeEnumMapB5cxx11 = internal global %"class.std::unordered_map.8" zeroinitializer, align 8
@_ZGVZN8facebook5velox17mapTypeKindToNameB5cxx11ERKNS0_8TypeKindEE11typeEnumMapB5cxx11 = internal global i64 0, align 8
@.str.18 = private unnamed_addr constant [7 x i8] c"cTypes\00", align 1
@.str.19 = private unnamed_addr constant [5 x i8] c"type\00", align 1
@.str.20 = private unnamed_addr constant [10 x i8] c"precision\00", align 1
@.str.21 = private unnamed_addr constant [6 x i8] c"scale\00", align 1
@.str.22 = private unnamed_addr constant [6 x i8] c"names\00", align 1
@.str.23 = private unnamed_addr constant [7 x i8] c"opaque\00", align 1
@.str.24 = private unnamed_addr constant [20 x i8] c"IntervalDayTimeType\00", align 1
@.str.25 = private unnamed_addr constant [22 x i8] c"IntervalYearMonthType\00", align 1
@.str.26 = private unnamed_addr constant [9 x i8] c"DateType\00", align 1
@.str.27 = private unnamed_addr constant [7 x i8] c"ARRAY<\00", align 1
@.str.28 = private unnamed_addr constant [2 x i8] c">\00", align 1
@_ZTVN8facebook5velox9ArrayTypeE = unnamed_addr constant { [18 x ptr], [5 x ptr] } { [18 x ptr] [ptr null, ptr @_ZTIN8facebook5velox9ArrayTypeE, ptr @_ZN8facebook5velox9ArrayTypeD2Ev, ptr @_ZN8facebook5velox9ArrayTypeD0Ev, ptr @_ZNK8facebook5velox9ArrayType4sizeEv, ptr @_ZNK8facebook5velox9ArrayType7childAtEj, ptr @_ZNK8facebook5velox8TypeBaseILNS0_8TypeKindE30EE15isPrimitiveTypeEv, ptr @_ZNK8facebook5velox9ArrayType12isComparableEv, ptr @_ZNK8facebook5velox9ArrayType11isOrderableEv, ptr @_ZNK8facebook5velox8TypeBaseILNS0_8TypeKindE30EE4nameEv, ptr @_ZNK8facebook5velox9ArrayType10parametersEv, ptr @_ZNK8facebook5velox8TypeBaseILNS0_8TypeKindE30EE8kindNameEv, ptr @_ZNK8facebook5velox9ArrayType8toStringB5cxx11Ev, ptr @_ZNK8facebook5velox9ArrayType10equivalentERKNS0_4TypeE, ptr @_ZNK8facebook5velox4TypeeqERKS1_, ptr @_ZNK8facebook5velox4Type14cppSizeInBytesEv, ptr @_ZNK8facebook5velox8TypeBaseILNS0_8TypeKindE30EE12isFixedWidthEv, ptr @_ZNK8facebook5velox9ArrayType9serializeEv], [5 x ptr] [ptr inttoptr (i64 -8 to ptr), ptr @_ZTIN8facebook5velox9ArrayTypeE, ptr @_ZThn8_NK8facebook5velox9ArrayType9serializeEv, ptr @_ZThn8_N8facebook5velox9ArrayTypeD1Ev, ptr @_ZThn8_N8facebook5velox9ArrayTypeD0Ev] }, align 8
@.str.29 = private unnamed_addr constant [5 x i8] c"Type\00", align 1
@.str.30 = private unnamed_addr constant [5 x i8] c"name\00", align 1
@.str.31 = private unnamed_addr constant [4 x i8] c"key\00", align 1
@.str.32 = private unnamed_addr constant [6 x i8] c"value\00", align 1
@_ZTVN8facebook5velox7MapTypeE = unnamed_addr constant { [18 x ptr], [5 x ptr] } { [18 x ptr] [ptr null, ptr @_ZTIN8facebook5velox7MapTypeE, ptr @_ZN8facebook5velox7MapTypeD2Ev, ptr @_ZN8facebook5velox7MapTypeD0Ev, ptr @_ZNK8facebook5velox7MapType4sizeEv, ptr @_ZNK8facebook5velox7MapType7childAtEj, ptr @_ZNK8facebook5velox8TypeBaseILNS0_8TypeKindE31EE15isPrimitiveTypeEv, ptr @_ZNK8facebook5velox7MapType12isComparableEv, ptr @_ZNK8facebook5velox8TypeBaseILNS0_8TypeKindE31EE11isOrderableEv, ptr @_ZNK8facebook5velox8TypeBaseILNS0_8TypeKindE31EE4nameEv, ptr @_ZNK8facebook5velox7MapType10parametersEv, ptr @_ZNK8facebook5velox8TypeBaseILNS0_8TypeKindE31EE8kindNameEv, ptr @_ZNK8facebook5velox7MapType8toStringB5cxx11Ev, ptr @_ZNK8facebook5velox7MapType10equivalentERKNS0_4TypeE, ptr @_ZNK8facebook5velox4TypeeqERKS1_, ptr @_ZNK8facebook5velox4Type14cppSizeInBytesEv, ptr @_ZNK8facebook5velox8TypeBaseILNS0_8TypeKindE31EE12isFixedWidthEv, ptr @_ZNK8facebook5velox7MapType9serializeEv], [5 x ptr] [ptr inttoptr (i64 -8 to ptr), ptr @_ZTIN8facebook5velox7MapTypeE, ptr @_ZThn8_NK8facebook5velox7MapType9serializeEv, ptr @_ZThn8_N8facebook5velox7MapTypeD1Ev, ptr @_ZThn8_N8facebook5velox7MapTypeD0Ev] }, align 8
@.str.33 = private unnamed_addr constant [5 x i8] c"MAP<\00", align 1
@.str.34 = private unnamed_addr constant [2 x i8] c",\00", align 1
@_ZTVN8facebook5velox7RowTypeE = unnamed_addr constant { [18 x ptr], [5 x ptr] } { [18 x ptr] [ptr null, ptr @_ZTIN8facebook5velox7RowTypeE, ptr @_ZN8facebook5velox7RowTypeD2Ev, ptr @_ZN8facebook5velox7RowTypeD0Ev, ptr @_ZNK8facebook5velox7RowType4sizeEv, ptr @_ZNK8facebook5velox7RowType7childAtEj, ptr @_ZNK8facebook5velox8TypeBaseILNS0_8TypeKindE32EE15isPrimitiveTypeEv, ptr @_ZNK8facebook5velox7RowType12isComparableEv, ptr @_ZNK8facebook5velox7RowType11isOrderableEv, ptr @_ZNK8facebook5velox8TypeBaseILNS0_8TypeKindE32EE4nameEv, ptr @_ZNK8facebook5velox7RowType10parametersEv, ptr @_ZNK8facebook5velox8TypeBaseILNS0_8TypeKindE32EE8kindNameEv, ptr @_ZNK8facebook5velox7RowType8toStringB5cxx11Ev, ptr @_ZNK8facebook5velox7RowType10equivalentERKNS0_4TypeE, ptr @_ZNK8facebook5velox7RowTypeeqERKNS0_4TypeE, ptr @_ZNK8facebook5velox4Type14cppSizeInBytesEv, ptr @_ZNK8facebook5velox8TypeBaseILNS0_8TypeKindE32EE12isFixedWidthEv, ptr @_ZNK8facebook5velox7RowType9serializeEv], [5 x ptr] [ptr inttoptr (i64 -8 to ptr), ptr @_ZTIN8facebook5velox7RowTypeE, ptr @_ZThn8_NK8facebook5velox7RowType9serializeEv, ptr @_ZThn8_N8facebook5velox7RowTypeD1Ev, ptr @_ZThn8_N8facebook5velox7RowTypeD0Ev] }, align 8
@.str.35 = private unnamed_addr constant [2 x i8] c"<\00", align 1
@_ZTVN8facebook5velox12FunctionTypeE = unnamed_addr constant { [18 x ptr], [5 x ptr] } { [18 x ptr] [ptr null, ptr @_ZTIN8facebook5velox12FunctionTypeE, ptr @_ZN8facebook5velox12FunctionTypeD2Ev, ptr @_ZN8facebook5velox12FunctionTypeD0Ev, ptr @_ZNK8facebook5velox12FunctionType4sizeEv, ptr @_ZNK8facebook5velox12FunctionType7childAtEj, ptr @_ZNK8facebook5velox8TypeBaseILNS0_8TypeKindE34EE15isPrimitiveTypeEv, ptr @_ZNK8facebook5velox12FunctionType12isComparableEv, ptr @_ZNK8facebook5velox12FunctionType11isOrderableEv, ptr @_ZNK8facebook5velox8TypeBaseILNS0_8TypeKindE34EE4nameEv, ptr @_ZNK8facebook5velox12FunctionType10parametersEv, ptr @_ZNK8facebook5velox8TypeBaseILNS0_8TypeKindE34EE8kindNameEv, ptr @_ZNK8facebook5velox12FunctionType8toStringB5cxx11Ev, ptr @_ZNK8facebook5velox12FunctionType10equivalentERKNS0_4TypeE, ptr @_ZNK8facebook5velox4TypeeqERKS1_, ptr @_ZNK8facebook5velox4Type14cppSizeInBytesEv, ptr @_ZNK8facebook5velox8TypeBaseILNS0_8TypeKindE34EE12isFixedWidthEv, ptr @_ZNK8facebook5velox12FunctionType9serializeEv], [5 x ptr] [ptr inttoptr (i64 -8 to ptr), ptr @_ZTIN8facebook5velox12FunctionTypeE, ptr @_ZThn8_NK8facebook5velox12FunctionType9serializeEv, ptr @_ZThn8_N8facebook5velox12FunctionTypeD1Ev, ptr @_ZThn8_N8facebook5velox12FunctionTypeD0Ev] }, align 8
@.str.36 = private unnamed_addr constant [10 x i8] c"FUNCTION<\00", align 1
@.str.37 = private unnamed_addr constant [1 x i8] zeroinitializer, align 1
@.str.38 = private unnamed_addr constant [3 x i8] c", \00", align 1
@_ZTVN8facebook5velox10OpaqueTypeE = unnamed_addr constant { [19 x ptr], [5 x ptr] } { [19 x ptr] [ptr null, ptr @_ZTIN8facebook5velox10OpaqueTypeE, ptr @_ZN8facebook5velox10OpaqueTypeD2Ev, ptr @_ZN8facebook5velox10OpaqueTypeD0Ev, ptr @_ZNK8facebook5velox10OpaqueType4sizeEv, ptr @_ZNK8facebook5velox10OpaqueType7childAtEj, ptr @_ZNK8facebook5velox8TypeBaseILNS0_8TypeKindE35EE15isPrimitiveTypeEv, ptr @_ZNK8facebook5velox8TypeBaseILNS0_8TypeKindE35EE12isComparableEv, ptr @_ZNK8facebook5velox8TypeBaseILNS0_8TypeKindE35EE11isOrderableEv, ptr @_ZNK8facebook5velox8TypeBaseILNS0_8TypeKindE35EE4nameEv, ptr @_ZNK8facebook5velox8TypeBaseILNS0_8TypeKindE35EE10parametersEv, ptr @_ZNK8facebook5velox8TypeBaseILNS0_8TypeKindE35EE8kindNameEv, ptr @_ZNK8facebook5velox10OpaqueType8toStringB5cxx11Ev, ptr @_ZNK8facebook5velox10OpaqueType10equivalentERKNS0_4TypeE, ptr @_ZNK8facebook5velox10OpaqueTypeeqERKNS0_4TypeE, ptr @_ZNK8facebook5velox4Type14cppSizeInBytesEv, ptr @_ZNK8facebook5velox8TypeBaseILNS0_8TypeKindE35EE12isFixedWidthEv, ptr @_ZNK8facebook5velox10OpaqueType9serializeEv, ptr @_ZNK8facebook5velox10OpaqueType16deserializeExtraERKN5folly7dynamicE], [5 x ptr] [ptr inttoptr (i64 -8 to ptr), ptr @_ZTIN8facebook5velox10OpaqueTypeE, ptr @_ZThn8_NK8facebook5velox10OpaqueType9serializeEv, ptr @_ZThn8_N8facebook5velox10OpaqueTypeD1Ev, ptr @_ZThn8_N8facebook5velox10OpaqueTypeD0Ev] }, align 8
@.str.39 = private unnamed_addr constant [8 x i8] c"OPAQUE<\00", align 1
@.str.40 = private unnamed_addr constant [3 x i8] c"[]\00", align 1
@.str.41 = private unnamed_addr constant [5 x i8] c"map(\00", align 1
@.str.42 = private unnamed_addr constant [2 x i8] c")\00", align 1
@.str.43 = private unnamed_addr constant [8 x i8] c"struct(\00", align 1
@.str.44 = private unnamed_addr constant [2 x i8] c" \00", align 1
@.str.45 = private unnamed_addr constant [23 x i8] c"%d %02d:%02d:%02d.%03d\00", align 1
@.str.46 = private unnamed_addr constant [2 x i8] c"-\00", align 1
@.str.47 = private unnamed_addr constant [8 x i8] c"{}{}-{}\00", align 1
@_ZTVN10__cxxabiv120__si_class_type_infoE = external global [0 x ptr]
@_ZTSN8facebook5velox9ArrayTypeE = constant [28 x i8] c"N8facebook5velox9ArrayTypeE\00", align 1
@_ZTSN8facebook5velox8TypeBaseILNS0_8TypeKindE30EEE = linkonce_odr constant [47 x i8] c"N8facebook5velox8TypeBaseILNS0_8TypeKindE30EEE\00", comdat, align 1
@_ZTVN10__cxxabiv121__vmi_class_type_infoE = external global [0 x ptr]
@_ZTSN8facebook5velox4TypeE = linkonce_odr constant [23 x i8] c"N8facebook5velox4TypeE\00", comdat, align 1
@_ZTVN10__cxxabiv117__class_type_infoE = external global [0 x ptr]
@_ZTSN8facebook5velox4TreeIKSt10shared_ptrIKNS0_4TypeEEEE = linkonce_odr constant [53 x i8] c"N8facebook5velox4TreeIKSt10shared_ptrIKNS0_4TypeEEEE\00", comdat, align 1
@_ZTIN8facebook5velox4TreeIKSt10shared_ptrIKNS0_4TypeEEEE = linkonce_odr constant { ptr, ptr } { ptr getelementptr inbounds (ptr, ptr @_ZTVN10__cxxabiv117__class_type_infoE, i64 2), ptr @_ZTSN8facebook5velox4TreeIKSt10shared_ptrIKNS0_4TypeEEEE }, comdat, align 8
@_ZTSN8facebook5velox13ISerializableE = linkonce_odr constant [33 x i8] c"N8facebook5velox13ISerializableE\00", comdat, align 1
@_ZTIN8facebook5velox13ISerializableE = linkonce_odr constant { ptr, ptr } { ptr getelementptr inbounds (ptr, ptr @_ZTVN10__cxxabiv117__class_type_infoE, i64 2), ptr @_ZTSN8facebook5velox13ISerializableE }, comdat, align 8
@_ZTIN8facebook5velox4TypeE = linkonce_odr constant { ptr, ptr, i32, i32, ptr, i64, ptr, i64 } { ptr getelementptr inbounds (ptr, ptr @_ZTVN10__cxxabiv121__vmi_class_type_infoE, i64 2), ptr @_ZTSN8facebook5velox4TypeE, i32 0, i32 2, ptr @_ZTIN8facebook5velox4TreeIKSt10shared_ptrIKNS0_4TypeEEEE, i64 2, ptr @_ZTIN8facebook5velox13ISerializableE, i64 2050 }, comdat, align 8
@_ZTIN8facebook5velox8TypeBaseILNS0_8TypeKindE30EEE = linkonce_odr constant { ptr, ptr, ptr } { ptr getelementptr inbounds (ptr, ptr @_ZTVN10__cxxabiv120__si_class_type_infoE, i64 2), ptr @_ZTSN8facebook5velox8TypeBaseILNS0_8TypeKindE30EEE, ptr @_ZTIN8facebook5velox4TypeE }, comdat, align 8
@_ZTIN8facebook5velox9ArrayTypeE = constant { ptr, ptr, ptr } { ptr getelementptr inbounds (ptr, ptr @_ZTVN10__cxxabiv120__si_class_type_infoE, i64 2), ptr @_ZTSN8facebook5velox9ArrayTypeE, ptr @_ZTIN8facebook5velox8TypeBaseILNS0_8TypeKindE30EEE }, align 8
@_ZTSN8facebook5velox7MapTypeE = constant [26 x i8] c"N8facebook5velox7MapTypeE\00", align 1
@_ZTSN8facebook5velox8TypeBaseILNS0_8TypeKindE31EEE = linkonce_odr constant [47 x i8] c"N8facebook5velox8TypeBaseILNS0_8TypeKindE31EEE\00", comdat, align 1
@_ZTIN8facebook5velox8TypeBaseILNS0_8TypeKindE31EEE = linkonce_odr constant { ptr, ptr, ptr } { ptr getelementptr inbounds (ptr, ptr @_ZTVN10__cxxabiv120__si_class_type_infoE, i64 2), ptr @_ZTSN8facebook5velox8TypeBaseILNS0_8TypeKindE31EEE, ptr @_ZTIN8facebook5velox4TypeE }, comdat, align 8
@_ZTIN8facebook5velox7MapTypeE = constant { ptr, ptr, ptr } { ptr getelementptr inbounds (ptr, ptr @_ZTVN10__cxxabiv120__si_class_type_infoE, i64 2), ptr @_ZTSN8facebook5velox7MapTypeE, ptr @_ZTIN8facebook5velox8TypeBaseILNS0_8TypeKindE31EEE }, align 8
@_ZTSN8facebook5velox7RowTypeE = constant [26 x i8] c"N8facebook5velox7RowTypeE\00", align 1
@_ZTSN8facebook5velox8TypeBaseILNS0_8TypeKindE32EEE = linkonce_odr constant [47 x i8] c"N8facebook5velox8TypeBaseILNS0_8TypeKindE32EEE\00", comdat, align 1
@_ZTIN8facebook5velox8TypeBaseILNS0_8TypeKindE32EEE = linkonce_odr constant { ptr, ptr, ptr } { ptr getelementptr inbounds (ptr, ptr @_ZTVN10__cxxabiv120__si_class_type_infoE, i64 2), ptr @_ZTSN8facebook5velox8TypeBaseILNS0_8TypeKindE32EEE, ptr @_ZTIN8facebook5velox4TypeE }, comdat, align 8
@_ZTIN8facebook5velox7RowTypeE = constant { ptr, ptr, ptr } { ptr getelementptr inbounds (ptr, ptr @_ZTVN10__cxxabiv120__si_class_type_infoE, i64 2), ptr @_ZTSN8facebook5velox7RowTypeE, ptr @_ZTIN8facebook5velox8TypeBaseILNS0_8TypeKindE32EEE }, align 8
@_ZTSN8facebook5velox12FunctionTypeE = constant [32 x i8] c"N8facebook5velox12FunctionTypeE\00", align 1
@_ZTSN8facebook5velox8TypeBaseILNS0_8TypeKindE34EEE = linkonce_odr constant [47 x i8] c"N8facebook5velox8TypeBaseILNS0_8TypeKindE34EEE\00", comdat, align 1
@_ZTIN8facebook5velox8TypeBaseILNS0_8TypeKindE34EEE = linkonce_odr constant { ptr, ptr, ptr } { ptr getelementptr inbounds (ptr, ptr @_ZTVN10__cxxabiv120__si_class_type_infoE, i64 2), ptr @_ZTSN8facebook5velox8TypeBaseILNS0_8TypeKindE34EEE, ptr @_ZTIN8facebook5velox4TypeE }, comdat, align 8
@_ZTIN8facebook5velox12FunctionTypeE = constant { ptr, ptr, ptr } { ptr getelementptr inbounds (ptr, ptr @_ZTVN10__cxxabiv120__si_class_type_infoE, i64 2), ptr @_ZTSN8facebook5velox12FunctionTypeE, ptr @_ZTIN8facebook5velox8TypeBaseILNS0_8TypeKindE34EEE }, align 8
@_ZTSN8facebook5velox10OpaqueTypeE = constant [30 x i8] c"N8facebook5velox10OpaqueTypeE\00", align 1
@_ZTSN8facebook5velox8TypeBaseILNS0_8TypeKindE35EEE = linkonce_odr constant [47 x i8] c"N8facebook5velox8TypeBaseILNS0_8TypeKindE35EEE\00", comdat, align 1
@_ZTIN8facebook5velox8TypeBaseILNS0_8TypeKindE35EEE = linkonce_odr constant { ptr, ptr, ptr } { ptr getelementptr inbounds (ptr, ptr @_ZTVN10__cxxabiv120__si_class_type_infoE, i64 2), ptr @_ZTSN8facebook5velox8TypeBaseILNS0_8TypeKindE35EEE, ptr @_ZTIN8facebook5velox4TypeE }, comdat, align 8
@_ZTIN8facebook5velox10OpaqueTypeE = constant { ptr, ptr, ptr } { ptr getelementptr inbounds (ptr, ptr @_ZTVN10__cxxabiv120__si_class_type_infoE, i64 2), ptr @_ZTSN8facebook5velox10OpaqueTypeE, ptr @_ZTIN8facebook5velox8TypeBaseILNS0_8TypeKindE35EEE }, align 8
@_ZTSN8facebook5velox16ShortDecimalTypeE = linkonce_odr constant [36 x i8] c"N8facebook5velox16ShortDecimalTypeE\00", comdat, align 1
@_ZTSN8facebook5velox11DecimalTypeILNS0_8TypeKindE4EEE = linkonce_odr constant [50 x i8] c"N8facebook5velox11DecimalTypeILNS0_8TypeKindE4EEE\00", comdat, align 1
@_ZTSN8facebook5velox10ScalarTypeILNS0_8TypeKindE4EEE = linkonce_odr constant [49 x i8] c"N8facebook5velox10ScalarTypeILNS0_8TypeKindE4EEE\00", comdat, align 1
@_ZTSN8facebook5velox8TypeBaseILNS0_8TypeKindE4EEE = linkonce_odr constant [46 x i8] c"N8facebook5velox8TypeBaseILNS0_8TypeKindE4EEE\00", comdat, align 1
@_ZTIN8facebook5velox8TypeBaseILNS0_8TypeKindE4EEE = linkonce_odr constant { ptr, ptr, ptr } { ptr getelementptr inbounds (ptr, ptr @_ZTVN10__cxxabiv120__si_class_type_infoE, i64 2), ptr @_ZTSN8facebook5velox8TypeBaseILNS0_8TypeKindE4EEE, ptr @_ZTIN8facebook5velox4TypeE }, comdat, align 8
@_ZTIN8facebook5velox10ScalarTypeILNS0_8TypeKindE4EEE = linkonce_odr constant { ptr, ptr, ptr } { ptr getelementptr inbounds (ptr, ptr @_ZTVN10__cxxabiv120__si_class_type_infoE, i64 2), ptr @_ZTSN8facebook5velox10ScalarTypeILNS0_8TypeKindE4EEE, ptr @_ZTIN8facebook5velox8TypeBaseILNS0_8TypeKindE4EEE }, comdat, align 8
@_ZTIN8facebook5velox11DecimalTypeILNS0_8TypeKindE4EEE = linkonce_odr constant { ptr, ptr, ptr } { ptr getelementptr inbounds (ptr, ptr @_ZTVN10__cxxabiv120__si_class_type_infoE, i64 2), ptr @_ZTSN8facebook5velox11DecimalTypeILNS0_8TypeKindE4EEE, ptr @_ZTIN8facebook5velox10ScalarTypeILNS0_8TypeKindE4EEE }, comdat, align 8
@_ZTIN8facebook5velox16ShortDecimalTypeE = linkonce_odr constant { ptr, ptr, ptr } { ptr getelementptr inbounds (ptr, ptr @_ZTVN10__cxxabiv120__si_class_type_infoE, i64 2), ptr @_ZTSN8facebook5velox16ShortDecimalTypeE, ptr @_ZTIN8facebook5velox11DecimalTypeILNS0_8TypeKindE4EEE }, comdat, align 8
@_ZTSN8facebook5velox15LongDecimalTypeE = linkonce_odr constant [35 x i8] c"N8facebook5velox15LongDecimalTypeE\00", comdat, align 1
@_ZTSN8facebook5velox11DecimalTypeILNS0_8TypeKindE10EEE = linkonce_odr constant [51 x i8] c"N8facebook5velox11DecimalTypeILNS0_8TypeKindE10EEE\00", comdat, align 1
@_ZTSN8facebook5velox10ScalarTypeILNS0_8TypeKindE10EEE = linkonce_odr constant [50 x i8] c"N8facebook5velox10ScalarTypeILNS0_8TypeKindE10EEE\00", comdat, align 1
@_ZTSN8facebook5velox8TypeBaseILNS0_8TypeKindE10EEE = linkonce_odr constant [47 x i8] c"N8facebook5velox8TypeBaseILNS0_8TypeKindE10EEE\00", comdat, align 1
@_ZTIN8facebook5velox8TypeBaseILNS0_8TypeKindE10EEE = linkonce_odr constant { ptr, ptr, ptr } { ptr getelementptr inbounds (ptr, ptr @_ZTVN10__cxxabiv120__si_class_type_infoE, i64 2), ptr @_ZTSN8facebook5velox8TypeBaseILNS0_8TypeKindE10EEE, ptr @_ZTIN8facebook5velox4TypeE }, comdat, align 8
@_ZTIN8facebook5velox10ScalarTypeILNS0_8TypeKindE10EEE = linkonce_odr constant { ptr, ptr, ptr } { ptr getelementptr inbounds (ptr, ptr @_ZTVN10__cxxabiv120__si_class_type_infoE, i64 2), ptr @_ZTSN8facebook5velox10ScalarTypeILNS0_8TypeKindE10EEE, ptr @_ZTIN8facebook5velox8TypeBaseILNS0_8TypeKindE10EEE }, comdat, align 8
@_ZTIN8facebook5velox11DecimalTypeILNS0_8TypeKindE10EEE = linkonce_odr constant { ptr, ptr, ptr } { ptr getelementptr inbounds (ptr, ptr @_ZTVN10__cxxabiv120__si_class_type_infoE, i64 2), ptr @_ZTSN8facebook5velox11DecimalTypeILNS0_8TypeKindE10EEE, ptr @_ZTIN8facebook5velox10ScalarTypeILNS0_8TypeKindE10EEE }, comdat, align 8
@_ZTIN8facebook5velox15LongDecimalTypeE = linkonce_odr constant { ptr, ptr, ptr } { ptr getelementptr inbounds (ptr, ptr @_ZTVN10__cxxabiv120__si_class_type_infoE, i64 2), ptr @_ZTSN8facebook5velox15LongDecimalTypeE, ptr @_ZTIN8facebook5velox11DecimalTypeILNS0_8TypeKindE10EEE }, comdat, align 8
@_ZN5folly7dynamic8TypeInfoINS0_10ObjectImplEE4nameE = external local_unnamed_addr constant ptr, align 8
@_ZTSN5folly9TypeErrorE = linkonce_odr constant [19 x i8] c"N5folly9TypeErrorE\00", comdat, align 1
@_ZTISt13runtime_error = external constant ptr
@_ZTIN5folly9TypeErrorE = linkonce_odr constant { ptr, ptr, ptr } { ptr getelementptr inbounds (ptr, ptr @_ZTVN10__cxxabiv120__si_class_type_infoE, i64 2), ptr @_ZTSN5folly9TypeErrorE, ptr @_ZTISt13runtime_error }, comdat, align 8
@_ZTVN5folly9TypeErrorE = linkonce_odr unnamed_addr constant { [5 x ptr] } { [5 x ptr] [ptr null, ptr @_ZTIN5folly9TypeErrorE, ptr @_ZN5folly9TypeErrorD2Ev, ptr @_ZN5folly9TypeErrorD0Ev, ptr @_ZNKSt13runtime_error4whatEv] }, comdat, align 8
@.str.48 = private unnamed_addr constant [26 x i8] c"vector::_M_realloc_insert\00", align 1
@__libc_single_threaded = external local_unnamed_addr global i8, align 1
@_ZTVSt19_Sp_counted_deleterIPN8facebook5velox13ISerializableESt14default_deleteIS2_ESaIvELN9__gnu_cxx12_Lock_policyE2EE = linkonce_odr unnamed_addr constant { [7 x ptr] } { [7 x ptr] [ptr null, ptr @_ZTISt19_Sp_counted_deleterIPN8facebook5velox13ISerializableESt14default_deleteIS2_ESaIvELN9__gnu_cxx12_Lock_policyE2EE, ptr @_ZNSt19_Sp_counted_deleterIPN8facebook5velox13ISerializableESt14default_deleteIS2_ESaIvELN9__gnu_cxx12_Lock_policyE2EED2Ev, ptr @_ZNSt19_Sp_counted_deleterIPN8facebook5velox13ISerializableESt14default_deleteIS2_ESaIvELN9__gnu_cxx12_Lock_policyE2EED0Ev, ptr @_ZNSt19_Sp_counted_deleterIPN8facebook5velox13ISerializableESt14default_deleteIS2_ESaIvELN9__gnu_cxx12_Lock_policyE2EE10_M_disposeEv, ptr @_ZNSt19_Sp_counted_deleterIPN8facebook5velox13ISerializableESt14default_deleteIS2_ESaIvELN9__gnu_cxx12_Lock_policyE2EE10_M_destroyEv, ptr @_ZNSt19_Sp_counted_deleterIPN8facebook5velox13ISerializableESt14default_deleteIS2_ESaIvELN9__gnu_cxx12_Lock_policyE2EE14_M_get_deleterERKSt9type_info] }, comdat, align 8
@_ZTSSt19_Sp_counted_deleterIPN8facebook5velox13ISerializableESt14default_deleteIS2_ESaIvELN9__gnu_cxx12_Lock_policyE2EE = linkonce_odr constant [116 x i8] c"St19_Sp_counted_deleterIPN8facebook5velox13ISerializableESt14default_deleteIS2_ESaIvELN9__gnu_cxx12_Lock_policyE2EE\00", comdat, align 1
@_ZTSSt16_Sp_counted_baseILN9__gnu_cxx12_Lock_policyE2EE = linkonce_odr constant [52 x i8] c"St16_Sp_counted_baseILN9__gnu_cxx12_Lock_policyE2EE\00", comdat, align 1
@_ZTSSt11_Mutex_baseILN9__gnu_cxx12_Lock_policyE2EE = linkonce_odr constant [47 x i8] c"St11_Mutex_baseILN9__gnu_cxx12_Lock_policyE2EE\00", comdat, align 1
@_ZTISt11_Mutex_baseILN9__gnu_cxx12_Lock_policyE2EE = linkonce_odr constant { ptr, ptr } { ptr getelementptr inbounds (ptr, ptr @_ZTVN10__cxxabiv117__class_type_infoE, i64 2), ptr @_ZTSSt11_Mutex_baseILN9__gnu_cxx12_Lock_policyE2EE }, comdat, align 8
@_ZTISt16_Sp_counted_baseILN9__gnu_cxx12_Lock_policyE2EE = linkonce_odr constant { ptr, ptr, ptr } { ptr getelementptr inbounds (ptr, ptr @_ZTVN10__cxxabiv120__si_class_type_infoE, i64 2), ptr @_ZTSSt16_Sp_counted_baseILN9__gnu_cxx12_Lock_policyE2EE, ptr @_ZTISt11_Mutex_baseILN9__gnu_cxx12_Lock_policyE2EE }, comdat, align 8
@_ZTISt19_Sp_counted_deleterIPN8facebook5velox13ISerializableESt14default_deleteIS2_ESaIvELN9__gnu_cxx12_Lock_policyE2EE = linkonce_odr constant { ptr, ptr, ptr } { ptr getelementptr inbounds (ptr, ptr @_ZTVN10__cxxabiv120__si_class_type_infoE, i64 2), ptr @_ZTSSt19_Sp_counted_deleterIPN8facebook5velox13ISerializableESt14default_deleteIS2_ESaIvELN9__gnu_cxx12_Lock_policyE2EE, ptr @_ZTISt16_Sp_counted_baseILN9__gnu_cxx12_Lock_policyE2EE }, comdat, align 8
@_ZTSSt14default_deleteIN8facebook5velox13ISerializableEE = linkonce_odr constant [53 x i8] c"St14default_deleteIN8facebook5velox13ISerializableEE\00", comdat, align 1
@.str.49 = private unnamed_addr constant [23 x i8] c"int/double/bool/string\00", align 1
@_ZN5folly6detail15to_ascii_powersILm10EmE4dataE = external local_unnamed_addr global %"struct.folly::c_array", align 8
@_ZN5folly6detail14to_ascii_tableILm10ENS_17to_ascii_alphabetILb0EEEE4dataE = external local_unnamed_addr global %"struct.folly::c_array.425", align 2
@.str.50 = private unnamed_addr constant [9 x i8] c"Infinity\00", align 1
@.str.51 = private unnamed_addr constant [4 x i8] c"NaN\00", align 1
@_ZTSN5folly17BadExpectedAccessIvEE = linkonce_odr constant [31 x i8] c"N5folly17BadExpectedAccessIvEE\00", comdat, align 1
@_ZTISt9exception = external constant ptr
@_ZTIN5folly17BadExpectedAccessIvEE = linkonce_odr constant { ptr, ptr, ptr } { ptr getelementptr inbounds (ptr, ptr @_ZTVN10__cxxabiv120__si_class_type_infoE, i64 2), ptr @_ZTSN5folly17BadExpectedAccessIvEE, ptr @_ZTISt9exception }, comdat, align 8
@_ZTVN5folly17BadExpectedAccessIvEE = linkonce_odr unnamed_addr constant { [5 x ptr] } { [5 x ptr] [ptr null, ptr @_ZTIN5folly17BadExpectedAccessIvEE, ptr @_ZN5folly17BadExpectedAccessIvED2Ev, ptr @_ZN5folly17BadExpectedAccessIvED0Ev, ptr @_ZNK5folly17BadExpectedAccessIvE4whatEv] }, comdat, align 8
@.str.52 = private unnamed_addr constant [20 x i8] c"bad expected access\00", align 1
@_ZTSN5folly15ConversionErrorE = linkonce_odr constant [26 x i8] c"N5folly15ConversionErrorE\00", comdat, align 1
@_ZTSN5folly19ConversionErrorBaseE = linkonce_odr constant [30 x i8] c"N5folly19ConversionErrorBaseE\00", comdat, align 1
@_ZTISt11range_error = external constant ptr
@_ZTIN5folly19ConversionErrorBaseE = linkonce_odr constant { ptr, ptr, ptr } { ptr getelementptr inbounds (ptr, ptr @_ZTVN10__cxxabiv120__si_class_type_infoE, i64 2), ptr @_ZTSN5folly19ConversionErrorBaseE, ptr @_ZTISt11range_error }, comdat, align 8
@_ZTIN5folly15ConversionErrorE = linkonce_odr constant { ptr, ptr, ptr } { ptr getelementptr inbounds (ptr, ptr @_ZTVN10__cxxabiv120__si_class_type_infoE, i64 2), ptr @_ZTSN5folly15ConversionErrorE, ptr @_ZTIN5folly19ConversionErrorBaseE }, comdat, align 8
@_ZTVN5folly15ConversionErrorE = linkonce_odr unnamed_addr constant { [5 x ptr] } { [5 x ptr] [ptr null, ptr @_ZTIN5folly15ConversionErrorE, ptr @_ZN5folly15ConversionErrorD2Ev, ptr @_ZN5folly15ConversionErrorD0Ev, ptr @_ZNKSt13runtime_error4whatEv] }, comdat, align 8
@_ZTSN5folly17BadExpectedAccessINS_14ConversionCodeEEE = linkonce_odr constant [50 x i8] c"N5folly17BadExpectedAccessINS_14ConversionCodeEEE\00", comdat, align 1
@_ZTIN5folly17BadExpectedAccessINS_14ConversionCodeEEE = linkonce_odr constant { ptr, ptr, ptr } { ptr getelementptr inbounds (ptr, ptr @_ZTVN10__cxxabiv120__si_class_type_infoE, i64 2), ptr @_ZTSN5folly17BadExpectedAccessINS_14ConversionCodeEEE, ptr @_ZTIN5folly17BadExpectedAccessIvEE }, comdat, align 8
@_ZTVN5folly17BadExpectedAccessINS_14ConversionCodeEEE = linkonce_odr unnamed_addr constant { [5 x ptr] } { [5 x ptr] [ptr null, ptr @_ZTIN5folly17BadExpectedAccessINS_14ConversionCodeEEE, ptr @_ZN5folly17BadExpectedAccessINS_14ConversionCodeEED2Ev, ptr @_ZN5folly17BadExpectedAccessINS_14ConversionCodeEED0Ev, ptr @_ZNK5folly17BadExpectedAccessIvE4whatEv] }, comdat, align 8
@.str.53 = private unnamed_addr constant [8 x i8] c"DECIMAL\00", align 1
@.str.54 = private unnamed_addr constant [2 x i8] c"(\00", align 1
@.str.55 = private unnamed_addr constant [3 x i8] c") \00", align 1
@_ZN5folly6detail18pretty_name_zarrayIlNS0_14pretty_tag_gccEE6zarrayE = linkonce_odr constant %"struct.folly::c_array.438" { [5 x i8] c"long\00" }, comdat, align 1
@_ZN5folly7dynamic8TypeInfoISt6vectorIS0_SaIS0_EEE4nameE = external local_unnamed_addr constant ptr, align 8
@_ZZN8facebook5velox12_GLOBAL__N_119OpaqueSerdeRegistry3getEvE8instance = internal global %"struct.facebook::velox::(anonymous namespace)::OpaqueSerdeRegistry" zeroinitializer, align 8
@_ZGVZN8facebook5velox12_GLOBAL__N_119OpaqueSerdeRegistry3getEvE8instance = internal global i64 0, align 8
@_ZZN8facebook5velox19IntervalDayTimeType3getEvE5kType = linkonce_odr global %"class.std::shared_ptr.459" zeroinitializer, comdat, align 8
@_ZGVZN8facebook5velox19IntervalDayTimeType3getEvE5kType = linkonce_odr global i64 0, comdat, align 8
@_ZTVN8facebook5velox19IntervalDayTimeTypeE = linkonce_odr unnamed_addr constant { [18 x ptr], [5 x ptr] } { [18 x ptr] [ptr null, ptr @_ZTIN8facebook5velox19IntervalDayTimeTypeE, ptr @_ZN8facebook5velox19IntervalDayTimeTypeD2Ev, ptr @_ZN8facebook5velox19IntervalDayTimeTypeD0Ev, ptr @_ZNK8facebook5velox10ScalarTypeILNS0_8TypeKindE4EE4sizeEv, ptr @_ZNK8facebook5velox10ScalarTypeILNS0_8TypeKindE4EE7childAtEj, ptr @_ZNK8facebook5velox8TypeBaseILNS0_8TypeKindE4EE15isPrimitiveTypeEv, ptr @_ZNK8facebook5velox10ScalarTypeILNS0_8TypeKindE4EE12isComparableEv, ptr @_ZNK8facebook5velox10ScalarTypeILNS0_8TypeKindE4EE11isOrderableEv, ptr @_ZNK8facebook5velox19IntervalDayTimeType4nameEv, ptr @_ZNK8facebook5velox8TypeBaseILNS0_8TypeKindE4EE10parametersEv, ptr @_ZNK8facebook5velox8TypeBaseILNS0_8TypeKindE4EE8kindNameEv, ptr @_ZNK8facebook5velox19IntervalDayTimeType8toStringB5cxx11Ev, ptr @_ZNK8facebook5velox19IntervalDayTimeType10equivalentERKNS0_4TypeE, ptr @_ZNK8facebook5velox4TypeeqERKS1_, ptr @_ZNK8facebook5velox10ScalarTypeILNS0_8TypeKindE4EE14cppSizeInBytesEv, ptr @_ZNK8facebook5velox8TypeBaseILNS0_8TypeKindE4EE12isFixedWidthEv, ptr @_ZNK8facebook5velox19IntervalDayTimeType9serializeEv], [5 x ptr] [ptr inttoptr (i64 -8 to ptr), ptr @_ZTIN8facebook5velox19IntervalDayTimeTypeE, ptr @_ZThn8_NK8facebook5velox19IntervalDayTimeType9serializeEv, ptr @_ZThn8_N8facebook5velox19IntervalDayTimeTypeD1Ev, ptr @_ZThn8_N8facebook5velox19IntervalDayTimeTypeD0Ev] }, comdat, align 8
@_ZTSN8facebook5velox19IntervalDayTimeTypeE = linkonce_odr constant [39 x i8] c"N8facebook5velox19IntervalDayTimeTypeE\00", comdat, align 1
@_ZTIN8facebook5velox19IntervalDayTimeTypeE = linkonce_odr constant { ptr, ptr, ptr } { ptr getelementptr inbounds (ptr, ptr @_ZTVN10__cxxabiv120__si_class_type_infoE, i64 2), ptr @_ZTSN8facebook5velox19IntervalDayTimeTypeE, ptr @_ZTIN8facebook5velox10ScalarTypeILNS0_8TypeKindE4EEE }, comdat, align 8
@_ZTVN8facebook5velox10ScalarTypeILNS0_8TypeKindE4EEE = linkonce_odr unnamed_addr constant { [18 x ptr], [5 x ptr] } { [18 x ptr] [ptr null, ptr @_ZTIN8facebook5velox10ScalarTypeILNS0_8TypeKindE4EEE, ptr @_ZN8facebook5velox10ScalarTypeILNS0_8TypeKindE4EED2Ev, ptr @_ZN8facebook5velox10ScalarTypeILNS0_8TypeKindE4EED0Ev, ptr @_ZNK8facebook5velox10ScalarTypeILNS0_8TypeKindE4EE4sizeEv, ptr @_ZNK8facebook5velox10ScalarTypeILNS0_8TypeKindE4EE7childAtEj, ptr @_ZNK8facebook5velox8TypeBaseILNS0_8TypeKindE4EE15isPrimitiveTypeEv, ptr @_ZNK8facebook5velox10ScalarTypeILNS0_8TypeKindE4EE12isComparableEv, ptr @_ZNK8facebook5velox10ScalarTypeILNS0_8TypeKindE4EE11isOrderableEv, ptr @_ZNK8facebook5velox8TypeBaseILNS0_8TypeKindE4EE4nameEv, ptr @_ZNK8facebook5velox8TypeBaseILNS0_8TypeKindE4EE10parametersEv, ptr @_ZNK8facebook5velox8TypeBaseILNS0_8TypeKindE4EE8kindNameEv, ptr @_ZNK8facebook5velox10ScalarTypeILNS0_8TypeKindE4EE8toStringB5cxx11Ev, ptr @_ZNK8facebook5velox10ScalarTypeILNS0_8TypeKindE4EE10equivalentERKNS0_4TypeE, ptr @_ZNK8facebook5velox4TypeeqERKS1_, ptr @_ZNK8facebook5velox10ScalarTypeILNS0_8TypeKindE4EE14cppSizeInBytesEv, ptr @_ZNK8facebook5velox8TypeBaseILNS0_8TypeKindE4EE12isFixedWidthEv, ptr @_ZNK8facebook5velox10ScalarTypeILNS0_8TypeKindE4EE9serializeEv], [5 x ptr] [ptr inttoptr (i64 -8 to ptr), ptr @_ZTIN8facebook5velox10ScalarTypeILNS0_8TypeKindE4EEE, ptr @_ZThn8_NK8facebook5velox10ScalarTypeILNS0_8TypeKindE4EE9serializeEv, ptr @_ZThn8_N8facebook5velox10ScalarTypeILNS0_8TypeKindE4EED1Ev, ptr @_ZThn8_N8facebook5velox10ScalarTypeILNS0_8TypeKindE4EED0Ev] }, comdat, align 8
@.str.56 = private unnamed_addr constant [28 x i8] c"scalar type has no children\00", align 1
@_ZTISt16invalid_argument = external constant ptr
@.str.57 = private unnamed_addr constant [23 x i8] c"INTERVAL DAY TO SECOND\00", align 1
@_ZZNK8facebook5velox8TypeBaseILNS0_8TypeKindE4EE10parametersEvE6kEmpty = linkonce_odr global %"class.std::vector" zeroinitializer, comdat, align 8
@_ZGVZNK8facebook5velox8TypeBaseILNS0_8TypeKindE4EE10parametersEvE6kEmpty = linkonce_odr global i64 0, comdat, align 8
@_ZTVSt15_Sp_counted_ptrIPN8facebook5velox19IntervalDayTimeTypeELN9__gnu_cxx12_Lock_policyE2EE = linkonce_odr unnamed_addr constant { [7 x ptr] } { [7 x ptr] [ptr null, ptr @_ZTISt15_Sp_counted_ptrIPN8facebook5velox19IntervalDayTimeTypeELN9__gnu_cxx12_Lock_policyE2EE, ptr @_ZNSt15_Sp_counted_ptrIPN8facebook5velox19IntervalDayTimeTypeELN9__gnu_cxx12_Lock_policyE2EED2Ev, ptr @_ZNSt15_Sp_counted_ptrIPN8facebook5velox19IntervalDayTimeTypeELN9__gnu_cxx12_Lock_policyE2EED0Ev, ptr @_ZNSt15_Sp_counted_ptrIPN8facebook5velox19IntervalDayTimeTypeELN9__gnu_cxx12_Lock_policyE2EE10_M_disposeEv, ptr @_ZNSt15_Sp_counted_ptrIPN8facebook5velox19IntervalDayTimeTypeELN9__gnu_cxx12_Lock_policyE2EE10_M_destroyEv, ptr @_ZNSt15_Sp_counted_ptrIPN8facebook5velox19IntervalDayTimeTypeELN9__gnu_cxx12_Lock_policyE2EE14_M_get_deleterERKSt9type_info] }, comdat, align 8
@_ZTSSt15_Sp_counted_ptrIPN8facebook5velox19IntervalDayTimeTypeELN9__gnu_cxx12_Lock_policyE2EE = linkonce_odr constant [90 x i8] c"St15_Sp_counted_ptrIPN8facebook5velox19IntervalDayTimeTypeELN9__gnu_cxx12_Lock_policyE2EE\00", comdat, align 1
@_ZTISt15_Sp_counted_ptrIPN8facebook5velox19IntervalDayTimeTypeELN9__gnu_cxx12_Lock_policyE2EE = linkonce_odr constant { ptr, ptr, ptr } { ptr getelementptr inbounds (ptr, ptr @_ZTVN10__cxxabiv120__si_class_type_infoE, i64 2), ptr @_ZTSSt15_Sp_counted_ptrIPN8facebook5velox19IntervalDayTimeTypeELN9__gnu_cxx12_Lock_policyE2EE, ptr @_ZTISt16_Sp_counted_baseILN9__gnu_cxx12_Lock_policyE2EE }, comdat, align 8
@_ZZN8facebook5velox21IntervalYearMonthType3getEvE5kType = linkonce_odr global %"class.std::shared_ptr.462" zeroinitializer, comdat, align 8
@_ZGVZN8facebook5velox21IntervalYearMonthType3getEvE5kType = linkonce_odr global i64 0, comdat, align 8
@_ZTVN8facebook5velox21IntervalYearMonthTypeE = linkonce_odr unnamed_addr constant { [18 x ptr], [5 x ptr] } { [18 x ptr] [ptr null, ptr @_ZTIN8facebook5velox21IntervalYearMonthTypeE, ptr @_ZN8facebook5velox21IntervalYearMonthTypeD2Ev, ptr @_ZN8facebook5velox21IntervalYearMonthTypeD0Ev, ptr @_ZNK8facebook5velox10ScalarTypeILNS0_8TypeKindE3EE4sizeEv, ptr @_ZNK8facebook5velox10ScalarTypeILNS0_8TypeKindE3EE7childAtEj, ptr @_ZNK8facebook5velox8TypeBaseILNS0_8TypeKindE3EE15isPrimitiveTypeEv, ptr @_ZNK8facebook5velox10ScalarTypeILNS0_8TypeKindE3EE12isComparableEv, ptr @_ZNK8facebook5velox10ScalarTypeILNS0_8TypeKindE3EE11isOrderableEv, ptr @_ZNK8facebook5velox21IntervalYearMonthType4nameEv, ptr @_ZNK8facebook5velox8TypeBaseILNS0_8TypeKindE3EE10parametersEv, ptr @_ZNK8facebook5velox8TypeBaseILNS0_8TypeKindE3EE8kindNameEv, ptr @_ZNK8facebook5velox21IntervalYearMonthType8toStringB5cxx11Ev, ptr @_ZNK8facebook5velox21IntervalYearMonthType10equivalentERKNS0_4TypeE, ptr @_ZNK8facebook5velox4TypeeqERKS1_, ptr @_ZNK8facebook5velox10ScalarTypeILNS0_8TypeKindE3EE14cppSizeInBytesEv, ptr @_ZNK8facebook5velox8TypeBaseILNS0_8TypeKindE3EE12isFixedWidthEv, ptr @_ZNK8facebook5velox21IntervalYearMonthType9serializeEv], [5 x ptr] [ptr inttoptr (i64 -8 to ptr), ptr @_ZTIN8facebook5velox21IntervalYearMonthTypeE, ptr @_ZThn8_NK8facebook5velox21IntervalYearMonthType9serializeEv, ptr @_ZThn8_N8facebook5velox21IntervalYearMonthTypeD1Ev, ptr @_ZThn8_N8facebook5velox21IntervalYearMonthTypeD0Ev] }, comdat, align 8
@_ZTSN8facebook5velox21IntervalYearMonthTypeE = linkonce_odr constant [41 x i8] c"N8facebook5velox21IntervalYearMonthTypeE\00", comdat, align 1
@_ZTSN8facebook5velox10ScalarTypeILNS0_8TypeKindE3EEE = linkonce_odr constant [49 x i8] c"N8facebook5velox10ScalarTypeILNS0_8TypeKindE3EEE\00", comdat, align 1
@_ZTSN8facebook5velox8TypeBaseILNS0_8TypeKindE3EEE = linkonce_odr constant [46 x i8] c"N8facebook5velox8TypeBaseILNS0_8TypeKindE3EEE\00", comdat, align 1
@_ZTIN8facebook5velox8TypeBaseILNS0_8TypeKindE3EEE = linkonce_odr constant { ptr, ptr, ptr } { ptr getelementptr inbounds (ptr, ptr @_ZTVN10__cxxabiv120__si_class_type_infoE, i64 2), ptr @_ZTSN8facebook5velox8TypeBaseILNS0_8TypeKindE3EEE, ptr @_ZTIN8facebook5velox4TypeE }, comdat, align 8
@_ZTIN8facebook5velox10ScalarTypeILNS0_8TypeKindE3EEE = linkonce_odr constant { ptr, ptr, ptr } { ptr getelementptr inbounds (ptr, ptr @_ZTVN10__cxxabiv120__si_class_type_infoE, i64 2), ptr @_ZTSN8facebook5velox10ScalarTypeILNS0_8TypeKindE3EEE, ptr @_ZTIN8facebook5velox8TypeBaseILNS0_8TypeKindE3EEE }, comdat, align 8
@_ZTIN8facebook5velox21IntervalYearMonthTypeE = linkonce_odr constant { ptr, ptr, ptr } { ptr getelementptr inbounds (ptr, ptr @_ZTVN10__cxxabiv120__si_class_type_infoE, i64 2), ptr @_ZTSN8facebook5velox21IntervalYearMonthTypeE, ptr @_ZTIN8facebook5velox10ScalarTypeILNS0_8TypeKindE3EEE }, comdat, align 8
@_ZTVN8facebook5velox10ScalarTypeILNS0_8TypeKindE3EEE = linkonce_odr unnamed_addr constant { [18 x ptr], [5 x ptr] } { [18 x ptr] [ptr null, ptr @_ZTIN8facebook5velox10ScalarTypeILNS0_8TypeKindE3EEE, ptr @_ZN8facebook5velox10ScalarTypeILNS0_8TypeKindE3EED2Ev, ptr @_ZN8facebook5velox10ScalarTypeILNS0_8TypeKindE3EED0Ev, ptr @_ZNK8facebook5velox10ScalarTypeILNS0_8TypeKindE3EE4sizeEv, ptr @_ZNK8facebook5velox10ScalarTypeILNS0_8TypeKindE3EE7childAtEj, ptr @_ZNK8facebook5velox8TypeBaseILNS0_8TypeKindE3EE15isPrimitiveTypeEv, ptr @_ZNK8facebook5velox10ScalarTypeILNS0_8TypeKindE3EE12isComparableEv, ptr @_ZNK8facebook5velox10ScalarTypeILNS0_8TypeKindE3EE11isOrderableEv, ptr @_ZNK8facebook5velox8TypeBaseILNS0_8TypeKindE3EE4nameEv, ptr @_ZNK8facebook5velox8TypeBaseILNS0_8TypeKindE3EE10parametersEv, ptr @_ZNK8facebook5velox8TypeBaseILNS0_8TypeKindE3EE8kindNameEv, ptr @_ZNK8facebook5velox10ScalarTypeILNS0_8TypeKindE3EE8toStringB5cxx11Ev, ptr @_ZNK8facebook5velox10ScalarTypeILNS0_8TypeKindE3EE10equivalentERKNS0_4TypeE, ptr @_ZNK8facebook5velox4TypeeqERKS1_, ptr @_ZNK8facebook5velox10ScalarTypeILNS0_8TypeKindE3EE14cppSizeInBytesEv, ptr @_ZNK8facebook5velox8TypeBaseILNS0_8TypeKindE3EE12isFixedWidthEv, ptr @_ZNK8facebook5velox10ScalarTypeILNS0_8TypeKindE3EE9serializeEv], [5 x ptr] [ptr inttoptr (i64 -8 to ptr), ptr @_ZTIN8facebook5velox10ScalarTypeILNS0_8TypeKindE3EEE, ptr @_ZThn8_NK8facebook5velox10ScalarTypeILNS0_8TypeKindE3EE9serializeEv, ptr @_ZThn8_N8facebook5velox10ScalarTypeILNS0_8TypeKindE3EED1Ev, ptr @_ZThn8_N8facebook5velox10ScalarTypeILNS0_8TypeKindE3EED0Ev] }, comdat, align 8
@.str.58 = private unnamed_addr constant [23 x i8] c"INTERVAL YEAR TO MONTH\00", align 1
@_ZZNK8facebook5velox8TypeBaseILNS0_8TypeKindE3EE10parametersEvE6kEmpty = linkonce_odr global %"class.std::vector" zeroinitializer, comdat, align 8
@_ZGVZNK8facebook5velox8TypeBaseILNS0_8TypeKindE3EE10parametersEvE6kEmpty = linkonce_odr global i64 0, comdat, align 8
@_ZTVSt15_Sp_counted_ptrIPN8facebook5velox21IntervalYearMonthTypeELN9__gnu_cxx12_Lock_policyE2EE = linkonce_odr unnamed_addr constant { [7 x ptr] } { [7 x ptr] [ptr null, ptr @_ZTISt15_Sp_counted_ptrIPN8facebook5velox21IntervalYearMonthTypeELN9__gnu_cxx12_Lock_policyE2EE, ptr @_ZNSt15_Sp_counted_ptrIPN8facebook5velox21IntervalYearMonthTypeELN9__gnu_cxx12_Lock_policyE2EED2Ev, ptr @_ZNSt15_Sp_counted_ptrIPN8facebook5velox21IntervalYearMonthTypeELN9__gnu_cxx12_Lock_policyE2EED0Ev, ptr @_ZNSt15_Sp_counted_ptrIPN8facebook5velox21IntervalYearMonthTypeELN9__gnu_cxx12_Lock_policyE2EE10_M_disposeEv, ptr @_ZNSt15_Sp_counted_ptrIPN8facebook5velox21IntervalYearMonthTypeELN9__gnu_cxx12_Lock_policyE2EE10_M_destroyEv, ptr @_ZNSt15_Sp_counted_ptrIPN8facebook5velox21IntervalYearMonthTypeELN9__gnu_cxx12_Lock_policyE2EE14_M_get_deleterERKSt9type_info] }, comdat, align 8
@_ZTSSt15_Sp_counted_ptrIPN8facebook5velox21IntervalYearMonthTypeELN9__gnu_cxx12_Lock_policyE2EE = linkonce_odr constant [92 x i8] c"St15_Sp_counted_ptrIPN8facebook5velox21IntervalYearMonthTypeELN9__gnu_cxx12_Lock_policyE2EE\00", comdat, align 1
@_ZTISt15_Sp_counted_ptrIPN8facebook5velox21IntervalYearMonthTypeELN9__gnu_cxx12_Lock_policyE2EE = linkonce_odr constant { ptr, ptr, ptr } { ptr getelementptr inbounds (ptr, ptr @_ZTVN10__cxxabiv120__si_class_type_infoE, i64 2), ptr @_ZTSSt15_Sp_counted_ptrIPN8facebook5velox21IntervalYearMonthTypeELN9__gnu_cxx12_Lock_policyE2EE, ptr @_ZTISt16_Sp_counted_baseILN9__gnu_cxx12_Lock_policyE2EE }, comdat, align 8
@_ZZN8facebook5velox8DateType3getEvE5kType = linkonce_odr global %"class.std::shared_ptr.470" zeroinitializer, comdat, align 8
@_ZGVZN8facebook5velox8DateType3getEvE5kType = linkonce_odr global i64 0, comdat, align 8
@_ZTVN8facebook5velox8DateTypeE = linkonce_odr unnamed_addr constant { [18 x ptr], [5 x ptr] } { [18 x ptr] [ptr null, ptr @_ZTIN8facebook5velox8DateTypeE, ptr @_ZN8facebook5velox8DateTypeD2Ev, ptr @_ZN8facebook5velox8DateTypeD0Ev, ptr @_ZNK8facebook5velox10ScalarTypeILNS0_8TypeKindE3EE4sizeEv, ptr @_ZNK8facebook5velox10ScalarTypeILNS0_8TypeKindE3EE7childAtEj, ptr @_ZNK8facebook5velox8TypeBaseILNS0_8TypeKindE3EE15isPrimitiveTypeEv, ptr @_ZNK8facebook5velox10ScalarTypeILNS0_8TypeKindE3EE12isComparableEv, ptr @_ZNK8facebook5velox10ScalarTypeILNS0_8TypeKindE3EE11isOrderableEv, ptr @_ZNK8facebook5velox8DateType4nameEv, ptr @_ZNK8facebook5velox8TypeBaseILNS0_8TypeKindE3EE10parametersEv, ptr @_ZNK8facebook5velox8TypeBaseILNS0_8TypeKindE3EE8kindNameEv, ptr @_ZNK8facebook5velox8DateType8toStringB5cxx11Ev, ptr @_ZNK8facebook5velox8DateType10equivalentERKNS0_4TypeE, ptr @_ZNK8facebook5velox4TypeeqERKS1_, ptr @_ZNK8facebook5velox10ScalarTypeILNS0_8TypeKindE3EE14cppSizeInBytesEv, ptr @_ZNK8facebook5velox8TypeBaseILNS0_8TypeKindE3EE12isFixedWidthEv, ptr @_ZNK8facebook5velox8DateType9serializeEv], [5 x ptr] [ptr inttoptr (i64 -8 to ptr), ptr @_ZTIN8facebook5velox8DateTypeE, ptr @_ZThn8_NK8facebook5velox8DateType9serializeEv, ptr @_ZThn8_N8facebook5velox8DateTypeD1Ev, ptr @_ZThn8_N8facebook5velox8DateTypeD0Ev] }, comdat, align 8
@_ZTSN8facebook5velox8DateTypeE = linkonce_odr constant [27 x i8] c"N8facebook5velox8DateTypeE\00", comdat, align 1
@_ZTIN8facebook5velox8DateTypeE = linkonce_odr constant { ptr, ptr, ptr } { ptr getelementptr inbounds (ptr, ptr @_ZTVN10__cxxabiv120__si_class_type_infoE, i64 2), ptr @_ZTSN8facebook5velox8DateTypeE, ptr @_ZTIN8facebook5velox10ScalarTypeILNS0_8TypeKindE3EEE }, comdat, align 8
@.str.59 = private unnamed_addr constant [5 x i8] c"DATE\00", align 1
@_ZTVSt15_Sp_counted_ptrIPN8facebook5velox8DateTypeELN9__gnu_cxx12_Lock_policyE2EE = linkonce_odr unnamed_addr constant { [7 x ptr] } { [7 x ptr] [ptr null, ptr @_ZTISt15_Sp_counted_ptrIPN8facebook5velox8DateTypeELN9__gnu_cxx12_Lock_policyE2EE, ptr @_ZNSt15_Sp_counted_ptrIPN8facebook5velox8DateTypeELN9__gnu_cxx12_Lock_policyE2EED2Ev, ptr @_ZNSt15_Sp_counted_ptrIPN8facebook5velox8DateTypeELN9__gnu_cxx12_Lock_policyE2EED0Ev, ptr @_ZNSt15_Sp_counted_ptrIPN8facebook5velox8DateTypeELN9__gnu_cxx12_Lock_policyE2EE10_M_disposeEv, ptr @_ZNSt15_Sp_counted_ptrIPN8facebook5velox8DateTypeELN9__gnu_cxx12_Lock_policyE2EE10_M_destroyEv, ptr @_ZNSt15_Sp_counted_ptrIPN8facebook5velox8DateTypeELN9__gnu_cxx12_Lock_policyE2EE14_M_get_deleterERKSt9type_info] }, comdat, align 8
@_ZTSSt15_Sp_counted_ptrIPN8facebook5velox8DateTypeELN9__gnu_cxx12_Lock_policyE2EE = linkonce_odr constant [78 x i8] c"St15_Sp_counted_ptrIPN8facebook5velox8DateTypeELN9__gnu_cxx12_Lock_policyE2EE\00", comdat, align 1
@_ZTISt15_Sp_counted_ptrIPN8facebook5velox8DateTypeELN9__gnu_cxx12_Lock_policyE2EE = linkonce_odr constant { ptr, ptr, ptr } { ptr getelementptr inbounds (ptr, ptr @_ZTVN10__cxxabiv120__si_class_type_infoE, i64 2), ptr @_ZTSSt15_Sp_counted_ptrIPN8facebook5velox8DateTypeELN9__gnu_cxx12_Lock_policyE2EE, ptr @_ZTISt16_Sp_counted_baseILN9__gnu_cxx12_Lock_policyE2EE }, comdat, align 8
@_ZN5folly3f146detail15kEmptyTagVectorE = external global %"union.std::aligned_storage<32, 16>::type", align 16
@.str.60 = private unnamed_addr constant [16 x i8] c"vector::reserve\00", align 1
@_ZTISt9bad_alloc = external constant ptr
@_ZTVSt9bad_alloc = external unnamed_addr constant { [5 x ptr] }, align 8
@.str.61 = private unnamed_addr constant [11 x i8] c"rehashImpl\00", align 1
@_ZZN5folly3f146detail8F14TableINS1_21VectorContainerPolicyINSt7__cxx1112basic_stringIcSt11char_traitsIcESaIcEEEjvvvSt17integral_constantIbLb1EEEEE10rehashImplEmmmmmE30__folly_detail_safe_assert_arg_0 = linkonce_odr constant %"struct.folly::detail::safe_assert_arg" { ptr @.str.62, ptr @.str.63, i32 1923, ptr @.str.61, ptr @_ZN5folly6detail21safe_assert_msg_typesINS0_22safe_assert_msg_type_sIJLNS0_20safe_assert_msg_typeE1EEEEE5valueE }, comdat, align 8
@.str.62 = private unnamed_addr constant [33 x i8] c"hp.second == srcChunk->tag(srcI)\00", align 1
@.str.63 = private unnamed_addr constant [145 x i8] c"generated/home/dtcxzyw/WorkSpace/Projects/compilers/llvm-opt-benchmark/bench/velox/bench_build/_deps/folly-src/folly/container/detail/F14Table.h\00", align 1
@_ZN5folly6detail21safe_assert_msg_typesINS0_22safe_assert_msg_type_sIJLNS0_20safe_assert_msg_typeE1EEEEE5valueE = linkonce_odr constant %"struct.folly::c_array.501" { [2 x i8] c"\01\00" }, comdat, align 1
@.str.64 = private unnamed_addr constant [7 x i8] c"setTag\00", align 1
@_ZZN5folly3f146detail8F14ChunkIjE6setTagEmmE30__folly_detail_safe_assert_arg_0 = linkonce_odr constant %"struct.folly::detail::safe_assert_arg" { ptr @.str.65, ptr @.str.63, i32 426, ptr @.str.64, ptr @_ZN5folly6detail21safe_assert_msg_typesINS0_22safe_assert_msg_type_sIJLNS0_20safe_assert_msg_typeE1EEEEE5valueE }, comdat, align 8
@.str.65 = private unnamed_addr constant [18 x i8] c"tags_[index] == 0\00", align 1
@_ZSt19piecewise_construct = linkonce_odr constant %"struct.std::piecewise_construct_t" zeroinitializer, comdat, align 1
@.str.66 = private unnamed_addr constant [9 x i8] c"clearTag\00", align 1
@_ZZN5folly3f146detail8F14ChunkIjE8clearTagEmE30__folly_detail_safe_assert_arg = linkonce_odr constant %"struct.folly::detail::safe_assert_arg" { ptr @.str.67, ptr @.str.63, i32 431, ptr @.str.66, ptr @_ZN5folly6detail21safe_assert_msg_typesINS0_22safe_assert_msg_type_sIJLNS0_20safe_assert_msg_typeE1EEEEE5valueE }, comdat, align 8
@.str.67 = private unnamed_addr constant [27 x i8] c"(tags_[index] & 0x80) != 0\00", align 1
@_ZTSSt19bad_optional_access = linkonce_odr constant [24 x i8] c"St19bad_optional_access\00", comdat, align 1
@_ZTISt19bad_optional_access = linkonce_odr constant { ptr, ptr, ptr } { ptr getelementptr inbounds (ptr, ptr @_ZTVN10__cxxabiv120__si_class_type_infoE, i64 2), ptr @_ZTSSt19bad_optional_access, ptr @_ZTISt9exception }, comdat, align 8
@_ZTVSt19bad_optional_access = linkonce_odr unnamed_addr constant { [5 x ptr] } { [5 x ptr] [ptr null, ptr @_ZTISt19bad_optional_access, ptr @_ZNSt19bad_optional_accessD2Ev, ptr @_ZNSt19bad_optional_accessD0Ev, ptr @_ZNKSt19bad_optional_access4whatEv] }, comdat, align 8
@.str.68 = private unnamed_addr constant [20 x i8] c"bad optional access\00", align 1
@_ZZN12_GLOBAL__N_129isColumnNameRequiringEscapingERKNSt7__cxx1112basic_stringIcSt11char_traitsIcESaIcEEEE2reB5cxx11 = internal global %"class.std::__cxx11::basic_string" zeroinitializer, align 8
@_ZGVZN12_GLOBAL__N_129isColumnNameRequiringEscapingERKNSt7__cxx1112basic_stringIcSt11char_traitsIcESaIcEEEE2reB5cxx11 = internal global i64 0, align 8
@.str.69 = private unnamed_addr constant [25 x i8] c"^[a-zA-Z_][a-zA-Z0-9_]*$\00", align 1
@_ZTVSt23_Sp_counted_ptr_inplaceIN8facebook5velox11UnknownTypeESaIvELN9__gnu_cxx12_Lock_policyE2EE = linkonce_odr unnamed_addr constant { [7 x ptr] } { [7 x ptr] [ptr null, ptr @_ZTISt23_Sp_counted_ptr_inplaceIN8facebook5velox11UnknownTypeESaIvELN9__gnu_cxx12_Lock_policyE2EE, ptr @_ZNSt23_Sp_counted_ptr_inplaceIN8facebook5velox11UnknownTypeESaIvELN9__gnu_cxx12_Lock_policyE2EED2Ev, ptr @_ZNSt23_Sp_counted_ptr_inplaceIN8facebook5velox11UnknownTypeESaIvELN9__gnu_cxx12_Lock_policyE2EED0Ev, ptr @_ZNSt23_Sp_counted_ptr_inplaceIN8facebook5velox11UnknownTypeESaIvELN9__gnu_cxx12_Lock_policyE2EE10_M_disposeEv, ptr @_ZNSt23_Sp_counted_ptr_inplaceIN8facebook5velox11UnknownTypeESaIvELN9__gnu_cxx12_Lock_policyE2EE10_M_destroyEv, ptr @_ZNSt23_Sp_counted_ptr_inplaceIN8facebook5velox11UnknownTypeESaIvELN9__gnu_cxx12_Lock_policyE2EE14_M_get_deleterERKSt9type_info] }, comdat, align 8
@_ZTSSt23_Sp_counted_ptr_inplaceIN8facebook5velox11UnknownTypeESaIvELN9__gnu_cxx12_Lock_policyE2EE = linkonce_odr constant [94 x i8] c"St23_Sp_counted_ptr_inplaceIN8facebook5velox11UnknownTypeESaIvELN9__gnu_cxx12_Lock_policyE2EE\00", comdat, align 1
@_ZTISt23_Sp_counted_ptr_inplaceIN8facebook5velox11UnknownTypeESaIvELN9__gnu_cxx12_Lock_policyE2EE = linkonce_odr constant { ptr, ptr, ptr } { ptr getelementptr inbounds (ptr, ptr @_ZTVN10__cxxabiv120__si_class_type_infoE, i64 2), ptr @_ZTSSt23_Sp_counted_ptr_inplaceIN8facebook5velox11UnknownTypeESaIvELN9__gnu_cxx12_Lock_policyE2EE, ptr @_ZTISt16_Sp_counted_baseILN9__gnu_cxx12_Lock_policyE2EE }, comdat, align 8
@_ZTVN8facebook5velox11UnknownTypeE = linkonce_odr unnamed_addr constant { [18 x ptr], [5 x ptr] } { [18 x ptr] [ptr null, ptr @_ZTIN8facebook5velox11UnknownTypeE, ptr @_ZN8facebook5velox11UnknownTypeD2Ev, ptr @_ZN8facebook5velox11UnknownTypeD0Ev, ptr @_ZNK8facebook5velox11UnknownType4sizeEv, ptr @_ZNK8facebook5velox11UnknownType7childAtEj, ptr @_ZNK8facebook5velox8TypeBaseILNS0_8TypeKindE33EE15isPrimitiveTypeEv, ptr @_ZNK8facebook5velox8TypeBaseILNS0_8TypeKindE33EE12isComparableEv, ptr @_ZNK8facebook5velox8TypeBaseILNS0_8TypeKindE33EE11isOrderableEv, ptr @_ZNK8facebook5velox8TypeBaseILNS0_8TypeKindE33EE4nameEv, ptr @_ZNK8facebook5velox8TypeBaseILNS0_8TypeKindE33EE10parametersEv, ptr @_ZNK8facebook5velox8TypeBaseILNS0_8TypeKindE33EE8kindNameEv, ptr @_ZNK8facebook5velox11UnknownType8toStringB5cxx11Ev, ptr @_ZNK8facebook5velox11UnknownType10equivalentERKNS0_4TypeE, ptr @_ZNK8facebook5velox4TypeeqERKS1_, ptr @_ZNK8facebook5velox11UnknownType14cppSizeInBytesEv, ptr @_ZNK8facebook5velox8TypeBaseILNS0_8TypeKindE33EE12isFixedWidthEv, ptr @_ZNK8facebook5velox11UnknownType9serializeEv], [5 x ptr] [ptr inttoptr (i64 -8 to ptr), ptr @_ZTIN8facebook5velox11UnknownTypeE, ptr @_ZThn8_NK8facebook5velox11UnknownType9serializeEv, ptr @_ZThn8_N8facebook5velox11UnknownTypeD1Ev, ptr @_ZThn8_N8facebook5velox11UnknownTypeD0Ev] }, comdat, align 8
@_ZTSN8facebook5velox11UnknownTypeE = linkonce_odr constant [31 x i8] c"N8facebook5velox11UnknownTypeE\00", comdat, align 1
@_ZTSN8facebook5velox8TypeBaseILNS0_8TypeKindE33EEE = linkonce_odr constant [47 x i8] c"N8facebook5velox8TypeBaseILNS0_8TypeKindE33EEE\00", comdat, align 1
@_ZTIN8facebook5velox8TypeBaseILNS0_8TypeKindE33EEE = linkonce_odr constant { ptr, ptr, ptr } { ptr getelementptr inbounds (ptr, ptr @_ZTVN10__cxxabiv120__si_class_type_infoE, i64 2), ptr @_ZTSN8facebook5velox8TypeBaseILNS0_8TypeKindE33EEE, ptr @_ZTIN8facebook5velox4TypeE }, comdat, align 8
@_ZTIN8facebook5velox11UnknownTypeE = linkonce_odr constant { ptr, ptr, ptr } { ptr getelementptr inbounds (ptr, ptr @_ZTVN10__cxxabiv120__si_class_type_infoE, i64 2), ptr @_ZTSN8facebook5velox11UnknownTypeE, ptr @_ZTIN8facebook5velox8TypeBaseILNS0_8TypeKindE33EEE }, comdat, align 8
@.str.70 = private unnamed_addr constant [33 x i8] c"UnknownType type has no children\00", align 1
@_ZZNK8facebook5velox8TypeBaseILNS0_8TypeKindE33EE10parametersEvE6kEmpty = linkonce_odr global %"class.std::vector" zeroinitializer, comdat, align 8
@_ZGVZNK8facebook5velox8TypeBaseILNS0_8TypeKindE33EE10parametersEvE6kEmpty = linkonce_odr global i64 0, comdat, align 8
@_ZTSSt19_Sp_make_shared_tag = linkonce_odr constant [24 x i8] c"St19_Sp_make_shared_tag\00", comdat, align 1
@_ZZNSt19_Sp_make_shared_tag5_S_tiEvE5__tag = linkonce_odr constant [16 x i8] zeroinitializer, comdat, align 8
@.str.71 = private unnamed_addr constant [34 x i8] c" primitive type takes no children\00", align 1
@_ZZN8facebook5velox12_GLOBAL__N_113typeFactoriesB5cxx11EvE9factoriesB5cxx11 = internal global %"class.std::unordered_map.252" zeroinitializer, align 8
@_ZGVZN8facebook5velox12_GLOBAL__N_113typeFactoriesB5cxx11EvE9factoriesB5cxx11 = internal global i64 0, align 8
@_ZZN8facebook5velox12_GLOBAL__N_121singletonBuiltInTypesB5cxx11EvE6kTypesB5cxx11 = internal global %"class.std::unordered_map.289" zeroinitializer, align 8
@_ZGVZN8facebook5velox12_GLOBAL__N_121singletonBuiltInTypesB5cxx11EvE6kTypesB5cxx11 = internal global i64 0, align 8
@_ZZN8facebook5velox12_GLOBAL__N_122parametricBuiltinTypesB5cxx11EvE6kTypesB5cxx11 = internal global %"class.std::unordered_map.303" zeroinitializer, align 8
@_ZGVZN8facebook5velox12_GLOBAL__N_122parametricBuiltinTypesB5cxx11EvE6kTypesB5cxx11 = internal global i64 0, align 8
@_ZTVN10__cxxabiv119__pointer_type_infoE = external global [0 x ptr]
@_ZTSPFSt10shared_ptrIKN8facebook5velox4TypeEERKSt6vectorINS1_13TypeParameterESaIS6_EEE = linkonce_odr constant [83 x i8] c"PFSt10shared_ptrIKN8facebook5velox4TypeEERKSt6vectorINS1_13TypeParameterESaIS6_EEE\00", comdat, align 1
@_ZTVN10__cxxabiv120__function_type_infoE = external global [0 x ptr]
@_ZTSFSt10shared_ptrIKN8facebook5velox4TypeEERKSt6vectorINS1_13TypeParameterESaIS6_EEE = linkonce_odr constant [82 x i8] c"FSt10shared_ptrIKN8facebook5velox4TypeEERKSt6vectorINS1_13TypeParameterESaIS6_EEE\00", comdat, align 1
@_ZTIFSt10shared_ptrIKN8facebook5velox4TypeEERKSt6vectorINS1_13TypeParameterESaIS6_EEE = linkonce_odr constant { ptr, ptr } { ptr getelementptr inbounds (ptr, ptr @_ZTVN10__cxxabiv120__function_type_infoE, i64 2), ptr @_ZTSFSt10shared_ptrIKN8facebook5velox4TypeEERKSt6vectorINS1_13TypeParameterESaIS6_EEE }, comdat, align 8
@_ZTIPFSt10shared_ptrIKN8facebook5velox4TypeEERKSt6vectorINS1_13TypeParameterESaIS6_EEE = linkonce_odr constant { ptr, ptr, i32, ptr } { ptr getelementptr inbounds (ptr, ptr @_ZTVN10__cxxabiv119__pointer_type_infoE, i64 2), ptr @_ZTSPFSt10shared_ptrIKN8facebook5velox4TypeEERKSt6vectorINS1_13TypeParameterESaIS6_EEE, i32 0, ptr @_ZTIFSt10shared_ptrIKN8facebook5velox4TypeEERKSt6vectorINS1_13TypeParameterESaIS6_EEE }, comdat, align 8
@.str.72 = private unnamed_addr constant [25 x i8] c"Not a fixed width type: \00", align 1
@.str.73 = private unnamed_addr constant [32 x i8] c"OpaqueType type has no children\00", align 1
@.str.74 = private unnamed_addr constant [50 x i8] c"basic_string: construction from null is not valid\00", align 1
@.str.75 = private unnamed_addr constant [74 x i8] c"vector::_M_range_check: __n (which is %zu) >= this->size() (which is %zu)\00", align 1
@_ZTVSt23_Sp_counted_ptr_inplaceIKN8facebook5velox7RowTypeESaIvELN9__gnu_cxx12_Lock_policyE2EE = linkonce_odr unnamed_addr constant { [7 x ptr] } { [7 x ptr] [ptr null, ptr @_ZTISt23_Sp_counted_ptr_inplaceIKN8facebook5velox7RowTypeESaIvELN9__gnu_cxx12_Lock_policyE2EE, ptr @_ZNSt23_Sp_counted_ptr_inplaceIKN8facebook5velox7RowTypeESaIvELN9__gnu_cxx12_Lock_policyE2EED2Ev, ptr @_ZNSt23_Sp_counted_ptr_inplaceIKN8facebook5velox7RowTypeESaIvELN9__gnu_cxx12_Lock_policyE2EED0Ev, ptr @_ZNSt23_Sp_counted_ptr_inplaceIKN8facebook5velox7RowTypeESaIvELN9__gnu_cxx12_Lock_policyE2EE10_M_disposeEv, ptr @_ZNSt23_Sp_counted_ptr_inplaceIKN8facebook5velox7RowTypeESaIvELN9__gnu_cxx12_Lock_policyE2EE10_M_destroyEv, ptr @_ZNSt23_Sp_counted_ptr_inplaceIKN8facebook5velox7RowTypeESaIvELN9__gnu_cxx12_Lock_policyE2EE14_M_get_deleterERKSt9type_info] }, comdat, align 8
@_ZTSSt23_Sp_counted_ptr_inplaceIKN8facebook5velox7RowTypeESaIvELN9__gnu_cxx12_Lock_policyE2EE = linkonce_odr constant [90 x i8] c"St23_Sp_counted_ptr_inplaceIKN8facebook5velox7RowTypeESaIvELN9__gnu_cxx12_Lock_policyE2EE\00", comdat, align 1
@_ZTISt23_Sp_counted_ptr_inplaceIKN8facebook5velox7RowTypeESaIvELN9__gnu_cxx12_Lock_policyE2EE = linkonce_odr constant { ptr, ptr, ptr } { ptr getelementptr inbounds (ptr, ptr @_ZTVN10__cxxabiv120__si_class_type_infoE, i64 2), ptr @_ZTSSt23_Sp_counted_ptr_inplaceIKN8facebook5velox7RowTypeESaIvELN9__gnu_cxx12_Lock_policyE2EE, ptr @_ZTISt16_Sp_counted_baseILN9__gnu_cxx12_Lock_policyE2EE }, comdat, align 8
@_ZZN5folly3f146detail8F14TableINS1_19NodeContainerPolicyINSt7__cxx1112basic_stringIcSt11char_traitsIcESaIcEEESt8functionIFSt10shared_ptrIKN8facebook5velox13ISerializableEERKNS_7dynamicEEEvvvEEE10rehashImplEmmmmmE30__folly_detail_safe_assert_arg_0 = linkonce_odr constant %"struct.folly::detail::safe_assert_arg" { ptr @.str.62, ptr @.str.63, i32 1923, ptr @.str.61, ptr @_ZN5folly6detail21safe_assert_msg_typesINS0_22safe_assert_msg_type_sIJLNS0_20safe_assert_msg_typeE1EEEEE5valueE }, comdat, align 8
@_ZZN5folly3f146detail8F14ChunkIPSt4pairIKNSt7__cxx1112basic_stringIcSt11char_traitsIcESaIcEEESt8functionIFSt10shared_ptrIKN8facebook5velox13ISerializableEERKNS_7dynamicEEEEE6setTagEmmE30__folly_detail_safe_assert_arg_0 = linkonce_odr constant %"struct.folly::detail::safe_assert_arg" { ptr @.str.65, ptr @.str.63, i32 426, ptr @.str.64, ptr @_ZN5folly6detail21safe_assert_msg_typesINS0_22safe_assert_msg_type_sIJLNS0_20safe_assert_msg_typeE1EEEEE5valueE }, comdat, align 8
@_ZZN5folly3f146detail8F14ChunkIPSt4pairIKNSt7__cxx1112basic_stringIcSt11char_traitsIcESaIcEEESt8functionIFSt10shared_ptrIKN8facebook5velox13ISerializableEERKNS_7dynamicEEEEE8clearTagEmE30__folly_detail_safe_assert_arg = linkonce_odr constant %"struct.folly::detail::safe_assert_arg" { ptr @.str.67, ptr @.str.63, i32 431, ptr @.str.66, ptr @_ZN5folly6detail21safe_assert_msg_typesINS0_22safe_assert_msg_type_sIJLNS0_20safe_assert_msg_typeE1EEEEE5valueE }, comdat, align 8
@_ZTSPFSt10shared_ptrIKN8facebook5velox4TypeEERKN5folly7dynamicEE = linkonce_odr constant [61 x i8] c"PFSt10shared_ptrIKN8facebook5velox4TypeEERKN5folly7dynamicEE\00", comdat, align 1
@_ZTSFSt10shared_ptrIKN8facebook5velox4TypeEERKN5folly7dynamicEE = linkonce_odr constant [60 x i8] c"FSt10shared_ptrIKN8facebook5velox4TypeEERKN5folly7dynamicEE\00", comdat, align 1
@_ZTIFSt10shared_ptrIKN8facebook5velox4TypeEERKN5folly7dynamicEE = linkonce_odr constant { ptr, ptr } { ptr getelementptr inbounds (ptr, ptr @_ZTVN10__cxxabiv120__function_type_infoE, i64 2), ptr @_ZTSFSt10shared_ptrIKN8facebook5velox4TypeEERKN5folly7dynamicEE }, comdat, align 8
@_ZTIPFSt10shared_ptrIKN8facebook5velox4TypeEERKN5folly7dynamicEE = linkonce_odr constant { ptr, ptr, i32, ptr } { ptr getelementptr inbounds (ptr, ptr @_ZTVN10__cxxabiv119__pointer_type_infoE, i64 2), ptr @_ZTSPFSt10shared_ptrIKN8facebook5velox4TypeEERKN5folly7dynamicEE, i32 0, ptr @_ZTIFSt10shared_ptrIKN8facebook5velox4TypeEERKN5folly7dynamicEE }, comdat, align 8
@.str.76 = private unnamed_addr constant [49 x i8] c"cannot create std::vector larger than max_size()\00", align 1
@_ZTVSt23_Sp_counted_ptr_inplaceIN8facebook5velox7RowTypeESaIvELN9__gnu_cxx12_Lock_policyE2EE = linkonce_odr unnamed_addr constant { [7 x ptr] } { [7 x ptr] [ptr null, ptr @_ZTISt23_Sp_counted_ptr_inplaceIN8facebook5velox7RowTypeESaIvELN9__gnu_cxx12_Lock_policyE2EE, ptr @_ZNSt23_Sp_counted_ptr_inplaceIN8facebook5velox7RowTypeESaIvELN9__gnu_cxx12_Lock_policyE2EED2Ev, ptr @_ZNSt23_Sp_counted_ptr_inplaceIN8facebook5velox7RowTypeESaIvELN9__gnu_cxx12_Lock_policyE2EED0Ev, ptr @_ZNSt23_Sp_counted_ptr_inplaceIN8facebook5velox7RowTypeESaIvELN9__gnu_cxx12_Lock_policyE2EE10_M_disposeEv, ptr @_ZNSt23_Sp_counted_ptr_inplaceIN8facebook5velox7RowTypeESaIvELN9__gnu_cxx12_Lock_policyE2EE10_M_destroyEv, ptr @_ZNSt23_Sp_counted_ptr_inplaceIN8facebook5velox7RowTypeESaIvELN9__gnu_cxx12_Lock_policyE2EE14_M_get_deleterERKSt9type_info] }, comdat, align 8
@_ZTSSt23_Sp_counted_ptr_inplaceIN8facebook5velox7RowTypeESaIvELN9__gnu_cxx12_Lock_policyE2EE = linkonce_odr constant [89 x i8] c"St23_Sp_counted_ptr_inplaceIN8facebook5velox7RowTypeESaIvELN9__gnu_cxx12_Lock_policyE2EE\00", comdat, align 1
@_ZTISt23_Sp_counted_ptr_inplaceIN8facebook5velox7RowTypeESaIvELN9__gnu_cxx12_Lock_policyE2EE = linkonce_odr constant { ptr, ptr, ptr } { ptr getelementptr inbounds (ptr, ptr @_ZTVN10__cxxabiv120__si_class_type_infoE, i64 2), ptr @_ZTSSt23_Sp_counted_ptr_inplaceIN8facebook5velox7RowTypeESaIvELN9__gnu_cxx12_Lock_policyE2EE, ptr @_ZTISt16_Sp_counted_baseILN9__gnu_cxx12_Lock_policyE2EE }, comdat, align 8
@_ZTVSt23_Sp_counted_ptr_inplaceIKN8facebook5velox9ArrayTypeESaIvELN9__gnu_cxx12_Lock_policyE2EE = linkonce_odr unnamed_addr constant { [7 x ptr] } { [7 x ptr] [ptr null, ptr @_ZTISt23_Sp_counted_ptr_inplaceIKN8facebook5velox9ArrayTypeESaIvELN9__gnu_cxx12_Lock_policyE2EE, ptr @_ZNSt23_Sp_counted_ptr_inplaceIKN8facebook5velox9ArrayTypeESaIvELN9__gnu_cxx12_Lock_policyE2EED2Ev, ptr @_ZNSt23_Sp_counted_ptr_inplaceIKN8facebook5velox9ArrayTypeESaIvELN9__gnu_cxx12_Lock_policyE2EED0Ev, ptr @_ZNSt23_Sp_counted_ptr_inplaceIKN8facebook5velox9ArrayTypeESaIvELN9__gnu_cxx12_Lock_policyE2EE10_M_disposeEv, ptr @_ZNSt23_Sp_counted_ptr_inplaceIKN8facebook5velox9ArrayTypeESaIvELN9__gnu_cxx12_Lock_policyE2EE10_M_destroyEv, ptr @_ZNSt23_Sp_counted_ptr_inplaceIKN8facebook5velox9ArrayTypeESaIvELN9__gnu_cxx12_Lock_policyE2EE14_M_get_deleterERKSt9type_info] }, comdat, align 8
@_ZTSSt23_Sp_counted_ptr_inplaceIKN8facebook5velox9ArrayTypeESaIvELN9__gnu_cxx12_Lock_policyE2EE = linkonce_odr constant [92 x i8] c"St23_Sp_counted_ptr_inplaceIKN8facebook5velox9ArrayTypeESaIvELN9__gnu_cxx12_Lock_policyE2EE\00", comdat, align 1
@_ZTISt23_Sp_counted_ptr_inplaceIKN8facebook5velox9ArrayTypeESaIvELN9__gnu_cxx12_Lock_policyE2EE = linkonce_odr constant { ptr, ptr, ptr } { ptr getelementptr inbounds (ptr, ptr @_ZTVN10__cxxabiv120__si_class_type_infoE, i64 2), ptr @_ZTSSt23_Sp_counted_ptr_inplaceIKN8facebook5velox9ArrayTypeESaIvELN9__gnu_cxx12_Lock_policyE2EE, ptr @_ZTISt16_Sp_counted_baseILN9__gnu_cxx12_Lock_policyE2EE }, comdat, align 8
@_ZTVSt23_Sp_counted_ptr_inplaceIKN8facebook5velox7MapTypeESaIvELN9__gnu_cxx12_Lock_policyE2EE = linkonce_odr unnamed_addr constant { [7 x ptr] } { [7 x ptr] [ptr null, ptr @_ZTISt23_Sp_counted_ptr_inplaceIKN8facebook5velox7MapTypeESaIvELN9__gnu_cxx12_Lock_policyE2EE, ptr @_ZNSt23_Sp_counted_ptr_inplaceIKN8facebook5velox7MapTypeESaIvELN9__gnu_cxx12_Lock_policyE2EED2Ev, ptr @_ZNSt23_Sp_counted_ptr_inplaceIKN8facebook5velox7MapTypeESaIvELN9__gnu_cxx12_Lock_policyE2EED0Ev, ptr @_ZNSt23_Sp_counted_ptr_inplaceIKN8facebook5velox7MapTypeESaIvELN9__gnu_cxx12_Lock_policyE2EE10_M_disposeEv, ptr @_ZNSt23_Sp_counted_ptr_inplaceIKN8facebook5velox7MapTypeESaIvELN9__gnu_cxx12_Lock_policyE2EE10_M_destroyEv, ptr @_ZNSt23_Sp_counted_ptr_inplaceIKN8facebook5velox7MapTypeESaIvELN9__gnu_cxx12_Lock_policyE2EE14_M_get_deleterERKSt9type_info] }, comdat, align 8
@_ZTSSt23_Sp_counted_ptr_inplaceIKN8facebook5velox7MapTypeESaIvELN9__gnu_cxx12_Lock_policyE2EE = linkonce_odr constant [90 x i8] c"St23_Sp_counted_ptr_inplaceIKN8facebook5velox7MapTypeESaIvELN9__gnu_cxx12_Lock_policyE2EE\00", comdat, align 1
@_ZTISt23_Sp_counted_ptr_inplaceIKN8facebook5velox7MapTypeESaIvELN9__gnu_cxx12_Lock_policyE2EE = linkonce_odr constant { ptr, ptr, ptr } { ptr getelementptr inbounds (ptr, ptr @_ZTVN10__cxxabiv120__si_class_type_infoE, i64 2), ptr @_ZTSSt23_Sp_counted_ptr_inplaceIKN8facebook5velox7MapTypeESaIvELN9__gnu_cxx12_Lock_policyE2EE, ptr @_ZTISt16_Sp_counted_baseILN9__gnu_cxx12_Lock_policyE2EE }, comdat, align 8
@_ZTVSt23_Sp_counted_ptr_inplaceIKN8facebook5velox12FunctionTypeESaIvELN9__gnu_cxx12_Lock_policyE2EE = linkonce_odr unnamed_addr constant { [7 x ptr] } { [7 x ptr] [ptr null, ptr @_ZTISt23_Sp_counted_ptr_inplaceIKN8facebook5velox12FunctionTypeESaIvELN9__gnu_cxx12_Lock_policyE2EE, ptr @_ZNSt23_Sp_counted_ptr_inplaceIKN8facebook5velox12FunctionTypeESaIvELN9__gnu_cxx12_Lock_policyE2EED2Ev, ptr @_ZNSt23_Sp_counted_ptr_inplaceIKN8facebook5velox12FunctionTypeESaIvELN9__gnu_cxx12_Lock_policyE2EED0Ev, ptr @_ZNSt23_Sp_counted_ptr_inplaceIKN8facebook5velox12FunctionTypeESaIvELN9__gnu_cxx12_Lock_policyE2EE10_M_disposeEv, ptr @_ZNSt23_Sp_counted_ptr_inplaceIKN8facebook5velox12FunctionTypeESaIvELN9__gnu_cxx12_Lock_policyE2EE10_M_destroyEv, ptr @_ZNSt23_Sp_counted_ptr_inplaceIKN8facebook5velox12FunctionTypeESaIvELN9__gnu_cxx12_Lock_policyE2EE14_M_get_deleterERKSt9type_info] }, comdat, align 8
@_ZTSSt23_Sp_counted_ptr_inplaceIKN8facebook5velox12FunctionTypeESaIvELN9__gnu_cxx12_Lock_policyE2EE = linkonce_odr constant [96 x i8] c"St23_Sp_counted_ptr_inplaceIKN8facebook5velox12FunctionTypeESaIvELN9__gnu_cxx12_Lock_policyE2EE\00", comdat, align 1
@_ZTISt23_Sp_counted_ptr_inplaceIKN8facebook5velox12FunctionTypeESaIvELN9__gnu_cxx12_Lock_policyE2EE = linkonce_odr constant { ptr, ptr, ptr } { ptr getelementptr inbounds (ptr, ptr @_ZTVN10__cxxabiv120__si_class_type_infoE, i64 2), ptr @_ZTSSt23_Sp_counted_ptr_inplaceIKN8facebook5velox12FunctionTypeESaIvELN9__gnu_cxx12_Lock_policyE2EE, ptr @_ZTISt16_Sp_counted_baseILN9__gnu_cxx12_Lock_policyE2EE }, comdat, align 8
@_ZZN8facebook5velox10ScalarTypeILNS0_8TypeKindE3EE6createEvE8instance = linkonce_odr global %"class.std::shared_ptr.198" zeroinitializer, comdat, align 8
@_ZGVZN8facebook5velox10ScalarTypeILNS0_8TypeKindE3EE6createEvE8instance = linkonce_odr global i64 0, comdat, align 8
@_ZTVSt23_Sp_counted_ptr_inplaceIKN8facebook5velox10ScalarTypeILNS1_8TypeKindE3EEESaIvELN9__gnu_cxx12_Lock_policyE2EE = linkonce_odr unnamed_addr constant { [7 x ptr] } { [7 x ptr] [ptr null, ptr @_ZTISt23_Sp_counted_ptr_inplaceIKN8facebook5velox10ScalarTypeILNS1_8TypeKindE3EEESaIvELN9__gnu_cxx12_Lock_policyE2EE, ptr @_ZNSt23_Sp_counted_ptr_inplaceIKN8facebook5velox10ScalarTypeILNS1_8TypeKindE3EEESaIvELN9__gnu_cxx12_Lock_policyE2EED2Ev, ptr @_ZNSt23_Sp_counted_ptr_inplaceIKN8facebook5velox10ScalarTypeILNS1_8TypeKindE3EEESaIvELN9__gnu_cxx12_Lock_policyE2EED0Ev, ptr @_ZNSt23_Sp_counted_ptr_inplaceIKN8facebook5velox10ScalarTypeILNS1_8TypeKindE3EEESaIvELN9__gnu_cxx12_Lock_policyE2EE10_M_disposeEv, ptr @_ZNSt23_Sp_counted_ptr_inplaceIKN8facebook5velox10ScalarTypeILNS1_8TypeKindE3EEESaIvELN9__gnu_cxx12_Lock_policyE2EE10_M_destroyEv, ptr @_ZNSt23_Sp_counted_ptr_inplaceIKN8facebook5velox10ScalarTypeILNS1_8TypeKindE3EEESaIvELN9__gnu_cxx12_Lock_policyE2EE14_M_get_deleterERKSt9type_info] }, comdat, align 8
@_ZTSSt23_Sp_counted_ptr_inplaceIKN8facebook5velox10ScalarTypeILNS1_8TypeKindE3EEESaIvELN9__gnu_cxx12_Lock_policyE2EE = linkonce_odr constant [113 x i8] c"St23_Sp_counted_ptr_inplaceIKN8facebook5velox10ScalarTypeILNS1_8TypeKindE3EEESaIvELN9__gnu_cxx12_Lock_policyE2EE\00", comdat, align 1
@_ZTISt23_Sp_counted_ptr_inplaceIKN8facebook5velox10ScalarTypeILNS1_8TypeKindE3EEESaIvELN9__gnu_cxx12_Lock_policyE2EE = linkonce_odr constant { ptr, ptr, ptr } { ptr getelementptr inbounds (ptr, ptr @_ZTVN10__cxxabiv120__si_class_type_infoE, i64 2), ptr @_ZTSSt23_Sp_counted_ptr_inplaceIKN8facebook5velox10ScalarTypeILNS1_8TypeKindE3EEESaIvELN9__gnu_cxx12_Lock_policyE2EE, ptr @_ZTISt16_Sp_counted_baseILN9__gnu_cxx12_Lock_policyE2EE }, comdat, align 8
@_ZZN8facebook5velox10ScalarTypeILNS0_8TypeKindE0EE6createEvE8instance = linkonce_odr global %"class.std::shared_ptr.201" zeroinitializer, comdat, align 8
@_ZGVZN8facebook5velox10ScalarTypeILNS0_8TypeKindE0EE6createEvE8instance = linkonce_odr global i64 0, comdat, align 8
@_ZTVSt23_Sp_counted_ptr_inplaceIKN8facebook5velox10ScalarTypeILNS1_8TypeKindE0EEESaIvELN9__gnu_cxx12_Lock_policyE2EE = linkonce_odr unnamed_addr constant { [7 x ptr] } { [7 x ptr] [ptr null, ptr @_ZTISt23_Sp_counted_ptr_inplaceIKN8facebook5velox10ScalarTypeILNS1_8TypeKindE0EEESaIvELN9__gnu_cxx12_Lock_policyE2EE, ptr @_ZNSt23_Sp_counted_ptr_inplaceIKN8facebook5velox10ScalarTypeILNS1_8TypeKindE0EEESaIvELN9__gnu_cxx12_Lock_policyE2EED2Ev, ptr @_ZNSt23_Sp_counted_ptr_inplaceIKN8facebook5velox10ScalarTypeILNS1_8TypeKindE0EEESaIvELN9__gnu_cxx12_Lock_policyE2EED0Ev, ptr @_ZNSt23_Sp_counted_ptr_inplaceIKN8facebook5velox10ScalarTypeILNS1_8TypeKindE0EEESaIvELN9__gnu_cxx12_Lock_policyE2EE10_M_disposeEv, ptr @_ZNSt23_Sp_counted_ptr_inplaceIKN8facebook5velox10ScalarTypeILNS1_8TypeKindE0EEESaIvELN9__gnu_cxx12_Lock_policyE2EE10_M_destroyEv, ptr @_ZNSt23_Sp_counted_ptr_inplaceIKN8facebook5velox10ScalarTypeILNS1_8TypeKindE0EEESaIvELN9__gnu_cxx12_Lock_policyE2EE14_M_get_deleterERKSt9type_info] }, comdat, align 8
@_ZTSSt23_Sp_counted_ptr_inplaceIKN8facebook5velox10ScalarTypeILNS1_8TypeKindE0EEESaIvELN9__gnu_cxx12_Lock_policyE2EE = linkonce_odr constant [113 x i8] c"St23_Sp_counted_ptr_inplaceIKN8facebook5velox10ScalarTypeILNS1_8TypeKindE0EEESaIvELN9__gnu_cxx12_Lock_policyE2EE\00", comdat, align 1
@_ZTISt23_Sp_counted_ptr_inplaceIKN8facebook5velox10ScalarTypeILNS1_8TypeKindE0EEESaIvELN9__gnu_cxx12_Lock_policyE2EE = linkonce_odr constant { ptr, ptr, ptr } { ptr getelementptr inbounds (ptr, ptr @_ZTVN10__cxxabiv120__si_class_type_infoE, i64 2), ptr @_ZTSSt23_Sp_counted_ptr_inplaceIKN8facebook5velox10ScalarTypeILNS1_8TypeKindE0EEESaIvELN9__gnu_cxx12_Lock_policyE2EE, ptr @_ZTISt16_Sp_counted_baseILN9__gnu_cxx12_Lock_policyE2EE }, comdat, align 8
@_ZTVN8facebook5velox10ScalarTypeILNS0_8TypeKindE0EEE = linkonce_odr unnamed_addr constant { [18 x ptr], [5 x ptr] } { [18 x ptr] [ptr null, ptr @_ZTIN8facebook5velox10ScalarTypeILNS0_8TypeKindE0EEE, ptr @_ZN8facebook5velox10ScalarTypeILNS0_8TypeKindE0EED2Ev, ptr @_ZN8facebook5velox10ScalarTypeILNS0_8TypeKindE0EED0Ev, ptr @_ZNK8facebook5velox10ScalarTypeILNS0_8TypeKindE0EE4sizeEv, ptr @_ZNK8facebook5velox10ScalarTypeILNS0_8TypeKindE0EE7childAtEj, ptr @_ZNK8facebook5velox8TypeBaseILNS0_8TypeKindE0EE15isPrimitiveTypeEv, ptr @_ZNK8facebook5velox10ScalarTypeILNS0_8TypeKindE0EE12isComparableEv, ptr @_ZNK8facebook5velox10ScalarTypeILNS0_8TypeKindE0EE11isOrderableEv, ptr @_ZNK8facebook5velox8TypeBaseILNS0_8TypeKindE0EE4nameEv, ptr @_ZNK8facebook5velox8TypeBaseILNS0_8TypeKindE0EE10parametersEv, ptr @_ZNK8facebook5velox8TypeBaseILNS0_8TypeKindE0EE8kindNameEv, ptr @_ZNK8facebook5velox10ScalarTypeILNS0_8TypeKindE0EE8toStringB5cxx11Ev, ptr @_ZNK8facebook5velox10ScalarTypeILNS0_8TypeKindE0EE10equivalentERKNS0_4TypeE, ptr @_ZNK8facebook5velox4TypeeqERKS1_, ptr @_ZNK8facebook5velox10ScalarTypeILNS0_8TypeKindE0EE14cppSizeInBytesEv, ptr @_ZNK8facebook5velox8TypeBaseILNS0_8TypeKindE0EE12isFixedWidthEv, ptr @_ZNK8facebook5velox10ScalarTypeILNS0_8TypeKindE0EE9serializeEv], [5 x ptr] [ptr inttoptr (i64 -8 to ptr), ptr @_ZTIN8facebook5velox10ScalarTypeILNS0_8TypeKindE0EEE, ptr @_ZThn8_NK8facebook5velox10ScalarTypeILNS0_8TypeKindE0EE9serializeEv, ptr @_ZThn8_N8facebook5velox10ScalarTypeILNS0_8TypeKindE0EED1Ev, ptr @_ZThn8_N8facebook5velox10ScalarTypeILNS0_8TypeKindE0EED0Ev] }, comdat, align 8
@_ZTSN8facebook5velox10ScalarTypeILNS0_8TypeKindE0EEE = linkonce_odr constant [49 x i8] c"N8facebook5velox10ScalarTypeILNS0_8TypeKindE0EEE\00", comdat, align 1
@_ZTSN8facebook5velox8TypeBaseILNS0_8TypeKindE0EEE = linkonce_odr constant [46 x i8] c"N8facebook5velox8TypeBaseILNS0_8TypeKindE0EEE\00", comdat, align 1
@_ZTIN8facebook5velox8TypeBaseILNS0_8TypeKindE0EEE = linkonce_odr constant { ptr, ptr, ptr } { ptr getelementptr inbounds (ptr, ptr @_ZTVN10__cxxabiv120__si_class_type_infoE, i64 2), ptr @_ZTSN8facebook5velox8TypeBaseILNS0_8TypeKindE0EEE, ptr @_ZTIN8facebook5velox4TypeE }, comdat, align 8
@_ZTIN8facebook5velox10ScalarTypeILNS0_8TypeKindE0EEE = linkonce_odr constant { ptr, ptr, ptr } { ptr getelementptr inbounds (ptr, ptr @_ZTVN10__cxxabiv120__si_class_type_infoE, i64 2), ptr @_ZTSN8facebook5velox10ScalarTypeILNS0_8TypeKindE0EEE, ptr @_ZTIN8facebook5velox8TypeBaseILNS0_8TypeKindE0EEE }, comdat, align 8
@_ZZNK8facebook5velox8TypeBaseILNS0_8TypeKindE0EE10parametersEvE6kEmpty = linkonce_odr global %"class.std::vector" zeroinitializer, comdat, align 8
@_ZGVZNK8facebook5velox8TypeBaseILNS0_8TypeKindE0EE10parametersEvE6kEmpty = linkonce_odr global i64 0, comdat, align 8
@_ZZN8facebook5velox10ScalarTypeILNS0_8TypeKindE1EE6createEvE8instance = linkonce_odr global %"class.std::shared_ptr.204" zeroinitializer, comdat, align 8
@_ZGVZN8facebook5velox10ScalarTypeILNS0_8TypeKindE1EE6createEvE8instance = linkonce_odr global i64 0, comdat, align 8
@_ZTVSt23_Sp_counted_ptr_inplaceIKN8facebook5velox10ScalarTypeILNS1_8TypeKindE1EEESaIvELN9__gnu_cxx12_Lock_policyE2EE = linkonce_odr unnamed_addr constant { [7 x ptr] } { [7 x ptr] [ptr null, ptr @_ZTISt23_Sp_counted_ptr_inplaceIKN8facebook5velox10ScalarTypeILNS1_8TypeKindE1EEESaIvELN9__gnu_cxx12_Lock_policyE2EE, ptr @_ZNSt23_Sp_counted_ptr_inplaceIKN8facebook5velox10ScalarTypeILNS1_8TypeKindE1EEESaIvELN9__gnu_cxx12_Lock_policyE2EED2Ev, ptr @_ZNSt23_Sp_counted_ptr_inplaceIKN8facebook5velox10ScalarTypeILNS1_8TypeKindE1EEESaIvELN9__gnu_cxx12_Lock_policyE2EED0Ev, ptr @_ZNSt23_Sp_counted_ptr_inplaceIKN8facebook5velox10ScalarTypeILNS1_8TypeKindE1EEESaIvELN9__gnu_cxx12_Lock_policyE2EE10_M_disposeEv, ptr @_ZNSt23_Sp_counted_ptr_inplaceIKN8facebook5velox10ScalarTypeILNS1_8TypeKindE1EEESaIvELN9__gnu_cxx12_Lock_policyE2EE10_M_destroyEv, ptr @_ZNSt23_Sp_counted_ptr_inplaceIKN8facebook5velox10ScalarTypeILNS1_8TypeKindE1EEESaIvELN9__gnu_cxx12_Lock_policyE2EE14_M_get_deleterERKSt9type_info] }, comdat, align 8
@_ZTSSt23_Sp_counted_ptr_inplaceIKN8facebook5velox10ScalarTypeILNS1_8TypeKindE1EEESaIvELN9__gnu_cxx12_Lock_policyE2EE = linkonce_odr constant [113 x i8] c"St23_Sp_counted_ptr_inplaceIKN8facebook5velox10ScalarTypeILNS1_8TypeKindE1EEESaIvELN9__gnu_cxx12_Lock_policyE2EE\00", comdat, align 1
@_ZTISt23_Sp_counted_ptr_inplaceIKN8facebook5velox10ScalarTypeILNS1_8TypeKindE1EEESaIvELN9__gnu_cxx12_Lock_policyE2EE = linkonce_odr constant { ptr, ptr, ptr } { ptr getelementptr inbounds (ptr, ptr @_ZTVN10__cxxabiv120__si_class_type_infoE, i64 2), ptr @_ZTSSt23_Sp_counted_ptr_inplaceIKN8facebook5velox10ScalarTypeILNS1_8TypeKindE1EEESaIvELN9__gnu_cxx12_Lock_policyE2EE, ptr @_ZTISt16_Sp_counted_baseILN9__gnu_cxx12_Lock_policyE2EE }, comdat, align 8
@_ZTVN8facebook5velox10ScalarTypeILNS0_8TypeKindE1EEE = linkonce_odr unnamed_addr constant { [18 x ptr], [5 x ptr] } { [18 x ptr] [ptr null, ptr @_ZTIN8facebook5velox10ScalarTypeILNS0_8TypeKindE1EEE, ptr @_ZN8facebook5velox10ScalarTypeILNS0_8TypeKindE1EED2Ev, ptr @_ZN8facebook5velox10ScalarTypeILNS0_8TypeKindE1EED0Ev, ptr @_ZNK8facebook5velox10ScalarTypeILNS0_8TypeKindE1EE4sizeEv, ptr @_ZNK8facebook5velox10ScalarTypeILNS0_8TypeKindE1EE7childAtEj, ptr @_ZNK8facebook5velox8TypeBaseILNS0_8TypeKindE1EE15isPrimitiveTypeEv, ptr @_ZNK8facebook5velox10ScalarTypeILNS0_8TypeKindE1EE12isComparableEv, ptr @_ZNK8facebook5velox10ScalarTypeILNS0_8TypeKindE1EE11isOrderableEv, ptr @_ZNK8facebook5velox8TypeBaseILNS0_8TypeKindE1EE4nameEv, ptr @_ZNK8facebook5velox8TypeBaseILNS0_8TypeKindE1EE10parametersEv, ptr @_ZNK8facebook5velox8TypeBaseILNS0_8TypeKindE1EE8kindNameEv, ptr @_ZNK8facebook5velox10ScalarTypeILNS0_8TypeKindE1EE8toStringB5cxx11Ev, ptr @_ZNK8facebook5velox10ScalarTypeILNS0_8TypeKindE1EE10equivalentERKNS0_4TypeE, ptr @_ZNK8facebook5velox4TypeeqERKS1_, ptr @_ZNK8facebook5velox10ScalarTypeILNS0_8TypeKindE1EE14cppSizeInBytesEv, ptr @_ZNK8facebook5velox8TypeBaseILNS0_8TypeKindE1EE12isFixedWidthEv, ptr @_ZNK8facebook5velox10ScalarTypeILNS0_8TypeKindE1EE9serializeEv], [5 x ptr] [ptr inttoptr (i64 -8 to ptr), ptr @_ZTIN8facebook5velox10ScalarTypeILNS0_8TypeKindE1EEE, ptr @_ZThn8_NK8facebook5velox10ScalarTypeILNS0_8TypeKindE1EE9serializeEv, ptr @_ZThn8_N8facebook5velox10ScalarTypeILNS0_8TypeKindE1EED1Ev, ptr @_ZThn8_N8facebook5velox10ScalarTypeILNS0_8TypeKindE1EED0Ev] }, comdat, align 8
@_ZTSN8facebook5velox10ScalarTypeILNS0_8TypeKindE1EEE = linkonce_odr constant [49 x i8] c"N8facebook5velox10ScalarTypeILNS0_8TypeKindE1EEE\00", comdat, align 1
@_ZTSN8facebook5velox8TypeBaseILNS0_8TypeKindE1EEE = linkonce_odr constant [46 x i8] c"N8facebook5velox8TypeBaseILNS0_8TypeKindE1EEE\00", comdat, align 1
@_ZTIN8facebook5velox8TypeBaseILNS0_8TypeKindE1EEE = linkonce_odr constant { ptr, ptr, ptr } { ptr getelementptr inbounds (ptr, ptr @_ZTVN10__cxxabiv120__si_class_type_infoE, i64 2), ptr @_ZTSN8facebook5velox8TypeBaseILNS0_8TypeKindE1EEE, ptr @_ZTIN8facebook5velox4TypeE }, comdat, align 8
@_ZTIN8facebook5velox10ScalarTypeILNS0_8TypeKindE1EEE = linkonce_odr constant { ptr, ptr, ptr } { ptr getelementptr inbounds (ptr, ptr @_ZTVN10__cxxabiv120__si_class_type_infoE, i64 2), ptr @_ZTSN8facebook5velox10ScalarTypeILNS0_8TypeKindE1EEE, ptr @_ZTIN8facebook5velox8TypeBaseILNS0_8TypeKindE1EEE }, comdat, align 8
@_ZZNK8facebook5velox8TypeBaseILNS0_8TypeKindE1EE10parametersEvE6kEmpty = linkonce_odr global %"class.std::vector" zeroinitializer, comdat, align 8
@_ZGVZNK8facebook5velox8TypeBaseILNS0_8TypeKindE1EE10parametersEvE6kEmpty = linkonce_odr global i64 0, comdat, align 8
@_ZZN8facebook5velox10ScalarTypeILNS0_8TypeKindE2EE6createEvE8instance = linkonce_odr global %"class.std::shared_ptr.207" zeroinitializer, comdat, align 8
@_ZGVZN8facebook5velox10ScalarTypeILNS0_8TypeKindE2EE6createEvE8instance = linkonce_odr global i64 0, comdat, align 8
@_ZTVSt23_Sp_counted_ptr_inplaceIKN8facebook5velox10ScalarTypeILNS1_8TypeKindE2EEESaIvELN9__gnu_cxx12_Lock_policyE2EE = linkonce_odr unnamed_addr constant { [7 x ptr] } { [7 x ptr] [ptr null, ptr @_ZTISt23_Sp_counted_ptr_inplaceIKN8facebook5velox10ScalarTypeILNS1_8TypeKindE2EEESaIvELN9__gnu_cxx12_Lock_policyE2EE, ptr @_ZNSt23_Sp_counted_ptr_inplaceIKN8facebook5velox10ScalarTypeILNS1_8TypeKindE2EEESaIvELN9__gnu_cxx12_Lock_policyE2EED2Ev, ptr @_ZNSt23_Sp_counted_ptr_inplaceIKN8facebook5velox10ScalarTypeILNS1_8TypeKindE2EEESaIvELN9__gnu_cxx12_Lock_policyE2EED0Ev, ptr @_ZNSt23_Sp_counted_ptr_inplaceIKN8facebook5velox10ScalarTypeILNS1_8TypeKindE2EEESaIvELN9__gnu_cxx12_Lock_policyE2EE10_M_disposeEv, ptr @_ZNSt23_Sp_counted_ptr_inplaceIKN8facebook5velox10ScalarTypeILNS1_8TypeKindE2EEESaIvELN9__gnu_cxx12_Lock_policyE2EE10_M_destroyEv, ptr @_ZNSt23_Sp_counted_ptr_inplaceIKN8facebook5velox10ScalarTypeILNS1_8TypeKindE2EEESaIvELN9__gnu_cxx12_Lock_policyE2EE14_M_get_deleterERKSt9type_info] }, comdat, align 8
@_ZTSSt23_Sp_counted_ptr_inplaceIKN8facebook5velox10ScalarTypeILNS1_8TypeKindE2EEESaIvELN9__gnu_cxx12_Lock_policyE2EE = linkonce_odr constant [113 x i8] c"St23_Sp_counted_ptr_inplaceIKN8facebook5velox10ScalarTypeILNS1_8TypeKindE2EEESaIvELN9__gnu_cxx12_Lock_policyE2EE\00", comdat, align 1
@_ZTISt23_Sp_counted_ptr_inplaceIKN8facebook5velox10ScalarTypeILNS1_8TypeKindE2EEESaIvELN9__gnu_cxx12_Lock_policyE2EE = linkonce_odr constant { ptr, ptr, ptr } { ptr getelementptr inbounds (ptr, ptr @_ZTVN10__cxxabiv120__si_class_type_infoE, i64 2), ptr @_ZTSSt23_Sp_counted_ptr_inplaceIKN8facebook5velox10ScalarTypeILNS1_8TypeKindE2EEESaIvELN9__gnu_cxx12_Lock_policyE2EE, ptr @_ZTISt16_Sp_counted_baseILN9__gnu_cxx12_Lock_policyE2EE }, comdat, align 8
@_ZTVN8facebook5velox10ScalarTypeILNS0_8TypeKindE2EEE = linkonce_odr unnamed_addr constant { [18 x ptr], [5 x ptr] } { [18 x ptr] [ptr null, ptr @_ZTIN8facebook5velox10ScalarTypeILNS0_8TypeKindE2EEE, ptr @_ZN8facebook5velox10ScalarTypeILNS0_8TypeKindE2EED2Ev, ptr @_ZN8facebook5velox10ScalarTypeILNS0_8TypeKindE2EED0Ev, ptr @_ZNK8facebook5velox10ScalarTypeILNS0_8TypeKindE2EE4sizeEv, ptr @_ZNK8facebook5velox10ScalarTypeILNS0_8TypeKindE2EE7childAtEj, ptr @_ZNK8facebook5velox8TypeBaseILNS0_8TypeKindE2EE15isPrimitiveTypeEv, ptr @_ZNK8facebook5velox10ScalarTypeILNS0_8TypeKindE2EE12isComparableEv, ptr @_ZNK8facebook5velox10ScalarTypeILNS0_8TypeKindE2EE11isOrderableEv, ptr @_ZNK8facebook5velox8TypeBaseILNS0_8TypeKindE2EE4nameEv, ptr @_ZNK8facebook5velox8TypeBaseILNS0_8TypeKindE2EE10parametersEv, ptr @_ZNK8facebook5velox8TypeBaseILNS0_8TypeKindE2EE8kindNameEv, ptr @_ZNK8facebook5velox10ScalarTypeILNS0_8TypeKindE2EE8toStringB5cxx11Ev, ptr @_ZNK8facebook5velox10ScalarTypeILNS0_8TypeKindE2EE10equivalentERKNS0_4TypeE, ptr @_ZNK8facebook5velox4TypeeqERKS1_, ptr @_ZNK8facebook5velox10ScalarTypeILNS0_8TypeKindE2EE14cppSizeInBytesEv, ptr @_ZNK8facebook5velox8TypeBaseILNS0_8TypeKindE2EE12isFixedWidthEv, ptr @_ZNK8facebook5velox10ScalarTypeILNS0_8TypeKindE2EE9serializeEv], [5 x ptr] [ptr inttoptr (i64 -8 to ptr), ptr @_ZTIN8facebook5velox10ScalarTypeILNS0_8TypeKindE2EEE, ptr @_ZThn8_NK8facebook5velox10ScalarTypeILNS0_8TypeKindE2EE9serializeEv, ptr @_ZThn8_N8facebook5velox10ScalarTypeILNS0_8TypeKindE2EED1Ev, ptr @_ZThn8_N8facebook5velox10ScalarTypeILNS0_8TypeKindE2EED0Ev] }, comdat, align 8
@_ZTSN8facebook5velox10ScalarTypeILNS0_8TypeKindE2EEE = linkonce_odr constant [49 x i8] c"N8facebook5velox10ScalarTypeILNS0_8TypeKindE2EEE\00", comdat, align 1
@_ZTSN8facebook5velox8TypeBaseILNS0_8TypeKindE2EEE = linkonce_odr constant [46 x i8] c"N8facebook5velox8TypeBaseILNS0_8TypeKindE2EEE\00", comdat, align 1
@_ZTIN8facebook5velox8TypeBaseILNS0_8TypeKindE2EEE = linkonce_odr constant { ptr, ptr, ptr } { ptr getelementptr inbounds (ptr, ptr @_ZTVN10__cxxabiv120__si_class_type_infoE, i64 2), ptr @_ZTSN8facebook5velox8TypeBaseILNS0_8TypeKindE2EEE, ptr @_ZTIN8facebook5velox4TypeE }, comdat, align 8
@_ZTIN8facebook5velox10ScalarTypeILNS0_8TypeKindE2EEE = linkonce_odr constant { ptr, ptr, ptr } { ptr getelementptr inbounds (ptr, ptr @_ZTVN10__cxxabiv120__si_class_type_infoE, i64 2), ptr @_ZTSN8facebook5velox10ScalarTypeILNS0_8TypeKindE2EEE, ptr @_ZTIN8facebook5velox8TypeBaseILNS0_8TypeKindE2EEE }, comdat, align 8
@_ZZNK8facebook5velox8TypeBaseILNS0_8TypeKindE2EE10parametersEvE6kEmpty = linkonce_odr global %"class.std::vector" zeroinitializer, comdat, align 8
@_ZGVZNK8facebook5velox8TypeBaseILNS0_8TypeKindE2EE10parametersEvE6kEmpty = linkonce_odr global i64 0, comdat, align 8
@_ZZN8facebook5velox10ScalarTypeILNS0_8TypeKindE4EE6createEvE8instance = linkonce_odr global %"class.std::shared_ptr.210" zeroinitializer, comdat, align 8
@_ZGVZN8facebook5velox10ScalarTypeILNS0_8TypeKindE4EE6createEvE8instance = linkonce_odr global i64 0, comdat, align 8
@_ZTVSt23_Sp_counted_ptr_inplaceIKN8facebook5velox10ScalarTypeILNS1_8TypeKindE4EEESaIvELN9__gnu_cxx12_Lock_policyE2EE = linkonce_odr unnamed_addr constant { [7 x ptr] } { [7 x ptr] [ptr null, ptr @_ZTISt23_Sp_counted_ptr_inplaceIKN8facebook5velox10ScalarTypeILNS1_8TypeKindE4EEESaIvELN9__gnu_cxx12_Lock_policyE2EE, ptr @_ZNSt23_Sp_counted_ptr_inplaceIKN8facebook5velox10ScalarTypeILNS1_8TypeKindE4EEESaIvELN9__gnu_cxx12_Lock_policyE2EED2Ev, ptr @_ZNSt23_Sp_counted_ptr_inplaceIKN8facebook5velox10ScalarTypeILNS1_8TypeKindE4EEESaIvELN9__gnu_cxx12_Lock_policyE2EED0Ev, ptr @_ZNSt23_Sp_counted_ptr_inplaceIKN8facebook5velox10ScalarTypeILNS1_8TypeKindE4EEESaIvELN9__gnu_cxx12_Lock_policyE2EE10_M_disposeEv, ptr @_ZNSt23_Sp_counted_ptr_inplaceIKN8facebook5velox10ScalarTypeILNS1_8TypeKindE4EEESaIvELN9__gnu_cxx12_Lock_policyE2EE10_M_destroyEv, ptr @_ZNSt23_Sp_counted_ptr_inplaceIKN8facebook5velox10ScalarTypeILNS1_8TypeKindE4EEESaIvELN9__gnu_cxx12_Lock_policyE2EE14_M_get_deleterERKSt9type_info] }, comdat, align 8
@_ZTSSt23_Sp_counted_ptr_inplaceIKN8facebook5velox10ScalarTypeILNS1_8TypeKindE4EEESaIvELN9__gnu_cxx12_Lock_policyE2EE = linkonce_odr constant [113 x i8] c"St23_Sp_counted_ptr_inplaceIKN8facebook5velox10ScalarTypeILNS1_8TypeKindE4EEESaIvELN9__gnu_cxx12_Lock_policyE2EE\00", comdat, align 1
@_ZTISt23_Sp_counted_ptr_inplaceIKN8facebook5velox10ScalarTypeILNS1_8TypeKindE4EEESaIvELN9__gnu_cxx12_Lock_policyE2EE = linkonce_odr constant { ptr, ptr, ptr } { ptr getelementptr inbounds (ptr, ptr @_ZTVN10__cxxabiv120__si_class_type_infoE, i64 2), ptr @_ZTSSt23_Sp_counted_ptr_inplaceIKN8facebook5velox10ScalarTypeILNS1_8TypeKindE4EEESaIvELN9__gnu_cxx12_Lock_policyE2EE, ptr @_ZTISt16_Sp_counted_baseILN9__gnu_cxx12_Lock_policyE2EE }, comdat, align 8
@_ZZN8facebook5velox10ScalarTypeILNS0_8TypeKindE10EE6createEvE8instance = linkonce_odr global %"class.std::shared_ptr.213" zeroinitializer, comdat, align 8
@_ZGVZN8facebook5velox10ScalarTypeILNS0_8TypeKindE10EE6createEvE8instance = linkonce_odr global i64 0, comdat, align 8
@_ZTVSt23_Sp_counted_ptr_inplaceIKN8facebook5velox10ScalarTypeILNS1_8TypeKindE10EEESaIvELN9__gnu_cxx12_Lock_policyE2EE = linkonce_odr unnamed_addr constant { [7 x ptr] } { [7 x ptr] [ptr null, ptr @_ZTISt23_Sp_counted_ptr_inplaceIKN8facebook5velox10ScalarTypeILNS1_8TypeKindE10EEESaIvELN9__gnu_cxx12_Lock_policyE2EE, ptr @_ZNSt23_Sp_counted_ptr_inplaceIKN8facebook5velox10ScalarTypeILNS1_8TypeKindE10EEESaIvELN9__gnu_cxx12_Lock_policyE2EED2Ev, ptr @_ZNSt23_Sp_counted_ptr_inplaceIKN8facebook5velox10ScalarTypeILNS1_8TypeKindE10EEESaIvELN9__gnu_cxx12_Lock_policyE2EED0Ev, ptr @_ZNSt23_Sp_counted_ptr_inplaceIKN8facebook5velox10ScalarTypeILNS1_8TypeKindE10EEESaIvELN9__gnu_cxx12_Lock_policyE2EE10_M_disposeEv, ptr @_ZNSt23_Sp_counted_ptr_inplaceIKN8facebook5velox10ScalarTypeILNS1_8TypeKindE10EEESaIvELN9__gnu_cxx12_Lock_policyE2EE10_M_destroyEv, ptr @_ZNSt23_Sp_counted_ptr_inplaceIKN8facebook5velox10ScalarTypeILNS1_8TypeKindE10EEESaIvELN9__gnu_cxx12_Lock_policyE2EE14_M_get_deleterERKSt9type_info] }, comdat, align 8
@_ZTSSt23_Sp_counted_ptr_inplaceIKN8facebook5velox10ScalarTypeILNS1_8TypeKindE10EEESaIvELN9__gnu_cxx12_Lock_policyE2EE = linkonce_odr constant [114 x i8] c"St23_Sp_counted_ptr_inplaceIKN8facebook5velox10ScalarTypeILNS1_8TypeKindE10EEESaIvELN9__gnu_cxx12_Lock_policyE2EE\00", comdat, align 1
@_ZTISt23_Sp_counted_ptr_inplaceIKN8facebook5velox10ScalarTypeILNS1_8TypeKindE10EEESaIvELN9__gnu_cxx12_Lock_policyE2EE = linkonce_odr constant { ptr, ptr, ptr } { ptr getelementptr inbounds (ptr, ptr @_ZTVN10__cxxabiv120__si_class_type_infoE, i64 2), ptr @_ZTSSt23_Sp_counted_ptr_inplaceIKN8facebook5velox10ScalarTypeILNS1_8TypeKindE10EEESaIvELN9__gnu_cxx12_Lock_policyE2EE, ptr @_ZTISt16_Sp_counted_baseILN9__gnu_cxx12_Lock_policyE2EE }, comdat, align 8
@_ZTVN8facebook5velox10ScalarTypeILNS0_8TypeKindE10EEE = linkonce_odr unnamed_addr constant { [18 x ptr], [5 x ptr] } { [18 x ptr] [ptr null, ptr @_ZTIN8facebook5velox10ScalarTypeILNS0_8TypeKindE10EEE, ptr @_ZN8facebook5velox10ScalarTypeILNS0_8TypeKindE10EED2Ev, ptr @_ZN8facebook5velox10ScalarTypeILNS0_8TypeKindE10EED0Ev, ptr @_ZNK8facebook5velox10ScalarTypeILNS0_8TypeKindE10EE4sizeEv, ptr @_ZNK8facebook5velox10ScalarTypeILNS0_8TypeKindE10EE7childAtEj, ptr @_ZNK8facebook5velox8TypeBaseILNS0_8TypeKindE10EE15isPrimitiveTypeEv, ptr @_ZNK8facebook5velox10ScalarTypeILNS0_8TypeKindE10EE12isComparableEv, ptr @_ZNK8facebook5velox10ScalarTypeILNS0_8TypeKindE10EE11isOrderableEv, ptr @_ZNK8facebook5velox8TypeBaseILNS0_8TypeKindE10EE4nameEv, ptr @_ZNK8facebook5velox8TypeBaseILNS0_8TypeKindE10EE10parametersEv, ptr @_ZNK8facebook5velox8TypeBaseILNS0_8TypeKindE10EE8kindNameEv, ptr @_ZNK8facebook5velox10ScalarTypeILNS0_8TypeKindE10EE8toStringB5cxx11Ev, ptr @_ZNK8facebook5velox10ScalarTypeILNS0_8TypeKindE10EE10equivalentERKNS0_4TypeE, ptr @_ZNK8facebook5velox4TypeeqERKS1_, ptr @_ZNK8facebook5velox10ScalarTypeILNS0_8TypeKindE10EE14cppSizeInBytesEv, ptr @_ZNK8facebook5velox8TypeBaseILNS0_8TypeKindE10EE12isFixedWidthEv, ptr @_ZNK8facebook5velox10ScalarTypeILNS0_8TypeKindE10EE9serializeEv], [5 x ptr] [ptr inttoptr (i64 -8 to ptr), ptr @_ZTIN8facebook5velox10ScalarTypeILNS0_8TypeKindE10EEE, ptr @_ZThn8_NK8facebook5velox10ScalarTypeILNS0_8TypeKindE10EE9serializeEv, ptr @_ZThn8_N8facebook5velox10ScalarTypeILNS0_8TypeKindE10EED1Ev, ptr @_ZThn8_N8facebook5velox10ScalarTypeILNS0_8TypeKindE10EED0Ev] }, comdat, align 8
@_ZZNK8facebook5velox8TypeBaseILNS0_8TypeKindE10EE10parametersEvE6kEmpty = linkonce_odr global %"class.std::vector" zeroinitializer, comdat, align 8
@_ZGVZNK8facebook5velox8TypeBaseILNS0_8TypeKindE10EE10parametersEvE6kEmpty = linkonce_odr global i64 0, comdat, align 8
@_ZZN8facebook5velox10ScalarTypeILNS0_8TypeKindE5EE6createEvE8instance = linkonce_odr global %"class.std::shared_ptr.216" zeroinitializer, comdat, align 8
@_ZGVZN8facebook5velox10ScalarTypeILNS0_8TypeKindE5EE6createEvE8instance = linkonce_odr global i64 0, comdat, align 8
@_ZTVSt23_Sp_counted_ptr_inplaceIKN8facebook5velox10ScalarTypeILNS1_8TypeKindE5EEESaIvELN9__gnu_cxx12_Lock_policyE2EE = linkonce_odr unnamed_addr constant { [7 x ptr] } { [7 x ptr] [ptr null, ptr @_ZTISt23_Sp_counted_ptr_inplaceIKN8facebook5velox10ScalarTypeILNS1_8TypeKindE5EEESaIvELN9__gnu_cxx12_Lock_policyE2EE, ptr @_ZNSt23_Sp_counted_ptr_inplaceIKN8facebook5velox10ScalarTypeILNS1_8TypeKindE5EEESaIvELN9__gnu_cxx12_Lock_policyE2EED2Ev, ptr @_ZNSt23_Sp_counted_ptr_inplaceIKN8facebook5velox10ScalarTypeILNS1_8TypeKindE5EEESaIvELN9__gnu_cxx12_Lock_policyE2EED0Ev, ptr @_ZNSt23_Sp_counted_ptr_inplaceIKN8facebook5velox10ScalarTypeILNS1_8TypeKindE5EEESaIvELN9__gnu_cxx12_Lock_policyE2EE10_M_disposeEv, ptr @_ZNSt23_Sp_counted_ptr_inplaceIKN8facebook5velox10ScalarTypeILNS1_8TypeKindE5EEESaIvELN9__gnu_cxx12_Lock_policyE2EE10_M_destroyEv, ptr @_ZNSt23_Sp_counted_ptr_inplaceIKN8facebook5velox10ScalarTypeILNS1_8TypeKindE5EEESaIvELN9__gnu_cxx12_Lock_policyE2EE14_M_get_deleterERKSt9type_info] }, comdat, align 8
@_ZTSSt23_Sp_counted_ptr_inplaceIKN8facebook5velox10ScalarTypeILNS1_8TypeKindE5EEESaIvELN9__gnu_cxx12_Lock_policyE2EE = linkonce_odr constant [113 x i8] c"St23_Sp_counted_ptr_inplaceIKN8facebook5velox10ScalarTypeILNS1_8TypeKindE5EEESaIvELN9__gnu_cxx12_Lock_policyE2EE\00", comdat, align 1
@_ZTISt23_Sp_counted_ptr_inplaceIKN8facebook5velox10ScalarTypeILNS1_8TypeKindE5EEESaIvELN9__gnu_cxx12_Lock_policyE2EE = linkonce_odr constant { ptr, ptr, ptr } { ptr getelementptr inbounds (ptr, ptr @_ZTVN10__cxxabiv120__si_class_type_infoE, i64 2), ptr @_ZTSSt23_Sp_counted_ptr_inplaceIKN8facebook5velox10ScalarTypeILNS1_8TypeKindE5EEESaIvELN9__gnu_cxx12_Lock_policyE2EE, ptr @_ZTISt16_Sp_counted_baseILN9__gnu_cxx12_Lock_policyE2EE }, comdat, align 8
@_ZTVN8facebook5velox10ScalarTypeILNS0_8TypeKindE5EEE = linkonce_odr unnamed_addr constant { [18 x ptr], [5 x ptr] } { [18 x ptr] [ptr null, ptr @_ZTIN8facebook5velox10ScalarTypeILNS0_8TypeKindE5EEE, ptr @_ZN8facebook5velox10ScalarTypeILNS0_8TypeKindE5EED2Ev, ptr @_ZN8facebook5velox10ScalarTypeILNS0_8TypeKindE5EED0Ev, ptr @_ZNK8facebook5velox10ScalarTypeILNS0_8TypeKindE5EE4sizeEv, ptr @_ZNK8facebook5velox10ScalarTypeILNS0_8TypeKindE5EE7childAtEj, ptr @_ZNK8facebook5velox8TypeBaseILNS0_8TypeKindE5EE15isPrimitiveTypeEv, ptr @_ZNK8facebook5velox10ScalarTypeILNS0_8TypeKindE5EE12isComparableEv, ptr @_ZNK8facebook5velox10ScalarTypeILNS0_8TypeKindE5EE11isOrderableEv, ptr @_ZNK8facebook5velox8TypeBaseILNS0_8TypeKindE5EE4nameEv, ptr @_ZNK8facebook5velox8TypeBaseILNS0_8TypeKindE5EE10parametersEv, ptr @_ZNK8facebook5velox8TypeBaseILNS0_8TypeKindE5EE8kindNameEv, ptr @_ZNK8facebook5velox10ScalarTypeILNS0_8TypeKindE5EE8toStringB5cxx11Ev, ptr @_ZNK8facebook5velox10ScalarTypeILNS0_8TypeKindE5EE10equivalentERKNS0_4TypeE, ptr @_ZNK8facebook5velox4TypeeqERKS1_, ptr @_ZNK8facebook5velox10ScalarTypeILNS0_8TypeKindE5EE14cppSizeInBytesEv, ptr @_ZNK8facebook5velox8TypeBaseILNS0_8TypeKindE5EE12isFixedWidthEv, ptr @_ZNK8facebook5velox10ScalarTypeILNS0_8TypeKindE5EE9serializeEv], [5 x ptr] [ptr inttoptr (i64 -8 to ptr), ptr @_ZTIN8facebook5velox10ScalarTypeILNS0_8TypeKindE5EEE, ptr @_ZThn8_NK8facebook5velox10ScalarTypeILNS0_8TypeKindE5EE9serializeEv, ptr @_ZThn8_N8facebook5velox10ScalarTypeILNS0_8TypeKindE5EED1Ev, ptr @_ZThn8_N8facebook5velox10ScalarTypeILNS0_8TypeKindE5EED0Ev] }, comdat, align 8
@_ZTSN8facebook5velox10ScalarTypeILNS0_8TypeKindE5EEE = linkonce_odr constant [49 x i8] c"N8facebook5velox10ScalarTypeILNS0_8TypeKindE5EEE\00", comdat, align 1
@_ZTSN8facebook5velox8TypeBaseILNS0_8TypeKindE5EEE = linkonce_odr constant [46 x i8] c"N8facebook5velox8TypeBaseILNS0_8TypeKindE5EEE\00", comdat, align 1
@_ZTIN8facebook5velox8TypeBaseILNS0_8TypeKindE5EEE = linkonce_odr constant { ptr, ptr, ptr } { ptr getelementptr inbounds (ptr, ptr @_ZTVN10__cxxabiv120__si_class_type_infoE, i64 2), ptr @_ZTSN8facebook5velox8TypeBaseILNS0_8TypeKindE5EEE, ptr @_ZTIN8facebook5velox4TypeE }, comdat, align 8
@_ZTIN8facebook5velox10ScalarTypeILNS0_8TypeKindE5EEE = linkonce_odr constant { ptr, ptr, ptr } { ptr getelementptr inbounds (ptr, ptr @_ZTVN10__cxxabiv120__si_class_type_infoE, i64 2), ptr @_ZTSN8facebook5velox10ScalarTypeILNS0_8TypeKindE5EEE, ptr @_ZTIN8facebook5velox8TypeBaseILNS0_8TypeKindE5EEE }, comdat, align 8
@_ZZNK8facebook5velox8TypeBaseILNS0_8TypeKindE5EE10parametersEvE6kEmpty = linkonce_odr global %"class.std::vector" zeroinitializer, comdat, align 8
@_ZGVZNK8facebook5velox8TypeBaseILNS0_8TypeKindE5EE10parametersEvE6kEmpty = linkonce_odr global i64 0, comdat, align 8
@_ZZN8facebook5velox10ScalarTypeILNS0_8TypeKindE6EE6createEvE8instance = linkonce_odr global %"class.std::shared_ptr.219" zeroinitializer, comdat, align 8
@_ZGVZN8facebook5velox10ScalarTypeILNS0_8TypeKindE6EE6createEvE8instance = linkonce_odr global i64 0, comdat, align 8
@_ZTVSt23_Sp_counted_ptr_inplaceIKN8facebook5velox10ScalarTypeILNS1_8TypeKindE6EEESaIvELN9__gnu_cxx12_Lock_policyE2EE = linkonce_odr unnamed_addr constant { [7 x ptr] } { [7 x ptr] [ptr null, ptr @_ZTISt23_Sp_counted_ptr_inplaceIKN8facebook5velox10ScalarTypeILNS1_8TypeKindE6EEESaIvELN9__gnu_cxx12_Lock_policyE2EE, ptr @_ZNSt23_Sp_counted_ptr_inplaceIKN8facebook5velox10ScalarTypeILNS1_8TypeKindE6EEESaIvELN9__gnu_cxx12_Lock_policyE2EED2Ev, ptr @_ZNSt23_Sp_counted_ptr_inplaceIKN8facebook5velox10ScalarTypeILNS1_8TypeKindE6EEESaIvELN9__gnu_cxx12_Lock_policyE2EED0Ev, ptr @_ZNSt23_Sp_counted_ptr_inplaceIKN8facebook5velox10ScalarTypeILNS1_8TypeKindE6EEESaIvELN9__gnu_cxx12_Lock_policyE2EE10_M_disposeEv, ptr @_ZNSt23_Sp_counted_ptr_inplaceIKN8facebook5velox10ScalarTypeILNS1_8TypeKindE6EEESaIvELN9__gnu_cxx12_Lock_policyE2EE10_M_destroyEv, ptr @_ZNSt23_Sp_counted_ptr_inplaceIKN8facebook5velox10ScalarTypeILNS1_8TypeKindE6EEESaIvELN9__gnu_cxx12_Lock_policyE2EE14_M_get_deleterERKSt9type_info] }, comdat, align 8
@_ZTSSt23_Sp_counted_ptr_inplaceIKN8facebook5velox10ScalarTypeILNS1_8TypeKindE6EEESaIvELN9__gnu_cxx12_Lock_policyE2EE = linkonce_odr constant [113 x i8] c"St23_Sp_counted_ptr_inplaceIKN8facebook5velox10ScalarTypeILNS1_8TypeKindE6EEESaIvELN9__gnu_cxx12_Lock_policyE2EE\00", comdat, align 1
@_ZTISt23_Sp_counted_ptr_inplaceIKN8facebook5velox10ScalarTypeILNS1_8TypeKindE6EEESaIvELN9__gnu_cxx12_Lock_policyE2EE = linkonce_odr constant { ptr, ptr, ptr } { ptr getelementptr inbounds (ptr, ptr @_ZTVN10__cxxabiv120__si_class_type_infoE, i64 2), ptr @_ZTSSt23_Sp_counted_ptr_inplaceIKN8facebook5velox10ScalarTypeILNS1_8TypeKindE6EEESaIvELN9__gnu_cxx12_Lock_policyE2EE, ptr @_ZTISt16_Sp_counted_baseILN9__gnu_cxx12_Lock_policyE2EE }, comdat, align 8
@_ZTVN8facebook5velox10ScalarTypeILNS0_8TypeKindE6EEE = linkonce_odr unnamed_addr constant { [18 x ptr], [5 x ptr] } { [18 x ptr] [ptr null, ptr @_ZTIN8facebook5velox10ScalarTypeILNS0_8TypeKindE6EEE, ptr @_ZN8facebook5velox10ScalarTypeILNS0_8TypeKindE6EED2Ev, ptr @_ZN8facebook5velox10ScalarTypeILNS0_8TypeKindE6EED0Ev, ptr @_ZNK8facebook5velox10ScalarTypeILNS0_8TypeKindE6EE4sizeEv, ptr @_ZNK8facebook5velox10ScalarTypeILNS0_8TypeKindE6EE7childAtEj, ptr @_ZNK8facebook5velox8TypeBaseILNS0_8TypeKindE6EE15isPrimitiveTypeEv, ptr @_ZNK8facebook5velox10ScalarTypeILNS0_8TypeKindE6EE12isComparableEv, ptr @_ZNK8facebook5velox10ScalarTypeILNS0_8TypeKindE6EE11isOrderableEv, ptr @_ZNK8facebook5velox8TypeBaseILNS0_8TypeKindE6EE4nameEv, ptr @_ZNK8facebook5velox8TypeBaseILNS0_8TypeKindE6EE10parametersEv, ptr @_ZNK8facebook5velox8TypeBaseILNS0_8TypeKindE6EE8kindNameEv, ptr @_ZNK8facebook5velox10ScalarTypeILNS0_8TypeKindE6EE8toStringB5cxx11Ev, ptr @_ZNK8facebook5velox10ScalarTypeILNS0_8TypeKindE6EE10equivalentERKNS0_4TypeE, ptr @_ZNK8facebook5velox4TypeeqERKS1_, ptr @_ZNK8facebook5velox10ScalarTypeILNS0_8TypeKindE6EE14cppSizeInBytesEv, ptr @_ZNK8facebook5velox8TypeBaseILNS0_8TypeKindE6EE12isFixedWidthEv, ptr @_ZNK8facebook5velox10ScalarTypeILNS0_8TypeKindE6EE9serializeEv], [5 x ptr] [ptr inttoptr (i64 -8 to ptr), ptr @_ZTIN8facebook5velox10ScalarTypeILNS0_8TypeKindE6EEE, ptr @_ZThn8_NK8facebook5velox10ScalarTypeILNS0_8TypeKindE6EE9serializeEv, ptr @_ZThn8_N8facebook5velox10ScalarTypeILNS0_8TypeKindE6EED1Ev, ptr @_ZThn8_N8facebook5velox10ScalarTypeILNS0_8TypeKindE6EED0Ev] }, comdat, align 8
@_ZTSN8facebook5velox10ScalarTypeILNS0_8TypeKindE6EEE = linkonce_odr constant [49 x i8] c"N8facebook5velox10ScalarTypeILNS0_8TypeKindE6EEE\00", comdat, align 1
@_ZTSN8facebook5velox8TypeBaseILNS0_8TypeKindE6EEE = linkonce_odr constant [46 x i8] c"N8facebook5velox8TypeBaseILNS0_8TypeKindE6EEE\00", comdat, align 1
@_ZTIN8facebook5velox8TypeBaseILNS0_8TypeKindE6EEE = linkonce_odr constant { ptr, ptr, ptr } { ptr getelementptr inbounds (ptr, ptr @_ZTVN10__cxxabiv120__si_class_type_infoE, i64 2), ptr @_ZTSN8facebook5velox8TypeBaseILNS0_8TypeKindE6EEE, ptr @_ZTIN8facebook5velox4TypeE }, comdat, align 8
@_ZTIN8facebook5velox10ScalarTypeILNS0_8TypeKindE6EEE = linkonce_odr constant { ptr, ptr, ptr } { ptr getelementptr inbounds (ptr, ptr @_ZTVN10__cxxabiv120__si_class_type_infoE, i64 2), ptr @_ZTSN8facebook5velox10ScalarTypeILNS0_8TypeKindE6EEE, ptr @_ZTIN8facebook5velox8TypeBaseILNS0_8TypeKindE6EEE }, comdat, align 8
@_ZZNK8facebook5velox8TypeBaseILNS0_8TypeKindE6EE10parametersEvE6kEmpty = linkonce_odr global %"class.std::vector" zeroinitializer, comdat, align 8
@_ZGVZNK8facebook5velox8TypeBaseILNS0_8TypeKindE6EE10parametersEvE6kEmpty = linkonce_odr global i64 0, comdat, align 8
@_ZZN8facebook5velox10ScalarTypeILNS0_8TypeKindE9EE6createEvE8instance = linkonce_odr global %"class.std::shared_ptr.222" zeroinitializer, comdat, align 8
@_ZGVZN8facebook5velox10ScalarTypeILNS0_8TypeKindE9EE6createEvE8instance = linkonce_odr global i64 0, comdat, align 8
@_ZTVSt23_Sp_counted_ptr_inplaceIKN8facebook5velox10ScalarTypeILNS1_8TypeKindE9EEESaIvELN9__gnu_cxx12_Lock_policyE2EE = linkonce_odr unnamed_addr constant { [7 x ptr] } { [7 x ptr] [ptr null, ptr @_ZTISt23_Sp_counted_ptr_inplaceIKN8facebook5velox10ScalarTypeILNS1_8TypeKindE9EEESaIvELN9__gnu_cxx12_Lock_policyE2EE, ptr @_ZNSt23_Sp_counted_ptr_inplaceIKN8facebook5velox10ScalarTypeILNS1_8TypeKindE9EEESaIvELN9__gnu_cxx12_Lock_policyE2EED2Ev, ptr @_ZNSt23_Sp_counted_ptr_inplaceIKN8facebook5velox10ScalarTypeILNS1_8TypeKindE9EEESaIvELN9__gnu_cxx12_Lock_policyE2EED0Ev, ptr @_ZNSt23_Sp_counted_ptr_inplaceIKN8facebook5velox10ScalarTypeILNS1_8TypeKindE9EEESaIvELN9__gnu_cxx12_Lock_policyE2EE10_M_disposeEv, ptr @_ZNSt23_Sp_counted_ptr_inplaceIKN8facebook5velox10ScalarTypeILNS1_8TypeKindE9EEESaIvELN9__gnu_cxx12_Lock_policyE2EE10_M_destroyEv, ptr @_ZNSt23_Sp_counted_ptr_inplaceIKN8facebook5velox10ScalarTypeILNS1_8TypeKindE9EEESaIvELN9__gnu_cxx12_Lock_policyE2EE14_M_get_deleterERKSt9type_info] }, comdat, align 8
@_ZTSSt23_Sp_counted_ptr_inplaceIKN8facebook5velox10ScalarTypeILNS1_8TypeKindE9EEESaIvELN9__gnu_cxx12_Lock_policyE2EE = linkonce_odr constant [113 x i8] c"St23_Sp_counted_ptr_inplaceIKN8facebook5velox10ScalarTypeILNS1_8TypeKindE9EEESaIvELN9__gnu_cxx12_Lock_policyE2EE\00", comdat, align 1
@_ZTISt23_Sp_counted_ptr_inplaceIKN8facebook5velox10ScalarTypeILNS1_8TypeKindE9EEESaIvELN9__gnu_cxx12_Lock_policyE2EE = linkonce_odr constant { ptr, ptr, ptr } { ptr getelementptr inbounds (ptr, ptr @_ZTVN10__cxxabiv120__si_class_type_infoE, i64 2), ptr @_ZTSSt23_Sp_counted_ptr_inplaceIKN8facebook5velox10ScalarTypeILNS1_8TypeKindE9EEESaIvELN9__gnu_cxx12_Lock_policyE2EE, ptr @_ZTISt16_Sp_counted_baseILN9__gnu_cxx12_Lock_policyE2EE }, comdat, align 8
@_ZTVN8facebook5velox10ScalarTypeILNS0_8TypeKindE9EEE = linkonce_odr unnamed_addr constant { [18 x ptr], [5 x ptr] } { [18 x ptr] [ptr null, ptr @_ZTIN8facebook5velox10ScalarTypeILNS0_8TypeKindE9EEE, ptr @_ZN8facebook5velox10ScalarTypeILNS0_8TypeKindE9EED2Ev, ptr @_ZN8facebook5velox10ScalarTypeILNS0_8TypeKindE9EED0Ev, ptr @_ZNK8facebook5velox10ScalarTypeILNS0_8TypeKindE9EE4sizeEv, ptr @_ZNK8facebook5velox10ScalarTypeILNS0_8TypeKindE9EE7childAtEj, ptr @_ZNK8facebook5velox8TypeBaseILNS0_8TypeKindE9EE15isPrimitiveTypeEv, ptr @_ZNK8facebook5velox10ScalarTypeILNS0_8TypeKindE9EE12isComparableEv, ptr @_ZNK8facebook5velox10ScalarTypeILNS0_8TypeKindE9EE11isOrderableEv, ptr @_ZNK8facebook5velox8TypeBaseILNS0_8TypeKindE9EE4nameEv, ptr @_ZNK8facebook5velox8TypeBaseILNS0_8TypeKindE9EE10parametersEv, ptr @_ZNK8facebook5velox8TypeBaseILNS0_8TypeKindE9EE8kindNameEv, ptr @_ZNK8facebook5velox10ScalarTypeILNS0_8TypeKindE9EE8toStringB5cxx11Ev, ptr @_ZNK8facebook5velox10ScalarTypeILNS0_8TypeKindE9EE10equivalentERKNS0_4TypeE, ptr @_ZNK8facebook5velox4TypeeqERKS1_, ptr @_ZNK8facebook5velox10ScalarTypeILNS0_8TypeKindE9EE14cppSizeInBytesEv, ptr @_ZNK8facebook5velox8TypeBaseILNS0_8TypeKindE9EE12isFixedWidthEv, ptr @_ZNK8facebook5velox10ScalarTypeILNS0_8TypeKindE9EE9serializeEv], [5 x ptr] [ptr inttoptr (i64 -8 to ptr), ptr @_ZTIN8facebook5velox10ScalarTypeILNS0_8TypeKindE9EEE, ptr @_ZThn8_NK8facebook5velox10ScalarTypeILNS0_8TypeKindE9EE9serializeEv, ptr @_ZThn8_N8facebook5velox10ScalarTypeILNS0_8TypeKindE9EED1Ev, ptr @_ZThn8_N8facebook5velox10ScalarTypeILNS0_8TypeKindE9EED0Ev] }, comdat, align 8
@_ZTSN8facebook5velox10ScalarTypeILNS0_8TypeKindE9EEE = linkonce_odr constant [49 x i8] c"N8facebook5velox10ScalarTypeILNS0_8TypeKindE9EEE\00", comdat, align 1
@_ZTSN8facebook5velox8TypeBaseILNS0_8TypeKindE9EEE = linkonce_odr constant [46 x i8] c"N8facebook5velox8TypeBaseILNS0_8TypeKindE9EEE\00", comdat, align 1
@_ZTIN8facebook5velox8TypeBaseILNS0_8TypeKindE9EEE = linkonce_odr constant { ptr, ptr, ptr } { ptr getelementptr inbounds (ptr, ptr @_ZTVN10__cxxabiv120__si_class_type_infoE, i64 2), ptr @_ZTSN8facebook5velox8TypeBaseILNS0_8TypeKindE9EEE, ptr @_ZTIN8facebook5velox4TypeE }, comdat, align 8
@_ZTIN8facebook5velox10ScalarTypeILNS0_8TypeKindE9EEE = linkonce_odr constant { ptr, ptr, ptr } { ptr getelementptr inbounds (ptr, ptr @_ZTVN10__cxxabiv120__si_class_type_infoE, i64 2), ptr @_ZTSN8facebook5velox10ScalarTypeILNS0_8TypeKindE9EEE, ptr @_ZTIN8facebook5velox8TypeBaseILNS0_8TypeKindE9EEE }, comdat, align 8
@_ZZNK8facebook5velox8TypeBaseILNS0_8TypeKindE9EE10parametersEvE6kEmpty = linkonce_odr global %"class.std::vector" zeroinitializer, comdat, align 8
@_ZGVZNK8facebook5velox8TypeBaseILNS0_8TypeKindE9EE10parametersEvE6kEmpty = linkonce_odr global i64 0, comdat, align 8
@_ZZN8facebook5velox10ScalarTypeILNS0_8TypeKindE7EE6createEvE8instance = linkonce_odr global %"class.std::shared_ptr.225" zeroinitializer, comdat, align 8
@_ZGVZN8facebook5velox10ScalarTypeILNS0_8TypeKindE7EE6createEvE8instance = linkonce_odr global i64 0, comdat, align 8
@_ZTVSt23_Sp_counted_ptr_inplaceIKN8facebook5velox10ScalarTypeILNS1_8TypeKindE7EEESaIvELN9__gnu_cxx12_Lock_policyE2EE = linkonce_odr unnamed_addr constant { [7 x ptr] } { [7 x ptr] [ptr null, ptr @_ZTISt23_Sp_counted_ptr_inplaceIKN8facebook5velox10ScalarTypeILNS1_8TypeKindE7EEESaIvELN9__gnu_cxx12_Lock_policyE2EE, ptr @_ZNSt23_Sp_counted_ptr_inplaceIKN8facebook5velox10ScalarTypeILNS1_8TypeKindE7EEESaIvELN9__gnu_cxx12_Lock_policyE2EED2Ev, ptr @_ZNSt23_Sp_counted_ptr_inplaceIKN8facebook5velox10ScalarTypeILNS1_8TypeKindE7EEESaIvELN9__gnu_cxx12_Lock_policyE2EED0Ev, ptr @_ZNSt23_Sp_counted_ptr_inplaceIKN8facebook5velox10ScalarTypeILNS1_8TypeKindE7EEESaIvELN9__gnu_cxx12_Lock_policyE2EE10_M_disposeEv, ptr @_ZNSt23_Sp_counted_ptr_inplaceIKN8facebook5velox10ScalarTypeILNS1_8TypeKindE7EEESaIvELN9__gnu_cxx12_Lock_policyE2EE10_M_destroyEv, ptr @_ZNSt23_Sp_counted_ptr_inplaceIKN8facebook5velox10ScalarTypeILNS1_8TypeKindE7EEESaIvELN9__gnu_cxx12_Lock_policyE2EE14_M_get_deleterERKSt9type_info] }, comdat, align 8
@_ZTSSt23_Sp_counted_ptr_inplaceIKN8facebook5velox10ScalarTypeILNS1_8TypeKindE7EEESaIvELN9__gnu_cxx12_Lock_policyE2EE = linkonce_odr constant [113 x i8] c"St23_Sp_counted_ptr_inplaceIKN8facebook5velox10ScalarTypeILNS1_8TypeKindE7EEESaIvELN9__gnu_cxx12_Lock_policyE2EE\00", comdat, align 1
@_ZTISt23_Sp_counted_ptr_inplaceIKN8facebook5velox10ScalarTypeILNS1_8TypeKindE7EEESaIvELN9__gnu_cxx12_Lock_policyE2EE = linkonce_odr constant { ptr, ptr, ptr } { ptr getelementptr inbounds (ptr, ptr @_ZTVN10__cxxabiv120__si_class_type_infoE, i64 2), ptr @_ZTSSt23_Sp_counted_ptr_inplaceIKN8facebook5velox10ScalarTypeILNS1_8TypeKindE7EEESaIvELN9__gnu_cxx12_Lock_policyE2EE, ptr @_ZTISt16_Sp_counted_baseILN9__gnu_cxx12_Lock_policyE2EE }, comdat, align 8
@_ZTVN8facebook5velox10ScalarTypeILNS0_8TypeKindE7EEE = linkonce_odr unnamed_addr constant { [18 x ptr], [5 x ptr] } { [18 x ptr] [ptr null, ptr @_ZTIN8facebook5velox10ScalarTypeILNS0_8TypeKindE7EEE, ptr @_ZN8facebook5velox10ScalarTypeILNS0_8TypeKindE7EED2Ev, ptr @_ZN8facebook5velox10ScalarTypeILNS0_8TypeKindE7EED0Ev, ptr @_ZNK8facebook5velox10ScalarTypeILNS0_8TypeKindE7EE4sizeEv, ptr @_ZNK8facebook5velox10ScalarTypeILNS0_8TypeKindE7EE7childAtEj, ptr @_ZNK8facebook5velox8TypeBaseILNS0_8TypeKindE7EE15isPrimitiveTypeEv, ptr @_ZNK8facebook5velox10ScalarTypeILNS0_8TypeKindE7EE12isComparableEv, ptr @_ZNK8facebook5velox10ScalarTypeILNS0_8TypeKindE7EE11isOrderableEv, ptr @_ZNK8facebook5velox8TypeBaseILNS0_8TypeKindE7EE4nameEv, ptr @_ZNK8facebook5velox8TypeBaseILNS0_8TypeKindE7EE10parametersEv, ptr @_ZNK8facebook5velox8TypeBaseILNS0_8TypeKindE7EE8kindNameEv, ptr @_ZNK8facebook5velox10ScalarTypeILNS0_8TypeKindE7EE8toStringB5cxx11Ev, ptr @_ZNK8facebook5velox10ScalarTypeILNS0_8TypeKindE7EE10equivalentERKNS0_4TypeE, ptr @_ZNK8facebook5velox4TypeeqERKS1_, ptr @_ZNK8facebook5velox10ScalarTypeILNS0_8TypeKindE7EE14cppSizeInBytesEv, ptr @_ZNK8facebook5velox8TypeBaseILNS0_8TypeKindE7EE12isFixedWidthEv, ptr @_ZNK8facebook5velox10ScalarTypeILNS0_8TypeKindE7EE9serializeEv], [5 x ptr] [ptr inttoptr (i64 -8 to ptr), ptr @_ZTIN8facebook5velox10ScalarTypeILNS0_8TypeKindE7EEE, ptr @_ZThn8_NK8facebook5velox10ScalarTypeILNS0_8TypeKindE7EE9serializeEv, ptr @_ZThn8_N8facebook5velox10ScalarTypeILNS0_8TypeKindE7EED1Ev, ptr @_ZThn8_N8facebook5velox10ScalarTypeILNS0_8TypeKindE7EED0Ev] }, comdat, align 8
@_ZTSN8facebook5velox10ScalarTypeILNS0_8TypeKindE7EEE = linkonce_odr constant [49 x i8] c"N8facebook5velox10ScalarTypeILNS0_8TypeKindE7EEE\00", comdat, align 1
@_ZTSN8facebook5velox8TypeBaseILNS0_8TypeKindE7EEE = linkonce_odr constant [46 x i8] c"N8facebook5velox8TypeBaseILNS0_8TypeKindE7EEE\00", comdat, align 1
@_ZTIN8facebook5velox8TypeBaseILNS0_8TypeKindE7EEE = linkonce_odr constant { ptr, ptr, ptr } { ptr getelementptr inbounds (ptr, ptr @_ZTVN10__cxxabiv120__si_class_type_infoE, i64 2), ptr @_ZTSN8facebook5velox8TypeBaseILNS0_8TypeKindE7EEE, ptr @_ZTIN8facebook5velox4TypeE }, comdat, align 8
@_ZTIN8facebook5velox10ScalarTypeILNS0_8TypeKindE7EEE = linkonce_odr constant { ptr, ptr, ptr } { ptr getelementptr inbounds (ptr, ptr @_ZTVN10__cxxabiv120__si_class_type_infoE, i64 2), ptr @_ZTSN8facebook5velox10ScalarTypeILNS0_8TypeKindE7EEE, ptr @_ZTIN8facebook5velox8TypeBaseILNS0_8TypeKindE7EEE }, comdat, align 8
@_ZZNK8facebook5velox8TypeBaseILNS0_8TypeKindE7EE10parametersEvE6kEmpty = linkonce_odr global %"class.std::vector" zeroinitializer, comdat, align 8
@_ZGVZNK8facebook5velox8TypeBaseILNS0_8TypeKindE7EE10parametersEvE6kEmpty = linkonce_odr global i64 0, comdat, align 8
@_ZZN8facebook5velox10ScalarTypeILNS0_8TypeKindE8EE6createEvE8instance = linkonce_odr global %"class.std::shared_ptr.228" zeroinitializer, comdat, align 8
@_ZGVZN8facebook5velox10ScalarTypeILNS0_8TypeKindE8EE6createEvE8instance = linkonce_odr global i64 0, comdat, align 8
@_ZTVSt23_Sp_counted_ptr_inplaceIKN8facebook5velox10ScalarTypeILNS1_8TypeKindE8EEESaIvELN9__gnu_cxx12_Lock_policyE2EE = linkonce_odr unnamed_addr constant { [7 x ptr] } { [7 x ptr] [ptr null, ptr @_ZTISt23_Sp_counted_ptr_inplaceIKN8facebook5velox10ScalarTypeILNS1_8TypeKindE8EEESaIvELN9__gnu_cxx12_Lock_policyE2EE, ptr @_ZNSt23_Sp_counted_ptr_inplaceIKN8facebook5velox10ScalarTypeILNS1_8TypeKindE8EEESaIvELN9__gnu_cxx12_Lock_policyE2EED2Ev, ptr @_ZNSt23_Sp_counted_ptr_inplaceIKN8facebook5velox10ScalarTypeILNS1_8TypeKindE8EEESaIvELN9__gnu_cxx12_Lock_policyE2EED0Ev, ptr @_ZNSt23_Sp_counted_ptr_inplaceIKN8facebook5velox10ScalarTypeILNS1_8TypeKindE8EEESaIvELN9__gnu_cxx12_Lock_policyE2EE10_M_disposeEv, ptr @_ZNSt23_Sp_counted_ptr_inplaceIKN8facebook5velox10ScalarTypeILNS1_8TypeKindE8EEESaIvELN9__gnu_cxx12_Lock_policyE2EE10_M_destroyEv, ptr @_ZNSt23_Sp_counted_ptr_inplaceIKN8facebook5velox10ScalarTypeILNS1_8TypeKindE8EEESaIvELN9__gnu_cxx12_Lock_policyE2EE14_M_get_deleterERKSt9type_info] }, comdat, align 8
@_ZTSSt23_Sp_counted_ptr_inplaceIKN8facebook5velox10ScalarTypeILNS1_8TypeKindE8EEESaIvELN9__gnu_cxx12_Lock_policyE2EE = linkonce_odr constant [113 x i8] c"St23_Sp_counted_ptr_inplaceIKN8facebook5velox10ScalarTypeILNS1_8TypeKindE8EEESaIvELN9__gnu_cxx12_Lock_policyE2EE\00", comdat, align 1
@_ZTISt23_Sp_counted_ptr_inplaceIKN8facebook5velox10ScalarTypeILNS1_8TypeKindE8EEESaIvELN9__gnu_cxx12_Lock_policyE2EE = linkonce_odr constant { ptr, ptr, ptr } { ptr getelementptr inbounds (ptr, ptr @_ZTVN10__cxxabiv120__si_class_type_infoE, i64 2), ptr @_ZTSSt23_Sp_counted_ptr_inplaceIKN8facebook5velox10ScalarTypeILNS1_8TypeKindE8EEESaIvELN9__gnu_cxx12_Lock_policyE2EE, ptr @_ZTISt16_Sp_counted_baseILN9__gnu_cxx12_Lock_policyE2EE }, comdat, align 8
@_ZTVN8facebook5velox10ScalarTypeILNS0_8TypeKindE8EEE = linkonce_odr unnamed_addr constant { [18 x ptr], [5 x ptr] } { [18 x ptr] [ptr null, ptr @_ZTIN8facebook5velox10ScalarTypeILNS0_8TypeKindE8EEE, ptr @_ZN8facebook5velox10ScalarTypeILNS0_8TypeKindE8EED2Ev, ptr @_ZN8facebook5velox10ScalarTypeILNS0_8TypeKindE8EED0Ev, ptr @_ZNK8facebook5velox10ScalarTypeILNS0_8TypeKindE8EE4sizeEv, ptr @_ZNK8facebook5velox10ScalarTypeILNS0_8TypeKindE8EE7childAtEj, ptr @_ZNK8facebook5velox8TypeBaseILNS0_8TypeKindE8EE15isPrimitiveTypeEv, ptr @_ZNK8facebook5velox10ScalarTypeILNS0_8TypeKindE8EE12isComparableEv, ptr @_ZNK8facebook5velox10ScalarTypeILNS0_8TypeKindE8EE11isOrderableEv, ptr @_ZNK8facebook5velox8TypeBaseILNS0_8TypeKindE8EE4nameEv, ptr @_ZNK8facebook5velox8TypeBaseILNS0_8TypeKindE8EE10parametersEv, ptr @_ZNK8facebook5velox8TypeBaseILNS0_8TypeKindE8EE8kindNameEv, ptr @_ZNK8facebook5velox10ScalarTypeILNS0_8TypeKindE8EE8toStringB5cxx11Ev, ptr @_ZNK8facebook5velox10ScalarTypeILNS0_8TypeKindE8EE10equivalentERKNS0_4TypeE, ptr @_ZNK8facebook5velox4TypeeqERKS1_, ptr @_ZNK8facebook5velox10ScalarTypeILNS0_8TypeKindE8EE14cppSizeInBytesEv, ptr @_ZNK8facebook5velox8TypeBaseILNS0_8TypeKindE8EE12isFixedWidthEv, ptr @_ZNK8facebook5velox10ScalarTypeILNS0_8TypeKindE8EE9serializeEv], [5 x ptr] [ptr inttoptr (i64 -8 to ptr), ptr @_ZTIN8facebook5velox10ScalarTypeILNS0_8TypeKindE8EEE, ptr @_ZThn8_NK8facebook5velox10ScalarTypeILNS0_8TypeKindE8EE9serializeEv, ptr @_ZThn8_N8facebook5velox10ScalarTypeILNS0_8TypeKindE8EED1Ev, ptr @_ZThn8_N8facebook5velox10ScalarTypeILNS0_8TypeKindE8EED0Ev] }, comdat, align 8
@_ZTSN8facebook5velox10ScalarTypeILNS0_8TypeKindE8EEE = linkonce_odr constant [49 x i8] c"N8facebook5velox10ScalarTypeILNS0_8TypeKindE8EEE\00", comdat, align 1
@_ZTSN8facebook5velox8TypeBaseILNS0_8TypeKindE8EEE = linkonce_odr constant [46 x i8] c"N8facebook5velox8TypeBaseILNS0_8TypeKindE8EEE\00", comdat, align 1
@_ZTIN8facebook5velox8TypeBaseILNS0_8TypeKindE8EEE = linkonce_odr constant { ptr, ptr, ptr } { ptr getelementptr inbounds (ptr, ptr @_ZTVN10__cxxabiv120__si_class_type_infoE, i64 2), ptr @_ZTSN8facebook5velox8TypeBaseILNS0_8TypeKindE8EEE, ptr @_ZTIN8facebook5velox4TypeE }, comdat, align 8
@_ZTIN8facebook5velox10ScalarTypeILNS0_8TypeKindE8EEE = linkonce_odr constant { ptr, ptr, ptr } { ptr getelementptr inbounds (ptr, ptr @_ZTVN10__cxxabiv120__si_class_type_infoE, i64 2), ptr @_ZTSN8facebook5velox10ScalarTypeILNS0_8TypeKindE8EEE, ptr @_ZTIN8facebook5velox8TypeBaseILNS0_8TypeKindE8EEE }, comdat, align 8
@_ZZNK8facebook5velox8TypeBaseILNS0_8TypeKindE8EE10parametersEvE6kEmpty = linkonce_odr global %"class.std::vector" zeroinitializer, comdat, align 8
@_ZGVZNK8facebook5velox8TypeBaseILNS0_8TypeKindE8EE10parametersEvE6kEmpty = linkonce_odr global i64 0, comdat, align 8
@_ZTVSt23_Sp_counted_ptr_inplaceIN8facebook5velox16ShortDecimalTypeESaIvELN9__gnu_cxx12_Lock_policyE2EE = linkonce_odr unnamed_addr constant { [7 x ptr] } { [7 x ptr] [ptr null, ptr @_ZTISt23_Sp_counted_ptr_inplaceIN8facebook5velox16ShortDecimalTypeESaIvELN9__gnu_cxx12_Lock_policyE2EE, ptr @_ZNSt23_Sp_counted_ptr_inplaceIN8facebook5velox16ShortDecimalTypeESaIvELN9__gnu_cxx12_Lock_policyE2EED2Ev, ptr @_ZNSt23_Sp_counted_ptr_inplaceIN8facebook5velox16ShortDecimalTypeESaIvELN9__gnu_cxx12_Lock_policyE2EED0Ev, ptr @_ZNSt23_Sp_counted_ptr_inplaceIN8facebook5velox16ShortDecimalTypeESaIvELN9__gnu_cxx12_Lock_policyE2EE10_M_disposeEv, ptr @_ZNSt23_Sp_counted_ptr_inplaceIN8facebook5velox16ShortDecimalTypeESaIvELN9__gnu_cxx12_Lock_policyE2EE10_M_destroyEv, ptr @_ZNSt23_Sp_counted_ptr_inplaceIN8facebook5velox16ShortDecimalTypeESaIvELN9__gnu_cxx12_Lock_policyE2EE14_M_get_deleterERKSt9type_info] }, comdat, align 8
@_ZTSSt23_Sp_counted_ptr_inplaceIN8facebook5velox16ShortDecimalTypeESaIvELN9__gnu_cxx12_Lock_policyE2EE = linkonce_odr constant [99 x i8] c"St23_Sp_counted_ptr_inplaceIN8facebook5velox16ShortDecimalTypeESaIvELN9__gnu_cxx12_Lock_policyE2EE\00", comdat, align 1
@_ZTISt23_Sp_counted_ptr_inplaceIN8facebook5velox16ShortDecimalTypeESaIvELN9__gnu_cxx12_Lock_policyE2EE = linkonce_odr constant { ptr, ptr, ptr } { ptr getelementptr inbounds (ptr, ptr @_ZTVN10__cxxabiv120__si_class_type_infoE, i64 2), ptr @_ZTSSt23_Sp_counted_ptr_inplaceIN8facebook5velox16ShortDecimalTypeESaIvELN9__gnu_cxx12_Lock_policyE2EE, ptr @_ZTISt16_Sp_counted_baseILN9__gnu_cxx12_Lock_policyE2EE }, comdat, align 8
@_ZTVN8facebook5velox16ShortDecimalTypeE = linkonce_odr unnamed_addr constant { [18 x ptr], [5 x ptr] } { [18 x ptr] [ptr null, ptr @_ZTIN8facebook5velox16ShortDecimalTypeE, ptr @_ZN8facebook5velox16ShortDecimalTypeD2Ev, ptr @_ZN8facebook5velox16ShortDecimalTypeD0Ev, ptr @_ZNK8facebook5velox10ScalarTypeILNS0_8TypeKindE4EE4sizeEv, ptr @_ZNK8facebook5velox10ScalarTypeILNS0_8TypeKindE4EE7childAtEj, ptr @_ZNK8facebook5velox8TypeBaseILNS0_8TypeKindE4EE15isPrimitiveTypeEv, ptr @_ZNK8facebook5velox10ScalarTypeILNS0_8TypeKindE4EE12isComparableEv, ptr @_ZNK8facebook5velox10ScalarTypeILNS0_8TypeKindE4EE11isOrderableEv, ptr @_ZNK8facebook5velox11DecimalTypeILNS0_8TypeKindE4EE4nameEv, ptr @_ZNK8facebook5velox11DecimalTypeILNS0_8TypeKindE4EE10parametersEv, ptr @_ZNK8facebook5velox8TypeBaseILNS0_8TypeKindE4EE8kindNameEv, ptr @_ZNK8facebook5velox11DecimalTypeILNS0_8TypeKindE4EE8toStringB5cxx11Ev, ptr @_ZNK8facebook5velox11DecimalTypeILNS0_8TypeKindE4EE10equivalentERKNS0_4TypeE, ptr @_ZNK8facebook5velox4TypeeqERKS1_, ptr @_ZNK8facebook5velox10ScalarTypeILNS0_8TypeKindE4EE14cppSizeInBytesEv, ptr @_ZNK8facebook5velox8TypeBaseILNS0_8TypeKindE4EE12isFixedWidthEv, ptr @_ZNK8facebook5velox11DecimalTypeILNS0_8TypeKindE4EE9serializeEv], [5 x ptr] [ptr inttoptr (i64 -8 to ptr), ptr @_ZTIN8facebook5velox16ShortDecimalTypeE, ptr @_ZThn8_NK8facebook5velox11DecimalTypeILNS0_8TypeKindE4EE9serializeEv, ptr @_ZThn8_N8facebook5velox16ShortDecimalTypeD1Ev, ptr @_ZThn8_N8facebook5velox16ShortDecimalTypeD0Ev] }, comdat, align 8
@_ZTVN8facebook5velox11DecimalTypeILNS0_8TypeKindE4EEE = linkonce_odr unnamed_addr constant { [18 x ptr], [5 x ptr] } { [18 x ptr] [ptr null, ptr @_ZTIN8facebook5velox11DecimalTypeILNS0_8TypeKindE4EEE, ptr @_ZN8facebook5velox11DecimalTypeILNS0_8TypeKindE4EED2Ev, ptr @_ZN8facebook5velox11DecimalTypeILNS0_8TypeKindE4EED0Ev, ptr @_ZNK8facebook5velox10ScalarTypeILNS0_8TypeKindE4EE4sizeEv, ptr @_ZNK8facebook5velox10ScalarTypeILNS0_8TypeKindE4EE7childAtEj, ptr @_ZNK8facebook5velox8TypeBaseILNS0_8TypeKindE4EE15isPrimitiveTypeEv, ptr @_ZNK8facebook5velox10ScalarTypeILNS0_8TypeKindE4EE12isComparableEv, ptr @_ZNK8facebook5velox10ScalarTypeILNS0_8TypeKindE4EE11isOrderableEv, ptr @_ZNK8facebook5velox11DecimalTypeILNS0_8TypeKindE4EE4nameEv, ptr @_ZNK8facebook5velox11DecimalTypeILNS0_8TypeKindE4EE10parametersEv, ptr @_ZNK8facebook5velox8TypeBaseILNS0_8TypeKindE4EE8kindNameEv, ptr @_ZNK8facebook5velox11DecimalTypeILNS0_8TypeKindE4EE8toStringB5cxx11Ev, ptr @_ZNK8facebook5velox11DecimalTypeILNS0_8TypeKindE4EE10equivalentERKNS0_4TypeE, ptr @_ZNK8facebook5velox4TypeeqERKS1_, ptr @_ZNK8facebook5velox10ScalarTypeILNS0_8TypeKindE4EE14cppSizeInBytesEv, ptr @_ZNK8facebook5velox8TypeBaseILNS0_8TypeKindE4EE12isFixedWidthEv, ptr @_ZNK8facebook5velox11DecimalTypeILNS0_8TypeKindE4EE9serializeEv], [5 x ptr] [ptr inttoptr (i64 -8 to ptr), ptr @_ZTIN8facebook5velox11DecimalTypeILNS0_8TypeKindE4EEE, ptr @_ZThn8_NK8facebook5velox11DecimalTypeILNS0_8TypeKindE4EE9serializeEv, ptr @_ZThn8_N8facebook5velox11DecimalTypeILNS0_8TypeKindE4EED1Ev, ptr @_ZThn8_N8facebook5velox11DecimalTypeILNS0_8TypeKindE4EED0Ev] }, comdat, align 8
@.str.77 = private unnamed_addr constant [16 x i8] c"DECIMAL({}, {})\00", align 1
@_ZTVSt23_Sp_counted_ptr_inplaceIN8facebook5velox15LongDecimalTypeESaIvELN9__gnu_cxx12_Lock_policyE2EE = linkonce_odr unnamed_addr constant { [7 x ptr] } { [7 x ptr] [ptr null, ptr @_ZTISt23_Sp_counted_ptr_inplaceIN8facebook5velox15LongDecimalTypeESaIvELN9__gnu_cxx12_Lock_policyE2EE, ptr @_ZNSt23_Sp_counted_ptr_inplaceIN8facebook5velox15LongDecimalTypeESaIvELN9__gnu_cxx12_Lock_policyE2EED2Ev, ptr @_ZNSt23_Sp_counted_ptr_inplaceIN8facebook5velox15LongDecimalTypeESaIvELN9__gnu_cxx12_Lock_policyE2EED0Ev, ptr @_ZNSt23_Sp_counted_ptr_inplaceIN8facebook5velox15LongDecimalTypeESaIvELN9__gnu_cxx12_Lock_policyE2EE10_M_disposeEv, ptr @_ZNSt23_Sp_counted_ptr_inplaceIN8facebook5velox15LongDecimalTypeESaIvELN9__gnu_cxx12_Lock_policyE2EE10_M_destroyEv, ptr @_ZNSt23_Sp_counted_ptr_inplaceIN8facebook5velox15LongDecimalTypeESaIvELN9__gnu_cxx12_Lock_policyE2EE14_M_get_deleterERKSt9type_info] }, comdat, align 8
@_ZTSSt23_Sp_counted_ptr_inplaceIN8facebook5velox15LongDecimalTypeESaIvELN9__gnu_cxx12_Lock_policyE2EE = linkonce_odr constant [98 x i8] c"St23_Sp_counted_ptr_inplaceIN8facebook5velox15LongDecimalTypeESaIvELN9__gnu_cxx12_Lock_policyE2EE\00", comdat, align 1
@_ZTISt23_Sp_counted_ptr_inplaceIN8facebook5velox15LongDecimalTypeESaIvELN9__gnu_cxx12_Lock_policyE2EE = linkonce_odr constant { ptr, ptr, ptr } { ptr getelementptr inbounds (ptr, ptr @_ZTVN10__cxxabiv120__si_class_type_infoE, i64 2), ptr @_ZTSSt23_Sp_counted_ptr_inplaceIN8facebook5velox15LongDecimalTypeESaIvELN9__gnu_cxx12_Lock_policyE2EE, ptr @_ZTISt16_Sp_counted_baseILN9__gnu_cxx12_Lock_policyE2EE }, comdat, align 8
@_ZTVN8facebook5velox15LongDecimalTypeE = linkonce_odr unnamed_addr constant { [18 x ptr], [5 x ptr] } { [18 x ptr] [ptr null, ptr @_ZTIN8facebook5velox15LongDecimalTypeE, ptr @_ZN8facebook5velox15LongDecimalTypeD2Ev, ptr @_ZN8facebook5velox15LongDecimalTypeD0Ev, ptr @_ZNK8facebook5velox10ScalarTypeILNS0_8TypeKindE10EE4sizeEv, ptr @_ZNK8facebook5velox10ScalarTypeILNS0_8TypeKindE10EE7childAtEj, ptr @_ZNK8facebook5velox8TypeBaseILNS0_8TypeKindE10EE15isPrimitiveTypeEv, ptr @_ZNK8facebook5velox10ScalarTypeILNS0_8TypeKindE10EE12isComparableEv, ptr @_ZNK8facebook5velox10ScalarTypeILNS0_8TypeKindE10EE11isOrderableEv, ptr @_ZNK8facebook5velox11DecimalTypeILNS0_8TypeKindE10EE4nameEv, ptr @_ZNK8facebook5velox11DecimalTypeILNS0_8TypeKindE10EE10parametersEv, ptr @_ZNK8facebook5velox8TypeBaseILNS0_8TypeKindE10EE8kindNameEv, ptr @_ZNK8facebook5velox11DecimalTypeILNS0_8TypeKindE10EE8toStringB5cxx11Ev, ptr @_ZNK8facebook5velox11DecimalTypeILNS0_8TypeKindE10EE10equivalentERKNS0_4TypeE, ptr @_ZNK8facebook5velox4TypeeqERKS1_, ptr @_ZNK8facebook5velox10ScalarTypeILNS0_8TypeKindE10EE14cppSizeInBytesEv, ptr @_ZNK8facebook5velox8TypeBaseILNS0_8TypeKindE10EE12isFixedWidthEv, ptr @_ZNK8facebook5velox11DecimalTypeILNS0_8TypeKindE10EE9serializeEv], [5 x ptr] [ptr inttoptr (i64 -8 to ptr), ptr @_ZTIN8facebook5velox15LongDecimalTypeE, ptr @_ZThn8_NK8facebook5velox11DecimalTypeILNS0_8TypeKindE10EE9serializeEv, ptr @_ZThn8_N8facebook5velox15LongDecimalTypeD1Ev, ptr @_ZThn8_N8facebook5velox15LongDecimalTypeD0Ev] }, comdat, align 8
@_ZTVN8facebook5velox11DecimalTypeILNS0_8TypeKindE10EEE = linkonce_odr unnamed_addr constant { [18 x ptr], [5 x ptr] } { [18 x ptr] [ptr null, ptr @_ZTIN8facebook5velox11DecimalTypeILNS0_8TypeKindE10EEE, ptr @_ZN8facebook5velox11DecimalTypeILNS0_8TypeKindE10EED2Ev, ptr @_ZN8facebook5velox11DecimalTypeILNS0_8TypeKindE10EED0Ev, ptr @_ZNK8facebook5velox10ScalarTypeILNS0_8TypeKindE10EE4sizeEv, ptr @_ZNK8facebook5velox10ScalarTypeILNS0_8TypeKindE10EE7childAtEj, ptr @_ZNK8facebook5velox8TypeBaseILNS0_8TypeKindE10EE15isPrimitiveTypeEv, ptr @_ZNK8facebook5velox10ScalarTypeILNS0_8TypeKindE10EE12isComparableEv, ptr @_ZNK8facebook5velox10ScalarTypeILNS0_8TypeKindE10EE11isOrderableEv, ptr @_ZNK8facebook5velox11DecimalTypeILNS0_8TypeKindE10EE4nameEv, ptr @_ZNK8facebook5velox11DecimalTypeILNS0_8TypeKindE10EE10parametersEv, ptr @_ZNK8facebook5velox8TypeBaseILNS0_8TypeKindE10EE8kindNameEv, ptr @_ZNK8facebook5velox11DecimalTypeILNS0_8TypeKindE10EE8toStringB5cxx11Ev, ptr @_ZNK8facebook5velox11DecimalTypeILNS0_8TypeKindE10EE10equivalentERKNS0_4TypeE, ptr @_ZNK8facebook5velox4TypeeqERKS1_, ptr @_ZNK8facebook5velox10ScalarTypeILNS0_8TypeKindE10EE14cppSizeInBytesEv, ptr @_ZNK8facebook5velox8TypeBaseILNS0_8TypeKindE10EE12isFixedWidthEv, ptr @_ZNK8facebook5velox11DecimalTypeILNS0_8TypeKindE10EE9serializeEv], [5 x ptr] [ptr inttoptr (i64 -8 to ptr), ptr @_ZTIN8facebook5velox11DecimalTypeILNS0_8TypeKindE10EEE, ptr @_ZThn8_NK8facebook5velox11DecimalTypeILNS0_8TypeKindE10EE9serializeEv, ptr @_ZThn8_N8facebook5velox11DecimalTypeILNS0_8TypeKindE10EED1Ev, ptr @_ZThn8_N8facebook5velox11DecimalTypeILNS0_8TypeKindE10EED0Ev] }, comdat, align 8
@_ZTVSt23_Sp_counted_ptr_inplaceIN8facebook5velox12FunctionTypeESaIvELN9__gnu_cxx12_Lock_policyE2EE = linkonce_odr unnamed_addr constant { [7 x ptr] } { [7 x ptr] [ptr null, ptr @_ZTISt23_Sp_counted_ptr_inplaceIN8facebook5velox12FunctionTypeESaIvELN9__gnu_cxx12_Lock_policyE2EE, ptr @_ZNSt23_Sp_counted_ptr_inplaceIN8facebook5velox12FunctionTypeESaIvELN9__gnu_cxx12_Lock_policyE2EED2Ev, ptr @_ZNSt23_Sp_counted_ptr_inplaceIN8facebook5velox12FunctionTypeESaIvELN9__gnu_cxx12_Lock_policyE2EED0Ev, ptr @_ZNSt23_Sp_counted_ptr_inplaceIN8facebook5velox12FunctionTypeESaIvELN9__gnu_cxx12_Lock_policyE2EE10_M_disposeEv, ptr @_ZNSt23_Sp_counted_ptr_inplaceIN8facebook5velox12FunctionTypeESaIvELN9__gnu_cxx12_Lock_policyE2EE10_M_destroyEv, ptr @_ZNSt23_Sp_counted_ptr_inplaceIN8facebook5velox12FunctionTypeESaIvELN9__gnu_cxx12_Lock_policyE2EE14_M_get_deleterERKSt9type_info] }, comdat, align 8
@_ZTSSt23_Sp_counted_ptr_inplaceIN8facebook5velox12FunctionTypeESaIvELN9__gnu_cxx12_Lock_policyE2EE = linkonce_odr constant [95 x i8] c"St23_Sp_counted_ptr_inplaceIN8facebook5velox12FunctionTypeESaIvELN9__gnu_cxx12_Lock_policyE2EE\00", comdat, align 1
@_ZTISt23_Sp_counted_ptr_inplaceIN8facebook5velox12FunctionTypeESaIvELN9__gnu_cxx12_Lock_policyE2EE = linkonce_odr constant { ptr, ptr, ptr } { ptr getelementptr inbounds (ptr, ptr @_ZTVN10__cxxabiv120__si_class_type_infoE, i64 2), ptr @_ZTSSt23_Sp_counted_ptr_inplaceIN8facebook5velox12FunctionTypeESaIvELN9__gnu_cxx12_Lock_policyE2EE, ptr @_ZTISt16_Sp_counted_baseILN9__gnu_cxx12_Lock_policyE2EE }, comdat, align 8
@.str.78 = private unnamed_addr constant [18 x i8] c"unordered_map::at\00", align 1
@_ZZNK8facebook5velox8TypeBaseILNS0_8TypeKindE35EE10parametersEvE6kEmpty = linkonce_odr global %"class.std::vector" zeroinitializer, comdat, align 8
@_ZGVZNK8facebook5velox8TypeBaseILNS0_8TypeKindE35EE10parametersEvE6kEmpty = linkonce_odr global i64 0, comdat, align 8

@_ZN8facebook5velox9ArrayTypeC1ESt10shared_ptrIKNS0_4TypeEE = unnamed_addr alias void (ptr, ptr), ptr @_ZN8facebook5velox9ArrayTypeC2ESt10shared_ptrIKNS0_4TypeEE
@_ZN8facebook5velox7MapTypeC1ESt10shared_ptrIKNS0_4TypeEES5_ = unnamed_addr alias void (ptr, ptr, ptr), ptr @_ZN8facebook5velox7MapTypeC2ESt10shared_ptrIKNS0_4TypeEES5_
@_ZN8facebook5velox7RowTypeC1EOSt6vectorINSt7__cxx1112basic_stringIcSt11char_traitsIcESaIcEEESaIS8_EEOS2_ISt10shared_ptrIKNS0_4TypeEESaISF_EE = unnamed_addr alias void (ptr, ptr, ptr), ptr @_ZN8facebook5velox7RowTypeC2EOSt6vectorINSt7__cxx1112basic_stringIcSt11char_traitsIcESaIcEEESaIS8_EEOS2_ISt10shared_ptrIKNS0_4TypeEESaISF_EE
@_ZN8facebook5velox12FunctionTypeC1EOSt6vectorISt10shared_ptrIKNS0_4TypeEESaIS6_EES6_ = unnamed_addr alias void (ptr, ptr, ptr), ptr @_ZN8facebook5velox12FunctionTypeC2EOSt6vectorISt10shared_ptrIKNS0_4TypeEESaIS6_EES6_
@_ZN8facebook5velox10OpaqueTypeC1ERKSt10type_index = unnamed_addr alias void (ptr, ptr), ptr @_ZN8facebook5velox10OpaqueTypeC2ERKSt10type_index

; Function Attrs: mustprogress uwtable
define noundef nonnull align 8 dereferenceable(56) ptr @_ZN8facebook5velox16getTypeStringMapB5cxx11Ev() local_unnamed_addr #0 personality ptr @__gxx_personality_v0 {
entry:
  %ref.tmp = alloca [18 x %"struct.std::pair"], align 8
  %ref.tmp1 = alloca i8, align 1
  %ref.tmp2 = alloca i8, align 1
  %ref.tmp5 = alloca i8, align 1
  %ref.tmp8 = alloca i8, align 1
  %ref.tmp11 = alloca i8, align 1
  %ref.tmp14 = alloca i8, align 1
  %ref.tmp17 = alloca i8, align 1
  %ref.tmp20 = alloca i8, align 1
  %ref.tmp23 = alloca i8, align 1
  %ref.tmp26 = alloca i8, align 1
  %ref.tmp29 = alloca i8, align 1
  %ref.tmp32 = alloca i8, align 1
  %ref.tmp35 = alloca i8, align 1
  %ref.tmp38 = alloca i8, align 1
  %ref.tmp41 = alloca i8, align 1
  %ref.tmp44 = alloca i8, align 1
  %ref.tmp47 = alloca i8, align 1
  %ref.tmp50 = alloca i8, align 1
  %ref.tmp53 = alloca %"struct.std::hash", align 1
  %ref.tmp54 = alloca %"struct.std::equal_to", align 1
  %ref.tmp55 = alloca %"class.std::allocator.5", align 1
  %0 = load atomic i8, ptr @_ZGVZN8facebook5velox16getTypeStringMapB5cxx11EvE14kTypeStringMapB5cxx11 acquire, align 8
  %guard.uninitialized = icmp eq i8 %0, 0
  br i1 %guard.uninitialized, label %init.check, label %init.end, !prof !4

init.check:                                       ; preds = %entry
  %1 = tail call i32 @__cxa_guard_acquire(ptr nonnull @_ZGVZN8facebook5velox16getTypeStringMapB5cxx11EvE14kTypeStringMapB5cxx11) #37
  %tobool.not = icmp eq i32 %1, 0
  br i1 %tobool.not, label %init.end, label %init

init:                                             ; preds = %init.check
  store i8 0, ptr %ref.tmp1, align 1
  invoke void @_ZNSt4pairIKNSt7__cxx1112basic_stringIcSt11char_traitsIcESaIcEEEN8facebook5velox8TypeKindEEC2IRA8_KcS9_TnNSt9enable_ifIXaaclsr5_PCCPE22_MoveConstructiblePairIT_T0_EEclsr5_PCCPE30_ImplicitlyMoveConvertiblePairISG_SH_EEEbE4typeELb1EEEOSG_OSH_(ptr noundef nonnull align 8 dereferenceable(33) %ref.tmp, ptr noundef nonnull align 1 dereferenceable(8) @.str, ptr noundef nonnull align 1 dereferenceable(1) %ref.tmp1)
          to label %invoke.cont unwind label %lpad.thread

lpad.thread:                                      ; preds = %init
  %2 = landingpad { ptr, i32 }
          cleanup
  br label %ehcleanup

invoke.cont:                                      ; preds = %init
  %arrayinit.element = getelementptr inbounds %"struct.std::pair", ptr %ref.tmp, i64 1
  store i8 1, ptr %ref.tmp2, align 1
  invoke void @_ZNSt4pairIKNSt7__cxx1112basic_stringIcSt11char_traitsIcESaIcEEEN8facebook5velox8TypeKindEEC2IRA8_KcS9_TnNSt9enable_ifIXaaclsr5_PCCPE22_MoveConstructiblePairIT_T0_EEclsr5_PCCPE30_ImplicitlyMoveConvertiblePairISG_SH_EEEbE4typeELb1EEEOSG_OSH_(ptr noundef nonnull align 8 dereferenceable(33) %arrayinit.element, ptr noundef nonnull align 1 dereferenceable(8) @.str.1, ptr noundef nonnull align 1 dereferenceable(1) %ref.tmp2)
          to label %invoke.cont3 unwind label %lpad

invoke.cont3:                                     ; preds = %invoke.cont
  %arrayinit.element4 = getelementptr inbounds %"struct.std::pair", ptr %ref.tmp, i64 2
  store i8 2, ptr %ref.tmp5, align 1
  invoke void @_ZNSt4pairIKNSt7__cxx1112basic_stringIcSt11char_traitsIcESaIcEEEN8facebook5velox8TypeKindEEC2IRA9_KcS9_TnNSt9enable_ifIXaaclsr5_PCCPE22_MoveConstructiblePairIT_T0_EEclsr5_PCCPE30_ImplicitlyMoveConvertiblePairISG_SH_EEEbE4typeELb1EEEOSG_OSH_(ptr noundef nonnull align 8 dereferenceable(33) %arrayinit.element4, ptr noundef nonnull align 1 dereferenceable(9) @.str.2, ptr noundef nonnull align 1 dereferenceable(1) %ref.tmp5)
          to label %invoke.cont6 unwind label %lpad

invoke.cont6:                                     ; preds = %invoke.cont3
  %arrayinit.element7 = getelementptr inbounds %"struct.std::pair", ptr %ref.tmp, i64 3
  store i8 3, ptr %ref.tmp8, align 1
  invoke void @_ZNSt4pairIKNSt7__cxx1112basic_stringIcSt11char_traitsIcESaIcEEEN8facebook5velox8TypeKindEEC2IRA8_KcS9_TnNSt9enable_ifIXaaclsr5_PCCPE22_MoveConstructiblePairIT_T0_EEclsr5_PCCPE30_ImplicitlyMoveConvertiblePairISG_SH_EEEbE4typeELb1EEEOSG_OSH_(ptr noundef nonnull align 8 dereferenceable(33) %arrayinit.element7, ptr noundef nonnull align 1 dereferenceable(8) @.str.3, ptr noundef nonnull align 1 dereferenceable(1) %ref.tmp8)
          to label %invoke.cont9 unwind label %lpad

invoke.cont9:                                     ; preds = %invoke.cont6
  %arrayinit.element10 = getelementptr inbounds %"struct.std::pair", ptr %ref.tmp, i64 4
  store i8 4, ptr %ref.tmp11, align 1
  invoke void @_ZNSt4pairIKNSt7__cxx1112basic_stringIcSt11char_traitsIcESaIcEEEN8facebook5velox8TypeKindEEC2IRA7_KcS9_TnNSt9enable_ifIXaaclsr5_PCCPE22_MoveConstructiblePairIT_T0_EEclsr5_PCCPE30_ImplicitlyMoveConvertiblePairISG_SH_EEEbE4typeELb1EEEOSG_OSH_(ptr noundef nonnull align 8 dereferenceable(33) %arrayinit.element10, ptr noundef nonnull align 1 dereferenceable(7) @.str.4, ptr noundef nonnull align 1 dereferenceable(1) %ref.tmp11)
          to label %invoke.cont12 unwind label %lpad

invoke.cont12:                                    ; preds = %invoke.cont9
  %arrayinit.element13 = getelementptr inbounds %"struct.std::pair", ptr %ref.tmp, i64 5
  store i8 10, ptr %ref.tmp14, align 1
  invoke void @_ZNSt4pairIKNSt7__cxx1112basic_stringIcSt11char_traitsIcESaIcEEEN8facebook5velox8TypeKindEEC2IRA8_KcS9_TnNSt9enable_ifIXaaclsr5_PCCPE22_MoveConstructiblePairIT_T0_EEclsr5_PCCPE30_ImplicitlyMoveConvertiblePairISG_SH_EEEbE4typeELb1EEEOSG_OSH_(ptr noundef nonnull align 8 dereferenceable(33) %arrayinit.element13, ptr noundef nonnull align 1 dereferenceable(8) @.str.5, ptr noundef nonnull align 1 dereferenceable(1) %ref.tmp14)
          to label %invoke.cont15 unwind label %lpad

invoke.cont15:                                    ; preds = %invoke.cont12
  %arrayinit.element16 = getelementptr inbounds %"struct.std::pair", ptr %ref.tmp, i64 6
  store i8 5, ptr %ref.tmp17, align 1
  invoke void @_ZNSt4pairIKNSt7__cxx1112basic_stringIcSt11char_traitsIcESaIcEEEN8facebook5velox8TypeKindEEC2IRA5_KcS9_TnNSt9enable_ifIXaaclsr5_PCCPE22_MoveConstructiblePairIT_T0_EEclsr5_PCCPE30_ImplicitlyMoveConvertiblePairISG_SH_EEEbE4typeELb1EEEOSG_OSH_(ptr noundef nonnull align 8 dereferenceable(33) %arrayinit.element16, ptr noundef nonnull align 1 dereferenceable(5) @.str.6, ptr noundef nonnull align 1 dereferenceable(1) %ref.tmp17)
          to label %invoke.cont18 unwind label %lpad

invoke.cont18:                                    ; preds = %invoke.cont15
  %arrayinit.element19 = getelementptr inbounds %"struct.std::pair", ptr %ref.tmp, i64 7
  store i8 6, ptr %ref.tmp20, align 1
  invoke void @_ZNSt4pairIKNSt7__cxx1112basic_stringIcSt11char_traitsIcESaIcEEEN8facebook5velox8TypeKindEEC2IRA7_KcS9_TnNSt9enable_ifIXaaclsr5_PCCPE22_MoveConstructiblePairIT_T0_EEclsr5_PCCPE30_ImplicitlyMoveConvertiblePairISG_SH_EEEbE4typeELb1EEEOSG_OSH_(ptr noundef nonnull align 8 dereferenceable(33) %arrayinit.element19, ptr noundef nonnull align 1 dereferenceable(7) @.str.7, ptr noundef nonnull align 1 dereferenceable(1) %ref.tmp20)
          to label %invoke.cont21 unwind label %lpad

invoke.cont21:                                    ; preds = %invoke.cont18
  %arrayinit.element22 = getelementptr inbounds %"struct.std::pair", ptr %ref.tmp, i64 8
  store i8 7, ptr %ref.tmp23, align 1
  invoke void @_ZNSt4pairIKNSt7__cxx1112basic_stringIcSt11char_traitsIcESaIcEEEN8facebook5velox8TypeKindEEC2IRA8_KcS9_TnNSt9enable_ifIXaaclsr5_PCCPE22_MoveConstructiblePairIT_T0_EEclsr5_PCCPE30_ImplicitlyMoveConvertiblePairISG_SH_EEEbE4typeELb1EEEOSG_OSH_(ptr noundef nonnull align 8 dereferenceable(33) %arrayinit.element22, ptr noundef nonnull align 1 dereferenceable(8) @.str.8, ptr noundef nonnull align 1 dereferenceable(1) %ref.tmp23)
          to label %invoke.cont24 unwind label %lpad

invoke.cont24:                                    ; preds = %invoke.cont21
  %arrayinit.element25 = getelementptr inbounds %"struct.std::pair", ptr %ref.tmp, i64 9
  store i8 8, ptr %ref.tmp26, align 1
  invoke void @_ZNSt4pairIKNSt7__cxx1112basic_stringIcSt11char_traitsIcESaIcEEEN8facebook5velox8TypeKindEEC2IRA10_KcS9_TnNSt9enable_ifIXaaclsr5_PCCPE22_MoveConstructiblePairIT_T0_EEclsr5_PCCPE30_ImplicitlyMoveConvertiblePairISG_SH_EEEbE4typeELb1EEEOSG_OSH_(ptr noundef nonnull align 8 dereferenceable(33) %arrayinit.element25, ptr noundef nonnull align 1 dereferenceable(10) @.str.9, ptr noundef nonnull align 1 dereferenceable(1) %ref.tmp26)
          to label %invoke.cont27 unwind label %lpad

invoke.cont27:                                    ; preds = %invoke.cont24
  %arrayinit.element28 = getelementptr inbounds %"struct.std::pair", ptr %ref.tmp, i64 10
  store i8 9, ptr %ref.tmp29, align 1
  invoke void @_ZNSt4pairIKNSt7__cxx1112basic_stringIcSt11char_traitsIcESaIcEEEN8facebook5velox8TypeKindEEC2IRA10_KcS9_TnNSt9enable_ifIXaaclsr5_PCCPE22_MoveConstructiblePairIT_T0_EEclsr5_PCCPE30_ImplicitlyMoveConvertiblePairISG_SH_EEEbE4typeELb1EEEOSG_OSH_(ptr noundef nonnull align 8 dereferenceable(33) %arrayinit.element28, ptr noundef nonnull align 1 dereferenceable(10) @.str.10, ptr noundef nonnull align 1 dereferenceable(1) %ref.tmp29)
          to label %invoke.cont30 unwind label %lpad

invoke.cont30:                                    ; preds = %invoke.cont27
  %arrayinit.element31 = getelementptr inbounds %"struct.std::pair", ptr %ref.tmp, i64 11
  store i8 30, ptr %ref.tmp32, align 1
  invoke void @_ZNSt4pairIKNSt7__cxx1112basic_stringIcSt11char_traitsIcESaIcEEEN8facebook5velox8TypeKindEEC2IRA6_KcS9_TnNSt9enable_ifIXaaclsr5_PCCPE22_MoveConstructiblePairIT_T0_EEclsr5_PCCPE30_ImplicitlyMoveConvertiblePairISG_SH_EEEbE4typeELb1EEEOSG_OSH_(ptr noundef nonnull align 8 dereferenceable(33) %arrayinit.element31, ptr noundef nonnull align 1 dereferenceable(6) @.str.11, ptr noundef nonnull align 1 dereferenceable(1) %ref.tmp32)
          to label %invoke.cont33 unwind label %lpad

invoke.cont33:                                    ; preds = %invoke.cont30
  %arrayinit.element34 = getelementptr inbounds %"struct.std::pair", ptr %ref.tmp, i64 12
  store i8 31, ptr %ref.tmp35, align 1
  invoke void @_ZNSt4pairIKNSt7__cxx1112basic_stringIcSt11char_traitsIcESaIcEEEN8facebook5velox8TypeKindEEC2IRA4_KcS9_TnNSt9enable_ifIXaaclsr5_PCCPE22_MoveConstructiblePairIT_T0_EEclsr5_PCCPE30_ImplicitlyMoveConvertiblePairISG_SH_EEEbE4typeELb1EEEOSG_OSH_(ptr noundef nonnull align 8 dereferenceable(33) %arrayinit.element34, ptr noundef nonnull align 1 dereferenceable(4) @.str.12, ptr noundef nonnull align 1 dereferenceable(1) %ref.tmp35)
          to label %invoke.cont36 unwind label %lpad

invoke.cont36:                                    ; preds = %invoke.cont33
  %arrayinit.element37 = getelementptr inbounds %"struct.std::pair", ptr %ref.tmp, i64 13
  store i8 32, ptr %ref.tmp38, align 1
  invoke void @_ZNSt4pairIKNSt7__cxx1112basic_stringIcSt11char_traitsIcESaIcEEEN8facebook5velox8TypeKindEEC2IRA4_KcS9_TnNSt9enable_ifIXaaclsr5_PCCPE22_MoveConstructiblePairIT_T0_EEclsr5_PCCPE30_ImplicitlyMoveConvertiblePairISG_SH_EEEbE4typeELb1EEEOSG_OSH_(ptr noundef nonnull align 8 dereferenceable(33) %arrayinit.element37, ptr noundef nonnull align 1 dereferenceable(4) @.str.13, ptr noundef nonnull align 1 dereferenceable(1) %ref.tmp38)
          to label %invoke.cont39 unwind label %lpad

invoke.cont39:                                    ; preds = %invoke.cont36
  %arrayinit.element40 = getelementptr inbounds %"struct.std::pair", ptr %ref.tmp, i64 14
  store i8 34, ptr %ref.tmp41, align 1
  invoke void @_ZNSt4pairIKNSt7__cxx1112basic_stringIcSt11char_traitsIcESaIcEEEN8facebook5velox8TypeKindEEC2IRA9_KcS9_TnNSt9enable_ifIXaaclsr5_PCCPE22_MoveConstructiblePairIT_T0_EEclsr5_PCCPE30_ImplicitlyMoveConvertiblePairISG_SH_EEEbE4typeELb1EEEOSG_OSH_(ptr noundef nonnull align 8 dereferenceable(33) %arrayinit.element40, ptr noundef nonnull align 1 dereferenceable(9) @.str.14, ptr noundef nonnull align 1 dereferenceable(1) %ref.tmp41)
          to label %invoke.cont42 unwind label %lpad

invoke.cont42:                                    ; preds = %invoke.cont39
  %arrayinit.element43 = getelementptr inbounds %"struct.std::pair", ptr %ref.tmp, i64 15
  store i8 33, ptr %ref.tmp44, align 1
  invoke void @_ZNSt4pairIKNSt7__cxx1112basic_stringIcSt11char_traitsIcESaIcEEEN8facebook5velox8TypeKindEEC2IRA8_KcS9_TnNSt9enable_ifIXaaclsr5_PCCPE22_MoveConstructiblePairIT_T0_EEclsr5_PCCPE30_ImplicitlyMoveConvertiblePairISG_SH_EEEbE4typeELb1EEEOSG_OSH_(ptr noundef nonnull align 8 dereferenceable(33) %arrayinit.element43, ptr noundef nonnull align 1 dereferenceable(8) @.str.15, ptr noundef nonnull align 1 dereferenceable(1) %ref.tmp44)
          to label %invoke.cont45 unwind label %lpad

invoke.cont45:                                    ; preds = %invoke.cont42
  %arrayinit.element46 = getelementptr inbounds %"struct.std::pair", ptr %ref.tmp, i64 16
  store i8 35, ptr %ref.tmp47, align 1
  invoke void @_ZNSt4pairIKNSt7__cxx1112basic_stringIcSt11char_traitsIcESaIcEEEN8facebook5velox8TypeKindEEC2IRA7_KcS9_TnNSt9enable_ifIXaaclsr5_PCCPE22_MoveConstructiblePairIT_T0_EEclsr5_PCCPE30_ImplicitlyMoveConvertiblePairISG_SH_EEEbE4typeELb1EEEOSG_OSH_(ptr noundef nonnull align 8 dereferenceable(33) %arrayinit.element46, ptr noundef nonnull align 1 dereferenceable(7) @.str.16, ptr noundef nonnull align 1 dereferenceable(1) %ref.tmp47)
          to label %invoke.cont48 unwind label %lpad

invoke.cont48:                                    ; preds = %invoke.cont45
  %arrayinit.element49 = getelementptr inbounds %"struct.std::pair", ptr %ref.tmp, i64 17
  store i8 36, ptr %ref.tmp50, align 1
  invoke void @_ZNSt4pairIKNSt7__cxx1112basic_stringIcSt11char_traitsIcESaIcEEEN8facebook5velox8TypeKindEEC2IRA8_KcS9_TnNSt9enable_ifIXaaclsr5_PCCPE22_MoveConstructiblePairIT_T0_EEclsr5_PCCPE30_ImplicitlyMoveConvertiblePairISG_SH_EEEbE4typeELb1EEEOSG_OSH_(ptr noundef nonnull align 8 dereferenceable(33) %arrayinit.element49, ptr noundef nonnull align 1 dereferenceable(8) @.str.17, ptr noundef nonnull align 1 dereferenceable(1) %ref.tmp50)
          to label %invoke.cont51 unwind label %lpad

invoke.cont51:                                    ; preds = %invoke.cont48
  %add.ptr.i.i.i = getelementptr inbounds %"struct.std::pair", ptr %ref.tmp, i64 18
  invoke void @_ZNSt10_HashtableINSt7__cxx1112basic_stringIcSt11char_traitsIcESaIcEEESt4pairIKS5_N8facebook5velox8TypeKindEESaISB_ENSt8__detail10_Select1stESt8equal_toIS5_ESt4hashIS5_ENSD_18_Mod_range_hashingENSD_20_Default_ranged_hashENSD_20_Prime_rehash_policyENSD_17_Hashtable_traitsILb1ELb0ELb1EEEEC2IPKSB_EET_SS_mRKSI_RKSG_RKSC_St17integral_constantIbLb1EE(ptr noundef nonnull align 8 dereferenceable(56) @_ZZN8facebook5velox16getTypeStringMapB5cxx11EvE14kTypeStringMapB5cxx11, ptr noundef nonnull %ref.tmp, ptr noundef nonnull %add.ptr.i.i.i, i64 noundef 0, ptr noundef nonnull align 1 dereferenceable(1) %ref.tmp53, ptr noundef nonnull align 1 dereferenceable(1) %ref.tmp54, ptr noundef nonnull align 1 dereferenceable(1) %ref.tmp55)
          to label %arraydestroy.body58 unwind label %lpad56

arraydestroy.body58:                              ; preds = %invoke.cont51, %arraydestroy.body58
  %arraydestroy.elementPast59 = phi ptr [ %arraydestroy.element60, %arraydestroy.body58 ], [ %add.ptr.i.i.i, %invoke.cont51 ]
  %arraydestroy.element60 = getelementptr inbounds %"struct.std::pair", ptr %arraydestroy.elementPast59, i64 -1
  call void @_ZNSt7__cxx1112basic_stringIcSt11char_traitsIcESaIcEED1Ev(ptr noundef nonnull align 8 dereferenceable(32) %arraydestroy.element60) #37
  %arraydestroy.done61 = icmp eq ptr %arraydestroy.element60, %ref.tmp
  br i1 %arraydestroy.done61, label %arraydestroy.done62, label %arraydestroy.body58

arraydestroy.done62:                              ; preds = %arraydestroy.body58
  %3 = call i32 @__cxa_atexit(ptr nonnull @_ZNSt13unordered_mapINSt7__cxx1112basic_stringIcSt11char_traitsIcESaIcEEEN8facebook5velox8TypeKindESt4hashIS5_ESt8equal_toIS5_ESaISt4pairIKS5_S8_EEED2Ev, ptr nonnull @_ZZN8facebook5velox16getTypeStringMapB5cxx11EvE14kTypeStringMapB5cxx11, ptr nonnull @__dso_handle) #37
  call void @__cxa_guard_release(ptr nonnull @_ZGVZN8facebook5velox16getTypeStringMapB5cxx11EvE14kTypeStringMapB5cxx11) #37
  br label %init.end

init.end:                                         ; preds = %arraydestroy.done62, %init.check, %entry
  ret ptr @_ZZN8facebook5velox16getTypeStringMapB5cxx11EvE14kTypeStringMapB5cxx11

lpad:                                             ; preds = %invoke.cont48, %invoke.cont45, %invoke.cont42, %invoke.cont39, %invoke.cont36, %invoke.cont33, %invoke.cont30, %invoke.cont27, %invoke.cont24, %invoke.cont21, %invoke.cont18, %invoke.cont15, %invoke.cont12, %invoke.cont9, %invoke.cont6, %invoke.cont3, %invoke.cont
  %arrayinit.endOfInit.0 = phi ptr [ %arrayinit.element49, %invoke.cont48 ], [ %arrayinit.element46, %invoke.cont45 ], [ %arrayinit.element43, %invoke.cont42 ], [ %arrayinit.element40, %invoke.cont39 ], [ %arrayinit.element37, %invoke.cont36 ], [ %arrayinit.element34, %invoke.cont33 ], [ %arrayinit.element31, %invoke.cont30 ], [ %arrayinit.element28, %invoke.cont27 ], [ %arrayinit.element25, %invoke.cont24 ], [ %arrayinit.element22, %invoke.cont21 ], [ %arrayinit.element19, %invoke.cont18 ], [ %arrayinit.element16, %invoke.cont15 ], [ %arrayinit.element13, %invoke.cont12 ], [ %arrayinit.element10, %invoke.cont9 ], [ %arrayinit.element7, %invoke.cont6 ], [ %arrayinit.element4, %invoke.cont3 ], [ %arrayinit.element, %invoke.cont ]
  %4 = landingpad { ptr, i32 }
          cleanup
  br label %arraydestroy.body

arraydestroy.body:                                ; preds = %lpad, %arraydestroy.body
  %arraydestroy.elementPast = phi ptr [ %arrayinit.endOfInit.0, %lpad ], [ %arraydestroy.element, %arraydestroy.body ]
  %arraydestroy.element = getelementptr inbounds %"struct.std::pair", ptr %arraydestroy.elementPast, i64 -1
  call void @_ZNSt7__cxx1112basic_stringIcSt11char_traitsIcESaIcEED1Ev(ptr noundef nonnull align 8 dereferenceable(32) %arraydestroy.element) #37
  %arraydestroy.done = icmp eq ptr %arraydestroy.element, %ref.tmp
  br i1 %arraydestroy.done, label %ehcleanup, label %arraydestroy.body

lpad56:                                           ; preds = %invoke.cont51
  %5 = landingpad { ptr, i32 }
          cleanup
  br label %arraydestroy.body64

arraydestroy.body64:                              ; preds = %arraydestroy.body64, %lpad56
  %arraydestroy.elementPast65 = phi ptr [ %add.ptr.i.i.i, %lpad56 ], [ %arraydestroy.element66, %arraydestroy.body64 ]
  %arraydestroy.element66 = getelementptr inbounds %"struct.std::pair", ptr %arraydestroy.elementPast65, i64 -1
  call void @_ZNSt7__cxx1112basic_stringIcSt11char_traitsIcESaIcEED1Ev(ptr noundef nonnull align 8 dereferenceable(32) %arraydestroy.element66) #37
  %arraydestroy.done67 = icmp eq ptr %arraydestroy.element66, %ref.tmp
  br i1 %arraydestroy.done67, label %ehcleanup, label %arraydestroy.body64

ehcleanup:                                        ; preds = %arraydestroy.body, %arraydestroy.body64, %lpad.thread
  %.pn = phi { ptr, i32 } [ %2, %lpad.thread ], [ %5, %arraydestroy.body64 ], [ %4, %arraydestroy.body ]
  call void @__cxa_guard_abort(ptr nonnull @_ZGVZN8facebook5velox16getTypeStringMapB5cxx11EvE14kTypeStringMapB5cxx11) #37
  resume { ptr, i32 } %.pn
}

; Function Attrs: nofree nounwind
declare i32 @__cxa_guard_acquire(ptr) local_unnamed_addr #1

; Function Attrs: mustprogress uwtable
define linkonce_odr void @_ZNSt4pairIKNSt7__cxx1112basic_stringIcSt11char_traitsIcESaIcEEEN8facebook5velox8TypeKindEEC2IRA8_KcS9_TnNSt9enable_ifIXaaclsr5_PCCPE22_MoveConstructiblePairIT_T0_EEclsr5_PCCPE30_ImplicitlyMoveConvertiblePairISG_SH_EEEbE4typeELb1EEEOSG_OSH_(ptr noundef nonnull align 8 dereferenceable(33) %this, ptr noundef nonnull align 1 dereferenceable(8) %__x, ptr noundef nonnull align 1 dereferenceable(1) %__y) unnamed_addr #0 comdat align 2 personality ptr @__gxx_personality_v0 {
entry:
  %ref.tmp = alloca %"class.std::allocator.2", align 1
  call void @_ZNSaIcEC1Ev(ptr noundef nonnull align 1 dereferenceable(1) %ref.tmp) #37
  %call.i1 = invoke noundef ptr @_ZNSt7__cxx1112basic_stringIcSt11char_traitsIcESaIcEE13_M_local_dataEv(ptr noundef nonnull align 8 dereferenceable(32) %this)
          to label %call.i.noexc unwind label %lpad

call.i.noexc:                                     ; preds = %entry
  invoke void @_ZNSt7__cxx1112basic_stringIcSt11char_traitsIcESaIcEE12_Alloc_hiderC1EPcRKS3_(ptr noundef nonnull align 8 dereferenceable(8) %this, ptr noundef %call.i1, ptr noundef nonnull align 1 dereferenceable(1) %ref.tmp)
          to label %.noexc unwind label %lpad

.noexc:                                           ; preds = %call.i.noexc
  %call.i.i = call noundef i64 @strlen(ptr noundef nonnull dereferenceable(1) %__x) #37
  %add.ptr.i = getelementptr inbounds i8, ptr %__x, i64 %call.i.i
  invoke void @_ZNSt7__cxx1112basic_stringIcSt11char_traitsIcESaIcEE12_M_constructIPKcEEvT_S8_St20forward_iterator_tag(ptr noundef nonnull align 8 dereferenceable(32) %this, ptr noundef nonnull %__x, ptr noundef nonnull %add.ptr.i)
          to label %invoke.cont unwind label %lpad.i

lpad.i:                                           ; preds = %.noexc
  %0 = landingpad { ptr, i32 }
          cleanup
  call void @_ZNSaIcED2Ev(ptr noundef nonnull align 1 dereferenceable(1) %this) #37
  br label %lpad.body

invoke.cont:                                      ; preds = %.noexc
  call void @_ZNSaIcED1Ev(ptr noundef nonnull align 1 dereferenceable(1) %ref.tmp) #37
  %second = getelementptr inbounds %"struct.std::pair", ptr %this, i64 0, i32 1
  %1 = load i8, ptr %__y, align 1
  store i8 %1, ptr %second, align 8
  ret void

lpad:                                             ; preds = %call.i.noexc, %entry
  %2 = landingpad { ptr, i32 }
          cleanup
  br label %lpad.body

lpad.body:                                        ; preds = %lpad.i, %lpad
  %eh.lpad-body = phi { ptr, i32 } [ %2, %lpad ], [ %0, %lpad.i ]
  call void @_ZNSaIcED1Ev(ptr noundef nonnull align 1 dereferenceable(1) %ref.tmp) #37
  resume { ptr, i32 } %eh.lpad-body
}

declare i32 @__gxx_personality_v0(...)

; Function Attrs: mustprogress uwtable
define linkonce_odr void @_ZNSt4pairIKNSt7__cxx1112basic_stringIcSt11char_traitsIcESaIcEEEN8facebook5velox8TypeKindEEC2IRA9_KcS9_TnNSt9enable_ifIXaaclsr5_PCCPE22_MoveConstructiblePairIT_T0_EEclsr5_PCCPE30_ImplicitlyMoveConvertiblePairISG_SH_EEEbE4typeELb1EEEOSG_OSH_(ptr noundef nonnull align 8 dereferenceable(33) %this, ptr noundef nonnull align 1 dereferenceable(9) %__x, ptr noundef nonnull align 1 dereferenceable(1) %__y) unnamed_addr #0 comdat align 2 personality ptr @__gxx_personality_v0 {
entry:
  %ref.tmp = alloca %"class.std::allocator.2", align 1
  call void @_ZNSaIcEC1Ev(ptr noundef nonnull align 1 dereferenceable(1) %ref.tmp) #37
  %call.i1 = invoke noundef ptr @_ZNSt7__cxx1112basic_stringIcSt11char_traitsIcESaIcEE13_M_local_dataEv(ptr noundef nonnull align 8 dereferenceable(32) %this)
          to label %call.i.noexc unwind label %lpad

call.i.noexc:                                     ; preds = %entry
  invoke void @_ZNSt7__cxx1112basic_stringIcSt11char_traitsIcESaIcEE12_Alloc_hiderC1EPcRKS3_(ptr noundef nonnull align 8 dereferenceable(8) %this, ptr noundef %call.i1, ptr noundef nonnull align 1 dereferenceable(1) %ref.tmp)
          to label %.noexc unwind label %lpad

.noexc:                                           ; preds = %call.i.noexc
  %call.i.i = call noundef i64 @strlen(ptr noundef nonnull dereferenceable(1) %__x) #37
  %add.ptr.i = getelementptr inbounds i8, ptr %__x, i64 %call.i.i
  invoke void @_ZNSt7__cxx1112basic_stringIcSt11char_traitsIcESaIcEE12_M_constructIPKcEEvT_S8_St20forward_iterator_tag(ptr noundef nonnull align 8 dereferenceable(32) %this, ptr noundef nonnull %__x, ptr noundef nonnull %add.ptr.i)
          to label %invoke.cont unwind label %lpad.i

lpad.i:                                           ; preds = %.noexc
  %0 = landingpad { ptr, i32 }
          cleanup
  call void @_ZNSaIcED2Ev(ptr noundef nonnull align 1 dereferenceable(1) %this) #37
  br label %lpad.body

invoke.cont:                                      ; preds = %.noexc
  call void @_ZNSaIcED1Ev(ptr noundef nonnull align 1 dereferenceable(1) %ref.tmp) #37
  %second = getelementptr inbounds %"struct.std::pair", ptr %this, i64 0, i32 1
  %1 = load i8, ptr %__y, align 1
  store i8 %1, ptr %second, align 8
  ret void

lpad:                                             ; preds = %call.i.noexc, %entry
  %2 = landingpad { ptr, i32 }
          cleanup
  br label %lpad.body

lpad.body:                                        ; preds = %lpad.i, %lpad
  %eh.lpad-body = phi { ptr, i32 } [ %2, %lpad ], [ %0, %lpad.i ]
  call void @_ZNSaIcED1Ev(ptr noundef nonnull align 1 dereferenceable(1) %ref.tmp) #37
  resume { ptr, i32 } %eh.lpad-body
}

; Function Attrs: mustprogress uwtable
define linkonce_odr void @_ZNSt4pairIKNSt7__cxx1112basic_stringIcSt11char_traitsIcESaIcEEEN8facebook5velox8TypeKindEEC2IRA7_KcS9_TnNSt9enable_ifIXaaclsr5_PCCPE22_MoveConstructiblePairIT_T0_EEclsr5_PCCPE30_ImplicitlyMoveConvertiblePairISG_SH_EEEbE4typeELb1EEEOSG_OSH_(ptr noundef nonnull align 8 dereferenceable(33) %this, ptr noundef nonnull align 1 dereferenceable(7) %__x, ptr noundef nonnull align 1 dereferenceable(1) %__y) unnamed_addr #0 comdat align 2 personality ptr @__gxx_personality_v0 {
entry:
  %ref.tmp = alloca %"class.std::allocator.2", align 1
  call void @_ZNSaIcEC1Ev(ptr noundef nonnull align 1 dereferenceable(1) %ref.tmp) #37
  %call.i1 = invoke noundef ptr @_ZNSt7__cxx1112basic_stringIcSt11char_traitsIcESaIcEE13_M_local_dataEv(ptr noundef nonnull align 8 dereferenceable(32) %this)
          to label %call.i.noexc unwind label %lpad

call.i.noexc:                                     ; preds = %entry
  invoke void @_ZNSt7__cxx1112basic_stringIcSt11char_traitsIcESaIcEE12_Alloc_hiderC1EPcRKS3_(ptr noundef nonnull align 8 dereferenceable(8) %this, ptr noundef %call.i1, ptr noundef nonnull align 1 dereferenceable(1) %ref.tmp)
          to label %.noexc unwind label %lpad

.noexc:                                           ; preds = %call.i.noexc
  %call.i.i = call noundef i64 @strlen(ptr noundef nonnull dereferenceable(1) %__x) #37
  %add.ptr.i = getelementptr inbounds i8, ptr %__x, i64 %call.i.i
  invoke void @_ZNSt7__cxx1112basic_stringIcSt11char_traitsIcESaIcEE12_M_constructIPKcEEvT_S8_St20forward_iterator_tag(ptr noundef nonnull align 8 dereferenceable(32) %this, ptr noundef nonnull %__x, ptr noundef nonnull %add.ptr.i)
          to label %invoke.cont unwind label %lpad.i

lpad.i:                                           ; preds = %.noexc
  %0 = landingpad { ptr, i32 }
          cleanup
  call void @_ZNSaIcED2Ev(ptr noundef nonnull align 1 dereferenceable(1) %this) #37
  br label %lpad.body

invoke.cont:                                      ; preds = %.noexc
  call void @_ZNSaIcED1Ev(ptr noundef nonnull align 1 dereferenceable(1) %ref.tmp) #37
  %second = getelementptr inbounds %"struct.std::pair", ptr %this, i64 0, i32 1
  %1 = load i8, ptr %__y, align 1
  store i8 %1, ptr %second, align 8
  ret void

lpad:                                             ; preds = %call.i.noexc, %entry
  %2 = landingpad { ptr, i32 }
          cleanup
  br label %lpad.body

lpad.body:                                        ; preds = %lpad.i, %lpad
  %eh.lpad-body = phi { ptr, i32 } [ %2, %lpad ], [ %0, %lpad.i ]
  call void @_ZNSaIcED1Ev(ptr noundef nonnull align 1 dereferenceable(1) %ref.tmp) #37
  resume { ptr, i32 } %eh.lpad-body
}

; Function Attrs: mustprogress uwtable
define linkonce_odr void @_ZNSt4pairIKNSt7__cxx1112basic_stringIcSt11char_traitsIcESaIcEEEN8facebook5velox8TypeKindEEC2IRA5_KcS9_TnNSt9enable_ifIXaaclsr5_PCCPE22_MoveConstructiblePairIT_T0_EEclsr5_PCCPE30_ImplicitlyMoveConvertiblePairISG_SH_EEEbE4typeELb1EEEOSG_OSH_(ptr noundef nonnull align 8 dereferenceable(33) %this, ptr noundef nonnull align 1 dereferenceable(5) %__x, ptr noundef nonnull align 1 dereferenceable(1) %__y) unnamed_addr #0 comdat align 2 personality ptr @__gxx_personality_v0 {
entry:
  %ref.tmp = alloca %"class.std::allocator.2", align 1
  call void @_ZNSaIcEC1Ev(ptr noundef nonnull align 1 dereferenceable(1) %ref.tmp) #37
  %call.i1 = invoke noundef ptr @_ZNSt7__cxx1112basic_stringIcSt11char_traitsIcESaIcEE13_M_local_dataEv(ptr noundef nonnull align 8 dereferenceable(32) %this)
          to label %call.i.noexc unwind label %lpad

call.i.noexc:                                     ; preds = %entry
  invoke void @_ZNSt7__cxx1112basic_stringIcSt11char_traitsIcESaIcEE12_Alloc_hiderC1EPcRKS3_(ptr noundef nonnull align 8 dereferenceable(8) %this, ptr noundef %call.i1, ptr noundef nonnull align 1 dereferenceable(1) %ref.tmp)
          to label %.noexc unwind label %lpad

.noexc:                                           ; preds = %call.i.noexc
  %call.i.i = call noundef i64 @strlen(ptr noundef nonnull dereferenceable(1) %__x) #37
  %add.ptr.i = getelementptr inbounds i8, ptr %__x, i64 %call.i.i
  invoke void @_ZNSt7__cxx1112basic_stringIcSt11char_traitsIcESaIcEE12_M_constructIPKcEEvT_S8_St20forward_iterator_tag(ptr noundef nonnull align 8 dereferenceable(32) %this, ptr noundef nonnull %__x, ptr noundef nonnull %add.ptr.i)
          to label %invoke.cont unwind label %lpad.i

lpad.i:                                           ; preds = %.noexc
  %0 = landingpad { ptr, i32 }
          cleanup
  call void @_ZNSaIcED2Ev(ptr noundef nonnull align 1 dereferenceable(1) %this) #37
  br label %lpad.body

invoke.cont:                                      ; preds = %.noexc
  call void @_ZNSaIcED1Ev(ptr noundef nonnull align 1 dereferenceable(1) %ref.tmp) #37
  %second = getelementptr inbounds %"struct.std::pair", ptr %this, i64 0, i32 1
  %1 = load i8, ptr %__y, align 1
  store i8 %1, ptr %second, align 8
  ret void

lpad:                                             ; preds = %call.i.noexc, %entry
  %2 = landingpad { ptr, i32 }
          cleanup
  br label %lpad.body

lpad.body:                                        ; preds = %lpad.i, %lpad
  %eh.lpad-body = phi { ptr, i32 } [ %2, %lpad ], [ %0, %lpad.i ]
  call void @_ZNSaIcED1Ev(ptr noundef nonnull align 1 dereferenceable(1) %ref.tmp) #37
  resume { ptr, i32 } %eh.lpad-body
}

; Function Attrs: mustprogress uwtable
define linkonce_odr void @_ZNSt4pairIKNSt7__cxx1112basic_stringIcSt11char_traitsIcESaIcEEEN8facebook5velox8TypeKindEEC2IRA10_KcS9_TnNSt9enable_ifIXaaclsr5_PCCPE22_MoveConstructiblePairIT_T0_EEclsr5_PCCPE30_ImplicitlyMoveConvertiblePairISG_SH_EEEbE4typeELb1EEEOSG_OSH_(ptr noundef nonnull align 8 dereferenceable(33) %this, ptr noundef nonnull align 1 dereferenceable(10) %__x, ptr noundef nonnull align 1 dereferenceable(1) %__y) unnamed_addr #0 comdat align 2 personality ptr @__gxx_personality_v0 {
entry:
  %ref.tmp = alloca %"class.std::allocator.2", align 1
  call void @_ZNSaIcEC1Ev(ptr noundef nonnull align 1 dereferenceable(1) %ref.tmp) #37
  %call.i1 = invoke noundef ptr @_ZNSt7__cxx1112basic_stringIcSt11char_traitsIcESaIcEE13_M_local_dataEv(ptr noundef nonnull align 8 dereferenceable(32) %this)
          to label %call.i.noexc unwind label %lpad

call.i.noexc:                                     ; preds = %entry
  invoke void @_ZNSt7__cxx1112basic_stringIcSt11char_traitsIcESaIcEE12_Alloc_hiderC1EPcRKS3_(ptr noundef nonnull align 8 dereferenceable(8) %this, ptr noundef %call.i1, ptr noundef nonnull align 1 dereferenceable(1) %ref.tmp)
          to label %.noexc unwind label %lpad

.noexc:                                           ; preds = %call.i.noexc
  %call.i.i = call noundef i64 @strlen(ptr noundef nonnull dereferenceable(1) %__x) #37
  %add.ptr.i = getelementptr inbounds i8, ptr %__x, i64 %call.i.i
  invoke void @_ZNSt7__cxx1112basic_stringIcSt11char_traitsIcESaIcEE12_M_constructIPKcEEvT_S8_St20forward_iterator_tag(ptr noundef nonnull align 8 dereferenceable(32) %this, ptr noundef nonnull %__x, ptr noundef nonnull %add.ptr.i)
          to label %invoke.cont unwind label %lpad.i

lpad.i:                                           ; preds = %.noexc
  %0 = landingpad { ptr, i32 }
          cleanup
  call void @_ZNSaIcED2Ev(ptr noundef nonnull align 1 dereferenceable(1) %this) #37
  br label %lpad.body

invoke.cont:                                      ; preds = %.noexc
  call void @_ZNSaIcED1Ev(ptr noundef nonnull align 1 dereferenceable(1) %ref.tmp) #37
  %second = getelementptr inbounds %"struct.std::pair", ptr %this, i64 0, i32 1
  %1 = load i8, ptr %__y, align 1
  store i8 %1, ptr %second, align 8
  ret void

lpad:                                             ; preds = %call.i.noexc, %entry
  %2 = landingpad { ptr, i32 }
          cleanup
  br label %lpad.body

lpad.body:                                        ; preds = %lpad.i, %lpad
  %eh.lpad-body = phi { ptr, i32 } [ %2, %lpad ], [ %0, %lpad.i ]
  call void @_ZNSaIcED1Ev(ptr noundef nonnull align 1 dereferenceable(1) %ref.tmp) #37
  resume { ptr, i32 } %eh.lpad-body
}

; Function Attrs: mustprogress uwtable
define linkonce_odr void @_ZNSt4pairIKNSt7__cxx1112basic_stringIcSt11char_traitsIcESaIcEEEN8facebook5velox8TypeKindEEC2IRA6_KcS9_TnNSt9enable_ifIXaaclsr5_PCCPE22_MoveConstructiblePairIT_T0_EEclsr5_PCCPE30_ImplicitlyMoveConvertiblePairISG_SH_EEEbE4typeELb1EEEOSG_OSH_(ptr noundef nonnull align 8 dereferenceable(33) %this, ptr noundef nonnull align 1 dereferenceable(6) %__x, ptr noundef nonnull align 1 dereferenceable(1) %__y) unnamed_addr #0 comdat align 2 personality ptr @__gxx_personality_v0 {
entry:
  %ref.tmp = alloca %"class.std::allocator.2", align 1
  call void @_ZNSaIcEC1Ev(ptr noundef nonnull align 1 dereferenceable(1) %ref.tmp) #37
  %call.i1 = invoke noundef ptr @_ZNSt7__cxx1112basic_stringIcSt11char_traitsIcESaIcEE13_M_local_dataEv(ptr noundef nonnull align 8 dereferenceable(32) %this)
          to label %call.i.noexc unwind label %lpad

call.i.noexc:                                     ; preds = %entry
  invoke void @_ZNSt7__cxx1112basic_stringIcSt11char_traitsIcESaIcEE12_Alloc_hiderC1EPcRKS3_(ptr noundef nonnull align 8 dereferenceable(8) %this, ptr noundef %call.i1, ptr noundef nonnull align 1 dereferenceable(1) %ref.tmp)
          to label %.noexc unwind label %lpad

.noexc:                                           ; preds = %call.i.noexc
  %call.i.i = call noundef i64 @strlen(ptr noundef nonnull dereferenceable(1) %__x) #37
  %add.ptr.i = getelementptr inbounds i8, ptr %__x, i64 %call.i.i
  invoke void @_ZNSt7__cxx1112basic_stringIcSt11char_traitsIcESaIcEE12_M_constructIPKcEEvT_S8_St20forward_iterator_tag(ptr noundef nonnull align 8 dereferenceable(32) %this, ptr noundef nonnull %__x, ptr noundef nonnull %add.ptr.i)
          to label %invoke.cont unwind label %lpad.i

lpad.i:                                           ; preds = %.noexc
  %0 = landingpad { ptr, i32 }
          cleanup
  call void @_ZNSaIcED2Ev(ptr noundef nonnull align 1 dereferenceable(1) %this) #37
  br label %lpad.body

invoke.cont:                                      ; preds = %.noexc
  call void @_ZNSaIcED1Ev(ptr noundef nonnull align 1 dereferenceable(1) %ref.tmp) #37
  %second = getelementptr inbounds %"struct.std::pair", ptr %this, i64 0, i32 1
  %1 = load i8, ptr %__y, align 1
  store i8 %1, ptr %second, align 8
  ret void

lpad:                                             ; preds = %call.i.noexc, %entry
  %2 = landingpad { ptr, i32 }
          cleanup
  br label %lpad.body

lpad.body:                                        ; preds = %lpad.i, %lpad
  %eh.lpad-body = phi { ptr, i32 } [ %2, %lpad ], [ %0, %lpad.i ]
  call void @_ZNSaIcED1Ev(ptr noundef nonnull align 1 dereferenceable(1) %ref.tmp) #37
  resume { ptr, i32 } %eh.lpad-body
}

; Function Attrs: mustprogress uwtable
define linkonce_odr void @_ZNSt4pairIKNSt7__cxx1112basic_stringIcSt11char_traitsIcESaIcEEEN8facebook5velox8TypeKindEEC2IRA4_KcS9_TnNSt9enable_ifIXaaclsr5_PCCPE22_MoveConstructiblePairIT_T0_EEclsr5_PCCPE30_ImplicitlyMoveConvertiblePairISG_SH_EEEbE4typeELb1EEEOSG_OSH_(ptr noundef nonnull align 8 dereferenceable(33) %this, ptr noundef nonnull align 1 dereferenceable(4) %__x, ptr noundef nonnull align 1 dereferenceable(1) %__y) unnamed_addr #0 comdat align 2 personality ptr @__gxx_personality_v0 {
entry:
  %ref.tmp = alloca %"class.std::allocator.2", align 1
  call void @_ZNSaIcEC1Ev(ptr noundef nonnull align 1 dereferenceable(1) %ref.tmp) #37
  %call.i1 = invoke noundef ptr @_ZNSt7__cxx1112basic_stringIcSt11char_traitsIcESaIcEE13_M_local_dataEv(ptr noundef nonnull align 8 dereferenceable(32) %this)
          to label %call.i.noexc unwind label %lpad

call.i.noexc:                                     ; preds = %entry
  invoke void @_ZNSt7__cxx1112basic_stringIcSt11char_traitsIcESaIcEE12_Alloc_hiderC1EPcRKS3_(ptr noundef nonnull align 8 dereferenceable(8) %this, ptr noundef %call.i1, ptr noundef nonnull align 1 dereferenceable(1) %ref.tmp)
          to label %.noexc unwind label %lpad

.noexc:                                           ; preds = %call.i.noexc
  %call.i.i = call noundef i64 @strlen(ptr noundef nonnull dereferenceable(1) %__x) #37
  %add.ptr.i = getelementptr inbounds i8, ptr %__x, i64 %call.i.i
  invoke void @_ZNSt7__cxx1112basic_stringIcSt11char_traitsIcESaIcEE12_M_constructIPKcEEvT_S8_St20forward_iterator_tag(ptr noundef nonnull align 8 dereferenceable(32) %this, ptr noundef nonnull %__x, ptr noundef nonnull %add.ptr.i)
          to label %invoke.cont unwind label %lpad.i

lpad.i:                                           ; preds = %.noexc
  %0 = landingpad { ptr, i32 }
          cleanup
  call void @_ZNSaIcED2Ev(ptr noundef nonnull align 1 dereferenceable(1) %this) #37
  br label %lpad.body

invoke.cont:                                      ; preds = %.noexc
  call void @_ZNSaIcED1Ev(ptr noundef nonnull align 1 dereferenceable(1) %ref.tmp) #37
  %second = getelementptr inbounds %"struct.std::pair", ptr %this, i64 0, i32 1
  %1 = load i8, ptr %__y, align 1
  store i8 %1, ptr %second, align 8
  ret void

lpad:                                             ; preds = %call.i.noexc, %entry
  %2 = landingpad { ptr, i32 }
          cleanup
  br label %lpad.body

lpad.body:                                        ; preds = %lpad.i, %lpad
  %eh.lpad-body = phi { ptr, i32 } [ %2, %lpad ], [ %0, %lpad.i ]
  call void @_ZNSaIcED1Ev(ptr noundef nonnull align 1 dereferenceable(1) %ref.tmp) #37
  resume { ptr, i32 } %eh.lpad-body
}

; Function Attrs: mustprogress nounwind uwtable
define linkonce_odr void @_ZNSt13unordered_mapINSt7__cxx1112basic_stringIcSt11char_traitsIcESaIcEEEN8facebook5velox8TypeKindESt4hashIS5_ESt8equal_toIS5_ESaISt4pairIKS5_S8_EEED2Ev(ptr noundef nonnull align 8 dereferenceable(56) %this) unnamed_addr #2 comdat align 2 personality ptr @__gxx_personality_v0 {
entry:
  %_M_before_begin.i.i.i = getelementptr inbounds %"class.std::_Hashtable", ptr %this, i64 0, i32 2
  %0 = load ptr, ptr %_M_before_begin.i.i.i, align 8
  %tobool.not3.i.i.i = icmp eq ptr %0, null
  br i1 %tobool.not3.i.i.i, label %_ZNSt10_HashtableINSt7__cxx1112basic_stringIcSt11char_traitsIcESaIcEEESt4pairIKS5_N8facebook5velox8TypeKindEESaISB_ENSt8__detail10_Select1stESt8equal_toIS5_ESt4hashIS5_ENSD_18_Mod_range_hashingENSD_20_Default_ranged_hashENSD_20_Prime_rehash_policyENSD_17_Hashtable_traitsILb1ELb0ELb1EEEE5clearEv.exit.i, label %while.body.i.i.i

while.body.i.i.i:                                 ; preds = %entry, %while.body.i.i.i
  %__n.addr.04.i.i.i = phi ptr [ %1, %while.body.i.i.i ], [ %0, %entry ]
  %1 = load ptr, ptr %__n.addr.04.i.i.i, align 8
  %add.ptr.i.i.i.i = getelementptr inbounds i8, ptr %__n.addr.04.i.i.i, i64 8
  tail call void @_ZNSt7__cxx1112basic_stringIcSt11char_traitsIcESaIcEED1Ev(ptr noundef nonnull align 8 dereferenceable(32) %add.ptr.i.i.i.i) #37
  tail call void @_ZdlPv(ptr noundef nonnull %__n.addr.04.i.i.i) #38
  %tobool.not.i.i.i = icmp eq ptr %1, null
  br i1 %tobool.not.i.i.i, label %_ZNSt10_HashtableINSt7__cxx1112basic_stringIcSt11char_traitsIcESaIcEEESt4pairIKS5_N8facebook5velox8TypeKindEESaISB_ENSt8__detail10_Select1stESt8equal_toIS5_ESt4hashIS5_ENSD_18_Mod_range_hashingENSD_20_Default_ranged_hashENSD_20_Prime_rehash_policyENSD_17_Hashtable_traitsILb1ELb0ELb1EEEE5clearEv.exit.i, label %while.body.i.i.i, !llvm.loop !5

_ZNSt10_HashtableINSt7__cxx1112basic_stringIcSt11char_traitsIcESaIcEEESt4pairIKS5_N8facebook5velox8TypeKindEESaISB_ENSt8__detail10_Select1stESt8equal_toIS5_ESt4hashIS5_ENSD_18_Mod_range_hashingENSD_20_Default_ranged_hashENSD_20_Prime_rehash_policyENSD_17_Hashtable_traitsILb1ELb0ELb1EEEE5clearEv.exit.i: ; preds = %while.body.i.i.i, %entry
  %2 = load ptr, ptr %this, align 8
  %_M_bucket_count.i.i = getelementptr inbounds %"class.std::_Hashtable", ptr %this, i64 0, i32 1
  %3 = load i64, ptr %_M_bucket_count.i.i, align 8
  %mul.i.i = shl i64 %3, 3
  tail call void @llvm.memset.p0.i64(ptr align 8 %2, i8 0, i64 %mul.i.i, i1 false)
  tail call void @llvm.memset.p0.i64(ptr noundef nonnull align 8 dereferenceable(16) %_M_before_begin.i.i.i, i8 0, i64 16, i1 false)
  %4 = load ptr, ptr %this, align 8
  %_M_single_bucket.i.i.i.i = getelementptr inbounds %"class.std::_Hashtable", ptr %this, i64 0, i32 5
  %cmp.i.i.i.i = icmp eq ptr %_M_single_bucket.i.i.i.i, %4
  br i1 %cmp.i.i.i.i, label %_ZNSt10_HashtableINSt7__cxx1112basic_stringIcSt11char_traitsIcESaIcEEESt4pairIKS5_N8facebook5velox8TypeKindEESaISB_ENSt8__detail10_Select1stESt8equal_toIS5_ESt4hashIS5_ENSD_18_Mod_range_hashingENSD_20_Default_ranged_hashENSD_20_Prime_rehash_policyENSD_17_Hashtable_traitsILb1ELb0ELb1EEEED2Ev.exit, label %if.end.i.i.i

if.end.i.i.i:                                     ; preds = %_ZNSt10_HashtableINSt7__cxx1112basic_stringIcSt11char_traitsIcESaIcEEESt4pairIKS5_N8facebook5velox8TypeKindEESaISB_ENSt8__detail10_Select1stESt8equal_toIS5_ESt4hashIS5_ENSD_18_Mod_range_hashingENSD_20_Default_ranged_hashENSD_20_Prime_rehash_policyENSD_17_Hashtable_traitsILb1ELb0ELb1EEEE5clearEv.exit.i
  tail call void @_ZdlPv(ptr noundef %4) #38
  br label %_ZNSt10_HashtableINSt7__cxx1112basic_stringIcSt11char_traitsIcESaIcEEESt4pairIKS5_N8facebook5velox8TypeKindEESaISB_ENSt8__detail10_Select1stESt8equal_toIS5_ESt4hashIS5_ENSD_18_Mod_range_hashingENSD_20_Default_ranged_hashENSD_20_Prime_rehash_policyENSD_17_Hashtable_traitsILb1ELb0ELb1EEEED2Ev.exit

_ZNSt10_HashtableINSt7__cxx1112basic_stringIcSt11char_traitsIcESaIcEEESt4pairIKS5_N8facebook5velox8TypeKindEESaISB_ENSt8__detail10_Select1stESt8equal_toIS5_ESt4hashIS5_ENSD_18_Mod_range_hashingENSD_20_Default_ranged_hashENSD_20_Prime_rehash_policyENSD_17_Hashtable_traitsILb1ELb0ELb1EEEED2Ev.exit: ; preds = %_ZNSt10_HashtableINSt7__cxx1112basic_stringIcSt11char_traitsIcESaIcEEESt4pairIKS5_N8facebook5velox8TypeKindEESaISB_ENSt8__detail10_Select1stESt8equal_toIS5_ESt4hashIS5_ENSD_18_Mod_range_hashingENSD_20_Default_ranged_hashENSD_20_Prime_rehash_policyENSD_17_Hashtable_traitsILb1ELb0ELb1EEEE5clearEv.exit.i, %if.end.i.i.i
  ret void
}

; Function Attrs: nofree nounwind
declare i32 @__cxa_atexit(ptr, ptr, ptr) local_unnamed_addr #1

; Function Attrs: nofree nounwind
declare void @__cxa_guard_abort(ptr) local_unnamed_addr #1

; Function Attrs: nofree nounwind
declare void @__cxa_guard_release(ptr) local_unnamed_addr #1

; Function Attrs: mustprogress uwtable
define i16 @_ZN8facebook5velox20tryMapNameToTypeKindERKNSt7__cxx1112basic_stringIcSt11char_traitsIcESaIcEEE(ptr noundef nonnull align 8 dereferenceable(32) %name) local_unnamed_addr #0 personality ptr @__gxx_personality_v0 {
entry:
  %call = tail call noundef nonnull align 8 dereferenceable(56) ptr @_ZN8facebook5velox16getTypeStringMapB5cxx11Ev()
  %call.i = tail call ptr @_ZNKSt10_HashtableINSt7__cxx1112basic_stringIcSt11char_traitsIcESaIcEEESt4pairIKS5_N8facebook5velox8TypeKindEESaISB_ENSt8__detail10_Select1stESt8equal_toIS5_ESt4hashIS5_ENSD_18_Mod_range_hashingENSD_20_Default_ranged_hashENSD_20_Prime_rehash_policyENSD_17_Hashtable_traitsILb1ELb0ELb1EEEE4findERS7_(ptr noundef nonnull align 8 dereferenceable(56) @_ZZN8facebook5velox16getTypeStringMapB5cxx11EvE14kTypeStringMapB5cxx11, ptr noundef nonnull align 8 dereferenceable(32) %name)
  %call3 = tail call noundef nonnull align 8 dereferenceable(56) ptr @_ZN8facebook5velox16getTypeStringMapB5cxx11Ev()
  %cmp.i = icmp eq ptr %call.i, null
  br i1 %cmp.i, label %return, label %if.end

if.end:                                           ; preds = %entry
  %second = getelementptr inbounds i8, ptr %call.i, i64 40
  %0 = load i8, ptr %second, align 1
  %1 = zext i8 %0 to i16
  br label %return

return:                                           ; preds = %entry, %if.end
  %retval.sroa.0.0 = phi i16 [ %1, %if.end ], [ 0, %entry ]
  %retval.sroa.2.0 = phi i16 [ 256, %if.end ], [ 0, %entry ]
  %retval.sroa.0.0.insert.insert = or disjoint i16 %retval.sroa.2.0, %retval.sroa.0.0
  ret i16 %retval.sroa.0.0.insert.insert
}

; Function Attrs: mustprogress uwtable
define noundef signext i8 @_ZN8facebook5velox17mapNameToTypeKindERKNSt7__cxx1112basic_stringIcSt11char_traitsIcESaIcEEE(ptr noundef nonnull align 8 dereferenceable(32) %name) local_unnamed_addr #0 {
entry:
  %call = tail call noundef nonnull align 8 dereferenceable(56) ptr @_ZN8facebook5velox16getTypeStringMapB5cxx11Ev()
  %call.i = tail call ptr @_ZNKSt10_HashtableINSt7__cxx1112basic_stringIcSt11char_traitsIcESaIcEEESt4pairIKS5_N8facebook5velox8TypeKindEESaISB_ENSt8__detail10_Select1stESt8equal_toIS5_ESt4hashIS5_ENSD_18_Mod_range_hashingENSD_20_Default_ranged_hashENSD_20_Prime_rehash_policyENSD_17_Hashtable_traitsILb1ELb0ELb1EEEE4findERS7_(ptr noundef nonnull align 8 dereferenceable(56) @_ZZN8facebook5velox16getTypeStringMapB5cxx11EvE14kTypeStringMapB5cxx11, ptr noundef nonnull align 8 dereferenceable(32) %name)
  %call3 = tail call noundef nonnull align 8 dereferenceable(56) ptr @_ZN8facebook5velox16getTypeStringMapB5cxx11Ev()
  %cmp.i = icmp eq ptr %call.i, null
  br i1 %cmp.i, label %if.then, label %if.end

if.then:                                          ; preds = %entry
  tail call void @llvm.trap()
  unreachable

if.end:                                           ; preds = %entry
  %second = getelementptr inbounds i8, ptr %call.i, i64 40
  %0 = load i8, ptr %second, align 8
  ret i8 %0
}

; Function Attrs: cold noreturn nounwind memory(inaccessiblemem: write)
declare void @llvm.trap() #3

; Function Attrs: mustprogress uwtable
define void @_ZN8facebook5velox17mapTypeKindToNameB5cxx11ERKNS0_8TypeKindE(ptr noalias sret(%"class.std::__cxx11::basic_string") align 8 %agg.result, ptr nocapture noundef nonnull readonly align 1 dereferenceable(1) %typeKind) local_unnamed_addr #0 personality ptr @__gxx_personality_v0 {
entry:
  %ref.tmp = alloca [18 x %"struct.std::pair.28"], align 8
  %ref.tmp1 = alloca i8, align 1
  %ref.tmp2 = alloca i8, align 1
  %ref.tmp5 = alloca i8, align 1
  %ref.tmp8 = alloca i8, align 1
  %ref.tmp11 = alloca i8, align 1
  %ref.tmp14 = alloca i8, align 1
  %ref.tmp17 = alloca i8, align 1
  %ref.tmp20 = alloca i8, align 1
  %ref.tmp23 = alloca i8, align 1
  %ref.tmp26 = alloca i8, align 1
  %ref.tmp29 = alloca i8, align 1
  %ref.tmp32 = alloca i8, align 1
  %ref.tmp35 = alloca i8, align 1
  %ref.tmp38 = alloca i8, align 1
  %ref.tmp41 = alloca i8, align 1
  %ref.tmp44 = alloca i8, align 1
  %ref.tmp47 = alloca i8, align 1
  %ref.tmp50 = alloca i8, align 1
  %ref.tmp53 = alloca %"struct.std::hash.13", align 1
  %ref.tmp54 = alloca %"struct.std::equal_to.15", align 1
  %ref.tmp55 = alloca %"class.std::allocator.30", align 1
  %0 = load atomic i8, ptr @_ZGVZN8facebook5velox17mapTypeKindToNameB5cxx11ERKNS0_8TypeKindEE11typeEnumMapB5cxx11 acquire, align 8
  %guard.uninitialized = icmp eq i8 %0, 0
  br i1 %guard.uninitialized, label %init.check, label %init.end, !prof !4

init.check:                                       ; preds = %entry
  %1 = tail call i32 @__cxa_guard_acquire(ptr nonnull @_ZGVZN8facebook5velox17mapTypeKindToNameB5cxx11ERKNS0_8TypeKindEE11typeEnumMapB5cxx11) #37
  %tobool.not = icmp eq i32 %1, 0
  br i1 %tobool.not, label %init.end, label %init

init:                                             ; preds = %init.check
  store i8 0, ptr %ref.tmp1, align 1
  invoke void @_ZNSt4pairIKN8facebook5velox8TypeKindENSt7__cxx1112basic_stringIcSt11char_traitsIcESaIcEEEEC2IS2_RA8_KcTnNSt9enable_ifIXaaclsr5_PCCPE22_MoveConstructiblePairIT_T0_EEclsr5_PCCPE30_ImplicitlyMoveConvertiblePairISG_SH_EEEbE4typeELb1EEEOSG_OSH_(ptr noundef nonnull align 8 dereferenceable(40) %ref.tmp, ptr noundef nonnull align 1 dereferenceable(1) %ref.tmp1, ptr noundef nonnull align 1 dereferenceable(8) @.str)
          to label %invoke.cont unwind label %lpad.thread

lpad.thread:                                      ; preds = %init
  %2 = landingpad { ptr, i32 }
          cleanup
  br label %ehcleanup

invoke.cont:                                      ; preds = %init
  %arrayinit.element = getelementptr inbounds %"struct.std::pair.28", ptr %ref.tmp, i64 1
  store i8 1, ptr %ref.tmp2, align 1
  invoke void @_ZNSt4pairIKN8facebook5velox8TypeKindENSt7__cxx1112basic_stringIcSt11char_traitsIcESaIcEEEEC2IS2_RA8_KcTnNSt9enable_ifIXaaclsr5_PCCPE22_MoveConstructiblePairIT_T0_EEclsr5_PCCPE30_ImplicitlyMoveConvertiblePairISG_SH_EEEbE4typeELb1EEEOSG_OSH_(ptr noundef nonnull align 8 dereferenceable(40) %arrayinit.element, ptr noundef nonnull align 1 dereferenceable(1) %ref.tmp2, ptr noundef nonnull align 1 dereferenceable(8) @.str.1)
          to label %invoke.cont3 unwind label %lpad

invoke.cont3:                                     ; preds = %invoke.cont
  %arrayinit.element4 = getelementptr inbounds %"struct.std::pair.28", ptr %ref.tmp, i64 2
  store i8 2, ptr %ref.tmp5, align 1
  invoke void @_ZNSt4pairIKN8facebook5velox8TypeKindENSt7__cxx1112basic_stringIcSt11char_traitsIcESaIcEEEEC2IS2_RA9_KcTnNSt9enable_ifIXaaclsr5_PCCPE22_MoveConstructiblePairIT_T0_EEclsr5_PCCPE30_ImplicitlyMoveConvertiblePairISG_SH_EEEbE4typeELb1EEEOSG_OSH_(ptr noundef nonnull align 8 dereferenceable(40) %arrayinit.element4, ptr noundef nonnull align 1 dereferenceable(1) %ref.tmp5, ptr noundef nonnull align 1 dereferenceable(9) @.str.2)
          to label %invoke.cont6 unwind label %lpad

invoke.cont6:                                     ; preds = %invoke.cont3
  %arrayinit.element7 = getelementptr inbounds %"struct.std::pair.28", ptr %ref.tmp, i64 3
  store i8 3, ptr %ref.tmp8, align 1
  invoke void @_ZNSt4pairIKN8facebook5velox8TypeKindENSt7__cxx1112basic_stringIcSt11char_traitsIcESaIcEEEEC2IS2_RA8_KcTnNSt9enable_ifIXaaclsr5_PCCPE22_MoveConstructiblePairIT_T0_EEclsr5_PCCPE30_ImplicitlyMoveConvertiblePairISG_SH_EEEbE4typeELb1EEEOSG_OSH_(ptr noundef nonnull align 8 dereferenceable(40) %arrayinit.element7, ptr noundef nonnull align 1 dereferenceable(1) %ref.tmp8, ptr noundef nonnull align 1 dereferenceable(8) @.str.3)
          to label %invoke.cont9 unwind label %lpad

invoke.cont9:                                     ; preds = %invoke.cont6
  %arrayinit.element10 = getelementptr inbounds %"struct.std::pair.28", ptr %ref.tmp, i64 4
  store i8 4, ptr %ref.tmp11, align 1
  invoke void @_ZNSt4pairIKN8facebook5velox8TypeKindENSt7__cxx1112basic_stringIcSt11char_traitsIcESaIcEEEEC2IS2_RA7_KcTnNSt9enable_ifIXaaclsr5_PCCPE22_MoveConstructiblePairIT_T0_EEclsr5_PCCPE30_ImplicitlyMoveConvertiblePairISG_SH_EEEbE4typeELb1EEEOSG_OSH_(ptr noundef nonnull align 8 dereferenceable(40) %arrayinit.element10, ptr noundef nonnull align 1 dereferenceable(1) %ref.tmp11, ptr noundef nonnull align 1 dereferenceable(7) @.str.4)
          to label %invoke.cont12 unwind label %lpad

invoke.cont12:                                    ; preds = %invoke.cont9
  %arrayinit.element13 = getelementptr inbounds %"struct.std::pair.28", ptr %ref.tmp, i64 5
  store i8 10, ptr %ref.tmp14, align 1
  invoke void @_ZNSt4pairIKN8facebook5velox8TypeKindENSt7__cxx1112basic_stringIcSt11char_traitsIcESaIcEEEEC2IS2_RA8_KcTnNSt9enable_ifIXaaclsr5_PCCPE22_MoveConstructiblePairIT_T0_EEclsr5_PCCPE30_ImplicitlyMoveConvertiblePairISG_SH_EEEbE4typeELb1EEEOSG_OSH_(ptr noundef nonnull align 8 dereferenceable(40) %arrayinit.element13, ptr noundef nonnull align 1 dereferenceable(1) %ref.tmp14, ptr noundef nonnull align 1 dereferenceable(8) @.str.5)
          to label %invoke.cont15 unwind label %lpad

invoke.cont15:                                    ; preds = %invoke.cont12
  %arrayinit.element16 = getelementptr inbounds %"struct.std::pair.28", ptr %ref.tmp, i64 6
  store i8 5, ptr %ref.tmp17, align 1
  invoke void @_ZNSt4pairIKN8facebook5velox8TypeKindENSt7__cxx1112basic_stringIcSt11char_traitsIcESaIcEEEEC2IS2_RA5_KcTnNSt9enable_ifIXaaclsr5_PCCPE22_MoveConstructiblePairIT_T0_EEclsr5_PCCPE30_ImplicitlyMoveConvertiblePairISG_SH_EEEbE4typeELb1EEEOSG_OSH_(ptr noundef nonnull align 8 dereferenceable(40) %arrayinit.element16, ptr noundef nonnull align 1 dereferenceable(1) %ref.tmp17, ptr noundef nonnull align 1 dereferenceable(5) @.str.6)
          to label %invoke.cont18 unwind label %lpad

invoke.cont18:                                    ; preds = %invoke.cont15
  %arrayinit.element19 = getelementptr inbounds %"struct.std::pair.28", ptr %ref.tmp, i64 7
  store i8 6, ptr %ref.tmp20, align 1
  invoke void @_ZNSt4pairIKN8facebook5velox8TypeKindENSt7__cxx1112basic_stringIcSt11char_traitsIcESaIcEEEEC2IS2_RA7_KcTnNSt9enable_ifIXaaclsr5_PCCPE22_MoveConstructiblePairIT_T0_EEclsr5_PCCPE30_ImplicitlyMoveConvertiblePairISG_SH_EEEbE4typeELb1EEEOSG_OSH_(ptr noundef nonnull align 8 dereferenceable(40) %arrayinit.element19, ptr noundef nonnull align 1 dereferenceable(1) %ref.tmp20, ptr noundef nonnull align 1 dereferenceable(7) @.str.7)
          to label %invoke.cont21 unwind label %lpad

invoke.cont21:                                    ; preds = %invoke.cont18
  %arrayinit.element22 = getelementptr inbounds %"struct.std::pair.28", ptr %ref.tmp, i64 8
  store i8 7, ptr %ref.tmp23, align 1
  invoke void @_ZNSt4pairIKN8facebook5velox8TypeKindENSt7__cxx1112basic_stringIcSt11char_traitsIcESaIcEEEEC2IS2_RA8_KcTnNSt9enable_ifIXaaclsr5_PCCPE22_MoveConstructiblePairIT_T0_EEclsr5_PCCPE30_ImplicitlyMoveConvertiblePairISG_SH_EEEbE4typeELb1EEEOSG_OSH_(ptr noundef nonnull align 8 dereferenceable(40) %arrayinit.element22, ptr noundef nonnull align 1 dereferenceable(1) %ref.tmp23, ptr noundef nonnull align 1 dereferenceable(8) @.str.8)
          to label %invoke.cont24 unwind label %lpad

invoke.cont24:                                    ; preds = %invoke.cont21
  %arrayinit.element25 = getelementptr inbounds %"struct.std::pair.28", ptr %ref.tmp, i64 9
  store i8 8, ptr %ref.tmp26, align 1
  invoke void @_ZNSt4pairIKN8facebook5velox8TypeKindENSt7__cxx1112basic_stringIcSt11char_traitsIcESaIcEEEEC2IS2_RA10_KcTnNSt9enable_ifIXaaclsr5_PCCPE22_MoveConstructiblePairIT_T0_EEclsr5_PCCPE30_ImplicitlyMoveConvertiblePairISG_SH_EEEbE4typeELb1EEEOSG_OSH_(ptr noundef nonnull align 8 dereferenceable(40) %arrayinit.element25, ptr noundef nonnull align 1 dereferenceable(1) %ref.tmp26, ptr noundef nonnull align 1 dereferenceable(10) @.str.9)
          to label %invoke.cont27 unwind label %lpad

invoke.cont27:                                    ; preds = %invoke.cont24
  %arrayinit.element28 = getelementptr inbounds %"struct.std::pair.28", ptr %ref.tmp, i64 10
  store i8 9, ptr %ref.tmp29, align 1
  invoke void @_ZNSt4pairIKN8facebook5velox8TypeKindENSt7__cxx1112basic_stringIcSt11char_traitsIcESaIcEEEEC2IS2_RA10_KcTnNSt9enable_ifIXaaclsr5_PCCPE22_MoveConstructiblePairIT_T0_EEclsr5_PCCPE30_ImplicitlyMoveConvertiblePairISG_SH_EEEbE4typeELb1EEEOSG_OSH_(ptr noundef nonnull align 8 dereferenceable(40) %arrayinit.element28, ptr noundef nonnull align 1 dereferenceable(1) %ref.tmp29, ptr noundef nonnull align 1 dereferenceable(10) @.str.10)
          to label %invoke.cont30 unwind label %lpad

invoke.cont30:                                    ; preds = %invoke.cont27
  %arrayinit.element31 = getelementptr inbounds %"struct.std::pair.28", ptr %ref.tmp, i64 11
  store i8 30, ptr %ref.tmp32, align 1
  invoke void @_ZNSt4pairIKN8facebook5velox8TypeKindENSt7__cxx1112basic_stringIcSt11char_traitsIcESaIcEEEEC2IS2_RA6_KcTnNSt9enable_ifIXaaclsr5_PCCPE22_MoveConstructiblePairIT_T0_EEclsr5_PCCPE30_ImplicitlyMoveConvertiblePairISG_SH_EEEbE4typeELb1EEEOSG_OSH_(ptr noundef nonnull align 8 dereferenceable(40) %arrayinit.element31, ptr noundef nonnull align 1 dereferenceable(1) %ref.tmp32, ptr noundef nonnull align 1 dereferenceable(6) @.str.11)
          to label %invoke.cont33 unwind label %lpad

invoke.cont33:                                    ; preds = %invoke.cont30
  %arrayinit.element34 = getelementptr inbounds %"struct.std::pair.28", ptr %ref.tmp, i64 12
  store i8 31, ptr %ref.tmp35, align 1
  invoke void @_ZNSt4pairIKN8facebook5velox8TypeKindENSt7__cxx1112basic_stringIcSt11char_traitsIcESaIcEEEEC2IS2_RA4_KcTnNSt9enable_ifIXaaclsr5_PCCPE22_MoveConstructiblePairIT_T0_EEclsr5_PCCPE30_ImplicitlyMoveConvertiblePairISG_SH_EEEbE4typeELb1EEEOSG_OSH_(ptr noundef nonnull align 8 dereferenceable(40) %arrayinit.element34, ptr noundef nonnull align 1 dereferenceable(1) %ref.tmp35, ptr noundef nonnull align 1 dereferenceable(4) @.str.12)
          to label %invoke.cont36 unwind label %lpad

invoke.cont36:                                    ; preds = %invoke.cont33
  %arrayinit.element37 = getelementptr inbounds %"struct.std::pair.28", ptr %ref.tmp, i64 13
  store i8 32, ptr %ref.tmp38, align 1
  invoke void @_ZNSt4pairIKN8facebook5velox8TypeKindENSt7__cxx1112basic_stringIcSt11char_traitsIcESaIcEEEEC2IS2_RA4_KcTnNSt9enable_ifIXaaclsr5_PCCPE22_MoveConstructiblePairIT_T0_EEclsr5_PCCPE30_ImplicitlyMoveConvertiblePairISG_SH_EEEbE4typeELb1EEEOSG_OSH_(ptr noundef nonnull align 8 dereferenceable(40) %arrayinit.element37, ptr noundef nonnull align 1 dereferenceable(1) %ref.tmp38, ptr noundef nonnull align 1 dereferenceable(4) @.str.13)
          to label %invoke.cont39 unwind label %lpad

invoke.cont39:                                    ; preds = %invoke.cont36
  %arrayinit.element40 = getelementptr inbounds %"struct.std::pair.28", ptr %ref.tmp, i64 14
  store i8 34, ptr %ref.tmp41, align 1
  invoke void @_ZNSt4pairIKN8facebook5velox8TypeKindENSt7__cxx1112basic_stringIcSt11char_traitsIcESaIcEEEEC2IS2_RA9_KcTnNSt9enable_ifIXaaclsr5_PCCPE22_MoveConstructiblePairIT_T0_EEclsr5_PCCPE30_ImplicitlyMoveConvertiblePairISG_SH_EEEbE4typeELb1EEEOSG_OSH_(ptr noundef nonnull align 8 dereferenceable(40) %arrayinit.element40, ptr noundef nonnull align 1 dereferenceable(1) %ref.tmp41, ptr noundef nonnull align 1 dereferenceable(9) @.str.14)
          to label %invoke.cont42 unwind label %lpad

invoke.cont42:                                    ; preds = %invoke.cont39
  %arrayinit.element43 = getelementptr inbounds %"struct.std::pair.28", ptr %ref.tmp, i64 15
  store i8 33, ptr %ref.tmp44, align 1
  invoke void @_ZNSt4pairIKN8facebook5velox8TypeKindENSt7__cxx1112basic_stringIcSt11char_traitsIcESaIcEEEEC2IS2_RA8_KcTnNSt9enable_ifIXaaclsr5_PCCPE22_MoveConstructiblePairIT_T0_EEclsr5_PCCPE30_ImplicitlyMoveConvertiblePairISG_SH_EEEbE4typeELb1EEEOSG_OSH_(ptr noundef nonnull align 8 dereferenceable(40) %arrayinit.element43, ptr noundef nonnull align 1 dereferenceable(1) %ref.tmp44, ptr noundef nonnull align 1 dereferenceable(8) @.str.15)
          to label %invoke.cont45 unwind label %lpad

invoke.cont45:                                    ; preds = %invoke.cont42
  %arrayinit.element46 = getelementptr inbounds %"struct.std::pair.28", ptr %ref.tmp, i64 16
  store i8 35, ptr %ref.tmp47, align 1
  invoke void @_ZNSt4pairIKN8facebook5velox8TypeKindENSt7__cxx1112basic_stringIcSt11char_traitsIcESaIcEEEEC2IS2_RA7_KcTnNSt9enable_ifIXaaclsr5_PCCPE22_MoveConstructiblePairIT_T0_EEclsr5_PCCPE30_ImplicitlyMoveConvertiblePairISG_SH_EEEbE4typeELb1EEEOSG_OSH_(ptr noundef nonnull align 8 dereferenceable(40) %arrayinit.element46, ptr noundef nonnull align 1 dereferenceable(1) %ref.tmp47, ptr noundef nonnull align 1 dereferenceable(7) @.str.16)
          to label %invoke.cont48 unwind label %lpad

invoke.cont48:                                    ; preds = %invoke.cont45
  %arrayinit.element49 = getelementptr inbounds %"struct.std::pair.28", ptr %ref.tmp, i64 17
  store i8 36, ptr %ref.tmp50, align 1
  invoke void @_ZNSt4pairIKN8facebook5velox8TypeKindENSt7__cxx1112basic_stringIcSt11char_traitsIcESaIcEEEEC2IS2_RA8_KcTnNSt9enable_ifIXaaclsr5_PCCPE22_MoveConstructiblePairIT_T0_EEclsr5_PCCPE30_ImplicitlyMoveConvertiblePairISG_SH_EEEbE4typeELb1EEEOSG_OSH_(ptr noundef nonnull align 8 dereferenceable(40) %arrayinit.element49, ptr noundef nonnull align 1 dereferenceable(1) %ref.tmp50, ptr noundef nonnull align 1 dereferenceable(8) @.str.17)
          to label %invoke.cont51 unwind label %lpad

invoke.cont51:                                    ; preds = %invoke.cont48
  %add.ptr.i.i.i = getelementptr inbounds %"struct.std::pair.28", ptr %ref.tmp, i64 18
  invoke void @_ZNSt10_HashtableIN8facebook5velox8TypeKindESt4pairIKS2_NSt7__cxx1112basic_stringIcSt11char_traitsIcESaIcEEEESaISB_ENSt8__detail10_Select1stESt8equal_toIS2_ESt4hashIS2_ENSD_18_Mod_range_hashingENSD_20_Default_ranged_hashENSD_20_Prime_rehash_policyENSD_17_Hashtable_traitsILb1ELb0ELb1EEEEC2IPKSB_EET_SS_mRKSI_RKSG_RKSC_St17integral_constantIbLb1EE(ptr noundef nonnull align 8 dereferenceable(56) @_ZZN8facebook5velox17mapTypeKindToNameB5cxx11ERKNS0_8TypeKindEE11typeEnumMapB5cxx11, ptr noundef nonnull %ref.tmp, ptr noundef nonnull %add.ptr.i.i.i, i64 noundef 0, ptr noundef nonnull align 1 dereferenceable(1) %ref.tmp53, ptr noundef nonnull align 1 dereferenceable(1) %ref.tmp54, ptr noundef nonnull align 1 dereferenceable(1) %ref.tmp55)
          to label %arraydestroy.body58 unwind label %lpad56

arraydestroy.body58:                              ; preds = %invoke.cont51, %arraydestroy.body58
  %arraydestroy.elementPast59 = phi ptr [ %arraydestroy.element60, %arraydestroy.body58 ], [ %add.ptr.i.i.i, %invoke.cont51 ]
  %arraydestroy.element60 = getelementptr inbounds %"struct.std::pair.28", ptr %arraydestroy.elementPast59, i64 -1
  %second.i = getelementptr %"struct.std::pair.28", ptr %arraydestroy.elementPast59, i64 -1, i32 1
  call void @_ZNSt7__cxx1112basic_stringIcSt11char_traitsIcESaIcEED1Ev(ptr noundef nonnull align 8 dereferenceable(32) %second.i) #37
  %arraydestroy.done61 = icmp eq ptr %arraydestroy.element60, %ref.tmp
  br i1 %arraydestroy.done61, label %arraydestroy.done62, label %arraydestroy.body58

arraydestroy.done62:                              ; preds = %arraydestroy.body58
  %3 = call i32 @__cxa_atexit(ptr nonnull @_ZNSt13unordered_mapIN8facebook5velox8TypeKindENSt7__cxx1112basic_stringIcSt11char_traitsIcESaIcEEESt4hashIS2_ESt8equal_toIS2_ESaISt4pairIKS2_S8_EEED2Ev, ptr nonnull @_ZZN8facebook5velox17mapTypeKindToNameB5cxx11ERKNS0_8TypeKindEE11typeEnumMapB5cxx11, ptr nonnull @__dso_handle) #37
  call void @__cxa_guard_release(ptr nonnull @_ZGVZN8facebook5velox17mapTypeKindToNameB5cxx11ERKNS0_8TypeKindEE11typeEnumMapB5cxx11) #37
  br label %init.end

init.end:                                         ; preds = %arraydestroy.done62, %init.check, %entry
  %4 = load i64, ptr getelementptr inbounds (%"class.std::unordered_map.8", ptr @_ZZN8facebook5velox17mapTypeKindToNameB5cxx11ERKNS0_8TypeKindEE11typeEnumMapB5cxx11, i64 0, i32 0, i32 3), align 8
  %cmp.not.not.i.i = icmp eq i64 %4, 0
  %5 = load i8, ptr %typeKind, align 1
  br i1 %cmp.not.not.i.i, label %for.cond.i.i, label %if.end15.i.i

for.cond.i.i:                                     ; preds = %init.end, %for.body.i.i
  %retval.sroa.0.0.in.i.i = phi ptr [ %retval.sroa.0.0.i.i, %for.body.i.i ], [ getelementptr inbounds (%"class.std::unordered_map.8", ptr @_ZZN8facebook5velox17mapTypeKindToNameB5cxx11ERKNS0_8TypeKindEE11typeEnumMapB5cxx11, i64 0, i32 0, i32 2), %init.end ]
  %retval.sroa.0.0.i.i = load ptr, ptr %retval.sroa.0.0.in.i.i, align 8
  %cmp.i.not.i.i = icmp eq ptr %retval.sroa.0.0.i.i, null
  br i1 %cmp.i.not.i.i, label %if.then, label %for.body.i.i

for.body.i.i:                                     ; preds = %for.cond.i.i
  %add.ptr.i.i = getelementptr inbounds i8, ptr %retval.sroa.0.0.i.i, i64 8
  %6 = load i8, ptr %add.ptr.i.i, align 1
  %cmp.i.i.i.i = icmp eq i8 %5, %6
  br i1 %cmp.i.i.i.i, label %if.end, label %for.cond.i.i, !llvm.loop !7

if.end15.i.i:                                     ; preds = %init.end
  %conv.i.i.i.i.i = sext i8 %5 to i64
  %7 = load i64, ptr getelementptr inbounds (%"class.std::unordered_map.8", ptr @_ZZN8facebook5velox17mapTypeKindToNameB5cxx11ERKNS0_8TypeKindEE11typeEnumMapB5cxx11, i64 0, i32 0, i32 1), align 8
  %rem.i.i.i.i.i = urem i64 %conv.i.i.i.i.i, %7
  %8 = load ptr, ptr @_ZZN8facebook5velox17mapTypeKindToNameB5cxx11ERKNS0_8TypeKindEE11typeEnumMapB5cxx11, align 8
  %arrayidx.i.i.i.i = getelementptr inbounds ptr, ptr %8, i64 %rem.i.i.i.i.i
  %9 = load ptr, ptr %arrayidx.i.i.i.i, align 8
  %tobool.not.i.i.i.i = icmp eq ptr %9, null
  br i1 %tobool.not.i.i.i.i, label %if.then, label %if.end.i.i.i.i

if.end.i.i.i.i:                                   ; preds = %if.end15.i.i
  %10 = load ptr, ptr %9, align 8
  %add.ptr8.i.i.i.i = getelementptr inbounds i8, ptr %10, i64 8
  %add.ptr.i9.i.i.i.i = getelementptr inbounds i8, ptr %10, i64 48
  %11 = load i64, ptr %add.ptr.i9.i.i.i.i, align 8
  %cmp.i.i10.i.i.i.i = icmp eq i64 %11, %conv.i.i.i.i.i
  %12 = load i8, ptr %add.ptr8.i.i.i.i, align 1
  %cmp.i.i.i11.i.i.i.i = icmp eq i8 %5, %12
  %13 = select i1 %cmp.i.i10.i.i.i.i, i1 %cmp.i.i.i11.i.i.i.i, i1 false
  br i1 %13, label %if.end, label %if.end3.i.i.i.i

for.cond.i.i.i.i:                                 ; preds = %lor.lhs.false.i.i.i.i
  %add.ptr.i.i.i.i = getelementptr inbounds i8, ptr %16, i64 8
  %cmp.i.i.i.i.i.i = icmp eq i64 %17, %conv.i.i.i.i.i
  %14 = load i8, ptr %add.ptr.i.i.i.i, align 1
  %cmp.i.i.i.i.i.i.i = icmp eq i8 %5, %14
  %15 = select i1 %cmp.i.i.i.i.i.i, i1 %cmp.i.i.i.i.i.i.i, i1 false
  br i1 %15, label %if.end, label %if.end3.i.i.i.i, !llvm.loop !8

if.end3.i.i.i.i:                                  ; preds = %if.end.i.i.i.i, %for.cond.i.i.i.i
  %__p.012.i.i.i.i = phi ptr [ %16, %for.cond.i.i.i.i ], [ %10, %if.end.i.i.i.i ]
  %16 = load ptr, ptr %__p.012.i.i.i.i, align 8
  %tobool5.not.i.i.i.i = icmp eq ptr %16, null
  br i1 %tobool5.not.i.i.i.i, label %if.then, label %lor.lhs.false.i.i.i.i

lor.lhs.false.i.i.i.i:                            ; preds = %if.end3.i.i.i.i
  %add.ptr.i.i.i.i.i.i = getelementptr inbounds i8, ptr %16, i64 48
  %17 = load i64, ptr %add.ptr.i.i.i.i.i.i, align 8
  %rem.i.i.i.i.i.i.i = urem i64 %17, %7
  %cmp.not.i.i.i.i = icmp eq i64 %rem.i.i.i.i.i.i.i, %rem.i.i.i.i.i
  br i1 %cmp.not.i.i.i.i, label %for.cond.i.i.i.i, label %if.then, !llvm.loop !8

if.then:                                          ; preds = %lor.lhs.false.i.i.i.i, %if.end3.i.i.i.i, %for.cond.i.i, %if.end15.i.i
  call void @llvm.trap()
  unreachable

lpad:                                             ; preds = %invoke.cont48, %invoke.cont45, %invoke.cont42, %invoke.cont39, %invoke.cont36, %invoke.cont33, %invoke.cont30, %invoke.cont27, %invoke.cont24, %invoke.cont21, %invoke.cont18, %invoke.cont15, %invoke.cont12, %invoke.cont9, %invoke.cont6, %invoke.cont3, %invoke.cont
  %arrayinit.endOfInit.0 = phi ptr [ %arrayinit.element49, %invoke.cont48 ], [ %arrayinit.element46, %invoke.cont45 ], [ %arrayinit.element43, %invoke.cont42 ], [ %arrayinit.element40, %invoke.cont39 ], [ %arrayinit.element37, %invoke.cont36 ], [ %arrayinit.element34, %invoke.cont33 ], [ %arrayinit.element31, %invoke.cont30 ], [ %arrayinit.element28, %invoke.cont27 ], [ %arrayinit.element25, %invoke.cont24 ], [ %arrayinit.element22, %invoke.cont21 ], [ %arrayinit.element19, %invoke.cont18 ], [ %arrayinit.element16, %invoke.cont15 ], [ %arrayinit.element13, %invoke.cont12 ], [ %arrayinit.element10, %invoke.cont9 ], [ %arrayinit.element7, %invoke.cont6 ], [ %arrayinit.element4, %invoke.cont3 ], [ %arrayinit.element, %invoke.cont ]
  %18 = landingpad { ptr, i32 }
          cleanup
  br label %arraydestroy.body

arraydestroy.body:                                ; preds = %lpad, %arraydestroy.body
  %arraydestroy.elementPast = phi ptr [ %arrayinit.endOfInit.0, %lpad ], [ %arraydestroy.element, %arraydestroy.body ]
  %arraydestroy.element = getelementptr inbounds %"struct.std::pair.28", ptr %arraydestroy.elementPast, i64 -1
  %second.i2 = getelementptr %"struct.std::pair.28", ptr %arraydestroy.elementPast, i64 -1, i32 1
  call void @_ZNSt7__cxx1112basic_stringIcSt11char_traitsIcESaIcEED1Ev(ptr noundef nonnull align 8 dereferenceable(32) %second.i2) #37
  %arraydestroy.done = icmp eq ptr %arraydestroy.element, %ref.tmp
  br i1 %arraydestroy.done, label %ehcleanup, label %arraydestroy.body

lpad56:                                           ; preds = %invoke.cont51
  %19 = landingpad { ptr, i32 }
          cleanup
  br label %arraydestroy.body64

arraydestroy.body64:                              ; preds = %arraydestroy.body64, %lpad56
  %arraydestroy.elementPast65 = phi ptr [ %add.ptr.i.i.i, %lpad56 ], [ %arraydestroy.element66, %arraydestroy.body64 ]
  %arraydestroy.element66 = getelementptr inbounds %"struct.std::pair.28", ptr %arraydestroy.elementPast65, i64 -1
  %second.i3 = getelementptr %"struct.std::pair.28", ptr %arraydestroy.elementPast65, i64 -1, i32 1
  call void @_ZNSt7__cxx1112basic_stringIcSt11char_traitsIcESaIcEED1Ev(ptr noundef nonnull align 8 dereferenceable(32) %second.i3) #37
  %arraydestroy.done67 = icmp eq ptr %arraydestroy.element66, %ref.tmp
  br i1 %arraydestroy.done67, label %ehcleanup, label %arraydestroy.body64

ehcleanup:                                        ; preds = %arraydestroy.body, %arraydestroy.body64, %lpad.thread
  %.pn = phi { ptr, i32 } [ %2, %lpad.thread ], [ %19, %arraydestroy.body64 ], [ %18, %arraydestroy.body ]
  call void @__cxa_guard_abort(ptr nonnull @_ZGVZN8facebook5velox17mapTypeKindToNameB5cxx11ERKNS0_8TypeKindEE11typeEnumMapB5cxx11) #37
  resume { ptr, i32 } %.pn

if.end:                                           ; preds = %for.cond.i.i.i.i, %for.body.i.i, %if.end.i.i.i.i
  %retval.sroa.0.1.i.i = phi ptr [ %10, %if.end.i.i.i.i ], [ %retval.sroa.0.0.i.i, %for.body.i.i ], [ %16, %for.cond.i.i.i.i ]
  %second = getelementptr inbounds i8, ptr %retval.sroa.0.1.i.i, i64 16
  call void @_ZNSt7__cxx1112basic_stringIcSt11char_traitsIcESaIcEEC1ERKS4_(ptr noundef nonnull align 8 dereferenceable(32) %agg.result, ptr noundef nonnull align 8 dereferenceable(32) %second)
  ret void
}

; Function Attrs: mustprogress uwtable
define linkonce_odr void @_ZNSt4pairIKN8facebook5velox8TypeKindENSt7__cxx1112basic_stringIcSt11char_traitsIcESaIcEEEEC2IS2_RA8_KcTnNSt9enable_ifIXaaclsr5_PCCPE22_MoveConstructiblePairIT_T0_EEclsr5_PCCPE30_ImplicitlyMoveConvertiblePairISG_SH_EEEbE4typeELb1EEEOSG_OSH_(ptr noundef nonnull align 8 dereferenceable(40) %this, ptr noundef nonnull align 1 dereferenceable(1) %__x, ptr noundef nonnull align 1 dereferenceable(8) %__y) unnamed_addr #0 comdat align 2 personality ptr @__gxx_personality_v0 {
entry:
  %ref.tmp = alloca %"class.std::allocator.2", align 1
  %0 = load i8, ptr %__x, align 1
  store i8 %0, ptr %this, align 8
  %second = getelementptr inbounds %"struct.std::pair.28", ptr %this, i64 0, i32 1
  call void @_ZNSaIcEC1Ev(ptr noundef nonnull align 1 dereferenceable(1) %ref.tmp) #37
  %call.i1 = invoke noundef ptr @_ZNSt7__cxx1112basic_stringIcSt11char_traitsIcESaIcEE13_M_local_dataEv(ptr noundef nonnull align 8 dereferenceable(32) %second)
          to label %call.i.noexc unwind label %lpad

call.i.noexc:                                     ; preds = %entry
  invoke void @_ZNSt7__cxx1112basic_stringIcSt11char_traitsIcESaIcEE12_Alloc_hiderC1EPcRKS3_(ptr noundef nonnull align 8 dereferenceable(8) %second, ptr noundef %call.i1, ptr noundef nonnull align 1 dereferenceable(1) %ref.tmp)
          to label %.noexc unwind label %lpad

.noexc:                                           ; preds = %call.i.noexc
  %call.i.i = call noundef i64 @strlen(ptr noundef nonnull dereferenceable(1) %__y) #37
  %add.ptr.i = getelementptr inbounds i8, ptr %__y, i64 %call.i.i
  invoke void @_ZNSt7__cxx1112basic_stringIcSt11char_traitsIcESaIcEE12_M_constructIPKcEEvT_S8_St20forward_iterator_tag(ptr noundef nonnull align 8 dereferenceable(32) %second, ptr noundef nonnull %__y, ptr noundef nonnull %add.ptr.i)
          to label %invoke.cont unwind label %lpad.i

lpad.i:                                           ; preds = %.noexc
  %1 = landingpad { ptr, i32 }
          cleanup
  call void @_ZNSaIcED2Ev(ptr noundef nonnull align 1 dereferenceable(1) %second) #37
  br label %lpad.body

invoke.cont:                                      ; preds = %.noexc
  call void @_ZNSaIcED1Ev(ptr noundef nonnull align 1 dereferenceable(1) %ref.tmp) #37
  ret void

lpad:                                             ; preds = %call.i.noexc, %entry
  %2 = landingpad { ptr, i32 }
          cleanup
  br label %lpad.body

lpad.body:                                        ; preds = %lpad.i, %lpad
  %eh.lpad-body = phi { ptr, i32 } [ %2, %lpad ], [ %1, %lpad.i ]
  call void @_ZNSaIcED1Ev(ptr noundef nonnull align 1 dereferenceable(1) %ref.tmp) #37
  resume { ptr, i32 } %eh.lpad-body
}

; Function Attrs: mustprogress uwtable
define linkonce_odr void @_ZNSt4pairIKN8facebook5velox8TypeKindENSt7__cxx1112basic_stringIcSt11char_traitsIcESaIcEEEEC2IS2_RA9_KcTnNSt9enable_ifIXaaclsr5_PCCPE22_MoveConstructiblePairIT_T0_EEclsr5_PCCPE30_ImplicitlyMoveConvertiblePairISG_SH_EEEbE4typeELb1EEEOSG_OSH_(ptr noundef nonnull align 8 dereferenceable(40) %this, ptr noundef nonnull align 1 dereferenceable(1) %__x, ptr noundef nonnull align 1 dereferenceable(9) %__y) unnamed_addr #0 comdat align 2 personality ptr @__gxx_personality_v0 {
entry:
  %ref.tmp = alloca %"class.std::allocator.2", align 1
  %0 = load i8, ptr %__x, align 1
  store i8 %0, ptr %this, align 8
  %second = getelementptr inbounds %"struct.std::pair.28", ptr %this, i64 0, i32 1
  call void @_ZNSaIcEC1Ev(ptr noundef nonnull align 1 dereferenceable(1) %ref.tmp) #37
  %call.i1 = invoke noundef ptr @_ZNSt7__cxx1112basic_stringIcSt11char_traitsIcESaIcEE13_M_local_dataEv(ptr noundef nonnull align 8 dereferenceable(32) %second)
          to label %call.i.noexc unwind label %lpad

call.i.noexc:                                     ; preds = %entry
  invoke void @_ZNSt7__cxx1112basic_stringIcSt11char_traitsIcESaIcEE12_Alloc_hiderC1EPcRKS3_(ptr noundef nonnull align 8 dereferenceable(8) %second, ptr noundef %call.i1, ptr noundef nonnull align 1 dereferenceable(1) %ref.tmp)
          to label %.noexc unwind label %lpad

.noexc:                                           ; preds = %call.i.noexc
  %call.i.i = call noundef i64 @strlen(ptr noundef nonnull dereferenceable(1) %__y) #37
  %add.ptr.i = getelementptr inbounds i8, ptr %__y, i64 %call.i.i
  invoke void @_ZNSt7__cxx1112basic_stringIcSt11char_traitsIcESaIcEE12_M_constructIPKcEEvT_S8_St20forward_iterator_tag(ptr noundef nonnull align 8 dereferenceable(32) %second, ptr noundef nonnull %__y, ptr noundef nonnull %add.ptr.i)
          to label %invoke.cont unwind label %lpad.i

lpad.i:                                           ; preds = %.noexc
  %1 = landingpad { ptr, i32 }
          cleanup
  call void @_ZNSaIcED2Ev(ptr noundef nonnull align 1 dereferenceable(1) %second) #37
  br label %lpad.body

invoke.cont:                                      ; preds = %.noexc
  call void @_ZNSaIcED1Ev(ptr noundef nonnull align 1 dereferenceable(1) %ref.tmp) #37
  ret void

lpad:                                             ; preds = %call.i.noexc, %entry
  %2 = landingpad { ptr, i32 }
          cleanup
  br label %lpad.body

lpad.body:                                        ; preds = %lpad.i, %lpad
  %eh.lpad-body = phi { ptr, i32 } [ %2, %lpad ], [ %1, %lpad.i ]
  call void @_ZNSaIcED1Ev(ptr noundef nonnull align 1 dereferenceable(1) %ref.tmp) #37
  resume { ptr, i32 } %eh.lpad-body
}

; Function Attrs: mustprogress uwtable
define linkonce_odr void @_ZNSt4pairIKN8facebook5velox8TypeKindENSt7__cxx1112basic_stringIcSt11char_traitsIcESaIcEEEEC2IS2_RA7_KcTnNSt9enable_ifIXaaclsr5_PCCPE22_MoveConstructiblePairIT_T0_EEclsr5_PCCPE30_ImplicitlyMoveConvertiblePairISG_SH_EEEbE4typeELb1EEEOSG_OSH_(ptr noundef nonnull align 8 dereferenceable(40) %this, ptr noundef nonnull align 1 dereferenceable(1) %__x, ptr noundef nonnull align 1 dereferenceable(7) %__y) unnamed_addr #0 comdat align 2 personality ptr @__gxx_personality_v0 {
entry:
  %ref.tmp = alloca %"class.std::allocator.2", align 1
  %0 = load i8, ptr %__x, align 1
  store i8 %0, ptr %this, align 8
  %second = getelementptr inbounds %"struct.std::pair.28", ptr %this, i64 0, i32 1
  call void @_ZNSaIcEC1Ev(ptr noundef nonnull align 1 dereferenceable(1) %ref.tmp) #37
  %call.i1 = invoke noundef ptr @_ZNSt7__cxx1112basic_stringIcSt11char_traitsIcESaIcEE13_M_local_dataEv(ptr noundef nonnull align 8 dereferenceable(32) %second)
          to label %call.i.noexc unwind label %lpad

call.i.noexc:                                     ; preds = %entry
  invoke void @_ZNSt7__cxx1112basic_stringIcSt11char_traitsIcESaIcEE12_Alloc_hiderC1EPcRKS3_(ptr noundef nonnull align 8 dereferenceable(8) %second, ptr noundef %call.i1, ptr noundef nonnull align 1 dereferenceable(1) %ref.tmp)
          to label %.noexc unwind label %lpad

.noexc:                                           ; preds = %call.i.noexc
  %call.i.i = call noundef i64 @strlen(ptr noundef nonnull dereferenceable(1) %__y) #37
  %add.ptr.i = getelementptr inbounds i8, ptr %__y, i64 %call.i.i
  invoke void @_ZNSt7__cxx1112basic_stringIcSt11char_traitsIcESaIcEE12_M_constructIPKcEEvT_S8_St20forward_iterator_tag(ptr noundef nonnull align 8 dereferenceable(32) %second, ptr noundef nonnull %__y, ptr noundef nonnull %add.ptr.i)
          to label %invoke.cont unwind label %lpad.i

lpad.i:                                           ; preds = %.noexc
  %1 = landingpad { ptr, i32 }
          cleanup
  call void @_ZNSaIcED2Ev(ptr noundef nonnull align 1 dereferenceable(1) %second) #37
  br label %lpad.body

invoke.cont:                                      ; preds = %.noexc
  call void @_ZNSaIcED1Ev(ptr noundef nonnull align 1 dereferenceable(1) %ref.tmp) #37
  ret void

lpad:                                             ; preds = %call.i.noexc, %entry
  %2 = landingpad { ptr, i32 }
          cleanup
  br label %lpad.body

lpad.body:                                        ; preds = %lpad.i, %lpad
  %eh.lpad-body = phi { ptr, i32 } [ %2, %lpad ], [ %1, %lpad.i ]
  call void @_ZNSaIcED1Ev(ptr noundef nonnull align 1 dereferenceable(1) %ref.tmp) #37
  resume { ptr, i32 } %eh.lpad-body
}

; Function Attrs: mustprogress uwtable
define linkonce_odr void @_ZNSt4pairIKN8facebook5velox8TypeKindENSt7__cxx1112basic_stringIcSt11char_traitsIcESaIcEEEEC2IS2_RA5_KcTnNSt9enable_ifIXaaclsr5_PCCPE22_MoveConstructiblePairIT_T0_EEclsr5_PCCPE30_ImplicitlyMoveConvertiblePairISG_SH_EEEbE4typeELb1EEEOSG_OSH_(ptr noundef nonnull align 8 dereferenceable(40) %this, ptr noundef nonnull align 1 dereferenceable(1) %__x, ptr noundef nonnull align 1 dereferenceable(5) %__y) unnamed_addr #0 comdat align 2 personality ptr @__gxx_personality_v0 {
entry:
  %ref.tmp = alloca %"class.std::allocator.2", align 1
  %0 = load i8, ptr %__x, align 1
  store i8 %0, ptr %this, align 8
  %second = getelementptr inbounds %"struct.std::pair.28", ptr %this, i64 0, i32 1
  call void @_ZNSaIcEC1Ev(ptr noundef nonnull align 1 dereferenceable(1) %ref.tmp) #37
  %call.i1 = invoke noundef ptr @_ZNSt7__cxx1112basic_stringIcSt11char_traitsIcESaIcEE13_M_local_dataEv(ptr noundef nonnull align 8 dereferenceable(32) %second)
          to label %call.i.noexc unwind label %lpad

call.i.noexc:                                     ; preds = %entry
  invoke void @_ZNSt7__cxx1112basic_stringIcSt11char_traitsIcESaIcEE12_Alloc_hiderC1EPcRKS3_(ptr noundef nonnull align 8 dereferenceable(8) %second, ptr noundef %call.i1, ptr noundef nonnull align 1 dereferenceable(1) %ref.tmp)
          to label %.noexc unwind label %lpad

.noexc:                                           ; preds = %call.i.noexc
  %call.i.i = call noundef i64 @strlen(ptr noundef nonnull dereferenceable(1) %__y) #37
  %add.ptr.i = getelementptr inbounds i8, ptr %__y, i64 %call.i.i
  invoke void @_ZNSt7__cxx1112basic_stringIcSt11char_traitsIcESaIcEE12_M_constructIPKcEEvT_S8_St20forward_iterator_tag(ptr noundef nonnull align 8 dereferenceable(32) %second, ptr noundef nonnull %__y, ptr noundef nonnull %add.ptr.i)
          to label %invoke.cont unwind label %lpad.i

lpad.i:                                           ; preds = %.noexc
  %1 = landingpad { ptr, i32 }
          cleanup
  call void @_ZNSaIcED2Ev(ptr noundef nonnull align 1 dereferenceable(1) %second) #37
  br label %lpad.body

invoke.cont:                                      ; preds = %.noexc
  call void @_ZNSaIcED1Ev(ptr noundef nonnull align 1 dereferenceable(1) %ref.tmp) #37
  ret void

lpad:                                             ; preds = %call.i.noexc, %entry
  %2 = landingpad { ptr, i32 }
          cleanup
  br label %lpad.body

lpad.body:                                        ; preds = %lpad.i, %lpad
  %eh.lpad-body = phi { ptr, i32 } [ %2, %lpad ], [ %1, %lpad.i ]
  call void @_ZNSaIcED1Ev(ptr noundef nonnull align 1 dereferenceable(1) %ref.tmp) #37
  resume { ptr, i32 } %eh.lpad-body
}

; Function Attrs: mustprogress uwtable
define linkonce_odr void @_ZNSt4pairIKN8facebook5velox8TypeKindENSt7__cxx1112basic_stringIcSt11char_traitsIcESaIcEEEEC2IS2_RA10_KcTnNSt9enable_ifIXaaclsr5_PCCPE22_MoveConstructiblePairIT_T0_EEclsr5_PCCPE30_ImplicitlyMoveConvertiblePairISG_SH_EEEbE4typeELb1EEEOSG_OSH_(ptr noundef nonnull align 8 dereferenceable(40) %this, ptr noundef nonnull align 1 dereferenceable(1) %__x, ptr noundef nonnull align 1 dereferenceable(10) %__y) unnamed_addr #0 comdat align 2 personality ptr @__gxx_personality_v0 {
entry:
  %ref.tmp = alloca %"class.std::allocator.2", align 1
  %0 = load i8, ptr %__x, align 1
  store i8 %0, ptr %this, align 8
  %second = getelementptr inbounds %"struct.std::pair.28", ptr %this, i64 0, i32 1
  call void @_ZNSaIcEC1Ev(ptr noundef nonnull align 1 dereferenceable(1) %ref.tmp) #37
  %call.i1 = invoke noundef ptr @_ZNSt7__cxx1112basic_stringIcSt11char_traitsIcESaIcEE13_M_local_dataEv(ptr noundef nonnull align 8 dereferenceable(32) %second)
          to label %call.i.noexc unwind label %lpad

call.i.noexc:                                     ; preds = %entry
  invoke void @_ZNSt7__cxx1112basic_stringIcSt11char_traitsIcESaIcEE12_Alloc_hiderC1EPcRKS3_(ptr noundef nonnull align 8 dereferenceable(8) %second, ptr noundef %call.i1, ptr noundef nonnull align 1 dereferenceable(1) %ref.tmp)
          to label %.noexc unwind label %lpad

.noexc:                                           ; preds = %call.i.noexc
  %call.i.i = call noundef i64 @strlen(ptr noundef nonnull dereferenceable(1) %__y) #37
  %add.ptr.i = getelementptr inbounds i8, ptr %__y, i64 %call.i.i
  invoke void @_ZNSt7__cxx1112basic_stringIcSt11char_traitsIcESaIcEE12_M_constructIPKcEEvT_S8_St20forward_iterator_tag(ptr noundef nonnull align 8 dereferenceable(32) %second, ptr noundef nonnull %__y, ptr noundef nonnull %add.ptr.i)
          to label %invoke.cont unwind label %lpad.i

lpad.i:                                           ; preds = %.noexc
  %1 = landingpad { ptr, i32 }
          cleanup
  call void @_ZNSaIcED2Ev(ptr noundef nonnull align 1 dereferenceable(1) %second) #37
  br label %lpad.body

invoke.cont:                                      ; preds = %.noexc
  call void @_ZNSaIcED1Ev(ptr noundef nonnull align 1 dereferenceable(1) %ref.tmp) #37
  ret void

lpad:                                             ; preds = %call.i.noexc, %entry
  %2 = landingpad { ptr, i32 }
          cleanup
  br label %lpad.body

lpad.body:                                        ; preds = %lpad.i, %lpad
  %eh.lpad-body = phi { ptr, i32 } [ %2, %lpad ], [ %1, %lpad.i ]
  call void @_ZNSaIcED1Ev(ptr noundef nonnull align 1 dereferenceable(1) %ref.tmp) #37
  resume { ptr, i32 } %eh.lpad-body
}

; Function Attrs: mustprogress uwtable
define linkonce_odr void @_ZNSt4pairIKN8facebook5velox8TypeKindENSt7__cxx1112basic_stringIcSt11char_traitsIcESaIcEEEEC2IS2_RA6_KcTnNSt9enable_ifIXaaclsr5_PCCPE22_MoveConstructiblePairIT_T0_EEclsr5_PCCPE30_ImplicitlyMoveConvertiblePairISG_SH_EEEbE4typeELb1EEEOSG_OSH_(ptr noundef nonnull align 8 dereferenceable(40) %this, ptr noundef nonnull align 1 dereferenceable(1) %__x, ptr noundef nonnull align 1 dereferenceable(6) %__y) unnamed_addr #0 comdat align 2 personality ptr @__gxx_personality_v0 {
entry:
  %ref.tmp = alloca %"class.std::allocator.2", align 1
  %0 = load i8, ptr %__x, align 1
  store i8 %0, ptr %this, align 8
  %second = getelementptr inbounds %"struct.std::pair.28", ptr %this, i64 0, i32 1
  call void @_ZNSaIcEC1Ev(ptr noundef nonnull align 1 dereferenceable(1) %ref.tmp) #37
  %call.i1 = invoke noundef ptr @_ZNSt7__cxx1112basic_stringIcSt11char_traitsIcESaIcEE13_M_local_dataEv(ptr noundef nonnull align 8 dereferenceable(32) %second)
          to label %call.i.noexc unwind label %lpad

call.i.noexc:                                     ; preds = %entry
  invoke void @_ZNSt7__cxx1112basic_stringIcSt11char_traitsIcESaIcEE12_Alloc_hiderC1EPcRKS3_(ptr noundef nonnull align 8 dereferenceable(8) %second, ptr noundef %call.i1, ptr noundef nonnull align 1 dereferenceable(1) %ref.tmp)
          to label %.noexc unwind label %lpad

.noexc:                                           ; preds = %call.i.noexc
  %call.i.i = call noundef i64 @strlen(ptr noundef nonnull dereferenceable(1) %__y) #37
  %add.ptr.i = getelementptr inbounds i8, ptr %__y, i64 %call.i.i
  invoke void @_ZNSt7__cxx1112basic_stringIcSt11char_traitsIcESaIcEE12_M_constructIPKcEEvT_S8_St20forward_iterator_tag(ptr noundef nonnull align 8 dereferenceable(32) %second, ptr noundef nonnull %__y, ptr noundef nonnull %add.ptr.i)
          to label %invoke.cont unwind label %lpad.i

lpad.i:                                           ; preds = %.noexc
  %1 = landingpad { ptr, i32 }
          cleanup
  call void @_ZNSaIcED2Ev(ptr noundef nonnull align 1 dereferenceable(1) %second) #37
  br label %lpad.body

invoke.cont:                                      ; preds = %.noexc
  call void @_ZNSaIcED1Ev(ptr noundef nonnull align 1 dereferenceable(1) %ref.tmp) #37
  ret void

lpad:                                             ; preds = %call.i.noexc, %entry
  %2 = landingpad { ptr, i32 }
          cleanup
  br label %lpad.body

lpad.body:                                        ; preds = %lpad.i, %lpad
  %eh.lpad-body = phi { ptr, i32 } [ %2, %lpad ], [ %1, %lpad.i ]
  call void @_ZNSaIcED1Ev(ptr noundef nonnull align 1 dereferenceable(1) %ref.tmp) #37
  resume { ptr, i32 } %eh.lpad-body
}

; Function Attrs: mustprogress uwtable
define linkonce_odr void @_ZNSt4pairIKN8facebook5velox8TypeKindENSt7__cxx1112basic_stringIcSt11char_traitsIcESaIcEEEEC2IS2_RA4_KcTnNSt9enable_ifIXaaclsr5_PCCPE22_MoveConstructiblePairIT_T0_EEclsr5_PCCPE30_ImplicitlyMoveConvertiblePairISG_SH_EEEbE4typeELb1EEEOSG_OSH_(ptr noundef nonnull align 8 dereferenceable(40) %this, ptr noundef nonnull align 1 dereferenceable(1) %__x, ptr noundef nonnull align 1 dereferenceable(4) %__y) unnamed_addr #0 comdat align 2 personality ptr @__gxx_personality_v0 {
entry:
  %ref.tmp = alloca %"class.std::allocator.2", align 1
  %0 = load i8, ptr %__x, align 1
  store i8 %0, ptr %this, align 8
  %second = getelementptr inbounds %"struct.std::pair.28", ptr %this, i64 0, i32 1
  call void @_ZNSaIcEC1Ev(ptr noundef nonnull align 1 dereferenceable(1) %ref.tmp) #37
  %call.i1 = invoke noundef ptr @_ZNSt7__cxx1112basic_stringIcSt11char_traitsIcESaIcEE13_M_local_dataEv(ptr noundef nonnull align 8 dereferenceable(32) %second)
          to label %call.i.noexc unwind label %lpad

call.i.noexc:                                     ; preds = %entry
  invoke void @_ZNSt7__cxx1112basic_stringIcSt11char_traitsIcESaIcEE12_Alloc_hiderC1EPcRKS3_(ptr noundef nonnull align 8 dereferenceable(8) %second, ptr noundef %call.i1, ptr noundef nonnull align 1 dereferenceable(1) %ref.tmp)
          to label %.noexc unwind label %lpad

.noexc:                                           ; preds = %call.i.noexc
  %call.i.i = call noundef i64 @strlen(ptr noundef nonnull dereferenceable(1) %__y) #37
  %add.ptr.i = getelementptr inbounds i8, ptr %__y, i64 %call.i.i
  invoke void @_ZNSt7__cxx1112basic_stringIcSt11char_traitsIcESaIcEE12_M_constructIPKcEEvT_S8_St20forward_iterator_tag(ptr noundef nonnull align 8 dereferenceable(32) %second, ptr noundef nonnull %__y, ptr noundef nonnull %add.ptr.i)
          to label %invoke.cont unwind label %lpad.i

lpad.i:                                           ; preds = %.noexc
  %1 = landingpad { ptr, i32 }
          cleanup
  call void @_ZNSaIcED2Ev(ptr noundef nonnull align 1 dereferenceable(1) %second) #37
  br label %lpad.body

invoke.cont:                                      ; preds = %.noexc
  call void @_ZNSaIcED1Ev(ptr noundef nonnull align 1 dereferenceable(1) %ref.tmp) #37
  ret void

lpad:                                             ; preds = %call.i.noexc, %entry
  %2 = landingpad { ptr, i32 }
          cleanup
  br label %lpad.body

lpad.body:                                        ; preds = %lpad.i, %lpad
  %eh.lpad-body = phi { ptr, i32 } [ %2, %lpad ], [ %1, %lpad.i ]
  call void @_ZNSaIcED1Ev(ptr noundef nonnull align 1 dereferenceable(1) %ref.tmp) #37
  resume { ptr, i32 } %eh.lpad-body
}

; Function Attrs: mustprogress nounwind uwtable
define linkonce_odr void @_ZNSt13unordered_mapIN8facebook5velox8TypeKindENSt7__cxx1112basic_stringIcSt11char_traitsIcESaIcEEESt4hashIS2_ESt8equal_toIS2_ESaISt4pairIKS2_S8_EEED2Ev(ptr noundef nonnull align 8 dereferenceable(56) %this) unnamed_addr #2 comdat align 2 personality ptr @__gxx_personality_v0 {
entry:
  %_M_before_begin.i.i.i = getelementptr inbounds %"class.std::_Hashtable.9", ptr %this, i64 0, i32 2
  %0 = load ptr, ptr %_M_before_begin.i.i.i, align 8
  %tobool.not3.i.i.i = icmp eq ptr %0, null
  br i1 %tobool.not3.i.i.i, label %_ZNSt10_HashtableIN8facebook5velox8TypeKindESt4pairIKS2_NSt7__cxx1112basic_stringIcSt11char_traitsIcESaIcEEEESaISB_ENSt8__detail10_Select1stESt8equal_toIS2_ESt4hashIS2_ENSD_18_Mod_range_hashingENSD_20_Default_ranged_hashENSD_20_Prime_rehash_policyENSD_17_Hashtable_traitsILb1ELb0ELb1EEEE5clearEv.exit.i, label %while.body.i.i.i

while.body.i.i.i:                                 ; preds = %entry, %while.body.i.i.i
  %__n.addr.04.i.i.i = phi ptr [ %1, %while.body.i.i.i ], [ %0, %entry ]
  %1 = load ptr, ptr %__n.addr.04.i.i.i, align 8
  %second.i.i.i.i.i.i.i = getelementptr inbounds i8, ptr %__n.addr.04.i.i.i, i64 16
  tail call void @_ZNSt7__cxx1112basic_stringIcSt11char_traitsIcESaIcEED1Ev(ptr noundef nonnull align 8 dereferenceable(32) %second.i.i.i.i.i.i.i) #37
  tail call void @_ZdlPv(ptr noundef nonnull %__n.addr.04.i.i.i) #38
  %tobool.not.i.i.i = icmp eq ptr %1, null
  br i1 %tobool.not.i.i.i, label %_ZNSt10_HashtableIN8facebook5velox8TypeKindESt4pairIKS2_NSt7__cxx1112basic_stringIcSt11char_traitsIcESaIcEEEESaISB_ENSt8__detail10_Select1stESt8equal_toIS2_ESt4hashIS2_ENSD_18_Mod_range_hashingENSD_20_Default_ranged_hashENSD_20_Prime_rehash_policyENSD_17_Hashtable_traitsILb1ELb0ELb1EEEE5clearEv.exit.i, label %while.body.i.i.i, !llvm.loop !9

_ZNSt10_HashtableIN8facebook5velox8TypeKindESt4pairIKS2_NSt7__cxx1112basic_stringIcSt11char_traitsIcESaIcEEEESaISB_ENSt8__detail10_Select1stESt8equal_toIS2_ESt4hashIS2_ENSD_18_Mod_range_hashingENSD_20_Default_ranged_hashENSD_20_Prime_rehash_policyENSD_17_Hashtable_traitsILb1ELb0ELb1EEEE5clearEv.exit.i: ; preds = %while.body.i.i.i, %entry
  %2 = load ptr, ptr %this, align 8
  %_M_bucket_count.i.i = getelementptr inbounds %"class.std::_Hashtable.9", ptr %this, i64 0, i32 1
  %3 = load i64, ptr %_M_bucket_count.i.i, align 8
  %mul.i.i = shl i64 %3, 3
  tail call void @llvm.memset.p0.i64(ptr align 8 %2, i8 0, i64 %mul.i.i, i1 false)
  tail call void @llvm.memset.p0.i64(ptr noundef nonnull align 8 dereferenceable(16) %_M_before_begin.i.i.i, i8 0, i64 16, i1 false)
  %4 = load ptr, ptr %this, align 8
  %_M_single_bucket.i.i.i.i = getelementptr inbounds %"class.std::_Hashtable.9", ptr %this, i64 0, i32 5
  %cmp.i.i.i.i = icmp eq ptr %_M_single_bucket.i.i.i.i, %4
  br i1 %cmp.i.i.i.i, label %_ZNSt10_HashtableIN8facebook5velox8TypeKindESt4pairIKS2_NSt7__cxx1112basic_stringIcSt11char_traitsIcESaIcEEEESaISB_ENSt8__detail10_Select1stESt8equal_toIS2_ESt4hashIS2_ENSD_18_Mod_range_hashingENSD_20_Default_ranged_hashENSD_20_Prime_rehash_policyENSD_17_Hashtable_traitsILb1ELb0ELb1EEEED2Ev.exit, label %if.end.i.i.i

if.end.i.i.i:                                     ; preds = %_ZNSt10_HashtableIN8facebook5velox8TypeKindESt4pairIKS2_NSt7__cxx1112basic_stringIcSt11char_traitsIcESaIcEEEESaISB_ENSt8__detail10_Select1stESt8equal_toIS2_ESt4hashIS2_ENSD_18_Mod_range_hashingENSD_20_Default_ranged_hashENSD_20_Prime_rehash_policyENSD_17_Hashtable_traitsILb1ELb0ELb1EEEE5clearEv.exit.i
  tail call void @_ZdlPv(ptr noundef %4) #38
  br label %_ZNSt10_HashtableIN8facebook5velox8TypeKindESt4pairIKS2_NSt7__cxx1112basic_stringIcSt11char_traitsIcESaIcEEEESaISB_ENSt8__detail10_Select1stESt8equal_toIS2_ESt4hashIS2_ENSD_18_Mod_range_hashingENSD_20_Default_ranged_hashENSD_20_Prime_rehash_policyENSD_17_Hashtable_traitsILb1ELb0ELb1EEEED2Ev.exit

_ZNSt10_HashtableIN8facebook5velox8TypeKindESt4pairIKS2_NSt7__cxx1112basic_stringIcSt11char_traitsIcESaIcEEEESaISB_ENSt8__detail10_Select1stESt8equal_toIS2_ESt4hashIS2_ENSD_18_Mod_range_hashingENSD_20_Default_ranged_hashENSD_20_Prime_rehash_policyENSD_17_Hashtable_traitsILb1ELb0ELb1EEEED2Ev.exit: ; preds = %_ZNSt10_HashtableIN8facebook5velox8TypeKindESt4pairIKS2_NSt7__cxx1112basic_stringIcSt11char_traitsIcESaIcEEEESaISB_ENSt8__detail10_Select1stESt8equal_toIS2_ESt4hashIS2_ENSD_18_Mod_range_hashingENSD_20_Default_ranged_hashENSD_20_Prime_rehash_policyENSD_17_Hashtable_traitsILb1ELb0ELb1EEEE5clearEv.exit.i, %if.end.i.i.i
  ret void
}

declare void @_ZNSt7__cxx1112basic_stringIcSt11char_traitsIcESaIcEEC1ERKS4_(ptr noundef nonnull align 8 dereferenceable(32), ptr noundef nonnull align 8 dereferenceable(32)) unnamed_addr #4

; Function Attrs: mustprogress uwtable
define i64 @_ZN8facebook5velox24getDecimalPrecisionScaleERKNS0_4TypeE(ptr noundef nonnull readonly align 8 dereferenceable(17) %type) local_unnamed_addr #0 {
entry:
  %0 = tail call ptr @__dynamic_cast(ptr nonnull %type, ptr nonnull @_ZTIN8facebook5velox4TypeE, ptr nonnull @_ZTIN8facebook5velox16ShortDecimalTypeE, i64 0) #37
  %cmp.i.not = icmp eq ptr %0, null
  br i1 %cmp.i.not, label %dynamic_cast.notnull.i14, label %if.then

if.then:                                          ; preds = %entry
  %parameters_.i = getelementptr inbounds %"class.facebook::velox::DecimalType", ptr %type, i64 0, i32 1
  %1 = load ptr, ptr %parameters_.i, align 8
  %_M_engaged.i.i.i = getelementptr inbounds %"struct.facebook::velox::TypeParameter", ptr %1, i64 0, i32 2, i32 0, i32 0, i32 0, i32 1
  %2 = load i8, ptr %_M_engaged.i.i.i, align 8
  %3 = and i8 %2, 1
  %tobool.i.not.i.i = icmp eq i8 %3, 0
  br i1 %tobool.i.not.i.i, label %if.end.i.i, label %_ZNK8facebook5velox11DecimalTypeILNS0_8TypeKindE4EE9precisionEv.exit

if.end.i.i:                                       ; preds = %if.then
  tail call void @_ZSt27__throw_bad_optional_accessv() #39
  unreachable

_ZNK8facebook5velox11DecimalTypeILNS0_8TypeKindE4EE9precisionEv.exit: ; preds = %if.then
  %_M_engaged.i.i.i7 = getelementptr inbounds %"struct.facebook::velox::TypeParameter", ptr %1, i64 1, i32 2, i32 0, i32 0, i32 0, i32 1
  %4 = load i8, ptr %_M_engaged.i.i.i7, align 8
  %5 = and i8 %4, 1
  %tobool.i.not.i.i8 = icmp eq i8 %5, 0
  br i1 %tobool.i.not.i.i8, label %if.end.i.i11, label %return

if.end.i.i11:                                     ; preds = %_ZNK8facebook5velox11DecimalTypeILNS0_8TypeKindE4EE9precisionEv.exit
  tail call void @_ZSt27__throw_bad_optional_accessv() #39
  unreachable

dynamic_cast.notnull.i14:                         ; preds = %entry
  %6 = tail call ptr @__dynamic_cast(ptr nonnull %type, ptr nonnull @_ZTIN8facebook5velox4TypeE, ptr nonnull @_ZTIN8facebook5velox15LongDecimalTypeE, i64 0) #37
  %cmp.i15.not = icmp eq ptr %6, null
  br i1 %cmp.i15.not, label %if.end11, label %if.then5

if.then5:                                         ; preds = %dynamic_cast.notnull.i14
  %parameters_.i13 = getelementptr inbounds %"class.facebook::velox::DecimalType.39", ptr %type, i64 0, i32 1
  %7 = load ptr, ptr %parameters_.i13, align 8
  %_M_engaged.i.i.i14 = getelementptr inbounds %"struct.facebook::velox::TypeParameter", ptr %7, i64 0, i32 2, i32 0, i32 0, i32 0, i32 1
  %8 = load i8, ptr %_M_engaged.i.i.i14, align 8
  %9 = and i8 %8, 1
  %tobool.i.not.i.i15 = icmp eq i8 %9, 0
  br i1 %tobool.i.not.i.i15, label %if.end.i.i18, label %_ZNK8facebook5velox11DecimalTypeILNS0_8TypeKindE10EE9precisionEv.exit

if.end.i.i18:                                     ; preds = %if.then5
  tail call void @_ZSt27__throw_bad_optional_accessv() #39
  unreachable

_ZNK8facebook5velox11DecimalTypeILNS0_8TypeKindE10EE9precisionEv.exit: ; preds = %if.then5
  %_M_engaged.i.i.i20 = getelementptr inbounds %"struct.facebook::velox::TypeParameter", ptr %7, i64 1, i32 2, i32 0, i32 0, i32 0, i32 1
  %10 = load i8, ptr %_M_engaged.i.i.i20, align 8
  %11 = and i8 %10, 1
  %tobool.i.not.i.i21 = icmp eq i8 %11, 0
  br i1 %tobool.i.not.i.i21, label %if.end.i.i24, label %return

if.end.i.i24:                                     ; preds = %_ZNK8facebook5velox11DecimalTypeILNS0_8TypeKindE10EE9precisionEv.exit
  tail call void @_ZSt27__throw_bad_optional_accessv() #39
  unreachable

if.end11:                                         ; preds = %dynamic_cast.notnull.i14
  tail call void @llvm.trap()
  unreachable

return:                                           ; preds = %_ZNK8facebook5velox11DecimalTypeILNS0_8TypeKindE10EE9precisionEv.exit, %_ZNK8facebook5velox11DecimalTypeILNS0_8TypeKindE4EE9precisionEv.exit
  %.pn = phi ptr [ %1, %_ZNK8facebook5velox11DecimalTypeILNS0_8TypeKindE4EE9precisionEv.exit ], [ %7, %_ZNK8facebook5velox11DecimalTypeILNS0_8TypeKindE10EE9precisionEv.exit ]
  %retval.sroa.3.0.in.in.in = getelementptr inbounds %"struct.facebook::velox::TypeParameter", ptr %.pn, i64 1, i32 2
  %retval.sroa.3.0.in.in = load i64, ptr %retval.sroa.3.0.in.in.in, align 8
  %retval.sroa.0.0.in.in.in = getelementptr inbounds %"struct.facebook::velox::TypeParameter", ptr %.pn, i64 0, i32 2
  %retval.sroa.0.0.in.in = load i64, ptr %retval.sroa.0.0.in.in.in, align 8
  %retval.sroa.0.0 = and i64 %retval.sroa.0.0.in.in, 255
  %retval.sroa.3.0 = shl i64 %retval.sroa.3.0.in.in, 32
  %retval.sroa.3.0.insert.shift = and i64 %retval.sroa.3.0, 1095216660480
  %retval.sroa.0.0.insert.insert = or disjoint i64 %retval.sroa.3.0.insert.shift, %retval.sroa.0.0
  ret i64 %retval.sroa.0.0.insert.insert
}

; Function Attrs: mustprogress uwtable
define noundef nonnull align 8 dereferenceable(8) ptr @_ZN8facebook5veloxlsERSoRKNS0_8TypeKindE(ptr noundef nonnull returned align 8 dereferenceable(8) %os, ptr nocapture noundef nonnull readonly align 1 dereferenceable(1) %kind) local_unnamed_addr #0 personality ptr @__gxx_personality_v0 {
entry:
  %ref.tmp = alloca %"class.std::__cxx11::basic_string", align 8
  call void @_ZN8facebook5velox17mapTypeKindToNameB5cxx11ERKNS0_8TypeKindE(ptr nonnull sret(%"class.std::__cxx11::basic_string") align 8 %ref.tmp, ptr noundef nonnull align 1 dereferenceable(1) %kind)
  %call = invoke noundef nonnull align 8 dereferenceable(8) ptr @_ZStlsIcSt11char_traitsIcESaIcEERSt13basic_ostreamIT_T0_ES7_RKNSt7__cxx1112basic_stringIS4_S5_T1_EE(ptr noundef nonnull align 8 dereferenceable(8) %os, ptr noundef nonnull align 8 dereferenceable(32) %ref.tmp)
          to label %invoke.cont unwind label %lpad

invoke.cont:                                      ; preds = %entry
  call void @_ZNSt7__cxx1112basic_stringIcSt11char_traitsIcESaIcEED1Ev(ptr noundef nonnull align 8 dereferenceable(32) %ref.tmp) #37
  ret ptr %os

lpad:                                             ; preds = %entry
  %0 = landingpad { ptr, i32 }
          cleanup
  call void @_ZNSt7__cxx1112basic_stringIcSt11char_traitsIcESaIcEED1Ev(ptr noundef nonnull align 8 dereferenceable(32) %ref.tmp) #37
  resume { ptr, i32 } %0
}

declare noundef nonnull align 8 dereferenceable(8) ptr @_ZStlsIcSt11char_traitsIcESaIcEERSt13basic_ostreamIT_T0_ES7_RKNSt7__cxx1112basic_stringIS4_S5_T1_EE(ptr noundef nonnull align 8 dereferenceable(8), ptr noundef nonnull align 8 dereferenceable(32)) local_unnamed_addr #4

; Function Attrs: nounwind
declare void @_ZNSt7__cxx1112basic_stringIcSt11char_traitsIcESaIcEED1Ev(ptr noundef nonnull align 8 dereferenceable(32)) unnamed_addr #5

; Function Attrs: mustprogress uwtable
define void @_ZN8facebook5velox4Type6createERKN5folly7dynamicE(ptr noalias sret(%"class.std::shared_ptr") align 8 %agg.result, ptr noundef nonnull align 8 dereferenceable(40) %obj) #0 align 2 personality ptr @__gxx_personality_v0 {
entry:
  %childTypes = alloca %"class.std::vector.44", align 16
  %ref.tmp = alloca %"struct.folly::dynamic::const_item_iterator", align 8
  %ref.tmp8 = alloca %"class.std::vector.44", align 16
  %typeName = alloca %"class.std::__cxx11::basic_string", align 8
  %names = alloca %"class.std::vector.54", align 8
  %ref.tmp64 = alloca %"class.std::__cxx11::basic_string", align 8
  %ref.tmp72 = alloca %"class.std::__cxx11::basic_string", align 8
  %withExtra = alloca %"class.std::shared_ptr.97", align 8
  call void @llvm.memset.p0.i64(ptr noundef nonnull align 16 dereferenceable(24) %childTypes, i8 0, i64 24, i1 false)
  invoke void @_ZNK5folly7dynamic4findENS_5RangeIPKcEE(ptr nonnull sret(%"struct.folly::dynamic::const_item_iterator") align 8 %ref.tmp, ptr noundef nonnull align 8 dereferenceable(40) %obj, ptr nonnull @.str.18, ptr nonnull getelementptr inbounds ([7 x i8], ptr @.str.18, i64 0, i64 6))
          to label %invoke.cont1 unwind label %lpad

invoke.cont1:                                     ; preds = %entry
  %0 = load i32, ptr %obj, align 8
  %cmp.not.i.not.i.i.i = icmp eq i32 %0, 5
  br i1 %cmp.not.i.not.i.i.i, label %invoke.cont6, label %if.end.i.i.i

if.end.i.i.i:                                     ; preds = %invoke.cont1
  %1 = load ptr, ptr @_ZN5folly7dynamic8TypeInfoINS0_10ObjectImplEE4nameE, align 8
  invoke void @_ZN5folly6detail16throw_exception_INS_9TypeErrorEJPKcNS_7dynamic4TypeEEEEvDpT0_(ptr noundef %1, i32 noundef %0) #40
          to label %.noexc unwind label %lpad

.noexc:                                           ; preds = %if.end.i.i.i
  unreachable

invoke.cont6:                                     ; preds = %invoke.cont1
  %2 = load ptr, ptr %ref.tmp, align 8
  %cmp.i.i.i.i.i.i.not = icmp eq ptr %2, null
  br i1 %cmp.i.i.i.i.i.i.not, label %if.end, label %if.then

if.then:                                          ; preds = %invoke.cont6
  %call.i.i17 = invoke noundef nonnull align 8 dereferenceable(40) ptr @_ZNKR5folly7dynamic2atENS_5RangeIPKcEE(ptr noundef nonnull align 8 dereferenceable(40) %obj, ptr nonnull @.str.18, ptr nonnull getelementptr inbounds ([7 x i8], ptr @.str.18, i64 0, i64 6))
          to label %call.i.i.noexc unwind label %lpad

call.i.i.noexc:                                   ; preds = %if.then
  invoke void @_ZN8facebook5velox13ISerializable11deserializeISt6vectorINS0_4TypeESaIS4_EEvEEDaRKN5folly7dynamicEPv(ptr nonnull sret(%"class.std::vector.44") align 8 %ref.tmp8, ptr noundef nonnull align 8 dereferenceable(40) %call.i.i17, ptr noundef null)
          to label %invoke.cont9 unwind label %lpad

invoke.cont9:                                     ; preds = %call.i.i.noexc
  %3 = load ptr, ptr %childTypes, align 16
  %_M_finish.i.i.i = getelementptr inbounds %"struct.std::_Vector_base<std::shared_ptr<const facebook::velox::Type>, std::allocator<std::shared_ptr<const facebook::velox::Type>>>::_Vector_impl_data", ptr %childTypes, i64 0, i32 1
  %4 = load ptr, ptr %_M_finish.i.i.i, align 8
  %_M_end_of_storage.i.i.i = getelementptr inbounds %"struct.std::_Vector_base<std::shared_ptr<const facebook::velox::Type>, std::allocator<std::shared_ptr<const facebook::velox::Type>>>::_Vector_impl_data", ptr %childTypes, i64 0, i32 2
  %_M_finish.i2.i.i = getelementptr inbounds %"struct.std::_Vector_base<std::shared_ptr<const facebook::velox::Type>, std::allocator<std::shared_ptr<const facebook::velox::Type>>>::_Vector_impl_data", ptr %ref.tmp8, i64 0, i32 1
  %5 = load <2 x ptr>, ptr %ref.tmp8, align 16
  store <2 x ptr> %5, ptr %childTypes, align 16
  %_M_end_of_storage.i4.i.i = getelementptr inbounds %"struct.std::_Vector_base<std::shared_ptr<const facebook::velox::Type>, std::allocator<std::shared_ptr<const facebook::velox::Type>>>::_Vector_impl_data", ptr %ref.tmp8, i64 0, i32 2
  %6 = load ptr, ptr %_M_end_of_storage.i4.i.i, align 16
  store ptr %6, ptr %_M_end_of_storage.i.i.i, align 16
  %cmp.not3.i.i.i.i.i = icmp eq ptr %3, %4
  call void @llvm.memset.p0.i64(ptr noundef nonnull align 16 dereferenceable(24) %ref.tmp8, i8 0, i64 24, i1 false)
  br i1 %cmp.not3.i.i.i.i.i, label %invoke.cont.i.i, label %for.body.i.i.i.i.i

for.body.i.i.i.i.i:                               ; preds = %invoke.cont9, %_ZSt8_DestroyISt10shared_ptrIKN8facebook5velox4TypeEEEvPT_.exit.i.i.i.i.i
  %__first.addr.04.i.i.i.i.i = phi ptr [ %incdec.ptr.i.i.i.i.i, %_ZSt8_DestroyISt10shared_ptrIKN8facebook5velox4TypeEEEvPT_.exit.i.i.i.i.i ], [ %3, %invoke.cont9 ]
  %_M_refcount.i.i.i.i.i.i.i.i = getelementptr inbounds %"class.std::__shared_ptr", ptr %__first.addr.04.i.i.i.i.i, i64 0, i32 1
  %7 = load ptr, ptr %_M_refcount.i.i.i.i.i.i.i.i, align 8
  %cmp.not.i.i.i.i.i.i.i.i.i = icmp eq ptr %7, null
  br i1 %cmp.not.i.i.i.i.i.i.i.i.i, label %_ZSt8_DestroyISt10shared_ptrIKN8facebook5velox4TypeEEEvPT_.exit.i.i.i.i.i, label %if.then.i.i.i.i.i.i.i.i.i247

if.then.i.i.i.i.i.i.i.i.i247:                     ; preds = %for.body.i.i.i.i.i
  %_M_use_count.i.i.i.i.i.i.i.i.i.i = getelementptr inbounds %"class.std::_Sp_counted_base", ptr %7, i64 0, i32 1
  %8 = load atomic i64, ptr %_M_use_count.i.i.i.i.i.i.i.i.i.i acquire, align 8
  %cmp.i.i.i.i.i.i.i.i.i.i = icmp eq i64 %8, 4294967297
  %9 = trunc i64 %8 to i32
  br i1 %cmp.i.i.i.i.i.i.i.i.i.i, label %if.then.i.i.i.i.i.i.i.i.i.i249, label %if.end.i.i.i.i.i.i.i.i.i.i

if.then.i.i.i.i.i.i.i.i.i.i249:                   ; preds = %if.then.i.i.i.i.i.i.i.i.i247
  store i32 0, ptr %_M_use_count.i.i.i.i.i.i.i.i.i.i, align 8
  %_M_weak_count.i.i.i.i.i.i.i.i.i.i = getelementptr inbounds %"class.std::_Sp_counted_base", ptr %7, i64 0, i32 2
  store i32 0, ptr %_M_weak_count.i.i.i.i.i.i.i.i.i.i, align 4
  %vtable.i.i.i.i.i.i.i.i.i.i = load ptr, ptr %7, align 8
  %vfn.i.i.i.i.i.i.i.i.i.i = getelementptr inbounds ptr, ptr %vtable.i.i.i.i.i.i.i.i.i.i, i64 2
  %10 = load ptr, ptr %vfn.i.i.i.i.i.i.i.i.i.i, align 8
  call void %10(ptr noundef nonnull align 8 dereferenceable(16) %7) #37
  br label %if.end8.sink.split.i.i.i.i.i.i.i.i.i.i

if.end.i.i.i.i.i.i.i.i.i.i:                       ; preds = %if.then.i.i.i.i.i.i.i.i.i247
  %11 = load i8, ptr @__libc_single_threaded, align 1
  %tobool.i.i.not.i.i.i.i.i.i.i.i.i.i = icmp eq i8 %11, 0
  br i1 %tobool.i.i.not.i.i.i.i.i.i.i.i.i.i, label %if.else.i.i.i.i.i.i.i.i.i.i.i, label %if.then.i.i.i.i.i.i.i.i.i.i.i

if.then.i.i.i.i.i.i.i.i.i.i.i:                    ; preds = %if.end.i.i.i.i.i.i.i.i.i.i
  %add.i.i.i.i.i.i.i.i.i.i.i = add nsw i32 %9, -1
  store i32 %add.i.i.i.i.i.i.i.i.i.i.i, ptr %_M_use_count.i.i.i.i.i.i.i.i.i.i, align 4
  br label %_ZN9__gnu_cxx27__exchange_and_add_dispatchEPii.exit.i.i.i.i.i.i.i.i.i.i

if.else.i.i.i.i.i.i.i.i.i.i.i:                    ; preds = %if.end.i.i.i.i.i.i.i.i.i.i
  %12 = atomicrmw volatile add ptr %_M_use_count.i.i.i.i.i.i.i.i.i.i, i32 -1 acq_rel, align 4
  br label %_ZN9__gnu_cxx27__exchange_and_add_dispatchEPii.exit.i.i.i.i.i.i.i.i.i.i

_ZN9__gnu_cxx27__exchange_and_add_dispatchEPii.exit.i.i.i.i.i.i.i.i.i.i: ; preds = %if.else.i.i.i.i.i.i.i.i.i.i.i, %if.then.i.i.i.i.i.i.i.i.i.i.i
  %retval.i.0.i.i.i.i.i.i.i.i.i.i = phi i32 [ %9, %if.then.i.i.i.i.i.i.i.i.i.i.i ], [ %12, %if.else.i.i.i.i.i.i.i.i.i.i.i ]
  %cmp6.i.i.i.i.i.i.i.i.i.i = icmp eq i32 %retval.i.0.i.i.i.i.i.i.i.i.i.i, 1
  br i1 %cmp6.i.i.i.i.i.i.i.i.i.i, label %if.then7.i.i.i.i.i.i.i.i.i.i, label %_ZSt8_DestroyISt10shared_ptrIKN8facebook5velox4TypeEEEvPT_.exit.i.i.i.i.i

if.then7.i.i.i.i.i.i.i.i.i.i:                     ; preds = %_ZN9__gnu_cxx27__exchange_and_add_dispatchEPii.exit.i.i.i.i.i.i.i.i.i.i
  %vtable.i.i.i.i.i.i.i.i.i.i.i.i = load ptr, ptr %7, align 8
  %vfn.i.i.i.i.i.i.i.i.i.i.i.i = getelementptr inbounds ptr, ptr %vtable.i.i.i.i.i.i.i.i.i.i.i.i, i64 2
  %13 = load ptr, ptr %vfn.i.i.i.i.i.i.i.i.i.i.i.i, align 8
  call void %13(ptr noundef nonnull align 8 dereferenceable(16) %7) #37
  %_M_weak_count.i.i.i.i.i.i.i.i.i.i.i.i = getelementptr inbounds %"class.std::_Sp_counted_base", ptr %7, i64 0, i32 2
  %14 = load i8, ptr @__libc_single_threaded, align 1
  %tobool.i.i.not.i.i.i.i.i.i.i.i.i.i.i.i = icmp eq i8 %14, 0
  br i1 %tobool.i.i.not.i.i.i.i.i.i.i.i.i.i.i.i, label %if.else.i.i.i.i.i.i.i.i.i.i.i.i.i, label %if.then.i.i.i.i.i.i.i.i.i.i.i.i.i

if.then.i.i.i.i.i.i.i.i.i.i.i.i.i:                ; preds = %if.then7.i.i.i.i.i.i.i.i.i.i
  %15 = load i32, ptr %_M_weak_count.i.i.i.i.i.i.i.i.i.i.i.i, align 4
  %add.i.i.i.i.i.i.i.i.i.i.i.i.i = add nsw i32 %15, -1
  store i32 %add.i.i.i.i.i.i.i.i.i.i.i.i.i, ptr %_M_weak_count.i.i.i.i.i.i.i.i.i.i.i.i, align 4
  br label %_ZN9__gnu_cxx27__exchange_and_add_dispatchEPii.exit.i.i.i.i.i.i.i.i.i.i.i.i

if.else.i.i.i.i.i.i.i.i.i.i.i.i.i:                ; preds = %if.then7.i.i.i.i.i.i.i.i.i.i
  %16 = atomicrmw volatile add ptr %_M_weak_count.i.i.i.i.i.i.i.i.i.i.i.i, i32 -1 acq_rel, align 4
  br label %_ZN9__gnu_cxx27__exchange_and_add_dispatchEPii.exit.i.i.i.i.i.i.i.i.i.i.i.i

_ZN9__gnu_cxx27__exchange_and_add_dispatchEPii.exit.i.i.i.i.i.i.i.i.i.i.i.i: ; preds = %if.else.i.i.i.i.i.i.i.i.i.i.i.i.i, %if.then.i.i.i.i.i.i.i.i.i.i.i.i.i
  %retval.i.0.i.i.i.i.i.i.i.i.i.i.i.i = phi i32 [ %15, %if.then.i.i.i.i.i.i.i.i.i.i.i.i.i ], [ %16, %if.else.i.i.i.i.i.i.i.i.i.i.i.i.i ]
  %cmp.i.i.i.i.i.i.i.i.i.i.i.i = icmp eq i32 %retval.i.0.i.i.i.i.i.i.i.i.i.i.i.i, 1
  br i1 %cmp.i.i.i.i.i.i.i.i.i.i.i.i, label %if.end8.sink.split.i.i.i.i.i.i.i.i.i.i, label %_ZSt8_DestroyISt10shared_ptrIKN8facebook5velox4TypeEEEvPT_.exit.i.i.i.i.i

if.end8.sink.split.i.i.i.i.i.i.i.i.i.i:           ; preds = %_ZN9__gnu_cxx27__exchange_and_add_dispatchEPii.exit.i.i.i.i.i.i.i.i.i.i.i.i, %if.then.i.i.i.i.i.i.i.i.i.i249
  %vtable2.i.i.i.i.i.i.i.i.i.i.i.i = load ptr, ptr %7, align 8
  %vfn3.i.i.i.i.i.i.i.i.i.i.i.i = getelementptr inbounds ptr, ptr %vtable2.i.i.i.i.i.i.i.i.i.i.i.i, i64 3
  %17 = load ptr, ptr %vfn3.i.i.i.i.i.i.i.i.i.i.i.i, align 8
  call void %17(ptr noundef nonnull align 8 dereferenceable(16) %7) #37
  br label %_ZSt8_DestroyISt10shared_ptrIKN8facebook5velox4TypeEEEvPT_.exit.i.i.i.i.i

_ZSt8_DestroyISt10shared_ptrIKN8facebook5velox4TypeEEEvPT_.exit.i.i.i.i.i: ; preds = %if.end8.sink.split.i.i.i.i.i.i.i.i.i.i, %_ZN9__gnu_cxx27__exchange_and_add_dispatchEPii.exit.i.i.i.i.i.i.i.i.i.i.i.i, %_ZN9__gnu_cxx27__exchange_and_add_dispatchEPii.exit.i.i.i.i.i.i.i.i.i.i, %for.body.i.i.i.i.i
  %incdec.ptr.i.i.i.i.i = getelementptr inbounds %"class.std::shared_ptr", ptr %__first.addr.04.i.i.i.i.i, i64 1
  %cmp.not.i.i.i.i.i = icmp eq ptr %incdec.ptr.i.i.i.i.i, %4
  br i1 %cmp.not.i.i.i.i.i, label %invoke.cont.i.i, label %for.body.i.i.i.i.i, !llvm.loop !10

invoke.cont.i.i:                                  ; preds = %_ZSt8_DestroyISt10shared_ptrIKN8facebook5velox4TypeEEEvPT_.exit.i.i.i.i.i, %invoke.cont9
  %tobool.not.i.i.i.i = icmp eq ptr %3, null
  br i1 %tobool.not.i.i.i.i, label %_ZNSt6vectorISt10shared_ptrIKN8facebook5velox4TypeEESaIS5_EE14_M_move_assignEOS7_St17integral_constantIbLb1EE.exit, label %if.then.i.i.i.i248

if.then.i.i.i.i248:                               ; preds = %invoke.cont.i.i
  call void @_ZdlPv(ptr noundef nonnull %3) #38
  br label %_ZNSt6vectorISt10shared_ptrIKN8facebook5velox4TypeEESaIS5_EE14_M_move_assignEOS7_St17integral_constantIbLb1EE.exit

_ZNSt6vectorISt10shared_ptrIKN8facebook5velox4TypeEESaIS5_EE14_M_move_assignEOS7_St17integral_constantIbLb1EE.exit: ; preds = %invoke.cont.i.i, %if.then.i.i.i.i248
  %18 = load ptr, ptr %ref.tmp8, align 16
  %19 = load ptr, ptr %_M_finish.i2.i.i, align 8
  %cmp.not3.i.i.i.i = icmp eq ptr %18, %19
  br i1 %cmp.not3.i.i.i.i, label %invoke.cont.i, label %for.body.i.i.i.i

for.body.i.i.i.i:                                 ; preds = %_ZNSt6vectorISt10shared_ptrIKN8facebook5velox4TypeEESaIS5_EE14_M_move_assignEOS7_St17integral_constantIbLb1EE.exit, %_ZSt8_DestroyISt10shared_ptrIKN8facebook5velox4TypeEEEvPT_.exit.i.i.i.i
  %__first.addr.04.i.i.i.i = phi ptr [ %incdec.ptr.i.i.i.i, %_ZSt8_DestroyISt10shared_ptrIKN8facebook5velox4TypeEEEvPT_.exit.i.i.i.i ], [ %18, %_ZNSt6vectorISt10shared_ptrIKN8facebook5velox4TypeEESaIS5_EE14_M_move_assignEOS7_St17integral_constantIbLb1EE.exit ]
  %_M_refcount.i.i.i.i.i.i.i = getelementptr inbounds %"class.std::__shared_ptr", ptr %__first.addr.04.i.i.i.i, i64 0, i32 1
  %20 = load ptr, ptr %_M_refcount.i.i.i.i.i.i.i, align 8
  %cmp.not.i.i.i.i.i.i.i.i = icmp eq ptr %20, null
  br i1 %cmp.not.i.i.i.i.i.i.i.i, label %_ZSt8_DestroyISt10shared_ptrIKN8facebook5velox4TypeEEEvPT_.exit.i.i.i.i, label %if.then.i.i.i.i.i.i.i.i

if.then.i.i.i.i.i.i.i.i:                          ; preds = %for.body.i.i.i.i
  %_M_use_count.i.i.i.i.i.i.i.i.i = getelementptr inbounds %"class.std::_Sp_counted_base", ptr %20, i64 0, i32 1
  %21 = load atomic i64, ptr %_M_use_count.i.i.i.i.i.i.i.i.i acquire, align 8
  %cmp.i.i.i.i.i.i.i.i.i = icmp eq i64 %21, 4294967297
  %22 = trunc i64 %21 to i32
  br i1 %cmp.i.i.i.i.i.i.i.i.i, label %if.then.i.i.i.i.i.i.i.i.i, label %if.end.i.i.i.i.i.i.i.i.i

if.then.i.i.i.i.i.i.i.i.i:                        ; preds = %if.then.i.i.i.i.i.i.i.i
  store i32 0, ptr %_M_use_count.i.i.i.i.i.i.i.i.i, align 8
  %_M_weak_count.i.i.i.i.i.i.i.i.i = getelementptr inbounds %"class.std::_Sp_counted_base", ptr %20, i64 0, i32 2
  store i32 0, ptr %_M_weak_count.i.i.i.i.i.i.i.i.i, align 4
  %vtable.i.i.i.i.i.i.i.i.i = load ptr, ptr %20, align 8
  %vfn.i.i.i.i.i.i.i.i.i = getelementptr inbounds ptr, ptr %vtable.i.i.i.i.i.i.i.i.i, i64 2
  %23 = load ptr, ptr %vfn.i.i.i.i.i.i.i.i.i, align 8
  call void %23(ptr noundef nonnull align 8 dereferenceable(16) %20) #37
  br label %if.end8.sink.split.i.i.i.i.i.i.i.i.i

if.end.i.i.i.i.i.i.i.i.i:                         ; preds = %if.then.i.i.i.i.i.i.i.i
  %24 = load i8, ptr @__libc_single_threaded, align 1
  %tobool.i.i.not.i.i.i.i.i.i.i.i.i = icmp eq i8 %24, 0
  br i1 %tobool.i.i.not.i.i.i.i.i.i.i.i.i, label %if.else.i.i.i.i.i.i.i.i.i.i, label %if.then.i.i.i.i.i.i.i.i.i.i

if.then.i.i.i.i.i.i.i.i.i.i:                      ; preds = %if.end.i.i.i.i.i.i.i.i.i
  %add.i.i.i.i.i.i.i.i.i.i = add nsw i32 %22, -1
  store i32 %add.i.i.i.i.i.i.i.i.i.i, ptr %_M_use_count.i.i.i.i.i.i.i.i.i, align 4
  br label %_ZN9__gnu_cxx27__exchange_and_add_dispatchEPii.exit.i.i.i.i.i.i.i.i.i

if.else.i.i.i.i.i.i.i.i.i.i:                      ; preds = %if.end.i.i.i.i.i.i.i.i.i
  %25 = atomicrmw volatile add ptr %_M_use_count.i.i.i.i.i.i.i.i.i, i32 -1 acq_rel, align 4
  br label %_ZN9__gnu_cxx27__exchange_and_add_dispatchEPii.exit.i.i.i.i.i.i.i.i.i

_ZN9__gnu_cxx27__exchange_and_add_dispatchEPii.exit.i.i.i.i.i.i.i.i.i: ; preds = %if.else.i.i.i.i.i.i.i.i.i.i, %if.then.i.i.i.i.i.i.i.i.i.i
  %retval.i.0.i.i.i.i.i.i.i.i.i = phi i32 [ %22, %if.then.i.i.i.i.i.i.i.i.i.i ], [ %25, %if.else.i.i.i.i.i.i.i.i.i.i ]
  %cmp6.i.i.i.i.i.i.i.i.i = icmp eq i32 %retval.i.0.i.i.i.i.i.i.i.i.i, 1
  br i1 %cmp6.i.i.i.i.i.i.i.i.i, label %if.then7.i.i.i.i.i.i.i.i.i, label %_ZSt8_DestroyISt10shared_ptrIKN8facebook5velox4TypeEEEvPT_.exit.i.i.i.i

if.then7.i.i.i.i.i.i.i.i.i:                       ; preds = %_ZN9__gnu_cxx27__exchange_and_add_dispatchEPii.exit.i.i.i.i.i.i.i.i.i
  %vtable.i.i.i.i.i.i.i.i.i.i.i = load ptr, ptr %20, align 8
  %vfn.i.i.i.i.i.i.i.i.i.i.i = getelementptr inbounds ptr, ptr %vtable.i.i.i.i.i.i.i.i.i.i.i, i64 2
  %26 = load ptr, ptr %vfn.i.i.i.i.i.i.i.i.i.i.i, align 8
  call void %26(ptr noundef nonnull align 8 dereferenceable(16) %20) #37
  %_M_weak_count.i.i.i.i.i.i.i.i.i.i.i = getelementptr inbounds %"class.std::_Sp_counted_base", ptr %20, i64 0, i32 2
  %27 = load i8, ptr @__libc_single_threaded, align 1
  %tobool.i.i.not.i.i.i.i.i.i.i.i.i.i.i = icmp eq i8 %27, 0
  br i1 %tobool.i.i.not.i.i.i.i.i.i.i.i.i.i.i, label %if.else.i.i.i.i.i.i.i.i.i.i.i.i, label %if.then.i.i.i.i.i.i.i.i.i.i.i.i

if.then.i.i.i.i.i.i.i.i.i.i.i.i:                  ; preds = %if.then7.i.i.i.i.i.i.i.i.i
  %28 = load i32, ptr %_M_weak_count.i.i.i.i.i.i.i.i.i.i.i, align 4
  %add.i.i.i.i.i.i.i.i.i.i.i.i = add nsw i32 %28, -1
  store i32 %add.i.i.i.i.i.i.i.i.i.i.i.i, ptr %_M_weak_count.i.i.i.i.i.i.i.i.i.i.i, align 4
  br label %_ZN9__gnu_cxx27__exchange_and_add_dispatchEPii.exit.i.i.i.i.i.i.i.i.i.i.i

if.else.i.i.i.i.i.i.i.i.i.i.i.i:                  ; preds = %if.then7.i.i.i.i.i.i.i.i.i
  %29 = atomicrmw volatile add ptr %_M_weak_count.i.i.i.i.i.i.i.i.i.i.i, i32 -1 acq_rel, align 4
  br label %_ZN9__gnu_cxx27__exchange_and_add_dispatchEPii.exit.i.i.i.i.i.i.i.i.i.i.i

_ZN9__gnu_cxx27__exchange_and_add_dispatchEPii.exit.i.i.i.i.i.i.i.i.i.i.i: ; preds = %if.else.i.i.i.i.i.i.i.i.i.i.i.i, %if.then.i.i.i.i.i.i.i.i.i.i.i.i
  %retval.i.0.i.i.i.i.i.i.i.i.i.i.i = phi i32 [ %28, %if.then.i.i.i.i.i.i.i.i.i.i.i.i ], [ %29, %if.else.i.i.i.i.i.i.i.i.i.i.i.i ]
  %cmp.i.i.i.i.i.i.i.i.i.i.i = icmp eq i32 %retval.i.0.i.i.i.i.i.i.i.i.i.i.i, 1
  br i1 %cmp.i.i.i.i.i.i.i.i.i.i.i, label %if.end8.sink.split.i.i.i.i.i.i.i.i.i, label %_ZSt8_DestroyISt10shared_ptrIKN8facebook5velox4TypeEEEvPT_.exit.i.i.i.i

if.end8.sink.split.i.i.i.i.i.i.i.i.i:             ; preds = %_ZN9__gnu_cxx27__exchange_and_add_dispatchEPii.exit.i.i.i.i.i.i.i.i.i.i.i, %if.then.i.i.i.i.i.i.i.i.i
  %vtable2.i.i.i.i.i.i.i.i.i.i.i = load ptr, ptr %20, align 8
  %vfn3.i.i.i.i.i.i.i.i.i.i.i = getelementptr inbounds ptr, ptr %vtable2.i.i.i.i.i.i.i.i.i.i.i, i64 3
  %30 = load ptr, ptr %vfn3.i.i.i.i.i.i.i.i.i.i.i, align 8
  call void %30(ptr noundef nonnull align 8 dereferenceable(16) %20) #37
  br label %_ZSt8_DestroyISt10shared_ptrIKN8facebook5velox4TypeEEEvPT_.exit.i.i.i.i

_ZSt8_DestroyISt10shared_ptrIKN8facebook5velox4TypeEEEvPT_.exit.i.i.i.i: ; preds = %if.end8.sink.split.i.i.i.i.i.i.i.i.i, %_ZN9__gnu_cxx27__exchange_and_add_dispatchEPii.exit.i.i.i.i.i.i.i.i.i.i.i, %_ZN9__gnu_cxx27__exchange_and_add_dispatchEPii.exit.i.i.i.i.i.i.i.i.i, %for.body.i.i.i.i
  %incdec.ptr.i.i.i.i = getelementptr inbounds %"class.std::shared_ptr", ptr %__first.addr.04.i.i.i.i, i64 1
  %cmp.not.i.i.i.i = icmp eq ptr %incdec.ptr.i.i.i.i, %19
  br i1 %cmp.not.i.i.i.i, label %invoke.contthread-pre-split.i, label %for.body.i.i.i.i, !llvm.loop !10

invoke.contthread-pre-split.i:                    ; preds = %_ZSt8_DestroyISt10shared_ptrIKN8facebook5velox4TypeEEEvPT_.exit.i.i.i.i
  %.pr.i = load ptr, ptr %ref.tmp8, align 16
  br label %invoke.cont.i

invoke.cont.i:                                    ; preds = %invoke.contthread-pre-split.i, %_ZNSt6vectorISt10shared_ptrIKN8facebook5velox4TypeEESaIS5_EE14_M_move_assignEOS7_St17integral_constantIbLb1EE.exit
  %31 = phi ptr [ %.pr.i, %invoke.contthread-pre-split.i ], [ %18, %_ZNSt6vectorISt10shared_ptrIKN8facebook5velox4TypeEESaIS5_EE14_M_move_assignEOS7_St17integral_constantIbLb1EE.exit ]
  %tobool.not.i.i.i = icmp eq ptr %31, null
  br i1 %tobool.not.i.i.i, label %if.end, label %if.then.i.i.i

if.then.i.i.i:                                    ; preds = %invoke.cont.i
  call void @_ZdlPv(ptr noundef nonnull %31) #38
  br label %if.end

lpad:                                             ; preds = %invoke.cont13, %if.end, %call.i.i.noexc, %if.then, %if.end.i.i.i, %entry
  %32 = landingpad { ptr, i32 }
          cleanup
  br label %ehcleanup109

if.end:                                           ; preds = %if.then.i.i.i, %invoke.cont.i, %invoke.cont6
  %call.i2223 = invoke noundef nonnull align 8 dereferenceable(40) ptr @_ZNKR5folly7dynamic2atENS_5RangeIPKcEE(ptr noundef nonnull align 8 dereferenceable(40) %obj, ptr nonnull @.str.19, ptr nonnull getelementptr inbounds ([5 x i8], ptr @.str.19, i64 0, i64 4))
          to label %invoke.cont13 unwind label %lpad

invoke.cont13:                                    ; preds = %if.end
  invoke void @_ZNK5folly7dynamic6asImplINSt7__cxx1112basic_stringIcSt11char_traitsIcESaIcEEEEET_v(ptr nonnull sret(%"class.std::__cxx11::basic_string") align 8 %typeName, ptr noundef nonnull align 8 dereferenceable(40) %call.i2223)
          to label %invoke.cont15 unwind label %lpad

invoke.cont15:                                    ; preds = %invoke.cont13
  %call.i25 = call noundef i32 @_ZNKSt7__cxx1112basic_stringIcSt11char_traitsIcESaIcEE7compareEPKc(ptr noundef nonnull align 8 dereferenceable(32) %typeName, ptr noundef nonnull @.str.53) #37
  %cmp.i = icmp eq i32 %call.i25, 0
  br i1 %cmp.i, label %if.then19, label %if.end34

if.then19:                                        ; preds = %invoke.cont15
  %call.i29 = invoke noundef nonnull align 8 dereferenceable(40) ptr @_ZNKR5folly7dynamic2atENS_5RangeIPKcEE(ptr noundef nonnull align 8 dereferenceable(40) %obj, ptr nonnull @.str.20, ptr nonnull getelementptr inbounds ([10 x i8], ptr @.str.20, i64 0, i64 9))
          to label %invoke.cont22 unwind label %lpad16

invoke.cont22:                                    ; preds = %if.then19
  %33 = load i32, ptr %call.i29, align 8
  switch i32 %33, label %sw.default.i.i54.invoke [
    i32 4, label %sw.bb.i.i
    i32 3, label %sw.bb4.i.i
    i32 2, label %sw.bb7.i.i
    i32 6, label %sw.bb10.i.i
  ]

sw.bb.i.i:                                        ; preds = %invoke.cont22
  %u_.i.i.i.i.i32 = getelementptr inbounds %"struct.folly::dynamic", ptr %call.i29, i64 0, i32 1
  %34 = load i64, ptr %u_.i.i.i.i.i32, align 8
  br label %invoke.cont24

sw.bb4.i.i:                                       ; preds = %invoke.cont22
  %u_.i.i.i2.i.i = getelementptr inbounds %"struct.folly::dynamic", ptr %call.i29, i64 0, i32 1
  %call6.i.i33 = invoke noundef i64 @_ZN5folly2toIldEENSt9enable_ifIXsr6detail14IsArithToArithIT_T0_EE5valueES2_E4typeERKS3_(ptr noundef nonnull align 8 dereferenceable(8) %u_.i.i.i2.i.i)
          to label %invoke.cont24 unwind label %lpad16

sw.bb7.i.i:                                       ; preds = %invoke.cont22
  %u_.i.i.i5.i.i = getelementptr inbounds %"struct.folly::dynamic", ptr %call.i29, i64 0, i32 1
  %35 = load i8, ptr %u_.i.i.i5.i.i, align 8
  %36 = and i8 %35, 1
  %conv.i.i.i.i.i = zext nneg i8 %36 to i64
  br label %invoke.cont24

sw.bb10.i.i:                                      ; preds = %invoke.cont22
  %u_.i.i.i8.i.i = getelementptr inbounds %"struct.folly::dynamic", ptr %call.i29, i64 0, i32 1
  %call.i.i.i31 = call noundef ptr @_ZNKSt7__cxx1112basic_stringIcSt11char_traitsIcESaIcEE4dataEv(ptr noundef nonnull align 8 dereferenceable(32) %u_.i.i.i8.i.i) #37
  %call1.i.i.i = call noundef i64 @_ZNKSt7__cxx1112basic_stringIcSt11char_traitsIcESaIcEE4sizeEv(ptr noundef nonnull align 8 dereferenceable(32) %u_.i.i.i8.i.i) #37
  %add.ptr.i.i.i.i = getelementptr inbounds i8, ptr %call.i.i.i31, i64 %call1.i.i.i
  %call2.i.i.i34 = invoke noundef i64 @_ZN5folly2toIlEENSt9enable_ifIXntsr3std7is_sameINS_5RangeIPKcEET_EE5valueES6_E4typeES5_(ptr %call.i.i.i31, ptr %add.ptr.i.i.i.i)
          to label %invoke.cont24 unwind label %lpad16

invoke.cont24:                                    ; preds = %sw.bb7.i.i, %sw.bb.i.i, %sw.bb4.i.i, %sw.bb10.i.i
  %retval.0.i.i = phi i64 [ %conv.i.i.i.i.i, %sw.bb7.i.i ], [ %34, %sw.bb.i.i ], [ %call6.i.i33, %sw.bb4.i.i ], [ %call2.i.i.i34, %sw.bb10.i.i ]
  %conv = trunc i64 %retval.0.i.i to i8
  %call.i39 = invoke noundef nonnull align 8 dereferenceable(40) ptr @_ZNKR5folly7dynamic2atENS_5RangeIPKcEE(ptr noundef nonnull align 8 dereferenceable(40) %obj, ptr nonnull @.str.21, ptr nonnull getelementptr inbounds ([6 x i8], ptr @.str.21, i64 0, i64 5))
          to label %invoke.cont28 unwind label %lpad16

invoke.cont28:                                    ; preds = %invoke.cont24
  %37 = load i32, ptr %call.i39, align 8
  switch i32 %37, label %sw.default.i.i54.invoke [
    i32 4, label %sw.bb.i.i52
    i32 3, label %sw.bb4.i.i50
    i32 2, label %sw.bb7.i.i47
    i32 6, label %sw.bb10.i.i41
  ]

sw.bb.i.i52:                                      ; preds = %invoke.cont28
  %u_.i.i.i.i.i53 = getelementptr inbounds %"struct.folly::dynamic", ptr %call.i39, i64 0, i32 1
  %38 = load i64, ptr %u_.i.i.i.i.i53, align 8
  br label %invoke.cont30

sw.bb4.i.i50:                                     ; preds = %invoke.cont28
  %u_.i.i.i2.i.i51 = getelementptr inbounds %"struct.folly::dynamic", ptr %call.i39, i64 0, i32 1
  %call6.i.i56 = invoke noundef i64 @_ZN5folly2toIldEENSt9enable_ifIXsr6detail14IsArithToArithIT_T0_EE5valueES2_E4typeERKS3_(ptr noundef nonnull align 8 dereferenceable(8) %u_.i.i.i2.i.i51)
          to label %invoke.cont30 unwind label %lpad16

sw.bb7.i.i47:                                     ; preds = %invoke.cont28
  %u_.i.i.i5.i.i48 = getelementptr inbounds %"struct.folly::dynamic", ptr %call.i39, i64 0, i32 1
  %39 = load i8, ptr %u_.i.i.i5.i.i48, align 8
  %40 = and i8 %39, 1
  %conv.i.i.i.i.i49 = zext nneg i8 %40 to i64
  br label %invoke.cont30

sw.bb10.i.i41:                                    ; preds = %invoke.cont28
  %u_.i.i.i8.i.i42 = getelementptr inbounds %"struct.folly::dynamic", ptr %call.i39, i64 0, i32 1
  %call.i.i.i43 = call noundef ptr @_ZNKSt7__cxx1112basic_stringIcSt11char_traitsIcESaIcEE4dataEv(ptr noundef nonnull align 8 dereferenceable(32) %u_.i.i.i8.i.i42) #37
  %call1.i.i.i44 = call noundef i64 @_ZNKSt7__cxx1112basic_stringIcSt11char_traitsIcESaIcEE4sizeEv(ptr noundef nonnull align 8 dereferenceable(32) %u_.i.i.i8.i.i42) #37
  %add.ptr.i.i.i.i45 = getelementptr inbounds i8, ptr %call.i.i.i43, i64 %call1.i.i.i44
  %call2.i.i.i58 = invoke noundef i64 @_ZN5folly2toIlEENSt9enable_ifIXntsr3std7is_sameINS_5RangeIPKcEET_EE5valueES6_E4typeES5_(ptr %call.i.i.i43, ptr %add.ptr.i.i.i.i45)
          to label %invoke.cont30 unwind label %lpad16

sw.default.i.i54.invoke:                          ; preds = %invoke.cont28, %invoke.cont22
  %41 = phi i32 [ %33, %invoke.cont22 ], [ %37, %invoke.cont28 ]
  invoke void @_ZN5folly6detail16throw_exception_INS_9TypeErrorEJPKcNS_7dynamic4TypeEEEEvDpT0_(ptr noundef nonnull @.str.49, i32 noundef %41) #40
          to label %sw.default.i.i54.cont unwind label %lpad16

sw.default.i.i54.cont:                            ; preds = %sw.default.i.i54.invoke
  unreachable

invoke.cont30:                                    ; preds = %sw.bb7.i.i47, %sw.bb.i.i52, %sw.bb4.i.i50, %sw.bb10.i.i41
  %retval.0.i.i46 = phi i64 [ %conv.i.i.i.i.i49, %sw.bb7.i.i47 ], [ %38, %sw.bb.i.i52 ], [ %call6.i.i56, %sw.bb4.i.i50 ], [ %call2.i.i.i58, %sw.bb10.i.i41 ]
  %conv32 = trunc i64 %retval.0.i.i46 to i8
  call void @llvm.experimental.noalias.scope.decl(metadata !11)
  %call5.i.i.i3.i.i.i.i.i62 = invoke noalias noundef nonnull dereferenceable(64) ptr @_Znwm(i64 noundef 64) #41
          to label %call5.i.i.i3.i.i.i.i.i.noexc unwind label %lpad16

call5.i.i.i3.i.i.i.i.i.noexc:                     ; preds = %invoke.cont30
  %cmp.i61 = icmp ult i8 %conv, 19
  %_M_use_count.i.i.i.i.i.i.i = getelementptr inbounds %"class.std::_Sp_counted_base", ptr %call5.i.i.i3.i.i.i.i.i62, i64 0, i32 1
  store i32 1, ptr %_M_use_count.i.i.i.i.i.i.i, align 8, !noalias !11
  %_M_weak_count.i.i.i.i.i.i.i = getelementptr inbounds %"class.std::_Sp_counted_base", ptr %call5.i.i.i3.i.i.i.i.i62, i64 0, i32 2
  store i32 1, ptr %_M_weak_count.i.i.i.i.i.i.i, align 4, !noalias !11
  br i1 %cmp.i61, label %if.then.i, label %if.end.i

if.then.i:                                        ; preds = %call5.i.i.i3.i.i.i.i.i.noexc
  store ptr getelementptr inbounds ({ [7 x ptr] }, ptr @_ZTVSt23_Sp_counted_ptr_inplaceIN8facebook5velox16ShortDecimalTypeESaIvELN9__gnu_cxx12_Lock_policyE2EE, i64 0, inrange i32 0, i64 2), ptr %call5.i.i.i3.i.i.i.i.i62, align 8, !noalias !14
  %_M_impl.i.i.i.i.i.i.i = getelementptr inbounds %"class.std::_Sp_counted_ptr_inplace.754", ptr %call5.i.i.i3.i.i.i.i.i62, i64 0, i32 1
  invoke void @_ZN8facebook5velox11DecimalTypeILNS0_8TypeKindE4EEC2Ehh(ptr noundef nonnull align 8 dereferenceable(48) %_M_impl.i.i.i.i.i.i.i, i8 noundef zeroext %conv, i8 noundef zeroext %conv32)
          to label %_ZNSt10shared_ptrIN8facebook5velox16ShortDecimalTypeEED2Ev.exit.i unwind label %_ZNSt15__allocated_ptrISaISt23_Sp_counted_ptr_inplaceIN8facebook5velox16ShortDecimalTypeESaIvELN9__gnu_cxx12_Lock_policyE2EEEED2Ev.exit9.i.i.i.i.i, !noalias !14

common.resume.i:                                  ; preds = %_ZNSt15__allocated_ptrISaISt23_Sp_counted_ptr_inplaceIN8facebook5velox15LongDecimalTypeESaIvELN9__gnu_cxx12_Lock_policyE2EEEED2Ev.exit9.i.i.i.i.i, %_ZNSt15__allocated_ptrISaISt23_Sp_counted_ptr_inplaceIN8facebook5velox16ShortDecimalTypeESaIvELN9__gnu_cxx12_Lock_policyE2EEEED2Ev.exit9.i.i.i.i.i
  %common.resume.op.i = phi { ptr, i32 } [ %42, %_ZNSt15__allocated_ptrISaISt23_Sp_counted_ptr_inplaceIN8facebook5velox16ShortDecimalTypeESaIvELN9__gnu_cxx12_Lock_policyE2EEEED2Ev.exit9.i.i.i.i.i ], [ %43, %_ZNSt15__allocated_ptrISaISt23_Sp_counted_ptr_inplaceIN8facebook5velox15LongDecimalTypeESaIvELN9__gnu_cxx12_Lock_policyE2EEEED2Ev.exit9.i.i.i.i.i ]
  call void @_ZdlPv(ptr noundef nonnull %call5.i.i.i3.i.i.i.i.i62) #38, !noalias !11
  br label %ehcleanup107

_ZNSt15__allocated_ptrISaISt23_Sp_counted_ptr_inplaceIN8facebook5velox16ShortDecimalTypeESaIvELN9__gnu_cxx12_Lock_policyE2EEEED2Ev.exit9.i.i.i.i.i: ; preds = %if.then.i
  %42 = landingpad { ptr, i32 }
          cleanup
  br label %common.resume.i

_ZNSt10shared_ptrIN8facebook5velox16ShortDecimalTypeEED2Ev.exit.i: ; preds = %if.then.i
  store ptr getelementptr inbounds ({ [18 x ptr], [5 x ptr] }, ptr @_ZTVN8facebook5velox16ShortDecimalTypeE, i64 0, inrange i32 0, i64 2), ptr %_M_impl.i.i.i.i.i.i.i, align 8, !noalias !14
  %add.ptr.i.i.i.i.i.i.i.i.i = getelementptr inbounds %"class.std::_Sp_counted_ptr_inplace.754", ptr %call5.i.i.i3.i.i.i.i.i62, i64 0, i32 1, i32 0, i32 0, i32 0, i64 8
  store ptr getelementptr inbounds ({ [18 x ptr], [5 x ptr] }, ptr @_ZTVN8facebook5velox16ShortDecimalTypeE, i64 0, inrange i32 1, i64 2), ptr %add.ptr.i.i.i.i.i.i.i.i.i, align 8, !noalias !14
  br label %_ZN8facebook5velox7DECIMALEhh.exit

if.end.i:                                         ; preds = %call5.i.i.i3.i.i.i.i.i.noexc
  store ptr getelementptr inbounds ({ [7 x ptr] }, ptr @_ZTVSt23_Sp_counted_ptr_inplaceIN8facebook5velox15LongDecimalTypeESaIvELN9__gnu_cxx12_Lock_policyE2EE, i64 0, inrange i32 0, i64 2), ptr %call5.i.i.i3.i.i.i.i.i62, align 8, !noalias !17
  %_M_impl.i.i.i.i.i.i6.i = getelementptr inbounds %"class.std::_Sp_counted_ptr_inplace.763", ptr %call5.i.i.i3.i.i.i.i.i62, i64 0, i32 1
  invoke void @_ZN8facebook5velox11DecimalTypeILNS0_8TypeKindE10EEC2Ehh(ptr noundef nonnull align 8 dereferenceable(48) %_M_impl.i.i.i.i.i.i6.i, i8 noundef zeroext %conv, i8 noundef zeroext %conv32)
          to label %_ZNSt10shared_ptrIN8facebook5velox15LongDecimalTypeEED2Ev.exit.i unwind label %_ZNSt15__allocated_ptrISaISt23_Sp_counted_ptr_inplaceIN8facebook5velox15LongDecimalTypeESaIvELN9__gnu_cxx12_Lock_policyE2EEEED2Ev.exit9.i.i.i.i.i, !noalias !17

_ZNSt15__allocated_ptrISaISt23_Sp_counted_ptr_inplaceIN8facebook5velox15LongDecimalTypeESaIvELN9__gnu_cxx12_Lock_policyE2EEEED2Ev.exit9.i.i.i.i.i: ; preds = %if.end.i
  %43 = landingpad { ptr, i32 }
          cleanup
  br label %common.resume.i

_ZNSt10shared_ptrIN8facebook5velox15LongDecimalTypeEED2Ev.exit.i: ; preds = %if.end.i
  store ptr getelementptr inbounds ({ [18 x ptr], [5 x ptr] }, ptr @_ZTVN8facebook5velox15LongDecimalTypeE, i64 0, inrange i32 0, i64 2), ptr %_M_impl.i.i.i.i.i.i6.i, align 8, !noalias !17
  %add.ptr.i.i.i.i.i.i.i.i8.i = getelementptr inbounds %"class.std::_Sp_counted_ptr_inplace.763", ptr %call5.i.i.i3.i.i.i.i.i62, i64 0, i32 1, i32 0, i32 0, i32 0, i64 8
  store ptr getelementptr inbounds ({ [18 x ptr], [5 x ptr] }, ptr @_ZTVN8facebook5velox15LongDecimalTypeE, i64 0, inrange i32 1, i64 2), ptr %add.ptr.i.i.i.i.i.i.i.i8.i, align 8, !noalias !17
  br label %_ZN8facebook5velox7DECIMALEhh.exit

_ZN8facebook5velox7DECIMALEhh.exit:               ; preds = %_ZNSt10shared_ptrIN8facebook5velox16ShortDecimalTypeEED2Ev.exit.i, %_ZNSt10shared_ptrIN8facebook5velox15LongDecimalTypeEED2Ev.exit.i
  %_M_impl.i.i.i.i.i.i6.sink.i = phi ptr [ %_M_impl.i.i.i.i.i.i6.i, %_ZNSt10shared_ptrIN8facebook5velox15LongDecimalTypeEED2Ev.exit.i ], [ %_M_impl.i.i.i.i.i.i.i, %_ZNSt10shared_ptrIN8facebook5velox16ShortDecimalTypeEED2Ev.exit.i ]
  store ptr %_M_impl.i.i.i.i.i.i6.sink.i, ptr %agg.result, align 8, !alias.scope !11
  %_M_refcount.i.i9.i = getelementptr inbounds %"class.std::__shared_ptr", ptr %agg.result, i64 0, i32 1
  store ptr %call5.i.i.i3.i.i.i.i.i62, ptr %_M_refcount.i.i9.i, align 8, !alias.scope !11
  br label %cleanup106

lpad16:                                           ; preds = %sw.default.i.i54.invoke, %invoke.cont75, %sw.bb71, %sw.bb, %call.i.i.noexc71, %call.i.noexc69, %if.end39, %if.then.i63, %if.then37, %invoke.cont30, %sw.bb10.i.i41, %sw.bb4.i.i50, %invoke.cont24, %sw.bb10.i.i, %sw.bb4.i.i, %if.then19, %sw.default, %if.end34
  %44 = landingpad { ptr, i32 }
          cleanup
  br label %ehcleanup107

if.end34:                                         ; preds = %invoke.cont15
  %call36 = invoke noundef zeroext i1 @_ZN8facebook5velox16customTypeExistsERKNSt7__cxx1112basic_stringIcSt11char_traitsIcESaIcEEE(ptr noundef nonnull align 8 dereferenceable(32) %typeName)
          to label %invoke.cont35 unwind label %lpad16

invoke.cont35:                                    ; preds = %if.end34
  br i1 %call36, label %if.then37, label %if.end39

if.then37:                                        ; preds = %invoke.cont35
  call void @llvm.experimental.noalias.scope.decl(metadata !20)
  %call.i65 = invoke noundef ptr @_ZN8facebook5velox16getTypeFactoriesERKNSt7__cxx1112basic_stringIcSt11char_traitsIcESaIcEEE(ptr noundef nonnull align 8 dereferenceable(32) %typeName)
          to label %call.i.noexc unwind label %lpad16

call.i.noexc:                                     ; preds = %if.then37
  %tobool.not.i = icmp eq ptr %call.i65, null
  br i1 %tobool.not.i, label %if.end.i64, label %if.then.i63

if.then.i63:                                      ; preds = %call.i.noexc
  %vtable.i = load ptr, ptr %call.i65, align 8, !noalias !20
  %vfn.i = getelementptr inbounds ptr, ptr %vtable.i, i64 2
  %45 = load ptr, ptr %vfn.i, align 8, !noalias !20
  invoke void %45(ptr sret(%"class.std::shared_ptr") align 8 %agg.result, ptr noundef nonnull align 8 dereferenceable(8) %call.i65)
          to label %cleanup106 unwind label %lpad16

if.end.i64:                                       ; preds = %call.i.noexc
  call void @llvm.memset.p0.i64(ptr noundef nonnull align 8 dereferenceable(16) %agg.result, i8 0, i64 16, i1 false), !alias.scope !20
  br label %cleanup106

if.end39:                                         ; preds = %invoke.cont35
  %call.i70 = invoke noundef nonnull align 8 dereferenceable(56) ptr @_ZN8facebook5velox16getTypeStringMapB5cxx11Ev()
          to label %call.i.noexc69 unwind label %lpad16

call.i.noexc69:                                   ; preds = %if.end39
  %call.i.i72 = invoke ptr @_ZNKSt10_HashtableINSt7__cxx1112basic_stringIcSt11char_traitsIcESaIcEEESt4pairIKS5_N8facebook5velox8TypeKindEESaISB_ENSt8__detail10_Select1stESt8equal_toIS5_ESt4hashIS5_ENSD_18_Mod_range_hashingENSD_20_Default_ranged_hashENSD_20_Prime_rehash_policyENSD_17_Hashtable_traitsILb1ELb0ELb1EEEE4findERS7_(ptr noundef nonnull align 8 dereferenceable(56) @_ZZN8facebook5velox16getTypeStringMapB5cxx11EvE14kTypeStringMapB5cxx11, ptr noundef nonnull align 8 dereferenceable(32) %typeName)
          to label %call.i.i.noexc71 unwind label %lpad16

call.i.i.noexc71:                                 ; preds = %call.i.noexc69
  %call3.i73 = invoke noundef nonnull align 8 dereferenceable(56) ptr @_ZN8facebook5velox16getTypeStringMapB5cxx11Ev()
          to label %call3.i.noexc unwind label %lpad16

call3.i.noexc:                                    ; preds = %call.i.i.noexc71
  %cmp.i.i = icmp eq ptr %call.i.i72, null
  br i1 %cmp.i.i, label %if.then.i68, label %invoke.cont40

if.then.i68:                                      ; preds = %call3.i.noexc
  call void @llvm.trap()
  unreachable

invoke.cont40:                                    ; preds = %call3.i.noexc
  %second.i = getelementptr inbounds i8, ptr %call.i.i72, i64 40
  %46 = load i8, ptr %second.i, align 8
  switch i8 %46, label %sw.default [
    i8 32, label %sw.bb
    i8 35, label %sw.bb71
  ]

sw.bb:                                            ; preds = %invoke.cont40
  %call.i78 = invoke noundef nonnull align 8 dereferenceable(40) ptr @_ZNKR5folly7dynamic2atENS_5RangeIPKcEE(ptr noundef nonnull align 8 dereferenceable(40) %obj, ptr nonnull @.str.22, ptr nonnull getelementptr inbounds ([6 x i8], ptr @.str.22, i64 0, i64 5))
          to label %invoke.cont44 unwind label %lpad16

invoke.cont44:                                    ; preds = %sw.bb
  %47 = load i32, ptr %call.i78, align 8
  %cmp.not.i.i.i = icmp eq i32 %47, 1
  br i1 %cmp.not.i.i.i, label %if.end50, label %if.then49

if.then49:                                        ; preds = %invoke.cont44
  call void @llvm.trap()
  unreachable

if.end50:                                         ; preds = %invoke.cont44
  call void @llvm.memset.p0.i64(ptr noundef nonnull align 8 dereferenceable(24) %names, i8 0, i64 24, i1 false)
  %call.i84 = invoke noundef nonnull align 8 dereferenceable(40) ptr @_ZNKR5folly7dynamic2atENS_5RangeIPKcEE(ptr noundef nonnull align 8 dereferenceable(40) %obj, ptr nonnull @.str.22, ptr nonnull getelementptr inbounds ([6 x i8], ptr @.str.22, i64 0, i64 5))
          to label %invoke.cont54 unwind label %lpad52.loopexit.split-lp

invoke.cont54:                                    ; preds = %if.end50
  %48 = load i32, ptr %call.i84, align 8
  %cmp.not.i.not.i.i.i86 = icmp eq i32 %48, 1
  br i1 %cmp.not.i.not.i.i.i86, label %invoke.cont59, label %if.end.i.i.i87

if.end.i.i.i87:                                   ; preds = %invoke.cont54
  %49 = load ptr, ptr @_ZN5folly7dynamic8TypeInfoISt6vectorIS0_SaIS0_EEE4nameE, align 8
  invoke void @_ZN5folly6detail16throw_exception_INS_9TypeErrorEJPKcNS_7dynamic4TypeEEEEvDpT0_(ptr noundef %49, i32 noundef %48) #40
          to label %.noexc89 unwind label %lpad52.loopexit.split-lp

.noexc89:                                         ; preds = %if.end.i.i.i87
  unreachable

invoke.cont59:                                    ; preds = %invoke.cont54
  %u_.i.i.i.i.i88 = getelementptr inbounds %"struct.folly::dynamic", ptr %call.i84, i64 0, i32 1
  %50 = load ptr, ptr %u_.i.i.i.i.i88, align 8
  %_M_finish.i.i = getelementptr inbounds %"struct.folly::dynamic", ptr %call.i84, i64 0, i32 1, i32 0, i32 1
  %51 = load ptr, ptr %_M_finish.i.i, align 8
  %cmp.i93.not255 = icmp eq ptr %50, %51
  br i1 %cmp.i93.not255, label %for.end, label %for.body.lr.ph

for.body.lr.ph:                                   ; preds = %invoke.cont59
  %_M_finish.i.i96 = getelementptr inbounds %"struct.std::_Vector_base<std::__cxx11::basic_string<char>, std::allocator<std::__cxx11::basic_string<char>>>::_Vector_impl_data", ptr %names, i64 0, i32 1
  %_M_end_of_storage.i.i = getelementptr inbounds %"struct.std::_Vector_base<std::__cxx11::basic_string<char>, std::allocator<std::__cxx11::basic_string<char>>>::_Vector_impl_data", ptr %names, i64 0, i32 2
  br label %for.body

for.body:                                         ; preds = %for.body.lr.ph, %invoke.cont67
  %__begin3.sroa.0.0256 = phi ptr [ %50, %for.body.lr.ph ], [ %incdec.ptr.i, %invoke.cont67 ]
  invoke void @_ZNK5folly7dynamic6asImplINSt7__cxx1112basic_stringIcSt11char_traitsIcESaIcEEEEET_v(ptr nonnull sret(%"class.std::__cxx11::basic_string") align 8 %ref.tmp64, ptr noundef nonnull align 8 dereferenceable(40) %__begin3.sroa.0.0256)
          to label %invoke.cont65 unwind label %lpad52.loopexit

invoke.cont65:                                    ; preds = %for.body
  %52 = load ptr, ptr %_M_finish.i.i96, align 8
  %53 = load ptr, ptr %_M_end_of_storage.i.i, align 8
  %cmp.not.i.i = icmp eq ptr %52, %53
  br i1 %cmp.not.i.i, label %if.else.i.i, label %if.then.i.i

if.then.i.i:                                      ; preds = %invoke.cont65
  call void @_ZNSt7__cxx1112basic_stringIcSt11char_traitsIcESaIcEEC1EOS4_(ptr noundef nonnull align 8 dereferenceable(32) %52, ptr noundef nonnull align 8 dereferenceable(32) %ref.tmp64) #37
  %54 = load ptr, ptr %_M_finish.i.i96, align 8
  %incdec.ptr.i.i = getelementptr inbounds %"class.std::__cxx11::basic_string", ptr %54, i64 1
  store ptr %incdec.ptr.i.i, ptr %_M_finish.i.i96, align 8
  br label %invoke.cont67

if.else.i.i:                                      ; preds = %invoke.cont65
  invoke void @_ZNSt6vectorINSt7__cxx1112basic_stringIcSt11char_traitsIcESaIcEEESaIS5_EE17_M_realloc_insertIJS5_EEEvN9__gnu_cxx17__normal_iteratorIPS5_S7_EEDpOT_(ptr noundef nonnull align 8 dereferenceable(24) %names, ptr %52, ptr noundef nonnull align 8 dereferenceable(32) %ref.tmp64)
          to label %invoke.cont67 unwind label %lpad66

invoke.cont67:                                    ; preds = %if.then.i.i, %if.else.i.i
  call void @_ZNSt7__cxx1112basic_stringIcSt11char_traitsIcESaIcEED1Ev(ptr noundef nonnull align 8 dereferenceable(32) %ref.tmp64) #37
  %incdec.ptr.i = getelementptr inbounds %"struct.folly::dynamic", ptr %__begin3.sroa.0.0256, i64 1
  %cmp.i93.not = icmp eq ptr %incdec.ptr.i, %51
  br i1 %cmp.i93.not, label %for.end, label %for.body

lpad52.loopexit:                                  ; preds = %for.body
  %lpad.loopexit = landingpad { ptr, i32 }
          cleanup
  br label %ehcleanup

lpad52.loopexit.split-lp:                         ; preds = %if.end50, %if.end.i.i.i87, %for.end
  %lpad.loopexit.split-lp = landingpad { ptr, i32 }
          cleanup
  br label %ehcleanup

lpad66:                                           ; preds = %if.else.i.i
  %55 = landingpad { ptr, i32 }
          cleanup
  call void @_ZNSt7__cxx1112basic_stringIcSt11char_traitsIcESaIcEED1Ev(ptr noundef nonnull align 8 dereferenceable(32) %ref.tmp64) #37
  br label %ehcleanup

for.end:                                          ; preds = %invoke.cont67, %invoke.cont59
  %call5.i.i.i3.i.i.i.i98 = invoke noalias noundef nonnull dereferenceable(136) ptr @_Znwm(i64 noundef 136) #41
          to label %call5.i.i.i3.i.i.i.i.noexc unwind label %lpad52.loopexit.split-lp

call5.i.i.i3.i.i.i.i.noexc:                       ; preds = %for.end
  %_M_use_count.i.i.i.i.i.i = getelementptr inbounds %"class.std::_Sp_counted_base", ptr %call5.i.i.i3.i.i.i.i98, i64 0, i32 1
  store i32 1, ptr %_M_use_count.i.i.i.i.i.i, align 8, !noalias !23
  %_M_weak_count.i.i.i.i.i.i = getelementptr inbounds %"class.std::_Sp_counted_base", ptr %call5.i.i.i3.i.i.i.i98, i64 0, i32 2
  store i32 1, ptr %_M_weak_count.i.i.i.i.i.i, align 4, !noalias !23
  store ptr getelementptr inbounds ({ [7 x ptr] }, ptr @_ZTVSt23_Sp_counted_ptr_inplaceIKN8facebook5velox7RowTypeESaIvELN9__gnu_cxx12_Lock_policyE2EE, i64 0, inrange i32 0, i64 2), ptr %call5.i.i.i3.i.i.i.i98, align 8, !noalias !23
  %_M_impl.i.i.i.i.i.i = getelementptr inbounds %"class.std::_Sp_counted_ptr_inplace.609", ptr %call5.i.i.i3.i.i.i.i98, i64 0, i32 1
  invoke void @_ZN8facebook5velox7RowTypeC1EOSt6vectorINSt7__cxx1112basic_stringIcSt11char_traitsIcESaIcEEESaIS8_EEOS2_ISt10shared_ptrIKNS0_4TypeEESaISF_EE(ptr noundef nonnull align 8 dereferenceable(120) %_M_impl.i.i.i.i.i.i, ptr noundef nonnull align 8 dereferenceable(24) %names, ptr noundef nonnull align 8 dereferenceable(24) %childTypes)
          to label %_ZNSt10shared_ptrIKN8facebook5velox7RowTypeEED2Ev.exit unwind label %_ZNSt15__allocated_ptrISaISt23_Sp_counted_ptr_inplaceIKN8facebook5velox7RowTypeESaIvELN9__gnu_cxx12_Lock_policyE2EEEED2Ev.exit9.i.i.i.i, !noalias !23

_ZNSt15__allocated_ptrISaISt23_Sp_counted_ptr_inplaceIKN8facebook5velox7RowTypeESaIvELN9__gnu_cxx12_Lock_policyE2EEEED2Ev.exit9.i.i.i.i: ; preds = %call5.i.i.i3.i.i.i.i.noexc
  %56 = landingpad { ptr, i32 }
          cleanup
  call void @_ZdlPv(ptr noundef nonnull %call5.i.i.i3.i.i.i.i98) #38, !noalias !23
  br label %ehcleanup

_ZNSt10shared_ptrIKN8facebook5velox7RowTypeEED2Ev.exit: ; preds = %call5.i.i.i3.i.i.i.i.noexc
  store ptr %_M_impl.i.i.i.i.i.i, ptr %agg.result, align 8
  %_M_refcount.i.i = getelementptr inbounds %"class.std::__shared_ptr", ptr %agg.result, i64 0, i32 1
  store ptr %call5.i.i.i3.i.i.i.i98, ptr %_M_refcount.i.i, align 8
  %57 = load ptr, ptr %names, align 8
  %_M_finish.i105 = getelementptr inbounds %"struct.std::_Vector_base<std::__cxx11::basic_string<char>, std::allocator<std::__cxx11::basic_string<char>>>::_Vector_impl_data", ptr %names, i64 0, i32 1
  %58 = load ptr, ptr %_M_finish.i105, align 8
  %cmp.not3.i.i.i.i106 = icmp eq ptr %57, %58
  br i1 %cmp.not3.i.i.i.i106, label %invoke.cont.i113, label %for.body.i.i.i.i107

for.body.i.i.i.i107:                              ; preds = %_ZNSt10shared_ptrIKN8facebook5velox7RowTypeEED2Ev.exit, %for.body.i.i.i.i107
  %__first.addr.04.i.i.i.i108 = phi ptr [ %incdec.ptr.i.i.i.i109, %for.body.i.i.i.i107 ], [ %57, %_ZNSt10shared_ptrIKN8facebook5velox7RowTypeEED2Ev.exit ]
  call void @_ZNSt7__cxx1112basic_stringIcSt11char_traitsIcESaIcEED1Ev(ptr noundef nonnull align 8 dereferenceable(32) %__first.addr.04.i.i.i.i108) #37
  %incdec.ptr.i.i.i.i109 = getelementptr inbounds %"class.std::__cxx11::basic_string", ptr %__first.addr.04.i.i.i.i108, i64 1
  %cmp.not.i.i.i.i110 = icmp eq ptr %incdec.ptr.i.i.i.i109, %58
  br i1 %cmp.not.i.i.i.i110, label %invoke.contthread-pre-split.i111, label %for.body.i.i.i.i107, !llvm.loop !26

invoke.contthread-pre-split.i111:                 ; preds = %for.body.i.i.i.i107
  %.pr.i112 = load ptr, ptr %names, align 8
  br label %invoke.cont.i113

invoke.cont.i113:                                 ; preds = %invoke.contthread-pre-split.i111, %_ZNSt10shared_ptrIKN8facebook5velox7RowTypeEED2Ev.exit
  %59 = phi ptr [ %.pr.i112, %invoke.contthread-pre-split.i111 ], [ %57, %_ZNSt10shared_ptrIKN8facebook5velox7RowTypeEED2Ev.exit ]
  %tobool.not.i.i.i114 = icmp eq ptr %59, null
  br i1 %tobool.not.i.i.i114, label %cleanup106, label %if.then.i.i.i115

if.then.i.i.i115:                                 ; preds = %invoke.cont.i113
  call void @_ZdlPv(ptr noundef nonnull %59) #38
  br label %cleanup106

ehcleanup:                                        ; preds = %lpad52.loopexit, %lpad52.loopexit.split-lp, %_ZNSt15__allocated_ptrISaISt23_Sp_counted_ptr_inplaceIKN8facebook5velox7RowTypeESaIvELN9__gnu_cxx12_Lock_policyE2EEEED2Ev.exit9.i.i.i.i, %lpad66
  %.pn = phi { ptr, i32 } [ %55, %lpad66 ], [ %56, %_ZNSt15__allocated_ptrISaISt23_Sp_counted_ptr_inplaceIKN8facebook5velox7RowTypeESaIvELN9__gnu_cxx12_Lock_policyE2EEEED2Ev.exit9.i.i.i.i ], [ %lpad.loopexit, %lpad52.loopexit ], [ %lpad.loopexit.split-lp, %lpad52.loopexit.split-lp ]
  call void @_ZNSt6vectorINSt7__cxx1112basic_stringIcSt11char_traitsIcESaIcEEESaIS5_EED2Ev(ptr noundef nonnull align 8 dereferenceable(24) %names) #37
  br label %ehcleanup107

sw.bb71:                                          ; preds = %invoke.cont40
  %call.i120 = invoke noundef nonnull align 8 dereferenceable(40) ptr @_ZNKR5folly7dynamic2atENS_5RangeIPKcEE(ptr noundef nonnull align 8 dereferenceable(40) %obj, ptr nonnull @.str.23, ptr nonnull getelementptr inbounds ([7 x i8], ptr @.str.23, i64 0, i64 6))
          to label %invoke.cont75 unwind label %lpad16

invoke.cont75:                                    ; preds = %sw.bb71
  invoke void @_ZNK5folly7dynamic6asImplINSt7__cxx1112basic_stringIcSt11char_traitsIcESaIcEEEEET_v(ptr nonnull sret(%"class.std::__cxx11::basic_string") align 8 %ref.tmp72, ptr noundef nonnull align 8 dereferenceable(40) %call.i120)
          to label %invoke.cont77 unwind label %lpad16

invoke.cont77:                                    ; preds = %invoke.cont75
  %60 = load atomic i8, ptr @_ZGVZN8facebook5velox12_GLOBAL__N_119OpaqueSerdeRegistry3getEvE8instance acquire, align 8
  %guard.uninitialized.i = icmp eq i8 %60, 0
  br i1 %guard.uninitialized.i, label %init.check.i, label %_ZN8facebook5velox12_GLOBAL__N_119OpaqueSerdeRegistry3getEv.exit, !prof !4

init.check.i:                                     ; preds = %invoke.cont77
  %61 = call i32 @__cxa_guard_acquire(ptr nonnull @_ZGVZN8facebook5velox12_GLOBAL__N_119OpaqueSerdeRegistry3getEvE8instance) #37
  %tobool.not.i124 = icmp eq i32 %61, 0
  br i1 %tobool.not.i124, label %_ZN8facebook5velox12_GLOBAL__N_119OpaqueSerdeRegistry3getEv.exit, label %init.i

init.i:                                           ; preds = %init.check.i
  store ptr getelementptr inbounds (%"struct.facebook::velox::(anonymous namespace)::OpaqueSerdeRegistry", ptr @_ZZN8facebook5velox12_GLOBAL__N_119OpaqueSerdeRegistry3getEvE8instance, i64 0, i32 0, i32 0, i32 5), ptr @_ZZN8facebook5velox12_GLOBAL__N_119OpaqueSerdeRegistry3getEvE8instance, align 8
  store i64 1, ptr getelementptr inbounds (%"struct.facebook::velox::(anonymous namespace)::OpaqueSerdeRegistry", ptr @_ZZN8facebook5velox12_GLOBAL__N_119OpaqueSerdeRegistry3getEvE8instance, i64 0, i32 0, i32 0, i32 1), align 8
  call void @llvm.memset.p0.i64(ptr noundef nonnull align 8 dereferenceable(16) getelementptr inbounds (%"struct.facebook::velox::(anonymous namespace)::OpaqueSerdeRegistry", ptr @_ZZN8facebook5velox12_GLOBAL__N_119OpaqueSerdeRegistry3getEvE8instance, i64 0, i32 0, i32 0, i32 2), i8 0, i64 16, i1 false)
  store float 1.000000e+00, ptr getelementptr inbounds (%"struct.facebook::velox::(anonymous namespace)::OpaqueSerdeRegistry", ptr @_ZZN8facebook5velox12_GLOBAL__N_119OpaqueSerdeRegistry3getEvE8instance, i64 0, i32 0, i32 0, i32 4), align 8
  call void @llvm.memset.p0.i64(ptr noundef nonnull align 8 dereferenceable(16) getelementptr inbounds (%"struct.facebook::velox::(anonymous namespace)::OpaqueSerdeRegistry", ptr @_ZZN8facebook5velox12_GLOBAL__N_119OpaqueSerdeRegistry3getEvE8instance, i64 0, i32 0, i32 0, i32 4, i32 1), i8 0, i64 16, i1 false)
  store ptr getelementptr inbounds (%"struct.facebook::velox::(anonymous namespace)::OpaqueSerdeRegistry", ptr @_ZZN8facebook5velox12_GLOBAL__N_119OpaqueSerdeRegistry3getEvE8instance, i64 0, i32 1, i32 0, i32 5), ptr getelementptr inbounds (%"struct.facebook::velox::(anonymous namespace)::OpaqueSerdeRegistry", ptr @_ZZN8facebook5velox12_GLOBAL__N_119OpaqueSerdeRegistry3getEvE8instance, i64 0, i32 1), align 8
  store i64 1, ptr getelementptr inbounds (%"struct.facebook::velox::(anonymous namespace)::OpaqueSerdeRegistry", ptr @_ZZN8facebook5velox12_GLOBAL__N_119OpaqueSerdeRegistry3getEvE8instance, i64 0, i32 1, i32 0, i32 1), align 8
  call void @llvm.memset.p0.i64(ptr noundef nonnull align 8 dereferenceable(16) getelementptr inbounds (%"struct.facebook::velox::(anonymous namespace)::OpaqueSerdeRegistry", ptr @_ZZN8facebook5velox12_GLOBAL__N_119OpaqueSerdeRegistry3getEvE8instance, i64 0, i32 1, i32 0, i32 2), i8 0, i64 16, i1 false)
  store float 1.000000e+00, ptr getelementptr inbounds (%"struct.facebook::velox::(anonymous namespace)::OpaqueSerdeRegistry", ptr @_ZZN8facebook5velox12_GLOBAL__N_119OpaqueSerdeRegistry3getEvE8instance, i64 0, i32 1, i32 0, i32 4), align 8
  call void @llvm.memset.p0.i64(ptr noundef nonnull align 8 dereferenceable(16) getelementptr inbounds (%"struct.facebook::velox::(anonymous namespace)::OpaqueSerdeRegistry", ptr @_ZZN8facebook5velox12_GLOBAL__N_119OpaqueSerdeRegistry3getEvE8instance, i64 0, i32 1, i32 0, i32 4, i32 1), i8 0, i64 16, i1 false)
  %62 = call i32 @__cxa_atexit(ptr nonnull @_ZN8facebook5velox12_GLOBAL__N_119OpaqueSerdeRegistryD2Ev, ptr nonnull @_ZZN8facebook5velox12_GLOBAL__N_119OpaqueSerdeRegistry3getEvE8instance, ptr nonnull @__dso_handle) #37
  call void @__cxa_guard_release(ptr nonnull @_ZGVZN8facebook5velox12_GLOBAL__N_119OpaqueSerdeRegistry3getEvE8instance) #37
  br label %_ZN8facebook5velox12_GLOBAL__N_119OpaqueSerdeRegistry3getEv.exit

_ZN8facebook5velox12_GLOBAL__N_119OpaqueSerdeRegistry3getEv.exit: ; preds = %invoke.cont77, %init.check.i, %init.i
  %call.i126 = invoke ptr @_ZNKSt10_HashtableINSt7__cxx1112basic_stringIcSt11char_traitsIcESaIcEEESt4pairIKS5_St10shared_ptrIKN8facebook5velox10OpaqueTypeEEESaISE_ENSt8__detail10_Select1stESt8equal_toIS5_ESt4hashIS5_ENSG_18_Mod_range_hashingENSG_20_Default_ranged_hashENSG_20_Prime_rehash_policyENSG_17_Hashtable_traitsILb1ELb0ELb1EEEE4findERS7_(ptr noundef nonnull align 8 dereferenceable(56) getelementptr inbounds (%"struct.facebook::velox::(anonymous namespace)::OpaqueSerdeRegistry", ptr @_ZZN8facebook5velox12_GLOBAL__N_119OpaqueSerdeRegistry3getEvE8instance, i64 0, i32 1), ptr noundef nonnull align 8 dereferenceable(32) %ref.tmp72)
          to label %invoke.cont81 unwind label %lpad78

invoke.cont81:                                    ; preds = %_ZN8facebook5velox12_GLOBAL__N_119OpaqueSerdeRegistry3getEv.exit
  %cmp.i127.not = icmp eq ptr %call.i126, null
  br i1 %cmp.i127.not, label %if.then93, label %if.end94

if.then93:                                        ; preds = %invoke.cont81
  call void @llvm.trap()
  unreachable

lpad78:                                           ; preds = %_ZN8facebook5velox12_GLOBAL__N_119OpaqueSerdeRegistry3getEv.exit, %if.end94
  %63 = landingpad { ptr, i32 }
          cleanup
  call void @_ZNSt7__cxx1112basic_stringIcSt11char_traitsIcESaIcEED1Ev(ptr noundef nonnull align 8 dereferenceable(32) %ref.tmp72) #37
  br label %ehcleanup107

if.end94:                                         ; preds = %invoke.cont81
  %second = getelementptr inbounds i8, ptr %call.i126, i64 40
  %64 = load ptr, ptr %second, align 8
  %vtable = load ptr, ptr %64, align 8
  %vfn = getelementptr inbounds ptr, ptr %vtable, i64 16
  %65 = load ptr, ptr %vfn, align 8
  invoke void %65(ptr nonnull sret(%"class.std::shared_ptr.97") align 8 %withExtra, ptr noundef nonnull align 8 dereferenceable(32) %64, ptr noundef nonnull align 8 dereferenceable(40) %obj)
          to label %invoke.cont97 unwind label %lpad78

invoke.cont97:                                    ; preds = %if.end94
  %66 = load ptr, ptr %withExtra, align 8
  %cmp.i129.not = icmp eq ptr %66, null
  br i1 %cmp.i129.not, label %cleanup.cont.critedge, label %_ZNSt10shared_ptrIKN8facebook5velox10OpaqueTypeEED2Ev.exit

_ZNSt10shared_ptrIKN8facebook5velox10OpaqueTypeEED2Ev.exit: ; preds = %invoke.cont97
  store ptr %66, ptr %agg.result, align 8
  %_M_refcount.i.i130 = getelementptr inbounds %"class.std::__shared_ptr", ptr %agg.result, i64 0, i32 1
  %_M_refcount4.i.i131 = getelementptr inbounds %"class.std::__shared_ptr.98", ptr %withExtra, i64 0, i32 1
  %67 = load ptr, ptr %_M_refcount4.i.i131, align 8
  store ptr null, ptr %_M_refcount4.i.i131, align 8
  store ptr %67, ptr %_M_refcount.i.i130, align 8
  store ptr null, ptr %withExtra, align 8
  br label %cleanup103

cleanup.cont.critedge:                            ; preds = %invoke.cont97
  %_M_refcount.i.i163 = getelementptr inbounds %"class.std::__shared_ptr.98", ptr %withExtra, i64 0, i32 1
  %68 = load ptr, ptr %_M_refcount.i.i163, align 8
  %cmp.not.i.i.i164 = icmp eq ptr %68, null
  br i1 %cmp.not.i.i.i164, label %_ZNSt10shared_ptrIKN8facebook5velox10OpaqueTypeEED2Ev.exit194, label %if.then.i.i.i165

if.then.i.i.i165:                                 ; preds = %cleanup.cont.critedge
  %_M_use_count.i.i.i.i166 = getelementptr inbounds %"class.std::_Sp_counted_base", ptr %68, i64 0, i32 1
  %69 = load atomic i64, ptr %_M_use_count.i.i.i.i166 acquire, align 8
  %cmp.i.i.i.i167 = icmp eq i64 %69, 4294967297
  %70 = trunc i64 %69 to i32
  br i1 %cmp.i.i.i.i167, label %if.then.i.i.i.i190, label %if.end.i.i.i.i168

if.then.i.i.i.i190:                               ; preds = %if.then.i.i.i165
  store i32 0, ptr %_M_use_count.i.i.i.i166, align 8
  %_M_weak_count.i.i.i.i191 = getelementptr inbounds %"class.std::_Sp_counted_base", ptr %68, i64 0, i32 2
  store i32 0, ptr %_M_weak_count.i.i.i.i191, align 4
  %vtable.i.i.i.i192 = load ptr, ptr %68, align 8
  %vfn.i.i.i.i193 = getelementptr inbounds ptr, ptr %vtable.i.i.i.i192, i64 2
  %71 = load ptr, ptr %vfn.i.i.i.i193, align 8
  call void %71(ptr noundef nonnull align 8 dereferenceable(16) %68) #37
  br label %if.end8.sink.split.i.i.i.i185

if.end.i.i.i.i168:                                ; preds = %if.then.i.i.i165
  %72 = load i8, ptr @__libc_single_threaded, align 1
  %tobool.i.i.not.i.i.i.i169 = icmp eq i8 %72, 0
  br i1 %tobool.i.i.not.i.i.i.i169, label %if.else.i.i.i.i.i189, label %if.then.i.i.i.i.i170

if.then.i.i.i.i.i170:                             ; preds = %if.end.i.i.i.i168
  %add.i.i.i.i.i171 = add nsw i32 %70, -1
  store i32 %add.i.i.i.i.i171, ptr %_M_use_count.i.i.i.i166, align 4
  br label %_ZN9__gnu_cxx27__exchange_and_add_dispatchEPii.exit.i.i.i.i172

if.else.i.i.i.i.i189:                             ; preds = %if.end.i.i.i.i168
  %73 = atomicrmw volatile add ptr %_M_use_count.i.i.i.i166, i32 -1 acq_rel, align 4
  br label %_ZN9__gnu_cxx27__exchange_and_add_dispatchEPii.exit.i.i.i.i172

_ZN9__gnu_cxx27__exchange_and_add_dispatchEPii.exit.i.i.i.i172: ; preds = %if.else.i.i.i.i.i189, %if.then.i.i.i.i.i170
  %retval.i.0.i.i.i.i173 = phi i32 [ %70, %if.then.i.i.i.i.i170 ], [ %73, %if.else.i.i.i.i.i189 ]
  %cmp6.i.i.i.i174 = icmp eq i32 %retval.i.0.i.i.i.i173, 1
  br i1 %cmp6.i.i.i.i174, label %if.then7.i.i.i.i175, label %_ZNSt10shared_ptrIKN8facebook5velox10OpaqueTypeEED2Ev.exit194

if.then7.i.i.i.i175:                              ; preds = %_ZN9__gnu_cxx27__exchange_and_add_dispatchEPii.exit.i.i.i.i172
  %vtable.i.i.i.i.i.i176 = load ptr, ptr %68, align 8
  %vfn.i.i.i.i.i.i177 = getelementptr inbounds ptr, ptr %vtable.i.i.i.i.i.i176, i64 2
  %74 = load ptr, ptr %vfn.i.i.i.i.i.i177, align 8
  call void %74(ptr noundef nonnull align 8 dereferenceable(16) %68) #37
  %_M_weak_count.i.i.i.i.i.i178 = getelementptr inbounds %"class.std::_Sp_counted_base", ptr %68, i64 0, i32 2
  %75 = load i8, ptr @__libc_single_threaded, align 1
  %tobool.i.i.not.i.i.i.i.i.i179 = icmp eq i8 %75, 0
  br i1 %tobool.i.i.not.i.i.i.i.i.i179, label %if.else.i.i.i.i.i.i.i188, label %if.then.i.i.i.i.i.i.i180

if.then.i.i.i.i.i.i.i180:                         ; preds = %if.then7.i.i.i.i175
  %76 = load i32, ptr %_M_weak_count.i.i.i.i.i.i178, align 4
  %add.i.i.i.i.i.i.i181 = add nsw i32 %76, -1
  store i32 %add.i.i.i.i.i.i.i181, ptr %_M_weak_count.i.i.i.i.i.i178, align 4
  br label %_ZN9__gnu_cxx27__exchange_and_add_dispatchEPii.exit.i.i.i.i.i.i182

if.else.i.i.i.i.i.i.i188:                         ; preds = %if.then7.i.i.i.i175
  %77 = atomicrmw volatile add ptr %_M_weak_count.i.i.i.i.i.i178, i32 -1 acq_rel, align 4
  br label %_ZN9__gnu_cxx27__exchange_and_add_dispatchEPii.exit.i.i.i.i.i.i182

_ZN9__gnu_cxx27__exchange_and_add_dispatchEPii.exit.i.i.i.i.i.i182: ; preds = %if.else.i.i.i.i.i.i.i188, %if.then.i.i.i.i.i.i.i180
  %retval.i.0.i.i.i.i.i.i183 = phi i32 [ %76, %if.then.i.i.i.i.i.i.i180 ], [ %77, %if.else.i.i.i.i.i.i.i188 ]
  %cmp.i.i.i.i.i.i184 = icmp eq i32 %retval.i.0.i.i.i.i.i.i183, 1
  br i1 %cmp.i.i.i.i.i.i184, label %if.end8.sink.split.i.i.i.i185, label %_ZNSt10shared_ptrIKN8facebook5velox10OpaqueTypeEED2Ev.exit194

if.end8.sink.split.i.i.i.i185:                    ; preds = %_ZN9__gnu_cxx27__exchange_and_add_dispatchEPii.exit.i.i.i.i.i.i182, %if.then.i.i.i.i190
  %vtable2.i.i.i.i.i.i186 = load ptr, ptr %68, align 8
  %vfn3.i.i.i.i.i.i187 = getelementptr inbounds ptr, ptr %vtable2.i.i.i.i.i.i186, i64 3
  %78 = load ptr, ptr %vfn3.i.i.i.i.i.i187, align 8
  call void %78(ptr noundef nonnull align 8 dereferenceable(16) %68) #37
  br label %_ZNSt10shared_ptrIKN8facebook5velox10OpaqueTypeEED2Ev.exit194

_ZNSt10shared_ptrIKN8facebook5velox10OpaqueTypeEED2Ev.exit194: ; preds = %cleanup.cont.critedge, %_ZN9__gnu_cxx27__exchange_and_add_dispatchEPii.exit.i.i.i.i172, %_ZN9__gnu_cxx27__exchange_and_add_dispatchEPii.exit.i.i.i.i.i.i182, %if.end8.sink.split.i.i.i.i185
  %79 = load ptr, ptr %second, align 8
  store ptr %79, ptr %agg.result, align 8
  %_M_refcount.i.i196 = getelementptr inbounds %"class.std::__shared_ptr", ptr %agg.result, i64 0, i32 1
  %_M_refcount3.i.i = getelementptr inbounds i8, ptr %call.i126, i64 48
  %80 = load ptr, ptr %_M_refcount3.i.i, align 8
  store ptr %80, ptr %_M_refcount.i.i196, align 8
  %cmp.not.i.i.i197 = icmp eq ptr %80, null
  br i1 %cmp.not.i.i.i197, label %cleanup103, label %if.then.i.i.i198

if.then.i.i.i198:                                 ; preds = %_ZNSt10shared_ptrIKN8facebook5velox10OpaqueTypeEED2Ev.exit194
  %_M_use_count.i.i.i.i199 = getelementptr inbounds %"class.std::_Sp_counted_base", ptr %80, i64 0, i32 1
  %81 = load i8, ptr @__libc_single_threaded, align 1
  %tobool.i.not.i.i.i.i = icmp eq i8 %81, 0
  br i1 %tobool.i.not.i.i.i.i, label %if.else.i.i.i.i.i202, label %if.then.i.i.i.i.i200

if.then.i.i.i.i.i200:                             ; preds = %if.then.i.i.i198
  %82 = load i32, ptr %_M_use_count.i.i.i.i199, align 4
  %add.i.i.i.i.i201 = add nsw i32 %82, 1
  store i32 %add.i.i.i.i.i201, ptr %_M_use_count.i.i.i.i199, align 4
  br label %cleanup103

if.else.i.i.i.i.i202:                             ; preds = %if.then.i.i.i198
  %83 = atomicrmw volatile add ptr %_M_use_count.i.i.i.i199, i32 1 acq_rel, align 4
  br label %cleanup103

cleanup103:                                       ; preds = %if.else.i.i.i.i.i202, %if.then.i.i.i.i.i200, %_ZNSt10shared_ptrIKN8facebook5velox10OpaqueTypeEED2Ev.exit194, %_ZNSt10shared_ptrIKN8facebook5velox10OpaqueTypeEED2Ev.exit
  call void @_ZNSt7__cxx1112basic_stringIcSt11char_traitsIcESaIcEED1Ev(ptr noundef nonnull align 8 dereferenceable(32) %ref.tmp72) #37
  br label %cleanup106

sw.default:                                       ; preds = %invoke.cont40
  invoke void @_ZN8facebook5velox10createTypeENS0_8TypeKindEOSt6vectorISt10shared_ptrIKNS0_4TypeEESaIS6_EE(ptr sret(%"class.std::shared_ptr") align 8 %agg.result, i8 noundef signext %46, ptr noundef nonnull align 8 dereferenceable(24) %childTypes)
          to label %cleanup106 unwind label %lpad16

cleanup106:                                       ; preds = %if.then.i.i.i115, %invoke.cont.i113, %if.end.i64, %if.then.i63, %_ZN8facebook5velox7DECIMALEhh.exit, %sw.default, %cleanup103
  call void @_ZNSt7__cxx1112basic_stringIcSt11char_traitsIcESaIcEED1Ev(ptr noundef nonnull align 8 dereferenceable(32) %typeName) #37
  %84 = load ptr, ptr %childTypes, align 16
  %_M_finish.i203 = getelementptr inbounds %"struct.std::_Vector_base<std::shared_ptr<const facebook::velox::Type>, std::allocator<std::shared_ptr<const facebook::velox::Type>>>::_Vector_impl_data", ptr %childTypes, i64 0, i32 1
  %85 = load ptr, ptr %_M_finish.i203, align 8
  %cmp.not3.i.i.i.i204 = icmp eq ptr %84, %85
  br i1 %cmp.not3.i.i.i.i204, label %invoke.cont.i224, label %for.body.i.i.i.i205

for.body.i.i.i.i205:                              ; preds = %cleanup106, %_ZSt8_DestroyISt10shared_ptrIKN8facebook5velox4TypeEEEvPT_.exit.i.i.i.i219
  %__first.addr.04.i.i.i.i206 = phi ptr [ %incdec.ptr.i.i.i.i220, %_ZSt8_DestroyISt10shared_ptrIKN8facebook5velox4TypeEEEvPT_.exit.i.i.i.i219 ], [ %84, %cleanup106 ]
  %_M_refcount.i.i.i.i.i.i.i207 = getelementptr inbounds %"class.std::__shared_ptr", ptr %__first.addr.04.i.i.i.i206, i64 0, i32 1
  %86 = load ptr, ptr %_M_refcount.i.i.i.i.i.i.i207, align 8
  %cmp.not.i.i.i.i.i.i.i.i208 = icmp eq ptr %86, null
  br i1 %cmp.not.i.i.i.i.i.i.i.i208, label %_ZSt8_DestroyISt10shared_ptrIKN8facebook5velox4TypeEEEvPT_.exit.i.i.i.i219, label %if.then.i.i.i.i.i.i.i.i209

if.then.i.i.i.i.i.i.i.i209:                       ; preds = %for.body.i.i.i.i205
  %_M_use_count.i.i.i.i.i.i.i.i.i210 = getelementptr inbounds %"class.std::_Sp_counted_base", ptr %86, i64 0, i32 1
  %87 = load atomic i64, ptr %_M_use_count.i.i.i.i.i.i.i.i.i210 acquire, align 8
  %cmp.i.i.i.i.i.i.i.i.i211 = icmp eq i64 %87, 4294967297
  %88 = trunc i64 %87 to i32
  br i1 %cmp.i.i.i.i.i.i.i.i.i211, label %if.then.i.i.i.i.i.i.i.i.i242, label %if.end.i.i.i.i.i.i.i.i.i212

if.then.i.i.i.i.i.i.i.i.i242:                     ; preds = %if.then.i.i.i.i.i.i.i.i209
  store i32 0, ptr %_M_use_count.i.i.i.i.i.i.i.i.i210, align 8
  %_M_weak_count.i.i.i.i.i.i.i.i.i243 = getelementptr inbounds %"class.std::_Sp_counted_base", ptr %86, i64 0, i32 2
  store i32 0, ptr %_M_weak_count.i.i.i.i.i.i.i.i.i243, align 4
  %vtable.i.i.i.i.i.i.i.i.i244 = load ptr, ptr %86, align 8
  %vfn.i.i.i.i.i.i.i.i.i245 = getelementptr inbounds ptr, ptr %vtable.i.i.i.i.i.i.i.i.i244, i64 2
  %89 = load ptr, ptr %vfn.i.i.i.i.i.i.i.i.i245, align 8
  call void %89(ptr noundef nonnull align 8 dereferenceable(16) %86) #37
  br label %if.end8.sink.split.i.i.i.i.i.i.i.i.i237

if.end.i.i.i.i.i.i.i.i.i212:                      ; preds = %if.then.i.i.i.i.i.i.i.i209
  %90 = load i8, ptr @__libc_single_threaded, align 1
  %tobool.i.i.not.i.i.i.i.i.i.i.i.i213 = icmp eq i8 %90, 0
  br i1 %tobool.i.i.not.i.i.i.i.i.i.i.i.i213, label %if.else.i.i.i.i.i.i.i.i.i.i241, label %if.then.i.i.i.i.i.i.i.i.i.i214

if.then.i.i.i.i.i.i.i.i.i.i214:                   ; preds = %if.end.i.i.i.i.i.i.i.i.i212
  %add.i.i.i.i.i.i.i.i.i.i215 = add nsw i32 %88, -1
  store i32 %add.i.i.i.i.i.i.i.i.i.i215, ptr %_M_use_count.i.i.i.i.i.i.i.i.i210, align 4
  br label %_ZN9__gnu_cxx27__exchange_and_add_dispatchEPii.exit.i.i.i.i.i.i.i.i.i216

if.else.i.i.i.i.i.i.i.i.i.i241:                   ; preds = %if.end.i.i.i.i.i.i.i.i.i212
  %91 = atomicrmw volatile add ptr %_M_use_count.i.i.i.i.i.i.i.i.i210, i32 -1 acq_rel, align 4
  br label %_ZN9__gnu_cxx27__exchange_and_add_dispatchEPii.exit.i.i.i.i.i.i.i.i.i216

_ZN9__gnu_cxx27__exchange_and_add_dispatchEPii.exit.i.i.i.i.i.i.i.i.i216: ; preds = %if.else.i.i.i.i.i.i.i.i.i.i241, %if.then.i.i.i.i.i.i.i.i.i.i214
  %retval.i.0.i.i.i.i.i.i.i.i.i217 = phi i32 [ %88, %if.then.i.i.i.i.i.i.i.i.i.i214 ], [ %91, %if.else.i.i.i.i.i.i.i.i.i.i241 ]
  %cmp6.i.i.i.i.i.i.i.i.i218 = icmp eq i32 %retval.i.0.i.i.i.i.i.i.i.i.i217, 1
  br i1 %cmp6.i.i.i.i.i.i.i.i.i218, label %if.then7.i.i.i.i.i.i.i.i.i227, label %_ZSt8_DestroyISt10shared_ptrIKN8facebook5velox4TypeEEEvPT_.exit.i.i.i.i219

if.then7.i.i.i.i.i.i.i.i.i227:                    ; preds = %_ZN9__gnu_cxx27__exchange_and_add_dispatchEPii.exit.i.i.i.i.i.i.i.i.i216
  %vtable.i.i.i.i.i.i.i.i.i.i.i228 = load ptr, ptr %86, align 8
  %vfn.i.i.i.i.i.i.i.i.i.i.i229 = getelementptr inbounds ptr, ptr %vtable.i.i.i.i.i.i.i.i.i.i.i228, i64 2
  %92 = load ptr, ptr %vfn.i.i.i.i.i.i.i.i.i.i.i229, align 8
  call void %92(ptr noundef nonnull align 8 dereferenceable(16) %86) #37
  %_M_weak_count.i.i.i.i.i.i.i.i.i.i.i230 = getelementptr inbounds %"class.std::_Sp_counted_base", ptr %86, i64 0, i32 2
  %93 = load i8, ptr @__libc_single_threaded, align 1
  %tobool.i.i.not.i.i.i.i.i.i.i.i.i.i.i231 = icmp eq i8 %93, 0
  br i1 %tobool.i.i.not.i.i.i.i.i.i.i.i.i.i.i231, label %if.else.i.i.i.i.i.i.i.i.i.i.i.i240, label %if.then.i.i.i.i.i.i.i.i.i.i.i.i232

if.then.i.i.i.i.i.i.i.i.i.i.i.i232:               ; preds = %if.then7.i.i.i.i.i.i.i.i.i227
  %94 = load i32, ptr %_M_weak_count.i.i.i.i.i.i.i.i.i.i.i230, align 4
  %add.i.i.i.i.i.i.i.i.i.i.i.i233 = add nsw i32 %94, -1
  store i32 %add.i.i.i.i.i.i.i.i.i.i.i.i233, ptr %_M_weak_count.i.i.i.i.i.i.i.i.i.i.i230, align 4
  br label %_ZN9__gnu_cxx27__exchange_and_add_dispatchEPii.exit.i.i.i.i.i.i.i.i.i.i.i234

if.else.i.i.i.i.i.i.i.i.i.i.i.i240:               ; preds = %if.then7.i.i.i.i.i.i.i.i.i227
  %95 = atomicrmw volatile add ptr %_M_weak_count.i.i.i.i.i.i.i.i.i.i.i230, i32 -1 acq_rel, align 4
  br label %_ZN9__gnu_cxx27__exchange_and_add_dispatchEPii.exit.i.i.i.i.i.i.i.i.i.i.i234

_ZN9__gnu_cxx27__exchange_and_add_dispatchEPii.exit.i.i.i.i.i.i.i.i.i.i.i234: ; preds = %if.else.i.i.i.i.i.i.i.i.i.i.i.i240, %if.then.i.i.i.i.i.i.i.i.i.i.i.i232
  %retval.i.0.i.i.i.i.i.i.i.i.i.i.i235 = phi i32 [ %94, %if.then.i.i.i.i.i.i.i.i.i.i.i.i232 ], [ %95, %if.else.i.i.i.i.i.i.i.i.i.i.i.i240 ]
  %cmp.i.i.i.i.i.i.i.i.i.i.i236 = icmp eq i32 %retval.i.0.i.i.i.i.i.i.i.i.i.i.i235, 1
  br i1 %cmp.i.i.i.i.i.i.i.i.i.i.i236, label %if.end8.sink.split.i.i.i.i.i.i.i.i.i237, label %_ZSt8_DestroyISt10shared_ptrIKN8facebook5velox4TypeEEEvPT_.exit.i.i.i.i219

if.end8.sink.split.i.i.i.i.i.i.i.i.i237:          ; preds = %_ZN9__gnu_cxx27__exchange_and_add_dispatchEPii.exit.i.i.i.i.i.i.i.i.i.i.i234, %if.then.i.i.i.i.i.i.i.i.i242
  %vtable2.i.i.i.i.i.i.i.i.i.i.i238 = load ptr, ptr %86, align 8
  %vfn3.i.i.i.i.i.i.i.i.i.i.i239 = getelementptr inbounds ptr, ptr %vtable2.i.i.i.i.i.i.i.i.i.i.i238, i64 3
  %96 = load ptr, ptr %vfn3.i.i.i.i.i.i.i.i.i.i.i239, align 8
  call void %96(ptr noundef nonnull align 8 dereferenceable(16) %86) #37
  br label %_ZSt8_DestroyISt10shared_ptrIKN8facebook5velox4TypeEEEvPT_.exit.i.i.i.i219

_ZSt8_DestroyISt10shared_ptrIKN8facebook5velox4TypeEEEvPT_.exit.i.i.i.i219: ; preds = %if.end8.sink.split.i.i.i.i.i.i.i.i.i237, %_ZN9__gnu_cxx27__exchange_and_add_dispatchEPii.exit.i.i.i.i.i.i.i.i.i.i.i234, %_ZN9__gnu_cxx27__exchange_and_add_dispatchEPii.exit.i.i.i.i.i.i.i.i.i216, %for.body.i.i.i.i205
  %incdec.ptr.i.i.i.i220 = getelementptr inbounds %"class.std::shared_ptr", ptr %__first.addr.04.i.i.i.i206, i64 1
  %cmp.not.i.i.i.i221 = icmp eq ptr %incdec.ptr.i.i.i.i220, %85
  br i1 %cmp.not.i.i.i.i221, label %invoke.contthread-pre-split.i222, label %for.body.i.i.i.i205, !llvm.loop !10

invoke.contthread-pre-split.i222:                 ; preds = %_ZSt8_DestroyISt10shared_ptrIKN8facebook5velox4TypeEEEvPT_.exit.i.i.i.i219
  %.pr.i223 = load ptr, ptr %childTypes, align 16
  br label %invoke.cont.i224

invoke.cont.i224:                                 ; preds = %invoke.contthread-pre-split.i222, %cleanup106
  %97 = phi ptr [ %.pr.i223, %invoke.contthread-pre-split.i222 ], [ %84, %cleanup106 ]
  %tobool.not.i.i.i225 = icmp eq ptr %97, null
  br i1 %tobool.not.i.i.i225, label %_ZNSt6vectorISt10shared_ptrIKN8facebook5velox4TypeEESaIS5_EED2Ev.exit246, label %if.then.i.i.i226

if.then.i.i.i226:                                 ; preds = %invoke.cont.i224
  call void @_ZdlPv(ptr noundef nonnull %97) #38
  br label %_ZNSt6vectorISt10shared_ptrIKN8facebook5velox4TypeEESaIS5_EED2Ev.exit246

_ZNSt6vectorISt10shared_ptrIKN8facebook5velox4TypeEESaIS5_EED2Ev.exit246: ; preds = %invoke.cont.i224, %if.then.i.i.i226
  ret void

ehcleanup107:                                     ; preds = %lpad16, %common.resume.i, %lpad78, %ehcleanup
  %.pn14 = phi { ptr, i32 } [ %63, %lpad78 ], [ %.pn, %ehcleanup ], [ %44, %lpad16 ], [ %common.resume.op.i, %common.resume.i ]
  call void @_ZNSt7__cxx1112basic_stringIcSt11char_traitsIcESaIcEED1Ev(ptr noundef nonnull align 8 dereferenceable(32) %typeName) #37
  br label %ehcleanup109

ehcleanup109:                                     ; preds = %ehcleanup107, %lpad
  %.pn14.pn = phi { ptr, i32 } [ %.pn14, %ehcleanup107 ], [ %32, %lpad ]
  call void @_ZNSt6vectorISt10shared_ptrIKN8facebook5velox4TypeEESaIS5_EED2Ev(ptr noundef nonnull align 8 dereferenceable(24) %childTypes) #37
  resume { ptr, i32 } %.pn14.pn
}

; Function Attrs: mustprogress uwtable
define linkonce_odr void @_ZNK5folly7dynamic4findENS_5RangeIPKcEE(ptr noalias sret(%"struct.folly::dynamic::const_item_iterator") align 8 %agg.result, ptr noundef nonnull align 8 dereferenceable(40) %this, ptr %key.coerce0, ptr %key.coerce1) local_unnamed_addr #6 comdat align 2 {
entry:
  %seed.addr.i.i.i.i.i = alloca i64, align 8
  %hash1.i.i.i.i.i = alloca i64, align 8
  %0 = load i32, ptr %this, align 8
  %cmp.not.i.not.i.i = icmp eq i32 %0, 5
  br i1 %cmp.not.i.not.i.i, label %_ZNK5folly7dynamic3getINS0_10ObjectImplEEERKT_v.exit, label %if.end.i.i

if.end.i.i:                                       ; preds = %entry
  %1 = load ptr, ptr @_ZN5folly7dynamic8TypeInfoINS0_10ObjectImplEE4nameE, align 8
  tail call void @_ZN5folly6detail16throw_exception_INS_9TypeErrorEJPKcNS_7dynamic4TypeEEEEvDpT0_(ptr noundef %1, i32 noundef %0) #40
  unreachable

_ZNK5folly7dynamic3getINS0_10ObjectImplEEERKT_v.exit: ; preds = %entry
  %u_.i.i.i.i = getelementptr inbounds %"struct.folly::dynamic", ptr %this, i64 0, i32 1
  %sub.ptr.lhs.cast.i.i.i.i.i = ptrtoint ptr %key.coerce1 to i64
  %sub.ptr.rhs.cast.i.i.i.i.i = ptrtoint ptr %key.coerce0 to i64
  %sub.ptr.sub.i.i.i.i.i = sub i64 %sub.ptr.lhs.cast.i.i.i.i.i, %sub.ptr.rhs.cast.i.i.i.i.i
  call void @llvm.lifetime.start.p0(i64 8, ptr nonnull %seed.addr.i.i.i.i.i)
  call void @llvm.lifetime.start.p0(i64 8, ptr nonnull %hash1.i.i.i.i.i)
  store i64 0, ptr %seed.addr.i.i.i.i.i, align 8
  store i64 0, ptr %hash1.i.i.i.i.i, align 8
  call void @_ZN5folly4hash12SpookyHashV27Hash128EPKvmPmS4_(ptr noundef %key.coerce0, i64 noundef %sub.ptr.sub.i.i.i.i.i, ptr noundef nonnull %hash1.i.i.i.i.i, ptr noundef nonnull %seed.addr.i.i.i.i.i)
  %2 = load i64, ptr %hash1.i.i.i.i.i, align 8
  call void @llvm.lifetime.end.p0(i64 8, ptr nonnull %seed.addr.i.i.i.i.i)
  call void @llvm.lifetime.end.p0(i64 8, ptr nonnull %hash1.i.i.i.i.i)
  %3 = call noundef i64 @llvm.x86.sse42.crc32.64.64(i64 0, i64 %2)
  %shr.i = lshr i64 %3, 24
  %or.i = or i64 %shr.i, 128
  %add.i15 = add i64 %3, %2
  %mul.i = shl nuw nsw i64 %or.i, 1
  %add.i16 = or disjoint i64 %mul.i, 1
  %chunkMask_.i = getelementptr inbounds %"struct.folly::dynamic", ptr %this, i64 0, i32 1, i32 0, i32 1
  %4 = load i64, ptr %chunkMask_.i, align 8
  %conv.i17 = trunc i64 %or.i to i8
  %vecinit.i.i = insertelement <16 x i8> undef, i8 %conv.i17, i64 0
  %vecinit15.i.i = shufflevector <16 x i8> %vecinit.i.i, <16 x i8> poison, <16 x i32> zeroinitializer
  %cmp.i8.i.i.i.i.i = icmp eq ptr %key.coerce1, %key.coerce0
  br label %for.body.i

for.body.i:                                       ; preds = %_ZNK5folly7dynamic3getINS0_10ObjectImplEEERKT_v.exit, %if.end18.i
  %5 = phi i64 [ %4, %_ZNK5folly7dynamic3getINS0_10ObjectImplEEERKT_v.exit ], [ %15, %if.end18.i ]
  %index.i.035 = phi i64 [ %add.i15, %_ZNK5folly7dynamic3getINS0_10ObjectImplEEERKT_v.exit ], [ %add.i, %if.end18.i ]
  %tries.i.034 = phi i64 [ 0, %_ZNK5folly7dynamic3getINS0_10ObjectImplEEERKT_v.exit ], [ %inc.i, %if.end18.i ]
  %6 = load ptr, ptr %u_.i.i.i.i, align 8
  %and.i = and i64 %5, %index.i.035
  %add.ptr.i = getelementptr inbounds %"struct.folly::f14::detail::F14Chunk", ptr %6, i64 %and.i
  %rawItems_.i = getelementptr inbounds %"struct.folly::f14::detail::F14Chunk", ptr %6, i64 %and.i, i32 3
  %arrayidx.i.i.i = getelementptr inbounds [14 x %"union.std::aligned_storage<8, 8>::type"], ptr %rawItems_.i, i64 0, i64 8
  call void @llvm.prefetch.p0(ptr nonnull %arrayidx.i.i.i, i32 0, i32 3, i32 1)
  %7 = load <16 x i8>, ptr %add.ptr.i, align 16
  %cmp.i.i = icmp eq <16 x i8> %7, %vecinit15.i.i
  %8 = bitcast <16 x i1> %cmp.i.i to i16
  %9 = and i16 %8, 16383
  %cmp.i.not2932 = icmp eq i16 %9, 0
  %10 = extractelement <16 x i8> %7, i64 15
  br i1 %cmp.i.not2932, label %while.end.i, label %while.body.i.preheader

while.body.i.preheader:                           ; preds = %for.body.i
  %and.i18 = zext nneg i16 %9 to i32
  br label %while.body.i

while.body.i:                                     ; preds = %while.body.i.preheader, %_ZNK5folly3f146detail19NodeContainerPolicyINS_7dynamicES3_NS_6detail13DynamicHasherENS4_15DynamicKeyEqualEvE14keyMatchesItemINS_5RangeIPKcEEEEbRKT_RKPSt4pairIKS3_S3_E.exit
  %hits.i.sroa.0.033 = phi i32 [ %and.i20, %_ZNK5folly3f146detail19NodeContainerPolicyINS_7dynamicES3_NS_6detail13DynamicHasherENS4_15DynamicKeyEqualEvE14keyMatchesItemINS_5RangeIPKcEEEEbRKT_RKPSt4pairIKS3_S3_E.exit ], [ %and.i18, %while.body.i.preheader ]
  %11 = call noundef i32 @llvm.cttz.i32(i32 %hits.i.sroa.0.033, i1 true), !range !27
  %sub.i = add nsw i32 %hits.i.sroa.0.033, -1
  %and.i20 = and i32 %sub.i, %hits.i.sroa.0.033
  %conv.i = zext nneg i32 %11 to i64
  %arrayidx.i.i.i.i = getelementptr inbounds [14 x %"union.std::aligned_storage<8, 8>::type"], ptr %rawItems_.i, i64 0, i64 %conv.i
  %12 = load ptr, ptr %arrayidx.i.i.i.i, align 8
  %13 = load i32, ptr %12, align 8
  %cmp.i.i21 = icmp eq i32 %13, 6
  br i1 %cmp.i.i21, label %_ZNK5folly7dynamic11stringPieceEv.exit.i.i, label %_ZNK5folly3f146detail19NodeContainerPolicyINS_7dynamicES3_NS_6detail13DynamicHasherENS4_15DynamicKeyEqualEvE14keyMatchesItemINS_5RangeIPKcEEEEbRKT_RKPSt4pairIKS3_S3_E.exit

_ZNK5folly7dynamic11stringPieceEv.exit.i.i:       ; preds = %while.body.i
  %u_.i.i.i.i.i.i.i = getelementptr inbounds %"struct.folly::dynamic", ptr %12, i64 0, i32 1
  %call.i.i.i.i = call noundef ptr @_ZNKSt7__cxx1112basic_stringIcSt11char_traitsIcESaIcEE4dataEv(ptr noundef nonnull align 8 dereferenceable(32) %u_.i.i.i.i.i.i.i) #37
  %call3.i.i.i.i = call noundef i64 @_ZNKSt7__cxx1112basic_stringIcSt11char_traitsIcESaIcEE4sizeEv(ptr noundef nonnull align 8 dereferenceable(32) %u_.i.i.i.i.i.i.i) #37
  %cmp.i.i.i.i = icmp eq i64 %sub.ptr.sub.i.i.i.i.i, %call3.i.i.i.i
  br i1 %cmp.i.i.i.i, label %land.rhs.i.i.i.i, label %_ZNK5folly3f146detail19NodeContainerPolicyINS_7dynamicES3_NS_6detail13DynamicHasherENS4_15DynamicKeyEqualEvE14keyMatchesItemINS_5RangeIPKcEEEEbRKT_RKPSt4pairIKS3_S3_E.exit

land.rhs.i.i.i.i:                                 ; preds = %_ZNK5folly7dynamic11stringPieceEv.exit.i.i
  br i1 %cmp.i8.i.i.i.i.i, label %_ZNK5folly3f146detail8F14TableINS1_19NodeContainerPolicyINS_7dynamicES4_NS_6detail13DynamicHasherENS5_15DynamicKeyEqualEvEEE8findImplINS_5RangeIPKcEEEENS1_11F14ItemIterIPNS1_8F14ChunkIPSt4pairIKS4_S4_EEEEESH_ImmERKT_NS9_8PrefetchE.exit.loopexit, label %_ZNSt11char_traitsIcE7compareEPKcS2_m.exit.i.i.i.i.i

_ZNSt11char_traitsIcE7compareEPKcS2_m.exit.i.i.i.i.i: ; preds = %land.rhs.i.i.i.i
  %bcmp.i.i.i.i = call i32 @bcmp(ptr %key.coerce0, ptr %call.i.i.i.i, i64 %sub.ptr.sub.i.i.i.i.i)
  %cmp.i.i.i.i.i = icmp eq i32 %bcmp.i.i.i.i, 0
  br i1 %cmp.i.i.i.i.i, label %_ZNK5folly3f146detail8F14TableINS1_19NodeContainerPolicyINS_7dynamicES4_NS_6detail13DynamicHasherENS5_15DynamicKeyEqualEvEEE8findImplINS_5RangeIPKcEEEENS1_11F14ItemIterIPNS1_8F14ChunkIPSt4pairIKS4_S4_EEEEESH_ImmERKT_NS9_8PrefetchE.exit.loopexit, label %_ZNK5folly3f146detail19NodeContainerPolicyINS_7dynamicES3_NS_6detail13DynamicHasherENS4_15DynamicKeyEqualEvE14keyMatchesItemINS_5RangeIPKcEEEEbRKT_RKPSt4pairIKS3_S3_E.exit

_ZNK5folly3f146detail19NodeContainerPolicyINS_7dynamicES3_NS_6detail13DynamicHasherENS4_15DynamicKeyEqualEvE14keyMatchesItemINS_5RangeIPKcEEEEbRKT_RKPSt4pairIKS3_S3_E.exit: ; preds = %while.body.i, %_ZNK5folly7dynamic11stringPieceEv.exit.i.i, %_ZNSt11char_traitsIcE7compareEPKcS2_m.exit.i.i.i.i.i
  %cmp.i.not29 = icmp eq i32 %and.i20, 0
  br i1 %cmp.i.not29, label %while.end.i.loopexit, label %while.body.i, !llvm.loop !28

while.end.i.loopexit:                             ; preds = %_ZNK5folly3f146detail19NodeContainerPolicyINS_7dynamicES3_NS_6detail13DynamicHasherENS4_15DynamicKeyEqualEvE14keyMatchesItemINS_5RangeIPKcEEEEbRKT_RKPSt4pairIKS3_S3_E.exit
  %outboundOverflowCount_.i.phi.trans.insert = getelementptr inbounds %"struct.folly::f14::detail::F14Chunk", ptr %6, i64 %and.i, i32 2
  %.pre = load i8, ptr %outboundOverflowCount_.i.phi.trans.insert, align 1
  br label %while.end.i

while.end.i:                                      ; preds = %while.end.i.loopexit, %for.body.i
  %14 = phi i8 [ %.pre, %while.end.i.loopexit ], [ %10, %for.body.i ]
  %cmp15.i = icmp eq i8 %14, 0
  br i1 %cmp15.i, label %_ZNK5folly3f146detail8F14TableINS1_19NodeContainerPolicyINS_7dynamicES4_NS_6detail13DynamicHasherENS5_15DynamicKeyEqualEvEEE8findImplINS_5RangeIPKcEEEENS1_11F14ItemIterIPNS1_8F14ChunkIPSt4pairIKS4_S4_EEEEESH_ImmERKT_NS9_8PrefetchE.exit, label %if.end18.i

if.end18.i:                                       ; preds = %while.end.i
  %add.i = add i64 %add.i16, %index.i.035
  %inc.i = add i64 %tries.i.034, 1
  %15 = load i64, ptr %chunkMask_.i, align 8
  %cmp.i.not = icmp ugt i64 %inc.i, %15
  br i1 %cmp.i.not, label %_ZNK5folly3f146detail8F14TableINS1_19NodeContainerPolicyINS_7dynamicES4_NS_6detail13DynamicHasherENS5_15DynamicKeyEqualEvEEE8findImplINS_5RangeIPKcEEEENS1_11F14ItemIterIPNS1_8F14ChunkIPSt4pairIKS4_S4_EEEEESH_ImmERKT_NS9_8PrefetchE.exit, label %for.body.i, !llvm.loop !29

_ZNK5folly3f146detail8F14TableINS1_19NodeContainerPolicyINS_7dynamicES4_NS_6detail13DynamicHasherENS5_15DynamicKeyEqualEvEEE8findImplINS_5RangeIPKcEEEENS1_11F14ItemIterIPNS1_8F14ChunkIPSt4pairIKS4_S4_EEEEESH_ImmERKT_NS9_8PrefetchE.exit.loopexit: ; preds = %land.rhs.i.i.i.i, %_ZNSt11char_traitsIcE7compareEPKcS2_m.exit.i.i.i.i.i
  %arrayidx.i.i.i.i.le = getelementptr inbounds [14 x %"union.std::aligned_storage<8, 8>::type"], ptr %rawItems_.i, i64 0, i64 %conv.i
  br label %_ZNK5folly3f146detail8F14TableINS1_19NodeContainerPolicyINS_7dynamicES4_NS_6detail13DynamicHasherENS5_15DynamicKeyEqualEvEEE8findImplINS_5RangeIPKcEEEENS1_11F14ItemIterIPNS1_8F14ChunkIPSt4pairIKS4_S4_EEEEESH_ImmERKT_NS9_8PrefetchE.exit

_ZNK5folly3f146detail8F14TableINS1_19NodeContainerPolicyINS_7dynamicES4_NS_6detail13DynamicHasherENS5_15DynamicKeyEqualEvEEE8findImplINS_5RangeIPKcEEEENS1_11F14ItemIterIPNS1_8F14ChunkIPSt4pairIKS4_S4_EEEEESH_ImmERKT_NS9_8PrefetchE.exit: ; preds = %if.end18.i, %while.end.i, %_ZNK5folly3f146detail8F14TableINS1_19NodeContainerPolicyINS_7dynamicES4_NS_6detail13DynamicHasherENS5_15DynamicKeyEqualEvEEE8findImplINS_5RangeIPKcEEEENS1_11F14ItemIterIPNS1_8F14ChunkIPSt4pairIKS4_S4_EEEEESH_ImmERKT_NS9_8PrefetchE.exit.loopexit
  %retval.i9.sroa.3.0 = phi i64 [ %conv.i, %_ZNK5folly3f146detail8F14TableINS1_19NodeContainerPolicyINS_7dynamicES4_NS_6detail13DynamicHasherENS5_15DynamicKeyEqualEvEEE8findImplINS_5RangeIPKcEEEENS1_11F14ItemIterIPNS1_8F14ChunkIPSt4pairIKS4_S4_EEEEESH_ImmERKT_NS9_8PrefetchE.exit.loopexit ], [ 0, %while.end.i ], [ 0, %if.end18.i ]
  %retval.i9.sroa.0.0 = phi ptr [ %arrayidx.i.i.i.i.le, %_ZNK5folly3f146detail8F14TableINS1_19NodeContainerPolicyINS_7dynamicES4_NS_6detail13DynamicHasherENS5_15DynamicKeyEqualEvEEE8findImplINS_5RangeIPKcEEEENS1_11F14ItemIterIPNS1_8F14ChunkIPSt4pairIKS4_S4_EEEEESH_ImmERKT_NS9_8PrefetchE.exit.loopexit ], [ null, %while.end.i ], [ null, %if.end18.i ]
  store ptr %retval.i9.sroa.0.0, ptr %agg.result, align 8
  %base.sroa.2.0.base_.sroa_idx.i.i = getelementptr inbounds i8, ptr %agg.result, i64 8
  store i64 %retval.i9.sroa.3.0, ptr %base.sroa.2.0.base_.sroa_idx.i.i, align 8
  ret void
}

; Function Attrs: mustprogress nounwind uwtable
define linkonce_odr void @_ZNSt6vectorISt10shared_ptrIKN8facebook5velox4TypeEESaIS5_EED2Ev(ptr noundef nonnull align 8 dereferenceable(24) %this) unnamed_addr #2 comdat align 2 personality ptr @__gxx_personality_v0 {
entry:
  %0 = load ptr, ptr %this, align 8
  %_M_finish = getelementptr inbounds %"struct.std::_Vector_base<std::shared_ptr<const facebook::velox::Type>, std::allocator<std::shared_ptr<const facebook::velox::Type>>>::_Vector_impl_data", ptr %this, i64 0, i32 1
  %1 = load ptr, ptr %_M_finish, align 8
  %cmp.not3.i.i.i = icmp eq ptr %0, %1
  br i1 %cmp.not3.i.i.i, label %invoke.cont, label %for.body.i.i.i

for.body.i.i.i:                                   ; preds = %entry, %_ZSt8_DestroyISt10shared_ptrIKN8facebook5velox4TypeEEEvPT_.exit.i.i.i
  %__first.addr.04.i.i.i = phi ptr [ %incdec.ptr.i.i.i, %_ZSt8_DestroyISt10shared_ptrIKN8facebook5velox4TypeEEEvPT_.exit.i.i.i ], [ %0, %entry ]
  %_M_refcount.i.i.i.i.i.i = getelementptr inbounds %"class.std::__shared_ptr", ptr %__first.addr.04.i.i.i, i64 0, i32 1
  %2 = load ptr, ptr %_M_refcount.i.i.i.i.i.i, align 8
  %cmp.not.i.i.i.i.i.i.i = icmp eq ptr %2, null
  br i1 %cmp.not.i.i.i.i.i.i.i, label %_ZSt8_DestroyISt10shared_ptrIKN8facebook5velox4TypeEEEvPT_.exit.i.i.i, label %if.then.i.i.i.i.i.i.i

if.then.i.i.i.i.i.i.i:                            ; preds = %for.body.i.i.i
  %_M_use_count.i.i.i.i.i.i.i.i = getelementptr inbounds %"class.std::_Sp_counted_base", ptr %2, i64 0, i32 1
  %3 = load atomic i64, ptr %_M_use_count.i.i.i.i.i.i.i.i acquire, align 8
  %cmp.i.i.i.i.i.i.i.i = icmp eq i64 %3, 4294967297
  %4 = trunc i64 %3 to i32
  br i1 %cmp.i.i.i.i.i.i.i.i, label %if.then.i.i.i.i.i.i.i.i, label %if.end.i.i.i.i.i.i.i.i

if.then.i.i.i.i.i.i.i.i:                          ; preds = %if.then.i.i.i.i.i.i.i
  store i32 0, ptr %_M_use_count.i.i.i.i.i.i.i.i, align 8
  %_M_weak_count.i.i.i.i.i.i.i.i = getelementptr inbounds %"class.std::_Sp_counted_base", ptr %2, i64 0, i32 2
  store i32 0, ptr %_M_weak_count.i.i.i.i.i.i.i.i, align 4
  %vtable.i.i.i.i.i.i.i.i = load ptr, ptr %2, align 8
  %vfn.i.i.i.i.i.i.i.i = getelementptr inbounds ptr, ptr %vtable.i.i.i.i.i.i.i.i, i64 2
  %5 = load ptr, ptr %vfn.i.i.i.i.i.i.i.i, align 8
  tail call void %5(ptr noundef nonnull align 8 dereferenceable(16) %2) #37
  br label %if.end8.sink.split.i.i.i.i.i.i.i.i

if.end.i.i.i.i.i.i.i.i:                           ; preds = %if.then.i.i.i.i.i.i.i
  %6 = load i8, ptr @__libc_single_threaded, align 1
  %tobool.i.i.not.i.i.i.i.i.i.i.i = icmp eq i8 %6, 0
  br i1 %tobool.i.i.not.i.i.i.i.i.i.i.i, label %if.else.i.i.i.i.i.i.i.i.i, label %if.then.i.i.i.i.i.i.i.i.i

if.then.i.i.i.i.i.i.i.i.i:                        ; preds = %if.end.i.i.i.i.i.i.i.i
  %add.i.i.i.i.i.i.i.i.i = add nsw i32 %4, -1
  store i32 %add.i.i.i.i.i.i.i.i.i, ptr %_M_use_count.i.i.i.i.i.i.i.i, align 4
  br label %_ZN9__gnu_cxx27__exchange_and_add_dispatchEPii.exit.i.i.i.i.i.i.i.i

if.else.i.i.i.i.i.i.i.i.i:                        ; preds = %if.end.i.i.i.i.i.i.i.i
  %7 = atomicrmw volatile add ptr %_M_use_count.i.i.i.i.i.i.i.i, i32 -1 acq_rel, align 4
  br label %_ZN9__gnu_cxx27__exchange_and_add_dispatchEPii.exit.i.i.i.i.i.i.i.i

_ZN9__gnu_cxx27__exchange_and_add_dispatchEPii.exit.i.i.i.i.i.i.i.i: ; preds = %if.else.i.i.i.i.i.i.i.i.i, %if.then.i.i.i.i.i.i.i.i.i
  %retval.i.0.i.i.i.i.i.i.i.i = phi i32 [ %4, %if.then.i.i.i.i.i.i.i.i.i ], [ %7, %if.else.i.i.i.i.i.i.i.i.i ]
  %cmp6.i.i.i.i.i.i.i.i = icmp eq i32 %retval.i.0.i.i.i.i.i.i.i.i, 1
  br i1 %cmp6.i.i.i.i.i.i.i.i, label %if.then7.i.i.i.i.i.i.i.i, label %_ZSt8_DestroyISt10shared_ptrIKN8facebook5velox4TypeEEEvPT_.exit.i.i.i

if.then7.i.i.i.i.i.i.i.i:                         ; preds = %_ZN9__gnu_cxx27__exchange_and_add_dispatchEPii.exit.i.i.i.i.i.i.i.i
  %vtable.i.i.i.i.i.i.i.i.i.i = load ptr, ptr %2, align 8
  %vfn.i.i.i.i.i.i.i.i.i.i = getelementptr inbounds ptr, ptr %vtable.i.i.i.i.i.i.i.i.i.i, i64 2
  %8 = load ptr, ptr %vfn.i.i.i.i.i.i.i.i.i.i, align 8
  tail call void %8(ptr noundef nonnull align 8 dereferenceable(16) %2) #37
  %_M_weak_count.i.i.i.i.i.i.i.i.i.i = getelementptr inbounds %"class.std::_Sp_counted_base", ptr %2, i64 0, i32 2
  %9 = load i8, ptr @__libc_single_threaded, align 1
  %tobool.i.i.not.i.i.i.i.i.i.i.i.i.i = icmp eq i8 %9, 0
  br i1 %tobool.i.i.not.i.i.i.i.i.i.i.i.i.i, label %if.else.i.i.i.i.i.i.i.i.i.i.i, label %if.then.i.i.i.i.i.i.i.i.i.i.i

if.then.i.i.i.i.i.i.i.i.i.i.i:                    ; preds = %if.then7.i.i.i.i.i.i.i.i
  %10 = load i32, ptr %_M_weak_count.i.i.i.i.i.i.i.i.i.i, align 4
  %add.i.i.i.i.i.i.i.i.i.i.i = add nsw i32 %10, -1
  store i32 %add.i.i.i.i.i.i.i.i.i.i.i, ptr %_M_weak_count.i.i.i.i.i.i.i.i.i.i, align 4
  br label %_ZN9__gnu_cxx27__exchange_and_add_dispatchEPii.exit.i.i.i.i.i.i.i.i.i.i

if.else.i.i.i.i.i.i.i.i.i.i.i:                    ; preds = %if.then7.i.i.i.i.i.i.i.i
  %11 = atomicrmw volatile add ptr %_M_weak_count.i.i.i.i.i.i.i.i.i.i, i32 -1 acq_rel, align 4
  br label %_ZN9__gnu_cxx27__exchange_and_add_dispatchEPii.exit.i.i.i.i.i.i.i.i.i.i

_ZN9__gnu_cxx27__exchange_and_add_dispatchEPii.exit.i.i.i.i.i.i.i.i.i.i: ; preds = %if.else.i.i.i.i.i.i.i.i.i.i.i, %if.then.i.i.i.i.i.i.i.i.i.i.i
  %retval.i.0.i.i.i.i.i.i.i.i.i.i = phi i32 [ %10, %if.then.i.i.i.i.i.i.i.i.i.i.i ], [ %11, %if.else.i.i.i.i.i.i.i.i.i.i.i ]
  %cmp.i.i.i.i.i.i.i.i.i.i = icmp eq i32 %retval.i.0.i.i.i.i.i.i.i.i.i.i, 1
  br i1 %cmp.i.i.i.i.i.i.i.i.i.i, label %if.end8.sink.split.i.i.i.i.i.i.i.i, label %_ZSt8_DestroyISt10shared_ptrIKN8facebook5velox4TypeEEEvPT_.exit.i.i.i

if.end8.sink.split.i.i.i.i.i.i.i.i:               ; preds = %_ZN9__gnu_cxx27__exchange_and_add_dispatchEPii.exit.i.i.i.i.i.i.i.i.i.i, %if.then.i.i.i.i.i.i.i.i
  %vtable2.i.i.i.i.i.i.i.i.i.i = load ptr, ptr %2, align 8
  %vfn3.i.i.i.i.i.i.i.i.i.i = getelementptr inbounds ptr, ptr %vtable2.i.i.i.i.i.i.i.i.i.i, i64 3
  %12 = load ptr, ptr %vfn3.i.i.i.i.i.i.i.i.i.i, align 8
  tail call void %12(ptr noundef nonnull align 8 dereferenceable(16) %2) #37
  br label %_ZSt8_DestroyISt10shared_ptrIKN8facebook5velox4TypeEEEvPT_.exit.i.i.i

_ZSt8_DestroyISt10shared_ptrIKN8facebook5velox4TypeEEEvPT_.exit.i.i.i: ; preds = %if.end8.sink.split.i.i.i.i.i.i.i.i, %_ZN9__gnu_cxx27__exchange_and_add_dispatchEPii.exit.i.i.i.i.i.i.i.i.i.i, %_ZN9__gnu_cxx27__exchange_and_add_dispatchEPii.exit.i.i.i.i.i.i.i.i, %for.body.i.i.i
  %incdec.ptr.i.i.i = getelementptr inbounds %"class.std::shared_ptr", ptr %__first.addr.04.i.i.i, i64 1
  %cmp.not.i.i.i = icmp eq ptr %incdec.ptr.i.i.i, %1
  br i1 %cmp.not.i.i.i, label %invoke.contthread-pre-split, label %for.body.i.i.i, !llvm.loop !10

invoke.contthread-pre-split:                      ; preds = %_ZSt8_DestroyISt10shared_ptrIKN8facebook5velox4TypeEEEvPT_.exit.i.i.i
  %.pr = load ptr, ptr %this, align 8
  br label %invoke.cont

invoke.cont:                                      ; preds = %invoke.contthread-pre-split, %entry
  %13 = phi ptr [ %.pr, %invoke.contthread-pre-split ], [ %0, %entry ]
  %tobool.not.i.i = icmp eq ptr %13, null
  br i1 %tobool.not.i.i, label %_ZNSt12_Vector_baseISt10shared_ptrIKN8facebook5velox4TypeEESaIS5_EED2Ev.exit, label %if.then.i.i

if.then.i.i:                                      ; preds = %invoke.cont
  tail call void @_ZdlPv(ptr noundef nonnull %13) #38
  br label %_ZNSt12_Vector_baseISt10shared_ptrIKN8facebook5velox4TypeEESaIS5_EED2Ev.exit

_ZNSt12_Vector_baseISt10shared_ptrIKN8facebook5velox4TypeEESaIS5_EED2Ev.exit: ; preds = %invoke.cont, %if.then.i.i
  ret void
}

; Function Attrs: mustprogress uwtable
define void @_ZN8facebook5velox7DECIMALEhh(ptr noalias nocapture writeonly sret(%"class.std::shared_ptr") align 8 %agg.result, i8 noundef zeroext %precision, i8 noundef zeroext %scale) local_unnamed_addr #0 personality ptr @__gxx_personality_v0 {
entry:
  %cmp = icmp ult i8 %precision, 19
  %call5.i.i.i3.i.i.i.i = tail call noalias noundef nonnull dereferenceable(64) ptr @_Znwm(i64 noundef 64) #41, !noalias !30
  %_M_use_count.i.i.i.i.i.i = getelementptr inbounds %"class.std::_Sp_counted_base", ptr %call5.i.i.i3.i.i.i.i, i64 0, i32 1
  store i32 1, ptr %_M_use_count.i.i.i.i.i.i, align 8, !noalias !30
  %_M_weak_count.i.i.i.i.i.i = getelementptr inbounds %"class.std::_Sp_counted_base", ptr %call5.i.i.i3.i.i.i.i, i64 0, i32 2
  store i32 1, ptr %_M_weak_count.i.i.i.i.i.i, align 4, !noalias !30
  br i1 %cmp, label %if.then, label %if.end

if.then:                                          ; preds = %entry
  store ptr getelementptr inbounds ({ [7 x ptr] }, ptr @_ZTVSt23_Sp_counted_ptr_inplaceIN8facebook5velox16ShortDecimalTypeESaIvELN9__gnu_cxx12_Lock_policyE2EE, i64 0, inrange i32 0, i64 2), ptr %call5.i.i.i3.i.i.i.i, align 8, !noalias !31
  %_M_impl.i.i.i.i.i.i = getelementptr inbounds %"class.std::_Sp_counted_ptr_inplace.754", ptr %call5.i.i.i3.i.i.i.i, i64 0, i32 1
  invoke void @_ZN8facebook5velox11DecimalTypeILNS0_8TypeKindE4EEC2Ehh(ptr noundef nonnull align 8 dereferenceable(48) %_M_impl.i.i.i.i.i.i, i8 noundef zeroext %precision, i8 noundef zeroext %scale)
          to label %_ZNSt10shared_ptrIN8facebook5velox16ShortDecimalTypeEED2Ev.exit unwind label %_ZNSt15__allocated_ptrISaISt23_Sp_counted_ptr_inplaceIN8facebook5velox16ShortDecimalTypeESaIvELN9__gnu_cxx12_Lock_policyE2EEEED2Ev.exit9.i.i.i.i, !noalias !31

common.resume:                                    ; preds = %_ZNSt15__allocated_ptrISaISt23_Sp_counted_ptr_inplaceIN8facebook5velox15LongDecimalTypeESaIvELN9__gnu_cxx12_Lock_policyE2EEEED2Ev.exit9.i.i.i.i, %_ZNSt15__allocated_ptrISaISt23_Sp_counted_ptr_inplaceIN8facebook5velox16ShortDecimalTypeESaIvELN9__gnu_cxx12_Lock_policyE2EEEED2Ev.exit9.i.i.i.i
  %common.resume.op = phi { ptr, i32 } [ %0, %_ZNSt15__allocated_ptrISaISt23_Sp_counted_ptr_inplaceIN8facebook5velox16ShortDecimalTypeESaIvELN9__gnu_cxx12_Lock_policyE2EEEED2Ev.exit9.i.i.i.i ], [ %1, %_ZNSt15__allocated_ptrISaISt23_Sp_counted_ptr_inplaceIN8facebook5velox15LongDecimalTypeESaIvELN9__gnu_cxx12_Lock_policyE2EEEED2Ev.exit9.i.i.i.i ]
  tail call void @_ZdlPv(ptr noundef nonnull %call5.i.i.i3.i.i.i.i) #38, !noalias !30
  resume { ptr, i32 } %common.resume.op

_ZNSt15__allocated_ptrISaISt23_Sp_counted_ptr_inplaceIN8facebook5velox16ShortDecimalTypeESaIvELN9__gnu_cxx12_Lock_policyE2EEEED2Ev.exit9.i.i.i.i: ; preds = %if.then
  %0 = landingpad { ptr, i32 }
          cleanup
  br label %common.resume

_ZNSt10shared_ptrIN8facebook5velox16ShortDecimalTypeEED2Ev.exit: ; preds = %if.then
  store ptr getelementptr inbounds ({ [18 x ptr], [5 x ptr] }, ptr @_ZTVN8facebook5velox16ShortDecimalTypeE, i64 0, inrange i32 0, i64 2), ptr %_M_impl.i.i.i.i.i.i, align 8, !noalias !31
  %add.ptr.i.i.i.i.i.i.i.i = getelementptr inbounds %"class.std::_Sp_counted_ptr_inplace.754", ptr %call5.i.i.i3.i.i.i.i, i64 0, i32 1, i32 0, i32 0, i32 0, i64 8
  store ptr getelementptr inbounds ({ [18 x ptr], [5 x ptr] }, ptr @_ZTVN8facebook5velox16ShortDecimalTypeE, i64 0, inrange i32 1, i64 2), ptr %add.ptr.i.i.i.i.i.i.i.i, align 8, !noalias !31
  br label %return

if.end:                                           ; preds = %entry
  store ptr getelementptr inbounds ({ [7 x ptr] }, ptr @_ZTVSt23_Sp_counted_ptr_inplaceIN8facebook5velox15LongDecimalTypeESaIvELN9__gnu_cxx12_Lock_policyE2EE, i64 0, inrange i32 0, i64 2), ptr %call5.i.i.i3.i.i.i.i, align 8, !noalias !34
  %_M_impl.i.i.i.i.i.i6 = getelementptr inbounds %"class.std::_Sp_counted_ptr_inplace.763", ptr %call5.i.i.i3.i.i.i.i, i64 0, i32 1
  invoke void @_ZN8facebook5velox11DecimalTypeILNS0_8TypeKindE10EEC2Ehh(ptr noundef nonnull align 8 dereferenceable(48) %_M_impl.i.i.i.i.i.i6, i8 noundef zeroext %precision, i8 noundef zeroext %scale)
          to label %_ZNSt10shared_ptrIN8facebook5velox15LongDecimalTypeEED2Ev.exit unwind label %_ZNSt15__allocated_ptrISaISt23_Sp_counted_ptr_inplaceIN8facebook5velox15LongDecimalTypeESaIvELN9__gnu_cxx12_Lock_policyE2EEEED2Ev.exit9.i.i.i.i, !noalias !34

_ZNSt15__allocated_ptrISaISt23_Sp_counted_ptr_inplaceIN8facebook5velox15LongDecimalTypeESaIvELN9__gnu_cxx12_Lock_policyE2EEEED2Ev.exit9.i.i.i.i: ; preds = %if.end
  %1 = landingpad { ptr, i32 }
          cleanup
  br label %common.resume

_ZNSt10shared_ptrIN8facebook5velox15LongDecimalTypeEED2Ev.exit: ; preds = %if.end
  store ptr getelementptr inbounds ({ [18 x ptr], [5 x ptr] }, ptr @_ZTVN8facebook5velox15LongDecimalTypeE, i64 0, inrange i32 0, i64 2), ptr %_M_impl.i.i.i.i.i.i6, align 8, !noalias !34
  %add.ptr.i.i.i.i.i.i.i.i8 = getelementptr inbounds %"class.std::_Sp_counted_ptr_inplace.763", ptr %call5.i.i.i3.i.i.i.i, i64 0, i32 1, i32 0, i32 0, i32 0, i64 8
  store ptr getelementptr inbounds ({ [18 x ptr], [5 x ptr] }, ptr @_ZTVN8facebook5velox15LongDecimalTypeE, i64 0, inrange i32 1, i64 2), ptr %add.ptr.i.i.i.i.i.i.i.i8, align 8, !noalias !34
  br label %return

return:                                           ; preds = %_ZNSt10shared_ptrIN8facebook5velox15LongDecimalTypeEED2Ev.exit, %_ZNSt10shared_ptrIN8facebook5velox16ShortDecimalTypeEED2Ev.exit
  %_M_impl.i.i.i.i.i.i6.sink = phi ptr [ %_M_impl.i.i.i.i.i.i6, %_ZNSt10shared_ptrIN8facebook5velox15LongDecimalTypeEED2Ev.exit ], [ %_M_impl.i.i.i.i.i.i, %_ZNSt10shared_ptrIN8facebook5velox16ShortDecimalTypeEED2Ev.exit ]
  store ptr %_M_impl.i.i.i.i.i.i6.sink, ptr %agg.result, align 8
  %_M_refcount.i.i9 = getelementptr inbounds %"class.std::__shared_ptr", ptr %agg.result, i64 0, i32 1
  store ptr %call5.i.i.i3.i.i.i.i, ptr %_M_refcount.i.i9, align 8
  ret void
}

; Function Attrs: mustprogress uwtable
define noundef zeroext i1 @_ZN8facebook5velox16customTypeExistsERKNSt7__cxx1112basic_stringIcSt11char_traitsIcESaIcEEE(ptr noundef nonnull align 8 dereferenceable(32) %name) local_unnamed_addr #0 personality ptr @__gxx_personality_v0 {
entry:
  %uppercaseName = alloca %"class.std::__cxx11::basic_string", align 8
  %ref.tmp = alloca %"class.std::locale", align 8
  call void @_ZNSt6localeC1Ev(ptr noundef nonnull align 8 dereferenceable(8) %ref.tmp) #37
  invoke void @_ZN5boost9algorithm6detail20transform_range_copyINSt7__cxx1112basic_stringIcSt11char_traitsIcESaIcEEES8_NS1_9to_upperFIcEEEET_RKT0_T1_(ptr nonnull sret(%"class.std::__cxx11::basic_string") align 8 %uppercaseName, ptr noundef nonnull align 8 dereferenceable(32) %name, ptr nonnull %ref.tmp)
          to label %invoke.cont unwind label %lpad

invoke.cont:                                      ; preds = %entry
  call void @_ZNSt6localeD1Ev(ptr noundef nonnull align 8 dereferenceable(8) %ref.tmp) #37
  %0 = load atomic i8, ptr @_ZGVZN8facebook5velox12_GLOBAL__N_113typeFactoriesB5cxx11EvE9factoriesB5cxx11 acquire, align 8
  %guard.uninitialized.i = icmp eq i8 %0, 0
  br i1 %guard.uninitialized.i, label %init.check.i, label %_ZN8facebook5velox12_GLOBAL__N_113typeFactoriesB5cxx11Ev.exit, !prof !4

init.check.i:                                     ; preds = %invoke.cont
  %1 = call i32 @__cxa_guard_acquire(ptr nonnull @_ZGVZN8facebook5velox12_GLOBAL__N_113typeFactoriesB5cxx11EvE9factoriesB5cxx11) #37
  %tobool.not.i = icmp eq i32 %1, 0
  br i1 %tobool.not.i, label %_ZN8facebook5velox12_GLOBAL__N_113typeFactoriesB5cxx11Ev.exit, label %init.i

init.i:                                           ; preds = %init.check.i
  store ptr getelementptr inbounds (%"class.std::unordered_map.252", ptr @_ZZN8facebook5velox12_GLOBAL__N_113typeFactoriesB5cxx11EvE9factoriesB5cxx11, i64 0, i32 0, i32 5), ptr @_ZZN8facebook5velox12_GLOBAL__N_113typeFactoriesB5cxx11EvE9factoriesB5cxx11, align 8
  store i64 1, ptr getelementptr inbounds (%"class.std::unordered_map.252", ptr @_ZZN8facebook5velox12_GLOBAL__N_113typeFactoriesB5cxx11EvE9factoriesB5cxx11, i64 0, i32 0, i32 1), align 8
  call void @llvm.memset.p0.i64(ptr noundef nonnull align 8 dereferenceable(16) getelementptr inbounds (%"class.std::unordered_map.252", ptr @_ZZN8facebook5velox12_GLOBAL__N_113typeFactoriesB5cxx11EvE9factoriesB5cxx11, i64 0, i32 0, i32 2), i8 0, i64 16, i1 false)
  store float 1.000000e+00, ptr getelementptr inbounds (%"class.std::unordered_map.252", ptr @_ZZN8facebook5velox12_GLOBAL__N_113typeFactoriesB5cxx11EvE9factoriesB5cxx11, i64 0, i32 0, i32 4), align 8
  call void @llvm.memset.p0.i64(ptr noundef nonnull align 8 dereferenceable(16) getelementptr inbounds (%"class.std::unordered_map.252", ptr @_ZZN8facebook5velox12_GLOBAL__N_113typeFactoriesB5cxx11EvE9factoriesB5cxx11, i64 0, i32 0, i32 4, i32 1), i8 0, i64 16, i1 false)
  %2 = call i32 @__cxa_atexit(ptr nonnull @_ZNSt13unordered_mapINSt7__cxx1112basic_stringIcSt11char_traitsIcESaIcEEESt10unique_ptrIKN8facebook5velox19CustomTypeFactoriesESt14default_deleteISA_EESt4hashIS5_ESt8equal_toIS5_ESaISt4pairIKS5_SD_EEED2Ev, ptr nonnull @_ZZN8facebook5velox12_GLOBAL__N_113typeFactoriesB5cxx11EvE9factoriesB5cxx11, ptr nonnull @__dso_handle) #37
  call void @__cxa_guard_release(ptr nonnull @_ZGVZN8facebook5velox12_GLOBAL__N_113typeFactoriesB5cxx11EvE9factoriesB5cxx11) #37
  br label %_ZN8facebook5velox12_GLOBAL__N_113typeFactoriesB5cxx11Ev.exit

_ZN8facebook5velox12_GLOBAL__N_113typeFactoriesB5cxx11Ev.exit: ; preds = %invoke.cont, %init.check.i, %init.i
  %call.i.i2 = invoke ptr @_ZNKSt10_HashtableINSt7__cxx1112basic_stringIcSt11char_traitsIcESaIcEEESt4pairIKS5_St10unique_ptrIKN8facebook5velox19CustomTypeFactoriesESt14default_deleteISC_EEESaISG_ENSt8__detail10_Select1stESt8equal_toIS5_ESt4hashIS5_ENSI_18_Mod_range_hashingENSI_20_Default_ranged_hashENSI_20_Prime_rehash_policyENSI_17_Hashtable_traitsILb1ELb0ELb1EEEE4findERS7_(ptr noundef nonnull align 8 dereferenceable(56) @_ZZN8facebook5velox12_GLOBAL__N_113typeFactoriesB5cxx11EvE9factoriesB5cxx11, ptr noundef nonnull align 8 dereferenceable(32) %uppercaseName)
          to label %invoke.cont3 unwind label %lpad1

invoke.cont3:                                     ; preds = %_ZN8facebook5velox12_GLOBAL__N_113typeFactoriesB5cxx11Ev.exit
  %tobool.not.i.i = icmp ne ptr %call.i.i2, null
  call void @_ZNSt7__cxx1112basic_stringIcSt11char_traitsIcESaIcEED1Ev(ptr noundef nonnull align 8 dereferenceable(32) %uppercaseName) #37
  ret i1 %tobool.not.i.i

lpad:                                             ; preds = %entry
  %3 = landingpad { ptr, i32 }
          cleanup
  call void @_ZNSt6localeD1Ev(ptr noundef nonnull align 8 dereferenceable(8) %ref.tmp) #37
  br label %eh.resume

lpad1:                                            ; preds = %_ZN8facebook5velox12_GLOBAL__N_113typeFactoriesB5cxx11Ev.exit
  %4 = landingpad { ptr, i32 }
          cleanup
  call void @_ZNSt7__cxx1112basic_stringIcSt11char_traitsIcESaIcEED1Ev(ptr noundef nonnull align 8 dereferenceable(32) %uppercaseName) #37
  br label %eh.resume

eh.resume:                                        ; preds = %lpad1, %lpad
  %.pn = phi { ptr, i32 } [ %4, %lpad1 ], [ %3, %lpad ]
  resume { ptr, i32 } %.pn
}

; Function Attrs: mustprogress uwtable
define void @_ZN8facebook5velox13getCustomTypeERKNSt7__cxx1112basic_stringIcSt11char_traitsIcESaIcEEE(ptr noalias sret(%"class.std::shared_ptr") align 8 %agg.result, ptr noundef nonnull align 8 dereferenceable(32) %name) local_unnamed_addr #0 {
entry:
  %call = tail call noundef ptr @_ZN8facebook5velox16getTypeFactoriesERKNSt7__cxx1112basic_stringIcSt11char_traitsIcESaIcEEE(ptr noundef nonnull align 8 dereferenceable(32) %name)
  %tobool.not = icmp eq ptr %call, null
  br i1 %tobool.not, label %if.end, label %if.then

if.then:                                          ; preds = %entry
  %vtable = load ptr, ptr %call, align 8
  %vfn = getelementptr inbounds ptr, ptr %vtable, i64 2
  %0 = load ptr, ptr %vfn, align 8
  tail call void %0(ptr sret(%"class.std::shared_ptr") align 8 %agg.result, ptr noundef nonnull align 8 dereferenceable(8) %call)
  br label %return

if.end:                                           ; preds = %entry
  tail call void @llvm.memset.p0.i64(ptr noundef nonnull align 8 dereferenceable(16) %agg.result, i8 0, i64 16, i1 false)
  br label %return

return:                                           ; preds = %if.end, %if.then
  ret void
}

; Function Attrs: mustprogress nounwind uwtable
define linkonce_odr void @_ZNSt6vectorINSt7__cxx1112basic_stringIcSt11char_traitsIcESaIcEEESaIS5_EED2Ev(ptr noundef nonnull align 8 dereferenceable(24) %this) unnamed_addr #2 comdat align 2 personality ptr @__gxx_personality_v0 {
entry:
  %0 = load ptr, ptr %this, align 8
  %_M_finish = getelementptr inbounds %"struct.std::_Vector_base<std::__cxx11::basic_string<char>, std::allocator<std::__cxx11::basic_string<char>>>::_Vector_impl_data", ptr %this, i64 0, i32 1
  %1 = load ptr, ptr %_M_finish, align 8
  %cmp.not3.i.i.i = icmp eq ptr %0, %1
  br i1 %cmp.not3.i.i.i, label %invoke.cont, label %for.body.i.i.i

for.body.i.i.i:                                   ; preds = %entry, %for.body.i.i.i
  %__first.addr.04.i.i.i = phi ptr [ %incdec.ptr.i.i.i, %for.body.i.i.i ], [ %0, %entry ]
  tail call void @_ZNSt7__cxx1112basic_stringIcSt11char_traitsIcESaIcEED1Ev(ptr noundef nonnull align 8 dereferenceable(32) %__first.addr.04.i.i.i) #37
  %incdec.ptr.i.i.i = getelementptr inbounds %"class.std::__cxx11::basic_string", ptr %__first.addr.04.i.i.i, i64 1
  %cmp.not.i.i.i = icmp eq ptr %incdec.ptr.i.i.i, %1
  br i1 %cmp.not.i.i.i, label %invoke.contthread-pre-split, label %for.body.i.i.i, !llvm.loop !26

invoke.contthread-pre-split:                      ; preds = %for.body.i.i.i
  %.pr = load ptr, ptr %this, align 8
  br label %invoke.cont

invoke.cont:                                      ; preds = %invoke.contthread-pre-split, %entry
  %2 = phi ptr [ %.pr, %invoke.contthread-pre-split ], [ %0, %entry ]
  %tobool.not.i.i = icmp eq ptr %2, null
  br i1 %tobool.not.i.i, label %_ZNSt12_Vector_baseINSt7__cxx1112basic_stringIcSt11char_traitsIcESaIcEEESaIS5_EED2Ev.exit, label %if.then.i.i

if.then.i.i:                                      ; preds = %invoke.cont
  tail call void @_ZdlPv(ptr noundef nonnull %2) #38
  br label %_ZNSt12_Vector_baseINSt7__cxx1112basic_stringIcSt11char_traitsIcESaIcEEESaIS5_EED2Ev.exit

_ZNSt12_Vector_baseINSt7__cxx1112basic_stringIcSt11char_traitsIcESaIcEEESaIS5_EED2Ev.exit: ; preds = %invoke.cont, %if.then.i.i
  ret void
}

; Function Attrs: mustprogress uwtable
define void @_ZN8facebook5velox10createTypeENS0_8TypeKindEOSt6vectorISt10shared_ptrIKNS0_4TypeEESaIS6_EE(ptr noalias sret(%"class.std::shared_ptr") align 8 %agg.result, i8 noundef signext %kind, ptr noundef nonnull align 8 dereferenceable(24) %children) local_unnamed_addr #0 personality ptr @__gxx_personality_v0 {
entry:
  %name.i.i = alloca %"class.std::__cxx11::basic_string", align 8
  %ref.tmp.i.i = alloca %"class.std::allocator.2", align 1
  %argTypes = alloca %"class.std::vector.44", align 8
  switch i8 %kind, label %sw.default.i [
    i8 34, label %if.then
    i8 33, label %if.then22
    i8 0, label %sw.bb.i
    i8 3, label %sw.bb2.i
    i8 1, label %sw.bb3.i
    i8 2, label %sw.bb4.i
    i8 4, label %sw.bb5.i
    i8 10, label %sw.bb6.i
    i8 5, label %sw.bb7.i
    i8 6, label %sw.bb8.i
    i8 7, label %sw.bb9.i
    i8 8, label %sw.bb10.i
    i8 9, label %sw.bb11.i
    i8 30, label %sw.bb12.i
    i8 31, label %sw.bb13.i
    i8 32, label %sw.bb14.i
  ]

if.then:                                          ; preds = %entry
  %_M_finish.i = getelementptr inbounds %"struct.std::_Vector_base<std::shared_ptr<const facebook::velox::Type>, std::allocator<std::shared_ptr<const facebook::velox::Type>>>::_Vector_impl_data", ptr %children, i64 0, i32 1
  %0 = load ptr, ptr %_M_finish.i, align 8
  %1 = load ptr, ptr %children, align 8
  %cmp1.not = icmp eq ptr %0, %1
  br i1 %cmp1.not, label %if.then2, label %if.end

if.then2:                                         ; preds = %if.then
  tail call void @llvm.trap()
  unreachable

if.end:                                           ; preds = %if.then
  %sub.ptr.rhs.cast.i = ptrtoint ptr %1 to i64
  %sub.ptr.lhs.cast.i = ptrtoint ptr %0 to i64
  %sub.ptr.sub.i = sub i64 %sub.ptr.lhs.cast.i, %sub.ptr.rhs.cast.i
  %sub.ptr.div.i = ashr exact i64 %sub.ptr.sub.i, 4
  %add.ptr.i = getelementptr inbounds %"class.std::shared_ptr", ptr %1, i64 %sub.ptr.div.i
  %add.ptr.i14 = getelementptr inbounds %"class.std::shared_ptr", ptr %add.ptr.i, i64 -1
  call void @llvm.memset.p0.i64(ptr noundef nonnull align 8 dereferenceable(24) %argTypes, i8 0, i64 24, i1 false)
  %sub.ptr.lhs.cast.i.i.i.i.i = ptrtoint ptr %add.ptr.i14 to i64
  %sub.ptr.sub.i.i.i.i.i = sub i64 %sub.ptr.lhs.cast.i.i.i.i.i, %sub.ptr.rhs.cast.i
  %sub.ptr.div.i.i.i.i.i = ashr exact i64 %sub.ptr.sub.i.i.i.i.i, 4
  %cmp.i.i.i = icmp ugt i64 %sub.ptr.div.i.i.i.i.i, 576460752303423487
  br i1 %cmp.i.i.i, label %if.then.i.i.i, label %_ZNSt6vectorISt10shared_ptrIKN8facebook5velox4TypeEESaIS5_EE17_S_check_init_lenEmRKS6_.exit.i.i

if.then.i.i.i:                                    ; preds = %if.end
  tail call void @_ZSt20__throw_length_errorPKc(ptr noundef nonnull @.str.76) #39
  unreachable

_ZNSt6vectorISt10shared_ptrIKN8facebook5velox4TypeEESaIS5_EE17_S_check_init_lenEmRKS6_.exit.i.i: ; preds = %if.end
  %cmp.not.i.i.i = icmp eq ptr %add.ptr.i14, %1
  br i1 %cmp.not.i.i.i, label %_ZNSt12_Vector_baseISt10shared_ptrIKN8facebook5velox4TypeEESaIS5_EE11_M_allocateEm.exit.thread.i.i, label %for.body.i.i.i.i.preheader.i.i

_ZNSt12_Vector_baseISt10shared_ptrIKN8facebook5velox4TypeEESaIS5_EE11_M_allocateEm.exit.thread.i.i: ; preds = %_ZNSt6vectorISt10shared_ptrIKN8facebook5velox4TypeEESaIS5_EE17_S_check_init_lenEmRKS6_.exit.i.i
  %add.ptr3.i.i = getelementptr inbounds %"class.std::shared_ptr", ptr null, i64 %sub.ptr.div.i.i.i.i.i
  %_M_end_of_storage4.i.i = getelementptr inbounds %"struct.std::_Vector_base<std::shared_ptr<const facebook::velox::Type>, std::allocator<std::shared_ptr<const facebook::velox::Type>>>::_Vector_impl_data", ptr %argTypes, i64 0, i32 2
  store ptr %add.ptr3.i.i, ptr %_M_end_of_storage4.i.i, align 8
  br label %invoke.cont

for.body.i.i.i.i.preheader.i.i:                   ; preds = %_ZNSt6vectorISt10shared_ptrIKN8facebook5velox4TypeEESaIS5_EE17_S_check_init_lenEmRKS6_.exit.i.i
  %call5.i.i.i.i1.i = tail call noalias noundef nonnull ptr @_Znwm(i64 noundef %sub.ptr.sub.i.i.i.i.i) #41
  store ptr %call5.i.i.i.i1.i, ptr %argTypes, align 8
  %add.ptr.i.i = getelementptr inbounds %"class.std::shared_ptr", ptr %call5.i.i.i.i1.i, i64 %sub.ptr.div.i.i.i.i.i
  %_M_end_of_storage.i.i = getelementptr inbounds %"struct.std::_Vector_base<std::shared_ptr<const facebook::velox::Type>, std::allocator<std::shared_ptr<const facebook::velox::Type>>>::_Vector_impl_data", ptr %argTypes, i64 0, i32 2
  store ptr %add.ptr.i.i, ptr %_M_end_of_storage.i.i, align 8
  br label %for.body.i.i.i.i.i.i

for.body.i.i.i.i.i.i:                             ; preds = %_ZSt10_ConstructISt10shared_ptrIKN8facebook5velox4TypeEEJRS5_EEvPT_DpOT0_.exit.i.i.i.i.i.i, %for.body.i.i.i.i.preheader.i.i
  %__cur.07.i.i.i.i.i.i = phi ptr [ %incdec.ptr.i.i.i.i.i.i, %_ZSt10_ConstructISt10shared_ptrIKN8facebook5velox4TypeEEJRS5_EEvPT_DpOT0_.exit.i.i.i.i.i.i ], [ %call5.i.i.i.i1.i, %for.body.i.i.i.i.preheader.i.i ]
  %__first.sroa.0.06.i.i.i.i.i.i = phi ptr [ %incdec.ptr.i.i.i.i.i.i.i, %_ZSt10_ConstructISt10shared_ptrIKN8facebook5velox4TypeEEJRS5_EEvPT_DpOT0_.exit.i.i.i.i.i.i ], [ %1, %for.body.i.i.i.i.preheader.i.i ]
  %2 = load ptr, ptr %__first.sroa.0.06.i.i.i.i.i.i, align 8
  store ptr %2, ptr %__cur.07.i.i.i.i.i.i, align 8
  %_M_refcount.i.i.i.i.i.i.i.i.i = getelementptr inbounds %"class.std::__shared_ptr", ptr %__cur.07.i.i.i.i.i.i, i64 0, i32 1
  %_M_refcount3.i.i.i.i.i.i.i.i.i = getelementptr inbounds %"class.std::__shared_ptr", ptr %__first.sroa.0.06.i.i.i.i.i.i, i64 0, i32 1
  %3 = load ptr, ptr %_M_refcount3.i.i.i.i.i.i.i.i.i, align 8
  store ptr %3, ptr %_M_refcount.i.i.i.i.i.i.i.i.i, align 8
  %cmp.not.i.i.i.i.i.i.i.i.i.i = icmp eq ptr %3, null
  br i1 %cmp.not.i.i.i.i.i.i.i.i.i.i, label %_ZSt10_ConstructISt10shared_ptrIKN8facebook5velox4TypeEEJRS5_EEvPT_DpOT0_.exit.i.i.i.i.i.i, label %if.then.i.i.i.i.i.i.i.i.i.i

if.then.i.i.i.i.i.i.i.i.i.i:                      ; preds = %for.body.i.i.i.i.i.i
  %_M_use_count.i.i.i.i.i.i.i.i.i.i.i = getelementptr inbounds %"class.std::_Sp_counted_base", ptr %3, i64 0, i32 1
  %4 = load i8, ptr @__libc_single_threaded, align 1
  %tobool.i.not.i.i.i.i.i.i.i.i.i.i.i = icmp eq i8 %4, 0
  br i1 %tobool.i.not.i.i.i.i.i.i.i.i.i.i.i, label %if.else.i.i.i.i.i.i.i.i.i.i.i.i, label %if.then.i.i.i.i.i.i.i.i.i.i.i.i

if.then.i.i.i.i.i.i.i.i.i.i.i.i:                  ; preds = %if.then.i.i.i.i.i.i.i.i.i.i
  %5 = load i32, ptr %_M_use_count.i.i.i.i.i.i.i.i.i.i.i, align 4
  %add.i.i.i.i.i.i.i.i.i.i.i.i = add nsw i32 %5, 1
  store i32 %add.i.i.i.i.i.i.i.i.i.i.i.i, ptr %_M_use_count.i.i.i.i.i.i.i.i.i.i.i, align 4
  br label %_ZSt10_ConstructISt10shared_ptrIKN8facebook5velox4TypeEEJRS5_EEvPT_DpOT0_.exit.i.i.i.i.i.i

if.else.i.i.i.i.i.i.i.i.i.i.i.i:                  ; preds = %if.then.i.i.i.i.i.i.i.i.i.i
  %6 = atomicrmw volatile add ptr %_M_use_count.i.i.i.i.i.i.i.i.i.i.i, i32 1 acq_rel, align 4
  br label %_ZSt10_ConstructISt10shared_ptrIKN8facebook5velox4TypeEEJRS5_EEvPT_DpOT0_.exit.i.i.i.i.i.i

_ZSt10_ConstructISt10shared_ptrIKN8facebook5velox4TypeEEJRS5_EEvPT_DpOT0_.exit.i.i.i.i.i.i: ; preds = %if.else.i.i.i.i.i.i.i.i.i.i.i.i, %if.then.i.i.i.i.i.i.i.i.i.i.i.i, %for.body.i.i.i.i.i.i
  %incdec.ptr.i.i.i.i.i.i.i = getelementptr inbounds %"class.std::shared_ptr", ptr %__first.sroa.0.06.i.i.i.i.i.i, i64 1
  %incdec.ptr.i.i.i.i.i.i = getelementptr inbounds %"class.std::shared_ptr", ptr %__cur.07.i.i.i.i.i.i, i64 1
  %cmp.i.not.i.i.i.i.i.i = icmp eq ptr %incdec.ptr.i.i.i.i.i.i.i, %add.ptr.i14
  br i1 %cmp.i.not.i.i.i.i.i.i, label %invoke.cont.loopexit, label %for.body.i.i.i.i.i.i, !llvm.loop !37

invoke.cont.loopexit:                             ; preds = %_ZSt10_ConstructISt10shared_ptrIKN8facebook5velox4TypeEEJRS5_EEvPT_DpOT0_.exit.i.i.i.i.i.i
  %.pre = load ptr, ptr %_M_finish.i, align 8
  br label %invoke.cont

invoke.cont:                                      ; preds = %invoke.cont.loopexit, %_ZNSt12_Vector_baseISt10shared_ptrIKN8facebook5velox4TypeEESaIS5_EE11_M_allocateEm.exit.thread.i.i
  %7 = phi ptr [ %0, %_ZNSt12_Vector_baseISt10shared_ptrIKN8facebook5velox4TypeEESaIS5_EE11_M_allocateEm.exit.thread.i.i ], [ %.pre, %invoke.cont.loopexit ]
  %__cur.0.lcssa.i.i.i.i.i.i = phi ptr [ null, %_ZNSt12_Vector_baseISt10shared_ptrIKN8facebook5velox4TypeEESaIS5_EE11_M_allocateEm.exit.thread.i.i ], [ %incdec.ptr.i.i.i.i.i.i, %invoke.cont.loopexit ]
  %_M_finish.i.i = getelementptr inbounds %"struct.std::_Vector_base<std::shared_ptr<const facebook::velox::Type>, std::allocator<std::shared_ptr<const facebook::velox::Type>>>::_Vector_impl_data", ptr %argTypes, i64 0, i32 1
  store ptr %__cur.0.lcssa.i.i.i.i.i.i, ptr %_M_finish.i.i, align 8
  %call5.i.i.i3.i.i.i.i17 = invoke noalias noundef nonnull dereferenceable(88) ptr @_Znwm(i64 noundef 88) #41
          to label %call5.i.i.i3.i.i.i.i.noexc unwind label %lpad18

call5.i.i.i3.i.i.i.i.noexc:                       ; preds = %invoke.cont
  %add.ptr.i.i16 = getelementptr inbounds %"class.std::shared_ptr", ptr %7, i64 -1
  %_M_use_count.i.i.i.i.i.i = getelementptr inbounds %"class.std::_Sp_counted_base", ptr %call5.i.i.i3.i.i.i.i17, i64 0, i32 1
  store i32 1, ptr %_M_use_count.i.i.i.i.i.i, align 8, !noalias !38
  %_M_weak_count.i.i.i.i.i.i = getelementptr inbounds %"class.std::_Sp_counted_base", ptr %call5.i.i.i3.i.i.i.i17, i64 0, i32 2
  store i32 1, ptr %_M_weak_count.i.i.i.i.i.i, align 4, !noalias !38
  store ptr getelementptr inbounds ({ [7 x ptr] }, ptr @_ZTVSt23_Sp_counted_ptr_inplaceIN8facebook5velox12FunctionTypeESaIvELN9__gnu_cxx12_Lock_policyE2EE, i64 0, inrange i32 0, i64 2), ptr %call5.i.i.i3.i.i.i.i17, align 8, !noalias !38
  %_M_impl.i.i.i.i.i.i = getelementptr inbounds %"class.std::_Sp_counted_ptr_inplace.769", ptr %call5.i.i.i3.i.i.i.i17, i64 0, i32 1
  invoke void @_ZSt10_ConstructIN8facebook5velox12FunctionTypeEJSt6vectorISt10shared_ptrIKNS1_4TypeEESaIS7_EERS7_EEvPT_DpOT0_(ptr noundef nonnull %_M_impl.i.i.i.i.i.i, ptr noundef nonnull align 8 dereferenceable(24) %argTypes, ptr noundef nonnull align 8 dereferenceable(16) %add.ptr.i.i16)
          to label %_ZNSt10shared_ptrIN8facebook5velox12FunctionTypeEED2Ev.exit unwind label %_ZNSt15__allocated_ptrISaISt23_Sp_counted_ptr_inplaceIN8facebook5velox12FunctionTypeESaIvELN9__gnu_cxx12_Lock_policyE2EEEED2Ev.exit9.i.i.i.i, !noalias !38

_ZNSt15__allocated_ptrISaISt23_Sp_counted_ptr_inplaceIN8facebook5velox12FunctionTypeESaIvELN9__gnu_cxx12_Lock_policyE2EEEED2Ev.exit9.i.i.i.i: ; preds = %call5.i.i.i3.i.i.i.i.noexc
  %8 = landingpad { ptr, i32 }
          cleanup
  call void @_ZdlPv(ptr noundef nonnull %call5.i.i.i3.i.i.i.i17) #38, !noalias !38
  br label %lpad18.body

_ZNSt10shared_ptrIN8facebook5velox12FunctionTypeEED2Ev.exit: ; preds = %call5.i.i.i3.i.i.i.i.noexc
  store ptr %_M_impl.i.i.i.i.i.i, ptr %agg.result, align 8
  %_M_refcount.i.i = getelementptr inbounds %"class.std::__shared_ptr", ptr %agg.result, i64 0, i32 1
  store ptr %call5.i.i.i3.i.i.i.i17, ptr %_M_refcount.i.i, align 8
  %9 = load ptr, ptr %argTypes, align 8
  %10 = load ptr, ptr %_M_finish.i.i, align 8
  %cmp.not3.i.i.i.i = icmp eq ptr %9, %10
  br i1 %cmp.not3.i.i.i.i, label %invoke.cont.i, label %for.body.i.i.i.i

for.body.i.i.i.i:                                 ; preds = %_ZNSt10shared_ptrIN8facebook5velox12FunctionTypeEED2Ev.exit, %_ZSt8_DestroyISt10shared_ptrIKN8facebook5velox4TypeEEEvPT_.exit.i.i.i.i
  %__first.addr.04.i.i.i.i = phi ptr [ %incdec.ptr.i.i.i.i, %_ZSt8_DestroyISt10shared_ptrIKN8facebook5velox4TypeEEEvPT_.exit.i.i.i.i ], [ %9, %_ZNSt10shared_ptrIN8facebook5velox12FunctionTypeEED2Ev.exit ]
  %_M_refcount.i.i.i.i.i.i.i = getelementptr inbounds %"class.std::__shared_ptr", ptr %__first.addr.04.i.i.i.i, i64 0, i32 1
  %11 = load ptr, ptr %_M_refcount.i.i.i.i.i.i.i, align 8
  %cmp.not.i.i.i.i.i.i.i.i = icmp eq ptr %11, null
  br i1 %cmp.not.i.i.i.i.i.i.i.i, label %_ZSt8_DestroyISt10shared_ptrIKN8facebook5velox4TypeEEEvPT_.exit.i.i.i.i, label %if.then.i.i.i.i.i.i.i.i

if.then.i.i.i.i.i.i.i.i:                          ; preds = %for.body.i.i.i.i
  %_M_use_count.i.i.i.i.i.i.i.i.i = getelementptr inbounds %"class.std::_Sp_counted_base", ptr %11, i64 0, i32 1
  %12 = load atomic i64, ptr %_M_use_count.i.i.i.i.i.i.i.i.i acquire, align 8
  %cmp.i.i.i.i.i.i.i.i.i = icmp eq i64 %12, 4294967297
  %13 = trunc i64 %12 to i32
  br i1 %cmp.i.i.i.i.i.i.i.i.i, label %if.then.i.i.i.i.i.i.i.i.i, label %if.end.i.i.i.i.i.i.i.i.i

if.then.i.i.i.i.i.i.i.i.i:                        ; preds = %if.then.i.i.i.i.i.i.i.i
  store i32 0, ptr %_M_use_count.i.i.i.i.i.i.i.i.i, align 8
  %_M_weak_count.i.i.i.i.i.i.i.i.i = getelementptr inbounds %"class.std::_Sp_counted_base", ptr %11, i64 0, i32 2
  store i32 0, ptr %_M_weak_count.i.i.i.i.i.i.i.i.i, align 4
  %vtable.i.i.i.i.i.i.i.i.i = load ptr, ptr %11, align 8
  %vfn.i.i.i.i.i.i.i.i.i = getelementptr inbounds ptr, ptr %vtable.i.i.i.i.i.i.i.i.i, i64 2
  %14 = load ptr, ptr %vfn.i.i.i.i.i.i.i.i.i, align 8
  call void %14(ptr noundef nonnull align 8 dereferenceable(16) %11) #37
  br label %if.end8.sink.split.i.i.i.i.i.i.i.i.i

if.end.i.i.i.i.i.i.i.i.i:                         ; preds = %if.then.i.i.i.i.i.i.i.i
  %15 = load i8, ptr @__libc_single_threaded, align 1
  %tobool.i.i.not.i.i.i.i.i.i.i.i.i = icmp eq i8 %15, 0
  br i1 %tobool.i.i.not.i.i.i.i.i.i.i.i.i, label %if.else.i.i.i.i.i.i.i.i.i.i, label %if.then.i.i.i.i.i.i.i.i.i.i24

if.then.i.i.i.i.i.i.i.i.i.i24:                    ; preds = %if.end.i.i.i.i.i.i.i.i.i
  %add.i.i.i.i.i.i.i.i.i.i = add nsw i32 %13, -1
  store i32 %add.i.i.i.i.i.i.i.i.i.i, ptr %_M_use_count.i.i.i.i.i.i.i.i.i, align 4
  br label %_ZN9__gnu_cxx27__exchange_and_add_dispatchEPii.exit.i.i.i.i.i.i.i.i.i

if.else.i.i.i.i.i.i.i.i.i.i:                      ; preds = %if.end.i.i.i.i.i.i.i.i.i
  %16 = atomicrmw volatile add ptr %_M_use_count.i.i.i.i.i.i.i.i.i, i32 -1 acq_rel, align 4
  br label %_ZN9__gnu_cxx27__exchange_and_add_dispatchEPii.exit.i.i.i.i.i.i.i.i.i

_ZN9__gnu_cxx27__exchange_and_add_dispatchEPii.exit.i.i.i.i.i.i.i.i.i: ; preds = %if.else.i.i.i.i.i.i.i.i.i.i, %if.then.i.i.i.i.i.i.i.i.i.i24
  %retval.i.0.i.i.i.i.i.i.i.i.i = phi i32 [ %13, %if.then.i.i.i.i.i.i.i.i.i.i24 ], [ %16, %if.else.i.i.i.i.i.i.i.i.i.i ]
  %cmp6.i.i.i.i.i.i.i.i.i = icmp eq i32 %retval.i.0.i.i.i.i.i.i.i.i.i, 1
  br i1 %cmp6.i.i.i.i.i.i.i.i.i, label %if.then7.i.i.i.i.i.i.i.i.i, label %_ZSt8_DestroyISt10shared_ptrIKN8facebook5velox4TypeEEEvPT_.exit.i.i.i.i

if.then7.i.i.i.i.i.i.i.i.i:                       ; preds = %_ZN9__gnu_cxx27__exchange_and_add_dispatchEPii.exit.i.i.i.i.i.i.i.i.i
  %vtable.i.i.i.i.i.i.i.i.i.i.i = load ptr, ptr %11, align 8
  %vfn.i.i.i.i.i.i.i.i.i.i.i = getelementptr inbounds ptr, ptr %vtable.i.i.i.i.i.i.i.i.i.i.i, i64 2
  %17 = load ptr, ptr %vfn.i.i.i.i.i.i.i.i.i.i.i, align 8
  call void %17(ptr noundef nonnull align 8 dereferenceable(16) %11) #37
  %_M_weak_count.i.i.i.i.i.i.i.i.i.i.i = getelementptr inbounds %"class.std::_Sp_counted_base", ptr %11, i64 0, i32 2
  %18 = load i8, ptr @__libc_single_threaded, align 1
  %tobool.i.i.not.i.i.i.i.i.i.i.i.i.i.i = icmp eq i8 %18, 0
