target datalayout = "e-m:e-p270:32:32-p271:32:32-p272:64:64-i64:64-i128:128-f80:128-n8:16:32:64-S128"
target triple = "x86_64-unknown-linux-gnu"

%"class.std::ios_base::Init" = type { i8 }
%"struct.OpenImageIO_v2_6_0::TypeDesc" = type { i8, i8, i8, i8, i32 }
%"struct.fmt::v8::detail::dragonbox::divtest_table_entry" = type { i32, i32 }
%struct.anon = type { i32, i32, i32, i32 }
%struct.anon.104 = type { i32, i32, i32 }
%"struct.fmt::v8::detail::uint128_wrapper" = type { i128 }
%"struct.fmt::v8::detail::dragonbox::divtest_table_entry.105" = type { i64, i64 }
%struct.anon.106 = type { i32, i32, i32, i32 }
%struct.anon.107 = type { i32, i32, i32 }
%"class.OpenImageIO_v2_6_0::DPXInput" = type { %"class.OpenImageIO_v2_6_0::ImageInput", i32, ptr, %"class.dpx::Reader", %"class.std::vector.12", i8, %"class.std::vector.12" }
%"class.OpenImageIO_v2_6_0::ImageInput" = type { ptr, %"class.OpenImageIO_v2_6_0::ImageSpec", %"class.std::unique_ptr" }
%"class.OpenImageIO_v2_6_0::ImageSpec" = type { i32, i32, i32, i32, i32, i32, i32, i32, i32, i32, i32, i32, i32, i32, i32, i32, %"struct.OpenImageIO_v2_6_0::TypeDesc", %"class.std::vector", %"class.std::vector.0", i32, i32, i8, %"class.OpenImageIO_v2_6_0::ParamValueList" }
%"class.std::vector" = type { %"struct.std::_Vector_base" }
%"struct.std::_Vector_base" = type { %"struct.std::_Vector_base<OpenImageIO_v2_6_0::TypeDesc, std::allocator<OpenImageIO_v2_6_0::TypeDesc>>::_Vector_impl" }
%"struct.std::_Vector_base<OpenImageIO_v2_6_0::TypeDesc, std::allocator<OpenImageIO_v2_6_0::TypeDesc>>::_Vector_impl" = type { %"struct.std::_Vector_base<OpenImageIO_v2_6_0::TypeDesc, std::allocator<OpenImageIO_v2_6_0::TypeDesc>>::_Vector_impl_data" }
%"struct.std::_Vector_base<OpenImageIO_v2_6_0::TypeDesc, std::allocator<OpenImageIO_v2_6_0::TypeDesc>>::_Vector_impl_data" = type { ptr, ptr, ptr }
%"class.std::vector.0" = type { %"struct.std::_Vector_base.1" }
%"struct.std::_Vector_base.1" = type { %"struct.std::_Vector_base<std::__cxx11::basic_string<char>, std::allocator<std::__cxx11::basic_string<char>>>::_Vector_impl" }
%"struct.std::_Vector_base<std::__cxx11::basic_string<char>, std::allocator<std::__cxx11::basic_string<char>>>::_Vector_impl" = type { %"struct.std::_Vector_base<std::__cxx11::basic_string<char>, std::allocator<std::__cxx11::basic_string<char>>>::_Vector_impl_data" }
%"struct.std::_Vector_base<std::__cxx11::basic_string<char>, std::allocator<std::__cxx11::basic_string<char>>>::_Vector_impl_data" = type { ptr, ptr, ptr }
%"class.OpenImageIO_v2_6_0::ParamValueList" = type { %"class.std::vector.5" }
%"class.std::vector.5" = type { %"struct.std::_Vector_base.6" }
%"struct.std::_Vector_base.6" = type { %"struct.std::_Vector_base<OpenImageIO_v2_6_0::ParamValue, std::allocator<OpenImageIO_v2_6_0::ParamValue>>::_Vector_impl" }
%"struct.std::_Vector_base<OpenImageIO_v2_6_0::ParamValue, std::allocator<OpenImageIO_v2_6_0::ParamValue>>::_Vector_impl" = type { %"struct.std::_Vector_base<OpenImageIO_v2_6_0::ParamValue, std::allocator<OpenImageIO_v2_6_0::ParamValue>>::_Vector_impl_data" }
%"struct.std::_Vector_base<OpenImageIO_v2_6_0::ParamValue, std::allocator<OpenImageIO_v2_6_0::ParamValue>>::_Vector_impl_data" = type { ptr, ptr, ptr }
%"class.std::unique_ptr" = type { %"struct.std::__uniq_ptr_data" }
%"struct.std::__uniq_ptr_data" = type { %"class.std::__uniq_ptr_impl" }
%"class.std::__uniq_ptr_impl" = type { %"class.std::tuple" }
%"class.std::tuple" = type { %"struct.std::_Tuple_impl" }
%"struct.std::_Tuple_impl" = type { %"struct.std::_Tuple_impl.10", %"struct.std::_Head_base.11" }
%"struct.std::_Tuple_impl.10" = type { %"struct.std::_Head_base" }
%"struct.std::_Head_base" = type { ptr }
%"struct.std::_Head_base.11" = type { ptr }
%"class.dpx::Reader" = type { ptr, %"struct.dpx::Header", ptr, [8 x ptr], ptr }
%"struct.dpx::Header" = type <{ %"struct.dpx::GenericHeader", %"struct.dpx::IndustryHeader", i8, [3 x i8] }>
%"struct.dpx::GenericHeader" = type { i32, i32, [8 x i8], i32, i32, i32, i32, i32, [100 x i8], [24 x i8], [100 x i8], [200 x i8], [200 x i8], i32, [104 x i8], i16, i16, i32, i32, [8 x %"struct.dpx::ImageElement"], [52 x i8], i32, i32, float, float, i32, i32, [100 x i8], [24 x i8], [32 x i8], [32 x i8], [4 x i16], [2 x i32], float, float, [20 x i8] }
%"struct.dpx::ImageElement" = type { i32, i32, float, i32, float, i8, i8, i8, i8, i16, i16, i32, i32, i32, [32 x i8] }
%"struct.dpx::IndustryHeader" = type { [2 x i8], [2 x i8], [2 x i8], [6 x i8], [4 x i8], [32 x i8], i32, i32, i32, float, float, [32 x i8], [100 x i8], [56 x i8], i32, i32, i8, i8, i8, i8, float, float, float, float, float, float, float, float, float, float, [76 x i8] }
%"class.std::vector.12" = type { %"struct.std::_Vector_base.13" }
%"struct.std::_Vector_base.13" = type { %"struct.std::_Vector_base<unsigned char, std::allocator<unsigned char>>::_Vector_impl" }
%"struct.std::_Vector_base<unsigned char, std::allocator<unsigned char>>::_Vector_impl" = type { %"struct.std::_Vector_base<unsigned char, std::allocator<unsigned char>>::_Vector_impl_data" }
%"struct.std::_Vector_base<unsigned char, std::allocator<unsigned char>>::_Vector_impl_data" = type { ptr, ptr, ptr }
%"class.OpenImageIO_v2_6_0::Filesystem::IOProxy" = type { ptr, %"class.std::__cxx11::basic_string", i64, i32, %"class.std::__cxx11::basic_string" }
%"class.std::__cxx11::basic_string" = type { %"struct.std::__cxx11::basic_string<char>::_Alloc_hider", i64, %union.anon.20 }
%"struct.std::__cxx11::basic_string<char>::_Alloc_hider" = type { ptr }
%union.anon.20 = type { i64, [8 x i8] }
%"class.OpenImageIO_v2_6_0::basic_string_view" = type { ptr, i64 }
%class.InStream = type { ptr, ptr }
%"class.Imf_2_5::TimeCode" = type { i32, i32 }
%"class.__gnu_cxx::__normal_iterator.23" = type { ptr }
%"class.fmt::v8::basic_string_view" = type { ptr, i64 }
%"class.fmt::v8::basic_format_args" = type { i64, %union.anon.28 }
%union.anon.28 = type { ptr }
%"class.fmt::v8::format_arg_store.131" = type { %"struct.fmt::v8::detail::arg_data" }
%"struct.fmt::v8::detail::arg_data" = type { [1 x %"class.fmt::v8::detail::value"] }
%"class.fmt::v8::detail::value" = type { %union.anon.29 }
%union.anon.29 = type { i128 }
%"class.fmt::v8::format_arg_store.132" = type { %"struct.fmt::v8::detail::arg_data" }
%"class.std::allocator.17" = type { i8 }
%"class.std::__cxx11::basic_stringstream" = type { %"class.std::basic_iostream.base", %"class.std::__cxx11::basic_stringbuf", %"class.std::basic_ios" }
%"class.std::basic_iostream.base" = type { %"class.std::basic_istream.base", %"class.std::basic_ostream.base" }
%"class.std::basic_istream.base" = type { ptr, i64 }
%"class.std::basic_ostream.base" = type { ptr }
%"class.std::__cxx11::basic_stringbuf" = type { %"class.std::basic_streambuf", i32, %"class.std::__cxx11::basic_string" }
%"class.std::basic_streambuf" = type { ptr, ptr, ptr, ptr, ptr, ptr, ptr, %"class.std::locale" }
%"class.std::locale" = type { ptr }
%"class.std::basic_ios" = type { %"class.std::ios_base", ptr, i8, i8, ptr, ptr, ptr, ptr }
%"class.std::ios_base" = type { ptr, i64, i64, i32, i32, i32, ptr, %"struct.std::ios_base::_Words", [8 x %"struct.std::ios_base::_Words"], i32, ptr, %"class.std::locale" }
%"struct.std::ios_base::_Words" = type { ptr, i64 }
%"class.std::__cxx11::basic_ostringstream" = type { %"class.std::basic_ostream.base", %"class.std::__cxx11::basic_stringbuf", %"class.std::basic_ios" }
%"struct.std::_Setw" = type { i32 }
%"struct.std::_Setfill" = type { i8 }
%"class.__gnu_cxx::__normal_iterator.133" = type { ptr }
%"class.std::lock_guard" = type { ptr }
%"struct.dpx::Block" = type { i32, i32, i32, i32 }
%"class.__gnu_cxx::__normal_iterator" = type { ptr }
%"class.__gnu_cxx::__normal_iterator.21" = type { ptr }
%"class.__gnu_cxx::__normal_iterator.22" = type { ptr }
%"class.__gnu_cxx::__normal_iterator.24" = type { ptr }
%"class.__gnu_cxx::__normal_iterator.26" = type { ptr }
%"class.OpenImageIO_v2_6_0::ParamValue" = type <{ %"class.OpenImageIO_v2_6_0::ustring", %"struct.OpenImageIO_v2_6_0::TypeDesc", %union.anon.25, i32, i8, i8, i8, i8 }>
%"class.OpenImageIO_v2_6_0::ustring" = type { ptr }
%union.anon.25 = type { ptr, [8 x i8] }
%"struct.OpenImageIO_v2_6_0::ParamValue::Copy" = type { %"struct.OpenImageIO_v2_6_0::StrongParam" }
%"struct.OpenImageIO_v2_6_0::StrongParam" = type { i8 }
%"struct.OpenImageIO_v2_6_0::ParamValue::FromUstring" = type { %"struct.OpenImageIO_v2_6_0::StrongParam.27" }
%"struct.OpenImageIO_v2_6_0::StrongParam.27" = type { i8 }
%"class.std::allocator" = type { i8 }
%"class.std::allocator.2" = type { i8 }
%"class.std::allocator.7" = type { i8 }
%struct._Guard = type { ptr }
%"class.fmt::v8::format_arg_store" = type { %"struct.fmt::v8::detail::arg_data" }
%"class.fmt::v8::basic_memory_buffer" = type <{ %"class.fmt::v8::detail::buffer", [500 x i8], %"class.std::allocator.17", [3 x i8] }>
%"class.fmt::v8::detail::buffer" = type { ptr, ptr, i64, i64 }
%"struct.fmt::v8::detail::arg_mapper" = type { i8 }
%"struct.fmt::v8::detail::string_value" = type { ptr, i64 }
%"class.fmt::v8::appender" = type { %"class.std::back_insert_iterator" }
%"class.std::back_insert_iterator" = type { ptr }
%"class.fmt::v8::basic_format_arg<fmt::v8::basic_printf_context<fmt::v8::appender, char>>::handle" = type { %"struct.fmt::v8::detail::custom_value" }
%"struct.fmt::v8::detail::custom_value" = type { ptr, ptr }
%"struct.fmt::v8::monostate" = type { i8 }
%"class.fmt::v8::basic_printf_context" = type { %"class.fmt::v8::appender", %"class.fmt::v8::basic_format_args" }
%"class.fmt::v8::basic_printf_parse_context" = type { %"class.fmt::v8::basic_format_parse_context.base", [4 x i8] }
%"class.fmt::v8::basic_format_parse_context.base" = type <{ %"class.fmt::v8::basic_string_view", i32 }>
%class.anon = type { ptr, ptr }
%"struct.fmt::v8::basic_format_specs" = type <{ i32, i32, i8, i16, %"struct.fmt::v8::detail::fill_t" }>
%"struct.fmt::v8::detail::fill_t" = type { [4 x i8], i8 }
%"class.fmt::v8::detail::printf_precision_handler" = type { i8 }
%"class.fmt::v8::basic_format_arg" = type <{ %"class.fmt::v8::detail::value", i32, [12 x i8] }>
%"struct.fmt::v8::detail::get_cstring" = type { i8 }
%"class.fmt::v8::detail::is_zero_int" = type { i8 }
%"class.fmt::v8::format_error" = type { %"class.std::runtime_error" }
%"class.std::runtime_error" = type { %"class.std::exception", %"struct.std::__cow_string" }
%"class.std::exception" = type { ptr }
%"struct.std::__cow_string" = type { %union.anon }
%union.anon = type { ptr }
%"class.fmt::v8::detail::char_converter" = type { ptr }
%"class.fmt::v8::detail::printf_arg_formatter" = type { %"struct.fmt::v8::detail::arg_formatter", ptr }
%"struct.fmt::v8::detail::arg_formatter" = type { %"class.fmt::v8::appender", ptr, %"class.fmt::v8::detail::locale_ref" }
%"class.fmt::v8::detail::locale_ref" = type { ptr }
%"class.fmt::v8::basic_format_parse_context" = type <{ %"class.fmt::v8::basic_string_view", i32, [4 x i8] }>
%"class.fmt::v8::detail::printf_width_handler" = type { ptr }
%"struct.__gnu_cxx::__ops::_Iter_equals_val" = type { ptr }
%"class.fmt::v8::detail::arg_converter" = type <{ ptr, i8, [7 x i8] }>
%"class.fmt::v8::detail::arg_converter.30" = type <{ ptr, i8, [7 x i8] }>
%"class.fmt::v8::detail::arg_converter.32" = type <{ ptr, i8, [7 x i8] }>
%"class.fmt::v8::detail::arg_converter.34" = type <{ ptr, i8, [7 x i8] }>
%"class.fmt::v8::detail::arg_converter.36" = type <{ ptr, i8, [7 x i8] }>
%"class.fmt::v8::detail::arg_converter.38" = type <{ ptr, i8, [7 x i8] }>
%struct.accessor = type { %"class.std::back_insert_iterator" }
%"struct.fmt::v8::detail::error_handler" = type { i8 }
%"struct.fmt::v8::detail::write_int_arg" = type { i32, i32 }
%"struct.fmt::v8::detail::write_int_arg.59" = type { i64, i32 }
%"struct.fmt::v8::detail::write_int_arg.78" = type { i128, i32 }
%class.anon.43 = type { i32, i32 }
%"struct.fmt::v8::detail::write_int_data" = type { i64, i64 }
%class.anon.57 = type { i32, %"struct.fmt::v8::detail::write_int_data", %class.anon.43 }
%class.anon.42 = type { i32, i32 }
%class.anon.56 = type { i32, %"struct.fmt::v8::detail::write_int_data", %class.anon.42 }
%class.anon.41 = type <{ i32, i32, i8, [3 x i8] }>
%class.anon.54 = type <{ i32, [4 x i8], %"struct.fmt::v8::detail::write_int_data", %class.anon.41, [4 x i8] }>
%class.anon.40 = type { i32, i32 }
%class.anon.52 = type { i32, %"struct.fmt::v8::detail::write_int_data", %class.anon.40 }
%"class.fmt::v8::detail::digit_grouping" = type { %"struct.fmt::v8::detail::thousands_sep_result" }
%"struct.fmt::v8::detail::thousands_sep_result" = type <{ %"class.std::__cxx11::basic_string", i8, [7 x i8] }>
%class.anon.58 = type { i8 }
%"struct.fmt::v8::detail::format_decimal_result" = type { ptr, ptr }
%class.anon.44 = type { ptr, ptr, ptr, ptr }
%"struct.fmt::v8::detail::digit_grouping<char>::next_state" = type <{ %"class.__gnu_cxx::__normal_iterator.45", i32, [4 x i8] }>
%"class.__gnu_cxx::__normal_iterator.45" = type { ptr }
%"class.fmt::v8::basic_memory_buffer.46" = type <{ %"class.fmt::v8::detail::buffer.47", [500 x i32], %"class.std::allocator.48", [7 x i8] }>
%"class.fmt::v8::detail::buffer.47" = type { ptr, ptr, i64, i64 }
%"class.std::allocator.48" = type { i8 }
%"struct.fmt::v8::detail::format_decimal_result.53" = type { %"class.fmt::v8::appender", %"class.fmt::v8::appender" }
%class.anon.66 = type <{ i64, i32, [4 x i8] }>
%class.anon.77 = type { i32, %"struct.fmt::v8::detail::write_int_data", %class.anon.66 }
%class.anon.64 = type <{ i64, i32, [4 x i8] }>
%class.anon.74 = type { i32, %"struct.fmt::v8::detail::write_int_data", %class.anon.64 }
%class.anon.62 = type <{ i64, i32, i8, [3 x i8] }>
%class.anon.71 = type { i32, %"struct.fmt::v8::detail::write_int_data", %class.anon.62 }
%class.anon.60 = type <{ i64, i32, [4 x i8] }>
%class.anon.68 = type { i32, %"struct.fmt::v8::detail::write_int_data", %class.anon.60 }
%class.anon.69 = type { i8 }
%class.anon.72 = type { i8 }
%class.anon.75 = type { i8 }
%class.anon.97 = type { i32, %"struct.fmt::v8::detail::write_int_data", [8 x i8], %class.anon.85 }
%class.anon.85 = type <{ i128, i32, [12 x i8] }>
%class.anon.94 = type { i32, %"struct.fmt::v8::detail::write_int_data", [8 x i8], %class.anon.83 }
%class.anon.83 = type <{ i128, i32, [12 x i8] }>
%class.anon.91 = type { i32, %"struct.fmt::v8::detail::write_int_data", [8 x i8], %class.anon.81 }
%class.anon.81 = type <{ i128, i32, i8, [11 x i8] }>
%class.anon.88 = type { i32, %"struct.fmt::v8::detail::write_int_data", [8 x i8], %class.anon.79 }
%class.anon.79 = type <{ i128, i32, [12 x i8] }>
%class.anon.89 = type { i8 }
%class.anon.92 = type { i8 }
%class.anon.95 = type { i8 }
%class.anon.87 = type { ptr, ptr, ptr, ptr }
%class.anon.98 = type { %"class.fmt::v8::basic_string_view" }
%"struct.fmt::v8::detail::float_specs" = type { i32, i24 }
%"struct.fmt::v8::detail::big_decimal_fp" = type { ptr, i32, i32 }
%class.anon.99 = type { i32, ptr }
%class.anon.100 = type { i8 }
%class.anon.102 = type { %"class.fmt::v8::basic_string_view" }
%"struct.fmt::v8::detail::fp" = type <{ i64, i32, [4 x i8] }>
%class.anon.108 = type { ptr, ptr }
%"struct.fmt::v8::detail::dragonbox::decimal_fp" = type { i32, i32 }
%"struct.fmt::v8::detail::dragonbox::decimal_fp.103" = type { i64, i32 }
%"struct.fmt::v8::detail::gen_digits_handler" = type { ptr, i32, i32, i32, i8 }
%"class.fmt::v8::detail::bigint" = type { %"class.fmt::v8::basic_memory_buffer.109", i32, [4 x i8] }
%"class.fmt::v8::basic_memory_buffer.109" = type <{ %"class.fmt::v8::detail::buffer.110", [32 x i32], %"class.std::allocator.111", [7 x i8] }>
%"class.fmt::v8::detail::buffer.110" = type { ptr, ptr, i64, i64 }
%"class.std::allocator.111" = type { i8 }
%class.anon.115 = type { i8 }
%class.anon.117 = type { %"struct.fmt::v8::detail::float_specs", i32 }
%class.anon.118 = type <{ i32, [4 x i8], ptr, i32, i8, [3 x i8], i32, i8, i8, [2 x i8], i32, [4 x i8] }>
%class.anon.120 = type { ptr, ptr, ptr, ptr, ptr, ptr, ptr, ptr, ptr }
%class.anon.121 = type { ptr, ptr, ptr, ptr, ptr, ptr, ptr, ptr }
%class.anon.122 = type { ptr, ptr, ptr, ptr, ptr, ptr, ptr }
%class.anon.123 = type { i8 }
%class.anon.127 = type <{ i64, i32, [4 x i8] }>
%class.anon.125 = type { ptr, i64 }
%struct.count_code_points = type { ptr }
%class.anon.126 = type { %struct.count_code_points }
%"class.fmt::v8::format_arg_store.129" = type { %"struct.fmt::v8::detail::arg_data.130" }
%"struct.fmt::v8::detail::arg_data.130" = type { [1 x %"class.fmt::v8::detail::value"] }

$_ZN3fmt2v812format_errorD0Ev = comdat any

$_ZN3fmt2v812format_errorD2Ev = comdat any

$_ZN18OpenImageIO_v2_6_08DPXInputC2Ev = comdat any

$_ZNK18OpenImageIO_v2_6_010Filesystem7IOProxy4modeEv = comdat any

$_ZN18OpenImageIO_v2_6_017basic_string_viewIcSt11char_traitsIcEEC2ERKNSt7__cxx1112basic_stringIcS2_SaIcEEE = comdat any

$_ZN8InStreamC2EPN18OpenImageIO_v2_6_010Filesystem7IOProxyE = comdat any

$_ZNK18OpenImageIO_v2_6_010ImageInput6errorfIJNSt7__cxx1112basic_stringIcSt11char_traitsIcESaIcEEEEEEvPKcDpRKT_ = comdat any

$_ZNK18OpenImageIO_v2_6_010ImageInput6errorfIJEEEvPKcDpRKT_ = comdat any

$_ZNK18OpenImageIO_v2_6_010ImageInput4specEv = comdat any

$_ZN18OpenImageIO_v2_6_09ImageSpecaSERKS0_ = comdat any

$_ZN18OpenImageIO_v2_6_017basic_string_viewIcSt11char_traitsIcEEC2EPKc = comdat any

$_ZN18OpenImageIO_v2_6_08TypeDescC2ENS0_8BASETYPEENS0_9AGGREGATEENS0_12VECSEMANTICSEi = comdat any

$_ZNK3dpx13GenericHeader8DataSignEi = comdat any

$_ZN18OpenImageIO_v2_6_08TypeDescC2ERKS0_ = comdat any

$_ZN18OpenImageIO_v2_6_09ImageSpecaSEOS0_ = comdat any

$_ZN18OpenImageIO_v2_6_09ImageSpecD2Ev = comdat any

$_ZNSt14numeric_limitsIiE3maxEv = comdat any

$_ZNSt6vectorINSt7__cxx1112basic_stringIcSt11char_traitsIcESaIcEEESaIS5_EE5clearEv = comdat any

$_ZNK3dpx13GenericHeader15ImageDescriptorEi = comdat any

$_ZNSt6vectorINSt7__cxx1112basic_stringIcSt11char_traitsIcESaIcEEESaIS5_EE12emplace_backIJRA2_KcEEERS5_DpOT_ = comdat any

$_ZNSt6vectorINSt7__cxx1112basic_stringIcSt11char_traitsIcESaIcEEESaIS5_EE12emplace_backIJRA5_KcEEERS5_DpOT_ = comdat any

$_ZNSt6vectorINSt7__cxx1112basic_stringIcSt11char_traitsIcESaIcEEESaIS5_EE12emplace_backIJRA3_KcEEERS5_DpOT_ = comdat any

$_ZN3fmt2v87sprintfIA10_cJiEcEENSt7__cxx1112basic_stringIT1_St11char_traitsIS5_ESaIS5_EEERKT_DpRKT0_ = comdat any

$_ZNSt6vectorINSt7__cxx1112basic_stringIcSt11char_traitsIcESaIcEEESaIS5_EE9push_backERKS5_ = comdat any

$_ZN18OpenImageIO_v2_6_09ImageSpec9attributeENS_17basic_string_viewIcSt11char_traitsIcEEEi = comdat any

$_ZNK3dpx13GenericHeader8BitDepthEi = comdat any

$_ZNK3dpx13GenericHeader16ImageOrientationEv = comdat any

$_ZNK3dpx13GenericHeader8TransferEi = comdat any

$_ZSt5isnanf = comdat any

$_ZNK3dpx14IndustryHeader5GammaEv = comdat any

$_ZN3fmt2v87sprintfIA10_cJfEcEENSt7__cxx1112basic_stringIT1_St11char_traitsIS5_ESaIS5_EEERKT_DpRKT0_ = comdat any

$_ZN18OpenImageIO_v2_6_09ImageSpec9attributeENS_17basic_string_viewIcSt11char_traitsIcEEEf = comdat any

$_ZNK3dpx13GenericHeader12ColorimetricEi = comdat any

$_ZNK3dpx13GenericHeader13ImageEncodingEi = comdat any

$_ZNK3dpx13GenericHeader11DescriptionEiPc = comdat any

$_ZNK3dpx13GenericHeader11AspectRatioEi = comdat any

$_ZNK3dpx13GenericHeader10EncryptKeyEv = comdat any

$_ZN18OpenImageIO_v2_6_09ImageSpec9attributeENS_17basic_string_viewIcSt11char_traitsIcEEEj = comdat any

$_ZNK3dpx13GenericHeader8DittoKeyEv = comdat any

$_ZNK3dpx13GenericHeader7LowDataEi = comdat any

$_ZNK3dpx13GenericHeader11LowQuantityEi = comdat any

$_ZNK3dpx13GenericHeader8HighDataEi = comdat any

$_ZNK3dpx13GenericHeader12HighQuantityEi = comdat any

$_ZNK3dpx13GenericHeader16EndOfLinePaddingEi = comdat any

$_ZNK3dpx13GenericHeader17EndOfImagePaddingEi = comdat any

$_ZNK3dpx13GenericHeader12XScannedSizeEv = comdat any

$_ZNK3dpx13GenericHeader12YScannedSizeEv = comdat any

$_ZNK3dpx14IndustryHeader13FramePositionEv = comdat any

$_ZNK3dpx14IndustryHeader14SequenceLengthEv = comdat any

$_ZNK3dpx14IndustryHeader9HeldCountEv = comdat any

$_ZNK3dpx14IndustryHeader9FrameRateEv = comdat any

$_ZNK3dpx14IndustryHeader12ShutterAngleEv = comdat any

$_ZNK3dpx14IndustryHeader9InterlaceEv = comdat any

$_ZNK3dpx14IndustryHeader11FieldNumberEv = comdat any

$_ZNK3dpx14IndustryHeader20HorizontalSampleRateEv = comdat any

$_ZNK3dpx14IndustryHeader18VerticalSampleRateEv = comdat any

$_ZNK3dpx14IndustryHeader17TemporalFrameRateEv = comdat any

$_ZNK3dpx14IndustryHeader10TimeOffsetEv = comdat any

$_ZNK3dpx14IndustryHeader10BlackLevelEv = comdat any

$_ZNK3dpx14IndustryHeader9BlackGainEv = comdat any

$_ZNK3dpx14IndustryHeader10BreakPointEv = comdat any

$_ZNK3dpx14IndustryHeader10WhiteLevelEv = comdat any

$_ZNK3dpx14IndustryHeader16IntegrationTimesEv = comdat any

$_ZNK3dpx13GenericHeader12ImagePackingEi = comdat any

$_ZNK3dpx14IndustryHeader6SignalEv = comdat any

$_ZN3fmt2v87sprintfIA13_cJiEcEENSt7__cxx1112basic_stringIT1_St11char_traitsIS5_ESaIS5_EEERKT_DpRKT0_ = comdat any

$_ZNKSt6vectorIhSaIhEE5emptyEv = comdat any

$_ZNK3dpx13GenericHeader8UserSizeEv = comdat any

$_ZNSt6vectorIhSaIhEE6resizeEm = comdat any

$_ZNSt6vectorIhSaIhEEixEm = comdat any

$_ZN18OpenImageIO_v2_6_08TypeDescC2ENS0_8BASETYPEEi = comdat any

$_ZN18OpenImageIO_v2_6_08DPXInput4initEv = comdat any

$_ZNSt10lock_guardIRKN18OpenImageIO_v2_6_010ImageInputEEC2ES3_ = comdat any

$_ZN3dpx5BlockC2Eiiii = comdat any

$_ZNSt6vectorIhSaIhEE4dataEv = comdat any

$_ZNSt10lock_guardIRKN18OpenImageIO_v2_6_010ImageInputEED2Ev = comdat any

$_ZNSt7__cxx1112basic_stringIcSt11char_traitsIcESaIcEEC2IS3_EEPKcRKS3_ = comdat any

$_ZSteqIcSt11char_traitsIcESaIcEEbRKNSt7__cxx1112basic_stringIT_T0_T1_EEPKS5_ = comdat any

$_ZSt4setwi = comdat any

$_ZSt7setfillIcESt8_SetfillIT_ES1_ = comdat any

$_ZN18OpenImageIO_v2_6_08DPXInputD2Ev = comdat any

$_ZN18OpenImageIO_v2_6_08DPXInputD0Ev = comdat any

$_ZNK18OpenImageIO_v2_6_08DPXInput11format_nameEv = comdat any

$_ZNK18OpenImageIO_v2_6_08DPXInput8supportsENS_17basic_string_viewIcSt11char_traitsIcEEE = comdat any

$_ZN18OpenImageIO_v2_6_010ImageInput13get_thumbnailERNS_8ImageBufEi = comdat any

$_ZNK18OpenImageIO_v2_6_08DPXInput16current_subimageEv = comdat any

$_ZNK18OpenImageIO_v2_6_010ImageInput16current_miplevelEv = comdat any

$_ZNSt6vectorIhSaIhEEC2Ev = comdat any

$_ZNSt6vectorIhSaIhEED2Ev = comdat any

$_ZNSt12_Vector_baseIhSaIhEEC2Ev = comdat any

$_ZNSt12_Vector_baseIhSaIhEE12_Vector_implC2Ev = comdat any

$_ZNSaIhEC2Ev = comdat any

$_ZNSt12_Vector_baseIhSaIhEE17_Vector_impl_dataC2Ev = comdat any

$_ZNSt15__new_allocatorIhEC2Ev = comdat any

$_ZSt8_DestroyIPhhEvT_S1_RSaIT0_E = comdat any

$_ZNSt12_Vector_baseIhSaIhEE19_M_get_Tp_allocatorEv = comdat any

$__clang_call_terminate = comdat any

$_ZNSt12_Vector_baseIhSaIhEED2Ev = comdat any

$_ZSt8_DestroyIPhEvT_S1_ = comdat any

$_ZNSt12_Destroy_auxILb1EE9__destroyIPhEEvT_S3_ = comdat any

$_ZNSt12_Vector_baseIhSaIhEE13_M_deallocateEPhm = comdat any

$_ZNSt12_Vector_baseIhSaIhEE12_Vector_implD2Ev = comdat any

$_ZNSt16allocator_traitsISaIhEE10deallocateERS0_Phm = comdat any

$_ZNSt15__new_allocatorIhE10deallocateEPhm = comdat any

$_ZNSaIhED2Ev = comdat any

$_ZNSt15__new_allocatorIhED2Ev = comdat any

$_ZNSt6vectorIN18OpenImageIO_v2_6_08TypeDescESaIS1_EEaSERKS3_ = comdat any

$_ZNSt6vectorINSt7__cxx1112basic_stringIcSt11char_traitsIcESaIcEEESaIS5_EEaSERKS7_ = comdat any

$_ZN18OpenImageIO_v2_6_014ParamValueListaSERKS0_ = comdat any

$_ZNKSt6vectorIN18OpenImageIO_v2_6_08TypeDescESaIS1_EE4sizeEv = comdat any

$_ZNKSt6vectorIN18OpenImageIO_v2_6_08TypeDescESaIS1_EE8capacityEv = comdat any

$_ZNSt6vectorIN18OpenImageIO_v2_6_08TypeDescESaIS1_EE20_M_allocate_and_copyIN9__gnu_cxx17__normal_iteratorIPKS1_S3_EEEEPS1_mT_SB_ = comdat any

$_ZNKSt6vectorIN18OpenImageIO_v2_6_08TypeDescESaIS1_EE5beginEv = comdat any

$_ZNKSt6vectorIN18OpenImageIO_v2_6_08TypeDescESaIS1_EE3endEv = comdat any

$_ZSt8_DestroyIPN18OpenImageIO_v2_6_08TypeDescES1_EvT_S3_RSaIT0_E = comdat any

$_ZNSt12_Vector_baseIN18OpenImageIO_v2_6_08TypeDescESaIS1_EE19_M_get_Tp_allocatorEv = comdat any

$_ZNSt12_Vector_baseIN18OpenImageIO_v2_6_08TypeDescESaIS1_EE13_M_deallocateEPS1_m = comdat any

$_ZSt8_DestroyIN9__gnu_cxx17__normal_iteratorIPN18OpenImageIO_v2_6_08TypeDescESt6vectorIS3_SaIS3_EEEES3_EvT_S9_RSaIT0_E = comdat any

$_ZSt4copyIN9__gnu_cxx17__normal_iteratorIPKN18OpenImageIO_v2_6_08TypeDescESt6vectorIS3_SaIS3_EEEENS1_IPS3_S8_EEET0_T_SD_SC_ = comdat any

$_ZNSt6vectorIN18OpenImageIO_v2_6_08TypeDescESaIS1_EE5beginEv = comdat any

$_ZNSt6vectorIN18OpenImageIO_v2_6_08TypeDescESaIS1_EE3endEv = comdat any

$_ZSt4copyIPN18OpenImageIO_v2_6_08TypeDescES2_ET0_T_S4_S3_ = comdat any

$_ZSt22__uninitialized_copy_aIPN18OpenImageIO_v2_6_08TypeDescES2_S1_ET0_T_S4_S3_RSaIT1_E = comdat any

$_ZNSt12_Vector_baseIN18OpenImageIO_v2_6_08TypeDescESaIS1_EE11_M_allocateEm = comdat any

$_ZSt22__uninitialized_copy_aIN9__gnu_cxx17__normal_iteratorIPKN18OpenImageIO_v2_6_08TypeDescESt6vectorIS3_SaIS3_EEEEPS3_S3_ET0_T_SC_SB_RSaIT1_E = comdat any

$_ZNSt16allocator_traitsISaIN18OpenImageIO_v2_6_08TypeDescEEE8allocateERS2_m = comdat any

$_ZNSt15__new_allocatorIN18OpenImageIO_v2_6_08TypeDescEE8allocateEmPKv = comdat any

$_ZNKSt15__new_allocatorIN18OpenImageIO_v2_6_08TypeDescEE11_M_max_sizeEv = comdat any

$_ZSt18uninitialized_copyIN9__gnu_cxx17__normal_iteratorIPKN18OpenImageIO_v2_6_08TypeDescESt6vectorIS3_SaIS3_EEEEPS3_ET0_T_SC_SB_ = comdat any

$_ZNSt20__uninitialized_copyILb0EE13__uninit_copyIN9__gnu_cxx17__normal_iteratorIPKN18OpenImageIO_v2_6_08TypeDescESt6vectorIS5_SaIS5_EEEEPS5_EET0_T_SE_SD_ = comdat any

$_ZSt16__do_uninit_copyIN9__gnu_cxx17__normal_iteratorIPKN18OpenImageIO_v2_6_08TypeDescESt6vectorIS3_SaIS3_EEEEPS3_ET0_T_SC_SB_ = comdat any

$_ZN9__gnu_cxxneIPKN18OpenImageIO_v2_6_08TypeDescESt6vectorIS2_SaIS2_EEEEbRKNS_17__normal_iteratorIT_T0_EESD_ = comdat any

$_ZSt10_ConstructIN18OpenImageIO_v2_6_08TypeDescEJRKS1_EEvPT_DpOT0_ = comdat any

$_ZNK9__gnu_cxx17__normal_iteratorIPKN18OpenImageIO_v2_6_08TypeDescESt6vectorIS2_SaIS2_EEEdeEv = comdat any

$_ZN9__gnu_cxx17__normal_iteratorIPKN18OpenImageIO_v2_6_08TypeDescESt6vectorIS2_SaIS2_EEEppEv = comdat any

$_ZSt8_DestroyIPN18OpenImageIO_v2_6_08TypeDescEEvT_S3_ = comdat any

$_ZNK9__gnu_cxx17__normal_iteratorIPKN18OpenImageIO_v2_6_08TypeDescESt6vectorIS2_SaIS2_EEE4baseEv = comdat any

$_ZNSt12_Destroy_auxILb1EE9__destroyIPN18OpenImageIO_v2_6_08TypeDescEEEvT_S5_ = comdat any

$_ZN9__gnu_cxx17__normal_iteratorIPKN18OpenImageIO_v2_6_08TypeDescESt6vectorIS2_SaIS2_EEEC2ERKS4_ = comdat any

$_ZNSt16allocator_traitsISaIN18OpenImageIO_v2_6_08TypeDescEEE10deallocateERS2_PS1_m = comdat any

$_ZNSt15__new_allocatorIN18OpenImageIO_v2_6_08TypeDescEE10deallocateEPS1_m = comdat any

$_ZSt8_DestroyIN9__gnu_cxx17__normal_iteratorIPN18OpenImageIO_v2_6_08TypeDescESt6vectorIS3_SaIS3_EEEEEvT_S9_ = comdat any

$_ZNSt12_Destroy_auxILb1EE9__destroyIN9__gnu_cxx17__normal_iteratorIPN18OpenImageIO_v2_6_08TypeDescESt6vectorIS5_SaIS5_EEEEEEvT_SB_ = comdat any

$_ZSt13__copy_move_aILb0EN9__gnu_cxx17__normal_iteratorIPKN18OpenImageIO_v2_6_08TypeDescESt6vectorIS3_SaIS3_EEEENS1_IPS3_S8_EEET1_T0_SD_SC_ = comdat any

$_ZSt12__miter_baseIN9__gnu_cxx17__normal_iteratorIPKN18OpenImageIO_v2_6_08TypeDescESt6vectorIS3_SaIS3_EEEEET_SA_ = comdat any

$_ZSt12__niter_wrapIN9__gnu_cxx17__normal_iteratorIPN18OpenImageIO_v2_6_08TypeDescESt6vectorIS3_SaIS3_EEEES4_ET_S9_T0_ = comdat any

$_ZSt14__copy_move_a1ILb0EPKN18OpenImageIO_v2_6_08TypeDescEPS1_ET1_T0_S6_S5_ = comdat any

$_ZSt12__niter_baseIPKN18OpenImageIO_v2_6_08TypeDescESt6vectorIS1_SaIS1_EEET_N9__gnu_cxx17__normal_iteratorIS7_T0_EE = comdat any

$_ZSt12__niter_baseIPN18OpenImageIO_v2_6_08TypeDescESt6vectorIS1_SaIS1_EEET_N9__gnu_cxx17__normal_iteratorIS6_T0_EE = comdat any

$_ZNK9__gnu_cxx17__normal_iteratorIPN18OpenImageIO_v2_6_08TypeDescESt6vectorIS2_SaIS2_EEEplEl = comdat any

$_ZN9__gnu_cxx17__normal_iteratorIPN18OpenImageIO_v2_6_08TypeDescESt6vectorIS2_SaIS2_EEEC2ERKS3_ = comdat any

$_ZSt14__copy_move_a2ILb0EPKN18OpenImageIO_v2_6_08TypeDescEPS1_ET1_T0_S6_S5_ = comdat any

$_ZNSt11__copy_moveILb0ELb0ESt26random_access_iterator_tagE8__copy_mIPKN18OpenImageIO_v2_6_08TypeDescEPS4_EET0_T_S9_S8_ = comdat any

$_ZNK9__gnu_cxx17__normal_iteratorIPN18OpenImageIO_v2_6_08TypeDescESt6vectorIS2_SaIS2_EEE4baseEv = comdat any

$_ZSt13__copy_move_aILb0EPN18OpenImageIO_v2_6_08TypeDescES2_ET1_T0_S4_S3_ = comdat any

$_ZSt12__miter_baseIPN18OpenImageIO_v2_6_08TypeDescEET_S3_ = comdat any

$_ZSt12__niter_wrapIPN18OpenImageIO_v2_6_08TypeDescEET_RKS3_S3_ = comdat any

$_ZSt14__copy_move_a1ILb0EPN18OpenImageIO_v2_6_08TypeDescES2_ET1_T0_S4_S3_ = comdat any

$_ZSt12__niter_baseIPN18OpenImageIO_v2_6_08TypeDescEET_S3_ = comdat any

$_ZSt14__copy_move_a2ILb0EPN18OpenImageIO_v2_6_08TypeDescES2_ET1_T0_S4_S3_ = comdat any

$_ZNSt11__copy_moveILb0ELb0ESt26random_access_iterator_tagE8__copy_mIPN18OpenImageIO_v2_6_08TypeDescES5_EET0_T_S7_S6_ = comdat any

$_ZSt18uninitialized_copyIPN18OpenImageIO_v2_6_08TypeDescES2_ET0_T_S4_S3_ = comdat any

$_ZNSt20__uninitialized_copyILb0EE13__uninit_copyIPN18OpenImageIO_v2_6_08TypeDescES4_EET0_T_S6_S5_ = comdat any

$_ZSt16__do_uninit_copyIPN18OpenImageIO_v2_6_08TypeDescES2_ET0_T_S4_S3_ = comdat any

$_ZSt10_ConstructIN18OpenImageIO_v2_6_08TypeDescEJRS1_EEvPT_DpOT0_ = comdat any

$_ZNKSt6vectorINSt7__cxx1112basic_stringIcSt11char_traitsIcESaIcEEESaIS5_EE4sizeEv = comdat any

$_ZNKSt6vectorINSt7__cxx1112basic_stringIcSt11char_traitsIcESaIcEEESaIS5_EE8capacityEv = comdat any

$_ZNSt6vectorINSt7__cxx1112basic_stringIcSt11char_traitsIcESaIcEEESaIS5_EE20_M_allocate_and_copyIN9__gnu_cxx17__normal_iteratorIPKS5_S7_EEEEPS5_mT_SF_ = comdat any

$_ZNKSt6vectorINSt7__cxx1112basic_stringIcSt11char_traitsIcESaIcEEESaIS5_EE5beginEv = comdat any

$_ZNKSt6vectorINSt7__cxx1112basic_stringIcSt11char_traitsIcESaIcEEESaIS5_EE3endEv = comdat any

$_ZSt8_DestroyIPNSt7__cxx1112basic_stringIcSt11char_traitsIcESaIcEEES5_EvT_S7_RSaIT0_E = comdat any

$_ZNSt12_Vector_baseINSt7__cxx1112basic_stringIcSt11char_traitsIcESaIcEEESaIS5_EE19_M_get_Tp_allocatorEv = comdat any

$_ZNSt12_Vector_baseINSt7__cxx1112basic_stringIcSt11char_traitsIcESaIcEEESaIS5_EE13_M_deallocateEPS5_m = comdat any

$_ZSt8_DestroyIN9__gnu_cxx17__normal_iteratorIPNSt7__cxx1112basic_stringIcSt11char_traitsIcESaIcEEESt6vectorIS7_SaIS7_EEEES7_EvT_SD_RSaIT0_E = comdat any

$_ZSt4copyIN9__gnu_cxx17__normal_iteratorIPKNSt7__cxx1112basic_stringIcSt11char_traitsIcESaIcEEESt6vectorIS7_SaIS7_EEEENS1_IPS7_SC_EEET0_T_SH_SG_ = comdat any

$_ZNSt6vectorINSt7__cxx1112basic_stringIcSt11char_traitsIcESaIcEEESaIS5_EE5beginEv = comdat any

$_ZNSt6vectorINSt7__cxx1112basic_stringIcSt11char_traitsIcESaIcEEESaIS5_EE3endEv = comdat any

$_ZSt4copyIPNSt7__cxx1112basic_stringIcSt11char_traitsIcESaIcEEES6_ET0_T_S8_S7_ = comdat any

$_ZSt22__uninitialized_copy_aIPNSt7__cxx1112basic_stringIcSt11char_traitsIcESaIcEEES6_S5_ET0_T_S8_S7_RSaIT1_E = comdat any

$_ZNSt12_Vector_baseINSt7__cxx1112basic_stringIcSt11char_traitsIcESaIcEEESaIS5_EE11_M_allocateEm = comdat any

$_ZSt22__uninitialized_copy_aIN9__gnu_cxx17__normal_iteratorIPKNSt7__cxx1112basic_stringIcSt11char_traitsIcESaIcEEESt6vectorIS7_SaIS7_EEEEPS7_S7_ET0_T_SG_SF_RSaIT1_E = comdat any

$_ZNSt16allocator_traitsISaINSt7__cxx1112basic_stringIcSt11char_traitsIcESaIcEEEEE8allocateERS6_m = comdat any

$_ZNSt15__new_allocatorINSt7__cxx1112basic_stringIcSt11char_traitsIcESaIcEEEE8allocateEmPKv = comdat any

$_ZNKSt15__new_allocatorINSt7__cxx1112basic_stringIcSt11char_traitsIcESaIcEEEE11_M_max_sizeEv = comdat any

$_ZSt18uninitialized_copyIN9__gnu_cxx17__normal_iteratorIPKNSt7__cxx1112basic_stringIcSt11char_traitsIcESaIcEEESt6vectorIS7_SaIS7_EEEEPS7_ET0_T_SG_SF_ = comdat any

$_ZNSt20__uninitialized_copyILb0EE13__uninit_copyIN9__gnu_cxx17__normal_iteratorIPKNSt7__cxx1112basic_stringIcSt11char_traitsIcESaIcEEESt6vectorIS9_SaIS9_EEEEPS9_EET0_T_SI_SH_ = comdat any

$_ZSt16__do_uninit_copyIN9__gnu_cxx17__normal_iteratorIPKNSt7__cxx1112basic_stringIcSt11char_traitsIcESaIcEEESt6vectorIS7_SaIS7_EEEEPS7_ET0_T_SG_SF_ = comdat any

$_ZN9__gnu_cxxneIPKNSt7__cxx1112basic_stringIcSt11char_traitsIcESaIcEEESt6vectorIS6_SaIS6_EEEEbRKNS_17__normal_iteratorIT_T0_EESH_ = comdat any

$_ZSt10_ConstructINSt7__cxx1112basic_stringIcSt11char_traitsIcESaIcEEEJRKS5_EEvPT_DpOT0_ = comdat any

$_ZNK9__gnu_cxx17__normal_iteratorIPKNSt7__cxx1112basic_stringIcSt11char_traitsIcESaIcEEESt6vectorIS6_SaIS6_EEEdeEv = comdat any

$_ZN9__gnu_cxx17__normal_iteratorIPKNSt7__cxx1112basic_stringIcSt11char_traitsIcESaIcEEESt6vectorIS6_SaIS6_EEEppEv = comdat any

$_ZSt8_DestroyIPNSt7__cxx1112basic_stringIcSt11char_traitsIcESaIcEEEEvT_S7_ = comdat any

$_ZNK9__gnu_cxx17__normal_iteratorIPKNSt7__cxx1112basic_stringIcSt11char_traitsIcESaIcEEESt6vectorIS6_SaIS6_EEE4baseEv = comdat any

$_ZNSt12_Destroy_auxILb0EE9__destroyIPNSt7__cxx1112basic_stringIcSt11char_traitsIcESaIcEEEEEvT_S9_ = comdat any

$_ZSt8_DestroyINSt7__cxx1112basic_stringIcSt11char_traitsIcESaIcEEEEvPT_ = comdat any

$_ZN9__gnu_cxx17__normal_iteratorIPKNSt7__cxx1112basic_stringIcSt11char_traitsIcESaIcEEESt6vectorIS6_SaIS6_EEEC2ERKS8_ = comdat any

$_ZNSt16allocator_traitsISaINSt7__cxx1112basic_stringIcSt11char_traitsIcESaIcEEEEE10deallocateERS6_PS5_m = comdat any

$_ZNSt15__new_allocatorINSt7__cxx1112basic_stringIcSt11char_traitsIcESaIcEEEE10deallocateEPS5_m = comdat any

$_ZSt8_DestroyIN9__gnu_cxx17__normal_iteratorIPNSt7__cxx1112basic_stringIcSt11char_traitsIcESaIcEEESt6vectorIS7_SaIS7_EEEEEvT_SD_ = comdat any

$_ZNSt12_Destroy_auxILb0EE9__destroyIN9__gnu_cxx17__normal_iteratorIPNSt7__cxx1112basic_stringIcSt11char_traitsIcESaIcEEESt6vectorIS9_SaIS9_EEEEEEvT_SF_ = comdat any

$_ZN9__gnu_cxxneIPNSt7__cxx1112basic_stringIcSt11char_traitsIcESaIcEEESt6vectorIS6_SaIS6_EEEEbRKNS_17__normal_iteratorIT_T0_EESG_ = comdat any

$_ZNK9__gnu_cxx17__normal_iteratorIPNSt7__cxx1112basic_stringIcSt11char_traitsIcESaIcEEESt6vectorIS6_SaIS6_EEEdeEv = comdat any

$_ZN9__gnu_cxx17__normal_iteratorIPNSt7__cxx1112basic_stringIcSt11char_traitsIcESaIcEEESt6vectorIS6_SaIS6_EEEppEv = comdat any

$_ZNK9__gnu_cxx17__normal_iteratorIPNSt7__cxx1112basic_stringIcSt11char_traitsIcESaIcEEESt6vectorIS6_SaIS6_EEE4baseEv = comdat any

$_ZSt13__copy_move_aILb0EN9__gnu_cxx17__normal_iteratorIPKNSt7__cxx1112basic_stringIcSt11char_traitsIcESaIcEEESt6vectorIS7_SaIS7_EEEENS1_IPS7_SC_EEET1_T0_SH_SG_ = comdat any

$_ZSt12__miter_baseIN9__gnu_cxx17__normal_iteratorIPKNSt7__cxx1112basic_stringIcSt11char_traitsIcESaIcEEESt6vectorIS7_SaIS7_EEEEET_SE_ = comdat any

$_ZSt12__niter_wrapIN9__gnu_cxx17__normal_iteratorIPNSt7__cxx1112basic_stringIcSt11char_traitsIcESaIcEEESt6vectorIS7_SaIS7_EEEES8_ET_SD_T0_ = comdat any

$_ZSt14__copy_move_a1ILb0EPKNSt7__cxx1112basic_stringIcSt11char_traitsIcESaIcEEEPS5_ET1_T0_SA_S9_ = comdat any

$_ZSt12__niter_baseIPKNSt7__cxx1112basic_stringIcSt11char_traitsIcESaIcEEESt6vectorIS5_SaIS5_EEET_N9__gnu_cxx17__normal_iteratorISB_T0_EE = comdat any

$_ZSt12__niter_baseIPNSt7__cxx1112basic_stringIcSt11char_traitsIcESaIcEEESt6vectorIS5_SaIS5_EEET_N9__gnu_cxx17__normal_iteratorISA_T0_EE = comdat any

$_ZNK9__gnu_cxx17__normal_iteratorIPNSt7__cxx1112basic_stringIcSt11char_traitsIcESaIcEEESt6vectorIS6_SaIS6_EEEplEl = comdat any

$_ZN9__gnu_cxx17__normal_iteratorIPNSt7__cxx1112basic_stringIcSt11char_traitsIcESaIcEEESt6vectorIS6_SaIS6_EEEC2ERKS7_ = comdat any

$_ZSt14__copy_move_a2ILb0EPKNSt7__cxx1112basic_stringIcSt11char_traitsIcESaIcEEEPS5_ET1_T0_SA_S9_ = comdat any

$_ZNSt11__copy_moveILb0ELb0ESt26random_access_iterator_tagE8__copy_mIPKNSt7__cxx1112basic_stringIcSt11char_traitsIcESaIcEEEPS8_EET0_T_SD_SC_ = comdat any

$_ZSt13__copy_move_aILb0EPNSt7__cxx1112basic_stringIcSt11char_traitsIcESaIcEEES6_ET1_T0_S8_S7_ = comdat any

$_ZSt12__miter_baseIPNSt7__cxx1112basic_stringIcSt11char_traitsIcESaIcEEEET_S7_ = comdat any

$_ZSt12__niter_wrapIPNSt7__cxx1112basic_stringIcSt11char_traitsIcESaIcEEEET_RKS7_S7_ = comdat any

$_ZSt14__copy_move_a1ILb0EPNSt7__cxx1112basic_stringIcSt11char_traitsIcESaIcEEES6_ET1_T0_S8_S7_ = comdat any

$_ZSt12__niter_baseIPNSt7__cxx1112basic_stringIcSt11char_traitsIcESaIcEEEET_S7_ = comdat any

$_ZSt14__copy_move_a2ILb0EPNSt7__cxx1112basic_stringIcSt11char_traitsIcESaIcEEES6_ET1_T0_S8_S7_ = comdat any

$_ZNSt11__copy_moveILb0ELb0ESt26random_access_iterator_tagE8__copy_mIPNSt7__cxx1112basic_stringIcSt11char_traitsIcESaIcEEES9_EET0_T_SB_SA_ = comdat any

$_ZSt18uninitialized_copyIPNSt7__cxx1112basic_stringIcSt11char_traitsIcESaIcEEES6_ET0_T_S8_S7_ = comdat any

$_ZNSt20__uninitialized_copyILb0EE13__uninit_copyIPNSt7__cxx1112basic_stringIcSt11char_traitsIcESaIcEEES8_EET0_T_SA_S9_ = comdat any

$_ZSt16__do_uninit_copyIPNSt7__cxx1112basic_stringIcSt11char_traitsIcESaIcEEES6_ET0_T_S8_S7_ = comdat any

$_ZSt10_ConstructINSt7__cxx1112basic_stringIcSt11char_traitsIcESaIcEEEJRS5_EEvPT_DpOT0_ = comdat any

$_ZNSt6vectorIN18OpenImageIO_v2_6_010ParamValueESaIS1_EEaSERKS3_ = comdat any

$_ZNKSt6vectorIN18OpenImageIO_v2_6_010ParamValueESaIS1_EE4sizeEv = comdat any

$_ZNKSt6vectorIN18OpenImageIO_v2_6_010ParamValueESaIS1_EE8capacityEv = comdat any

$_ZNSt6vectorIN18OpenImageIO_v2_6_010ParamValueESaIS1_EE20_M_allocate_and_copyIN9__gnu_cxx17__normal_iteratorIPKS1_S3_EEEEPS1_mT_SB_ = comdat any

$_ZNKSt6vectorIN18OpenImageIO_v2_6_010ParamValueESaIS1_EE5beginEv = comdat any

$_ZNKSt6vectorIN18OpenImageIO_v2_6_010ParamValueESaIS1_EE3endEv = comdat any

$_ZSt8_DestroyIPN18OpenImageIO_v2_6_010ParamValueES1_EvT_S3_RSaIT0_E = comdat any

$_ZNSt12_Vector_baseIN18OpenImageIO_v2_6_010ParamValueESaIS1_EE19_M_get_Tp_allocatorEv = comdat any

$_ZNSt12_Vector_baseIN18OpenImageIO_v2_6_010ParamValueESaIS1_EE13_M_deallocateEPS1_m = comdat any

$_ZSt8_DestroyIN9__gnu_cxx17__normal_iteratorIPN18OpenImageIO_v2_6_010ParamValueESt6vectorIS3_SaIS3_EEEES3_EvT_S9_RSaIT0_E = comdat any

$_ZSt4copyIN9__gnu_cxx17__normal_iteratorIPKN18OpenImageIO_v2_6_010ParamValueESt6vectorIS3_SaIS3_EEEENS1_IPS3_S8_EEET0_T_SD_SC_ = comdat any

$_ZNSt6vectorIN18OpenImageIO_v2_6_010ParamValueESaIS1_EE5beginEv = comdat any

$_ZNSt6vectorIN18OpenImageIO_v2_6_010ParamValueESaIS1_EE3endEv = comdat any

$_ZSt4copyIPN18OpenImageIO_v2_6_010ParamValueES2_ET0_T_S4_S3_ = comdat any

$_ZSt22__uninitialized_copy_aIPN18OpenImageIO_v2_6_010ParamValueES2_S1_ET0_T_S4_S3_RSaIT1_E = comdat any

$_ZNSt12_Vector_baseIN18OpenImageIO_v2_6_010ParamValueESaIS1_EE11_M_allocateEm = comdat any

$_ZSt22__uninitialized_copy_aIN9__gnu_cxx17__normal_iteratorIPKN18OpenImageIO_v2_6_010ParamValueESt6vectorIS3_SaIS3_EEEEPS3_S3_ET0_T_SC_SB_RSaIT1_E = comdat any

$_ZNSt16allocator_traitsISaIN18OpenImageIO_v2_6_010ParamValueEEE8allocateERS2_m = comdat any

$_ZNSt15__new_allocatorIN18OpenImageIO_v2_6_010ParamValueEE8allocateEmPKv = comdat any

$_ZNKSt15__new_allocatorIN18OpenImageIO_v2_6_010ParamValueEE11_M_max_sizeEv = comdat any

$_ZSt18uninitialized_copyIN9__gnu_cxx17__normal_iteratorIPKN18OpenImageIO_v2_6_010ParamValueESt6vectorIS3_SaIS3_EEEEPS3_ET0_T_SC_SB_ = comdat any

$_ZNSt20__uninitialized_copyILb0EE13__uninit_copyIN9__gnu_cxx17__normal_iteratorIPKN18OpenImageIO_v2_6_010ParamValueESt6vectorIS5_SaIS5_EEEEPS5_EET0_T_SE_SD_ = comdat any

$_ZSt16__do_uninit_copyIN9__gnu_cxx17__normal_iteratorIPKN18OpenImageIO_v2_6_010ParamValueESt6vectorIS3_SaIS3_EEEEPS3_ET0_T_SC_SB_ = comdat any

$_ZN9__gnu_cxxneIPKN18OpenImageIO_v2_6_010ParamValueESt6vectorIS2_SaIS2_EEEEbRKNS_17__normal_iteratorIT_T0_EESD_ = comdat any

$_ZSt10_ConstructIN18OpenImageIO_v2_6_010ParamValueEJRKS1_EEvPT_DpOT0_ = comdat any

$_ZNK9__gnu_cxx17__normal_iteratorIPKN18OpenImageIO_v2_6_010ParamValueESt6vectorIS2_SaIS2_EEEdeEv = comdat any

$_ZN9__gnu_cxx17__normal_iteratorIPKN18OpenImageIO_v2_6_010ParamValueESt6vectorIS2_SaIS2_EEEppEv = comdat any

$_ZSt8_DestroyIPN18OpenImageIO_v2_6_010ParamValueEEvT_S3_ = comdat any

$_ZNK9__gnu_cxx17__normal_iteratorIPKN18OpenImageIO_v2_6_010ParamValueESt6vectorIS2_SaIS2_EEE4baseEv = comdat any

$_ZN18OpenImageIO_v2_6_010ParamValueC2ERKS0_ = comdat any

$_ZN18OpenImageIO_v2_6_07ustringC2Ev = comdat any

$_ZNK18OpenImageIO_v2_6_010ParamValue4nameEv = comdat any

$_ZN18OpenImageIO_v2_6_07ustringC2ERKS0_ = comdat any

$_ZNK18OpenImageIO_v2_6_010ParamValue4typeEv = comdat any

$_ZNK18OpenImageIO_v2_6_010ParamValue7nvaluesEv = comdat any

$_ZNK18OpenImageIO_v2_6_010ParamValue6interpEv = comdat any

$_ZNK18OpenImageIO_v2_6_010ParamValue4dataEv = comdat any

$_ZN18OpenImageIO_v2_6_010ParamValue4CopyCI2NS_11StrongParamIS1_bEEERKb = comdat any

$_ZN18OpenImageIO_v2_6_010ParamValue11FromUstringCI2NS_11StrongParamIS1_bEEERKb = comdat any

$_ZN18OpenImageIO_v2_6_07ustringD2Ev = comdat any

$_ZN18OpenImageIO_v2_6_011StrongParamINS_10ParamValue4CopyEbEC2ERKb = comdat any

$_ZN18OpenImageIO_v2_6_011StrongParamINS_10ParamValue11FromUstringEbEC2ERKb = comdat any

$_ZNSt12_Destroy_auxILb0EE9__destroyIPN18OpenImageIO_v2_6_010ParamValueEEEvT_S5_ = comdat any

$_ZSt8_DestroyIN18OpenImageIO_v2_6_010ParamValueEEvPT_ = comdat any

$_ZN18OpenImageIO_v2_6_010ParamValueD2Ev = comdat any

$_ZN9__gnu_cxx17__normal_iteratorIPKN18OpenImageIO_v2_6_010ParamValueESt6vectorIS2_SaIS2_EEEC2ERKS4_ = comdat any

$_ZNSt16allocator_traitsISaIN18OpenImageIO_v2_6_010ParamValueEEE10deallocateERS2_PS1_m = comdat any

$_ZNSt15__new_allocatorIN18OpenImageIO_v2_6_010ParamValueEE10deallocateEPS1_m = comdat any

$_ZSt8_DestroyIN9__gnu_cxx17__normal_iteratorIPN18OpenImageIO_v2_6_010ParamValueESt6vectorIS3_SaIS3_EEEEEvT_S9_ = comdat any

$_ZNSt12_Destroy_auxILb0EE9__destroyIN9__gnu_cxx17__normal_iteratorIPN18OpenImageIO_v2_6_010ParamValueESt6vectorIS5_SaIS5_EEEEEEvT_SB_ = comdat any

$_ZN9__gnu_cxxneIPN18OpenImageIO_v2_6_010ParamValueESt6vectorIS2_SaIS2_EEEEbRKNS_17__normal_iteratorIT_T0_EESC_ = comdat any

$_ZNK9__gnu_cxx17__normal_iteratorIPN18OpenImageIO_v2_6_010ParamValueESt6vectorIS2_SaIS2_EEEdeEv = comdat any

$_ZN9__gnu_cxx17__normal_iteratorIPN18OpenImageIO_v2_6_010ParamValueESt6vectorIS2_SaIS2_EEEppEv = comdat any

$_ZNK9__gnu_cxx17__normal_iteratorIPN18OpenImageIO_v2_6_010ParamValueESt6vectorIS2_SaIS2_EEE4baseEv = comdat any

$_ZSt13__copy_move_aILb0EN9__gnu_cxx17__normal_iteratorIPKN18OpenImageIO_v2_6_010ParamValueESt6vectorIS3_SaIS3_EEEENS1_IPS3_S8_EEET1_T0_SD_SC_ = comdat any

$_ZSt12__miter_baseIN9__gnu_cxx17__normal_iteratorIPKN18OpenImageIO_v2_6_010ParamValueESt6vectorIS3_SaIS3_EEEEET_SA_ = comdat any

$_ZSt12__niter_wrapIN9__gnu_cxx17__normal_iteratorIPN18OpenImageIO_v2_6_010ParamValueESt6vectorIS3_SaIS3_EEEES4_ET_S9_T0_ = comdat any

$_ZSt14__copy_move_a1ILb0EPKN18OpenImageIO_v2_6_010ParamValueEPS1_ET1_T0_S6_S5_ = comdat any

$_ZSt12__niter_baseIPKN18OpenImageIO_v2_6_010ParamValueESt6vectorIS1_SaIS1_EEET_N9__gnu_cxx17__normal_iteratorIS7_T0_EE = comdat any

$_ZSt12__niter_baseIPN18OpenImageIO_v2_6_010ParamValueESt6vectorIS1_SaIS1_EEET_N9__gnu_cxx17__normal_iteratorIS6_T0_EE = comdat any

$_ZNK9__gnu_cxx17__normal_iteratorIPN18OpenImageIO_v2_6_010ParamValueESt6vectorIS2_SaIS2_EEEplEl = comdat any

$_ZN9__gnu_cxx17__normal_iteratorIPN18OpenImageIO_v2_6_010ParamValueESt6vectorIS2_SaIS2_EEEC2ERKS3_ = comdat any

$_ZSt14__copy_move_a2ILb0EPKN18OpenImageIO_v2_6_010ParamValueEPS1_ET1_T0_S6_S5_ = comdat any

$_ZNSt11__copy_moveILb0ELb0ESt26random_access_iterator_tagE8__copy_mIPKN18OpenImageIO_v2_6_010ParamValueEPS4_EET0_T_S9_S8_ = comdat any

$_ZSt13__copy_move_aILb0EPN18OpenImageIO_v2_6_010ParamValueES2_ET1_T0_S4_S3_ = comdat any

$_ZSt12__miter_baseIPN18OpenImageIO_v2_6_010ParamValueEET_S3_ = comdat any

$_ZSt12__niter_wrapIPN18OpenImageIO_v2_6_010ParamValueEET_RKS3_S3_ = comdat any

$_ZSt14__copy_move_a1ILb0EPN18OpenImageIO_v2_6_010ParamValueES2_ET1_T0_S4_S3_ = comdat any

$_ZSt12__niter_baseIPN18OpenImageIO_v2_6_010ParamValueEET_S3_ = comdat any

$_ZSt14__copy_move_a2ILb0EPN18OpenImageIO_v2_6_010ParamValueES2_ET1_T0_S4_S3_ = comdat any

$_ZNSt11__copy_moveILb0ELb0ESt26random_access_iterator_tagE8__copy_mIPN18OpenImageIO_v2_6_010ParamValueES5_EET0_T_S7_S6_ = comdat any

$_ZSt18uninitialized_copyIPN18OpenImageIO_v2_6_010ParamValueES2_ET0_T_S4_S3_ = comdat any

$_ZNSt20__uninitialized_copyILb0EE13__uninit_copyIPN18OpenImageIO_v2_6_010ParamValueES4_EET0_T_S6_S5_ = comdat any

$_ZSt16__do_uninit_copyIPN18OpenImageIO_v2_6_010ParamValueES2_ET0_T_S4_S3_ = comdat any

$_ZSt10_ConstructIN18OpenImageIO_v2_6_010ParamValueEJRS1_EEvPT_DpOT0_ = comdat any

$_ZN18OpenImageIO_v2_6_017basic_string_viewIcSt11char_traitsIcEE8cestrlenEPKc = comdat any

$_ZNSt11char_traitsIcE6lengthEPKc = comdat any

$_ZNSt6vectorIN18OpenImageIO_v2_6_08TypeDescESaIS1_EEaSEOS3_ = comdat any

$_ZNSt6vectorINSt7__cxx1112basic_stringIcSt11char_traitsIcESaIcEEESaIS5_EEaSEOS7_ = comdat any

$_ZN18OpenImageIO_v2_6_014ParamValueListaSEOS0_ = comdat any

$_ZNSt6vectorIN18OpenImageIO_v2_6_08TypeDescESaIS1_EE14_M_move_assignEOS3_St17integral_constantIbLb1EE = comdat any

$_ZNKSt12_Vector_baseIN18OpenImageIO_v2_6_08TypeDescESaIS1_EE13get_allocatorEv = comdat any

$_ZNSt6vectorIN18OpenImageIO_v2_6_08TypeDescESaIS1_EEC2ERKS2_ = comdat any

$_ZNSaIN18OpenImageIO_v2_6_08TypeDescEED2Ev = comdat any

$_ZNSt12_Vector_baseIN18OpenImageIO_v2_6_08TypeDescESaIS1_EE17_Vector_impl_data12_M_swap_dataERS4_ = comdat any

$_ZSt15__alloc_on_moveISaIN18OpenImageIO_v2_6_08TypeDescEEEvRT_S4_ = comdat any

$_ZNSt6vectorIN18OpenImageIO_v2_6_08TypeDescESaIS1_EED2Ev = comdat any

$_ZNKSt12_Vector_baseIN18OpenImageIO_v2_6_08TypeDescESaIS1_EE19_M_get_Tp_allocatorEv = comdat any

$_ZNSaIN18OpenImageIO_v2_6_08TypeDescEEC2ERKS1_ = comdat any

$_ZNSt15__new_allocatorIN18OpenImageIO_v2_6_08TypeDescEEC2ERKS2_ = comdat any

$_ZNSt12_Vector_baseIN18OpenImageIO_v2_6_08TypeDescESaIS1_EEC2ERKS2_ = comdat any

$_ZNSt12_Vector_baseIN18OpenImageIO_v2_6_08TypeDescESaIS1_EE12_Vector_implC2ERKS2_ = comdat any

$_ZNSt15__new_allocatorIN18OpenImageIO_v2_6_08TypeDescEED2Ev = comdat any

$_ZNSt12_Vector_baseIN18OpenImageIO_v2_6_08TypeDescESaIS1_EE17_Vector_impl_dataC2Ev = comdat any

$_ZNSt12_Vector_baseIN18OpenImageIO_v2_6_08TypeDescESaIS1_EE17_Vector_impl_data12_M_copy_dataERKS4_ = comdat any

$_ZNSt12_Vector_baseIN18OpenImageIO_v2_6_08TypeDescESaIS1_EED2Ev = comdat any

$_ZNSt12_Vector_baseIN18OpenImageIO_v2_6_08TypeDescESaIS1_EE12_Vector_implD2Ev = comdat any

$_ZNSt6vectorINSt7__cxx1112basic_stringIcSt11char_traitsIcESaIcEEESaIS5_EE14_M_move_assignEOS7_St17integral_constantIbLb1EE = comdat any

$_ZNKSt12_Vector_baseINSt7__cxx1112basic_stringIcSt11char_traitsIcESaIcEEESaIS5_EE13get_allocatorEv = comdat any

$_ZNSt6vectorINSt7__cxx1112basic_stringIcSt11char_traitsIcESaIcEEESaIS5_EEC2ERKS6_ = comdat any

$_ZNSaINSt7__cxx1112basic_stringIcSt11char_traitsIcESaIcEEEED2Ev = comdat any

$_ZNSt12_Vector_baseINSt7__cxx1112basic_stringIcSt11char_traitsIcESaIcEEESaIS5_EE17_Vector_impl_data12_M_swap_dataERS8_ = comdat any

$_ZSt15__alloc_on_moveISaINSt7__cxx1112basic_stringIcSt11char_traitsIcESaIcEEEEEvRT_S8_ = comdat any

$_ZNSt6vectorINSt7__cxx1112basic_stringIcSt11char_traitsIcESaIcEEESaIS5_EED2Ev = comdat any

$_ZNKSt12_Vector_baseINSt7__cxx1112basic_stringIcSt11char_traitsIcESaIcEEESaIS5_EE19_M_get_Tp_allocatorEv = comdat any

$_ZNSaINSt7__cxx1112basic_stringIcSt11char_traitsIcESaIcEEEEC2ERKS5_ = comdat any

$_ZNSt15__new_allocatorINSt7__cxx1112basic_stringIcSt11char_traitsIcESaIcEEEEC2ERKS6_ = comdat any

$_ZNSt12_Vector_baseINSt7__cxx1112basic_stringIcSt11char_traitsIcESaIcEEESaIS5_EEC2ERKS6_ = comdat any

$_ZNSt12_Vector_baseINSt7__cxx1112basic_stringIcSt11char_traitsIcESaIcEEESaIS5_EE12_Vector_implC2ERKS6_ = comdat any

$_ZNSt15__new_allocatorINSt7__cxx1112basic_stringIcSt11char_traitsIcESaIcEEEED2Ev = comdat any

$_ZNSt12_Vector_baseINSt7__cxx1112basic_stringIcSt11char_traitsIcESaIcEEESaIS5_EE17_Vector_impl_dataC2Ev = comdat any

$_ZNSt12_Vector_baseINSt7__cxx1112basic_stringIcSt11char_traitsIcESaIcEEESaIS5_EE17_Vector_impl_data12_M_copy_dataERKS8_ = comdat any

$_ZNSt12_Vector_baseINSt7__cxx1112basic_stringIcSt11char_traitsIcESaIcEEESaIS5_EED2Ev = comdat any

$_ZNSt12_Vector_baseINSt7__cxx1112basic_stringIcSt11char_traitsIcESaIcEEESaIS5_EE12_Vector_implD2Ev = comdat any

$_ZNSt6vectorIN18OpenImageIO_v2_6_010ParamValueESaIS1_EEaSEOS3_ = comdat any

$_ZNSt6vectorIN18OpenImageIO_v2_6_010ParamValueESaIS1_EE14_M_move_assignEOS3_St17integral_constantIbLb1EE = comdat any

$_ZNKSt12_Vector_baseIN18OpenImageIO_v2_6_010ParamValueESaIS1_EE13get_allocatorEv = comdat any

$_ZNSt6vectorIN18OpenImageIO_v2_6_010ParamValueESaIS1_EEC2ERKS2_ = comdat any

$_ZNSaIN18OpenImageIO_v2_6_010ParamValueEED2Ev = comdat any

$_ZNSt12_Vector_baseIN18OpenImageIO_v2_6_010ParamValueESaIS1_EE17_Vector_impl_data12_M_swap_dataERS4_ = comdat any

$_ZSt15__alloc_on_moveISaIN18OpenImageIO_v2_6_010ParamValueEEEvRT_S4_ = comdat any

$_ZNSt6vectorIN18OpenImageIO_v2_6_010ParamValueESaIS1_EED2Ev = comdat any

$_ZNKSt12_Vector_baseIN18OpenImageIO_v2_6_010ParamValueESaIS1_EE19_M_get_Tp_allocatorEv = comdat any

$_ZNSaIN18OpenImageIO_v2_6_010ParamValueEEC2ERKS1_ = comdat any

$_ZNSt15__new_allocatorIN18OpenImageIO_v2_6_010ParamValueEEC2ERKS2_ = comdat any

$_ZNSt12_Vector_baseIN18OpenImageIO_v2_6_010ParamValueESaIS1_EEC2ERKS2_ = comdat any

$_ZNSt12_Vector_baseIN18OpenImageIO_v2_6_010ParamValueESaIS1_EE12_Vector_implC2ERKS2_ = comdat any

$_ZNSt15__new_allocatorIN18OpenImageIO_v2_6_010ParamValueEED2Ev = comdat any

$_ZNSt12_Vector_baseIN18OpenImageIO_v2_6_010ParamValueESaIS1_EE17_Vector_impl_dataC2Ev = comdat any

$_ZNSt12_Vector_baseIN18OpenImageIO_v2_6_010ParamValueESaIS1_EE17_Vector_impl_data12_M_copy_dataERKS4_ = comdat any

$_ZNSt12_Vector_baseIN18OpenImageIO_v2_6_010ParamValueESaIS1_EED2Ev = comdat any

$_ZNSt12_Vector_baseIN18OpenImageIO_v2_6_010ParamValueESaIS1_EE12_Vector_implD2Ev = comdat any

$_ZN18OpenImageIO_v2_6_014ParamValueListD2Ev = comdat any

$_ZN18OpenImageIO_v2_6_017basic_string_viewIcSt11char_traitsIcEEC2ERKS3_ = comdat any

$_ZNK18OpenImageIO_v2_6_017basic_string_viewIcSt11char_traitsIcEE4dataEv = comdat any

$_ZNK18OpenImageIO_v2_6_017basic_string_viewIcSt11char_traitsIcEE4sizeEv = comdat any

$_ZNSt6vectorIhSaIhEE5clearEv = comdat any

$_ZNSt6vectorIhSaIhEE15_M_erase_at_endEPh = comdat any

$_ZN3dpx5Block5CheckEv = comdat any

$_ZN18OpenImageIO_v2_6_0eqENS_17basic_string_viewIcSt11char_traitsIcEEES3_ = comdat any

$_ZNK18OpenImageIO_v2_6_017basic_string_viewIcSt11char_traitsIcEE7compareES3_ = comdat any

$_ZNSt11char_traitsIcE7compareEPKcS2_m = comdat any

$_ZSt3minImERKT_S2_S2_ = comdat any

$_ZNSt7__cxx1112basic_stringIcSt11char_traitsIcESaIcEE12_M_constructIPKcEEvT_S8_St20forward_iterator_tag = comdat any

$_ZNSt7__cxx1112basic_stringIcSt11char_traitsIcESaIcEE12_Alloc_hiderD2Ev = comdat any

$_ZSt8distanceIPKcENSt15iterator_traitsIT_E15difference_typeES3_S3_ = comdat any

$_ZZNSt7__cxx1112basic_stringIcSt11char_traitsIcESaIcEE12_M_constructIPKcEEvT_S8_St20forward_iterator_tagEN6_GuardC2EPS4_ = comdat any

$_ZZNSt7__cxx1112basic_stringIcSt11char_traitsIcESaIcEE12_M_constructIPKcEEvT_S8_St20forward_iterator_tagEN6_GuardD2Ev = comdat any

$_ZSt10__distanceIPKcENSt15iterator_traitsIT_E15difference_typeES3_S3_St26random_access_iterator_tag = comdat any

$_ZSt19__iterator_categoryIPKcENSt15iterator_traitsIT_E17iterator_categoryERKS3_ = comdat any

$_ZN3fmt2v87sprintfIPKcJNSt7__cxx1112basic_stringIcSt11char_traitsIcESaIcEEEEcEENS5_IT1_S6_ISA_ESaISA_EEERKT_DpRKT0_ = comdat any

$_ZN3fmt2v88vsprintfINS0_17basic_string_viewIcEEcEENSt7__cxx1112basic_stringIT0_St11char_traitsIS6_ESaIS6_EEERKT_NS0_17basic_format_argsINS0_20basic_printf_contextINSt11conditionalIXsr3std7is_sameINS0_13type_identityIS6_E4typeEcEE5valueENS0_8appenderESt20back_insert_iteratorINS0_6detail6bufferISJ_EEEE4typeESJ_EEEE = comdat any

$_ZN3fmt2v816make_format_argsINS0_20basic_printf_contextINS0_8appenderEcEEJRKNSt7__cxx1112basic_stringIcSt11char_traitsIcESaIcEEEEEENS0_16format_arg_storeIT_JDpNSt9remove_cvINSt16remove_referenceIT0_E4typeEE4typeEEEEDpOSH_ = comdat any

$_ZN3fmt2v819basic_memory_bufferIcLm500ESaIcEEC2ERKS2_ = comdat any

$_ZN3fmt2v86detail7vprintfIcNS0_20basic_printf_contextINS0_8appenderEcEEEEvRNS1_6bufferIT_EENS0_17basic_string_viewIS7_EENS0_17basic_format_argsIT0_EE = comdat any

$_ZN3fmt2v814to_string_viewIcEENS0_17basic_string_viewIT_EES4_ = comdat any

$_ZN3fmt2v89to_stringIcLm500EEENSt7__cxx1112basic_stringIT_St11char_traitsIS4_ESaIS4_EEERKNS0_19basic_memory_bufferIS4_XT0_ES7_EE = comdat any

$_ZN3fmt2v819basic_memory_bufferIcLm500ESaIcEED2Ev = comdat any

$_ZN3fmt2v86detail6bufferIcEC2EPcmm = comdat any

$_ZN3fmt2v86detail6bufferIcE3setEPcm = comdat any

$_ZN3fmt2v819basic_memory_bufferIcLm500ESaIcEE4growEm = comdat any

$_ZNSt16allocator_traitsISaIcEE8max_sizeERKS0_ = comdat any

$_ZNK3fmt2v86detail6bufferIcE8capacityEv = comdat any

$_ZN3fmt2v86detail6bufferIcE4dataEv = comdat any

$_ZNSt16allocator_traitsISaIcEE8allocateERS0_m = comdat any

$_ZSt18uninitialized_copyIPcS0_ET0_T_S2_S1_ = comdat any

$_ZNK3fmt2v86detail6bufferIcE4sizeEv = comdat any

$_ZN3fmt2v86detail12make_checkedIcEEPT_S4_m = comdat any

$_ZNSt15__new_allocatorIcE10deallocateEPcm = comdat any

$_ZNKSt15__new_allocatorIcE8max_sizeEv = comdat any

$_ZNKSt15__new_allocatorIcE11_M_max_sizeEv = comdat any

$_ZNSt15__new_allocatorIcE8allocateEmPKv = comdat any

$_ZNSt20__uninitialized_copyILb1EE13__uninit_copyIPcS2_EET0_T_S4_S3_ = comdat any

$_ZSt4copyIPcS0_ET0_T_S2_S1_ = comdat any

$_ZSt13__copy_move_aILb0EPcS0_ET1_T0_S2_S1_ = comdat any

$_ZSt12__miter_baseIPcET_S1_ = comdat any

$_ZSt12__niter_wrapIPcET_RKS1_S1_ = comdat any

$_ZSt14__copy_move_a1ILb0EPcS0_ET1_T0_S2_S1_ = comdat any

$_ZSt12__niter_baseIPcET_S1_ = comdat any

$_ZSt14__copy_move_a2ILb0EPcS0_ET1_T0_S2_S1_ = comdat any

$_ZNSt11__copy_moveILb0ELb1ESt26random_access_iterator_tagE8__copy_mIcEEPT_PKS3_S6_S4_ = comdat any

$_ZN3fmt2v88appenderCI2St20back_insert_iteratorINS0_6detail6bufferIcEEEERS5_ = comdat any

$_ZN3fmt2v820basic_printf_contextINS0_8appenderEcEC2ES2_NS0_17basic_format_argsIS3_EE = comdat any

$_ZN3fmt2v826basic_printf_parse_contextIcECI2NS0_26basic_format_parse_contextIcNS0_6detail13error_handlerEEEENS0_17basic_string_viewIcEES5_i = comdat any

$_ZNK3fmt2v826basic_format_parse_contextIcNS0_6detail13error_handlerEE5beginEv = comdat any

$_ZNK3fmt2v826basic_format_parse_contextIcNS0_6detail13error_handlerEE3endEv = comdat any

$_ZN3fmt2v86detail4findILb0EcPKcEEbT1_S5_T0_RS5_ = comdat any

$_ZN3fmt2v86detail5writeIcNS0_8appenderEEET0_S4_NS0_17basic_string_viewIT_EE = comdat any

$_ZN3fmt2v86detail11to_unsignedIlEENSt13make_unsignedIT_E4typeES4_ = comdat any

$_ZN3fmt2v817basic_string_viewIcEC2EPKcm = comdat any

$_ZN3fmt2v818basic_format_specsIcEC2Ev = comdat any

$_ZN3fmt2v86detail12parse_headerIcZNS1_7vprintfIcNS0_20basic_printf_contextINS0_8appenderEcEEEEvRNS1_6bufferIT_EENS0_17basic_string_viewIS8_EENS0_17basic_format_argsIT0_EEEUliE_EEiRPKS8_SI_RNS0_18basic_format_specsIS8_EESE_ = comdat any

$_ZN3fmt2v826basic_format_parse_contextIcNS0_6detail13error_handlerEE8on_errorEPKc = comdat any

$_ZN3fmt2v86detail21parse_nonnegative_intIcEEiRPKT_S5_i = comdat any

$_ZZN3fmt2v86detail7vprintfIcNS0_20basic_printf_contextINS0_8appenderEcEEEEvRNS1_6bufferIT_EENS0_17basic_string_viewIS7_EENS0_17basic_format_argsIT0_EEENKUliE_clEi = comdat any

$_ZNK3fmt2v816basic_format_argINS0_20basic_printf_contextINS0_8appenderEcEEE11is_integralEv = comdat any

$_ZN3fmt2v86detail6fill_tIcEixEm = comdat any

$_ZNK3fmt2v816basic_format_argINS0_20basic_printf_contextINS0_8appenderEcEEE4typeEv = comdat any

$_ZSt4findIPKccET_S2_S2_RKT0_ = comdat any

$_ZN3fmt2v86detail8make_argINS0_20basic_printf_contextINS0_8appenderEcEENS0_17basic_string_viewIcEEEENS0_16basic_format_argIT_EERKT0_ = comdat any

$_ZNK3fmt2v816basic_format_argINS0_20basic_printf_contextINS0_8appenderEcEEE13is_arithmeticEv = comdat any

$_ZN3fmt2v86detail11convert_argIaNS0_20basic_printf_contextINS0_8appenderEcEEcEEvRNS0_16basic_format_argIT0_EET1_ = comdat any

$_ZN3fmt2v86detail11convert_argIsNS0_20basic_printf_contextINS0_8appenderEcEEcEEvRNS0_16basic_format_argIT0_EET1_ = comdat any

$_ZN3fmt2v86detail11convert_argIxNS0_20basic_printf_contextINS0_8appenderEcEEcEEvRNS0_16basic_format_argIT0_EET1_ = comdat any

$_ZN3fmt2v86detail11convert_argIlNS0_20basic_printf_contextINS0_8appenderEcEEcEEvRNS0_16basic_format_argIT0_EET1_ = comdat any

$_ZN3fmt2v86detail11convert_argImNS0_20basic_printf_contextINS0_8appenderEcEEcEEvRNS0_16basic_format_argIT0_EET1_ = comdat any

$_ZN3fmt2v86detail11convert_argIvNS0_20basic_printf_contextINS0_8appenderEcEEcEEvRNS0_16basic_format_argIT0_EET1_ = comdat any

$_ZN3fmt2v86detail13ignore_unusedIJbPKcEEEvDpRKT_ = comdat any

$_ZN3fmt2v812format_errorC2EPKc = comdat any

$_ZN3fmt2v86detail14char_converterINS0_20basic_printf_contextINS0_8appenderEcEEEC2ERNS0_16basic_format_argIS5_EE = comdat any

$_ZN3fmt2v86detail23parse_presentation_typeIcEENS0_17presentation_typeET_ = comdat any

$_ZN3fmt2v86detail20printf_arg_formatterINS0_8appenderEcEC2ES3_RNS0_18basic_format_specsIcEERNS0_20basic_printf_contextIS3_cEE = comdat any

$_ZNSt20back_insert_iteratorIN3fmt2v86detail6bufferIcEEEC2ERS4_ = comdat any

$_ZN3fmt2v826basic_format_parse_contextIcNS0_6detail13error_handlerEEC2ENS0_17basic_string_viewIcEES3_i = comdat any

$_ZNK3fmt2v817basic_string_viewIcE5beginEv = comdat any

$_ZNK3fmt2v817basic_string_viewIcE3endEv = comdat any

$_ZN3fmt2v86detail7reserveINS0_8appenderEEERT_S5_m = comdat any

$_ZNK3fmt2v817basic_string_viewIcE4sizeEv = comdat any

$_ZN3fmt2v86detail17copy_str_noinlineIcPKcNS0_8appenderEEET1_T0_S7_S6_ = comdat any

$_ZN3fmt2v86detail13base_iteratorINS0_8appenderEEET_S4_S4_ = comdat any

$_ZN3fmt2v86detail8copy_strIcPKcEENS0_8appenderET0_S6_S5_ = comdat any

$_ZN3fmt2v86detail13get_containerINS1_6bufferIcEEEERT_St20back_insert_iteratorIS5_E = comdat any

$_ZN3fmt2v86detail6bufferIcE6appendIcEEvPKT_S7_ = comdat any

$_ZZN3fmt2v86detail13get_containerINS1_6bufferIcEEEERT_St20back_insert_iteratorIS5_EEN8accessorC2ES7_IS4_E = comdat any

$_ZN3fmt2v86detail6bufferIcE11try_reserveEm = comdat any

$_ZSt20uninitialized_copy_nIPKcmPcET1_T_T0_S3_ = comdat any

$_ZSt22__uninitialized_copy_nIPKcmPcET1_T_T0_S3_St26random_access_iterator_tag = comdat any

$_ZSt18uninitialized_copyIPKcPcET0_T_S4_S3_ = comdat any

$_ZNSt20__uninitialized_copyILb1EE13__uninit_copyIPKcPcEET0_T_S6_S5_ = comdat any

$_ZSt4copyIPKcPcET0_T_S4_S3_ = comdat any

$_ZSt13__copy_move_aILb0EPKcPcET1_T0_S4_S3_ = comdat any

$_ZSt12__miter_baseIPKcET_S2_ = comdat any

$_ZSt14__copy_move_a1ILb0EPKcPcET1_T0_S4_S3_ = comdat any

$_ZSt12__niter_baseIPKcET_S2_ = comdat any

$_ZSt14__copy_move_a2ILb0EPKcPcET1_T0_S4_S3_ = comdat any

$_ZN3fmt2v86detail13ignore_unusedIJbA15_cEEEvDpRKT_ = comdat any

$_ZN3fmt2v86detail6fill_tIcEC2Ev = comdat any

$_ZN3fmt2v86detail9max_valueIiEET_v = comdat any

$_ZN3fmt2v86detail11parse_flagsIcEEvRNS0_18basic_format_specsIT_EERPKS4_S8_ = comdat any

$_ZN3fmt2v86detail20printf_width_handlerIcEC2ERNS0_18basic_format_specsIcEE = comdat any

$_ZN3fmt2v86detail20printf_width_handlerIcEclIiTnNSt9enable_ifIXsr3std11is_integralIT_EE5valueEiE4typeELi0EEEjS6_ = comdat any

$_ZN3fmt2v86detail20printf_width_handlerIcEclIjTnNSt9enable_ifIXsr3std11is_integralIT_EE5valueEiE4typeELi0EEEjS6_ = comdat any

$_ZN3fmt2v86detail20printf_width_handlerIcEclIxTnNSt9enable_ifIXsr3std11is_integralIT_EE5valueEiE4typeELi0EEEjS6_ = comdat any

$_ZN3fmt2v86detail20printf_width_handlerIcEclIyTnNSt9enable_ifIXsr3std11is_integralIT_EE5valueEiE4typeELi0EEEjS6_ = comdat any

$_ZN3fmt2v86detail20printf_width_handlerIcEclInTnNSt9enable_ifIXntsr3std11is_integralIT_EE5valueEiE4typeELi0EEEjS6_ = comdat any

$_ZN3fmt2v86detail17convert_for_visitInEET_S3_ = comdat any

$_ZN3fmt2v86detail20printf_width_handlerIcEclIoTnNSt9enable_ifIXntsr3std11is_integralIT_EE5valueEiE4typeELi0EEEjS6_ = comdat any

$_ZN3fmt2v86detail17convert_for_visitIoEET_S3_ = comdat any

$_ZN3fmt2v86detail20printf_width_handlerIcEclIbTnNSt9enable_ifIXsr3std11is_integralIT_EE5valueEiE4typeELi0EEEjS6_ = comdat any

$_ZN3fmt2v86detail20printf_width_handlerIcEclIcTnNSt9enable_ifIXsr3std11is_integralIT_EE5valueEiE4typeELi0EEEjS6_ = comdat any

$_ZN3fmt2v86detail20printf_width_handlerIcEclIfTnNSt9enable_ifIXntsr3std11is_integralIT_EE5valueEiE4typeELi0EEEjS6_ = comdat any

$_ZN3fmt2v86detail20printf_width_handlerIcEclIdTnNSt9enable_ifIXntsr3std11is_integralIT_EE5valueEiE4typeELi0EEEjS6_ = comdat any

$_ZN3fmt2v86detail20printf_width_handlerIcEclIeTnNSt9enable_ifIXntsr3std11is_integralIT_EE5valueEiE4typeELi0EEEjS6_ = comdat any

$_ZN3fmt2v86detail20printf_width_handlerIcEclIPKcTnNSt9enable_ifIXntsr3std11is_integralIT_EE5valueEiE4typeELi0EEEjS8_ = comdat any

$_ZN3fmt2v86detail20printf_width_handlerIcEclINS0_17basic_string_viewIcEETnNSt9enable_ifIXntsr3std11is_integralIT_EE5valueEiE4typeELi0EEEjS8_ = comdat any

$_ZN3fmt2v86detail20printf_width_handlerIcEclIPKvTnNSt9enable_ifIXntsr3std11is_integralIT_EE5valueEiE4typeELi0EEEjS8_ = comdat any

$_ZN3fmt2v86detail20printf_width_handlerIcEclINS0_16basic_format_argINS0_20basic_printf_contextINS0_8appenderEcEEE6handleETnNSt9enable_ifIXntsr3std11is_integralIT_EE5valueEiE4typeELi0EEEjSC_ = comdat any

$_ZN3fmt2v816basic_format_argINS0_20basic_printf_contextINS0_8appenderEcEEE6handleC2ENS0_6detail12custom_valueIS4_EE = comdat any

$_ZN3fmt2v86detail20printf_width_handlerIcEclINS0_9monostateETnNSt9enable_ifIXntsr3std11is_integralIT_EE5valueEiE4typeELi0EEEjS7_ = comdat any

$_ZN3fmt2v89monostateC2Ev = comdat any

$_ZN3fmt2v86detail11is_negativeIiTnNSt9enable_ifIXsr9is_signedIT_EE5valueEiE4typeELi0EEEbS4_ = comdat any

$_ZN3fmt2v86detail11is_negativeIjTnNSt9enable_ifIXntsr9is_signedIT_EE5valueEiE4typeELi0EEEbS4_ = comdat any

$_ZN3fmt2v86detail11is_negativeIxTnNSt9enable_ifIXsr9is_signedIT_EE5valueEiE4typeELi0EEEbS4_ = comdat any

$_ZN3fmt2v86detail11is_negativeIyTnNSt9enable_ifIXntsr9is_signedIT_EE5valueEiE4typeELi0EEEbS4_ = comdat any

$_ZN3fmt2v86detail11is_negativeIbTnNSt9enable_ifIXntsr9is_signedIT_EE5valueEiE4typeELi0EEEbS4_ = comdat any

$_ZN3fmt2v86detail11is_negativeIcTnNSt9enable_ifIXsr9is_signedIT_EE5valueEiE4typeELi0EEEbS4_ = comdat any

$_ZN3fmt2v86detail13error_handler8on_errorEPKc = comdat any

$_ZN3fmt2v86detail18throw_format_errorEPKc = comdat any

$_ZN3fmt2v86detail13ignore_unusedIJbA1_cEEEvDpRKT_ = comdat any

$_ZN3fmt2v86detail24printf_precision_handlerclIiTnNSt9enable_ifIXsr3std11is_integralIT_EE5valueEiE4typeELi0EEEiS5_ = comdat any

$_ZN3fmt2v86detail24printf_precision_handlerclIjTnNSt9enable_ifIXsr3std11is_integralIT_EE5valueEiE4typeELi0EEEiS5_ = comdat any

$_ZN3fmt2v86detail24printf_precision_handlerclIxTnNSt9enable_ifIXsr3std11is_integralIT_EE5valueEiE4typeELi0EEEiS5_ = comdat any

$_ZN3fmt2v86detail24printf_precision_handlerclIyTnNSt9enable_ifIXsr3std11is_integralIT_EE5valueEiE4typeELi0EEEiS5_ = comdat any

$_ZN3fmt2v86detail24printf_precision_handlerclInTnNSt9enable_ifIXntsr3std11is_integralIT_EE5valueEiE4typeELi0EEEiS5_ = comdat any

$_ZN3fmt2v86detail24printf_precision_handlerclIoTnNSt9enable_ifIXntsr3std11is_integralIT_EE5valueEiE4typeELi0EEEiS5_ = comdat any

$_ZN3fmt2v86detail24printf_precision_handlerclIbTnNSt9enable_ifIXsr3std11is_integralIT_EE5valueEiE4typeELi0EEEiS5_ = comdat any

$_ZN3fmt2v86detail24printf_precision_handlerclIcTnNSt9enable_ifIXsr3std11is_integralIT_EE5valueEiE4typeELi0EEEiS5_ = comdat any

$_ZN3fmt2v86detail24printf_precision_handlerclIfTnNSt9enable_ifIXntsr3std11is_integralIT_EE5valueEiE4typeELi0EEEiS5_ = comdat any

$_ZN3fmt2v86detail24printf_precision_handlerclIdTnNSt9enable_ifIXntsr3std11is_integralIT_EE5valueEiE4typeELi0EEEiS5_ = comdat any

$_ZN3fmt2v86detail24printf_precision_handlerclIeTnNSt9enable_ifIXntsr3std11is_integralIT_EE5valueEiE4typeELi0EEEiS5_ = comdat any

$_ZN3fmt2v86detail24printf_precision_handlerclIPKcTnNSt9enable_ifIXntsr3std11is_integralIT_EE5valueEiE4typeELi0EEEiS7_ = comdat any

$_ZN3fmt2v86detail24printf_precision_handlerclINS0_17basic_string_viewIcEETnNSt9enable_ifIXntsr3std11is_integralIT_EE5valueEiE4typeELi0EEEiS7_ = comdat any

$_ZN3fmt2v86detail24printf_precision_handlerclIPKvTnNSt9enable_ifIXntsr3std11is_integralIT_EE5valueEiE4typeELi0EEEiS7_ = comdat any

$_ZN3fmt2v86detail24printf_precision_handlerclINS0_16basic_format_argINS0_20basic_printf_contextINS0_8appenderEcEEE6handleETnNSt9enable_ifIXntsr3std11is_integralIT_EE5valueEiE4typeELi0EEEiSB_ = comdat any

$_ZN3fmt2v86detail24printf_precision_handlerclINS0_9monostateETnNSt9enable_ifIXntsr3std11is_integralIT_EE5valueEiE4typeELi0EEEiS6_ = comdat any

$_ZN3fmt2v86detail11int_checkerILb1EE11fits_in_intEi = comdat any

$_ZSt3maxIiERKT_S2_S2_ = comdat any

$_ZN3fmt2v86detail11int_checkerILb0EE11fits_in_intIjEEbT_ = comdat any

$_ZN3fmt2v86detail11int_checkerILb1EE11fits_in_intIxEEbT_ = comdat any

$_ZNSt14numeric_limitsIiE3minEv = comdat any

$_ZN3fmt2v86detail11int_checkerILb0EE11fits_in_intIyEEbT_ = comdat any

$_ZN3fmt2v86detail11int_checkerILb0EE11fits_in_intEb = comdat any

$_ZN3fmt2v86detail11int_checkerILb1EE11fits_in_intIcEEbT_ = comdat any

$_ZN3fmt2v826basic_format_parse_contextIcNS0_6detail13error_handlerEE11next_arg_idEv = comdat any

$_ZN3fmt2v826basic_format_parse_contextIcNS0_6detail13error_handlerEE12check_arg_idEi = comdat any

$_ZN3fmt2v86detail7get_argINS0_20basic_printf_contextINS0_8appenderEcEEiEENT_10format_argERS6_T0_ = comdat any

$_ZNK3fmt2v820basic_printf_contextINS0_8appenderEcE3argEi = comdat any

$_ZNK3fmt2v816basic_format_argINS0_20basic_printf_contextINS0_8appenderEcEEEcvbEv = comdat any

$_ZN3fmt2v820basic_printf_contextINS0_8appenderEcE8on_errorEPKc = comdat any

$_ZNK3fmt2v817basic_format_argsINS0_20basic_printf_contextINS0_8appenderEcEEE3getEi = comdat any

$_ZN3fmt2v816basic_format_argINS0_20basic_printf_contextINS0_8appenderEcEEEC2Ev = comdat any

$_ZNK3fmt2v817basic_format_argsINS0_20basic_printf_contextINS0_8appenderEcEEE9is_packedEv = comdat any

$_ZNK3fmt2v817basic_format_argsINS0_20basic_printf_contextINS0_8appenderEcEEE8max_sizeEv = comdat any

$_ZNK3fmt2v817basic_format_argsINS0_20basic_printf_contextINS0_8appenderEcEEE4typeEi = comdat any

$_ZN3fmt2v86detail16is_integral_typeENS1_4typeE = comdat any

$_ZN3fmt2v86detail11get_cstringIcEclIiEEPKcT_ = comdat any

$_ZN3fmt2v86detail11get_cstringIcEclIjEEPKcT_ = comdat any

$_ZN3fmt2v86detail11get_cstringIcEclIxEEPKcT_ = comdat any

$_ZN3fmt2v86detail11get_cstringIcEclIyEEPKcT_ = comdat any

$_ZN3fmt2v86detail11get_cstringIcEclInEEPKcT_ = comdat any

$_ZN3fmt2v86detail11get_cstringIcEclIoEEPKcT_ = comdat any

$_ZN3fmt2v86detail11get_cstringIcEclIbEEPKcT_ = comdat any

$_ZN3fmt2v86detail11get_cstringIcEclIcEEPKcT_ = comdat any

$_ZN3fmt2v86detail11get_cstringIcEclIfEEPKcT_ = comdat any

$_ZN3fmt2v86detail11get_cstringIcEclIdEEPKcT_ = comdat any

$_ZN3fmt2v86detail11get_cstringIcEclIeEEPKcT_ = comdat any

$_ZN3fmt2v86detail11get_cstringIcEclEPKc = comdat any

$_ZN3fmt2v86detail11get_cstringIcEclINS0_17basic_string_viewIcEEEEPKcT_ = comdat any

$_ZN3fmt2v86detail11get_cstringIcEclIPKvEEPKcT_ = comdat any

$_ZN3fmt2v86detail11get_cstringIcEclINS0_16basic_format_argINS0_20basic_printf_contextINS0_8appenderEcEEE6handleEEEPKcT_ = comdat any

$_ZN3fmt2v86detail11get_cstringIcEclINS0_9monostateEEEPKcT_ = comdat any

$_ZSt9__find_ifIPKcN9__gnu_cxx5__ops16_Iter_equals_valIS0_EEET_S6_S6_T0_ = comdat any

$_ZN9__gnu_cxx5__ops17__iter_equals_valIKcEENS0_16_Iter_equals_valIT_EERS4_ = comdat any

$_ZSt9__find_ifIPKcN9__gnu_cxx5__ops16_Iter_equals_valIS0_EEET_S6_S6_T0_St26random_access_iterator_tag = comdat any

$_ZN9__gnu_cxx5__ops16_Iter_equals_valIKcEclIPS2_EEbT_ = comdat any

$_ZN9__gnu_cxx5__ops16_Iter_equals_valIKcEC2ERS2_ = comdat any

$_ZNK3fmt2v817basic_string_viewIcE4dataEv = comdat any

$_ZN3fmt2v86detail11is_zero_intclIiTnNSt9enable_ifIXsr3std11is_integralIT_EE5valueEiE4typeELi0EEEbS5_ = comdat any

$_ZN3fmt2v86detail11is_zero_intclIjTnNSt9enable_ifIXsr3std11is_integralIT_EE5valueEiE4typeELi0EEEbS5_ = comdat any

$_ZN3fmt2v86detail11is_zero_intclIxTnNSt9enable_ifIXsr3std11is_integralIT_EE5valueEiE4typeELi0EEEbS5_ = comdat any

$_ZN3fmt2v86detail11is_zero_intclIyTnNSt9enable_ifIXsr3std11is_integralIT_EE5valueEiE4typeELi0EEEbS5_ = comdat any

$_ZN3fmt2v86detail11is_zero_intclInTnNSt9enable_ifIXntsr3std11is_integralIT_EE5valueEiE4typeELi0EEEbS5_ = comdat any

$_ZN3fmt2v86detail11is_zero_intclIoTnNSt9enable_ifIXntsr3std11is_integralIT_EE5valueEiE4typeELi0EEEbS5_ = comdat any

$_ZN3fmt2v86detail11is_zero_intclIbTnNSt9enable_ifIXsr3std11is_integralIT_EE5valueEiE4typeELi0EEEbS5_ = comdat any

$_ZN3fmt2v86detail11is_zero_intclIcTnNSt9enable_ifIXsr3std11is_integralIT_EE5valueEiE4typeELi0EEEbS5_ = comdat any

$_ZN3fmt2v86detail11is_zero_intclIfTnNSt9enable_ifIXntsr3std11is_integralIT_EE5valueEiE4typeELi0EEEbS5_ = comdat any

$_ZN3fmt2v86detail11is_zero_intclIdTnNSt9enable_ifIXntsr3std11is_integralIT_EE5valueEiE4typeELi0EEEbS5_ = comdat any

$_ZN3fmt2v86detail11is_zero_intclIeTnNSt9enable_ifIXntsr3std11is_integralIT_EE5valueEiE4typeELi0EEEbS5_ = comdat any

$_ZN3fmt2v86detail11is_zero_intclIPKcTnNSt9enable_ifIXntsr3std11is_integralIT_EE5valueEiE4typeELi0EEEbS7_ = comdat any

$_ZN3fmt2v86detail11is_zero_intclINS0_17basic_string_viewIcEETnNSt9enable_ifIXntsr3std11is_integralIT_EE5valueEiE4typeELi0EEEbS7_ = comdat any

$_ZN3fmt2v86detail11is_zero_intclIPKvTnNSt9enable_ifIXntsr3std11is_integralIT_EE5valueEiE4typeELi0EEEbS7_ = comdat any

$_ZN3fmt2v86detail11is_zero_intclINS0_16basic_format_argINS0_20basic_printf_contextINS0_8appenderEcEEE6handleETnNSt9enable_ifIXntsr3std11is_integralIT_EE5valueEiE4typeELi0EEEbSB_ = comdat any

$_ZN3fmt2v86detail11is_zero_intclINS0_9monostateETnNSt9enable_ifIXntsr3std11is_integralIT_EE5valueEiE4typeELi0EEEbS6_ = comdat any

$_ZN3fmt2v86detail18is_arithmetic_typeENS1_4typeE = comdat any

$_ZN3fmt2v86detail13arg_converterIaNS0_20basic_printf_contextINS0_8appenderEcEEEC2ERNS0_16basic_format_argIS5_EEc = comdat any

$_ZN3fmt2v86detail13arg_converterIaNS0_20basic_printf_contextINS0_8appenderEcEEEclIiTnNSt9enable_ifIXsr3std11is_integralIT_EE5valueEiE4typeELi0EEEvS9_ = comdat any

$_ZN3fmt2v86detail13arg_converterIaNS0_20basic_printf_contextINS0_8appenderEcEEEclIjTnNSt9enable_ifIXsr3std11is_integralIT_EE5valueEiE4typeELi0EEEvS9_ = comdat any

$_ZN3fmt2v86detail13arg_converterIaNS0_20basic_printf_contextINS0_8appenderEcEEEclIxTnNSt9enable_ifIXsr3std11is_integralIT_EE5valueEiE4typeELi0EEEvS9_ = comdat any

$_ZN3fmt2v86detail13arg_converterIaNS0_20basic_printf_contextINS0_8appenderEcEEEclIyTnNSt9enable_ifIXsr3std11is_integralIT_EE5valueEiE4typeELi0EEEvS9_ = comdat any

$_ZN3fmt2v86detail13arg_converterIaNS0_20basic_printf_contextINS0_8appenderEcEEEclInTnNSt9enable_ifIXntsr3std11is_integralIT_EE5valueEiE4typeELi0EEEvS9_ = comdat any

$_ZN3fmt2v86detail13arg_converterIaNS0_20basic_printf_contextINS0_8appenderEcEEEclIoTnNSt9enable_ifIXntsr3std11is_integralIT_EE5valueEiE4typeELi0EEEvS9_ = comdat any

$_ZN3fmt2v86detail13arg_converterIaNS0_20basic_printf_contextINS0_8appenderEcEEEclEb = comdat any

$_ZN3fmt2v86detail13arg_converterIaNS0_20basic_printf_contextINS0_8appenderEcEEEclIcTnNSt9enable_ifIXsr3std11is_integralIT_EE5valueEiE4typeELi0EEEvS9_ = comdat any

$_ZN3fmt2v86detail13arg_converterIaNS0_20basic_printf_contextINS0_8appenderEcEEEclIfTnNSt9enable_ifIXntsr3std11is_integralIT_EE5valueEiE4typeELi0EEEvS9_ = comdat any

$_ZN3fmt2v86detail13arg_converterIaNS0_20basic_printf_contextINS0_8appenderEcEEEclIdTnNSt9enable_ifIXntsr3std11is_integralIT_EE5valueEiE4typeELi0EEEvS9_ = comdat any

$_ZN3fmt2v86detail13arg_converterIaNS0_20basic_printf_contextINS0_8appenderEcEEEclIeTnNSt9enable_ifIXntsr3std11is_integralIT_EE5valueEiE4typeELi0EEEvS9_ = comdat any

$_ZN3fmt2v86detail13arg_converterIaNS0_20basic_printf_contextINS0_8appenderEcEEEclIPKcTnNSt9enable_ifIXntsr3std11is_integralIT_EE5valueEiE4typeELi0EEEvSB_ = comdat any

$_ZN3fmt2v86detail13arg_converterIaNS0_20basic_printf_contextINS0_8appenderEcEEEclINS0_17basic_string_viewIcEETnNSt9enable_ifIXntsr3std11is_integralIT_EE5valueEiE4typeELi0EEEvSB_ = comdat any

$_ZN3fmt2v86detail13arg_converterIaNS0_20basic_printf_contextINS0_8appenderEcEEEclIPKvTnNSt9enable_ifIXntsr3std11is_integralIT_EE5valueEiE4typeELi0EEEvSB_ = comdat any

$_ZN3fmt2v86detail13arg_converterIaNS0_20basic_printf_contextINS0_8appenderEcEEEclINS0_16basic_format_argIS5_E6handleETnNSt9enable_ifIXntsr3std11is_integralIT_EE5valueEiE4typeELi0EEEvSC_ = comdat any

$_ZN3fmt2v86detail13arg_converterIaNS0_20basic_printf_contextINS0_8appenderEcEEEclINS0_9monostateETnNSt9enable_ifIXntsr3std11is_integralIT_EE5valueEiE4typeELi0EEEvSA_ = comdat any

$_ZN3fmt2v86detail8make_argINS0_20basic_printf_contextINS0_8appenderEcEEiEENS0_16basic_format_argIT_EERKT0_ = comdat any

$_ZN3fmt2v86detail8make_argINS0_20basic_printf_contextINS0_8appenderEcEEjEENS0_16basic_format_argIT_EERKT0_ = comdat any

$_ZN3fmt2v86detail13arg_converterIaNS0_20basic_printf_contextINS0_8appenderEcEEEclIbTnNSt9enable_ifIXsr3std11is_integralIT_EE5valueEiE4typeELi0EEEvS9_ = comdat any

$_ZN3fmt2v86detail13arg_converterIsNS0_20basic_printf_contextINS0_8appenderEcEEEC2ERNS0_16basic_format_argIS5_EEc = comdat any

$_ZN3fmt2v86detail13arg_converterIsNS0_20basic_printf_contextINS0_8appenderEcEEEclIiTnNSt9enable_ifIXsr3std11is_integralIT_EE5valueEiE4typeELi0EEEvS9_ = comdat any

$_ZN3fmt2v86detail13arg_converterIsNS0_20basic_printf_contextINS0_8appenderEcEEEclIjTnNSt9enable_ifIXsr3std11is_integralIT_EE5valueEiE4typeELi0EEEvS9_ = comdat any

$_ZN3fmt2v86detail13arg_converterIsNS0_20basic_printf_contextINS0_8appenderEcEEEclIxTnNSt9enable_ifIXsr3std11is_integralIT_EE5valueEiE4typeELi0EEEvS9_ = comdat any

$_ZN3fmt2v86detail13arg_converterIsNS0_20basic_printf_contextINS0_8appenderEcEEEclIyTnNSt9enable_ifIXsr3std11is_integralIT_EE5valueEiE4typeELi0EEEvS9_ = comdat any

$_ZN3fmt2v86detail13arg_converterIsNS0_20basic_printf_contextINS0_8appenderEcEEEclInTnNSt9enable_ifIXntsr3std11is_integralIT_EE5valueEiE4typeELi0EEEvS9_ = comdat any

$_ZN3fmt2v86detail13arg_converterIsNS0_20basic_printf_contextINS0_8appenderEcEEEclIoTnNSt9enable_ifIXntsr3std11is_integralIT_EE5valueEiE4typeELi0EEEvS9_ = comdat any

$_ZN3fmt2v86detail13arg_converterIsNS0_20basic_printf_contextINS0_8appenderEcEEEclEb = comdat any

$_ZN3fmt2v86detail13arg_converterIsNS0_20basic_printf_contextINS0_8appenderEcEEEclIcTnNSt9enable_ifIXsr3std11is_integralIT_EE5valueEiE4typeELi0EEEvS9_ = comdat any

$_ZN3fmt2v86detail13arg_converterIsNS0_20basic_printf_contextINS0_8appenderEcEEEclIfTnNSt9enable_ifIXntsr3std11is_integralIT_EE5valueEiE4typeELi0EEEvS9_ = comdat any

$_ZN3fmt2v86detail13arg_converterIsNS0_20basic_printf_contextINS0_8appenderEcEEEclIdTnNSt9enable_ifIXntsr3std11is_integralIT_EE5valueEiE4typeELi0EEEvS9_ = comdat any

$_ZN3fmt2v86detail13arg_converterIsNS0_20basic_printf_contextINS0_8appenderEcEEEclIeTnNSt9enable_ifIXntsr3std11is_integralIT_EE5valueEiE4typeELi0EEEvS9_ = comdat any

$_ZN3fmt2v86detail13arg_converterIsNS0_20basic_printf_contextINS0_8appenderEcEEEclIPKcTnNSt9enable_ifIXntsr3std11is_integralIT_EE5valueEiE4typeELi0EEEvSB_ = comdat any

$_ZN3fmt2v86detail13arg_converterIsNS0_20basic_printf_contextINS0_8appenderEcEEEclINS0_17basic_string_viewIcEETnNSt9enable_ifIXntsr3std11is_integralIT_EE5valueEiE4typeELi0EEEvSB_ = comdat any

$_ZN3fmt2v86detail13arg_converterIsNS0_20basic_printf_contextINS0_8appenderEcEEEclIPKvTnNSt9enable_ifIXntsr3std11is_integralIT_EE5valueEiE4typeELi0EEEvSB_ = comdat any

$_ZN3fmt2v86detail13arg_converterIsNS0_20basic_printf_contextINS0_8appenderEcEEEclINS0_16basic_format_argIS5_E6handleETnNSt9enable_ifIXntsr3std11is_integralIT_EE5valueEiE4typeELi0EEEvSC_ = comdat any

$_ZN3fmt2v86detail13arg_converterIsNS0_20basic_printf_contextINS0_8appenderEcEEEclINS0_9monostateETnNSt9enable_ifIXntsr3std11is_integralIT_EE5valueEiE4typeELi0EEEvSA_ = comdat any

$_ZN3fmt2v86detail13arg_converterIsNS0_20basic_printf_contextINS0_8appenderEcEEEclIbTnNSt9enable_ifIXsr3std11is_integralIT_EE5valueEiE4typeELi0EEEvS9_ = comdat any

$_ZN3fmt2v86detail13arg_converterIxNS0_20basic_printf_contextINS0_8appenderEcEEEC2ERNS0_16basic_format_argIS5_EEc = comdat any

$_ZN3fmt2v86detail13arg_converterIxNS0_20basic_printf_contextINS0_8appenderEcEEEclIiTnNSt9enable_ifIXsr3std11is_integralIT_EE5valueEiE4typeELi0EEEvS9_ = comdat any

$_ZN3fmt2v86detail13arg_converterIxNS0_20basic_printf_contextINS0_8appenderEcEEEclIjTnNSt9enable_ifIXsr3std11is_integralIT_EE5valueEiE4typeELi0EEEvS9_ = comdat any

$_ZN3fmt2v86detail13arg_converterIxNS0_20basic_printf_contextINS0_8appenderEcEEEclIxTnNSt9enable_ifIXsr3std11is_integralIT_EE5valueEiE4typeELi0EEEvS9_ = comdat any

$_ZN3fmt2v86detail13arg_converterIxNS0_20basic_printf_contextINS0_8appenderEcEEEclIyTnNSt9enable_ifIXsr3std11is_integralIT_EE5valueEiE4typeELi0EEEvS9_ = comdat any

$_ZN3fmt2v86detail13arg_converterIxNS0_20basic_printf_contextINS0_8appenderEcEEEclInTnNSt9enable_ifIXntsr3std11is_integralIT_EE5valueEiE4typeELi0EEEvS9_ = comdat any

$_ZN3fmt2v86detail13arg_converterIxNS0_20basic_printf_contextINS0_8appenderEcEEEclIoTnNSt9enable_ifIXntsr3std11is_integralIT_EE5valueEiE4typeELi0EEEvS9_ = comdat any

$_ZN3fmt2v86detail13arg_converterIxNS0_20basic_printf_contextINS0_8appenderEcEEEclEb = comdat any

$_ZN3fmt2v86detail13arg_converterIxNS0_20basic_printf_contextINS0_8appenderEcEEEclIcTnNSt9enable_ifIXsr3std11is_integralIT_EE5valueEiE4typeELi0EEEvS9_ = comdat any

$_ZN3fmt2v86detail13arg_converterIxNS0_20basic_printf_contextINS0_8appenderEcEEEclIfTnNSt9enable_ifIXntsr3std11is_integralIT_EE5valueEiE4typeELi0EEEvS9_ = comdat any

$_ZN3fmt2v86detail13arg_converterIxNS0_20basic_printf_contextINS0_8appenderEcEEEclIdTnNSt9enable_ifIXntsr3std11is_integralIT_EE5valueEiE4typeELi0EEEvS9_ = comdat any

$_ZN3fmt2v86detail13arg_converterIxNS0_20basic_printf_contextINS0_8appenderEcEEEclIeTnNSt9enable_ifIXntsr3std11is_integralIT_EE5valueEiE4typeELi0EEEvS9_ = comdat any

$_ZN3fmt2v86detail13arg_converterIxNS0_20basic_printf_contextINS0_8appenderEcEEEclIPKcTnNSt9enable_ifIXntsr3std11is_integralIT_EE5valueEiE4typeELi0EEEvSB_ = comdat any

$_ZN3fmt2v86detail13arg_converterIxNS0_20basic_printf_contextINS0_8appenderEcEEEclINS0_17basic_string_viewIcEETnNSt9enable_ifIXntsr3std11is_integralIT_EE5valueEiE4typeELi0EEEvSB_ = comdat any

$_ZN3fmt2v86detail13arg_converterIxNS0_20basic_printf_contextINS0_8appenderEcEEEclIPKvTnNSt9enable_ifIXntsr3std11is_integralIT_EE5valueEiE4typeELi0EEEvSB_ = comdat any

$_ZN3fmt2v86detail13arg_converterIxNS0_20basic_printf_contextINS0_8appenderEcEEEclINS0_16basic_format_argIS5_E6handleETnNSt9enable_ifIXntsr3std11is_integralIT_EE5valueEiE4typeELi0EEEvSC_ = comdat any

$_ZN3fmt2v86detail13arg_converterIxNS0_20basic_printf_contextINS0_8appenderEcEEEclINS0_9monostateETnNSt9enable_ifIXntsr3std11is_integralIT_EE5valueEiE4typeELi0EEEvSA_ = comdat any

$_ZN3fmt2v86detail8make_argINS0_20basic_printf_contextINS0_8appenderEcEExEENS0_16basic_format_argIT_EERKT0_ = comdat any

$_ZN3fmt2v86detail8make_argINS0_20basic_printf_contextINS0_8appenderEcEEyEENS0_16basic_format_argIT_EERKT0_ = comdat any

$_ZN3fmt2v86detail13arg_converterIxNS0_20basic_printf_contextINS0_8appenderEcEEEclIbTnNSt9enable_ifIXsr3std11is_integralIT_EE5valueEiE4typeELi0EEEvS9_ = comdat any

$_ZN3fmt2v86detail8make_argINS0_20basic_printf_contextINS0_8appenderEcEEbEENS0_16basic_format_argIT_EERKT0_ = comdat any

$_ZN3fmt2v86detail8make_argINS0_20basic_printf_contextINS0_8appenderEcEEhEENS0_16basic_format_argIT_EERKT0_ = comdat any

$_ZN3fmt2v86detail13arg_converterIlNS0_20basic_printf_contextINS0_8appenderEcEEEC2ERNS0_16basic_format_argIS5_EEc = comdat any

$_ZN3fmt2v86detail13arg_converterIlNS0_20basic_printf_contextINS0_8appenderEcEEEclIiTnNSt9enable_ifIXsr3std11is_integralIT_EE5valueEiE4typeELi0EEEvS9_ = comdat any

$_ZN3fmt2v86detail13arg_converterIlNS0_20basic_printf_contextINS0_8appenderEcEEEclIjTnNSt9enable_ifIXsr3std11is_integralIT_EE5valueEiE4typeELi0EEEvS9_ = comdat any

$_ZN3fmt2v86detail13arg_converterIlNS0_20basic_printf_contextINS0_8appenderEcEEEclIxTnNSt9enable_ifIXsr3std11is_integralIT_EE5valueEiE4typeELi0EEEvS9_ = comdat any

$_ZN3fmt2v86detail13arg_converterIlNS0_20basic_printf_contextINS0_8appenderEcEEEclIyTnNSt9enable_ifIXsr3std11is_integralIT_EE5valueEiE4typeELi0EEEvS9_ = comdat any

$_ZN3fmt2v86detail13arg_converterIlNS0_20basic_printf_contextINS0_8appenderEcEEEclInTnNSt9enable_ifIXntsr3std11is_integralIT_EE5valueEiE4typeELi0EEEvS9_ = comdat any

$_ZN3fmt2v86detail13arg_converterIlNS0_20basic_printf_contextINS0_8appenderEcEEEclIoTnNSt9enable_ifIXntsr3std11is_integralIT_EE5valueEiE4typeELi0EEEvS9_ = comdat any

$_ZN3fmt2v86detail13arg_converterIlNS0_20basic_printf_contextINS0_8appenderEcEEEclEb = comdat any

$_ZN3fmt2v86detail13arg_converterIlNS0_20basic_printf_contextINS0_8appenderEcEEEclIcTnNSt9enable_ifIXsr3std11is_integralIT_EE5valueEiE4typeELi0EEEvS9_ = comdat any

$_ZN3fmt2v86detail13arg_converterIlNS0_20basic_printf_contextINS0_8appenderEcEEEclIfTnNSt9enable_ifIXntsr3std11is_integralIT_EE5valueEiE4typeELi0EEEvS9_ = comdat any

$_ZN3fmt2v86detail13arg_converterIlNS0_20basic_printf_contextINS0_8appenderEcEEEclIdTnNSt9enable_ifIXntsr3std11is_integralIT_EE5valueEiE4typeELi0EEEvS9_ = comdat any

$_ZN3fmt2v86detail13arg_converterIlNS0_20basic_printf_contextINS0_8appenderEcEEEclIeTnNSt9enable_ifIXntsr3std11is_integralIT_EE5valueEiE4typeELi0EEEvS9_ = comdat any

$_ZN3fmt2v86detail13arg_converterIlNS0_20basic_printf_contextINS0_8appenderEcEEEclIPKcTnNSt9enable_ifIXntsr3std11is_integralIT_EE5valueEiE4typeELi0EEEvSB_ = comdat any

$_ZN3fmt2v86detail13arg_converterIlNS0_20basic_printf_contextINS0_8appenderEcEEEclINS0_17basic_string_viewIcEETnNSt9enable_ifIXntsr3std11is_integralIT_EE5valueEiE4typeELi0EEEvSB_ = comdat any

$_ZN3fmt2v86detail13arg_converterIlNS0_20basic_printf_contextINS0_8appenderEcEEEclIPKvTnNSt9enable_ifIXntsr3std11is_integralIT_EE5valueEiE4typeELi0EEEvSB_ = comdat any

$_ZN3fmt2v86detail13arg_converterIlNS0_20basic_printf_contextINS0_8appenderEcEEEclINS0_16basic_format_argIS5_E6handleETnNSt9enable_ifIXntsr3std11is_integralIT_EE5valueEiE4typeELi0EEEvSC_ = comdat any

$_ZN3fmt2v86detail13arg_converterIlNS0_20basic_printf_contextINS0_8appenderEcEEEclINS0_9monostateETnNSt9enable_ifIXntsr3std11is_integralIT_EE5valueEiE4typeELi0EEEvSA_ = comdat any

$_ZN3fmt2v86detail13arg_converterIlNS0_20basic_printf_contextINS0_8appenderEcEEEclIbTnNSt9enable_ifIXsr3std11is_integralIT_EE5valueEiE4typeELi0EEEvS9_ = comdat any

$_ZN3fmt2v86detail13arg_converterImNS0_20basic_printf_contextINS0_8appenderEcEEEC2ERNS0_16basic_format_argIS5_EEc = comdat any

$_ZN3fmt2v86detail13arg_converterImNS0_20basic_printf_contextINS0_8appenderEcEEEclIiTnNSt9enable_ifIXsr3std11is_integralIT_EE5valueEiE4typeELi0EEEvS9_ = comdat any

$_ZN3fmt2v86detail13arg_converterImNS0_20basic_printf_contextINS0_8appenderEcEEEclIjTnNSt9enable_ifIXsr3std11is_integralIT_EE5valueEiE4typeELi0EEEvS9_ = comdat any

$_ZN3fmt2v86detail13arg_converterImNS0_20basic_printf_contextINS0_8appenderEcEEEclIxTnNSt9enable_ifIXsr3std11is_integralIT_EE5valueEiE4typeELi0EEEvS9_ = comdat any

$_ZN3fmt2v86detail13arg_converterImNS0_20basic_printf_contextINS0_8appenderEcEEEclIyTnNSt9enable_ifIXsr3std11is_integralIT_EE5valueEiE4typeELi0EEEvS9_ = comdat any

$_ZN3fmt2v86detail13arg_converterImNS0_20basic_printf_contextINS0_8appenderEcEEEclInTnNSt9enable_ifIXntsr3std11is_integralIT_EE5valueEiE4typeELi0EEEvS9_ = comdat any

$_ZN3fmt2v86detail13arg_converterImNS0_20basic_printf_contextINS0_8appenderEcEEEclIoTnNSt9enable_ifIXntsr3std11is_integralIT_EE5valueEiE4typeELi0EEEvS9_ = comdat any

$_ZN3fmt2v86detail13arg_converterImNS0_20basic_printf_contextINS0_8appenderEcEEEclEb = comdat any

$_ZN3fmt2v86detail13arg_converterImNS0_20basic_printf_contextINS0_8appenderEcEEEclIcTnNSt9enable_ifIXsr3std11is_integralIT_EE5valueEiE4typeELi0EEEvS9_ = comdat any

$_ZN3fmt2v86detail13arg_converterImNS0_20basic_printf_contextINS0_8appenderEcEEEclIfTnNSt9enable_ifIXntsr3std11is_integralIT_EE5valueEiE4typeELi0EEEvS9_ = comdat any

$_ZN3fmt2v86detail13arg_converterImNS0_20basic_printf_contextINS0_8appenderEcEEEclIdTnNSt9enable_ifIXntsr3std11is_integralIT_EE5valueEiE4typeELi0EEEvS9_ = comdat any

$_ZN3fmt2v86detail13arg_converterImNS0_20basic_printf_contextINS0_8appenderEcEEEclIeTnNSt9enable_ifIXntsr3std11is_integralIT_EE5valueEiE4typeELi0EEEvS9_ = comdat any

$_ZN3fmt2v86detail13arg_converterImNS0_20basic_printf_contextINS0_8appenderEcEEEclIPKcTnNSt9enable_ifIXntsr3std11is_integralIT_EE5valueEiE4typeELi0EEEvSB_ = comdat any

$_ZN3fmt2v86detail13arg_converterImNS0_20basic_printf_contextINS0_8appenderEcEEEclINS0_17basic_string_viewIcEETnNSt9enable_ifIXntsr3std11is_integralIT_EE5valueEiE4typeELi0EEEvSB_ = comdat any

$_ZN3fmt2v86detail13arg_converterImNS0_20basic_printf_contextINS0_8appenderEcEEEclIPKvTnNSt9enable_ifIXntsr3std11is_integralIT_EE5valueEiE4typeELi0EEEvSB_ = comdat any

$_ZN3fmt2v86detail13arg_converterImNS0_20basic_printf_contextINS0_8appenderEcEEEclINS0_16basic_format_argIS5_E6handleETnNSt9enable_ifIXntsr3std11is_integralIT_EE5valueEiE4typeELi0EEEvSC_ = comdat any

$_ZN3fmt2v86detail13arg_converterImNS0_20basic_printf_contextINS0_8appenderEcEEEclINS0_9monostateETnNSt9enable_ifIXntsr3std11is_integralIT_EE5valueEiE4typeELi0EEEvSA_ = comdat any

$_ZN3fmt2v86detail13arg_converterImNS0_20basic_printf_contextINS0_8appenderEcEEEclIbTnNSt9enable_ifIXsr3std11is_integralIT_EE5valueEiE4typeELi0EEEvS9_ = comdat any

$_ZN3fmt2v86detail13arg_converterIvNS0_20basic_printf_contextINS0_8appenderEcEEEC2ERNS0_16basic_format_argIS5_EEc = comdat any

$_ZN3fmt2v86detail13arg_converterIvNS0_20basic_printf_contextINS0_8appenderEcEEEclIiTnNSt9enable_ifIXsr3std11is_integralIT_EE5valueEiE4typeELi0EEEvS9_ = comdat any

$_ZN3fmt2v86detail13arg_converterIvNS0_20basic_printf_contextINS0_8appenderEcEEEclIjTnNSt9enable_ifIXsr3std11is_integralIT_EE5valueEiE4typeELi0EEEvS9_ = comdat any

$_ZN3fmt2v86detail13arg_converterIvNS0_20basic_printf_contextINS0_8appenderEcEEEclIxTnNSt9enable_ifIXsr3std11is_integralIT_EE5valueEiE4typeELi0EEEvS9_ = comdat any

$_ZN3fmt2v86detail13arg_converterIvNS0_20basic_printf_contextINS0_8appenderEcEEEclIyTnNSt9enable_ifIXsr3std11is_integralIT_EE5valueEiE4typeELi0EEEvS9_ = comdat any

$_ZN3fmt2v86detail13arg_converterIvNS0_20basic_printf_contextINS0_8appenderEcEEEclInTnNSt9enable_ifIXntsr3std11is_integralIT_EE5valueEiE4typeELi0EEEvS9_ = comdat any

$_ZN3fmt2v86detail13arg_converterIvNS0_20basic_printf_contextINS0_8appenderEcEEEclIoTnNSt9enable_ifIXntsr3std11is_integralIT_EE5valueEiE4typeELi0EEEvS9_ = comdat any

$_ZN3fmt2v86detail13arg_converterIvNS0_20basic_printf_contextINS0_8appenderEcEEEclEb = comdat any

$_ZN3fmt2v86detail13arg_converterIvNS0_20basic_printf_contextINS0_8appenderEcEEEclIcTnNSt9enable_ifIXsr3std11is_integralIT_EE5valueEiE4typeELi0EEEvS9_ = comdat any

$_ZN3fmt2v86detail13arg_converterIvNS0_20basic_printf_contextINS0_8appenderEcEEEclIfTnNSt9enable_ifIXntsr3std11is_integralIT_EE5valueEiE4typeELi0EEEvS9_ = comdat any

$_ZN3fmt2v86detail13arg_converterIvNS0_20basic_printf_contextINS0_8appenderEcEEEclIdTnNSt9enable_ifIXntsr3std11is_integralIT_EE5valueEiE4typeELi0EEEvS9_ = comdat any

$_ZN3fmt2v86detail13arg_converterIvNS0_20basic_printf_contextINS0_8appenderEcEEEclIeTnNSt9enable_ifIXntsr3std11is_integralIT_EE5valueEiE4typeELi0EEEvS9_ = comdat any

$_ZN3fmt2v86detail13arg_converterIvNS0_20basic_printf_contextINS0_8appenderEcEEEclIPKcTnNSt9enable_ifIXntsr3std11is_integralIT_EE5valueEiE4typeELi0EEEvSB_ = comdat any

$_ZN3fmt2v86detail13arg_converterIvNS0_20basic_printf_contextINS0_8appenderEcEEEclINS0_17basic_string_viewIcEETnNSt9enable_ifIXntsr3std11is_integralIT_EE5valueEiE4typeELi0EEEvSB_ = comdat any

$_ZN3fmt2v86detail13arg_converterIvNS0_20basic_printf_contextINS0_8appenderEcEEEclIPKvTnNSt9enable_ifIXntsr3std11is_integralIT_EE5valueEiE4typeELi0EEEvSB_ = comdat any

$_ZN3fmt2v86detail13arg_converterIvNS0_20basic_printf_contextINS0_8appenderEcEEEclINS0_16basic_format_argIS5_E6handleETnNSt9enable_ifIXntsr3std11is_integralIT_EE5valueEiE4typeELi0EEEvSC_ = comdat any

$_ZN3fmt2v86detail13arg_converterIvNS0_20basic_printf_contextINS0_8appenderEcEEEclINS0_9monostateETnNSt9enable_ifIXntsr3std11is_integralIT_EE5valueEiE4typeELi0EEEvSA_ = comdat any

$_ZN3fmt2v86detail13arg_converterIvNS0_20basic_printf_contextINS0_8appenderEcEEEclIbTnNSt9enable_ifIXsr3std11is_integralIT_EE5valueEiE4typeELi0EEEvS9_ = comdat any

$_ZN3fmt2v86detail14char_converterINS0_20basic_printf_contextINS0_8appenderEcEEEclIiTnNSt9enable_ifIXsr3std11is_integralIT_EE5valueEiE4typeELi0EEEvS9_ = comdat any

$_ZN3fmt2v86detail14char_converterINS0_20basic_printf_contextINS0_8appenderEcEEEclIjTnNSt9enable_ifIXsr3std11is_integralIT_EE5valueEiE4typeELi0EEEvS9_ = comdat any

$_ZN3fmt2v86detail14char_converterINS0_20basic_printf_contextINS0_8appenderEcEEEclIxTnNSt9enable_ifIXsr3std11is_integralIT_EE5valueEiE4typeELi0EEEvS9_ = comdat any

$_ZN3fmt2v86detail14char_converterINS0_20basic_printf_contextINS0_8appenderEcEEEclIyTnNSt9enable_ifIXsr3std11is_integralIT_EE5valueEiE4typeELi0EEEvS9_ = comdat any

$_ZN3fmt2v86detail14char_converterINS0_20basic_printf_contextINS0_8appenderEcEEEclInTnNSt9enable_ifIXntsr3std11is_integralIT_EE5valueEiE4typeELi0EEEvS9_ = comdat any

$_ZN3fmt2v86detail14char_converterINS0_20basic_printf_contextINS0_8appenderEcEEEclIoTnNSt9enable_ifIXntsr3std11is_integralIT_EE5valueEiE4typeELi0EEEvS9_ = comdat any

$_ZN3fmt2v86detail14char_converterINS0_20basic_printf_contextINS0_8appenderEcEEEclIbTnNSt9enable_ifIXsr3std11is_integralIT_EE5valueEiE4typeELi0EEEvS9_ = comdat any

$_ZN3fmt2v86detail14char_converterINS0_20basic_printf_contextINS0_8appenderEcEEEclIcTnNSt9enable_ifIXsr3std11is_integralIT_EE5valueEiE4typeELi0EEEvS9_ = comdat any

$_ZN3fmt2v86detail14char_converterINS0_20basic_printf_contextINS0_8appenderEcEEEclIfTnNSt9enable_ifIXntsr3std11is_integralIT_EE5valueEiE4typeELi0EEEvS9_ = comdat any

$_ZN3fmt2v86detail14char_converterINS0_20basic_printf_contextINS0_8appenderEcEEEclIdTnNSt9enable_ifIXntsr3std11is_integralIT_EE5valueEiE4typeELi0EEEvS9_ = comdat any

$_ZN3fmt2v86detail14char_converterINS0_20basic_printf_contextINS0_8appenderEcEEEclIeTnNSt9enable_ifIXntsr3std11is_integralIT_EE5valueEiE4typeELi0EEEvS9_ = comdat any

$_ZN3fmt2v86detail14char_converterINS0_20basic_printf_contextINS0_8appenderEcEEEclIPKcTnNSt9enable_ifIXntsr3std11is_integralIT_EE5valueEiE4typeELi0EEEvSB_ = comdat any

$_ZN3fmt2v86detail14char_converterINS0_20basic_printf_contextINS0_8appenderEcEEEclINS0_17basic_string_viewIcEETnNSt9enable_ifIXntsr3std11is_integralIT_EE5valueEiE4typeELi0EEEvSB_ = comdat any

$_ZN3fmt2v86detail14char_converterINS0_20basic_printf_contextINS0_8appenderEcEEEclIPKvTnNSt9enable_ifIXntsr3std11is_integralIT_EE5valueEiE4typeELi0EEEvSB_ = comdat any

$_ZN3fmt2v86detail14char_converterINS0_20basic_printf_contextINS0_8appenderEcEEEclINS0_16basic_format_argIS5_E6handleETnNSt9enable_ifIXntsr3std11is_integralIT_EE5valueEiE4typeELi0EEEvSC_ = comdat any

$_ZN3fmt2v86detail14char_converterINS0_20basic_printf_contextINS0_8appenderEcEEEclINS0_9monostateETnNSt9enable_ifIXntsr3std11is_integralIT_EE5valueEiE4typeELi0EEEvSA_ = comdat any

$_ZN3fmt2v86detail8make_argINS0_20basic_printf_contextINS0_8appenderEcEEcEENS0_16basic_format_argIT_EERKT0_ = comdat any

$_ZN3fmt2v86detail8to_asciiIcTnNSt9enable_ifIXsr3std11is_integralIT_EE5valueEiE4typeELi0EEES4_S4_ = comdat any

$_ZN3fmt2v86detail20printf_arg_formatterINS0_8appenderEcEclIiTnNSt9enable_ifIXsr6detail11is_integralIT_EE5valueEiE4typeELi0EEES3_S7_ = comdat any

$_ZN3fmt2v86detail20printf_arg_formatterINS0_8appenderEcEclIjTnNSt9enable_ifIXsr6detail11is_integralIT_EE5valueEiE4typeELi0EEES3_S7_ = comdat any

$_ZN3fmt2v86detail20printf_arg_formatterINS0_8appenderEcEclIxTnNSt9enable_ifIXsr6detail11is_integralIT_EE5valueEiE4typeELi0EEES3_S7_ = comdat any

$_ZN3fmt2v86detail20printf_arg_formatterINS0_8appenderEcEclIyTnNSt9enable_ifIXsr6detail11is_integralIT_EE5valueEiE4typeELi0EEES3_S7_ = comdat any

$_ZN3fmt2v86detail20printf_arg_formatterINS0_8appenderEcEclInTnNSt9enable_ifIXsr6detail11is_integralIT_EE5valueEiE4typeELi0EEES3_S7_ = comdat any

$_ZN3fmt2v86detail20printf_arg_formatterINS0_8appenderEcEclIoTnNSt9enable_ifIXsr6detail11is_integralIT_EE5valueEiE4typeELi0EEES3_S7_ = comdat any

$_ZN3fmt2v86detail20printf_arg_formatterINS0_8appenderEcEclIbTnNSt9enable_ifIXsr6detail11is_integralIT_EE5valueEiE4typeELi0EEES3_S7_ = comdat any

$_ZN3fmt2v86detail20printf_arg_formatterINS0_8appenderEcEclIcTnNSt9enable_ifIXsr6detail11is_integralIT_EE5valueEiE4typeELi0EEES3_S7_ = comdat any

$_ZN3fmt2v86detail20printf_arg_formatterINS0_8appenderEcEclIfTnNSt9enable_ifIXsr3std17is_floating_pointIT_EE5valueEiE4typeELi0EEES3_S7_ = comdat any

$_ZN3fmt2v86detail20printf_arg_formatterINS0_8appenderEcEclIdTnNSt9enable_ifIXsr3std17is_floating_pointIT_EE5valueEiE4typeELi0EEES3_S7_ = comdat any

$_ZN3fmt2v86detail20printf_arg_formatterINS0_8appenderEcEclIeTnNSt9enable_ifIXsr3std17is_floating_pointIT_EE5valueEiE4typeELi0EEES3_S7_ = comdat any

$_ZN3fmt2v86detail20printf_arg_formatterINS0_8appenderEcEclEPKc = comdat any

$_ZN3fmt2v86detail20printf_arg_formatterINS0_8appenderEcEclENS0_17basic_string_viewIcEE = comdat any

$_ZN3fmt2v86detail20printf_arg_formatterINS0_8appenderEcEclEPKv = comdat any

$_ZN3fmt2v86detail20printf_arg_formatterINS0_8appenderEcEclENS0_16basic_format_argINS0_20basic_printf_contextIS3_cEEE6handleE = comdat any

$_ZN3fmt2v86detail20printf_arg_formatterINS0_8appenderEcEclENS0_9monostateE = comdat any

$_ZN3fmt2v86detail18write_int_noinlineIcNS0_8appenderEjEET0_S4_NS1_13write_int_argIT1_EERKNS0_18basic_format_specsIT_EENS1_10locale_refE = comdat any

$_ZN3fmt2v86detail18make_write_int_argIiEENS1_13write_int_argINSt11conditionalIXaalecl8num_bitsIT_EELi32EntLi0EEjNS4_IXlecl8num_bitsIS5_EELi64EEmoE4typeEE4typeEEES5_NS0_4sign4typeE = comdat any

$_ZN3fmt2v86detail19write_int_localizedINS0_8appenderEmcEEbRT_T0_jRKNS0_18basic_format_specsIT1_EENS1_10locale_refE = comdat any

$_ZN3fmt2v86detail12count_digitsEj = comdat any

$_ZN3fmt2v86detail13prefix_appendERjj = comdat any

$_ZN3fmt2v86detail12count_digitsILi4EjEEiT0_ = comdat any

$_ZN3fmt2v86detail12count_digitsILi1EjEEiT0_ = comdat any

$_ZN3fmt2v86detail12count_digitsILi3EjEEiT0_ = comdat any

$_ZN3fmt2v86detail10write_charIcNS0_8appenderEEET0_S4_T_RKNS0_18basic_format_specsIS5_EE = comdat any

$_ZN3fmt2v86detail14digit_groupingIcEC2ENS1_10locale_refEb = comdat any

$_ZN3fmt2v86detail19write_int_localizedINS0_8appenderEmcEET_S4_T0_jRKNS0_18basic_format_specsIT1_EERKNS1_14digit_groupingIS7_EE = comdat any

$_ZN3fmt2v86detail14digit_groupingIcED2Ev = comdat any

$_ZN3fmt2v86detail20thousands_sep_resultIcEC2Ev = comdat any

$_ZN3fmt2v86detail13thousands_sepIcEENS1_20thousands_sep_resultIT_EENS1_10locale_refE = comdat any

$_ZN3fmt2v86detail20thousands_sep_resultIcEaSEOS3_ = comdat any

$_ZN3fmt2v86detail20thousands_sep_resultIcED2Ev = comdat any

$_ZN3fmt2v86detail18thousands_sep_implIcEENS1_20thousands_sep_resultIT_EENS1_10locale_refE = comdat any

$_ZNK3fmt2v86detail10locale_ref3getISt6localeEET_v = comdat any

$_ZN3fmt2v86detail12count_digitsEm = comdat any

$_ZN3fmt2v86detail14format_decimalIcmEENS1_21format_decimal_resultIPT_EES5_T0_i = comdat any

$_ZN3fmt2v86detail11to_unsignedIiEENSt13make_unsignedIT_E4typeES4_ = comdat any

$_ZNK3fmt2v86detail14digit_groupingIcE16count_separatorsEi = comdat any

$_ZN3fmt2v86detail12write_paddedILNS0_5align4typeE2ENS0_8appenderEcZNS1_19write_int_localizedIS5_mcEET_S7_T0_jRKNS0_18basic_format_specsIT1_EERKNS1_14digit_groupingISA_EEEUlS5_E_EES8_S8_SD_mmOT2_ = comdat any

$_ZN3fmt2v86detail15do_count_digitsEm = comdat any

$_ZN3fmt2v86detail13ignore_unusedIJbA20_cEEEvDpRKT_ = comdat any

$_ZN3fmt2v86detail7digits2Em = comdat any

$_ZNK3fmt2v86detail14digit_groupingIcE13initial_stateEv = comdat any

$_ZNK3fmt2v86detail14digit_groupingIcE4nextERNS3_10next_stateE = comdat any

$_ZN9__gnu_cxxeqIPKcNSt7__cxx1112basic_stringIcSt11char_traitsIcESaIcEEEEEbRKNS_17__normal_iteratorIT_T0_EESE_ = comdat any

$_ZNK9__gnu_cxx17__normal_iteratorIPKcNSt7__cxx1112basic_stringIcSt11char_traitsIcESaIcEEEEdeEv = comdat any

$_ZN3fmt2v86detail9max_valueIcEET_v = comdat any

$_ZN9__gnu_cxx17__normal_iteratorIPKcNSt7__cxx1112basic_stringIcSt11char_traitsIcESaIcEEEEppEi = comdat any

$_ZNK9__gnu_cxx17__normal_iteratorIPKcNSt7__cxx1112basic_stringIcSt11char_traitsIcESaIcEEEE4baseEv = comdat any

$_ZNSt14numeric_limitsIcE3maxEv = comdat any

$_ZN9__gnu_cxx17__normal_iteratorIPKcNSt7__cxx1112basic_stringIcSt11char_traitsIcESaIcEEEEC2ERKS2_ = comdat any

$_ZNK3fmt2v86detail6fill_tIcE4sizeEv = comdat any

$_ZN3fmt2v86detail4fillINS0_8appenderEcEET_S4_mRKNS1_6fill_tIT0_EE = comdat any

$_ZZN3fmt2v86detail19write_int_localizedINS0_8appenderEmcEET_S4_T0_jRKNS0_18basic_format_specsIT1_EERKNS1_14digit_groupingIS7_EEENKUlS3_E_clES3_ = comdat any

$_ZN3fmt2v86detail6fill_nINS0_8appenderEmcEET_S4_T0_RKT1_ = comdat any

$_ZNK3fmt2v86detail6fill_tIcEixEm = comdat any

$_ZNK3fmt2v86detail6fill_tIcE4dataEv = comdat any

$_ZN3fmt2v88appenderppEi = comdat any

$_ZNSt20back_insert_iteratorIN3fmt2v86detail6bufferIcEEEdeEv = comdat any

$_ZNSt20back_insert_iteratorIN3fmt2v86detail6bufferIcEEEaSERKc = comdat any

$_ZN3fmt2v86detail6bufferIcE9push_backERKc = comdat any

$_ZNSt20back_insert_iteratorIN3fmt2v86detail6bufferIcEEEaSEOc = comdat any

$_ZNK3fmt2v86detail14digit_groupingIcE5applyINS0_8appenderEcEET_S6_NS0_17basic_string_viewIT0_EE = comdat any

$_ZNSaIiEC2Ev = comdat any

$_ZN3fmt2v819basic_memory_bufferIiLm500ESaIiEEC2ERKS2_ = comdat any

$_ZNSaIiED2Ev = comdat any

$_ZN3fmt2v86detail6bufferIiE9push_backERKi = comdat any

$_ZNK3fmt2v86detail6bufferIiE4sizeEv = comdat any

$_ZN3fmt2v86detail6bufferIiEixIiEERiT_ = comdat any

$_ZNK3fmt2v86detail14digit_groupingIcE9separatorEv = comdat any

$_ZNK3fmt2v817basic_string_viewIcEixEm = comdat any

$_ZN3fmt2v819basic_memory_bufferIiLm500ESaIiEED2Ev = comdat any

$_ZNSt15__new_allocatorIiEC2Ev = comdat any

$_ZN3fmt2v86detail6bufferIiEC2EPimm = comdat any

$_ZNSaIiEC2ERKS_ = comdat any

$_ZN3fmt2v86detail6bufferIiE3setEPim = comdat any

$_ZN3fmt2v819basic_memory_bufferIiLm500ESaIiEE4growEm = comdat any

$_ZNSt15__new_allocatorIiEC2ERKS0_ = comdat any

$_ZNSt16allocator_traitsISaIiEE8max_sizeERKS0_ = comdat any

$_ZNK3fmt2v86detail6bufferIiE8capacityEv = comdat any

$_ZN3fmt2v86detail6bufferIiE4dataEv = comdat any

$_ZNSt16allocator_traitsISaIiEE8allocateERS0_m = comdat any

$_ZSt18uninitialized_copyIPiS0_ET0_T_S2_S1_ = comdat any

$_ZN3fmt2v86detail12make_checkedIiEEPT_S4_m = comdat any

$_ZNSt15__new_allocatorIiE10deallocateEPim = comdat any

$_ZNKSt15__new_allocatorIiE8max_sizeEv = comdat any

$_ZNKSt15__new_allocatorIiE11_M_max_sizeEv = comdat any

$_ZNSt15__new_allocatorIiE8allocateEmPKv = comdat any

$_ZNSt20__uninitialized_copyILb1EE13__uninit_copyIPiS2_EET0_T_S4_S3_ = comdat any

$_ZSt4copyIPiS0_ET0_T_S2_S1_ = comdat any

$_ZSt13__copy_move_aILb0EPiS0_ET1_T0_S2_S1_ = comdat any

$_ZSt12__miter_baseIPiET_S1_ = comdat any

$_ZSt12__niter_wrapIPiET_RKS1_S1_ = comdat any

$_ZSt14__copy_move_a1ILb0EPiS0_ET1_T0_S2_S1_ = comdat any

$_ZSt12__niter_baseIPiET_S1_ = comdat any

$_ZSt14__copy_move_a2ILb0EPiS0_ET1_T0_S2_S1_ = comdat any

$_ZNSt11__copy_moveILb0ELb1ESt26random_access_iterator_tagE8__copy_mIiEEPT_PKS3_S6_S4_ = comdat any

$_ZNSt15__new_allocatorIiED2Ev = comdat any

$_ZN3fmt2v86detail6bufferIiE11try_reserveEm = comdat any

$_ZN3fmt2v819basic_memory_bufferIiLm500ESaIiEE10deallocateEv = comdat any

$_ZZN3fmt2v86detail9write_intIcNS0_8appenderEjEET0_S4_NS1_13write_int_argIT1_EERKNS0_18basic_format_specsIT_EENS1_10locale_refEENKUlS3_E_clES3_ = comdat any

$_ZN3fmt2v86detail14write_int_dataIcEC2EijRKNS0_18basic_format_specsIcEE = comdat any

$_ZN3fmt2v86detail12write_paddedILNS0_5align4typeE2ENS0_8appenderEcZNS1_9write_intIS5_cZNS1_9write_intIcS5_jEET0_S8_NS1_13write_int_argIT1_EERKNS0_18basic_format_specsIT_EENS1_10locale_refEEUlS5_E_EESD_SD_ijRKNSC_IS8_EESA_EUlS5_E_EES8_S8_RKNSC_ISA_EEmOT2_ = comdat any

$_ZN3fmt2v86detail14format_decimalIcjNS0_8appenderETnNSt9enable_ifIXntsr3std10is_pointerINSt9remove_cvINSt16remove_referenceIT1_E4typeEE4typeEEE5valueEiE4typeELi0EEENS1_21format_decimal_resultIS7_EES7_T0_i = comdat any

$_ZN3fmt2v86detail14format_decimalIcjEENS1_21format_decimal_resultIPT_EES5_T0_i = comdat any

$_ZN3fmt2v86detail17copy_str_noinlineIcPcNS0_8appenderEEET1_T0_S6_S5_ = comdat any

$_ZN3fmt2v86detail8copy_strIcPcEENS0_8appenderET0_S5_S4_ = comdat any

$_ZN3fmt2v86detail12write_paddedILNS0_5align4typeE2ENS0_8appenderEcRZNS1_9write_intIS5_cZNS1_9write_intIcS5_jEET0_S8_NS1_13write_int_argIT1_EERKNS0_18basic_format_specsIT_EENS1_10locale_refEEUlS5_E_EESD_SD_ijRKNSC_IS8_EESA_EUlS5_E_EES8_S8_RKNSC_ISA_EEmmOT2_ = comdat any

$_ZZN3fmt2v86detail9write_intINS0_8appenderEcZNS1_9write_intIcS3_jEET0_S5_NS1_13write_int_argIT1_EERKNS0_18basic_format_specsIT_EENS1_10locale_refEEUlS3_E_EESA_SA_ijRKNS9_IS5_EES7_ENKUlS3_E_clES3_ = comdat any

$_ZZN3fmt2v86detail9write_intIcNS0_8appenderEjEET0_S4_NS1_13write_int_argIT1_EERKNS0_18basic_format_specsIT_EENS1_10locale_refEENKUlS3_E0_clES3_ = comdat any

$_ZN3fmt2v86detail12write_paddedILNS0_5align4typeE2ENS0_8appenderEcZNS1_9write_intIS5_cZNS1_9write_intIcS5_jEET0_S8_NS1_13write_int_argIT1_EERKNS0_18basic_format_specsIT_EENS1_10locale_refEEUlS5_E0_EESD_SD_ijRKNSC_IS8_EESA_EUlS5_E_EES8_S8_RKNSC_ISA_EEmOT2_ = comdat any

$_ZN3fmt2v86detail11format_uintILj4EcNS0_8appenderEjEET1_S4_T2_ib = comdat any

$_ZN3fmt2v86detail10to_pointerIcEEPT_NSt11conditionalIXsr3std7is_sameIS3_cEE5valueENS0_8appenderESt20back_insert_iteratorINS1_6bufferIS3_EEEE4typeEm = comdat any

$_ZN3fmt2v86detail11format_uintILj4EcjEEPT0_S4_T1_ib = comdat any

$_ZN3fmt2v86detail6bufferIcE10try_resizeEm = comdat any

$_ZN3fmt2v86detail12write_paddedILNS0_5align4typeE2ENS0_8appenderEcRZNS1_9write_intIS5_cZNS1_9write_intIcS5_jEET0_S8_NS1_13write_int_argIT1_EERKNS0_18basic_format_specsIT_EENS1_10locale_refEEUlS5_E0_EESD_SD_ijRKNSC_IS8_EESA_EUlS5_E_EES8_S8_RKNSC_ISA_EEmmOT2_ = comdat any

$_ZZN3fmt2v86detail9write_intINS0_8appenderEcZNS1_9write_intIcS3_jEET0_S5_NS1_13write_int_argIT1_EERKNS0_18basic_format_specsIT_EENS1_10locale_refEEUlS3_E0_EESA_SA_ijRKNS9_IS5_EES7_ENKUlS3_E_clES3_ = comdat any

$_ZZN3fmt2v86detail9write_intIcNS0_8appenderEjEET0_S4_NS1_13write_int_argIT1_EERKNS0_18basic_format_specsIT_EENS1_10locale_refEENKUlS3_E1_clES3_ = comdat any

$_ZN3fmt2v86detail12write_paddedILNS0_5align4typeE2ENS0_8appenderEcZNS1_9write_intIS5_cZNS1_9write_intIcS5_jEET0_S8_NS1_13write_int_argIT1_EERKNS0_18basic_format_specsIT_EENS1_10locale_refEEUlS5_E1_EESD_SD_ijRKNSC_IS8_EESA_EUlS5_E_EES8_S8_RKNSC_ISA_EEmOT2_ = comdat any

$_ZN3fmt2v86detail11format_uintILj1EcNS0_8appenderEjEET1_S4_T2_ib = comdat any

$_ZN3fmt2v86detail11format_uintILj1EcjEEPT0_S4_T1_ib = comdat any

$_ZN3fmt2v86detail12write_paddedILNS0_5align4typeE2ENS0_8appenderEcRZNS1_9write_intIS5_cZNS1_9write_intIcS5_jEET0_S8_NS1_13write_int_argIT1_EERKNS0_18basic_format_specsIT_EENS1_10locale_refEEUlS5_E1_EESD_SD_ijRKNSC_IS8_EESA_EUlS5_E_EES8_S8_RKNSC_ISA_EEmmOT2_ = comdat any

$_ZZN3fmt2v86detail9write_intINS0_8appenderEcZNS1_9write_intIcS3_jEET0_S5_NS1_13write_int_argIT1_EERKNS0_18basic_format_specsIT_EENS1_10locale_refEEUlS3_E1_EESA_SA_ijRKNS9_IS5_EES7_ENKUlS3_E_clES3_ = comdat any

$_ZZN3fmt2v86detail9write_intIcNS0_8appenderEjEET0_S4_NS1_13write_int_argIT1_EERKNS0_18basic_format_specsIT_EENS1_10locale_refEENKUlS3_E2_clES3_ = comdat any

$_ZN3fmt2v86detail12write_paddedILNS0_5align4typeE2ENS0_8appenderEcZNS1_9write_intIS5_cZNS1_9write_intIcS5_jEET0_S8_NS1_13write_int_argIT1_EERKNS0_18basic_format_specsIT_EENS1_10locale_refEEUlS5_E2_EESD_SD_ijRKNSC_IS8_EESA_EUlS5_E_EES8_S8_RKNSC_ISA_EEmOT2_ = comdat any

$_ZN3fmt2v86detail11format_uintILj3EcNS0_8appenderEjEET1_S4_T2_ib = comdat any

$_ZN3fmt2v86detail11format_uintILj3EcjEEPT0_S4_T1_ib = comdat any

$_ZN3fmt2v86detail12write_paddedILNS0_5align4typeE2ENS0_8appenderEcRZNS1_9write_intIS5_cZNS1_9write_intIcS5_jEET0_S8_NS1_13write_int_argIT1_EERKNS0_18basic_format_specsIT_EENS1_10locale_refEEUlS5_E2_EESD_SD_ijRKNSC_IS8_EESA_EUlS5_E_EES8_S8_RKNSC_ISA_EEmmOT2_ = comdat any

$_ZZN3fmt2v86detail9write_intINS0_8appenderEcZNS1_9write_intIcS3_jEET0_S5_NS1_13write_int_argIT1_EERKNS0_18basic_format_specsIT_EENS1_10locale_refEEUlS3_E2_EESA_SA_ijRKNS9_IS5_EES7_ENKUlS3_E_clES3_ = comdat any

$_ZN3fmt2v86detail12write_paddedILNS0_5align4typeE1ENS0_8appenderEcZNS1_10write_charIcS5_EET0_S7_T_RKNS0_18basic_format_specsIS8_EEEUlS5_E_EES7_S7_RKNS9_IT1_EEmOT2_ = comdat any

$_ZN3fmt2v86detail12write_paddedILNS0_5align4typeE1ENS0_8appenderEcRZNS1_10write_charIcS5_EET0_S7_T_RKNS0_18basic_format_specsIS8_EEEUlS5_E_EES7_S7_RKNS9_IT1_EEmmOT2_ = comdat any

$_ZZN3fmt2v86detail10write_charIcNS0_8appenderEEET0_S4_T_RKNS0_18basic_format_specsIS5_EEENKUlS3_E_clES3_ = comdat any

$_ZN3fmt2v86detail18make_write_int_argIjEENS1_13write_int_argINSt11conditionalIXaalecl8num_bitsIT_EELi32EntLi0EEjNS4_IXlecl8num_bitsIS5_EELi64EEmoE4typeEE4typeEEES5_NS0_4sign4typeE = comdat any

$_ZN3fmt2v86detail18write_int_noinlineIcNS0_8appenderEmEET0_S4_NS1_13write_int_argIT1_EERKNS0_18basic_format_specsIT_EENS1_10locale_refE = comdat any

$_ZN3fmt2v86detail18make_write_int_argIxEENS1_13write_int_argINSt11conditionalIXaalecl8num_bitsIT_EELi32EntLi0EEjNS4_IXlecl8num_bitsIS5_EELi64EEmoE4typeEE4typeEEES5_NS0_4sign4typeE = comdat any

$_ZN3fmt2v86detail12count_digitsILi4EmEEiT0_ = comdat any

$_ZN3fmt2v86detail12count_digitsILi1EmEEiT0_ = comdat any

$_ZN3fmt2v86detail12count_digitsILi3EmEEiT0_ = comdat any

$_ZZN3fmt2v86detail9write_intIcNS0_8appenderEmEET0_S4_NS1_13write_int_argIT1_EERKNS0_18basic_format_specsIT_EENS1_10locale_refEENKUlS3_E_clES3_ = comdat any

$_ZN3fmt2v86detail12write_paddedILNS0_5align4typeE2ENS0_8appenderEcZNS1_9write_intIS5_cZNS1_9write_intIcS5_mEET0_S8_NS1_13write_int_argIT1_EERKNS0_18basic_format_specsIT_EENS1_10locale_refEEUlS5_E_EESD_SD_ijRKNSC_IS8_EESA_EUlS5_E_EES8_S8_RKNSC_ISA_EEmOT2_ = comdat any

$_ZN3fmt2v86detail14format_decimalIcmNS0_8appenderETnNSt9enable_ifIXntsr3std10is_pointerINSt9remove_cvINSt16remove_referenceIT1_E4typeEE4typeEEE5valueEiE4typeELi0EEENS1_21format_decimal_resultIS7_EES7_T0_i = comdat any

$_ZN3fmt2v86detail12write_paddedILNS0_5align4typeE2ENS0_8appenderEcRZNS1_9write_intIS5_cZNS1_9write_intIcS5_mEET0_S8_NS1_13write_int_argIT1_EERKNS0_18basic_format_specsIT_EENS1_10locale_refEEUlS5_E_EESD_SD_ijRKNSC_IS8_EESA_EUlS5_E_EES8_S8_RKNSC_ISA_EEmmOT2_ = comdat any

$_ZZN3fmt2v86detail9write_intINS0_8appenderEcZNS1_9write_intIcS3_mEET0_S5_NS1_13write_int_argIT1_EERKNS0_18basic_format_specsIT_EENS1_10locale_refEEUlS3_E_EESA_SA_ijRKNS9_IS5_EES7_ENKUlS3_E_clES3_ = comdat any

$_ZZN3fmt2v86detail12count_digitsILi4EmEEiT0_ENKUlmE_clEm = comdat any

$_ZZN3fmt2v86detail9write_intIcNS0_8appenderEmEET0_S4_NS1_13write_int_argIT1_EERKNS0_18basic_format_specsIT_EENS1_10locale_refEENKUlS3_E0_clES3_ = comdat any

$_ZN3fmt2v86detail12write_paddedILNS0_5align4typeE2ENS0_8appenderEcZNS1_9write_intIS5_cZNS1_9write_intIcS5_mEET0_S8_NS1_13write_int_argIT1_EERKNS0_18basic_format_specsIT_EENS1_10locale_refEEUlS5_E0_EESD_SD_ijRKNSC_IS8_EESA_EUlS5_E_EES8_S8_RKNSC_ISA_EEmOT2_ = comdat any

$_ZN3fmt2v86detail11format_uintILj4EcNS0_8appenderEmEET1_S4_T2_ib = comdat any

$_ZN3fmt2v86detail11format_uintILj4EcmEEPT0_S4_T1_ib = comdat any

$_ZN3fmt2v86detail12write_paddedILNS0_5align4typeE2ENS0_8appenderEcRZNS1_9write_intIS5_cZNS1_9write_intIcS5_mEET0_S8_NS1_13write_int_argIT1_EERKNS0_18basic_format_specsIT_EENS1_10locale_refEEUlS5_E0_EESD_SD_ijRKNSC_IS8_EESA_EUlS5_E_EES8_S8_RKNSC_ISA_EEmmOT2_ = comdat any

$_ZZN3fmt2v86detail9write_intINS0_8appenderEcZNS1_9write_intIcS3_mEET0_S5_NS1_13write_int_argIT1_EERKNS0_18basic_format_specsIT_EENS1_10locale_refEEUlS3_E0_EESA_SA_ijRKNS9_IS5_EES7_ENKUlS3_E_clES3_ = comdat any

$_ZZN3fmt2v86detail12count_digitsILi1EmEEiT0_ENKUlmE_clEm = comdat any

$_ZZN3fmt2v86detail9write_intIcNS0_8appenderEmEET0_S4_NS1_13write_int_argIT1_EERKNS0_18basic_format_specsIT_EENS1_10locale_refEENKUlS3_E1_clES3_ = comdat any

$_ZN3fmt2v86detail12write_paddedILNS0_5align4typeE2ENS0_8appenderEcZNS1_9write_intIS5_cZNS1_9write_intIcS5_mEET0_S8_NS1_13write_int_argIT1_EERKNS0_18basic_format_specsIT_EENS1_10locale_refEEUlS5_E1_EESD_SD_ijRKNSC_IS8_EESA_EUlS5_E_EES8_S8_RKNSC_ISA_EEmOT2_ = comdat any

$_ZN3fmt2v86detail11format_uintILj1EcNS0_8appenderEmEET1_S4_T2_ib = comdat any

$_ZN3fmt2v86detail11format_uintILj1EcmEEPT0_S4_T1_ib = comdat any

$_ZN3fmt2v86detail12write_paddedILNS0_5align4typeE2ENS0_8appenderEcRZNS1_9write_intIS5_cZNS1_9write_intIcS5_mEET0_S8_NS1_13write_int_argIT1_EERKNS0_18basic_format_specsIT_EENS1_10locale_refEEUlS5_E1_EESD_SD_ijRKNSC_IS8_EESA_EUlS5_E_EES8_S8_RKNSC_ISA_EEmmOT2_ = comdat any

$_ZZN3fmt2v86detail9write_intINS0_8appenderEcZNS1_9write_intIcS3_mEET0_S5_NS1_13write_int_argIT1_EERKNS0_18basic_format_specsIT_EENS1_10locale_refEEUlS3_E1_EESA_SA_ijRKNS9_IS5_EES7_ENKUlS3_E_clES3_ = comdat any

$_ZZN3fmt2v86detail12count_digitsILi3EmEEiT0_ENKUlmE_clEm = comdat any

$_ZZN3fmt2v86detail9write_intIcNS0_8appenderEmEET0_S4_NS1_13write_int_argIT1_EERKNS0_18basic_format_specsIT_EENS1_10locale_refEENKUlS3_E2_clES3_ = comdat any

$_ZN3fmt2v86detail12write_paddedILNS0_5align4typeE2ENS0_8appenderEcZNS1_9write_intIS5_cZNS1_9write_intIcS5_mEET0_S8_NS1_13write_int_argIT1_EERKNS0_18basic_format_specsIT_EENS1_10locale_refEEUlS5_E2_EESD_SD_ijRKNSC_IS8_EESA_EUlS5_E_EES8_S8_RKNSC_ISA_EEmOT2_ = comdat any

$_ZN3fmt2v86detail11format_uintILj3EcNS0_8appenderEmEET1_S4_T2_ib = comdat any

$_ZN3fmt2v86detail11format_uintILj3EcmEEPT0_S4_T1_ib = comdat any

$_ZN3fmt2v86detail12write_paddedILNS0_5align4typeE2ENS0_8appenderEcRZNS1_9write_intIS5_cZNS1_9write_intIcS5_mEET0_S8_NS1_13write_int_argIT1_EERKNS0_18basic_format_specsIT_EENS1_10locale_refEEUlS5_E2_EESD_SD_ijRKNSC_IS8_EESA_EUlS5_E_EES8_S8_RKNSC_ISA_EEmmOT2_ = comdat any

$_ZZN3fmt2v86detail9write_intINS0_8appenderEcZNS1_9write_intIcS3_mEET0_S5_NS1_13write_int_argIT1_EERKNS0_18basic_format_specsIT_EENS1_10locale_refEEUlS3_E2_EESA_SA_ijRKNS9_IS5_EES7_ENKUlS3_E_clES3_ = comdat any

$_ZN3fmt2v86detail18make_write_int_argIyEENS1_13write_int_argINSt11conditionalIXaalecl8num_bitsIT_EELi32EntLi0EEjNS4_IXlecl8num_bitsIS5_EELi64EEmoE4typeEE4typeEEES5_NS0_4sign4typeE = comdat any

$_ZN3fmt2v86detail18write_int_noinlineIcNS0_8appenderEoEET0_S4_NS1_13write_int_argIT1_EERKNS0_18basic_format_specsIT_EENS1_10locale_refE = comdat any

$_ZN3fmt2v86detail18make_write_int_argInEENS1_13write_int_argINSt11conditionalIXaalecl8num_bitsIT_EELi32EntLi0EEjNS4_IXlecl8num_bitsIS5_EELi64EEmoE4typeEE4typeEEES5_NS0_4sign4typeE = comdat any

$_ZN3fmt2v86detail19write_int_localizedINS0_8appenderEocEEbRT_T0_jRKNS0_18basic_format_specsIT1_EENS1_10locale_refE = comdat any

$_ZN3fmt2v86detail12count_digitsEo = comdat any

$_ZN3fmt2v86detail12count_digitsILi4EoEEiT0_ = comdat any

$_ZN3fmt2v86detail12count_digitsILi1EoEEiT0_ = comdat any

$_ZN3fmt2v86detail12count_digitsILi3EoEEiT0_ = comdat any

$_ZN3fmt2v86detail19write_int_localizedINS0_8appenderEocEET_S4_T0_jRKNS0_18basic_format_specsIT1_EERKNS1_14digit_groupingIS7_EE = comdat any

$_ZN3fmt2v86detail14format_decimalIcoEENS1_21format_decimal_resultIPT_EES5_T0_i = comdat any

$_ZN3fmt2v86detail12write_paddedILNS0_5align4typeE2ENS0_8appenderEcZNS1_19write_int_localizedIS5_ocEET_S7_T0_jRKNS0_18basic_format_specsIT1_EERKNS1_14digit_groupingISA_EEEUlS5_E_EES8_S8_SD_mmOT2_ = comdat any

$_ZZN3fmt2v86detail19write_int_localizedINS0_8appenderEocEET_S4_T0_jRKNS0_18basic_format_specsIT1_EERKNS1_14digit_groupingIS7_EEENKUlS3_E_clES3_ = comdat any

$_ZN3fmt2v86detail21count_digits_fallbackIoEEiT_ = comdat any

$_ZZN3fmt2v86detail9write_intIcNS0_8appenderEoEET0_S4_NS1_13write_int_argIT1_EERKNS0_18basic_format_specsIT_EENS1_10locale_refEENKUlS3_E_clES3_ = comdat any

$_ZN3fmt2v86detail12write_paddedILNS0_5align4typeE2ENS0_8appenderEcZNS1_9write_intIS5_cZNS1_9write_intIcS5_oEET0_S8_NS1_13write_int_argIT1_EERKNS0_18basic_format_specsIT_EENS1_10locale_refEEUlS5_E_EESD_SD_ijRKNSC_IS8_EESA_EUlS5_E_EES8_S8_RKNSC_ISA_EEmOT2_ = comdat any

$_ZN3fmt2v86detail14format_decimalIcoNS0_8appenderETnNSt9enable_ifIXntsr3std10is_pointerINSt9remove_cvINSt16remove_referenceIT1_E4typeEE4typeEEE5valueEiE4typeELi0EEENS1_21format_decimal_resultIS7_EES7_T0_i = comdat any

$_ZN3fmt2v86detail12write_paddedILNS0_5align4typeE2ENS0_8appenderEcRZNS1_9write_intIS5_cZNS1_9write_intIcS5_oEET0_S8_NS1_13write_int_argIT1_EERKNS0_18basic_format_specsIT_EENS1_10locale_refEEUlS5_E_EESD_SD_ijRKNSC_IS8_EESA_EUlS5_E_EES8_S8_RKNSC_ISA_EEmmOT2_ = comdat any

$_ZZN3fmt2v86detail9write_intINS0_8appenderEcZNS1_9write_intIcS3_oEET0_S5_NS1_13write_int_argIT1_EERKNS0_18basic_format_specsIT_EENS1_10locale_refEEUlS3_E_EESA_SA_ijRKNS9_IS5_EES7_ENKUlS3_E_clES3_ = comdat any

$_ZZN3fmt2v86detail12count_digitsILi4EoEEiT0_ENKUloE_clEo = comdat any

$_ZZN3fmt2v86detail9write_intIcNS0_8appenderEoEET0_S4_NS1_13write_int_argIT1_EERKNS0_18basic_format_specsIT_EENS1_10locale_refEENKUlS3_E0_clES3_ = comdat any

$_ZN3fmt2v86detail12write_paddedILNS0_5align4typeE2ENS0_8appenderEcZNS1_9write_intIS5_cZNS1_9write_intIcS5_oEET0_S8_NS1_13write_int_argIT1_EERKNS0_18basic_format_specsIT_EENS1_10locale_refEEUlS5_E0_EESD_SD_ijRKNSC_IS8_EESA_EUlS5_E_EES8_S8_RKNSC_ISA_EEmOT2_ = comdat any

$_ZN3fmt2v86detail11format_uintILj4EcNS0_8appenderEoEET1_S4_T2_ib = comdat any

$_ZN3fmt2v86detail11format_uintILj4EcoEEPT0_S4_T1_ib = comdat any

$_ZN3fmt2v86detail12write_paddedILNS0_5align4typeE2ENS0_8appenderEcRZNS1_9write_intIS5_cZNS1_9write_intIcS5_oEET0_S8_NS1_13write_int_argIT1_EERKNS0_18basic_format_specsIT_EENS1_10locale_refEEUlS5_E0_EESD_SD_ijRKNSC_IS8_EESA_EUlS5_E_EES8_S8_RKNSC_ISA_EEmmOT2_ = comdat any

$_ZZN3fmt2v86detail9write_intINS0_8appenderEcZNS1_9write_intIcS3_oEET0_S5_NS1_13write_int_argIT1_EERKNS0_18basic_format_specsIT_EENS1_10locale_refEEUlS3_E0_EESA_SA_ijRKNS9_IS5_EES7_ENKUlS3_E_clES3_ = comdat any

$_ZZN3fmt2v86detail12count_digitsILi1EoEEiT0_ENKUloE_clEo = comdat any

$_ZZN3fmt2v86detail9write_intIcNS0_8appenderEoEET0_S4_NS1_13write_int_argIT1_EERKNS0_18basic_format_specsIT_EENS1_10locale_refEENKUlS3_E1_clES3_ = comdat any

$_ZN3fmt2v86detail12write_paddedILNS0_5align4typeE2ENS0_8appenderEcZNS1_9write_intIS5_cZNS1_9write_intIcS5_oEET0_S8_NS1_13write_int_argIT1_EERKNS0_18basic_format_specsIT_EENS1_10locale_refEEUlS5_E1_EESD_SD_ijRKNSC_IS8_EESA_EUlS5_E_EES8_S8_RKNSC_ISA_EEmOT2_ = comdat any

$_ZN3fmt2v86detail11format_uintILj1EcNS0_8appenderEoEET1_S4_T2_ib = comdat any

$_ZN3fmt2v86detail11format_uintILj1EcoEEPT0_S4_T1_ib = comdat any

$_ZN3fmt2v86detail12write_paddedILNS0_5align4typeE2ENS0_8appenderEcRZNS1_9write_intIS5_cZNS1_9write_intIcS5_oEET0_S8_NS1_13write_int_argIT1_EERKNS0_18basic_format_specsIT_EENS1_10locale_refEEUlS5_E1_EESD_SD_ijRKNSC_IS8_EESA_EUlS5_E_EES8_S8_RKNSC_ISA_EEmmOT2_ = comdat any

$_ZZN3fmt2v86detail9write_intINS0_8appenderEcZNS1_9write_intIcS3_oEET0_S5_NS1_13write_int_argIT1_EERKNS0_18basic_format_specsIT_EENS1_10locale_refEEUlS3_E1_EESA_SA_ijRKNS9_IS5_EES7_ENKUlS3_E_clES3_ = comdat any

$_ZZN3fmt2v86detail12count_digitsILi3EoEEiT0_ENKUloE_clEo = comdat any

$_ZZN3fmt2v86detail9write_intIcNS0_8appenderEoEET0_S4_NS1_13write_int_argIT1_EERKNS0_18basic_format_specsIT_EENS1_10locale_refEENKUlS3_E2_clES3_ = comdat any

$_ZN3fmt2v86detail12write_paddedILNS0_5align4typeE2ENS0_8appenderEcZNS1_9write_intIS5_cZNS1_9write_intIcS5_oEET0_S8_NS1_13write_int_argIT1_EERKNS0_18basic_format_specsIT_EENS1_10locale_refEEUlS5_E2_EESD_SD_ijRKNSC_IS8_EESA_EUlS5_E_EES8_S8_RKNSC_ISA_EEmOT2_ = comdat any

$_ZN3fmt2v86detail11format_uintILj3EcNS0_8appenderEoEET1_S4_T2_ib = comdat any

$_ZN3fmt2v86detail11format_uintILj3EcoEEPT0_S4_T1_ib = comdat any

$_ZN3fmt2v86detail12write_paddedILNS0_5align4typeE2ENS0_8appenderEcRZNS1_9write_intIS5_cZNS1_9write_intIcS5_oEET0_S8_NS1_13write_int_argIT1_EERKNS0_18basic_format_specsIT_EENS1_10locale_refEEUlS5_E2_EESD_SD_ijRKNSC_IS8_EESA_EUlS5_E_EES8_S8_RKNSC_ISA_EEmmOT2_ = comdat any

$_ZZN3fmt2v86detail9write_intINS0_8appenderEcZNS1_9write_intIcS3_oEET0_S5_NS1_13write_int_argIT1_EERKNS0_18basic_format_specsIT_EENS1_10locale_refEEUlS3_E2_EESA_SA_ijRKNS9_IS5_EES7_ENKUlS3_E_clES3_ = comdat any

$_ZN3fmt2v86detail11is_negativeInTnNSt9enable_ifIXsr9is_signedIT_EE5valueEiE4typeELi0EEEbS4_ = comdat any

$_ZN3fmt2v86detail18make_write_int_argIoEENS1_13write_int_argINSt11conditionalIXaalecl8num_bitsIT_EELi32EntLi0EEjNS4_IXlecl8num_bitsIS5_EELi64EEmoE4typeEE4typeEEES5_NS0_4sign4typeE = comdat any

$_ZN3fmt2v86detail11is_negativeIoTnNSt9enable_ifIXntsr9is_signedIT_EE5valueEiE4typeELi0EEEbS4_ = comdat any

$_ZN3fmt2v86detail5writeIcNS0_8appenderEbTnNSt9enable_ifIXsr3std7is_sameIT1_bEE5valueEiE4typeELi0EEET0_S8_S5_RKNS0_18basic_format_specsIT_EENS1_10locale_refE = comdat any

$_ZN3fmt2v86detail10locale_refC2Ev = comdat any

$_ZN3fmt2v86detail11write_bytesILNS0_5align4typeE1EcNS0_8appenderEEET1_S6_NS0_17basic_string_viewIcEERKNS0_18basic_format_specsIT0_EE = comdat any

$_ZN3fmt2v86detail12write_paddedILNS0_5align4typeE1ENS0_8appenderEcZNS1_11write_bytesILS4_1EcS5_EET1_S7_NS0_17basic_string_viewIcEERKNS0_18basic_format_specsIT0_EEEUlS5_E_EESB_SB_RKNSA_IS7_EEmOT2_ = comdat any

$_ZN3fmt2v86detail12write_paddedILNS0_5align4typeE1ENS0_8appenderEcRZNS1_11write_bytesILS4_1EcS5_EET1_S7_NS0_17basic_string_viewIcEERKNS0_18basic_format_specsIT0_EEEUlS5_E_EESB_SB_RKNSA_IS7_EEmmOT2_ = comdat any

$_ZZN3fmt2v86detail11write_bytesILNS0_5align4typeE1EcNS0_8appenderEEET1_S6_NS0_17basic_string_viewIcEERKNS0_18basic_format_specsIT0_EEENKUlS5_E_clES5_ = comdat any

$_ZN3fmt2v86detail5writeIcNS0_8appenderEEET0_S4_T_RKNS0_18basic_format_specsIS5_EENS1_10locale_refE = comdat any

$_ZN3fmt2v86detail16check_char_specsIcNS1_13error_handlerEEEbRKNS0_18basic_format_specsIT_EEOT0_ = comdat any

$_ZN3fmt2v86detail19check_int_type_specIRNS1_13error_handlerEEEvNS0_17presentation_typeEOT_ = comdat any

$_ZN3fmt2v86detail5writeIcNS0_8appenderEfTnNSt9enable_ifIXsr3std17is_floating_pointIT1_EE5valueEiE4typeELi0EEET0_S8_S5_NS0_18basic_format_specsIT_EENS1_10locale_refE = comdat any

$_ZN3fmt2v86detail27is_supported_floating_pointIfTnNSt9enable_ifIXsr3std17is_floating_pointIT_EE5valueEiE4typeELi0EEEtS4_ = comdat any

$_ZN3fmt2v86detail21parse_float_type_specINS1_13error_handlerEcEENS1_11float_specsERKNS0_18basic_format_specsIT0_EEOT_ = comdat any

$_ZN3fmt2v86detail8isfiniteIfTnNSt9enable_ifIXsr3std17is_floating_pointIT_EE5valueEiE4typeELi0EEEbS4_ = comdat any

$_ZN3fmt2v86detail15write_nonfiniteIcNS0_8appenderEEET0_S4_bNS0_18basic_format_specsIT_EERKNS1_11float_specsE = comdat any

$_ZN3fmt2v86detail5isinfIfTnNSt9enable_ifIXsr3std17is_floating_pointIT_EE5valueEiE4typeELi0EEEbS4_ = comdat any

$_ZN3fmt2v86detail4signIcNS0_4sign4typeEEET_T0_ = comdat any

$_ZN3fmt2v86detail14snprintf_floatIdEEiT_iNS1_11float_specsERNS1_6bufferIcEE = comdat any

$_ZN3fmt2v86detail13promote_floatEf = comdat any

$_ZN3fmt2v86detail11write_bytesILNS0_5align4typeE2EcNS0_8appenderEEET1_S6_NS0_17basic_string_viewIcEERKNS0_18basic_format_specsIT0_EE = comdat any

$_ZN3fmt2v86detail12format_floatIdEEiT_iNS1_11float_specsERNS1_6bufferIcEE = comdat any

$_ZN3fmt2v86detail11write_floatINS0_8appenderENS1_14big_decimal_fpEcEET_S5_RKT0_RKNS0_18basic_format_specsIT1_EENS1_11float_specsENS1_10locale_refE = comdat any

$_ZSt7signbitf = comdat any

$_ZSt8isfinitef = comdat any

$_ZN3fmt2v86detail12write_paddedILNS0_5align4typeE1ENS0_8appenderEcZNS1_15write_nonfiniteIcS5_EET0_S7_bNS0_18basic_format_specsIT_EERKNS1_11float_specsEEUlS5_E_EES7_S7_RKNS8_IT1_EEmOT2_ = comdat any

$_ZN3fmt2v86detail12write_paddedILNS0_5align4typeE1ENS0_8appenderEcRZNS1_15write_nonfiniteIcS5_EET0_S7_bNS0_18basic_format_specsIT_EERKNS1_11float_specsEEUlS5_E_EES7_S7_RKNS8_IT1_EEmmOT2_ = comdat any

$_ZZN3fmt2v86detail15write_nonfiniteIcNS0_8appenderEEET0_S4_bNS0_18basic_format_specsIT_EERKNS1_11float_specsEENKUlS3_E_clES3_ = comdat any

$_ZSt5isinff = comdat any

$_ZN3fmt2v86detail13ignore_unusedIJbA13_cEEEvDpRKT_ = comdat any

$_ZZN3fmt2v86detail14snprintf_floatIdEEiT_iNS1_11float_specsERNS1_6bufferIcEEENKUlcE_clEc = comdat any

$_ZN3fmt2v86detail12write_paddedILNS0_5align4typeE2ENS0_8appenderEcZNS1_11write_bytesILS4_2EcS5_EET1_S7_NS0_17basic_string_viewIcEERKNS0_18basic_format_specsIT0_EEEUlS5_E_EESB_SB_RKNSA_IS7_EEmOT2_ = comdat any

$_ZN3fmt2v86detail12write_paddedILNS0_5align4typeE2ENS0_8appenderEcRZNS1_11write_bytesILS4_2EcS5_EET1_S7_NS0_17basic_string_viewIcEERKNS0_18basic_format_specsIT0_EEEUlS5_E_EESB_SB_RKNSA_IS7_EEmmOT2_ = comdat any

$_ZZN3fmt2v86detail11write_bytesILNS0_5align4typeE2EcNS0_8appenderEEET1_S6_NS0_17basic_string_viewIcEERKNS0_18basic_format_specsIT0_EEENKUlS5_E_clES5_ = comdat any

$_ZN3fmt2v86detail13ignore_unusedIJbA18_cEEEvDpRKT_ = comdat any

$_ZN3fmt2v86detail6fill_nIciEEPT_S4_T0_c = comdat any

$_ZN3fmt2v86detail9dragonbox10to_decimalIfEENS2_10decimal_fpIT_EES5_ = comdat any

$_ZN3fmt2v86detail5writeIcNS0_8appenderEjTnNSt9enable_ifIXaaaasr11is_integralIT1_EE5valuentsr3std7is_sameIS5_bEE5valuentsr3std7is_sameIS5_T_EE5valueEiE4typeELi0EEET0_S9_S5_ = comdat any

$_ZN3fmt2v86detail9dragonbox10to_decimalIdEENS2_10decimal_fpIT_EES5_ = comdat any

$_ZN3fmt2v86detail5writeIcNS0_8appenderEmTnNSt9enable_ifIXaaaasr11is_integralIT1_EE5valuentsr3std7is_sameIS5_bEE5valuentsr3std7is_sameIS5_T_EE5valueEiE4typeELi0EEET0_S9_S5_ = comdat any

$_ZN3fmt2v86detail9normalizeILi0EEENS1_2fpES3_ = comdat any

$_ZN3fmt2v86detail2fpC2IdEET_ = comdat any

$_ZN3fmt2v86detail16get_cached_powerEiRi = comdat any

$_ZN3fmt2v86detailmlENS1_2fpES2_ = comdat any

$_ZN3fmt2v86detail2fpC2Ev = comdat any

$_ZN3fmt2v86detail2fp6assignIfTnNSt9enable_ifIXsr12is_supportedIT_EE5valueEiE4typeELi0EEEbS5_ = comdat any

$_ZN3fmt2v86detail2fp6assignIdTnNSt9enable_ifIXsr12is_supportedIT_EE5valueEiE4typeELi0EEEbS5_ = comdat any

$_ZN3fmt2v86detail13format_dragonENS1_2fpEbiRNS1_6bufferIcEERi = comdat any

$_ZN3fmt2v86detail6bufferIcEixImEERcT_ = comdat any

$_ZN3fmt2v86detail8bit_castIjfEET_RKT0_ = comdat any

$_ZN3fmt2v86detail13exponent_maskIfEENS1_9dragonbox10float_infoIT_E12carrier_uintEv = comdat any

$_ZN3fmt2v86detail9dragonbox16floor_log10_pow2Ei = comdat any

$_ZN3fmt2v86detail9dragonbox14cache_accessorIfE16get_cached_powerEi = comdat any

$_ZN3fmt2v86detail9dragonbox16floor_log2_pow10Ei = comdat any

$_ZN3fmt2v86detail9dragonbox14cache_accessorIfE13compute_deltaERKmi = comdat any

$_ZN3fmt2v86detail9dragonbox14cache_accessorIfE11compute_mulEjRKm = comdat any

$_ZN3fmt2v86detail9dragonbox28divide_by_10_to_kappa_plus_1Ej = comdat any

$_ZN3fmt2v86detail9dragonbox19is_endpoint_integerIfEEbNS2_10float_infoIT_E12carrier_uintEii = comdat any

$_ZN3fmt2v86detail9dragonbox14cache_accessorIfE18compute_mul_parityEjRKmi = comdat any

$_ZN3fmt2v86detail9dragonbox37check_divisibility_and_divide_by_pow5ILi1EEEbRj = comdat any

$_ZN3fmt2v86detail9dragonbox17is_center_integerIfEEbNS2_10float_infoIT_E12carrier_uintEii = comdat any

$_ZN3fmt2v86detail9dragonbox23small_division_by_pow10ILi1EEEjj = comdat any

$_ZN3fmt2v86detail9dragonbox37floor_log10_pow2_minus_log10_4_over_3Ei = comdat any

$_ZN3fmt2v86detail9dragonbox14cache_accessorIfE47compute_left_endpoint_for_shorter_interval_caseERKmi = comdat any

$_ZN3fmt2v86detail9dragonbox14cache_accessorIfE48compute_right_endpoint_for_shorter_interval_caseERKmi = comdat any

$_ZN3fmt2v86detail9dragonbox41is_left_endpoint_integer_shorter_intervalIfEEbi = comdat any

$_ZN3fmt2v86detail9dragonbox14cache_accessorIfE42compute_round_up_for_shorter_interval_caseERKmi = comdat any

$_ZN3fmt2v86detail13ignore_unusedIJbA19_cEEEvDpRKT_ = comdat any

$_ZN3fmt2v86detail9dragonbox14umul96_upper32Ejm = comdat any

$_ZN3fmt2v86detail9dragonbox15umul128_upper64Emm = comdat any

$_ZN3fmt2v86detail9dragonbox23divisible_by_power_of_5Eji = comdat any

$_ZN3fmt2v86detail9dragonbox14umul96_lower64Ejm = comdat any

$_ZN3fmt2v86detail9dragonbox23divisible_by_power_of_2Eji = comdat any

$_ZN3fmt2v86detail8bit_castImdEET_RKT0_ = comdat any

$_ZN3fmt2v86detail13exponent_maskIdEENS1_9dragonbox10float_infoIT_E12carrier_uintEv = comdat any

$_ZN3fmt2v86detail9dragonbox14cache_accessorIdE16get_cached_powerEi = comdat any

$_ZN3fmt2v86detail9dragonbox14cache_accessorIdE13compute_deltaERKNS1_15uint128_wrapperEi = comdat any

$_ZN3fmt2v86detail9dragonbox14cache_accessorIdE11compute_mulEmRKNS1_15uint128_wrapperE = comdat any

$_ZN3fmt2v86detail9dragonbox28divide_by_10_to_kappa_plus_1Em = comdat any

$_ZN3fmt2v86detail9dragonbox19is_endpoint_integerIdEEbNS2_10float_infoIT_E12carrier_uintEii = comdat any

$_ZN3fmt2v86detail9dragonbox14cache_accessorIdE18compute_mul_parityEmRKNS1_15uint128_wrapperEi = comdat any

$_ZN3fmt2v86detail9dragonbox37check_divisibility_and_divide_by_pow5ILi2EEEbRj = comdat any

$_ZN3fmt2v86detail9dragonbox17is_center_integerIdEEbNS2_10float_infoIT_E12carrier_uintEii = comdat any

$_ZN3fmt2v86detail9dragonbox23small_division_by_pow10ILi2EEEjj = comdat any

$_ZN3fmt2v86detail9dragonbox14cache_accessorIdE47compute_left_endpoint_for_shorter_interval_caseERKNS1_15uint128_wrapperEi = comdat any

$_ZN3fmt2v86detail9dragonbox14cache_accessorIdE48compute_right_endpoint_for_shorter_interval_caseERKNS1_15uint128_wrapperEi = comdat any

$_ZN3fmt2v86detail9dragonbox41is_left_endpoint_integer_shorter_intervalIdEEbi = comdat any

$_ZN3fmt2v86detail9dragonbox14cache_accessorIdE42compute_round_up_for_shorter_interval_caseERKNS1_15uint128_wrapperEi = comdat any

$_ZNK3fmt2v86detail15uint128_wrapper4highEv = comdat any

$_ZN3fmt2v86detail13ignore_unusedIJbA24_cEEEvDpRKT_ = comdat any

$_ZN3fmt2v86detail9dragonbox7umul128Emm = comdat any

$_ZNK3fmt2v86detail15uint128_wrapper3lowEv = comdat any

$_ZN3fmt2v86detail15uint128_wrapperpLEm = comdat any

$_ZN3fmt2v86detail15uint128_wrapperC2Emm = comdat any

$_ZN3fmt2v86detail15uint128_wrapperC2Eo = comdat any

$_ZN3fmt2v86detail9dragonbox15umul192_upper64EmNS1_15uint128_wrapperE = comdat any

$_ZN3fmt2v86detail9dragonbox23divisible_by_power_of_5Emi = comdat any

$_ZN3fmt2v86detail9dragonbox16umul192_middle64EmNS1_15uint128_wrapperE = comdat any

$_ZN3fmt2v86detail9dragonbox23divisible_by_power_of_2Emi = comdat any

$_ZN3fmt2v86detail11is_negativeImTnNSt9enable_ifIXntsr9is_signedIT_EE5valueEiE4typeELi0EEEbS4_ = comdat any

$_ZN3fmt2v86detail2fpC2Emi = comdat any

$_ZN3fmt2v86detail8multiplyEmm = comdat any

$_ZN3fmt2v86detail19get_round_directionEmmm = comdat any

$_ZZN3fmt2v86detail16grisu_gen_digitsENS1_2fpEmRiRNS1_18gen_digits_handlerEENKUljE_clEj = comdat any

$_ZN3fmt2v86detail13ignore_unusedIJbA25_cEEEvDpRKT_ = comdat any

$_ZN3fmt2v86detail18gen_digits_handler8on_digitEcmmmb = comdat any

$_ZN3fmt2v86detail6bigintC2Ev = comdat any

$_ZN3fmt2v86detail6bigint6assignEm = comdat any

$_ZN3fmt2v86detail6bigintlSEi = comdat any

$_ZN3fmt2v86detail6bigint12assign_pow10Ei = comdat any

$_ZN3fmt2v86detail6bigint6assignERKS2_ = comdat any

$_ZN3fmt2v86detail6bigintmLImEERS2_T_ = comdat any

$_ZN3fmt2v86detail6bigint13divmod_assignERKS2_ = comdat any

$_ZN3fmt2v86detail7compareERKNS1_6bigintES4_ = comdat any

$_ZN3fmt2v86detail11add_compareERKNS1_6bigintES4_S4_ = comdat any

$_ZN3fmt2v86detail6bigintmLIiEERS2_T_ = comdat any

$_ZN3fmt2v86detail6bufferIcEixIiEERcT_ = comdat any

$_ZN3fmt2v86detail6bigintD2Ev = comdat any

$_ZNSaIjEC2Ev = comdat any

$_ZN3fmt2v819basic_memory_bufferIjLm32ESaIjEEC2ERKS2_ = comdat any

$_ZNSaIjED2Ev = comdat any

$_ZNSt15__new_allocatorIjEC2Ev = comdat any

$_ZN3fmt2v86detail6bufferIjEC2EPjmm = comdat any

$_ZNSaIjEC2ERKS_ = comdat any

$_ZN3fmt2v86detail6bufferIjE3setEPjm = comdat any

$_ZN3fmt2v819basic_memory_bufferIjLm32ESaIjEE4growEm = comdat any

$_ZNSt15__new_allocatorIjEC2ERKS0_ = comdat any

$_ZNSt16allocator_traitsISaIjEE8max_sizeERKS0_ = comdat any

$_ZNK3fmt2v86detail6bufferIjE8capacityEv = comdat any

$_ZN3fmt2v86detail6bufferIjE4dataEv = comdat any

$_ZNSt16allocator_traitsISaIjEE8allocateERS0_m = comdat any

$_ZSt18uninitialized_copyIPjS0_ET0_T_S2_S1_ = comdat any

$_ZNK3fmt2v86detail6bufferIjE4sizeEv = comdat any

$_ZN3fmt2v86detail12make_checkedIjEEPT_S4_m = comdat any

$_ZNSt15__new_allocatorIjE10deallocateEPjm = comdat any

$_ZNKSt15__new_allocatorIjE8max_sizeEv = comdat any

$_ZNKSt15__new_allocatorIjE11_M_max_sizeEv = comdat any

$_ZNSt15__new_allocatorIjE8allocateEmPKv = comdat any

$_ZNSt20__uninitialized_copyILb1EE13__uninit_copyIPjS2_EET0_T_S4_S3_ = comdat any

$_ZSt4copyIPjS0_ET0_T_S2_S1_ = comdat any

$_ZSt13__copy_move_aILb0EPjS0_ET1_T0_S2_S1_ = comdat any

$_ZSt12__miter_baseIPjET_S1_ = comdat any

$_ZSt12__niter_wrapIPjET_RKS1_S1_ = comdat any

$_ZSt14__copy_move_a1ILb0EPjS0_ET1_T0_S2_S1_ = comdat any

$_ZSt12__niter_baseIPjET_S1_ = comdat any

$_ZSt14__copy_move_a2ILb0EPjS0_ET1_T0_S2_S1_ = comdat any

$_ZNSt11__copy_moveILb0ELb1ESt26random_access_iterator_tagE8__copy_mIjEEPT_PKS3_S6_S4_ = comdat any

$_ZNSt15__new_allocatorIjED2Ev = comdat any

$_ZN3fmt2v86detail6bufferIjEixImEERjT_ = comdat any

$_ZN3fmt2v819basic_memory_bufferIjLm32ESaIjEE6resizeEm = comdat any

$_ZN3fmt2v86detail6bufferIjE10try_resizeEm = comdat any

$_ZN3fmt2v86detail6bufferIjE11try_reserveEm = comdat any

$_ZN3fmt2v86detail6bufferIjE9push_backERKj = comdat any

$_ZN3fmt2v86detail6bigint6squareEv = comdat any

$_ZN3fmt2v819basic_memory_bufferIjLm32ESaIjEEC2EOS3_ = comdat any

$_ZN3fmt2v86detail6bufferIjEixIiEERjT_ = comdat any

$_ZN3fmt2v86detail6bigintixEi = comdat any

$_ZN3fmt2v86detail6bigint20remove_leading_zerosEv = comdat any

$_ZN3fmt2v819basic_memory_bufferIjLm32ESaIjEED2Ev = comdat any

$_ZN3fmt2v819basic_memory_bufferIjLm32ESaIjEE4moveERS3_ = comdat any

$_ZN3fmt2v86detail6bufferIjEixIjEERjT_ = comdat any

$_ZN3fmt2v819basic_memory_bufferIjLm32ESaIjEE10deallocateEv = comdat any

$_ZNK3fmt2v86detail6bufferIjE4dataEv = comdat any

$_ZSt4copyIPKjPjET0_T_S4_S3_ = comdat any

$_ZSt13__copy_move_aILb0EPKjPjET1_T0_S4_S3_ = comdat any

$_ZSt12__miter_baseIPKjET_S2_ = comdat any

$_ZSt14__copy_move_a1ILb0EPKjPjET1_T0_S4_S3_ = comdat any

$_ZSt12__niter_baseIPKjET_S2_ = comdat any

$_ZSt14__copy_move_a2ILb0EPKjPjET1_T0_S4_S3_ = comdat any

$_ZN3fmt2v86detail6bigint8multiplyEm = comdat any

$_ZNK3fmt2v86detail6bufferIjEixImEERKjT_ = comdat any

$_ZN3fmt2v86detail6bigint5alignERKS2_ = comdat any

$_ZN3fmt2v86detail6bigint16subtract_alignedERKS2_ = comdat any

$_ZSt20uninitialized_fill_nIPjiiET_S1_T0_RKT1_ = comdat any

$_ZNSt22__uninitialized_fill_nILb1EE15__uninit_fill_nIPjiiEET_S3_T0_RKT1_ = comdat any

$_ZSt6fill_nIPjiiET_S1_T0_RKT1_ = comdat any

$_ZSt10__fill_n_aIPjiiET_S1_T0_RKT1_St26random_access_iterator_tag = comdat any

$_ZSt17__size_to_integeri = comdat any

$_ZSt19__iterator_categoryIPjENSt15iterator_traitsIT_E17iterator_categoryERKS2_ = comdat any

$_ZSt8__fill_aIPjiEvT_S1_RKT0_ = comdat any

$_ZSt9__fill_a1IPjiEN9__gnu_cxx11__enable_ifIXsr11__is_scalarIT0_EE7__valueEvE6__typeET_S6_RKS3_ = comdat any

$_ZN3fmt2v86detail6bigint15subtract_bigitsEijRj = comdat any

$_ZNK3fmt2v86detail6bigint10num_bigitsEv = comdat any

$_ZNK3fmt2v86detail6bigintixEi = comdat any

$_ZNK3fmt2v86detail6bufferIjEixIjEERKjT_ = comdat any

$_ZSt3minIiERKT_S2_S2_ = comdat any

$_ZZN3fmt2v86detail11add_compareERKNS1_6bigintES4_S4_ENKUlS4_iE_clES4_i = comdat any

$_ZN3fmt2v86detail6bigint8multiplyEj = comdat any

$_ZN3fmt2v86detail14do_write_floatINS0_8appenderENS1_14big_decimal_fpEcNS1_14digit_groupingIcEEEET_S7_RKT0_RKNS0_18basic_format_specsIT1_EENS1_11float_specsENS1_10locale_refE = comdat any

$_ZN3fmt2v86detail20get_significand_sizeERKNS1_14big_decimal_fpE = comdat any

$_ZN3fmt2v86detail13decimal_pointIcEET_NS1_10locale_refE = comdat any

$_ZZN3fmt2v86detail14do_write_floatINS0_8appenderENS1_14big_decimal_fpEcNS1_14digit_groupingIcEEEET_S7_RKT0_RKNS0_18basic_format_specsIT1_EENS1_11float_specsENS1_10locale_refEENKUlvE_clEv = comdat any

$_ZN3fmt2v86detail12write_paddedILNS0_5align4typeE2ENS0_8appenderEcRZNS1_14do_write_floatIS5_NS1_14big_decimal_fpEcNS1_14digit_groupingIcEEEET_SA_RKT0_RKNS0_18basic_format_specsIT1_EENS1_11float_specsENS1_10locale_refEEUlS5_E_EESB_SB_SI_mOT2_ = comdat any

$_ZZN3fmt2v86detail14do_write_floatINS0_8appenderENS1_14big_decimal_fpEcNS1_14digit_groupingIcEEEET_S7_RKT0_RKNS0_18basic_format_specsIT1_EENS1_11float_specsENS1_10locale_refEENKUlS3_E_clES3_ = comdat any

$_ZN3fmt2v86detail12write_paddedILNS0_5align4typeE2ENS0_8appenderEcZNS1_14do_write_floatIS5_NS1_14big_decimal_fpEcNS1_14digit_groupingIcEEEET_SA_RKT0_RKNS0_18basic_format_specsIT1_EENS1_11float_specsENS1_10locale_refEEUlS5_E0_EESB_SB_SI_mOT2_ = comdat any

$_ZN3fmt2v86detail12write_paddedILNS0_5align4typeE2ENS0_8appenderEcZNS1_14do_write_floatIS5_NS1_14big_decimal_fpEcNS1_14digit_groupingIcEEEET_SA_RKT0_RKNS0_18basic_format_specsIT1_EENS1_11float_specsENS1_10locale_refEEUlS5_E1_EESB_SB_SI_mOT2_ = comdat any

$_ZN3fmt2v86detail12write_paddedILNS0_5align4typeE2ENS0_8appenderEcZNS1_14do_write_floatIS5_NS1_14big_decimal_fpEcNS1_14digit_groupingIcEEEET_SA_RKT0_RKNS0_18basic_format_specsIT1_EENS1_11float_specsENS1_10locale_refEEUlS5_E2_EESB_SB_SI_mOT2_ = comdat any

$_ZN3fmt2v86detail18decimal_point_implIcEET_NS1_10locale_refE = comdat any

$_ZN3fmt2v86detail12write_paddedILNS0_5align4typeE2ENS0_8appenderEcRZNS1_14do_write_floatIS5_NS1_14big_decimal_fpEcNS1_14digit_groupingIcEEEET_SA_RKT0_RKNS0_18basic_format_specsIT1_EENS1_11float_specsENS1_10locale_refEEUlS5_E_EESB_SB_SI_mmOT2_ = comdat any

$_ZN3fmt2v86detail17write_significandINS0_8appenderEcEET_S4_PKciiT0_ = comdat any

$_ZN3fmt2v86detail6fill_nINS0_8appenderEicEET_S4_T0_RKT1_ = comdat any

$_ZN3fmt2v86detail14write_exponentIcNS0_8appenderEEET0_iS4_ = comdat any

$_ZN3fmt2v86detail13ignore_unusedIJbA22_cEEEvDpRKT_ = comdat any

$_ZN3fmt2v86detail12write_paddedILNS0_5align4typeE2ENS0_8appenderEcRZNS1_14do_write_floatIS5_NS1_14big_decimal_fpEcNS1_14digit_groupingIcEEEET_SA_RKT0_RKNS0_18basic_format_specsIT1_EENS1_11float_specsENS1_10locale_refEEUlS5_E0_EESB_SB_SI_mmOT2_ = comdat any

$_ZZN3fmt2v86detail14do_write_floatINS0_8appenderENS1_14big_decimal_fpEcNS1_14digit_groupingIcEEEET_S7_RKT0_RKNS0_18basic_format_specsIT1_EENS1_11float_specsENS1_10locale_refEENKUlS3_E0_clES3_ = comdat any

$_ZN3fmt2v86detail17write_significandIcNS0_8appenderEPKcNS1_14digit_groupingIcEEEET0_S8_T1_iiRKT2_ = comdat any

$_ZN3fmt2v86detail17write_significandIcNS0_8appenderEEET0_S4_PKci = comdat any

$_ZN3fmt2v86detail12write_paddedILNS0_5align4typeE2ENS0_8appenderEcRZNS1_14do_write_floatIS5_NS1_14big_decimal_fpEcNS1_14digit_groupingIcEEEET_SA_RKT0_RKNS0_18basic_format_specsIT1_EENS1_11float_specsENS1_10locale_refEEUlS5_E1_EESB_SB_SI_mmOT2_ = comdat any

$_ZZN3fmt2v86detail14do_write_floatINS0_8appenderENS1_14big_decimal_fpEcNS1_14digit_groupingIcEEEET_S7_RKT0_RKNS0_18basic_format_specsIT1_EENS1_11float_specsENS1_10locale_refEENKUlS3_E1_clES3_ = comdat any

$_ZN3fmt2v86detail17write_significandINS0_8appenderEcPKcNS1_14digit_groupingIcEEEET_S8_T1_iiT0_RKT2_ = comdat any

$_ZN3fmt2v86detail6bufferIcE3endEv = comdat any

$_ZN3fmt2v86detail12write_paddedILNS0_5align4typeE2ENS0_8appenderEcRZNS1_14do_write_floatIS5_NS1_14big_decimal_fpEcNS1_14digit_groupingIcEEEET_SA_RKT0_RKNS0_18basic_format_specsIT1_EENS1_11float_specsENS1_10locale_refEEUlS5_E2_EESB_SB_SI_mmOT2_ = comdat any

$_ZZN3fmt2v86detail14do_write_floatINS0_8appenderENS1_14big_decimal_fpEcNS1_14digit_groupingIcEEEET_S7_RKT0_RKNS0_18basic_format_specsIT1_EENS1_11float_specsENS1_10locale_refEENKUlS3_E2_clES3_ = comdat any

$_ZN3fmt2v86detail5writeIcNS0_8appenderEdTnNSt9enable_ifIXsr3std17is_floating_pointIT1_EE5valueEiE4typeELi0EEET0_S8_S5_NS0_18basic_format_specsIT_EENS1_10locale_refE = comdat any

$_ZN3fmt2v86detail27is_supported_floating_pointIdTnNSt9enable_ifIXsr3std17is_floating_pointIT_EE5valueEiE4typeELi0EEEtS4_ = comdat any

$_ZN3fmt2v86detail8isfiniteIdTnNSt9enable_ifIXsr3std17is_floating_pointIT_EE5valueEiE4typeELi0EEEbS4_ = comdat any

$_ZN3fmt2v86detail5isinfIdTnNSt9enable_ifIXsr3std17is_floating_pointIT_EE5valueEiE4typeELi0EEEbS4_ = comdat any

$_ZN3fmt2v86detail13promote_floatIdEET_S3_ = comdat any

$_ZSt7signbitd = comdat any

$_ZSt8isfinited = comdat any

$_ZSt5isinfd = comdat any

$_ZN3fmt2v86detail5writeIcNS0_8appenderEeTnNSt9enable_ifIXsr3std17is_floating_pointIT1_EE5valueEiE4typeELi0EEET0_S8_S5_NS0_18basic_format_specsIT_EENS1_10locale_refE = comdat any

$_ZN3fmt2v86detail27is_supported_floating_pointIeTnNSt9enable_ifIXsr3std17is_floating_pointIT_EE5valueEiE4typeELi0EEEtS4_ = comdat any

$_ZN3fmt2v86detail8isfiniteIeTnNSt9enable_ifIXsr3std17is_floating_pointIT_EE5valueEiE4typeELi0EEEbS4_ = comdat any

$_ZN3fmt2v86detail5isinfIeTnNSt9enable_ifIXsr3std17is_floating_pointIT_EE5valueEiE4typeELi0EEEbS4_ = comdat any

$_ZN3fmt2v86detail14snprintf_floatIeEEiT_iNS1_11float_specsERNS1_6bufferIcEE = comdat any

$_ZN3fmt2v86detail13promote_floatIeEET_S3_ = comdat any

$_ZN3fmt2v86detail12format_floatIeEEiT_iNS1_11float_specsERNS1_6bufferIcEE = comdat any

$_ZSt7signbite = comdat any

$_ZSt8isfinitee = comdat any

$_ZSt5isinfe = comdat any

$_ZZN3fmt2v86detail14snprintf_floatIeEEiT_iNS1_11float_specsERNS1_6bufferIcEEENKUlcE_clEc = comdat any

$_ZN3fmt2v86detail2fp6assignIeTnNSt9enable_ifIXntsr12is_supportedIT_EE5valueEiE4typeELi0EEEbS5_ = comdat any

$_ZN3fmt2v86detail20printf_arg_formatterINS0_8appenderEcE18write_null_pointerEb = comdat any

$_ZN3fmt2v86detail5writeIcNS0_8appenderEEET0_S4_PKT_RKNS0_18basic_format_specsIS5_EENS1_10locale_refE = comdat any

$_ZN3fmt2v86detail23check_cstring_type_specINS1_13error_handlerEEEbNS0_17presentation_typeEOT_ = comdat any

$_ZN3fmt2v86detail5writeIcNS0_8appenderEEET0_S4_NS0_17basic_string_viewINS0_13type_identityIT_E4typeEEERKNS0_18basic_format_specsIS7_EENS1_10locale_refE = comdat any

$_ZN3fmt2v86detail9write_ptrIcNS0_8appenderEmEET0_S4_T1_PKNS0_18basic_format_specsIT_EE = comdat any

$_ZN3fmt2v86detail10to_uintptrEPKv = comdat any

$_ZN3fmt2v86detail22check_string_type_specINS1_13error_handlerEEEvNS0_17presentation_typeEOT_ = comdat any

$_ZN3fmt2v86detail5writeIcNS0_8appenderEEET0_S4_NS0_17basic_string_viewIT_EERKNS0_18basic_format_specsIS6_EE = comdat any

$_ZN3fmt2v86detail16code_point_indexIcEEmNS0_17basic_string_viewIT_EEm = comdat any

$_ZN3fmt2v86detail13compute_widthENS0_17basic_string_viewIcEE = comdat any

$_ZN3fmt2v86detail12write_paddedILNS0_5align4typeE1ENS0_8appenderEcZNS1_5writeIcS5_EET0_S7_NS0_17basic_string_viewIT_EERKNS0_18basic_format_specsIS9_EEEUlS5_E_EES7_S7_RKNSB_IT1_EEmmOT2_ = comdat any

$_ZN3fmt2v86detail18for_each_codepointIZNS1_13compute_widthENS0_17basic_string_viewIcEEE17count_code_pointsEEvS4_T_ = comdat any

$_ZZN3fmt2v86detail18for_each_codepointIZNS1_13compute_widthENS0_17basic_string_viewIcEEE17count_code_pointsEEvS4_T_ENKUlPKcS8_E_clES8_S8_ = comdat any

$_ZN3fmt2v86detail8copy_strIcKccTnNSt9enable_ifIXaasr3std7is_sameINSt12remove_constIT0_E4typeET1_EE5valuesr7is_charIS9_EE5valueEiE4typeELi0EEEPS9_PS6_SD_SC_ = comdat any

$_ZN3fmt2v86detail11utf8_decodeEPKcPjPi = comdat any

$_ZZN3fmt2v86detail13compute_widthENS0_17basic_string_viewIcEEENK17count_code_pointsclEjS3_ = comdat any

$_ZN3fmt2v86detail17code_point_lengthIcEEiPKT_ = comdat any

$_ZZN3fmt2v86detail5writeIcNS0_8appenderEEET0_S4_NS0_17basic_string_viewIT_EERKNS0_18basic_format_specsIS6_EEENKUlS3_E_clES3_ = comdat any

$_ZN3fmt2v86detail12write_paddedILNS0_5align4typeE2ENS0_8appenderEcRZNS1_9write_ptrIcS5_mEET0_S7_T1_PKNS0_18basic_format_specsIT_EEEUlS5_E_EES7_S7_RKNS9_IS8_EEmOT2_ = comdat any

$_ZZN3fmt2v86detail9write_ptrIcNS0_8appenderEmEET0_S4_T1_PKNS0_18basic_format_specsIT_EEENKUlS3_E_clES3_ = comdat any

$_ZN3fmt2v86detail12write_paddedILNS0_5align4typeE2ENS0_8appenderEcRZNS1_9write_ptrIcS5_mEET0_S7_T1_PKNS0_18basic_format_specsIT_EEEUlS5_E_EES7_S7_RKNS9_IS8_EEmmOT2_ = comdat any

$_ZN3fmt2v86detail8bit_castImPKvEET_RKT0_ = comdat any

$_ZN3fmt2v86detail5writeIcNS0_8appenderEvTnNSt9enable_ifIXsr3std7is_sameIT1_vEE5valueEiE4typeELi0EEET0_S8_PKS5_RKNS0_18basic_format_specsIT_EENS1_10locale_refE = comdat any

$_ZN3fmt2v86detail23check_pointer_type_specINS1_13error_handlerEEEvNS0_17presentation_typeEOT_ = comdat any

$_ZN3fmt2v817basic_string_viewIcEC2Ev = comdat any

$_ZNK3fmt2v816basic_format_argINS0_20basic_printf_contextINS0_8appenderEcEEE6handle6formatERNS0_26basic_printf_parse_contextIcEERS4_ = comdat any

$_ZN3fmt2v86detail5writeIcNS0_8appenderEEET0_S4_NS0_9monostateENS0_18basic_format_specsIT_EENS1_10locale_refE = comdat any

$_ZNK3fmt2v86detail6bufferIcE4dataEv = comdat any

$_ZN3fmt2v819basic_memory_bufferIcLm500ESaIcEE10deallocateEv = comdat any

$_ZN3fmt2v814to_string_viewIcSt11char_traitsIcESaIcEEENS0_17basic_string_viewIT_EERKNSt7__cxx1112basic_stringIS6_T0_T1_EE = comdat any

$_ZN3fmt2v817basic_string_viewIcEC2ISt11char_traitsIcESaIcEEERKNSt7__cxx1112basic_stringIcT_T0_EE = comdat any

$_ZN3fmt2v87sprintfIPKcJEcEENSt7__cxx1112basic_stringIT1_St11char_traitsIS6_ESaIS6_EEERKT_DpRKT0_ = comdat any

$_ZN3fmt2v816make_format_argsINS0_20basic_printf_contextINS0_8appenderEcEEJEEENS0_16format_arg_storeIT_JDpNSt9remove_cvINSt16remove_referenceIT0_E4typeEE4typeEEEEDpOS9_ = comdat any

$_ZNSt6vectorINSt7__cxx1112basic_stringIcSt11char_traitsIcESaIcEEESaIS5_EE15_M_erase_at_endEPS5_ = comdat any

$_ZNSt16allocator_traitsISaINSt7__cxx1112basic_stringIcSt11char_traitsIcESaIcEEEEE9constructIS5_JRA2_KcEEEvRS6_PT_DpOT0_ = comdat any

$_ZNSt6vectorINSt7__cxx1112basic_stringIcSt11char_traitsIcESaIcEEESaIS5_EE17_M_realloc_insertIJRA2_KcEEEvN9__gnu_cxx17__normal_iteratorIPS5_S7_EEDpOT_ = comdat any

$_ZNSt6vectorINSt7__cxx1112basic_stringIcSt11char_traitsIcESaIcEEESaIS5_EE4backEv = comdat any

$_ZNSt15__new_allocatorINSt7__cxx1112basic_stringIcSt11char_traitsIcESaIcEEEE9constructIS5_JRA2_KcEEEvPT_DpOT0_ = comdat any

$_ZNKSt6vectorINSt7__cxx1112basic_stringIcSt11char_traitsIcESaIcEEESaIS5_EE12_M_check_lenEmPKc = comdat any

$_ZN9__gnu_cxxmiIPNSt7__cxx1112basic_stringIcSt11char_traitsIcESaIcEEESt6vectorIS6_SaIS6_EEEENS_17__normal_iteratorIT_T0_E15difference_typeERKSE_SH_ = comdat any

$_ZNSt6vectorINSt7__cxx1112basic_stringIcSt11char_traitsIcESaIcEEESaIS5_EE11_S_relocateEPS5_S8_S8_RS6_ = comdat any

$_ZNSt16allocator_traitsISaINSt7__cxx1112basic_stringIcSt11char_traitsIcESaIcEEEEE7destroyIS5_EEvRS6_PT_ = comdat any

$_ZNKSt6vectorINSt7__cxx1112basic_stringIcSt11char_traitsIcESaIcEEESaIS5_EE8max_sizeEv = comdat any

$_ZSt3maxImERKT_S2_S2_ = comdat any

$_ZNSt6vectorINSt7__cxx1112basic_stringIcSt11char_traitsIcESaIcEEESaIS5_EE11_S_max_sizeERKS6_ = comdat any

$_ZNSt16allocator_traitsISaINSt7__cxx1112basic_stringIcSt11char_traitsIcESaIcEEEEE8max_sizeERKS6_ = comdat any

$_ZNKSt15__new_allocatorINSt7__cxx1112basic_stringIcSt11char_traitsIcESaIcEEEE8max_sizeEv = comdat any

$_ZSt12__relocate_aIPNSt7__cxx1112basic_stringIcSt11char_traitsIcESaIcEEES6_SaIS5_EET0_T_S9_S8_RT1_ = comdat any

$_ZSt14__relocate_a_1IPNSt7__cxx1112basic_stringIcSt11char_traitsIcESaIcEEES6_SaIS5_EET0_T_S9_S8_RT1_ = comdat any

$_ZSt19__relocate_object_aINSt7__cxx1112basic_stringIcSt11char_traitsIcESaIcEEES5_SaIS5_EEvPT_PT0_RT1_ = comdat any

$_ZNSt16allocator_traitsISaINSt7__cxx1112basic_stringIcSt11char_traitsIcESaIcEEEEE9constructIS5_JS5_EEEvRS6_PT_DpOT0_ = comdat any

$_ZNSt15__new_allocatorINSt7__cxx1112basic_stringIcSt11char_traitsIcESaIcEEEE9constructIS5_JS5_EEEvPT_DpOT0_ = comdat any

$_ZNSt15__new_allocatorINSt7__cxx1112basic_stringIcSt11char_traitsIcESaIcEEEE7destroyIS5_EEvPT_ = comdat any

$_ZNK9__gnu_cxx17__normal_iteratorIPNSt7__cxx1112basic_stringIcSt11char_traitsIcESaIcEEESt6vectorIS6_SaIS6_EEEmiEl = comdat any

$_ZNSt16allocator_traitsISaINSt7__cxx1112basic_stringIcSt11char_traitsIcESaIcEEEEE9constructIS5_JRA5_KcEEEvRS6_PT_DpOT0_ = comdat any

$_ZNSt6vectorINSt7__cxx1112basic_stringIcSt11char_traitsIcESaIcEEESaIS5_EE17_M_realloc_insertIJRA5_KcEEEvN9__gnu_cxx17__normal_iteratorIPS5_S7_EEDpOT_ = comdat any

$_ZNSt15__new_allocatorINSt7__cxx1112basic_stringIcSt11char_traitsIcESaIcEEEE9constructIS5_JRA5_KcEEEvPT_DpOT0_ = comdat any

$_ZNSt16allocator_traitsISaINSt7__cxx1112basic_stringIcSt11char_traitsIcESaIcEEEEE9constructIS5_JRA3_KcEEEvRS6_PT_DpOT0_ = comdat any

$_ZNSt6vectorINSt7__cxx1112basic_stringIcSt11char_traitsIcESaIcEEESaIS5_EE17_M_realloc_insertIJRA3_KcEEEvN9__gnu_cxx17__normal_iteratorIPS5_S7_EEDpOT_ = comdat any

$_ZNSt15__new_allocatorINSt7__cxx1112basic_stringIcSt11char_traitsIcESaIcEEEE9constructIS5_JRA3_KcEEEvPT_DpOT0_ = comdat any

$_ZN3fmt2v816make_format_argsINS0_20basic_printf_contextINS0_8appenderEcEEJRKiEEENS0_16format_arg_storeIT_JDpNSt9remove_cvINSt16remove_referenceIT0_E4typeEE4typeEEEEDpOSB_ = comdat any

$_ZNSt16allocator_traitsISaINSt7__cxx1112basic_stringIcSt11char_traitsIcESaIcEEEEE9constructIS5_JRKS5_EEEvRS6_PT_DpOT0_ = comdat any

$_ZNSt6vectorINSt7__cxx1112basic_stringIcSt11char_traitsIcESaIcEEESaIS5_EE17_M_realloc_insertIJRKS5_EEEvN9__gnu_cxx17__normal_iteratorIPS5_S7_EEDpOT_ = comdat any

$_ZNSt15__new_allocatorINSt7__cxx1112basic_stringIcSt11char_traitsIcESaIcEEEE9constructIS5_JRKS5_EEEvPT_DpOT0_ = comdat any

$_ZN3fmt2v816make_format_argsINS0_20basic_printf_contextINS0_8appenderEcEEJRKfEEENS0_16format_arg_storeIT_JDpNSt9remove_cvINSt16remove_referenceIT0_E4typeEE4typeEEEEDpOSB_ = comdat any

$_ZN9__gnu_cxxeqIPKhSt6vectorIhSaIhEEEEbRKNS_17__normal_iteratorIT_T0_EESB_ = comdat any

$_ZNKSt6vectorIhSaIhEE5beginEv = comdat any

$_ZNKSt6vectorIhSaIhEE3endEv = comdat any

$_ZNK9__gnu_cxx17__normal_iteratorIPKhSt6vectorIhSaIhEEE4baseEv = comdat any

$_ZN9__gnu_cxx17__normal_iteratorIPKhSt6vectorIhSaIhEEEC2ERKS2_ = comdat any

$_ZNKSt6vectorIhSaIhEE4sizeEv = comdat any

$_ZNSt6vectorIhSaIhEE17_M_default_appendEm = comdat any

$_ZNKSt6vectorIhSaIhEE8max_sizeEv = comdat any

$_ZSt27__uninitialized_default_n_aIPhmhET_S1_T0_RSaIT1_E = comdat any

$_ZNKSt6vectorIhSaIhEE12_M_check_lenEmPKc = comdat any

$_ZNSt12_Vector_baseIhSaIhEE11_M_allocateEm = comdat any

$_ZNSt6vectorIhSaIhEE11_S_relocateEPhS2_S2_RS0_ = comdat any

$_ZNSt6vectorIhSaIhEE11_S_max_sizeERKS0_ = comdat any

$_ZNKSt12_Vector_baseIhSaIhEE19_M_get_Tp_allocatorEv = comdat any

$_ZNSt16allocator_traitsISaIhEE8max_sizeERKS0_ = comdat any

$_ZNKSt15__new_allocatorIhE8max_sizeEv = comdat any

$_ZNKSt15__new_allocatorIhE11_M_max_sizeEv = comdat any

$_ZSt25__uninitialized_default_nIPhmET_S1_T0_ = comdat any

$_ZNSt27__uninitialized_default_n_1ILb1EE18__uninit_default_nIPhmEET_S3_T0_ = comdat any

$_ZSt10_ConstructIhJEEvPT_DpOT0_ = comdat any

$_ZSt6fill_nIPhmhET_S1_T0_RKT1_ = comdat any

$_ZSt10__fill_n_aIPhmhET_S1_T0_RKT1_St26random_access_iterator_tag = comdat any

$_ZSt17__size_to_integerm = comdat any

$_ZSt19__iterator_categoryIPhENSt15iterator_traitsIT_E17iterator_categoryERKS2_ = comdat any

$_ZSt8__fill_aIPhhEvT_S1_RKT0_ = comdat any

$_ZSt9__fill_a1IhEN9__gnu_cxx11__enable_ifIXsr9__is_byteIT_EE7__valueEvE6__typeEPS2_S5_RKS2_ = comdat any

$_ZNSt16allocator_traitsISaIhEE8allocateERS0_m = comdat any

$_ZNSt15__new_allocatorIhE8allocateEmPKv = comdat any

$_ZSt12__relocate_aIPhS0_SaIhEET0_T_S3_S2_RT1_ = comdat any

$_ZSt14__relocate_a_1IhhENSt9enable_ifIXsr3std24__is_bitwise_relocatableIT_EE5valueEPS1_E4typeES2_S2_S2_RSaIT0_E = comdat any

$_ZSt12__niter_baseIPhET_S1_ = comdat any

$_ZNKSt6vectorIhSaIhEE11_M_data_ptrIhEEPT_S4_ = comdat any

$_ZN18OpenImageIO_v2_6_011TypeKeyCodeE = comdat any

$_ZN18OpenImageIO_v2_6_012TypeTimeCodeE = comdat any

$_ZTVN3fmt2v812format_errorE = comdat any

$_ZTSN3fmt2v812format_errorE = comdat any

$_ZTIN3fmt2v812format_errorE = comdat any

$_ZTVN3fmt2v819basic_memory_bufferIcLm500ESaIcEEE = comdat any

$_ZTSN3fmt2v819basic_memory_bufferIcLm500ESaIcEEE = comdat any

$_ZTSN3fmt2v86detail6bufferIcEE = comdat any

$_ZTIN3fmt2v86detail6bufferIcEE = comdat any

$_ZTIN3fmt2v819basic_memory_bufferIcLm500ESaIcEEE = comdat any

$_ZTVN3fmt2v86detail6bufferIcEE = comdat any

$_ZZN3fmt2v86detail15do_count_digitsEmE9bsr2log10 = comdat any

$_ZZN3fmt2v86detail15do_count_digitsEmE20zero_or_powers_of_10 = comdat any

$_ZTVN3fmt2v819basic_memory_bufferIiLm500ESaIiEEE = comdat any

$_ZTSN3fmt2v819basic_memory_bufferIiLm500ESaIiEEE = comdat any

$_ZTSN3fmt2v86detail6bufferIiEE = comdat any

$_ZTIN3fmt2v86detail6bufferIiEE = comdat any

$_ZTIN3fmt2v819basic_memory_bufferIiLm500ESaIiEEE = comdat any

$_ZTVN3fmt2v86detail6bufferIiEE = comdat any

$_ZZN3fmt2v86detail15do_count_digitsEjE5table = comdat any

$_ZZN3fmt2v86detail9dragonbox14cache_accessorIfE16get_cached_powerEiE18pow10_significands = comdat any

$_ZZN3fmt2v86detail9dragonbox23divisible_by_power_of_5EjiE13divtest_table = comdat any

$_ZZN3fmt2v86detail9dragonbox37check_divisibility_and_divide_by_pow5ILi1EEEbRjE5infos = comdat any

$_ZZN3fmt2v86detail9dragonbox23small_division_by_pow10ILi1EEEjjE5infos = comdat any

$_ZZN3fmt2v86detail9dragonbox14cache_accessorIdE16get_cached_powerEiE18pow10_significands = comdat any

$_ZZN3fmt2v86detail9dragonbox14cache_accessorIdE16get_cached_powerEiE14powers_of_5_64 = comdat any

$_ZZN3fmt2v86detail9dragonbox14cache_accessorIdE16get_cached_powerEiE21pow10_recovery_errors = comdat any

$_ZZN3fmt2v86detail9dragonbox14cache_accessorIdE16get_cached_powerEiE17compression_ratio = comdat any

$_ZZN3fmt2v86detail9dragonbox23divisible_by_power_of_5EmiE13divtest_table = comdat any

$_ZZN3fmt2v86detail9dragonbox37check_divisibility_and_divide_by_pow5ILi2EEEbRjE5infos = comdat any

$_ZZN3fmt2v86detail9dragonbox23small_division_by_pow10ILi2EEEjjE5infos = comdat any

$_ZN3fmt2v86detail15basic_impl_dataIvE18pow10_significandsE = comdat any

$_ZN3fmt2v86detail15basic_impl_dataIvE15pow10_exponentsE = comdat any

$_ZN3fmt2v86detail15basic_impl_dataIvE14power_of_10_64E = comdat any

$_ZTVN3fmt2v819basic_memory_bufferIjLm32ESaIjEEE = comdat any

$_ZTSN3fmt2v819basic_memory_bufferIjLm32ESaIjEEE = comdat any

$_ZTSN3fmt2v86detail6bufferIjEE = comdat any

$_ZTIN3fmt2v86detail6bufferIjEE = comdat any

$_ZTIN3fmt2v819basic_memory_bufferIjLm32ESaIjEEE = comdat any

$_ZTVN3fmt2v86detail6bufferIjEE = comdat any

@_ZStL8__ioinit = internal global %"class.std::ios_base::Init" zeroinitializer, align 1
@__dso_handle = external hidden global i8
@_ZN18OpenImageIO_v2_6_019dpx_imageio_versionE = global i32 25, align 4
@.str = private unnamed_addr constant [4 x i8] c"dpx\00", align 1
@_ZN18OpenImageIO_v2_6_020dpx_input_extensionsE = global [2 x ptr] [ptr @.str, ptr null], align 16
@.str.1 = private unnamed_addr constant [25 x i8] c"Could not open file \22%s\22\00", align 1
@.str.2 = private unnamed_addr constant [22 x i8] c"Could not read header\00", align 1
@.str.3 = private unnamed_addr constant [13 x i8] c"dpx:RawColor\00", align 1
@.str.4 = private unnamed_addr constant [12 x i8] c"dpx:RawData\00", align 1
@.str.5 = private unnamed_addr constant [14 x i8] c"oiio:RawColor\00", align 1
@.str.6 = private unnamed_addr constant [28 x i8] c"Invalid component data size\00", align 1
@.str.7 = private unnamed_addr constant [2 x i8] c"R\00", align 1
@.str.8 = private unnamed_addr constant [2 x i8] c"G\00", align 1
@.str.9 = private unnamed_addr constant [2 x i8] c"B\00", align 1
@.str.10 = private unnamed_addr constant [2 x i8] c"A\00", align 1
@.str.11 = private unnamed_addr constant [2 x i8] c"Y\00", align 1
@.str.12 = private unnamed_addr constant [2 x i8] c"Z\00", align 1
@.str.13 = private unnamed_addr constant [5 x i8] c"CbCr\00", align 1
@.str.14 = private unnamed_addr constant [3 x i8] c"Cb\00", align 1
@.str.15 = private unnamed_addr constant [3 x i8] c"Cr\00", align 1
@.str.16 = private unnamed_addr constant [10 x i8] c"channel%d\00", align 1
@.str.17 = private unnamed_addr constant [19 x i8] c"oiio:BitsPerSample\00", align 1
@.str.18 = private unnamed_addr constant [12 x i8] c"Orientation\00", align 1
@.str.19 = private unnamed_addr constant [16 x i8] c"oiio:ColorSpace\00", align 1
@.str.20 = private unnamed_addr constant [7 x i8] c"Linear\00", align 1
@.str.21 = private unnamed_addr constant [9 x i8] c"KodakLog\00", align 1
@.str.22 = private unnamed_addr constant [7 x i8] c"Rec709\00", align 1
@.str.23 = private unnamed_addr constant [10 x i8] c"Gamma%.2g\00", align 1
@.str.24 = private unnamed_addr constant [11 x i8] c"oiio:Gamma\00", align 1
@.str.25 = private unnamed_addr constant [13 x i8] c"dpx:Transfer\00", align 1
@.str.26 = private unnamed_addr constant [17 x i8] c"dpx:Colorimetric\00", align 1
@.str.27 = private unnamed_addr constant [10 x i8] c"Copyright\00", align 1
@.str.28 = private unnamed_addr constant [9 x i8] c"Software\00", align 1
@.str.29 = private unnamed_addr constant [13 x i8] c"DocumentName\00", align 1
@.str.30 = private unnamed_addr constant [9 x i8] c"DateTime\00", align 1
@.str.31 = private unnamed_addr constant [12 x i8] c"compression\00", align 1
@.str.32 = private unnamed_addr constant [4 x i8] c"rle\00", align 1
@.str.33 = private unnamed_addr constant [17 x i8] c"ImageDescription\00", align 1
@.str.34 = private unnamed_addr constant [17 x i8] c"PixelAspectRatio\00", align 1
@.str.35 = private unnamed_addr constant [20 x i8] c"dpx:ImageDescriptor\00", align 1
@.str.36 = private unnamed_addr constant [15 x i8] c"dpx:EncryptKey\00", align 1
@.str.37 = private unnamed_addr constant [13 x i8] c"dpx:DittoKey\00", align 1
@.str.38 = private unnamed_addr constant [12 x i8] c"dpx:LowData\00", align 1
@.str.39 = private unnamed_addr constant [16 x i8] c"dpx:LowQuantity\00", align 1
@.str.40 = private unnamed_addr constant [13 x i8] c"dpx:HighData\00", align 1
@.str.41 = private unnamed_addr constant [17 x i8] c"dpx:HighQuantity\00", align 1
@.str.42 = private unnamed_addr constant [21 x i8] c"dpx:EndOfLinePadding\00", align 1
@.str.43 = private unnamed_addr constant [22 x i8] c"dpx:EndOfImagePadding\00", align 1
@.str.44 = private unnamed_addr constant [17 x i8] c"dpx:XScannedSize\00", align 1
@.str.45 = private unnamed_addr constant [17 x i8] c"dpx:YScannedSize\00", align 1
@.str.46 = private unnamed_addr constant [18 x i8] c"dpx:FramePosition\00", align 1
@.str.47 = private unnamed_addr constant [19 x i8] c"dpx:SequenceLength\00", align 1
@.str.48 = private unnamed_addr constant [14 x i8] c"dpx:HeldCount\00", align 1
@.str.49 = private unnamed_addr constant [14 x i8] c"dpx:FrameRate\00", align 1
@.str.50 = private unnamed_addr constant [17 x i8] c"dpx:ShutterAngle\00", align 1
@.str.51 = private unnamed_addr constant [12 x i8] c"dpx:Version\00", align 1
@.str.52 = private unnamed_addr constant [11 x i8] c"dpx:Format\00", align 1
@.str.53 = private unnamed_addr constant [12 x i8] c"dpx:FrameId\00", align 1
@.str.54 = private unnamed_addr constant [14 x i8] c"dpx:SlateInfo\00", align 1
@.str.55 = private unnamed_addr constant [24 x i8] c"dpx:SourceImageFileName\00", align 1
@.str.56 = private unnamed_addr constant [16 x i8] c"dpx:InputDevice\00", align 1
@.str.57 = private unnamed_addr constant [28 x i8] c"dpx:InputDeviceSerialNumber\00", align 1
@.str.58 = private unnamed_addr constant [14 x i8] c"dpx:Interlace\00", align 1
@.str.59 = private unnamed_addr constant [16 x i8] c"dpx:FieldNumber\00", align 1
@.str.60 = private unnamed_addr constant [25 x i8] c"dpx:HorizontalSampleRate\00", align 1
@.str.61 = private unnamed_addr constant [23 x i8] c"dpx:VerticalSampleRate\00", align 1
@.str.62 = private unnamed_addr constant [22 x i8] c"dpx:TemporalFrameRate\00", align 1
@.str.63 = private unnamed_addr constant [15 x i8] c"dpx:TimeOffset\00", align 1
@.str.64 = private unnamed_addr constant [15 x i8] c"dpx:BlackLevel\00", align 1
@.str.65 = private unnamed_addr constant [14 x i8] c"dpx:BlackGain\00", align 1
@.str.66 = private unnamed_addr constant [15 x i8] c"dpx:BreakPoint\00", align 1
@.str.67 = private unnamed_addr constant [15 x i8] c"dpx:WhiteLevel\00", align 1
@.str.68 = private unnamed_addr constant [21 x i8] c"dpx:IntegrationTimes\00", align 1
@.str.69 = private unnamed_addr constant [7 x i8] c"Packed\00", align 1
@.str.70 = private unnamed_addr constant [17 x i8] c"Filled, method A\00", align 1
@.str.71 = private unnamed_addr constant [17 x i8] c"Filled, method B\00", align 1
@.str.72 = private unnamed_addr constant [12 x i8] c"dpx:Packing\00", align 1
@.str.73 = private unnamed_addr constant [14 x i8] c"smpte:KeyCode\00", align 1
@_ZN18OpenImageIO_v2_6_011TypeKeyCodeE = linkonce_odr hidden constant %"struct.OpenImageIO_v2_6_0::TypeDesc" { i8 7, i8 1, i8 6, i8 0, i32 7 }, comdat, align 4
@.str.74 = private unnamed_addr constant [15 x i8] c"smpte:TimeCode\00", align 1
@_ZN18OpenImageIO_v2_6_012TypeTimeCodeE = linkonce_odr hidden constant %"struct.OpenImageIO_v2_6_0::TypeDesc" { i8 6, i8 1, i8 5, i8 0, i32 2 }, comdat, align 4
@.str.75 = private unnamed_addr constant [13 x i8] c"dpx:TimeCode\00", align 1
@.str.76 = private unnamed_addr constant [13 x i8] c"dpx:UserBits\00", align 1
@.str.77 = private unnamed_addr constant [19 x i8] c"dpx:SourceDateTime\00", align 1
@.str.78 = private unnamed_addr constant [17 x i8] c"dpx:FilmEdgeCode\00", align 1
@.str.79 = private unnamed_addr constant [10 x i8] c"Undefined\00", align 1
@.str.80 = private unnamed_addr constant [5 x i8] c"NTSC\00", align 1
@.str.81 = private unnamed_addr constant [4 x i8] c"PAL\00", align 1
@.str.82 = private unnamed_addr constant [6 x i8] c"PAL-M\00", align 1
@.str.83 = private unnamed_addr constant [6 x i8] c"SECAM\00", align 1
@.str.84 = private unnamed_addr constant [28 x i8] c"YCbCr ITU-R 601-5 525i, 4:3\00", align 1
@.str.85 = private unnamed_addr constant [28 x i8] c"YCbCr ITU-R 601-5 625i, 4:3\00", align 1
@.str.86 = private unnamed_addr constant [29 x i8] c"YCbCr ITU-R 601-5 525i, 16:9\00", align 1
@.str.87 = private unnamed_addr constant [29 x i8] c"YCbCr ITU-R 601-5 625i, 16:9\00", align 1
@.str.88 = private unnamed_addr constant [18 x i8] c"YCbCr 1050i, 16:9\00", align 1
@.str.89 = private unnamed_addr constant [31 x i8] c"YCbCr 1125i, 16:9 (SMPTE 274M)\00", align 1
@.str.90 = private unnamed_addr constant [18 x i8] c"YCbCr 1250i, 16:9\00", align 1
@.str.91 = private unnamed_addr constant [31 x i8] c"YCbCr 1125i, 16:9 (SMPTE 240M)\00", align 1
@.str.92 = private unnamed_addr constant [17 x i8] c"YCbCr 525p, 16:9\00", align 1
@.str.93 = private unnamed_addr constant [17 x i8] c"YCbCr 625p, 16:9\00", align 1
@.str.94 = private unnamed_addr constant [30 x i8] c"YCbCr 750p, 16:9 (SMPTE 296M)\00", align 1
@.str.95 = private unnamed_addr constant [31 x i8] c"YCbCr 1125p, 16:9 (SMPTE 274M)\00", align 1
@.str.96 = private unnamed_addr constant [13 x i8] c"Undefined %d\00", align 1
@.str.97 = private unnamed_addr constant [11 x i8] c"dpx:Signal\00", align 1
@.str.98 = private unnamed_addr constant [13 x i8] c"dpx:UserData\00", align 1
@.str.99 = private unnamed_addr constant [13 x i8] c"User defined\00", align 1
@.str.100 = private unnamed_addr constant [17 x i8] c"Printing density\00", align 1
@.str.101 = private unnamed_addr constant [12 x i8] c"Logarithmic\00", align 1
@.str.102 = private unnamed_addr constant [18 x i8] c"Unspecified video\00", align 1
@.str.103 = private unnamed_addr constant [11 x i8] c"SMPTE 274M\00", align 1
@.str.104 = private unnamed_addr constant [12 x i8] c"ITU-R 709-4\00", align 1
@.str.105 = private unnamed_addr constant [26 x i8] c"ITU-R 601-5 system B or G\00", align 1
@.str.106 = private unnamed_addr constant [21 x i8] c"ITU-R 601-5 system M\00", align 1
@.str.107 = private unnamed_addr constant [21 x i8] c"NTSC composite video\00", align 1
@.str.108 = private unnamed_addr constant [20 x i8] c"PAL composite video\00", align 1
@.str.109 = private unnamed_addr constant [15 x i8] c"Z depth linear\00", align 1
@.str.110 = private unnamed_addr constant [20 x i8] c"Z depth homogeneous\00", align 1
@.str.111 = private unnamed_addr constant [4 x i8] c"ADX\00", align 1
@.str.112 = private unnamed_addr constant [4 x i8] c"Red\00", align 1
@.str.113 = private unnamed_addr constant [6 x i8] c"Green\00", align 1
@.str.114 = private unnamed_addr constant [5 x i8] c"Blue\00", align 1
@.str.115 = private unnamed_addr constant [6 x i8] c"Alpha\00", align 1
@.str.116 = private unnamed_addr constant [5 x i8] c"Luma\00", align 1
@.str.117 = private unnamed_addr constant [17 x i8] c"Color difference\00", align 1
@.str.118 = private unnamed_addr constant [6 x i8] c"Depth\00", align 1
@.str.119 = private unnamed_addr constant [16 x i8] c"Composite video\00", align 1
@.str.120 = private unnamed_addr constant [4 x i8] c"RGB\00", align 1
@.str.121 = private unnamed_addr constant [5 x i8] c"RGBA\00", align 1
@.str.122 = private unnamed_addr constant [5 x i8] c"ABGR\00", align 1
@.str.123 = private unnamed_addr constant [7 x i8] c"CbYCrY\00", align 1
@.str.124 = private unnamed_addr constant [9 x i8] c"CbYACrYA\00", align 1
@.str.125 = private unnamed_addr constant [6 x i8] c"CbYCr\00", align 1
@.str.126 = private unnamed_addr constant [7 x i8] c"CbYCrA\00", align 1
@.str.127 = private unnamed_addr constant [1 x i8] zeroinitializer, align 1
@.str.128 = private unnamed_addr constant [7 x i8] c"8kimax\00", align 1
@.str.129 = private unnamed_addr constant [5 x i8] c"2kvv\00", align 1
@.str.130 = private unnamed_addr constant [5 x i8] c"4kvv\00", align 1
@.str.131 = private unnamed_addr constant [12 x i8] c"VistaVision\00", align 1
@.str.132 = private unnamed_addr constant [5 x i8] c"2k35\00", align 1
@.str.133 = private unnamed_addr constant [5 x i8] c"4k35\00", align 1
@.str.134 = private unnamed_addr constant [14 x i8] c"Full Aperture\00", align 1
@.str.135 = private unnamed_addr constant [8 x i8] c"Academy\00", align 1
@.str.136 = private unnamed_addr constant [8 x i8] c"2k3perf\00", align 1
@.str.137 = private unnamed_addr constant [8 x i8] c"4k3perf\00", align 1
@.str.138 = private unnamed_addr constant [6 x i8] c"3perf\00", align 1
@_ZTVN3fmt2v812format_errorE = linkonce_odr hidden unnamed_addr constant { [5 x ptr] } { [5 x ptr] [ptr null, ptr @_ZTIN3fmt2v812format_errorE, ptr @_ZN3fmt2v812format_errorD2Ev, ptr @_ZN3fmt2v812format_errorD0Ev, ptr @_ZNKSt13runtime_error4whatEv] }, comdat, align 8
@_ZTVN10__cxxabiv120__si_class_type_infoE = external global [0 x ptr]
@_ZTSN3fmt2v812format_errorE = linkonce_odr hidden constant [24 x i8] c"N3fmt2v812format_errorE\00", comdat, align 1
@_ZTISt13runtime_error = external constant ptr
@_ZTIN3fmt2v812format_errorE = linkonce_odr hidden constant { ptr, ptr, ptr } { ptr getelementptr inbounds (ptr, ptr @_ZTVN10__cxxabiv120__si_class_type_infoE, i64 2), ptr @_ZTSN3fmt2v812format_errorE, ptr @_ZTISt13runtime_error }, comdat, align 8
@_ZTVN18OpenImageIO_v2_6_08DPXInputE = hidden unnamed_addr constant { [36 x ptr] } { [36 x ptr] [ptr null, ptr @_ZTIN18OpenImageIO_v2_6_08DPXInputE, ptr @_ZN18OpenImageIO_v2_6_08DPXInputD2Ev, ptr @_ZN18OpenImageIO_v2_6_08DPXInputD0Ev, ptr @_ZNK18OpenImageIO_v2_6_08DPXInput11format_nameEv, ptr @_ZNK18OpenImageIO_v2_6_08DPXInput8supportsENS_17basic_string_viewIcSt11char_traitsIcEEE, ptr @_ZNK18OpenImageIO_v2_6_010ImageInput10valid_fileERKNSt7__cxx1112basic_stringIcSt11char_traitsIcESaIcEEE, ptr @_ZNK18OpenImageIO_v2_6_08DPXInput10valid_fileEPNS_10Filesystem7IOProxyE, ptr @_ZN18OpenImageIO_v2_6_08DPXInput4openERKNSt7__cxx1112basic_stringIcSt11char_traitsIcESaIcEEERNS_9ImageSpecE, ptr @_ZN18OpenImageIO_v2_6_08DPXInput4openERKNSt7__cxx1112basic_stringIcSt11char_traitsIcESaIcEEERNS_9ImageSpecERKS9_, ptr @_ZNK18OpenImageIO_v2_6_010ImageInput4specEv, ptr @_ZN18OpenImageIO_v2_6_010ImageInput4specEii, ptr @_ZN18OpenImageIO_v2_6_010ImageInput15spec_dimensionsEii, ptr @_ZN18OpenImageIO_v2_6_010ImageInput13get_thumbnailERNS_8ImageBufEi, ptr @_ZN18OpenImageIO_v2_6_08DPXInput5closeEv, ptr @_ZNK18OpenImageIO_v2_6_08DPXInput16current_subimageEv, ptr @_ZNK18OpenImageIO_v2_6_010ImageInput16current_miplevelEv, ptr @_ZN18OpenImageIO_v2_6_08DPXInput13seek_subimageEii, ptr @_ZN18OpenImageIO_v2_6_010ImageInput13read_scanlineEiiNS_8TypeDescEPvl, ptr @_ZN18OpenImageIO_v2_6_010ImageInput14read_scanlinesEiiiiiiiNS_8TypeDescEPvll, ptr @_ZN18OpenImageIO_v2_6_010ImageInput9read_tileEiiiNS_8TypeDescEPvlll, ptr @_ZN18OpenImageIO_v2_6_010ImageInput10read_tilesEiiiiiiiiiiNS_8TypeDescEPvlll, ptr @_ZN18OpenImageIO_v2_6_010ImageInput10read_imageEiiiiNS_8TypeDescEPvlllPFbS2_fES2_, ptr @_ZN18OpenImageIO_v2_6_010ImageInput10read_imageENS_8TypeDescEPvlllPFbS2_fES2_, ptr @_ZN18OpenImageIO_v2_6_010ImageInput10read_imageEiiNS_8TypeDescEPvlllPFbS2_fES2_, ptr @_ZN18OpenImageIO_v2_6_010ImageInput26read_native_deep_scanlinesEiiiiiiiRNS_8DeepDataE, ptr @_ZN18OpenImageIO_v2_6_010ImageInput22read_native_deep_tilesEiiiiiiiiiiRNS_8DeepDataE, ptr @_ZN18OpenImageIO_v2_6_010ImageInput22read_native_deep_imageEiiRNS_8DeepDataE, ptr @_ZN18OpenImageIO_v2_6_08DPXInput20read_native_scanlineEiiiiPv, ptr @_ZN18OpenImageIO_v2_6_08DPXInput21read_native_scanlinesEiiiiiPv, ptr @_ZN18OpenImageIO_v2_6_010ImageInput21read_native_scanlinesEiiiiiiiPv, ptr @_ZN18OpenImageIO_v2_6_010ImageInput16read_native_tileEiiiiiPv, ptr @_ZN18OpenImageIO_v2_6_010ImageInput17read_native_tilesEiiiiiiiiPv, ptr @_ZN18OpenImageIO_v2_6_010ImageInput17read_native_tilesEiiiiiiiiiiPv, ptr @_ZN18OpenImageIO_v2_6_010ImageInput13send_to_inputEPKcz, ptr @_ZN18OpenImageIO_v2_6_010ImageInput11set_ioproxyEPNS_10Filesystem7IOProxyE] }, align 8
@_ZTSN18OpenImageIO_v2_6_08DPXInputE = hidden constant [32 x i8] c"N18OpenImageIO_v2_6_08DPXInputE\00", align 1
@_ZTIN18OpenImageIO_v2_6_010ImageInputE = external constant ptr
@_ZTIN18OpenImageIO_v2_6_08DPXInputE = hidden constant { ptr, ptr, ptr } { ptr getelementptr inbounds (ptr, ptr @_ZTVN10__cxxabiv120__si_class_type_infoE, i64 2), ptr @_ZTSN18OpenImageIO_v2_6_08DPXInputE, ptr @_ZTIN18OpenImageIO_v2_6_010ImageInputE }, align 8
@_ZTV8InStream = external unnamed_addr constant { [11 x ptr] }, align 8
@.str.139 = private unnamed_addr constant [8 x i8] c"ioproxy\00", align 1
@.str.140 = private unnamed_addr constant [50 x i8] c"basic_string: construction from null is not valid\00", align 1
@_ZTVN3fmt2v819basic_memory_bufferIcLm500ESaIcEEE = linkonce_odr hidden unnamed_addr constant { [3 x ptr] } { [3 x ptr] [ptr null, ptr @_ZTIN3fmt2v819basic_memory_bufferIcLm500ESaIcEEE, ptr @_ZN3fmt2v819basic_memory_bufferIcLm500ESaIcEE4growEm] }, comdat, align 8
@_ZTSN3fmt2v819basic_memory_bufferIcLm500ESaIcEEE = linkonce_odr hidden constant [45 x i8] c"N3fmt2v819basic_memory_bufferIcLm500ESaIcEEE\00", comdat, align 1
@_ZTVN10__cxxabiv117__class_type_infoE = external global [0 x ptr]
@_ZTSN3fmt2v86detail6bufferIcEE = linkonce_odr hidden constant [27 x i8] c"N3fmt2v86detail6bufferIcEE\00", comdat, align 1
@_ZTIN3fmt2v86detail6bufferIcEE = linkonce_odr hidden constant { ptr, ptr } { ptr getelementptr inbounds (ptr, ptr @_ZTVN10__cxxabiv117__class_type_infoE, i64 2), ptr @_ZTSN3fmt2v86detail6bufferIcEE }, comdat, align 8
@_ZTIN3fmt2v819basic_memory_bufferIcLm500ESaIcEEE = linkonce_odr hidden constant { ptr, ptr, ptr } { ptr getelementptr inbounds (ptr, ptr @_ZTVN10__cxxabiv120__si_class_type_infoE, i64 2), ptr @_ZTSN3fmt2v819basic_memory_bufferIcLm500ESaIcEEE, ptr @_ZTIN3fmt2v86detail6bufferIcEE }, comdat, align 8
@_ZTVN3fmt2v86detail6bufferIcEE = linkonce_odr hidden unnamed_addr constant { [3 x ptr] } { [3 x ptr] [ptr null, ptr @_ZTIN3fmt2v86detail6bufferIcEE, ptr @__cxa_pure_virtual] }, comdat, align 8
@.str.141 = private unnamed_addr constant [19 x i8] c"argument not found\00", align 1
@.str.142 = private unnamed_addr constant [22 x i8] c"invalid format string\00", align 1
@.str.143 = private unnamed_addr constant [23 x i8] c"invalid type specifier\00", align 1
@.str.144 = private unnamed_addr constant [15 x i8] c"negative value\00", align 1
@.str.145 = private unnamed_addr constant [18 x i8] c"number is too big\00", align 1
@.str.146 = private unnamed_addr constant [21 x i8] c"width is not integer\00", align 1
@.str.147 = private unnamed_addr constant [25 x i8] c"precision is not integer\00", align 1
@.str.148 = private unnamed_addr constant [57 x i8] c"cannot switch from manual to automatic argument indexing\00", align 1
@.str.149 = private unnamed_addr constant [57 x i8] c"cannot switch from automatic to manual argument indexing\00", align 1
@_ZZN3fmt2v86detail15do_count_digitsEmE9bsr2log10 = linkonce_odr hidden constant [64 x i8] c"\01\01\01\02\02\02\03\03\03\04\04\04\04\05\05\05\06\06\06\07\07\07\07\08\08\08\09\09\09\0A\0A\0A\0A\0B\0B\0B\0C\0C\0C\0D\0D\0D\0D\0E\0E\0E\0F\0F\0F\10\10\10\10\11\11\11\12\12\12\13\13\13\13\14", comdat, align 16
@_ZZN3fmt2v86detail15do_count_digitsEmE20zero_or_powers_of_10 = linkonce_odr hidden constant [21 x i64] [i64 0, i64 0, i64 10, i64 100, i64 1000, i64 10000, i64 100000, i64 1000000, i64 10000000, i64 100000000, i64 1000000000, i64 10000000000, i64 100000000000, i64 1000000000000, i64 10000000000000, i64 100000000000000, i64 1000000000000000, i64 10000000000000000, i64 100000000000000000, i64 1000000000000000000, i64 -8446744073709551616], comdat, align 16
@.str.150 = private unnamed_addr constant [20 x i8] c"invalid digit count\00", align 1
@.str.151 = private unnamed_addr constant [201 x i8] c"00010203040506070809101112131415161718192021222324252627282930313233343536373839404142434445464748495051525354555657585960616263646566676869707172737475767778798081828384858687888990919293949596979899\00", align 1
@.str.152 = private unnamed_addr constant [5 x i8] c"\00\1F\00\01\00", align 1
@_ZTVN3fmt2v819basic_memory_bufferIiLm500ESaIiEEE = linkonce_odr hidden unnamed_addr constant { [3 x ptr] } { [3 x ptr] [ptr null, ptr @_ZTIN3fmt2v819basic_memory_bufferIiLm500ESaIiEEE, ptr @_ZN3fmt2v819basic_memory_bufferIiLm500ESaIiEE4growEm] }, comdat, align 8
@_ZTSN3fmt2v819basic_memory_bufferIiLm500ESaIiEEE = linkonce_odr hidden constant [45 x i8] c"N3fmt2v819basic_memory_bufferIiLm500ESaIiEEE\00", comdat, align 1
@_ZTSN3fmt2v86detail6bufferIiEE = linkonce_odr hidden constant [27 x i8] c"N3fmt2v86detail6bufferIiEE\00", comdat, align 1
@_ZTIN3fmt2v86detail6bufferIiEE = linkonce_odr hidden constant { ptr, ptr } { ptr getelementptr inbounds (ptr, ptr @_ZTVN10__cxxabiv117__class_type_infoE, i64 2), ptr @_ZTSN3fmt2v86detail6bufferIiEE }, comdat, align 8
@_ZTIN3fmt2v819basic_memory_bufferIiLm500ESaIiEEE = linkonce_odr hidden constant { ptr, ptr, ptr } { ptr getelementptr inbounds (ptr, ptr @_ZTVN10__cxxabiv120__si_class_type_infoE, i64 2), ptr @_ZTSN3fmt2v819basic_memory_bufferIiLm500ESaIiEEE, ptr @_ZTIN3fmt2v86detail6bufferIiEE }, comdat, align 8
@_ZTVN3fmt2v86detail6bufferIiEE = linkonce_odr hidden unnamed_addr constant { [3 x ptr] } { [3 x ptr] [ptr null, ptr @_ZTIN3fmt2v86detail6bufferIiEE, ptr @__cxa_pure_virtual] }, comdat, align 8
@_ZZN3fmt2v86detail15do_count_digitsEjE5table = linkonce_odr hidden constant [32 x i64] [i64 4294967296, i64 4294967296, i64 4294967296, i64 8589934582, i64 8589934582, i64 8589934582, i64 12884901788, i64 12884901788, i64 12884901788, i64 17179868184, i64 17179868184, i64 17179868184, i64 21474826480, i64 21474826480, i64 21474826480, i64 25769703776, i64 25769703776, i64 25769703776, i64 30063771072, i64 30063771072, i64 30063771072, i64 34349738368, i64 34349738368, i64 34349738368, i64 38554705664, i64 38554705664, i64 38554705664, i64 41949672960, i64 41949672960, i64 41949672960, i64 41949672960, i64 41949672960], comdat, align 16
@.str.153 = private unnamed_addr constant [17 x i8] c"0123456789ABCDEF\00", align 1
@.str.154 = private unnamed_addr constant [17 x i8] c"0123456789abcdef\00", align 1
@.str.155 = private unnamed_addr constant [5 x i8] c"\1F\1F\00\01\00", align 1
@__const._ZN3fmt2v86detail18make_write_int_argIiEENS1_13write_int_argINSt11conditionalIXaalecl8num_bitsIT_EELi32EntLi0EEjNS4_IXlecl8num_bitsIS5_EELi64EEmoE4typeEE4typeEEES5_NS0_4sign4typeE.prefixes = private unnamed_addr constant [4 x i32] [i32 0, i32 0, i32 16777259, i32 16777248], align 16
@__const._ZN3fmt2v86detail18make_write_int_argIjEENS1_13write_int_argINSt11conditionalIXaalecl8num_bitsIT_EELi32EntLi0EEjNS4_IXlecl8num_bitsIS5_EELi64EEmoE4typeEE4typeEEES5_NS0_4sign4typeE.prefixes = private unnamed_addr constant [4 x i32] [i32 0, i32 0, i32 16777259, i32 16777248], align 16
@__const._ZN3fmt2v86detail18make_write_int_argIxEENS1_13write_int_argINSt11conditionalIXaalecl8num_bitsIT_EELi32EntLi0EEjNS4_IXlecl8num_bitsIS5_EELi64EEmoE4typeEE4typeEEES5_NS0_4sign4typeE.prefixes = private unnamed_addr constant [4 x i32] [i32 0, i32 0, i32 16777259, i32 16777248], align 16
@__const._ZN3fmt2v86detail18make_write_int_argIyEENS1_13write_int_argINSt11conditionalIXaalecl8num_bitsIT_EELi32EntLi0EEjNS4_IXlecl8num_bitsIS5_EELi64EEmoE4typeEE4typeEEES5_NS0_4sign4typeE.prefixes = private unnamed_addr constant [4 x i32] [i32 0, i32 0, i32 16777259, i32 16777248], align 16
@__const._ZN3fmt2v86detail18make_write_int_argInEENS1_13write_int_argINSt11conditionalIXaalecl8num_bitsIT_EELi32EntLi0EEjNS4_IXlecl8num_bitsIS5_EELi64EEmoE4typeEE4typeEEES5_NS0_4sign4typeE.prefixes = private unnamed_addr constant [4 x i32] [i32 0, i32 0, i32 16777259, i32 16777248], align 16
@__const._ZN3fmt2v86detail18make_write_int_argIoEENS1_13write_int_argINSt11conditionalIXaalecl8num_bitsIT_EELi32EntLi0EEjNS4_IXlecl8num_bitsIS5_EELi64EEmoE4typeEE4typeEEES5_NS0_4sign4typeE.prefixes = private unnamed_addr constant [4 x i32] [i32 0, i32 0, i32 16777259, i32 16777248], align 16
@.str.156 = private unnamed_addr constant [5 x i8] c"true\00", align 1
@.str.157 = private unnamed_addr constant [6 x i8] c"false\00", align 1
@.str.158 = private unnamed_addr constant [34 x i8] c"invalid format specifier for char\00", align 1
@.str.159 = private unnamed_addr constant [4 x i8] c"INF\00", align 1
@.str.160 = private unnamed_addr constant [4 x i8] c"inf\00", align 1
@.str.161 = private unnamed_addr constant [4 x i8] c"NAN\00", align 1
@.str.162 = private unnamed_addr constant [4 x i8] c"nan\00", align 1
@.str.163 = private unnamed_addr constant [5 x i8] c"\00-+ \00", align 1
@.str.164 = private unnamed_addr constant [13 x i8] c"empty buffer\00", align 1
@.str.165 = private unnamed_addr constant [18 x i8] c"value is negative\00", align 1
@.str.166 = private unnamed_addr constant [19 x i8] c"too large exponent\00", align 1
@.str.167 = private unnamed_addr constant [18 x i8] c"k is out of range\00", align 1
@_ZZN3fmt2v86detail9dragonbox14cache_accessorIfE16get_cached_powerEiE18pow10_significands = linkonce_odr hidden constant [78 x i64] [i64 -9093133594791772939, i64 -6754730975062328270, i64 -3831727700400522433, i64 -177973607073265138, i64 -7028762532061872567, i64 -4174267146649952805, i64 -606147914885053102, i64 -7296371474444240045, i64 -4508778324627912152, i64 -1024286887357502286, i64 -7557708332239520785, i64 -4835449396872013077, i64 -1432625727662628442, i64 -7812920107430224632, i64 -5154464115860392886, i64 -1831394126398103204, i64 -8062150356639896358, i64 -5466001927372482544, i64 -2220816390788215276, i64 -8305539271883716404, i64 -5770238071427257601, i64 -2601111570856684097, i64 -8543223759426509416, i64 -6067343680855748867, i64 -2972493582642298179, i64 -8775337516792518218, i64 -6357485877563259868, i64 -3335171328526686932, i64 -9002011107970261188, i64 -6640827866535438581, i64 -3689348814741910323, i64 -9223372036854775808, i64 -6917529027641081856, i64 -4035225266123964416, i64 -432345564227567616, i64 -7187745005283311616, i64 -4372995238176751616, i64 -854558029293551616, i64 -7451627795949551616, i64 -4702848726509551616, i64 -1266874889709551616, i64 -7709325833709551616, i64 -5024971273709551616, i64 -1669528073709551616, i64 -7960984073709551616, i64 -5339544073709551616, i64 -2062744073709551616, i64 -8206744073709551616, i64 -5646744073709551616, i64 -2446744073709551616, i64 -8446744073709551616, i64 -5946744073709551616, i64 -2821744073709551616, i64 -8681119073709551616, i64 -6239712823709551616, i64 -3187955011209551616, i64 -8910000909647051616, i64 -6525815118631426616, i64 -3545582879861895366, i64 -9133518327554766460, i64 -6805211891016070171, i64 -3894828845342699810, i64 -256850038250986858, i64 -7078060301547948643, i64 -4235889358507547899, i64 -683175679707046970, i64 -7344513827457986212, i64 -4568956265895094861, i64 -1099509313941480672, i64 -7604722348854507276, i64 -4894216917640746191, i64 -1506085128623544835, i64 -7858832233030797378, i64 -5211854272861108819, i64 -1903131822648998119, i64 -8106986416796705681, i64 -5522047002568494197, i64 -2290872734783229842], comdat, align 16
@_ZZN3fmt2v86detail9dragonbox23divisible_by_power_of_5EjiE13divtest_table = linkonce_odr hidden constant [11 x %"struct.fmt::v8::detail::dragonbox::divtest_table_entry"] [%"struct.fmt::v8::detail::dragonbox::divtest_table_entry" { i32 1, i32 -1 }, %"struct.fmt::v8::detail::dragonbox::divtest_table_entry" { i32 -858993459, i32 858993459 }, %"struct.fmt::v8::detail::dragonbox::divtest_table_entry" { i32 -1030792151, i32 171798691 }, %"struct.fmt::v8::detail::dragonbox::divtest_table_entry" { i32 652835029, i32 34359738 }, %"struct.fmt::v8::detail::dragonbox::divtest_table_entry" { i32 989560465, i32 6871947 }, %"struct.fmt::v8::detail::dragonbox::divtest_table_entry" { i32 197912093, i32 1374389 }, %"struct.fmt::v8::detail::dragonbox::divtest_table_entry" { i32 1757569337, i32 274877 }, %"struct.fmt::v8::detail::dragonbox::divtest_table_entry" { i32 -1366473051, i32 54975 }, %"struct.fmt::v8::detail::dragonbox::divtest_table_entry" { i32 585698849, i32 10995 }, %"struct.fmt::v8::detail::dragonbox::divtest_table_entry" { i32 976133229, i32 2199 }, %"struct.fmt::v8::detail::dragonbox::divtest_table_entry" { i32 1054220105, i32 439 }], comdat, align 16
@_ZZN3fmt2v86detail9dragonbox37check_divisibility_and_divide_by_pow5ILi1EEEbRjE5infos = linkonce_odr hidden constant [2 x %struct.anon] [%struct.anon { i32 52429, i32 16, i32 13107, i32 18 }, %struct.anon { i32 42025, i32 8, i32 10, i32 20 }], comdat, align 16
@__const._ZN3fmt2v86detail9dragonbox37check_divisibility_and_divide_by_pow5ILi1EEEbRj.info = private unnamed_addr constant %struct.anon { i32 52429, i32 16, i32 13107, i32 18 }, align 4
@_ZZN3fmt2v86detail9dragonbox23small_division_by_pow10ILi1EEEjjE5infos = linkonce_odr hidden constant [2 x %struct.anon.104] [%struct.anon.104 { i32 52429, i32 19, i32 100 }, %struct.anon.104 { i32 41944, i32 22, i32 1000 }], comdat, align 16
@__const._ZN3fmt2v86detail9dragonbox23small_division_by_pow10ILi1EEEjj.info = private unnamed_addr constant %struct.anon.104 { i32 52429, i32 19, i32 100 }, align 4
@.str.168 = private unnamed_addr constant [15 x i8] c"n is too large\00", align 1
@_ZZN3fmt2v86detail9dragonbox14cache_accessorIdE16get_cached_powerEiE18pow10_significands = linkonce_odr hidden constant [23 x %"struct.fmt::v8::detail::uint128_wrapper"] [%"struct.fmt::v8::detail::uint128_wrapper" { i128 -707734658592001144036750341951516805 }, %"struct.fmt::v8::detail::uint128_wrapper" { i128 -65976163481254029300577794872407747952 }, %"struct.fmt::v8::detail::uint128_wrapper" { i128 -118699580408893934919714190508319684577 }, %"struct.fmt::v8::detail::uint128_wrapper" { i128 -161289217430469955935757207846300470888 }, %"struct.fmt::v8::detail::uint128_wrapper" { i128 -51103337549216991775785861990014318248 }, %"struct.fmt::v8::detail::uint128_wrapper" { i128 -106685407298682068268946621219913295621 }, %"struct.fmt::v8::detail::uint128_wrapper" { i128 -151584245679861395851296878382354766910 }, %"struct.fmt::v8::detail::uint128_wrapper" { i128 -35424110054142347117515502959779314410 }, %"struct.fmt::v8::detail::uint128_wrapper" { i128 -94019828193472968386630606805870625174 }, %"struct.fmt::v8::detail::uint128_wrapper" { i128 -141353072357023806601221708173039875415 }, %"struct.fmt::v8::detail::uint128_wrapper" { i128 -18894758069140408354982188963535690951 }, %"struct.fmt::v8::detail::uint128_wrapper" { i128 -80667523994197082036849790970763411456 }, %"struct.fmt::v8::detail::uint128_wrapper" { i128 -130567166920938463463374607431768211456 }, %"struct.fmt::v8::detail::uint128_wrapper" { i128 -1469188019218327836045607159911426636 }, %"struct.fmt::v8::detail::uint128_wrapper" { i128 -66591260607497629298583673195456467066 }, %"struct.fmt::v8::detail::uint128_wrapper" { i128 -119196451910520681053483999744077982436 }, %"struct.fmt::v8::detail::uint128_wrapper" { i128 -161690587033082997492158428009058686542 }, %"struct.fmt::v8::detail::uint128_wrapper" { i128 -51751785115134220314658021103742166524 }, %"struct.fmt::v8::detail::uint128_wrapper" { i128 -107209219070932002735531941323551529038 }, %"struct.fmt::v8::detail::uint128_wrapper" { i128 -152007377459775641764878510969853450798 }, %"struct.fmt::v8::detail::uint128_wrapper" { i128 -36107716313712891700963022498151713974 }, %"struct.fmt::v8::detail::uint128_wrapper" { i128 -94572040932278287826051742770785983933 }, %"struct.fmt::v8::detail::uint128_wrapper" { i128 -141799146255016549970100370772718261304 }], comdat, align 16
@_ZZN3fmt2v86detail9dragonbox14cache_accessorIdE16get_cached_powerEiE14powers_of_5_64 = linkonce_odr hidden constant [27 x i64] [i64 1, i64 5, i64 25, i64 125, i64 625, i64 3125, i64 15625, i64 78125, i64 390625, i64 1953125, i64 9765625, i64 48828125, i64 244140625, i64 1220703125, i64 6103515625, i64 30517578125, i64 152587890625, i64 762939453125, i64 3814697265625, i64 19073486328125, i64 95367431640625, i64 476837158203125, i64 2384185791015625, i64 11920928955078125, i64 59604644775390625, i64 298023223876953125, i64 1490116119384765625], comdat, align 16
@_ZZN3fmt2v86detail9dragonbox14cache_accessorIdE16get_cached_powerEiE21pow10_recovery_errors = linkonce_odr hidden constant [39 x i32] [i32 1342182400, i32 1409564928, i32 1409369429, i32 1435845653, i32 1410422101, i32 1, i32 1342177280, i32 1064960, i32 1409351684, i32 83902465, i32 1431655748, i32 1096045909, i32 1409549649, i32 356799813, i32 1364546836, i32 268435477, i32 1052928, i32 17825813, i32 0, i32 0, i32 0, i32 0, i32 71632148, i32 1161904400, i32 1431654725, i32 1347698768, i32 352584021, i32 285557056, i32 1343296788, i32 289739860, i32 4195649, i32 0, i32 1431655504, i32 268789073, i32 268779537, i32 1431638036, i32 1766933845, i32 85266697, i32 1398101], comdat, align 16
@_ZZN3fmt2v86detail9dragonbox14cache_accessorIdE16get_cached_powerEiE17compression_ratio = linkonce_odr hidden constant i32 27, comdat, align 4
@.str.169 = private unnamed_addr constant [24 x i8] c"shifting error detected\00", align 1
@_ZZN3fmt2v86detail9dragonbox23divisible_by_power_of_5EmiE13divtest_table = linkonce_odr hidden constant [24 x %"struct.fmt::v8::detail::dragonbox::divtest_table_entry.105"] [%"struct.fmt::v8::detail::dragonbox::divtest_table_entry.105" { i64 1, i64 -1 }, %"struct.fmt::v8::detail::dragonbox::divtest_table_entry.105" { i64 -3689348814741910323, i64 3689348814741910323 }, %"struct.fmt::v8::detail::dragonbox::divtest_table_entry.105" { i64 -8116567392432202711, i64 737869762948382064 }, %"struct.fmt::v8::detail::dragonbox::divtest_table_entry.105" { i64 2066035336255469781, i64 147573952589676412 }, %"struct.fmt::v8::detail::dragonbox::divtest_table_entry.105" { i64 -3276141747490816367, i64 29514790517935282 }, %"struct.fmt::v8::detail::dragonbox::divtest_table_entry.105" { i64 6723469279985657373, i64 5902958103587056 }, %"struct.fmt::v8::detail::dragonbox::divtest_table_entry.105" { i64 8723391485480952121, i64 1180591620717411 }, %"struct.fmt::v8::detail::dragonbox::divtest_table_entry.105" { i64 -1944670517645719899, i64 236118324143482 }, %"struct.fmt::v8::detail::dragonbox::divtest_table_entry.105" { i64 -4078282918271054303, i64 47223664828696 }, %"struct.fmt::v8::detail::dragonbox::divtest_table_entry.105" { i64 -8194354213138031507, i64 9444732965739 }, %"struct.fmt::v8::detail::dragonbox::divtest_table_entry.105" { i64 5739826786856214345, i64 1888946593147 }, %"struct.fmt::v8::detail::dragonbox::divtest_table_entry.105" { i64 1147965357371242869, i64 377789318629 }, %"struct.fmt::v8::detail::dragonbox::divtest_table_entry.105" { i64 3918941886216158897, i64 75557863725 }, %"struct.fmt::v8::detail::dragonbox::divtest_table_entry.105" { i64 -6594909252240588867, i64 15111572745 }, %"struct.fmt::v8::detail::dragonbox::divtest_table_entry.105" { i64 6059715779035702873, i64 3022314549 }, %"struct.fmt::v8::detail::dragonbox::divtest_table_entry.105" { i64 8590640785290961221, i64 604462909 }, %"struct.fmt::v8::detail::dragonbox::divtest_table_entry.105" { i64 -1971220657683718079, i64 120892581 }, %"struct.fmt::v8::detail::dragonbox::divtest_table_entry.105" { i64 -4083592946278653939, i64 24178516 }, %"struct.fmt::v8::detail::dragonbox::divtest_table_entry.105" { i64 -4506067403997641111, i64 4835703 }, %"struct.fmt::v8::detail::dragonbox::divtest_table_entry.105" { i64 2788135333942382101, i64 967140 }, %"struct.fmt::v8::detail::dragonbox::divtest_table_entry.105" { i64 -3131721747953433903, i64 193428 }, %"struct.fmt::v8::detail::dragonbox::divtest_table_entry.105" { i64 -8005041979074507427, i64 38685 }, %"struct.fmt::v8::detail::dragonbox::divtest_table_entry.105" { i64 5777689233668919161, i64 7737 }, %"struct.fmt::v8::detail::dragonbox::divtest_table_entry.105" { i64 -2533810968008126491, i64 1547 }], comdat, align 16
@_ZZN3fmt2v86detail9dragonbox37check_divisibility_and_divide_by_pow5ILi2EEEbRjE5infos = linkonce_odr hidden constant [2 x %struct.anon.106] [%struct.anon.106 { i32 52429, i32 16, i32 13107, i32 18 }, %struct.anon.106 { i32 42025, i32 8, i32 10, i32 20 }], comdat, align 16
@__const._ZN3fmt2v86detail9dragonbox37check_divisibility_and_divide_by_pow5ILi2EEEbRj.info = private unnamed_addr constant %struct.anon.106 { i32 42025, i32 8, i32 10, i32 20 }, align 4
@_ZZN3fmt2v86detail9dragonbox23small_division_by_pow10ILi2EEEjjE5infos = linkonce_odr hidden constant [2 x %struct.anon.107] [%struct.anon.107 { i32 52429, i32 19, i32 100 }, %struct.anon.107 { i32 41944, i32 22, i32 1000 }], comdat, align 16
@__const._ZN3fmt2v86detail9dragonbox23small_division_by_pow10ILi2EEEjj.info = private unnamed_addr constant %struct.anon.107 { i32 41944, i32 22, i32 1000 }, align 4
@_ZN3fmt2v86detail15basic_impl_dataIvE18pow10_significandsE = linkonce_odr hidden constant [87 x i64] [i64 -391859759250406776, i64 -4994806998408183946, i64 -8424269937281487754, i64 -3512093806901185046, i64 -7319562523736982739, i64 -1865951482774665761, i64 -6093090917745768758, i64 -38366372719436721, i64 -4731433901725329908, i64 -8228041688891786180, i64 -3219690930897053053, i64 -7101705404292871755, i64 -1541319077368263733, i64 -5851220927660403859, i64 -9062348037703676329, i64 -4462904269766699465, i64 -8027971522334779313, i64 -2921563150702462265, i64 -6879582898840692748, i64 -1210330751515841307, i64 -5604615407819967858, i64 -8878612607581929669, i64 -4189117143640191558, i64 -7823984217374209642, i64 -2617598379430861436, i64 -6653111496142234890, i64 -872862063775190746, i64 -5353181642124984136, i64 -8691279853972075893, i64 -3909969587797413805, i64 -7616003081050118571, i64 -2307682335666372931, i64 -6422206049907525489, i64 -528786136287117932, i64 -5096825099203863601, i64 -8500279345513818773, i64 -3625356651333078602, i64 -7403949918844649556, i64 -1991698500497491194, i64 -6186779746782440749, i64 -177973607073265138, i64 -4835449396872013077, i64 -8305539271883716404, i64 -3335171328526686932, i64 -7187745005283311616, i64 -1669528073709551616, i64 -5946744073709551616, i64 -9133518327554766460, i64 -4568956265895094861, i64 -8106986416796705680, i64 -3039304518611664792, i64 -6967307053960650171, i64 -1341049929119499481, i64 -5702008784649933400, i64 -8951176327949752869, i64 -4297245513042813542, i64 -7904546130479028392, i64 -2737644984756826646, i64 -6742553186979055798, i64 -1006140569036166267, i64 -5452481866653427593, i64 -8765264286586255934, i64 -4020214983419339459, i64 -7698142301602209613, i64 -2430079312244744221, i64 -6513398903789220827, i64 -664674077828931748, i64 -5198069505264599346, i64 -8575712306248138270, i64 -3737760522056206171, i64 -7487697328667536417, i64 -2116491865831296966, i64 -6279758049420528746, i64 -316522074587315140, i64 -4938676049251384304, i64 -8382449121214030822, i64 -3449775934753242068, i64 -7273132090830278359, i64 -1796764746270372707, i64 -6041542782089432023, i64 -9204148869281624187, i64 -4674203974643163859, i64 -8185402070463610993, i64 -3156152948152813503, i64 -7054365918152680535, i64 -1470777745987373095, i64 -5798663540173640085], comdat, align 16
@_ZN3fmt2v86detail15basic_impl_dataIvE15pow10_exponentsE = linkonce_odr hidden constant [87 x i16] [i16 -1220, i16 -1193, i16 -1166, i16 -1140, i16 -1113, i16 -1087, i16 -1060, i16 -1034, i16 -1007, i16 -980, i16 -954, i16 -927, i16 -901, i16 -874, i16 -847, i16 -821, i16 -794, i16 -768, i16 -741, i16 -715, i16 -688, i16 -661, i16 -635, i16 -608, i16 -582, i16 -555, i16 -529, i16 -502, i16 -475, i16 -449, i16 -422, i16 -396, i16 -369, i16 -343, i16 -316, i16 -289, i16 -263, i16 -236, i16 -210, i16 -183, i16 -157, i16 -130, i16 -103, i16 -77, i16 -50, i16 -24, i16 3, i16 30, i16 56, i16 83, i16 109, i16 136, i16 162, i16 189, i16 216, i16 242, i16 269, i16 295, i16 322, i16 348, i16 375, i16 402, i16 428, i16 455, i16 481, i16 508, i16 534, i16 561, i16 588, i16 614, i16 641, i16 667, i16 694, i16 720, i16 747, i16 774, i16 800, i16 827, i16 853, i16 880, i16 907, i16 933, i16 960, i16 986, i16 1013, i16 1039, i16 1066], comdat, align 16
@_ZN3fmt2v86detail15basic_impl_dataIvE14power_of_10_64E = linkonce_odr hidden constant [20 x i64] [i64 1, i64 10, i64 100, i64 1000, i64 10000, i64 100000, i64 1000000, i64 10000000, i64 100000000, i64 1000000000, i64 10000000000, i64 100000000000, i64 1000000000000, i64 10000000000000, i64 100000000000000, i64 1000000000000000, i64 10000000000000000, i64 100000000000000000, i64 1000000000000000000, i64 -8446744073709551616], comdat, align 16
@.str.170 = private unnamed_addr constant [25 x i8] c"invalid number of digits\00", align 1
@_ZTVN3fmt2v819basic_memory_bufferIjLm32ESaIjEEE = linkonce_odr hidden unnamed_addr constant { [3 x ptr] } { [3 x ptr] [ptr null, ptr @_ZTIN3fmt2v819basic_memory_bufferIjLm32ESaIjEEE, ptr @_ZN3fmt2v819basic_memory_bufferIjLm32ESaIjEE4growEm] }, comdat, align 8
@_ZTSN3fmt2v819basic_memory_bufferIjLm32ESaIjEEE = linkonce_odr hidden constant [44 x i8] c"N3fmt2v819basic_memory_bufferIjLm32ESaIjEEE\00", comdat, align 1
@_ZTSN3fmt2v86detail6bufferIjEE = linkonce_odr hidden constant [27 x i8] c"N3fmt2v86detail6bufferIjEE\00", comdat, align 1
@_ZTIN3fmt2v86detail6bufferIjEE = linkonce_odr hidden constant { ptr, ptr } { ptr getelementptr inbounds (ptr, ptr @_ZTVN10__cxxabiv117__class_type_infoE, i64 2), ptr @_ZTSN3fmt2v86detail6bufferIjEE }, comdat, align 8
@_ZTIN3fmt2v819basic_memory_bufferIjLm32ESaIjEEE = linkonce_odr hidden constant { ptr, ptr, ptr } { ptr getelementptr inbounds (ptr, ptr @_ZTVN10__cxxabiv120__si_class_type_infoE, i64 2), ptr @_ZTSN3fmt2v819basic_memory_bufferIjLm32ESaIjEEE, ptr @_ZTIN3fmt2v86detail6bufferIjEE }, comdat, align 8
@_ZTVN3fmt2v86detail6bufferIjEE = linkonce_odr hidden unnamed_addr constant { [3 x ptr] } { [3 x ptr] [ptr null, ptr @_ZTIN3fmt2v86detail6bufferIjEE, ptr @__cxa_pure_virtual] }, comdat, align 8
@.str.171 = private unnamed_addr constant [18 x i8] c"unaligned bigints\00", align 1
@.str.172 = private unnamed_addr constant [22 x i8] c"exponent out of range\00", align 1
@__const._ZN3fmt2v86detail11utf8_decodeEPKcPjPi.masks = private unnamed_addr constant [5 x i32] [i32 0, i32 127, i32 31, i32 15, i32 7], align 16
@__const._ZN3fmt2v86detail11utf8_decodeEPKcPjPi.mins = private unnamed_addr constant [5 x i32] [i32 4194304, i32 0, i32 128, i32 2048, i32 65536], align 16
@__const._ZN3fmt2v86detail11utf8_decodeEPKcPjPi.shiftc = private unnamed_addr constant [5 x i32] [i32 0, i32 18, i32 12, i32 6, i32 0], align 16
@__const._ZN3fmt2v86detail11utf8_decodeEPKcPjPi.shifte = private unnamed_addr constant [5 x i32] [i32 0, i32 6, i32 4, i32 2, i32 0], align 16
@.str.173 = private unnamed_addr constant [32 x i8] c"\01\01\01\01\01\01\01\01\01\01\01\01\01\01\01\01\00\00\00\00\00\00\00\00\02\02\02\02\03\03\04\00", align 1
@.str.174 = private unnamed_addr constant [7 x i8] c"(null)\00", align 1
@.str.175 = private unnamed_addr constant [6 x i8] c"(nil)\00", align 1
@.str.176 = private unnamed_addr constant [26 x i8] c"vector::_M_realloc_insert\00", align 1
@.str.177 = private unnamed_addr constant [26 x i8] c"vector::_M_default_append\00", align 1
@llvm.global_ctors = appending global [1 x { i32, ptr, ptr }] [{ i32, ptr, ptr } { i32 65535, ptr @_GLOBAL__sub_I_dpxinput.cpp, ptr null }]

; Function Attrs: nounwind
declare void @_ZNSt13runtime_errorD2Ev(ptr noundef nonnull align 8 dereferenceable(16)) unnamed_addr #0

; Function Attrs: mustprogress nounwind uwtable
define linkonce_odr hidden void @_ZN3fmt2v812format_errorD0Ev(ptr noundef nonnull align 8 dereferenceable(16) %this) unnamed_addr #1 comdat align 2 {
entry:
  %this.addr = alloca ptr, align 8
  store ptr %this, ptr %this.addr, align 8
  %this1 = load ptr, ptr %this.addr, align 8
  call void @_ZN3fmt2v812format_errorD2Ev(ptr noundef nonnull align 8 dereferenceable(16) %this1) #5
  call void @_ZdlPv(ptr noundef %this1) #16
  ret void
}

; Function Attrs: mustprogress nounwind uwtable
define linkonce_odr hidden void @_ZN3fmt2v812format_errorD2Ev(ptr noundef nonnull align 8 dereferenceable(16) %this) unnamed_addr #1 comdat align 2 {
entry:
  %this.addr = alloca ptr, align 8
  store ptr %this, ptr %this.addr, align 8
  %this1 = load ptr, ptr %this.addr, align 8
  call void @_ZNSt13runtime_errorD2Ev(ptr noundef nonnull align 8 dereferenceable(16) %this1) #5
  ret void
}

; Function Attrs: nobuiltin nounwind
declare void @_ZdlPv(ptr noundef) #2

; Function Attrs: uwtable
define internal void @__cxx_global_var_init() #3 section ".text.startup" {
entry:
  call void @_ZNSt8ios_base4InitC1Ev(ptr noundef nonnull align 1 dereferenceable(1) @_ZStL8__ioinit)
  %0 = call i32 @__cxa_atexit(ptr @_ZNSt8ios_base4InitD1Ev, ptr @_ZStL8__ioinit, ptr @__dso_handle) #5
  ret void
}

declare void @_ZNSt8ios_base4InitC1Ev(ptr noundef nonnull align 1 dereferenceable(1)) unnamed_addr #4

; Function Attrs: nounwind
declare void @_ZNSt8ios_base4InitD1Ev(ptr noundef nonnull align 1 dereferenceable(1)) unnamed_addr #0

; Function Attrs: nounwind
declare i32 @__cxa_atexit(ptr, ptr, ptr) #5

; Function Attrs: mustprogress uwtable
define noundef ptr @_ZN18OpenImageIO_v2_6_024dpx_input_imageio_createEv() #6 personality ptr @__gxx_personality_v0 {
entry:
  %exn.slot = alloca ptr, align 8
  %ehselector.slot = alloca i32, align 4
  %call = call noundef ptr @_ZN18OpenImageIO_v2_6_010ImageInputnwEm(i64 noundef 2400)
  invoke void @_ZN18OpenImageIO_v2_6_08DPXInputC2Ev(ptr noundef nonnull align 8 dereferenceable(2400) %call)
          to label %invoke.cont unwind label %lpad

invoke.cont:                                      ; preds = %entry
  ret ptr %call

lpad:                                             ; preds = %entry
  %0 = landingpad { ptr, i32 }
          cleanup
  %1 = extractvalue { ptr, i32 } %0, 0
  store ptr %1, ptr %exn.slot, align 8
  %2 = extractvalue { ptr, i32 } %0, 1
  store i32 %2, ptr %ehselector.slot, align 4
  call void @_ZN18OpenImageIO_v2_6_010ImageInputdlEPv(ptr noundef %call) #5
  br label %eh.resume

eh.resume:                                        ; preds = %lpad
  %exn = load ptr, ptr %exn.slot, align 8
  %sel = load i32, ptr %ehselector.slot, align 4
  %lpad.val = insertvalue { ptr, i32 } poison, ptr %exn, 0
  %lpad.val1 = insertvalue { ptr, i32 } %lpad.val, i32 %sel, 1
  resume { ptr, i32 } %lpad.val1
}

declare noundef ptr @_ZN18OpenImageIO_v2_6_010ImageInputnwEm(i64 noundef) #4

; Function Attrs: mustprogress uwtable
define linkonce_odr hidden void @_ZN18OpenImageIO_v2_6_08DPXInputC2Ev(ptr noundef nonnull align 8 dereferenceable(2400) %this) unnamed_addr #6 comdat align 2 personality ptr @__gxx_personality_v0 {
entry:
  %this.addr = alloca ptr, align 8
  %exn.slot = alloca ptr, align 8
  %ehselector.slot = alloca i32, align 4
  store ptr %this, ptr %this.addr, align 8
  %this1 = load ptr, ptr %this.addr, align 8
  call void @_ZN18OpenImageIO_v2_6_010ImageInputC2Ev(ptr noundef nonnull align 8 dereferenceable(184) %this1)
  store ptr getelementptr inbounds ({ [36 x ptr] }, ptr @_ZTVN18OpenImageIO_v2_6_08DPXInputE, i32 0, inrange i32 0, i32 2), ptr %this1, align 8
  %m_stream = getelementptr inbounds %"class.OpenImageIO_v2_6_0::DPXInput", ptr %this1, i32 0, i32 2
  store ptr null, ptr %m_stream, align 8
  %m_dpx = getelementptr inbounds %"class.OpenImageIO_v2_6_0::DPXInput", ptr %this1, i32 0, i32 3
  invoke void @_ZN3dpx6ReaderC1Ev(ptr noundef nonnull align 8 dereferenceable(2144) %m_dpx)
          to label %invoke.cont unwind label %lpad

invoke.cont:                                      ; preds = %entry
  %m_userBuf = getelementptr inbounds %"class.OpenImageIO_v2_6_0::DPXInput", ptr %this1, i32 0, i32 4
  call void @_ZNSt6vectorIhSaIhEEC2Ev(ptr noundef nonnull align 8 dereferenceable(24) %m_userBuf) #5
  %m_decodebuf = getelementptr inbounds %"class.OpenImageIO_v2_6_0::DPXInput", ptr %this1, i32 0, i32 6
  call void @_ZNSt6vectorIhSaIhEEC2Ev(ptr noundef nonnull align 8 dereferenceable(24) %m_decodebuf) #5
  invoke void @_ZN18OpenImageIO_v2_6_08DPXInput4initEv(ptr noundef nonnull align 8 dereferenceable(2400) %this1)
          to label %invoke.cont3 unwind label %lpad2

invoke.cont3:                                     ; preds = %invoke.cont
  ret void

lpad:                                             ; preds = %entry
  %0 = landingpad { ptr, i32 }
          cleanup
  %1 = extractvalue { ptr, i32 } %0, 0
  store ptr %1, ptr %exn.slot, align 8
  %2 = extractvalue { ptr, i32 } %0, 1
  store i32 %2, ptr %ehselector.slot, align 4
  br label %ehcleanup

lpad2:                                            ; preds = %invoke.cont
  %3 = landingpad { ptr, i32 }
          cleanup
  %4 = extractvalue { ptr, i32 } %3, 0
  store ptr %4, ptr %exn.slot, align 8
  %5 = extractvalue { ptr, i32 } %3, 1
  store i32 %5, ptr %ehselector.slot, align 4
  call void @_ZNSt6vectorIhSaIhEED2Ev(ptr noundef nonnull align 8 dereferenceable(24) %m_decodebuf) #5
  call void @_ZNSt6vectorIhSaIhEED2Ev(ptr noundef nonnull align 8 dereferenceable(24) %m_userBuf) #5
  call void @_ZN3dpx6ReaderD1Ev(ptr noundef nonnull align 8 dereferenceable(2144) %m_dpx) #5
  br label %ehcleanup

ehcleanup:                                        ; preds = %lpad2, %lpad
  call void @_ZN18OpenImageIO_v2_6_010ImageInputD2Ev(ptr noundef nonnull align 8 dereferenceable(184) %this1) #5
  br label %eh.resume

eh.resume:                                        ; preds = %ehcleanup
  %exn = load ptr, ptr %exn.slot, align 8
  %sel = load i32, ptr %ehselector.slot, align 4
  %lpad.val = insertvalue { ptr, i32 } poison, ptr %exn, 0
  %lpad.val4 = insertvalue { ptr, i32 } %lpad.val, i32 %sel, 1
  resume { ptr, i32 } %lpad.val4
}

declare i32 @__gxx_personality_v0(...)

; Function Attrs: nounwind
declare void @_ZN18OpenImageIO_v2_6_010ImageInputdlEPv(ptr noundef) #0

; Function Attrs: mustprogress nounwind uwtable
define noundef ptr @_ZN18OpenImageIO_v2_6_027dpx_imageio_library_versionEv() #1 {
entry:
  ret ptr null
}

; Function Attrs: mustprogress uwtable
define hidden noundef zeroext i1 @_ZNK18OpenImageIO_v2_6_08DPXInput10valid_fileEPNS_10Filesystem7IOProxyE(ptr noundef nonnull align 8 dereferenceable(2400) %this, ptr noundef %ioproxy) unnamed_addr #6 align 2 {
entry:
  %retval = alloca i1, align 1
  %this.addr = alloca ptr, align 8
  %ioproxy.addr = alloca ptr, align 8
  %magic = alloca i32, align 4
  %numRead = alloca i64, align 8
  store ptr %this, ptr %this.addr, align 8
  store ptr %ioproxy, ptr %ioproxy.addr, align 8
  %0 = load ptr, ptr %ioproxy.addr, align 8
  %tobool = icmp ne ptr %0, null
  br i1 %tobool, label %lor.lhs.false, label %if.then

lor.lhs.false:                                    ; preds = %entry
  %1 = load ptr, ptr %ioproxy.addr, align 8
  %call = call noundef i32 @_ZNK18OpenImageIO_v2_6_010Filesystem7IOProxy4modeEv(ptr noundef nonnull align 8 dereferenceable(88) %1)
  %cmp = icmp ne i32 %call, 114
  br i1 %cmp, label %if.then, label %if.end

if.then:                                          ; preds = %lor.lhs.false, %entry
  store i1 false, ptr %retval, align 1
  br label %return

if.end:                                           ; preds = %lor.lhs.false
  store i32 0, ptr %magic, align 4
  %2 = load ptr, ptr %ioproxy.addr, align 8
  %vtable = load ptr, ptr %2, align 8
  %vfn = getelementptr inbounds ptr, ptr %vtable, i64 9
  %3 = load ptr, ptr %vfn, align 8
  %call2 = call noundef i64 %3(ptr noundef nonnull align 8 dereferenceable(88) %2, ptr noundef %magic, i64 noundef 4, i64 noundef 0)
  store i64 %call2, ptr %numRead, align 8
  %4 = load i64, ptr %numRead, align 8
  %cmp3 = icmp eq i64 %4, 4
  br i1 %cmp3, label %land.rhs, label %land.end

land.rhs:                                         ; preds = %if.end
  %5 = load i32, ptr %magic, align 4
  %call4 = call noundef zeroext i1 @_ZN3dpx6Header16ValidMagicCookieEj(i32 noundef %5)
  br label %land.end

land.end:                                         ; preds = %land.rhs, %if.end
  %6 = phi i1 [ false, %if.end ], [ %call4, %land.rhs ]
  store i1 %6, ptr %retval, align 1
  br label %return

return:                                           ; preds = %land.end, %if.then
  %7 = load i1, ptr %retval, align 1
  ret i1 %7
}

; Function Attrs: mustprogress nounwind uwtable
define linkonce_odr noundef i32 @_ZNK18OpenImageIO_v2_6_010Filesystem7IOProxy4modeEv(ptr noundef nonnull align 8 dereferenceable(88) %this) #1 comdat align 2 {
entry:
  %this.addr = alloca ptr, align 8
  store ptr %this, ptr %this.addr, align 8
  %this1 = load ptr, ptr %this.addr, align 8
  %m_mode = getelementptr inbounds %"class.OpenImageIO_v2_6_0::Filesystem::IOProxy", ptr %this1, i32 0, i32 3
  %0 = load i32, ptr %m_mode, align 8
  ret i32 %0
}

declare noundef zeroext i1 @_ZN3dpx6Header16ValidMagicCookieEj(i32 noundef) #4

; Function Attrs: mustprogress uwtable
define hidden noundef zeroext i1 @_ZN18OpenImageIO_v2_6_08DPXInput4openERKNSt7__cxx1112basic_stringIcSt11char_traitsIcESaIcEEERNS_9ImageSpecE(ptr noundef nonnull align 8 dereferenceable(2400) %this, ptr noundef nonnull align 8 dereferenceable(32) %name, ptr noundef nonnull align 8 dereferenceable(160) %newspec) unnamed_addr #6 align 2 personality ptr @__gxx_personality_v0 {
entry:
  %retval = alloca i1, align 1
  %this.addr = alloca ptr, align 8
  %name.addr = alloca ptr, align 8
  %newspec.addr = alloca ptr, align 8
  %agg.tmp = alloca %"class.OpenImageIO_v2_6_0::basic_string_view", align 8
  %exn.slot = alloca ptr, align 8
  %ehselector.slot = alloca i32, align 4
  %ok = alloca i8, align 1
  store ptr %this, ptr %this.addr, align 8
  store ptr %name, ptr %name.addr, align 8
  store ptr %newspec, ptr %newspec.addr, align 8
  %this1 = load ptr, ptr %this.addr, align 8
  %0 = load ptr, ptr %name.addr, align 8
  call void @_ZN18OpenImageIO_v2_6_017basic_string_viewIcSt11char_traitsIcEEC2ERKNSt7__cxx1112basic_stringIcS2_SaIcEEE(ptr noundef nonnull align 8 dereferenceable(16) %agg.tmp, ptr noundef nonnull align 8 dereferenceable(32) %0) #5
  %call = call noundef zeroext i1 @_ZN18OpenImageIO_v2_6_010ImageInput19ioproxy_use_or_openENS_17basic_string_viewIcSt11char_traitsIcEEE(ptr noundef nonnull align 8 dereferenceable(184) %this1, ptr noundef %agg.tmp)
  br i1 %call, label %if.end, label %if.then

if.then:                                          ; preds = %entry
  store i1 false, ptr %retval, align 1
  br label %return

if.end:                                           ; preds = %entry
  %call2 = call noalias noundef nonnull ptr @_Znwm(i64 noundef 16) #17
  %call3 = invoke noundef ptr @_ZN18OpenImageIO_v2_6_010ImageInput7ioproxyEv(ptr noundef nonnull align 8 dereferenceable(184) %this1)
          to label %invoke.cont unwind label %lpad

invoke.cont:                                      ; preds = %if.end
  invoke void @_ZN8InStreamC2EPN18OpenImageIO_v2_6_010Filesystem7IOProxyE(ptr noundef nonnull align 8 dereferenceable(16) %call2, ptr noundef %call3)
          to label %invoke.cont4 unwind label %lpad

invoke.cont4:                                     ; preds = %invoke.cont
  %m_stream = getelementptr inbounds %"class.OpenImageIO_v2_6_0::DPXInput", ptr %this1, i32 0, i32 2
  store ptr %call2, ptr %m_stream, align 8
  %m_stream5 = getelementptr inbounds %"class.OpenImageIO_v2_6_0::DPXInput", ptr %this1, i32 0, i32 2
  %1 = load ptr, ptr %m_stream5, align 8
  %tobool = icmp ne ptr %1, null
  br i1 %tobool, label %if.end7, label %if.then6

if.then6:                                         ; preds = %invoke.cont4
  %2 = load ptr, ptr %name.addr, align 8
  call void @_ZNK18OpenImageIO_v2_6_010ImageInput6errorfIJNSt7__cxx1112basic_stringIcSt11char_traitsIcESaIcEEEEEEvPKcDpRKT_(ptr noundef nonnull align 8 dereferenceable(184) %this1, ptr noundef @.str.1, ptr noundef nonnull align 8 dereferenceable(32) %2)
  store i1 false, ptr %retval, align 1
  br label %return

lpad:                                             ; preds = %invoke.cont, %if.end
  %3 = landingpad { ptr, i32 }
          cleanup
  %4 = extractvalue { ptr, i32 } %3, 0
  store ptr %4, ptr %exn.slot, align 8
  %5 = extractvalue { ptr, i32 } %3, 1
  store i32 %5, ptr %ehselector.slot, align 4
  call void @_ZdlPv(ptr noundef %call2) #16
  br label %eh.resume

if.end7:                                          ; preds = %invoke.cont4
  %m_dpx = getelementptr inbounds %"class.OpenImageIO_v2_6_0::DPXInput", ptr %this1, i32 0, i32 3
  %m_stream8 = getelementptr inbounds %"class.OpenImageIO_v2_6_0::DPXInput", ptr %this1, i32 0, i32 2
  %6 = load ptr, ptr %m_stream8, align 8
  call void @_ZN3dpx6Reader11SetInStreamEP8InStream(ptr noundef nonnull align 8 dereferenceable(2144) %m_dpx, ptr noundef %6)
  %m_dpx9 = getelementptr inbounds %"class.OpenImageIO_v2_6_0::DPXInput", ptr %this1, i32 0, i32 3
  %call10 = call noundef zeroext i1 @_ZN3dpx6Reader10ReadHeaderEv(ptr noundef nonnull align 8 dereferenceable(2144) %m_dpx9)
  br i1 %call10, label %if.end13, label %if.then11

if.then11:                                        ; preds = %if.end7
  call void @_ZNK18OpenImageIO_v2_6_010ImageInput6errorfIJEEEvPKcDpRKT_(ptr noundef nonnull align 8 dereferenceable(184) %this1, ptr noundef @.str.2)
  %call12 = call noundef zeroext i1 @_ZN18OpenImageIO_v2_6_08DPXInput5closeEv(ptr noundef nonnull align 8 dereferenceable(2400) %this1)
  store i1 false, ptr %retval, align 1
  br label %return

if.end13:                                         ; preds = %if.end7
  %call14 = call noundef zeroext i1 @_ZN18OpenImageIO_v2_6_08DPXInput13seek_subimageEii(ptr noundef nonnull align 8 dereferenceable(2400) %this1, i32 noundef 0, i32 noundef 0)
  %frombool = zext i1 %call14 to i8
  store i8 %frombool, ptr %ok, align 1
  %7 = load i8, ptr %ok, align 1
  %tobool15 = trunc i8 %7 to i1
  br i1 %tobool15, label %if.then16, label %if.else

if.then16:                                        ; preds = %if.end13
  %call17 = call noundef nonnull align 8 dereferenceable(160) ptr @_ZNK18OpenImageIO_v2_6_010ImageInput4specEv(ptr noundef nonnull align 8 dereferenceable(184) %this1)
  %8 = load ptr, ptr %newspec.addr, align 8
  %call18 = call noundef nonnull align 8 dereferenceable(160) ptr @_ZN18OpenImageIO_v2_6_09ImageSpecaSERKS0_(ptr noundef nonnull align 8 dereferenceable(160) %8, ptr noundef nonnull align 8 dereferenceable(160) %call17)
  br label %if.end20

if.else:                                          ; preds = %if.end13
  %call19 = call noundef zeroext i1 @_ZN18OpenImageIO_v2_6_08DPXInput5closeEv(ptr noundef nonnull align 8 dereferenceable(2400) %this1)
  br label %if.end20

if.end20:                                         ; preds = %if.else, %if.then16
  %9 = load i8, ptr %ok, align 1
  %tobool21 = trunc i8 %9 to i1
  store i1 %tobool21, ptr %retval, align 1
  br label %return

return:                                           ; preds = %if.end20, %if.then11, %if.then6, %if.then
  %10 = load i1, ptr %retval, align 1
  ret i1 %10

eh.resume:                                        ; preds = %lpad
  %exn = load ptr, ptr %exn.slot, align 8
  %sel = load i32, ptr %ehselector.slot, align 4
  %lpad.val = insertvalue { ptr, i32 } poison, ptr %exn, 0
  %lpad.val22 = insertvalue { ptr, i32 } %lpad.val, i32 %sel, 1
  resume { ptr, i32 } %lpad.val22
}

declare noundef zeroext i1 @_ZN18OpenImageIO_v2_6_010ImageInput19ioproxy_use_or_openENS_17basic_string_viewIcSt11char_traitsIcEEE(ptr noundef nonnull align 8 dereferenceable(184), ptr noundef) #4

; Function Attrs: mustprogress nounwind uwtable
define linkonce_odr hidden void @_ZN18OpenImageIO_v2_6_017basic_string_viewIcSt11char_traitsIcEEC2ERKNSt7__cxx1112basic_stringIcS2_SaIcEEE(ptr noundef nonnull align 8 dereferenceable(16) %this, ptr noundef nonnull align 8 dereferenceable(32) %str) unnamed_addr #1 comdat align 2 {
entry:
  %this.addr = alloca ptr, align 8
  %str.addr = alloca ptr, align 8
  store ptr %this, ptr %this.addr, align 8
  store ptr %str, ptr %str.addr, align 8
  %this1 = load ptr, ptr %this.addr, align 8
  %m_chars = getelementptr inbounds %"class.OpenImageIO_v2_6_0::basic_string_view", ptr %this1, i32 0, i32 0
  %0 = load ptr, ptr %str.addr, align 8
  %call = call noundef ptr @_ZNKSt7__cxx1112basic_stringIcSt11char_traitsIcESaIcEE4dataEv(ptr noundef nonnull align 8 dereferenceable(32) %0) #5
  store ptr %call, ptr %m_chars, align 8
  %m_len = getelementptr inbounds %"class.OpenImageIO_v2_6_0::basic_string_view", ptr %this1, i32 0, i32 1
  %1 = load ptr, ptr %str.addr, align 8
  %call2 = call noundef i64 @_ZNKSt7__cxx1112basic_stringIcSt11char_traitsIcESaIcEE4sizeEv(ptr noundef nonnull align 8 dereferenceable(32) %1) #5
  store i64 %call2, ptr %m_len, align 8
  ret void
}

; Function Attrs: nobuiltin allocsize(0)
declare noundef nonnull ptr @_Znwm(i64 noundef) #7

declare noundef ptr @_ZN18OpenImageIO_v2_6_010ImageInput7ioproxyEv(ptr noundef nonnull align 8 dereferenceable(184)) #4

; Function Attrs: mustprogress nounwind uwtable
define linkonce_odr hidden void @_ZN8InStreamC2EPN18OpenImageIO_v2_6_010Filesystem7IOProxyE(ptr noundef nonnull align 8 dereferenceable(16) %this, ptr noundef %io) unnamed_addr #1 comdat align 2 {
entry:
  %this.addr = alloca ptr, align 8
  %io.addr = alloca ptr, align 8
  store ptr %this, ptr %this.addr, align 8
  store ptr %io, ptr %io.addr, align 8
  %this1 = load ptr, ptr %this.addr, align 8
  store ptr getelementptr inbounds ({ [11 x ptr] }, ptr @_ZTV8InStream, i32 0, inrange i32 0, i32 2), ptr %this1, align 8
  %m_io = getelementptr inbounds %class.InStream, ptr %this1, i32 0, i32 1
  %0 = load ptr, ptr %io.addr, align 8
  store ptr %0, ptr %m_io, align 8
  ret void
}

; Function Attrs: mustprogress uwtable
define linkonce_odr void @_ZNK18OpenImageIO_v2_6_010ImageInput6errorfIJNSt7__cxx1112basic_stringIcSt11char_traitsIcESaIcEEEEEEvPKcDpRKT_(ptr noundef nonnull align 8 dereferenceable(184) %this, ptr noundef %fmt, ptr noundef nonnull align 8 dereferenceable(32) %args) #6 comdat align 2 personality ptr @__gxx_personality_v0 {
entry:
  %this.addr = alloca ptr, align 8
  %fmt.addr = alloca ptr, align 8
  %args.addr = alloca ptr, align 8
  %agg.tmp = alloca %"class.OpenImageIO_v2_6_0::basic_string_view", align 8
  %ref.tmp = alloca %"class.std::__cxx11::basic_string", align 8
  %exn.slot = alloca ptr, align 8
  %ehselector.slot = alloca i32, align 4
  store ptr %this, ptr %this.addr, align 8
  store ptr %fmt, ptr %fmt.addr, align 8
  store ptr %args, ptr %args.addr, align 8
  %this1 = load ptr, ptr %this.addr, align 8
  %0 = load ptr, ptr %args.addr, align 8
  call void @_ZN3fmt2v87sprintfIPKcJNSt7__cxx1112basic_stringIcSt11char_traitsIcESaIcEEEEcEENS5_IT1_S6_ISA_ESaISA_EEERKT_DpRKT0_(ptr sret(%"class.std::__cxx11::basic_string") align 8 %ref.tmp, ptr noundef nonnull align 8 dereferenceable(8) %fmt.addr, ptr noundef nonnull align 8 dereferenceable(32) %0)
  call void @_ZN18OpenImageIO_v2_6_017basic_string_viewIcSt11char_traitsIcEEC2ERKNSt7__cxx1112basic_stringIcS2_SaIcEEE(ptr noundef nonnull align 8 dereferenceable(16) %agg.tmp, ptr noundef nonnull align 8 dereferenceable(32) %ref.tmp) #5
  invoke void @_ZNK18OpenImageIO_v2_6_010ImageInput12append_errorENS_17basic_string_viewIcSt11char_traitsIcEEE(ptr noundef nonnull align 8 dereferenceable(184) %this1, ptr noundef %agg.tmp)
          to label %invoke.cont unwind label %lpad

invoke.cont:                                      ; preds = %entry
  call void @_ZNSt7__cxx1112basic_stringIcSt11char_traitsIcESaIcEED1Ev(ptr noundef nonnull align 8 dereferenceable(32) %ref.tmp) #5
  ret void

lpad:                                             ; preds = %entry
  %1 = landingpad { ptr, i32 }
          cleanup
  %2 = extractvalue { ptr, i32 } %1, 0
  store ptr %2, ptr %exn.slot, align 8
  %3 = extractvalue { ptr, i32 } %1, 1
  store i32 %3, ptr %ehselector.slot, align 4
  call void @_ZNSt7__cxx1112basic_stringIcSt11char_traitsIcESaIcEED1Ev(ptr noundef nonnull align 8 dereferenceable(32) %ref.tmp) #5
  br label %eh.resume

eh.resume:                                        ; preds = %lpad
  %exn = load ptr, ptr %exn.slot, align 8
  %sel = load i32, ptr %ehselector.slot, align 4
  %lpad.val = insertvalue { ptr, i32 } poison, ptr %exn, 0
  %lpad.val2 = insertvalue { ptr, i32 } %lpad.val, i32 %sel, 1
  resume { ptr, i32 } %lpad.val2
}

declare void @_ZN3dpx6Reader11SetInStreamEP8InStream(ptr noundef nonnull align 8 dereferenceable(2144), ptr noundef) #4

declare noundef zeroext i1 @_ZN3dpx6Reader10ReadHeaderEv(ptr noundef nonnull align 8 dereferenceable(2144)) #4

; Function Attrs: mustprogress uwtable
define linkonce_odr void @_ZNK18OpenImageIO_v2_6_010ImageInput6errorfIJEEEvPKcDpRKT_(ptr noundef nonnull align 8 dereferenceable(184) %this, ptr noundef %fmt) #6 comdat align 2 personality ptr @__gxx_personality_v0 {
entry:
  %this.addr = alloca ptr, align 8
  %fmt.addr = alloca ptr, align 8
  %agg.tmp = alloca %"class.OpenImageIO_v2_6_0::basic_string_view", align 8
  %ref.tmp = alloca %"class.std::__cxx11::basic_string", align 8
  %exn.slot = alloca ptr, align 8
  %ehselector.slot = alloca i32, align 4
  store ptr %this, ptr %this.addr, align 8
  store ptr %fmt, ptr %fmt.addr, align 8
  %this1 = load ptr, ptr %this.addr, align 8
  call void @_ZN3fmt2v87sprintfIPKcJEcEENSt7__cxx1112basic_stringIT1_St11char_traitsIS6_ESaIS6_EEERKT_DpRKT0_(ptr sret(%"class.std::__cxx11::basic_string") align 8 %ref.tmp, ptr noundef nonnull align 8 dereferenceable(8) %fmt.addr)
  call void @_ZN18OpenImageIO_v2_6_017basic_string_viewIcSt11char_traitsIcEEC2ERKNSt7__cxx1112basic_stringIcS2_SaIcEEE(ptr noundef nonnull align 8 dereferenceable(16) %agg.tmp, ptr noundef nonnull align 8 dereferenceable(32) %ref.tmp) #5
  invoke void @_ZNK18OpenImageIO_v2_6_010ImageInput12append_errorENS_17basic_string_viewIcSt11char_traitsIcEEE(ptr noundef nonnull align 8 dereferenceable(184) %this1, ptr noundef %agg.tmp)
          to label %invoke.cont unwind label %lpad

invoke.cont:                                      ; preds = %entry
  call void @_ZNSt7__cxx1112basic_stringIcSt11char_traitsIcESaIcEED1Ev(ptr noundef nonnull align 8 dereferenceable(32) %ref.tmp) #5
  ret void

lpad:                                             ; preds = %entry
  %0 = landingpad { ptr, i32 }
          cleanup
  %1 = extractvalue { ptr, i32 } %0, 0
  store ptr %1, ptr %exn.slot, align 8
  %2 = extractvalue { ptr, i32 } %0, 1
  store i32 %2, ptr %ehselector.slot, align 4
  call void @_ZNSt7__cxx1112basic_stringIcSt11char_traitsIcESaIcEED1Ev(ptr noundef nonnull align 8 dereferenceable(32) %ref.tmp) #5
  br label %eh.resume

eh.resume:                                        ; preds = %lpad
  %exn = load ptr, ptr %exn.slot, align 8
  %sel = load i32, ptr %ehselector.slot, align 4
  %lpad.val = insertvalue { ptr, i32 } poison, ptr %exn, 0
  %lpad.val2 = insertvalue { ptr, i32 } %lpad.val, i32 %sel, 1
  resume { ptr, i32 } %lpad.val2
}

; Function Attrs: mustprogress uwtable
define hidden noundef zeroext i1 @_ZN18OpenImageIO_v2_6_08DPXInput5closeEv(ptr noundef nonnull align 8 dereferenceable(2400) %this) unnamed_addr #6 align 2 {
entry:
  %this.addr = alloca ptr, align 8
  store ptr %this, ptr %this.addr, align 8
  %this1 = load ptr, ptr %this.addr, align 8
  call void @_ZN18OpenImageIO_v2_6_08DPXInput4initEv(ptr noundef nonnull align 8 dereferenceable(2400) %this1)
  ret i1 true
}

; Function Attrs: mustprogress uwtable
define hidden noundef zeroext i1 @_ZN18OpenImageIO_v2_6_08DPXInput13seek_subimageEii(ptr noundef nonnull align 8 dereferenceable(2400) %this, i32 noundef %subimage, i32 noundef %miplevel) unnamed_addr #6 align 2 personality ptr @__gxx_personality_v0 {
entry:
  %retval = alloca i1, align 1
  %this.addr = alloca ptr, align 8
  %subimage.addr = alloca i32, align 4
  %miplevel.addr = alloca i32, align 4
  %typedesc = alloca %"struct.OpenImageIO_v2_6_0::TypeDesc", align 4
  %ref.tmp = alloca %"struct.OpenImageIO_v2_6_0::TypeDesc", align 4
  %ref.tmp17 = alloca %"struct.OpenImageIO_v2_6_0::TypeDesc", align 4
  %ref.tmp24 = alloca %"struct.OpenImageIO_v2_6_0::TypeDesc", align 4
  %ref.tmp31 = alloca %"struct.OpenImageIO_v2_6_0::TypeDesc", align 4
  %ref.tmp33 = alloca %"struct.OpenImageIO_v2_6_0::TypeDesc", align 4
  %ref.tmp34 = alloca %"class.OpenImageIO_v2_6_0::ImageSpec", align 8
  %agg.tmp = alloca %"struct.OpenImageIO_v2_6_0::TypeDesc", align 4
  %i = alloca i32, align 4
  %ch = alloca %"class.std::__cxx11::basic_string", align 8
  %exn.slot = alloca ptr, align 8
  %ehselector.slot = alloca i32, align 4
  %agg.tmp193 = alloca %"class.OpenImageIO_v2_6_0::basic_string_view", align 8
  %orientation = alloca i32, align 4
  %agg.tmp211 = alloca %"class.OpenImageIO_v2_6_0::basic_string_view", align 8
  %agg.tmp217 = alloca %"class.OpenImageIO_v2_6_0::basic_string_view", align 8
  %agg.tmp218 = alloca %"class.OpenImageIO_v2_6_0::basic_string_view", align 8
  %agg.tmp221 = alloca %"class.OpenImageIO_v2_6_0::basic_string_view", align 8
  %agg.tmp222 = alloca %"class.OpenImageIO_v2_6_0::basic_string_view", align 8
  %agg.tmp225 = alloca %"class.OpenImageIO_v2_6_0::basic_string_view", align 8
  %agg.tmp226 = alloca %"class.OpenImageIO_v2_6_0::basic_string_view", align 8
  %g = alloca float, align 4
  %agg.tmp243 = alloca %"class.OpenImageIO_v2_6_0::basic_string_view", align 8
  %agg.tmp244 = alloca %"class.OpenImageIO_v2_6_0::basic_string_view", align 8
  %ref.tmp245 = alloca %"class.std::__cxx11::basic_string", align 8
  %agg.tmp249 = alloca %"class.OpenImageIO_v2_6_0::basic_string_view", align 8
  %agg.tmp254 = alloca %"class.OpenImageIO_v2_6_0::basic_string_view", align 8
  %agg.tmp255 = alloca %"class.OpenImageIO_v2_6_0::basic_string_view", align 8
  %ref.tmp256 = alloca %"class.std::__cxx11::basic_string", align 8
  %agg.tmp263 = alloca %"class.OpenImageIO_v2_6_0::basic_string_view", align 8
  %agg.tmp264 = alloca %"class.OpenImageIO_v2_6_0::basic_string_view", align 8
  %ref.tmp265 = alloca %"class.std::__cxx11::basic_string", align 8
  %agg.tmp283 = alloca %"class.OpenImageIO_v2_6_0::basic_string_view", align 8
  %agg.tmp284 = alloca %"class.OpenImageIO_v2_6_0::basic_string_view", align 8
  %agg.tmp302 = alloca %"class.OpenImageIO_v2_6_0::basic_string_view", align 8
  %agg.tmp303 = alloca %"class.OpenImageIO_v2_6_0::basic_string_view", align 8
  %agg.tmp322 = alloca %"class.OpenImageIO_v2_6_0::basic_string_view", align 8
  %agg.tmp323 = alloca %"class.OpenImageIO_v2_6_0::basic_string_view", align 8
  %date = alloca [24 x i8], align 16
  %agg.tmp335 = alloca %"class.OpenImageIO_v2_6_0::basic_string_view", align 8
  %agg.tmp344 = alloca %"class.OpenImageIO_v2_6_0::basic_string_view", align 8
  %agg.tmp345 = alloca %"class.OpenImageIO_v2_6_0::basic_string_view", align 8
  %agg.tmp354 = alloca %"class.OpenImageIO_v2_6_0::basic_string_view", align 8
  %agg.tmp355 = alloca %"class.OpenImageIO_v2_6_0::basic_string_view", align 8
  %desc = alloca [33 x i8], align 16
  %agg.tmp368 = alloca %"class.OpenImageIO_v2_6_0::basic_string_view", align 8
  %agg.tmp369 = alloca %"class.OpenImageIO_v2_6_0::basic_string_view", align 8
  %agg.tmp373 = alloca %"class.OpenImageIO_v2_6_0::basic_string_view", align 8
  %agg.tmp388 = alloca %"class.OpenImageIO_v2_6_0::basic_string_view", align 8
  %agg.tmp389 = alloca %"class.OpenImageIO_v2_6_0::basic_string_view", align 8
  %ref.tmp390 = alloca %"class.std::__cxx11::basic_string", align 8
  %agg.tmp402 = alloca %"class.OpenImageIO_v2_6_0::basic_string_view", align 8
  %agg.tmp413 = alloca %"class.OpenImageIO_v2_6_0::basic_string_view", align 8
  %agg.tmp424 = alloca %"class.OpenImageIO_v2_6_0::basic_string_view", align 8
  %agg.tmp435 = alloca %"class.OpenImageIO_v2_6_0::basic_string_view", align 8
  %agg.tmp446 = alloca %"class.OpenImageIO_v2_6_0::basic_string_view", align 8
  %agg.tmp457 = alloca %"class.OpenImageIO_v2_6_0::basic_string_view", align 8
  %agg.tmp468 = alloca %"class.OpenImageIO_v2_6_0::basic_string_view", align 8
  %agg.tmp479 = alloca %"class.OpenImageIO_v2_6_0::basic_string_view", align 8
  %agg.tmp490 = alloca %"class.OpenImageIO_v2_6_0::basic_string_view", align 8
  %agg.tmp501 = alloca %"class.OpenImageIO_v2_6_0::basic_string_view", align 8
  %agg.tmp513 = alloca %"class.OpenImageIO_v2_6_0::basic_string_view", align 8
  %agg.tmp526 = alloca %"class.OpenImageIO_v2_6_0::basic_string_view", align 8
  %agg.tmp539 = alloca %"class.OpenImageIO_v2_6_0::basic_string_view", align 8
  %agg.tmp552 = alloca %"class.OpenImageIO_v2_6_0::basic_string_view", align 8
  %agg.tmp565 = alloca %"class.OpenImageIO_v2_6_0::basic_string_view", align 8
  %agg.tmp584 = alloca %"class.OpenImageIO_v2_6_0::basic_string_view", align 8
  %agg.tmp585 = alloca %"class.OpenImageIO_v2_6_0::basic_string_view", align 8
  %agg.tmp606 = alloca %"class.OpenImageIO_v2_6_0::basic_string_view", align 8
  %agg.tmp607 = alloca %"class.OpenImageIO_v2_6_0::basic_string_view", align 8
  %agg.tmp629 = alloca %"class.OpenImageIO_v2_6_0::basic_string_view", align 8
  %agg.tmp630 = alloca %"class.OpenImageIO_v2_6_0::basic_string_view", align 8
  %agg.tmp652 = alloca %"class.OpenImageIO_v2_6_0::basic_string_view", align 8
  %agg.tmp653 = alloca %"class.OpenImageIO_v2_6_0::basic_string_view", align 8
  %agg.tmp673 = alloca %"class.OpenImageIO_v2_6_0::basic_string_view", align 8
  %agg.tmp674 = alloca %"class.OpenImageIO_v2_6_0::basic_string_view", align 8
  %agg.tmp693 = alloca %"class.OpenImageIO_v2_6_0::basic_string_view", align 8
  %agg.tmp694 = alloca %"class.OpenImageIO_v2_6_0::basic_string_view", align 8
  %agg.tmp713 = alloca %"class.OpenImageIO_v2_6_0::basic_string_view", align 8
  %agg.tmp714 = alloca %"class.OpenImageIO_v2_6_0::basic_string_view", align 8
  %agg.tmp728 = alloca %"class.OpenImageIO_v2_6_0::basic_string_view", align 8
  %agg.tmp743 = alloca %"class.OpenImageIO_v2_6_0::basic_string_view", align 8
  %agg.tmp757 = alloca %"class.OpenImageIO_v2_6_0::basic_string_view", align 8
  %agg.tmp770 = alloca %"class.OpenImageIO_v2_6_0::basic_string_view", align 8
  %agg.tmp783 = alloca %"class.OpenImageIO_v2_6_0::basic_string_view", align 8
  %agg.tmp796 = alloca %"class.OpenImageIO_v2_6_0::basic_string_view", align 8
  %agg.tmp809 = alloca %"class.OpenImageIO_v2_6_0::basic_string_view", align 8
  %agg.tmp822 = alloca %"class.OpenImageIO_v2_6_0::basic_string_view", align 8
  %agg.tmp835 = alloca %"class.OpenImageIO_v2_6_0::basic_string_view", align 8
  %agg.tmp848 = alloca %"class.OpenImageIO_v2_6_0::basic_string_view", align 8
  %agg.tmp861 = alloca %"class.OpenImageIO_v2_6_0::basic_string_view", align 8
  %tmpstr = alloca %"class.std::__cxx11::basic_string", align 8
  %agg.tmp885 = alloca %"class.OpenImageIO_v2_6_0::basic_string_view", align 8
  %agg.tmp886 = alloca %"class.OpenImageIO_v2_6_0::basic_string_view", align 8
  %kc = alloca [7 x i32], align 16
  %agg.tmp899 = alloca %"class.OpenImageIO_v2_6_0::basic_string_view", align 8
  %agg.tmp900 = alloca %"struct.OpenImageIO_v2_6_0::TypeDesc", align 4
  %timecode = alloca [2 x i32], align 4
  %agg.tmp917 = alloca %"class.OpenImageIO_v2_6_0::basic_string_view", align 8
  %agg.tmp918 = alloca %"struct.OpenImageIO_v2_6_0::TypeDesc", align 4
  %tc = alloca %"class.Imf_2_5::TimeCode", align 4
  %agg.tmp931 = alloca %"class.OpenImageIO_v2_6_0::basic_string_view", align 8
  %agg.tmp932 = alloca %"class.OpenImageIO_v2_6_0::basic_string_view", align 8
  %ref.tmp933 = alloca %"class.std::__cxx11::basic_string", align 8
  %agg.tmp945 = alloca %"class.OpenImageIO_v2_6_0::basic_string_view", align 8
  %date957 = alloca [24 x i8], align 16
  %agg.tmp959 = alloca %"class.OpenImageIO_v2_6_0::basic_string_view", align 8
  %agg.tmp968 = alloca %"class.OpenImageIO_v2_6_0::basic_string_view", align 8
  %agg.tmp969 = alloca %"class.OpenImageIO_v2_6_0::basic_string_view", align 8
  %filmedge = alloca [17 x i8], align 16
  %agg.tmp982 = alloca %"class.OpenImageIO_v2_6_0::basic_string_view", align 8
  %agg.tmp983 = alloca %"class.OpenImageIO_v2_6_0::basic_string_view", align 8
  %ref.tmp1045 = alloca %"class.std::__cxx11::basic_string", align 8
  %ref.tmp1046 = alloca i32, align 4
  %agg.tmp1058 = alloca %"class.OpenImageIO_v2_6_0::basic_string_view", align 8
  %agg.tmp1059 = alloca %"class.OpenImageIO_v2_6_0::basic_string_view", align 8
  %agg.tmp1093 = alloca %"class.OpenImageIO_v2_6_0::basic_string_view", align 8
  %agg.tmp1094 = alloca %"struct.OpenImageIO_v2_6_0::TypeDesc", align 4
  store ptr %this, ptr %this.addr, align 8
  store i32 %subimage, ptr %subimage.addr, align 4
  store i32 %miplevel, ptr %miplevel.addr, align 4
  %this1 = load ptr, ptr %this.addr, align 8
  %0 = load i32, ptr %miplevel.addr, align 4
  %cmp = icmp ne i32 %0, 0
  br i1 %cmp, label %if.then, label %if.end

if.then:                                          ; preds = %entry
  store i1 false, ptr %retval, align 1
  br label %return

if.end:                                           ; preds = %entry
  %1 = load i32, ptr %subimage.addr, align 4
  %m_subimage = getelementptr inbounds %"class.OpenImageIO_v2_6_0::DPXInput", ptr %this1, i32 0, i32 1
  %2 = load i32, ptr %m_subimage, align 8
  %cmp2 = icmp eq i32 %1, %2
  br i1 %cmp2, label %if.then3, label %if.end4

if.then3:                                         ; preds = %if.end
  store i1 true, ptr %retval, align 1
  br label %return

if.end4:                                          ; preds = %if.end
  %3 = load i32, ptr %subimage.addr, align 4
  %cmp5 = icmp slt i32 %3, 0
  br i1 %cmp5, label %if.then7, label %lor.lhs.false

lor.lhs.false:                                    ; preds = %if.end4
  %4 = load i32, ptr %subimage.addr, align 4
  %m_dpx = getelementptr inbounds %"class.OpenImageIO_v2_6_0::DPXInput", ptr %this1, i32 0, i32 3
  %header = getelementptr inbounds %"class.dpx::Reader", ptr %m_dpx, i32 0, i32 1
  %call = call noundef i32 @_ZNK3dpx13GenericHeader17ImageElementCountEv(ptr noundef nonnull align 4 dereferenceable(1664) %header)
  %cmp6 = icmp sge i32 %4, %call
  br i1 %cmp6, label %if.then7, label %if.end8

if.then7:                                         ; preds = %lor.lhs.false, %if.end4
  store i1 false, ptr %retval, align 1
  br label %return

if.end8:                                          ; preds = %lor.lhs.false
  %5 = load i32, ptr %subimage.addr, align 4
  %m_subimage9 = getelementptr inbounds %"class.OpenImageIO_v2_6_0::DPXInput", ptr %this1, i32 0, i32 1
  store i32 %5, ptr %m_subimage9, align 8
  call void @_ZN18OpenImageIO_v2_6_08TypeDescC2ENS0_8BASETYPEENS0_9AGGREGATEENS0_12VECSEMANTICSEi(ptr noundef nonnull align 4 dereferenceable(8) %typedesc, i32 noundef 0, i32 noundef 1, i32 noundef 0, i32 noundef 0) #5
  %m_dpx10 = getelementptr inbounds %"class.OpenImageIO_v2_6_0::DPXInput", ptr %this1, i32 0, i32 3
  %header11 = getelementptr inbounds %"class.dpx::Reader", ptr %m_dpx10, i32 0, i32 1
  %6 = load i32, ptr %subimage.addr, align 4
  %call12 = call noundef i32 @_ZNK3dpx13GenericHeader17ComponentDataSizeEi(ptr noundef nonnull align 4 dereferenceable(1664) %header11, i32 noundef %6)
  switch i32 %call12, label %sw.default [
    i32 0, label %sw.bb
    i32 1, label %sw.bb16
    i32 2, label %sw.bb23
    i32 3, label %sw.bb30
    i32 4, label %sw.bb32
  ]

sw.bb:                                            ; preds = %if.end8
  %m_dpx13 = getelementptr inbounds %"class.OpenImageIO_v2_6_0::DPXInput", ptr %this1, i32 0, i32 3
  %header14 = getelementptr inbounds %"class.dpx::Reader", ptr %m_dpx13, i32 0, i32 1
  %7 = load i32, ptr %subimage.addr, align 4
  %call15 = call noundef i32 @_ZNK3dpx13GenericHeader8DataSignEi(ptr noundef nonnull align 4 dereferenceable(1664) %header14, i32 noundef %7)
  %tobool = icmp ne i32 %call15, 0
  %cond = select i1 %tobool, i32 3, i32 2
  call void @_ZN18OpenImageIO_v2_6_08TypeDescC2ENS0_8BASETYPEENS0_9AGGREGATEENS0_12VECSEMANTICSEi(ptr noundef nonnull align 4 dereferenceable(8) %ref.tmp, i32 noundef %cond, i32 noundef 1, i32 noundef 0, i32 noundef 0) #5
  call void @llvm.memcpy.p0.p0.i64(ptr align 4 %typedesc, ptr align 4 %ref.tmp, i64 8, i1 false)
  br label %sw.epilog

sw.bb16:                                          ; preds = %if.end8
  %m_dpx18 = getelementptr inbounds %"class.OpenImageIO_v2_6_0::DPXInput", ptr %this1, i32 0, i32 3
  %header19 = getelementptr inbounds %"class.dpx::Reader", ptr %m_dpx18, i32 0, i32 1
  %8 = load i32, ptr %subimage.addr, align 4
  %call20 = call noundef i32 @_ZNK3dpx13GenericHeader8DataSignEi(ptr noundef nonnull align 4 dereferenceable(1664) %header19, i32 noundef %8)
  %tobool21 = icmp ne i32 %call20, 0
  %cond22 = select i1 %tobool21, i32 5, i32 4
  call void @_ZN18OpenImageIO_v2_6_08TypeDescC2ENS0_8BASETYPEENS0_9AGGREGATEENS0_12VECSEMANTICSEi(ptr noundef nonnull align 4 dereferenceable(8) %ref.tmp17, i32 noundef %cond22, i32 noundef 1, i32 noundef 0, i32 noundef 0) #5
  call void @llvm.memcpy.p0.p0.i64(ptr align 4 %typedesc, ptr align 4 %ref.tmp17, i64 8, i1 false)
  br label %sw.epilog

sw.bb23:                                          ; preds = %if.end8
  %m_dpx25 = getelementptr inbounds %"class.OpenImageIO_v2_6_0::DPXInput", ptr %this1, i32 0, i32 3
  %header26 = getelementptr inbounds %"class.dpx::Reader", ptr %m_dpx25, i32 0, i32 1
  %9 = load i32, ptr %subimage.addr, align 4
  %call27 = call noundef i32 @_ZNK3dpx13GenericHeader8DataSignEi(ptr noundef nonnull align 4 dereferenceable(1664) %header26, i32 noundef %9)
  %tobool28 = icmp ne i32 %call27, 0
  %cond29 = select i1 %tobool28, i32 7, i32 6
  call void @_ZN18OpenImageIO_v2_6_08TypeDescC2ENS0_8BASETYPEENS0_9AGGREGATEENS0_12VECSEMANTICSEi(ptr noundef nonnull align 4 dereferenceable(8) %ref.tmp24, i32 noundef %cond29, i32 noundef 1, i32 noundef 0, i32 noundef 0) #5
  call void @llvm.memcpy.p0.p0.i64(ptr align 4 %typedesc, ptr align 4 %ref.tmp24, i64 8, i1 false)
  br label %sw.epilog

sw.bb30:                                          ; preds = %if.end8
  call void @_ZN18OpenImageIO_v2_6_08TypeDescC2ENS0_8BASETYPEENS0_9AGGREGATEENS0_12VECSEMANTICSEi(ptr noundef nonnull align 4 dereferenceable(8) %ref.tmp31, i32 noundef 11, i32 noundef 1, i32 noundef 0, i32 noundef 0) #5
  call void @llvm.memcpy.p0.p0.i64(ptr align 4 %typedesc, ptr align 4 %ref.tmp31, i64 8, i1 false)
  br label %sw.epilog

sw.bb32:                                          ; preds = %if.end8
  call void @_ZN18OpenImageIO_v2_6_08TypeDescC2ENS0_8BASETYPEENS0_9AGGREGATEENS0_12VECSEMANTICSEi(ptr noundef nonnull align 4 dereferenceable(8) %ref.tmp33, i32 noundef 12, i32 noundef 1, i32 noundef 0, i32 noundef 0) #5
  call void @llvm.memcpy.p0.p0.i64(ptr align 4 %typedesc, ptr align 4 %ref.tmp33, i64 8, i1 false)
  br label %sw.epilog

sw.default:                                       ; preds = %if.end8
  call void @_ZNK18OpenImageIO_v2_6_010ImageInput6errorfIJEEEvPKcDpRKT_(ptr noundef nonnull align 8 dereferenceable(184) %this1, ptr noundef @.str.6)
  store i1 false, ptr %retval, align 1
  br label %return

sw.epilog:                                        ; preds = %sw.bb32, %sw.bb30, %sw.bb23, %sw.bb16, %sw.bb
  %m_dpx35 = getelementptr inbounds %"class.OpenImageIO_v2_6_0::DPXInput", ptr %this1, i32 0, i32 3
  %header36 = getelementptr inbounds %"class.dpx::Reader", ptr %m_dpx35, i32 0, i32 1
  %call37 = call noundef i32 @_ZNK3dpx6Header5WidthEv(ptr noundef nonnull align 4 dereferenceable(2049) %header36)
  %m_dpx38 = getelementptr inbounds %"class.OpenImageIO_v2_6_0::DPXInput", ptr %this1, i32 0, i32 3
  %header39 = getelementptr inbounds %"class.dpx::Reader", ptr %m_dpx38, i32 0, i32 1
  %call40 = call noundef i32 @_ZNK3dpx6Header6HeightEv(ptr noundef nonnull align 4 dereferenceable(2049) %header39)
  %m_dpx41 = getelementptr inbounds %"class.OpenImageIO_v2_6_0::DPXInput", ptr %this1, i32 0, i32 3
  %header42 = getelementptr inbounds %"class.dpx::Reader", ptr %m_dpx41, i32 0, i32 1
  %10 = load i32, ptr %subimage.addr, align 4
  %call43 = call noundef i32 @_ZNK3dpx13GenericHeader26ImageElementComponentCountEi(ptr noundef nonnull align 4 dereferenceable(1664) %header42, i32 noundef %10)
  call void @_ZN18OpenImageIO_v2_6_08TypeDescC2ERKS0_(ptr noundef nonnull align 4 dereferenceable(8) %agg.tmp, ptr noundef nonnull align 4 dereferenceable(8) %typedesc) #5
  call void @_ZN18OpenImageIO_v2_6_09ImageSpecC1EiiiNS_8TypeDescE(ptr noundef nonnull align 8 dereferenceable(160) %ref.tmp34, i32 noundef %call37, i32 noundef %call40, i32 noundef %call43, ptr noundef %agg.tmp) #5
  %m_spec = getelementptr inbounds %"class.OpenImageIO_v2_6_0::ImageInput", ptr %this1, i32 0, i32 1
  %call44 = call noundef nonnull align 8 dereferenceable(160) ptr @_ZN18OpenImageIO_v2_6_09ImageSpecaSEOS0_(ptr noundef nonnull align 8 dereferenceable(160) %m_spec, ptr noundef nonnull align 8 dereferenceable(160) %ref.tmp34) #5
  call void @_ZN18OpenImageIO_v2_6_09ImageSpecD2Ev(ptr noundef nonnull align 8 dereferenceable(160) %ref.tmp34) #5
  %m_dpx45 = getelementptr inbounds %"class.OpenImageIO_v2_6_0::DPXInput", ptr %this1, i32 0, i32 3
  %header46 = getelementptr inbounds %"class.dpx::Reader", ptr %m_dpx45, i32 0, i32 1
  %xOffset = getelementptr inbounds %"struct.dpx::GenericHeader", ptr %header46, i32 0, i32 21
  %11 = load i32, ptr %xOffset, align 8
  %call47 = call noundef i32 @_ZNSt14numeric_limitsIiE3maxEv() #5
  %cmp48 = icmp ule i32 %11, %call47
  br i1 %cmp48, label %if.then49, label %if.end54

if.then49:                                        ; preds = %sw.epilog
  %m_dpx50 = getelementptr inbounds %"class.OpenImageIO_v2_6_0::DPXInput", ptr %this1, i32 0, i32 3
  %header51 = getelementptr inbounds %"class.dpx::Reader", ptr %m_dpx50, i32 0, i32 1
  %xOffset52 = getelementptr inbounds %"struct.dpx::GenericHeader", ptr %header51, i32 0, i32 21
  %12 = load i32, ptr %xOffset52, align 8
  %m_spec53 = getelementptr inbounds %"class.OpenImageIO_v2_6_0::ImageInput", ptr %this1, i32 0, i32 1
  %x = getelementptr inbounds %"class.OpenImageIO_v2_6_0::ImageSpec", ptr %m_spec53, i32 0, i32 0
  store i32 %12, ptr %x, align 8
  br label %if.end54

if.end54:                                         ; preds = %if.then49, %sw.epilog
  %m_dpx55 = getelementptr inbounds %"class.OpenImageIO_v2_6_0::DPXInput", ptr %this1, i32 0, i32 3
  %header56 = getelementptr inbounds %"class.dpx::Reader", ptr %m_dpx55, i32 0, i32 1
  %yOffset = getelementptr inbounds %"struct.dpx::GenericHeader", ptr %header56, i32 0, i32 22
  %13 = load i32, ptr %yOffset, align 4
  %call57 = call noundef i32 @_ZNSt14numeric_limitsIiE3maxEv() #5
  %cmp58 = icmp ule i32 %13, %call57
  br i1 %cmp58, label %if.then59, label %if.end64

if.then59:                                        ; preds = %if.end54
  %m_dpx60 = getelementptr inbounds %"class.OpenImageIO_v2_6_0::DPXInput", ptr %this1, i32 0, i32 3
  %header61 = getelementptr inbounds %"class.dpx::Reader", ptr %m_dpx60, i32 0, i32 1
  %yOffset62 = getelementptr inbounds %"struct.dpx::GenericHeader", ptr %header61, i32 0, i32 22
  %14 = load i32, ptr %yOffset62, align 4
  %m_spec63 = getelementptr inbounds %"class.OpenImageIO_v2_6_0::ImageInput", ptr %this1, i32 0, i32 1
  %y = getelementptr inbounds %"class.OpenImageIO_v2_6_0::ImageSpec", ptr %m_spec63, i32 0, i32 1
  store i32 %14, ptr %y, align 4
  br label %if.end64

if.end64:                                         ; preds = %if.then59, %if.end54
  %m_dpx65 = getelementptr inbounds %"class.OpenImageIO_v2_6_0::DPXInput", ptr %this1, i32 0, i32 3
  %header66 = getelementptr inbounds %"class.dpx::Reader", ptr %m_dpx65, i32 0, i32 1
  %xOriginalSize = getelementptr inbounds %"struct.dpx::GenericHeader", ptr %header66, i32 0, i32 25
  %15 = load i32, ptr %xOriginalSize, align 8
  %cmp67 = icmp sgt i32 %15, 0
  br i1 %cmp67, label %if.then68, label %if.end73

if.then68:                                        ; preds = %if.end64
  %m_dpx69 = getelementptr inbounds %"class.OpenImageIO_v2_6_0::DPXInput", ptr %this1, i32 0, i32 3
  %header70 = getelementptr inbounds %"class.dpx::Reader", ptr %m_dpx69, i32 0, i32 1
  %xOriginalSize71 = getelementptr inbounds %"struct.dpx::GenericHeader", ptr %header70, i32 0, i32 25
  %16 = load i32, ptr %xOriginalSize71, align 8
  %m_spec72 = getelementptr inbounds %"class.OpenImageIO_v2_6_0::ImageInput", ptr %this1, i32 0, i32 1
  %full_width = getelementptr inbounds %"class.OpenImageIO_v2_6_0::ImageSpec", ptr %m_spec72, i32 0, i32 9
  store i32 %16, ptr %full_width, align 4
  br label %if.end73

if.end73:                                         ; preds = %if.then68, %if.end64
  %m_dpx74 = getelementptr inbounds %"class.OpenImageIO_v2_6_0::DPXInput", ptr %this1, i32 0, i32 3
  %header75 = getelementptr inbounds %"class.dpx::Reader", ptr %m_dpx74, i32 0, i32 1
  %yOriginalSize = getelementptr inbounds %"struct.dpx::GenericHeader", ptr %header75, i32 0, i32 26
  %17 = load i32, ptr %yOriginalSize, align 4
  %cmp76 = icmp sgt i32 %17, 0
  br i1 %cmp76, label %if.then77, label %if.end82

if.then77:                                        ; preds = %if.end73
  %m_dpx78 = getelementptr inbounds %"class.OpenImageIO_v2_6_0::DPXInput", ptr %this1, i32 0, i32 3
  %header79 = getelementptr inbounds %"class.dpx::Reader", ptr %m_dpx78, i32 0, i32 1
  %yOriginalSize80 = getelementptr inbounds %"struct.dpx::GenericHeader", ptr %header79, i32 0, i32 26
  %18 = load i32, ptr %yOriginalSize80, align 4
  %m_spec81 = getelementptr inbounds %"class.OpenImageIO_v2_6_0::ImageInput", ptr %this1, i32 0, i32 1
  %full_height = getelementptr inbounds %"class.OpenImageIO_v2_6_0::ImageSpec", ptr %m_spec81, i32 0, i32 10
  store i32 %18, ptr %full_height, align 8
  br label %if.end82

if.end82:                                         ; preds = %if.then77, %if.end73
  %m_spec83 = getelementptr inbounds %"class.OpenImageIO_v2_6_0::ImageInput", ptr %this1, i32 0, i32 1
  %channelnames = getelementptr inbounds %"class.OpenImageIO_v2_6_0::ImageSpec", ptr %m_spec83, i32 0, i32 18
  call void @_ZNSt6vectorINSt7__cxx1112basic_stringIcSt11char_traitsIcESaIcEEESaIS5_EE5clearEv(ptr noundef nonnull align 8 dereferenceable(24) %channelnames) #5
  %m_dpx84 = getelementptr inbounds %"class.OpenImageIO_v2_6_0::DPXInput", ptr %this1, i32 0, i32 3
  %header85 = getelementptr inbounds %"class.dpx::Reader", ptr %m_dpx84, i32 0, i32 1
  %19 = load i32, ptr %subimage.addr, align 4
  %call86 = call noundef i32 @_ZNK3dpx13GenericHeader15ImageDescriptorEi(ptr noundef nonnull align 4 dereferenceable(1664) %header85, i32 noundef %19)
  switch i32 %call86, label %sw.default184 [
    i32 1, label %sw.bb87
    i32 2, label %sw.bb91
    i32 3, label %sw.bb95
    i32 4, label %sw.bb99
    i32 6, label %sw.bb104
    i32 8, label %sw.bb108
    i32 50, label %sw.bb113
    i32 51, label %sw.bb113
    i32 52, label %sw.bb113
    i32 100, label %sw.bb115
    i32 101, label %sw.bb127
    i32 102, label %sw.bb147
    i32 103, label %sw.bb163
  ]

sw.bb87:                                          ; preds = %if.end82
  %m_spec88 = getelementptr inbounds %"class.OpenImageIO_v2_6_0::ImageInput", ptr %this1, i32 0, i32 1
  %channelnames89 = getelementptr inbounds %"class.OpenImageIO_v2_6_0::ImageSpec", ptr %m_spec88, i32 0, i32 18
  %call90 = call noundef nonnull align 8 dereferenceable(32) ptr @_ZNSt6vectorINSt7__cxx1112basic_stringIcSt11char_traitsIcESaIcEEESaIS5_EE12emplace_backIJRA2_KcEEERS5_DpOT_(ptr noundef nonnull align 8 dereferenceable(24) %channelnames89, ptr noundef nonnull align 1 dereferenceable(2) @.str.7)
  br label %sw.epilog191

sw.bb91:                                          ; preds = %if.end82
  %m_spec92 = getelementptr inbounds %"class.OpenImageIO_v2_6_0::ImageInput", ptr %this1, i32 0, i32 1
  %channelnames93 = getelementptr inbounds %"class.OpenImageIO_v2_6_0::ImageSpec", ptr %m_spec92, i32 0, i32 18
  %call94 = call noundef nonnull align 8 dereferenceable(32) ptr @_ZNSt6vectorINSt7__cxx1112basic_stringIcSt11char_traitsIcESaIcEEESaIS5_EE12emplace_backIJRA2_KcEEERS5_DpOT_(ptr noundef nonnull align 8 dereferenceable(24) %channelnames93, ptr noundef nonnull align 1 dereferenceable(2) @.str.8)
  br label %sw.epilog191

sw.bb95:                                          ; preds = %if.end82
  %m_spec96 = getelementptr inbounds %"class.OpenImageIO_v2_6_0::ImageInput", ptr %this1, i32 0, i32 1
  %channelnames97 = getelementptr inbounds %"class.OpenImageIO_v2_6_0::ImageSpec", ptr %m_spec96, i32 0, i32 18
  %call98 = call noundef nonnull align 8 dereferenceable(32) ptr @_ZNSt6vectorINSt7__cxx1112basic_stringIcSt11char_traitsIcESaIcEEESaIS5_EE12emplace_backIJRA2_KcEEERS5_DpOT_(ptr noundef nonnull align 8 dereferenceable(24) %channelnames97, ptr noundef nonnull align 1 dereferenceable(2) @.str.9)
  br label %sw.epilog191

sw.bb99:                                          ; preds = %if.end82
  %m_spec100 = getelementptr inbounds %"class.OpenImageIO_v2_6_0::ImageInput", ptr %this1, i32 0, i32 1
  %channelnames101 = getelementptr inbounds %"class.OpenImageIO_v2_6_0::ImageSpec", ptr %m_spec100, i32 0, i32 18
  %call102 = call noundef nonnull align 8 dereferenceable(32) ptr @_ZNSt6vectorINSt7__cxx1112basic_stringIcSt11char_traitsIcESaIcEEESaIS5_EE12emplace_backIJRA2_KcEEERS5_DpOT_(ptr noundef nonnull align 8 dereferenceable(24) %channelnames101, ptr noundef nonnull align 1 dereferenceable(2) @.str.10)
  %m_spec103 = getelementptr inbounds %"class.OpenImageIO_v2_6_0::ImageInput", ptr %this1, i32 0, i32 1
  %alpha_channel = getelementptr inbounds %"class.OpenImageIO_v2_6_0::ImageSpec", ptr %m_spec103, i32 0, i32 19
  store i32 0, ptr %alpha_channel, align 8
  br label %sw.epilog191

sw.bb104:                                         ; preds = %if.end82
  %m_spec105 = getelementptr inbounds %"class.OpenImageIO_v2_6_0::ImageInput", ptr %this1, i32 0, i32 1
  %channelnames106 = getelementptr inbounds %"class.OpenImageIO_v2_6_0::ImageSpec", ptr %m_spec105, i32 0, i32 18
  %call107 = call noundef nonnull align 8 dereferenceable(32) ptr @_ZNSt6vectorINSt7__cxx1112basic_stringIcSt11char_traitsIcESaIcEEESaIS5_EE12emplace_backIJRA2_KcEEERS5_DpOT_(ptr noundef nonnull align 8 dereferenceable(24) %channelnames106, ptr noundef nonnull align 1 dereferenceable(2) @.str.11)
  br label %sw.epilog191

sw.bb108:                                         ; preds = %if.end82
  %m_spec109 = getelementptr inbounds %"class.OpenImageIO_v2_6_0::ImageInput", ptr %this1, i32 0, i32 1
  %channelnames110 = getelementptr inbounds %"class.OpenImageIO_v2_6_0::ImageSpec", ptr %m_spec109, i32 0, i32 18
  %call111 = call noundef nonnull align 8 dereferenceable(32) ptr @_ZNSt6vectorINSt7__cxx1112basic_stringIcSt11char_traitsIcESaIcEEESaIS5_EE12emplace_backIJRA2_KcEEERS5_DpOT_(ptr noundef nonnull align 8 dereferenceable(24) %channelnames110, ptr noundef nonnull align 1 dereferenceable(2) @.str.12)
  %m_spec112 = getelementptr inbounds %"class.OpenImageIO_v2_6_0::ImageInput", ptr %this1, i32 0, i32 1
  %z_channel = getelementptr inbounds %"class.OpenImageIO_v2_6_0::ImageSpec", ptr %m_spec112, i32 0, i32 20
  store i32 0, ptr %z_channel, align 4
  br label %sw.epilog191

sw.bb113:                                         ; preds = %if.end82, %if.end82, %if.end82
  %m_spec114 = getelementptr inbounds %"class.OpenImageIO_v2_6_0::ImageInput", ptr %this1, i32 0, i32 1
  call void @_ZN18OpenImageIO_v2_6_09ImageSpec21default_channel_namesEv(ptr noundef nonnull align 8 dereferenceable(160) %m_spec114) #5
  br label %sw.epilog191

sw.bb115:                                         ; preds = %if.end82
  %m_rawcolor = getelementptr inbounds %"class.OpenImageIO_v2_6_0::DPXInput", ptr %this1, i32 0, i32 5
  %20 = load i8, ptr %m_rawcolor, align 8
  %tobool116 = trunc i8 %20 to i1
  br i1 %tobool116, label %if.then117, label %if.else

if.then117:                                       ; preds = %sw.bb115
  %m_spec118 = getelementptr inbounds %"class.OpenImageIO_v2_6_0::ImageInput", ptr %this1, i32 0, i32 1
  %channelnames119 = getelementptr inbounds %"class.OpenImageIO_v2_6_0::ImageSpec", ptr %m_spec118, i32 0, i32 18
  %call120 = call noundef nonnull align 8 dereferenceable(32) ptr @_ZNSt6vectorINSt7__cxx1112basic_stringIcSt11char_traitsIcESaIcEEESaIS5_EE12emplace_backIJRA5_KcEEERS5_DpOT_(ptr noundef nonnull align 8 dereferenceable(24) %channelnames119, ptr noundef nonnull align 1 dereferenceable(5) @.str.13)
  %m_spec121 = getelementptr inbounds %"class.OpenImageIO_v2_6_0::ImageInput", ptr %this1, i32 0, i32 1
  %channelnames122 = getelementptr inbounds %"class.OpenImageIO_v2_6_0::ImageSpec", ptr %m_spec121, i32 0, i32 18
  %call123 = call noundef nonnull align 8 dereferenceable(32) ptr @_ZNSt6vectorINSt7__cxx1112basic_stringIcSt11char_traitsIcESaIcEEESaIS5_EE12emplace_backIJRA2_KcEEERS5_DpOT_(ptr noundef nonnull align 8 dereferenceable(24) %channelnames122, ptr noundef nonnull align 1 dereferenceable(2) @.str.11)
  br label %if.end126

if.else:                                          ; preds = %sw.bb115
  %m_spec124 = getelementptr inbounds %"class.OpenImageIO_v2_6_0::ImageInput", ptr %this1, i32 0, i32 1
  %nchannels = getelementptr inbounds %"class.OpenImageIO_v2_6_0::ImageSpec", ptr %m_spec124, i32 0, i32 15
  store i32 3, ptr %nchannels, align 4
  %m_spec125 = getelementptr inbounds %"class.OpenImageIO_v2_6_0::ImageInput", ptr %this1, i32 0, i32 1
  call void @_ZN18OpenImageIO_v2_6_09ImageSpec21default_channel_namesEv(ptr noundef nonnull align 8 dereferenceable(160) %m_spec125) #5
  br label %if.end126

if.end126:                                        ; preds = %if.else, %if.then117
  br label %sw.epilog191

sw.bb127:                                         ; preds = %if.end82
  %m_rawcolor128 = getelementptr inbounds %"class.OpenImageIO_v2_6_0::DPXInput", ptr %this1, i32 0, i32 5
  %21 = load i8, ptr %m_rawcolor128, align 8
  %tobool129 = trunc i8 %21 to i1
  br i1 %tobool129, label %if.then130, label %if.else142

if.then130:                                       ; preds = %sw.bb127
  %m_spec131 = getelementptr inbounds %"class.OpenImageIO_v2_6_0::ImageInput", ptr %this1, i32 0, i32 1
  %channelnames132 = getelementptr inbounds %"class.OpenImageIO_v2_6_0::ImageSpec", ptr %m_spec131, i32 0, i32 18
  %call133 = call noundef nonnull align 8 dereferenceable(32) ptr @_ZNSt6vectorINSt7__cxx1112basic_stringIcSt11char_traitsIcESaIcEEESaIS5_EE12emplace_backIJRA5_KcEEERS5_DpOT_(ptr noundef nonnull align 8 dereferenceable(24) %channelnames132, ptr noundef nonnull align 1 dereferenceable(5) @.str.13)
  %m_spec134 = getelementptr inbounds %"class.OpenImageIO_v2_6_0::ImageInput", ptr %this1, i32 0, i32 1
  %channelnames135 = getelementptr inbounds %"class.OpenImageIO_v2_6_0::ImageSpec", ptr %m_spec134, i32 0, i32 18
  %call136 = call noundef nonnull align 8 dereferenceable(32) ptr @_ZNSt6vectorINSt7__cxx1112basic_stringIcSt11char_traitsIcESaIcEEESaIS5_EE12emplace_backIJRA2_KcEEERS5_DpOT_(ptr noundef nonnull align 8 dereferenceable(24) %channelnames135, ptr noundef nonnull align 1 dereferenceable(2) @.str.11)
  %m_spec137 = getelementptr inbounds %"class.OpenImageIO_v2_6_0::ImageInput", ptr %this1, i32 0, i32 1
  %channelnames138 = getelementptr inbounds %"class.OpenImageIO_v2_6_0::ImageSpec", ptr %m_spec137, i32 0, i32 18
  %call139 = call noundef nonnull align 8 dereferenceable(32) ptr @_ZNSt6vectorINSt7__cxx1112basic_stringIcSt11char_traitsIcESaIcEEESaIS5_EE12emplace_backIJRA2_KcEEERS5_DpOT_(ptr noundef nonnull align 8 dereferenceable(24) %channelnames138, ptr noundef nonnull align 1 dereferenceable(2) @.str.10)
  %m_spec140 = getelementptr inbounds %"class.OpenImageIO_v2_6_0::ImageInput", ptr %this1, i32 0, i32 1
  %alpha_channel141 = getelementptr inbounds %"class.OpenImageIO_v2_6_0::ImageSpec", ptr %m_spec140, i32 0, i32 19
  store i32 2, ptr %alpha_channel141, align 8
  br label %if.end146

if.else142:                                       ; preds = %sw.bb127
  %m_spec143 = getelementptr inbounds %"class.OpenImageIO_v2_6_0::ImageInput", ptr %this1, i32 0, i32 1
  %nchannels144 = getelementptr inbounds %"class.OpenImageIO_v2_6_0::ImageSpec", ptr %m_spec143, i32 0, i32 15
  store i32 4, ptr %nchannels144, align 4
  %m_spec145 = getelementptr inbounds %"class.OpenImageIO_v2_6_0::ImageInput", ptr %this1, i32 0, i32 1
  call void @_ZN18OpenImageIO_v2_6_09ImageSpec21default_channel_namesEv(ptr noundef nonnull align 8 dereferenceable(160) %m_spec145) #5
  br label %if.end146

if.end146:                                        ; preds = %if.else142, %if.then130
  br label %sw.epilog191

sw.bb147:                                         ; preds = %if.end82
  %m_rawcolor148 = getelementptr inbounds %"class.OpenImageIO_v2_6_0::DPXInput", ptr %this1, i32 0, i32 5
  %22 = load i8, ptr %m_rawcolor148, align 8
  %tobool149 = trunc i8 %22 to i1
  br i1 %tobool149, label %if.then150, label %if.else160

if.then150:                                       ; preds = %sw.bb147
  %m_spec151 = getelementptr inbounds %"class.OpenImageIO_v2_6_0::ImageInput", ptr %this1, i32 0, i32 1
  %channelnames152 = getelementptr inbounds %"class.OpenImageIO_v2_6_0::ImageSpec", ptr %m_spec151, i32 0, i32 18
  %call153 = call noundef nonnull align 8 dereferenceable(32) ptr @_ZNSt6vectorINSt7__cxx1112basic_stringIcSt11char_traitsIcESaIcEEESaIS5_EE12emplace_backIJRA3_KcEEERS5_DpOT_(ptr noundef nonnull align 8 dereferenceable(24) %channelnames152, ptr noundef nonnull align 1 dereferenceable(3) @.str.14)
  %m_spec154 = getelementptr inbounds %"class.OpenImageIO_v2_6_0::ImageInput", ptr %this1, i32 0, i32 1
  %channelnames155 = getelementptr inbounds %"class.OpenImageIO_v2_6_0::ImageSpec", ptr %m_spec154, i32 0, i32 18
  %call156 = call noundef nonnull align 8 dereferenceable(32) ptr @_ZNSt6vectorINSt7__cxx1112basic_stringIcSt11char_traitsIcESaIcEEESaIS5_EE12emplace_backIJRA2_KcEEERS5_DpOT_(ptr noundef nonnull align 8 dereferenceable(24) %channelnames155, ptr noundef nonnull align 1 dereferenceable(2) @.str.11)
  %m_spec157 = getelementptr inbounds %"class.OpenImageIO_v2_6_0::ImageInput", ptr %this1, i32 0, i32 1
  %channelnames158 = getelementptr inbounds %"class.OpenImageIO_v2_6_0::ImageSpec", ptr %m_spec157, i32 0, i32 18
  %call159 = call noundef nonnull align 8 dereferenceable(32) ptr @_ZNSt6vectorINSt7__cxx1112basic_stringIcSt11char_traitsIcESaIcEEESaIS5_EE12emplace_backIJRA3_KcEEERS5_DpOT_(ptr noundef nonnull align 8 dereferenceable(24) %channelnames158, ptr noundef nonnull align 1 dereferenceable(3) @.str.15)
  br label %if.end162

if.else160:                                       ; preds = %sw.bb147
  %m_spec161 = getelementptr inbounds %"class.OpenImageIO_v2_6_0::ImageInput", ptr %this1, i32 0, i32 1
  call void @_ZN18OpenImageIO_v2_6_09ImageSpec21default_channel_namesEv(ptr noundef nonnull align 8 dereferenceable(160) %m_spec161) #5
  br label %if.end162

if.end162:                                        ; preds = %if.else160, %if.then150
  br label %sw.epilog191

sw.bb163:                                         ; preds = %if.end82
  %m_rawcolor164 = getelementptr inbounds %"class.OpenImageIO_v2_6_0::DPXInput", ptr %this1, i32 0, i32 5
  %23 = load i8, ptr %m_rawcolor164, align 8
  %tobool165 = trunc i8 %23 to i1
  br i1 %tobool165, label %if.then166, label %if.else181

if.then166:                                       ; preds = %sw.bb163
  %m_spec167 = getelementptr inbounds %"class.OpenImageIO_v2_6_0::ImageInput", ptr %this1, i32 0, i32 1
  %channelnames168 = getelementptr inbounds %"class.OpenImageIO_v2_6_0::ImageSpec", ptr %m_spec167, i32 0, i32 18
  %call169 = call noundef nonnull align 8 dereferenceable(32) ptr @_ZNSt6vectorINSt7__cxx1112basic_stringIcSt11char_traitsIcESaIcEEESaIS5_EE12emplace_backIJRA3_KcEEERS5_DpOT_(ptr noundef nonnull align 8 dereferenceable(24) %channelnames168, ptr noundef nonnull align 1 dereferenceable(3) @.str.14)
  %m_spec170 = getelementptr inbounds %"class.OpenImageIO_v2_6_0::ImageInput", ptr %this1, i32 0, i32 1
  %channelnames171 = getelementptr inbounds %"class.OpenImageIO_v2_6_0::ImageSpec", ptr %m_spec170, i32 0, i32 18
  %call172 = call noundef nonnull align 8 dereferenceable(32) ptr @_ZNSt6vectorINSt7__cxx1112basic_stringIcSt11char_traitsIcESaIcEEESaIS5_EE12emplace_backIJRA2_KcEEERS5_DpOT_(ptr noundef nonnull align 8 dereferenceable(24) %channelnames171, ptr noundef nonnull align 1 dereferenceable(2) @.str.11)
  %m_spec173 = getelementptr inbounds %"class.OpenImageIO_v2_6_0::ImageInput", ptr %this1, i32 0, i32 1
  %channelnames174 = getelementptr inbounds %"class.OpenImageIO_v2_6_0::ImageSpec", ptr %m_spec173, i32 0, i32 18
  %call175 = call noundef nonnull align 8 dereferenceable(32) ptr @_ZNSt6vectorINSt7__cxx1112basic_stringIcSt11char_traitsIcESaIcEEESaIS5_EE12emplace_backIJRA3_KcEEERS5_DpOT_(ptr noundef nonnull align 8 dereferenceable(24) %channelnames174, ptr noundef nonnull align 1 dereferenceable(3) @.str.15)
  %m_spec176 = getelementptr inbounds %"class.OpenImageIO_v2_6_0::ImageInput", ptr %this1, i32 0, i32 1
  %channelnames177 = getelementptr inbounds %"class.OpenImageIO_v2_6_0::ImageSpec", ptr %m_spec176, i32 0, i32 18
  %call178 = call noundef nonnull align 8 dereferenceable(32) ptr @_ZNSt6vectorINSt7__cxx1112basic_stringIcSt11char_traitsIcESaIcEEESaIS5_EE12emplace_backIJRA2_KcEEERS5_DpOT_(ptr noundef nonnull align 8 dereferenceable(24) %channelnames177, ptr noundef nonnull align 1 dereferenceable(2) @.str.10)
  %m_spec179 = getelementptr inbounds %"class.OpenImageIO_v2_6_0::ImageInput", ptr %this1, i32 0, i32 1
  %alpha_channel180 = getelementptr inbounds %"class.OpenImageIO_v2_6_0::ImageSpec", ptr %m_spec179, i32 0, i32 19
  store i32 3, ptr %alpha_channel180, align 8
  br label %if.end183

if.else181:                                       ; preds = %sw.bb163
  %m_spec182 = getelementptr inbounds %"class.OpenImageIO_v2_6_0::ImageInput", ptr %this1, i32 0, i32 1
  call void @_ZN18OpenImageIO_v2_6_09ImageSpec21default_channel_namesEv(ptr noundef nonnull align 8 dereferenceable(160) %m_spec182) #5
  br label %if.end183

if.end183:                                        ; preds = %if.else181, %if.then166
  br label %sw.epilog191

sw.default184:                                    ; preds = %if.end82
  store i32 0, ptr %i, align 4
  br label %for.cond

for.cond:                                         ; preds = %for.inc, %sw.default184
  %24 = load i32, ptr %i, align 4
  %m_dpx185 = getelementptr inbounds %"class.OpenImageIO_v2_6_0::DPXInput", ptr %this1, i32 0, i32 3
  %header186 = getelementptr inbounds %"class.dpx::Reader", ptr %m_dpx185, i32 0, i32 1
  %25 = load i32, ptr %subimage.addr, align 4
  %call187 = call noundef i32 @_ZNK3dpx13GenericHeader26ImageElementComponentCountEi(ptr noundef nonnull align 4 dereferenceable(1664) %header186, i32 noundef %25)
  %cmp188 = icmp slt i32 %24, %call187
  br i1 %cmp188, label %for.body, label %for.end

for.body:                                         ; preds = %for.cond
  call void @_ZN3fmt2v87sprintfIA10_cJiEcEENSt7__cxx1112basic_stringIT1_St11char_traitsIS5_ESaIS5_EEERKT_DpRKT0_(ptr sret(%"class.std::__cxx11::basic_string") align 8 %ch, ptr noundef nonnull align 1 dereferenceable(10) @.str.16, ptr noundef nonnull align 4 dereferenceable(4) %i)
  %m_spec189 = getelementptr inbounds %"class.OpenImageIO_v2_6_0::ImageInput", ptr %this1, i32 0, i32 1
  %channelnames190 = getelementptr inbounds %"class.OpenImageIO_v2_6_0::ImageSpec", ptr %m_spec189, i32 0, i32 18
  invoke void @_ZNSt6vectorINSt7__cxx1112basic_stringIcSt11char_traitsIcESaIcEEESaIS5_EE9push_backERKS5_(ptr noundef nonnull align 8 dereferenceable(24) %channelnames190, ptr noundef nonnull align 8 dereferenceable(32) %ch)
          to label %invoke.cont unwind label %lpad

invoke.cont:                                      ; preds = %for.body
  call void @_ZNSt7__cxx1112basic_stringIcSt11char_traitsIcESaIcEED1Ev(ptr noundef nonnull align 8 dereferenceable(32) %ch) #5
  br label %for.inc

for.inc:                                          ; preds = %invoke.cont
  %26 = load i32, ptr %i, align 4
  %inc = add nsw i32 %26, 1
  store i32 %inc, ptr %i, align 4
  br label %for.cond, !llvm.loop !4

lpad:                                             ; preds = %for.body
  %27 = landingpad { ptr, i32 }
          cleanup
  %28 = extractvalue { ptr, i32 } %27, 0
  store ptr %28, ptr %exn.slot, align 8
  %29 = extractvalue { ptr, i32 } %27, 1
  store i32 %29, ptr %ehselector.slot, align 4
  call void @_ZNSt7__cxx1112basic_stringIcSt11char_traitsIcESaIcEED1Ev(ptr noundef nonnull align 8 dereferenceable(32) %ch) #5
  br label %eh.resume

for.end:                                          ; preds = %for.cond
  br label %sw.epilog191

sw.epilog191:                                     ; preds = %for.end, %if.end183, %if.end162, %if.end146, %if.end126, %sw.bb113, %sw.bb108, %sw.bb104, %sw.bb99, %sw.bb95, %sw.bb91, %sw.bb87
  %m_spec192 = getelementptr inbounds %"class.OpenImageIO_v2_6_0::ImageInput", ptr %this1, i32 0, i32 1
  call void @_ZN18OpenImageIO_v2_6_017basic_string_viewIcSt11char_traitsIcEEC2EPKc(ptr noundef nonnull align 8 dereferenceable(16) %agg.tmp193, ptr noundef @.str.17) #5
  %m_dpx194 = getelementptr inbounds %"class.OpenImageIO_v2_6_0::DPXInput", ptr %this1, i32 0, i32 3
  %header195 = getelementptr inbounds %"class.dpx::Reader", ptr %m_dpx194, i32 0, i32 1
  %30 = load i32, ptr %subimage.addr, align 4
  %call196 = call noundef zeroext i8 @_ZNK3dpx13GenericHeader8BitDepthEi(ptr noundef nonnull align 4 dereferenceable(1664) %header195, i32 noundef %30)
  %conv = zext i8 %call196 to i32
  call void @_ZN18OpenImageIO_v2_6_09ImageSpec9attributeENS_17basic_string_viewIcSt11char_traitsIcEEEi(ptr noundef nonnull align 8 dereferenceable(160) %m_spec192, ptr noundef %agg.tmp193, i32 noundef %conv)
  %m_dpx197 = getelementptr inbounds %"class.OpenImageIO_v2_6_0::DPXInput", ptr %this1, i32 0, i32 3
  %header198 = getelementptr inbounds %"class.dpx::Reader", ptr %m_dpx197, i32 0, i32 1
  %call199 = call noundef i32 @_ZNK3dpx13GenericHeader16ImageOrientationEv(ptr noundef nonnull align 4 dereferenceable(1664) %header198)
  switch i32 %call199, label %sw.default208 [
    i32 0, label %sw.bb200
    i32 1, label %sw.bb201
    i32 2, label %sw.bb202
    i32 3, label %sw.bb203
    i32 4, label %sw.bb204
    i32 5, label %sw.bb205
    i32 6, label %sw.bb206
    i32 7, label %sw.bb207
  ]

sw.bb200:                                         ; preds = %sw.epilog191
  store i32 1, ptr %orientation, align 4
  br label %sw.epilog209

sw.bb201:                                         ; preds = %sw.epilog191
  store i32 2, ptr %orientation, align 4
  br label %sw.epilog209

sw.bb202:                                         ; preds = %sw.epilog191
  store i32 4, ptr %orientation, align 4
  br label %sw.epilog209

sw.bb203:                                         ; preds = %sw.epilog191
  store i32 3, ptr %orientation, align 4
  br label %sw.epilog209

sw.bb204:                                         ; preds = %sw.epilog191
  store i32 5, ptr %orientation, align 4
  br label %sw.epilog209

sw.bb205:                                         ; preds = %sw.epilog191
  store i32 6, ptr %orientation, align 4
  br label %sw.epilog209

sw.bb206:                                         ; preds = %sw.epilog191
  store i32 8, ptr %orientation, align 4
  br label %sw.epilog209

sw.bb207:                                         ; preds = %sw.epilog191
  store i32 7, ptr %orientation, align 4
  br label %sw.epilog209

sw.default208:                                    ; preds = %sw.epilog191
  store i32 0, ptr %orientation, align 4
  br label %sw.epilog209

sw.epilog209:                                     ; preds = %sw.default208, %sw.bb207, %sw.bb206, %sw.bb205, %sw.bb204, %sw.bb203, %sw.bb202, %sw.bb201, %sw.bb200
  %m_spec210 = getelementptr inbounds %"class.OpenImageIO_v2_6_0::ImageInput", ptr %this1, i32 0, i32 1
  call void @_ZN18OpenImageIO_v2_6_017basic_string_viewIcSt11char_traitsIcEEC2EPKc(ptr noundef nonnull align 8 dereferenceable(16) %agg.tmp211, ptr noundef @.str.18) #5
  %31 = load i32, ptr %orientation, align 4
  call void @_ZN18OpenImageIO_v2_6_09ImageSpec9attributeENS_17basic_string_viewIcSt11char_traitsIcEEEi(ptr noundef nonnull align 8 dereferenceable(160) %m_spec210, ptr noundef %agg.tmp211, i32 noundef %31)
  %m_dpx212 = getelementptr inbounds %"class.OpenImageIO_v2_6_0::DPXInput", ptr %this1, i32 0, i32 3
  %header213 = getelementptr inbounds %"class.dpx::Reader", ptr %m_dpx212, i32 0, i32 1
  %32 = load i32, ptr %subimage.addr, align 4
  %call214 = call noundef i32 @_ZNK3dpx13GenericHeader8TransferEi(ptr noundef nonnull align 4 dereferenceable(1664) %header213, i32 noundef %32)
  switch i32 %call214, label %sw.default251 [
    i32 2, label %sw.bb215
    i32 3, label %sw.bb219
    i32 6, label %sw.bb223
    i32 0, label %sw.bb227
  ]

sw.bb215:                                         ; preds = %sw.epilog209
  %m_spec216 = getelementptr inbounds %"class.OpenImageIO_v2_6_0::ImageInput", ptr %this1, i32 0, i32 1
  call void @_ZN18OpenImageIO_v2_6_017basic_string_viewIcSt11char_traitsIcEEC2EPKc(ptr noundef nonnull align 8 dereferenceable(16) %agg.tmp217, ptr noundef @.str.19) #5
  call void @_ZN18OpenImageIO_v2_6_017basic_string_viewIcSt11char_traitsIcEEC2EPKc(ptr noundef nonnull align 8 dereferenceable(16) %agg.tmp218, ptr noundef @.str.20) #5
  call void @_ZN18OpenImageIO_v2_6_09ImageSpec9attributeENS_17basic_string_viewIcSt11char_traitsIcEEES4_(ptr noundef nonnull align 8 dereferenceable(160) %m_spec216, ptr noundef %agg.tmp217, ptr noundef %agg.tmp218)
  br label %sw.epilog252

sw.bb219:                                         ; preds = %sw.epilog209
  %m_spec220 = getelementptr inbounds %"class.OpenImageIO_v2_6_0::ImageInput", ptr %this1, i32 0, i32 1
  call void @_ZN18OpenImageIO_v2_6_017basic_string_viewIcSt11char_traitsIcEEC2EPKc(ptr noundef nonnull align 8 dereferenceable(16) %agg.tmp221, ptr noundef @.str.19) #5
  call void @_ZN18OpenImageIO_v2_6_017basic_string_viewIcSt11char_traitsIcEEC2EPKc(ptr noundef nonnull align 8 dereferenceable(16) %agg.tmp222, ptr noundef @.str.21) #5
  call void @_ZN18OpenImageIO_v2_6_09ImageSpec9attributeENS_17basic_string_viewIcSt11char_traitsIcEEES4_(ptr noundef nonnull align 8 dereferenceable(160) %m_spec220, ptr noundef %agg.tmp221, ptr noundef %agg.tmp222)
  br label %sw.epilog252

sw.bb223:                                         ; preds = %sw.epilog209
  %m_spec224 = getelementptr inbounds %"class.OpenImageIO_v2_6_0::ImageInput", ptr %this1, i32 0, i32 1
  call void @_ZN18OpenImageIO_v2_6_017basic_string_viewIcSt11char_traitsIcEEC2EPKc(ptr noundef nonnull align 8 dereferenceable(16) %agg.tmp225, ptr noundef @.str.19) #5
  call void @_ZN18OpenImageIO_v2_6_017basic_string_viewIcSt11char_traitsIcEEC2EPKc(ptr noundef nonnull align 8 dereferenceable(16) %agg.tmp226, ptr noundef @.str.22) #5
  call void @_ZN18OpenImageIO_v2_6_09ImageSpec9attributeENS_17basic_string_viewIcSt11char_traitsIcEEES4_(ptr noundef nonnull align 8 dereferenceable(160) %m_spec224, ptr noundef %agg.tmp225, ptr noundef %agg.tmp226)
  br label %sw.epilog252

sw.bb227:                                         ; preds = %sw.epilog209
  %m_dpx228 = getelementptr inbounds %"class.OpenImageIO_v2_6_0::DPXInput", ptr %this1, i32 0, i32 3
  %header229 = getelementptr inbounds %"class.dpx::Reader", ptr %m_dpx228, i32 0, i32 1
  %add.ptr = getelementptr inbounds i8, ptr %header229, i64 1664
  %call230 = call noundef float @_ZNK3dpx14IndustryHeader5GammaEv(ptr noundef nonnull align 4 dereferenceable(384) %add.ptr)
  %call231 = call noundef zeroext i1 @_ZSt5isnanf(float noundef %call230)
  br i1 %call231, label %if.end250, label %land.lhs.true

land.lhs.true:                                    ; preds = %sw.bb227
  %m_dpx232 = getelementptr inbounds %"class.OpenImageIO_v2_6_0::DPXInput", ptr %this1, i32 0, i32 3
  %header233 = getelementptr inbounds %"class.dpx::Reader", ptr %m_dpx232, i32 0, i32 1
  %add.ptr234 = getelementptr inbounds i8, ptr %header233, i64 1664
  %call235 = call noundef float @_ZNK3dpx14IndustryHeader5GammaEv(ptr noundef nonnull align 4 dereferenceable(384) %add.ptr234)
  %cmp236 = fcmp une float %call235, 0.000000e+00
  br i1 %cmp236, label %if.then237, label %if.end250

if.then237:                                       ; preds = %land.lhs.true
  %m_dpx238 = getelementptr inbounds %"class.OpenImageIO_v2_6_0::DPXInput", ptr %this1, i32 0, i32 3
  %header239 = getelementptr inbounds %"class.dpx::Reader", ptr %m_dpx238, i32 0, i32 1
  %add.ptr240 = getelementptr inbounds i8, ptr %header239, i64 1664
  %call241 = call noundef float @_ZNK3dpx14IndustryHeader5GammaEv(ptr noundef nonnull align 4 dereferenceable(384) %add.ptr240)
  store float %call241, ptr %g, align 4
  %m_spec242 = getelementptr inbounds %"class.OpenImageIO_v2_6_0::ImageInput", ptr %this1, i32 0, i32 1
  call void @_ZN18OpenImageIO_v2_6_017basic_string_viewIcSt11char_traitsIcEEC2EPKc(ptr noundef nonnull align 8 dereferenceable(16) %agg.tmp243, ptr noundef @.str.19) #5
  call void @_ZN3fmt2v87sprintfIA10_cJfEcEENSt7__cxx1112basic_stringIT1_St11char_traitsIS5_ESaIS5_EEERKT_DpRKT0_(ptr sret(%"class.std::__cxx11::basic_string") align 8 %ref.tmp245, ptr noundef nonnull align 1 dereferenceable(10) @.str.23, ptr noundef nonnull align 4 dereferenceable(4) %g)
  call void @_ZN18OpenImageIO_v2_6_017basic_string_viewIcSt11char_traitsIcEEC2ERKNSt7__cxx1112basic_stringIcS2_SaIcEEE(ptr noundef nonnull align 8 dereferenceable(16) %agg.tmp244, ptr noundef nonnull align 8 dereferenceable(32) %ref.tmp245) #5
  invoke void @_ZN18OpenImageIO_v2_6_09ImageSpec9attributeENS_17basic_string_viewIcSt11char_traitsIcEEES4_(ptr noundef nonnull align 8 dereferenceable(160) %m_spec242, ptr noundef %agg.tmp243, ptr noundef %agg.tmp244)
          to label %invoke.cont247 unwind label %lpad246

invoke.cont247:                                   ; preds = %if.then237
  call void @_ZNSt7__cxx1112basic_stringIcSt11char_traitsIcESaIcEED1Ev(ptr noundef nonnull align 8 dereferenceable(32) %ref.tmp245) #5
  %m_spec248 = getelementptr inbounds %"class.OpenImageIO_v2_6_0::ImageInput", ptr %this1, i32 0, i32 1
  call void @_ZN18OpenImageIO_v2_6_017basic_string_viewIcSt11char_traitsIcEEC2EPKc(ptr noundef nonnull align 8 dereferenceable(16) %agg.tmp249, ptr noundef @.str.24) #5
  %33 = load float, ptr %g, align 4
  call void @_ZN18OpenImageIO_v2_6_09ImageSpec9attributeENS_17basic_string_viewIcSt11char_traitsIcEEEf(ptr noundef nonnull align 8 dereferenceable(160) %m_spec248, ptr noundef %agg.tmp249, float noundef %33)
  br label %sw.epilog252

lpad246:                                          ; preds = %if.then237
  %34 = landingpad { ptr, i32 }
          cleanup
  %35 = extractvalue { ptr, i32 } %34, 0
  store ptr %35, ptr %exn.slot, align 8
  %36 = extractvalue { ptr, i32 } %34, 1
  store i32 %36, ptr %ehselector.slot, align 4
  call void @_ZNSt7__cxx1112basic_stringIcSt11char_traitsIcESaIcEED1Ev(ptr noundef nonnull align 8 dereferenceable(32) %ref.tmp245) #5
  br label %eh.resume

if.end250:                                        ; preds = %land.lhs.true, %sw.bb227
  br label %sw.default251

sw.default251:                                    ; preds = %if.end250, %sw.epilog209
  br label %sw.epilog252

sw.epilog252:                                     ; preds = %sw.default251, %invoke.cont247, %sw.bb223, %sw.bb219, %sw.bb215
  %m_spec253 = getelementptr inbounds %"class.OpenImageIO_v2_6_0::ImageInput", ptr %this1, i32 0, i32 1
  call void @_ZN18OpenImageIO_v2_6_017basic_string_viewIcSt11char_traitsIcEEC2EPKc(ptr noundef nonnull align 8 dereferenceable(16) %agg.tmp254, ptr noundef @.str.25) #5
  %m_dpx257 = getelementptr inbounds %"class.OpenImageIO_v2_6_0::DPXInput", ptr %this1, i32 0, i32 3
  %header258 = getelementptr inbounds %"class.dpx::Reader", ptr %m_dpx257, i32 0, i32 1
  %37 = load i32, ptr %subimage.addr, align 4
  %call259 = call noundef i32 @_ZNK3dpx13GenericHeader8TransferEi(ptr noundef nonnull align 4 dereferenceable(1664) %header258, i32 noundef %37)
  call void @_ZN18OpenImageIO_v2_6_08DPXInput25get_characteristic_stringB5cxx11EN3dpx14CharacteristicE(ptr sret(%"class.std::__cxx11::basic_string") align 8 %ref.tmp256, ptr noundef nonnull align 8 dereferenceable(2400) %this1, i32 noundef %call259)
  call void @_ZN18OpenImageIO_v2_6_017basic_string_viewIcSt11char_traitsIcEEC2ERKNSt7__cxx1112basic_stringIcS2_SaIcEEE(ptr noundef nonnull align 8 dereferenceable(16) %agg.tmp255, ptr noundef nonnull align 8 dereferenceable(32) %ref.tmp256) #5
  invoke void @_ZN18OpenImageIO_v2_6_09ImageSpec9attributeENS_17basic_string_viewIcSt11char_traitsIcEEES4_(ptr noundef nonnull align 8 dereferenceable(160) %m_spec253, ptr noundef %agg.tmp254, ptr noundef %agg.tmp255)
          to label %invoke.cont261 unwind label %lpad260

invoke.cont261:                                   ; preds = %sw.epilog252
  call void @_ZNSt7__cxx1112basic_stringIcSt11char_traitsIcESaIcEED1Ev(ptr noundef nonnull align 8 dereferenceable(32) %ref.tmp256) #5
  %m_spec262 = getelementptr inbounds %"class.OpenImageIO_v2_6_0::ImageInput", ptr %this1, i32 0, i32 1
  call void @_ZN18OpenImageIO_v2_6_017basic_string_viewIcSt11char_traitsIcEEC2EPKc(ptr noundef nonnull align 8 dereferenceable(16) %agg.tmp263, ptr noundef @.str.26) #5
  %m_dpx266 = getelementptr inbounds %"class.OpenImageIO_v2_6_0::DPXInput", ptr %this1, i32 0, i32 3
  %header267 = getelementptr inbounds %"class.dpx::Reader", ptr %m_dpx266, i32 0, i32 1
  %38 = load i32, ptr %subimage.addr, align 4
  %call268 = call noundef i32 @_ZNK3dpx13GenericHeader12ColorimetricEi(ptr noundef nonnull align 4 dereferenceable(1664) %header267, i32 noundef %38)
  call void @_ZN18OpenImageIO_v2_6_08DPXInput25get_characteristic_stringB5cxx11EN3dpx14CharacteristicE(ptr sret(%"class.std::__cxx11::basic_string") align 8 %ref.tmp265, ptr noundef nonnull align 8 dereferenceable(2400) %this1, i32 noundef %call268)
  call void @_ZN18OpenImageIO_v2_6_017basic_string_viewIcSt11char_traitsIcEEC2ERKNSt7__cxx1112basic_stringIcS2_SaIcEEE(ptr noundef nonnull align 8 dereferenceable(16) %agg.tmp264, ptr noundef nonnull align 8 dereferenceable(32) %ref.tmp265) #5
  invoke void @_ZN18OpenImageIO_v2_6_09ImageSpec9attributeENS_17basic_string_viewIcSt11char_traitsIcEEES4_(ptr noundef nonnull align 8 dereferenceable(160) %m_spec262, ptr noundef %agg.tmp263, ptr noundef %agg.tmp264)
          to label %invoke.cont270 unwind label %lpad269

invoke.cont270:                                   ; preds = %invoke.cont261
  call void @_ZNSt7__cxx1112basic_stringIcSt11char_traitsIcESaIcEED1Ev(ptr noundef nonnull align 8 dereferenceable(32) %ref.tmp265) #5
  %m_dpx271 = getelementptr inbounds %"class.OpenImageIO_v2_6_0::DPXInput", ptr %this1, i32 0, i32 3
  %header272 = getelementptr inbounds %"class.dpx::Reader", ptr %m_dpx271, i32 0, i32 1
  %copyright = getelementptr inbounds %"struct.dpx::GenericHeader", ptr %header272, i32 0, i32 12
  %arrayidx = getelementptr inbounds [200 x i8], ptr %copyright, i64 0, i64 0
  %39 = load i8, ptr %arrayidx, align 4
  %tobool273 = icmp ne i8 %39, 0
  br i1 %tobool273, label %land.lhs.true274, label %if.end288

land.lhs.true274:                                 ; preds = %invoke.cont270
  %m_dpx275 = getelementptr inbounds %"class.OpenImageIO_v2_6_0::DPXInput", ptr %this1, i32 0, i32 3
  %header276 = getelementptr inbounds %"class.dpx::Reader", ptr %m_dpx275, i32 0, i32 1
  %copyright277 = getelementptr inbounds %"struct.dpx::GenericHeader", ptr %header276, i32 0, i32 12
  %arrayidx278 = getelementptr inbounds [200 x i8], ptr %copyright277, i64 0, i64 0
  %40 = load i8, ptr %arrayidx278, align 4
  %conv279 = sext i8 %40 to i32
  %cmp280 = icmp ne i32 %conv279, -1
  br i1 %cmp280, label %if.then281, label %if.end288

if.then281:                                       ; preds = %land.lhs.true274
  %m_spec282 = getelementptr inbounds %"class.OpenImageIO_v2_6_0::ImageInput", ptr %this1, i32 0, i32 1
  call void @_ZN18OpenImageIO_v2_6_017basic_string_viewIcSt11char_traitsIcEEC2EPKc(ptr noundef nonnull align 8 dereferenceable(16) %agg.tmp283, ptr noundef @.str.27) #5
  %m_dpx285 = getelementptr inbounds %"class.OpenImageIO_v2_6_0::DPXInput", ptr %this1, i32 0, i32 3
  %header286 = getelementptr inbounds %"class.dpx::Reader", ptr %m_dpx285, i32 0, i32 1
  %copyright287 = getelementptr inbounds %"struct.dpx::GenericHeader", ptr %header286, i32 0, i32 12
  %arraydecay = getelementptr inbounds [200 x i8], ptr %copyright287, i64 0, i64 0
  call void @_ZN18OpenImageIO_v2_6_017basic_string_viewIcSt11char_traitsIcEEC2EPKc(ptr noundef nonnull align 8 dereferenceable(16) %agg.tmp284, ptr noundef %arraydecay) #5
  call void @_ZN18OpenImageIO_v2_6_09ImageSpec9attributeENS_17basic_string_viewIcSt11char_traitsIcEEES4_(ptr noundef nonnull align 8 dereferenceable(160) %m_spec282, ptr noundef %agg.tmp283, ptr noundef %agg.tmp284)
  br label %if.end288

lpad260:                                          ; preds = %sw.epilog252
  %41 = landingpad { ptr, i32 }
          cleanup
  %42 = extractvalue { ptr, i32 } %41, 0
  store ptr %42, ptr %exn.slot, align 8
  %43 = extractvalue { ptr, i32 } %41, 1
  store i32 %43, ptr %ehselector.slot, align 4
  call void @_ZNSt7__cxx1112basic_stringIcSt11char_traitsIcESaIcEED1Ev(ptr noundef nonnull align 8 dereferenceable(32) %ref.tmp256) #5
  br label %eh.resume

lpad269:                                          ; preds = %invoke.cont261
  %44 = landingpad { ptr, i32 }
          cleanup
  %45 = extractvalue { ptr, i32 } %44, 0
  store ptr %45, ptr %exn.slot, align 8
  %46 = extractvalue { ptr, i32 } %44, 1
  store i32 %46, ptr %ehselector.slot, align 4
  call void @_ZNSt7__cxx1112basic_stringIcSt11char_traitsIcESaIcEED1Ev(ptr noundef nonnull align 8 dereferenceable(32) %ref.tmp265) #5
  br label %eh.resume

if.end288:                                        ; preds = %if.then281, %land.lhs.true274, %invoke.cont270
  %m_dpx289 = getelementptr inbounds %"class.OpenImageIO_v2_6_0::DPXInput", ptr %this1, i32 0, i32 3
  %header290 = getelementptr inbounds %"class.dpx::Reader", ptr %m_dpx289, i32 0, i32 1
  %creator = getelementptr inbounds %"struct.dpx::GenericHeader", ptr %header290, i32 0, i32 10
  %arrayidx291 = getelementptr inbounds [100 x i8], ptr %creator, i64 0, i64 0
  %47 = load i8, ptr %arrayidx291, align 8
  %tobool292 = icmp ne i8 %47, 0
  br i1 %tobool292, label %land.lhs.true293, label %if.end308

land.lhs.true293:                                 ; preds = %if.end288
  %m_dpx294 = getelementptr inbounds %"class.OpenImageIO_v2_6_0::DPXInput", ptr %this1, i32 0, i32 3
  %header295 = getelementptr inbounds %"class.dpx::Reader", ptr %m_dpx294, i32 0, i32 1
  %creator296 = getelementptr inbounds %"struct.dpx::GenericHeader", ptr %header295, i32 0, i32 10
  %arrayidx297 = getelementptr inbounds [100 x i8], ptr %creator296, i64 0, i64 0
  %48 = load i8, ptr %arrayidx297, align 8
  %conv298 = sext i8 %48 to i32
  %cmp299 = icmp ne i32 %conv298, -1
  br i1 %cmp299, label %if.then300, label %if.end308

if.then300:                                       ; preds = %land.lhs.true293
  %m_spec301 = getelementptr inbounds %"class.OpenImageIO_v2_6_0::ImageInput", ptr %this1, i32 0, i32 1
  call void @_ZN18OpenImageIO_v2_6_017basic_string_viewIcSt11char_traitsIcEEC2EPKc(ptr noundef nonnull align 8 dereferenceable(16) %agg.tmp302, ptr noundef @.str.28) #5
  %m_dpx304 = getelementptr inbounds %"class.OpenImageIO_v2_6_0::DPXInput", ptr %this1, i32 0, i32 3
  %header305 = getelementptr inbounds %"class.dpx::Reader", ptr %m_dpx304, i32 0, i32 1
  %creator306 = getelementptr inbounds %"struct.dpx::GenericHeader", ptr %header305, i32 0, i32 10
  %arraydecay307 = getelementptr inbounds [100 x i8], ptr %creator306, i64 0, i64 0
  call void @_ZN18OpenImageIO_v2_6_017basic_string_viewIcSt11char_traitsIcEEC2EPKc(ptr noundef nonnull align 8 dereferenceable(16) %agg.tmp303, ptr noundef %arraydecay307) #5
  call void @_ZN18OpenImageIO_v2_6_09ImageSpec9attributeENS_17basic_string_viewIcSt11char_traitsIcEEES4_(ptr noundef nonnull align 8 dereferenceable(160) %m_spec301, ptr noundef %agg.tmp302, ptr noundef %agg.tmp303)
  br label %if.end308

if.end308:                                        ; preds = %if.then300, %land.lhs.true293, %if.end288
  %m_dpx309 = getelementptr inbounds %"class.OpenImageIO_v2_6_0::DPXInput", ptr %this1, i32 0, i32 3
  %header310 = getelementptr inbounds %"class.dpx::Reader", ptr %m_dpx309, i32 0, i32 1
  %project = getelementptr inbounds %"struct.dpx::GenericHeader", ptr %header310, i32 0, i32 11
  %arrayidx311 = getelementptr inbounds [200 x i8], ptr %project, i64 0, i64 0
  %49 = load i8, ptr %arrayidx311, align 4
  %tobool312 = icmp ne i8 %49, 0
  br i1 %tobool312, label %land.lhs.true313, label %if.end328

land.lhs.true313:                                 ; preds = %if.end308
  %m_dpx314 = getelementptr inbounds %"class.OpenImageIO_v2_6_0::DPXInput", ptr %this1, i32 0, i32 3
  %header315 = getelementptr inbounds %"class.dpx::Reader", ptr %m_dpx314, i32 0, i32 1
  %project316 = getelementptr inbounds %"struct.dpx::GenericHeader", ptr %header315, i32 0, i32 11
  %arrayidx317 = getelementptr inbounds [200 x i8], ptr %project316, i64 0, i64 0
  %50 = load i8, ptr %arrayidx317, align 4
  %conv318 = sext i8 %50 to i32
  %cmp319 = icmp ne i32 %conv318, -1
  br i1 %cmp319, label %if.then320, label %if.end328

if.then320:                                       ; preds = %land.lhs.true313
  %m_spec321 = getelementptr inbounds %"class.OpenImageIO_v2_6_0::ImageInput", ptr %this1, i32 0, i32 1
  call void @_ZN18OpenImageIO_v2_6_017basic_string_viewIcSt11char_traitsIcEEC2EPKc(ptr noundef nonnull align 8 dereferenceable(16) %agg.tmp322, ptr noundef @.str.29) #5
  %m_dpx324 = getelementptr inbounds %"class.OpenImageIO_v2_6_0::DPXInput", ptr %this1, i32 0, i32 3
  %header325 = getelementptr inbounds %"class.dpx::Reader", ptr %m_dpx324, i32 0, i32 1
  %project326 = getelementptr inbounds %"struct.dpx::GenericHeader", ptr %header325, i32 0, i32 11
  %arraydecay327 = getelementptr inbounds [200 x i8], ptr %project326, i64 0, i64 0
  call void @_ZN18OpenImageIO_v2_6_017basic_string_viewIcSt11char_traitsIcEEC2EPKc(ptr noundef nonnull align 8 dereferenceable(16) %agg.tmp323, ptr noundef %arraydecay327) #5
  call void @_ZN18OpenImageIO_v2_6_09ImageSpec9attributeENS_17basic_string_viewIcSt11char_traitsIcEEES4_(ptr noundef nonnull align 8 dereferenceable(160) %m_spec321, ptr noundef %agg.tmp322, ptr noundef %agg.tmp323)
  br label %if.end328

if.end328:                                        ; preds = %if.then320, %land.lhs.true313, %if.end308
  %m_dpx329 = getelementptr inbounds %"class.OpenImageIO_v2_6_0::DPXInput", ptr %this1, i32 0, i32 3
  %header330 = getelementptr inbounds %"class.dpx::Reader", ptr %m_dpx329, i32 0, i32 1
  %creationTimeDate = getelementptr inbounds %"struct.dpx::GenericHeader", ptr %header330, i32 0, i32 9
  %arrayidx331 = getelementptr inbounds [24 x i8], ptr %creationTimeDate, i64 0, i64 0
  %51 = load i8, ptr %arrayidx331, align 8
  %tobool332 = icmp ne i8 %51, 0
  br i1 %tobool332, label %if.then333, label %if.end347

if.then333:                                       ; preds = %if.end328
  %arraydecay334 = getelementptr inbounds [24 x i8], ptr %date, i64 0, i64 0
  %m_dpx336 = getelementptr inbounds %"class.OpenImageIO_v2_6_0::DPXInput", ptr %this1, i32 0, i32 3
  %header337 = getelementptr inbounds %"class.dpx::Reader", ptr %m_dpx336, i32 0, i32 1
  %creationTimeDate338 = getelementptr inbounds %"struct.dpx::GenericHeader", ptr %header337, i32 0, i32 9
  %arraydecay339 = getelementptr inbounds [24 x i8], ptr %creationTimeDate338, i64 0, i64 0
  call void @_ZN18OpenImageIO_v2_6_017basic_string_viewIcSt11char_traitsIcEEC2EPKc(ptr noundef nonnull align 8 dereferenceable(16) %agg.tmp335, ptr noundef %arraydecay339) #5
  %call340 = call noundef ptr @_ZN18OpenImageIO_v2_6_07Strutil11safe_strcpyEPcNS_17basic_string_viewIcSt11char_traitsIcEEEm(ptr noundef %arraydecay334, ptr noundef %agg.tmp335, i64 noundef 24) #5
  %arrayidx341 = getelementptr inbounds [24 x i8], ptr %date, i64 0, i64 10
  store i8 32, ptr %arrayidx341, align 2
  %arrayidx342 = getelementptr inbounds [24 x i8], ptr %date, i64 0, i64 19
  store i8 0, ptr %arrayidx342, align 1
  %m_spec343 = getelementptr inbounds %"class.OpenImageIO_v2_6_0::ImageInput", ptr %this1, i32 0, i32 1
  call void @_ZN18OpenImageIO_v2_6_017basic_string_viewIcSt11char_traitsIcEEC2EPKc(ptr noundef nonnull align 8 dereferenceable(16) %agg.tmp344, ptr noundef @.str.30) #5
  %arraydecay346 = getelementptr inbounds [24 x i8], ptr %date, i64 0, i64 0
  call void @_ZN18OpenImageIO_v2_6_017basic_string_viewIcSt11char_traitsIcEEC2EPKc(ptr noundef nonnull align 8 dereferenceable(16) %agg.tmp345, ptr noundef %arraydecay346) #5
  call void @_ZN18OpenImageIO_v2_6_09ImageSpec9attributeENS_17basic_string_viewIcSt11char_traitsIcEEES4_(ptr noundef nonnull align 8 dereferenceable(160) %m_spec343, ptr noundef %agg.tmp344, ptr noundef %agg.tmp345)
  br label %if.end347

if.end347:                                        ; preds = %if.then333, %if.end328
  %m_dpx348 = getelementptr inbounds %"class.OpenImageIO_v2_6_0::DPXInput", ptr %this1, i32 0, i32 3
  %header349 = getelementptr inbounds %"class.dpx::Reader", ptr %m_dpx348, i32 0, i32 1
  %52 = load i32, ptr %subimage.addr, align 4
  %call350 = call noundef i32 @_ZNK3dpx13GenericHeader13ImageEncodingEi(ptr noundef nonnull align 4 dereferenceable(1664) %header349, i32 noundef %52)
  %cmp351 = icmp eq i32 %call350, 1
  br i1 %cmp351, label %if.then352, label %if.end356

if.then352:                                       ; preds = %if.end347
  %m_spec353 = getelementptr inbounds %"class.OpenImageIO_v2_6_0::ImageInput", ptr %this1, i32 0, i32 1
  call void @_ZN18OpenImageIO_v2_6_017basic_string_viewIcSt11char_traitsIcEEC2EPKc(ptr noundef nonnull align 8 dereferenceable(16) %agg.tmp354, ptr noundef @.str.31) #5
  call void @_ZN18OpenImageIO_v2_6_017basic_string_viewIcSt11char_traitsIcEEC2EPKc(ptr noundef nonnull align 8 dereferenceable(16) %agg.tmp355, ptr noundef @.str.32) #5
  call void @_ZN18OpenImageIO_v2_6_09ImageSpec9attributeENS_17basic_string_viewIcSt11char_traitsIcEEES4_(ptr noundef nonnull align 8 dereferenceable(160) %m_spec353, ptr noundef %agg.tmp354, ptr noundef %agg.tmp355)
  br label %if.end356

if.end356:                                        ; preds = %if.then352, %if.end347
  %m_dpx357 = getelementptr inbounds %"class.OpenImageIO_v2_6_0::DPXInput", ptr %this1, i32 0, i32 3
  %header358 = getelementptr inbounds %"class.dpx::Reader", ptr %m_dpx357, i32 0, i32 1
  %53 = load i32, ptr %subimage.addr, align 4
  %arraydecay359 = getelementptr inbounds [33 x i8], ptr %desc, i64 0, i64 0
  call void @_ZNK3dpx13GenericHeader11DescriptionEiPc(ptr noundef nonnull align 4 dereferenceable(1664) %header358, i32 noundef %53, ptr noundef %arraydecay359)
  %arrayidx360 = getelementptr inbounds [33 x i8], ptr %desc, i64 0, i64 0
  %54 = load i8, ptr %arrayidx360, align 16
  %tobool361 = icmp ne i8 %54, 0
  br i1 %tobool361, label %land.lhs.true362, label %if.end371

land.lhs.true362:                                 ; preds = %if.end356
  %arrayidx363 = getelementptr inbounds [33 x i8], ptr %desc, i64 0, i64 0
  %55 = load i8, ptr %arrayidx363, align 16
  %conv364 = sext i8 %55 to i32
  %cmp365 = icmp ne i32 %conv364, -1
  br i1 %cmp365, label %if.then366, label %if.end371

if.then366:                                       ; preds = %land.lhs.true362
  %m_spec367 = getelementptr inbounds %"class.OpenImageIO_v2_6_0::ImageInput", ptr %this1, i32 0, i32 1
  call void @_ZN18OpenImageIO_v2_6_017basic_string_viewIcSt11char_traitsIcEEC2EPKc(ptr noundef nonnull align 8 dereferenceable(16) %agg.tmp368, ptr noundef @.str.33) #5
  %arraydecay370 = getelementptr inbounds [33 x i8], ptr %desc, i64 0, i64 0
  call void @_ZN18OpenImageIO_v2_6_017basic_string_viewIcSt11char_traitsIcEEC2EPKc(ptr noundef nonnull align 8 dereferenceable(16) %agg.tmp369, ptr noundef %arraydecay370) #5
  call void @_ZN18OpenImageIO_v2_6_09ImageSpec9attributeENS_17basic_string_viewIcSt11char_traitsIcEEES4_(ptr noundef nonnull align 8 dereferenceable(160) %m_spec367, ptr noundef %agg.tmp368, ptr noundef %agg.tmp369)
  br label %if.end371

if.end371:                                        ; preds = %if.then366, %land.lhs.true362, %if.end356
  %m_spec372 = getelementptr inbounds %"class.OpenImageIO_v2_6_0::ImageInput", ptr %this1, i32 0, i32 1
  call void @_ZN18OpenImageIO_v2_6_017basic_string_viewIcSt11char_traitsIcEEC2EPKc(ptr noundef nonnull align 8 dereferenceable(16) %agg.tmp373, ptr noundef @.str.34) #5
  %m_dpx374 = getelementptr inbounds %"class.OpenImageIO_v2_6_0::DPXInput", ptr %this1, i32 0, i32 3
  %header375 = getelementptr inbounds %"class.dpx::Reader", ptr %m_dpx374, i32 0, i32 1
  %call376 = call noundef i32 @_ZNK3dpx13GenericHeader11AspectRatioEi(ptr noundef nonnull align 4 dereferenceable(1664) %header375, i32 noundef 1)
  %tobool377 = icmp ne i32 %call376, 0
  br i1 %tobool377, label %cond.true, label %cond.false

cond.true:                                        ; preds = %if.end371
  %m_dpx378 = getelementptr inbounds %"class.OpenImageIO_v2_6_0::DPXInput", ptr %this1, i32 0, i32 3
  %header379 = getelementptr inbounds %"class.dpx::Reader", ptr %m_dpx378, i32 0, i32 1
  %call380 = call noundef i32 @_ZNK3dpx13GenericHeader11AspectRatioEi(ptr noundef nonnull align 4 dereferenceable(1664) %header379, i32 noundef 0)
  %conv381 = uitofp i32 %call380 to float
  %m_dpx382 = getelementptr inbounds %"class.OpenImageIO_v2_6_0::DPXInput", ptr %this1, i32 0, i32 3
  %header383 = getelementptr inbounds %"class.dpx::Reader", ptr %m_dpx382, i32 0, i32 1
  %call384 = call noundef i32 @_ZNK3dpx13GenericHeader11AspectRatioEi(ptr noundef nonnull align 4 dereferenceable(1664) %header383, i32 noundef 1)
  %conv385 = uitofp i32 %call384 to float
  %div = fdiv float %conv381, %conv385
  br label %cond.end

cond.false:                                       ; preds = %if.end371
  br label %cond.end

cond.end:                                         ; preds = %cond.false, %cond.true
  %cond386 = phi float [ %div, %cond.true ], [ 1.000000e+00, %cond.false ]
  call void @_ZN18OpenImageIO_v2_6_09ImageSpec9attributeENS_17basic_string_viewIcSt11char_traitsIcEEEf(ptr noundef nonnull align 8 dereferenceable(160) %m_spec372, ptr noundef %agg.tmp373, float noundef %cond386)
  %m_spec387 = getelementptr inbounds %"class.OpenImageIO_v2_6_0::ImageInput", ptr %this1, i32 0, i32 1
  call void @_ZN18OpenImageIO_v2_6_017basic_string_viewIcSt11char_traitsIcEEC2EPKc(ptr noundef nonnull align 8 dereferenceable(16) %agg.tmp388, ptr noundef @.str.35) #5
  %m_dpx391 = getelementptr inbounds %"class.OpenImageIO_v2_6_0::DPXInput", ptr %this1, i32 0, i32 3
  %header392 = getelementptr inbounds %"class.dpx::Reader", ptr %m_dpx391, i32 0, i32 1
  %56 = load i32, ptr %subimage.addr, align 4
  %call393 = call noundef i32 @_ZNK3dpx13GenericHeader15ImageDescriptorEi(ptr noundef nonnull align 4 dereferenceable(1664) %header392, i32 noundef %56)
  call void @_ZN18OpenImageIO_v2_6_08DPXInput21get_descriptor_stringB5cxx11EN3dpx10DescriptorE(ptr sret(%"class.std::__cxx11::basic_string") align 8 %ref.tmp390, ptr noundef nonnull align 8 dereferenceable(2400) %this1, i32 noundef %call393)
  call void @_ZN18OpenImageIO_v2_6_017basic_string_viewIcSt11char_traitsIcEEC2ERKNSt7__cxx1112basic_stringIcS2_SaIcEEE(ptr noundef nonnull align 8 dereferenceable(16) %agg.tmp389, ptr noundef nonnull align 8 dereferenceable(32) %ref.tmp390) #5
  invoke void @_ZN18OpenImageIO_v2_6_09ImageSpec9attributeENS_17basic_string_viewIcSt11char_traitsIcEEES4_(ptr noundef nonnull align 8 dereferenceable(160) %m_spec387, ptr noundef %agg.tmp388, ptr noundef %agg.tmp389)
          to label %invoke.cont395 unwind label %lpad394

invoke.cont395:                                   ; preds = %cond.end
  call void @_ZNSt7__cxx1112basic_stringIcSt11char_traitsIcESaIcEED1Ev(ptr noundef nonnull align 8 dereferenceable(32) %ref.tmp390) #5
  %m_dpx396 = getelementptr inbounds %"class.OpenImageIO_v2_6_0::DPXInput", ptr %this1, i32 0, i32 3
  %header397 = getelementptr inbounds %"class.dpx::Reader", ptr %m_dpx396, i32 0, i32 1
  %call398 = call noundef i32 @_ZNK3dpx13GenericHeader10EncryptKeyEv(ptr noundef nonnull align 4 dereferenceable(1664) %header397)
  %cmp399 = icmp ne i32 %call398, -1
  br i1 %cmp399, label %if.then400, label %if.end406

if.then400:                                       ; preds = %invoke.cont395
  %m_spec401 = getelementptr inbounds %"class.OpenImageIO_v2_6_0::ImageInput", ptr %this1, i32 0, i32 1
  call void @_ZN18OpenImageIO_v2_6_017basic_string_viewIcSt11char_traitsIcEEC2EPKc(ptr noundef nonnull align 8 dereferenceable(16) %agg.tmp402, ptr noundef @.str.36) #5
  %m_dpx403 = getelementptr inbounds %"class.OpenImageIO_v2_6_0::DPXInput", ptr %this1, i32 0, i32 3
  %header404 = getelementptr inbounds %"class.dpx::Reader", ptr %m_dpx403, i32 0, i32 1
  %call405 = call noundef i32 @_ZNK3dpx13GenericHeader10EncryptKeyEv(ptr noundef nonnull align 4 dereferenceable(1664) %header404)
  call void @_ZN18OpenImageIO_v2_6_09ImageSpec9attributeENS_17basic_string_viewIcSt11char_traitsIcEEEj(ptr noundef nonnull align 8 dereferenceable(160) %m_spec401, ptr noundef %agg.tmp402, i32 noundef %call405)
  br label %if.end406

lpad394:                                          ; preds = %cond.end
  %57 = landingpad { ptr, i32 }
          cleanup
  %58 = extractvalue { ptr, i32 } %57, 0
  store ptr %58, ptr %exn.slot, align 8
  %59 = extractvalue { ptr, i32 } %57, 1
  store i32 %59, ptr %ehselector.slot, align 4
  call void @_ZNSt7__cxx1112basic_stringIcSt11char_traitsIcESaIcEED1Ev(ptr noundef nonnull align 8 dereferenceable(32) %ref.tmp390) #5
  br label %eh.resume

if.end406:                                        ; preds = %if.then400, %invoke.cont395
  %m_dpx407 = getelementptr inbounds %"class.OpenImageIO_v2_6_0::DPXInput", ptr %this1, i32 0, i32 3
  %header408 = getelementptr inbounds %"class.dpx::Reader", ptr %m_dpx407, i32 0, i32 1
  %call409 = call noundef i32 @_ZNK3dpx13GenericHeader8DittoKeyEv(ptr noundef nonnull align 4 dereferenceable(1664) %header408)
  %cmp410 = icmp ne i32 %call409, -1
  br i1 %cmp410, label %if.then411, label %if.end417

if.then411:                                       ; preds = %if.end406
  %m_spec412 = getelementptr inbounds %"class.OpenImageIO_v2_6_0::ImageInput", ptr %this1, i32 0, i32 1
  call void @_ZN18OpenImageIO_v2_6_017basic_string_viewIcSt11char_traitsIcEEC2EPKc(ptr noundef nonnull align 8 dereferenceable(16) %agg.tmp413, ptr noundef @.str.37) #5
  %m_dpx414 = getelementptr inbounds %"class.OpenImageIO_v2_6_0::DPXInput", ptr %this1, i32 0, i32 3
  %header415 = getelementptr inbounds %"class.dpx::Reader", ptr %m_dpx414, i32 0, i32 1
  %call416 = call noundef i32 @_ZNK3dpx13GenericHeader8DittoKeyEv(ptr noundef nonnull align 4 dereferenceable(1664) %header415)
  call void @_ZN18OpenImageIO_v2_6_09ImageSpec9attributeENS_17basic_string_viewIcSt11char_traitsIcEEEj(ptr noundef nonnull align 8 dereferenceable(160) %m_spec412, ptr noundef %agg.tmp413, i32 noundef %call416)
  br label %if.end417

if.end417:                                        ; preds = %if.then411, %if.end406
  %m_dpx418 = getelementptr inbounds %"class.OpenImageIO_v2_6_0::DPXInput", ptr %this1, i32 0, i32 3
  %header419 = getelementptr inbounds %"class.dpx::Reader", ptr %m_dpx418, i32 0, i32 1
  %60 = load i32, ptr %subimage.addr, align 4
  %call420 = call noundef i32 @_ZNK3dpx13GenericHeader7LowDataEi(ptr noundef nonnull align 4 dereferenceable(1664) %header419, i32 noundef %60)
  %cmp421 = icmp ne i32 %call420, -1
  br i1 %cmp421, label %if.then422, label %if.end428

if.then422:                                       ; preds = %if.end417
  %m_spec423 = getelementptr inbounds %"class.OpenImageIO_v2_6_0::ImageInput", ptr %this1, i32 0, i32 1
  call void @_ZN18OpenImageIO_v2_6_017basic_string_viewIcSt11char_traitsIcEEC2EPKc(ptr noundef nonnull align 8 dereferenceable(16) %agg.tmp424, ptr noundef @.str.38) #5
  %m_dpx425 = getelementptr inbounds %"class.OpenImageIO_v2_6_0::DPXInput", ptr %this1, i32 0, i32 3
  %header426 = getelementptr inbounds %"class.dpx::Reader", ptr %m_dpx425, i32 0, i32 1
  %61 = load i32, ptr %subimage.addr, align 4
  %call427 = call noundef i32 @_ZNK3dpx13GenericHeader7LowDataEi(ptr noundef nonnull align 4 dereferenceable(1664) %header426, i32 noundef %61)
  call void @_ZN18OpenImageIO_v2_6_09ImageSpec9attributeENS_17basic_string_viewIcSt11char_traitsIcEEEj(ptr noundef nonnull align 8 dereferenceable(160) %m_spec423, ptr noundef %agg.tmp424, i32 noundef %call427)
  br label %if.end428

if.end428:                                        ; preds = %if.then422, %if.end417
  %m_dpx429 = getelementptr inbounds %"class.OpenImageIO_v2_6_0::DPXInput", ptr %this1, i32 0, i32 3
  %header430 = getelementptr inbounds %"class.dpx::Reader", ptr %m_dpx429, i32 0, i32 1
  %62 = load i32, ptr %subimage.addr, align 4
  %call431 = call noundef float @_ZNK3dpx13GenericHeader11LowQuantityEi(ptr noundef nonnull align 4 dereferenceable(1664) %header430, i32 noundef %62)
  %call432 = call noundef zeroext i1 @_ZSt5isnanf(float noundef %call431)
  br i1 %call432, label %if.end439, label %if.then433

if.then433:                                       ; preds = %if.end428
  %m_spec434 = getelementptr inbounds %"class.OpenImageIO_v2_6_0::ImageInput", ptr %this1, i32 0, i32 1
  call void @_ZN18OpenImageIO_v2_6_017basic_string_viewIcSt11char_traitsIcEEC2EPKc(ptr noundef nonnull align 8 dereferenceable(16) %agg.tmp435, ptr noundef @.str.39) #5
  %m_dpx436 = getelementptr inbounds %"class.OpenImageIO_v2_6_0::DPXInput", ptr %this1, i32 0, i32 3
  %header437 = getelementptr inbounds %"class.dpx::Reader", ptr %m_dpx436, i32 0, i32 1
  %63 = load i32, ptr %subimage.addr, align 4
  %call438 = call noundef float @_ZNK3dpx13GenericHeader11LowQuantityEi(ptr noundef nonnull align 4 dereferenceable(1664) %header437, i32 noundef %63)
  call void @_ZN18OpenImageIO_v2_6_09ImageSpec9attributeENS_17basic_string_viewIcSt11char_traitsIcEEEf(ptr noundef nonnull align 8 dereferenceable(160) %m_spec434, ptr noundef %agg.tmp435, float noundef %call438)
  br label %if.end439

if.end439:                                        ; preds = %if.then433, %if.end428
  %m_dpx440 = getelementptr inbounds %"class.OpenImageIO_v2_6_0::DPXInput", ptr %this1, i32 0, i32 3
  %header441 = getelementptr inbounds %"class.dpx::Reader", ptr %m_dpx440, i32 0, i32 1
  %64 = load i32, ptr %subimage.addr, align 4
  %call442 = call noundef i32 @_ZNK3dpx13GenericHeader8HighDataEi(ptr noundef nonnull align 4 dereferenceable(1664) %header441, i32 noundef %64)
  %cmp443 = icmp ne i32 %call442, -1
  br i1 %cmp443, label %if.then444, label %if.end450

if.then444:                                       ; preds = %if.end439
  %m_spec445 = getelementptr inbounds %"class.OpenImageIO_v2_6_0::ImageInput", ptr %this1, i32 0, i32 1
  call void @_ZN18OpenImageIO_v2_6_017basic_string_viewIcSt11char_traitsIcEEC2EPKc(ptr noundef nonnull align 8 dereferenceable(16) %agg.tmp446, ptr noundef @.str.40) #5
  %m_dpx447 = getelementptr inbounds %"class.OpenImageIO_v2_6_0::DPXInput", ptr %this1, i32 0, i32 3
  %header448 = getelementptr inbounds %"class.dpx::Reader", ptr %m_dpx447, i32 0, i32 1
  %65 = load i32, ptr %subimage.addr, align 4
  %call449 = call noundef i32 @_ZNK3dpx13GenericHeader8HighDataEi(ptr noundef nonnull align 4 dereferenceable(1664) %header448, i32 noundef %65)
  call void @_ZN18OpenImageIO_v2_6_09ImageSpec9attributeENS_17basic_string_viewIcSt11char_traitsIcEEEj(ptr noundef nonnull align 8 dereferenceable(160) %m_spec445, ptr noundef %agg.tmp446, i32 noundef %call449)
  br label %if.end450

if.end450:                                        ; preds = %if.then444, %if.end439
  %m_dpx451 = getelementptr inbounds %"class.OpenImageIO_v2_6_0::DPXInput", ptr %this1, i32 0, i32 3
  %header452 = getelementptr inbounds %"class.dpx::Reader", ptr %m_dpx451, i32 0, i32 1
  %66 = load i32, ptr %subimage.addr, align 4
  %call453 = call noundef float @_ZNK3dpx13GenericHeader12HighQuantityEi(ptr noundef nonnull align 4 dereferenceable(1664) %header452, i32 noundef %66)
  %call454 = call noundef zeroext i1 @_ZSt5isnanf(float noundef %call453)
  br i1 %call454, label %if.end461, label %if.then455

if.then455:                                       ; preds = %if.end450
  %m_spec456 = getelementptr inbounds %"class.OpenImageIO_v2_6_0::ImageInput", ptr %this1, i32 0, i32 1
  call void @_ZN18OpenImageIO_v2_6_017basic_string_viewIcSt11char_traitsIcEEC2EPKc(ptr noundef nonnull align 8 dereferenceable(16) %agg.tmp457, ptr noundef @.str.41) #5
  %m_dpx458 = getelementptr inbounds %"class.OpenImageIO_v2_6_0::DPXInput", ptr %this1, i32 0, i32 3
  %header459 = getelementptr inbounds %"class.dpx::Reader", ptr %m_dpx458, i32 0, i32 1
  %67 = load i32, ptr %subimage.addr, align 4
  %call460 = call noundef float @_ZNK3dpx13GenericHeader12HighQuantityEi(ptr noundef nonnull align 4 dereferenceable(1664) %header459, i32 noundef %67)
  call void @_ZN18OpenImageIO_v2_6_09ImageSpec9attributeENS_17basic_string_viewIcSt11char_traitsIcEEEf(ptr noundef nonnull align 8 dereferenceable(160) %m_spec456, ptr noundef %agg.tmp457, float noundef %call460)
  br label %if.end461

if.end461:                                        ; preds = %if.then455, %if.end450
  %m_dpx462 = getelementptr inbounds %"class.OpenImageIO_v2_6_0::DPXInput", ptr %this1, i32 0, i32 3
  %header463 = getelementptr inbounds %"class.dpx::Reader", ptr %m_dpx462, i32 0, i32 1
  %68 = load i32, ptr %subimage.addr, align 4
  %call464 = call noundef i32 @_ZNK3dpx13GenericHeader16EndOfLinePaddingEi(ptr noundef nonnull align 4 dereferenceable(1664) %header463, i32 noundef %68)
  %cmp465 = icmp ne i32 %call464, -1
  br i1 %cmp465, label %if.then466, label %if.end472

if.then466:                                       ; preds = %if.end461
  %m_spec467 = getelementptr inbounds %"class.OpenImageIO_v2_6_0::ImageInput", ptr %this1, i32 0, i32 1
  call void @_ZN18OpenImageIO_v2_6_017basic_string_viewIcSt11char_traitsIcEEC2EPKc(ptr noundef nonnull align 8 dereferenceable(16) %agg.tmp468, ptr noundef @.str.42) #5
  %m_dpx469 = getelementptr inbounds %"class.OpenImageIO_v2_6_0::DPXInput", ptr %this1, i32 0, i32 3
  %header470 = getelementptr inbounds %"class.dpx::Reader", ptr %m_dpx469, i32 0, i32 1
  %69 = load i32, ptr %subimage.addr, align 4
  %call471 = call noundef i32 @_ZNK3dpx13GenericHeader16EndOfLinePaddingEi(ptr noundef nonnull align 4 dereferenceable(1664) %header470, i32 noundef %69)
  call void @_ZN18OpenImageIO_v2_6_09ImageSpec9attributeENS_17basic_string_viewIcSt11char_traitsIcEEEj(ptr noundef nonnull align 8 dereferenceable(160) %m_spec467, ptr noundef %agg.tmp468, i32 noundef %call471)
  br label %if.end472

if.end472:                                        ; preds = %if.then466, %if.end461
  %m_dpx473 = getelementptr inbounds %"class.OpenImageIO_v2_6_0::DPXInput", ptr %this1, i32 0, i32 3
  %header474 = getelementptr inbounds %"class.dpx::Reader", ptr %m_dpx473, i32 0, i32 1
  %70 = load i32, ptr %subimage.addr, align 4
  %call475 = call noundef i32 @_ZNK3dpx13GenericHeader17EndOfImagePaddingEi(ptr noundef nonnull align 4 dereferenceable(1664) %header474, i32 noundef %70)
  %cmp476 = icmp ne i32 %call475, -1
  br i1 %cmp476, label %if.then477, label %if.end483

if.then477:                                       ; preds = %if.end472
  %m_spec478 = getelementptr inbounds %"class.OpenImageIO_v2_6_0::ImageInput", ptr %this1, i32 0, i32 1
  call void @_ZN18OpenImageIO_v2_6_017basic_string_viewIcSt11char_traitsIcEEC2EPKc(ptr noundef nonnull align 8 dereferenceable(16) %agg.tmp479, ptr noundef @.str.43) #5
  %m_dpx480 = getelementptr inbounds %"class.OpenImageIO_v2_6_0::DPXInput", ptr %this1, i32 0, i32 3
  %header481 = getelementptr inbounds %"class.dpx::Reader", ptr %m_dpx480, i32 0, i32 1
  %71 = load i32, ptr %subimage.addr, align 4
  %call482 = call noundef i32 @_ZNK3dpx13GenericHeader17EndOfImagePaddingEi(ptr noundef nonnull align 4 dereferenceable(1664) %header481, i32 noundef %71)
  call void @_ZN18OpenImageIO_v2_6_09ImageSpec9attributeENS_17basic_string_viewIcSt11char_traitsIcEEEj(ptr noundef nonnull align 8 dereferenceable(160) %m_spec478, ptr noundef %agg.tmp479, i32 noundef %call482)
  br label %if.end483

if.end483:                                        ; preds = %if.then477, %if.end472
  %m_dpx484 = getelementptr inbounds %"class.OpenImageIO_v2_6_0::DPXInput", ptr %this1, i32 0, i32 3
  %header485 = getelementptr inbounds %"class.dpx::Reader", ptr %m_dpx484, i32 0, i32 1
  %call486 = call noundef float @_ZNK3dpx13GenericHeader12XScannedSizeEv(ptr noundef nonnull align 4 dereferenceable(1664) %header485)
  %call487 = call noundef zeroext i1 @_ZSt5isnanf(float noundef %call486)
  br i1 %call487, label %if.end494, label %if.then488

if.then488:                                       ; preds = %if.end483
  %m_spec489 = getelementptr inbounds %"class.OpenImageIO_v2_6_0::ImageInput", ptr %this1, i32 0, i32 1
  call void @_ZN18OpenImageIO_v2_6_017basic_string_viewIcSt11char_traitsIcEEC2EPKc(ptr noundef nonnull align 8 dereferenceable(16) %agg.tmp490, ptr noundef @.str.44) #5
  %m_dpx491 = getelementptr inbounds %"class.OpenImageIO_v2_6_0::DPXInput", ptr %this1, i32 0, i32 3
  %header492 = getelementptr inbounds %"class.dpx::Reader", ptr %m_dpx491, i32 0, i32 1
  %call493 = call noundef float @_ZNK3dpx13GenericHeader12XScannedSizeEv(ptr noundef nonnull align 4 dereferenceable(1664) %header492)
  call void @_ZN18OpenImageIO_v2_6_09ImageSpec9attributeENS_17basic_string_viewIcSt11char_traitsIcEEEf(ptr noundef nonnull align 8 dereferenceable(160) %m_spec489, ptr noundef %agg.tmp490, float noundef %call493)
  br label %if.end494

if.end494:                                        ; preds = %if.then488, %if.end483
  %m_dpx495 = getelementptr inbounds %"class.OpenImageIO_v2_6_0::DPXInput", ptr %this1, i32 0, i32 3
  %header496 = getelementptr inbounds %"class.dpx::Reader", ptr %m_dpx495, i32 0, i32 1
  %call497 = call noundef float @_ZNK3dpx13GenericHeader12YScannedSizeEv(ptr noundef nonnull align 4 dereferenceable(1664) %header496)
  %call498 = call noundef zeroext i1 @_ZSt5isnanf(float noundef %call497)
  br i1 %call498, label %if.end505, label %if.then499

if.then499:                                       ; preds = %if.end494
  %m_spec500 = getelementptr inbounds %"class.OpenImageIO_v2_6_0::ImageInput", ptr %this1, i32 0, i32 1
  call void @_ZN18OpenImageIO_v2_6_017basic_string_viewIcSt11char_traitsIcEEC2EPKc(ptr noundef nonnull align 8 dereferenceable(16) %agg.tmp501, ptr noundef @.str.45) #5
  %m_dpx502 = getelementptr inbounds %"class.OpenImageIO_v2_6_0::DPXInput", ptr %this1, i32 0, i32 3
  %header503 = getelementptr inbounds %"class.dpx::Reader", ptr %m_dpx502, i32 0, i32 1
  %call504 = call noundef float @_ZNK3dpx13GenericHeader12YScannedSizeEv(ptr noundef nonnull align 4 dereferenceable(1664) %header503)
  call void @_ZN18OpenImageIO_v2_6_09ImageSpec9attributeENS_17basic_string_viewIcSt11char_traitsIcEEEf(ptr noundef nonnull align 8 dereferenceable(160) %m_spec500, ptr noundef %agg.tmp501, float noundef %call504)
  br label %if.end505

if.end505:                                        ; preds = %if.then499, %if.end494
  %m_dpx506 = getelementptr inbounds %"class.OpenImageIO_v2_6_0::DPXInput", ptr %this1, i32 0, i32 3
  %header507 = getelementptr inbounds %"class.dpx::Reader", ptr %m_dpx506, i32 0, i32 1
  %add.ptr508 = getelementptr inbounds i8, ptr %header507, i64 1664
  %call509 = call noundef i32 @_ZNK3dpx14IndustryHeader13FramePositionEv(ptr noundef nonnull align 4 dereferenceable(384) %add.ptr508)
  %cmp510 = icmp ne i32 %call509, -1
  br i1 %cmp510, label %if.then511, label %if.end518

if.then511:                                       ; preds = %if.end505
  %m_spec512 = getelementptr inbounds %"class.OpenImageIO_v2_6_0::ImageInput", ptr %this1, i32 0, i32 1
  call void @_ZN18OpenImageIO_v2_6_017basic_string_viewIcSt11char_traitsIcEEC2EPKc(ptr noundef nonnull align 8 dereferenceable(16) %agg.tmp513, ptr noundef @.str.46) #5
  %m_dpx514 = getelementptr inbounds %"class.OpenImageIO_v2_6_0::DPXInput", ptr %this1, i32 0, i32 3
  %header515 = getelementptr inbounds %"class.dpx::Reader", ptr %m_dpx514, i32 0, i32 1
  %add.ptr516 = getelementptr inbounds i8, ptr %header515, i64 1664
  %call517 = call noundef i32 @_ZNK3dpx14IndustryHeader13FramePositionEv(ptr noundef nonnull align 4 dereferenceable(384) %add.ptr516)
  call void @_ZN18OpenImageIO_v2_6_09ImageSpec9attributeENS_17basic_string_viewIcSt11char_traitsIcEEEj(ptr noundef nonnull align 8 dereferenceable(160) %m_spec512, ptr noundef %agg.tmp513, i32 noundef %call517)
  br label %if.end518

if.end518:                                        ; preds = %if.then511, %if.end505
  %m_dpx519 = getelementptr inbounds %"class.OpenImageIO_v2_6_0::DPXInput", ptr %this1, i32 0, i32 3
  %header520 = getelementptr inbounds %"class.dpx::Reader", ptr %m_dpx519, i32 0, i32 1
  %add.ptr521 = getelementptr inbounds i8, ptr %header520, i64 1664
  %call522 = call noundef i32 @_ZNK3dpx14IndustryHeader14SequenceLengthEv(ptr noundef nonnull align 4 dereferenceable(384) %add.ptr521)
  %cmp523 = icmp ne i32 %call522, -1
  br i1 %cmp523, label %if.then524, label %if.end531

if.then524:                                       ; preds = %if.end518
  %m_spec525 = getelementptr inbounds %"class.OpenImageIO_v2_6_0::ImageInput", ptr %this1, i32 0, i32 1
  call void @_ZN18OpenImageIO_v2_6_017basic_string_viewIcSt11char_traitsIcEEC2EPKc(ptr noundef nonnull align 8 dereferenceable(16) %agg.tmp526, ptr noundef @.str.47) #5
  %m_dpx527 = getelementptr inbounds %"class.OpenImageIO_v2_6_0::DPXInput", ptr %this1, i32 0, i32 3
  %header528 = getelementptr inbounds %"class.dpx::Reader", ptr %m_dpx527, i32 0, i32 1
  %add.ptr529 = getelementptr inbounds i8, ptr %header528, i64 1664
  %call530 = call noundef i32 @_ZNK3dpx14IndustryHeader14SequenceLengthEv(ptr noundef nonnull align 4 dereferenceable(384) %add.ptr529)
  call void @_ZN18OpenImageIO_v2_6_09ImageSpec9attributeENS_17basic_string_viewIcSt11char_traitsIcEEEj(ptr noundef nonnull align 8 dereferenceable(160) %m_spec525, ptr noundef %agg.tmp526, i32 noundef %call530)
  br label %if.end531

if.end531:                                        ; preds = %if.then524, %if.end518
  %m_dpx532 = getelementptr inbounds %"class.OpenImageIO_v2_6_0::DPXInput", ptr %this1, i32 0, i32 3
  %header533 = getelementptr inbounds %"class.dpx::Reader", ptr %m_dpx532, i32 0, i32 1
  %add.ptr534 = getelementptr inbounds i8, ptr %header533, i64 1664
  %call535 = call noundef i32 @_ZNK3dpx14IndustryHeader9HeldCountEv(ptr noundef nonnull align 4 dereferenceable(384) %add.ptr534)
  %cmp536 = icmp ne i32 %call535, -1
  br i1 %cmp536, label %if.then537, label %if.end544

if.then537:                                       ; preds = %if.end531
  %m_spec538 = getelementptr inbounds %"class.OpenImageIO_v2_6_0::ImageInput", ptr %this1, i32 0, i32 1
  call void @_ZN18OpenImageIO_v2_6_017basic_string_viewIcSt11char_traitsIcEEC2EPKc(ptr noundef nonnull align 8 dereferenceable(16) %agg.tmp539, ptr noundef @.str.48) #5
  %m_dpx540 = getelementptr inbounds %"class.OpenImageIO_v2_6_0::DPXInput", ptr %this1, i32 0, i32 3
  %header541 = getelementptr inbounds %"class.dpx::Reader", ptr %m_dpx540, i32 0, i32 1
  %add.ptr542 = getelementptr inbounds i8, ptr %header541, i64 1664
  %call543 = call noundef i32 @_ZNK3dpx14IndustryHeader9HeldCountEv(ptr noundef nonnull align 4 dereferenceable(384) %add.ptr542)
  call void @_ZN18OpenImageIO_v2_6_09ImageSpec9attributeENS_17basic_string_viewIcSt11char_traitsIcEEEj(ptr noundef nonnull align 8 dereferenceable(160) %m_spec538, ptr noundef %agg.tmp539, i32 noundef %call543)
  br label %if.end544

if.end544:                                        ; preds = %if.then537, %if.end531
  %m_dpx545 = getelementptr inbounds %"class.OpenImageIO_v2_6_0::DPXInput", ptr %this1, i32 0, i32 3
  %header546 = getelementptr inbounds %"class.dpx::Reader", ptr %m_dpx545, i32 0, i32 1
  %add.ptr547 = getelementptr inbounds i8, ptr %header546, i64 1664
  %call548 = call noundef float @_ZNK3dpx14IndustryHeader9FrameRateEv(ptr noundef nonnull align 4 dereferenceable(384) %add.ptr547)
  %call549 = call noundef zeroext i1 @_ZSt5isnanf(float noundef %call548)
  br i1 %call549, label %if.end557, label %if.then550

if.then550:                                       ; preds = %if.end544
  %m_spec551 = getelementptr inbounds %"class.OpenImageIO_v2_6_0::ImageInput", ptr %this1, i32 0, i32 1
  call void @_ZN18OpenImageIO_v2_6_017basic_string_viewIcSt11char_traitsIcEEC2EPKc(ptr noundef nonnull align 8 dereferenceable(16) %agg.tmp552, ptr noundef @.str.49) #5
  %m_dpx553 = getelementptr inbounds %"class.OpenImageIO_v2_6_0::DPXInput", ptr %this1, i32 0, i32 3
  %header554 = getelementptr inbounds %"class.dpx::Reader", ptr %m_dpx553, i32 0, i32 1
  %add.ptr555 = getelementptr inbounds i8, ptr %header554, i64 1664
  %call556 = call noundef float @_ZNK3dpx14IndustryHeader9FrameRateEv(ptr noundef nonnull align 4 dereferenceable(384) %add.ptr555)
  call void @_ZN18OpenImageIO_v2_6_09ImageSpec9attributeENS_17basic_string_viewIcSt11char_traitsIcEEEf(ptr noundef nonnull align 8 dereferenceable(160) %m_spec551, ptr noundef %agg.tmp552, float noundef %call556)
  br label %if.end557

if.end557:                                        ; preds = %if.then550, %if.end544
  %m_dpx558 = getelementptr inbounds %"class.OpenImageIO_v2_6_0::DPXInput", ptr %this1, i32 0, i32 3
  %header559 = getelementptr inbounds %"class.dpx::Reader", ptr %m_dpx558, i32 0, i32 1
  %add.ptr560 = getelementptr inbounds i8, ptr %header559, i64 1664
  %call561 = call noundef float @_ZNK3dpx14IndustryHeader12ShutterAngleEv(ptr noundef nonnull align 4 dereferenceable(384) %add.ptr560)
  %call562 = call noundef zeroext i1 @_ZSt5isnanf(float noundef %call561)
  br i1 %call562, label %if.end570, label %if.then563

if.then563:                                       ; preds = %if.end557
  %m_spec564 = getelementptr inbounds %"class.OpenImageIO_v2_6_0::ImageInput", ptr %this1, i32 0, i32 1
  call void @_ZN18OpenImageIO_v2_6_017basic_string_viewIcSt11char_traitsIcEEC2EPKc(ptr noundef nonnull align 8 dereferenceable(16) %agg.tmp565, ptr noundef @.str.50) #5
  %m_dpx566 = getelementptr inbounds %"class.OpenImageIO_v2_6_0::DPXInput", ptr %this1, i32 0, i32 3
  %header567 = getelementptr inbounds %"class.dpx::Reader", ptr %m_dpx566, i32 0, i32 1
  %add.ptr568 = getelementptr inbounds i8, ptr %header567, i64 1664
  %call569 = call noundef float @_ZNK3dpx14IndustryHeader12ShutterAngleEv(ptr noundef nonnull align 4 dereferenceable(384) %add.ptr568)
  call void @_ZN18OpenImageIO_v2_6_09ImageSpec9attributeENS_17basic_string_viewIcSt11char_traitsIcEEEf(ptr noundef nonnull align 8 dereferenceable(160) %m_spec564, ptr noundef %agg.tmp565, float noundef %call569)
  br label %if.end570

if.end570:                                        ; preds = %if.then563, %if.end557
  %m_dpx571 = getelementptr inbounds %"class.OpenImageIO_v2_6_0::DPXInput", ptr %this1, i32 0, i32 3
  %header572 = getelementptr inbounds %"class.dpx::Reader", ptr %m_dpx571, i32 0, i32 1
  %version = getelementptr inbounds %"struct.dpx::GenericHeader", ptr %header572, i32 0, i32 2
  %arrayidx573 = getelementptr inbounds [8 x i8], ptr %version, i64 0, i64 0
  %72 = load i8, ptr %arrayidx573, align 8
  %tobool574 = icmp ne i8 %72, 0
  br i1 %tobool574, label %land.lhs.true575, label %if.end590

land.lhs.true575:                                 ; preds = %if.end570
  %m_dpx576 = getelementptr inbounds %"class.OpenImageIO_v2_6_0::DPXInput", ptr %this1, i32 0, i32 3
  %header577 = getelementptr inbounds %"class.dpx::Reader", ptr %m_dpx576, i32 0, i32 1
  %version578 = getelementptr inbounds %"struct.dpx::GenericHeader", ptr %header577, i32 0, i32 2
  %arrayidx579 = getelementptr inbounds [8 x i8], ptr %version578, i64 0, i64 0
  %73 = load i8, ptr %arrayidx579, align 8
  %conv580 = sext i8 %73 to i32
  %cmp581 = icmp ne i32 %conv580, -1
  br i1 %cmp581, label %if.then582, label %if.end590

if.then582:                                       ; preds = %land.lhs.true575
  %m_spec583 = getelementptr inbounds %"class.OpenImageIO_v2_6_0::ImageInput", ptr %this1, i32 0, i32 1
  call void @_ZN18OpenImageIO_v2_6_017basic_string_viewIcSt11char_traitsIcEEC2EPKc(ptr noundef nonnull align 8 dereferenceable(16) %agg.tmp584, ptr noundef @.str.51) #5
  %m_dpx586 = getelementptr inbounds %"class.OpenImageIO_v2_6_0::DPXInput", ptr %this1, i32 0, i32 3
  %header587 = getelementptr inbounds %"class.dpx::Reader", ptr %m_dpx586, i32 0, i32 1
  %version588 = getelementptr inbounds %"struct.dpx::GenericHeader", ptr %header587, i32 0, i32 2
  %arraydecay589 = getelementptr inbounds [8 x i8], ptr %version588, i64 0, i64 0
  call void @_ZN18OpenImageIO_v2_6_017basic_string_viewIcSt11char_traitsIcEEC2EPKc(ptr noundef nonnull align 8 dereferenceable(16) %agg.tmp585, ptr noundef %arraydecay589) #5
  call void @_ZN18OpenImageIO_v2_6_09ImageSpec9attributeENS_17basic_string_viewIcSt11char_traitsIcEEES4_(ptr noundef nonnull align 8 dereferenceable(160) %m_spec583, ptr noundef %agg.tmp584, ptr noundef %agg.tmp585)
  br label %if.end590

if.end590:                                        ; preds = %if.then582, %land.lhs.true575, %if.end570
  %m_dpx591 = getelementptr inbounds %"class.OpenImageIO_v2_6_0::DPXInput", ptr %this1, i32 0, i32 3
  %header592 = getelementptr inbounds %"class.dpx::Reader", ptr %m_dpx591, i32 0, i32 1
  %add.ptr593 = getelementptr inbounds i8, ptr %header592, i64 1664
  %format = getelementptr inbounds %"struct.dpx::IndustryHeader", ptr %add.ptr593, i32 0, i32 5
  %arrayidx594 = getelementptr inbounds [32 x i8], ptr %format, i64 0, i64 0
  %74 = load i8, ptr %arrayidx594, align 8
  %tobool595 = icmp ne i8 %74, 0
  br i1 %tobool595, label %land.lhs.true596, label %if.end613

land.lhs.true596:                                 ; preds = %if.end590
  %m_dpx597 = getelementptr inbounds %"class.OpenImageIO_v2_6_0::DPXInput", ptr %this1, i32 0, i32 3
  %header598 = getelementptr inbounds %"class.dpx::Reader", ptr %m_dpx597, i32 0, i32 1
  %add.ptr599 = getelementptr inbounds i8, ptr %header598, i64 1664
  %format600 = getelementptr inbounds %"struct.dpx::IndustryHeader", ptr %add.ptr599, i32 0, i32 5
  %arrayidx601 = getelementptr inbounds [32 x i8], ptr %format600, i64 0, i64 0
  %75 = load i8, ptr %arrayidx601, align 8
  %conv602 = sext i8 %75 to i32
  %cmp603 = icmp ne i32 %conv602, -1
  br i1 %cmp603, label %if.then604, label %if.end613

if.then604:                                       ; preds = %land.lhs.true596
  %m_spec605 = getelementptr inbounds %"class.OpenImageIO_v2_6_0::ImageInput", ptr %this1, i32 0, i32 1
  call void @_ZN18OpenImageIO_v2_6_017basic_string_viewIcSt11char_traitsIcEEC2EPKc(ptr noundef nonnull align 8 dereferenceable(16) %agg.tmp606, ptr noundef @.str.52) #5
  %m_dpx608 = getelementptr inbounds %"class.OpenImageIO_v2_6_0::DPXInput", ptr %this1, i32 0, i32 3
  %header609 = getelementptr inbounds %"class.dpx::Reader", ptr %m_dpx608, i32 0, i32 1
  %add.ptr610 = getelementptr inbounds i8, ptr %header609, i64 1664
  %format611 = getelementptr inbounds %"struct.dpx::IndustryHeader", ptr %add.ptr610, i32 0, i32 5
  %arraydecay612 = getelementptr inbounds [32 x i8], ptr %format611, i64 0, i64 0
  call void @_ZN18OpenImageIO_v2_6_017basic_string_viewIcSt11char_traitsIcEEC2EPKc(ptr noundef nonnull align 8 dereferenceable(16) %agg.tmp607, ptr noundef %arraydecay612) #5
  call void @_ZN18OpenImageIO_v2_6_09ImageSpec9attributeENS_17basic_string_viewIcSt11char_traitsIcEEES4_(ptr noundef nonnull align 8 dereferenceable(160) %m_spec605, ptr noundef %agg.tmp606, ptr noundef %agg.tmp607)
  br label %if.end613

if.end613:                                        ; preds = %if.then604, %land.lhs.true596, %if.end590
  %m_dpx614 = getelementptr inbounds %"class.OpenImageIO_v2_6_0::DPXInput", ptr %this1, i32 0, i32 3
  %header615 = getelementptr inbounds %"class.dpx::Reader", ptr %m_dpx614, i32 0, i32 1
  %add.ptr616 = getelementptr inbounds i8, ptr %header615, i64 1664
  %frameId = getelementptr inbounds %"struct.dpx::IndustryHeader", ptr %add.ptr616, i32 0, i32 11
  %arrayidx617 = getelementptr inbounds [32 x i8], ptr %frameId, i64 0, i64 0
  %76 = load i8, ptr %arrayidx617, align 4
  %tobool618 = icmp ne i8 %76, 0
  br i1 %tobool618, label %land.lhs.true619, label %if.end636

land.lhs.true619:                                 ; preds = %if.end613
  %m_dpx620 = getelementptr inbounds %"class.OpenImageIO_v2_6_0::DPXInput", ptr %this1, i32 0, i32 3
  %header621 = getelementptr inbounds %"class.dpx::Reader", ptr %m_dpx620, i32 0, i32 1
  %add.ptr622 = getelementptr inbounds i8, ptr %header621, i64 1664
  %frameId623 = getelementptr inbounds %"struct.dpx::IndustryHeader", ptr %add.ptr622, i32 0, i32 11
  %arrayidx624 = getelementptr inbounds [32 x i8], ptr %frameId623, i64 0, i64 0
  %77 = load i8, ptr %arrayidx624, align 4
  %conv625 = sext i8 %77 to i32
  %cmp626 = icmp ne i32 %conv625, -1
  br i1 %cmp626, label %if.then627, label %if.end636

if.then627:                                       ; preds = %land.lhs.true619
  %m_spec628 = getelementptr inbounds %"class.OpenImageIO_v2_6_0::ImageInput", ptr %this1, i32 0, i32 1
  call void @_ZN18OpenImageIO_v2_6_017basic_string_viewIcSt11char_traitsIcEEC2EPKc(ptr noundef nonnull align 8 dereferenceable(16) %agg.tmp629, ptr noundef @.str.53) #5
  %m_dpx631 = getelementptr inbounds %"class.OpenImageIO_v2_6_0::DPXInput", ptr %this1, i32 0, i32 3
  %header632 = getelementptr inbounds %"class.dpx::Reader", ptr %m_dpx631, i32 0, i32 1
  %add.ptr633 = getelementptr inbounds i8, ptr %header632, i64 1664
  %frameId634 = getelementptr inbounds %"struct.dpx::IndustryHeader", ptr %add.ptr633, i32 0, i32 11
  %arraydecay635 = getelementptr inbounds [32 x i8], ptr %frameId634, i64 0, i64 0
  call void @_ZN18OpenImageIO_v2_6_017basic_string_viewIcSt11char_traitsIcEEC2EPKc(ptr noundef nonnull align 8 dereferenceable(16) %agg.tmp630, ptr noundef %arraydecay635) #5
  call void @_ZN18OpenImageIO_v2_6_09ImageSpec9attributeENS_17basic_string_viewIcSt11char_traitsIcEEES4_(ptr noundef nonnull align 8 dereferenceable(160) %m_spec628, ptr noundef %agg.tmp629, ptr noundef %agg.tmp630)
  br label %if.end636

if.end636:                                        ; preds = %if.then627, %land.lhs.true619, %if.end613
  %m_dpx637 = getelementptr inbounds %"class.OpenImageIO_v2_6_0::DPXInput", ptr %this1, i32 0, i32 3
  %header638 = getelementptr inbounds %"class.dpx::Reader", ptr %m_dpx637, i32 0, i32 1
  %add.ptr639 = getelementptr inbounds i8, ptr %header638, i64 1664
  %slateInfo = getelementptr inbounds %"struct.dpx::IndustryHeader", ptr %add.ptr639, i32 0, i32 12
  %arrayidx640 = getelementptr inbounds [100 x i8], ptr %slateInfo, i64 0, i64 0
  %78 = load i8, ptr %arrayidx640, align 4
  %tobool641 = icmp ne i8 %78, 0
  br i1 %tobool641, label %land.lhs.true642, label %if.end659

land.lhs.true642:                                 ; preds = %if.end636
  %m_dpx643 = getelementptr inbounds %"class.OpenImageIO_v2_6_0::DPXInput", ptr %this1, i32 0, i32 3
  %header644 = getelementptr inbounds %"class.dpx::Reader", ptr %m_dpx643, i32 0, i32 1
  %add.ptr645 = getelementptr inbounds i8, ptr %header644, i64 1664
  %slateInfo646 = getelementptr inbounds %"struct.dpx::IndustryHeader", ptr %add.ptr645, i32 0, i32 12
  %arrayidx647 = getelementptr inbounds [100 x i8], ptr %slateInfo646, i64 0, i64 0
  %79 = load i8, ptr %arrayidx647, align 4
  %conv648 = sext i8 %79 to i32
  %cmp649 = icmp ne i32 %conv648, -1
  br i1 %cmp649, label %if.then650, label %if.end659

if.then650:                                       ; preds = %land.lhs.true642
  %m_spec651 = getelementptr inbounds %"class.OpenImageIO_v2_6_0::ImageInput", ptr %this1, i32 0, i32 1
  call void @_ZN18OpenImageIO_v2_6_017basic_string_viewIcSt11char_traitsIcEEC2EPKc(ptr noundef nonnull align 8 dereferenceable(16) %agg.tmp652, ptr noundef @.str.54) #5
  %m_dpx654 = getelementptr inbounds %"class.OpenImageIO_v2_6_0::DPXInput", ptr %this1, i32 0, i32 3
  %header655 = getelementptr inbounds %"class.dpx::Reader", ptr %m_dpx654, i32 0, i32 1
  %add.ptr656 = getelementptr inbounds i8, ptr %header655, i64 1664
  %slateInfo657 = getelementptr inbounds %"struct.dpx::IndustryHeader", ptr %add.ptr656, i32 0, i32 12
  %arraydecay658 = getelementptr inbounds [100 x i8], ptr %slateInfo657, i64 0, i64 0
  call void @_ZN18OpenImageIO_v2_6_017basic_string_viewIcSt11char_traitsIcEEC2EPKc(ptr noundef nonnull align 8 dereferenceable(16) %agg.tmp653, ptr noundef %arraydecay658) #5
  call void @_ZN18OpenImageIO_v2_6_09ImageSpec9attributeENS_17basic_string_viewIcSt11char_traitsIcEEES4_(ptr noundef nonnull align 8 dereferenceable(160) %m_spec651, ptr noundef %agg.tmp652, ptr noundef %agg.tmp653)
  br label %if.end659

if.end659:                                        ; preds = %if.then650, %land.lhs.true642, %if.end636
  %m_dpx660 = getelementptr inbounds %"class.OpenImageIO_v2_6_0::DPXInput", ptr %this1, i32 0, i32 3
  %header661 = getelementptr inbounds %"class.dpx::Reader", ptr %m_dpx660, i32 0, i32 1
  %sourceImageFileName = getelementptr inbounds %"struct.dpx::GenericHeader", ptr %header661, i32 0, i32 27
  %arrayidx662 = getelementptr inbounds [100 x i8], ptr %sourceImageFileName, i64 0, i64 0
  %80 = load i8, ptr %arrayidx662, align 8
  %tobool663 = icmp ne i8 %80, 0
  br i1 %tobool663, label %land.lhs.true664, label %if.end679

land.lhs.true664:                                 ; preds = %if.end659
  %m_dpx665 = getelementptr inbounds %"class.OpenImageIO_v2_6_0::DPXInput", ptr %this1, i32 0, i32 3
  %header666 = getelementptr inbounds %"class.dpx::Reader", ptr %m_dpx665, i32 0, i32 1
  %sourceImageFileName667 = getelementptr inbounds %"struct.dpx::GenericHeader", ptr %header666, i32 0, i32 27
  %arrayidx668 = getelementptr inbounds [100 x i8], ptr %sourceImageFileName667, i64 0, i64 0
  %81 = load i8, ptr %arrayidx668, align 8
  %conv669 = sext i8 %81 to i32
  %cmp670 = icmp ne i32 %conv669, -1
  br i1 %cmp670, label %if.then671, label %if.end679

if.then671:                                       ; preds = %land.lhs.true664
  %m_spec672 = getelementptr inbounds %"class.OpenImageIO_v2_6_0::ImageInput", ptr %this1, i32 0, i32 1
  call void @_ZN18OpenImageIO_v2_6_017basic_string_viewIcSt11char_traitsIcEEC2EPKc(ptr noundef nonnull align 8 dereferenceable(16) %agg.tmp673, ptr noundef @.str.55) #5
  %m_dpx675 = getelementptr inbounds %"class.OpenImageIO_v2_6_0::DPXInput", ptr %this1, i32 0, i32 3
  %header676 = getelementptr inbounds %"class.dpx::Reader", ptr %m_dpx675, i32 0, i32 1
  %sourceImageFileName677 = getelementptr inbounds %"struct.dpx::GenericHeader", ptr %header676, i32 0, i32 27
  %arraydecay678 = getelementptr inbounds [100 x i8], ptr %sourceImageFileName677, i64 0, i64 0
  call void @_ZN18OpenImageIO_v2_6_017basic_string_viewIcSt11char_traitsIcEEC2EPKc(ptr noundef nonnull align 8 dereferenceable(16) %agg.tmp674, ptr noundef %arraydecay678) #5
  call void @_ZN18OpenImageIO_v2_6_09ImageSpec9attributeENS_17basic_string_viewIcSt11char_traitsIcEEES4_(ptr noundef nonnull align 8 dereferenceable(160) %m_spec672, ptr noundef %agg.tmp673, ptr noundef %agg.tmp674)
  br label %if.end679

if.end679:                                        ; preds = %if.then671, %land.lhs.true664, %if.end659
  %m_dpx680 = getelementptr inbounds %"class.OpenImageIO_v2_6_0::DPXInput", ptr %this1, i32 0, i32 3
  %header681 = getelementptr inbounds %"class.dpx::Reader", ptr %m_dpx680, i32 0, i32 1
  %inputDevice = getelementptr inbounds %"struct.dpx::GenericHeader", ptr %header681, i32 0, i32 29
  %arrayidx682 = getelementptr inbounds [32 x i8], ptr %inputDevice, i64 0, i64 0
  %82 = load i8, ptr %arrayidx682, align 4
  %tobool683 = icmp ne i8 %82, 0
  br i1 %tobool683, label %land.lhs.true684, label %if.end699

land.lhs.true684:                                 ; preds = %if.end679
  %m_dpx685 = getelementptr inbounds %"class.OpenImageIO_v2_6_0::DPXInput", ptr %this1, i32 0, i32 3
  %header686 = getelementptr inbounds %"class.dpx::Reader", ptr %m_dpx685, i32 0, i32 1
  %inputDevice687 = getelementptr inbounds %"struct.dpx::GenericHeader", ptr %header686, i32 0, i32 29
  %arrayidx688 = getelementptr inbounds [32 x i8], ptr %inputDevice687, i64 0, i64 0
  %83 = load i8, ptr %arrayidx688, align 4
  %conv689 = sext i8 %83 to i32
  %cmp690 = icmp ne i32 %conv689, -1
  br i1 %cmp690, label %if.then691, label %if.end699

if.then691:                                       ; preds = %land.lhs.true684
  %m_spec692 = getelementptr inbounds %"class.OpenImageIO_v2_6_0::ImageInput", ptr %this1, i32 0, i32 1
  call void @_ZN18OpenImageIO_v2_6_017basic_string_viewIcSt11char_traitsIcEEC2EPKc(ptr noundef nonnull align 8 dereferenceable(16) %agg.tmp693, ptr noundef @.str.56) #5
  %m_dpx695 = getelementptr inbounds %"class.OpenImageIO_v2_6_0::DPXInput", ptr %this1, i32 0, i32 3
  %header696 = getelementptr inbounds %"class.dpx::Reader", ptr %m_dpx695, i32 0, i32 1
  %inputDevice697 = getelementptr inbounds %"struct.dpx::GenericHeader", ptr %header696, i32 0, i32 29
  %arraydecay698 = getelementptr inbounds [32 x i8], ptr %inputDevice697, i64 0, i64 0
  call void @_ZN18OpenImageIO_v2_6_017basic_string_viewIcSt11char_traitsIcEEC2EPKc(ptr noundef nonnull align 8 dereferenceable(16) %agg.tmp694, ptr noundef %arraydecay698) #5
  call void @_ZN18OpenImageIO_v2_6_09ImageSpec9attributeENS_17basic_string_viewIcSt11char_traitsIcEEES4_(ptr noundef nonnull align 8 dereferenceable(160) %m_spec692, ptr noundef %agg.tmp693, ptr noundef %agg.tmp694)
  br label %if.end699

if.end699:                                        ; preds = %if.then691, %land.lhs.true684, %if.end679
  %m_dpx700 = getelementptr inbounds %"class.OpenImageIO_v2_6_0::DPXInput", ptr %this1, i32 0, i32 3
  %header701 = getelementptr inbounds %"class.dpx::Reader", ptr %m_dpx700, i32 0, i32 1
  %inputDeviceSerialNumber = getelementptr inbounds %"struct.dpx::GenericHeader", ptr %header701, i32 0, i32 30
  %arrayidx702 = getelementptr inbounds [32 x i8], ptr %inputDeviceSerialNumber, i64 0, i64 0
  %84 = load i8, ptr %arrayidx702, align 4
  %tobool703 = icmp ne i8 %84, 0
  br i1 %tobool703, label %land.lhs.true704, label %if.end719

land.lhs.true704:                                 ; preds = %if.end699
  %m_dpx705 = getelementptr inbounds %"class.OpenImageIO_v2_6_0::DPXInput", ptr %this1, i32 0, i32 3
  %header706 = getelementptr inbounds %"class.dpx::Reader", ptr %m_dpx705, i32 0, i32 1
  %inputDeviceSerialNumber707 = getelementptr inbounds %"struct.dpx::GenericHeader", ptr %header706, i32 0, i32 30
  %arrayidx708 = getelementptr inbounds [32 x i8], ptr %inputDeviceSerialNumber707, i64 0, i64 0
  %85 = load i8, ptr %arrayidx708, align 4
  %conv709 = sext i8 %85 to i32
  %cmp710 = icmp ne i32 %conv709, -1
  br i1 %cmp710, label %if.then711, label %if.end719

if.then711:                                       ; preds = %land.lhs.true704
  %m_spec712 = getelementptr inbounds %"class.OpenImageIO_v2_6_0::ImageInput", ptr %this1, i32 0, i32 1
  call void @_ZN18OpenImageIO_v2_6_017basic_string_viewIcSt11char_traitsIcEEC2EPKc(ptr noundef nonnull align 8 dereferenceable(16) %agg.tmp713, ptr noundef @.str.57) #5
  %m_dpx715 = getelementptr inbounds %"class.OpenImageIO_v2_6_0::DPXInput", ptr %this1, i32 0, i32 3
  %header716 = getelementptr inbounds %"class.dpx::Reader", ptr %m_dpx715, i32 0, i32 1
  %inputDeviceSerialNumber717 = getelementptr inbounds %"struct.dpx::GenericHeader", ptr %header716, i32 0, i32 30
  %arraydecay718 = getelementptr inbounds [32 x i8], ptr %inputDeviceSerialNumber717, i64 0, i64 0
  call void @_ZN18OpenImageIO_v2_6_017basic_string_viewIcSt11char_traitsIcEEC2EPKc(ptr noundef nonnull align 8 dereferenceable(16) %agg.tmp714, ptr noundef %arraydecay718) #5
  call void @_ZN18OpenImageIO_v2_6_09ImageSpec9attributeENS_17basic_string_viewIcSt11char_traitsIcEEES4_(ptr noundef nonnull align 8 dereferenceable(160) %m_spec712, ptr noundef %agg.tmp713, ptr noundef %agg.tmp714)
  br label %if.end719

if.end719:                                        ; preds = %if.then711, %land.lhs.true704, %if.end699
  %m_dpx720 = getelementptr inbounds %"class.OpenImageIO_v2_6_0::DPXInput", ptr %this1, i32 0, i32 3
  %header721 = getelementptr inbounds %"class.dpx::Reader", ptr %m_dpx720, i32 0, i32 1
  %add.ptr722 = getelementptr inbounds i8, ptr %header721, i64 1664
  %call723 = call noundef zeroext i8 @_ZNK3dpx14IndustryHeader9InterlaceEv(ptr noundef nonnull align 4 dereferenceable(384) %add.ptr722)
  %conv724 = zext i8 %call723 to i32
  %cmp725 = icmp ne i32 %conv724, 255
  br i1 %cmp725, label %if.then726, label %if.end734

if.then726:                                       ; preds = %if.end719
  %m_spec727 = getelementptr inbounds %"class.OpenImageIO_v2_6_0::ImageInput", ptr %this1, i32 0, i32 1
  call void @_ZN18OpenImageIO_v2_6_017basic_string_viewIcSt11char_traitsIcEEC2EPKc(ptr noundef nonnull align 8 dereferenceable(16) %agg.tmp728, ptr noundef @.str.58) #5
  %m_dpx729 = getelementptr inbounds %"class.OpenImageIO_v2_6_0::DPXInput", ptr %this1, i32 0, i32 3
  %header730 = getelementptr inbounds %"class.dpx::Reader", ptr %m_dpx729, i32 0, i32 1
  %add.ptr731 = getelementptr inbounds i8, ptr %header730, i64 1664
  %call732 = call noundef zeroext i8 @_ZNK3dpx14IndustryHeader9InterlaceEv(ptr noundef nonnull align 4 dereferenceable(384) %add.ptr731)
  %conv733 = zext i8 %call732 to i32
  call void @_ZN18OpenImageIO_v2_6_09ImageSpec9attributeENS_17basic_string_viewIcSt11char_traitsIcEEEi(ptr noundef nonnull align 8 dereferenceable(160) %m_spec727, ptr noundef %agg.tmp728, i32 noundef %conv733)
  br label %if.end734

if.end734:                                        ; preds = %if.then726, %if.end719
  %m_dpx735 = getelementptr inbounds %"class.OpenImageIO_v2_6_0::DPXInput", ptr %this1, i32 0, i32 3
  %header736 = getelementptr inbounds %"class.dpx::Reader", ptr %m_dpx735, i32 0, i32 1
  %add.ptr737 = getelementptr inbounds i8, ptr %header736, i64 1664
  %call738 = call noundef zeroext i8 @_ZNK3dpx14IndustryHeader11FieldNumberEv(ptr noundef nonnull align 4 dereferenceable(384) %add.ptr737)
  %conv739 = zext i8 %call738 to i32
  %cmp740 = icmp ne i32 %conv739, 255
  br i1 %cmp740, label %if.then741, label %if.end749

if.then741:                                       ; preds = %if.end734
  %m_spec742 = getelementptr inbounds %"class.OpenImageIO_v2_6_0::ImageInput", ptr %this1, i32 0, i32 1
  call void @_ZN18OpenImageIO_v2_6_017basic_string_viewIcSt11char_traitsIcEEC2EPKc(ptr noundef nonnull align 8 dereferenceable(16) %agg.tmp743, ptr noundef @.str.59) #5
  %m_dpx744 = getelementptr inbounds %"class.OpenImageIO_v2_6_0::DPXInput", ptr %this1, i32 0, i32 3
  %header745 = getelementptr inbounds %"class.dpx::Reader", ptr %m_dpx744, i32 0, i32 1
  %add.ptr746 = getelementptr inbounds i8, ptr %header745, i64 1664
  %call747 = call noundef zeroext i8 @_ZNK3dpx14IndustryHeader11FieldNumberEv(ptr noundef nonnull align 4 dereferenceable(384) %add.ptr746)
  %conv748 = zext i8 %call747 to i32
  call void @_ZN18OpenImageIO_v2_6_09ImageSpec9attributeENS_17basic_string_viewIcSt11char_traitsIcEEEi(ptr noundef nonnull align 8 dereferenceable(160) %m_spec742, ptr noundef %agg.tmp743, i32 noundef %conv748)
  br label %if.end749

if.end749:                                        ; preds = %if.then741, %if.end734
  %m_dpx750 = getelementptr inbounds %"class.OpenImageIO_v2_6_0::DPXInput", ptr %this1, i32 0, i32 3
  %header751 = getelementptr inbounds %"class.dpx::Reader", ptr %m_dpx750, i32 0, i32 1
  %add.ptr752 = getelementptr inbounds i8, ptr %header751, i64 1664
  %call753 = call noundef float @_ZNK3dpx14IndustryHeader20HorizontalSampleRateEv(ptr noundef nonnull align 4 dereferenceable(384) %add.ptr752)
  %call754 = call noundef zeroext i1 @_ZSt5isnanf(float noundef %call753)
  br i1 %call754, label %if.end762, label %if.then755

if.then755:                                       ; preds = %if.end749
  %m_spec756 = getelementptr inbounds %"class.OpenImageIO_v2_6_0::ImageInput", ptr %this1, i32 0, i32 1
  call void @_ZN18OpenImageIO_v2_6_017basic_string_viewIcSt11char_traitsIcEEC2EPKc(ptr noundef nonnull align 8 dereferenceable(16) %agg.tmp757, ptr noundef @.str.60) #5
  %m_dpx758 = getelementptr inbounds %"class.OpenImageIO_v2_6_0::DPXInput", ptr %this1, i32 0, i32 3
  %header759 = getelementptr inbounds %"class.dpx::Reader", ptr %m_dpx758, i32 0, i32 1
  %add.ptr760 = getelementptr inbounds i8, ptr %header759, i64 1664
  %call761 = call noundef float @_ZNK3dpx14IndustryHeader20HorizontalSampleRateEv(ptr noundef nonnull align 4 dereferenceable(384) %add.ptr760)
  call void @_ZN18OpenImageIO_v2_6_09ImageSpec9attributeENS_17basic_string_viewIcSt11char_traitsIcEEEf(ptr noundef nonnull align 8 dereferenceable(160) %m_spec756, ptr noundef %agg.tmp757, float noundef %call761)
  br label %if.end762

if.end762:                                        ; preds = %if.then755, %if.end749
  %m_dpx763 = getelementptr inbounds %"class.OpenImageIO_v2_6_0::DPXInput", ptr %this1, i32 0, i32 3
  %header764 = getelementptr inbounds %"class.dpx::Reader", ptr %m_dpx763, i32 0, i32 1
  %add.ptr765 = getelementptr inbounds i8, ptr %header764, i64 1664
  %call766 = call noundef float @_ZNK3dpx14IndustryHeader18VerticalSampleRateEv(ptr noundef nonnull align 4 dereferenceable(384) %add.ptr765)
  %call767 = call noundef zeroext i1 @_ZSt5isnanf(float noundef %call766)
  br i1 %call767, label %if.end775, label %if.then768

if.then768:                                       ; preds = %if.end762
  %m_spec769 = getelementptr inbounds %"class.OpenImageIO_v2_6_0::ImageInput", ptr %this1, i32 0, i32 1
  call void @_ZN18OpenImageIO_v2_6_017basic_string_viewIcSt11char_traitsIcEEC2EPKc(ptr noundef nonnull align 8 dereferenceable(16) %agg.tmp770, ptr noundef @.str.61) #5
  %m_dpx771 = getelementptr inbounds %"class.OpenImageIO_v2_6_0::DPXInput", ptr %this1, i32 0, i32 3
  %header772 = getelementptr inbounds %"class.dpx::Reader", ptr %m_dpx771, i32 0, i32 1
  %add.ptr773 = getelementptr inbounds i8, ptr %header772, i64 1664
  %call774 = call noundef float @_ZNK3dpx14IndustryHeader18VerticalSampleRateEv(ptr noundef nonnull align 4 dereferenceable(384) %add.ptr773)
  call void @_ZN18OpenImageIO_v2_6_09ImageSpec9attributeENS_17basic_string_viewIcSt11char_traitsIcEEEf(ptr noundef nonnull align 8 dereferenceable(160) %m_spec769, ptr noundef %agg.tmp770, float noundef %call774)
  br label %if.end775

if.end775:                                        ; preds = %if.then768, %if.end762
  %m_dpx776 = getelementptr inbounds %"class.OpenImageIO_v2_6_0::DPXInput", ptr %this1, i32 0, i32 3
  %header777 = getelementptr inbounds %"class.dpx::Reader", ptr %m_dpx776, i32 0, i32 1
  %add.ptr778 = getelementptr inbounds i8, ptr %header777, i64 1664
  %call779 = call noundef float @_ZNK3dpx14IndustryHeader17TemporalFrameRateEv(ptr noundef nonnull align 4 dereferenceable(384) %add.ptr778)
  %call780 = call noundef zeroext i1 @_ZSt5isnanf(float noundef %call779)
  br i1 %call780, label %if.end788, label %if.then781

if.then781:                                       ; preds = %if.end775
  %m_spec782 = getelementptr inbounds %"class.OpenImageIO_v2_6_0::ImageInput", ptr %this1, i32 0, i32 1
  call void @_ZN18OpenImageIO_v2_6_017basic_string_viewIcSt11char_traitsIcEEC2EPKc(ptr noundef nonnull align 8 dereferenceable(16) %agg.tmp783, ptr noundef @.str.62) #5
  %m_dpx784 = getelementptr inbounds %"class.OpenImageIO_v2_6_0::DPXInput", ptr %this1, i32 0, i32 3
  %header785 = getelementptr inbounds %"class.dpx::Reader", ptr %m_dpx784, i32 0, i32 1
  %add.ptr786 = getelementptr inbounds i8, ptr %header785, i64 1664
  %call787 = call noundef float @_ZNK3dpx14IndustryHeader17TemporalFrameRateEv(ptr noundef nonnull align 4 dereferenceable(384) %add.ptr786)
  call void @_ZN18OpenImageIO_v2_6_09ImageSpec9attributeENS_17basic_string_viewIcSt11char_traitsIcEEEf(ptr noundef nonnull align 8 dereferenceable(160) %m_spec782, ptr noundef %agg.tmp783, float noundef %call787)
  br label %if.end788

if.end788:                                        ; preds = %if.then781, %if.end775
  %m_dpx789 = getelementptr inbounds %"class.OpenImageIO_v2_6_0::DPXInput", ptr %this1, i32 0, i32 3
  %header790 = getelementptr inbounds %"class.dpx::Reader", ptr %m_dpx789, i32 0, i32 1
  %add.ptr791 = getelementptr inbounds i8, ptr %header790, i64 1664
  %call792 = call noundef float @_ZNK3dpx14IndustryHeader10TimeOffsetEv(ptr noundef nonnull align 4 dereferenceable(384) %add.ptr791)
  %call793 = call noundef zeroext i1 @_ZSt5isnanf(float noundef %call792)
  br i1 %call793, label %if.end801, label %if.then794

if.then794:                                       ; preds = %if.end788
  %m_spec795 = getelementptr inbounds %"class.OpenImageIO_v2_6_0::ImageInput", ptr %this1, i32 0, i32 1
  call void @_ZN18OpenImageIO_v2_6_017basic_string_viewIcSt11char_traitsIcEEC2EPKc(ptr noundef nonnull align 8 dereferenceable(16) %agg.tmp796, ptr noundef @.str.63) #5
  %m_dpx797 = getelementptr inbounds %"class.OpenImageIO_v2_6_0::DPXInput", ptr %this1, i32 0, i32 3
  %header798 = getelementptr inbounds %"class.dpx::Reader", ptr %m_dpx797, i32 0, i32 1
  %add.ptr799 = getelementptr inbounds i8, ptr %header798, i64 1664
  %call800 = call noundef float @_ZNK3dpx14IndustryHeader10TimeOffsetEv(ptr noundef nonnull align 4 dereferenceable(384) %add.ptr799)
  call void @_ZN18OpenImageIO_v2_6_09ImageSpec9attributeENS_17basic_string_viewIcSt11char_traitsIcEEEf(ptr noundef nonnull align 8 dereferenceable(160) %m_spec795, ptr noundef %agg.tmp796, float noundef %call800)
  br label %if.end801

if.end801:                                        ; preds = %if.then794, %if.end788
  %m_dpx802 = getelementptr inbounds %"class.OpenImageIO_v2_6_0::DPXInput", ptr %this1, i32 0, i32 3
  %header803 = getelementptr inbounds %"class.dpx::Reader", ptr %m_dpx802, i32 0, i32 1
  %add.ptr804 = getelementptr inbounds i8, ptr %header803, i64 1664
  %call805 = call noundef float @_ZNK3dpx14IndustryHeader10BlackLevelEv(ptr noundef nonnull align 4 dereferenceable(384) %add.ptr804)
  %call806 = call noundef zeroext i1 @_ZSt5isnanf(float noundef %call805)
  br i1 %call806, label %if.end814, label %if.then807

if.then807:                                       ; preds = %if.end801
  %m_spec808 = getelementptr inbounds %"class.OpenImageIO_v2_6_0::ImageInput", ptr %this1, i32 0, i32 1
  call void @_ZN18OpenImageIO_v2_6_017basic_string_viewIcSt11char_traitsIcEEC2EPKc(ptr noundef nonnull align 8 dereferenceable(16) %agg.tmp809, ptr noundef @.str.64) #5
  %m_dpx810 = getelementptr inbounds %"class.OpenImageIO_v2_6_0::DPXInput", ptr %this1, i32 0, i32 3
  %header811 = getelementptr inbounds %"class.dpx::Reader", ptr %m_dpx810, i32 0, i32 1
  %add.ptr812 = getelementptr inbounds i8, ptr %header811, i64 1664
  %call813 = call noundef float @_ZNK3dpx14IndustryHeader10BlackLevelEv(ptr noundef nonnull align 4 dereferenceable(384) %add.ptr812)
  call void @_ZN18OpenImageIO_v2_6_09ImageSpec9attributeENS_17basic_string_viewIcSt11char_traitsIcEEEf(ptr noundef nonnull align 8 dereferenceable(160) %m_spec808, ptr noundef %agg.tmp809, float noundef %call813)
  br label %if.end814

if.end814:                                        ; preds = %if.then807, %if.end801
  %m_dpx815 = getelementptr inbounds %"class.OpenImageIO_v2_6_0::DPXInput", ptr %this1, i32 0, i32 3
  %header816 = getelementptr inbounds %"class.dpx::Reader", ptr %m_dpx815, i32 0, i32 1
  %add.ptr817 = getelementptr inbounds i8, ptr %header816, i64 1664
  %call818 = call noundef float @_ZNK3dpx14IndustryHeader9BlackGainEv(ptr noundef nonnull align 4 dereferenceable(384) %add.ptr817)
  %call819 = call noundef zeroext i1 @_ZSt5isnanf(float noundef %call818)
  br i1 %call819, label %if.end827, label %if.then820

if.then820:                                       ; preds = %if.end814
  %m_spec821 = getelementptr inbounds %"class.OpenImageIO_v2_6_0::ImageInput", ptr %this1, i32 0, i32 1
  call void @_ZN18OpenImageIO_v2_6_017basic_string_viewIcSt11char_traitsIcEEC2EPKc(ptr noundef nonnull align 8 dereferenceable(16) %agg.tmp822, ptr noundef @.str.65) #5
  %m_dpx823 = getelementptr inbounds %"class.OpenImageIO_v2_6_0::DPXInput", ptr %this1, i32 0, i32 3
  %header824 = getelementptr inbounds %"class.dpx::Reader", ptr %m_dpx823, i32 0, i32 1
  %add.ptr825 = getelementptr inbounds i8, ptr %header824, i64 1664
  %call826 = call noundef float @_ZNK3dpx14IndustryHeader9BlackGainEv(ptr noundef nonnull align 4 dereferenceable(384) %add.ptr825)
  call void @_ZN18OpenImageIO_v2_6_09ImageSpec9attributeENS_17basic_string_viewIcSt11char_traitsIcEEEf(ptr noundef nonnull align 8 dereferenceable(160) %m_spec821, ptr noundef %agg.tmp822, float noundef %call826)
  br label %if.end827

if.end827:                                        ; preds = %if.then820, %if.end814
  %m_dpx828 = getelementptr inbounds %"class.OpenImageIO_v2_6_0::DPXInput", ptr %this1, i32 0, i32 3
  %header829 = getelementptr inbounds %"class.dpx::Reader", ptr %m_dpx828, i32 0, i32 1
  %add.ptr830 = getelementptr inbounds i8, ptr %header829, i64 1664
  %call831 = call noundef float @_ZNK3dpx14IndustryHeader10BreakPointEv(ptr noundef nonnull align 4 dereferenceable(384) %add.ptr830)
  %call832 = call noundef zeroext i1 @_ZSt5isnanf(float noundef %call831)
  br i1 %call832, label %if.end840, label %if.then833

if.then833:                                       ; preds = %if.end827
  %m_spec834 = getelementptr inbounds %"class.OpenImageIO_v2_6_0::ImageInput", ptr %this1, i32 0, i32 1
  call void @_ZN18OpenImageIO_v2_6_017basic_string_viewIcSt11char_traitsIcEEC2EPKc(ptr noundef nonnull align 8 dereferenceable(16) %agg.tmp835, ptr noundef @.str.66) #5
  %m_dpx836 = getelementptr inbounds %"class.OpenImageIO_v2_6_0::DPXInput", ptr %this1, i32 0, i32 3
  %header837 = getelementptr inbounds %"class.dpx::Reader", ptr %m_dpx836, i32 0, i32 1
  %add.ptr838 = getelementptr inbounds i8, ptr %header837, i64 1664
  %call839 = call noundef float @_ZNK3dpx14IndustryHeader10BreakPointEv(ptr noundef nonnull align 4 dereferenceable(384) %add.ptr838)
  call void @_ZN18OpenImageIO_v2_6_09ImageSpec9attributeENS_17basic_string_viewIcSt11char_traitsIcEEEf(ptr noundef nonnull align 8 dereferenceable(160) %m_spec834, ptr noundef %agg.tmp835, float noundef %call839)
  br label %if.end840

if.end840:                                        ; preds = %if.then833, %if.end827
  %m_dpx841 = getelementptr inbounds %"class.OpenImageIO_v2_6_0::DPXInput", ptr %this1, i32 0, i32 3
  %header842 = getelementptr inbounds %"class.dpx::Reader", ptr %m_dpx841, i32 0, i32 1
  %add.ptr843 = getelementptr inbounds i8, ptr %header842, i64 1664
  %call844 = call noundef float @_ZNK3dpx14IndustryHeader10WhiteLevelEv(ptr noundef nonnull align 4 dereferenceable(384) %add.ptr843)
  %call845 = call noundef zeroext i1 @_ZSt5isnanf(float noundef %call844)
  br i1 %call845, label %if.end853, label %if.then846

if.then846:                                       ; preds = %if.end840
  %m_spec847 = getelementptr inbounds %"class.OpenImageIO_v2_6_0::ImageInput", ptr %this1, i32 0, i32 1
  call void @_ZN18OpenImageIO_v2_6_017basic_string_viewIcSt11char_traitsIcEEC2EPKc(ptr noundef nonnull align 8 dereferenceable(16) %agg.tmp848, ptr noundef @.str.67) #5
  %m_dpx849 = getelementptr inbounds %"class.OpenImageIO_v2_6_0::DPXInput", ptr %this1, i32 0, i32 3
  %header850 = getelementptr inbounds %"class.dpx::Reader", ptr %m_dpx849, i32 0, i32 1
  %add.ptr851 = getelementptr inbounds i8, ptr %header850, i64 1664
  %call852 = call noundef float @_ZNK3dpx14IndustryHeader10WhiteLevelEv(ptr noundef nonnull align 4 dereferenceable(384) %add.ptr851)
  call void @_ZN18OpenImageIO_v2_6_09ImageSpec9attributeENS_17basic_string_viewIcSt11char_traitsIcEEEf(ptr noundef nonnull align 8 dereferenceable(160) %m_spec847, ptr noundef %agg.tmp848, float noundef %call852)
  br label %if.end853

if.end853:                                        ; preds = %if.then846, %if.end840
  %m_dpx854 = getelementptr inbounds %"class.OpenImageIO_v2_6_0::DPXInput", ptr %this1, i32 0, i32 3
  %header855 = getelementptr inbounds %"class.dpx::Reader", ptr %m_dpx854, i32 0, i32 1
  %add.ptr856 = getelementptr inbounds i8, ptr %header855, i64 1664
  %call857 = call noundef float @_ZNK3dpx14IndustryHeader16IntegrationTimesEv(ptr noundef nonnull align 4 dereferenceable(384) %add.ptr856)
  %call858 = call noundef zeroext i1 @_ZSt5isnanf(float noundef %call857)
  br i1 %call858, label %if.end866, label %if.then859

if.then859:                                       ; preds = %if.end853
  %m_spec860 = getelementptr inbounds %"class.OpenImageIO_v2_6_0::ImageInput", ptr %this1, i32 0, i32 1
  call void @_ZN18OpenImageIO_v2_6_017basic_string_viewIcSt11char_traitsIcEEC2EPKc(ptr noundef nonnull align 8 dereferenceable(16) %agg.tmp861, ptr noundef @.str.68) #5
  %m_dpx862 = getelementptr inbounds %"class.OpenImageIO_v2_6_0::DPXInput", ptr %this1, i32 0, i32 3
  %header863 = getelementptr inbounds %"class.dpx::Reader", ptr %m_dpx862, i32 0, i32 1
  %add.ptr864 = getelementptr inbounds i8, ptr %header863, i64 1664
  %call865 = call noundef float @_ZNK3dpx14IndustryHeader16IntegrationTimesEv(ptr noundef nonnull align 4 dereferenceable(384) %add.ptr864)
  call void @_ZN18OpenImageIO_v2_6_09ImageSpec9attributeENS_17basic_string_viewIcSt11char_traitsIcEEEf(ptr noundef nonnull align 8 dereferenceable(160) %m_spec860, ptr noundef %agg.tmp861, float noundef %call865)
  br label %if.end866

if.end866:                                        ; preds = %if.then859, %if.end853
  call void @_ZNSt7__cxx1112basic_stringIcSt11char_traitsIcESaIcEEC1Ev(ptr noundef nonnull align 8 dereferenceable(32) %tmpstr) #5
  %m_dpx867 = getelementptr inbounds %"class.OpenImageIO_v2_6_0::DPXInput", ptr %this1, i32 0, i32 3
  %header868 = getelementptr inbounds %"class.dpx::Reader", ptr %m_dpx867, i32 0, i32 1
  %86 = load i32, ptr %subimage.addr, align 4
  %call871 = invoke noundef i32 @_ZNK3dpx13GenericHeader12ImagePackingEi(ptr noundef nonnull align 4 dereferenceable(1664) %header868, i32 noundef %86)
          to label %invoke.cont870 unwind label %lpad869

invoke.cont870:                                   ; preds = %if.end866
  switch i32 %call871, label %sw.epilog881 [
    i32 0, label %sw.bb872
    i32 1, label %sw.bb875
    i32 2, label %sw.bb878
  ]

lpad869:                                          ; preds = %invoke.cont1097, %if.then1091, %invoke.cont1082, %invoke.cont1079, %if.then1075, %land.lhs.true1069, %land.lhs.true1063, %if.then1056, %invoke.cont1050, %sw.default1044, %sw.bb1040, %sw.bb1037, %sw.bb1034, %sw.bb1031, %sw.bb1028, %sw.bb1025, %sw.bb1022, %sw.bb1019, %sw.bb1016, %sw.bb1013, %sw.bb1010, %sw.bb1007, %sw.bb1004, %sw.bb1001, %sw.bb998, %sw.bb995, %sw.bb992, %if.end986, %if.then980, %if.end972, %if.then956, %if.then943, %invoke.cont929, %invoke.cont920, %if.then908, %invoke.cont897, %if.then895, %if.then883, %sw.bb878, %sw.bb875, %sw.bb872, %if.end866
  %87 = landingpad { ptr, i32 }
          cleanup
  %88 = extractvalue { ptr, i32 } %87, 0
  store ptr %88, ptr %exn.slot, align 8
  %89 = extractvalue { ptr, i32 } %87, 1
  store i32 %89, ptr %ehselector.slot, align 4
  br label %ehcleanup

sw.bb872:                                         ; preds = %invoke.cont870
  %call874 = invoke noundef nonnull align 8 dereferenceable(32) ptr @_ZNSt7__cxx1112basic_stringIcSt11char_traitsIcESaIcEEaSEPKc(ptr noundef nonnull align 8 dereferenceable(32) %tmpstr, ptr noundef @.str.69)
          to label %invoke.cont873 unwind label %lpad869

invoke.cont873:                                   ; preds = %sw.bb872
  br label %sw.epilog881

sw.bb875:                                         ; preds = %invoke.cont870
  %call877 = invoke noundef nonnull align 8 dereferenceable(32) ptr @_ZNSt7__cxx1112basic_stringIcSt11char_traitsIcESaIcEEaSEPKc(ptr noundef nonnull align 8 dereferenceable(32) %tmpstr, ptr noundef @.str.70)
          to label %invoke.cont876 unwind label %lpad869

invoke.cont876:                                   ; preds = %sw.bb875
  br label %sw.epilog881

sw.bb878:                                         ; preds = %invoke.cont870
  %call880 = invoke noundef nonnull align 8 dereferenceable(32) ptr @_ZNSt7__cxx1112basic_stringIcSt11char_traitsIcESaIcEEaSEPKc(ptr noundef nonnull align 8 dereferenceable(32) %tmpstr, ptr noundef @.str.71)
          to label %invoke.cont879 unwind label %lpad869

invoke.cont879:                                   ; preds = %sw.bb878
  br label %sw.epilog881

sw.epilog881:                                     ; preds = %invoke.cont879, %invoke.cont876, %invoke.cont873, %invoke.cont870
  %call882 = call noundef zeroext i1 @_ZNKSt7__cxx1112basic_stringIcSt11char_traitsIcESaIcEE5emptyEv(ptr noundef nonnull align 8 dereferenceable(32) %tmpstr) #5
  br i1 %call882, label %if.end888, label %if.then883

if.then883:                                       ; preds = %sw.epilog881
  %m_spec884 = getelementptr inbounds %"class.OpenImageIO_v2_6_0::ImageInput", ptr %this1, i32 0, i32 1
  call void @_ZN18OpenImageIO_v2_6_017basic_string_viewIcSt11char_traitsIcEEC2EPKc(ptr noundef nonnull align 8 dereferenceable(16) %agg.tmp885, ptr noundef @.str.72) #5
  call void @_ZN18OpenImageIO_v2_6_017basic_string_viewIcSt11char_traitsIcEEC2ERKNSt7__cxx1112basic_stringIcS2_SaIcEEE(ptr noundef nonnull align 8 dereferenceable(16) %agg.tmp886, ptr noundef nonnull align 8 dereferenceable(32) %tmpstr) #5
  invoke void @_ZN18OpenImageIO_v2_6_09ImageSpec9attributeENS_17basic_string_viewIcSt11char_traitsIcEEES4_(ptr noundef nonnull align 8 dereferenceable(160) %m_spec884, ptr noundef %agg.tmp885, ptr noundef %agg.tmp886)
          to label %invoke.cont887 unwind label %lpad869

invoke.cont887:                                   ; preds = %if.then883
  br label %if.end888

if.end888:                                        ; preds = %invoke.cont887, %sw.epilog881
  %m_dpx889 = getelementptr inbounds %"class.OpenImageIO_v2_6_0::DPXInput", ptr %this1, i32 0, i32 3
  %header890 = getelementptr inbounds %"class.dpx::Reader", ptr %m_dpx889, i32 0, i32 1
  %add.ptr891 = getelementptr inbounds i8, ptr %header890, i64 1664
  %filmManufacturingIdCode = getelementptr inbounds %"struct.dpx::IndustryHeader", ptr %add.ptr891, i32 0, i32 0
  %arrayidx892 = getelementptr inbounds [2 x i8], ptr %filmManufacturingIdCode, i64 0, i64 0
  %90 = load i8, ptr %arrayidx892, align 8
  %conv893 = sext i8 %90 to i32
  %cmp894 = icmp ne i32 %conv893, 0
  br i1 %cmp894, label %if.then895, label %if.end903

if.then895:                                       ; preds = %if.end888
  %arraydecay896 = getelementptr inbounds [7 x i32], ptr %kc, i64 0, i64 0
  invoke void @_ZN18OpenImageIO_v2_6_08DPXInput18get_keycode_valuesEPi(ptr noundef nonnull align 8 dereferenceable(2400) %this1, ptr noundef %arraydecay896)
          to label %invoke.cont897 unwind label %lpad869

invoke.cont897:                                   ; preds = %if.then895
  %m_spec898 = getelementptr inbounds %"class.OpenImageIO_v2_6_0::ImageInput", ptr %this1, i32 0, i32 1
  call void @_ZN18OpenImageIO_v2_6_017basic_string_viewIcSt11char_traitsIcEEC2EPKc(ptr noundef nonnull align 8 dereferenceable(16) %agg.tmp899, ptr noundef @.str.73) #5
  call void @_ZN18OpenImageIO_v2_6_08TypeDescC2ERKS0_(ptr noundef nonnull align 4 dereferenceable(8) %agg.tmp900, ptr noundef nonnull align 4 dereferenceable(8) @_ZN18OpenImageIO_v2_6_011TypeKeyCodeE) #5
  %arraydecay901 = getelementptr inbounds [7 x i32], ptr %kc, i64 0, i64 0
  invoke void @_ZN18OpenImageIO_v2_6_09ImageSpec9attributeENS_17basic_string_viewIcSt11char_traitsIcEEENS_8TypeDescEPKv(ptr noundef nonnull align 8 dereferenceable(160) %m_spec898, ptr noundef %agg.tmp899, ptr noundef %agg.tmp900, ptr noundef %arraydecay901)
          to label %invoke.cont902 unwind label %lpad869

invoke.cont902:                                   ; preds = %invoke.cont897
  br label %if.end903

if.end903:                                        ; preds = %invoke.cont902, %if.end888
  %m_dpx904 = getelementptr inbounds %"class.OpenImageIO_v2_6_0::DPXInput", ptr %this1, i32 0, i32 3
  %header905 = getelementptr inbounds %"class.dpx::Reader", ptr %m_dpx904, i32 0, i32 1
  %add.ptr906 = getelementptr inbounds i8, ptr %header905, i64 1664
  %timeCode = getelementptr inbounds %"struct.dpx::IndustryHeader", ptr %add.ptr906, i32 0, i32 14
  %91 = load i32, ptr %timeCode, align 8
  %cmp907 = icmp ne i32 %91, -1
  br i1 %cmp907, label %if.then908, label %if.end937

if.then908:                                       ; preds = %if.end903
  %arrayinit.begin = getelementptr inbounds [2 x i32], ptr %timecode, i64 0, i64 0
  %m_dpx909 = getelementptr inbounds %"class.OpenImageIO_v2_6_0::DPXInput", ptr %this1, i32 0, i32 3
  %header910 = getelementptr inbounds %"class.dpx::Reader", ptr %m_dpx909, i32 0, i32 1
  %add.ptr911 = getelementptr inbounds i8, ptr %header910, i64 1664
  %timeCode912 = getelementptr inbounds %"struct.dpx::IndustryHeader", ptr %add.ptr911, i32 0, i32 14
  %92 = load i32, ptr %timeCode912, align 8
  store i32 %92, ptr %arrayinit.begin, align 4
  %arrayinit.element = getelementptr inbounds i32, ptr %arrayinit.begin, i64 1
  %m_dpx913 = getelementptr inbounds %"class.OpenImageIO_v2_6_0::DPXInput", ptr %this1, i32 0, i32 3
  %header914 = getelementptr inbounds %"class.dpx::Reader", ptr %m_dpx913, i32 0, i32 1
  %add.ptr915 = getelementptr inbounds i8, ptr %header914, i64 1664
  %userBits = getelementptr inbounds %"struct.dpx::IndustryHeader", ptr %add.ptr915, i32 0, i32 15
  %93 = load i32, ptr %userBits, align 4
  store i32 %93, ptr %arrayinit.element, align 4
  %m_spec916 = getelementptr inbounds %"class.OpenImageIO_v2_6_0::ImageInput", ptr %this1, i32 0, i32 1
  call void @_ZN18OpenImageIO_v2_6_017basic_string_viewIcSt11char_traitsIcEEC2EPKc(ptr noundef nonnull align 8 dereferenceable(16) %agg.tmp917, ptr noundef @.str.74) #5
  call void @_ZN18OpenImageIO_v2_6_08TypeDescC2ERKS0_(ptr noundef nonnull align 4 dereferenceable(8) %agg.tmp918, ptr noundef nonnull align 4 dereferenceable(8) @_ZN18OpenImageIO_v2_6_012TypeTimeCodeE) #5
  %arraydecay919 = getelementptr inbounds [2 x i32], ptr %timecode, i64 0, i64 0
  invoke void @_ZN18OpenImageIO_v2_6_09ImageSpec9attributeENS_17basic_string_viewIcSt11char_traitsIcEEENS_8TypeDescEPKv(ptr noundef nonnull align 8 dereferenceable(160) %m_spec916, ptr noundef %agg.tmp917, ptr noundef %agg.tmp918, ptr noundef %arraydecay919)
          to label %invoke.cont920 unwind label %lpad869

invoke.cont920:                                   ; preds = %if.then908
  %m_dpx921 = getelementptr inbounds %"class.OpenImageIO_v2_6_0::DPXInput", ptr %this1, i32 0, i32 3
  %header922 = getelementptr inbounds %"class.dpx::Reader", ptr %m_dpx921, i32 0, i32 1
  %add.ptr923 = getelementptr inbounds i8, ptr %header922, i64 1664
  %timeCode924 = getelementptr inbounds %"struct.dpx::IndustryHeader", ptr %add.ptr923, i32 0, i32 14
  %94 = load i32, ptr %timeCode924, align 8
  %m_dpx925 = getelementptr inbounds %"class.OpenImageIO_v2_6_0::DPXInput", ptr %this1, i32 0, i32 3
  %header926 = getelementptr inbounds %"class.dpx::Reader", ptr %m_dpx925, i32 0, i32 1
  %add.ptr927 = getelementptr inbounds i8, ptr %header926, i64 1664
  %userBits928 = getelementptr inbounds %"struct.dpx::IndustryHeader", ptr %add.ptr927, i32 0, i32 15
  %95 = load i32, ptr %userBits928, align 4
  invoke void @_ZN7Imf_2_58TimeCodeC1EjjNS0_7PackingE(ptr noundef nonnull align 4 dereferenceable(8) %tc, i32 noundef %94, i32 noundef %95, i32 noundef 0)
          to label %invoke.cont929 unwind label %lpad869

invoke.cont929:                                   ; preds = %invoke.cont920
  %m_spec930 = getelementptr inbounds %"class.OpenImageIO_v2_6_0::ImageInput", ptr %this1, i32 0, i32 1
  call void @_ZN18OpenImageIO_v2_6_017basic_string_viewIcSt11char_traitsIcEEC2EPKc(ptr noundef nonnull align 8 dereferenceable(16) %agg.tmp931, ptr noundef @.str.75) #5
  invoke void @_ZN18OpenImageIO_v2_6_08DPXInput19get_timecode_stringB5cxx11ERN7Imf_2_58TimeCodeE(ptr sret(%"class.std::__cxx11::basic_string") align 8 %ref.tmp933, ptr noundef nonnull align 8 dereferenceable(2400) %this1, ptr noundef nonnull align 4 dereferenceable(8) %tc)
          to label %invoke.cont934 unwind label %lpad869

invoke.cont934:                                   ; preds = %invoke.cont929
  call void @_ZN18OpenImageIO_v2_6_017basic_string_viewIcSt11char_traitsIcEEC2ERKNSt7__cxx1112basic_stringIcS2_SaIcEEE(ptr noundef nonnull align 8 dereferenceable(16) %agg.tmp932, ptr noundef nonnull align 8 dereferenceable(32) %ref.tmp933) #5
  invoke void @_ZN18OpenImageIO_v2_6_09ImageSpec9attributeENS_17basic_string_viewIcSt11char_traitsIcEEES4_(ptr noundef nonnull align 8 dereferenceable(160) %m_spec930, ptr noundef %agg.tmp931, ptr noundef %agg.tmp932)
          to label %invoke.cont936 unwind label %lpad935

invoke.cont936:                                   ; preds = %invoke.cont934
  call void @_ZNSt7__cxx1112basic_stringIcSt11char_traitsIcESaIcEED1Ev(ptr noundef nonnull align 8 dereferenceable(32) %ref.tmp933) #5
  br label %if.end937

lpad935:                                          ; preds = %invoke.cont934
  %96 = landingpad { ptr, i32 }
          cleanup
  %97 = extractvalue { ptr, i32 } %96, 0
  store ptr %97, ptr %exn.slot, align 8
  %98 = extractvalue { ptr, i32 } %96, 1
  store i32 %98, ptr %ehselector.slot, align 4
  call void @_ZNSt7__cxx1112basic_stringIcSt11char_traitsIcESaIcEED1Ev(ptr noundef nonnull align 8 dereferenceable(32) %ref.tmp933) #5
  br label %ehcleanup

if.end937:                                        ; preds = %invoke.cont936, %if.end903
  %m_dpx938 = getelementptr inbounds %"class.OpenImageIO_v2_6_0::DPXInput", ptr %this1, i32 0, i32 3
  %header939 = getelementptr inbounds %"class.dpx::Reader", ptr %m_dpx938, i32 0, i32 1
  %add.ptr940 = getelementptr inbounds i8, ptr %header939, i64 1664
  %userBits941 = getelementptr inbounds %"struct.dpx::IndustryHeader", ptr %add.ptr940, i32 0, i32 15
  %99 = load i32, ptr %userBits941, align 4
  %cmp942 = icmp ne i32 %99, -1
  br i1 %cmp942, label %if.then943, label %if.end951

if.then943:                                       ; preds = %if.end937
  %m_spec944 = getelementptr inbounds %"class.OpenImageIO_v2_6_0::ImageInput", ptr %this1, i32 0, i32 1
  call void @_ZN18OpenImageIO_v2_6_017basic_string_viewIcSt11char_traitsIcEEC2EPKc(ptr noundef nonnull align 8 dereferenceable(16) %agg.tmp945, ptr noundef @.str.76) #5
  %m_dpx946 = getelementptr inbounds %"class.OpenImageIO_v2_6_0::DPXInput", ptr %this1, i32 0, i32 3
  %header947 = getelementptr inbounds %"class.dpx::Reader", ptr %m_dpx946, i32 0, i32 1
  %add.ptr948 = getelementptr inbounds i8, ptr %header947, i64 1664
  %userBits949 = getelementptr inbounds %"struct.dpx::IndustryHeader", ptr %add.ptr948, i32 0, i32 15
  %100 = load i32, ptr %userBits949, align 4
  invoke void @_ZN18OpenImageIO_v2_6_09ImageSpec9attributeENS_17basic_string_viewIcSt11char_traitsIcEEEj(ptr noundef nonnull align 8 dereferenceable(160) %m_spec944, ptr noundef %agg.tmp945, i32 noundef %100)
          to label %invoke.cont950 unwind label %lpad869

invoke.cont950:                                   ; preds = %if.then943
  br label %if.end951

if.end951:                                        ; preds = %invoke.cont950, %if.end937
  %m_dpx952 = getelementptr inbounds %"class.OpenImageIO_v2_6_0::DPXInput", ptr %this1, i32 0, i32 3
  %header953 = getelementptr inbounds %"class.dpx::Reader", ptr %m_dpx952, i32 0, i32 1
  %sourceTimeDate = getelementptr inbounds %"struct.dpx::GenericHeader", ptr %header953, i32 0, i32 28
  %arrayidx954 = getelementptr inbounds [24 x i8], ptr %sourceTimeDate, i64 0, i64 0
  %101 = load i8, ptr %arrayidx954, align 4
  %tobool955 = icmp ne i8 %101, 0
  br i1 %tobool955, label %if.then956, label %if.end972

if.then956:                                       ; preds = %if.end951
  %arraydecay958 = getelementptr inbounds [24 x i8], ptr %date957, i64 0, i64 0
  %m_dpx960 = getelementptr inbounds %"class.OpenImageIO_v2_6_0::DPXInput", ptr %this1, i32 0, i32 3
  %header961 = getelementptr inbounds %"class.dpx::Reader", ptr %m_dpx960, i32 0, i32 1
  %sourceTimeDate962 = getelementptr inbounds %"struct.dpx::GenericHeader", ptr %header961, i32 0, i32 28
  %arraydecay963 = getelementptr inbounds [24 x i8], ptr %sourceTimeDate962, i64 0, i64 0
  call void @_ZN18OpenImageIO_v2_6_017basic_string_viewIcSt11char_traitsIcEEC2EPKc(ptr noundef nonnull align 8 dereferenceable(16) %agg.tmp959, ptr noundef %arraydecay963) #5
  %call964 = call noundef ptr @_ZN18OpenImageIO_v2_6_07Strutil11safe_strcpyEPcNS_17basic_string_viewIcSt11char_traitsIcEEEm(ptr noundef %arraydecay958, ptr noundef %agg.tmp959, i64 noundef 24) #5
  %arrayidx965 = getelementptr inbounds [24 x i8], ptr %date957, i64 0, i64 10
  store i8 32, ptr %arrayidx965, align 2
  %arrayidx966 = getelementptr inbounds [24 x i8], ptr %date957, i64 0, i64 19
  store i8 0, ptr %arrayidx966, align 1
  %m_spec967 = getelementptr inbounds %"class.OpenImageIO_v2_6_0::ImageInput", ptr %this1, i32 0, i32 1
  call void @_ZN18OpenImageIO_v2_6_017basic_string_viewIcSt11char_traitsIcEEC2EPKc(ptr noundef nonnull align 8 dereferenceable(16) %agg.tmp968, ptr noundef @.str.77) #5
  %arraydecay970 = getelementptr inbounds [24 x i8], ptr %date957, i64 0, i64 0
  call void @_ZN18OpenImageIO_v2_6_017basic_string_viewIcSt11char_traitsIcEEC2EPKc(ptr noundef nonnull align 8 dereferenceable(16) %agg.tmp969, ptr noundef %arraydecay970) #5
  invoke void @_ZN18OpenImageIO_v2_6_09ImageSpec9attributeENS_17basic_string_viewIcSt11char_traitsIcEEES4_(ptr noundef nonnull align 8 dereferenceable(160) %m_spec967, ptr noundef %agg.tmp968, ptr noundef %agg.tmp969)
          to label %invoke.cont971 unwind label %lpad869

invoke.cont971:                                   ; preds = %if.then956
  br label %if.end972

if.end972:                                        ; preds = %invoke.cont971, %if.end951
  %m_dpx973 = getelementptr inbounds %"class.OpenImageIO_v2_6_0::DPXInput", ptr %this1, i32 0, i32 3
  %header974 = getelementptr inbounds %"class.dpx::Reader", ptr %m_dpx973, i32 0, i32 1
  %add.ptr975 = getelementptr inbounds i8, ptr %header974, i64 1664
  %arraydecay976 = getelementptr inbounds [17 x i8], ptr %filmedge, i64 0, i64 0
  invoke void @_ZNK3dpx14IndustryHeader12FilmEdgeCodeEPc(ptr noundef nonnull align 4 dereferenceable(384) %add.ptr975, ptr noundef %arraydecay976)
          to label %invoke.cont977 unwind label %lpad869

invoke.cont977:                                   ; preds = %if.end972
  %arrayidx978 = getelementptr inbounds [17 x i8], ptr %filmedge, i64 0, i64 0
  %102 = load i8, ptr %arrayidx978, align 16
  %tobool979 = icmp ne i8 %102, 0
  br i1 %tobool979, label %if.then980, label %if.end986

if.then980:                                       ; preds = %invoke.cont977
  %m_spec981 = getelementptr inbounds %"class.OpenImageIO_v2_6_0::ImageInput", ptr %this1, i32 0, i32 1
  call void @_ZN18OpenImageIO_v2_6_017basic_string_viewIcSt11char_traitsIcEEC2EPKc(ptr noundef nonnull align 8 dereferenceable(16) %agg.tmp982, ptr noundef @.str.78) #5
  %arraydecay984 = getelementptr inbounds [17 x i8], ptr %filmedge, i64 0, i64 0
  call void @_ZN18OpenImageIO_v2_6_017basic_string_viewIcSt11char_traitsIcEEC2EPKc(ptr noundef nonnull align 8 dereferenceable(16) %agg.tmp983, ptr noundef %arraydecay984) #5
  invoke void @_ZN18OpenImageIO_v2_6_09ImageSpec9attributeENS_17basic_string_viewIcSt11char_traitsIcEEES4_(ptr noundef nonnull align 8 dereferenceable(160) %m_spec981, ptr noundef %agg.tmp982, ptr noundef %agg.tmp983)
          to label %invoke.cont985 unwind label %lpad869

invoke.cont985:                                   ; preds = %if.then980
  br label %if.end986

if.end986:                                        ; preds = %invoke.cont985, %invoke.cont977
  call void @_ZNSt7__cxx1112basic_stringIcSt11char_traitsIcESaIcEE5clearEv(ptr noundef nonnull align 8 dereferenceable(32) %tmpstr) #5
  %m_dpx987 = getelementptr inbounds %"class.OpenImageIO_v2_6_0::DPXInput", ptr %this1, i32 0, i32 3
  %header988 = getelementptr inbounds %"class.dpx::Reader", ptr %m_dpx987, i32 0, i32 1
  %add.ptr989 = getelementptr inbounds i8, ptr %header988, i64 1664
  %call991 = invoke noundef i32 @_ZNK3dpx14IndustryHeader6SignalEv(ptr noundef nonnull align 4 dereferenceable(384) %add.ptr989)
          to label %invoke.cont990 unwind label %lpad869

invoke.cont990:                                   ; preds = %if.end986
  switch i32 %call991, label %sw.default1044 [
    i32 0, label %sw.bb992
    i32 1, label %sw.bb995
    i32 2, label %sw.bb998
    i32 3, label %sw.bb1001
    i32 4, label %sw.bb1004
    i32 50, label %sw.bb1007
    i32 51, label %sw.bb1010
    i32 100, label %sw.bb1013
    i32 101, label %sw.bb1016
    i32 150, label %sw.bb1019
    i32 151, label %sw.bb1022
    i32 152, label %sw.bb1025
    i32 153, label %sw.bb1028
    i32 200, label %sw.bb1031
    i32 201, label %sw.bb1034
    i32 202, label %sw.bb1037
    i32 203, label %sw.bb1040
    i32 255, label %sw.bb1043
  ]

sw.bb992:                                         ; preds = %invoke.cont990
  %call994 = invoke noundef nonnull align 8 dereferenceable(32) ptr @_ZNSt7__cxx1112basic_stringIcSt11char_traitsIcESaIcEEaSEPKc(ptr noundef nonnull align 8 dereferenceable(32) %tmpstr, ptr noundef @.str.79)
          to label %invoke.cont993 unwind label %lpad869

invoke.cont993:                                   ; preds = %sw.bb992
  br label %sw.epilog1054

sw.bb995:                                         ; preds = %invoke.cont990
  %call997 = invoke noundef nonnull align 8 dereferenceable(32) ptr @_ZNSt7__cxx1112basic_stringIcSt11char_traitsIcESaIcEEaSEPKc(ptr noundef nonnull align 8 dereferenceable(32) %tmpstr, ptr noundef @.str.80)
          to label %invoke.cont996 unwind label %lpad869

invoke.cont996:                                   ; preds = %sw.bb995
  br label %sw.epilog1054

sw.bb998:                                         ; preds = %invoke.cont990
  %call1000 = invoke noundef nonnull align 8 dereferenceable(32) ptr @_ZNSt7__cxx1112basic_stringIcSt11char_traitsIcESaIcEEaSEPKc(ptr noundef nonnull align 8 dereferenceable(32) %tmpstr, ptr noundef @.str.81)
          to label %invoke.cont999 unwind label %lpad869

invoke.cont999:                                   ; preds = %sw.bb998
  br label %sw.epilog1054

sw.bb1001:                                        ; preds = %invoke.cont990
  %call1003 = invoke noundef nonnull align 8 dereferenceable(32) ptr @_ZNSt7__cxx1112basic_stringIcSt11char_traitsIcESaIcEEaSEPKc(ptr noundef nonnull align 8 dereferenceable(32) %tmpstr, ptr noundef @.str.82)
          to label %invoke.cont1002 unwind label %lpad869

invoke.cont1002:                                  ; preds = %sw.bb1001
  br label %sw.epilog1054

sw.bb1004:                                        ; preds = %invoke.cont990
  %call1006 = invoke noundef nonnull align 8 dereferenceable(32) ptr @_ZNSt7__cxx1112basic_stringIcSt11char_traitsIcESaIcEEaSEPKc(ptr noundef nonnull align 8 dereferenceable(32) %tmpstr, ptr noundef @.str.83)
          to label %invoke.cont1005 unwind label %lpad869

invoke.cont1005:                                  ; preds = %sw.bb1004
  br label %sw.epilog1054

sw.bb1007:                                        ; preds = %invoke.cont990
  %call1009 = invoke noundef nonnull align 8 dereferenceable(32) ptr @_ZNSt7__cxx1112basic_stringIcSt11char_traitsIcESaIcEEaSEPKc(ptr noundef nonnull align 8 dereferenceable(32) %tmpstr, ptr noundef @.str.84)
          to label %invoke.cont1008 unwind label %lpad869

invoke.cont1008:                                  ; preds = %sw.bb1007
  br label %sw.epilog1054

sw.bb1010:                                        ; preds = %invoke.cont990
  %call1012 = invoke noundef nonnull align 8 dereferenceable(32) ptr @_ZNSt7__cxx1112basic_stringIcSt11char_traitsIcESaIcEEaSEPKc(ptr noundef nonnull align 8 dereferenceable(32) %tmpstr, ptr noundef @.str.85)
          to label %invoke.cont1011 unwind label %lpad869

invoke.cont1011:                                  ; preds = %sw.bb1010
  br label %sw.epilog1054

sw.bb1013:                                        ; preds = %invoke.cont990
  %call1015 = invoke noundef nonnull align 8 dereferenceable(32) ptr @_ZNSt7__cxx1112basic_stringIcSt11char_traitsIcESaIcEEaSEPKc(ptr noundef nonnull align 8 dereferenceable(32) %tmpstr, ptr noundef @.str.86)
          to label %invoke.cont1014 unwind label %lpad869

invoke.cont1014:                                  ; preds = %sw.bb1013
  br label %sw.epilog1054

sw.bb1016:                                        ; preds = %invoke.cont990
  %call1018 = invoke noundef nonnull align 8 dereferenceable(32) ptr @_ZNSt7__cxx1112basic_stringIcSt11char_traitsIcESaIcEEaSEPKc(ptr noundef nonnull align 8 dereferenceable(32) %tmpstr, ptr noundef @.str.87)
          to label %invoke.cont1017 unwind label %lpad869

invoke.cont1017:                                  ; preds = %sw.bb1016
  br label %sw.epilog1054

sw.bb1019:                                        ; preds = %invoke.cont990
  %call1021 = invoke noundef nonnull align 8 dereferenceable(32) ptr @_ZNSt7__cxx1112basic_stringIcSt11char_traitsIcESaIcEEaSEPKc(ptr noundef nonnull align 8 dereferenceable(32) %tmpstr, ptr noundef @.str.88)
          to label %invoke.cont1020 unwind label %lpad869

invoke.cont1020:                                  ; preds = %sw.bb1019
  br label %sw.epilog1054

sw.bb1022:                                        ; preds = %invoke.cont990
  %call1024 = invoke noundef nonnull align 8 dereferenceable(32) ptr @_ZNSt7__cxx1112basic_stringIcSt11char_traitsIcESaIcEEaSEPKc(ptr noundef nonnull align 8 dereferenceable(32) %tmpstr, ptr noundef @.str.89)
          to label %invoke.cont1023 unwind label %lpad869

invoke.cont1023:                                  ; preds = %sw.bb1022
  br label %sw.epilog1054

sw.bb1025:                                        ; preds = %invoke.cont990
  %call1027 = invoke noundef nonnull align 8 dereferenceable(32) ptr @_ZNSt7__cxx1112basic_stringIcSt11char_traitsIcESaIcEEaSEPKc(ptr noundef nonnull align 8 dereferenceable(32) %tmpstr, ptr noundef @.str.90)
          to label %invoke.cont1026 unwind label %lpad869

invoke.cont1026:                                  ; preds = %sw.bb1025
  br label %sw.epilog1054

sw.bb1028:                                        ; preds = %invoke.cont990
  %call1030 = invoke noundef nonnull align 8 dereferenceable(32) ptr @_ZNSt7__cxx1112basic_stringIcSt11char_traitsIcESaIcEEaSEPKc(ptr noundef nonnull align 8 dereferenceable(32) %tmpstr, ptr noundef @.str.91)
          to label %invoke.cont1029 unwind label %lpad869

invoke.cont1029:                                  ; preds = %sw.bb1028
  br label %sw.epilog1054

sw.bb1031:                                        ; preds = %invoke.cont990
  %call1033 = invoke noundef nonnull align 8 dereferenceable(32) ptr @_ZNSt7__cxx1112basic_stringIcSt11char_traitsIcESaIcEEaSEPKc(ptr noundef nonnull align 8 dereferenceable(32) %tmpstr, ptr noundef @.str.92)
          to label %invoke.cont1032 unwind label %lpad869

invoke.cont1032:                                  ; preds = %sw.bb1031
  br label %sw.epilog1054

sw.bb1034:                                        ; preds = %invoke.cont990
  %call1036 = invoke noundef nonnull align 8 dereferenceable(32) ptr @_ZNSt7__cxx1112basic_stringIcSt11char_traitsIcESaIcEEaSEPKc(ptr noundef nonnull align 8 dereferenceable(32) %tmpstr, ptr noundef @.str.93)
          to label %invoke.cont1035 unwind label %lpad869

invoke.cont1035:                                  ; preds = %sw.bb1034
  br label %sw.epilog1054

sw.bb1037:                                        ; preds = %invoke.cont990
  %call1039 = invoke noundef nonnull align 8 dereferenceable(32) ptr @_ZNSt7__cxx1112basic_stringIcSt11char_traitsIcESaIcEEaSEPKc(ptr noundef nonnull align 8 dereferenceable(32) %tmpstr, ptr noundef @.str.94)
          to label %invoke.cont1038 unwind label %lpad869

invoke.cont1038:                                  ; preds = %sw.bb1037
  br label %sw.epilog1054

sw.bb1040:                                        ; preds = %invoke.cont990
  %call1042 = invoke noundef nonnull align 8 dereferenceable(32) ptr @_ZNSt7__cxx1112basic_stringIcSt11char_traitsIcESaIcEEaSEPKc(ptr noundef nonnull align 8 dereferenceable(32) %tmpstr, ptr noundef @.str.95)
          to label %invoke.cont1041 unwind label %lpad869

invoke.cont1041:                                  ; preds = %sw.bb1040
  br label %sw.epilog1054

sw.bb1043:                                        ; preds = %invoke.cont990
  br label %sw.epilog1054

sw.default1044:                                   ; preds = %invoke.cont990
  %m_dpx1047 = getelementptr inbounds %"class.OpenImageIO_v2_6_0::DPXInput", ptr %this1, i32 0, i32 3
  %header1048 = getelementptr inbounds %"class.dpx::Reader", ptr %m_dpx1047, i32 0, i32 1
  %add.ptr1049 = getelementptr inbounds i8, ptr %header1048, i64 1664
  %call1051 = invoke noundef i32 @_ZNK3dpx14IndustryHeader6SignalEv(ptr noundef nonnull align 4 dereferenceable(384) %add.ptr1049)
          to label %invoke.cont1050 unwind label %lpad869

invoke.cont1050:                                  ; preds = %sw.default1044
  store i32 %call1051, ptr %ref.tmp1046, align 4
  invoke void @_ZN3fmt2v87sprintfIA13_cJiEcEENSt7__cxx1112basic_stringIT1_St11char_traitsIS5_ESaIS5_EEERKT_DpRKT0_(ptr sret(%"class.std::__cxx11::basic_string") align 8 %ref.tmp1045, ptr noundef nonnull align 1 dereferenceable(13) @.str.96, ptr noundef nonnull align 4 dereferenceable(4) %ref.tmp1046)
          to label %invoke.cont1052 unwind label %lpad869

invoke.cont1052:                                  ; preds = %invoke.cont1050
  %call1053 = call noundef nonnull align 8 dereferenceable(32) ptr @_ZNSt7__cxx1112basic_stringIcSt11char_traitsIcESaIcEEaSEOS4_(ptr noundef nonnull align 8 dereferenceable(32) %tmpstr, ptr noundef nonnull align 8 dereferenceable(32) %ref.tmp1045) #5
  call void @_ZNSt7__cxx1112basic_stringIcSt11char_traitsIcESaIcEED1Ev(ptr noundef nonnull align 8 dereferenceable(32) %ref.tmp1045) #5
  br label %sw.epilog1054

sw.epilog1054:                                    ; preds = %invoke.cont1052, %sw.bb1043, %invoke.cont1041, %invoke.cont1038, %invoke.cont1035, %invoke.cont1032, %invoke.cont1029, %invoke.cont1026, %invoke.cont1023, %invoke.cont1020, %invoke.cont1017, %invoke.cont1014, %invoke.cont1011, %invoke.cont1008, %invoke.cont1005, %invoke.cont1002, %invoke.cont999, %invoke.cont996, %invoke.cont993
  %call1055 = call noundef zeroext i1 @_ZNKSt7__cxx1112basic_stringIcSt11char_traitsIcESaIcEE5emptyEv(ptr noundef nonnull align 8 dereferenceable(32) %tmpstr) #5
  br i1 %call1055, label %if.end1061, label %if.then1056

if.then1056:                                      ; preds = %sw.epilog1054
  %m_spec1057 = getelementptr inbounds %"class.OpenImageIO_v2_6_0::ImageInput", ptr %this1, i32 0, i32 1
  call void @_ZN18OpenImageIO_v2_6_017basic_string_viewIcSt11char_traitsIcEEC2EPKc(ptr noundef nonnull align 8 dereferenceable(16) %agg.tmp1058, ptr noundef @.str.97) #5
  call void @_ZN18OpenImageIO_v2_6_017basic_string_viewIcSt11char_traitsIcEEC2ERKNSt7__cxx1112basic_stringIcS2_SaIcEEE(ptr noundef nonnull align 8 dereferenceable(16) %agg.tmp1059, ptr noundef nonnull align 8 dereferenceable(32) %tmpstr) #5
  invoke void @_ZN18OpenImageIO_v2_6_09ImageSpec9attributeENS_17basic_string_viewIcSt11char_traitsIcEEES4_(ptr noundef nonnull align 8 dereferenceable(160) %m_spec1057, ptr noundef %agg.tmp1058, ptr noundef %agg.tmp1059)
          to label %invoke.cont1060 unwind label %lpad869

invoke.cont1060:                                  ; preds = %if.then1056
  br label %if.end1061

if.end1061:                                       ; preds = %invoke.cont1060, %sw.epilog1054
  %m_userBuf = getelementptr inbounds %"class.OpenImageIO_v2_6_0::DPXInput", ptr %this1, i32 0, i32 4
  %call1062 = call noundef zeroext i1 @_ZNKSt6vectorIhSaIhEE5emptyEv(ptr noundef nonnull align 8 dereferenceable(24) %m_userBuf) #5
  br i1 %call1062, label %land.lhs.true1063, label %if.end1088

land.lhs.true1063:                                ; preds = %if.end1061
  %m_dpx1064 = getelementptr inbounds %"class.OpenImageIO_v2_6_0::DPXInput", ptr %this1, i32 0, i32 3
  %header1065 = getelementptr inbounds %"class.dpx::Reader", ptr %m_dpx1064, i32 0, i32 1
  %call1067 = invoke noundef i32 @_ZNK3dpx13GenericHeader8UserSizeEv(ptr noundef nonnull align 4 dereferenceable(1664) %header1065)
          to label %invoke.cont1066 unwind label %lpad869

invoke.cont1066:                                  ; preds = %land.lhs.true1063
  %cmp1068 = icmp ne i32 %call1067, 0
  br i1 %cmp1068, label %land.lhs.true1069, label %if.end1088

land.lhs.true1069:                                ; preds = %invoke.cont1066
  %m_dpx1070 = getelementptr inbounds %"class.OpenImageIO_v2_6_0::DPXInput", ptr %this1, i32 0, i32 3
  %header1071 = getelementptr inbounds %"class.dpx::Reader", ptr %m_dpx1070, i32 0, i32 1
  %call1073 = invoke noundef i32 @_ZNK3dpx13GenericHeader8UserSizeEv(ptr noundef nonnull align 4 dereferenceable(1664) %header1071)
          to label %invoke.cont1072 unwind label %lpad869

invoke.cont1072:                                  ; preds = %land.lhs.true1069
  %cmp1074 = icmp ne i32 %call1073, -1
  br i1 %cmp1074, label %if.then1075, label %if.end1088

if.then1075:                                      ; preds = %invoke.cont1072
  %m_userBuf1076 = getelementptr inbounds %"class.OpenImageIO_v2_6_0::DPXInput", ptr %this1, i32 0, i32 4
  %m_dpx1077 = getelementptr inbounds %"class.OpenImageIO_v2_6_0::DPXInput", ptr %this1, i32 0, i32 3
  %header1078 = getelementptr inbounds %"class.dpx::Reader", ptr %m_dpx1077, i32 0, i32 1
  %call1080 = invoke noundef i32 @_ZNK3dpx13GenericHeader8UserSizeEv(ptr noundef nonnull align 4 dereferenceable(1664) %header1078)
          to label %invoke.cont1079 unwind label %lpad869

invoke.cont1079:                                  ; preds = %if.then1075
  %conv1081 = zext i32 %call1080 to i64
  invoke void @_ZNSt6vectorIhSaIhEE6resizeEm(ptr noundef nonnull align 8 dereferenceable(24) %m_userBuf1076, i64 noundef %conv1081)
          to label %invoke.cont1082 unwind label %lpad869

invoke.cont1082:                                  ; preds = %invoke.cont1079
  %m_dpx1083 = getelementptr inbounds %"class.OpenImageIO_v2_6_0::DPXInput", ptr %this1, i32 0, i32 3
  %m_userBuf1084 = getelementptr inbounds %"class.OpenImageIO_v2_6_0::DPXInput", ptr %this1, i32 0, i32 4
  %call1085 = call noundef nonnull align 1 dereferenceable(1) ptr @_ZNSt6vectorIhSaIhEEixEm(ptr noundef nonnull align 8 dereferenceable(24) %m_userBuf1084, i64 noundef 0) #5
  %call1087 = invoke noundef zeroext i1 @_ZN3dpx6Reader12ReadUserDataEPh(ptr noundef nonnull align 8 dereferenceable(2144) %m_dpx1083, ptr noundef %call1085)
          to label %invoke.cont1086 unwind label %lpad869

invoke.cont1086:                                  ; preds = %invoke.cont1082
  br label %if.end1088

if.end1088:                                       ; preds = %invoke.cont1086, %invoke.cont1072, %invoke.cont1066, %if.end1061
  %m_userBuf1089 = getelementptr inbounds %"class.OpenImageIO_v2_6_0::DPXInput", ptr %this1, i32 0, i32 4
  %call1090 = call noundef zeroext i1 @_ZNKSt6vectorIhSaIhEE5emptyEv(ptr noundef nonnull align 8 dereferenceable(24) %m_userBuf1089) #5
  br i1 %call1090, label %if.end1102, label %if.then1091

if.then1091:                                      ; preds = %if.end1088
  %m_spec1092 = getelementptr inbounds %"class.OpenImageIO_v2_6_0::ImageInput", ptr %this1, i32 0, i32 1
  call void @_ZN18OpenImageIO_v2_6_017basic_string_viewIcSt11char_traitsIcEEC2EPKc(ptr noundef nonnull align 8 dereferenceable(16) %agg.tmp1093, ptr noundef @.str.98) #5
  %m_dpx1095 = getelementptr inbounds %"class.OpenImageIO_v2_6_0::DPXInput", ptr %this1, i32 0, i32 3
  %header1096 = getelementptr inbounds %"class.dpx::Reader", ptr %m_dpx1095, i32 0, i32 1
  %call1098 = invoke noundef i32 @_ZNK3dpx13GenericHeader8UserSizeEv(ptr noundef nonnull align 4 dereferenceable(1664) %header1096)
          to label %invoke.cont1097 unwind label %lpad869

invoke.cont1097:                                  ; preds = %if.then1091
  call void @_ZN18OpenImageIO_v2_6_08TypeDescC2ENS0_8BASETYPEEi(ptr noundef nonnull align 4 dereferenceable(8) %agg.tmp1094, i32 noundef 2, i32 noundef %call1098) #5
  %m_userBuf1099 = getelementptr inbounds %"class.OpenImageIO_v2_6_0::DPXInput", ptr %this1, i32 0, i32 4
  %call1100 = call noundef nonnull align 1 dereferenceable(1) ptr @_ZNSt6vectorIhSaIhEEixEm(ptr noundef nonnull align 8 dereferenceable(24) %m_userBuf1099, i64 noundef 0) #5
  invoke void @_ZN18OpenImageIO_v2_6_09ImageSpec9attributeENS_17basic_string_viewIcSt11char_traitsIcEEENS_8TypeDescEPKv(ptr noundef nonnull align 8 dereferenceable(160) %m_spec1092, ptr noundef %agg.tmp1093, ptr noundef %agg.tmp1094, ptr noundef %call1100)
          to label %invoke.cont1101 unwind label %lpad869

invoke.cont1101:                                  ; preds = %invoke.cont1097
  br label %if.end1102

if.end1102:                                       ; preds = %invoke.cont1101, %if.end1088
  %m_spec1103 = getelementptr inbounds %"class.OpenImageIO_v2_6_0::ImageInput", ptr %this1, i32 0, i32 1
  %nchannels1104 = getelementptr inbounds %"class.OpenImageIO_v2_6_0::ImageSpec", ptr %m_spec1103, i32 0, i32 15
  %103 = load i32, ptr %nchannels1104, align 4
  %cmp1105 = icmp eq i32 %103, 1
  br i1 %cmp1105, label %if.then1106, label %if.end1108

if.then1106:                                      ; preds = %if.end1102
  %m_rawcolor1107 = getelementptr inbounds %"class.OpenImageIO_v2_6_0::DPXInput", ptr %this1, i32 0, i32 5
  store i8 1, ptr %m_rawcolor1107, align 8
  br label %if.end1108

if.end1108:                                       ; preds = %if.then1106, %if.end1102
  store i1 true, ptr %retval, align 1
  call void @_ZNSt7__cxx1112basic_stringIcSt11char_traitsIcESaIcEED1Ev(ptr noundef nonnull align 8 dereferenceable(32) %tmpstr) #5
  br label %return

ehcleanup:                                        ; preds = %lpad935, %lpad869
  call void @_ZNSt7__cxx1112basic_stringIcSt11char_traitsIcESaIcEED1Ev(ptr noundef nonnull align 8 dereferenceable(32) %tmpstr) #5
  br label %eh.resume

return:                                           ; preds = %if.end1108, %sw.default, %if.then7, %if.then3, %if.then
  %104 = load i1, ptr %retval, align 1
  ret i1 %104

eh.resume:                                        ; preds = %ehcleanup, %lpad394, %lpad269, %lpad260, %lpad246, %lpad
  %exn = load ptr, ptr %exn.slot, align 8
  %sel = load i32, ptr %ehselector.slot, align 4
  %lpad.val = insertvalue { ptr, i32 } poison, ptr %exn, 0
  %lpad.val1109 = insertvalue { ptr, i32 } %lpad.val, i32 %sel, 1
  resume { ptr, i32 } %lpad.val1109
}

; Function Attrs: mustprogress nounwind uwtable
define linkonce_odr noundef nonnull align 8 dereferenceable(160) ptr @_ZNK18OpenImageIO_v2_6_010ImageInput4specEv(ptr noundef nonnull align 8 dereferenceable(184) %this) unnamed_addr #1 comdat align 2 {
entry:
  %this.addr = alloca ptr, align 8
  store ptr %this, ptr %this.addr, align 8
  %this1 = load ptr, ptr %this.addr, align 8
  %m_spec = getelementptr inbounds %"class.OpenImageIO_v2_6_0::ImageInput", ptr %this1, i32 0, i32 1
  ret ptr %m_spec
}

; Function Attrs: mustprogress uwtable
define linkonce_odr noundef nonnull align 8 dereferenceable(160) ptr @_ZN18OpenImageIO_v2_6_09ImageSpecaSERKS0_(ptr noundef nonnull align 8 dereferenceable(160) %this, ptr noundef nonnull align 8 dereferenceable(160) %0) #6 comdat align 2 {
entry:
  %this.addr = alloca ptr, align 8
  %.addr = alloca ptr, align 8
  store ptr %this, ptr %this.addr, align 8
  store ptr %0, ptr %.addr, align 8
  %this1 = load ptr, ptr %this.addr, align 8
  %x = getelementptr inbounds %"class.OpenImageIO_v2_6_0::ImageSpec", ptr %this1, i32 0, i32 0
  %1 = load ptr, ptr %.addr, align 8
  %x2 = getelementptr inbounds %"class.OpenImageIO_v2_6_0::ImageSpec", ptr %1, i32 0, i32 0
  call void @llvm.memcpy.p0.p0.i64(ptr align 8 %x, ptr align 8 %x2, i64 72, i1 false)
  %channelformats = getelementptr inbounds %"class.OpenImageIO_v2_6_0::ImageSpec", ptr %this1, i32 0, i32 17
  %2 = load ptr, ptr %.addr, align 8
  %channelformats3 = getelementptr inbounds %"class.OpenImageIO_v2_6_0::ImageSpec", ptr %2, i32 0, i32 17
  %call = call noundef nonnull align 8 dereferenceable(24) ptr @_ZNSt6vectorIN18OpenImageIO_v2_6_08TypeDescESaIS1_EEaSERKS3_(ptr noundef nonnull align 8 dereferenceable(24) %channelformats, ptr noundef nonnull align 8 dereferenceable(24) %channelformats3)
  %channelnames = getelementptr inbounds %"class.OpenImageIO_v2_6_0::ImageSpec", ptr %this1, i32 0, i32 18
  %3 = load ptr, ptr %.addr, align 8
  %channelnames4 = getelementptr inbounds %"class.OpenImageIO_v2_6_0::ImageSpec", ptr %3, i32 0, i32 18
  %call5 = call noundef nonnull align 8 dereferenceable(24) ptr @_ZNSt6vectorINSt7__cxx1112basic_stringIcSt11char_traitsIcESaIcEEESaIS5_EEaSERKS7_(ptr noundef nonnull align 8 dereferenceable(24) %channelnames, ptr noundef nonnull align 8 dereferenceable(24) %channelnames4)
  %alpha_channel = getelementptr inbounds %"class.OpenImageIO_v2_6_0::ImageSpec", ptr %this1, i32 0, i32 19
  %4 = load ptr, ptr %.addr, align 8
  %alpha_channel6 = getelementptr inbounds %"class.OpenImageIO_v2_6_0::ImageSpec", ptr %4, i32 0, i32 19
  call void @llvm.memcpy.p0.p0.i64(ptr align 8 %alpha_channel, ptr align 8 %alpha_channel6, i64 9, i1 false)
  %extra_attribs = getelementptr inbounds %"class.OpenImageIO_v2_6_0::ImageSpec", ptr %this1, i32 0, i32 22
  %5 = load ptr, ptr %.addr, align 8
  %extra_attribs7 = getelementptr inbounds %"class.OpenImageIO_v2_6_0::ImageSpec", ptr %5, i32 0, i32 22
  %call8 = call noundef nonnull align 8 dereferenceable(24) ptr @_ZN18OpenImageIO_v2_6_014ParamValueListaSERKS0_(ptr noundef nonnull align 8 dereferenceable(24) %extra_attribs, ptr noundef nonnull align 8 dereferenceable(24) %extra_attribs7)
  ret ptr %this1
}

; Function Attrs: mustprogress uwtable
define hidden noundef zeroext i1 @_ZN18OpenImageIO_v2_6_08DPXInput4openERKNSt7__cxx1112basic_stringIcSt11char_traitsIcESaIcEEERNS_9ImageSpecERKS9_(ptr noundef nonnull align 8 dereferenceable(2400) %this, ptr noundef nonnull align 8 dereferenceable(32) %name, ptr noundef nonnull align 8 dereferenceable(160) %newspec, ptr noundef nonnull align 8 dereferenceable(160) %config) unnamed_addr #6 align 2 {
entry:
  %this.addr = alloca ptr, align 8
  %name.addr = alloca ptr, align 8
  %newspec.addr = alloca ptr, align 8
  %config.addr = alloca ptr, align 8
  %agg.tmp = alloca %"class.OpenImageIO_v2_6_0::basic_string_view", align 8
  %agg.tmp2 = alloca %"class.OpenImageIO_v2_6_0::basic_string_view", align 8
  %agg.tmp5 = alloca %"class.OpenImageIO_v2_6_0::basic_string_view", align 8
  store ptr %this, ptr %this.addr, align 8
  store ptr %name, ptr %name.addr, align 8
  store ptr %newspec, ptr %newspec.addr, align 8
  store ptr %config, ptr %config.addr, align 8
  %this1 = load ptr, ptr %this.addr, align 8
  %0 = load ptr, ptr %config.addr, align 8
  call void @_ZN18OpenImageIO_v2_6_017basic_string_viewIcSt11char_traitsIcEEC2EPKc(ptr noundef nonnull align 8 dereferenceable(16) %agg.tmp, ptr noundef @.str.3) #5
  %call = call noundef i32 @_ZNK18OpenImageIO_v2_6_09ImageSpec17get_int_attributeENS_17basic_string_viewIcSt11char_traitsIcEEEi(ptr noundef nonnull align 8 dereferenceable(160) %0, ptr noundef %agg.tmp, i32 noundef 0)
  %tobool = icmp ne i32 %call, 0
  br i1 %tobool, label %lor.end, label %lor.lhs.false

lor.lhs.false:                                    ; preds = %entry
  %1 = load ptr, ptr %config.addr, align 8
  call void @_ZN18OpenImageIO_v2_6_017basic_string_viewIcSt11char_traitsIcEEC2EPKc(ptr noundef nonnull align 8 dereferenceable(16) %agg.tmp2, ptr noundef @.str.4) #5
  %call3 = call noundef i32 @_ZNK18OpenImageIO_v2_6_09ImageSpec17get_int_attributeENS_17basic_string_viewIcSt11char_traitsIcEEEi(ptr noundef nonnull align 8 dereferenceable(160) %1, ptr noundef %agg.tmp2, i32 noundef 0)
  %tobool4 = icmp ne i32 %call3, 0
  br i1 %tobool4, label %lor.end, label %lor.rhs

lor.rhs:                                          ; preds = %lor.lhs.false
  %2 = load ptr, ptr %config.addr, align 8
  call void @_ZN18OpenImageIO_v2_6_017basic_string_viewIcSt11char_traitsIcEEC2EPKc(ptr noundef nonnull align 8 dereferenceable(16) %agg.tmp5, ptr noundef @.str.5) #5
  %call6 = call noundef i32 @_ZNK18OpenImageIO_v2_6_09ImageSpec17get_int_attributeENS_17basic_string_viewIcSt11char_traitsIcEEEi(ptr noundef nonnull align 8 dereferenceable(160) %2, ptr noundef %agg.tmp5, i32 noundef 0)
  %tobool7 = icmp ne i32 %call6, 0
  br label %lor.end

lor.end:                                          ; preds = %lor.rhs, %lor.lhs.false, %entry
  %3 = phi i1 [ true, %lor.lhs.false ], [ true, %entry ], [ %tobool7, %lor.rhs ]
  %m_rawcolor = getelementptr inbounds %"class.OpenImageIO_v2_6_0::DPXInput", ptr %this1, i32 0, i32 5
  %frombool = zext i1 %3 to i8
  store i8 %frombool, ptr %m_rawcolor, align 8
  %4 = load ptr, ptr %config.addr, align 8
  call void @_ZN18OpenImageIO_v2_6_010ImageInput28ioproxy_retrieve_from_configERKNS_9ImageSpecE(ptr noundef nonnull align 8 dereferenceable(184) %this1, ptr noundef nonnull align 8 dereferenceable(160) %4)
  %5 = load ptr, ptr %name.addr, align 8
  %6 = load ptr, ptr %newspec.addr, align 8
  %call8 = call noundef zeroext i1 @_ZN18OpenImageIO_v2_6_08DPXInput4openERKNSt7__cxx1112basic_stringIcSt11char_traitsIcESaIcEEERNS_9ImageSpecE(ptr noundef nonnull align 8 dereferenceable(2400) %this1, ptr noundef nonnull align 8 dereferenceable(32) %5, ptr noundef nonnull align 8 dereferenceable(160) %6)
  ret i1 %call8
}

declare noundef i32 @_ZNK18OpenImageIO_v2_6_09ImageSpec17get_int_attributeENS_17basic_string_viewIcSt11char_traitsIcEEEi(ptr noundef nonnull align 8 dereferenceable(160), ptr noundef, i32 noundef) #4

; Function Attrs: mustprogress nounwind uwtable
define linkonce_odr hidden void @_ZN18OpenImageIO_v2_6_017basic_string_viewIcSt11char_traitsIcEEC2EPKc(ptr noundef nonnull align 8 dereferenceable(16) %this, ptr noundef %chars) unnamed_addr #1 comdat align 2 personality ptr @__gxx_personality_v0 {
entry:
  %this.addr = alloca ptr, align 8
  %chars.addr = alloca ptr, align 8
  store ptr %this, ptr %this.addr, align 8
  store ptr %chars, ptr %chars.addr, align 8
  %this1 = load ptr, ptr %this.addr, align 8
  %m_chars = getelementptr inbounds %"class.OpenImageIO_v2_6_0::basic_string_view", ptr %this1, i32 0, i32 0
  %0 = load ptr, ptr %chars.addr, align 8
  store ptr %0, ptr %m_chars, align 8
  %m_len = getelementptr inbounds %"class.OpenImageIO_v2_6_0::basic_string_view", ptr %this1, i32 0, i32 1
  %1 = load ptr, ptr %chars.addr, align 8
  %tobool = icmp ne ptr %1, null
  br i1 %tobool, label %cond.true, label %cond.false

cond.true:                                        ; preds = %entry
  %2 = load ptr, ptr %chars.addr, align 8
  %call = invoke noundef i64 @_ZN18OpenImageIO_v2_6_017basic_string_viewIcSt11char_traitsIcEE8cestrlenEPKc(ptr noundef %2)
          to label %invoke.cont unwind label %terminate.lpad

invoke.cont:                                      ; preds = %cond.true
  br label %cond.end

cond.false:                                       ; preds = %entry
  br label %cond.end

cond.end:                                         ; preds = %cond.false, %invoke.cont
  %cond = phi i64 [ %call, %invoke.cont ], [ 0, %cond.false ]
  store i64 %cond, ptr %m_len, align 8
  ret void

terminate.lpad:                                   ; preds = %cond.true
  %3 = landingpad { ptr, i32 }
          catch ptr null
  %4 = extractvalue { ptr, i32 } %3, 0
  call void @__clang_call_terminate(ptr %4) #18
  unreachable
}

declare void @_ZN18OpenImageIO_v2_6_010ImageInput28ioproxy_retrieve_from_configERKNS_9ImageSpecE(ptr noundef nonnull align 8 dereferenceable(184), ptr noundef nonnull align 8 dereferenceable(160)) #4

declare noundef i32 @_ZNK3dpx13GenericHeader17ImageElementCountEv(ptr noundef nonnull align 4 dereferenceable(1664)) #4

; Function Attrs: mustprogress nounwind uwtable
define linkonce_odr void @_ZN18OpenImageIO_v2_6_08TypeDescC2ENS0_8BASETYPEENS0_9AGGREGATEENS0_12VECSEMANTICSEi(ptr noundef nonnull align 4 dereferenceable(8) %this, i32 noundef %btype, i32 noundef %agg, i32 noundef %semantics, i32 noundef %arraylen) unnamed_addr #1 comdat align 2 {
entry:
  %this.addr = alloca ptr, align 8
  %btype.addr = alloca i32, align 4
  %agg.addr = alloca i32, align 4
  %semantics.addr = alloca i32, align 4
  %arraylen.addr = alloca i32, align 4
  store ptr %this, ptr %this.addr, align 8
  store i32 %btype, ptr %btype.addr, align 4
  store i32 %agg, ptr %agg.addr, align 4
  store i32 %semantics, ptr %semantics.addr, align 4
  store i32 %arraylen, ptr %arraylen.addr, align 4
  %this1 = load ptr, ptr %this.addr, align 8
  %basetype = getelementptr inbounds %"struct.OpenImageIO_v2_6_0::TypeDesc", ptr %this1, i32 0, i32 0
  %0 = load i32, ptr %btype.addr, align 4
  %conv = trunc i32 %0 to i8
  store i8 %conv, ptr %basetype, align 4
  %aggregate = getelementptr inbounds %"struct.OpenImageIO_v2_6_0::TypeDesc", ptr %this1, i32 0, i32 1
  %1 = load i32, ptr %agg.addr, align 4
  %conv2 = trunc i32 %1 to i8
  store i8 %conv2, ptr %aggregate, align 1
  %vecsemantics = getelementptr inbounds %"struct.OpenImageIO_v2_6_0::TypeDesc", ptr %this1, i32 0, i32 2
  %2 = load i32, ptr %semantics.addr, align 4
  %conv3 = trunc i32 %2 to i8
  store i8 %conv3, ptr %vecsemantics, align 2
  %reserved = getelementptr inbounds %"struct.OpenImageIO_v2_6_0::TypeDesc", ptr %this1, i32 0, i32 3
  store i8 0, ptr %reserved, align 1
  %arraylen4 = getelementptr inbounds %"struct.OpenImageIO_v2_6_0::TypeDesc", ptr %this1, i32 0, i32 4
  %3 = load i32, ptr %arraylen.addr, align 4
  store i32 %3, ptr %arraylen4, align 4
  ret void
}

declare noundef i32 @_ZNK3dpx13GenericHeader17ComponentDataSizeEi(ptr noundef nonnull align 4 dereferenceable(1664), i32 noundef) #4

; Function Attrs: mustprogress nounwind uwtable
define linkonce_odr hidden noundef i32 @_ZNK3dpx13GenericHeader8DataSignEi(ptr noundef nonnull align 4 dereferenceable(1664) %this, i32 noundef %i) #1 comdat align 2 {
entry:
  %retval = alloca i32, align 4
  %this.addr = alloca ptr, align 8
  %i.addr = alloca i32, align 4
  store ptr %this, ptr %this.addr, align 8
  store i32 %i, ptr %i.addr, align 4
  %this1 = load ptr, ptr %this.addr, align 8
  %0 = load i32, ptr %i.addr, align 4
  %cmp = icmp slt i32 %0, 0
  br i1 %cmp, label %if.then, label %lor.lhs.false

lor.lhs.false:                                    ; preds = %entry
  %1 = load i32, ptr %i.addr, align 4
  %cmp2 = icmp sge i32 %1, 8
  br i1 %cmp2, label %if.then, label %if.end

if.then:                                          ; preds = %lor.lhs.false, %entry
  store i32 -1, ptr %retval, align 4
  br label %return

if.end:                                           ; preds = %lor.lhs.false
  %chan = getelementptr inbounds %"struct.dpx::GenericHeader", ptr %this1, i32 0, i32 19
  %2 = load i32, ptr %i.addr, align 4
  %idxprom = sext i32 %2 to i64
  %arrayidx = getelementptr inbounds [8 x %"struct.dpx::ImageElement"], ptr %chan, i64 0, i64 %idxprom
  %dataSign = getelementptr inbounds %"struct.dpx::ImageElement", ptr %arrayidx, i32 0, i32 0
  %3 = load i32, ptr %dataSign, align 4
  store i32 %3, ptr %retval, align 4
  br label %return

return:                                           ; preds = %if.end, %if.then
  %4 = load i32, ptr %retval, align 4
  ret i32 %4
}

; Function Attrs: nocallback nofree nounwind willreturn memory(argmem: readwrite)
declare void @llvm.memcpy.p0.p0.i64(ptr noalias nocapture writeonly, ptr noalias nocapture readonly, i64, i1 immarg) #8

declare noundef i32 @_ZNK3dpx6Header5WidthEv(ptr noundef nonnull align 4 dereferenceable(2049)) #4

declare noundef i32 @_ZNK3dpx6Header6HeightEv(ptr noundef nonnull align 4 dereferenceable(2049)) #4

declare noundef i32 @_ZNK3dpx13GenericHeader26ImageElementComponentCountEi(ptr noundef nonnull align 4 dereferenceable(1664), i32 noundef) #4

; Function Attrs: mustprogress nounwind uwtable
define linkonce_odr void @_ZN18OpenImageIO_v2_6_08TypeDescC2ERKS0_(ptr noundef nonnull align 4 dereferenceable(8) %this, ptr noundef nonnull align 4 dereferenceable(8) %t) unnamed_addr #1 comdat align 2 {
entry:
  %this.addr = alloca ptr, align 8
  %t.addr = alloca ptr, align 8
  store ptr %this, ptr %this.addr, align 8
  store ptr %t, ptr %t.addr, align 8
  %this1 = load ptr, ptr %this.addr, align 8
  %basetype = getelementptr inbounds %"struct.OpenImageIO_v2_6_0::TypeDesc", ptr %this1, i32 0, i32 0
  %0 = load ptr, ptr %t.addr, align 8
  %basetype2 = getelementptr inbounds %"struct.OpenImageIO_v2_6_0::TypeDesc", ptr %0, i32 0, i32 0
  %1 = load i8, ptr %basetype2, align 4
  store i8 %1, ptr %basetype, align 4
  %aggregate = getelementptr inbounds %"struct.OpenImageIO_v2_6_0::TypeDesc", ptr %this1, i32 0, i32 1
  %2 = load ptr, ptr %t.addr, align 8
  %aggregate3 = getelementptr inbounds %"struct.OpenImageIO_v2_6_0::TypeDesc", ptr %2, i32 0, i32 1
  %3 = load i8, ptr %aggregate3, align 1
  store i8 %3, ptr %aggregate, align 1
  %vecsemantics = getelementptr inbounds %"struct.OpenImageIO_v2_6_0::TypeDesc", ptr %this1, i32 0, i32 2
  %4 = load ptr, ptr %t.addr, align 8
  %vecsemantics4 = getelementptr inbounds %"struct.OpenImageIO_v2_6_0::TypeDesc", ptr %4, i32 0, i32 2
  %5 = load i8, ptr %vecsemantics4, align 2
  store i8 %5, ptr %vecsemantics, align 2
  %reserved = getelementptr inbounds %"struct.OpenImageIO_v2_6_0::TypeDesc", ptr %this1, i32 0, i32 3
  store i8 0, ptr %reserved, align 1
  %arraylen = getelementptr inbounds %"struct.OpenImageIO_v2_6_0::TypeDesc", ptr %this1, i32 0, i32 4
  %6 = load ptr, ptr %t.addr, align 8
  %arraylen5 = getelementptr inbounds %"struct.OpenImageIO_v2_6_0::TypeDesc", ptr %6, i32 0, i32 4
  %7 = load i32, ptr %arraylen5, align 4
  store i32 %7, ptr %arraylen, align 4
  ret void
}

; Function Attrs: nounwind
declare void @_ZN18OpenImageIO_v2_6_09ImageSpecC1EiiiNS_8TypeDescE(ptr noundef nonnull align 8 dereferenceable(160), i32 noundef, i32 noundef, i32 noundef, ptr noundef) unnamed_addr #0

; Function Attrs: mustprogress nounwind uwtable
define linkonce_odr noundef nonnull align 8 dereferenceable(160) ptr @_ZN18OpenImageIO_v2_6_09ImageSpecaSEOS0_(ptr noundef nonnull align 8 dereferenceable(160) %this, ptr noundef nonnull align 8 dereferenceable(160) %0) #1 comdat align 2 {
entry:
  %this.addr = alloca ptr, align 8
  %.addr = alloca ptr, align 8
  store ptr %this, ptr %this.addr, align 8
  store ptr %0, ptr %.addr, align 8
  %this1 = load ptr, ptr %this.addr, align 8
  %x = getelementptr inbounds %"class.OpenImageIO_v2_6_0::ImageSpec", ptr %this1, i32 0, i32 0
  %1 = load ptr, ptr %.addr, align 8
  %x2 = getelementptr inbounds %"class.OpenImageIO_v2_6_0::ImageSpec", ptr %1, i32 0, i32 0
  call void @llvm.memcpy.p0.p0.i64(ptr align 8 %x, ptr align 8 %x2, i64 64, i1 false)
  %format = getelementptr inbounds %"class.OpenImageIO_v2_6_0::ImageSpec", ptr %this1, i32 0, i32 16
  %2 = load ptr, ptr %.addr, align 8
  %format3 = getelementptr inbounds %"class.OpenImageIO_v2_6_0::ImageSpec", ptr %2, i32 0, i32 16
  call void @llvm.memcpy.p0.p0.i64(ptr align 8 %format, ptr align 8 %format3, i64 8, i1 false)
  %channelformats = getelementptr inbounds %"class.OpenImageIO_v2_6_0::ImageSpec", ptr %this1, i32 0, i32 17
  %3 = load ptr, ptr %.addr, align 8
  %channelformats4 = getelementptr inbounds %"class.OpenImageIO_v2_6_0::ImageSpec", ptr %3, i32 0, i32 17
  %call = call noundef nonnull align 8 dereferenceable(24) ptr @_ZNSt6vectorIN18OpenImageIO_v2_6_08TypeDescESaIS1_EEaSEOS3_(ptr noundef nonnull align 8 dereferenceable(24) %channelformats, ptr noundef nonnull align 8 dereferenceable(24) %channelformats4) #5
  %channelnames = getelementptr inbounds %"class.OpenImageIO_v2_6_0::ImageSpec", ptr %this1, i32 0, i32 18
  %4 = load ptr, ptr %.addr, align 8
  %channelnames5 = getelementptr inbounds %"class.OpenImageIO_v2_6_0::ImageSpec", ptr %4, i32 0, i32 18
  %call6 = call noundef nonnull align 8 dereferenceable(24) ptr @_ZNSt6vectorINSt7__cxx1112basic_stringIcSt11char_traitsIcESaIcEEESaIS5_EEaSEOS7_(ptr noundef nonnull align 8 dereferenceable(24) %channelnames, ptr noundef nonnull align 8 dereferenceable(24) %channelnames5) #5
  %alpha_channel = getelementptr inbounds %"class.OpenImageIO_v2_6_0::ImageSpec", ptr %this1, i32 0, i32 19
  %5 = load ptr, ptr %.addr, align 8
  %alpha_channel7 = getelementptr inbounds %"class.OpenImageIO_v2_6_0::ImageSpec", ptr %5, i32 0, i32 19
  call void @llvm.memcpy.p0.p0.i64(ptr align 8 %alpha_channel, ptr align 8 %alpha_channel7, i64 9, i1 false)
  %extra_attribs = getelementptr inbounds %"class.OpenImageIO_v2_6_0::ImageSpec", ptr %this1, i32 0, i32 22
  %6 = load ptr, ptr %.addr, align 8
  %extra_attribs8 = getelementptr inbounds %"class.OpenImageIO_v2_6_0::ImageSpec", ptr %6, i32 0, i32 22
  %call9 = call noundef nonnull align 8 dereferenceable(24) ptr @_ZN18OpenImageIO_v2_6_014ParamValueListaSEOS0_(ptr noundef nonnull align 8 dereferenceable(24) %extra_attribs, ptr noundef nonnull align 8 dereferenceable(24) %extra_attribs8) #5
  ret ptr %this1
}

; Function Attrs: mustprogress nounwind uwtable
define linkonce_odr void @_ZN18OpenImageIO_v2_6_09ImageSpecD2Ev(ptr noundef nonnull align 8 dereferenceable(160) %this) unnamed_addr #1 comdat align 2 {
entry:
  %this.addr = alloca ptr, align 8
  store ptr %this, ptr %this.addr, align 8
  %this1 = load ptr, ptr %this.addr, align 8
  %extra_attribs = getelementptr inbounds %"class.OpenImageIO_v2_6_0::ImageSpec", ptr %this1, i32 0, i32 22
  call void @_ZN18OpenImageIO_v2_6_014ParamValueListD2Ev(ptr noundef nonnull align 8 dereferenceable(24) %extra_attribs) #5
  %channelnames = getelementptr inbounds %"class.OpenImageIO_v2_6_0::ImageSpec", ptr %this1, i32 0, i32 18
  call void @_ZNSt6vectorINSt7__cxx1112basic_stringIcSt11char_traitsIcESaIcEEESaIS5_EED2Ev(ptr noundef nonnull align 8 dereferenceable(24) %channelnames) #5
  %channelformats = getelementptr inbounds %"class.OpenImageIO_v2_6_0::ImageSpec", ptr %this1, i32 0, i32 17
  call void @_ZNSt6vectorIN18OpenImageIO_v2_6_08TypeDescESaIS1_EED2Ev(ptr noundef nonnull align 8 dereferenceable(24) %channelformats) #5
  ret void
}

; Function Attrs: mustprogress nounwind uwtable
define linkonce_odr noundef i32 @_ZNSt14numeric_limitsIiE3maxEv() #1 comdat align 2 {
entry:
  ret i32 2147483647
}

; Function Attrs: mustprogress nounwind uwtable
define linkonce_odr void @_ZNSt6vectorINSt7__cxx1112basic_stringIcSt11char_traitsIcESaIcEEESaIS5_EE5clearEv(ptr noundef nonnull align 8 dereferenceable(24) %this) #1 comdat align 2 {
entry:
  %this.addr = alloca ptr, align 8
  store ptr %this, ptr %this.addr, align 8
  %this1 = load ptr, ptr %this.addr, align 8
  %_M_impl = getelementptr inbounds %"struct.std::_Vector_base.1", ptr %this1, i32 0, i32 0
  %_M_start = getelementptr inbounds %"struct.std::_Vector_base<std::__cxx11::basic_string<char>, std::allocator<std::__cxx11::basic_string<char>>>::_Vector_impl_data", ptr %_M_impl, i32 0, i32 0
  %0 = load ptr, ptr %_M_start, align 8
  call void @_ZNSt6vectorINSt7__cxx1112basic_stringIcSt11char_traitsIcESaIcEEESaIS5_EE15_M_erase_at_endEPS5_(ptr noundef nonnull align 8 dereferenceable(24) %this1, ptr noundef %0) #5
  ret void
}

; Function Attrs: mustprogress nounwind uwtable
define linkonce_odr hidden noundef i32 @_ZNK3dpx13GenericHeader15ImageDescriptorEi(ptr noundef nonnull align 4 dereferenceable(1664) %this, i32 noundef %i) #1 comdat align 2 {
entry:
  %retval = alloca i32, align 4
  %this.addr = alloca ptr, align 8
  %i.addr = alloca i32, align 4
  store ptr %this, ptr %this.addr, align 8
  store i32 %i, ptr %i.addr, align 4
  %this1 = load ptr, ptr %this.addr, align 8
  %0 = load i32, ptr %i.addr, align 4
  %cmp = icmp slt i32 %0, 0
  br i1 %cmp, label %if.then, label %lor.lhs.false

lor.lhs.false:                                    ; preds = %entry
  %1 = load i32, ptr %i.addr, align 4
  %cmp2 = icmp sge i32 %1, 8
  br i1 %cmp2, label %if.then, label %if.end

if.then:                                          ; preds = %lor.lhs.false, %entry
  store i32 255, ptr %retval, align 4
  br label %return

if.end:                                           ; preds = %lor.lhs.false
  %chan = getelementptr inbounds %"struct.dpx::GenericHeader", ptr %this1, i32 0, i32 19
  %2 = load i32, ptr %i.addr, align 4
  %idxprom = sext i32 %2 to i64
  %arrayidx = getelementptr inbounds [8 x %"struct.dpx::ImageElement"], ptr %chan, i64 0, i64 %idxprom
  %descriptor = getelementptr inbounds %"struct.dpx::ImageElement", ptr %arrayidx, i32 0, i32 5
  %3 = load i8, ptr %descriptor, align 4
  %conv = zext i8 %3 to i32
  store i32 %conv, ptr %retval, align 4
  br label %return

return:                                           ; preds = %if.end, %if.then
  %4 = load i32, ptr %retval, align 4
  ret i32 %4
}

; Function Attrs: mustprogress uwtable
define linkonce_odr noundef nonnull align 8 dereferenceable(32) ptr @_ZNSt6vectorINSt7__cxx1112basic_stringIcSt11char_traitsIcESaIcEEESaIS5_EE12emplace_backIJRA2_KcEEERS5_DpOT_(ptr noundef nonnull align 8 dereferenceable(24) %this, ptr noundef nonnull align 1 dereferenceable(2) %__args) #6 comdat align 2 {
entry:
  %this.addr = alloca ptr, align 8
  %__args.addr = alloca ptr, align 8
  %agg.tmp = alloca %"class.__gnu_cxx::__normal_iterator.23", align 8
  store ptr %this, ptr %this.addr, align 8
  store ptr %__args, ptr %__args.addr, align 8
  %this1 = load ptr, ptr %this.addr, align 8
  %_M_impl = getelementptr inbounds %"struct.std::_Vector_base.1", ptr %this1, i32 0, i32 0
  %_M_finish = getelementptr inbounds %"struct.std::_Vector_base<std::__cxx11::basic_string<char>, std::allocator<std::__cxx11::basic_string<char>>>::_Vector_impl_data", ptr %_M_impl, i32 0, i32 1
  %0 = load ptr, ptr %_M_finish, align 8
  %_M_impl2 = getelementptr inbounds %"struct.std::_Vector_base.1", ptr %this1, i32 0, i32 0
  %_M_end_of_storage = getelementptr inbounds %"struct.std::_Vector_base<std::__cxx11::basic_string<char>, std::allocator<std::__cxx11::basic_string<char>>>::_Vector_impl_data", ptr %_M_impl2, i32 0, i32 2
  %1 = load ptr, ptr %_M_end_of_storage, align 8
  %cmp = icmp ne ptr %0, %1
  br i1 %cmp, label %if.then, label %if.else

if.then:                                          ; preds = %entry
  %_M_impl3 = getelementptr inbounds %"struct.std::_Vector_base.1", ptr %this1, i32 0, i32 0
  %_M_impl4 = getelementptr inbounds %"struct.std::_Vector_base.1", ptr %this1, i32 0, i32 0
  %_M_finish5 = getelementptr inbounds %"struct.std::_Vector_base<std::__cxx11::basic_string<char>, std::allocator<std::__cxx11::basic_string<char>>>::_Vector_impl_data", ptr %_M_impl4, i32 0, i32 1
  %2 = load ptr, ptr %_M_finish5, align 8
  %3 = load ptr, ptr %__args.addr, align 8
  call void @_ZNSt16allocator_traitsISaINSt7__cxx1112basic_stringIcSt11char_traitsIcESaIcEEEEE9constructIS5_JRA2_KcEEEvRS6_PT_DpOT0_(ptr noundef nonnull align 1 dereferenceable(1) %_M_impl3, ptr noundef %2, ptr noundef nonnull align 1 dereferenceable(2) %3)
  %_M_impl6 = getelementptr inbounds %"struct.std::_Vector_base.1", ptr %this1, i32 0, i32 0
  %_M_finish7 = getelementptr inbounds %"struct.std::_Vector_base<std::__cxx11::basic_string<char>, std::allocator<std::__cxx11::basic_string<char>>>::_Vector_impl_data", ptr %_M_impl6, i32 0, i32 1
  %4 = load ptr, ptr %_M_finish7, align 8
  %incdec.ptr = getelementptr inbounds %"class.std::__cxx11::basic_string", ptr %4, i32 1
  store ptr %incdec.ptr, ptr %_M_finish7, align 8
  br label %if.end

if.else:                                          ; preds = %entry
  %call = call ptr @_ZNSt6vectorINSt7__cxx1112basic_stringIcSt11char_traitsIcESaIcEEESaIS5_EE3endEv(ptr noundef nonnull align 8 dereferenceable(24) %this1) #5
  %coerce.dive = getelementptr inbounds %"class.__gnu_cxx::__normal_iterator.23", ptr %agg.tmp, i32 0, i32 0
  store ptr %call, ptr %coerce.dive, align 8
  %5 = load ptr, ptr %__args.addr, align 8
  %coerce.dive8 = getelementptr inbounds %"class.__gnu_cxx::__normal_iterator.23", ptr %agg.tmp, i32 0, i32 0
  %6 = load ptr, ptr %coerce.dive8, align 8
  call void @_ZNSt6vectorINSt7__cxx1112basic_stringIcSt11char_traitsIcESaIcEEESaIS5_EE17_M_realloc_insertIJRA2_KcEEEvN9__gnu_cxx17__normal_iteratorIPS5_S7_EEDpOT_(ptr noundef nonnull align 8 dereferenceable(24) %this1, ptr %6, ptr noundef nonnull align 1 dereferenceable(2) %5)
  br label %if.end

if.end:                                           ; preds = %if.else, %if.then
  %call9 = call noundef nonnull align 8 dereferenceable(32) ptr @_ZNSt6vectorINSt7__cxx1112basic_stringIcSt11char_traitsIcESaIcEEESaIS5_EE4backEv(ptr noundef nonnull align 8 dereferenceable(24) %this1) #5
  ret ptr %call9
}

; Function Attrs: nounwind
declare void @_ZN18OpenImageIO_v2_6_09ImageSpec21default_channel_namesEv(ptr noundef nonnull align 8 dereferenceable(160)) #0

; Function Attrs: mustprogress uwtable
define linkonce_odr noundef nonnull align 8 dereferenceable(32) ptr @_ZNSt6vectorINSt7__cxx1112basic_stringIcSt11char_traitsIcESaIcEEESaIS5_EE12emplace_backIJRA5_KcEEERS5_DpOT_(ptr noundef nonnull align 8 dereferenceable(24) %this, ptr noundef nonnull align 1 dereferenceable(5) %__args) #6 comdat align 2 {
entry:
  %this.addr = alloca ptr, align 8
  %__args.addr = alloca ptr, align 8
  %agg.tmp = alloca %"class.__gnu_cxx::__normal_iterator.23", align 8
  store ptr %this, ptr %this.addr, align 8
  store ptr %__args, ptr %__args.addr, align 8
  %this1 = load ptr, ptr %this.addr, align 8
  %_M_impl = getelementptr inbounds %"struct.std::_Vector_base.1", ptr %this1, i32 0, i32 0
  %_M_finish = getelementptr inbounds %"struct.std::_Vector_base<std::__cxx11::basic_string<char>, std::allocator<std::__cxx11::basic_string<char>>>::_Vector_impl_data", ptr %_M_impl, i32 0, i32 1
  %0 = load ptr, ptr %_M_finish, align 8
  %_M_impl2 = getelementptr inbounds %"struct.std::_Vector_base.1", ptr %this1, i32 0, i32 0
  %_M_end_of_storage = getelementptr inbounds %"struct.std::_Vector_base<std::__cxx11::basic_string<char>, std::allocator<std::__cxx11::basic_string<char>>>::_Vector_impl_data", ptr %_M_impl2, i32 0, i32 2
  %1 = load ptr, ptr %_M_end_of_storage, align 8
  %cmp = icmp ne ptr %0, %1
  br i1 %cmp, label %if.then, label %if.else

if.then:                                          ; preds = %entry
  %_M_impl3 = getelementptr inbounds %"struct.std::_Vector_base.1", ptr %this1, i32 0, i32 0
  %_M_impl4 = getelementptr inbounds %"struct.std::_Vector_base.1", ptr %this1, i32 0, i32 0
  %_M_finish5 = getelementptr inbounds %"struct.std::_Vector_base<std::__cxx11::basic_string<char>, std::allocator<std::__cxx11::basic_string<char>>>::_Vector_impl_data", ptr %_M_impl4, i32 0, i32 1
  %2 = load ptr, ptr %_M_finish5, align 8
  %3 = load ptr, ptr %__args.addr, align 8
  call void @_ZNSt16allocator_traitsISaINSt7__cxx1112basic_stringIcSt11char_traitsIcESaIcEEEEE9constructIS5_JRA5_KcEEEvRS6_PT_DpOT0_(ptr noundef nonnull align 1 dereferenceable(1) %_M_impl3, ptr noundef %2, ptr noundef nonnull align 1 dereferenceable(5) %3)
  %_M_impl6 = getelementptr inbounds %"struct.std::_Vector_base.1", ptr %this1, i32 0, i32 0
  %_M_finish7 = getelementptr inbounds %"struct.std::_Vector_base<std::__cxx11::basic_string<char>, std::allocator<std::__cxx11::basic_string<char>>>::_Vector_impl_data", ptr %_M_impl6, i32 0, i32 1
  %4 = load ptr, ptr %_M_finish7, align 8
  %incdec.ptr = getelementptr inbounds %"class.std::__cxx11::basic_string", ptr %4, i32 1
  store ptr %incdec.ptr, ptr %_M_finish7, align 8
  br label %if.end

if.else:                                          ; preds = %entry
  %call = call ptr @_ZNSt6vectorINSt7__cxx1112basic_stringIcSt11char_traitsIcESaIcEEESaIS5_EE3endEv(ptr noundef nonnull align 8 dereferenceable(24) %this1) #5
  %coerce.dive = getelementptr inbounds %"class.__gnu_cxx::__normal_iterator.23", ptr %agg.tmp, i32 0, i32 0
  store ptr %call, ptr %coerce.dive, align 8
  %5 = load ptr, ptr %__args.addr, align 8
  %coerce.dive8 = getelementptr inbounds %"class.__gnu_cxx::__normal_iterator.23", ptr %agg.tmp, i32 0, i32 0
  %6 = load ptr, ptr %coerce.dive8, align 8
  call void @_ZNSt6vectorINSt7__cxx1112basic_stringIcSt11char_traitsIcESaIcEEESaIS5_EE17_M_realloc_insertIJRA5_KcEEEvN9__gnu_cxx17__normal_iteratorIPS5_S7_EEDpOT_(ptr noundef nonnull align 8 dereferenceable(24) %this1, ptr %6, ptr noundef nonnull align 1 dereferenceable(5) %5)
  br label %if.end

if.end:                                           ; preds = %if.else, %if.then
  %call9 = call noundef nonnull align 8 dereferenceable(32) ptr @_ZNSt6vectorINSt7__cxx1112basic_stringIcSt11char_traitsIcESaIcEEESaIS5_EE4backEv(ptr noundef nonnull align 8 dereferenceable(24) %this1) #5
  ret ptr %call9
}

; Function Attrs: mustprogress uwtable
define linkonce_odr noundef nonnull align 8 dereferenceable(32) ptr @_ZNSt6vectorINSt7__cxx1112basic_stringIcSt11char_traitsIcESaIcEEESaIS5_EE12emplace_backIJRA3_KcEEERS5_DpOT_(ptr noundef nonnull align 8 dereferenceable(24) %this, ptr noundef nonnull align 1 dereferenceable(3) %__args) #6 comdat align 2 {
entry:
  %this.addr = alloca ptr, align 8
  %__args.addr = alloca ptr, align 8
  %agg.tmp = alloca %"class.__gnu_cxx::__normal_iterator.23", align 8
  store ptr %this, ptr %this.addr, align 8
  store ptr %__args, ptr %__args.addr, align 8
  %this1 = load ptr, ptr %this.addr, align 8
  %_M_impl = getelementptr inbounds %"struct.std::_Vector_base.1", ptr %this1, i32 0, i32 0
  %_M_finish = getelementptr inbounds %"struct.std::_Vector_base<std::__cxx11::basic_string<char>, std::allocator<std::__cxx11::basic_string<char>>>::_Vector_impl_data", ptr %_M_impl, i32 0, i32 1
  %0 = load ptr, ptr %_M_finish, align 8
  %_M_impl2 = getelementptr inbounds %"struct.std::_Vector_base.1", ptr %this1, i32 0, i32 0
  %_M_end_of_storage = getelementptr inbounds %"struct.std::_Vector_base<std::__cxx11::basic_string<char>, std::allocator<std::__cxx11::basic_string<char>>>::_Vector_impl_data", ptr %_M_impl2, i32 0, i32 2
  %1 = load ptr, ptr %_M_end_of_storage, align 8
  %cmp = icmp ne ptr %0, %1
  br i1 %cmp, label %if.then, label %if.else

if.then:                                          ; preds = %entry
  %_M_impl3 = getelementptr inbounds %"struct.std::_Vector_base.1", ptr %this1, i32 0, i32 0
  %_M_impl4 = getelementptr inbounds %"struct.std::_Vector_base.1", ptr %this1, i32 0, i32 0
  %_M_finish5 = getelementptr inbounds %"struct.std::_Vector_base<std::__cxx11::basic_string<char>, std::allocator<std::__cxx11::basic_string<char>>>::_Vector_impl_data", ptr %_M_impl4, i32 0, i32 1
  %2 = load ptr, ptr %_M_finish5, align 8
  %3 = load ptr, ptr %__args.addr, align 8
  call void @_ZNSt16allocator_traitsISaINSt7__cxx1112basic_stringIcSt11char_traitsIcESaIcEEEEE9constructIS5_JRA3_KcEEEvRS6_PT_DpOT0_(ptr noundef nonnull align 1 dereferenceable(1) %_M_impl3, ptr noundef %2, ptr noundef nonnull align 1 dereferenceable(3) %3)
  %_M_impl6 = getelementptr inbounds %"struct.std::_Vector_base.1", ptr %this1, i32 0, i32 0
  %_M_finish7 = getelementptr inbounds %"struct.std::_Vector_base<std::__cxx11::basic_string<char>, std::allocator<std::__cxx11::basic_string<char>>>::_Vector_impl_data", ptr %_M_impl6, i32 0, i32 1
  %4 = load ptr, ptr %_M_finish7, align 8
  %incdec.ptr = getelementptr inbounds %"class.std::__cxx11::basic_string", ptr %4, i32 1
  store ptr %incdec.ptr, ptr %_M_finish7, align 8
  br label %if.end

if.else:                                          ; preds = %entry
  %call = call ptr @_ZNSt6vectorINSt7__cxx1112basic_stringIcSt11char_traitsIcESaIcEEESaIS5_EE3endEv(ptr noundef nonnull align 8 dereferenceable(24) %this1) #5
  %coerce.dive = getelementptr inbounds %"class.__gnu_cxx::__normal_iterator.23", ptr %agg.tmp, i32 0, i32 0
  store ptr %call, ptr %coerce.dive, align 8
  %5 = load ptr, ptr %__args.addr, align 8
  %coerce.dive8 = getelementptr inbounds %"class.__gnu_cxx::__normal_iterator.23", ptr %agg.tmp, i32 0, i32 0
  %6 = load ptr, ptr %coerce.dive8, align 8
  call void @_ZNSt6vectorINSt7__cxx1112basic_stringIcSt11char_traitsIcESaIcEEESaIS5_EE17_M_realloc_insertIJRA3_KcEEEvN9__gnu_cxx17__normal_iteratorIPS5_S7_EEDpOT_(ptr noundef nonnull align 8 dereferenceable(24) %this1, ptr %6, ptr noundef nonnull align 1 dereferenceable(3) %5)
  br label %if.end

if.end:                                           ; preds = %if.else, %if.then
  %call9 = call noundef nonnull align 8 dereferenceable(32) ptr @_ZNSt6vectorINSt7__cxx1112basic_stringIcSt11char_traitsIcESaIcEEESaIS5_EE4backEv(ptr noundef nonnull align 8 dereferenceable(24) %this1) #5
  ret ptr %call9
}

; Function Attrs: mustprogress uwtable
define linkonce_odr hidden void @_ZN3fmt2v87sprintfIA10_cJiEcEENSt7__cxx1112basic_stringIT1_St11char_traitsIS5_ESaIS5_EEERKT_DpRKT0_(ptr noalias sret(%"class.std::__cxx11::basic_string") align 8 %agg.result, ptr noundef nonnull align 1 dereferenceable(10) %fmt, ptr noundef nonnull align 4 dereferenceable(4) %args) #6 comdat {
entry:
  %this.addr.i2.i = alloca ptr, align 8
  %desc.addr.i.i = alloca i64, align 8
  %values.addr.i.i = alloca ptr, align 8
  %this.addr.i.i = alloca ptr, align 8
  %this.addr.i5 = alloca ptr, align 8
  %store.addr.i = alloca ptr, align 8
  %this.addr.i = alloca ptr, align 8
  %s.addr.i4 = alloca ptr, align 8
  %retval.i = alloca %"class.fmt::v8::basic_string_view", align 8
  %s.addr.i = alloca ptr, align 8
  %result.ptr = alloca ptr, align 8
  %fmt.addr = alloca ptr, align 8
  %args.addr = alloca ptr, align 8
  %ref.tmp = alloca %"class.fmt::v8::basic_string_view", align 8
  %agg.tmp = alloca %"class.fmt::v8::basic_format_args", align 8
  %ref.tmp1 = alloca %"class.fmt::v8::format_arg_store.131", align 16
  store ptr %agg.result, ptr %result.ptr, align 8
  store ptr %fmt, ptr %fmt.addr, align 8
  store ptr %args, ptr %args.addr, align 8
  %0 = load ptr, ptr %fmt.addr, align 8
  %arraydecay = getelementptr inbounds [10 x i8], ptr %0, i64 0, i64 0
  store ptr %arraydecay, ptr %s.addr.i, align 8
  %1 = load ptr, ptr %s.addr.i, align 8
  store ptr %retval.i, ptr %this.addr.i, align 8
  store ptr %1, ptr %s.addr.i4, align 8
  %this1.i = load ptr, ptr %this.addr.i, align 8
  %2 = load ptr, ptr %s.addr.i4, align 8
  store ptr %2, ptr %this1.i, align 8
  %size_.i = getelementptr inbounds %"class.fmt::v8::basic_string_view", ptr %this1.i, i32 0, i32 1
  %3 = load ptr, ptr %s.addr.i4, align 8
  %call.i = call noundef i64 @_ZNSt11char_traitsIcE6lengthEPKc(ptr noundef %3)
  store i64 %call.i, ptr %size_.i, align 8
  %4 = load { ptr, i64 }, ptr %retval.i, align 8
  %5 = getelementptr inbounds { ptr, i64 }, ptr %ref.tmp, i32 0, i32 0
  %6 = extractvalue { ptr, i64 } %4, 0
  store ptr %6, ptr %5, align 8
  %7 = getelementptr inbounds { ptr, i64 }, ptr %ref.tmp, i32 0, i32 1
  %8 = extractvalue { ptr, i64 } %4, 1
  store i64 %8, ptr %7, align 8
  %9 = load ptr, ptr %args.addr, align 8
  %call2 = call { i64, i64 } @_ZN3fmt2v816make_format_argsINS0_20basic_printf_contextINS0_8appenderEcEEJRKiEEENS0_16format_arg_storeIT_JDpNSt9remove_cvINSt16remove_referenceIT0_E4typeEE4typeEEEEDpOSB_(ptr noundef nonnull align 4 dereferenceable(4) %9)
  %coerce.dive = getelementptr inbounds %"class.fmt::v8::format_arg_store.131", ptr %ref.tmp1, i32 0, i32 0
  %coerce.dive3 = getelementptr inbounds %"struct.fmt::v8::detail::arg_data", ptr %coerce.dive, i32 0, i32 0
  %10 = getelementptr inbounds { i64, i64 }, ptr %coerce.dive3, i32 0, i32 0
  %11 = extractvalue { i64, i64 } %call2, 0
  store i64 %11, ptr %10, align 16
  %12 = getelementptr inbounds { i64, i64 }, ptr %coerce.dive3, i32 0, i32 1
  %13 = extractvalue { i64, i64 } %call2, 1
  store i64 %13, ptr %12, align 8
  store ptr %agg.tmp, ptr %this.addr.i5, align 8
  store ptr %ref.tmp1, ptr %store.addr.i, align 8
  %this1.i6 = load ptr, ptr %this.addr.i5, align 8
  %14 = load ptr, ptr %store.addr.i, align 8
  store ptr %14, ptr %this.addr.i.i, align 8
  %this1.i.i = load ptr, ptr %this.addr.i.i, align 8
  store ptr %this1.i6, ptr %this.addr.i2.i, align 8
  store i64 1, ptr %desc.addr.i.i, align 8
  store ptr %this1.i.i, ptr %values.addr.i.i, align 8
  %this1.i3.i = load ptr, ptr %this.addr.i2.i, align 8
  %15 = load i64, ptr %desc.addr.i.i, align 8
  store i64 %15, ptr %this1.i3.i, align 8
  %16 = getelementptr inbounds %"class.fmt::v8::basic_format_args", ptr %this1.i3.i, i32 0, i32 1
  %17 = load ptr, ptr %values.addr.i.i, align 8
  store ptr %17, ptr %16, align 8
  %18 = getelementptr inbounds { i64, ptr }, ptr %agg.tmp, i32 0, i32 0
  %19 = load i64, ptr %18, align 8
  %20 = getelementptr inbounds { i64, ptr }, ptr %agg.tmp, i32 0, i32 1
  %21 = load ptr, ptr %20, align 8
  call void @_ZN3fmt2v88vsprintfINS0_17basic_string_viewIcEEcEENSt7__cxx1112basic_stringIT0_St11char_traitsIS6_ESaIS6_EEERKT_NS0_17basic_format_argsINS0_20basic_printf_contextINSt11conditionalIXsr3std7is_sameINS0_13type_identityIS6_E4typeEcEE5valueENS0_8appenderESt20back_insert_iteratorINS0_6detail6bufferISJ_EEEE4typeESJ_EEEE(ptr sret(%"class.std::__cxx11::basic_string") align 8 %agg.result, ptr noundef nonnull align 8 dereferenceable(16) %ref.tmp, i64 %19, ptr %21)
  ret void
}

; Function Attrs: mustprogress uwtable
define linkonce_odr void @_ZNSt6vectorINSt7__cxx1112basic_stringIcSt11char_traitsIcESaIcEEESaIS5_EE9push_backERKS5_(ptr noundef nonnull align 8 dereferenceable(24) %this, ptr noundef nonnull align 8 dereferenceable(32) %__x) #6 comdat align 2 {
entry:
  %this.addr = alloca ptr, align 8
  %__x.addr = alloca ptr, align 8
  %agg.tmp = alloca %"class.__gnu_cxx::__normal_iterator.23", align 8
  store ptr %this, ptr %this.addr, align 8
  store ptr %__x, ptr %__x.addr, align 8
  %this1 = load ptr, ptr %this.addr, align 8
  %_M_impl = getelementptr inbounds %"struct.std::_Vector_base.1", ptr %this1, i32 0, i32 0
  %_M_finish = getelementptr inbounds %"struct.std::_Vector_base<std::__cxx11::basic_string<char>, std::allocator<std::__cxx11::basic_string<char>>>::_Vector_impl_data", ptr %_M_impl, i32 0, i32 1
  %0 = load ptr, ptr %_M_finish, align 8
  %_M_impl2 = getelementptr inbounds %"struct.std::_Vector_base.1", ptr %this1, i32 0, i32 0
  %_M_end_of_storage = getelementptr inbounds %"struct.std::_Vector_base<std::__cxx11::basic_string<char>, std::allocator<std::__cxx11::basic_string<char>>>::_Vector_impl_data", ptr %_M_impl2, i32 0, i32 2
  %1 = load ptr, ptr %_M_end_of_storage, align 8
  %cmp = icmp ne ptr %0, %1
  br i1 %cmp, label %if.then, label %if.else

if.then:                                          ; preds = %entry
  %_M_impl3 = getelementptr inbounds %"struct.std::_Vector_base.1", ptr %this1, i32 0, i32 0
  %_M_impl4 = getelementptr inbounds %"struct.std::_Vector_base.1", ptr %this1, i32 0, i32 0
  %_M_finish5 = getelementptr inbounds %"struct.std::_Vector_base<std::__cxx11::basic_string<char>, std::allocator<std::__cxx11::basic_string<char>>>::_Vector_impl_data", ptr %_M_impl4, i32 0, i32 1
  %2 = load ptr, ptr %_M_finish5, align 8
  %3 = load ptr, ptr %__x.addr, align 8
  call void @_ZNSt16allocator_traitsISaINSt7__cxx1112basic_stringIcSt11char_traitsIcESaIcEEEEE9constructIS5_JRKS5_EEEvRS6_PT_DpOT0_(ptr noundef nonnull align 1 dereferenceable(1) %_M_impl3, ptr noundef %2, ptr noundef nonnull align 8 dereferenceable(32) %3)
  %_M_impl6 = getelementptr inbounds %"struct.std::_Vector_base.1", ptr %this1, i32 0, i32 0
  %_M_finish7 = getelementptr inbounds %"struct.std::_Vector_base<std::__cxx11::basic_string<char>, std::allocator<std::__cxx11::basic_string<char>>>::_Vector_impl_data", ptr %_M_impl6, i32 0, i32 1
  %4 = load ptr, ptr %_M_finish7, align 8
  %incdec.ptr = getelementptr inbounds %"class.std::__cxx11::basic_string", ptr %4, i32 1
  store ptr %incdec.ptr, ptr %_M_finish7, align 8
  br label %if.end

if.else:                                          ; preds = %entry
  %call = call ptr @_ZNSt6vectorINSt7__cxx1112basic_stringIcSt11char_traitsIcESaIcEEESaIS5_EE3endEv(ptr noundef nonnull align 8 dereferenceable(24) %this1) #5
  %coerce.dive = getelementptr inbounds %"class.__gnu_cxx::__normal_iterator.23", ptr %agg.tmp, i32 0, i32 0
  store ptr %call, ptr %coerce.dive, align 8
  %5 = load ptr, ptr %__x.addr, align 8
  %coerce.dive8 = getelementptr inbounds %"class.__gnu_cxx::__normal_iterator.23", ptr %agg.tmp, i32 0, i32 0
  %6 = load ptr, ptr %coerce.dive8, align 8
  call void @_ZNSt6vectorINSt7__cxx1112basic_stringIcSt11char_traitsIcESaIcEEESaIS5_EE17_M_realloc_insertIJRKS5_EEEvN9__gnu_cxx17__normal_iteratorIPS5_S7_EEDpOT_(ptr noundef nonnull align 8 dereferenceable(24) %this1, ptr %6, ptr noundef nonnull align 8 dereferenceable(32) %5)
  br label %if.end

if.end:                                           ; preds = %if.else, %if.then
  ret void
}

; Function Attrs: nounwind
declare void @_ZNSt7__cxx1112basic_stringIcSt11char_traitsIcESaIcEED1Ev(ptr noundef nonnull align 8 dereferenceable(32)) unnamed_addr #0

; Function Attrs: mustprogress uwtable
define linkonce_odr void @_ZN18OpenImageIO_v2_6_09ImageSpec9attributeENS_17basic_string_viewIcSt11char_traitsIcEEEi(ptr noundef nonnull align 8 dereferenceable(160) %this, ptr noundef %name, i32 noundef %value) #6 comdat align 2 {
entry:
  %this.addr = alloca ptr, align 8
  %name.indirect_addr = alloca ptr, align 8
  %value.addr = alloca i32, align 4
  %agg.tmp = alloca %"class.OpenImageIO_v2_6_0::basic_string_view", align 8
  %agg.tmp2 = alloca %"struct.OpenImageIO_v2_6_0::TypeDesc", align 4
  store ptr %this, ptr %this.addr, align 8
  store ptr %name, ptr %name.indirect_addr, align 8
  store i32 %value, ptr %value.addr, align 4
  %this1 = load ptr, ptr %this.addr, align 8
  call void @_ZN18OpenImageIO_v2_6_017basic_string_viewIcSt11char_traitsIcEEC2ERKS3_(ptr noundef nonnull align 8 dereferenceable(16) %agg.tmp, ptr noundef nonnull align 8 dereferenceable(16) %name)
  call void @_ZN18OpenImageIO_v2_6_08TypeDescC2ENS0_8BASETYPEENS0_9AGGREGATEENS0_12VECSEMANTICSEi(ptr noundef nonnull align 4 dereferenceable(8) %agg.tmp2, i32 noundef 7, i32 noundef 1, i32 noundef 0, i32 noundef 0) #5
  call void @_ZN18OpenImageIO_v2_6_09ImageSpec9attributeENS_17basic_string_viewIcSt11char_traitsIcEEENS_8TypeDescEPKv(ptr noundef nonnull align 8 dereferenceable(160) %this1, ptr noundef %agg.tmp, ptr noundef %agg.tmp2, ptr noundef %value.addr)
  ret void
}

; Function Attrs: mustprogress nounwind uwtable
define linkonce_odr hidden noundef zeroext i8 @_ZNK3dpx13GenericHeader8BitDepthEi(ptr noundef nonnull align 4 dereferenceable(1664) %this, i32 noundef %i) #1 comdat align 2 {
entry:
  %retval = alloca i8, align 1
  %this.addr = alloca ptr, align 8
  %i.addr = alloca i32, align 4
  store ptr %this, ptr %this.addr, align 8
  store i32 %i, ptr %i.addr, align 4
  %this1 = load ptr, ptr %this.addr, align 8
  %0 = load i32, ptr %i.addr, align 4
  %cmp = icmp slt i32 %0, 0
  br i1 %cmp, label %if.then, label %lor.lhs.false

lor.lhs.false:                                    ; preds = %entry
  %1 = load i32, ptr %i.addr, align 4
  %cmp2 = icmp sge i32 %1, 8
  br i1 %cmp2, label %if.then, label %if.end

if.then:                                          ; preds = %lor.lhs.false, %entry
  store i8 -1, ptr %retval, align 1
  br label %return

if.end:                                           ; preds = %lor.lhs.false
  %chan = getelementptr inbounds %"struct.dpx::GenericHeader", ptr %this1, i32 0, i32 19
  %2 = load i32, ptr %i.addr, align 4
  %idxprom = sext i32 %2 to i64
  %arrayidx = getelementptr inbounds [8 x %"struct.dpx::ImageElement"], ptr %chan, i64 0, i64 %idxprom
  %bitDepth = getelementptr inbounds %"struct.dpx::ImageElement", ptr %arrayidx, i32 0, i32 8
  %3 = load i8, ptr %bitDepth, align 1
  store i8 %3, ptr %retval, align 1
  br label %return

return:                                           ; preds = %if.end, %if.then
  %4 = load i8, ptr %retval, align 1
  ret i8 %4
}

; Function Attrs: mustprogress nounwind uwtable
define linkonce_odr hidden noundef i32 @_ZNK3dpx13GenericHeader16ImageOrientationEv(ptr noundef nonnull align 4 dereferenceable(1664) %this) #1 comdat align 2 {
entry:
  %this.addr = alloca ptr, align 8
  store ptr %this, ptr %this.addr, align 8
  %this1 = load ptr, ptr %this.addr, align 8
  %imageOrientation = getelementptr inbounds %"struct.dpx::GenericHeader", ptr %this1, i32 0, i32 15
  %0 = load i16, ptr %imageOrientation, align 4
  %conv = zext i16 %0 to i32
  ret i32 %conv
}

; Function Attrs: mustprogress nounwind uwtable
define linkonce_odr hidden noundef i32 @_ZNK3dpx13GenericHeader8TransferEi(ptr noundef nonnull align 4 dereferenceable(1664) %this, i32 noundef %i) #1 comdat align 2 {
entry:
  %retval = alloca i32, align 4
  %this.addr = alloca ptr, align 8
  %i.addr = alloca i32, align 4
  store ptr %this, ptr %this.addr, align 8
  store i32 %i, ptr %i.addr, align 4
  %this1 = load ptr, ptr %this.addr, align 8
  %0 = load i32, ptr %i.addr, align 4
  %cmp = icmp slt i32 %0, 0
  br i1 %cmp, label %if.then, label %lor.lhs.false

lor.lhs.false:                                    ; preds = %entry
  %1 = load i32, ptr %i.addr, align 4
  %cmp2 = icmp sge i32 %1, 8
  br i1 %cmp2, label %if.then, label %if.end

if.then:                                          ; preds = %lor.lhs.false, %entry
  store i32 255, ptr %retval, align 4
  br label %return

if.end:                                           ; preds = %lor.lhs.false
  %chan = getelementptr inbounds %"struct.dpx::GenericHeader", ptr %this1, i32 0, i32 19
  %2 = load i32, ptr %i.addr, align 4
  %idxprom = sext i32 %2 to i64
  %arrayidx = getelementptr inbounds [8 x %"struct.dpx::ImageElement"], ptr %chan, i64 0, i64 %idxprom
  %transfer = getelementptr inbounds %"struct.dpx::ImageElement", ptr %arrayidx, i32 0, i32 6
  %3 = load i8, ptr %transfer, align 1
  %conv = zext i8 %3 to i32
  store i32 %conv, ptr %retval, align 4
  br label %return

return:                                           ; preds = %if.end, %if.then
  %4 = load i32, ptr %retval, align 4
  ret i32 %4
}

declare void @_ZN18OpenImageIO_v2_6_09ImageSpec9attributeENS_17basic_string_viewIcSt11char_traitsIcEEES4_(ptr noundef nonnull align 8 dereferenceable(160), ptr noundef, ptr noundef) #4

; Function Attrs: mustprogress nounwind uwtable
define linkonce_odr noundef zeroext i1 @_ZSt5isnanf(float noundef %__x) #1 comdat {
entry:
  %__x.addr = alloca float, align 4
  store float %__x, ptr %__x.addr, align 4
  %0 = load float, ptr %__x.addr, align 4
  %1 = call i1 @llvm.is.fpclass.f32(float %0, i32 3)
  ret i1 %1
}

; Function Attrs: mustprogress nounwind uwtable
define linkonce_odr hidden noundef float @_ZNK3dpx14IndustryHeader5GammaEv(ptr noundef nonnull align 4 dereferenceable(384) %this) #1 comdat align 2 {
entry:
  %this.addr = alloca ptr, align 8
  store ptr %this, ptr %this.addr, align 8
  %this1 = load ptr, ptr %this.addr, align 8
  %gamma = getelementptr inbounds %"struct.dpx::IndustryHeader", ptr %this1, i32 0, i32 24
  %0 = load float, ptr %gamma, align 4
  ret float %0
}

; Function Attrs: mustprogress uwtable
define linkonce_odr hidden void @_ZN3fmt2v87sprintfIA10_cJfEcEENSt7__cxx1112basic_stringIT1_St11char_traitsIS5_ESaIS5_EEERKT_DpRKT0_(ptr noalias sret(%"class.std::__cxx11::basic_string") align 8 %agg.result, ptr noundef nonnull align 1 dereferenceable(10) %fmt, ptr noundef nonnull align 4 dereferenceable(4) %args) #6 comdat {
entry:
  %this.addr.i2.i = alloca ptr, align 8
  %desc.addr.i.i = alloca i64, align 8
  %values.addr.i.i = alloca ptr, align 8
  %this.addr.i.i = alloca ptr, align 8
  %this.addr.i5 = alloca ptr, align 8
  %store.addr.i = alloca ptr, align 8
  %this.addr.i = alloca ptr, align 8
  %s.addr.i4 = alloca ptr, align 8
  %retval.i = alloca %"class.fmt::v8::basic_string_view", align 8
  %s.addr.i = alloca ptr, align 8
  %result.ptr = alloca ptr, align 8
  %fmt.addr = alloca ptr, align 8
  %args.addr = alloca ptr, align 8
  %ref.tmp = alloca %"class.fmt::v8::basic_string_view", align 8
  %agg.tmp = alloca %"class.fmt::v8::basic_format_args", align 8
  %ref.tmp1 = alloca %"class.fmt::v8::format_arg_store.132", align 16
  store ptr %agg.result, ptr %result.ptr, align 8
  store ptr %fmt, ptr %fmt.addr, align 8
  store ptr %args, ptr %args.addr, align 8
  %0 = load ptr, ptr %fmt.addr, align 8
  %arraydecay = getelementptr inbounds [10 x i8], ptr %0, i64 0, i64 0
  store ptr %arraydecay, ptr %s.addr.i, align 8
  %1 = load ptr, ptr %s.addr.i, align 8
  store ptr %retval.i, ptr %this.addr.i, align 8
  store ptr %1, ptr %s.addr.i4, align 8
  %this1.i = load ptr, ptr %this.addr.i, align 8
  %2 = load ptr, ptr %s.addr.i4, align 8
  store ptr %2, ptr %this1.i, align 8
  %size_.i = getelementptr inbounds %"class.fmt::v8::basic_string_view", ptr %this1.i, i32 0, i32 1
  %3 = load ptr, ptr %s.addr.i4, align 8
  %call.i = call noundef i64 @_ZNSt11char_traitsIcE6lengthEPKc(ptr noundef %3)
  store i64 %call.i, ptr %size_.i, align 8
  %4 = load { ptr, i64 }, ptr %retval.i, align 8
  %5 = getelementptr inbounds { ptr, i64 }, ptr %ref.tmp, i32 0, i32 0
  %6 = extractvalue { ptr, i64 } %4, 0
  store ptr %6, ptr %5, align 8
  %7 = getelementptr inbounds { ptr, i64 }, ptr %ref.tmp, i32 0, i32 1
  %8 = extractvalue { ptr, i64 } %4, 1
  store i64 %8, ptr %7, align 8
  %9 = load ptr, ptr %args.addr, align 8
  %call2 = call { i64, i64 } @_ZN3fmt2v816make_format_argsINS0_20basic_printf_contextINS0_8appenderEcEEJRKfEEENS0_16format_arg_storeIT_JDpNSt9remove_cvINSt16remove_referenceIT0_E4typeEE4typeEEEEDpOSB_(ptr noundef nonnull align 4 dereferenceable(4) %9)
  %coerce.dive = getelementptr inbounds %"class.fmt::v8::format_arg_store.132", ptr %ref.tmp1, i32 0, i32 0
  %coerce.dive3 = getelementptr inbounds %"struct.fmt::v8::detail::arg_data", ptr %coerce.dive, i32 0, i32 0
  %10 = getelementptr inbounds { i64, i64 }, ptr %coerce.dive3, i32 0, i32 0
  %11 = extractvalue { i64, i64 } %call2, 0
  store i64 %11, ptr %10, align 16
  %12 = getelementptr inbounds { i64, i64 }, ptr %coerce.dive3, i32 0, i32 1
  %13 = extractvalue { i64, i64 } %call2, 1
  store i64 %13, ptr %12, align 8
  store ptr %agg.tmp, ptr %this.addr.i5, align 8
  store ptr %ref.tmp1, ptr %store.addr.i, align 8
  %this1.i6 = load ptr, ptr %this.addr.i5, align 8
  %14 = load ptr, ptr %store.addr.i, align 8
  store ptr %14, ptr %this.addr.i.i, align 8
  %this1.i.i = load ptr, ptr %this.addr.i.i, align 8
  store ptr %this1.i6, ptr %this.addr.i2.i, align 8
  store i64 9, ptr %desc.addr.i.i, align 8
  store ptr %this1.i.i, ptr %values.addr.i.i, align 8
  %this1.i3.i = load ptr, ptr %this.addr.i2.i, align 8
  %15 = load i64, ptr %desc.addr.i.i, align 8
  store i64 %15, ptr %this1.i3.i, align 8
  %16 = getelementptr inbounds %"class.fmt::v8::basic_format_args", ptr %this1.i3.i, i32 0, i32 1
  %17 = load ptr, ptr %values.addr.i.i, align 8
  store ptr %17, ptr %16, align 8
  %18 = getelementptr inbounds { i64, ptr }, ptr %agg.tmp, i32 0, i32 0
  %19 = load i64, ptr %18, align 8
  %20 = getelementptr inbounds { i64, ptr }, ptr %agg.tmp, i32 0, i32 1
  %21 = load ptr, ptr %20, align 8
  call void @_ZN3fmt2v88vsprintfINS0_17basic_string_viewIcEEcEENSt7__cxx1112basic_stringIT0_St11char_traitsIS6_ESaIS6_EEERKT_NS0_17basic_format_argsINS0_20basic_printf_contextINSt11conditionalIXsr3std7is_sameINS0_13type_identityIS6_E4typeEcEE5valueENS0_8appenderESt20back_insert_iteratorINS0_6detail6bufferISJ_EEEE4typeESJ_EEEE(ptr sret(%"class.std::__cxx11::basic_string") align 8 %agg.result, ptr noundef nonnull align 8 dereferenceable(16) %ref.tmp, i64 %19, ptr %21)
  ret void
}

; Function Attrs: mustprogress uwtable
define linkonce_odr void @_ZN18OpenImageIO_v2_6_09ImageSpec9attributeENS_17basic_string_viewIcSt11char_traitsIcEEEf(ptr noundef nonnull align 8 dereferenceable(160) %this, ptr noundef %name, float noundef %value) #6 comdat align 2 {
entry:
  %this.addr = alloca ptr, align 8
  %name.indirect_addr = alloca ptr, align 8
  %value.addr = alloca float, align 4
  %agg.tmp = alloca %"class.OpenImageIO_v2_6_0::basic_string_view", align 8
  %agg.tmp2 = alloca %"struct.OpenImageIO_v2_6_0::TypeDesc", align 4
  store ptr %this, ptr %this.addr, align 8
  store ptr %name, ptr %name.indirect_addr, align 8
  store float %value, ptr %value.addr, align 4
  %this1 = load ptr, ptr %this.addr, align 8
  call void @_ZN18OpenImageIO_v2_6_017basic_string_viewIcSt11char_traitsIcEEC2ERKS3_(ptr noundef nonnull align 8 dereferenceable(16) %agg.tmp, ptr noundef nonnull align 8 dereferenceable(16) %name)
  call void @_ZN18OpenImageIO_v2_6_08TypeDescC2ENS0_8BASETYPEENS0_9AGGREGATEENS0_12VECSEMANTICSEi(ptr noundef nonnull align 4 dereferenceable(8) %agg.tmp2, i32 noundef 11, i32 noundef 1, i32 noundef 0, i32 noundef 0) #5
  call void @_ZN18OpenImageIO_v2_6_09ImageSpec9attributeENS_17basic_string_viewIcSt11char_traitsIcEEENS_8TypeDescEPKv(ptr noundef nonnull align 8 dereferenceable(160) %this1, ptr noundef %agg.tmp, ptr noundef %agg.tmp2, ptr noundef %value.addr)
  ret void
}

; Function Attrs: mustprogress uwtable
define hidden void @_ZN18OpenImageIO_v2_6_08DPXInput25get_characteristic_stringB5cxx11EN3dpx14CharacteristicE(ptr noalias sret(%"class.std::__cxx11::basic_string") align 8 %agg.result, ptr noundef nonnull align 8 dereferenceable(2400) %this, i32 noundef %c) #6 align 2 personality ptr @__gxx_personality_v0 {
entry:
  %result.ptr = alloca ptr, align 8
  %this.addr = alloca ptr, align 8
  %c.addr = alloca i32, align 4
  %ref.tmp = alloca %"class.std::allocator.17", align 1
  %exn.slot = alloca ptr, align 8
  %ehselector.slot = alloca i32, align 4
  %ref.tmp3 = alloca %"class.std::allocator.17", align 1
  %ref.tmp7 = alloca %"class.std::allocator.17", align 1
  %ref.tmp11 = alloca %"class.std::allocator.17", align 1
  %ref.tmp15 = alloca %"class.std::allocator.17", align 1
  %ref.tmp19 = alloca %"class.std::allocator.17", align 1
  %ref.tmp23 = alloca %"class.std::allocator.17", align 1
  %ref.tmp27 = alloca %"class.std::allocator.17", align 1
  %ref.tmp31 = alloca %"class.std::allocator.17", align 1
  %ref.tmp35 = alloca %"class.std::allocator.17", align 1
  %ref.tmp39 = alloca %"class.std::allocator.17", align 1
  %ref.tmp43 = alloca %"class.std::allocator.17", align 1
  %ref.tmp47 = alloca %"class.std::allocator.17", align 1
  %ref.tmp51 = alloca %"class.std::allocator.17", align 1
  %ref.tmp55 = alloca %"class.std::allocator.17", align 1
  store ptr %agg.result, ptr %result.ptr, align 8
  store ptr %this, ptr %this.addr, align 8
  store i32 %c, ptr %c.addr, align 4
  %0 = load i32, ptr %c.addr, align 4
  switch i32 %0, label %sw.default [
    i32 0, label %sw.bb
    i32 1, label %sw.bb2
    i32 2, label %sw.bb6
    i32 3, label %sw.bb10
    i32 4, label %sw.bb14
    i32 5, label %sw.bb18
    i32 6, label %sw.bb22
    i32 7, label %sw.bb26
    i32 8, label %sw.bb30
    i32 9, label %sw.bb34
    i32 10, label %sw.bb38
    i32 11, label %sw.bb42
    i32 12, label %sw.bb46
    i32 13, label %sw.bb50
    i32 255, label %sw.bb54
  ]

sw.bb:                                            ; preds = %entry
  call void @_ZNSaIcEC1Ev(ptr noundef nonnull align 1 dereferenceable(1) %ref.tmp) #5
  invoke void @_ZNSt7__cxx1112basic_stringIcSt11char_traitsIcESaIcEEC2IS3_EEPKcRKS3_(ptr noundef nonnull align 8 dereferenceable(32) %agg.result, ptr noundef @.str.99, ptr noundef nonnull align 1 dereferenceable(1) %ref.tmp)
          to label %invoke.cont unwind label %lpad

invoke.cont:                                      ; preds = %sw.bb
  call void @_ZNSaIcED1Ev(ptr noundef nonnull align 1 dereferenceable(1) %ref.tmp) #5
  br label %return

lpad:                                             ; preds = %sw.bb
  %1 = landingpad { ptr, i32 }
          cleanup
  %2 = extractvalue { ptr, i32 } %1, 0
  store ptr %2, ptr %exn.slot, align 8
  %3 = extractvalue { ptr, i32 } %1, 1
  store i32 %3, ptr %ehselector.slot, align 4
  call void @_ZNSaIcED1Ev(ptr noundef nonnull align 1 dereferenceable(1) %ref.tmp) #5
  br label %eh.resume

sw.bb2:                                           ; preds = %entry
  call void @_ZNSaIcEC1Ev(ptr noundef nonnull align 1 dereferenceable(1) %ref.tmp3) #5
  invoke void @_ZNSt7__cxx1112basic_stringIcSt11char_traitsIcESaIcEEC2IS3_EEPKcRKS3_(ptr noundef nonnull align 8 dereferenceable(32) %agg.result, ptr noundef @.str.100, ptr noundef nonnull align 1 dereferenceable(1) %ref.tmp3)
          to label %invoke.cont5 unwind label %lpad4

invoke.cont5:                                     ; preds = %sw.bb2
  call void @_ZNSaIcED1Ev(ptr noundef nonnull align 1 dereferenceable(1) %ref.tmp3) #5
  br label %return

lpad4:                                            ; preds = %sw.bb2
  %4 = landingpad { ptr, i32 }
          cleanup
  %5 = extractvalue { ptr, i32 } %4, 0
  store ptr %5, ptr %exn.slot, align 8
  %6 = extractvalue { ptr, i32 } %4, 1
  store i32 %6, ptr %ehselector.slot, align 4
  call void @_ZNSaIcED1Ev(ptr noundef nonnull align 1 dereferenceable(1) %ref.tmp3) #5
  br label %eh.resume

sw.bb6:                                           ; preds = %entry
  call void @_ZNSaIcEC1Ev(ptr noundef nonnull align 1 dereferenceable(1) %ref.tmp7) #5
  invoke void @_ZNSt7__cxx1112basic_stringIcSt11char_traitsIcESaIcEEC2IS3_EEPKcRKS3_(ptr noundef nonnull align 8 dereferenceable(32) %agg.result, ptr noundef @.str.20, ptr noundef nonnull align 1 dereferenceable(1) %ref.tmp7)
          to label %invoke.cont9 unwind label %lpad8

invoke.cont9:                                     ; preds = %sw.bb6
  call void @_ZNSaIcED1Ev(ptr noundef nonnull align 1 dereferenceable(1) %ref.tmp7) #5
  br label %return

lpad8:                                            ; preds = %sw.bb6
  %7 = landingpad { ptr, i32 }
          cleanup
  %8 = extractvalue { ptr, i32 } %7, 0
  store ptr %8, ptr %exn.slot, align 8
  %9 = extractvalue { ptr, i32 } %7, 1
  store i32 %9, ptr %ehselector.slot, align 4
  call void @_ZNSaIcED1Ev(ptr noundef nonnull align 1 dereferenceable(1) %ref.tmp7) #5
  br label %eh.resume

sw.bb10:                                          ; preds = %entry
  call void @_ZNSaIcEC1Ev(ptr noundef nonnull align 1 dereferenceable(1) %ref.tmp11) #5
  invoke void @_ZNSt7__cxx1112basic_stringIcSt11char_traitsIcESaIcEEC2IS3_EEPKcRKS3_(ptr noundef nonnull align 8 dereferenceable(32) %agg.result, ptr noundef @.str.101, ptr noundef nonnull align 1 dereferenceable(1) %ref.tmp11)
          to label %invoke.cont13 unwind label %lpad12

invoke.cont13:                                    ; preds = %sw.bb10
  call void @_ZNSaIcED1Ev(ptr noundef nonnull align 1 dereferenceable(1) %ref.tmp11) #5
  br label %return

lpad12:                                           ; preds = %sw.bb10
  %10 = landingpad { ptr, i32 }
          cleanup
  %11 = extractvalue { ptr, i32 } %10, 0
  store ptr %11, ptr %exn.slot, align 8
  %12 = extractvalue { ptr, i32 } %10, 1
  store i32 %12, ptr %ehselector.slot, align 4
  call void @_ZNSaIcED1Ev(ptr noundef nonnull align 1 dereferenceable(1) %ref.tmp11) #5
  br label %eh.resume

sw.bb14:                                          ; preds = %entry
  call void @_ZNSaIcEC1Ev(ptr noundef nonnull align 1 dereferenceable(1) %ref.tmp15) #5
  invoke void @_ZNSt7__cxx1112basic_stringIcSt11char_traitsIcESaIcEEC2IS3_EEPKcRKS3_(ptr noundef nonnull align 8 dereferenceable(32) %agg.result, ptr noundef @.str.102, ptr noundef nonnull align 1 dereferenceable(1) %ref.tmp15)
          to label %invoke.cont17 unwind label %lpad16

invoke.cont17:                                    ; preds = %sw.bb14
  call void @_ZNSaIcED1Ev(ptr noundef nonnull align 1 dereferenceable(1) %ref.tmp15) #5
  br label %return

lpad16:                                           ; preds = %sw.bb14
  %13 = landingpad { ptr, i32 }
          cleanup
  %14 = extractvalue { ptr, i32 } %13, 0
  store ptr %14, ptr %exn.slot, align 8
  %15 = extractvalue { ptr, i32 } %13, 1
  store i32 %15, ptr %ehselector.slot, align 4
  call void @_ZNSaIcED1Ev(ptr noundef nonnull align 1 dereferenceable(1) %ref.tmp15) #5
  br label %eh.resume

sw.bb18:                                          ; preds = %entry
  call void @_ZNSaIcEC1Ev(ptr noundef nonnull align 1 dereferenceable(1) %ref.tmp19) #5
  invoke void @_ZNSt7__cxx1112basic_stringIcSt11char_traitsIcESaIcEEC2IS3_EEPKcRKS3_(ptr noundef nonnull align 8 dereferenceable(32) %agg.result, ptr noundef @.str.103, ptr noundef nonnull align 1 dereferenceable(1) %ref.tmp19)
          to label %invoke.cont21 unwind label %lpad20

invoke.cont21:                                    ; preds = %sw.bb18
  call void @_ZNSaIcED1Ev(ptr noundef nonnull align 1 dereferenceable(1) %ref.tmp19) #5
  br label %return

lpad20:                                           ; preds = %sw.bb18
  %16 = landingpad { ptr, i32 }
          cleanup
  %17 = extractvalue { ptr, i32 } %16, 0
  store ptr %17, ptr %exn.slot, align 8
  %18 = extractvalue { ptr, i32 } %16, 1
  store i32 %18, ptr %ehselector.slot, align 4
  call void @_ZNSaIcED1Ev(ptr noundef nonnull align 1 dereferenceable(1) %ref.tmp19) #5
  br label %eh.resume

sw.bb22:                                          ; preds = %entry
  call void @_ZNSaIcEC1Ev(ptr noundef nonnull align 1 dereferenceable(1) %ref.tmp23) #5
  invoke void @_ZNSt7__cxx1112basic_stringIcSt11char_traitsIcESaIcEEC2IS3_EEPKcRKS3_(ptr noundef nonnull align 8 dereferenceable(32) %agg.result, ptr noundef @.str.104, ptr noundef nonnull align 1 dereferenceable(1) %ref.tmp23)
          to label %invoke.cont25 unwind label %lpad24

invoke.cont25:                                    ; preds = %sw.bb22
  call void @_ZNSaIcED1Ev(ptr noundef nonnull align 1 dereferenceable(1) %ref.tmp23) #5
  br label %return

lpad24:                                           ; preds = %sw.bb22
  %19 = landingpad { ptr, i32 }
          cleanup
  %20 = extractvalue { ptr, i32 } %19, 0
  store ptr %20, ptr %exn.slot, align 8
  %21 = extractvalue { ptr, i32 } %19, 1
  store i32 %21, ptr %ehselector.slot, align 4
  call void @_ZNSaIcED1Ev(ptr noundef nonnull align 1 dereferenceable(1) %ref.tmp23) #5
  br label %eh.resume

sw.bb26:                                          ; preds = %entry
  call void @_ZNSaIcEC1Ev(ptr noundef nonnull align 1 dereferenceable(1) %ref.tmp27) #5
  invoke void @_ZNSt7__cxx1112basic_stringIcSt11char_traitsIcESaIcEEC2IS3_EEPKcRKS3_(ptr noundef nonnull align 8 dereferenceable(32) %agg.result, ptr noundef @.str.105, ptr noundef nonnull align 1 dereferenceable(1) %ref.tmp27)
          to label %invoke.cont29 unwind label %lpad28

invoke.cont29:                                    ; preds = %sw.bb26
  call void @_ZNSaIcED1Ev(ptr noundef nonnull align 1 dereferenceable(1) %ref.tmp27) #5
  br label %return

lpad28:                                           ; preds = %sw.bb26
  %22 = landingpad { ptr, i32 }
          cleanup
  %23 = extractvalue { ptr, i32 } %22, 0
  store ptr %23, ptr %exn.slot, align 8
  %24 = extractvalue { ptr, i32 } %22, 1
  store i32 %24, ptr %ehselector.slot, align 4
  call void @_ZNSaIcED1Ev(ptr noundef nonnull align 1 dereferenceable(1) %ref.tmp27) #5
  br label %eh.resume

sw.bb30:                                          ; preds = %entry
  call void @_ZNSaIcEC1Ev(ptr noundef nonnull align 1 dereferenceable(1) %ref.tmp31) #5
  invoke void @_ZNSt7__cxx1112basic_stringIcSt11char_traitsIcESaIcEEC2IS3_EEPKcRKS3_(ptr noundef nonnull align 8 dereferenceable(32) %agg.result, ptr noundef @.str.106, ptr noundef nonnull align 1 dereferenceable(1) %ref.tmp31)
          to label %invoke.cont33 unwind label %lpad32

invoke.cont33:                                    ; preds = %sw.bb30
  call void @_ZNSaIcED1Ev(ptr noundef nonnull align 1 dereferenceable(1) %ref.tmp31) #5
  br label %return

lpad32:                                           ; preds = %sw.bb30
  %25 = landingpad { ptr, i32 }
          cleanup
  %26 = extractvalue { ptr, i32 } %25, 0
  store ptr %26, ptr %exn.slot, align 8
  %27 = extractvalue { ptr, i32 } %25, 1
  store i32 %27, ptr %ehselector.slot, align 4
  call void @_ZNSaIcED1Ev(ptr noundef nonnull align 1 dereferenceable(1) %ref.tmp31) #5
  br label %eh.resume

sw.bb34:                                          ; preds = %entry
  call void @_ZNSaIcEC1Ev(ptr noundef nonnull align 1 dereferenceable(1) %ref.tmp35) #5
  invoke void @_ZNSt7__cxx1112basic_stringIcSt11char_traitsIcESaIcEEC2IS3_EEPKcRKS3_(ptr noundef nonnull align 8 dereferenceable(32) %agg.result, ptr noundef @.str.107, ptr noundef nonnull align 1 dereferenceable(1) %ref.tmp35)
          to label %invoke.cont37 unwind label %lpad36

invoke.cont37:                                    ; preds = %sw.bb34
  call void @_ZNSaIcED1Ev(ptr noundef nonnull align 1 dereferenceable(1) %ref.tmp35) #5
  br label %return

lpad36:                                           ; preds = %sw.bb34
  %28 = landingpad { ptr, i32 }
          cleanup
  %29 = extractvalue { ptr, i32 } %28, 0
  store ptr %29, ptr %exn.slot, align 8
  %30 = extractvalue { ptr, i32 } %28, 1
  store i32 %30, ptr %ehselector.slot, align 4
  call void @_ZNSaIcED1Ev(ptr noundef nonnull align 1 dereferenceable(1) %ref.tmp35) #5
  br label %eh.resume

sw.bb38:                                          ; preds = %entry
  call void @_ZNSaIcEC1Ev(ptr noundef nonnull align 1 dereferenceable(1) %ref.tmp39) #5
  invoke void @_ZNSt7__cxx1112basic_stringIcSt11char_traitsIcESaIcEEC2IS3_EEPKcRKS3_(ptr noundef nonnull align 8 dereferenceable(32) %agg.result, ptr noundef @.str.108, ptr noundef nonnull align 1 dereferenceable(1) %ref.tmp39)
          to label %invoke.cont41 unwind label %lpad40

invoke.cont41:                                    ; preds = %sw.bb38
  call void @_ZNSaIcED1Ev(ptr noundef nonnull align 1 dereferenceable(1) %ref.tmp39) #5
  br label %return

lpad40:                                           ; preds = %sw.bb38
  %31 = landingpad { ptr, i32 }
          cleanup
  %32 = extractvalue { ptr, i32 } %31, 0
  store ptr %32, ptr %exn.slot, align 8
  %33 = extractvalue { ptr, i32 } %31, 1
  store i32 %33, ptr %ehselector.slot, align 4
  call void @_ZNSaIcED1Ev(ptr noundef nonnull align 1 dereferenceable(1) %ref.tmp39) #5
  br label %eh.resume

sw.bb42:                                          ; preds = %entry
  call void @_ZNSaIcEC1Ev(ptr noundef nonnull align 1 dereferenceable(1) %ref.tmp43) #5
  invoke void @_ZNSt7__cxx1112basic_stringIcSt11char_traitsIcESaIcEEC2IS3_EEPKcRKS3_(ptr noundef nonnull align 8 dereferenceable(32) %agg.result, ptr noundef @.str.109, ptr noundef nonnull align 1 dereferenceable(1) %ref.tmp43)
          to label %invoke.cont45 unwind label %lpad44

invoke.cont45:                                    ; preds = %sw.bb42
  call void @_ZNSaIcED1Ev(ptr noundef nonnull align 1 dereferenceable(1) %ref.tmp43) #5
  br label %return

lpad44:                                           ; preds = %sw.bb42
  %34 = landingpad { ptr, i32 }
          cleanup
  %35 = extractvalue { ptr, i32 } %34, 0
  store ptr %35, ptr %exn.slot, align 8
  %36 = extractvalue { ptr, i32 } %34, 1
  store i32 %36, ptr %ehselector.slot, align 4
  call void @_ZNSaIcED1Ev(ptr noundef nonnull align 1 dereferenceable(1) %ref.tmp43) #5
  br label %eh.resume

sw.bb46:                                          ; preds = %entry
  call void @_ZNSaIcEC1Ev(ptr noundef nonnull align 1 dereferenceable(1) %ref.tmp47) #5
  invoke void @_ZNSt7__cxx1112basic_stringIcSt11char_traitsIcESaIcEEC2IS3_EEPKcRKS3_(ptr noundef nonnull align 8 dereferenceable(32) %agg.result, ptr noundef @.str.110, ptr noundef nonnull align 1 dereferenceable(1) %ref.tmp47)
          to label %invoke.cont49 unwind label %lpad48

invoke.cont49:                                    ; preds = %sw.bb46
  call void @_ZNSaIcED1Ev(ptr noundef nonnull align 1 dereferenceable(1) %ref.tmp47) #5
  br label %return

lpad48:                                           ; preds = %sw.bb46
  %37 = landingpad { ptr, i32 }
          cleanup
  %38 = extractvalue { ptr, i32 } %37, 0
  store ptr %38, ptr %exn.slot, align 8
  %39 = extractvalue { ptr, i32 } %37, 1
  store i32 %39, ptr %ehselector.slot, align 4
  call void @_ZNSaIcED1Ev(ptr noundef nonnull align 1 dereferenceable(1) %ref.tmp47) #5
  br label %eh.resume

sw.bb50:                                          ; preds = %entry
  call void @_ZNSaIcEC1Ev(ptr noundef nonnull align 1 dereferenceable(1) %ref.tmp51) #5
  invoke void @_ZNSt7__cxx1112basic_stringIcSt11char_traitsIcESaIcEEC2IS3_EEPKcRKS3_(ptr noundef nonnull align 8 dereferenceable(32) %agg.result, ptr noundef @.str.111, ptr noundef nonnull align 1 dereferenceable(1) %ref.tmp51)
          to label %invoke.cont53 unwind label %lpad52

invoke.cont53:                                    ; preds = %sw.bb50
  call void @_ZNSaIcED1Ev(ptr noundef nonnull align 1 dereferenceable(1) %ref.tmp51) #5
  br label %return

lpad52:                                           ; preds = %sw.bb50
  %40 = landingpad { ptr, i32 }
          cleanup
  %41 = extractvalue { ptr, i32 } %40, 0
  store ptr %41, ptr %exn.slot, align 8
  %42 = extractvalue { ptr, i32 } %40, 1
  store i32 %42, ptr %ehselector.slot, align 4
  call void @_ZNSaIcED1Ev(ptr noundef nonnull align 1 dereferenceable(1) %ref.tmp51) #5
  br label %eh.resume

sw.bb54:                                          ; preds = %entry
  br label %sw.default

sw.default:                                       ; preds = %sw.bb54, %entry
  call void @_ZNSaIcEC1Ev(ptr noundef nonnull align 1 dereferenceable(1) %ref.tmp55) #5
  invoke void @_ZNSt7__cxx1112basic_stringIcSt11char_traitsIcESaIcEEC2IS3_EEPKcRKS3_(ptr noundef nonnull align 8 dereferenceable(32) %agg.result, ptr noundef @.str.79, ptr noundef nonnull align 1 dereferenceable(1) %ref.tmp55)
          to label %invoke.cont57 unwind label %lpad56

invoke.cont57:                                    ; preds = %sw.default
  call void @_ZNSaIcED1Ev(ptr noundef nonnull align 1 dereferenceable(1) %ref.tmp55) #5
  br label %return

lpad56:                                           ; preds = %sw.default
  %43 = landingpad { ptr, i32 }
          cleanup
  %44 = extractvalue { ptr, i32 } %43, 0
  store ptr %44, ptr %exn.slot, align 8
  %45 = extractvalue { ptr, i32 } %43, 1
  store i32 %45, ptr %ehselector.slot, align 4
  call void @_ZNSaIcED1Ev(ptr noundef nonnull align 1 dereferenceable(1) %ref.tmp55) #5
  br label %eh.resume

return:                                           ; preds = %invoke.cont57, %invoke.cont53, %invoke.cont49, %invoke.cont45, %invoke.cont41, %invoke.cont37, %invoke.cont33, %invoke.cont29, %invoke.cont25, %invoke.cont21, %invoke.cont17, %invoke.cont13, %invoke.cont9, %invoke.cont5, %invoke.cont
  ret void

eh.resume:                                        ; preds = %lpad56, %lpad52, %lpad48, %lpad44, %lpad40, %lpad36, %lpad32, %lpad28, %lpad24, %lpad20, %lpad16, %lpad12, %lpad8, %lpad4, %lpad
  %exn = load ptr, ptr %exn.slot, align 8
  %sel = load i32, ptr %ehselector.slot, align 4
  %lpad.val = insertvalue { ptr, i32 } poison, ptr %exn, 0
  %lpad.val58 = insertvalue { ptr, i32 } %lpad.val, i32 %sel, 1
  resume { ptr, i32 } %lpad.val58
}

; Function Attrs: mustprogress nounwind uwtable
define linkonce_odr hidden noundef i32 @_ZNK3dpx13GenericHeader12ColorimetricEi(ptr noundef nonnull align 4 dereferenceable(1664) %this, i32 noundef %i) #1 comdat align 2 {
entry:
  %retval = alloca i32, align 4
  %this.addr = alloca ptr, align 8
  %i.addr = alloca i32, align 4
  store ptr %this, ptr %this.addr, align 8
  store i32 %i, ptr %i.addr, align 4
  %this1 = load ptr, ptr %this.addr, align 8
  %0 = load i32, ptr %i.addr, align 4
  %cmp = icmp slt i32 %0, 0
  br i1 %cmp, label %if.then, label %lor.lhs.false

lor.lhs.false:                                    ; preds = %entry
  %1 = load i32, ptr %i.addr, align 4
  %cmp2 = icmp sge i32 %1, 8
  br i1 %cmp2, label %if.then, label %if.end

if.then:                                          ; preds = %lor.lhs.false, %entry
  store i32 255, ptr %retval, align 4
  br label %return

if.end:                                           ; preds = %lor.lhs.false
  %chan = getelementptr inbounds %"struct.dpx::GenericHeader", ptr %this1, i32 0, i32 19
  %2 = load i32, ptr %i.addr, align 4
  %idxprom = sext i32 %2 to i64
  %arrayidx = getelementptr inbounds [8 x %"struct.dpx::ImageElement"], ptr %chan, i64 0, i64 %idxprom
  %colorimetric = getelementptr inbounds %"struct.dpx::ImageElement", ptr %arrayidx, i32 0, i32 7
  %3 = load i8, ptr %colorimetric, align 2
  %conv = zext i8 %3 to i32
  store i32 %conv, ptr %retval, align 4
  br label %return

return:                                           ; preds = %if.end, %if.then
  %4 = load i32, ptr %retval, align 4
  ret i32 %4
}

; Function Attrs: nounwind
declare noundef ptr @_ZN18OpenImageIO_v2_6_07Strutil11safe_strcpyEPcNS_17basic_string_viewIcSt11char_traitsIcEEEm(ptr noundef, ptr noundef, i64 noundef) #0

; Function Attrs: mustprogress nounwind uwtable
define linkonce_odr hidden noundef i32 @_ZNK3dpx13GenericHeader13ImageEncodingEi(ptr noundef nonnull align 4 dereferenceable(1664) %this, i32 noundef %i) #1 comdat align 2 {
entry:
  %retval = alloca i32, align 4
  %this.addr = alloca ptr, align 8
  %i.addr = alloca i32, align 4
  %e = alloca i32, align 4
  store ptr %this, ptr %this.addr, align 8
  store i32 %i, ptr %i.addr, align 4
  %this1 = load ptr, ptr %this.addr, align 8
  store i32 0, ptr %e, align 4
  %0 = load i32, ptr %i.addr, align 4
  %cmp = icmp slt i32 %0, 0
  br i1 %cmp, label %if.then, label %lor.lhs.false

lor.lhs.false:                                    ; preds = %entry
  %1 = load i32, ptr %i.addr, align 4
  %cmp2 = icmp sge i32 %1, 8
  br i1 %cmp2, label %if.then, label %if.end

if.then:                                          ; preds = %lor.lhs.false, %entry
  store i32 0, ptr %retval, align 4
  br label %return

if.end:                                           ; preds = %lor.lhs.false
  %chan = getelementptr inbounds %"struct.dpx::GenericHeader", ptr %this1, i32 0, i32 19
  %2 = load i32, ptr %i.addr, align 4
  %idxprom = sext i32 %2 to i64
  %arrayidx = getelementptr inbounds [8 x %"struct.dpx::ImageElement"], ptr %chan, i64 0, i64 %idxprom
  %encoding = getelementptr inbounds %"struct.dpx::ImageElement", ptr %arrayidx, i32 0, i32 10
  %3 = load i16, ptr %encoding, align 2
  %conv = zext i16 %3 to i32
  %cmp3 = icmp eq i32 %conv, 1
  br i1 %cmp3, label %if.then4, label %if.end5

if.then4:                                         ; preds = %if.end
  store i32 1, ptr %e, align 4
  br label %if.end5

if.end5:                                          ; preds = %if.then4, %if.end
  %4 = load i32, ptr %e, align 4
  store i32 %4, ptr %retval, align 4
  br label %return

return:                                           ; preds = %if.end5, %if.then
  %5 = load i32, ptr %retval, align 4
  ret i32 %5
}

; Function Attrs: mustprogress nounwind uwtable
define linkonce_odr hidden void @_ZNK3dpx13GenericHeader11DescriptionEiPc(ptr noundef nonnull align 4 dereferenceable(1664) %this, i32 noundef %i, ptr noundef %desc) #1 comdat align 2 {
entry:
  %this.addr = alloca ptr, align 8
  %i.addr = alloca i32, align 4
  %desc.addr = alloca ptr, align 8
  %agg.tmp = alloca %"class.OpenImageIO_v2_6_0::basic_string_view", align 8
  store ptr %this, ptr %this.addr, align 8
  store i32 %i, ptr %i.addr, align 4
  store ptr %desc, ptr %desc.addr, align 8
  %this1 = load ptr, ptr %this.addr, align 8
  %0 = load i32, ptr %i.addr, align 4
  %cmp = icmp slt i32 %0, 0
  br i1 %cmp, label %if.then, label %lor.lhs.false

lor.lhs.false:                                    ; preds = %entry
  %1 = load i32, ptr %i.addr, align 4
  %cmp2 = icmp sge i32 %1, 8
  br i1 %cmp2, label %if.then, label %if.end

if.then:                                          ; preds = %lor.lhs.false, %entry
  br label %return

if.end:                                           ; preds = %lor.lhs.false
  %2 = load ptr, ptr %desc.addr, align 8
  %chan = getelementptr inbounds %"struct.dpx::GenericHeader", ptr %this1, i32 0, i32 19
  %3 = load i32, ptr %i.addr, align 4
  %idxprom = sext i32 %3 to i64
  %arrayidx = getelementptr inbounds [8 x %"struct.dpx::ImageElement"], ptr %chan, i64 0, i64 %idxprom
  %description = getelementptr inbounds %"struct.dpx::ImageElement", ptr %arrayidx, i32 0, i32 14
  %arraydecay = getelementptr inbounds [32 x i8], ptr %description, i64 0, i64 0
  call void @_ZN18OpenImageIO_v2_6_017basic_string_viewIcSt11char_traitsIcEEC2EPKc(ptr noundef nonnull align 8 dereferenceable(16) %agg.tmp, ptr noundef %arraydecay) #5
  %call = call noundef ptr @_ZN18OpenImageIO_v2_6_07Strutil11safe_strcpyEPcNS_17basic_string_viewIcSt11char_traitsIcEEEm(ptr noundef %2, ptr noundef %agg.tmp, i64 noundef 32) #5
  br label %return

return:                                           ; preds = %if.end, %if.then
  ret void
}

; Function Attrs: mustprogress nounwind uwtable
define linkonce_odr hidden noundef i32 @_ZNK3dpx13GenericHeader11AspectRatioEi(ptr noundef nonnull align 4 dereferenceable(1664) %this, i32 noundef %i) #1 comdat align 2 {
entry:
  %retval = alloca i32, align 4
  %this.addr = alloca ptr, align 8
  %i.addr = alloca i32, align 4
  store ptr %this, ptr %this.addr, align 8
  store i32 %i, ptr %i.addr, align 4
  %this1 = load ptr, ptr %this.addr, align 8
  %0 = load i32, ptr %i.addr, align 4
  %cmp = icmp ne i32 %0, 0
  br i1 %cmp, label %land.lhs.true, label %if.end

land.lhs.true:                                    ; preds = %entry
  %1 = load i32, ptr %i.addr, align 4
  %cmp2 = icmp ne i32 %1, 1
  br i1 %cmp2, label %if.then, label %if.end

if.then:                                          ; preds = %land.lhs.true
  store i32 -1, ptr %retval, align 4
  br label %return

if.end:                                           ; preds = %land.lhs.true, %entry
  %aspectRatio = getelementptr inbounds %"struct.dpx::GenericHeader", ptr %this1, i32 0, i32 32
  %2 = load i32, ptr %i.addr, align 4
  %idxprom = sext i32 %2 to i64
  %arrayidx = getelementptr inbounds [2 x i32], ptr %aspectRatio, i64 0, i64 %idxprom
  %3 = load i32, ptr %arrayidx, align 4
  store i32 %3, ptr %retval, align 4
  br label %return

return:                                           ; preds = %if.end, %if.then
  %4 = load i32, ptr %retval, align 4
  ret i32 %4
}

; Function Attrs: mustprogress uwtable
define hidden void @_ZN18OpenImageIO_v2_6_08DPXInput21get_descriptor_stringB5cxx11EN3dpx10DescriptorE(ptr noalias sret(%"class.std::__cxx11::basic_string") align 8 %agg.result, ptr noundef nonnull align 8 dereferenceable(2400) %this, i32 noundef %c) #6 align 2 personality ptr @__gxx_personality_v0 {
entry:
  %result.ptr = alloca ptr, align 8
  %this.addr = alloca ptr, align 8
  %c.addr = alloca i32, align 4
  %ref.tmp = alloca %"class.std::allocator.17", align 1
  %exn.slot = alloca ptr, align 8
  %ehselector.slot = alloca i32, align 4
  %ref.tmp3 = alloca %"class.std::allocator.17", align 1
  %ref.tmp7 = alloca %"class.std::allocator.17", align 1
  %ref.tmp11 = alloca %"class.std::allocator.17", align 1
  %ref.tmp15 = alloca %"class.std::allocator.17", align 1
  %ref.tmp19 = alloca %"class.std::allocator.17", align 1
  %ref.tmp23 = alloca %"class.std::allocator.17", align 1
  %ref.tmp27 = alloca %"class.std::allocator.17", align 1
  %ref.tmp31 = alloca %"class.std::allocator.17", align 1
  %ref.tmp35 = alloca %"class.std::allocator.17", align 1
  %ref.tmp39 = alloca %"class.std::allocator.17", align 1
  %ref.tmp43 = alloca %"class.std::allocator.17", align 1
  %ref.tmp47 = alloca %"class.std::allocator.17", align 1
  %ref.tmp51 = alloca %"class.std::allocator.17", align 1
  %ref.tmp55 = alloca %"class.std::allocator.17", align 1
  %ref.tmp59 = alloca %"class.std::allocator.17", align 1
  %ref.tmp62 = alloca %"class.std::allocator.17", align 1
  store ptr %agg.result, ptr %result.ptr, align 8
  store ptr %this, ptr %this.addr, align 8
  store i32 %c, ptr %c.addr, align 4
  %0 = load i32, ptr %c.addr, align 4
  switch i32 %0, label %sw.default [
    i32 0, label %sw.bb
    i32 150, label %sw.bb
    i32 151, label %sw.bb
    i32 152, label %sw.bb
    i32 153, label %sw.bb
    i32 154, label %sw.bb
    i32 155, label %sw.bb
    i32 156, label %sw.bb
    i32 1, label %sw.bb2
    i32 2, label %sw.bb6
    i32 3, label %sw.bb10
    i32 4, label %sw.bb14
    i32 6, label %sw.bb18
    i32 7, label %sw.bb22
    i32 8, label %sw.bb26
    i32 9, label %sw.bb30
    i32 50, label %sw.bb34
    i32 51, label %sw.bb38
    i32 52, label %sw.bb42
    i32 100, label %sw.bb46
    i32 101, label %sw.bb50
    i32 102, label %sw.bb54
    i32 103, label %sw.bb58
  ]

sw.bb:                                            ; preds = %entry, %entry, %entry, %entry, %entry, %entry, %entry, %entry
  call void @_ZNSaIcEC1Ev(ptr noundef nonnull align 1 dereferenceable(1) %ref.tmp) #5
  invoke void @_ZNSt7__cxx1112basic_stringIcSt11char_traitsIcESaIcEEC2IS3_EEPKcRKS3_(ptr noundef nonnull align 8 dereferenceable(32) %agg.result, ptr noundef @.str.99, ptr noundef nonnull align 1 dereferenceable(1) %ref.tmp)
          to label %invoke.cont unwind label %lpad

invoke.cont:                                      ; preds = %sw.bb
  call void @_ZNSaIcED1Ev(ptr noundef nonnull align 1 dereferenceable(1) %ref.tmp) #5
  br label %return

lpad:                                             ; preds = %sw.bb
  %1 = landingpad { ptr, i32 }
          cleanup
  %2 = extractvalue { ptr, i32 } %1, 0
  store ptr %2, ptr %exn.slot, align 8
  %3 = extractvalue { ptr, i32 } %1, 1
  store i32 %3, ptr %ehselector.slot, align 4
  call void @_ZNSaIcED1Ev(ptr noundef nonnull align 1 dereferenceable(1) %ref.tmp) #5
  br label %eh.resume

sw.bb2:                                           ; preds = %entry
  call void @_ZNSaIcEC1Ev(ptr noundef nonnull align 1 dereferenceable(1) %ref.tmp3) #5
  invoke void @_ZNSt7__cxx1112basic_stringIcSt11char_traitsIcESaIcEEC2IS3_EEPKcRKS3_(ptr noundef nonnull align 8 dereferenceable(32) %agg.result, ptr noundef @.str.112, ptr noundef nonnull align 1 dereferenceable(1) %ref.tmp3)
          to label %invoke.cont5 unwind label %lpad4

invoke.cont5:                                     ; preds = %sw.bb2
  call void @_ZNSaIcED1Ev(ptr noundef nonnull align 1 dereferenceable(1) %ref.tmp3) #5
  br label %return

lpad4:                                            ; preds = %sw.bb2
  %4 = landingpad { ptr, i32 }
          cleanup
  %5 = extractvalue { ptr, i32 } %4, 0
  store ptr %5, ptr %exn.slot, align 8
  %6 = extractvalue { ptr, i32 } %4, 1
  store i32 %6, ptr %ehselector.slot, align 4
  call void @_ZNSaIcED1Ev(ptr noundef nonnull align 1 dereferenceable(1) %ref.tmp3) #5
  br label %eh.resume

sw.bb6:                                           ; preds = %entry
  call void @_ZNSaIcEC1Ev(ptr noundef nonnull align 1 dereferenceable(1) %ref.tmp7) #5
  invoke void @_ZNSt7__cxx1112basic_stringIcSt11char_traitsIcESaIcEEC2IS3_EEPKcRKS3_(ptr noundef nonnull align 8 dereferenceable(32) %agg.result, ptr noundef @.str.113, ptr noundef nonnull align 1 dereferenceable(1) %ref.tmp7)
          to label %invoke.cont9 unwind label %lpad8

invoke.cont9:                                     ; preds = %sw.bb6
  call void @_ZNSaIcED1Ev(ptr noundef nonnull align 1 dereferenceable(1) %ref.tmp7) #5
  br label %return

lpad8:                                            ; preds = %sw.bb6
  %7 = landingpad { ptr, i32 }
          cleanup
  %8 = extractvalue { ptr, i32 } %7, 0
  store ptr %8, ptr %exn.slot, align 8
  %9 = extractvalue { ptr, i32 } %7, 1
  store i32 %9, ptr %ehselector.slot, align 4
  call void @_ZNSaIcED1Ev(ptr noundef nonnull align 1 dereferenceable(1) %ref.tmp7) #5
  br label %eh.resume

sw.bb10:                                          ; preds = %entry
  call void @_ZNSaIcEC1Ev(ptr noundef nonnull align 1 dereferenceable(1) %ref.tmp11) #5
  invoke void @_ZNSt7__cxx1112basic_stringIcSt11char_traitsIcESaIcEEC2IS3_EEPKcRKS3_(ptr noundef nonnull align 8 dereferenceable(32) %agg.result, ptr noundef @.str.114, ptr noundef nonnull align 1 dereferenceable(1) %ref.tmp11)
          to label %invoke.cont13 unwind label %lpad12

invoke.cont13:                                    ; preds = %sw.bb10
  call void @_ZNSaIcED1Ev(ptr noundef nonnull align 1 dereferenceable(1) %ref.tmp11) #5
  br label %return

lpad12:                                           ; preds = %sw.bb10
  %10 = landingpad { ptr, i32 }
          cleanup
  %11 = extractvalue { ptr, i32 } %10, 0
  store ptr %11, ptr %exn.slot, align 8
  %12 = extractvalue { ptr, i32 } %10, 1
  store i32 %12, ptr %ehselector.slot, align 4
  call void @_ZNSaIcED1Ev(ptr noundef nonnull align 1 dereferenceable(1) %ref.tmp11) #5
  br label %eh.resume

sw.bb14:                                          ; preds = %entry
  call void @_ZNSaIcEC1Ev(ptr noundef nonnull align 1 dereferenceable(1) %ref.tmp15) #5
  invoke void @_ZNSt7__cxx1112basic_stringIcSt11char_traitsIcESaIcEEC2IS3_EEPKcRKS3_(ptr noundef nonnull align 8 dereferenceable(32) %agg.result, ptr noundef @.str.115, ptr noundef nonnull align 1 dereferenceable(1) %ref.tmp15)
          to label %invoke.cont17 unwind label %lpad16

invoke.cont17:                                    ; preds = %sw.bb14
  call void @_ZNSaIcED1Ev(ptr noundef nonnull align 1 dereferenceable(1) %ref.tmp15) #5
  br label %return

lpad16:                                           ; preds = %sw.bb14
  %13 = landingpad { ptr, i32 }
          cleanup
  %14 = extractvalue { ptr, i32 } %13, 0
  store ptr %14, ptr %exn.slot, align 8
  %15 = extractvalue { ptr, i32 } %13, 1
  store i32 %15, ptr %ehselector.slot, align 4
  call void @_ZNSaIcED1Ev(ptr noundef nonnull align 1 dereferenceable(1) %ref.tmp15) #5
  br label %eh.resume

sw.bb18:                                          ; preds = %entry
  call void @_ZNSaIcEC1Ev(ptr noundef nonnull align 1 dereferenceable(1) %ref.tmp19) #5
  invoke void @_ZNSt7__cxx1112basic_stringIcSt11char_traitsIcESaIcEEC2IS3_EEPKcRKS3_(ptr noundef nonnull align 8 dereferenceable(32) %agg.result, ptr noundef @.str.116, ptr noundef nonnull align 1 dereferenceable(1) %ref.tmp19)
          to label %invoke.cont21 unwind label %lpad20

invoke.cont21:                                    ; preds = %sw.bb18
  call void @_ZNSaIcED1Ev(ptr noundef nonnull align 1 dereferenceable(1) %ref.tmp19) #5
  br label %return

lpad20:                                           ; preds = %sw.bb18
  %16 = landingpad { ptr, i32 }
          cleanup
  %17 = extractvalue { ptr, i32 } %16, 0
  store ptr %17, ptr %exn.slot, align 8
  %18 = extractvalue { ptr, i32 } %16, 1
  store i32 %18, ptr %ehselector.slot, align 4
  call void @_ZNSaIcED1Ev(ptr noundef nonnull align 1 dereferenceable(1) %ref.tmp19) #5
  br label %eh.resume

sw.bb22:                                          ; preds = %entry
  call void @_ZNSaIcEC1Ev(ptr noundef nonnull align 1 dereferenceable(1) %ref.tmp23) #5
  invoke void @_ZNSt7__cxx1112basic_stringIcSt11char_traitsIcESaIcEEC2IS3_EEPKcRKS3_(ptr noundef nonnull align 8 dereferenceable(32) %agg.result, ptr noundef @.str.117, ptr noundef nonnull align 1 dereferenceable(1) %ref.tmp23)
          to label %invoke.cont25 unwind label %lpad24

invoke.cont25:                                    ; preds = %sw.bb22
  call void @_ZNSaIcED1Ev(ptr noundef nonnull align 1 dereferenceable(1) %ref.tmp23) #5
  br label %return

lpad24:                                           ; preds = %sw.bb22
  %19 = landingpad { ptr, i32 }
          cleanup
  %20 = extractvalue { ptr, i32 } %19, 0
  store ptr %20, ptr %exn.slot, align 8
  %21 = extractvalue { ptr, i32 } %19, 1
  store i32 %21, ptr %ehselector.slot, align 4
  call void @_ZNSaIcED1Ev(ptr noundef nonnull align 1 dereferenceable(1) %ref.tmp23) #5
  br label %eh.resume

sw.bb26:                                          ; preds = %entry
  call void @_ZNSaIcEC1Ev(ptr noundef nonnull align 1 dereferenceable(1) %ref.tmp27) #5
  invoke void @_ZNSt7__cxx1112basic_stringIcSt11char_traitsIcESaIcEEC2IS3_EEPKcRKS3_(ptr noundef nonnull align 8 dereferenceable(32) %agg.result, ptr noundef @.str.118, ptr noundef nonnull align 1 dereferenceable(1) %ref.tmp27)
          to label %invoke.cont29 unwind label %lpad28

invoke.cont29:                                    ; preds = %sw.bb26
  call void @_ZNSaIcED1Ev(ptr noundef nonnull align 1 dereferenceable(1) %ref.tmp27) #5
  br label %return

lpad28:                                           ; preds = %sw.bb26
  %22 = landingpad { ptr, i32 }
          cleanup
  %23 = extractvalue { ptr, i32 } %22, 0
  store ptr %23, ptr %exn.slot, align 8
  %24 = extractvalue { ptr, i32 } %22, 1
  store i32 %24, ptr %ehselector.slot, align 4
  call void @_ZNSaIcED1Ev(ptr noundef nonnull align 1 dereferenceable(1) %ref.tmp27) #5
  br label %eh.resume

sw.bb30:                                          ; preds = %entry
  call void @_ZNSaIcEC1Ev(ptr noundef nonnull align 1 dereferenceable(1) %ref.tmp31) #5
  invoke void @_ZNSt7__cxx1112basic_stringIcSt11char_traitsIcESaIcEEC2IS3_EEPKcRKS3_(ptr noundef nonnull align 8 dereferenceable(32) %agg.result, ptr noundef @.str.119, ptr noundef nonnull align 1 dereferenceable(1) %ref.tmp31)
          to label %invoke.cont33 unwind label %lpad32

invoke.cont33:                                    ; preds = %sw.bb30
  call void @_ZNSaIcED1Ev(ptr noundef nonnull align 1 dereferenceable(1) %ref.tmp31) #5
  br label %return

lpad32:                                           ; preds = %sw.bb30
  %25 = landingpad { ptr, i32 }
          cleanup
  %26 = extractvalue { ptr, i32 } %25, 0
  store ptr %26, ptr %exn.slot, align 8
  %27 = extractvalue { ptr, i32 } %25, 1
  store i32 %27, ptr %ehselector.slot, align 4
  call void @_ZNSaIcED1Ev(ptr noundef nonnull align 1 dereferenceable(1) %ref.tmp31) #5
  br label %eh.resume

sw.bb34:                                          ; preds = %entry
  call void @_ZNSaIcEC1Ev(ptr noundef nonnull align 1 dereferenceable(1) %ref.tmp35) #5
  invoke void @_ZNSt7__cxx1112basic_stringIcSt11char_traitsIcESaIcEEC2IS3_EEPKcRKS3_(ptr noundef nonnull align 8 dereferenceable(32) %agg.result, ptr noundef @.str.120, ptr noundef nonnull align 1 dereferenceable(1) %ref.tmp35)
          to label %invoke.cont37 unwind label %lpad36

invoke.cont37:                                    ; preds = %sw.bb34
  call void @_ZNSaIcED1Ev(ptr noundef nonnull align 1 dereferenceable(1) %ref.tmp35) #5
  br label %return

lpad36:                                           ; preds = %sw.bb34
  %28 = landingpad { ptr, i32 }
          cleanup
  %29 = extractvalue { ptr, i32 } %28, 0
  store ptr %29, ptr %exn.slot, align 8
  %30 = extractvalue { ptr, i32 } %28, 1
  store i32 %30, ptr %ehselector.slot, align 4
  call void @_ZNSaIcED1Ev(ptr noundef nonnull align 1 dereferenceable(1) %ref.tmp35) #5
  br label %eh.resume

sw.bb38:                                          ; preds = %entry
  call void @_ZNSaIcEC1Ev(ptr noundef nonnull align 1 dereferenceable(1) %ref.tmp39) #5
  invoke void @_ZNSt7__cxx1112basic_stringIcSt11char_traitsIcESaIcEEC2IS3_EEPKcRKS3_(ptr noundef nonnull align 8 dereferenceable(32) %agg.result, ptr noundef @.str.121, ptr noundef nonnull align 1 dereferenceable(1) %ref.tmp39)
          to label %invoke.cont41 unwind label %lpad40

invoke.cont41:                                    ; preds = %sw.bb38
  call void @_ZNSaIcED1Ev(ptr noundef nonnull align 1 dereferenceable(1) %ref.tmp39) #5
  br label %return

lpad40:                                           ; preds = %sw.bb38
  %31 = landingpad { ptr, i32 }
          cleanup
  %32 = extractvalue { ptr, i32 } %31, 0
  store ptr %32, ptr %exn.slot, align 8
  %33 = extractvalue { ptr, i32 } %31, 1
  store i32 %33, ptr %ehselector.slot, align 4
  call void @_ZNSaIcED1Ev(ptr noundef nonnull align 1 dereferenceable(1) %ref.tmp39) #5
  br label %eh.resume

sw.bb42:                                          ; preds = %entry
  call void @_ZNSaIcEC1Ev(ptr noundef nonnull align 1 dereferenceable(1) %ref.tmp43) #5
  invoke void @_ZNSt7__cxx1112basic_stringIcSt11char_traitsIcESaIcEEC2IS3_EEPKcRKS3_(ptr noundef nonnull align 8 dereferenceable(32) %agg.result, ptr noundef @.str.122, ptr noundef nonnull align 1 dereferenceable(1) %ref.tmp43)
          to label %invoke.cont45 unwind label %lpad44

invoke.cont45:                                    ; preds = %sw.bb42
  call void @_ZNSaIcED1Ev(ptr noundef nonnull align 1 dereferenceable(1) %ref.tmp43) #5
  br label %return

lpad44:                                           ; preds = %sw.bb42
  %34 = landingpad { ptr, i32 }
          cleanup
  %35 = extractvalue { ptr, i32 } %34, 0
  store ptr %35, ptr %exn.slot, align 8
  %36 = extractvalue { ptr, i32 } %34, 1
  store i32 %36, ptr %ehselector.slot, align 4
  call void @_ZNSaIcED1Ev(ptr noundef nonnull align 1 dereferenceable(1) %ref.tmp43) #5
  br label %eh.resume

sw.bb46:                                          ; preds = %entry
  call void @_ZNSaIcEC1Ev(ptr noundef nonnull align 1 dereferenceable(1) %ref.tmp47) #5
  invoke void @_ZNSt7__cxx1112basic_stringIcSt11char_traitsIcESaIcEEC2IS3_EEPKcRKS3_(ptr noundef nonnull align 8 dereferenceable(32) %agg.result, ptr noundef @.str.123, ptr noundef nonnull align 1 dereferenceable(1) %ref.tmp47)
          to label %invoke.cont49 unwind label %lpad48

invoke.cont49:                                    ; preds = %sw.bb46
  call void @_ZNSaIcED1Ev(ptr noundef nonnull align 1 dereferenceable(1) %ref.tmp47) #5
  br label %return

lpad48:                                           ; preds = %sw.bb46
  %37 = landingpad { ptr, i32 }
          cleanup
  %38 = extractvalue { ptr, i32 } %37, 0
  store ptr %38, ptr %exn.slot, align 8
  %39 = extractvalue { ptr, i32 } %37, 1
  store i32 %39, ptr %ehselector.slot, align 4
  call void @_ZNSaIcED1Ev(ptr noundef nonnull align 1 dereferenceable(1) %ref.tmp47) #5
  br label %eh.resume

sw.bb50:                                          ; preds = %entry
  call void @_ZNSaIcEC1Ev(ptr noundef nonnull align 1 dereferenceable(1) %ref.tmp51) #5
  invoke void @_ZNSt7__cxx1112basic_stringIcSt11char_traitsIcESaIcEEC2IS3_EEPKcRKS3_(ptr noundef nonnull align 8 dereferenceable(32) %agg.result, ptr noundef @.str.124, ptr noundef nonnull align 1 dereferenceable(1) %ref.tmp51)
          to label %invoke.cont53 unwind label %lpad52

invoke.cont53:                                    ; preds = %sw.bb50
  call void @_ZNSaIcED1Ev(ptr noundef nonnull align 1 dereferenceable(1) %ref.tmp51) #5
  br label %return

lpad52:                                           ; preds = %sw.bb50
  %40 = landingpad { ptr, i32 }
          cleanup
  %41 = extractvalue { ptr, i32 } %40, 0
  store ptr %41, ptr %exn.slot, align 8
  %42 = extractvalue { ptr, i32 } %40, 1
  store i32 %42, ptr %ehselector.slot, align 4
  call void @_ZNSaIcED1Ev(ptr noundef nonnull align 1 dereferenceable(1) %ref.tmp51) #5
  br label %eh.resume

sw.bb54:                                          ; preds = %entry
  call void @_ZNSaIcEC1Ev(ptr noundef nonnull align 1 dereferenceable(1) %ref.tmp55) #5
  invoke void @_ZNSt7__cxx1112basic_stringIcSt11char_traitsIcESaIcEEC2IS3_EEPKcRKS3_(ptr noundef nonnull align 8 dereferenceable(32) %agg.result, ptr noundef @.str.125, ptr noundef nonnull align 1 dereferenceable(1) %ref.tmp55)
          to label %invoke.cont57 unwind label %lpad56

invoke.cont57:                                    ; preds = %sw.bb54
  call void @_ZNSaIcED1Ev(ptr noundef nonnull align 1 dereferenceable(1) %ref.tmp55) #5
  br label %return

lpad56:                                           ; preds = %sw.bb54
  %43 = landingpad { ptr, i32 }
          cleanup
  %44 = extractvalue { ptr, i32 } %43, 0
  store ptr %44, ptr %exn.slot, align 8
  %45 = extractvalue { ptr, i32 } %43, 1
  store i32 %45, ptr %ehselector.slot, align 4
  call void @_ZNSaIcED1Ev(ptr noundef nonnull align 1 dereferenceable(1) %ref.tmp55) #5
  br label %eh.resume

sw.bb58:                                          ; preds = %entry
  call void @_ZNSaIcEC1Ev(ptr noundef nonnull align 1 dereferenceable(1) %ref.tmp59) #5
  invoke void @_ZNSt7__cxx1112basic_stringIcSt11char_traitsIcESaIcEEC2IS3_EEPKcRKS3_(ptr noundef nonnull align 8 dereferenceable(32) %agg.result, ptr noundef @.str.126, ptr noundef nonnull align 1 dereferenceable(1) %ref.tmp59)
          to label %invoke.cont61 unwind label %lpad60

invoke.cont61:                                    ; preds = %sw.bb58
  call void @_ZNSaIcED1Ev(ptr noundef nonnull align 1 dereferenceable(1) %ref.tmp59) #5
  br label %return

lpad60:                                           ; preds = %sw.bb58
  %46 = landingpad { ptr, i32 }
          cleanup
  %47 = extractvalue { ptr, i32 } %46, 0
  store ptr %47, ptr %exn.slot, align 8
  %48 = extractvalue { ptr, i32 } %46, 1
  store i32 %48, ptr %ehselector.slot, align 4
  call void @_ZNSaIcED1Ev(ptr noundef nonnull align 1 dereferenceable(1) %ref.tmp59) #5
  br label %eh.resume

sw.default:                                       ; preds = %entry
  call void @_ZNSaIcEC1Ev(ptr noundef nonnull align 1 dereferenceable(1) %ref.tmp62) #5
  invoke void @_ZNSt7__cxx1112basic_stringIcSt11char_traitsIcESaIcEEC2IS3_EEPKcRKS3_(ptr noundef nonnull align 8 dereferenceable(32) %agg.result, ptr noundef @.str.79, ptr noundef nonnull align 1 dereferenceable(1) %ref.tmp62)
          to label %invoke.cont64 unwind label %lpad63

invoke.cont64:                                    ; preds = %sw.default
  call void @_ZNSaIcED1Ev(ptr noundef nonnull align 1 dereferenceable(1) %ref.tmp62) #5
  br label %return

lpad63:                                           ; preds = %sw.default
  %49 = landingpad { ptr, i32 }
          cleanup
  %50 = extractvalue { ptr, i32 } %49, 0
  store ptr %50, ptr %exn.slot, align 8
  %51 = extractvalue { ptr, i32 } %49, 1
  store i32 %51, ptr %ehselector.slot, align 4
  call void @_ZNSaIcED1Ev(ptr noundef nonnull align 1 dereferenceable(1) %ref.tmp62) #5
  br label %eh.resume

return:                                           ; preds = %invoke.cont64, %invoke.cont61, %invoke.cont57, %invoke.cont53, %invoke.cont49, %invoke.cont45, %invoke.cont41, %invoke.cont37, %invoke.cont33, %invoke.cont29, %invoke.cont25, %invoke.cont21, %invoke.cont17, %invoke.cont13, %invoke.cont9, %invoke.cont5, %invoke.cont
  ret void

eh.resume:                                        ; preds = %lpad63, %lpad60, %lpad56, %lpad52, %lpad48, %lpad44, %lpad40, %lpad36, %lpad32, %lpad28, %lpad24, %lpad20, %lpad16, %lpad12, %lpad8, %lpad4, %lpad
  %exn = load ptr, ptr %exn.slot, align 8
  %sel = load i32, ptr %ehselector.slot, align 4
  %lpad.val = insertvalue { ptr, i32 } poison, ptr %exn, 0
  %lpad.val65 = insertvalue { ptr, i32 } %lpad.val, i32 %sel, 1
  resume { ptr, i32 } %lpad.val65
}

; Function Attrs: mustprogress nounwind uwtable
define linkonce_odr hidden noundef i32 @_ZNK3dpx13GenericHeader10EncryptKeyEv(ptr noundef nonnull align 4 dereferenceable(1664) %this) #1 comdat align 2 {
entry:
  %this.addr = alloca ptr, align 8
  store ptr %this, ptr %this.addr, align 8
  %this1 = load ptr, ptr %this.addr, align 8
  %encryptKey = getelementptr inbounds %"struct.dpx::GenericHeader", ptr %this1, i32 0, i32 13
  %0 = load i32, ptr %encryptKey, align 4
  ret i32 %0
}

; Function Attrs: mustprogress uwtable
define linkonce_odr void @_ZN18OpenImageIO_v2_6_09ImageSpec9attributeENS_17basic_string_viewIcSt11char_traitsIcEEEj(ptr noundef nonnull align 8 dereferenceable(160) %this, ptr noundef %name, i32 noundef %value) #6 comdat align 2 {
entry:
  %this.addr = alloca ptr, align 8
  %name.indirect_addr = alloca ptr, align 8
  %value.addr = alloca i32, align 4
  %agg.tmp = alloca %"class.OpenImageIO_v2_6_0::basic_string_view", align 8
  %agg.tmp2 = alloca %"struct.OpenImageIO_v2_6_0::TypeDesc", align 4
  store ptr %this, ptr %this.addr, align 8
  store ptr %name, ptr %name.indirect_addr, align 8
  store i32 %value, ptr %value.addr, align 4
  %this1 = load ptr, ptr %this.addr, align 8
  call void @_ZN18OpenImageIO_v2_6_017basic_string_viewIcSt11char_traitsIcEEC2ERKS3_(ptr noundef nonnull align 8 dereferenceable(16) %agg.tmp, ptr noundef nonnull align 8 dereferenceable(16) %name)
  call void @_ZN18OpenImageIO_v2_6_08TypeDescC2ENS0_8BASETYPEENS0_9AGGREGATEENS0_12VECSEMANTICSEi(ptr noundef nonnull align 4 dereferenceable(8) %agg.tmp2, i32 noundef 6, i32 noundef 1, i32 noundef 0, i32 noundef 0) #5
  call void @_ZN18OpenImageIO_v2_6_09ImageSpec9attributeENS_17basic_string_viewIcSt11char_traitsIcEEENS_8TypeDescEPKv(ptr noundef nonnull align 8 dereferenceable(160) %this1, ptr noundef %agg.tmp, ptr noundef %agg.tmp2, ptr noundef %value.addr)
  ret void
}

; Function Attrs: mustprogress nounwind uwtable
define linkonce_odr hidden noundef i32 @_ZNK3dpx13GenericHeader8DittoKeyEv(ptr noundef nonnull align 4 dereferenceable(1664) %this) #1 comdat align 2 {
entry:
  %this.addr = alloca ptr, align 8
  store ptr %this, ptr %this.addr, align 8
  %this1 = load ptr, ptr %this.addr, align 8
  %dittoKey = getelementptr inbounds %"struct.dpx::GenericHeader", ptr %this1, i32 0, i32 4
  %0 = load i32, ptr %dittoKey, align 4
  ret i32 %0
}

; Function Attrs: mustprogress nounwind uwtable
define linkonce_odr hidden noundef i32 @_ZNK3dpx13GenericHeader7LowDataEi(ptr noundef nonnull align 4 dereferenceable(1664) %this, i32 noundef %i) #1 comdat align 2 {
entry:
  %retval = alloca i32, align 4
  %this.addr = alloca ptr, align 8
  %i.addr = alloca i32, align 4
  store ptr %this, ptr %this.addr, align 8
  store i32 %i, ptr %i.addr, align 4
  %this1 = load ptr, ptr %this.addr, align 8
  %0 = load i32, ptr %i.addr, align 4
  %cmp = icmp slt i32 %0, 0
  br i1 %cmp, label %if.then, label %lor.lhs.false

lor.lhs.false:                                    ; preds = %entry
  %1 = load i32, ptr %i.addr, align 4
  %cmp2 = icmp sge i32 %1, 8
  br i1 %cmp2, label %if.then, label %if.end

if.then:                                          ; preds = %lor.lhs.false, %entry
  store i32 -1, ptr %retval, align 4
  br label %return

if.end:                                           ; preds = %lor.lhs.false
  %chan = getelementptr inbounds %"struct.dpx::GenericHeader", ptr %this1, i32 0, i32 19
  %2 = load i32, ptr %i.addr, align 4
  %idxprom = sext i32 %2 to i64
  %arrayidx = getelementptr inbounds [8 x %"struct.dpx::ImageElement"], ptr %chan, i64 0, i64 %idxprom
  %lowData = getelementptr inbounds %"struct.dpx::ImageElement", ptr %arrayidx, i32 0, i32 1
  %3 = load i32, ptr %lowData, align 4
  store i32 %3, ptr %retval, align 4
  br label %return

return:                                           ; preds = %if.end, %if.then
  %4 = load i32, ptr %retval, align 4
  ret i32 %4
}

; Function Attrs: mustprogress nounwind uwtable
define linkonce_odr hidden noundef float @_ZNK3dpx13GenericHeader11LowQuantityEi(ptr noundef nonnull align 4 dereferenceable(1664) %this, i32 noundef %i) #1 comdat align 2 {
entry:
  %retval = alloca float, align 4
  %this.addr = alloca ptr, align 8
  %i.addr = alloca i32, align 4
  store ptr %this, ptr %this.addr, align 8
  store i32 %i, ptr %i.addr, align 4
  %this1 = load ptr, ptr %this.addr, align 8
  %0 = load i32, ptr %i.addr, align 4
  %cmp = icmp slt i32 %0, 0
  br i1 %cmp, label %if.then, label %lor.lhs.false

lor.lhs.false:                                    ; preds = %entry
  %1 = load i32, ptr %i.addr, align 4
  %cmp2 = icmp sge i32 %1, 8
  br i1 %cmp2, label %if.then, label %if.end

if.then:                                          ; preds = %lor.lhs.false, %entry
  store float 0x41F0000000000000, ptr %retval, align 4
  br label %return

if.end:                                           ; preds = %lor.lhs.false
  %chan = getelementptr inbounds %"struct.dpx::GenericHeader", ptr %this1, i32 0, i32 19
  %2 = load i32, ptr %i.addr, align 4
  %idxprom = sext i32 %2 to i64
  %arrayidx = getelementptr inbounds [8 x %"struct.dpx::ImageElement"], ptr %chan, i64 0, i64 %idxprom
  %lowQuantity = getelementptr inbounds %"struct.dpx::ImageElement", ptr %arrayidx, i32 0, i32 2
  %3 = load float, ptr %lowQuantity, align 4
  store float %3, ptr %retval, align 4
  br label %return

return:                                           ; preds = %if.end, %if.then
  %4 = load float, ptr %retval, align 4
  ret float %4
}

; Function Attrs: mustprogress nounwind uwtable
define linkonce_odr hidden noundef i32 @_ZNK3dpx13GenericHeader8HighDataEi(ptr noundef nonnull align 4 dereferenceable(1664) %this, i32 noundef %i) #1 comdat align 2 {
entry:
  %retval = alloca i32, align 4
  %this.addr = alloca ptr, align 8
  %i.addr = alloca i32, align 4
  store ptr %this, ptr %this.addr, align 8
  store i32 %i, ptr %i.addr, align 4
  %this1 = load ptr, ptr %this.addr, align 8
  %0 = load i32, ptr %i.addr, align 4
  %cmp = icmp slt i32 %0, 0
  br i1 %cmp, label %if.then, label %lor.lhs.false

lor.lhs.false:                                    ; preds = %entry
  %1 = load i32, ptr %i.addr, align 4
  %cmp2 = icmp sge i32 %1, 8
  br i1 %cmp2, label %if.then, label %if.end

if.then:                                          ; preds = %lor.lhs.false, %entry
  store i32 -1, ptr %retval, align 4
  br label %return

if.end:                                           ; preds = %lor.lhs.false
  %chan = getelementptr inbounds %"struct.dpx::GenericHeader", ptr %this1, i32 0, i32 19
  %2 = load i32, ptr %i.addr, align 4
  %idxprom = sext i32 %2 to i64
  %arrayidx = getelementptr inbounds [8 x %"struct.dpx::ImageElement"], ptr %chan, i64 0, i64 %idxprom
  %highData = getelementptr inbounds %"struct.dpx::ImageElement", ptr %arrayidx, i32 0, i32 3
  %3 = load i32, ptr %highData, align 4
  store i32 %3, ptr %retval, align 4
  br label %return

return:                                           ; preds = %if.end, %if.then
  %4 = load i32, ptr %retval, align 4
  ret i32 %4
}

; Function Attrs: mustprogress nounwind uwtable
define linkonce_odr hidden noundef float @_ZNK3dpx13GenericHeader12HighQuantityEi(ptr noundef nonnull align 4 dereferenceable(1664) %this, i32 noundef %i) #1 comdat align 2 {
entry:
  %retval = alloca float, align 4
  %this.addr = alloca ptr, align 8
  %i.addr = alloca i32, align 4
  store ptr %this, ptr %this.addr, align 8
  store i32 %i, ptr %i.addr, align 4
  %this1 = load ptr, ptr %this.addr, align 8
  %0 = load i32, ptr %i.addr, align 4
  %cmp = icmp slt i32 %0, 0
  br i1 %cmp, label %if.then, label %lor.lhs.false

lor.lhs.false:                                    ; preds = %entry
  %1 = load i32, ptr %i.addr, align 4
  %cmp2 = icmp sge i32 %1, 8
  br i1 %cmp2, label %if.then, label %if.end

if.then:                                          ; preds = %lor.lhs.false, %entry
  store float 0x41F0000000000000, ptr %retval, align 4
  br label %return

if.end:                                           ; preds = %lor.lhs.false
  %chan = getelementptr inbounds %"struct.dpx::GenericHeader", ptr %this1, i32 0, i32 19
  %2 = load i32, ptr %i.addr, align 4
  %idxprom = sext i32 %2 to i64
  %arrayidx = getelementptr inbounds [8 x %"struct.dpx::ImageElement"], ptr %chan, i64 0, i64 %idxprom
  %highQuantity = getelementptr inbounds %"struct.dpx::ImageElement", ptr %arrayidx, i32 0, i32 4
  %3 = load float, ptr %highQuantity, align 4
  store float %3, ptr %retval, align 4
  br label %return

return:                                           ; preds = %if.end, %if.then
  %4 = load float, ptr %retval, align 4
  ret float %4
}

; Function Attrs: mustprogress nounwind uwtable
define linkonce_odr hidden noundef i32 @_ZNK3dpx13GenericHeader16EndOfLinePaddingEi(ptr noundef nonnull align 4 dereferenceable(1664) %this, i32 noundef %i) #1 comdat align 2 {
entry:
  %retval = alloca i32, align 4
  %this.addr = alloca ptr, align 8
  %i.addr = alloca i32, align 4
  store ptr %this, ptr %this.addr, align 8
  store i32 %i, ptr %i.addr, align 4
  %this1 = load ptr, ptr %this.addr, align 8
  %0 = load i32, ptr %i.addr, align 4
  %cmp = icmp slt i32 %0, 0
  br i1 %cmp, label %if.then, label %lor.lhs.false

lor.lhs.false:                                    ; preds = %entry
  %1 = load i32, ptr %i.addr, align 4
  %cmp2 = icmp sge i32 %1, 8
  br i1 %cmp2, label %if.then, label %if.end

if.then:                                          ; preds = %lor.lhs.false, %entry
  store i32 -1, ptr %retval, align 4
  br label %return

if.end:                                           ; preds = %lor.lhs.false
  %chan = getelementptr inbounds %"struct.dpx::GenericHeader", ptr %this1, i32 0, i32 19
  %2 = load i32, ptr %i.addr, align 4
  %idxprom = sext i32 %2 to i64
  %arrayidx = getelementptr inbounds [8 x %"struct.dpx::ImageElement"], ptr %chan, i64 0, i64 %idxprom
  %endOfLinePadding = getelementptr inbounds %"struct.dpx::ImageElement", ptr %arrayidx, i32 0, i32 12
  %3 = load i32, ptr %endOfLinePadding, align 4
  %cmp3 = icmp eq i32 %3, -1
  br i1 %cmp3, label %if.then4, label %if.end5

if.then4:                                         ; preds = %if.end
  store i32 0, ptr %retval, align 4
  br label %return

if.end5:                                          ; preds = %if.end
  %chan6 = getelementptr inbounds %"struct.dpx::GenericHeader", ptr %this1, i32 0, i32 19
  %4 = load i32, ptr %i.addr, align 4
  %idxprom7 = sext i32 %4 to i64
  %arrayidx8 = getelementptr inbounds [8 x %"struct.dpx::ImageElement"], ptr %chan6, i64 0, i64 %idxprom7
  %endOfLinePadding9 = getelementptr inbounds %"struct.dpx::ImageElement", ptr %arrayidx8, i32 0, i32 12
  %5 = load i32, ptr %endOfLinePadding9, align 4
  store i32 %5, ptr %retval, align 4
  br label %return

return:                                           ; preds = %if.end5, %if.then4, %if.then
  %6 = load i32, ptr %retval, align 4
  ret i32 %6
}

; Function Attrs: mustprogress nounwind uwtable
define linkonce_odr hidden noundef i32 @_ZNK3dpx13GenericHeader17EndOfImagePaddingEi(ptr noundef nonnull align 4 dereferenceable(1664) %this, i32 noundef %i) #1 comdat align 2 {
entry:
  %retval = alloca i32, align 4
  %this.addr = alloca ptr, align 8
  %i.addr = alloca i32, align 4
  store ptr %this, ptr %this.addr, align 8
  store i32 %i, ptr %i.addr, align 4
  %this1 = load ptr, ptr %this.addr, align 8
  %0 = load i32, ptr %i.addr, align 4
  %cmp = icmp slt i32 %0, 0
  br i1 %cmp, label %if.then, label %lor.lhs.false

lor.lhs.false:                                    ; preds = %entry
  %1 = load i32, ptr %i.addr, align 4
  %cmp2 = icmp sge i32 %1, 8
  br i1 %cmp2, label %if.then, label %if.end

if.then:                                          ; preds = %lor.lhs.false, %entry
  store i32 -1, ptr %retval, align 4
  br label %return

if.end:                                           ; preds = %lor.lhs.false
  %chan = getelementptr inbounds %"struct.dpx::GenericHeader", ptr %this1, i32 0, i32 19
  %2 = load i32, ptr %i.addr, align 4
  %idxprom = sext i32 %2 to i64
  %arrayidx = getelementptr inbounds [8 x %"struct.dpx::ImageElement"], ptr %chan, i64 0, i64 %idxprom
  %endOfImagePadding = getelementptr inbounds %"struct.dpx::ImageElement", ptr %arrayidx, i32 0, i32 13
  %3 = load i32, ptr %endOfImagePadding, align 4
  %cmp3 = icmp eq i32 %3, -1
  br i1 %cmp3, label %if.then4, label %if.end5

if.then4:                                         ; preds = %if.end
  store i32 0, ptr %retval, align 4
  br label %return

if.end5:                                          ; preds = %if.end
  %chan6 = getelementptr inbounds %"struct.dpx::GenericHeader", ptr %this1, i32 0, i32 19
  %4 = load i32, ptr %i.addr, align 4
  %idxprom7 = sext i32 %4 to i64
  %arrayidx8 = getelementptr inbounds [8 x %"struct.dpx::ImageElement"], ptr %chan6, i64 0, i64 %idxprom7
  %endOfImagePadding9 = getelementptr inbounds %"struct.dpx::ImageElement", ptr %arrayidx8, i32 0, i32 13
  %5 = load i32, ptr %endOfImagePadding9, align 4
  store i32 %5, ptr %retval, align 4
  br label %return

return:                                           ; preds = %if.end5, %if.then4, %if.then
  %6 = load i32, ptr %retval, align 4
  ret i32 %6
}

; Function Attrs: mustprogress nounwind uwtable
define linkonce_odr hidden noundef float @_ZNK3dpx13GenericHeader12XScannedSizeEv(ptr noundef nonnull align 4 dereferenceable(1664) %this) #1 comdat align 2 {
entry:
  %this.addr = alloca ptr, align 8
  store ptr %this, ptr %this.addr, align 8
  %this1 = load ptr, ptr %this.addr, align 8
  %xScannedSize = getelementptr inbounds %"struct.dpx::GenericHeader", ptr %this1, i32 0, i32 33
  %0 = load float, ptr %xScannedSize, align 4
  ret float %0
}

; Function Attrs: mustprogress nounwind uwtable
define linkonce_odr hidden noundef float @_ZNK3dpx13GenericHeader12YScannedSizeEv(ptr noundef nonnull align 4 dereferenceable(1664) %this) #1 comdat align 2 {
entry:
  %this.addr = alloca ptr, align 8
  store ptr %this, ptr %this.addr, align 8
  %this1 = load ptr, ptr %this.addr, align 8
  %yScannedSize = getelementptr inbounds %"struct.dpx::GenericHeader", ptr %this1, i32 0, i32 34
  %0 = load float, ptr %yScannedSize, align 4
  ret float %0
}

; Function Attrs: mustprogress nounwind uwtable
define linkonce_odr hidden noundef i32 @_ZNK3dpx14IndustryHeader13FramePositionEv(ptr noundef nonnull align 4 dereferenceable(384) %this) #1 comdat align 2 {
entry:
  %this.addr = alloca ptr, align 8
  store ptr %this, ptr %this.addr, align 8
  %this1 = load ptr, ptr %this.addr, align 8
  %framePosition = getelementptr inbounds %"struct.dpx::IndustryHeader", ptr %this1, i32 0, i32 6
  %0 = load i32, ptr %framePosition, align 4
  ret i32 %0
}

; Function Attrs: mustprogress nounwind uwtable
define linkonce_odr hidden noundef i32 @_ZNK3dpx14IndustryHeader14SequenceLengthEv(ptr noundef nonnull align 4 dereferenceable(384) %this) #1 comdat align 2 {
entry:
  %this.addr = alloca ptr, align 8
  store ptr %this, ptr %this.addr, align 8
  %this1 = load ptr, ptr %this.addr, align 8
  %sequenceLength = getelementptr inbounds %"struct.dpx::IndustryHeader", ptr %this1, i32 0, i32 7
  %0 = load i32, ptr %sequenceLength, align 4
  ret i32 %0
}

; Function Attrs: mustprogress nounwind uwtable
define linkonce_odr hidden noundef i32 @_ZNK3dpx14IndustryHeader9HeldCountEv(ptr noundef nonnull align 4 dereferenceable(384) %this) #1 comdat align 2 {
entry:
  %this.addr = alloca ptr, align 8
  store ptr %this, ptr %this.addr, align 8
  %this1 = load ptr, ptr %this.addr, align 8
  %heldCount = getelementptr inbounds %"struct.dpx::IndustryHeader", ptr %this1, i32 0, i32 8
  %0 = load i32, ptr %heldCount, align 4
  ret i32 %0
}

; Function Attrs: mustprogress nounwind uwtable
define linkonce_odr hidden noundef float @_ZNK3dpx14IndustryHeader9FrameRateEv(ptr noundef nonnull align 4 dereferenceable(384) %this) #1 comdat align 2 {
entry:
  %this.addr = alloca ptr, align 8
  store ptr %this, ptr %this.addr, align 8
  %this1 = load ptr, ptr %this.addr, align 8
  %frameRate = getelementptr inbounds %"struct.dpx::IndustryHeader", ptr %this1, i32 0, i32 9
  %0 = load float, ptr %frameRate, align 4
  ret float %0
}

; Function Attrs: mustprogress nounwind uwtable
define linkonce_odr hidden noundef float @_ZNK3dpx14IndustryHeader12ShutterAngleEv(ptr noundef nonnull align 4 dereferenceable(384) %this) #1 comdat align 2 {
entry:
  %this.addr = alloca ptr, align 8
  store ptr %this, ptr %this.addr, align 8
  %this1 = load ptr, ptr %this.addr, align 8
  %shutterAngle = getelementptr inbounds %"struct.dpx::IndustryHeader", ptr %this1, i32 0, i32 10
  %0 = load float, ptr %shutterAngle, align 4
  ret float %0
}

; Function Attrs: mustprogress nounwind uwtable
define linkonce_odr hidden noundef zeroext i8 @_ZNK3dpx14IndustryHeader9InterlaceEv(ptr noundef nonnull align 4 dereferenceable(384) %this) #1 comdat align 2 {
entry:
  %this.addr = alloca ptr, align 8
  store ptr %this, ptr %this.addr, align 8
  %this1 = load ptr, ptr %this.addr, align 8
