; ModuleID = 'bench/rocksdb/original/blob_file_builder.cc.ll'
source_filename = "bench/rocksdb/original/blob_file_builder.cc.ll"
target datalayout = "e-m:e-p270:32:32-p271:32:32-p272:64:64-i64:64-i128:128-f80:128-n8:16:32:64-S128"
target triple = "x86_64-unknown-linux-gnu"

%"class.std::vector" = type { %"struct.std::_Vector_base" }
%"struct.std::_Vector_base" = type { %"struct.std::_Vector_base<rocksdb::Slice, std::allocator<rocksdb::Slice>>::_Vector_impl" }
%"struct.std::_Vector_base<rocksdb::Slice, std::allocator<rocksdb::Slice>>::_Vector_impl" = type { %"struct.std::_Vector_base<rocksdb::Slice, std::allocator<rocksdb::Slice>>::_Vector_impl_data" }
%"struct.std::_Vector_base<rocksdb::Slice, std::allocator<rocksdb::Slice>>::_Vector_impl_data" = type { ptr, ptr, ptr }
%"struct.rocksdb::CompressionDict" = type { ptr, %"class.std::__cxx11::basic_string" }
%"class.std::__cxx11::basic_string" = type { %"struct.std::__cxx11::basic_string<char>::_Alloc_hider", i64, %union.anon }
%"struct.std::__cxx11::basic_string<char>::_Alloc_hider" = type { ptr }
%union.anon = type { i64, [8 x i8] }
%"struct.rocksdb::Cache::CacheItemHelper" = type { ptr, ptr, ptr, ptr, i32, ptr }
%"class.std::function" = type { %"class.std::_Function_base", ptr }
%"class.std::_Function_base" = type { %"union.std::_Any_data", ptr }
%"union.std::_Any_data" = type { %"union.std::_Nocopy_types" }
%"union.std::_Nocopy_types" = type { { i64, i64 } }
%"class.rocksdb::BlobFileBuilder" = type { %"class.std::function", ptr, ptr, i64, i64, i8, i8, ptr, %"class.std::__cxx11::basic_string", %"class.std::__cxx11::basic_string", i32, i32, %"class.std::__cxx11::basic_string", i32, i32, %"class.std::shared_ptr", ptr, i32, ptr, ptr, %"class.std::unique_ptr", i64, i64 }
%"class.std::shared_ptr" = type { %"class.std::__shared_ptr" }
%"class.std::__shared_ptr" = type { ptr, %"class.std::__shared_count" }
%"class.std::__shared_count" = type { ptr }
%"class.std::unique_ptr" = type { %"struct.std::__uniq_ptr_data" }
%"struct.std::__uniq_ptr_data" = type { %"class.std::__uniq_ptr_impl" }
%"class.std::__uniq_ptr_impl" = type { %"class.std::tuple" }
%"class.std::tuple" = type { %"struct.std::_Tuple_impl" }
%"struct.std::_Tuple_impl" = type { %"struct.std::_Head_base.4" }
%"struct.std::_Head_base.4" = type { ptr }
%"struct.rocksdb::MutableCFOptions" = type { i64, i32, i64, double, i8, i64, i64, i64, %"class.std::shared_ptr.5", double, i8, i64, i64, i32, i32, i32, i64, i8, i64, i32, i64, double, i64, i64, %"class.std::vector.8", %"struct.rocksdb::CompactionOptionsFIFO", %"class.rocksdb::CompactionOptionsUniversal", i8, i64, i64, i8, i8, double, double, i64, i32, i8, i64, i8, i8, i8, i8, i8, [3 x i8], %"struct.rocksdb::CompressionOptions", %"struct.rocksdb::CompressionOptions", i8, i32, i8, i64, %"class.std::vector.18", i32, i32, %"class.std::vector.23" }
%"class.std::shared_ptr.5" = type { %"class.std::__shared_ptr.6" }
%"class.std::__shared_ptr.6" = type { ptr, %"class.std::__shared_count" }
%"class.std::vector.8" = type { %"struct.std::_Vector_base.9" }
%"struct.std::_Vector_base.9" = type { %"struct.std::_Vector_base<int, std::allocator<int>>::_Vector_impl" }
%"struct.std::_Vector_base<int, std::allocator<int>>::_Vector_impl" = type { %"struct.std::_Vector_base<int, std::allocator<int>>::_Vector_impl_data" }
%"struct.std::_Vector_base<int, std::allocator<int>>::_Vector_impl_data" = type { ptr, ptr, ptr }
%"struct.rocksdb::CompactionOptionsFIFO" = type { i64, i8, i64, %"class.std::vector.13" }
%"class.std::vector.13" = type { %"struct.std::_Vector_base.14" }
%"struct.std::_Vector_base.14" = type { %"struct.std::_Vector_base<rocksdb::FileTemperatureAge, std::allocator<rocksdb::FileTemperatureAge>>::_Vector_impl" }
%"struct.std::_Vector_base<rocksdb::FileTemperatureAge, std::allocator<rocksdb::FileTemperatureAge>>::_Vector_impl" = type { %"struct.std::_Vector_base<rocksdb::FileTemperatureAge, std::allocator<rocksdb::FileTemperatureAge>>::_Vector_impl_data" }
%"struct.std::_Vector_base<rocksdb::FileTemperatureAge, std::allocator<rocksdb::FileTemperatureAge>>::_Vector_impl_data" = type { ptr, ptr, ptr }
%"class.rocksdb::CompactionOptionsUniversal" = type <{ i32, i32, i32, i32, i32, i32, i8, i8, [2 x i8] }>
%"struct.rocksdb::CompressionOptions" = type <{ i32, i32, i32, i32, i32, i32, i8, [7 x i8], i64, i8, [3 x i8], i32, i8, [7 x i8] }>
%"class.std::vector.18" = type { %"struct.std::_Vector_base.19" }
%"struct.std::_Vector_base.19" = type { %"struct.std::_Vector_base<rocksdb::CompressionType, std::allocator<rocksdb::CompressionType>>::_Vector_impl" }
%"struct.std::_Vector_base<rocksdb::CompressionType, std::allocator<rocksdb::CompressionType>>::_Vector_impl" = type { %"struct.std::_Vector_base<rocksdb::CompressionType, std::allocator<rocksdb::CompressionType>>::_Vector_impl_data" }
%"struct.std::_Vector_base<rocksdb::CompressionType, std::allocator<rocksdb::CompressionType>>::_Vector_impl_data" = type { ptr, ptr, ptr }
%"class.std::vector.23" = type { %"struct.std::_Vector_base.24" }
%"struct.std::_Vector_base.24" = type { %"struct.std::_Vector_base<unsigned long, std::allocator<unsigned long>>::_Vector_impl" }
%"struct.std::_Vector_base<unsigned long, std::allocator<unsigned long>>::_Vector_impl" = type { %"struct.std::_Vector_base<unsigned long, std::allocator<unsigned long>>::_Vector_impl_data" }
%"struct.std::_Vector_base<unsigned long, std::allocator<unsigned long>>::_Vector_impl_data" = type { ptr, ptr, ptr }
%"class.std::_Sp_counted_base" = type { ptr, i32, i32 }
%"class.rocksdb::Status" = type { i8, i8, i8, i8, i8, i8, %"class.std::unique_ptr.28" }
%"class.std::unique_ptr.28" = type { %"struct.std::__uniq_ptr_data.29" }
%"struct.std::__uniq_ptr_data.29" = type { %"class.std::__uniq_ptr_impl.30" }
%"class.std::__uniq_ptr_impl.30" = type { %"class.std::tuple.31" }
%"class.std::tuple.31" = type { %"struct.std::_Tuple_impl.32" }
%"struct.std::_Tuple_impl.32" = type { %"struct.std::_Head_base.35" }
%"struct.std::_Head_base.35" = type { ptr }
%"class.rocksdb::Slice" = type { ptr, i64 }
%"class.rocksdb::WritableFileWriter" = type <{ %"class.std::__cxx11::basic_string", %"class.rocksdb::FSWritableFilePtr", ptr, %"class.rocksdb::AlignedBuffer", i64, %"struct.std::atomic", %"struct.std::atomic", i64, i8, %"struct.std::atomic.138", [6 x i8], i64, i64, ptr, ptr, %"class.std::vector.56", %"class.std::unique_ptr.140", i8, i8, [2 x i8], i32, i8, i8, [6 x i8] }>
%"class.rocksdb::FSWritableFilePtr" = type { %"class.std::shared_ptr", %"class.std::unique_ptr.122" }
%"class.std::unique_ptr.122" = type { %"struct.std::__uniq_ptr_data.123" }
%"struct.std::__uniq_ptr_data.123" = type { %"class.std::__uniq_ptr_impl.124" }
%"class.std::__uniq_ptr_impl.124" = type { %"class.std::tuple.125" }
%"class.std::tuple.125" = type { %"struct.std::_Tuple_impl.126" }
%"struct.std::_Tuple_impl.126" = type { %"struct.std::_Head_base.129" }
%"struct.std::_Head_base.129" = type { ptr }
%"class.rocksdb::AlignedBuffer" = type { i64, %"class.std::unique_ptr.130", i64, i64, ptr }
%"class.std::unique_ptr.130" = type { %"struct.std::__uniq_ptr_data.131" }
%"struct.std::__uniq_ptr_data.131" = type { %"class.std::__uniq_ptr_impl.132" }
%"class.std::__uniq_ptr_impl.132" = type { %"class.std::tuple.133" }
%"class.std::tuple.133" = type { %"struct.std::_Tuple_impl.134" }
%"struct.std::_Tuple_impl.134" = type { %"struct.std::_Head_base.137" }
%"struct.std::_Head_base.137" = type { ptr }
%"struct.std::atomic" = type { %"struct.std::__atomic_base" }
%"struct.std::__atomic_base" = type { i64 }
%"struct.std::atomic.138" = type { %"struct.std::__atomic_base.139" }
%"struct.std::__atomic_base.139" = type { i8 }
%"class.std::vector.56" = type { %"struct.std::_Vector_base.57" }
%"struct.std::_Vector_base.57" = type { %"struct.std::_Vector_base<std::shared_ptr<rocksdb::EventListener>, std::allocator<std::shared_ptr<rocksdb::EventListener>>>::_Vector_impl" }
%"struct.std::_Vector_base<std::shared_ptr<rocksdb::EventListener>, std::allocator<std::shared_ptr<rocksdb::EventListener>>>::_Vector_impl" = type { %"struct.std::_Vector_base<std::shared_ptr<rocksdb::EventListener>, std::allocator<std::shared_ptr<rocksdb::EventListener>>>::_Vector_impl_data" }
%"struct.std::_Vector_base<std::shared_ptr<rocksdb::EventListener>, std::allocator<std::shared_ptr<rocksdb::EventListener>>>::_Vector_impl_data" = type { ptr, ptr, ptr }
%"class.std::unique_ptr.140" = type { %"struct.std::__uniq_ptr_data.141" }
%"struct.std::__uniq_ptr_data.141" = type { %"class.std::__uniq_ptr_impl.142" }
%"class.std::__uniq_ptr_impl.142" = type { %"class.std::tuple.143" }
%"class.std::tuple.143" = type { %"struct.std::_Tuple_impl.144" }
%"struct.std::_Tuple_impl.144" = type { %"struct.std::_Head_base.147" }
%"struct.std::_Head_base.147" = type { ptr }
%"struct.rocksdb::ImmutableDBOptions" = type <{ i8, i8, i8, i8, i8, i8, i8, i8, ptr, %"class.std::shared_ptr.36", %"class.std::shared_ptr.39", %"class.std::shared_ptr.42", i8, [3 x i8], i32, %"class.std::shared_ptr.45", i8, [7 x i8], %"class.std::vector.48", %"class.std::__cxx11::basic_string", %"class.std::__cxx11::basic_string", i64, i64, i64, i64, i64, i32, [4 x i8], i64, i64, i64, i64, i8, i8, i8, i8, i8, i8, i8, i8, i64, %"class.std::shared_ptr.53", i32, [4 x i8], i64, i8, [7 x i8], %"class.std::vector.56", i8, i8, i8, i8, i8, [3 x i8], i64, i64, i8, i8, i8, i8, [4 x i8], %"class.std::shared_ptr.61", ptr, i8, i8, i8, i8, i8, i8, i8, i8, i8, i8, i8, [5 x i8], i64, %"class.std::shared_ptr.64", i8, [3 x i8], i32, i64, i8, [7 x i8], %"class.std::__cxx11::basic_string", %"class.rocksdb::SmallEnumSet", i8, [7 x i8], %"class.std::shared_ptr.67", ptr, ptr, ptr, %"class.std::shared_ptr.70", i8, [7 x i8] }>
%"class.std::shared_ptr.36" = type { %"class.std::__shared_ptr.37" }
%"class.std::__shared_ptr.37" = type { ptr, %"class.std::__shared_count" }
%"class.std::shared_ptr.39" = type { %"class.std::__shared_ptr.40" }
%"class.std::__shared_ptr.40" = type { ptr, %"class.std::__shared_count" }
%"class.std::shared_ptr.42" = type { %"class.std::__shared_ptr.43" }
%"class.std::__shared_ptr.43" = type { ptr, %"class.std::__shared_count" }
%"class.std::shared_ptr.45" = type { %"class.std::__shared_ptr.46" }
%"class.std::__shared_ptr.46" = type { ptr, %"class.std::__shared_count" }
%"class.std::vector.48" = type { %"struct.std::_Vector_base.49" }
%"struct.std::_Vector_base.49" = type { %"struct.std::_Vector_base<rocksdb::DbPath, std::allocator<rocksdb::DbPath>>::_Vector_impl" }
%"struct.std::_Vector_base<rocksdb::DbPath, std::allocator<rocksdb::DbPath>>::_Vector_impl" = type { %"struct.std::_Vector_base<rocksdb::DbPath, std::allocator<rocksdb::DbPath>>::_Vector_impl_data" }
%"struct.std::_Vector_base<rocksdb::DbPath, std::allocator<rocksdb::DbPath>>::_Vector_impl_data" = type { ptr, ptr, ptr }
%"class.std::shared_ptr.53" = type { %"class.std::__shared_ptr.54" }
%"class.std::__shared_ptr.54" = type { ptr, %"class.std::__shared_count" }
%"class.std::shared_ptr.61" = type { %"class.std::__shared_ptr.62" }
%"class.std::__shared_ptr.62" = type { ptr, %"class.std::__shared_count" }
%"class.std::shared_ptr.64" = type { %"class.std::__shared_ptr.65" }
%"class.std::__shared_ptr.65" = type { ptr, %"class.std::__shared_count" }
%"class.rocksdb::SmallEnumSet" = type { i64 }
%"class.std::shared_ptr.67" = type { %"class.std::__shared_ptr.68" }
%"class.std::__shared_ptr.68" = type { ptr, %"class.std::__shared_count" }
%"class.std::shared_ptr.70" = type { %"class.std::__shared_ptr.71" }
%"class.std::__shared_ptr.71" = type { ptr, %"class.std::__shared_count" }
%"class.std::unique_ptr.96" = type { %"struct.std::__uniq_ptr_data.97" }
%"struct.std::__uniq_ptr_data.97" = type { %"class.std::__uniq_ptr_impl.98" }
%"class.std::__uniq_ptr_impl.98" = type { %"class.std::tuple.99" }
%"class.std::tuple.99" = type { %"struct.std::_Tuple_impl.100" }
%"struct.std::_Tuple_impl.100" = type { %"struct.std::_Head_base.103" }
%"struct.std::_Head_base.103" = type { ptr }
%"class.rocksdb::IOStatus" = type { %"class.rocksdb::Status" }
%"class.std::unique_ptr.114" = type { %"struct.std::__uniq_ptr_data.115" }
%"struct.std::__uniq_ptr_data.115" = type { %"class.std::__uniq_ptr_impl.116" }
%"class.std::__uniq_ptr_impl.116" = type { %"class.std::tuple.117" }
%"class.std::tuple.117" = type { %"struct.std::_Tuple_impl.118" }
%"struct.std::_Tuple_impl.118" = type { %"struct.std::_Head_base.121" }
%"struct.std::_Head_base.121" = type { ptr }
%"struct.rocksdb::BlobLogHeader" = type { i32, i32, i8, i8, %"struct.std::pair" }
%"struct.std::pair" = type { i64, i64 }
%"class.rocksdb::BlobFileCompletionCallback" = type { ptr, ptr, ptr, ptr, %"class.std::vector.56", %"class.std::__cxx11::basic_string" }
%"struct.std::_Vector_base<std::__cxx11::basic_string<char>, std::allocator<std::__cxx11::basic_string<char>>>::_Vector_impl_data" = type { ptr, ptr, ptr }
%"class.rocksdb::CompressionContext" = type { ptr }
%"class.rocksdb::CompressionInfo" = type { ptr, ptr, ptr, i8, i64 }
%"class.rocksdb::StopWatch" = type { ptr, ptr, i32, i32, ptr, i8, i8, i8, i64, i64, i64 }
%"class.rocksdb::Statistics" = type <{ %"class.rocksdb::Customizable", %"struct.std::atomic.178", [7 x i8] }>
%"class.rocksdb::Customizable" = type { %"class.rocksdb::Configurable" }
%"class.rocksdb::Configurable" = type { ptr, %"class.std::vector.153" }
%"class.std::vector.153" = type { %"struct.std::_Vector_base.154" }
%"struct.std::_Vector_base.154" = type { %"struct.std::_Vector_base<rocksdb::Configurable::RegisteredOptions, std::allocator<rocksdb::Configurable::RegisteredOptions>>::_Vector_impl" }
%"struct.std::_Vector_base<rocksdb::Configurable::RegisteredOptions, std::allocator<rocksdb::Configurable::RegisteredOptions>>::_Vector_impl" = type { %"struct.std::_Vector_base<rocksdb::Configurable::RegisteredOptions, std::allocator<rocksdb::Configurable::RegisteredOptions>>::_Vector_impl_data" }
%"struct.std::_Vector_base<rocksdb::Configurable::RegisteredOptions, std::allocator<rocksdb::Configurable::RegisteredOptions>>::_Vector_impl_data" = type { ptr, ptr, ptr }
%"struct.std::atomic.178" = type { i8 }
%"class.rocksdb::BlobLogWriter" = type { %"class.std::unique_ptr.114", ptr, ptr, i64, i64, i8, i8, i32 }
%"class.rocksdb::FullTypedCacheInterface" = type <{ %"class.rocksdb::BasicTypedCacheInterface", [8 x i8] }>
%"class.rocksdb::BasicTypedCacheInterface" = type { %"class.rocksdb::BaseCacheInterface" }
%"class.rocksdb::BaseCacheInterface" = type { %"class.std::shared_ptr.61" }
%"class.rocksdb::OffsetableCacheKey" = type { %"class.rocksdb::CacheKey" }
%"class.rocksdb::CacheKey" = type { i64, i64 }
%"struct.rocksdb::BlobLogFooter" = type <{ i64, %"struct.std::pair", i32, [4 x i8] }>
%"struct.rocksdb::FileChecksumGenContext" = type { %"class.std::__cxx11::basic_string", %"class.std::__cxx11::basic_string" }
%"struct.rocksdb::EnvOptions" = type { i8, i8, i8, i8, i8, i8, i64, i8, i8, i64, i64, i64, ptr }
%"struct.rocksdb::FileOptions" = type <{ %"struct.rocksdb::EnvOptions", %"struct.rocksdb::IOOptions", i8, i8, [6 x i8] }>
%"struct.rocksdb::IOOptions" = type <{ %"class.std::chrono::duration", i8, [3 x i8], i32, i8, [7 x i8], %"class.std::unordered_map", i8, i8, i8, [5 x i8] }>
%"class.std::chrono::duration" = type { i64 }
%"class.std::unordered_map" = type { %"class.std::_Hashtable" }
%"class.std::_Hashtable" = type { ptr, i64, %"struct.std::__detail::_Hash_node_base", i64, %"struct.std::__detail::_Prime_rehash_policy", ptr }
%"struct.std::__detail::_Hash_node_base" = type { ptr }
%"struct.std::__detail::_Prime_rehash_policy" = type { float, i64 }
%"class.rocksdb::IOTracer" = type <{ %"struct.rocksdb::TraceOptions", %"class.rocksdb::InstrumentedMutex", %"struct.std::atomic.172", i8, [7 x i8] }>
%"struct.rocksdb::TraceOptions" = type <{ i64, i64, i64, i8, [7 x i8] }>
%"class.rocksdb::InstrumentedMutex" = type <{ %"class.rocksdb::port::Mutex", ptr, ptr, i32, [4 x i8] }>
%"class.rocksdb::port::Mutex" = type { %union.pthread_mutex_t }
%union.pthread_mutex_t = type { %struct.__pthread_mutex_s }
%struct.__pthread_mutex_s = type { i32, i32, i32, i32, i32, i16, i16, %struct.__pthread_internal_list }
%struct.__pthread_internal_list = type { ptr, ptr }
%"struct.std::atomic.172" = type { %"struct.std::__atomic_base.173" }
%"struct.std::__atomic_base.173" = type { ptr }
%"class.rocksdb::FSWritableFileWrapper" = type { %"class.rocksdb::FSWritableFile.base", ptr }
%"class.rocksdb::FSWritableFile.base" = type <{ ptr, i64, i64, i32, i32, i8 }>
%"class.std::__shared_ptr.175" = type { ptr, %"class.std::__shared_count" }
%"class.std::shared_ptr.174" = type { %"class.std::__shared_ptr.175" }
%"class.std::allocator.0" = type { i8 }
%"struct.std::_Vector_base<rocksdb::BlobFileAddition, std::allocator<rocksdb::BlobFileAddition>>::_Vector_impl_data" = type { ptr, ptr, ptr }
%"class.rocksdb::BlobFileAddition" = type { i64, i64, i64, %"class.std::__cxx11::basic_string", %"class.std::__cxx11::basic_string" }
%"class.rocksdb::Cache" = type { ptr, %"class.std::shared_ptr.263", %"class.std::function.266" }
%"class.std::shared_ptr.263" = type { %"class.std::__shared_ptr.264" }
%"class.std::__shared_ptr.264" = type { ptr, %"class.std::__shared_count" }
%"class.std::function.266" = type { %"class.std::_Function_base", ptr }
%"class.rocksdb::FSWritableFile" = type <{ ptr, i64, i64, i32, i32, i8, [7 x i8] }>
%"class.rocksdb::FSWritableFileOwnerWrapper" = type { %"class.rocksdb::FSWritableFileWrapper", %"class.std::unique_ptr.96" }
%"class.rocksdb::FSWritableFileTracingWrapper" = type { %"class.rocksdb::FSWritableFileOwnerWrapper", %"class.std::shared_ptr", ptr, %"class.std::__cxx11::basic_string" }
%struct.z_stream_s = type { ptr, i32, i64, ptr, i32, i64, ptr, ptr, ptr, ptr, ptr, i32, i64, i64 }
%struct._Guard = type { ptr }
%"class.rocksdb::VersionSet" = type { ptr, %"class.rocksdb::WalSet", %"class.std::unique_ptr.223", ptr, ptr, %"class.rocksdb::FileSystemPtr", ptr, %"class.std::__cxx11::basic_string", %"class.std::__cxx11::basic_string", ptr, %"struct.std::atomic", %"struct.std::atomic", i64, i64, i64, i64, %"struct.std::atomic", i64, %"struct.std::atomic", %"struct.std::atomic", i64, %"class.std::unique_ptr.234", i64, %"class.std::deque.242", i64, %"class.std::vector.248", %"class.std::vector.253", %"class.std::vector.109", %"struct.rocksdb::FileOptions", ptr, %"class.rocksdb::IOStatus", %"class.std::shared_ptr", %"class.std::__cxx11::basic_string", %"struct.rocksdb::OffpeakTimeOption", ptr }
%"class.rocksdb::WalSet" = type { %"class.std::map.215", i64 }
%"class.std::map.215" = type { %"class.std::_Rb_tree.216" }
%"class.std::_Rb_tree.216" = type { %"struct.std::_Rb_tree<unsigned long, std::pair<const unsigned long, rocksdb::WalMetadata>, std::_Select1st<std::pair<const unsigned long, rocksdb::WalMetadata>>, std::less<unsigned long>>::_Rb_tree_impl" }
%"struct.std::_Rb_tree<unsigned long, std::pair<const unsigned long, rocksdb::WalMetadata>, std::_Select1st<std::pair<const unsigned long, rocksdb::WalMetadata>>, std::less<unsigned long>>::_Rb_tree_impl" = type { %"struct.std::_Rb_tree_key_compare.220", %"struct.std::_Rb_tree_header" }
%"struct.std::_Rb_tree_key_compare.220" = type { %"struct.std::less.221" }
%"struct.std::less.221" = type { i8 }
%"struct.std::_Rb_tree_header" = type { %"struct.std::_Rb_tree_node_base", i64 }
%"struct.std::_Rb_tree_node_base" = type { i32, ptr, ptr, ptr }
%"class.std::unique_ptr.223" = type { %"struct.std::__uniq_ptr_data.224" }
%"struct.std::__uniq_ptr_data.224" = type { %"class.std::__uniq_ptr_impl.225" }
%"class.std::__uniq_ptr_impl.225" = type { %"class.std::tuple.226" }
%"class.std::tuple.226" = type { %"struct.std::_Tuple_impl.227" }
%"struct.std::_Tuple_impl.227" = type { %"struct.std::_Head_base.230" }
%"struct.std::_Head_base.230" = type { ptr }
%"class.rocksdb::FileSystemPtr" = type { %"class.std::shared_ptr.67", %"class.std::shared_ptr", %"class.std::shared_ptr.231" }
%"class.std::shared_ptr.231" = type { %"class.std::__shared_ptr.232" }
%"class.std::__shared_ptr.232" = type { ptr, %"class.std::__shared_count" }
%"class.std::unique_ptr.234" = type { %"struct.std::__uniq_ptr_data.235" }
%"struct.std::__uniq_ptr_data.235" = type { %"class.std::__uniq_ptr_impl.236" }
%"class.std::__uniq_ptr_impl.236" = type { %"class.std::tuple.237" }
%"class.std::tuple.237" = type { %"struct.std::_Tuple_impl.238" }
%"struct.std::_Tuple_impl.238" = type { %"struct.std::_Head_base.241" }
%"struct.std::_Head_base.241" = type { ptr }
%"class.std::deque.242" = type { %"class.std::_Deque_base.243" }
%"class.std::_Deque_base.243" = type { %"struct.std::_Deque_base<rocksdb::VersionSet::ManifestWriter *, std::allocator<rocksdb::VersionSet::ManifestWriter *>>::_Deque_impl" }
%"struct.std::_Deque_base<rocksdb::VersionSet::ManifestWriter *, std::allocator<rocksdb::VersionSet::ManifestWriter *>>::_Deque_impl" = type { %"struct.std::_Deque_base<rocksdb::VersionSet::ManifestWriter *, std::allocator<rocksdb::VersionSet::ManifestWriter *>>::_Deque_impl_data" }
%"struct.std::_Deque_base<rocksdb::VersionSet::ManifestWriter *, std::allocator<rocksdb::VersionSet::ManifestWriter *>>::_Deque_impl_data" = type { ptr, i64, %"struct.std::_Deque_iterator.247", %"struct.std::_Deque_iterator.247" }
%"struct.std::_Deque_iterator.247" = type { ptr, ptr, ptr, ptr }
%"class.std::vector.248" = type { %"struct.std::_Vector_base.249" }
%"struct.std::_Vector_base.249" = type { %"struct.std::_Vector_base<rocksdb::ObsoleteFileInfo, std::allocator<rocksdb::ObsoleteFileInfo>>::_Vector_impl" }
%"struct.std::_Vector_base<rocksdb::ObsoleteFileInfo, std::allocator<rocksdb::ObsoleteFileInfo>>::_Vector_impl" = type { %"struct.std::_Vector_base<rocksdb::ObsoleteFileInfo, std::allocator<rocksdb::ObsoleteFileInfo>>::_Vector_impl_data" }
%"struct.std::_Vector_base<rocksdb::ObsoleteFileInfo, std::allocator<rocksdb::ObsoleteFileInfo>>::_Vector_impl_data" = type { ptr, ptr, ptr }
%"class.std::vector.253" = type { %"struct.std::_Vector_base.254" }
%"struct.std::_Vector_base.254" = type { %"struct.std::_Vector_base<rocksdb::ObsoleteBlobFileInfo, std::allocator<rocksdb::ObsoleteBlobFileInfo>>::_Vector_impl" }
%"struct.std::_Vector_base<rocksdb::ObsoleteBlobFileInfo, std::allocator<rocksdb::ObsoleteBlobFileInfo>>::_Vector_impl" = type { %"struct.std::_Vector_base<rocksdb::ObsoleteBlobFileInfo, std::allocator<rocksdb::ObsoleteBlobFileInfo>>::_Vector_impl_data" }
%"struct.std::_Vector_base<rocksdb::ObsoleteBlobFileInfo, std::allocator<rocksdb::ObsoleteBlobFileInfo>>::_Vector_impl_data" = type { ptr, ptr, ptr }
%"class.std::vector.109" = type { %"struct.std::_Vector_base.110" }
%"struct.std::_Vector_base.110" = type { %"struct.std::_Vector_base<std::__cxx11::basic_string<char>, std::allocator<std::__cxx11::basic_string<char>>>::_Vector_impl" }
%"struct.std::_Vector_base<std::__cxx11::basic_string<char>, std::allocator<std::__cxx11::basic_string<char>>>::_Vector_impl" = type { %"struct.std::_Vector_base<std::__cxx11::basic_string<char>, std::allocator<std::__cxx11::basic_string<char>>>::_Vector_impl_data" }
%"struct.rocksdb::OffpeakTimeOption" = type { %"class.std::__cxx11::basic_string", i32, i32 }
%"class.rocksdb::BlobContents" = type { %"class.std::unique_ptr.270", %"class.rocksdb::Slice" }
%"class.std::unique_ptr.270" = type { %"struct.std::__uniq_ptr_data.271" }
%"struct.std::__uniq_ptr_data.271" = type { %"class.std::__uniq_ptr_impl.272" }
%"class.std::__uniq_ptr_impl.272" = type { %"class.std::tuple.273" }
%"class.std::tuple.273" = type { %"struct.std::_Tuple_impl.274" }
%"struct.std::_Tuple_impl.274" = type { %"struct.std::_Tuple_impl.275", %"struct.std::_Head_base.137" }
%"struct.std::_Tuple_impl.275" = type { %"struct.std::_Head_base.276" }
%"struct.std::_Head_base.276" = type { %"struct.rocksdb::CustomDeleter" }
%"struct.rocksdb::CustomDeleter" = type { ptr }
%"class.std::unique_ptr.277" = type { %"struct.std::__uniq_ptr_data.278" }
%"struct.std::__uniq_ptr_data.278" = type { %"class.std::__uniq_ptr_impl.279" }
%"class.std::__uniq_ptr_impl.279" = type { %"class.std::tuple.280" }
%"class.std::tuple.280" = type { %"struct.std::_Tuple_impl.281" }
%"struct.std::_Tuple_impl.281" = type { %"struct.std::_Head_base.284" }
%"struct.std::_Head_base.284" = type { ptr }

$_ZNSt6vectorIN7rocksdb5SliceESaIS1_EED2Ev = comdat any

$_ZNSt10unique_ptrIN7rocksdb13BlobLogWriterESt14default_deleteIS1_EED2Ev = comdat any

$_ZNSt10shared_ptrIN7rocksdb8IOTracerEED2Ev = comdat any

$_ZN7rocksdb9BlobIndex10EncodeBlobEPNSt7__cxx1112basic_stringIcSt11char_traitsIcESaIcEEEmmmNS_15CompressionTypeE = comdat any

$_ZN7rocksdb18WritableFileWriterC2EOSt10unique_ptrINS_14FSWritableFileESt14default_deleteIS2_EERKNSt7__cxx1112basic_stringIcSt11char_traitsIcESaIcEEERKNS_11FileOptionsEPNS_11SystemClockERKSt10shared_ptrINS_8IOTracerEEPNS_10StatisticsERKSt6vectorISK_INS_13EventListenerEESaIST_EEPNS_22FileChecksumGenFactoryEbb = comdat any

$_ZNSt10unique_ptrIN7rocksdb18WritableFileWriterESt14default_deleteIS1_EED2Ev = comdat any

$_ZN7rocksdb12CompressDataERKNS_5SliceERKNS_15CompressionInfoEjPNSt7__cxx1112basic_stringIcSt11char_traitsIcESaIcEEE = comdat any

$_ZN7rocksdb9StopWatchD2Ev = comdat any

$_ZN7rocksdb18CompressionContextD2Ev = comdat any

$_ZN7rocksdb26BlobFileCompletionCallback19OnBlobFileCompletedERKNSt7__cxx1112basic_stringIcSt11char_traitsIcESaIcEEES8_imNS_22BlobFileCreationReasonERKNS_6StatusES8_S8_mm = comdat any

$_ZNSt6vectorIN7rocksdb16BlobFileAdditionESaIS1_EE12emplace_backIJRKmRmS7_NSt7__cxx1112basic_stringIcSt11char_traitsIcESaIcEEESD_EEERS1_DpOT_ = comdat any

$_ZN7rocksdb23FullTypedCacheInterfaceINS_12BlobContentsENS_19BlobContentsCreatorELNS_14CacheEntryRoleE11ESt10shared_ptrINS_5CacheEEE11InsertSavedERKNS_5SliceESA_PS2_NS5_8PriorityENS_9CacheTierEPm = comdat any

$_ZN7rocksdb23FullTypedCacheInterfaceINS_12BlobContentsENS_19BlobContentsCreatorELNS_14CacheEntryRoleE11ESt10shared_ptrINS_5CacheEEED2Ev = comdat any

$__clang_call_terminate = comdat any

$_ZN7rocksdb17FSWritableFilePtrC2EOSt10unique_ptrINS_14FSWritableFileESt14default_deleteIS2_EERKSt10shared_ptrINS_8IOTracerEERKNSt7__cxx1112basic_stringIcSt11char_traitsIcESaIcEEE = comdat any

$_ZNSt6vectorISt10shared_ptrIN7rocksdb13EventListenerEESaIS3_EED2Ev = comdat any

$_ZN7rocksdb17FSWritableFilePtrD2Ev = comdat any

$_ZN7rocksdb26FSWritableFileOwnerWrapperD2Ev = comdat any

$_ZN7rocksdb26FSWritableFileOwnerWrapperD0Ev = comdat any

$_ZN7rocksdb21FSWritableFileWrapper6AppendERKNS_5SliceERKNS_9IOOptionsEPNS_14IODebugContextE = comdat any

$_ZN7rocksdb21FSWritableFileWrapper6AppendERKNS_5SliceERKNS_9IOOptionsERKNS_20DataVerificationInfoEPNS_14IODebugContextE = comdat any

$_ZN7rocksdb21FSWritableFileWrapper16PositionedAppendERKNS_5SliceEmRKNS_9IOOptionsEPNS_14IODebugContextE = comdat any

$_ZN7rocksdb21FSWritableFileWrapper16PositionedAppendERKNS_5SliceEmRKNS_9IOOptionsERKNS_20DataVerificationInfoEPNS_14IODebugContextE = comdat any

$_ZN7rocksdb21FSWritableFileWrapper8TruncateEmRKNS_9IOOptionsEPNS_14IODebugContextE = comdat any

$_ZN7rocksdb21FSWritableFileWrapper5CloseERKNS_9IOOptionsEPNS_14IODebugContextE = comdat any

$_ZN7rocksdb21FSWritableFileWrapper5FlushERKNS_9IOOptionsEPNS_14IODebugContextE = comdat any

$_ZN7rocksdb21FSWritableFileWrapper4SyncERKNS_9IOOptionsEPNS_14IODebugContextE = comdat any

$_ZN7rocksdb21FSWritableFileWrapper5FsyncERKNS_9IOOptionsEPNS_14IODebugContextE = comdat any

$_ZNK7rocksdb21FSWritableFileWrapper16IsSyncThreadSafeEv = comdat any

$_ZNK7rocksdb21FSWritableFileWrapper13use_direct_ioEv = comdat any

$_ZNK7rocksdb21FSWritableFileWrapper26GetRequiredBufferAlignmentEv = comdat any

$_ZN7rocksdb21FSWritableFileWrapper20SetWriteLifeTimeHintENS_3Env17WriteLifeTimeHintE = comdat any

$_ZN7rocksdb14FSWritableFile13SetIOPriorityENS_3Env10IOPriorityE = comdat any

$_ZN7rocksdb14FSWritableFile13GetIOPriorityEv = comdat any

$_ZN7rocksdb21FSWritableFileWrapper20GetWriteLifeTimeHintEv = comdat any

$_ZN7rocksdb21FSWritableFileWrapper11GetFileSizeERKNS_9IOOptionsEPNS_14IODebugContextE = comdat any

$_ZN7rocksdb21FSWritableFileWrapper25SetPreallocationBlockSizeEm = comdat any

$_ZN7rocksdb21FSWritableFileWrapper22GetPreallocationStatusEPmS1_ = comdat any

$_ZNK7rocksdb21FSWritableFileWrapper11GetUniqueIdEPcm = comdat any

$_ZN7rocksdb21FSWritableFileWrapper15InvalidateCacheEmm = comdat any

$_ZN7rocksdb21FSWritableFileWrapper9RangeSyncEmmRKNS_9IOOptionsEPNS_14IODebugContextE = comdat any

$_ZN7rocksdb21FSWritableFileWrapper12PrepareWriteEmmRKNS_9IOOptionsEPNS_14IODebugContextE = comdat any

$_ZN7rocksdb21FSWritableFileWrapper8AllocateEmmRKNS_9IOOptionsEPNS_14IODebugContextE = comdat any

$_ZNSt6vectorISt10shared_ptrIN7rocksdb13EventListenerEESaIS3_EE17_M_realloc_insertIJRKS3_EEEvN9__gnu_cxx17__normal_iteratorIPS3_S5_EEDpOT_ = comdat any

$_ZN7rocksdb18CompressionContext19CreateNativeContextENS_15CompressionTypeEib = comdat any

$_ZN7rocksdb15CompressionDictD2Ev = comdat any

$_ZN7rocksdb13Zlib_CompressERKNS_15CompressionInfoEjPKcmPNSt7__cxx1112basic_stringIcSt11char_traitsIcESaIcEEE = comdat any

$_ZN7rocksdb12LZ4_CompressERKNS_15CompressionInfoEjPKcmPNSt7__cxx1112basic_stringIcSt11char_traitsIcESaIcEEE = comdat any

$_ZN7rocksdb14LZ4HC_CompressERKNS_15CompressionInfoEjPKcmPNSt7__cxx1112basic_stringIcSt11char_traitsIcESaIcEEE = comdat any

$_ZN7rocksdb13ZSTD_CompressERKNS_15CompressionInfoEPKcmPNSt7__cxx1112basic_stringIcSt11char_traitsIcESaIcEEE = comdat any

$_ZNSt7__cxx1112basic_stringIcSt11char_traitsIcESaIcEE12_M_constructIPKcEEvT_S8_St20forward_iterator_tag = comdat any

$_ZZNSt7__cxx1112basic_stringIcSt11char_traitsIcESaIcEE12_M_constructIPKcEEvT_S8_St20forward_iterator_tagEN6_GuardD2Ev = comdat any

$_ZNSt6vectorINSt7__cxx1112basic_stringIcSt11char_traitsIcESaIcEEESaIS5_EE17_M_realloc_insertIJS5_EEEvN9__gnu_cxx17__normal_iteratorIPS5_S7_EEDpOT_ = comdat any

$_ZN7rocksdb18WritableFileWriterD2Ev = comdat any

$_ZNSt6vectorIN7rocksdb16BlobFileAdditionESaIS1_EE17_M_realloc_insertIJRKmRmS7_NSt7__cxx1112basic_stringIcSt11char_traitsIcESaIcEEESD_EEEvN9__gnu_cxx17__normal_iteratorIPS1_S3_EEDpOT_ = comdat any

$_ZN7rocksdb23FullTypedCacheInterfaceINS_12BlobContentsENS_19BlobContentsCreatorELNS_14CacheEntryRoleE11ESt10shared_ptrINS_5CacheEEE10InsertFullERKNS_5SliceEPS1_mPPNS_24BasicTypedCacheInterfaceIS1_LS3_11ES6_E11TypedHandleENS5_8PriorityENS_9CacheTierESA_NS_15CompressionTypeE = comdat any

$_ZN7rocksdb24BasicTypedCacheHelperFnsINS_12BlobContentsEE6DeleteEPvPNS_15MemoryAllocatorE = comdat any

$_ZN7rocksdb23FullTypedCacheHelperFnsINS_12BlobContentsENS_19BlobContentsCreatorEE4SizeEPv = comdat any

$_ZN7rocksdb23FullTypedCacheHelperFnsINS_12BlobContentsENS_19BlobContentsCreatorEE6SaveToEPvmmPc = comdat any

$_ZN7rocksdb23FullTypedCacheHelperFnsINS_12BlobContentsENS_19BlobContentsCreatorEE6CreateERKNS_5SliceENS_15CompressionTypeENS_9CacheTierEPNS_5Cache13CreateContextEPNS_15MemoryAllocatorEPPvPm = comdat any

$_ZN7rocksdb21BasicTypedCacheHelperINS_12BlobContentsELNS_14CacheEntryRoleE11EE14GetBasicHelperEv = comdat any

$_ZN7rocksdb19BlobContentsCreator6CreateEPSt10unique_ptrINS_12BlobContentsESt14default_deleteIS2_EEPmRKNS_5SliceENS_15CompressionTypeEPNS_15MemoryAllocatorE = comdat any

$_ZNSt10unique_ptrIN7rocksdb12BlobContentsESt14default_deleteIS1_EED2Ev = comdat any

$_ZTVN7rocksdb26FSWritableFileOwnerWrapperE = comdat any

$_ZZN7rocksdb15CompressionDict12GetEmptyDictEvE10empty_dict = comdat any

$_ZGVZN7rocksdb15CompressionDict12GetEmptyDictEvE10empty_dict = comdat any

$_ZZN7rocksdb20FullTypedCacheHelperINS_12BlobContentsENS_19BlobContentsCreatorELNS_14CacheEntryRoleE11EE13GetFullHelperEvE7kHelper = comdat any

$_ZGVZN7rocksdb20FullTypedCacheHelperINS_12BlobContentsENS_19BlobContentsCreatorELNS_14CacheEntryRoleE11EE13GetFullHelperEvE7kHelper = comdat any

$_ZZN7rocksdb21BasicTypedCacheHelperINS_12BlobContentsELNS_14CacheEntryRoleE11EE14GetBasicHelperEvE7kHelper = comdat any

$_ZGVZN7rocksdb21BasicTypedCacheHelperINS_12BlobContentsELNS_14CacheEntryRoleE11EE14GetBasicHelperEvE7kHelper = comdat any

@_ZN7rocksdbL18empty_operand_listE = internal global %"class.std::vector" zeroinitializer, align 8
@__dso_handle = external hidden global i8
@.str = private unnamed_addr constant [61 x i8] c"[%s:148] Failed to pre-populate the blob into blob cache: %s\00", align 1
@.str.1 = private unnamed_addr constant [122 x i8] c"generated/home/dtcxzyw/WorkSpace/Projects/compilers/llvm-opt-benchmark/bench/rocksdb/rocksdb/db/blob/blob_file_builder.cc\00", align 1
@.str.2 = private unnamed_addr constant [23 x i8] c"Error compressing blob\00", align 1
@.str.3 = private unnamed_addr constant [82 x i8] c"[%s:351] [%s] [JOB %d] Generated blob file #%lu: %lu total blobs, %lu total bytes\00", align 1
@.str.4 = private constant [1 x i8] zeroinitializer, align 1
@__libc_single_threaded = external local_unnamed_addr global i8, align 1
@.str.5 = private unnamed_addr constant [3 x i8] c"/\\\00", align 1
@_ZTVN7rocksdb28FSWritableFileTracingWrapperE = external unnamed_addr constant { [28 x ptr] }, align 8
@_ZTVN7rocksdb26FSWritableFileOwnerWrapperE = linkonce_odr unnamed_addr constant { [28 x ptr] } { [28 x ptr] [ptr null, ptr null, ptr @_ZN7rocksdb26FSWritableFileOwnerWrapperD2Ev, ptr @_ZN7rocksdb26FSWritableFileOwnerWrapperD0Ev, ptr @_ZN7rocksdb21FSWritableFileWrapper6AppendERKNS_5SliceERKNS_9IOOptionsEPNS_14IODebugContextE, ptr @_ZN7rocksdb21FSWritableFileWrapper6AppendERKNS_5SliceERKNS_9IOOptionsERKNS_20DataVerificationInfoEPNS_14IODebugContextE, ptr @_ZN7rocksdb21FSWritableFileWrapper16PositionedAppendERKNS_5SliceEmRKNS_9IOOptionsEPNS_14IODebugContextE, ptr @_ZN7rocksdb21FSWritableFileWrapper16PositionedAppendERKNS_5SliceEmRKNS_9IOOptionsERKNS_20DataVerificationInfoEPNS_14IODebugContextE, ptr @_ZN7rocksdb21FSWritableFileWrapper8TruncateEmRKNS_9IOOptionsEPNS_14IODebugContextE, ptr @_ZN7rocksdb21FSWritableFileWrapper5CloseERKNS_9IOOptionsEPNS_14IODebugContextE, ptr @_ZN7rocksdb21FSWritableFileWrapper5FlushERKNS_9IOOptionsEPNS_14IODebugContextE, ptr @_ZN7rocksdb21FSWritableFileWrapper4SyncERKNS_9IOOptionsEPNS_14IODebugContextE, ptr @_ZN7rocksdb21FSWritableFileWrapper5FsyncERKNS_9IOOptionsEPNS_14IODebugContextE, ptr @_ZNK7rocksdb21FSWritableFileWrapper16IsSyncThreadSafeEv, ptr @_ZNK7rocksdb21FSWritableFileWrapper13use_direct_ioEv, ptr @_ZNK7rocksdb21FSWritableFileWrapper26GetRequiredBufferAlignmentEv, ptr @_ZN7rocksdb21FSWritableFileWrapper20SetWriteLifeTimeHintENS_3Env17WriteLifeTimeHintE, ptr @_ZN7rocksdb14FSWritableFile13SetIOPriorityENS_3Env10IOPriorityE, ptr @_ZN7rocksdb14FSWritableFile13GetIOPriorityEv, ptr @_ZN7rocksdb21FSWritableFileWrapper20GetWriteLifeTimeHintEv, ptr @_ZN7rocksdb21FSWritableFileWrapper11GetFileSizeERKNS_9IOOptionsEPNS_14IODebugContextE, ptr @_ZN7rocksdb21FSWritableFileWrapper25SetPreallocationBlockSizeEm, ptr @_ZN7rocksdb21FSWritableFileWrapper22GetPreallocationStatusEPmS1_, ptr @_ZNK7rocksdb21FSWritableFileWrapper11GetUniqueIdEPcm, ptr @_ZN7rocksdb21FSWritableFileWrapper15InvalidateCacheEmm, ptr @_ZN7rocksdb21FSWritableFileWrapper9RangeSyncEmmRKNS_9IOOptionsEPNS_14IODebugContextE, ptr @_ZN7rocksdb21FSWritableFileWrapper12PrepareWriteEmmRKNS_9IOOptionsEPNS_14IODebugContextE, ptr @_ZN7rocksdb21FSWritableFileWrapper8AllocateEmmRKNS_9IOOptionsEPNS_14IODebugContextE] }, comdat, align 8
@.str.8 = private unnamed_addr constant [26 x i8] c"vector::_M_realloc_insert\00", align 1
@_ZZN7rocksdb15CompressionDict12GetEmptyDictEvE10empty_dict = linkonce_odr global %"struct.rocksdb::CompressionDict" zeroinitializer, comdat, align 8
@_ZGVZN7rocksdb15CompressionDict12GetEmptyDictEvE10empty_dict = linkonce_odr global i64 0, comdat, align 8
@.str.9 = private unnamed_addr constant [7 x i8] c"1.2.11\00", align 1
@.str.10 = private unnamed_addr constant [30 x i8] c"Max allowed space was reached\00", align 1
@_ZN7rocksdbL28kUnknownFileChecksumFuncNameE = internal constant [8 x i8] c"Unknown\00", align 1
@_ZZN7rocksdb20FullTypedCacheHelperINS_12BlobContentsENS_19BlobContentsCreatorELNS_14CacheEntryRoleE11EE13GetFullHelperEvE7kHelper = linkonce_odr global %"struct.rocksdb::Cache::CacheItemHelper" zeroinitializer, comdat, align 8
@_ZGVZN7rocksdb20FullTypedCacheHelperINS_12BlobContentsENS_19BlobContentsCreatorELNS_14CacheEntryRoleE11EE13GetFullHelperEvE7kHelper = linkonce_odr global i64 0, comdat, align 8
@_ZZN7rocksdb21BasicTypedCacheHelperINS_12BlobContentsELNS_14CacheEntryRoleE11EE14GetBasicHelperEvE7kHelper = linkonce_odr global %"struct.rocksdb::Cache::CacheItemHelper" zeroinitializer, comdat, align 8
@_ZGVZN7rocksdb21BasicTypedCacheHelperINS_12BlobContentsELNS_14CacheEntryRoleE11EE14GetBasicHelperEvE7kHelper = linkonce_odr global i64 0, comdat, align 8
@llvm.global_ctors = appending global [1 x { i32, ptr, ptr }] [{ i32, ptr, ptr } { i32 65535, ptr @_GLOBAL__sub_I_blob_file_builder.cc, ptr null }]

@_ZN7rocksdb15BlobFileBuilderC1EPNS_10VersionSetEPNS_10FileSystemEPKNS_16ImmutableOptionsEPKNS_16MutableCFOptionsEPKNS_11FileOptionsENSt7__cxx1112basic_stringIcSt11char_traitsIcESaIcEEESJ_ijRKSJ_NS_3Env10IOPriorityENSM_17WriteLifeTimeHintERKSt10shared_ptrINS_8IOTracerEEPNS_26BlobFileCompletionCallbackENS_22BlobFileCreationReasonEPSt6vectorISJ_SaISJ_EEPSX_INS_16BlobFileAdditionESaIS11_EE = unnamed_addr alias void (ptr, ptr, ptr, ptr, ptr, ptr, ptr, ptr, i32, i32, ptr, i32, i32, ptr, ptr, i32, ptr, ptr), ptr @_ZN7rocksdb15BlobFileBuilderC2EPNS_10VersionSetEPNS_10FileSystemEPKNS_16ImmutableOptionsEPKNS_16MutableCFOptionsEPKNS_11FileOptionsENSt7__cxx1112basic_stringIcSt11char_traitsIcESaIcEEESJ_ijRKSJ_NS_3Env10IOPriorityENSM_17WriteLifeTimeHintERKSt10shared_ptrINS_8IOTracerEEPNS_26BlobFileCompletionCallbackENS_22BlobFileCreationReasonEPSt6vectorISJ_SaISJ_EEPSX_INS_16BlobFileAdditionESaIS11_EE
@_ZN7rocksdb15BlobFileBuilderC1ESt8functionIFmvEEPNS_10FileSystemEPKNS_16ImmutableOptionsEPKNS_16MutableCFOptionsEPKNS_11FileOptionsENSt7__cxx1112basic_stringIcSt11char_traitsIcESaIcEEESK_ijRKSK_NS_3Env10IOPriorityENSN_17WriteLifeTimeHintERKSt10shared_ptrINS_8IOTracerEEPNS_26BlobFileCompletionCallbackENS_22BlobFileCreationReasonEPSt6vectorISK_SaISK_EEPSY_INS_16BlobFileAdditionESaIS12_EE = unnamed_addr alias void (ptr, ptr, ptr, ptr, ptr, ptr, ptr, ptr, i32, i32, ptr, i32, i32, ptr, ptr, i32, ptr, ptr), ptr @_ZN7rocksdb15BlobFileBuilderC2ESt8functionIFmvEEPNS_10FileSystemEPKNS_16ImmutableOptionsEPKNS_16MutableCFOptionsEPKNS_11FileOptionsENSt7__cxx1112basic_stringIcSt11char_traitsIcESaIcEEESK_ijRKSK_NS_3Env10IOPriorityENSN_17WriteLifeTimeHintERKSt10shared_ptrINS_8IOTracerEEPNS_26BlobFileCompletionCallbackENS_22BlobFileCreationReasonEPSt6vectorISK_SaISK_EEPSY_INS_16BlobFileAdditionESaIS12_EE
@_ZN7rocksdb15BlobFileBuilderD1Ev = unnamed_addr alias void (ptr), ptr @_ZN7rocksdb15BlobFileBuilderD2Ev

; Function Attrs: mustprogress nounwind uwtable
define linkonce_odr void @_ZNSt6vectorIN7rocksdb5SliceESaIS1_EED2Ev(ptr noundef nonnull align 8 dereferenceable(24) %this) unnamed_addr #0 comdat align 2 personality ptr @__gxx_personality_v0 {
invoke.cont:
  %0 = load ptr, ptr %this, align 8
  %tobool.not.i.i = icmp eq ptr %0, null
  br i1 %tobool.not.i.i, label %_ZNSt12_Vector_baseIN7rocksdb5SliceESaIS1_EED2Ev.exit, label %if.then.i.i

if.then.i.i:                                      ; preds = %invoke.cont
  tail call void @_ZdlPv(ptr noundef nonnull %0) #18
  br label %_ZNSt12_Vector_baseIN7rocksdb5SliceESaIS1_EED2Ev.exit

_ZNSt12_Vector_baseIN7rocksdb5SliceESaIS1_EED2Ev.exit: ; preds = %invoke.cont, %if.then.i.i
  ret void
}

; Function Attrs: nofree nounwind
declare i32 @__cxa_atexit(ptr, ptr, ptr) local_unnamed_addr #1

; Function Attrs: mustprogress uwtable
define void @_ZN7rocksdb15BlobFileBuilderC2EPNS_10VersionSetEPNS_10FileSystemEPKNS_16ImmutableOptionsEPKNS_16MutableCFOptionsEPKNS_11FileOptionsENSt7__cxx1112basic_stringIcSt11char_traitsIcESaIcEEESJ_ijRKSJ_NS_3Env10IOPriorityENSM_17WriteLifeTimeHintERKSt10shared_ptrINS_8IOTracerEEPNS_26BlobFileCompletionCallbackENS_22BlobFileCreationReasonEPSt6vectorISJ_SaISJ_EEPSX_INS_16BlobFileAdditionESaIS11_EE(ptr noundef nonnull align 8 dereferenceable(264) %this, ptr noundef %versions, ptr noundef %fs, ptr noundef %immutable_options, ptr nocapture noundef readonly %mutable_cf_options, ptr noundef %file_options, ptr noundef nonnull %db_id, ptr noundef %db_session_id, i32 noundef %job_id, i32 noundef %column_family_id, ptr noundef nonnull align 8 dereferenceable(32) %column_family_name, i32 noundef %io_priority, i32 noundef %write_hint, ptr nocapture noundef nonnull readonly align 8 dereferenceable(16) %io_tracer, ptr noundef %blob_callback, i32 noundef %creation_reason, ptr noundef %blob_file_paths, ptr noundef %blob_file_additions) unnamed_addr #2 align 2 personality ptr @__gxx_personality_v0 {
entry:
  %agg.tmp = alloca %"class.std::function", align 8
  %agg.tmp2 = alloca %"class.std::__cxx11::basic_string", align 8
  %agg.tmp3 = alloca %"class.std::__cxx11::basic_string", align 8
  %_M_manager.i.i = getelementptr inbounds %"class.std::_Function_base", ptr %agg.tmp, i64 0, i32 1
  %_M_invoker.i = getelementptr inbounds %"class.std::function", ptr %agg.tmp, i64 0, i32 1
  %0 = getelementptr inbounds i8, ptr %agg.tmp, i64 8
  store i64 0, ptr %0, align 8
  %1 = ptrtoint ptr %versions to i64
  store i64 %1, ptr %agg.tmp, align 8
  store ptr @"_ZNSt17_Function_handlerIFmvEZN7rocksdb15BlobFileBuilderC1EPNS1_10VersionSetEPNS1_10FileSystemEPKNS1_16ImmutableOptionsEPKNS1_16MutableCFOptionsEPKNS1_11FileOptionsENSt7__cxx1112basic_stringIcSt11char_traitsIcESaIcEEESL_ijRKSL_NS1_3Env10IOPriorityENSO_17WriteLifeTimeHintERKSt10shared_ptrINS1_8IOTracerEEPNS1_26BlobFileCompletionCallbackENS1_22BlobFileCreationReasonEPSt6vectorISL_SaISL_EEPSZ_INS1_16BlobFileAdditionESaIS13_EEE3$_0E9_M_invokeERKSt9_Any_data", ptr %_M_invoker.i, align 8
  store ptr @"_ZNSt17_Function_handlerIFmvEZN7rocksdb15BlobFileBuilderC1EPNS1_10VersionSetEPNS1_10FileSystemEPKNS1_16ImmutableOptionsEPKNS1_16MutableCFOptionsEPKNS1_11FileOptionsENSt7__cxx1112basic_stringIcSt11char_traitsIcESaIcEEESL_ijRKSL_NS1_3Env10IOPriorityENSO_17WriteLifeTimeHintERKSt10shared_ptrINS1_8IOTracerEEPNS1_26BlobFileCompletionCallbackENS1_22BlobFileCreationReasonEPSt6vectorISL_SaISL_EEPSZ_INS1_16BlobFileAdditionESaIS13_EEE3$_0E10_M_managerERSt9_Any_dataRKS19_St18_Manager_operation", ptr %_M_manager.i.i, align 8
  invoke void @_ZNSt7__cxx1112basic_stringIcSt11char_traitsIcESaIcEEC1ERKS4_(ptr noundef nonnull align 8 dereferenceable(32) %agg.tmp2, ptr noundef nonnull align 8 dereferenceable(32) %db_id)
          to label %invoke.cont unwind label %ehcleanup8.thread

invoke.cont:                                      ; preds = %entry
  invoke void @_ZNSt7__cxx1112basic_stringIcSt11char_traitsIcESaIcEEC1ERKS4_(ptr noundef nonnull align 8 dereferenceable(32) %agg.tmp3, ptr noundef nonnull align 8 dereferenceable(32) %db_session_id)
          to label %invoke.cont5 unwind label %lpad4

invoke.cont5:                                     ; preds = %invoke.cont
  invoke void @_ZN7rocksdb15BlobFileBuilderC2ESt8functionIFmvEEPNS_10FileSystemEPKNS_16ImmutableOptionsEPKNS_16MutableCFOptionsEPKNS_11FileOptionsENSt7__cxx1112basic_stringIcSt11char_traitsIcESaIcEEESK_ijRKSK_NS_3Env10IOPriorityENSN_17WriteLifeTimeHintERKSt10shared_ptrINS_8IOTracerEEPNS_26BlobFileCompletionCallbackENS_22BlobFileCreationReasonEPSt6vectorISK_SaISK_EEPSY_INS_16BlobFileAdditionESaIS12_EE(ptr noundef nonnull align 8 dereferenceable(264) %this, ptr noundef nonnull %agg.tmp, ptr noundef %fs, ptr noundef %immutable_options, ptr noundef %mutable_cf_options, ptr noundef %file_options, ptr noundef nonnull %agg.tmp2, ptr noundef nonnull %agg.tmp3, i32 noundef %job_id, i32 noundef %column_family_id, ptr noundef nonnull align 8 dereferenceable(32) %column_family_name, i32 noundef %io_priority, i32 noundef %write_hint, ptr noundef nonnull align 8 dereferenceable(16) %io_tracer, ptr noundef %blob_callback, i32 noundef %creation_reason, ptr noundef %blob_file_paths, ptr noundef %blob_file_additions)
          to label %invoke.cont7 unwind label %lpad6

invoke.cont7:                                     ; preds = %invoke.cont5
  call void @_ZNSt7__cxx1112basic_stringIcSt11char_traitsIcESaIcEED1Ev(ptr noundef nonnull align 8 dereferenceable(32) %agg.tmp3) #19
  call void @_ZNSt7__cxx1112basic_stringIcSt11char_traitsIcESaIcEED1Ev(ptr noundef nonnull align 8 dereferenceable(32) %agg.tmp2) #19
  %2 = load ptr, ptr %_M_manager.i.i, align 8
  %tobool.not.i.i = icmp eq ptr %2, null
  br i1 %tobool.not.i.i, label %_ZNSt8functionIFmvEED2Ev.exit, label %if.then.i.i

if.then.i.i:                                      ; preds = %invoke.cont7
  %call.i.i = invoke noundef zeroext i1 %2(ptr noundef nonnull align 8 dereferenceable(16) %agg.tmp, ptr noundef nonnull align 8 dereferenceable(16) %agg.tmp, i32 noundef 3)
          to label %_ZNSt8functionIFmvEED2Ev.exit unwind label %terminate.lpad.i.i

terminate.lpad.i.i:                               ; preds = %if.then.i.i
  %3 = landingpad { ptr, i32 }
          catch ptr null
  %4 = extractvalue { ptr, i32 } %3, 0
  call void @__clang_call_terminate(ptr %4) #20
  unreachable

_ZNSt8functionIFmvEED2Ev.exit:                    ; preds = %invoke.cont7, %if.then.i.i
  ret void

ehcleanup8.thread:                                ; preds = %entry
  %5 = landingpad { ptr, i32 }
          cleanup
  br label %if.then.i.i6

lpad4:                                            ; preds = %invoke.cont
  %6 = landingpad { ptr, i32 }
          cleanup
  br label %ehcleanup8

lpad6:                                            ; preds = %invoke.cont5
  %7 = landingpad { ptr, i32 }
          cleanup
  call void @_ZNSt7__cxx1112basic_stringIcSt11char_traitsIcESaIcEED1Ev(ptr noundef nonnull align 8 dereferenceable(32) %agg.tmp3) #19
  br label %ehcleanup8

ehcleanup8:                                       ; preds = %lpad4, %lpad6
  %.pn = phi { ptr, i32 } [ %7, %lpad6 ], [ %6, %lpad4 ]
  call void @_ZNSt7__cxx1112basic_stringIcSt11char_traitsIcESaIcEED1Ev(ptr noundef nonnull align 8 dereferenceable(32) %agg.tmp2) #19
  %.pre = load ptr, ptr %_M_manager.i.i, align 8
  %tobool.not.i.i5 = icmp eq ptr %.pre, null
  br i1 %tobool.not.i.i5, label %_ZNSt8functionIFmvEED2Ev.exit9, label %if.then.i.i6

if.then.i.i6:                                     ; preds = %ehcleanup8.thread, %ehcleanup8
  %.pn.pn12 = phi { ptr, i32 } [ %5, %ehcleanup8.thread ], [ %.pn, %ehcleanup8 ]
  %8 = phi ptr [ @"_ZNSt17_Function_handlerIFmvEZN7rocksdb15BlobFileBuilderC1EPNS1_10VersionSetEPNS1_10FileSystemEPKNS1_16ImmutableOptionsEPKNS1_16MutableCFOptionsEPKNS1_11FileOptionsENSt7__cxx1112basic_stringIcSt11char_traitsIcESaIcEEESL_ijRKSL_NS1_3Env10IOPriorityENSO_17WriteLifeTimeHintERKSt10shared_ptrINS1_8IOTracerEEPNS1_26BlobFileCompletionCallbackENS1_22BlobFileCreationReasonEPSt6vectorISL_SaISL_EEPSZ_INS1_16BlobFileAdditionESaIS13_EEE3$_0E10_M_managerERSt9_Any_dataRKS19_St18_Manager_operation", %ehcleanup8.thread ], [ %.pre, %ehcleanup8 ]
  %call.i.i7 = invoke noundef zeroext i1 %8(ptr noundef nonnull align 8 dereferenceable(16) %agg.tmp, ptr noundef nonnull align 8 dereferenceable(16) %agg.tmp, i32 noundef 3)
          to label %_ZNSt8functionIFmvEED2Ev.exit9 unwind label %terminate.lpad.i.i8

terminate.lpad.i.i8:                              ; preds = %if.then.i.i6
  %9 = landingpad { ptr, i32 }
          catch ptr null
  %10 = extractvalue { ptr, i32 } %9, 0
  call void @__clang_call_terminate(ptr %10) #20
  unreachable

_ZNSt8functionIFmvEED2Ev.exit9:                   ; preds = %ehcleanup8, %if.then.i.i6
  %.pn.pn13 = phi { ptr, i32 } [ %.pn, %ehcleanup8 ], [ %.pn.pn12, %if.then.i.i6 ]
  resume { ptr, i32 } %.pn.pn13
}

declare void @_ZNSt7__cxx1112basic_stringIcSt11char_traitsIcESaIcEEC1ERKS4_(ptr noundef nonnull align 8 dereferenceable(32), ptr noundef nonnull align 8 dereferenceable(32)) unnamed_addr #3

declare i32 @__gxx_personality_v0(...)

; Function Attrs: mustprogress uwtable
define void @_ZN7rocksdb15BlobFileBuilderC2ESt8functionIFmvEEPNS_10FileSystemEPKNS_16ImmutableOptionsEPKNS_16MutableCFOptionsEPKNS_11FileOptionsENSt7__cxx1112basic_stringIcSt11char_traitsIcESaIcEEESK_ijRKSK_NS_3Env10IOPriorityENSN_17WriteLifeTimeHintERKSt10shared_ptrINS_8IOTracerEEPNS_26BlobFileCompletionCallbackENS_22BlobFileCreationReasonEPSt6vectorISK_SaISK_EEPSY_INS_16BlobFileAdditionESaIS12_EE(ptr noundef nonnull align 8 dereferenceable(264) %this, ptr nocapture noundef %file_number_generator, ptr noundef %fs, ptr noundef %immutable_options, ptr nocapture noundef readonly %mutable_cf_options, ptr noundef %file_options, ptr noundef %db_id, ptr noundef %db_session_id, i32 noundef %job_id, i32 noundef %column_family_id, ptr noundef nonnull align 8 dereferenceable(32) %column_family_name, i32 noundef %io_priority, i32 noundef %write_hint, ptr nocapture noundef nonnull readonly align 8 dereferenceable(16) %io_tracer, ptr noundef %blob_callback, i32 noundef %creation_reason, ptr noundef %blob_file_paths, ptr noundef %blob_file_additions) unnamed_addr #2 align 2 personality ptr @__gxx_personality_v0 {
entry:
  %_M_invoker.i = getelementptr inbounds %"class.std::function", ptr %this, i64 0, i32 1
  %_M_invoker2.i = getelementptr inbounds %"class.std::function", ptr %file_number_generator, i64 0, i32 1
  tail call void @llvm.memset.p0.i64(ptr noundef nonnull align 8 dereferenceable(24) %this, i8 0, i64 24, i1 false)
  %0 = load ptr, ptr %_M_invoker2.i, align 8
  store ptr %0, ptr %_M_invoker.i, align 8
  %_M_manager.i.i.i = getelementptr inbounds %"class.std::_Function_base", ptr %file_number_generator, i64 0, i32 1
  %1 = load ptr, ptr %_M_manager.i.i.i, align 8
  %tobool.not.i.i.not.i = icmp eq ptr %1, null
  br i1 %tobool.not.i.i.not.i, label %_ZNSt8functionIFmvEEC2EOS1_.exit, label %if.then.i

if.then.i:                                        ; preds = %entry
  %_M_manager.i.i = getelementptr inbounds %"class.std::_Function_base", ptr %this, i64 0, i32 1
  tail call void @llvm.memcpy.p0.p0.i64(ptr noundef nonnull align 8 dereferenceable(16) %this, ptr noundef nonnull align 8 dereferenceable(16) %file_number_generator, i64 16, i1 false)
  %2 = load ptr, ptr %_M_manager.i.i.i, align 8
  store ptr %2, ptr %_M_manager.i.i, align 8
  tail call void @llvm.memset.p0.i64(ptr noundef nonnull align 8 dereferenceable(16) %_M_manager.i.i.i, i8 0, i64 16, i1 false)
  br label %_ZNSt8functionIFmvEEC2EOS1_.exit

_ZNSt8functionIFmvEEC2EOS1_.exit:                 ; preds = %entry, %if.then.i
  %fs_ = getelementptr inbounds %"class.rocksdb::BlobFileBuilder", ptr %this, i64 0, i32 1
  store ptr %fs, ptr %fs_, align 8
  %immutable_options_ = getelementptr inbounds %"class.rocksdb::BlobFileBuilder", ptr %this, i64 0, i32 2
  store ptr %immutable_options, ptr %immutable_options_, align 8
  %min_blob_size_ = getelementptr inbounds %"class.rocksdb::BlobFileBuilder", ptr %this, i64 0, i32 3
  %min_blob_size = getelementptr inbounds %"struct.rocksdb::MutableCFOptions", ptr %mutable_cf_options, i64 0, i32 28
  %3 = load i64, ptr %min_blob_size, align 8
  store i64 %3, ptr %min_blob_size_, align 8
  %blob_file_size_ = getelementptr inbounds %"class.rocksdb::BlobFileBuilder", ptr %this, i64 0, i32 4
  %blob_file_size = getelementptr inbounds %"struct.rocksdb::MutableCFOptions", ptr %mutable_cf_options, i64 0, i32 29
  %4 = load i64, ptr %blob_file_size, align 8
  store i64 %4, ptr %blob_file_size_, align 8
  %blob_compression_type_ = getelementptr inbounds %"class.rocksdb::BlobFileBuilder", ptr %this, i64 0, i32 5
  %blob_compression_type = getelementptr inbounds %"struct.rocksdb::MutableCFOptions", ptr %mutable_cf_options, i64 0, i32 30
  %5 = load i8, ptr %blob_compression_type, align 8
  store i8 %5, ptr %blob_compression_type_, align 8
  %prepopulate_blob_cache_ = getelementptr inbounds %"class.rocksdb::BlobFileBuilder", ptr %this, i64 0, i32 6
  %prepopulate_blob_cache = getelementptr inbounds %"struct.rocksdb::MutableCFOptions", ptr %mutable_cf_options, i64 0, i32 36
  %6 = load i8, ptr %prepopulate_blob_cache, align 4
  store i8 %6, ptr %prepopulate_blob_cache_, align 1
  %file_options_ = getelementptr inbounds %"class.rocksdb::BlobFileBuilder", ptr %this, i64 0, i32 7
  store ptr %file_options, ptr %file_options_, align 8
  %db_id_ = getelementptr inbounds %"class.rocksdb::BlobFileBuilder", ptr %this, i64 0, i32 8
  tail call void @_ZNSt7__cxx1112basic_stringIcSt11char_traitsIcESaIcEEC1EOS4_(ptr noundef nonnull align 8 dereferenceable(32) %db_id_, ptr noundef nonnull align 8 dereferenceable(32) %db_id) #19
  %db_session_id_ = getelementptr inbounds %"class.rocksdb::BlobFileBuilder", ptr %this, i64 0, i32 9
  tail call void @_ZNSt7__cxx1112basic_stringIcSt11char_traitsIcESaIcEEC1EOS4_(ptr noundef nonnull align 8 dereferenceable(32) %db_session_id_, ptr noundef nonnull align 8 dereferenceable(32) %db_session_id) #19
  %job_id_ = getelementptr inbounds %"class.rocksdb::BlobFileBuilder", ptr %this, i64 0, i32 10
  store i32 %job_id, ptr %job_id_, align 8
  %column_family_id_ = getelementptr inbounds %"class.rocksdb::BlobFileBuilder", ptr %this, i64 0, i32 11
  store i32 %column_family_id, ptr %column_family_id_, align 4
  %column_family_name_ = getelementptr inbounds %"class.rocksdb::BlobFileBuilder", ptr %this, i64 0, i32 12
  invoke void @_ZNSt7__cxx1112basic_stringIcSt11char_traitsIcESaIcEEC1ERKS4_(ptr noundef nonnull align 8 dereferenceable(32) %column_family_name_, ptr noundef nonnull align 8 dereferenceable(32) %column_family_name)
          to label %invoke.cont unwind label %lpad

invoke.cont:                                      ; preds = %_ZNSt8functionIFmvEEC2EOS1_.exit
  %io_priority_ = getelementptr inbounds %"class.rocksdb::BlobFileBuilder", ptr %this, i64 0, i32 13
  store i32 %io_priority, ptr %io_priority_, align 8
  %write_hint_ = getelementptr inbounds %"class.rocksdb::BlobFileBuilder", ptr %this, i64 0, i32 14
  store i32 %write_hint, ptr %write_hint_, align 4
  %io_tracer_ = getelementptr inbounds %"class.rocksdb::BlobFileBuilder", ptr %this, i64 0, i32 15
  %7 = load ptr, ptr %io_tracer, align 8
  store ptr %7, ptr %io_tracer_, align 8
  %_M_refcount.i.i = getelementptr inbounds %"class.rocksdb::BlobFileBuilder", ptr %this, i64 0, i32 15, i32 0, i32 1
  %_M_refcount3.i.i = getelementptr inbounds %"class.std::__shared_ptr", ptr %io_tracer, i64 0, i32 1
  %8 = load ptr, ptr %_M_refcount3.i.i, align 8
  store ptr %8, ptr %_M_refcount.i.i, align 8
  %cmp.not.i.i.i = icmp eq ptr %8, null
  br i1 %cmp.not.i.i.i, label %_ZNSt10shared_ptrIN7rocksdb8IOTracerEEC2ERKS2_.exit, label %if.then.i.i.i

if.then.i.i.i:                                    ; preds = %invoke.cont
  %_M_use_count.i.i.i.i = getelementptr inbounds %"class.std::_Sp_counted_base", ptr %8, i64 0, i32 1
  %9 = load i8, ptr @__libc_single_threaded, align 1
  %tobool.i.not.i.i.i.i = icmp eq i8 %9, 0
  br i1 %tobool.i.not.i.i.i.i, label %if.else.i.i.i.i.i, label %if.then.i.i.i.i.i

if.then.i.i.i.i.i:                                ; preds = %if.then.i.i.i
  %10 = load i32, ptr %_M_use_count.i.i.i.i, align 4
  %add.i.i.i.i.i = add nsw i32 %10, 1
  store i32 %add.i.i.i.i.i, ptr %_M_use_count.i.i.i.i, align 4
  br label %_ZNSt10shared_ptrIN7rocksdb8IOTracerEEC2ERKS2_.exit

if.else.i.i.i.i.i:                                ; preds = %if.then.i.i.i
  %11 = atomicrmw volatile add ptr %_M_use_count.i.i.i.i, i32 1 acq_rel, align 4
  br label %_ZNSt10shared_ptrIN7rocksdb8IOTracerEEC2ERKS2_.exit

_ZNSt10shared_ptrIN7rocksdb8IOTracerEEC2ERKS2_.exit: ; preds = %invoke.cont, %if.then.i.i.i.i.i, %if.else.i.i.i.i.i
  %blob_callback_ = getelementptr inbounds %"class.rocksdb::BlobFileBuilder", ptr %this, i64 0, i32 16
  store ptr %blob_callback, ptr %blob_callback_, align 8
  %creation_reason_ = getelementptr inbounds %"class.rocksdb::BlobFileBuilder", ptr %this, i64 0, i32 17
  store i32 %creation_reason, ptr %creation_reason_, align 8
  %blob_file_paths_ = getelementptr inbounds %"class.rocksdb::BlobFileBuilder", ptr %this, i64 0, i32 18
  store ptr %blob_file_paths, ptr %blob_file_paths_, align 8
  %blob_file_additions_ = getelementptr inbounds %"class.rocksdb::BlobFileBuilder", ptr %this, i64 0, i32 19
  store ptr %blob_file_additions, ptr %blob_file_additions_, align 8
  %writer_ = getelementptr inbounds %"class.rocksdb::BlobFileBuilder", ptr %this, i64 0, i32 20
  tail call void @llvm.memset.p0.i64(ptr noundef nonnull align 8 dereferenceable(24) %writer_, i8 0, i64 24, i1 false)
  ret void

lpad:                                             ; preds = %_ZNSt8functionIFmvEEC2EOS1_.exit
  %12 = landingpad { ptr, i32 }
          cleanup
  tail call void @_ZNSt7__cxx1112basic_stringIcSt11char_traitsIcESaIcEED1Ev(ptr noundef nonnull align 8 dereferenceable(32) %db_session_id_) #19
  tail call void @_ZNSt7__cxx1112basic_stringIcSt11char_traitsIcESaIcEED1Ev(ptr noundef nonnull align 8 dereferenceable(32) %db_id_) #19
  %_M_manager.i.i4 = getelementptr inbounds %"class.std::_Function_base", ptr %this, i64 0, i32 1
  %13 = load ptr, ptr %_M_manager.i.i4, align 8
  %tobool.not.i.i = icmp eq ptr %13, null
  br i1 %tobool.not.i.i, label %_ZNSt8functionIFmvEED2Ev.exit, label %if.then.i.i

if.then.i.i:                                      ; preds = %lpad
  %call.i.i = invoke noundef zeroext i1 %13(ptr noundef nonnull align 8 dereferenceable(16) %this, ptr noundef nonnull align 8 dereferenceable(16) %this, i32 noundef 3)
          to label %_ZNSt8functionIFmvEED2Ev.exit unwind label %terminate.lpad.i.i

terminate.lpad.i.i:                               ; preds = %if.then.i.i
  %14 = landingpad { ptr, i32 }
          catch ptr null
  %15 = extractvalue { ptr, i32 } %14, 0
  tail call void @__clang_call_terminate(ptr %15) #20
  unreachable

_ZNSt8functionIFmvEED2Ev.exit:                    ; preds = %lpad, %if.then.i.i
  resume { ptr, i32 } %12
}

; Function Attrs: nounwind
declare void @_ZNSt7__cxx1112basic_stringIcSt11char_traitsIcESaIcEED1Ev(ptr noundef nonnull align 8 dereferenceable(32)) unnamed_addr #4

; Function Attrs: nounwind
declare void @_ZNSt7__cxx1112basic_stringIcSt11char_traitsIcESaIcEEC1EOS4_(ptr noundef nonnull align 8 dereferenceable(32), ptr noundef nonnull align 8 dereferenceable(32)) unnamed_addr #4

; Function Attrs: mustprogress nounwind uwtable
define void @_ZN7rocksdb15BlobFileBuilderD2Ev(ptr noundef nonnull align 8 dereferenceable(264) %this) unnamed_addr #0 align 2 personality ptr @__gxx_personality_v0 {
entry:
  %writer_ = getelementptr inbounds %"class.rocksdb::BlobFileBuilder", ptr %this, i64 0, i32 20
  %0 = load ptr, ptr %writer_, align 8
  %cmp.not.i = icmp eq ptr %0, null
  br i1 %cmp.not.i, label %_ZNSt10unique_ptrIN7rocksdb13BlobLogWriterESt14default_deleteIS1_EED2Ev.exit, label %_ZNKSt14default_deleteIN7rocksdb13BlobLogWriterEEclEPS1_.exit.i

_ZNKSt14default_deleteIN7rocksdb13BlobLogWriterEEclEPS1_.exit.i: ; preds = %entry
  tail call void @_ZN7rocksdb13BlobLogWriterD1Ev(ptr noundef nonnull align 8 dereferenceable(48) %0) #19
  tail call void @_ZdlPv(ptr noundef nonnull %0) #18
  br label %_ZNSt10unique_ptrIN7rocksdb13BlobLogWriterESt14default_deleteIS1_EED2Ev.exit

_ZNSt10unique_ptrIN7rocksdb13BlobLogWriterESt14default_deleteIS1_EED2Ev.exit: ; preds = %entry, %_ZNKSt14default_deleteIN7rocksdb13BlobLogWriterEEclEPS1_.exit.i
  store ptr null, ptr %writer_, align 8
  %_M_refcount.i.i = getelementptr inbounds %"class.rocksdb::BlobFileBuilder", ptr %this, i64 0, i32 15, i32 0, i32 1
  %1 = load ptr, ptr %_M_refcount.i.i, align 8
  %cmp.not.i.i.i = icmp eq ptr %1, null
  br i1 %cmp.not.i.i.i, label %_ZNSt10shared_ptrIN7rocksdb8IOTracerEED2Ev.exit, label %if.then.i.i.i

if.then.i.i.i:                                    ; preds = %_ZNSt10unique_ptrIN7rocksdb13BlobLogWriterESt14default_deleteIS1_EED2Ev.exit
  %_M_use_count.i.i.i.i = getelementptr inbounds %"class.std::_Sp_counted_base", ptr %1, i64 0, i32 1
  %2 = load atomic i64, ptr %_M_use_count.i.i.i.i acquire, align 8
  %cmp.i.i.i.i = icmp eq i64 %2, 4294967297
  %3 = trunc i64 %2 to i32
  br i1 %cmp.i.i.i.i, label %if.then.i.i.i.i, label %if.end.i.i.i.i

if.then.i.i.i.i:                                  ; preds = %if.then.i.i.i
  store i32 0, ptr %_M_use_count.i.i.i.i, align 8
  %_M_weak_count.i.i.i.i = getelementptr inbounds %"class.std::_Sp_counted_base", ptr %1, i64 0, i32 2
  store i32 0, ptr %_M_weak_count.i.i.i.i, align 4
  %vtable.i.i.i.i = load ptr, ptr %1, align 8
  %vfn.i.i.i.i = getelementptr inbounds ptr, ptr %vtable.i.i.i.i, i64 2
  %4 = load ptr, ptr %vfn.i.i.i.i, align 8
  tail call void %4(ptr noundef nonnull align 8 dereferenceable(16) %1) #19
  br label %if.end8.sink.split.i.i.i.i

if.end.i.i.i.i:                                   ; preds = %if.then.i.i.i
  %5 = load i8, ptr @__libc_single_threaded, align 1
  %tobool.i.i.not.i.i.i.i = icmp eq i8 %5, 0
  br i1 %tobool.i.i.not.i.i.i.i, label %if.else.i.i.i.i.i, label %if.then.i.i.i.i.i

if.then.i.i.i.i.i:                                ; preds = %if.end.i.i.i.i
  %add.i.i.i.i.i = add nsw i32 %3, -1
  store i32 %add.i.i.i.i.i, ptr %_M_use_count.i.i.i.i, align 4
  br label %_ZN9__gnu_cxx27__exchange_and_add_dispatchEPii.exit.i.i.i.i

if.else.i.i.i.i.i:                                ; preds = %if.end.i.i.i.i
  %6 = atomicrmw volatile add ptr %_M_use_count.i.i.i.i, i32 -1 acq_rel, align 4
  br label %_ZN9__gnu_cxx27__exchange_and_add_dispatchEPii.exit.i.i.i.i

_ZN9__gnu_cxx27__exchange_and_add_dispatchEPii.exit.i.i.i.i: ; preds = %if.else.i.i.i.i.i, %if.then.i.i.i.i.i
  %retval.i.0.i.i.i.i = phi i32 [ %3, %if.then.i.i.i.i.i ], [ %6, %if.else.i.i.i.i.i ]
  %cmp6.i.i.i.i = icmp eq i32 %retval.i.0.i.i.i.i, 1
  br i1 %cmp6.i.i.i.i, label %if.then7.i.i.i.i, label %_ZNSt10shared_ptrIN7rocksdb8IOTracerEED2Ev.exit

if.then7.i.i.i.i:                                 ; preds = %_ZN9__gnu_cxx27__exchange_and_add_dispatchEPii.exit.i.i.i.i
  %vtable.i.i.i.i.i.i = load ptr, ptr %1, align 8
  %vfn.i.i.i.i.i.i = getelementptr inbounds ptr, ptr %vtable.i.i.i.i.i.i, i64 2
  %7 = load ptr, ptr %vfn.i.i.i.i.i.i, align 8
  tail call void %7(ptr noundef nonnull align 8 dereferenceable(16) %1) #19
  %_M_weak_count.i.i.i.i.i.i = getelementptr inbounds %"class.std::_Sp_counted_base", ptr %1, i64 0, i32 2
  %8 = load i8, ptr @__libc_single_threaded, align 1
  %tobool.i.i.not.i.i.i.i.i.i = icmp eq i8 %8, 0
  br i1 %tobool.i.i.not.i.i.i.i.i.i, label %if.else.i.i.i.i.i.i.i, label %if.then.i.i.i.i.i.i.i

if.then.i.i.i.i.i.i.i:                            ; preds = %if.then7.i.i.i.i
  %9 = load i32, ptr %_M_weak_count.i.i.i.i.i.i, align 4
  %add.i.i.i.i.i.i.i = add nsw i32 %9, -1
  store i32 %add.i.i.i.i.i.i.i, ptr %_M_weak_count.i.i.i.i.i.i, align 4
  br label %_ZN9__gnu_cxx27__exchange_and_add_dispatchEPii.exit.i.i.i.i.i.i

if.else.i.i.i.i.i.i.i:                            ; preds = %if.then7.i.i.i.i
  %10 = atomicrmw volatile add ptr %_M_weak_count.i.i.i.i.i.i, i32 -1 acq_rel, align 4
  br label %_ZN9__gnu_cxx27__exchange_and_add_dispatchEPii.exit.i.i.i.i.i.i

_ZN9__gnu_cxx27__exchange_and_add_dispatchEPii.exit.i.i.i.i.i.i: ; preds = %if.else.i.i.i.i.i.i.i, %if.then.i.i.i.i.i.i.i
  %retval.i.0.i.i.i.i.i.i = phi i32 [ %9, %if.then.i.i.i.i.i.i.i ], [ %10, %if.else.i.i.i.i.i.i.i ]
  %cmp.i.i.i.i.i.i = icmp eq i32 %retval.i.0.i.i.i.i.i.i, 1
  br i1 %cmp.i.i.i.i.i.i, label %if.end8.sink.split.i.i.i.i, label %_ZNSt10shared_ptrIN7rocksdb8IOTracerEED2Ev.exit

if.end8.sink.split.i.i.i.i:                       ; preds = %_ZN9__gnu_cxx27__exchange_and_add_dispatchEPii.exit.i.i.i.i.i.i, %if.then.i.i.i.i
  %vtable2.i.i.i.i.i.i = load ptr, ptr %1, align 8
  %vfn3.i.i.i.i.i.i = getelementptr inbounds ptr, ptr %vtable2.i.i.i.i.i.i, i64 3
  %11 = load ptr, ptr %vfn3.i.i.i.i.i.i, align 8
  tail call void %11(ptr noundef nonnull align 8 dereferenceable(16) %1) #19
  br label %_ZNSt10shared_ptrIN7rocksdb8IOTracerEED2Ev.exit

_ZNSt10shared_ptrIN7rocksdb8IOTracerEED2Ev.exit:  ; preds = %_ZNSt10unique_ptrIN7rocksdb13BlobLogWriterESt14default_deleteIS1_EED2Ev.exit, %_ZN9__gnu_cxx27__exchange_and_add_dispatchEPii.exit.i.i.i.i, %_ZN9__gnu_cxx27__exchange_and_add_dispatchEPii.exit.i.i.i.i.i.i, %if.end8.sink.split.i.i.i.i
  %column_family_name_ = getelementptr inbounds %"class.rocksdb::BlobFileBuilder", ptr %this, i64 0, i32 12
  tail call void @_ZNSt7__cxx1112basic_stringIcSt11char_traitsIcESaIcEED1Ev(ptr noundef nonnull align 8 dereferenceable(32) %column_family_name_) #19
  %db_session_id_ = getelementptr inbounds %"class.rocksdb::BlobFileBuilder", ptr %this, i64 0, i32 9
  tail call void @_ZNSt7__cxx1112basic_stringIcSt11char_traitsIcESaIcEED1Ev(ptr noundef nonnull align 8 dereferenceable(32) %db_session_id_) #19
  %db_id_ = getelementptr inbounds %"class.rocksdb::BlobFileBuilder", ptr %this, i64 0, i32 8
  tail call void @_ZNSt7__cxx1112basic_stringIcSt11char_traitsIcESaIcEED1Ev(ptr noundef nonnull align 8 dereferenceable(32) %db_id_) #19
  %_M_manager.i.i = getelementptr inbounds %"class.std::_Function_base", ptr %this, i64 0, i32 1
  %12 = load ptr, ptr %_M_manager.i.i, align 8
  %tobool.not.i.i = icmp eq ptr %12, null
  br i1 %tobool.not.i.i, label %_ZNSt8functionIFmvEED2Ev.exit, label %if.then.i.i

if.then.i.i:                                      ; preds = %_ZNSt10shared_ptrIN7rocksdb8IOTracerEED2Ev.exit
  %call.i.i = invoke noundef zeroext i1 %12(ptr noundef nonnull align 8 dereferenceable(16) %this, ptr noundef nonnull align 8 dereferenceable(16) %this, i32 noundef 3)
          to label %_ZNSt8functionIFmvEED2Ev.exit unwind label %terminate.lpad.i.i

terminate.lpad.i.i:                               ; preds = %if.then.i.i
  %13 = landingpad { ptr, i32 }
          catch ptr null
  %14 = extractvalue { ptr, i32 } %13, 0
  tail call void @__clang_call_terminate(ptr %14) #20
  unreachable

_ZNSt8functionIFmvEED2Ev.exit:                    ; preds = %_ZNSt10shared_ptrIN7rocksdb8IOTracerEED2Ev.exit, %if.then.i.i
  ret void
}

; Function Attrs: mustprogress nounwind uwtable
define linkonce_odr void @_ZNSt10unique_ptrIN7rocksdb13BlobLogWriterESt14default_deleteIS1_EED2Ev(ptr noundef nonnull align 8 dereferenceable(8) %this) unnamed_addr #0 comdat align 2 {
entry:
  %0 = load ptr, ptr %this, align 8
  %cmp.not = icmp eq ptr %0, null
  br i1 %cmp.not, label %if.end, label %_ZNKSt14default_deleteIN7rocksdb13BlobLogWriterEEclEPS1_.exit

_ZNKSt14default_deleteIN7rocksdb13BlobLogWriterEEclEPS1_.exit: ; preds = %entry
  tail call void @_ZN7rocksdb13BlobLogWriterD1Ev(ptr noundef nonnull align 8 dereferenceable(48) %0) #19
  tail call void @_ZdlPv(ptr noundef nonnull %0) #18
  br label %if.end

if.end:                                           ; preds = %_ZNKSt14default_deleteIN7rocksdb13BlobLogWriterEEclEPS1_.exit, %entry
  store ptr null, ptr %this, align 8
  ret void
}

; Function Attrs: mustprogress nounwind uwtable
define linkonce_odr void @_ZNSt10shared_ptrIN7rocksdb8IOTracerEED2Ev(ptr noundef nonnull align 8 dereferenceable(16) %this) unnamed_addr #0 comdat align 2 personality ptr @__gxx_personality_v0 {
entry:
  %_M_refcount.i = getelementptr inbounds %"class.std::__shared_ptr", ptr %this, i64 0, i32 1
  %0 = load ptr, ptr %_M_refcount.i, align 8
  %cmp.not.i.i = icmp eq ptr %0, null
  br i1 %cmp.not.i.i, label %_ZNSt12__shared_ptrIN7rocksdb8IOTracerELN9__gnu_cxx12_Lock_policyE2EED2Ev.exit, label %if.then.i.i

if.then.i.i:                                      ; preds = %entry
  %_M_use_count.i.i.i = getelementptr inbounds %"class.std::_Sp_counted_base", ptr %0, i64 0, i32 1
  %1 = load atomic i64, ptr %_M_use_count.i.i.i acquire, align 8
  %cmp.i.i.i = icmp eq i64 %1, 4294967297
  %2 = trunc i64 %1 to i32
  br i1 %cmp.i.i.i, label %if.then.i.i.i, label %if.end.i.i.i

if.then.i.i.i:                                    ; preds = %if.then.i.i
  store i32 0, ptr %_M_use_count.i.i.i, align 8
  %_M_weak_count.i.i.i = getelementptr inbounds %"class.std::_Sp_counted_base", ptr %0, i64 0, i32 2
  store i32 0, ptr %_M_weak_count.i.i.i, align 4
  %vtable.i.i.i = load ptr, ptr %0, align 8
  %vfn.i.i.i = getelementptr inbounds ptr, ptr %vtable.i.i.i, i64 2
  %3 = load ptr, ptr %vfn.i.i.i, align 8
  tail call void %3(ptr noundef nonnull align 8 dereferenceable(16) %0) #19
  br label %if.end8.sink.split.i.i.i

if.end.i.i.i:                                     ; preds = %if.then.i.i
  %4 = load i8, ptr @__libc_single_threaded, align 1
  %tobool.i.i.not.i.i.i = icmp eq i8 %4, 0
  br i1 %tobool.i.i.not.i.i.i, label %if.else.i.i.i.i, label %if.then.i.i.i.i

if.then.i.i.i.i:                                  ; preds = %if.end.i.i.i
  %add.i.i.i.i = add nsw i32 %2, -1
  store i32 %add.i.i.i.i, ptr %_M_use_count.i.i.i, align 4
  br label %_ZN9__gnu_cxx27__exchange_and_add_dispatchEPii.exit.i.i.i

if.else.i.i.i.i:                                  ; preds = %if.end.i.i.i
  %5 = atomicrmw volatile add ptr %_M_use_count.i.i.i, i32 -1 acq_rel, align 4
  br label %_ZN9__gnu_cxx27__exchange_and_add_dispatchEPii.exit.i.i.i

_ZN9__gnu_cxx27__exchange_and_add_dispatchEPii.exit.i.i.i: ; preds = %if.else.i.i.i.i, %if.then.i.i.i.i
  %retval.i.0.i.i.i = phi i32 [ %2, %if.then.i.i.i.i ], [ %5, %if.else.i.i.i.i ]
  %cmp6.i.i.i = icmp eq i32 %retval.i.0.i.i.i, 1
  br i1 %cmp6.i.i.i, label %if.then7.i.i.i, label %_ZNSt12__shared_ptrIN7rocksdb8IOTracerELN9__gnu_cxx12_Lock_policyE2EED2Ev.exit

if.then7.i.i.i:                                   ; preds = %_ZN9__gnu_cxx27__exchange_and_add_dispatchEPii.exit.i.i.i
  %vtable.i.i.i.i.i = load ptr, ptr %0, align 8
  %vfn.i.i.i.i.i = getelementptr inbounds ptr, ptr %vtable.i.i.i.i.i, i64 2
  %6 = load ptr, ptr %vfn.i.i.i.i.i, align 8
  tail call void %6(ptr noundef nonnull align 8 dereferenceable(16) %0) #19
  %_M_weak_count.i.i.i.i.i = getelementptr inbounds %"class.std::_Sp_counted_base", ptr %0, i64 0, i32 2
  %7 = load i8, ptr @__libc_single_threaded, align 1
  %tobool.i.i.not.i.i.i.i.i = icmp eq i8 %7, 0
  br i1 %tobool.i.i.not.i.i.i.i.i, label %if.else.i.i.i.i.i.i, label %if.then.i.i.i.i.i.i

if.then.i.i.i.i.i.i:                              ; preds = %if.then7.i.i.i
  %8 = load i32, ptr %_M_weak_count.i.i.i.i.i, align 4
  %add.i.i.i.i.i.i = add nsw i32 %8, -1
  store i32 %add.i.i.i.i.i.i, ptr %_M_weak_count.i.i.i.i.i, align 4
  br label %_ZN9__gnu_cxx27__exchange_and_add_dispatchEPii.exit.i.i.i.i.i

if.else.i.i.i.i.i.i:                              ; preds = %if.then7.i.i.i
  %9 = atomicrmw volatile add ptr %_M_weak_count.i.i.i.i.i, i32 -1 acq_rel, align 4
  br label %_ZN9__gnu_cxx27__exchange_and_add_dispatchEPii.exit.i.i.i.i.i

_ZN9__gnu_cxx27__exchange_and_add_dispatchEPii.exit.i.i.i.i.i: ; preds = %if.else.i.i.i.i.i.i, %if.then.i.i.i.i.i.i
  %retval.i.0.i.i.i.i.i = phi i32 [ %8, %if.then.i.i.i.i.i.i ], [ %9, %if.else.i.i.i.i.i.i ]
  %cmp.i.i.i.i.i = icmp eq i32 %retval.i.0.i.i.i.i.i, 1
  br i1 %cmp.i.i.i.i.i, label %if.end8.sink.split.i.i.i, label %_ZNSt12__shared_ptrIN7rocksdb8IOTracerELN9__gnu_cxx12_Lock_policyE2EED2Ev.exit

if.end8.sink.split.i.i.i:                         ; preds = %_ZN9__gnu_cxx27__exchange_and_add_dispatchEPii.exit.i.i.i.i.i, %if.then.i.i.i
  %vtable2.i.i.i.i.i = load ptr, ptr %0, align 8
  %vfn3.i.i.i.i.i = getelementptr inbounds ptr, ptr %vtable2.i.i.i.i.i, i64 3
  %10 = load ptr, ptr %vfn3.i.i.i.i.i, align 8
  tail call void %10(ptr noundef nonnull align 8 dereferenceable(16) %0) #19
  br label %_ZNSt12__shared_ptrIN7rocksdb8IOTracerELN9__gnu_cxx12_Lock_policyE2EED2Ev.exit

_ZNSt12__shared_ptrIN7rocksdb8IOTracerELN9__gnu_cxx12_Lock_policyE2EED2Ev.exit: ; preds = %entry, %_ZN9__gnu_cxx27__exchange_and_add_dispatchEPii.exit.i.i.i, %_ZN9__gnu_cxx27__exchange_and_add_dispatchEPii.exit.i.i.i.i.i, %if.end8.sink.split.i.i.i
  ret void
}

; Function Attrs: mustprogress uwtable
define void @_ZN7rocksdb15BlobFileBuilder3AddERKNS_5SliceES3_PNSt7__cxx1112basic_stringIcSt11char_traitsIcESaIcEEE(ptr noalias sret(%"class.rocksdb::Status") align 8 %agg.result, ptr noundef nonnull align 8 dereferenceable(264) %this, ptr noundef nonnull align 8 dereferenceable(16) %key, ptr noundef nonnull align 8 dereferenceable(16) %value, ptr noundef %blob_index) local_unnamed_addr #2 align 2 personality ptr @__gxx_personality_v0 {
entry:
  %blob = alloca %"class.rocksdb::Slice", align 8
  %compressed_blob = alloca %"class.std::__cxx11::basic_string", align 8
  %blob_file_number = alloca i64, align 8
  %blob_offset = alloca i64, align 8
  %s = alloca %"class.rocksdb::Status", align 8
  %ref.tmp = alloca %"class.std::__cxx11::basic_string", align 8
  %size_.i = getelementptr inbounds %"class.rocksdb::Slice", ptr %value, i64 0, i32 1
  %0 = load i64, ptr %size_.i, align 8
  %min_blob_size_ = getelementptr inbounds %"class.rocksdb::BlobFileBuilder", ptr %this, i64 0, i32 3
  %1 = load i64, ptr %min_blob_size_, align 8
  %cmp = icmp ult i64 %0, %1
  br i1 %cmp, label %if.then, label %cleanup

if.then:                                          ; preds = %entry
  %state_.i.i = getelementptr inbounds %"class.rocksdb::Status", ptr %agg.result, i64 0, i32 6
  store ptr null, ptr %state_.i.i, align 8, !alias.scope !4
  tail call void @llvm.memset.p0.i64(ptr noundef nonnull align 8 dereferenceable(6) %agg.result, i8 0, i64 6, i1 false), !alias.scope !4
  br label %return

cleanup:                                          ; preds = %entry
  tail call void @_ZN7rocksdb15BlobFileBuilder20OpenBlobFileIfNeededEv(ptr sret(%"class.rocksdb::Status") align 8 %agg.result, ptr noundef nonnull align 8 dereferenceable(264) %this)
  %2 = load i8, ptr %agg.result, align 8
  %cmp.i = icmp eq i8 %2, 0
  br i1 %cmp.i, label %nrvo.unused, label %return

nrvo.unused:                                      ; preds = %cleanup
  %state_.i14 = getelementptr inbounds %"class.rocksdb::Status", ptr %agg.result, i64 0, i32 6
  %3 = load ptr, ptr %state_.i14, align 8
  %cmp.not.i.i15 = icmp eq ptr %3, null
  br i1 %cmp.not.i.i15, label %cleanup.cont, label %_ZNKSt14default_deleteIA_KcEclIS0_EENSt9enable_ifIXsr14is_convertibleIPA_T_PS1_EE5valueEvE4typeEPS5_.exit.i.i16

_ZNKSt14default_deleteIA_KcEclIS0_EENSt9enable_ifIXsr14is_convertibleIPA_T_PS1_EE5valueEvE4typeEPS5_.exit.i.i16: ; preds = %nrvo.unused
  tail call void @_ZdaPv(ptr noundef nonnull %3) #18
  br label %cleanup.cont

cleanup.cont:                                     ; preds = %_ZNKSt14default_deleteIA_KcEclIS0_EENSt9enable_ifIXsr14is_convertibleIPA_T_PS1_EE5valueEvE4typeEPS5_.exit.i.i16, %nrvo.unused
  store ptr null, ptr %state_.i14, align 8
  call void @llvm.memcpy.p0.p0.i64(ptr noundef nonnull align 8 dereferenceable(16) %blob, ptr noundef nonnull align 8 dereferenceable(16) %value, i64 16, i1 false)
  call void @_ZNSt7__cxx1112basic_stringIcSt11char_traitsIcESaIcEEC1Ev(ptr noundef nonnull align 8 dereferenceable(32) %compressed_blob) #19
  invoke void @_ZNK7rocksdb15BlobFileBuilder20CompressBlobIfNeededEPNS_5SliceEPNSt7__cxx1112basic_stringIcSt11char_traitsIcESaIcEEE(ptr nonnull sret(%"class.rocksdb::Status") align 8 %agg.result, ptr noundef nonnull align 8 dereferenceable(264) %this, ptr noundef nonnull %blob, ptr noundef nonnull %compressed_blob)
          to label %cleanup13 unwind label %lpad6

lpad6:                                            ; preds = %if.end.i, %_ZN7rocksdb6StatusD2Ev.exit50, %_ZN7rocksdb6StatusD2Ev.exit45, %_ZN7rocksdb6StatusD2Ev.exit26, %cleanup.cont
  %4 = landingpad { ptr, i32 }
          cleanup
  br label %ehcleanup62

cleanup13:                                        ; preds = %cleanup.cont
  %5 = load i8, ptr %agg.result, align 8
  %cmp.i18 = icmp eq i8 %5, 0
  br i1 %cmp.i18, label %nrvo.unused15, label %cleanup61

nrvo.unused15:                                    ; preds = %cleanup13
  %6 = load ptr, ptr %state_.i14, align 8
  %cmp.not.i.i24 = icmp eq ptr %6, null
  br i1 %cmp.not.i.i24, label %_ZN7rocksdb6StatusD2Ev.exit26, label %_ZNKSt14default_deleteIA_KcEclIS0_EENSt9enable_ifIXsr14is_convertibleIPA_T_PS1_EE5valueEvE4typeEPS5_.exit.i.i25

_ZNKSt14default_deleteIA_KcEclIS0_EENSt9enable_ifIXsr14is_convertibleIPA_T_PS1_EE5valueEvE4typeEPS5_.exit.i.i25: ; preds = %nrvo.unused15
  call void @_ZdaPv(ptr noundef nonnull %6) #18
  br label %_ZN7rocksdb6StatusD2Ev.exit26

_ZN7rocksdb6StatusD2Ev.exit26:                    ; preds = %nrvo.unused15, %_ZNKSt14default_deleteIA_KcEclIS0_EENSt9enable_ifIXsr14is_convertibleIPA_T_PS1_EE5valueEvE4typeEPS5_.exit.i.i25
  store ptr null, ptr %state_.i14, align 8
  store i64 0, ptr %blob_file_number, align 8
  store i64 0, ptr %blob_offset, align 8
  invoke void @_ZN7rocksdb15BlobFileBuilder15WriteBlobToFileERKNS_5SliceES3_PmS4_(ptr nonnull sret(%"class.rocksdb::Status") align 8 %agg.result, ptr noundef nonnull align 8 dereferenceable(264) %this, ptr noundef nonnull align 8 dereferenceable(16) %key, ptr noundef nonnull align 8 dereferenceable(16) %blob, ptr noundef nonnull %blob_file_number, ptr noundef nonnull %blob_offset)
          to label %cleanup26 unwind label %lpad6

cleanup26:                                        ; preds = %_ZN7rocksdb6StatusD2Ev.exit26
  %7 = load i8, ptr %agg.result, align 8
  %cmp.i27 = icmp eq i8 %7, 0
  br i1 %cmp.i27, label %nrvo.unused28, label %cleanup61

nrvo.unused28:                                    ; preds = %cleanup26
  %8 = load ptr, ptr %state_.i14, align 8
  %cmp.not.i.i33 = icmp eq ptr %8, null
  br i1 %cmp.not.i.i33, label %_ZN7rocksdb6StatusD2Ev.exit35, label %_ZNKSt14default_deleteIA_KcEclIS0_EENSt9enable_ifIXsr14is_convertibleIPA_T_PS1_EE5valueEvE4typeEPS5_.exit.i.i34

_ZNKSt14default_deleteIA_KcEclIS0_EENSt9enable_ifIXsr14is_convertibleIPA_T_PS1_EE5valueEvE4typeEPS5_.exit.i.i34: ; preds = %nrvo.unused28
  call void @_ZdaPv(ptr noundef nonnull %8) #18
  br label %_ZN7rocksdb6StatusD2Ev.exit35

_ZN7rocksdb6StatusD2Ev.exit35:                    ; preds = %nrvo.unused28, %_ZNKSt14default_deleteIA_KcEclIS0_EENSt9enable_ifIXsr14is_convertibleIPA_T_PS1_EE5valueEvE4typeEPS5_.exit.i.i34
  store ptr null, ptr %state_.i14, align 8
  call void @llvm.experimental.noalias.scope.decl(metadata !7)
  %writer_.i = getelementptr inbounds %"class.rocksdb::BlobFileBuilder", ptr %this, i64 0, i32 20
  %9 = load ptr, ptr %writer_.i, align 8, !noalias !7
  %10 = load ptr, ptr %9, align 8, !noalias !7
  %filesize_.i.i = getelementptr inbounds %"class.rocksdb::WritableFileWriter", ptr %10, i64 0, i32 5
  %11 = load atomic i64, ptr %filesize_.i.i acquire, align 8, !noalias !7
  %blob_file_size_.i = getelementptr inbounds %"class.rocksdb::BlobFileBuilder", ptr %this, i64 0, i32 4
  %12 = load i64, ptr %blob_file_size_.i, align 8, !noalias !7
  %cmp.i36 = icmp ult i64 %11, %12
  br i1 %cmp.i36, label %nrvo.unused41.thread, label %if.end.i

nrvo.unused41.thread:                             ; preds = %_ZN7rocksdb6StatusD2Ev.exit35
  store ptr null, ptr %state_.i14, align 8, !alias.scope !10
  call void @llvm.memset.p0.i64(ptr noundef nonnull align 8 dereferenceable(6) %agg.result, i8 0, i64 6, i1 false), !alias.scope !10
  br label %_ZN7rocksdb6StatusD2Ev.exit45

if.end.i:                                         ; preds = %_ZN7rocksdb6StatusD2Ev.exit35
  invoke void @_ZN7rocksdb15BlobFileBuilder13CloseBlobFileEv(ptr nonnull sret(%"class.rocksdb::Status") align 8 %agg.result, ptr noundef nonnull align 8 dereferenceable(264) %this)
          to label %cleanup39 unwind label %lpad6

cleanup39:                                        ; preds = %if.end.i
  %.pr = load i8, ptr %agg.result, align 8
  %cmp.i37 = icmp eq i8 %.pr, 0
  br i1 %cmp.i37, label %nrvo.unused41, label %cleanup61

nrvo.unused41:                                    ; preds = %cleanup39
  %.pr58 = load ptr, ptr %state_.i14, align 8
  %cmp.not.i.i43 = icmp eq ptr %.pr58, null
  br i1 %cmp.not.i.i43, label %_ZN7rocksdb6StatusD2Ev.exit45, label %_ZNKSt14default_deleteIA_KcEclIS0_EENSt9enable_ifIXsr14is_convertibleIPA_T_PS1_EE5valueEvE4typeEPS5_.exit.i.i44

_ZNKSt14default_deleteIA_KcEclIS0_EENSt9enable_ifIXsr14is_convertibleIPA_T_PS1_EE5valueEvE4typeEPS5_.exit.i.i44: ; preds = %nrvo.unused41
  call void @_ZdaPv(ptr noundef nonnull %.pr58) #18
  br label %_ZN7rocksdb6StatusD2Ev.exit45

_ZN7rocksdb6StatusD2Ev.exit45:                    ; preds = %nrvo.unused41.thread, %nrvo.unused41, %_ZNKSt14default_deleteIA_KcEclIS0_EENSt9enable_ifIXsr14is_convertibleIPA_T_PS1_EE5valueEvE4typeEPS5_.exit.i.i44
  store ptr null, ptr %state_.i14, align 8
  %13 = load i64, ptr %blob_file_number, align 8
  %14 = load i64, ptr %blob_offset, align 8
  invoke void @_ZNK7rocksdb15BlobFileBuilder24PutBlobIntoCacheIfNeededERKNS_5SliceEmm(ptr nonnull sret(%"class.rocksdb::Status") align 8 %s, ptr noundef nonnull align 8 dereferenceable(264) %this, ptr noundef nonnull align 8 dereferenceable(16) %value, i64 noundef %13, i64 noundef %14)
          to label %invoke.cont47 unwind label %lpad6

invoke.cont47:                                    ; preds = %_ZN7rocksdb6StatusD2Ev.exit45
  %15 = load i8, ptr %s, align 8
  %cmp.i46 = icmp eq i8 %15, 0
  br i1 %cmp.i46, label %if.end56, label %if.then49

if.then49:                                        ; preds = %invoke.cont47
  %immutable_options_ = getelementptr inbounds %"class.rocksdb::BlobFileBuilder", ptr %this, i64 0, i32 2
  %16 = load ptr, ptr %immutable_options_, align 8
  invoke void @_ZNK7rocksdb6Status8ToStringB5cxx11Ev(ptr nonnull sret(%"class.std::__cxx11::basic_string") align 8 %ref.tmp, ptr noundef nonnull align 8 dereferenceable(16) %s)
          to label %invoke.cont52 unwind label %lpad46

invoke.cont52:                                    ; preds = %if.then49
  %info_log = getelementptr inbounds %"struct.rocksdb::ImmutableDBOptions", ptr %16, i64 0, i32 11
  %call53 = call noundef ptr @_ZNKSt7__cxx1112basic_stringIcSt11char_traitsIcESaIcEE5c_strEv(ptr noundef nonnull align 8 dereferenceable(32) %ref.tmp) #19
  invoke void (i8, ptr, ptr, ...) @_ZN7rocksdb3LogENS_12InfoLogLevelERKSt10shared_ptrINS_6LoggerEEPKcz(i8 noundef zeroext 2, ptr noundef nonnull align 8 dereferenceable(16) %info_log, ptr noundef nonnull @.str, ptr noundef nonnull getelementptr inbounds ([122 x i8], ptr @.str.1, i64 0, i64 93), ptr noundef %call53)
          to label %invoke.cont55 unwind label %lpad54

invoke.cont55:                                    ; preds = %invoke.cont52
  call void @_ZNSt7__cxx1112basic_stringIcSt11char_traitsIcESaIcEED1Ev(ptr noundef nonnull align 8 dereferenceable(32) %ref.tmp) #19
  br label %if.end56

lpad46:                                           ; preds = %if.then49
  %17 = landingpad { ptr, i32 }
          cleanup
  br label %ehcleanup

lpad54:                                           ; preds = %invoke.cont52
  %18 = landingpad { ptr, i32 }
          cleanup
  call void @_ZNSt7__cxx1112basic_stringIcSt11char_traitsIcESaIcEED1Ev(ptr noundef nonnull align 8 dereferenceable(32) %ref.tmp) #19
  br label %ehcleanup

if.end56:                                         ; preds = %invoke.cont55, %invoke.cont47
  %state_.i47 = getelementptr inbounds %"class.rocksdb::Status", ptr %s, i64 0, i32 6
  %19 = load ptr, ptr %state_.i47, align 8
  %cmp.not.i.i48 = icmp eq ptr %19, null
  br i1 %cmp.not.i.i48, label %_ZN7rocksdb6StatusD2Ev.exit50, label %_ZNKSt14default_deleteIA_KcEclIS0_EENSt9enable_ifIXsr14is_convertibleIPA_T_PS1_EE5valueEvE4typeEPS5_.exit.i.i49

_ZNKSt14default_deleteIA_KcEclIS0_EENSt9enable_ifIXsr14is_convertibleIPA_T_PS1_EE5valueEvE4typeEPS5_.exit.i.i49: ; preds = %if.end56
  call void @_ZdaPv(ptr noundef nonnull %19) #18
  br label %_ZN7rocksdb6StatusD2Ev.exit50

_ZN7rocksdb6StatusD2Ev.exit50:                    ; preds = %if.end56, %_ZNKSt14default_deleteIA_KcEclIS0_EENSt9enable_ifIXsr14is_convertibleIPA_T_PS1_EE5valueEvE4typeEPS5_.exit.i.i49
  store ptr null, ptr %state_.i47, align 8
  %20 = load i64, ptr %blob_offset, align 8
  %size_.i51 = getelementptr inbounds %"class.rocksdb::Slice", ptr %blob, i64 0, i32 1
  %21 = load i64, ptr %size_.i51, align 8
  %blob_compression_type_ = getelementptr inbounds %"class.rocksdb::BlobFileBuilder", ptr %this, i64 0, i32 5
  %22 = load i8, ptr %blob_compression_type_, align 8
  invoke void @_ZN7rocksdb9BlobIndex10EncodeBlobEPNSt7__cxx1112basic_stringIcSt11char_traitsIcESaIcEEEmmmNS_15CompressionTypeE(ptr noundef %blob_index, i64 noundef %13, i64 noundef %20, i64 noundef %21, i8 noundef zeroext %22)
          to label %invoke.cont59 unwind label %lpad6

invoke.cont59:                                    ; preds = %_ZN7rocksdb6StatusD2Ev.exit50
  store ptr null, ptr %state_.i14, align 8, !alias.scope !13
  call void @llvm.memset.p0.i64(ptr noundef nonnull align 8 dereferenceable(6) %agg.result, i8 0, i64 6, i1 false), !alias.scope !13
  br label %cleanup61

ehcleanup:                                        ; preds = %lpad54, %lpad46
  %.pn = phi { ptr, i32 } [ %18, %lpad54 ], [ %17, %lpad46 ]
  %state_.i53 = getelementptr inbounds %"class.rocksdb::Status", ptr %s, i64 0, i32 6
  %23 = load ptr, ptr %state_.i53, align 8
  %cmp.not.i.i54 = icmp eq ptr %23, null
  br i1 %cmp.not.i.i54, label %_ZN7rocksdb6StatusD2Ev.exit56, label %_ZNKSt14default_deleteIA_KcEclIS0_EENSt9enable_ifIXsr14is_convertibleIPA_T_PS1_EE5valueEvE4typeEPS5_.exit.i.i55

_ZNKSt14default_deleteIA_KcEclIS0_EENSt9enable_ifIXsr14is_convertibleIPA_T_PS1_EE5valueEvE4typeEPS5_.exit.i.i55: ; preds = %ehcleanup
  call void @_ZdaPv(ptr noundef nonnull %23) #18
  br label %_ZN7rocksdb6StatusD2Ev.exit56

_ZN7rocksdb6StatusD2Ev.exit56:                    ; preds = %ehcleanup, %_ZNKSt14default_deleteIA_KcEclIS0_EENSt9enable_ifIXsr14is_convertibleIPA_T_PS1_EE5valueEvE4typeEPS5_.exit.i.i55
  store ptr null, ptr %state_.i53, align 8
  br label %ehcleanup62

cleanup61:                                        ; preds = %invoke.cont59, %cleanup39, %cleanup26, %cleanup13
  call void @_ZNSt7__cxx1112basic_stringIcSt11char_traitsIcESaIcEED1Ev(ptr noundef nonnull align 8 dereferenceable(32) %compressed_blob) #19
  br label %return

ehcleanup62:                                      ; preds = %_ZN7rocksdb6StatusD2Ev.exit56, %lpad6
  %.pn9 = phi { ptr, i32 } [ %4, %lpad6 ], [ %.pn, %_ZN7rocksdb6StatusD2Ev.exit56 ]
  call void @_ZNSt7__cxx1112basic_stringIcSt11char_traitsIcESaIcEED1Ev(ptr noundef nonnull align 8 dereferenceable(32) %compressed_blob) #19
  resume { ptr, i32 } %.pn9

return:                                           ; preds = %cleanup, %cleanup61, %if.then
  ret void
}

; Function Attrs: mustprogress uwtable
define void @_ZN7rocksdb15BlobFileBuilder20OpenBlobFileIfNeededEv(ptr noalias sret(%"class.rocksdb::Status") align 8 %agg.result, ptr noundef nonnull align 8 dereferenceable(264) %this) local_unnamed_addr #2 align 2 personality ptr @__gxx_personality_v0 {
entry:
  %blob_file_path = alloca %"class.std::__cxx11::basic_string", align 8
  %file = alloca %"class.std::unique_ptr.96", align 8
  %ref.tmp = alloca %"class.rocksdb::IOStatus", align 8
  %file_writer = alloca %"class.std::unique_ptr.114", align 8
  %blob_log_writer = alloca %"class.std::unique_ptr", align 8
  %header = alloca %"struct.rocksdb::BlobLogHeader", align 8
  %writer_.i = getelementptr inbounds %"class.rocksdb::BlobFileBuilder", ptr %this, i64 0, i32 20
  %0 = load ptr, ptr %writer_.i, align 8
  %cmp.i.i.not = icmp eq ptr %0, null
  br i1 %cmp.i.i.not, label %if.end, label %if.then

if.then:                                          ; preds = %entry
  %state_.i.i = getelementptr inbounds %"class.rocksdb::Status", ptr %agg.result, i64 0, i32 6
  store ptr null, ptr %state_.i.i, align 8, !alias.scope !16
  tail call void @llvm.memset.p0.i64(ptr noundef nonnull align 8 dereferenceable(6) %agg.result, i8 0, i64 6, i1 false), !alias.scope !16
  br label %return

if.end:                                           ; preds = %entry
  %_M_manager.i.i = getelementptr inbounds %"class.std::_Function_base", ptr %this, i64 0, i32 1
  %1 = load ptr, ptr %_M_manager.i.i, align 8
  %tobool.not.i.i = icmp eq ptr %1, null
  br i1 %tobool.not.i.i, label %if.then.i, label %_ZNKSt8functionIFmvEEclEv.exit

if.then.i:                                        ; preds = %if.end
  tail call void @_ZSt25__throw_bad_function_callv() #21
  unreachable

_ZNKSt8functionIFmvEEclEv.exit:                   ; preds = %if.end
  %_M_invoker.i = getelementptr inbounds %"class.std::function", ptr %this, i64 0, i32 1
  %2 = load ptr, ptr %_M_invoker.i, align 8
  %call2.i = tail call noundef i64 %2(ptr noundef nonnull align 8 dereferenceable(16) %this)
  %immutable_options_ = getelementptr inbounds %"class.rocksdb::BlobFileBuilder", ptr %this, i64 0, i32 2
  %3 = load ptr, ptr %immutable_options_, align 8
  %cf_paths = getelementptr inbounds i8, ptr %3, i64 784
  %4 = load ptr, ptr %cf_paths, align 8
  call void @_ZN7rocksdb12BlobFileNameERKNSt7__cxx1112basic_stringIcSt11char_traitsIcESaIcEEEm(ptr nonnull sret(%"class.std::__cxx11::basic_string") align 8 %blob_file_path, ptr noundef nonnull align 8 dereferenceable(32) %4, i64 noundef %call2.i)
  %blob_callback_ = getelementptr inbounds %"class.rocksdb::BlobFileBuilder", ptr %this, i64 0, i32 16
  %5 = load ptr, ptr %blob_callback_, align 8
  %tobool.not = icmp eq ptr %5, null
  br i1 %tobool.not, label %if.end6, label %if.then4

if.then4:                                         ; preds = %_ZNKSt8functionIFmvEEclEv.exit
  %column_family_name_ = getelementptr inbounds %"class.rocksdb::BlobFileBuilder", ptr %this, i64 0, i32 12
  %job_id_ = getelementptr inbounds %"class.rocksdb::BlobFileBuilder", ptr %this, i64 0, i32 10
  %6 = load i32, ptr %job_id_, align 8
  %creation_reason_ = getelementptr inbounds %"class.rocksdb::BlobFileBuilder", ptr %this, i64 0, i32 17
  %7 = load i32, ptr %creation_reason_, align 8
  %listeners_.i = getelementptr inbounds %"class.rocksdb::BlobFileCompletionCallback", ptr %5, i64 0, i32 4
  %dbname_.i = getelementptr inbounds %"class.rocksdb::BlobFileCompletionCallback", ptr %5, i64 0, i32 5
  invoke void @_ZN7rocksdb12EventHelpers29NotifyBlobFileCreationStartedERKSt6vectorISt10shared_ptrINS_13EventListenerEESaIS4_EERKNSt7__cxx1112basic_stringIcSt11char_traitsIcESaIcEEESG_SG_iNS_22BlobFileCreationReasonE(ptr noundef nonnull align 8 dereferenceable(24) %listeners_.i, ptr noundef nonnull align 8 dereferenceable(32) %dbname_.i, ptr noundef nonnull align 8 dereferenceable(32) %column_family_name_, ptr noundef nonnull align 8 dereferenceable(32) %blob_file_path, i32 noundef %6, i32 noundef %7)
          to label %if.end6 unwind label %lpad

lpad:                                             ; preds = %if.then4
  %8 = landingpad { ptr, i32 }
          cleanup
  br label %ehcleanup70

if.end6:                                          ; preds = %if.then4, %_ZNKSt8functionIFmvEEclEv.exit
  store ptr null, ptr %file, align 8
  %fs_ = getelementptr inbounds %"class.rocksdb::BlobFileBuilder", ptr %this, i64 0, i32 1
  %9 = load ptr, ptr %fs_, align 8
  %file_options_ = getelementptr inbounds %"class.rocksdb::BlobFileBuilder", ptr %this, i64 0, i32 7
  %10 = load ptr, ptr %file_options_, align 8
  invoke void @_ZN7rocksdb15NewWritableFileEPNS_10FileSystemERKNSt7__cxx1112basic_stringIcSt11char_traitsIcESaIcEEEPSt10unique_ptrINS_14FSWritableFileESt14default_deleteISB_EERKNS_11FileOptionsE(ptr nonnull sret(%"class.rocksdb::IOStatus") align 8 %ref.tmp, ptr noundef %9, ptr noundef nonnull align 8 dereferenceable(32) %blob_file_path, ptr noundef nonnull %file, ptr noundef nonnull align 8 dereferenceable(146) %10)
          to label %invoke.cont8 unwind label %lpad7

invoke.cont8:                                     ; preds = %if.end6
  %state_.i.i9 = getelementptr inbounds %"class.rocksdb::Status", ptr %agg.result, i64 0, i32 6
  store ptr null, ptr %state_.i.i9, align 8
  call void @llvm.memset.p0.i64(ptr noundef nonnull align 8 dereferenceable(6) %agg.result, i8 0, i64 6, i1 false)
  %cmp.not.i.i = icmp eq ptr %ref.tmp, %agg.result
  br i1 %cmp.not.i.i, label %nrvo.unused.thread, label %cleanup

nrvo.unused.thread:                               ; preds = %invoke.cont8
  %state_.i.i1036 = getelementptr inbounds %"class.rocksdb::Status", ptr %ref.tmp, i64 0, i32 6
  store ptr null, ptr %state_.i.i1036, align 8
  br label %_ZN7rocksdb6StatusD2Ev.exit15

lpad7:                                            ; preds = %if.else.i, %invoke.cont21, %invoke.cont17, %invoke.cont14, %if.end6
  %11 = landingpad { ptr, i32 }
          cleanup
  br label %ehcleanup68

cleanup:                                          ; preds = %invoke.cont8
  %12 = load i8, ptr %ref.tmp, align 8
  store i8 %12, ptr %agg.result, align 8
  %subcode_.i.i = getelementptr inbounds %"class.rocksdb::Status", ptr %ref.tmp, i64 0, i32 1
  %13 = load i8, ptr %subcode_.i.i, align 1
  %subcode_4.i.i = getelementptr inbounds %"class.rocksdb::Status", ptr %agg.result, i64 0, i32 1
  store i8 %13, ptr %subcode_4.i.i, align 1
  %sev_.i.i = getelementptr inbounds %"class.rocksdb::Status", ptr %ref.tmp, i64 0, i32 2
  %14 = load i8, ptr %sev_.i.i, align 2
  %sev_6.i.i = getelementptr inbounds %"class.rocksdb::Status", ptr %agg.result, i64 0, i32 2
  store i8 %14, ptr %sev_6.i.i, align 2
  %retryable_.i.i = getelementptr inbounds %"class.rocksdb::Status", ptr %ref.tmp, i64 0, i32 3
  %15 = load i8, ptr %retryable_.i.i, align 1
  %16 = and i8 %15, 1
  %retryable_8.i.i = getelementptr inbounds %"class.rocksdb::Status", ptr %agg.result, i64 0, i32 3
  store i8 %16, ptr %retryable_8.i.i, align 1
  store <4 x i8> zeroinitializer, ptr %ref.tmp, align 8
  %data_loss_.i.i = getelementptr inbounds %"class.rocksdb::Status", ptr %ref.tmp, i64 0, i32 4
  %17 = load i8, ptr %data_loss_.i.i, align 4
  %18 = and i8 %17, 1
  %data_loss_11.i.i = getelementptr inbounds %"class.rocksdb::Status", ptr %agg.result, i64 0, i32 4
  store i8 %18, ptr %data_loss_11.i.i, align 4
  store i8 0, ptr %data_loss_.i.i, align 4
  %scope_.i.i = getelementptr inbounds %"class.rocksdb::Status", ptr %ref.tmp, i64 0, i32 5
  %19 = load i8, ptr %scope_.i.i, align 1
  %scope_14.i.i = getelementptr inbounds %"class.rocksdb::Status", ptr %agg.result, i64 0, i32 5
  store i8 %19, ptr %scope_14.i.i, align 1
  store i8 0, ptr %scope_.i.i, align 1
  %state_.i2.i = getelementptr inbounds %"class.rocksdb::Status", ptr %ref.tmp, i64 0, i32 6
  %20 = load ptr, ptr %state_.i2.i, align 8
  store ptr %20, ptr %state_.i.i9, align 8
  %state_.i.i10 = getelementptr inbounds %"class.rocksdb::Status", ptr %ref.tmp, i64 0, i32 6
  store ptr null, ptr %state_.i.i10, align 8
  %cmp.i = icmp eq i8 %12, 0
  br i1 %cmp.i, label %nrvo.unused, label %cleanup67

nrvo.unused:                                      ; preds = %cleanup
  %cmp.not.i.i13 = icmp eq ptr %20, null
  br i1 %cmp.not.i.i13, label %_ZN7rocksdb6StatusD2Ev.exit15, label %_ZNKSt14default_deleteIA_KcEclIS0_EENSt9enable_ifIXsr14is_convertibleIPA_T_PS1_EE5valueEvE4typeEPS5_.exit.i.i14

_ZNKSt14default_deleteIA_KcEclIS0_EENSt9enable_ifIXsr14is_convertibleIPA_T_PS1_EE5valueEvE4typeEPS5_.exit.i.i14: ; preds = %nrvo.unused
  call void @_ZdaPv(ptr noundef nonnull %20) #18
  br label %_ZN7rocksdb6StatusD2Ev.exit15

_ZN7rocksdb6StatusD2Ev.exit15:                    ; preds = %nrvo.unused.thread, %nrvo.unused, %_ZNKSt14default_deleteIA_KcEclIS0_EENSt9enable_ifIXsr14is_convertibleIPA_T_PS1_EE5valueEvE4typeEPS5_.exit.i.i14
  store ptr null, ptr %state_.i.i9, align 8
  %blob_file_paths_ = getelementptr inbounds %"class.rocksdb::BlobFileBuilder", ptr %this, i64 0, i32 18
  %21 = load ptr, ptr %blob_file_paths_, align 8
  %_M_finish.i = getelementptr inbounds %"struct.std::_Vector_base<std::__cxx11::basic_string<char>, std::allocator<std::__cxx11::basic_string<char>>>::_Vector_impl_data", ptr %21, i64 0, i32 1
  %22 = load ptr, ptr %_M_finish.i, align 8
  %_M_end_of_storage.i = getelementptr inbounds %"struct.std::_Vector_base<std::__cxx11::basic_string<char>, std::allocator<std::__cxx11::basic_string<char>>>::_Vector_impl_data", ptr %21, i64 0, i32 2
  %23 = load ptr, ptr %_M_end_of_storage.i, align 8
  %cmp.not.i = icmp eq ptr %22, %23
  br i1 %cmp.not.i, label %if.else.i, label %if.then.i16

if.then.i16:                                      ; preds = %_ZN7rocksdb6StatusD2Ev.exit15
  call void @_ZNSt7__cxx1112basic_stringIcSt11char_traitsIcESaIcEEC1EOS4_(ptr noundef nonnull align 8 dereferenceable(32) %22, ptr noundef nonnull align 8 dereferenceable(32) %blob_file_path) #19
  %24 = load ptr, ptr %_M_finish.i, align 8
  %incdec.ptr.i = getelementptr inbounds %"class.std::__cxx11::basic_string", ptr %24, i64 1
  store ptr %incdec.ptr.i, ptr %_M_finish.i, align 8
  br label %invoke.cont14

if.else.i:                                        ; preds = %_ZN7rocksdb6StatusD2Ev.exit15
  invoke void @_ZNSt6vectorINSt7__cxx1112basic_stringIcSt11char_traitsIcESaIcEEESaIS5_EE17_M_realloc_insertIJS5_EEEvN9__gnu_cxx17__normal_iteratorIPS5_S7_EEDpOT_(ptr noundef nonnull align 8 dereferenceable(24) %21, ptr %22, ptr noundef nonnull align 8 dereferenceable(32) %blob_file_path)
          to label %invoke.cont14 unwind label %lpad7

invoke.cont14:                                    ; preds = %if.else.i, %if.then.i16
  %25 = load ptr, ptr %file, align 8
  %io_priority_ = getelementptr inbounds %"class.rocksdb::BlobFileBuilder", ptr %this, i64 0, i32 13
  %26 = load i32, ptr %io_priority_, align 8
  %vtable = load ptr, ptr %25, align 8
  %vfn = getelementptr inbounds ptr, ptr %vtable, i64 15
  %27 = load ptr, ptr %vfn, align 8
  invoke void %27(ptr noundef nonnull align 8 dereferenceable(33) %25, i32 noundef %26)
          to label %invoke.cont17 unwind label %lpad7

invoke.cont17:                                    ; preds = %invoke.cont14
  %28 = load ptr, ptr %file, align 8
  %write_hint_ = getelementptr inbounds %"class.rocksdb::BlobFileBuilder", ptr %this, i64 0, i32 14
  %29 = load i32, ptr %write_hint_, align 4
  %vtable19 = load ptr, ptr %28, align 8
  %vfn20 = getelementptr inbounds ptr, ptr %vtable19, i64 14
  %30 = load ptr, ptr %vfn20, align 8
  invoke void %30(ptr noundef nonnull align 8 dereferenceable(33) %28, i32 noundef %29)
          to label %invoke.cont21 unwind label %lpad7

invoke.cont21:                                    ; preds = %invoke.cont17
  %31 = load ptr, ptr %immutable_options_, align 8
  %checksum_handoff_file_types = getelementptr inbounds %"struct.rocksdb::ImmutableDBOptions", ptr %31, i64 0, i32 84
  %32 = load i64, ptr %checksum_handoff_file_types, align 8
  %stats = getelementptr inbounds %"struct.rocksdb::ImmutableDBOptions", ptr %31, i64 0, i32 89
  %33 = load ptr, ptr %stats, align 8
  %call25 = invoke noalias noundef nonnull dereferenceable(224) ptr @_Znwm(i64 noundef 224) #22
          to label %invoke.cont24 unwind label %lpad7

invoke.cont24:                                    ; preds = %invoke.cont21
  %34 = load ptr, ptr %blob_file_paths_, align 8
  %_M_finish.i.i = getelementptr inbounds %"struct.std::_Vector_base<std::__cxx11::basic_string<char>, std::allocator<std::__cxx11::basic_string<char>>>::_Vector_impl_data", ptr %34, i64 0, i32 1
  %35 = load ptr, ptr %_M_finish.i.i, align 8
  %add.ptr.i.i = getelementptr inbounds %"class.std::__cxx11::basic_string", ptr %35, i64 -1
  %36 = load ptr, ptr %file_options_, align 8
  %clock = getelementptr inbounds %"struct.rocksdb::ImmutableDBOptions", ptr %31, i64 0, i32 88
  %37 = load ptr, ptr %clock, align 8
  %io_tracer_ = getelementptr inbounds %"class.rocksdb::BlobFileBuilder", ptr %this, i64 0, i32 15
  %listeners = getelementptr inbounds %"struct.rocksdb::ImmutableDBOptions", ptr %31, i64 0, i32 47
  %file_checksum_gen_factory = getelementptr inbounds %"struct.rocksdb::ImmutableDBOptions", ptr %31, i64 0, i32 76
  %38 = load ptr, ptr %file_checksum_gen_factory, align 8
  %and.i = and i64 %32, 1024
  %tobool.i = icmp ne i64 %and.i, 0
  invoke void @_ZN7rocksdb18WritableFileWriterC2EOSt10unique_ptrINS_14FSWritableFileESt14default_deleteIS2_EERKNSt7__cxx1112basic_stringIcSt11char_traitsIcESaIcEEERKNS_11FileOptionsEPNS_11SystemClockERKSt10shared_ptrINS_8IOTracerEEPNS_10StatisticsERKSt6vectorISK_INS_13EventListenerEESaIST_EEPNS_22FileChecksumGenFactoryEbb(ptr noundef nonnull align 8 dereferenceable(218) %call25, ptr noundef nonnull align 8 dereferenceable(8) %file, ptr noundef nonnull align 8 dereferenceable(32) %add.ptr.i.i, ptr noundef nonnull align 8 dereferenceable(146) %36, ptr noundef %37, ptr noundef nonnull align 8 dereferenceable(16) %io_tracer_, ptr noundef %33, ptr noundef nonnull align 8 dereferenceable(24) %listeners, ptr noundef %38, i1 noundef zeroext %tobool.i, i1 noundef zeroext false)
          to label %invoke.cont36 unwind label %lpad33

invoke.cont36:                                    ; preds = %invoke.cont24
  store ptr %call25, ptr %file_writer, align 8
  %call39 = invoke noalias noundef nonnull dereferenceable(48) ptr @_Znwm(i64 noundef 48) #22
          to label %invoke.cont38 unwind label %lpad37

invoke.cont38:                                    ; preds = %invoke.cont36
  %39 = load ptr, ptr %immutable_options_, align 8
  %clock41 = getelementptr inbounds %"struct.rocksdb::ImmutableDBOptions", ptr %39, i64 0, i32 88
  %40 = load ptr, ptr %clock41, align 8
  %use_fsync = getelementptr inbounds %"struct.rocksdb::ImmutableDBOptions", ptr %39, i64 0, i32 16
  %41 = load i8, ptr %use_fsync, align 8
  %42 = and i8 %41, 1
  %tobool43 = icmp ne i8 %42, 0
  invoke void @_ZN7rocksdb13BlobLogWriterC1EOSt10unique_ptrINS_18WritableFileWriterESt14default_deleteIS2_EEPNS_11SystemClockEPNS_10StatisticsEmbbm(ptr noundef nonnull align 8 dereferenceable(48) %call39, ptr noundef nonnull align 8 dereferenceable(8) %file_writer, ptr noundef %40, ptr noundef %33, i64 noundef %call2.i, i1 noundef zeroext %tobool43, i1 noundef zeroext false, i64 noundef 0)
          to label %invoke.cont45 unwind label %lpad44

invoke.cont45:                                    ; preds = %invoke.cont38
  store ptr %call39, ptr %blob_log_writer, align 8
  %expiration_range.i = getelementptr inbounds %"struct.rocksdb::BlobLogHeader", ptr %header, i64 0, i32 4
  call void @llvm.memset.p0.i64(ptr noundef nonnull align 8 dereferenceable(16) %expiration_range.i, i8 0, i64 16, i1 false)
  %column_family_id_ = getelementptr inbounds %"class.rocksdb::BlobFileBuilder", ptr %this, i64 0, i32 11
  %43 = load i32, ptr %column_family_id_, align 4
  %blob_compression_type_ = getelementptr inbounds %"class.rocksdb::BlobFileBuilder", ptr %this, i64 0, i32 5
  %44 = load i8, ptr %blob_compression_type_, align 8
  store i32 1, ptr %header, align 8
  %column_family_id.i = getelementptr inbounds %"struct.rocksdb::BlobLogHeader", ptr %header, i64 0, i32 1
  store i32 %43, ptr %column_family_id.i, align 4
  %compression.i = getelementptr inbounds %"struct.rocksdb::BlobLogHeader", ptr %header, i64 0, i32 2
  store i8 %44, ptr %compression.i, align 8
  %has_ttl.i = getelementptr inbounds %"struct.rocksdb::BlobLogHeader", ptr %header, i64 0, i32 3
  store i8 0, ptr %has_ttl.i, align 1
  invoke void @_ZN7rocksdb13BlobLogWriter11WriteHeaderERNS_13BlobLogHeaderE(ptr nonnull sret(%"class.rocksdb::Status") align 8 %agg.result, ptr noundef nonnull align 8 dereferenceable(48) %call39, ptr noundef nonnull align 8 dereferenceable(32) %header)
          to label %cleanup56 unwind label %lpad46

lpad33:                                           ; preds = %invoke.cont24
  %45 = landingpad { ptr, i32 }
          cleanup
  call void @_ZdlPv(ptr noundef nonnull %call25) #18
  br label %ehcleanup68

lpad37:                                           ; preds = %invoke.cont36
  %46 = landingpad { ptr, i32 }
          cleanup
  br label %ehcleanup66

lpad44:                                           ; preds = %invoke.cont38
  %47 = landingpad { ptr, i32 }
          cleanup
  call void @_ZdlPv(ptr noundef nonnull %call39) #18
  br label %ehcleanup66

lpad46:                                           ; preds = %invoke.cont45
  %48 = landingpad { ptr, i32 }
          cleanup
  call void @_ZNSt10unique_ptrIN7rocksdb13BlobLogWriterESt14default_deleteIS1_EED2Ev(ptr noundef nonnull align 8 dereferenceable(8) %blob_log_writer) #19
  br label %ehcleanup66

cleanup56:                                        ; preds = %invoke.cont45
  %49 = load i8, ptr %agg.result, align 8
  %cmp.i17 = icmp eq i8 %49, 0
  br i1 %cmp.i17, label %nrvo.unused58, label %_ZNKSt14default_deleteIN7rocksdb13BlobLogWriterEEclEPS1_.exit.i

nrvo.unused58:                                    ; preds = %cleanup56
  %50 = load ptr, ptr %state_.i.i9, align 8
  %cmp.not.i.i23 = icmp eq ptr %50, null
  br i1 %cmp.not.i.i23, label %_ZN7rocksdb6StatusD2Ev.exit25, label %_ZNKSt14default_deleteIA_KcEclIS0_EENSt9enable_ifIXsr14is_convertibleIPA_T_PS1_EE5valueEvE4typeEPS5_.exit.i.i24

_ZNKSt14default_deleteIA_KcEclIS0_EENSt9enable_ifIXsr14is_convertibleIPA_T_PS1_EE5valueEvE4typeEPS5_.exit.i.i24: ; preds = %nrvo.unused58
  call void @_ZdaPv(ptr noundef nonnull %50) #18
  br label %_ZN7rocksdb6StatusD2Ev.exit25

_ZN7rocksdb6StatusD2Ev.exit25:                    ; preds = %nrvo.unused58, %_ZNKSt14default_deleteIA_KcEclIS0_EENSt9enable_ifIXsr14is_convertibleIPA_T_PS1_EE5valueEvE4typeEPS5_.exit.i.i24
  store ptr null, ptr %state_.i.i9, align 8
  %51 = load ptr, ptr %writer_.i, align 8
  store ptr %call39, ptr %writer_.i, align 8
  %tobool.not.i.i.i.i = icmp eq ptr %51, null
  br i1 %tobool.not.i.i.i.i, label %cleanup64.thread, label %_ZNKSt14default_deleteIN7rocksdb13BlobLogWriterEEclEPS1_.exit.i.i.i.i

_ZNKSt14default_deleteIN7rocksdb13BlobLogWriterEEclEPS1_.exit.i.i.i.i: ; preds = %_ZN7rocksdb6StatusD2Ev.exit25
  call void @_ZN7rocksdb13BlobLogWriterD1Ev(ptr noundef nonnull align 8 dereferenceable(48) %51) #19
  call void @_ZdlPv(ptr noundef nonnull %51) #18
  br label %cleanup64.thread

cleanup64.thread:                                 ; preds = %_ZNKSt14default_deleteIN7rocksdb13BlobLogWriterEEclEPS1_.exit.i.i.i.i, %_ZN7rocksdb6StatusD2Ev.exit25
  store ptr null, ptr %state_.i.i9, align 8, !alias.scope !19
  call void @llvm.memset.p0.i64(ptr noundef nonnull align 8 dereferenceable(6) %agg.result, i8 0, i64 6, i1 false), !alias.scope !19
  br label %_ZNSt10unique_ptrIN7rocksdb13BlobLogWriterESt14default_deleteIS1_EED2Ev.exit

_ZNKSt14default_deleteIN7rocksdb13BlobLogWriterEEclEPS1_.exit.i: ; preds = %cleanup56
  call void @_ZN7rocksdb13BlobLogWriterD1Ev(ptr noundef nonnull align 8 dereferenceable(48) %call39) #19
  call void @_ZdlPv(ptr noundef nonnull %call39) #18
  br label %_ZNSt10unique_ptrIN7rocksdb13BlobLogWriterESt14default_deleteIS1_EED2Ev.exit

_ZNSt10unique_ptrIN7rocksdb13BlobLogWriterESt14default_deleteIS1_EED2Ev.exit: ; preds = %cleanup64.thread, %_ZNKSt14default_deleteIN7rocksdb13BlobLogWriterEEclEPS1_.exit.i
  %52 = load ptr, ptr %file_writer, align 8
  %cmp.not.i28 = icmp eq ptr %52, null
  br i1 %cmp.not.i28, label %_ZNSt10unique_ptrIN7rocksdb18WritableFileWriterESt14default_deleteIS1_EED2Ev.exit, label %_ZNKSt14default_deleteIN7rocksdb18WritableFileWriterEEclEPS1_.exit.i

_ZNKSt14default_deleteIN7rocksdb18WritableFileWriterEEclEPS1_.exit.i: ; preds = %_ZNSt10unique_ptrIN7rocksdb13BlobLogWriterESt14default_deleteIS1_EED2Ev.exit
  call void @_ZN7rocksdb18WritableFileWriterD2Ev(ptr noundef nonnull align 8 dereferenceable(218) %52) #19
  call void @_ZdlPv(ptr noundef nonnull %52) #18
  br label %_ZNSt10unique_ptrIN7rocksdb18WritableFileWriterESt14default_deleteIS1_EED2Ev.exit

_ZNSt10unique_ptrIN7rocksdb18WritableFileWriterESt14default_deleteIS1_EED2Ev.exit: ; preds = %_ZNSt10unique_ptrIN7rocksdb13BlobLogWriterESt14default_deleteIS1_EED2Ev.exit, %_ZNKSt14default_deleteIN7rocksdb18WritableFileWriterEEclEPS1_.exit.i
  store ptr null, ptr %file_writer, align 8
  br label %cleanup67

ehcleanup66:                                      ; preds = %lpad46, %lpad44, %lpad37
  %.pn.pn = phi { ptr, i32 } [ %48, %lpad46 ], [ %47, %lpad44 ], [ %46, %lpad37 ]
  call void @_ZNSt10unique_ptrIN7rocksdb18WritableFileWriterESt14default_deleteIS1_EED2Ev(ptr noundef nonnull align 8 dereferenceable(8) %file_writer) #19
  br label %ehcleanup68

cleanup67:                                        ; preds = %cleanup, %_ZNSt10unique_ptrIN7rocksdb18WritableFileWriterESt14default_deleteIS1_EED2Ev.exit
  %53 = load ptr, ptr %file, align 8
  %cmp.not.i29 = icmp eq ptr %53, null
  br i1 %cmp.not.i29, label %_ZNSt10unique_ptrIN7rocksdb14FSWritableFileESt14default_deleteIS1_EED2Ev.exit, label %_ZNKSt14default_deleteIN7rocksdb14FSWritableFileEEclEPS1_.exit.i

_ZNKSt14default_deleteIN7rocksdb14FSWritableFileEEclEPS1_.exit.i: ; preds = %cleanup67
  %vtable.i.i = load ptr, ptr %53, align 8
  %vfn.i.i = getelementptr inbounds ptr, ptr %vtable.i.i, i64 1
  %54 = load ptr, ptr %vfn.i.i, align 8
  call void %54(ptr noundef nonnull align 8 dereferenceable(33) %53) #19
  br label %_ZNSt10unique_ptrIN7rocksdb14FSWritableFileESt14default_deleteIS1_EED2Ev.exit

_ZNSt10unique_ptrIN7rocksdb14FSWritableFileESt14default_deleteIS1_EED2Ev.exit: ; preds = %cleanup67, %_ZNKSt14default_deleteIN7rocksdb14FSWritableFileEEclEPS1_.exit.i
  store ptr null, ptr %file, align 8
  call void @_ZNSt7__cxx1112basic_stringIcSt11char_traitsIcESaIcEED1Ev(ptr noundef nonnull align 8 dereferenceable(32) %blob_file_path) #19
  br label %return

ehcleanup68:                                      ; preds = %ehcleanup66, %lpad33, %lpad7
  %.pn.pn.pn = phi { ptr, i32 } [ %.pn.pn, %ehcleanup66 ], [ %45, %lpad33 ], [ %11, %lpad7 ]
  %55 = load ptr, ptr %file, align 8
  %cmp.not.i30 = icmp eq ptr %55, null
  br i1 %cmp.not.i30, label %_ZNSt10unique_ptrIN7rocksdb14FSWritableFileESt14default_deleteIS1_EED2Ev.exit34, label %_ZNKSt14default_deleteIN7rocksdb14FSWritableFileEEclEPS1_.exit.i31

_ZNKSt14default_deleteIN7rocksdb14FSWritableFileEEclEPS1_.exit.i31: ; preds = %ehcleanup68
  %vtable.i.i32 = load ptr, ptr %55, align 8
  %vfn.i.i33 = getelementptr inbounds ptr, ptr %vtable.i.i32, i64 1
  %56 = load ptr, ptr %vfn.i.i33, align 8
  call void %56(ptr noundef nonnull align 8 dereferenceable(33) %55) #19
  br label %_ZNSt10unique_ptrIN7rocksdb14FSWritableFileESt14default_deleteIS1_EED2Ev.exit34

_ZNSt10unique_ptrIN7rocksdb14FSWritableFileESt14default_deleteIS1_EED2Ev.exit34: ; preds = %ehcleanup68, %_ZNKSt14default_deleteIN7rocksdb14FSWritableFileEEclEPS1_.exit.i31
  store ptr null, ptr %file, align 8
  br label %ehcleanup70

ehcleanup70:                                      ; preds = %_ZNSt10unique_ptrIN7rocksdb14FSWritableFileESt14default_deleteIS1_EED2Ev.exit34, %lpad
  %.pn.pn.pn.pn = phi { ptr, i32 } [ %.pn.pn.pn, %_ZNSt10unique_ptrIN7rocksdb14FSWritableFileESt14default_deleteIS1_EED2Ev.exit34 ], [ %8, %lpad ]
  call void @_ZNSt7__cxx1112basic_stringIcSt11char_traitsIcESaIcEED1Ev(ptr noundef nonnull align 8 dereferenceable(32) %blob_file_path) #19
  resume { ptr, i32 } %.pn.pn.pn.pn

return:                                           ; preds = %_ZNSt10unique_ptrIN7rocksdb14FSWritableFileESt14default_deleteIS1_EED2Ev.exit, %if.then
  ret void
}

; Function Attrs: mustprogress nocallback nofree nounwind willreturn memory(argmem: readwrite)
declare void @llvm.memcpy.p0.p0.i64(ptr noalias nocapture writeonly, ptr noalias nocapture readonly, i64, i1 immarg) #5

; Function Attrs: nounwind
declare void @_ZNSt7__cxx1112basic_stringIcSt11char_traitsIcESaIcEEC1Ev(ptr noundef nonnull align 8 dereferenceable(32)) unnamed_addr #4

; Function Attrs: mustprogress uwtable
define void @_ZNK7rocksdb15BlobFileBuilder20CompressBlobIfNeededEPNS_5SliceEPNSt7__cxx1112basic_stringIcSt11char_traitsIcESaIcEEE(ptr noalias sret(%"class.rocksdb::Status") align 8 %agg.result, ptr nocapture noundef nonnull readonly align 8 dereferenceable(264) %this, ptr noundef %blob, ptr noundef %compressed_blob) local_unnamed_addr #2 align 2 personality ptr @__gxx_personality_v0 {
entry:
  %opts = alloca %"struct.rocksdb::CompressionOptions", align 16
  %context = alloca %"class.rocksdb::CompressionContext", align 8
  %info = alloca %"class.rocksdb::CompressionInfo", align 8
  %stop_watch = alloca %"class.rocksdb::StopWatch", align 8
  %ref.tmp = alloca %"class.rocksdb::Slice", align 8
  %ref.tmp12 = alloca %"class.rocksdb::Slice", align 8
  %blob_compression_type_ = getelementptr inbounds %"class.rocksdb::BlobFileBuilder", ptr %this, i64 0, i32 5
  %0 = load i8, ptr %blob_compression_type_, align 8
  %cmp = icmp eq i8 %0, 0
  br i1 %cmp, label %if.then, label %if.end

if.then:                                          ; preds = %entry
  %state_.i.i = getelementptr inbounds %"class.rocksdb::Status", ptr %agg.result, i64 0, i32 6
  store ptr null, ptr %state_.i.i, align 8, !alias.scope !22
  tail call void @llvm.memset.p0.i64(ptr noundef nonnull align 8 dereferenceable(6) %agg.result, i8 0, i64 6, i1 false), !alias.scope !22
  br label %return

if.end:                                           ; preds = %entry
  store <4 x i32> <i32 -14, i32 32767, i32 0, i32 0>, ptr %opts, align 16
  %zstd_max_train_bytes.i = getelementptr inbounds %"struct.rocksdb::CompressionOptions", ptr %opts, i64 0, i32 4
  store i32 0, ptr %zstd_max_train_bytes.i, align 16
  %parallel_threads.i = getelementptr inbounds %"struct.rocksdb::CompressionOptions", ptr %opts, i64 0, i32 5
  store i32 1, ptr %parallel_threads.i, align 4
  %enabled.i = getelementptr inbounds %"struct.rocksdb::CompressionOptions", ptr %opts, i64 0, i32 6
  store i8 0, ptr %enabled.i, align 8
  %max_dict_buffer_bytes.i = getelementptr inbounds %"struct.rocksdb::CompressionOptions", ptr %opts, i64 0, i32 8
  store i64 0, ptr %max_dict_buffer_bytes.i, align 16
  %use_zstd_dict_trainer.i = getelementptr inbounds %"struct.rocksdb::CompressionOptions", ptr %opts, i64 0, i32 9
  store i8 1, ptr %use_zstd_dict_trainer.i, align 8
  %max_compressed_bytes_per_kb.i = getelementptr inbounds %"struct.rocksdb::CompressionOptions", ptr %opts, i64 0, i32 11
  store i32 896, ptr %max_compressed_bytes_per_kb.i, align 4
  %checksum.i = getelementptr inbounds %"struct.rocksdb::CompressionOptions", ptr %opts, i64 0, i32 12
  store i8 0, ptr %checksum.i, align 16
  store ptr null, ptr %context, align 8
  call void @_ZN7rocksdb18CompressionContext19CreateNativeContextENS_15CompressionTypeEib(ptr noundef nonnull align 8 dereferenceable(8) %context, i8 noundef zeroext %0, i32 noundef 32767, i1 noundef zeroext false)
  %1 = load atomic i8, ptr @_ZGVZN7rocksdb15CompressionDict12GetEmptyDictEvE10empty_dict acquire, align 8
  %guard.uninitialized.i = icmp eq i8 %1, 0
  br i1 %guard.uninitialized.i, label %init.check.i, label %_ZN7rocksdb15CompressionDict12GetEmptyDictEv.exit, !prof !25

init.check.i:                                     ; preds = %if.end
  %2 = call i32 @__cxa_guard_acquire(ptr nonnull @_ZGVZN7rocksdb15CompressionDict12GetEmptyDictEvE10empty_dict) #19
  %tobool.not.i = icmp eq i32 %2, 0
  br i1 %tobool.not.i, label %_ZN7rocksdb15CompressionDict12GetEmptyDictEv.exit, label %init.i

init.i:                                           ; preds = %init.check.i
  call void @llvm.memset.p0.i64(ptr noundef nonnull align 8 dereferenceable(40) @_ZZN7rocksdb15CompressionDict12GetEmptyDictEvE10empty_dict, i8 0, i64 40, i1 false)
  call void @_ZNSt7__cxx1112basic_stringIcSt11char_traitsIcESaIcEEC1Ev(ptr noundef nonnull align 8 dereferenceable(32) getelementptr inbounds (%"struct.rocksdb::CompressionDict", ptr @_ZZN7rocksdb15CompressionDict12GetEmptyDictEvE10empty_dict, i64 0, i32 1)) #19
  %3 = call i32 @__cxa_atexit(ptr nonnull @_ZN7rocksdb15CompressionDictD2Ev, ptr nonnull @_ZZN7rocksdb15CompressionDict12GetEmptyDictEvE10empty_dict, ptr nonnull @__dso_handle) #19
  call void @__cxa_guard_release(ptr nonnull @_ZGVZN7rocksdb15CompressionDict12GetEmptyDictEvE10empty_dict) #19
  br label %_ZN7rocksdb15CompressionDict12GetEmptyDictEv.exit

_ZN7rocksdb15CompressionDict12GetEmptyDictEv.exit: ; preds = %if.end, %init.check.i, %init.i
  %4 = load i8, ptr %blob_compression_type_, align 8
  store ptr %opts, ptr %info, align 8
  %context_.i = getelementptr inbounds %"class.rocksdb::CompressionInfo", ptr %info, i64 0, i32 1
  store ptr %context, ptr %context_.i, align 8
  %dict_.i = getelementptr inbounds %"class.rocksdb::CompressionInfo", ptr %info, i64 0, i32 2
  store ptr @_ZZN7rocksdb15CompressionDict12GetEmptyDictEvE10empty_dict, ptr %dict_.i, align 8
  %type_.i = getelementptr inbounds %"class.rocksdb::CompressionInfo", ptr %info, i64 0, i32 3
  store i8 %4, ptr %type_.i, align 8
  %sample_for_compression_.i = getelementptr inbounds %"class.rocksdb::CompressionInfo", ptr %info, i64 0, i32 4
  store i64 0, ptr %sample_for_compression_.i, align 8
  %immutable_options_ = getelementptr inbounds %"class.rocksdb::BlobFileBuilder", ptr %this, i64 0, i32 2
  %5 = load ptr, ptr %immutable_options_, align 8
  %clock = getelementptr inbounds %"struct.rocksdb::ImmutableDBOptions", ptr %5, i64 0, i32 88
  %6 = load ptr, ptr %clock, align 8
  %stats = getelementptr inbounds %"struct.rocksdb::ImmutableDBOptions", ptr %5, i64 0, i32 89
  %7 = load ptr, ptr %stats, align 8
  store ptr %6, ptr %stop_watch, align 8
  %statistics_.i = getelementptr inbounds %"class.rocksdb::StopWatch", ptr %stop_watch, i64 0, i32 1
  store ptr %7, ptr %statistics_.i, align 8
  %hist_type_1_.i = getelementptr inbounds %"class.rocksdb::StopWatch", ptr %stop_watch, i64 0, i32 2
  %tobool.not.i6 = icmp eq ptr %7, null
  br i1 %tobool.not.i6, label %cond.end10.thread.i, label %land.lhs.true15.i

cond.end10.thread.i:                              ; preds = %_ZN7rocksdb15CompressionDict12GetEmptyDictEv.exit
  store i32 60, ptr %hist_type_1_.i, align 8
  %hist_type_2_13.i = getelementptr inbounds %"class.rocksdb::StopWatch", ptr %stop_watch, i64 0, i32 3
  store i32 60, ptr %hist_type_2_13.i, align 4
  %elapsed_17.i = getelementptr inbounds %"class.rocksdb::StopWatch", ptr %stop_watch, i64 0, i32 4
  store ptr null, ptr %elapsed_17.i, align 8
  %overwrite_18.i = getelementptr inbounds %"class.rocksdb::StopWatch", ptr %stop_watch, i64 0, i32 5
  store i8 1, ptr %overwrite_18.i, align 8
  br label %land.end.i.thread

land.lhs.true15.i:                                ; preds = %_ZN7rocksdb15CompressionDict12GetEmptyDictEv.exit
  %vtable.i = load ptr, ptr %7, align 8
  %vfn.i = getelementptr inbounds ptr, ptr %vtable.i, i64 31
  %8 = load ptr, ptr %vfn.i, align 8
  %call.i7 = invoke noundef zeroext i1 %8(ptr noundef nonnull align 8 dereferenceable(33) %7, i32 noundef 46)
          to label %call.i.noexc unwind label %lpad

call.i.noexc:                                     ; preds = %land.lhs.true15.i
  %spec.select.i = select i1 %call.i7, i32 46, i32 60
  store i32 %spec.select.i, ptr %hist_type_1_.i, align 8
  %vtable5.i = load ptr, ptr %7, align 8
  %vfn6.i = getelementptr inbounds ptr, ptr %vtable5.i, i64 31
  %9 = load ptr, ptr %vfn6.i, align 8
  %call7.i8 = invoke noundef zeroext i1 %9(ptr noundef nonnull align 8 dereferenceable(33) %7, i32 noundef 60)
          to label %call7.i.noexc unwind label %lpad

call7.i.noexc:                                    ; preds = %call.i.noexc
  %hist_type_2_.i = getelementptr inbounds %"class.rocksdb::StopWatch", ptr %stop_watch, i64 0, i32 3
  store i32 60, ptr %hist_type_2_.i, align 4
  %elapsed_.i = getelementptr inbounds %"class.rocksdb::StopWatch", ptr %stop_watch, i64 0, i32 4
  store ptr null, ptr %elapsed_.i, align 8
  %overwrite_.i = getelementptr inbounds %"class.rocksdb::StopWatch", ptr %stop_watch, i64 0, i32 5
  store i8 1, ptr %overwrite_.i, align 8
  %stats_level_.i.i = getelementptr inbounds %"class.rocksdb::Statistics", ptr %7, i64 0, i32 1
  %10 = load atomic i8, ptr %stats_level_.i.i monotonic, align 1
  %cmp.i = icmp ugt i8 %10, 2
  %or.cond.not = and i1 %cmp.i, %call.i7
  br i1 %or.cond.not, label %cond.true27.i, label %land.end.i.thread

land.end.i.thread:                                ; preds = %call7.i.noexc, %cond.end10.thread.i
  %stats_enabled_20.i15 = getelementptr inbounds %"class.rocksdb::StopWatch", ptr %stop_watch, i64 0, i32 6
  store i8 0, ptr %stats_enabled_20.i15, align 1
  %delay_enabled_.i16 = getelementptr inbounds %"class.rocksdb::StopWatch", ptr %stop_watch, i64 0, i32 7
  store i8 0, ptr %delay_enabled_.i16, align 2
  %total_delay_.i17 = getelementptr inbounds %"class.rocksdb::StopWatch", ptr %stop_watch, i64 0, i32 8
  call void @llvm.memset.p0.i64(ptr noundef nonnull align 8 dereferenceable(16) %total_delay_.i17, i8 0, i64 16, i1 false)
  br label %invoke.cont6

cond.true27.i:                                    ; preds = %call7.i.noexc
  %stats_enabled_20.i = getelementptr inbounds %"class.rocksdb::StopWatch", ptr %stop_watch, i64 0, i32 6
  store i8 1, ptr %stats_enabled_20.i, align 1
  %delay_enabled_.i = getelementptr inbounds %"class.rocksdb::StopWatch", ptr %stop_watch, i64 0, i32 7
  store i8 0, ptr %delay_enabled_.i, align 2
  %total_delay_.i = getelementptr inbounds %"class.rocksdb::StopWatch", ptr %stop_watch, i64 0, i32 8
  call void @llvm.memset.p0.i64(ptr noundef nonnull align 8 dereferenceable(16) %total_delay_.i, i8 0, i64 16, i1 false)
  %vtable28.i = load ptr, ptr %6, align 8
  %vfn29.i = getelementptr inbounds ptr, ptr %vtable28.i, i64 19
  %11 = load ptr, ptr %vfn29.i, align 8
  %call30.i9 = invoke noundef i64 %11(ptr noundef nonnull align 8 dereferenceable(32) %6)
          to label %invoke.cont6 unwind label %lpad

invoke.cont6:                                     ; preds = %land.end.i.thread, %cond.true27.i
  %cond33.i = phi i64 [ 0, %land.end.i.thread ], [ %call30.i9, %cond.true27.i ]
  %start_time_.i = getelementptr inbounds %"class.rocksdb::StopWatch", ptr %stop_watch, i64 0, i32 10
  store i64 %cond33.i, ptr %start_time_.i, align 8
  %call9 = invoke noundef zeroext i1 @_ZN7rocksdb12CompressDataERKNS_5SliceERKNS_15CompressionInfoEjPNSt7__cxx1112basic_stringIcSt11char_traitsIcESaIcEEE(ptr noundef nonnull align 8 dereferenceable(16) %blob, ptr noundef nonnull align 8 dereferenceable(40) %info, i32 noundef 2, ptr noundef %compressed_blob)
          to label %invoke.cont8 unwind label %lpad7

invoke.cont8:                                     ; preds = %invoke.cont6
  call void @_ZN7rocksdb9StopWatchD2Ev(ptr noundef nonnull align 8 dereferenceable(64) %stop_watch) #19
  br i1 %call9, label %if.end15, label %if.then10

if.then10:                                        ; preds = %invoke.cont8
  store ptr @.str.2, ptr %ref.tmp, align 8
  %size_.i = getelementptr inbounds %"class.rocksdb::Slice", ptr %ref.tmp, i64 0, i32 1
  store i64 22, ptr %size_.i, align 8
  store ptr @.str.4, ptr %ref.tmp12, align 8
  %size_.i10 = getelementptr inbounds %"class.rocksdb::Slice", ptr %ref.tmp12, i64 0, i32 1
  store i64 0, ptr %size_.i10, align 8
  invoke void @_ZN7rocksdb6StatusC2ENS0_4CodeENS0_7SubCodeERKNS_5SliceES5_NS0_8SeverityE(ptr noundef nonnull align 8 dereferenceable(16) %agg.result, i8 noundef zeroext 2, i8 noundef zeroext 0, ptr noundef nonnull align 8 dereferenceable(16) %ref.tmp, ptr noundef nonnull align 8 dereferenceable(16) %ref.tmp12, i8 noundef zeroext 0)
          to label %cleanup unwind label %lpad

lpad:                                             ; preds = %if.then10, %cond.true27.i, %call.i.noexc, %land.lhs.true15.i
  %12 = landingpad { ptr, i32 }
          cleanup
  br label %ehcleanup

lpad7:                                            ; preds = %invoke.cont6
  %13 = landingpad { ptr, i32 }
          cleanup
  call void @_ZN7rocksdb9StopWatchD2Ev(ptr noundef nonnull align 8 dereferenceable(64) %stop_watch) #19
  br label %ehcleanup

if.end15:                                         ; preds = %invoke.cont8
  %call.i11 = call noundef ptr @_ZNKSt7__cxx1112basic_stringIcSt11char_traitsIcESaIcEE4dataEv(ptr noundef nonnull align 8 dereferenceable(32) %compressed_blob) #19
  %call2.i = call noundef i64 @_ZNKSt7__cxx1112basic_stringIcSt11char_traitsIcESaIcEE4sizeEv(ptr noundef nonnull align 8 dereferenceable(32) %compressed_blob) #19
  store ptr %call.i11, ptr %blob, align 8
  %ref.tmp16.sroa.2.0.blob.sroa_idx = getelementptr inbounds i8, ptr %blob, i64 8
  store i64 %call2.i, ptr %ref.tmp16.sroa.2.0.blob.sroa_idx, align 8
  %state_.i.i13 = getelementptr inbounds %"class.rocksdb::Status", ptr %agg.result, i64 0, i32 6
  store ptr null, ptr %state_.i.i13, align 8, !alias.scope !26
  call void @llvm.memset.p0.i64(ptr noundef nonnull align 8 dereferenceable(6) %agg.result, i8 0, i64 6, i1 false), !alias.scope !26
  br label %cleanup

cleanup:                                          ; preds = %if.then10, %if.end15
  %14 = load ptr, ptr %context, align 8
  %cmp.not.i.i = icmp eq ptr %14, null
  br i1 %cmp.not.i.i, label %return, label %if.then.i.i

if.then.i.i:                                      ; preds = %cleanup
  %call.i1.i = invoke i64 @ZSTD_freeCCtx(ptr noundef nonnull %14)
          to label %return unwind label %terminate.lpad.i

terminate.lpad.i:                                 ; preds = %if.then.i.i
  %15 = landingpad { ptr, i32 }
          catch ptr null
  %16 = extractvalue { ptr, i32 } %15, 0
  call void @__clang_call_terminate(ptr %16) #20
  unreachable

ehcleanup:                                        ; preds = %lpad7, %lpad
  %.pn = phi { ptr, i32 } [ %12, %lpad ], [ %13, %lpad7 ]
  call void @_ZN7rocksdb18CompressionContextD2Ev(ptr noundef nonnull align 8 dereferenceable(8) %context) #19
  resume { ptr, i32 } %.pn

return:                                           ; preds = %if.then.i.i, %cleanup, %if.then
  ret void
}

; Function Attrs: mustprogress uwtable
define void @_ZN7rocksdb15BlobFileBuilder15WriteBlobToFileERKNS_5SliceES3_PmS4_(ptr noalias writeonly sret(%"class.rocksdb::Status") align 8 %agg.result, ptr nocapture noundef nonnull align 8 dereferenceable(264) %this, ptr noundef nonnull align 8 dereferenceable(16) %key, ptr noundef nonnull align 8 dereferenceable(16) %blob, ptr nocapture noundef writeonly %blob_file_number, ptr noundef %blob_offset) local_unnamed_addr #2 align 2 personality ptr @__gxx_personality_v0 {
invoke.cont:
  %key_offset = alloca i64, align 8
  %s = alloca %"class.rocksdb::Status", align 8
  store i64 0, ptr %key_offset, align 8
  %writer_ = getelementptr inbounds %"class.rocksdb::BlobFileBuilder", ptr %this, i64 0, i32 20
  %0 = load ptr, ptr %writer_, align 8
  call void @_ZN7rocksdb13BlobLogWriter9AddRecordERKNS_5SliceES3_PmS4_(ptr nonnull sret(%"class.rocksdb::Status") align 8 %s, ptr noundef nonnull align 8 dereferenceable(48) %0, ptr noundef nonnull align 8 dereferenceable(16) %key, ptr noundef nonnull align 8 dereferenceable(16) %blob, ptr noundef nonnull %key_offset, ptr noundef %blob_offset)
  %1 = load i8, ptr %s, align 8
  %cmp.i = icmp eq i8 %1, 0
  br i1 %cmp.i, label %if.end, label %if.then

if.then:                                          ; preds = %invoke.cont
  %state_.i.i = getelementptr inbounds %"class.rocksdb::Status", ptr %agg.result, i64 0, i32 6
  store ptr null, ptr %state_.i.i, align 8
  call void @llvm.memset.p0.i64(ptr noundef nonnull align 8 dereferenceable(6) %agg.result, i8 0, i64 6, i1 false)
  %cmp.not.i.i = icmp eq ptr %s, %agg.result
  br i1 %cmp.not.i.i, label %cleanup, label %if.then.i.i

if.then.i.i:                                      ; preds = %if.then
  store i8 %1, ptr %agg.result, align 8
  %subcode_.i.i = getelementptr inbounds %"class.rocksdb::Status", ptr %s, i64 0, i32 1
  %2 = load i8, ptr %subcode_.i.i, align 1
  %subcode_4.i.i = getelementptr inbounds %"class.rocksdb::Status", ptr %agg.result, i64 0, i32 1
  store i8 %2, ptr %subcode_4.i.i, align 1
  %sev_.i.i = getelementptr inbounds %"class.rocksdb::Status", ptr %s, i64 0, i32 2
  %3 = load i8, ptr %sev_.i.i, align 2
  %sev_6.i.i = getelementptr inbounds %"class.rocksdb::Status", ptr %agg.result, i64 0, i32 2
  store i8 %3, ptr %sev_6.i.i, align 2
  %retryable_.i.i = getelementptr inbounds %"class.rocksdb::Status", ptr %s, i64 0, i32 3
  %4 = load i8, ptr %retryable_.i.i, align 1
  %5 = and i8 %4, 1
  %retryable_8.i.i = getelementptr inbounds %"class.rocksdb::Status", ptr %agg.result, i64 0, i32 3
  store i8 %5, ptr %retryable_8.i.i, align 1
  store <4 x i8> zeroinitializer, ptr %s, align 8
  %data_loss_.i.i = getelementptr inbounds %"class.rocksdb::Status", ptr %s, i64 0, i32 4
  %6 = load i8, ptr %data_loss_.i.i, align 4
  %7 = and i8 %6, 1
  %data_loss_11.i.i = getelementptr inbounds %"class.rocksdb::Status", ptr %agg.result, i64 0, i32 4
  store i8 %7, ptr %data_loss_11.i.i, align 4
  store i8 0, ptr %data_loss_.i.i, align 4
  %scope_.i.i = getelementptr inbounds %"class.rocksdb::Status", ptr %s, i64 0, i32 5
  %8 = load i8, ptr %scope_.i.i, align 1
  %scope_14.i.i = getelementptr inbounds %"class.rocksdb::Status", ptr %agg.result, i64 0, i32 5
  store i8 %8, ptr %scope_14.i.i, align 1
  store i8 0, ptr %scope_.i.i, align 1
  %state_.i2.i = getelementptr inbounds %"class.rocksdb::Status", ptr %s, i64 0, i32 6
  %9 = load ptr, ptr %state_.i2.i, align 8
  store ptr null, ptr %state_.i2.i, align 8
  store ptr %9, ptr %state_.i.i, align 8
  br label %cleanup

if.end:                                           ; preds = %invoke.cont
  %10 = load ptr, ptr %writer_, align 8
  %log_number_.i = getelementptr inbounds %"class.rocksdb::BlobLogWriter", ptr %10, i64 0, i32 3
  %11 = load i64, ptr %log_number_.i, align 8
  store i64 %11, ptr %blob_file_number, align 8
  %blob_count_ = getelementptr inbounds %"class.rocksdb::BlobFileBuilder", ptr %this, i64 0, i32 21
  %12 = load i64, ptr %blob_count_, align 8
  %inc = add i64 %12, 1
  store i64 %inc, ptr %blob_count_, align 8
  %size_.i = getelementptr inbounds %"class.rocksdb::Slice", ptr %key, i64 0, i32 1
  %13 = load i64, ptr %size_.i, align 8
  %add = add i64 %13, 32
  %size_.i4 = getelementptr inbounds %"class.rocksdb::Slice", ptr %blob, i64 0, i32 1
  %14 = load i64, ptr %size_.i4, align 8
  %add11 = add i64 %add, %14
  %blob_bytes_ = getelementptr inbounds %"class.rocksdb::BlobFileBuilder", ptr %this, i64 0, i32 22
  %15 = load i64, ptr %blob_bytes_, align 8
  %add12 = add i64 %add11, %15
  store i64 %add12, ptr %blob_bytes_, align 8
  %state_.i.i5 = getelementptr inbounds %"class.rocksdb::Status", ptr %agg.result, i64 0, i32 6
  store ptr null, ptr %state_.i.i5, align 8, !alias.scope !29
  call void @llvm.memset.p0.i64(ptr noundef nonnull align 8 dereferenceable(6) %agg.result, i8 0, i64 6, i1 false), !alias.scope !29
  br label %cleanup

cleanup:                                          ; preds = %if.then, %if.then.i.i, %if.end
  %state_.i6 = getelementptr inbounds %"class.rocksdb::Status", ptr %s, i64 0, i32 6
  %16 = load ptr, ptr %state_.i6, align 8
  %cmp.not.i.i7 = icmp eq ptr %16, null
  br i1 %cmp.not.i.i7, label %_ZN7rocksdb6StatusD2Ev.exit9, label %_ZNKSt14default_deleteIA_KcEclIS0_EENSt9enable_ifIXsr14is_convertibleIPA_T_PS1_EE5valueEvE4typeEPS5_.exit.i.i8

_ZNKSt14default_deleteIA_KcEclIS0_EENSt9enable_ifIXsr14is_convertibleIPA_T_PS1_EE5valueEvE4typeEPS5_.exit.i.i8: ; preds = %cleanup
  call void @_ZdaPv(ptr noundef nonnull %16) #18
  br label %_ZN7rocksdb6StatusD2Ev.exit9

_ZN7rocksdb6StatusD2Ev.exit9:                     ; preds = %cleanup, %_ZNKSt14default_deleteIA_KcEclIS0_EENSt9enable_ifIXsr14is_convertibleIPA_T_PS1_EE5valueEvE4typeEPS5_.exit.i.i8
  ret void
}

; Function Attrs: mustprogress uwtable
define void @_ZN7rocksdb15BlobFileBuilder21CloseBlobFileIfNeededEv(ptr noalias sret(%"class.rocksdb::Status") align 8 %agg.result, ptr noundef nonnull align 8 dereferenceable(264) %this) local_unnamed_addr #2 align 2 personality ptr @__gxx_personality_v0 {
entry:
  %writer_ = getelementptr inbounds %"class.rocksdb::BlobFileBuilder", ptr %this, i64 0, i32 20
  %0 = load ptr, ptr %writer_, align 8
  %1 = load ptr, ptr %0, align 8
  %filesize_.i = getelementptr inbounds %"class.rocksdb::WritableFileWriter", ptr %1, i64 0, i32 5
  %2 = load atomic i64, ptr %filesize_.i acquire, align 8
  %blob_file_size_ = getelementptr inbounds %"class.rocksdb::BlobFileBuilder", ptr %this, i64 0, i32 4
  %3 = load i64, ptr %blob_file_size_, align 8
  %cmp = icmp ult i64 %2, %3
  br i1 %cmp, label %if.then, label %if.end

if.then:                                          ; preds = %entry
  %state_.i.i = getelementptr inbounds %"class.rocksdb::Status", ptr %agg.result, i64 0, i32 6
  store ptr null, ptr %state_.i.i, align 8, !alias.scope !32
  tail call void @llvm.memset.p0.i64(ptr noundef nonnull align 8 dereferenceable(6) %agg.result, i8 0, i64 6, i1 false), !alias.scope !32
  br label %return

if.end:                                           ; preds = %entry
  tail call void @_ZN7rocksdb15BlobFileBuilder13CloseBlobFileEv(ptr sret(%"class.rocksdb::Status") align 8 %agg.result, ptr noundef nonnull align 8 dereferenceable(264) %this)
  br label %return

return:                                           ; preds = %if.end, %if.then
  ret void
}

; Function Attrs: mustprogress uwtable
define void @_ZNK7rocksdb15BlobFileBuilder24PutBlobIntoCacheIfNeededERKNS_5SliceEmm(ptr noalias sret(%"class.rocksdb::Status") align 8 %agg.result, ptr noundef nonnull align 8 dereferenceable(264) %this, ptr noundef nonnull align 8 dereferenceable(16) %blob, i64 noundef %blob_file_number, i64 noundef %blob_offset) local_unnamed_addr #2 align 2 personality ptr @__gxx_personality_v0 {
entry:
  %blob_cache = alloca %"class.rocksdb::FullTypedCacheInterface", align 8
  %base_cache_key = alloca %"class.rocksdb::OffsetableCacheKey", align 8
  %cache_key = alloca %"class.rocksdb::CacheKey", align 8
  %key = alloca %"class.rocksdb::Slice", align 8
  %ref.tmp = alloca %"class.rocksdb::Status", align 8
  %state_.i.i = getelementptr inbounds %"class.rocksdb::Status", ptr %agg.result, i64 0, i32 6
  store ptr null, ptr %state_.i.i, align 8, !alias.scope !35
  tail call void @llvm.memset.p0.i64(ptr noundef nonnull align 8 dereferenceable(6) %agg.result, i8 0, i64 6, i1 false), !alias.scope !35
  %immutable_options_ = getelementptr inbounds %"class.rocksdb::BlobFileBuilder", ptr %this, i64 0, i32 2
  %0 = load ptr, ptr %immutable_options_, align 8
  %blob_cache2 = getelementptr inbounds i8, ptr %0, i64 840
  %1 = load ptr, ptr %blob_cache2, align 8
  %_M_refcount3.i.i = getelementptr inbounds i8, ptr %0, i64 848
  %2 = load ptr, ptr %_M_refcount3.i.i, align 8
  %cmp.not.i.i.i = icmp eq ptr %2, null
  br i1 %cmp.not.i.i.i, label %_ZNSt10shared_ptrIN7rocksdb5CacheEED2Ev.exit, label %if.then.i.i.i

if.then.i.i.i:                                    ; preds = %entry
  %_M_use_count.i.i.i.i = getelementptr inbounds %"class.std::_Sp_counted_base", ptr %2, i64 0, i32 1
  %3 = load i8, ptr @__libc_single_threaded, align 1
  %tobool.i.not.i.i.i.i = icmp eq i8 %3, 0
  br i1 %tobool.i.not.i.i.i.i, label %if.else.i.i.i.i.i, label %if.then.i.i.i.i.i

if.then.i.i.i.i.i:                                ; preds = %if.then.i.i.i
  %4 = load i32, ptr %_M_use_count.i.i.i.i, align 4
  %add.i.i.i.i.i = add nsw i32 %4, 1
  store i32 %add.i.i.i.i.i, ptr %_M_use_count.i.i.i.i, align 4
  br label %_ZNSt10shared_ptrIN7rocksdb5CacheEED2Ev.exit

if.else.i.i.i.i.i:                                ; preds = %if.then.i.i.i
  %5 = atomicrmw volatile add ptr %_M_use_count.i.i.i.i, i32 1 acq_rel, align 4
  br label %_ZNSt10shared_ptrIN7rocksdb5CacheEED2Ev.exit

_ZNSt10shared_ptrIN7rocksdb5CacheEED2Ev.exit:     ; preds = %entry, %if.then.i.i.i.i.i, %if.else.i.i.i.i.i
  store ptr %1, ptr %blob_cache, align 8
  %_M_refcount.i.i.i.i.i = getelementptr inbounds %"class.std::__shared_ptr.62", ptr %blob_cache, i64 0, i32 1
  store ptr %2, ptr %_M_refcount.i.i.i.i.i, align 8
  %6 = load ptr, ptr %immutable_options_, align 8
  %statistics4 = getelementptr inbounds %"struct.rocksdb::ImmutableDBOptions", ptr %6, i64 0, i32 15
  %7 = load ptr, ptr %statistics4, align 8
  %prepopulate_blob_cache_ = getelementptr inbounds %"class.rocksdb::BlobFileBuilder", ptr %this, i64 0, i32 6
  %8 = load i8, ptr %prepopulate_blob_cache_, align 1
  %cmp = icmp ne i8 %8, 1
  %creation_reason_ = getelementptr inbounds %"class.rocksdb::BlobFileBuilder", ptr %this, i64 0, i32 17
  %9 = load i32, ptr %creation_reason_, align 8
  %cmp5 = icmp ne i32 %9, 0
  %cmp.i.i.i.not = icmp eq ptr %1, null
  %10 = select i1 %cmp.i.i.i.not, i1 true, i1 %cmp
  %brmerge = select i1 %10, i1 true, i1 %cmp5
  br i1 %brmerge, label %if.end24, label %if.then

if.then:                                          ; preds = %_ZNSt10shared_ptrIN7rocksdb5CacheEED2Ev.exit
  %db_id_ = getelementptr inbounds %"class.rocksdb::BlobFileBuilder", ptr %this, i64 0, i32 8
  %db_session_id_ = getelementptr inbounds %"class.rocksdb::BlobFileBuilder", ptr %this, i64 0, i32 9
  invoke void @_ZN7rocksdb18OffsetableCacheKeyC1ERKNSt7__cxx1112basic_stringIcSt11char_traitsIcESaIcEEES8_m(ptr noundef nonnull align 8 dereferenceable(16) %base_cache_key, ptr noundef nonnull align 8 dereferenceable(32) %db_id_, ptr noundef nonnull align 8 dereferenceable(32) %db_session_id_, i64 noundef %blob_file_number)
          to label %invoke.cont11 unwind label %lpad7

invoke.cont11:                                    ; preds = %if.then
  %11 = load i64, ptr %base_cache_key, align 8
  %offset_etc64_.i = getelementptr inbounds %"class.rocksdb::CacheKey", ptr %base_cache_key, i64 0, i32 1
  %12 = load i64, ptr %offset_etc64_.i, align 8
  %xor.i = xor i64 %12, %blob_offset
  store i64 %11, ptr %cache_key, align 8
  %13 = getelementptr inbounds { i64, i64 }, ptr %cache_key, i64 0, i32 1
  store i64 %xor.i, ptr %13, align 8
  store ptr %cache_key, ptr %key, align 8
  %14 = getelementptr inbounds { ptr, i64 }, ptr %key, i64 0, i32 1
  store i64 16, ptr %14, align 8
  %15 = load ptr, ptr %immutable_options_, align 8
  %lowest_used_cache_tier = getelementptr inbounds %"struct.rocksdb::ImmutableDBOptions", ptr %15, i64 0, i32 85
  %16 = load i8, ptr %lowest_used_cache_tier, align 8
  invoke void @_ZN7rocksdb23FullTypedCacheInterfaceINS_12BlobContentsENS_19BlobContentsCreatorELNS_14CacheEntryRoleE11ESt10shared_ptrINS_5CacheEEE11InsertSavedERKNS_5SliceESA_PS2_NS5_8PriorityENS_9CacheTierEPm(ptr nonnull sret(%"class.rocksdb::Status") align 8 %ref.tmp, ptr noundef nonnull align 8 dereferenceable(17) %blob_cache, ptr noundef nonnull align 8 dereferenceable(16) %key, ptr noundef nonnull align 8 dereferenceable(16) %blob, ptr noundef null, i32 noundef 2, i8 noundef zeroext %16, ptr noundef null)
          to label %invoke.cont14 unwind label %lpad7

invoke.cont14:                                    ; preds = %invoke.cont11
  %cmp.not.i = icmp eq ptr %ref.tmp, %agg.result
  br i1 %cmp.not.i, label %_ZN7rocksdb6StatusaSEOS0_.exit, label %if.then.i

if.then.i:                                        ; preds = %invoke.cont14
  %17 = load i8, ptr %ref.tmp, align 8
  store i8 %17, ptr %agg.result, align 8
  %subcode_.i = getelementptr inbounds %"class.rocksdb::Status", ptr %ref.tmp, i64 0, i32 1
  %18 = load i8, ptr %subcode_.i, align 1
  %subcode_4.i = getelementptr inbounds %"class.rocksdb::Status", ptr %agg.result, i64 0, i32 1
  store i8 %18, ptr %subcode_4.i, align 1
  %sev_.i = getelementptr inbounds %"class.rocksdb::Status", ptr %ref.tmp, i64 0, i32 2
  %19 = load i8, ptr %sev_.i, align 2
  %sev_6.i = getelementptr inbounds %"class.rocksdb::Status", ptr %agg.result, i64 0, i32 2
  store i8 %19, ptr %sev_6.i, align 2
  %retryable_.i = getelementptr inbounds %"class.rocksdb::Status", ptr %ref.tmp, i64 0, i32 3
  %20 = load i8, ptr %retryable_.i, align 1
  %21 = and i8 %20, 1
  %retryable_8.i = getelementptr inbounds %"class.rocksdb::Status", ptr %agg.result, i64 0, i32 3
  store i8 %21, ptr %retryable_8.i, align 1
  store <4 x i8> zeroinitializer, ptr %ref.tmp, align 8
  %data_loss_.i = getelementptr inbounds %"class.rocksdb::Status", ptr %ref.tmp, i64 0, i32 4
  %22 = load i8, ptr %data_loss_.i, align 4
  %23 = and i8 %22, 1
  %data_loss_11.i = getelementptr inbounds %"class.rocksdb::Status", ptr %agg.result, i64 0, i32 4
  store i8 %23, ptr %data_loss_11.i, align 4
  store i8 0, ptr %data_loss_.i, align 4
  %scope_.i = getelementptr inbounds %"class.rocksdb::Status", ptr %ref.tmp, i64 0, i32 5
  %24 = load i8, ptr %scope_.i, align 1
  %scope_14.i = getelementptr inbounds %"class.rocksdb::Status", ptr %agg.result, i64 0, i32 5
  store i8 %24, ptr %scope_14.i, align 1
  store i8 0, ptr %scope_.i, align 1
  %state_.i = getelementptr inbounds %"class.rocksdb::Status", ptr %ref.tmp, i64 0, i32 6
  %25 = load ptr, ptr %state_.i, align 8
  store ptr null, ptr %state_.i, align 8
  %26 = load ptr, ptr %state_.i.i, align 8
  store ptr %25, ptr %state_.i.i, align 8
  %tobool.not.i.i.i.i.i = icmp eq ptr %26, null
  br i1 %tobool.not.i.i.i.i.i, label %_ZN7rocksdb6StatusaSEOS0_.exit, label %_ZNKSt14default_deleteIA_KcEclIS0_EENSt9enable_ifIXsr14is_convertibleIPA_T_PS1_EE5valueEvE4typeEPS5_.exit.i.i.i.i.i

_ZNKSt14default_deleteIA_KcEclIS0_EENSt9enable_ifIXsr14is_convertibleIPA_T_PS1_EE5valueEvE4typeEPS5_.exit.i.i.i.i.i: ; preds = %if.then.i
  call void @_ZdaPv(ptr noundef nonnull %26) #18
  br label %_ZN7rocksdb6StatusaSEOS0_.exit

_ZN7rocksdb6StatusaSEOS0_.exit:                   ; preds = %invoke.cont14, %if.then.i, %_ZNKSt14default_deleteIA_KcEclIS0_EENSt9enable_ifIXsr14is_convertibleIPA_T_PS1_EE5valueEvE4typeEPS5_.exit.i.i.i.i.i
  %state_.i14 = getelementptr inbounds %"class.rocksdb::Status", ptr %ref.tmp, i64 0, i32 6
  %27 = load ptr, ptr %state_.i14, align 8
  %cmp.not.i.i = icmp eq ptr %27, null
  br i1 %cmp.not.i.i, label %invoke.cont16, label %_ZNKSt14default_deleteIA_KcEclIS0_EENSt9enable_ifIXsr14is_convertibleIPA_T_PS1_EE5valueEvE4typeEPS5_.exit.i.i

_ZNKSt14default_deleteIA_KcEclIS0_EENSt9enable_ifIXsr14is_convertibleIPA_T_PS1_EE5valueEvE4typeEPS5_.exit.i.i: ; preds = %_ZN7rocksdb6StatusaSEOS0_.exit
  call void @_ZdaPv(ptr noundef nonnull %27) #18
  br label %invoke.cont16

invoke.cont16:                                    ; preds = %_ZNKSt14default_deleteIA_KcEclIS0_EENSt9enable_ifIXsr14is_convertibleIPA_T_PS1_EE5valueEvE4typeEPS5_.exit.i.i, %_ZN7rocksdb6StatusaSEOS0_.exit
  store ptr null, ptr %state_.i14, align 8
  %28 = load i8, ptr %agg.result, align 8
  %cmp.i = icmp eq i8 %28, 0
  %tobool.not.i = icmp eq ptr %7, null
  br i1 %cmp.i, label %if.then18, label %if.else

if.then18:                                        ; preds = %invoke.cont16
  br i1 %tobool.not.i, label %if.end24, label %if.then.i15

if.then.i15:                                      ; preds = %if.then18
  %vtable.i = load ptr, ptr %7, align 8
  %vfn.i = getelementptr inbounds ptr, ptr %vtable.i, i64 22
  %29 = load ptr, ptr %vfn.i, align 8
  invoke void %29(ptr noundef nonnull align 8 dereferenceable(33) %7, i32 noundef 184, i64 noundef 1)
          to label %if.then.i17 unwind label %lpad7

if.then.i17:                                      ; preds = %if.then.i15
  %size_.i = getelementptr inbounds %"class.rocksdb::Slice", ptr %blob, i64 0, i32 1
  %30 = load i64, ptr %size_.i, align 8
  br label %if.then.i23.invoke

lpad7:                                            ; preds = %if.then.i23.invoke, %if.then.i15, %invoke.cont11, %if.then
  %31 = landingpad { ptr, i32 }
          cleanup
  call void @_ZN7rocksdb23FullTypedCacheInterfaceINS_12BlobContentsENS_19BlobContentsCreatorELNS_14CacheEntryRoleE11ESt10shared_ptrINS_5CacheEEED2Ev(ptr noundef nonnull align 8 dereferenceable(17) %blob_cache) #19
  %32 = load ptr, ptr %state_.i.i, align 8
  %cmp.not.i.i31 = icmp eq ptr %32, null
  br i1 %cmp.not.i.i31, label %_ZN7rocksdb6StatusD2Ev.exit33, label %_ZNKSt14default_deleteIA_KcEclIS0_EENSt9enable_ifIXsr14is_convertibleIPA_T_PS1_EE5valueEvE4typeEPS5_.exit.i.i32

if.else:                                          ; preds = %invoke.cont16
  br i1 %tobool.not.i, label %if.end24, label %if.then.i23.invoke

if.then.i23.invoke:                               ; preds = %if.else, %if.then.i17
  %33 = phi i32 [ 187, %if.then.i17 ], [ 185, %if.else ]
  %34 = phi i64 [ %30, %if.then.i17 ], [ 1, %if.else ]
  %vtable.i18 = load ptr, ptr %7, align 8
  %vfn.i19 = getelementptr inbounds ptr, ptr %vtable.i18, i64 22
  %35 = load ptr, ptr %vfn.i19, align 8
  invoke void %35(ptr noundef nonnull align 8 dereferenceable(33) %7, i32 noundef %33, i64 noundef %34)
          to label %if.end24 unwind label %lpad7

if.end24:                                         ; preds = %if.then.i23.invoke, %if.then18, %if.else, %_ZNSt10shared_ptrIN7rocksdb5CacheEED2Ev.exit
  %36 = load ptr, ptr %_M_refcount.i.i.i.i.i, align 8
  %cmp.not.i.i.i.i.i.i = icmp eq ptr %36, null
  br i1 %cmp.not.i.i.i.i.i.i, label %_ZN7rocksdb23FullTypedCacheInterfaceINS_12BlobContentsENS_19BlobContentsCreatorELNS_14CacheEntryRoleE11ESt10shared_ptrINS_5CacheEEED2Ev.exit, label %if.then.i.i.i.i.i.i

if.then.i.i.i.i.i.i:                              ; preds = %if.end24
  %_M_use_count.i.i.i.i.i.i.i = getelementptr inbounds %"class.std::_Sp_counted_base", ptr %36, i64 0, i32 1
  %37 = load atomic i64, ptr %_M_use_count.i.i.i.i.i.i.i acquire, align 8
  %cmp.i.i.i.i.i.i.i = icmp eq i64 %37, 4294967297
  %38 = trunc i64 %37 to i32
  br i1 %cmp.i.i.i.i.i.i.i, label %if.then.i.i.i.i.i.i.i29, label %if.end.i.i.i.i.i.i.i

if.then.i.i.i.i.i.i.i29:                          ; preds = %if.then.i.i.i.i.i.i
  store i32 0, ptr %_M_use_count.i.i.i.i.i.i.i, align 8
  %_M_weak_count.i.i.i.i.i.i.i = getelementptr inbounds %"class.std::_Sp_counted_base", ptr %36, i64 0, i32 2
  store i32 0, ptr %_M_weak_count.i.i.i.i.i.i.i, align 4
  %vtable.i.i.i.i.i.i.i = load ptr, ptr %36, align 8
  %vfn.i.i.i.i.i.i.i = getelementptr inbounds ptr, ptr %vtable.i.i.i.i.i.i.i, i64 2
  %39 = load ptr, ptr %vfn.i.i.i.i.i.i.i, align 8
  call void %39(ptr noundef nonnull align 8 dereferenceable(16) %36) #19
  br label %if.end8.sink.split.i.i.i.i.i.i.i

if.end.i.i.i.i.i.i.i:                             ; preds = %if.then.i.i.i.i.i.i
  %40 = load i8, ptr @__libc_single_threaded, align 1
  %tobool.i.i.not.i.i.i.i.i.i.i = icmp eq i8 %40, 0
  br i1 %tobool.i.i.not.i.i.i.i.i.i.i, label %if.else.i.i.i.i.i.i.i.i, label %if.then.i.i.i.i.i.i.i.i

if.then.i.i.i.i.i.i.i.i:                          ; preds = %if.end.i.i.i.i.i.i.i
  %add.i.i.i.i.i.i.i.i = add nsw i32 %38, -1
  store i32 %add.i.i.i.i.i.i.i.i, ptr %_M_use_count.i.i.i.i.i.i.i, align 4
  br label %_ZN9__gnu_cxx27__exchange_and_add_dispatchEPii.exit.i.i.i.i.i.i.i

if.else.i.i.i.i.i.i.i.i:                          ; preds = %if.end.i.i.i.i.i.i.i
  %41 = atomicrmw volatile add ptr %_M_use_count.i.i.i.i.i.i.i, i32 -1 acq_rel, align 4
  br label %_ZN9__gnu_cxx27__exchange_and_add_dispatchEPii.exit.i.i.i.i.i.i.i

_ZN9__gnu_cxx27__exchange_and_add_dispatchEPii.exit.i.i.i.i.i.i.i: ; preds = %if.else.i.i.i.i.i.i.i.i, %if.then.i.i.i.i.i.i.i.i
  %retval.i.0.i.i.i.i.i.i.i = phi i32 [ %38, %if.then.i.i.i.i.i.i.i.i ], [ %41, %if.else.i.i.i.i.i.i.i.i ]
  %cmp6.i.i.i.i.i.i.i = icmp eq i32 %retval.i.0.i.i.i.i.i.i.i, 1
  br i1 %cmp6.i.i.i.i.i.i.i, label %if.then7.i.i.i.i.i.i.i, label %_ZN7rocksdb23FullTypedCacheInterfaceINS_12BlobContentsENS_19BlobContentsCreatorELNS_14CacheEntryRoleE11ESt10shared_ptrINS_5CacheEEED2Ev.exit

if.then7.i.i.i.i.i.i.i:                           ; preds = %_ZN9__gnu_cxx27__exchange_and_add_dispatchEPii.exit.i.i.i.i.i.i.i
  %vtable.i.i.i.i.i.i.i.i.i = load ptr, ptr %36, align 8
  %vfn.i.i.i.i.i.i.i.i.i = getelementptr inbounds ptr, ptr %vtable.i.i.i.i.i.i.i.i.i, i64 2
  %42 = load ptr, ptr %vfn.i.i.i.i.i.i.i.i.i, align 8
  call void %42(ptr noundef nonnull align 8 dereferenceable(16) %36) #19
  %_M_weak_count.i.i.i.i.i.i.i.i.i = getelementptr inbounds %"class.std::_Sp_counted_base", ptr %36, i64 0, i32 2
  %43 = load i8, ptr @__libc_single_threaded, align 1
  %tobool.i.i.not.i.i.i.i.i.i.i.i.i = icmp eq i8 %43, 0
  br i1 %tobool.i.i.not.i.i.i.i.i.i.i.i.i, label %if.else.i.i.i.i.i.i.i.i.i.i, label %if.then.i.i.i.i.i.i.i.i.i.i

if.then.i.i.i.i.i.i.i.i.i.i:                      ; preds = %if.then7.i.i.i.i.i.i.i
  %44 = load i32, ptr %_M_weak_count.i.i.i.i.i.i.i.i.i, align 4
  %add.i.i.i.i.i.i.i.i.i.i = add nsw i32 %44, -1
  store i32 %add.i.i.i.i.i.i.i.i.i.i, ptr %_M_weak_count.i.i.i.i.i.i.i.i.i, align 4
  br label %_ZN9__gnu_cxx27__exchange_and_add_dispatchEPii.exit.i.i.i.i.i.i.i.i.i

if.else.i.i.i.i.i.i.i.i.i.i:                      ; preds = %if.then7.i.i.i.i.i.i.i
  %45 = atomicrmw volatile add ptr %_M_weak_count.i.i.i.i.i.i.i.i.i, i32 -1 acq_rel, align 4
  br label %_ZN9__gnu_cxx27__exchange_and_add_dispatchEPii.exit.i.i.i.i.i.i.i.i.i

_ZN9__gnu_cxx27__exchange_and_add_dispatchEPii.exit.i.i.i.i.i.i.i.i.i: ; preds = %if.else.i.i.i.i.i.i.i.i.i.i, %if.then.i.i.i.i.i.i.i.i.i.i
  %retval.i.0.i.i.i.i.i.i.i.i.i = phi i32 [ %44, %if.then.i.i.i.i.i.i.i.i.i.i ], [ %45, %if.else.i.i.i.i.i.i.i.i.i.i ]
  %cmp.i.i.i.i.i.i.i.i.i = icmp eq i32 %retval.i.0.i.i.i.i.i.i.i.i.i, 1
  br i1 %cmp.i.i.i.i.i.i.i.i.i, label %if.end8.sink.split.i.i.i.i.i.i.i, label %_ZN7rocksdb23FullTypedCacheInterfaceINS_12BlobContentsENS_19BlobContentsCreatorELNS_14CacheEntryRoleE11ESt10shared_ptrINS_5CacheEEED2Ev.exit

if.end8.sink.split.i.i.i.i.i.i.i:                 ; preds = %_ZN9__gnu_cxx27__exchange_and_add_dispatchEPii.exit.i.i.i.i.i.i.i.i.i, %if.then.i.i.i.i.i.i.i29
  %vtable2.i.i.i.i.i.i.i.i.i = load ptr, ptr %36, align 8
  %vfn3.i.i.i.i.i.i.i.i.i = getelementptr inbounds ptr, ptr %vtable2.i.i.i.i.i.i.i.i.i, i64 3
  %46 = load ptr, ptr %vfn3.i.i.i.i.i.i.i.i.i, align 8
  call void %46(ptr noundef nonnull align 8 dereferenceable(16) %36) #19
  br label %_ZN7rocksdb23FullTypedCacheInterfaceINS_12BlobContentsENS_19BlobContentsCreatorELNS_14CacheEntryRoleE11ESt10shared_ptrINS_5CacheEEED2Ev.exit

_ZN7rocksdb23FullTypedCacheInterfaceINS_12BlobContentsENS_19BlobContentsCreatorELNS_14CacheEntryRoleE11ESt10shared_ptrINS_5CacheEEED2Ev.exit: ; preds = %if.end24, %_ZN9__gnu_cxx27__exchange_and_add_dispatchEPii.exit.i.i.i.i.i.i.i, %_ZN9__gnu_cxx27__exchange_and_add_dispatchEPii.exit.i.i.i.i.i.i.i.i.i, %if.end8.sink.split.i.i.i.i.i.i.i
  ret void

_ZNKSt14default_deleteIA_KcEclIS0_EENSt9enable_ifIXsr14is_convertibleIPA_T_PS1_EE5valueEvE4typeEPS5_.exit.i.i32: ; preds = %lpad7
  call void @_ZdaPv(ptr noundef nonnull %32) #18
  br label %_ZN7rocksdb6StatusD2Ev.exit33

_ZN7rocksdb6StatusD2Ev.exit33:                    ; preds = %lpad7, %_ZNKSt14default_deleteIA_KcEclIS0_EENSt9enable_ifIXsr14is_convertibleIPA_T_PS1_EE5valueEvE4typeEPS5_.exit.i.i32
  store ptr null, ptr %state_.i.i, align 8
  resume { ptr, i32 } %31
}

declare void @_ZN7rocksdb3LogENS_12InfoLogLevelERKSt10shared_ptrINS_6LoggerEEPKcz(i8 noundef zeroext, ptr noundef nonnull align 8 dereferenceable(16), ptr noundef, ...) local_unnamed_addr #3

declare void @_ZNK7rocksdb6Status8ToStringB5cxx11Ev(ptr sret(%"class.std::__cxx11::basic_string") align 8, ptr noundef nonnull align 8 dereferenceable(16)) local_unnamed_addr #3

; Function Attrs: nounwind
declare noundef ptr @_ZNKSt7__cxx1112basic_stringIcSt11char_traitsIcESaIcEE5c_strEv(ptr noundef nonnull align 8 dereferenceable(32)) local_unnamed_addr #4

; Function Attrs: mustprogress uwtable
define linkonce_odr void @_ZN7rocksdb9BlobIndex10EncodeBlobEPNSt7__cxx1112basic_stringIcSt11char_traitsIcESaIcEEEmmmNS_15CompressionTypeE(ptr noundef %dst, i64 noundef %file_number, i64 noundef %offset, i64 noundef %size, i8 noundef zeroext %compression) local_unnamed_addr #2 comdat align 2 {
entry:
  %buf.i25 = alloca [10 x i8], align 1
  %buf.i7 = alloca [10 x i8], align 1
  %buf.i = alloca [10 x i8], align 1
  tail call void @_ZNSt7__cxx1112basic_stringIcSt11char_traitsIcESaIcEE5clearEv(ptr noundef nonnull align 8 dereferenceable(32) %dst) #19
  tail call void @_ZNSt7__cxx1112basic_stringIcSt11char_traitsIcESaIcEE7reserveEm(ptr noundef nonnull align 8 dereferenceable(32) %dst, i64 noundef 32)
  tail call void @_ZNSt7__cxx1112basic_stringIcSt11char_traitsIcESaIcEE9push_backEc(ptr noundef nonnull align 8 dereferenceable(32) %dst, i8 noundef signext 1)
  call void @llvm.lifetime.start.p0(i64 10, ptr nonnull %buf.i)
  %cmp6.i.i = icmp ugt i64 %file_number, 127
  br i1 %cmp6.i.i, label %while.body.i.i, label %_ZN7rocksdb11PutVarint64EPNSt7__cxx1112basic_stringIcSt11char_traitsIcESaIcEEEm.exit

while.body.i.i:                                   ; preds = %entry, %while.body.i.i
  %ptr.08.i.i = phi ptr [ %incdec.ptr.i.i, %while.body.i.i ], [ %buf.i, %entry ]
  %v.addr.07.i.i = phi i64 [ %shr.i.i, %while.body.i.i ], [ %file_number, %entry ]
  %0 = trunc i64 %v.addr.07.i.i to i8
  %conv.i.i = or i8 %0, -128
  %incdec.ptr.i.i = getelementptr inbounds i8, ptr %ptr.08.i.i, i64 1
  store i8 %conv.i.i, ptr %ptr.08.i.i, align 1
  %shr.i.i = lshr i64 %v.addr.07.i.i, 7
  %cmp.i.i = icmp ugt i64 %v.addr.07.i.i, 16383
  br i1 %cmp.i.i, label %while.body.i.i, label %_ZN7rocksdb11PutVarint64EPNSt7__cxx1112basic_stringIcSt11char_traitsIcESaIcEEEm.exit, !llvm.loop !38

_ZN7rocksdb11PutVarint64EPNSt7__cxx1112basic_stringIcSt11char_traitsIcESaIcEEEm.exit: ; preds = %while.body.i.i, %entry
  %v.addr.0.lcssa.i.i = phi i64 [ %file_number, %entry ], [ %shr.i.i, %while.body.i.i ]
  %ptr.0.lcssa.i.i = phi ptr [ %buf.i, %entry ], [ %incdec.ptr.i.i, %while.body.i.i ]
  %conv1.i.i = trunc i64 %v.addr.0.lcssa.i.i to i8
  %incdec.ptr2.i.i = getelementptr inbounds i8, ptr %ptr.0.lcssa.i.i, i64 1
  store i8 %conv1.i.i, ptr %ptr.0.lcssa.i.i, align 1
  %sub.ptr.lhs.cast.i = ptrtoint ptr %incdec.ptr2.i.i to i64
  %sub.ptr.rhs.cast.i = ptrtoint ptr %buf.i to i64
  %sub.ptr.sub.i = sub i64 %sub.ptr.lhs.cast.i, %sub.ptr.rhs.cast.i
  %call3.i = call noundef nonnull align 8 dereferenceable(32) ptr @_ZNSt7__cxx1112basic_stringIcSt11char_traitsIcESaIcEE6appendEPKcm(ptr noundef nonnull align 8 dereferenceable(32) %dst, ptr noundef nonnull %buf.i, i64 noundef %sub.ptr.sub.i)
  call void @llvm.lifetime.end.p0(i64 10, ptr nonnull %buf.i)
  call void @llvm.lifetime.start.p0(i64 10, ptr nonnull %buf.i7)
  %cmp6.i.i8 = icmp ugt i64 %offset, 127
  br i1 %cmp6.i.i8, label %while.body.i.i17, label %_ZN7rocksdb11PutVarint64EPNSt7__cxx1112basic_stringIcSt11char_traitsIcESaIcEEEm.exit24

while.body.i.i17:                                 ; preds = %_ZN7rocksdb11PutVarint64EPNSt7__cxx1112basic_stringIcSt11char_traitsIcESaIcEEEm.exit, %while.body.i.i17
  %ptr.08.i.i18 = phi ptr [ %incdec.ptr.i.i21, %while.body.i.i17 ], [ %buf.i7, %_ZN7rocksdb11PutVarint64EPNSt7__cxx1112basic_stringIcSt11char_traitsIcESaIcEEEm.exit ]
  %v.addr.07.i.i19 = phi i64 [ %shr.i.i22, %while.body.i.i17 ], [ %offset, %_ZN7rocksdb11PutVarint64EPNSt7__cxx1112basic_stringIcSt11char_traitsIcESaIcEEEm.exit ]
  %1 = trunc i64 %v.addr.07.i.i19 to i8
  %conv.i.i20 = or i8 %1, -128
  %incdec.ptr.i.i21 = getelementptr inbounds i8, ptr %ptr.08.i.i18, i64 1
  store i8 %conv.i.i20, ptr %ptr.08.i.i18, align 1
  %shr.i.i22 = lshr i64 %v.addr.07.i.i19, 7
  %cmp.i.i23 = icmp ugt i64 %v.addr.07.i.i19, 16383
  br i1 %cmp.i.i23, label %while.body.i.i17, label %_ZN7rocksdb11PutVarint64EPNSt7__cxx1112basic_stringIcSt11char_traitsIcESaIcEEEm.exit24, !llvm.loop !38

_ZN7rocksdb11PutVarint64EPNSt7__cxx1112basic_stringIcSt11char_traitsIcESaIcEEEm.exit24: ; preds = %while.body.i.i17, %_ZN7rocksdb11PutVarint64EPNSt7__cxx1112basic_stringIcSt11char_traitsIcESaIcEEEm.exit
  %v.addr.0.lcssa.i.i9 = phi i64 [ %offset, %_ZN7rocksdb11PutVarint64EPNSt7__cxx1112basic_stringIcSt11char_traitsIcESaIcEEEm.exit ], [ %shr.i.i22, %while.body.i.i17 ]
  %ptr.0.lcssa.i.i10 = phi ptr [ %buf.i7, %_ZN7rocksdb11PutVarint64EPNSt7__cxx1112basic_stringIcSt11char_traitsIcESaIcEEEm.exit ], [ %incdec.ptr.i.i21, %while.body.i.i17 ]
  %conv1.i.i11 = trunc i64 %v.addr.0.lcssa.i.i9 to i8
  %incdec.ptr2.i.i12 = getelementptr inbounds i8, ptr %ptr.0.lcssa.i.i10, i64 1
  store i8 %conv1.i.i11, ptr %ptr.0.lcssa.i.i10, align 1
  %sub.ptr.lhs.cast.i13 = ptrtoint ptr %incdec.ptr2.i.i12 to i64
  %sub.ptr.rhs.cast.i14 = ptrtoint ptr %buf.i7 to i64
  %sub.ptr.sub.i15 = sub i64 %sub.ptr.lhs.cast.i13, %sub.ptr.rhs.cast.i14
  %call3.i16 = call noundef nonnull align 8 dereferenceable(32) ptr @_ZNSt7__cxx1112basic_stringIcSt11char_traitsIcESaIcEE6appendEPKcm(ptr noundef nonnull align 8 dereferenceable(32) %dst, ptr noundef nonnull %buf.i7, i64 noundef %sub.ptr.sub.i15)
  call void @llvm.lifetime.end.p0(i64 10, ptr nonnull %buf.i7)
  call void @llvm.lifetime.start.p0(i64 10, ptr nonnull %buf.i25)
  %cmp6.i.i26 = icmp ugt i64 %size, 127
  br i1 %cmp6.i.i26, label %while.body.i.i35, label %_ZN7rocksdb11PutVarint64EPNSt7__cxx1112basic_stringIcSt11char_traitsIcESaIcEEEm.exit42

while.body.i.i35:                                 ; preds = %_ZN7rocksdb11PutVarint64EPNSt7__cxx1112basic_stringIcSt11char_traitsIcESaIcEEEm.exit24, %while.body.i.i35
  %ptr.08.i.i36 = phi ptr [ %incdec.ptr.i.i39, %while.body.i.i35 ], [ %buf.i25, %_ZN7rocksdb11PutVarint64EPNSt7__cxx1112basic_stringIcSt11char_traitsIcESaIcEEEm.exit24 ]
  %v.addr.07.i.i37 = phi i64 [ %shr.i.i40, %while.body.i.i35 ], [ %size, %_ZN7rocksdb11PutVarint64EPNSt7__cxx1112basic_stringIcSt11char_traitsIcESaIcEEEm.exit24 ]
  %2 = trunc i64 %v.addr.07.i.i37 to i8
  %conv.i.i38 = or i8 %2, -128
  %incdec.ptr.i.i39 = getelementptr inbounds i8, ptr %ptr.08.i.i36, i64 1
  store i8 %conv.i.i38, ptr %ptr.08.i.i36, align 1
  %shr.i.i40 = lshr i64 %v.addr.07.i.i37, 7
  %cmp.i.i41 = icmp ugt i64 %v.addr.07.i.i37, 16383
  br i1 %cmp.i.i41, label %while.body.i.i35, label %_ZN7rocksdb11PutVarint64EPNSt7__cxx1112basic_stringIcSt11char_traitsIcESaIcEEEm.exit42, !llvm.loop !38

_ZN7rocksdb11PutVarint64EPNSt7__cxx1112basic_stringIcSt11char_traitsIcESaIcEEEm.exit42: ; preds = %while.body.i.i35, %_ZN7rocksdb11PutVarint64EPNSt7__cxx1112basic_stringIcSt11char_traitsIcESaIcEEEm.exit24
  %v.addr.0.lcssa.i.i27 = phi i64 [ %size, %_ZN7rocksdb11PutVarint64EPNSt7__cxx1112basic_stringIcSt11char_traitsIcESaIcEEEm.exit24 ], [ %shr.i.i40, %while.body.i.i35 ]
  %ptr.0.lcssa.i.i28 = phi ptr [ %buf.i25, %_ZN7rocksdb11PutVarint64EPNSt7__cxx1112basic_stringIcSt11char_traitsIcESaIcEEEm.exit24 ], [ %incdec.ptr.i.i39, %while.body.i.i35 ]
  %conv1.i.i29 = trunc i64 %v.addr.0.lcssa.i.i27 to i8
  %incdec.ptr2.i.i30 = getelementptr inbounds i8, ptr %ptr.0.lcssa.i.i28, i64 1
  store i8 %conv1.i.i29, ptr %ptr.0.lcssa.i.i28, align 1
  %sub.ptr.lhs.cast.i31 = ptrtoint ptr %incdec.ptr2.i.i30 to i64
  %sub.ptr.rhs.cast.i32 = ptrtoint ptr %buf.i25 to i64
  %sub.ptr.sub.i33 = sub i64 %sub.ptr.lhs.cast.i31, %sub.ptr.rhs.cast.i32
  %call3.i34 = call noundef nonnull align 8 dereferenceable(32) ptr @_ZNSt7__cxx1112basic_stringIcSt11char_traitsIcESaIcEE6appendEPKcm(ptr noundef nonnull align 8 dereferenceable(32) %dst, ptr noundef nonnull %buf.i25, i64 noundef %sub.ptr.sub.i33)
  call void @llvm.lifetime.end.p0(i64 10, ptr nonnull %buf.i25)
  call void @_ZNSt7__cxx1112basic_stringIcSt11char_traitsIcESaIcEE9push_backEc(ptr noundef nonnull align 8 dereferenceable(32) %dst, i8 noundef signext %compression)
  ret void
}

; Function Attrs: mustprogress uwtable
define void @_ZN7rocksdb15BlobFileBuilder6FinishEv(ptr noalias sret(%"class.rocksdb::Status") align 8 %agg.result, ptr noundef nonnull align 8 dereferenceable(264) %this) local_unnamed_addr #2 align 2 personality ptr @__gxx_personality_v0 {
entry:
  %writer_.i = getelementptr inbounds %"class.rocksdb::BlobFileBuilder", ptr %this, i64 0, i32 20
  %0 = load ptr, ptr %writer_.i, align 8
  %cmp.i.i.not = icmp eq ptr %0, null
  br i1 %cmp.i.i.not, label %if.then, label %if.end

if.then:                                          ; preds = %entry
  %state_.i.i = getelementptr inbounds %"class.rocksdb::Status", ptr %agg.result, i64 0, i32 6
  store ptr null, ptr %state_.i.i, align 8, !alias.scope !40
  tail call void @llvm.memset.p0.i64(ptr noundef nonnull align 8 dereferenceable(6) %agg.result, i8 0, i64 6, i1 false), !alias.scope !40
  br label %return

if.end:                                           ; preds = %entry
  tail call void @_ZN7rocksdb15BlobFileBuilder13CloseBlobFileEv(ptr sret(%"class.rocksdb::Status") align 8 %agg.result, ptr noundef nonnull align 8 dereferenceable(264) %this)
  br label %return

return:                                           ; preds = %if.end, %if.then
  ret void
}

; Function Attrs: mustprogress nofree norecurse nosync nounwind willreturn memory(argmem: read) uwtable
define noundef zeroext i1 @_ZNK7rocksdb15BlobFileBuilder14IsBlobFileOpenEv(ptr nocapture noundef nonnull readonly align 8 dereferenceable(264) %this) local_unnamed_addr #6 align 2 {
entry:
  %writer_ = getelementptr inbounds %"class.rocksdb::BlobFileBuilder", ptr %this, i64 0, i32 20
  %0 = load ptr, ptr %writer_, align 8
  %cmp.i = icmp ne ptr %0, null
  ret i1 %cmp.i
}

; Function Attrs: mustprogress uwtable
define void @_ZN7rocksdb15BlobFileBuilder13CloseBlobFileEv(ptr noalias sret(%"class.rocksdb::Status") align 8 %agg.result, ptr noundef nonnull align 8 dereferenceable(264) %this) local_unnamed_addr #2 align 2 personality ptr @__gxx_personality_v0 {
entry:
  %footer = alloca %"struct.rocksdb::BlobLogFooter", align 8
  %checksum_method = alloca %"class.std::__cxx11::basic_string", align 8
  %checksum_value = alloca %"class.std::__cxx11::basic_string", align 8
  %blob_file_number = alloca i64, align 8
  %ref.tmp = alloca %"class.rocksdb::Status", align 8
  %0 = getelementptr inbounds i8, ptr %footer, i64 8
  call void @llvm.memset.p0.i64(ptr noundef nonnull align 8 dereferenceable(28) %0, i8 0, i64 20, i1 false)
  %blob_count_ = getelementptr inbounds %"class.rocksdb::BlobFileBuilder", ptr %this, i64 0, i32 21
  %1 = load i64, ptr %blob_count_, align 8
  store i64 %1, ptr %footer, align 8
  call void @_ZNSt7__cxx1112basic_stringIcSt11char_traitsIcESaIcEEC1Ev(ptr noundef nonnull align 8 dereferenceable(32) %checksum_method) #19
  call void @_ZNSt7__cxx1112basic_stringIcSt11char_traitsIcESaIcEEC1Ev(ptr noundef nonnull align 8 dereferenceable(32) %checksum_value) #19
  %writer_ = getelementptr inbounds %"class.rocksdb::BlobFileBuilder", ptr %this, i64 0, i32 20
  %2 = load ptr, ptr %writer_, align 8
  invoke void @_ZN7rocksdb13BlobLogWriter12AppendFooterERNS_13BlobLogFooterEPNSt7__cxx1112basic_stringIcSt11char_traitsIcESaIcEEES9_(ptr sret(%"class.rocksdb::Status") align 8 %agg.result, ptr noundef nonnull align 8 dereferenceable(48) %2, ptr noundef nonnull align 8 dereferenceable(28) %footer, ptr noundef nonnull %checksum_method, ptr noundef nonnull %checksum_value)
          to label %invoke.cont3 unwind label %lpad

invoke.cont3:                                     ; preds = %entry
  %3 = load i8, ptr %agg.result, align 8
  %cmp.i = icmp eq i8 %3, 0
  br i1 %cmp.i, label %if.end, label %nrvo.skipdtor

lpad:                                             ; preds = %entry
  %4 = landingpad { ptr, i32 }
          cleanup
  br label %ehcleanup

lpad2:                                            ; preds = %invoke.cont18, %if.end15, %if.then9
  %5 = landingpad { ptr, i32 }
          cleanup
  %state_.i = getelementptr inbounds %"class.rocksdb::Status", ptr %agg.result, i64 0, i32 6
  %6 = load ptr, ptr %state_.i, align 8
  %cmp.not.i.i = icmp eq ptr %6, null
  br i1 %cmp.not.i.i, label %_ZN7rocksdb6StatusD2Ev.exit, label %_ZNKSt14default_deleteIA_KcEclIS0_EENSt9enable_ifIXsr14is_convertibleIPA_T_PS1_EE5valueEvE4typeEPS5_.exit.i.i

_ZNKSt14default_deleteIA_KcEclIS0_EENSt9enable_ifIXsr14is_convertibleIPA_T_PS1_EE5valueEvE4typeEPS5_.exit.i.i: ; preds = %lpad2
  call void @_ZdaPv(ptr noundef nonnull %6) #18
  br label %_ZN7rocksdb6StatusD2Ev.exit

_ZN7rocksdb6StatusD2Ev.exit:                      ; preds = %lpad2, %_ZNKSt14default_deleteIA_KcEclIS0_EENSt9enable_ifIXsr14is_convertibleIPA_T_PS1_EE5valueEvE4typeEPS5_.exit.i.i
  store ptr null, ptr %state_.i, align 8
  br label %ehcleanup

if.end:                                           ; preds = %invoke.cont3
  %7 = load ptr, ptr %writer_, align 8
  %log_number_.i = getelementptr inbounds %"class.rocksdb::BlobLogWriter", ptr %7, i64 0, i32 3
  %8 = load i64, ptr %log_number_.i, align 8
  store i64 %8, ptr %blob_file_number, align 8
  %blob_callback_ = getelementptr inbounds %"class.rocksdb::BlobFileBuilder", ptr %this, i64 0, i32 16
  %9 = load ptr, ptr %blob_callback_, align 8
  %tobool.not = icmp eq ptr %9, null
  br i1 %tobool.not, label %if.end15, label %if.then9

if.then9:                                         ; preds = %if.end
  %blob_file_paths_ = getelementptr inbounds %"class.rocksdb::BlobFileBuilder", ptr %this, i64 0, i32 18
  %10 = load ptr, ptr %blob_file_paths_, align 8
  %_M_finish.i.i = getelementptr inbounds %"struct.std::_Vector_base<std::__cxx11::basic_string<char>, std::allocator<std::__cxx11::basic_string<char>>>::_Vector_impl_data", ptr %10, i64 0, i32 1
  %11 = load ptr, ptr %_M_finish.i.i, align 8
  %add.ptr.i.i = getelementptr inbounds %"class.std::__cxx11::basic_string", ptr %11, i64 -1
  %column_family_name_ = getelementptr inbounds %"class.rocksdb::BlobFileBuilder", ptr %this, i64 0, i32 12
  %job_id_ = getelementptr inbounds %"class.rocksdb::BlobFileBuilder", ptr %this, i64 0, i32 10
  %12 = load i32, ptr %job_id_, align 8
  %creation_reason_ = getelementptr inbounds %"class.rocksdb::BlobFileBuilder", ptr %this, i64 0, i32 17
  %13 = load i32, ptr %creation_reason_, align 8
  %14 = load i64, ptr %blob_count_, align 8
  %blob_bytes_ = getelementptr inbounds %"class.rocksdb::BlobFileBuilder", ptr %this, i64 0, i32 22
  %15 = load i64, ptr %blob_bytes_, align 8
  invoke void @_ZN7rocksdb26BlobFileCompletionCallback19OnBlobFileCompletedERKNSt7__cxx1112basic_stringIcSt11char_traitsIcESaIcEEES8_imNS_22BlobFileCreationReasonERKNS_6StatusES8_S8_mm(ptr nonnull sret(%"class.rocksdb::Status") align 8 %ref.tmp, ptr noundef nonnull align 8 dereferenceable(88) %9, ptr noundef nonnull align 8 dereferenceable(32) %add.ptr.i.i, ptr noundef nonnull align 8 dereferenceable(32) %column_family_name_, i32 noundef %12, i64 noundef %8, i32 noundef %13, ptr noundef nonnull align 8 dereferenceable(16) %agg.result, ptr noundef nonnull align 8 dereferenceable(32) %checksum_value, ptr noundef nonnull align 8 dereferenceable(32) %checksum_method, i64 noundef %14, i64 noundef %15)
          to label %invoke.cont13 unwind label %lpad2

invoke.cont13:                                    ; preds = %if.then9
  %cmp.not.i = icmp eq ptr %ref.tmp, %agg.result
  br i1 %cmp.not.i, label %_ZN7rocksdb6StatusaSEOS0_.exit, label %if.then.i

if.then.i:                                        ; preds = %invoke.cont13
  %16 = load i8, ptr %ref.tmp, align 8
  store i8 %16, ptr %agg.result, align 8
  %subcode_.i = getelementptr inbounds %"class.rocksdb::Status", ptr %ref.tmp, i64 0, i32 1
  %17 = load i8, ptr %subcode_.i, align 1
  %subcode_4.i = getelementptr inbounds %"class.rocksdb::Status", ptr %agg.result, i64 0, i32 1
  store i8 %17, ptr %subcode_4.i, align 1
  %sev_.i = getelementptr inbounds %"class.rocksdb::Status", ptr %ref.tmp, i64 0, i32 2
  %18 = load i8, ptr %sev_.i, align 2
  %sev_6.i = getelementptr inbounds %"class.rocksdb::Status", ptr %agg.result, i64 0, i32 2
  store i8 %18, ptr %sev_6.i, align 2
  %retryable_.i = getelementptr inbounds %"class.rocksdb::Status", ptr %ref.tmp, i64 0, i32 3
  %19 = load i8, ptr %retryable_.i, align 1
  %20 = and i8 %19, 1
  %retryable_8.i = getelementptr inbounds %"class.rocksdb::Status", ptr %agg.result, i64 0, i32 3
  store i8 %20, ptr %retryable_8.i, align 1
  store <4 x i8> zeroinitializer, ptr %ref.tmp, align 8
  %data_loss_.i = getelementptr inbounds %"class.rocksdb::Status", ptr %ref.tmp, i64 0, i32 4
  %21 = load i8, ptr %data_loss_.i, align 4
  %22 = and i8 %21, 1
  %data_loss_11.i = getelementptr inbounds %"class.rocksdb::Status", ptr %agg.result, i64 0, i32 4
  store i8 %22, ptr %data_loss_11.i, align 4
  store i8 0, ptr %data_loss_.i, align 4
  %scope_.i = getelementptr inbounds %"class.rocksdb::Status", ptr %ref.tmp, i64 0, i32 5
  %23 = load i8, ptr %scope_.i, align 1
  %scope_14.i = getelementptr inbounds %"class.rocksdb::Status", ptr %agg.result, i64 0, i32 5
  store i8 %23, ptr %scope_14.i, align 1
  store i8 0, ptr %scope_.i, align 1
  %state_.i2 = getelementptr inbounds %"class.rocksdb::Status", ptr %ref.tmp, i64 0, i32 6
  %state_16.i = getelementptr inbounds %"class.rocksdb::Status", ptr %agg.result, i64 0, i32 6
  %24 = load ptr, ptr %state_.i2, align 8
  store ptr null, ptr %state_.i2, align 8
  %25 = load ptr, ptr %state_16.i, align 8
  store ptr %24, ptr %state_16.i, align 8
  %tobool.not.i.i.i.i.i = icmp eq ptr %25, null
  br i1 %tobool.not.i.i.i.i.i, label %_ZN7rocksdb6StatusaSEOS0_.exit, label %_ZNKSt14default_deleteIA_KcEclIS0_EENSt9enable_ifIXsr14is_convertibleIPA_T_PS1_EE5valueEvE4typeEPS5_.exit.i.i.i.i.i

_ZNKSt14default_deleteIA_KcEclIS0_EENSt9enable_ifIXsr14is_convertibleIPA_T_PS1_EE5valueEvE4typeEPS5_.exit.i.i.i.i.i: ; preds = %if.then.i
  call void @_ZdaPv(ptr noundef nonnull %25) #18
  br label %_ZN7rocksdb6StatusaSEOS0_.exit

_ZN7rocksdb6StatusaSEOS0_.exit:                   ; preds = %invoke.cont13, %if.then.i, %_ZNKSt14default_deleteIA_KcEclIS0_EENSt9enable_ifIXsr14is_convertibleIPA_T_PS1_EE5valueEvE4typeEPS5_.exit.i.i.i.i.i
  %state_.i3 = getelementptr inbounds %"class.rocksdb::Status", ptr %ref.tmp, i64 0, i32 6
  %26 = load ptr, ptr %state_.i3, align 8
  %cmp.not.i.i4 = icmp eq ptr %26, null
  br i1 %cmp.not.i.i4, label %_ZN7rocksdb6StatusD2Ev.exit6, label %_ZNKSt14default_deleteIA_KcEclIS0_EENSt9enable_ifIXsr14is_convertibleIPA_T_PS1_EE5valueEvE4typeEPS5_.exit.i.i5

_ZNKSt14default_deleteIA_KcEclIS0_EENSt9enable_ifIXsr14is_convertibleIPA_T_PS1_EE5valueEvE4typeEPS5_.exit.i.i5: ; preds = %_ZN7rocksdb6StatusaSEOS0_.exit
  call void @_ZdaPv(ptr noundef nonnull %26) #18
  br label %_ZN7rocksdb6StatusD2Ev.exit6

_ZN7rocksdb6StatusD2Ev.exit6:                     ; preds = %_ZN7rocksdb6StatusaSEOS0_.exit, %_ZNKSt14default_deleteIA_KcEclIS0_EENSt9enable_ifIXsr14is_convertibleIPA_T_PS1_EE5valueEvE4typeEPS5_.exit.i.i5
  store ptr null, ptr %state_.i3, align 8
  br label %if.end15

if.end15:                                         ; preds = %_ZN7rocksdb6StatusD2Ev.exit6, %if.end
  %blob_file_additions_ = getelementptr inbounds %"class.rocksdb::BlobFileBuilder", ptr %this, i64 0, i32 19
  %27 = load ptr, ptr %blob_file_additions_, align 8
  %blob_bytes_17 = getelementptr inbounds %"class.rocksdb::BlobFileBuilder", ptr %this, i64 0, i32 22
  %call19 = invoke noundef nonnull align 8 dereferenceable(88) ptr @_ZNSt6vectorIN7rocksdb16BlobFileAdditionESaIS1_EE12emplace_backIJRKmRmS7_NSt7__cxx1112basic_stringIcSt11char_traitsIcESaIcEEESD_EEERS1_DpOT_(ptr noundef nonnull align 8 dereferenceable(24) %27, ptr noundef nonnull align 8 dereferenceable(8) %blob_file_number, ptr noundef nonnull align 8 dereferenceable(8) %blob_count_, ptr noundef nonnull align 8 dereferenceable(8) %blob_bytes_17, ptr noundef nonnull align 8 dereferenceable(32) %checksum_method, ptr noundef nonnull align 8 dereferenceable(32) %checksum_value)
          to label %invoke.cont18 unwind label %lpad2

invoke.cont18:                                    ; preds = %if.end15
  %immutable_options_ = getelementptr inbounds %"class.rocksdb::BlobFileBuilder", ptr %this, i64 0, i32 2
  %28 = load ptr, ptr %immutable_options_, align 8
  %logger = getelementptr inbounds %"struct.rocksdb::ImmutableDBOptions", ptr %28, i64 0, i32 90
  %29 = load ptr, ptr %logger, align 8
  %column_family_name_22 = getelementptr inbounds %"class.rocksdb::BlobFileBuilder", ptr %this, i64 0, i32 12
  %call23 = call noundef ptr @_ZNKSt7__cxx1112basic_stringIcSt11char_traitsIcESaIcEE5c_strEv(ptr noundef nonnull align 8 dereferenceable(32) %column_family_name_22) #19
  %job_id_24 = getelementptr inbounds %"class.rocksdb::BlobFileBuilder", ptr %this, i64 0, i32 10
  %30 = load i32, ptr %job_id_24, align 8
  %31 = load i64, ptr %blob_file_number, align 8
  %32 = load i64, ptr %blob_count_, align 8
  %33 = load i64, ptr %blob_bytes_17, align 8
  invoke void (i8, ptr, ptr, ...) @_ZN7rocksdb3LogENS_12InfoLogLevelEPNS_6LoggerEPKcz(i8 noundef zeroext 1, ptr noundef %29, ptr noundef nonnull @.str.3, ptr noundef nonnull getelementptr inbounds ([122 x i8], ptr @.str.1, i64 0, i64 93), ptr noundef %call23, i32 noundef %30, i64 noundef %31, i64 noundef %32, i64 noundef %33)
          to label %invoke.cont27 unwind label %lpad2

invoke.cont27:                                    ; preds = %invoke.cont18
  %34 = load ptr, ptr %writer_, align 8
  store ptr null, ptr %writer_, align 8
  %tobool.not.i.i = icmp eq ptr %34, null
  br i1 %tobool.not.i.i, label %_ZNSt10unique_ptrIN7rocksdb13BlobLogWriterESt14default_deleteIS1_EE5resetEPS1_.exit, label %_ZNKSt14default_deleteIN7rocksdb13BlobLogWriterEEclEPS1_.exit.i.i

_ZNKSt14default_deleteIN7rocksdb13BlobLogWriterEEclEPS1_.exit.i.i: ; preds = %invoke.cont27
  call void @_ZN7rocksdb13BlobLogWriterD1Ev(ptr noundef nonnull align 8 dereferenceable(48) %34) #19
  call void @_ZdlPv(ptr noundef nonnull %34) #18
  br label %_ZNSt10unique_ptrIN7rocksdb13BlobLogWriterESt14default_deleteIS1_EE5resetEPS1_.exit

_ZNSt10unique_ptrIN7rocksdb13BlobLogWriterESt14default_deleteIS1_EE5resetEPS1_.exit: ; preds = %invoke.cont27, %_ZNKSt14default_deleteIN7rocksdb13BlobLogWriterEEclEPS1_.exit.i.i
  call void @llvm.memset.p0.i64(ptr noundef nonnull align 8 dereferenceable(16) %blob_count_, i8 0, i64 16, i1 false)
  br label %nrvo.skipdtor

nrvo.skipdtor:                                    ; preds = %_ZNSt10unique_ptrIN7rocksdb13BlobLogWriterESt14default_deleteIS1_EE5resetEPS1_.exit, %invoke.cont3
  call void @_ZNSt7__cxx1112basic_stringIcSt11char_traitsIcESaIcEED1Ev(ptr noundef nonnull align 8 dereferenceable(32) %checksum_value) #19
  call void @_ZNSt7__cxx1112basic_stringIcSt11char_traitsIcESaIcEED1Ev(ptr noundef nonnull align 8 dereferenceable(32) %checksum_method) #19
  ret void

ehcleanup:                                        ; preds = %_ZN7rocksdb6StatusD2Ev.exit, %lpad
  %.pn = phi { ptr, i32 } [ %5, %_ZN7rocksdb6StatusD2Ev.exit ], [ %4, %lpad ]
  call void @_ZNSt7__cxx1112basic_stringIcSt11char_traitsIcESaIcEED1Ev(ptr noundef nonnull align 8 dereferenceable(32) %checksum_value) #19
  call void @_ZNSt7__cxx1112basic_stringIcSt11char_traitsIcESaIcEED1Ev(ptr noundef nonnull align 8 dereferenceable(32) %checksum_method) #19
  resume { ptr, i32 } %.pn
}

declare void @_ZN7rocksdb12BlobFileNameERKNSt7__cxx1112basic_stringIcSt11char_traitsIcESaIcEEEm(ptr sret(%"class.std::__cxx11::basic_string") align 8, ptr noundef nonnull align 8 dereferenceable(32), i64 noundef) local_unnamed_addr #3

declare void @_ZN7rocksdb15NewWritableFileEPNS_10FileSystemERKNSt7__cxx1112basic_stringIcSt11char_traitsIcESaIcEEEPSt10unique_ptrINS_14FSWritableFileESt14default_deleteISB_EERKNS_11FileOptionsE(ptr sret(%"class.rocksdb::IOStatus") align 8, ptr noundef, ptr noundef nonnull align 8 dereferenceable(32), ptr noundef, ptr noundef nonnull align 8 dereferenceable(146)) local_unnamed_addr #3

; Function Attrs: nobuiltin allocsize(0)
declare noundef nonnull ptr @_Znwm(i64 noundef) local_unnamed_addr #7

; Function Attrs: mustprogress uwtable
define linkonce_odr void @_ZN7rocksdb18WritableFileWriterC2EOSt10unique_ptrINS_14FSWritableFileESt14default_deleteIS2_EERKNSt7__cxx1112basic_stringIcSt11char_traitsIcESaIcEEERKNS_11FileOptionsEPNS_11SystemClockERKSt10shared_ptrINS_8IOTracerEEPNS_10StatisticsERKSt6vectorISK_INS_13EventListenerEESaIST_EEPNS_22FileChecksumGenFactoryEbb(ptr noundef nonnull align 8 dereferenceable(218) %this, ptr noundef nonnull align 8 dereferenceable(8) %file, ptr noundef nonnull align 8 dereferenceable(32) %_file_name, ptr noundef nonnull align 8 dereferenceable(146) %options, ptr noundef %clock, ptr noundef nonnull align 8 dereferenceable(16) %io_tracer, ptr noundef %stats, ptr noundef nonnull align 8 dereferenceable(24) %listeners, ptr noundef %file_checksum_gen_factory, i1 noundef zeroext %perform_data_verification, i1 noundef zeroext %buffered_data_with_checksum) unnamed_addr #2 comdat align 2 personality ptr @__gxx_personality_v0 {
entry:
  %checksum_gen_context = alloca %"struct.rocksdb::FileChecksumGenContext", align 8
  %ref.tmp34 = alloca %"class.std::unique_ptr.140", align 8
  tail call void @_ZNSt7__cxx1112basic_stringIcSt11char_traitsIcESaIcEEC1ERKS4_(ptr noundef nonnull align 8 dereferenceable(32) %this, ptr noundef nonnull align 8 dereferenceable(32) %_file_name)
  %writable_file_ = getelementptr inbounds %"class.rocksdb::WritableFileWriter", ptr %this, i64 0, i32 1
  invoke void @_ZN7rocksdb17FSWritableFilePtrC2EOSt10unique_ptrINS_14FSWritableFileESt14default_deleteIS2_EERKSt10shared_ptrINS_8IOTracerEERKNSt7__cxx1112basic_stringIcSt11char_traitsIcESaIcEEE(ptr noundef nonnull align 8 dereferenceable(24) %writable_file_, ptr noundef nonnull align 8 dereferenceable(8) %file, ptr noundef nonnull align 8 dereferenceable(16) %io_tracer, ptr noundef nonnull align 8 dereferenceable(32) %_file_name)
          to label %invoke.cont unwind label %lpad

invoke.cont:                                      ; preds = %entry
  %frombool1 = zext i1 %buffered_data_with_checksum to i8
  %frombool = zext i1 %perform_data_verification to i8
  %clock_ = getelementptr inbounds %"class.rocksdb::WritableFileWriter", ptr %this, i64 0, i32 2
  store ptr %clock, ptr %clock_, align 8
  %buf_ = getelementptr inbounds %"class.rocksdb::WritableFileWriter", ptr %this, i64 0, i32 3
  tail call void @llvm.memset.p0.i64(ptr noundef nonnull align 8 dereferenceable(40) %buf_, i8 0, i64 40, i1 false)
  %max_buffer_size_ = getelementptr inbounds %"class.rocksdb::WritableFileWriter", ptr %this, i64 0, i32 4
  %writable_file_max_buffer_size = getelementptr inbounds %"struct.rocksdb::EnvOptions", ptr %options, i64 0, i32 11
  %0 = load i64, ptr %writable_file_max_buffer_size, align 8
  store i64 %0, ptr %max_buffer_size_, align 8
  %filesize_ = getelementptr inbounds %"class.rocksdb::WritableFileWriter", ptr %this, i64 0, i32 5
  %last_sync_size_ = getelementptr inbounds %"class.rocksdb::WritableFileWriter", ptr %this, i64 0, i32 11
  store i64 0, ptr %last_sync_size_, align 8
  %bytes_per_sync_ = getelementptr inbounds %"class.rocksdb::WritableFileWriter", ptr %this, i64 0, i32 12
  %bytes_per_sync = getelementptr inbounds %"struct.rocksdb::EnvOptions", ptr %options, i64 0, i32 6
  tail call void @llvm.memset.p0.i64(ptr noundef nonnull align 8 dereferenceable(26) %filesize_, i8 0, i64 26, i1 false)
  %1 = load i64, ptr %bytes_per_sync, align 8
  store i64 %1, ptr %bytes_per_sync_, align 8
  %rate_limiter_ = getelementptr inbounds %"class.rocksdb::WritableFileWriter", ptr %this, i64 0, i32 13
  %rate_limiter = getelementptr inbounds %"struct.rocksdb::EnvOptions", ptr %options, i64 0, i32 12
  %2 = load ptr, ptr %rate_limiter, align 8
  store ptr %2, ptr %rate_limiter_, align 8
  %stats_ = getelementptr inbounds %"class.rocksdb::WritableFileWriter", ptr %this, i64 0, i32 14
  store ptr %stats, ptr %stats_, align 8
  %listeners_ = getelementptr inbounds %"class.rocksdb::WritableFileWriter", ptr %this, i64 0, i32 15
  %checksum_generator_ = getelementptr inbounds %"class.rocksdb::WritableFileWriter", ptr %this, i64 0, i32 16
  %perform_data_verification_ = getelementptr inbounds %"class.rocksdb::WritableFileWriter", ptr %this, i64 0, i32 18
  tail call void @llvm.memset.p0.i64(ptr noundef nonnull align 8 dereferenceable(33) %listeners_, i8 0, i64 33, i1 false)
  store i8 %frombool, ptr %perform_data_verification_, align 1
  %buffered_data_crc32c_checksum_ = getelementptr inbounds %"class.rocksdb::WritableFileWriter", ptr %this, i64 0, i32 20
  store i32 0, ptr %buffered_data_crc32c_checksum_, align 4
  %buffered_data_with_checksum_ = getelementptr inbounds %"class.rocksdb::WritableFileWriter", ptr %this, i64 0, i32 21
  store i8 %frombool1, ptr %buffered_data_with_checksum_, align 8
  %temperature = getelementptr inbounds %"struct.rocksdb::FileOptions", ptr %options, i64 0, i32 2
  %3 = load i8, ptr %temperature, align 8
  %temperature_ = getelementptr inbounds %"class.rocksdb::WritableFileWriter", ptr %this, i64 0, i32 22
  store i8 %3, ptr %temperature_, align 1
  %4 = load ptr, ptr %writable_file_, align 8
  %cmp.i.not.i = icmp eq ptr %4, null
  br i1 %cmp.i.not.i, label %if.else.i, label %land.lhs.true.i

land.lhs.true.i:                                  ; preds = %invoke.cont
  %tracing_enabled.i.i = getelementptr inbounds %"class.rocksdb::IOTracer", ptr %4, i64 0, i32 3
  %5 = load i8, ptr %tracing_enabled.i.i, align 8
  %6 = and i8 %5, 1
  %tobool.i.not.i = icmp eq i8 %6, 0
  br i1 %tobool.i.not.i, label %if.else.i, label %if.then.i

if.then.i:                                        ; preds = %land.lhs.true.i
  %fs_tracer_.i = getelementptr inbounds %"class.rocksdb::WritableFileWriter", ptr %this, i64 0, i32 1, i32 1
  br label %invoke.cont11

if.else.i:                                        ; preds = %land.lhs.true.i, %invoke.cont
  %fs_tracer_6.i = getelementptr inbounds %"class.rocksdb::WritableFileWriter", ptr %this, i64 0, i32 1, i32 1
  %7 = load ptr, ptr %fs_tracer_6.i, align 8
  %target_.i.i = getelementptr inbounds %"class.rocksdb::FSWritableFileWrapper", ptr %7, i64 0, i32 1
  br label %invoke.cont11

invoke.cont11:                                    ; preds = %if.else.i, %if.then.i
  %retval.0.in.i = phi ptr [ %fs_tracer_.i, %if.then.i ], [ %target_.i.i, %if.else.i ]
  %retval.0.i = load ptr, ptr %retval.0.in.i, align 8
  %vtable = load ptr, ptr %retval.0.i, align 8
  %vfn = getelementptr inbounds ptr, ptr %vtable, i64 13
  %8 = load ptr, ptr %vfn, align 8
  %call13 = invoke noundef i64 %8(ptr noundef nonnull align 8 dereferenceable(33) %retval.0.i)
          to label %invoke.cont12 unwind label %lpad10.loopexit.split-lp

invoke.cont12:                                    ; preds = %invoke.cont11
  store i64 %call13, ptr %buf_, align 8
  %9 = load i64, ptr %max_buffer_size_, align 8
  %.sroa.speculated = tail call i64 @llvm.umin.i64(i64 %9, i64 65536)
  %add.i.i = add i64 %call13, -1
  %sub.i.i = add i64 %add.i.i, %.sroa.speculated
  %10 = urem i64 %sub.i.i, %call13
  %mul.i.i = sub nuw i64 %sub.i.i, %10
  %add.i = add i64 %mul.i.i, %call13
  %call4.i10 = invoke noalias noundef nonnull ptr @_Znam(i64 noundef %add.i) #22
          to label %call4.i.noexc unwind label %lpad10.loopexit.split-lp

call4.i.noexc:                                    ; preds = %invoke.cont12
  %cursize_.i = getelementptr inbounds %"class.rocksdb::WritableFileWriter", ptr %this, i64 0, i32 3, i32 3
  %11 = ptrtoint ptr %call4.i10 to i64
  %add6.i = add i64 %add.i.i, %11
  %not.i = sub i64 0, %call13
  %and.i = and i64 %add6.i, %not.i
  %12 = inttoptr i64 %and.i to ptr
  store i64 0, ptr %cursize_.i, align 8
  %bufstart_14.i = getelementptr inbounds %"class.rocksdb::WritableFileWriter", ptr %this, i64 0, i32 3, i32 4
  store ptr %12, ptr %bufstart_14.i, align 8
  %capacity_.i = getelementptr inbounds %"class.rocksdb::WritableFileWriter", ptr %this, i64 0, i32 3, i32 2
  store i64 %mul.i.i, ptr %capacity_.i, align 8
  %buf_.i = getelementptr inbounds %"class.rocksdb::WritableFileWriter", ptr %this, i64 0, i32 3, i32 1
  %13 = load ptr, ptr %buf_.i, align 8
  store ptr %call4.i10, ptr %buf_.i, align 8
  %tobool.not.i.i.i = icmp eq ptr %13, null
  br i1 %tobool.not.i.i.i, label %invoke.cont19, label %_ZNKSt14default_deleteIA_cEclIcEENSt9enable_ifIXsr14is_convertibleIPA_T_PS0_EE5valueEvE4typeEPS4_.exit.i.i.i

_ZNKSt14default_deleteIA_cEclIcEENSt9enable_ifIXsr14is_convertibleIPA_T_PS0_EE5valueEvE4typeEPS4_.exit.i.i.i: ; preds = %call4.i.noexc
  tail call void @_ZdaPv(ptr noundef nonnull %13) #18
  br label %invoke.cont19

invoke.cont19:                                    ; preds = %_ZNKSt14default_deleteIA_cEclIcEENSt9enable_ifIXsr14is_convertibleIPA_T_PS0_EE5valueEvE4typeEPS4_.exit.i.i.i, %call4.i.noexc
  %14 = load ptr, ptr %listeners, align 8
  %_M_finish.i = getelementptr inbounds %"struct.std::_Vector_base<std::shared_ptr<rocksdb::EventListener>, std::allocator<std::shared_ptr<rocksdb::EventListener>>>::_Vector_impl_data", ptr %listeners, i64 0, i32 1
  %15 = load ptr, ptr %_M_finish.i, align 8
  %cmp.i.not3.i = icmp eq ptr %14, %15
  br i1 %cmp.i.not3.i, label %invoke.cont28, label %for.body.lr.ph.i

for.body.lr.ph.i:                                 ; preds = %invoke.cont19
  %_M_finish.i.i.i = getelementptr inbounds %"class.rocksdb::WritableFileWriter", ptr %this, i64 0, i32 15, i32 0, i32 0, i32 0, i32 1
  %_M_end_of_storage.i.i.i = getelementptr inbounds %"class.rocksdb::WritableFileWriter", ptr %this, i64 0, i32 15, i32 0, i32 0, i32 0, i32 2
  br label %for.body.i

for.body.i:                                       ; preds = %_ZZN7rocksdb18WritableFileWriterC1EOSt10unique_ptrINS_14FSWritableFileESt14default_deleteIS2_EERKNSt7__cxx1112basic_stringIcSt11char_traitsIcESaIcEEERKNS_11FileOptionsEPNS_11SystemClockERKSt10shared_ptrINS_8IOTracerEEPNS_10StatisticsERKSt6vectorISK_INS_13EventListenerEESaIST_EEPNS_22FileChecksumGenFactoryEbbENKUlRKST_E_clES11_.exit.i, %for.body.lr.ph.i
  %__first.sroa.0.04.i = phi ptr [ %14, %for.body.lr.ph.i ], [ %incdec.ptr.i.i, %_ZZN7rocksdb18WritableFileWriterC1EOSt10unique_ptrINS_14FSWritableFileESt14default_deleteIS2_EERKNSt7__cxx1112basic_stringIcSt11char_traitsIcESaIcEEERKNS_11FileOptionsEPNS_11SystemClockERKSt10shared_ptrINS_8IOTracerEEPNS_10StatisticsERKSt6vectorISK_INS_13EventListenerEESaIST_EEPNS_22FileChecksumGenFactoryEbbENKUlRKST_E_clES11_.exit.i ]
  %16 = load ptr, ptr %__first.sroa.0.04.i, align 8
  %vtable.i.i = load ptr, ptr %16, align 8
  %vfn.i.i = getelementptr inbounds ptr, ptr %vtable.i.i, i64 40
  %17 = load ptr, ptr %vfn.i.i, align 8
  %call2.i.i12 = invoke noundef zeroext i1 %17(ptr noundef nonnull align 8 dereferenceable(32) %16)
          to label %call2.i.i.noexc unwind label %lpad10.loopexit

call2.i.i.noexc:                                  ; preds = %for.body.i
  br i1 %call2.i.i12, label %if.then.i.i, label %_ZZN7rocksdb18WritableFileWriterC1EOSt10unique_ptrINS_14FSWritableFileESt14default_deleteIS2_EERKNSt7__cxx1112basic_stringIcSt11char_traitsIcESaIcEEERKNS_11FileOptionsEPNS_11SystemClockERKSt10shared_ptrINS_8IOTracerEEPNS_10StatisticsERKSt6vectorISK_INS_13EventListenerEESaIST_EEPNS_22FileChecksumGenFactoryEbbENKUlRKST_E_clES11_.exit.i

if.then.i.i:                                      ; preds = %call2.i.i.noexc
  %18 = load ptr, ptr %_M_finish.i.i.i, align 8
  %19 = load ptr, ptr %_M_end_of_storage.i.i.i, align 8
  %cmp.not.i.i.i = icmp eq ptr %18, %19
  br i1 %cmp.not.i.i.i, label %if.else.i.i.i, label %if.then.i.i.i

if.then.i.i.i:                                    ; preds = %if.then.i.i
  %20 = load ptr, ptr %__first.sroa.0.04.i, align 8
  store ptr %20, ptr %18, align 8
  %_M_refcount.i.i.i.i.i.i.i = getelementptr inbounds %"class.std::__shared_ptr.175", ptr %18, i64 0, i32 1
  %_M_refcount3.i.i.i.i.i.i.i = getelementptr inbounds %"class.std::__shared_ptr.175", ptr %__first.sroa.0.04.i, i64 0, i32 1
  %21 = load ptr, ptr %_M_refcount3.i.i.i.i.i.i.i, align 8
  store ptr %21, ptr %_M_refcount.i.i.i.i.i.i.i, align 8
  %cmp.not.i.i.i.i.i.i.i.i = icmp eq ptr %21, null
  br i1 %cmp.not.i.i.i.i.i.i.i.i, label %_ZNSt16allocator_traitsISaISt10shared_ptrIN7rocksdb13EventListenerEEEE9constructIS3_JRKS3_EEEvRS4_PT_DpOT0_.exit.i.i.i, label %if.then.i.i.i.i.i.i.i.i

if.then.i.i.i.i.i.i.i.i:                          ; preds = %if.then.i.i.i
  %_M_use_count.i.i.i.i.i.i.i.i.i = getelementptr inbounds %"class.std::_Sp_counted_base", ptr %21, i64 0, i32 1
  %22 = load i8, ptr @__libc_single_threaded, align 1
  %tobool.i.not.i.i.i.i.i.i.i.i.i = icmp eq i8 %22, 0
  br i1 %tobool.i.not.i.i.i.i.i.i.i.i.i, label %if.else.i.i.i.i.i.i.i.i.i.i, label %if.then.i.i.i.i.i.i.i.i.i.i

if.then.i.i.i.i.i.i.i.i.i.i:                      ; preds = %if.then.i.i.i.i.i.i.i.i
  %23 = load i32, ptr %_M_use_count.i.i.i.i.i.i.i.i.i, align 4
  %add.i.i.i.i.i.i.i.i.i.i = add nsw i32 %23, 1
  store i32 %add.i.i.i.i.i.i.i.i.i.i, ptr %_M_use_count.i.i.i.i.i.i.i.i.i, align 4
  br label %_ZNSt16allocator_traitsISaISt10shared_ptrIN7rocksdb13EventListenerEEEE9constructIS3_JRKS3_EEEvRS4_PT_DpOT0_.exit.i.i.i

if.else.i.i.i.i.i.i.i.i.i.i:                      ; preds = %if.then.i.i.i.i.i.i.i.i
  %24 = atomicrmw volatile add ptr %_M_use_count.i.i.i.i.i.i.i.i.i, i32 1 acq_rel, align 4
  br label %_ZNSt16allocator_traitsISaISt10shared_ptrIN7rocksdb13EventListenerEEEE9constructIS3_JRKS3_EEEvRS4_PT_DpOT0_.exit.i.i.i

_ZNSt16allocator_traitsISaISt10shared_ptrIN7rocksdb13EventListenerEEEE9constructIS3_JRKS3_EEEvRS4_PT_DpOT0_.exit.i.i.i: ; preds = %if.else.i.i.i.i.i.i.i.i.i.i, %if.then.i.i.i.i.i.i.i.i.i.i, %if.then.i.i.i
  %25 = load ptr, ptr %_M_finish.i.i.i, align 8
  %incdec.ptr.i.i.i = getelementptr inbounds %"class.std::shared_ptr.174", ptr %25, i64 1
  store ptr %incdec.ptr.i.i.i, ptr %_M_finish.i.i.i, align 8
  br label %_ZZN7rocksdb18WritableFileWriterC1EOSt10unique_ptrINS_14FSWritableFileESt14default_deleteIS2_EERKNSt7__cxx1112basic_stringIcSt11char_traitsIcESaIcEEERKNS_11FileOptionsEPNS_11SystemClockERKSt10shared_ptrINS_8IOTracerEEPNS_10StatisticsERKSt6vectorISK_INS_13EventListenerEESaIST_EEPNS_22FileChecksumGenFactoryEbbENKUlRKST_E_clES11_.exit.i

if.else.i.i.i:                                    ; preds = %if.then.i.i
  invoke void @_ZNSt6vectorISt10shared_ptrIN7rocksdb13EventListenerEESaIS3_EE17_M_realloc_insertIJRKS3_EEEvN9__gnu_cxx17__normal_iteratorIPS3_S5_EEDpOT_(ptr noundef nonnull align 8 dereferenceable(24) %listeners_, ptr %18, ptr noundef nonnull align 8 dereferenceable(16) %__first.sroa.0.04.i)
          to label %_ZZN7rocksdb18WritableFileWriterC1EOSt10unique_ptrINS_14FSWritableFileESt14default_deleteIS2_EERKNSt7__cxx1112basic_stringIcSt11char_traitsIcESaIcEEERKNS_11FileOptionsEPNS_11SystemClockERKSt10shared_ptrINS_8IOTracerEEPNS_10StatisticsERKSt6vectorISK_INS_13EventListenerEESaIST_EEPNS_22FileChecksumGenFactoryEbbENKUlRKST_E_clES11_.exit.i unwind label %lpad10.loopexit

_ZZN7rocksdb18WritableFileWriterC1EOSt10unique_ptrINS_14FSWritableFileESt14default_deleteIS2_EERKNSt7__cxx1112basic_stringIcSt11char_traitsIcESaIcEEERKNS_11FileOptionsEPNS_11SystemClockERKSt10shared_ptrINS_8IOTracerEEPNS_10StatisticsERKSt6vectorISK_INS_13EventListenerEESaIST_EEPNS_22FileChecksumGenFactoryEbbENKUlRKST_E_clES11_.exit.i: ; preds = %if.else.i.i.i, %_ZNSt16allocator_traitsISaISt10shared_ptrIN7rocksdb13EventListenerEEEE9constructIS3_JRKS3_EEEvRS4_PT_DpOT0_.exit.i.i.i, %call2.i.i.noexc
  %incdec.ptr.i.i = getelementptr inbounds %"class.std::shared_ptr.174", ptr %__first.sroa.0.04.i, i64 1
  %cmp.i.not.i11 = icmp eq ptr %incdec.ptr.i.i, %15
  br i1 %cmp.i.not.i11, label %invoke.cont28, label %for.body.i, !llvm.loop !43

invoke.cont28:                                    ; preds = %_ZZN7rocksdb18WritableFileWriterC1EOSt10unique_ptrINS_14FSWritableFileESt14default_deleteIS2_EERKNSt7__cxx1112basic_stringIcSt11char_traitsIcESaIcEEERKNS_11FileOptionsEPNS_11SystemClockERKSt10shared_ptrINS_8IOTracerEEPNS_10StatisticsERKSt6vectorISK_INS_13EventListenerEESaIST_EEPNS_22FileChecksumGenFactoryEbbENKUlRKST_E_clES11_.exit.i, %invoke.cont19
  %cmp.not = icmp eq ptr %file_checksum_gen_factory, null
  br i1 %cmp.not, label %if.end, label %if.then

if.then:                                          ; preds = %invoke.cont28
  call void @_ZNSt7__cxx1112basic_stringIcSt11char_traitsIcESaIcEEC1Ev(ptr noundef nonnull align 8 dereferenceable(32) %checksum_gen_context) #19
  %requested_checksum_func_name.i = getelementptr inbounds %"struct.rocksdb::FileChecksumGenContext", ptr %checksum_gen_context, i64 0, i32 1
  call void @_ZNSt7__cxx1112basic_stringIcSt11char_traitsIcESaIcEEC1Ev(ptr noundef nonnull align 8 dereferenceable(32) %requested_checksum_func_name.i) #19
  %call33 = invoke noundef nonnull align 8 dereferenceable(32) ptr @_ZNSt7__cxx1112basic_stringIcSt11char_traitsIcESaIcEEaSERKS4_(ptr noundef nonnull align 8 dereferenceable(32) %checksum_gen_context, ptr noundef nonnull align 8 dereferenceable(32) %_file_name)
          to label %invoke.cont32 unwind label %lpad31

invoke.cont32:                                    ; preds = %if.then
  %vtable35 = load ptr, ptr %file_checksum_gen_factory, align 8
  %vfn36 = getelementptr inbounds ptr, ptr %vtable35, i64 19
  %26 = load ptr, ptr %vfn36, align 8
  invoke void %26(ptr nonnull sret(%"class.std::unique_ptr.140") align 8 %ref.tmp34, ptr noundef nonnull align 8 dereferenceable(32) %file_checksum_gen_factory, ptr noundef nonnull align 8 dereferenceable(64) %checksum_gen_context)
          to label %invoke.cont37 unwind label %lpad31

invoke.cont37:                                    ; preds = %invoke.cont32
  %27 = load ptr, ptr %ref.tmp34, align 8
  store ptr null, ptr %ref.tmp34, align 8
  %28 = load ptr, ptr %checksum_generator_, align 8
  store ptr %27, ptr %checksum_generator_, align 8
  %tobool.not.i.i.i.i = icmp eq ptr %28, null
  br i1 %tobool.not.i.i.i.i, label %_ZNSt10unique_ptrIN7rocksdb21FileChecksumGeneratorESt14default_deleteIS1_EED2Ev.exit, label %_ZNSt10unique_ptrIN7rocksdb21FileChecksumGeneratorESt14default_deleteIS1_EEaSEOS4_.exit

_ZNSt10unique_ptrIN7rocksdb21FileChecksumGeneratorESt14default_deleteIS1_EEaSEOS4_.exit: ; preds = %invoke.cont37
  %vtable.i.i.i.i.i = load ptr, ptr %28, align 8
  %vfn.i.i.i.i.i = getelementptr inbounds ptr, ptr %vtable.i.i.i.i.i, i64 1
  %29 = load ptr, ptr %vfn.i.i.i.i.i, align 8
  call void %29(ptr noundef nonnull align 8 dereferenceable(8) %28) #19
  %.pr = load ptr, ptr %ref.tmp34, align 8
  %cmp.not.i = icmp eq ptr %.pr, null
  br i1 %cmp.not.i, label %_ZNSt10unique_ptrIN7rocksdb21FileChecksumGeneratorESt14default_deleteIS1_EED2Ev.exit, label %_ZNKSt14default_deleteIN7rocksdb21FileChecksumGeneratorEEclEPS1_.exit.i

_ZNKSt14default_deleteIN7rocksdb21FileChecksumGeneratorEEclEPS1_.exit.i: ; preds = %_ZNSt10unique_ptrIN7rocksdb21FileChecksumGeneratorESt14default_deleteIS1_EEaSEOS4_.exit
  %vtable.i.i13 = load ptr, ptr %.pr, align 8
  %vfn.i.i14 = getelementptr inbounds ptr, ptr %vtable.i.i13, i64 1
  %30 = load ptr, ptr %vfn.i.i14, align 8
  call void %30(ptr noundef nonnull align 8 dereferenceable(8) %.pr) #19
  br label %_ZNSt10unique_ptrIN7rocksdb21FileChecksumGeneratorESt14default_deleteIS1_EED2Ev.exit

_ZNSt10unique_ptrIN7rocksdb21FileChecksumGeneratorESt14default_deleteIS1_EED2Ev.exit: ; preds = %invoke.cont37, %_ZNSt10unique_ptrIN7rocksdb21FileChecksumGeneratorESt14default_deleteIS1_EEaSEOS4_.exit, %_ZNKSt14default_deleteIN7rocksdb21FileChecksumGeneratorEEclEPS1_.exit.i
  store ptr null, ptr %ref.tmp34, align 8
  call void @_ZNSt7__cxx1112basic_stringIcSt11char_traitsIcESaIcEED1Ev(ptr noundef nonnull align 8 dereferenceable(32) %requested_checksum_func_name.i) #19
  call void @_ZNSt7__cxx1112basic_stringIcSt11char_traitsIcESaIcEED1Ev(ptr noundef nonnull align 8 dereferenceable(32) %checksum_gen_context) #19
  br label %if.end

lpad:                                             ; preds = %entry
  %31 = landingpad { ptr, i32 }
          cleanup
  br label %ehcleanup43

lpad10.loopexit:                                  ; preds = %for.body.i, %if.else.i.i.i
  %lpad.loopexit = landingpad { ptr, i32 }
          cleanup
  br label %ehcleanup

lpad10.loopexit.split-lp:                         ; preds = %invoke.cont11, %invoke.cont12
  %lpad.loopexit.split-lp = landingpad { ptr, i32 }
          cleanup
  br label %ehcleanup

lpad31:                                           ; preds = %invoke.cont32, %if.then
  %32 = landingpad { ptr, i32 }
          cleanup
  call void @_ZNSt7__cxx1112basic_stringIcSt11char_traitsIcESaIcEED1Ev(ptr noundef nonnull align 8 dereferenceable(32) %requested_checksum_func_name.i) #19
  call void @_ZNSt7__cxx1112basic_stringIcSt11char_traitsIcESaIcEED1Ev(ptr noundef nonnull align 8 dereferenceable(32) %checksum_gen_context) #19
  br label %ehcleanup

if.end:                                           ; preds = %_ZNSt10unique_ptrIN7rocksdb21FileChecksumGeneratorESt14default_deleteIS1_EED2Ev.exit, %invoke.cont28
  ret void

ehcleanup:                                        ; preds = %lpad10.loopexit, %lpad10.loopexit.split-lp, %lpad31
  %.pn = phi { ptr, i32 } [ %32, %lpad31 ], [ %lpad.loopexit, %lpad10.loopexit ], [ %lpad.loopexit.split-lp, %lpad10.loopexit.split-lp ]
  %33 = load ptr, ptr %checksum_generator_, align 8
  %cmp.not.i17 = icmp eq ptr %33, null
  br i1 %cmp.not.i17, label %_ZNSt10unique_ptrIN7rocksdb21FileChecksumGeneratorESt14default_deleteIS1_EED2Ev.exit21, label %_ZNKSt14default_deleteIN7rocksdb21FileChecksumGeneratorEEclEPS1_.exit.i18

_ZNKSt14default_deleteIN7rocksdb21FileChecksumGeneratorEEclEPS1_.exit.i18: ; preds = %ehcleanup
  %vtable.i.i19 = load ptr, ptr %33, align 8
  %vfn.i.i20 = getelementptr inbounds ptr, ptr %vtable.i.i19, i64 1
  %34 = load ptr, ptr %vfn.i.i20, align 8
  call void %34(ptr noundef nonnull align 8 dereferenceable(8) %33) #19
  br label %_ZNSt10unique_ptrIN7rocksdb21FileChecksumGeneratorESt14default_deleteIS1_EED2Ev.exit21

_ZNSt10unique_ptrIN7rocksdb21FileChecksumGeneratorESt14default_deleteIS1_EED2Ev.exit21: ; preds = %ehcleanup, %_ZNKSt14default_deleteIN7rocksdb21FileChecksumGeneratorEEclEPS1_.exit.i18
  store ptr null, ptr %checksum_generator_, align 8
  call void @_ZNSt6vectorISt10shared_ptrIN7rocksdb13EventListenerEESaIS3_EED2Ev(ptr noundef nonnull align 8 dereferenceable(24) %listeners_) #19
  %buf_.i22 = getelementptr inbounds %"class.rocksdb::WritableFileWriter", ptr %this, i64 0, i32 3, i32 1
  %35 = load ptr, ptr %buf_.i22, align 8
  %cmp.not.i.i = icmp eq ptr %35, null
  br i1 %cmp.not.i.i, label %_ZN7rocksdb13AlignedBufferD2Ev.exit, label %_ZNKSt14default_deleteIA_cEclIcEENSt9enable_ifIXsr14is_convertibleIPA_T_PS0_EE5valueEvE4typeEPS4_.exit.i.i

_ZNKSt14default_deleteIA_cEclIcEENSt9enable_ifIXsr14is_convertibleIPA_T_PS0_EE5valueEvE4typeEPS4_.exit.i.i: ; preds = %_ZNSt10unique_ptrIN7rocksdb21FileChecksumGeneratorESt14default_deleteIS1_EED2Ev.exit21
  call void @_ZdaPv(ptr noundef nonnull %35) #18
  br label %_ZN7rocksdb13AlignedBufferD2Ev.exit

_ZN7rocksdb13AlignedBufferD2Ev.exit:              ; preds = %_ZNSt10unique_ptrIN7rocksdb21FileChecksumGeneratorESt14default_deleteIS1_EED2Ev.exit21, %_ZNKSt14default_deleteIA_cEclIcEENSt9enable_ifIXsr14is_convertibleIPA_T_PS0_EE5valueEvE4typeEPS4_.exit.i.i
  store ptr null, ptr %buf_.i22, align 8
  call void @_ZN7rocksdb17FSWritableFilePtrD2Ev(ptr noundef nonnull align 8 dereferenceable(24) %writable_file_) #19
  br label %ehcleanup43

ehcleanup43:                                      ; preds = %_ZN7rocksdb13AlignedBufferD2Ev.exit, %lpad
  %.pn.pn = phi { ptr, i32 } [ %.pn, %_ZN7rocksdb13AlignedBufferD2Ev.exit ], [ %31, %lpad ]
  call void @_ZNSt7__cxx1112basic_stringIcSt11char_traitsIcESaIcEED1Ev(ptr noundef nonnull align 8 dereferenceable(32) %this) #19
  resume { ptr, i32 } %.pn.pn
}

; Function Attrs: nobuiltin nounwind
declare void @_ZdlPv(ptr noundef) local_unnamed_addr #8

declare void @_ZN7rocksdb13BlobLogWriterC1EOSt10unique_ptrINS_18WritableFileWriterESt14default_deleteIS2_EEPNS_11SystemClockEPNS_10StatisticsEmbbm(ptr noundef nonnull align 8 dereferenceable(48), ptr noundef nonnull align 8 dereferenceable(8), ptr noundef, ptr noundef, i64 noundef, i1 noundef zeroext, i1 noundef zeroext, i64 noundef) unnamed_addr #3

; Function Attrs: mustprogress nocallback nofree nounwind willreturn memory(argmem: write)
declare void @llvm.memset.p0.i64(ptr nocapture writeonly, i8, i64, i1 immarg) #9

declare void @_ZN7rocksdb13BlobLogWriter11WriteHeaderERNS_13BlobLogHeaderE(ptr sret(%"class.rocksdb::Status") align 8, ptr noundef nonnull align 8 dereferenceable(48), ptr noundef nonnull align 8 dereferenceable(32)) local_unnamed_addr #3

; Function Attrs: mustprogress nounwind uwtable
define linkonce_odr void @_ZNSt10unique_ptrIN7rocksdb18WritableFileWriterESt14default_deleteIS1_EED2Ev(ptr noundef nonnull align 8 dereferenceable(8) %this) unnamed_addr #0 comdat align 2 personality ptr @__gxx_personality_v0 {
entry:
  %0 = load ptr, ptr %this, align 8
  %cmp.not = icmp eq ptr %0, null
  br i1 %cmp.not, label %if.end, label %_ZNKSt14default_deleteIN7rocksdb18WritableFileWriterEEclEPS1_.exit

_ZNKSt14default_deleteIN7rocksdb18WritableFileWriterEEclEPS1_.exit: ; preds = %entry
  tail call void @_ZN7rocksdb18WritableFileWriterD2Ev(ptr noundef nonnull align 8 dereferenceable(218) %0) #19
  tail call void @_ZdlPv(ptr noundef nonnull %0) #18
  br label %if.end

if.end:                                           ; preds = %_ZNKSt14default_deleteIN7rocksdb18WritableFileWriterEEclEPS1_.exit, %entry
  store ptr null, ptr %this, align 8
  ret void
}

; Function Attrs: mustprogress uwtable
define linkonce_odr noundef zeroext i1 @_ZN7rocksdb12CompressDataERKNS_5SliceERKNS_15CompressionInfoEjPNSt7__cxx1112basic_stringIcSt11char_traitsIcESaIcEEE(ptr noundef nonnull align 8 dereferenceable(16) %raw, ptr noundef nonnull align 8 dereferenceable(40) %compression_info, i32 noundef %compress_format_version, ptr noundef %compressed_output) local_unnamed_addr #2 comdat {
entry:
  %outlen.i = alloca i64, align 8
  %type_.i = getelementptr inbounds %"class.rocksdb::CompressionInfo", ptr %compression_info, i64 0, i32 3
  %0 = load i8, ptr %type_.i, align 8
  switch i8 %0, label %sw.epilog [
    i8 1, label %sw.bb
    i8 2, label %sw.bb4
    i8 64, label %sw.bb29
    i8 4, label %sw.bb14
    i8 5, label %sw.bb19
    i8 7, label %sw.bb29
  ]

sw.bb:                                            ; preds = %entry
  %1 = load ptr, ptr %raw, align 8
  %size_.i = getelementptr inbounds %"class.rocksdb::Slice", ptr %raw, i64 0, i32 1
  %2 = load i64, ptr %size_.i, align 8
  call void @llvm.lifetime.start.p0(i64 8, ptr nonnull %outlen.i)
  %call.i = tail call noundef i64 @_ZN6snappy19MaxCompressedLengthEm(i64 noundef %2)
  tail call void @_ZNSt7__cxx1112basic_stringIcSt11char_traitsIcESaIcEE6resizeEm(ptr noundef nonnull align 8 dereferenceable(32) %compressed_output, i64 noundef %call.i)
  %call1.i = tail call noundef nonnull align 1 dereferenceable(1) ptr @_ZNSt7__cxx1112basic_stringIcSt11char_traitsIcESaIcEEixEm(ptr noundef nonnull align 8 dereferenceable(32) %compressed_output, i64 noundef 0)
  call void @_ZN6snappy11RawCompressEPKcmPcPm(ptr noundef %1, i64 noundef %2, ptr noundef nonnull %call1.i, ptr noundef nonnull %outlen.i)
  %3 = load i64, ptr %outlen.i, align 8
  call void @_ZNSt7__cxx1112basic_stringIcSt11char_traitsIcESaIcEE6resizeEm(ptr noundef nonnull align 8 dereferenceable(32) %compressed_output, i64 noundef %3)
  call void @llvm.lifetime.end.p0(i64 8, ptr nonnull %outlen.i)
  br label %sw.epilog

sw.bb4:                                           ; preds = %entry
  %4 = load ptr, ptr %raw, align 8
  %size_.i29 = getelementptr inbounds %"class.rocksdb::Slice", ptr %raw, i64 0, i32 1
  %5 = load i64, ptr %size_.i29, align 8
  %call7 = tail call noundef zeroext i1 @_ZN7rocksdb13Zlib_CompressERKNS_15CompressionInfoEjPKcmPNSt7__cxx1112basic_stringIcSt11char_traitsIcESaIcEEE(ptr noundef nonnull align 8 dereferenceable(40) %compression_info, i32 noundef %compress_format_version, ptr noundef %4, i64 noundef %5, ptr noundef %compressed_output)
  br label %sw.epilog

sw.bb14:                                          ; preds = %entry
  %6 = load ptr, ptr %raw, align 8
  %size_.i31 = getelementptr inbounds %"class.rocksdb::Slice", ptr %raw, i64 0, i32 1
  %7 = load i64, ptr %size_.i31, align 8
  %call17 = tail call noundef zeroext i1 @_ZN7rocksdb12LZ4_CompressERKNS_15CompressionInfoEjPKcmPNSt7__cxx1112basic_stringIcSt11char_traitsIcESaIcEEE(ptr noundef nonnull align 8 dereferenceable(40) %compression_info, i32 noundef %compress_format_version, ptr noundef %6, i64 noundef %7, ptr noundef %compressed_output)
  br label %sw.epilog

sw.bb19:                                          ; preds = %entry
  %8 = load ptr, ptr %raw, align 8
  %size_.i32 = getelementptr inbounds %"class.rocksdb::Slice", ptr %raw, i64 0, i32 1
  %9 = load i64, ptr %size_.i32, align 8
  %call22 = tail call noundef zeroext i1 @_ZN7rocksdb14LZ4HC_CompressERKNS_15CompressionInfoEjPKcmPNSt7__cxx1112basic_stringIcSt11char_traitsIcESaIcEEE(ptr noundef nonnull align 8 dereferenceable(40) %compression_info, i32 noundef %compress_format_version, ptr noundef %8, i64 noundef %9, ptr noundef %compressed_output)
  br label %sw.epilog

sw.bb29:                                          ; preds = %entry, %entry
  %10 = load ptr, ptr %raw, align 8
  %size_.i34 = getelementptr inbounds %"class.rocksdb::Slice", ptr %raw, i64 0, i32 1
  %11 = load i64, ptr %size_.i34, align 8
  %call32 = tail call noundef zeroext i1 @_ZN7rocksdb13ZSTD_CompressERKNS_15CompressionInfoEPKcmPNSt7__cxx1112basic_stringIcSt11char_traitsIcESaIcEEE(ptr noundef nonnull align 8 dereferenceable(40) %compression_info, ptr noundef %10, i64 noundef %11, ptr noundef %compressed_output)
  br label %sw.epilog

sw.epilog:                                        ; preds = %entry, %sw.bb29, %sw.bb19, %sw.bb14, %sw.bb4, %sw.bb
  %ret.0.shrunk = phi i1 [ %call32, %sw.bb29 ], [ %call22, %sw.bb19 ], [ %call17, %sw.bb14 ], [ %call7, %sw.bb4 ], [ true, %sw.bb ], [ false, %entry ]
  ret i1 %ret.0.shrunk
}

; Function Attrs: mustprogress nounwind uwtable
define linkonce_odr void @_ZN7rocksdb9StopWatchD2Ev(ptr noundef nonnull align 8 dereferenceable(64) %this) unnamed_addr #0 comdat align 2 personality ptr @__gxx_personality_v0 {
entry:
  %elapsed_ = getelementptr inbounds %"class.rocksdb::StopWatch", ptr %this, i64 0, i32 4
  %0 = load ptr, ptr %elapsed_, align 8
  %tobool.not = icmp eq ptr %0, null
  br i1 %tobool.not, label %if.end20, label %if.then

if.then:                                          ; preds = %entry
  %overwrite_ = getelementptr inbounds %"class.rocksdb::StopWatch", ptr %this, i64 0, i32 5
  %1 = load i8, ptr %overwrite_, align 8
  %2 = and i8 %1, 1
  %tobool2.not = icmp eq i8 %2, 0
  %3 = load ptr, ptr %this, align 8
  %vtable6 = load ptr, ptr %3, align 8
  %vfn7 = getelementptr inbounds ptr, ptr %vtable6, i64 19
  %4 = load ptr, ptr %vfn7, align 8
  br i1 %tobool2.not, label %if.else, label %if.then3

if.then3:                                         ; preds = %if.then
  %call = invoke noundef i64 %4(ptr noundef nonnull align 8 dereferenceable(32) %3)
          to label %invoke.cont unwind label %terminate.lpad

invoke.cont:                                      ; preds = %if.then3
  %start_time_ = getelementptr inbounds %"class.rocksdb::StopWatch", ptr %this, i64 0, i32 10
  %5 = load i64, ptr %start_time_, align 8
  %sub = sub i64 %call, %5
  %6 = load ptr, ptr %elapsed_, align 8
  store i64 %sub, ptr %6, align 8
  br label %if.end13

if.else:                                          ; preds = %if.then
  %call9 = invoke noundef i64 %4(ptr noundef nonnull align 8 dereferenceable(32) %3)
          to label %invoke.cont8 unwind label %terminate.lpad

invoke.cont8:                                     ; preds = %if.else
  %start_time_10 = getelementptr inbounds %"class.rocksdb::StopWatch", ptr %this, i64 0, i32 10
  %7 = load i64, ptr %start_time_10, align 8
  %sub11 = sub i64 %call9, %7
  %8 = load ptr, ptr %elapsed_, align 8
  %9 = load i64, ptr %8, align 8
  %add = add i64 %sub11, %9
  store i64 %add, ptr %8, align 8
  br label %if.end13

if.end13:                                         ; preds = %invoke.cont, %invoke.cont8
  %.pr = load ptr, ptr %elapsed_, align 8
  %tobool15.not = icmp eq ptr %.pr, null
  br i1 %tobool15.not, label %if.end20, label %land.lhs.true

land.lhs.true:                                    ; preds = %if.end13
  %delay_enabled_ = getelementptr inbounds %"class.rocksdb::StopWatch", ptr %this, i64 0, i32 7
  %10 = load i8, ptr %delay_enabled_, align 2
  %11 = and i8 %10, 1
  %tobool16.not = icmp eq i8 %11, 0
  br i1 %tobool16.not, label %if.end20, label %if.then17

if.then17:                                        ; preds = %land.lhs.true
  %total_delay_ = getelementptr inbounds %"class.rocksdb::StopWatch", ptr %this, i64 0, i32 8
  %12 = load i64, ptr %total_delay_, align 8
  %13 = load i64, ptr %.pr, align 8
  %sub19 = sub i64 %13, %12
  store i64 %sub19, ptr %.pr, align 8
  br label %if.end20

if.end20:                                         ; preds = %entry, %if.then17, %land.lhs.true, %if.end13
  %stats_enabled_ = getelementptr inbounds %"class.rocksdb::StopWatch", ptr %this, i64 0, i32 6
  %14 = load i8, ptr %stats_enabled_, align 1
  %15 = and i8 %14, 1
  %tobool21.not = icmp eq i8 %15, 0
  br i1 %tobool21.not, label %if.end47, label %if.then22

if.then22:                                        ; preds = %if.end20
  %16 = load ptr, ptr %elapsed_, align 8
  %cmp.not = icmp eq ptr %16, null
  br i1 %cmp.not, label %cond.false, label %cond.true

cond.true:                                        ; preds = %if.then22
  %17 = load i64, ptr %16, align 8
  br label %cond.end

cond.false:                                       ; preds = %if.then22
  %18 = load ptr, ptr %this, align 8
  %vtable26 = load ptr, ptr %18, align 8
  %vfn27 = getelementptr inbounds ptr, ptr %vtable26, i64 19
  %19 = load ptr, ptr %vfn27, align 8
  %call29 = invoke noundef i64 %19(ptr noundef nonnull align 8 dereferenceable(32) %18)
          to label %invoke.cont28 unwind label %terminate.lpad

invoke.cont28:                                    ; preds = %cond.false
  %start_time_30 = getelementptr inbounds %"class.rocksdb::StopWatch", ptr %this, i64 0, i32 10
  %20 = load i64, ptr %start_time_30, align 8
  %sub31 = sub i64 %call29, %20
  br label %cond.end

cond.end:                                         ; preds = %invoke.cont28, %cond.true
  %cond = phi i64 [ %17, %cond.true ], [ %sub31, %invoke.cont28 ]
  %hist_type_1_ = getelementptr inbounds %"class.rocksdb::StopWatch", ptr %this, i64 0, i32 2
  %21 = load i32, ptr %hist_type_1_, align 8
  %cmp32.not = icmp eq i32 %21, 60
  br i1 %cmp32.not, label %if.end38, label %if.then33

if.then33:                                        ; preds = %cond.end
  %statistics_ = getelementptr inbounds %"class.rocksdb::StopWatch", ptr %this, i64 0, i32 1
  %22 = load ptr, ptr %statistics_, align 8
  %vtable35 = load ptr, ptr %22, align 8
  %vfn36 = getelementptr inbounds ptr, ptr %vtable35, i64 25
  %23 = load ptr, ptr %vfn36, align 8
  invoke void %23(ptr noundef nonnull align 8 dereferenceable(33) %22, i32 noundef %21, i64 noundef %cond)
          to label %if.end38 unwind label %terminate.lpad

if.end38:                                         ; preds = %if.then33, %cond.end
  %hist_type_2_ = getelementptr inbounds %"class.rocksdb::StopWatch", ptr %this, i64 0, i32 3
  %24 = load i32, ptr %hist_type_2_, align 4
  %cmp39.not = icmp eq i32 %24, 60
  br i1 %cmp39.not, label %if.end47, label %if.then40

if.then40:                                        ; preds = %if.end38
  %statistics_41 = getelementptr inbounds %"class.rocksdb::StopWatch", ptr %this, i64 0, i32 1
  %25 = load ptr, ptr %statistics_41, align 8
  %vtable43 = load ptr, ptr %25, align 8
  %vfn44 = getelementptr inbounds ptr, ptr %vtable43, i64 25
  %26 = load ptr, ptr %vfn44, align 8
  invoke void %26(ptr noundef nonnull align 8 dereferenceable(33) %25, i32 noundef %24, i64 noundef %cond)
          to label %if.end47 unwind label %terminate.lpad

if.end47:                                         ; preds = %if.end38, %if.then40, %if.end20
  ret void

terminate.lpad:                                   ; preds = %if.then40, %if.then33, %cond.false, %if.else, %if.then3
  %27 = landingpad { ptr, i32 }
          catch ptr null
  %28 = extractvalue { ptr, i32 } %27, 0
  tail call void @__clang_call_terminate(ptr %28) #20
  unreachable
}

; Function Attrs: mustprogress nounwind uwtable
define linkonce_odr void @_ZN7rocksdb18CompressionContextD2Ev(ptr noundef nonnull align 8 dereferenceable(8) %this) unnamed_addr #0 comdat align 2 personality ptr @__gxx_personality_v0 {
entry:
  %0 = load ptr, ptr %this, align 8
  %cmp.not.i = icmp eq ptr %0, null
  br i1 %cmp.not.i, label %invoke.cont, label %if.then.i

if.then.i:                                        ; preds = %entry
  %call.i1 = invoke i64 @ZSTD_freeCCtx(ptr noundef nonnull %0)
          to label %invoke.cont unwind label %terminate.lpad

invoke.cont:                                      ; preds = %entry, %if.then.i
  ret void

terminate.lpad:                                   ; preds = %if.then.i
  %1 = landingpad { ptr, i32 }
          catch ptr null
  %2 = extractvalue { ptr, i32 } %1, 0
  tail call void @__clang_call_terminate(ptr %2) #20
  unreachable
}

declare void @_ZN7rocksdb13BlobLogWriter9AddRecordERKNS_5SliceES3_PmS4_(ptr sret(%"class.rocksdb::Status") align 8, ptr noundef nonnull align 8 dereferenceable(48), ptr noundef nonnull align 8 dereferenceable(16), ptr noundef nonnull align 8 dereferenceable(16), ptr noundef, ptr noundef) local_unnamed_addr #3

declare void @_ZN7rocksdb13BlobLogWriter12AppendFooterERNS_13BlobLogFooterEPNSt7__cxx1112basic_stringIcSt11char_traitsIcESaIcEEES9_(ptr sret(%"class.rocksdb::Status") align 8, ptr noundef nonnull align 8 dereferenceable(48), ptr noundef nonnull align 8 dereferenceable(28), ptr noundef, ptr noundef) local_unnamed_addr #3

; Function Attrs: mustprogress uwtable
define linkonce_odr void @_ZN7rocksdb26BlobFileCompletionCallback19OnBlobFileCompletedERKNSt7__cxx1112basic_stringIcSt11char_traitsIcESaIcEEES8_imNS_22BlobFileCreationReasonERKNS_6StatusES8_S8_mm(ptr noalias sret(%"class.rocksdb::Status") align 8 %agg.result, ptr noundef nonnull align 8 dereferenceable(88) %this, ptr noundef nonnull align 8 dereferenceable(32) %file_name, ptr noundef nonnull align 8 dereferenceable(32) %column_family_name, i32 noundef %job_id, i64 noundef %file_number, i32 noundef %creation_reason, ptr noundef nonnull align 8 dereferenceable(16) %report_status, ptr noundef nonnull align 8 dereferenceable(32) %checksum_value, ptr noundef nonnull align 8 dereferenceable(32) %checksum_method, i64 noundef %blob_count, i64 noundef %blob_bytes) local_unnamed_addr #2 comdat align 2 personality ptr @__gxx_personality_v0 {
entry:
  %ref.tmp = alloca %"class.rocksdb::Status", align 8
  %ref.tmp5 = alloca %"class.rocksdb::Status", align 8
  %ref.tmp6 = alloca %"class.rocksdb::Slice", align 8
  %ref.tmp8 = alloca %"class.rocksdb::Slice", align 8
  %ref.tmp19 = alloca %"class.std::__cxx11::basic_string", align 8
  %ref.tmp22 = alloca %"class.std::allocator.0", align 1
  %ref.tmp28 = alloca %"class.std::__cxx11::basic_string", align 8
  %ref.tmp31 = alloca %"class.std::allocator.0", align 1
  %state_.i = getelementptr inbounds %"class.rocksdb::Status", ptr %agg.result, i64 0, i32 6
  store ptr null, ptr %state_.i, align 8
  tail call void @llvm.memset.p0.i64(ptr noundef nonnull align 8 dereferenceable(6) %agg.result, i8 0, i64 6, i1 false)
  %0 = load ptr, ptr %this, align 8
  %tobool.not = icmp eq ptr %0, null
  br i1 %tobool.not, label %invoke.cont17, label %if.then

if.then:                                          ; preds = %entry
  invoke void @_ZN7rocksdb18SstFileManagerImpl9OnAddFileERKNSt7__cxx1112basic_stringIcSt11char_traitsIcESaIcEEE(ptr nonnull sret(%"class.rocksdb::Status") align 8 %ref.tmp, ptr noundef nonnull align 8 dereferenceable(808) %0, ptr noundef nonnull align 8 dereferenceable(32) %file_name)
          to label %invoke.cont unwind label %lpad

invoke.cont:                                      ; preds = %if.then
  %cmp.not.i = icmp eq ptr %ref.tmp, %agg.result
  br i1 %cmp.not.i, label %_ZN7rocksdb6StatusaSEOS0_.exit, label %if.then.i

if.then.i:                                        ; preds = %invoke.cont
  %1 = load i8, ptr %ref.tmp, align 8
  store i8 %1, ptr %agg.result, align 8
  %subcode_.i = getelementptr inbounds %"class.rocksdb::Status", ptr %ref.tmp, i64 0, i32 1
  %2 = load i8, ptr %subcode_.i, align 1
  %subcode_4.i = getelementptr inbounds %"class.rocksdb::Status", ptr %agg.result, i64 0, i32 1
  store i8 %2, ptr %subcode_4.i, align 1
  %sev_.i = getelementptr inbounds %"class.rocksdb::Status", ptr %ref.tmp, i64 0, i32 2
  %3 = load i8, ptr %sev_.i, align 2
  %sev_6.i = getelementptr inbounds %"class.rocksdb::Status", ptr %agg.result, i64 0, i32 2
  store i8 %3, ptr %sev_6.i, align 2
  %retryable_.i = getelementptr inbounds %"class.rocksdb::Status", ptr %ref.tmp, i64 0, i32 3
  %4 = load i8, ptr %retryable_.i, align 1
  %5 = and i8 %4, 1
  %retryable_8.i = getelementptr inbounds %"class.rocksdb::Status", ptr %agg.result, i64 0, i32 3
  store i8 %5, ptr %retryable_8.i, align 1
  store <4 x i8> zeroinitializer, ptr %ref.tmp, align 8
  %data_loss_.i = getelementptr inbounds %"class.rocksdb::Status", ptr %ref.tmp, i64 0, i32 4
  %6 = load i8, ptr %data_loss_.i, align 4
  %7 = and i8 %6, 1
  %data_loss_11.i = getelementptr inbounds %"class.rocksdb::Status", ptr %agg.result, i64 0, i32 4
  store i8 %7, ptr %data_loss_11.i, align 4
  store i8 0, ptr %data_loss_.i, align 4
  %scope_.i = getelementptr inbounds %"class.rocksdb::Status", ptr %ref.tmp, i64 0, i32 5
  %8 = load i8, ptr %scope_.i, align 1
  %scope_14.i = getelementptr inbounds %"class.rocksdb::Status", ptr %agg.result, i64 0, i32 5
  store i8 %8, ptr %scope_14.i, align 1
  store i8 0, ptr %scope_.i, align 1
  %state_.i10 = getelementptr inbounds %"class.rocksdb::Status", ptr %ref.tmp, i64 0, i32 6
  %9 = load ptr, ptr %state_.i10, align 8
  store ptr null, ptr %state_.i10, align 8
  %10 = load ptr, ptr %state_.i, align 8
  store ptr %9, ptr %state_.i, align 8
  %tobool.not.i.i.i.i.i = icmp eq ptr %10, null
  br i1 %tobool.not.i.i.i.i.i, label %_ZN7rocksdb6StatusaSEOS0_.exit, label %_ZNKSt14default_deleteIA_KcEclIS0_EENSt9enable_ifIXsr14is_convertibleIPA_T_PS1_EE5valueEvE4typeEPS5_.exit.i.i.i.i.i

_ZNKSt14default_deleteIA_KcEclIS0_EENSt9enable_ifIXsr14is_convertibleIPA_T_PS1_EE5valueEvE4typeEPS5_.exit.i.i.i.i.i: ; preds = %if.then.i
  call void @_ZdaPv(ptr noundef nonnull %10) #18
  br label %_ZN7rocksdb6StatusaSEOS0_.exit

_ZN7rocksdb6StatusaSEOS0_.exit:                   ; preds = %invoke.cont, %if.then.i, %_ZNKSt14default_deleteIA_KcEclIS0_EENSt9enable_ifIXsr14is_convertibleIPA_T_PS1_EE5valueEvE4typeEPS5_.exit.i.i.i.i.i
  %state_.i11 = getelementptr inbounds %"class.rocksdb::Status", ptr %ref.tmp, i64 0, i32 6
  %11 = load ptr, ptr %state_.i11, align 8
  %cmp.not.i.i = icmp eq ptr %11, null
  br i1 %cmp.not.i.i, label %_ZN7rocksdb6StatusD2Ev.exit, label %_ZNKSt14default_deleteIA_KcEclIS0_EENSt9enable_ifIXsr14is_convertibleIPA_T_PS1_EE5valueEvE4typeEPS5_.exit.i.i

_ZNKSt14default_deleteIA_KcEclIS0_EENSt9enable_ifIXsr14is_convertibleIPA_T_PS1_EE5valueEvE4typeEPS5_.exit.i.i: ; preds = %_ZN7rocksdb6StatusaSEOS0_.exit
  call void @_ZdaPv(ptr noundef nonnull %11) #18
  br label %_ZN7rocksdb6StatusD2Ev.exit

_ZN7rocksdb6StatusD2Ev.exit:                      ; preds = %_ZN7rocksdb6StatusaSEOS0_.exit, %_ZNKSt14default_deleteIA_KcEclIS0_EENSt9enable_ifIXsr14is_convertibleIPA_T_PS1_EE5valueEvE4typeEPS5_.exit.i.i
  store ptr null, ptr %state_.i11, align 8
  %vtable = load ptr, ptr %0, align 8
  %vfn = getelementptr inbounds ptr, ptr %vtable, i64 4
  %12 = load ptr, ptr %vfn, align 8
  %call3 = invoke noundef zeroext i1 %12(ptr noundef nonnull align 8 dereferenceable(808) %0)
          to label %invoke.cont2 unwind label %lpad

invoke.cont2:                                     ; preds = %_ZN7rocksdb6StatusD2Ev.exit
  br i1 %call3, label %if.then4, label %invoke.cont17

if.then4:                                         ; preds = %invoke.cont2
  store ptr @.str.10, ptr %ref.tmp6, align 8
  %size_.i = getelementptr inbounds %"class.rocksdb::Slice", ptr %ref.tmp6, i64 0, i32 1
  store i64 29, ptr %size_.i, align 8
  store ptr @.str.4, ptr %ref.tmp8, align 8
  %size_.i12 = getelementptr inbounds %"class.rocksdb::Slice", ptr %ref.tmp8, i64 0, i32 1
  store i64 0, ptr %size_.i12, align 8
  invoke void @_ZN7rocksdb6StatusC1ENS0_4CodeENS0_7SubCodeERKNS_5SliceES5_NS0_8SeverityE(ptr noundef nonnull align 8 dereferenceable(16) %ref.tmp5, i8 noundef zeroext 5, i8 noundef zeroext 8, ptr noundef nonnull align 8 dereferenceable(16) %ref.tmp6, ptr noundef nonnull align 8 dereferenceable(16) %ref.tmp8, i8 noundef zeroext 0)
          to label %invoke.cont10 unwind label %lpad

invoke.cont10:                                    ; preds = %if.then4
  %cmp.not.i13 = icmp eq ptr %ref.tmp5, %agg.result
  br i1 %cmp.not.i13, label %_ZN7rocksdb6StatusaSEOS0_.exit29, label %if.then.i14

if.then.i14:                                      ; preds = %invoke.cont10
  %13 = load i8, ptr %ref.tmp5, align 8
  store i8 %13, ptr %agg.result, align 8
  %subcode_.i15 = getelementptr inbounds %"class.rocksdb::Status", ptr %ref.tmp5, i64 0, i32 1
  %14 = load i8, ptr %subcode_.i15, align 1
  %subcode_4.i16 = getelementptr inbounds %"class.rocksdb::Status", ptr %agg.result, i64 0, i32 1
  store i8 %14, ptr %subcode_4.i16, align 1
  %sev_.i17 = getelementptr inbounds %"class.rocksdb::Status", ptr %ref.tmp5, i64 0, i32 2
  %15 = load i8, ptr %sev_.i17, align 2
  %sev_6.i18 = getelementptr inbounds %"class.rocksdb::Status", ptr %agg.result, i64 0, i32 2
  store i8 %15, ptr %sev_6.i18, align 2
  %retryable_.i19 = getelementptr inbounds %"class.rocksdb::Status", ptr %ref.tmp5, i64 0, i32 3
  %16 = load i8, ptr %retryable_.i19, align 1
  %17 = and i8 %16, 1
  %retryable_8.i20 = getelementptr inbounds %"class.rocksdb::Status", ptr %agg.result, i64 0, i32 3
  store i8 %17, ptr %retryable_8.i20, align 1
  store <4 x i8> zeroinitializer, ptr %ref.tmp5, align 8
  %data_loss_.i21 = getelementptr inbounds %"class.rocksdb::Status", ptr %ref.tmp5, i64 0, i32 4
  %18 = load i8, ptr %data_loss_.i21, align 4
  %19 = and i8 %18, 1
  %data_loss_11.i22 = getelementptr inbounds %"class.rocksdb::Status", ptr %agg.result, i64 0, i32 4
  store i8 %19, ptr %data_loss_11.i22, align 4
  store i8 0, ptr %data_loss_.i21, align 4
  %scope_.i23 = getelementptr inbounds %"class.rocksdb::Status", ptr %ref.tmp5, i64 0, i32 5
  %20 = load i8, ptr %scope_.i23, align 1
  %scope_14.i24 = getelementptr inbounds %"class.rocksdb::Status", ptr %agg.result, i64 0, i32 5
  store i8 %20, ptr %scope_14.i24, align 1
  store i8 0, ptr %scope_.i23, align 1
  %state_.i25 = getelementptr inbounds %"class.rocksdb::Status", ptr %ref.tmp5, i64 0, i32 6
  %21 = load ptr, ptr %state_.i25, align 8
  store ptr null, ptr %state_.i25, align 8
  %22 = load ptr, ptr %state_.i, align 8
  store ptr %21, ptr %state_.i, align 8
  %tobool.not.i.i.i.i.i27 = icmp eq ptr %22, null
  br i1 %tobool.not.i.i.i.i.i27, label %_ZN7rocksdb6StatusaSEOS0_.exit29, label %_ZNKSt14default_deleteIA_KcEclIS0_EENSt9enable_ifIXsr14is_convertibleIPA_T_PS1_EE5valueEvE4typeEPS5_.exit.i.i.i.i.i28

_ZNKSt14default_deleteIA_KcEclIS0_EENSt9enable_ifIXsr14is_convertibleIPA_T_PS1_EE5valueEvE4typeEPS5_.exit.i.i.i.i.i28: ; preds = %if.then.i14
  call void @_ZdaPv(ptr noundef nonnull %22) #18
  br label %_ZN7rocksdb6StatusaSEOS0_.exit29

_ZN7rocksdb6StatusaSEOS0_.exit29:                 ; preds = %invoke.cont10, %if.then.i14, %_ZNKSt14default_deleteIA_KcEclIS0_EENSt9enable_ifIXsr14is_convertibleIPA_T_PS1_EE5valueEvE4typeEPS5_.exit.i.i.i.i.i28
  %state_.i30 = getelementptr inbounds %"class.rocksdb::Status", ptr %ref.tmp5, i64 0, i32 6
  %23 = load ptr, ptr %state_.i30, align 8
  %cmp.not.i.i31 = icmp eq ptr %23, null
  br i1 %cmp.not.i.i31, label %_ZN7rocksdb6StatusD2Ev.exit33, label %_ZNKSt14default_deleteIA_KcEclIS0_EENSt9enable_ifIXsr14is_convertibleIPA_T_PS1_EE5valueEvE4typeEPS5_.exit.i.i32

_ZNKSt14default_deleteIA_KcEclIS0_EENSt9enable_ifIXsr14is_convertibleIPA_T_PS1_EE5valueEvE4typeEPS5_.exit.i.i32: ; preds = %_ZN7rocksdb6StatusaSEOS0_.exit29
  call void @_ZdaPv(ptr noundef nonnull %23) #18
  br label %_ZN7rocksdb6StatusD2Ev.exit33

_ZN7rocksdb6StatusD2Ev.exit33:                    ; preds = %_ZN7rocksdb6StatusaSEOS0_.exit29, %_ZNKSt14default_deleteIA_KcEclIS0_EENSt9enable_ifIXsr14is_convertibleIPA_T_PS1_EE5valueEvE4typeEPS5_.exit.i.i32
  store ptr null, ptr %state_.i30, align 8
  %mutex_ = getelementptr inbounds %"class.rocksdb::BlobFileCompletionCallback", ptr %this, i64 0, i32 1
  %24 = load ptr, ptr %mutex_, align 8
  invoke void @_ZN7rocksdb17InstrumentedMutex4LockEv(ptr noundef nonnull align 8 dereferenceable(60) %24)
          to label %invoke.cont12 unwind label %lpad

invoke.cont12:                                    ; preds = %_ZN7rocksdb6StatusD2Ev.exit33
  %error_handler_ = getelementptr inbounds %"class.rocksdb::BlobFileCompletionCallback", ptr %this, i64 0, i32 2
  %25 = load ptr, ptr %error_handler_, align 8
  %call15 = invoke noundef nonnull align 8 dereferenceable(16) ptr @_ZN7rocksdb12ErrorHandler10SetBGErrorERKNS_6StatusENS_21BackgroundErrorReasonE(ptr noundef nonnull align 8 dereferenceable(288) %25, ptr noundef nonnull align 8 dereferenceable(16) %agg.result, i32 noundef 0)
          to label %invoke.cont14 unwind label %lpad13

invoke.cont14:                                    ; preds = %invoke.cont12
  invoke void @_ZN7rocksdb4port5Mutex6UnlockEv(ptr noundef nonnull align 8 dereferenceable(40) %24)
          to label %invoke.cont17 unwind label %terminate.lpad.i

terminate.lpad.i:                                 ; preds = %invoke.cont14
  %26 = landingpad { ptr, i32 }
          catch ptr null
  %27 = extractvalue { ptr, i32 } %26, 0
  call void @__clang_call_terminate(ptr %27) #20
  unreachable

lpad:                                             ; preds = %_ZN7rocksdb6StatusD2Ev.exit33, %if.then4, %_ZN7rocksdb6StatusD2Ev.exit, %if.then
  %28 = landingpad { ptr, i32 }
          cleanup
  br label %ehcleanup51

lpad13:                                           ; preds = %invoke.cont12
  %29 = landingpad { ptr, i32 }
          cleanup
  invoke void @_ZN7rocksdb4port5Mutex6UnlockEv(ptr noundef nonnull align 8 dereferenceable(40) %24)
          to label %ehcleanup51 unwind label %terminate.lpad.i34

terminate.lpad.i34:                               ; preds = %lpad13
  %30 = landingpad { ptr, i32 }
          catch ptr null
  %31 = extractvalue { ptr, i32 } %30, 0
  call void @__clang_call_terminate(ptr %31) #20
  unreachable

invoke.cont17:                                    ; preds = %entry, %invoke.cont2, %invoke.cont14
  %event_logger_ = getelementptr inbounds %"class.rocksdb::BlobFileCompletionCallback", ptr %this, i64 0, i32 3
  %32 = load ptr, ptr %event_logger_, align 8
  %listeners_ = getelementptr inbounds %"class.rocksdb::BlobFileCompletionCallback", ptr %this, i64 0, i32 4
  %dbname_ = getelementptr inbounds %"class.rocksdb::BlobFileCompletionCallback", ptr %this, i64 0, i32 5
  %33 = load i8, ptr %report_status, align 8
  %cmp.i = icmp eq i8 %33, 0
  %cond-lvalue = select i1 %cmp.i, ptr %agg.result, ptr %report_status
  %call20 = call noundef zeroext i1 @_ZNKSt7__cxx1112basic_stringIcSt11char_traitsIcESaIcEE5emptyEv(ptr noundef nonnull align 8 dereferenceable(32) %checksum_value) #19
  br i1 %call20, label %cond.true21, label %cond.false25

cond.true21:                                      ; preds = %invoke.cont17
  call void @_ZNSaIcEC1Ev(ptr noundef nonnull align 1 dereferenceable(1) %ref.tmp22) #19
  %call.i3637 = invoke noundef ptr @_ZNSt7__cxx1112basic_stringIcSt11char_traitsIcESaIcEE13_M_local_dataEv(ptr noundef nonnull align 8 dereferenceable(32) %ref.tmp19)
          to label %call.i36.noexc unwind label %lpad23

call.i36.noexc:                                   ; preds = %cond.true21
  invoke void @_ZNSt7__cxx1112basic_stringIcSt11char_traitsIcESaIcEE12_Alloc_hiderC1EPcRKS3_(ptr noundef nonnull align 8 dereferenceable(8) %ref.tmp19, ptr noundef %call.i3637, ptr noundef nonnull align 1 dereferenceable(1) %ref.tmp22)
          to label %.noexc unwind label %lpad23

.noexc:                                           ; preds = %call.i36.noexc
  invoke void @_ZNSt7__cxx1112basic_stringIcSt11char_traitsIcESaIcEE12_M_constructIPKcEEvT_S8_St20forward_iterator_tag(ptr noundef nonnull align 8 dereferenceable(32) %ref.tmp19, ptr noundef nonnull @.str.4, ptr noundef nonnull @.str.4)
          to label %cond.end27 unwind label %ehcleanup47.thread

ehcleanup47.thread:                               ; preds = %.noexc
  %34 = landingpad { ptr, i32 }
          cleanup
  call void @_ZNSaIcED2Ev(ptr noundef nonnull align 1 dereferenceable(1) %ref.tmp19) #19
  br label %cleanup.action49

cond.false25:                                     ; preds = %invoke.cont17
  invoke void @_ZNSt7__cxx1112basic_stringIcSt11char_traitsIcESaIcEEC1ERKS4_(ptr noundef nonnull align 8 dereferenceable(32) %ref.tmp19, ptr noundef nonnull align 8 dereferenceable(32) %checksum_value)
          to label %cond.end27 unwind label %lpad23

cond.end27:                                       ; preds = %.noexc, %cond.false25
  %call29 = call noundef zeroext i1 @_ZNKSt7__cxx1112basic_stringIcSt11char_traitsIcESaIcEE5emptyEv(ptr noundef nonnull align 8 dereferenceable(32) %checksum_method) #19
  br i1 %call29, label %cond.true30, label %cond.false35

cond.true30:                                      ; preds = %cond.end27
  call void @_ZNSaIcEC1Ev(ptr noundef nonnull align 1 dereferenceable(1) %ref.tmp31) #19
  %call.i3842 = invoke noundef ptr @_ZNSt7__cxx1112basic_stringIcSt11char_traitsIcESaIcEE13_M_local_dataEv(ptr noundef nonnull align 8 dereferenceable(32) %ref.tmp28)
          to label %call.i38.noexc unwind label %lpad33

call.i38.noexc:                                   ; preds = %cond.true30
  invoke void @_ZNSt7__cxx1112basic_stringIcSt11char_traitsIcESaIcEE12_Alloc_hiderC1EPcRKS3_(ptr noundef nonnull align 8 dereferenceable(8) %ref.tmp28, ptr noundef %call.i3842, ptr noundef nonnull align 1 dereferenceable(1) %ref.tmp31)
          to label %.noexc43 unwind label %lpad33

.noexc43:                                         ; preds = %call.i38.noexc
  invoke void @_ZNSt7__cxx1112basic_stringIcSt11char_traitsIcESaIcEE12_M_constructIPKcEEvT_S8_St20forward_iterator_tag(ptr noundef nonnull align 8 dereferenceable(32) %ref.tmp28, ptr noundef nonnull @_ZN7rocksdbL28kUnknownFileChecksumFuncNameE, ptr noundef nonnull getelementptr inbounds ([8 x i8], ptr @_ZN7rocksdbL28kUnknownFileChecksumFuncNameE, i64 0, i64 7))
          to label %cond.end37 unwind label %ehcleanup.thread

ehcleanup.thread:                                 ; preds = %.noexc43
  %35 = landingpad { ptr, i32 }
          cleanup
  call void @_ZNSaIcED2Ev(ptr noundef nonnull align 1 dereferenceable(1) %ref.tmp28) #19
  br label %cleanup.action41

cond.false35:                                     ; preds = %cond.end27
  invoke void @_ZNSt7__cxx1112basic_stringIcSt11char_traitsIcESaIcEEC1ERKS4_(ptr noundef nonnull align 8 dereferenceable(32) %ref.tmp28, ptr noundef nonnull align 8 dereferenceable(32) %checksum_method)
          to label %cond.end37 unwind label %lpad33

cond.end37:                                       ; preds = %.noexc43, %cond.false35
  invoke void @_ZN7rocksdb12EventHelpers36LogAndNotifyBlobFileCreationFinishedEPNS_11EventLoggerERKSt6vectorISt10shared_ptrINS_13EventListenerEESaIS6_EERKNSt7__cxx1112basic_stringIcSt11char_traitsIcESaIcEEESI_SI_imNS_22BlobFileCreationReasonERKNS_6StatusESI_SI_mm(ptr noundef %32, ptr noundef nonnull align 8 dereferenceable(24) %listeners_, ptr noundef nonnull align 8 dereferenceable(32) %dbname_, ptr noundef nonnull align 8 dereferenceable(32) %column_family_name, ptr noundef nonnull align 8 dereferenceable(32) %file_name, i32 noundef %job_id, i64 noundef %file_number, i32 noundef %creation_reason, ptr noundef nonnull align 8 dereferenceable(16) %cond-lvalue, ptr noundef nonnull align 8 dereferenceable(32) %ref.tmp19, ptr noundef nonnull align 8 dereferenceable(32) %ref.tmp28, i64 noundef %blob_count, i64 noundef %blob_bytes)
          to label %invoke.cont39 unwind label %lpad38

invoke.cont39:                                    ; preds = %cond.end37
  call void @_ZNSt7__cxx1112basic_stringIcSt11char_traitsIcESaIcEED1Ev(ptr noundef nonnull align 8 dereferenceable(32) %ref.tmp28) #19
  br i1 %call29, label %cleanup.action, label %cleanup.done

cleanup.action:                                   ; preds = %invoke.cont39
  call void @_ZNSaIcED1Ev(ptr noundef nonnull align 1 dereferenceable(1) %ref.tmp31) #19
  br label %cleanup.done

cleanup.done:                                     ; preds = %cleanup.action, %invoke.cont39
  call void @_ZNSt7__cxx1112basic_stringIcSt11char_traitsIcESaIcEED1Ev(ptr noundef nonnull align 8 dereferenceable(32) %ref.tmp19) #19
  br i1 %call20, label %cleanup.action45, label %nrvo.skipdtor

cleanup.action45:                                 ; preds = %cleanup.done
  call void @_ZNSaIcED1Ev(ptr noundef nonnull align 1 dereferenceable(1) %ref.tmp22) #19
  br label %nrvo.skipdtor

lpad23:                                           ; preds = %call.i36.noexc, %cond.true21, %cond.false25
  %36 = landingpad { ptr, i32 }
          cleanup
  br label %ehcleanup47

lpad33:                                           ; preds = %call.i38.noexc, %cond.true30, %cond.false35
  %37 = landingpad { ptr, i32 }
          cleanup
  br label %ehcleanup

lpad38:                                           ; preds = %cond.end37
  %38 = landingpad { ptr, i32 }
          cleanup
  call void @_ZNSt7__cxx1112basic_stringIcSt11char_traitsIcESaIcEED1Ev(ptr noundef nonnull align 8 dereferenceable(32) %ref.tmp28) #19
  br label %ehcleanup

ehcleanup:                                        ; preds = %lpad33, %lpad38
  %.pn = phi { ptr, i32 } [ %38, %lpad38 ], [ %37, %lpad33 ]
  br i1 %call29, label %cleanup.action41, label %cleanup.done42

cleanup.action41:                                 ; preds = %ehcleanup.thread, %ehcleanup
  %.pn53 = phi { ptr, i32 } [ %35, %ehcleanup.thread ], [ %.pn, %ehcleanup ]
  call void @_ZNSaIcED1Ev(ptr noundef nonnull align 1 dereferenceable(1) %ref.tmp31) #19
  br label %cleanup.done42

cleanup.done42:                                   ; preds = %cleanup.action41, %ehcleanup
  %.pn52 = phi { ptr, i32 } [ %.pn53, %cleanup.action41 ], [ %.pn, %ehcleanup ]
  call void @_ZNSt7__cxx1112basic_stringIcSt11char_traitsIcESaIcEED1Ev(ptr noundef nonnull align 8 dereferenceable(32) %ref.tmp19) #19
  br label %ehcleanup47

ehcleanup47:                                      ; preds = %lpad23, %cleanup.done42
  %.pn.pn = phi { ptr, i32 } [ %.pn52, %cleanup.done42 ], [ %36, %lpad23 ]
  br i1 %call20, label %cleanup.action49, label %ehcleanup51

cleanup.action49:                                 ; preds = %ehcleanup47.thread, %ehcleanup47
  %.pn.pn55 = phi { ptr, i32 } [ %34, %ehcleanup47.thread ], [ %.pn.pn, %ehcleanup47 ]
  call void @_ZNSaIcED1Ev(ptr noundef nonnull align 1 dereferenceable(1) %ref.tmp22) #19
  br label %ehcleanup51

nrvo.skipdtor:                                    ; preds = %cleanup.done, %cleanup.action45
  ret void

ehcleanup51:                                      ; preds = %lpad13, %ehcleanup47, %cleanup.action49, %lpad
  %.pn.pn.pn = phi { ptr, i32 } [ %.pn.pn55, %cleanup.action49 ], [ %.pn.pn, %ehcleanup47 ], [ %28, %lpad ], [ %29, %lpad13 ]
  %39 = load ptr, ptr %state_.i, align 8
  %cmp.not.i.i47 = icmp eq ptr %39, null
  br i1 %cmp.not.i.i47, label %_ZN7rocksdb6StatusD2Ev.exit49, label %_ZNKSt14default_deleteIA_KcEclIS0_EENSt9enable_ifIXsr14is_convertibleIPA_T_PS1_EE5valueEvE4typeEPS5_.exit.i.i48

_ZNKSt14default_deleteIA_KcEclIS0_EENSt9enable_ifIXsr14is_convertibleIPA_T_PS1_EE5valueEvE4typeEPS5_.exit.i.i48: ; preds = %ehcleanup51
  call void @_ZdaPv(ptr noundef nonnull %39) #18
  br label %_ZN7rocksdb6StatusD2Ev.exit49

_ZN7rocksdb6StatusD2Ev.exit49:                    ; preds = %ehcleanup51, %_ZNKSt14default_deleteIA_KcEclIS0_EENSt9enable_ifIXsr14is_convertibleIPA_T_PS1_EE5valueEvE4typeEPS5_.exit.i.i48
  store ptr null, ptr %state_.i, align 8
  resume { ptr, i32 } %.pn.pn.pn
}

; Function Attrs: mustprogress uwtable
define linkonce_odr noundef nonnull align 8 dereferenceable(88) ptr @_ZNSt6vectorIN7rocksdb16BlobFileAdditionESaIS1_EE12emplace_backIJRKmRmS7_NSt7__cxx1112basic_stringIcSt11char_traitsIcESaIcEEESD_EEERS1_DpOT_(ptr noundef nonnull align 8 dereferenceable(24) %this, ptr noundef nonnull align 8 dereferenceable(8) %__args, ptr noundef nonnull align 8 dereferenceable(8) %__args1, ptr noundef nonnull align 8 dereferenceable(8) %__args3, ptr noundef nonnull align 8 dereferenceable(32) %__args5, ptr noundef nonnull align 8 dereferenceable(32) %__args7) local_unnamed_addr #2 comdat align 2 personality ptr @__gxx_personality_v0 {
entry:
  %agg.tmp.i.i = alloca %"class.std::__cxx11::basic_string", align 8
  %agg.tmp10.i.i = alloca %"class.std::__cxx11::basic_string", align 8
  %_M_finish = getelementptr inbounds %"struct.std::_Vector_base<rocksdb::BlobFileAddition, std::allocator<rocksdb::BlobFileAddition>>::_Vector_impl_data", ptr %this, i64 0, i32 1
  %0 = load ptr, ptr %_M_finish, align 8
  %_M_end_of_storage = getelementptr inbounds %"struct.std::_Vector_base<rocksdb::BlobFileAddition, std::allocator<rocksdb::BlobFileAddition>>::_Vector_impl_data", ptr %this, i64 0, i32 2
  %1 = load ptr, ptr %_M_end_of_storage, align 8
  %cmp.not = icmp eq ptr %0, %1
  br i1 %cmp.not, label %if.else, label %if.then

if.then:                                          ; preds = %entry
  call void @llvm.lifetime.start.p0(i64 32, ptr nonnull %agg.tmp.i.i)
  call void @llvm.lifetime.start.p0(i64 32, ptr nonnull %agg.tmp10.i.i)
  %2 = load i64, ptr %__args, align 8
  %3 = load i64, ptr %__args1, align 8
  %4 = load i64, ptr %__args3, align 8
  call void @_ZNSt7__cxx1112basic_stringIcSt11char_traitsIcESaIcEEC1EOS4_(ptr noundef nonnull align 8 dereferenceable(32) %agg.tmp.i.i, ptr noundef nonnull align 8 dereferenceable(32) %__args5) #19
  call void @_ZNSt7__cxx1112basic_stringIcSt11char_traitsIcESaIcEEC1EOS4_(ptr noundef nonnull align 8 dereferenceable(32) %agg.tmp10.i.i, ptr noundef nonnull align 8 dereferenceable(32) %__args7) #19
  store i64 %2, ptr %0, align 8
  %total_blob_count_.i.i.i = getelementptr inbounds %"class.rocksdb::BlobFileAddition", ptr %0, i64 0, i32 1
  store i64 %3, ptr %total_blob_count_.i.i.i, align 8
  %total_blob_bytes_.i.i.i = getelementptr inbounds %"class.rocksdb::BlobFileAddition", ptr %0, i64 0, i32 2
  store i64 %4, ptr %total_blob_bytes_.i.i.i, align 8
  %checksum_method_.i.i.i = getelementptr inbounds %"class.rocksdb::BlobFileAddition", ptr %0, i64 0, i32 3
  call void @_ZNSt7__cxx1112basic_stringIcSt11char_traitsIcESaIcEEC1EOS4_(ptr noundef nonnull align 8 dereferenceable(32) %checksum_method_.i.i.i, ptr noundef nonnull align 8 dereferenceable(32) %agg.tmp.i.i) #19
  %checksum_value_.i.i.i = getelementptr inbounds %"class.rocksdb::BlobFileAddition", ptr %0, i64 0, i32 4
  call void @_ZNSt7__cxx1112basic_stringIcSt11char_traitsIcESaIcEEC1EOS4_(ptr noundef nonnull align 8 dereferenceable(32) %checksum_value_.i.i.i, ptr noundef nonnull align 8 dereferenceable(32) %agg.tmp10.i.i) #19
  call void @_ZNSt7__cxx1112basic_stringIcSt11char_traitsIcESaIcEED1Ev(ptr noundef nonnull align 8 dereferenceable(32) %agg.tmp10.i.i) #19
  call void @_ZNSt7__cxx1112basic_stringIcSt11char_traitsIcESaIcEED1Ev(ptr noundef nonnull align 8 dereferenceable(32) %agg.tmp.i.i) #19
  call void @llvm.lifetime.end.p0(i64 32, ptr nonnull %agg.tmp.i.i)
  call void @llvm.lifetime.end.p0(i64 32, ptr nonnull %agg.tmp10.i.i)
  %5 = load ptr, ptr %_M_finish, align 8
  %incdec.ptr = getelementptr inbounds %"class.rocksdb::BlobFileAddition", ptr %5, i64 1
  store ptr %incdec.ptr, ptr %_M_finish, align 8
  br label %if.end

if.else:                                          ; preds = %entry
  tail call void @_ZNSt6vectorIN7rocksdb16BlobFileAdditionESaIS1_EE17_M_realloc_insertIJRKmRmS7_NSt7__cxx1112basic_stringIcSt11char_traitsIcESaIcEEESD_EEEvN9__gnu_cxx17__normal_iteratorIPS1_S3_EEDpOT_(ptr noundef nonnull align 8 dereferenceable(24) %this, ptr %0, ptr noundef nonnull align 8 dereferenceable(8) %__args, ptr noundef nonnull align 8 dereferenceable(8) %__args1, ptr noundef nonnull align 8 dereferenceable(8) %__args3, ptr noundef nonnull align 8 dereferenceable(32) %__args5, ptr noundef nonnull align 8 dereferenceable(32) %__args7)
  %.pre = load ptr, ptr %_M_finish, align 8
  br label %if.end

if.end:                                           ; preds = %if.else, %if.then
  %6 = phi ptr [ %.pre, %if.else ], [ %incdec.ptr, %if.then ]
  %add.ptr.i.i = getelementptr inbounds %"class.rocksdb::BlobFileAddition", ptr %6, i64 -1
  ret ptr %add.ptr.i.i
}

declare void @_ZN7rocksdb3LogENS_12InfoLogLevelEPNS_6LoggerEPKcz(i8 noundef zeroext, ptr noundef, ptr noundef, ...) local_unnamed_addr #3

; Function Attrs: mustprogress uwtable
define void @_ZN7rocksdb15BlobFileBuilder7AbandonERKNS_6StatusE(ptr noundef nonnull align 8 dereferenceable(264) %this, ptr noundef nonnull align 8 dereferenceable(16) %s) local_unnamed_addr #2 align 2 personality ptr @__gxx_personality_v0 {
entry:
  %ref.tmp = alloca %"class.rocksdb::Status", align 8
  %ref.tmp7 = alloca %"class.std::__cxx11::basic_string", align 8
  %ref.tmp8 = alloca %"class.std::allocator.0", align 1
  %ref.tmp9 = alloca %"class.std::__cxx11::basic_string", align 8
  %ref.tmp10 = alloca %"class.std::allocator.0", align 1
  %writer_.i = getelementptr inbounds %"class.rocksdb::BlobFileBuilder", ptr %this, i64 0, i32 20
  %0 = load ptr, ptr %writer_.i, align 8
  %cmp.i.i.not = icmp eq ptr %0, null
  br i1 %cmp.i.i.not, label %return, label %if.end

if.end:                                           ; preds = %entry
  %blob_callback_ = getelementptr inbounds %"class.rocksdb::BlobFileBuilder", ptr %this, i64 0, i32 16
  %1 = load ptr, ptr %blob_callback_, align 8
  %tobool.not = icmp eq ptr %1, null
  br i1 %tobool.not, label %if.end20.thread, label %if.then2

if.end20.thread:                                  ; preds = %if.end
  store ptr null, ptr %writer_.i, align 8
  br label %_ZNKSt14default_deleteIN7rocksdb13BlobLogWriterEEclEPS1_.exit.i.i

if.then2:                                         ; preds = %if.end
  %blob_file_paths_ = getelementptr inbounds %"class.rocksdb::BlobFileBuilder", ptr %this, i64 0, i32 18
  %2 = load ptr, ptr %blob_file_paths_, align 8
  %_M_finish.i.i = getelementptr inbounds %"struct.std::_Vector_base<std::__cxx11::basic_string<char>, std::allocator<std::__cxx11::basic_string<char>>>::_Vector_impl_data", ptr %2, i64 0, i32 1
  %3 = load ptr, ptr %_M_finish.i.i, align 8
  %add.ptr.i.i = getelementptr inbounds %"class.std::__cxx11::basic_string", ptr %3, i64 -1
  %column_family_name_ = getelementptr inbounds %"class.rocksdb::BlobFileBuilder", ptr %this, i64 0, i32 12
  %job_id_ = getelementptr inbounds %"class.rocksdb::BlobFileBuilder", ptr %this, i64 0, i32 10
  %4 = load i32, ptr %job_id_, align 8
  %log_number_.i = getelementptr inbounds %"class.rocksdb::BlobLogWriter", ptr %0, i64 0, i32 3
  %5 = load i64, ptr %log_number_.i, align 8
  %creation_reason_ = getelementptr inbounds %"class.rocksdb::BlobFileBuilder", ptr %this, i64 0, i32 17
  %6 = load i32, ptr %creation_reason_, align 8
  call void @_ZNSaIcEC1Ev(ptr noundef nonnull align 1 dereferenceable(1) %ref.tmp8) #19
  %call.i3 = invoke noundef ptr @_ZNSt7__cxx1112basic_stringIcSt11char_traitsIcESaIcEE13_M_local_dataEv(ptr noundef nonnull align 8 dereferenceable(32) %ref.tmp7)
          to label %call.i.noexc unwind label %lpad

call.i.noexc:                                     ; preds = %if.then2
  invoke void @_ZNSt7__cxx1112basic_stringIcSt11char_traitsIcESaIcEE12_Alloc_hiderC1EPcRKS3_(ptr noundef nonnull align 8 dereferenceable(8) %ref.tmp7, ptr noundef %call.i3, ptr noundef nonnull align 1 dereferenceable(1) %ref.tmp8)
          to label %.noexc unwind label %lpad

.noexc:                                           ; preds = %call.i.noexc
  invoke void @_ZNSt7__cxx1112basic_stringIcSt11char_traitsIcESaIcEE12_M_constructIPKcEEvT_S8_St20forward_iterator_tag(ptr noundef nonnull align 8 dereferenceable(32) %ref.tmp7, ptr noundef nonnull @.str.4, ptr noundef nonnull @.str.4)
          to label %invoke.cont unwind label %lpad.i

lpad.i:                                           ; preds = %.noexc
  %7 = landingpad { ptr, i32 }
          cleanup
  call void @_ZNSaIcED2Ev(ptr noundef nonnull align 1 dereferenceable(1) %ref.tmp7) #19
  br label %ehcleanup19

invoke.cont:                                      ; preds = %.noexc
  call void @_ZNSaIcEC1Ev(ptr noundef nonnull align 1 dereferenceable(1) %ref.tmp10) #19
  %call.i8 = invoke noundef ptr @_ZNSt7__cxx1112basic_stringIcSt11char_traitsIcESaIcEE13_M_local_dataEv(ptr noundef nonnull align 8 dereferenceable(32) %ref.tmp9)
          to label %call.i.noexc7 unwind label %lpad11

call.i.noexc7:                                    ; preds = %invoke.cont
  invoke void @_ZNSt7__cxx1112basic_stringIcSt11char_traitsIcESaIcEE12_Alloc_hiderC1EPcRKS3_(ptr noundef nonnull align 8 dereferenceable(8) %ref.tmp9, ptr noundef %call.i8, ptr noundef nonnull align 1 dereferenceable(1) %ref.tmp10)
          to label %.noexc9 unwind label %lpad11

.noexc9:                                          ; preds = %call.i.noexc7
  invoke void @_ZNSt7__cxx1112basic_stringIcSt11char_traitsIcESaIcEE12_M_constructIPKcEEvT_S8_St20forward_iterator_tag(ptr noundef nonnull align 8 dereferenceable(32) %ref.tmp9, ptr noundef nonnull @.str.4, ptr noundef nonnull @.str.4)
          to label %invoke.cont12 unwind label %lpad.i6

lpad.i6:                                          ; preds = %.noexc9
  %8 = landingpad { ptr, i32 }
          cleanup
  call void @_ZNSaIcED2Ev(ptr noundef nonnull align 1 dereferenceable(1) %ref.tmp9) #19
  br label %ehcleanup17

invoke.cont12:                                    ; preds = %.noexc9
  %blob_count_ = getelementptr inbounds %"class.rocksdb::BlobFileBuilder", ptr %this, i64 0, i32 21
  %9 = load i64, ptr %blob_count_, align 8
  %blob_bytes_ = getelementptr inbounds %"class.rocksdb::BlobFileBuilder", ptr %this, i64 0, i32 22
  %10 = load i64, ptr %blob_bytes_, align 8
  invoke void @_ZN7rocksdb26BlobFileCompletionCallback19OnBlobFileCompletedERKNSt7__cxx1112basic_stringIcSt11char_traitsIcESaIcEEES8_imNS_22BlobFileCreationReasonERKNS_6StatusES8_S8_mm(ptr nonnull sret(%"class.rocksdb::Status") align 8 %ref.tmp, ptr noundef nonnull align 8 dereferenceable(88) %1, ptr noundef nonnull align 8 dereferenceable(32) %add.ptr.i.i, ptr noundef nonnull align 8 dereferenceable(32) %column_family_name_, i32 noundef %4, i64 noundef %5, i32 noundef %6, ptr noundef nonnull align 8 dereferenceable(16) %s, ptr noundef nonnull align 8 dereferenceable(32) %ref.tmp7, ptr noundef nonnull align 8 dereferenceable(32) %ref.tmp9, i64 noundef %9, i64 noundef %10)
          to label %invoke.cont14 unwind label %lpad13

invoke.cont14:                                    ; preds = %invoke.cont12
  %state_.i = getelementptr inbounds %"class.rocksdb::Status", ptr %ref.tmp, i64 0, i32 6
  %11 = load ptr, ptr %state_.i, align 8
  %cmp.not.i.i = icmp eq ptr %11, null
  br i1 %cmp.not.i.i, label %if.end20, label %_ZNKSt14default_deleteIA_KcEclIS0_EENSt9enable_ifIXsr14is_convertibleIPA_T_PS1_EE5valueEvE4typeEPS5_.exit.i.i

_ZNKSt14default_deleteIA_KcEclIS0_EENSt9enable_ifIXsr14is_convertibleIPA_T_PS1_EE5valueEvE4typeEPS5_.exit.i.i: ; preds = %invoke.cont14
  call void @_ZdaPv(ptr noundef nonnull %11) #18
  br label %if.end20

lpad:                                             ; preds = %call.i.noexc, %if.then2
  %12 = landingpad { ptr, i32 }
          cleanup
  br label %ehcleanup19

lpad11:                                           ; preds = %call.i.noexc7, %invoke.cont
  %13 = landingpad { ptr, i32 }
          cleanup
  br label %ehcleanup17

lpad13:                                           ; preds = %invoke.cont12
  %14 = landingpad { ptr, i32 }
          cleanup
  call void @_ZNSt7__cxx1112basic_stringIcSt11char_traitsIcESaIcEED1Ev(ptr noundef nonnull align 8 dereferenceable(32) %ref.tmp9) #19
  br label %ehcleanup17

ehcleanup17:                                      ; preds = %lpad11, %lpad.i6, %lpad13
  %.pn = phi { ptr, i32 } [ %14, %lpad13 ], [ %13, %lpad11 ], [ %8, %lpad.i6 ]
  call void @_ZNSaIcED1Ev(ptr noundef nonnull align 1 dereferenceable(1) %ref.tmp10) #19
  call void @_ZNSt7__cxx1112basic_stringIcSt11char_traitsIcESaIcEED1Ev(ptr noundef nonnull align 8 dereferenceable(32) %ref.tmp7) #19
  br label %ehcleanup19

ehcleanup19:                                      ; preds = %lpad, %lpad.i, %ehcleanup17
  %.pn.pn = phi { ptr, i32 } [ %.pn, %ehcleanup17 ], [ %12, %lpad ], [ %7, %lpad.i ]
  call void @_ZNSaIcED1Ev(ptr noundef nonnull align 1 dereferenceable(1) %ref.tmp8) #19
  resume { ptr, i32 } %.pn.pn

if.end20:                                         ; preds = %_ZNKSt14default_deleteIA_KcEclIS0_EENSt9enable_ifIXsr14is_convertibleIPA_T_PS1_EE5valueEvE4typeEPS5_.exit.i.i, %invoke.cont14
  store ptr null, ptr %state_.i, align 8
  call void @_ZNSt7__cxx1112basic_stringIcSt11char_traitsIcESaIcEED1Ev(ptr noundef nonnull align 8 dereferenceable(32) %ref.tmp9) #19
  call void @_ZNSaIcED1Ev(ptr noundef nonnull align 1 dereferenceable(1) %ref.tmp10) #19
  call void @_ZNSt7__cxx1112basic_stringIcSt11char_traitsIcESaIcEED1Ev(ptr noundef nonnull align 8 dereferenceable(32) %ref.tmp7) #19
  call void @_ZNSaIcED1Ev(ptr noundef nonnull align 1 dereferenceable(1) %ref.tmp8) #19
  %.pre = load ptr, ptr %writer_.i, align 8
  store ptr null, ptr %writer_.i, align 8
  %tobool.not.i.i = icmp eq ptr %.pre, null
  br i1 %tobool.not.i.i, label %_ZNSt10unique_ptrIN7rocksdb13BlobLogWriterESt14default_deleteIS1_EE5resetEPS1_.exit, label %_ZNKSt14default_deleteIN7rocksdb13BlobLogWriterEEclEPS1_.exit.i.i

_ZNKSt14default_deleteIN7rocksdb13BlobLogWriterEEclEPS1_.exit.i.i: ; preds = %if.end20.thread, %if.end20
  %15 = phi ptr [ %0, %if.end20.thread ], [ %.pre, %if.end20 ]
  call void @_ZN7rocksdb13BlobLogWriterD1Ev(ptr noundef nonnull align 8 dereferenceable(48) %15) #19
  call void @_ZdlPv(ptr noundef nonnull %15) #18
  br label %_ZNSt10unique_ptrIN7rocksdb13BlobLogWriterESt14default_deleteIS1_EE5resetEPS1_.exit

_ZNSt10unique_ptrIN7rocksdb13BlobLogWriterESt14default_deleteIS1_EE5resetEPS1_.exit: ; preds = %if.end20, %_ZNKSt14default_deleteIN7rocksdb13BlobLogWriterEEclEPS1_.exit.i.i
  %blob_count_22 = getelementptr inbounds %"class.rocksdb::BlobFileBuilder", ptr %this, i64 0, i32 21
  call void @llvm.memset.p0.i64(ptr noundef nonnull align 8 dereferenceable(16) %blob_count_22, i8 0, i64 16, i1 false)
  br label %return

return:                                           ; preds = %entry, %_ZNSt10unique_ptrIN7rocksdb13BlobLogWriterESt14default_deleteIS1_EE5resetEPS1_.exit
  ret void
}

; Function Attrs: nounwind
declare void @_ZNSaIcEC1Ev(ptr noundef nonnull align 1 dereferenceable(1)) unnamed_addr #4

; Function Attrs: nounwind
declare void @_ZNSaIcED1Ev(ptr noundef nonnull align 1 dereferenceable(1)) unnamed_addr #4

declare void @_ZN7rocksdb18OffsetableCacheKeyC1ERKNSt7__cxx1112basic_stringIcSt11char_traitsIcESaIcEEES8_m(ptr noundef nonnull align 8 dereferenceable(16), ptr noundef nonnull align 8 dereferenceable(32), ptr noundef nonnull align 8 dereferenceable(32), i64 noundef) unnamed_addr #3

; Function Attrs: mustprogress uwtable
