; ModuleID = 'bench/rocksdb/original/compaction_filters.cc.ll'
source_filename = "bench/rocksdb/original/compaction_filters.cc.ll"
target datalayout = "e-m:e-p270:32:32-p271:32:32-p272:64:64-i64:64-i128:128-f80:128-n8:16:32:64-S128"
target triple = "x86_64-unknown-linux-gnu"

%"struct.std::once_flag" = type { i32 }
%"class.rocksdb::Status" = type { i8, i8, i8, i8, i8, i8, %"class.std::unique_ptr" }
%"class.std::unique_ptr" = type { %"struct.std::__uniq_ptr_data" }
%"struct.std::__uniq_ptr_data" = type { %"class.std::__uniq_ptr_impl" }
%"class.std::__uniq_ptr_impl" = type { %"class.std::tuple" }
%"class.std::tuple" = type { %"struct.std::_Tuple_impl" }
%"struct.std::_Tuple_impl" = type { %"struct.std::_Head_base.1" }
%"struct.std::_Head_base.1" = type { ptr }
%"class.rocksdb::Slice" = type { ptr, i64 }
%"class.std::__cxx11::basic_string" = type { %"struct.std::__cxx11::basic_string<char>::_Alloc_hider", i64, %union.anon }
%"struct.std::__cxx11::basic_string<char>::_Alloc_hider" = type { ptr }
%union.anon = type { i64, [8 x i8] }
%"class.std::unordered_map.53" = type { %"class.std::_Hashtable.54" }
%"class.std::_Hashtable.54" = type { ptr, i64, %"struct.std::__detail::_Hash_node_base", i64, %"struct.std::__detail::_Prime_rehash_policy", ptr }
%"struct.std::__detail::_Hash_node_base" = type { ptr }
%"struct.std::__detail::_Prime_rehash_policy" = type { float, i64 }
%class.anon.2 = type { ptr }
%class.anon = type { i8 }
%struct._Guard = type { ptr }
%"class.std::allocator" = type { i8 }
%"class.std::function" = type { %"class.std::_Function_base", ptr }
%"class.std::_Function_base" = type { %"union.std::_Any_data", ptr }
%"union.std::_Any_data" = type { %"union.std::_Nocopy_types" }
%"union.std::_Nocopy_types" = type { { i64, i64 } }
%"class.std::unique_ptr.15" = type { %"struct.std::__uniq_ptr_data.16" }
%"struct.std::__uniq_ptr_data.16" = type { %"class.std::__uniq_ptr_impl.17" }
%"class.std::__uniq_ptr_impl.17" = type { %"class.std::tuple.18" }
%"class.std::tuple.18" = type { %"struct.std::_Tuple_impl.19" }
%"struct.std::_Tuple_impl.19" = type { %"struct.std::_Head_base.22" }
%"struct.std::_Head_base.22" = type { ptr }
%"struct.std::_Hashtable<std::__cxx11::basic_string<char>, std::pair<const std::__cxx11::basic_string<char>, std::vector<std::unique_ptr<rocksdb::ObjectLibrary::Entry>>>, std::allocator<std::pair<const std::__cxx11::basic_string<char>, std::vector<std::unique_ptr<rocksdb::ObjectLibrary::Entry>>>>, std::__detail::_Select1st, std::equal_to<std::__cxx11::basic_string<char>>, std::hash<string>, std::__detail::_Mod_range_hashing, std::__detail::_Default_ranged_hash, std::__detail::_Prime_rehash_policy, std::__detail::_Hashtable_traits<true, false, true>>::_Scoped_node" = type { ptr, ptr }
%"class.std::unique_ptr.75" = type { %"struct.std::__uniq_ptr_data.76" }
%"struct.std::__uniq_ptr_data.76" = type { %"class.std::__uniq_ptr_impl.77" }
%"class.std::__uniq_ptr_impl.77" = type { %"class.std::tuple.78" }
%"class.std::tuple.78" = type { %"struct.std::_Tuple_impl.79" }
%"struct.std::_Tuple_impl.79" = type { %"struct.std::_Head_base.82" }
%"struct.std::_Head_base.82" = type { ptr }
%"class.std::unique_ptr.98" = type { %"struct.std::__uniq_ptr_data.99" }
%"struct.std::__uniq_ptr_data.99" = type { %"class.std::__uniq_ptr_impl.100" }
%"class.std::__uniq_ptr_impl.100" = type { %"class.std::tuple.101" }
%"class.std::tuple.101" = type { %"struct.std::_Tuple_impl.102" }
%"struct.std::_Tuple_impl.102" = type { %"struct.std::_Head_base.105" }
%"struct.std::_Head_base.105" = type { ptr }
%"class.std::function.108" = type { %"class.std::_Function_base", ptr }

$__clang_call_terminate = comdat any

$_ZN7rocksdb13ObjectLibrary10AddFactoryINS_16CompactionFilterEEERKSt8functionIFPT_RKNSt7__cxx1112basic_stringIcSt11char_traitsIcESaIcEEEPSt10unique_ptrIS4_St14default_deleteIS4_EEPSB_EESD_SN_ = comdat any

$_ZN7rocksdb13ObjectLibrary15AddFactoryEntryEPKcOSt10unique_ptrINS0_5EntryESt14default_deleteIS4_EE = comdat any

$_ZN7rocksdb13ObjectLibrary12FactoryEntryINS_16CompactionFilterEED2Ev = comdat any

$_ZN7rocksdb13ObjectLibrary12FactoryEntryINS_16CompactionFilterEED0Ev = comdat any

$_ZNK7rocksdb13ObjectLibrary12FactoryEntryINS_16CompactionFilterEE7MatchesERKNSt7__cxx1112basic_stringIcSt11char_traitsIcESaIcEEE = comdat any

$_ZNK7rocksdb13ObjectLibrary12FactoryEntryINS_16CompactionFilterEE4NameEv = comdat any

$_ZNSt8__detail9_Map_baseINSt7__cxx1112basic_stringIcSt11char_traitsIcESaIcEEESt4pairIKS6_St6vectorISt10unique_ptrIN7rocksdb13ObjectLibrary5EntryESt14default_deleteISD_EESaISG_EEESaISJ_ENS_10_Select1stESt8equal_toIS6_ESt4hashIS6_ENS_18_Mod_range_hashingENS_20_Default_ranged_hashENS_20_Prime_rehash_policyENS_17_Hashtable_traitsILb1ELb0ELb1EEELb1EEixEOS6_ = comdat any

$_ZNSt10_HashtableINSt7__cxx1112basic_stringIcSt11char_traitsIcESaIcEEESt4pairIKS5_St6vectorISt10unique_ptrIN7rocksdb13ObjectLibrary5EntryESt14default_deleteISC_EESaISF_EEESaISI_ENSt8__detail10_Select1stESt8equal_toIS5_ESt4hashIS5_ENSK_18_Mod_range_hashingENSK_20_Default_ranged_hashENSK_20_Prime_rehash_policyENSK_17_Hashtable_traitsILb1ELb0ELb1EEEE21_M_insert_unique_nodeEmmPNSK_10_Hash_nodeISI_Lb1EEEm = comdat any

$_ZNSt10_HashtableINSt7__cxx1112basic_stringIcSt11char_traitsIcESaIcEEESt4pairIKS5_St6vectorISt10unique_ptrIN7rocksdb13ObjectLibrary5EntryESt14default_deleteISC_EESaISF_EEESaISI_ENSt8__detail10_Select1stESt8equal_toIS5_ESt4hashIS5_ENSK_18_Mod_range_hashingENSK_20_Default_ranged_hashENSK_20_Prime_rehash_policyENSK_17_Hashtable_traitsILb1ELb0ELb1EEEE12_Scoped_nodeD2Ev = comdat any

$_ZNKSt10_HashtableINSt7__cxx1112basic_stringIcSt11char_traitsIcESaIcEEESt4pairIKS5_St6vectorISt10unique_ptrIN7rocksdb13ObjectLibrary5EntryESt14default_deleteISC_EESaISF_EEESaISI_ENSt8__detail10_Select1stESt8equal_toIS5_ESt4hashIS5_ENSK_18_Mod_range_hashingENSK_20_Default_ranged_hashENSK_20_Prime_rehash_policyENSK_17_Hashtable_traitsILb1ELb0ELb1EEEE19_M_find_before_nodeEmRS7_m = comdat any

$_ZNSt10_HashtableINSt7__cxx1112basic_stringIcSt11char_traitsIcESaIcEEESt4pairIKS5_St6vectorISt10unique_ptrIN7rocksdb13ObjectLibrary5EntryESt14default_deleteISC_EESaISF_EEESaISI_ENSt8__detail10_Select1stESt8equal_toIS5_ESt4hashIS5_ENSK_18_Mod_range_hashingENSK_20_Default_ranged_hashENSK_20_Prime_rehash_policyENSK_17_Hashtable_traitsILb1ELb0ELb1EEEE13_M_rehash_auxEmSt17integral_constantIbLb1EE = comdat any

$_ZNSt6vectorISt10unique_ptrIN7rocksdb13ObjectLibrary5EntryESt14default_deleteIS3_EESaIS6_EE17_M_realloc_insertIJS6_EEEvN9__gnu_cxx17__normal_iteratorIPS6_S8_EEDpOT_ = comdat any

$_ZNSt7__cxx1112basic_stringIcSt11char_traitsIcESaIcEE12_M_constructIPKcEEvT_S8_St20forward_iterator_tag = comdat any

$_ZZNSt7__cxx1112basic_stringIcSt11char_traitsIcESaIcEE12_M_constructIPKcEEvT_S8_St20forward_iterator_tagEN6_GuardD2Ev = comdat any

$_ZNSt13unordered_mapINSt7__cxx1112basic_stringIcSt11char_traitsIcESaIcEEES5_St4hashIS5_ESt8equal_toIS5_ESaISt4pairIKS5_S5_EEED2Ev = comdat any

$_ZN7rocksdb14ObjectRegistry15NewStaticObjectINS_16CompactionFilterEEENS_6StatusERKNSt7__cxx1112basic_stringIcSt11char_traitsIcESaIcEEEPPT_ = comdat any

$_ZN7rocksdb14ObjectRegistry9NewObjectINS_16CompactionFilterEEENS_6StatusERKNSt7__cxx1112basic_stringIcSt11char_traitsIcESaIcEEEPPT_PSt10unique_ptrISC_St14default_deleteISC_EE = comdat any

$_ZNK7rocksdb14ObjectRegistry11FindFactoryINS_16CompactionFilterEEEKSt8functionIFPT_RKNSt7__cxx1112basic_stringIcSt11char_traitsIcESaIcEEEPSt10unique_ptrIS4_St14default_deleteIS4_EEPSB_EESD_ = comdat any

$_ZNK7rocksdb13ObjectLibrary11FindFactoryINS_16CompactionFilterEEESt8functionIFPT_RKNSt7__cxx1112basic_stringIcSt11char_traitsIcESaIcEEEPSt10unique_ptrIS4_St14default_deleteIS4_EEPSB_EESD_ = comdat any

$_ZNKSt10_HashtableINSt7__cxx1112basic_stringIcSt11char_traitsIcESaIcEEESt4pairIKS5_St6vectorISt10unique_ptrIN7rocksdb13ObjectLibrary5EntryESt14default_deleteISC_EESaISF_EEESaISI_ENSt8__detail10_Select1stESt8equal_toIS5_ESt4hashIS5_ENSK_18_Mod_range_hashingENSK_20_Default_ranged_hashENSK_20_Prime_rehash_policyENSK_17_Hashtable_traitsILb1ELb0ELb1EEEE4findERS7_ = comdat any

$_ZN7rocksdb14ObjectRegistry15NewSharedObjectINS_23CompactionFilterFactoryEEENS_6StatusERKNSt7__cxx1112basic_stringIcSt11char_traitsIcESaIcEEEPSt10shared_ptrIT_E = comdat any

$_ZN7rocksdb14ObjectRegistry9NewObjectINS_23CompactionFilterFactoryEEENS_6StatusERKNSt7__cxx1112basic_stringIcSt11char_traitsIcESaIcEEEPPT_PSt10unique_ptrISC_St14default_deleteISC_EE = comdat any

$_ZNSt12__shared_ptrIN7rocksdb23CompactionFilterFactoryELN9__gnu_cxx12_Lock_policyE2EE5resetIS1_EENSt9enable_ifIXsr21__sp_is_constructibleIS1_T_EE5valueEvE4typeEPS7_ = comdat any

$_ZNK7rocksdb14ObjectRegistry11FindFactoryINS_23CompactionFilterFactoryEEEKSt8functionIFPT_RKNSt7__cxx1112basic_stringIcSt11char_traitsIcESaIcEEEPSt10unique_ptrIS4_St14default_deleteIS4_EEPSB_EESD_ = comdat any

$_ZNK7rocksdb13ObjectLibrary11FindFactoryINS_23CompactionFilterFactoryEEESt8functionIFPT_RKNSt7__cxx1112basic_stringIcSt11char_traitsIcESaIcEEEPSt10unique_ptrIS4_St14default_deleteIS4_EEPSB_EESD_ = comdat any

$_ZNSt15_Sp_counted_ptrIPN7rocksdb23CompactionFilterFactoryELN9__gnu_cxx12_Lock_policyE2EED2Ev = comdat any

$_ZNSt15_Sp_counted_ptrIPN7rocksdb23CompactionFilterFactoryELN9__gnu_cxx12_Lock_policyE2EED0Ev = comdat any

$_ZNSt15_Sp_counted_ptrIPN7rocksdb23CompactionFilterFactoryELN9__gnu_cxx12_Lock_policyE2EE10_M_disposeEv = comdat any

$_ZNSt15_Sp_counted_ptrIPN7rocksdb23CompactionFilterFactoryELN9__gnu_cxx12_Lock_policyE2EE10_M_destroyEv = comdat any

$_ZNSt15_Sp_counted_ptrIPN7rocksdb23CompactionFilterFactoryELN9__gnu_cxx12_Lock_policyE2EE14_M_get_deleterERKSt9type_info = comdat any

$_ZTVN7rocksdb13ObjectLibrary12FactoryEntryINS_16CompactionFilterEEE = comdat any

$_ZTVSt15_Sp_counted_ptrIPN7rocksdb23CompactionFilterFactoryELN9__gnu_cxx12_Lock_policyE2EE = comdat any

@_ZZN7rocksdb16CompactionFilter16CreateFromStringERKNS_13ConfigOptionsERKNSt7__cxx1112basic_stringIcSt11char_traitsIcESaIcEEEPPKS0_E4once = internal global %"struct.std::once_flag" zeroinitializer, align 4
@_ZSt15__once_callable = external thread_local global ptr, align 8
@_ZSt11__once_call = external thread_local global ptr, align 8
@.str = private unnamed_addr constant [1 x i8] zeroinitializer, align 1
@_ZTVN7rocksdb13ObjectLibrary12PatternEntryE = external unnamed_addr constant { [6 x ptr] }, align 8
@_ZTVN7rocksdb13ObjectLibrary12FactoryEntryINS_16CompactionFilterEEE = linkonce_odr unnamed_addr constant { [6 x ptr] } { [6 x ptr] [ptr null, ptr null, ptr @_ZN7rocksdb13ObjectLibrary12FactoryEntryINS_16CompactionFilterEED2Ev, ptr @_ZN7rocksdb13ObjectLibrary12FactoryEntryINS_16CompactionFilterEED0Ev, ptr @_ZNK7rocksdb13ObjectLibrary12FactoryEntryINS_16CompactionFilterEE7MatchesERKNSt7__cxx1112basic_stringIcSt11char_traitsIcESaIcEEE, ptr @_ZNK7rocksdb13ObjectLibrary12FactoryEntryINS_16CompactionFilterEE4NameEv] }, comdat, align 8
@.str.1 = private unnamed_addr constant [26 x i8] c"vector::_M_realloc_insert\00", align 1
@.str.2 = private unnamed_addr constant [17 x i8] c"CompactionFilter\00", align 1
@.str.3 = private unnamed_addr constant [33 x i8] c"RemoveEmptyValueCompactionFilter\00", align 1
@_ZTVN7rocksdb32RemoveEmptyValueCompactionFilterE = external unnamed_addr constant { [29 x ptr] }, align 8
@.str.4 = private unnamed_addr constant [50 x i8] c"basic_string: construction from null is not valid\00", align 1
@.str.5 = private unnamed_addr constant [21 x i8] c"Cannot reset object \00", align 1
@.str.6 = private unnamed_addr constant [22 x i8] c"Cannot make a static \00", align 1
@.str.7 = private unnamed_addr constant [21 x i8] c" from a guarded one \00", align 1
@.str.8 = private unnamed_addr constant [16 x i8] c"Could not load \00", align 1
@.str.9 = private unnamed_addr constant [22 x i8] c"Cannot make a shared \00", align 1
@.str.10 = private unnamed_addr constant [21 x i8] c" from unguarded one \00", align 1
@_ZTVSt15_Sp_counted_ptrIPN7rocksdb23CompactionFilterFactoryELN9__gnu_cxx12_Lock_policyE2EE = linkonce_odr unnamed_addr constant { [7 x ptr] } { [7 x ptr] [ptr null, ptr null, ptr @_ZNSt15_Sp_counted_ptrIPN7rocksdb23CompactionFilterFactoryELN9__gnu_cxx12_Lock_policyE2EED2Ev, ptr @_ZNSt15_Sp_counted_ptrIPN7rocksdb23CompactionFilterFactoryELN9__gnu_cxx12_Lock_policyE2EED0Ev, ptr @_ZNSt15_Sp_counted_ptrIPN7rocksdb23CompactionFilterFactoryELN9__gnu_cxx12_Lock_policyE2EE10_M_disposeEv, ptr @_ZNSt15_Sp_counted_ptrIPN7rocksdb23CompactionFilterFactoryELN9__gnu_cxx12_Lock_policyE2EE10_M_destroyEv, ptr @_ZNSt15_Sp_counted_ptrIPN7rocksdb23CompactionFilterFactoryELN9__gnu_cxx12_Lock_policyE2EE14_M_get_deleterERKSt9type_info] }, comdat, align 8
@__libc_single_threaded = external local_unnamed_addr global i8, align 1
@.str.11 = private unnamed_addr constant [24 x i8] c"CompactionFilterFactory\00", align 1

; Function Attrs: mustprogress uwtable
define void @_ZN7rocksdb16CompactionFilter16CreateFromStringERKNS_13ConfigOptionsERKNSt7__cxx1112basic_stringIcSt11char_traitsIcESaIcEEEPPKS0_(ptr noalias sret(%"class.rocksdb::Status") align 8 %agg.result, ptr noundef nonnull align 8 dereferenceable(80) %config_options, ptr noundef nonnull align 8 dereferenceable(32) %value, ptr nocapture noundef %result) local_unnamed_addr #0 align 2 personality ptr @__gxx_personality_v0 {
entry:
  %ref.tmp.i.i = alloca %"class.rocksdb::Status", align 8
  %ref.tmp12.i.i = alloca %"class.rocksdb::Status", align 8
  %ref.tmp20.i.i = alloca %"class.rocksdb::Slice", align 8
  %ref.tmp21.i.i = alloca %"class.rocksdb::Slice", align 8
  %id.i = alloca %"class.std::__cxx11::basic_string", align 8
  %opt_map.i = alloca %"class.std::unordered_map.53", align 8
  %status.i = alloca %"class.rocksdb::Status", align 8
  %__callable.i = alloca %class.anon.2, align 8
  %ref.tmp = alloca %class.anon, align 1
  %filter = alloca ptr, align 8
  call void @llvm.lifetime.start.p0(i64 8, ptr nonnull %__callable.i)
  store ptr %ref.tmp, ptr %__callable.i, align 8
  %0 = call align 8 ptr @llvm.threadlocal.address.p0(ptr align 8 @_ZSt15__once_callable)
  store ptr %__callable.i, ptr %0, align 8
  %1 = call align 8 ptr @llvm.threadlocal.address.p0(ptr align 8 @_ZSt11__once_call)
  store ptr @"_ZZNSt9once_flag18_Prepare_executionC1IZSt9call_onceIZN7rocksdb16CompactionFilter16CreateFromStringERKNS3_13ConfigOptionsERKNSt7__cxx1112basic_stringIcSt11char_traitsIcESaIcEEEPPKS4_E3$_0JEEvRS_OT_DpOT0_EUlvE_EERSL_ENUlvE_8__invokeEv", ptr %1, align 8
  %call1.i2.i = invoke noundef i32 @pthread_once(ptr noundef nonnull @_ZZN7rocksdb16CompactionFilter16CreateFromStringERKNS_13ConfigOptionsERKNSt7__cxx1112basic_stringIcSt11char_traitsIcESaIcEEEPPKS0_E4once, ptr noundef nonnull @__once_proxy)
          to label %invoke.cont.i unwind label %lpad.i

invoke.cont.i:                                    ; preds = %entry
  %tobool.not.i = icmp eq i32 %call1.i2.i, 0
  br i1 %tobool.not.i, label %"_ZSt9call_onceIZN7rocksdb16CompactionFilter16CreateFromStringERKNS0_13ConfigOptionsERKNSt7__cxx1112basic_stringIcSt11char_traitsIcESaIcEEEPPKS1_E3$_0JEEvRSt9once_flagOT_DpOT0_.exit", label %if.then.i

if.then.i:                                        ; preds = %invoke.cont.i
  invoke void @_ZSt20__throw_system_errori(i32 noundef %call1.i2.i) #17
          to label %invoke.cont1.i unwind label %lpad.i

invoke.cont1.i:                                   ; preds = %if.then.i
  unreachable

common.resume:                                    ; preds = %ehcleanup.i, %lpad.i
  %common.resume.op = phi { ptr, i32 } [ %2, %lpad.i ], [ %.pn.i, %ehcleanup.i ]
  resume { ptr, i32 } %common.resume.op

lpad.i:                                           ; preds = %if.then.i, %entry
  %2 = landingpad { ptr, i32 }
          cleanup
  store ptr null, ptr %0, align 8
  store ptr null, ptr %1, align 8
  br label %common.resume

"_ZSt9call_onceIZN7rocksdb16CompactionFilter16CreateFromStringERKNS0_13ConfigOptionsERKNSt7__cxx1112basic_stringIcSt11char_traitsIcESaIcEEEPPKS1_E3$_0JEEvRSt9once_flagOT_DpOT0_.exit": ; preds = %invoke.cont.i
  store ptr null, ptr %0, align 8
  store ptr null, ptr %1, align 8
  call void @llvm.lifetime.end.p0(i64 8, ptr nonnull %__callable.i)
  %3 = load ptr, ptr %result, align 8
  store ptr %3, ptr %filter, align 8
  call void @llvm.experimental.noalias.scope.decl(metadata !4)
  call void @llvm.lifetime.start.p0(i64 32, ptr nonnull %id.i)
  call void @llvm.lifetime.start.p0(i64 56, ptr nonnull %opt_map.i)
  call void @llvm.lifetime.start.p0(i64 16, ptr nonnull %status.i)
  call void @_ZNSt7__cxx1112basic_stringIcSt11char_traitsIcESaIcEEC1Ev(ptr noundef nonnull align 8 dereferenceable(32) %id.i) #18, !noalias !4
  %_M_single_bucket.i.i.i = getelementptr inbounds i8, ptr %opt_map.i, i64 48
  store ptr %_M_single_bucket.i.i.i, ptr %opt_map.i, align 8, !noalias !4
  %_M_bucket_count.i.i.i = getelementptr inbounds i8, ptr %opt_map.i, i64 8
  store i64 1, ptr %_M_bucket_count.i.i.i, align 8, !noalias !4
  %_M_before_begin.i.i.i = getelementptr inbounds i8, ptr %opt_map.i, i64 16
  %_M_rehash_policy.i.i.i = getelementptr inbounds i8, ptr %opt_map.i, i64 32
  call void @llvm.memset.p0.i64(ptr noundef nonnull align 8 dereferenceable(16) %_M_before_begin.i.i.i, i8 0, i64 16, i1 false), !noalias !4
  store float 1.000000e+00, ptr %_M_rehash_policy.i.i.i, align 8, !noalias !4
  %_M_next_resize.i.i.i.i = getelementptr inbounds i8, ptr %opt_map.i, i64 40
  call void @llvm.memset.p0.i64(ptr noundef nonnull align 8 dereferenceable(16) %_M_next_resize.i.i.i.i, i8 0, i64 16, i1 false), !noalias !4
  %4 = load ptr, ptr %filter, align 8, !noalias !4
  invoke void @_ZN7rocksdb12Customizable13GetOptionsMapERKNS_13ConfigOptionsEPKS0_RKNSt7__cxx1112basic_stringIcSt11char_traitsIcESaIcEEEPSB_PSt13unordered_mapISB_SB_St4hashISB_ESt8equal_toISB_ESaISt4pairISC_SB_EEE(ptr nonnull sret(%"class.rocksdb::Status") align 8 %status.i, ptr noundef nonnull align 8 dereferenceable(80) %config_options, ptr noundef %4, ptr noundef nonnull align 8 dereferenceable(32) %value, ptr noundef nonnull %id.i, ptr noundef nonnull %opt_map.i)
          to label %invoke.cont2.i unwind label %lpad.i2, !noalias !4

invoke.cont2.i:                                   ; preds = %"_ZSt9call_onceIZN7rocksdb16CompactionFilter16CreateFromStringERKNS0_13ConfigOptionsERKNSt7__cxx1112basic_stringIcSt11char_traitsIcESaIcEEEPPKS1_E3$_0JEEvRSt9once_flagOT_DpOT0_.exit"
  %5 = load i8, ptr %status.i, align 8, !noalias !4
  %cmp.i.i = icmp eq i8 %5, 0
  br i1 %cmp.i.i, label %if.else.i, label %if.then.i3

if.then.i3:                                       ; preds = %invoke.cont2.i
  %state_.i.i.i = getelementptr inbounds i8, ptr %agg.result, i64 8
  store ptr null, ptr %state_.i.i.i, align 8, !alias.scope !4
  call void @llvm.memset.p0.i64(ptr noundef nonnull align 8 dereferenceable(6) %agg.result, i8 0, i64 6, i1 false), !alias.scope !4
  %cmp.not.i.i.i = icmp eq ptr %status.i, %agg.result
  br i1 %cmp.not.i.i.i, label %cleanup.i, label %if.then.i.i.i

if.then.i.i.i:                                    ; preds = %if.then.i3
  store i8 %5, ptr %agg.result, align 8, !alias.scope !4
  %subcode_.i.i.i = getelementptr inbounds i8, ptr %status.i, i64 1
  %6 = load i8, ptr %subcode_.i.i.i, align 1, !noalias !4
  %subcode_4.i.i.i = getelementptr inbounds i8, ptr %agg.result, i64 1
  store i8 %6, ptr %subcode_4.i.i.i, align 1, !alias.scope !4
  %sev_.i.i.i = getelementptr inbounds i8, ptr %status.i, i64 2
  %7 = load i8, ptr %sev_.i.i.i, align 2, !noalias !4
  %sev_6.i.i.i = getelementptr inbounds i8, ptr %agg.result, i64 2
  store i8 %7, ptr %sev_6.i.i.i, align 2, !alias.scope !4
  %retryable_.i.i.i = getelementptr inbounds i8, ptr %status.i, i64 3
  %8 = load i8, ptr %retryable_.i.i.i, align 1, !noalias !4
  %9 = and i8 %8, 1
  %retryable_8.i.i.i = getelementptr inbounds i8, ptr %agg.result, i64 3
  store i8 %9, ptr %retryable_8.i.i.i, align 1, !alias.scope !4
  store <4 x i8> zeroinitializer, ptr %status.i, align 8, !noalias !4
  %data_loss_.i.i.i = getelementptr inbounds i8, ptr %status.i, i64 4
  %10 = load i8, ptr %data_loss_.i.i.i, align 4, !noalias !4
  %11 = and i8 %10, 1
  %data_loss_11.i.i.i = getelementptr inbounds i8, ptr %agg.result, i64 4
  store i8 %11, ptr %data_loss_11.i.i.i, align 4, !alias.scope !4
  store i8 0, ptr %data_loss_.i.i.i, align 4, !noalias !4
  %scope_.i.i.i = getelementptr inbounds i8, ptr %status.i, i64 5
  %12 = load i8, ptr %scope_.i.i.i, align 1, !noalias !4
  %scope_14.i.i.i = getelementptr inbounds i8, ptr %agg.result, i64 5
  store i8 %12, ptr %scope_14.i.i.i, align 1, !alias.scope !4
  store i8 0, ptr %scope_.i.i.i, align 1, !noalias !4
  %state_.i2.i.i = getelementptr inbounds i8, ptr %status.i, i64 8
  %13 = load ptr, ptr %state_.i2.i.i, align 8, !noalias !4
  store ptr null, ptr %state_.i2.i.i, align 8, !noalias !4
  store ptr %13, ptr %state_.i.i.i, align 8, !alias.scope !4
  br label %cleanup.i

lpad.i2:                                          ; preds = %"_ZSt9call_onceIZN7rocksdb16CompactionFilter16CreateFromStringERKNS0_13ConfigOptionsERKNSt7__cxx1112basic_stringIcSt11char_traitsIcESaIcEEEPPKS1_E3$_0JEEvRSt9once_flagOT_DpOT0_.exit"
  %14 = landingpad { ptr, i32 }
          cleanup
  br label %ehcleanup.i

lpad1.i:                                          ; preds = %if.else19.i.i
  %15 = landingpad { ptr, i32 }
          cleanup
  br label %lpad1.body.i

lpad1.body.i:                                     ; preds = %_ZN7rocksdb6StatusD2Ev.exit33.i.i, %lpad1.i
  %eh.lpad-body.i = phi { ptr, i32 } [ %15, %lpad1.i ], [ %29, %_ZN7rocksdb6StatusD2Ev.exit33.i.i ]
  %state_.i.i = getelementptr inbounds i8, ptr %status.i, i64 8
  %16 = load ptr, ptr %state_.i.i, align 8, !noalias !4
  %cmp.not.i.i4.i = icmp eq ptr %16, null
  br i1 %cmp.not.i.i4.i, label %_ZN7rocksdb6StatusD2Ev.exit.i, label %_ZNKSt14default_deleteIA_KcEclIS0_EENSt9enable_ifIXsr14is_convertibleIPA_T_PS1_EE5valueEvE4typeEPS5_.exit.i.i.i

_ZNKSt14default_deleteIA_KcEclIS0_EENSt9enable_ifIXsr14is_convertibleIPA_T_PS1_EE5valueEvE4typeEPS5_.exit.i.i.i: ; preds = %lpad1.body.i
  call void @_ZdaPv(ptr noundef nonnull %16) #19
  br label %_ZN7rocksdb6StatusD2Ev.exit.i

_ZN7rocksdb6StatusD2Ev.exit.i:                    ; preds = %_ZNKSt14default_deleteIA_KcEclIS0_EENSt9enable_ifIXsr14is_convertibleIPA_T_PS1_EE5valueEvE4typeEPS5_.exit.i.i.i, %lpad1.body.i
  store ptr null, ptr %state_.i.i, align 8, !noalias !4
  br label %ehcleanup.i

if.else.i:                                        ; preds = %invoke.cont2.i
  call void @llvm.experimental.noalias.scope.decl(metadata !7)
  call void @llvm.lifetime.start.p0(i64 16, ptr nonnull %ref.tmp.i.i), !noalias !4
  call void @llvm.lifetime.start.p0(i64 16, ptr nonnull %ref.tmp12.i.i), !noalias !4
  call void @llvm.lifetime.start.p0(i64 16, ptr nonnull %ref.tmp20.i.i), !noalias !4
  call void @llvm.lifetime.start.p0(i64 16, ptr nonnull %ref.tmp21.i.i), !noalias !4
  %call.i.i = call noundef zeroext i1 @_ZNKSt7__cxx1112basic_stringIcSt11char_traitsIcESaIcEE5emptyEv(ptr noundef nonnull align 8 dereferenceable(32) %id.i) #18, !noalias !10
  br i1 %call.i.i, label %if.else16.i.i, label %if.then.i.i

if.then.i.i:                                      ; preds = %if.else.i
  %state_.i.i5.i = getelementptr inbounds i8, ptr %agg.result, i64 8
  store ptr null, ptr %state_.i.i5.i, align 8, !alias.scope !10
  call void @llvm.memset.p0.i64(ptr noundef nonnull align 8 dereferenceable(6) %agg.result, i8 0, i64 6, i1 false), !alias.scope !10
  %registry.i.i = getelementptr inbounds i8, ptr %config_options, i64 64
  %17 = load ptr, ptr %registry.i.i, align 8, !noalias !10
  invoke void @_ZN7rocksdb14ObjectRegistry15NewStaticObjectINS_16CompactionFilterEEENS_6StatusERKNSt7__cxx1112basic_stringIcSt11char_traitsIcESaIcEEEPPT_(ptr nonnull sret(%"class.rocksdb::Status") align 8 %ref.tmp.i.i, ptr noundef nonnull align 8 dereferenceable(192) %17, ptr noundef nonnull align 8 dereferenceable(32) %id.i, ptr noundef nonnull %filter)
          to label %invoke.cont.i.i unwind label %lpad.i.i, !noalias !10

invoke.cont.i.i:                                  ; preds = %if.then.i.i
  %cmp.not.i.i6.i = icmp eq ptr %ref.tmp.i.i, %agg.result
  br i1 %cmp.not.i.i6.i, label %invoke.cont9.i.thread.i, label %_ZN7rocksdb6StatusD2Ev.exit.i.i

invoke.cont9.i.thread.i:                          ; preds = %invoke.cont.i.i
  store ptr null, ptr %state_.i.i5.i, align 8, !noalias !10
  br label %if.then11.i.i

_ZN7rocksdb6StatusD2Ev.exit.i.i:                  ; preds = %invoke.cont.i.i
  %18 = load i8, ptr %ref.tmp.i.i, align 8, !noalias !10
  store i8 %18, ptr %agg.result, align 8, !alias.scope !10
  %subcode_.i.i8.i = getelementptr inbounds i8, ptr %ref.tmp.i.i, i64 1
  %19 = load i8, ptr %subcode_.i.i8.i, align 1, !noalias !10
  %subcode_4.i.i9.i = getelementptr inbounds i8, ptr %agg.result, i64 1
  store i8 %19, ptr %subcode_4.i.i9.i, align 1, !alias.scope !10
  %sev_.i.i10.i = getelementptr inbounds i8, ptr %ref.tmp.i.i, i64 2
  %20 = load i8, ptr %sev_.i.i10.i, align 2, !noalias !10
  %sev_6.i.i11.i = getelementptr inbounds i8, ptr %agg.result, i64 2
  store i8 %20, ptr %sev_6.i.i11.i, align 2, !alias.scope !10
  %retryable_.i.i12.i = getelementptr inbounds i8, ptr %ref.tmp.i.i, i64 3
  %21 = load i8, ptr %retryable_.i.i12.i, align 1, !noalias !10
  %22 = and i8 %21, 1
  %retryable_8.i.i13.i = getelementptr inbounds i8, ptr %agg.result, i64 3
  store i8 %22, ptr %retryable_8.i.i13.i, align 1, !alias.scope !10
  store <4 x i8> zeroinitializer, ptr %ref.tmp.i.i, align 8, !noalias !10
  %data_loss_.i.i14.i = getelementptr inbounds i8, ptr %ref.tmp.i.i, i64 4
  %23 = load i8, ptr %data_loss_.i.i14.i, align 4, !noalias !10
  %24 = and i8 %23, 1
  %data_loss_11.i.i15.i = getelementptr inbounds i8, ptr %agg.result, i64 4
  store i8 %24, ptr %data_loss_11.i.i15.i, align 4, !alias.scope !10
  store i8 0, ptr %data_loss_.i.i14.i, align 4, !noalias !10
  %scope_.i.i16.i = getelementptr inbounds i8, ptr %ref.tmp.i.i, i64 5
  %25 = load i8, ptr %scope_.i.i16.i, align 1, !noalias !10
  %scope_14.i.i17.i = getelementptr inbounds i8, ptr %agg.result, i64 5
  store i8 %25, ptr %scope_14.i.i17.i, align 1, !alias.scope !10
  store i8 0, ptr %scope_.i.i16.i, align 1, !noalias !10
  %state_.i7.i.i = getelementptr inbounds i8, ptr %ref.tmp.i.i, i64 8
  %26 = load ptr, ptr %state_.i7.i.i, align 8, !noalias !10
  store ptr %26, ptr %state_.i.i5.i, align 8, !alias.scope !10
  store ptr null, ptr %state_.i7.i.i, align 8, !noalias !10
  %ignore_unsupported_options.i.i = getelementptr inbounds i8, ptr %config_options, i64 1
  %27 = load i8, ptr %ignore_unsupported_options.i.i, align 1, !noalias !10
  %28 = and i8 %27, 1
  %tobool.not.i.i = icmp ne i8 %28, 0
  %cmp.i.i.i = icmp eq i8 %18, 3
  %or.cond.i.i = select i1 %tobool.not.i.i, i1 %cmp.i.i.i, i1 false
  br i1 %or.cond.i.i, label %invoke.cont7.i.i, label %invoke.cont9.i.i

invoke.cont7.i.i:                                 ; preds = %_ZN7rocksdb6StatusD2Ev.exit.i.i
  call void @llvm.memset.p0.i64(ptr noundef nonnull align 8 dereferenceable(6) %agg.result, i8 0, i64 6, i1 false), !alias.scope !10
  store ptr null, ptr %state_.i.i5.i, align 8, !alias.scope !10
  %tobool.not.i.i.i.i.i23.i.i = icmp eq ptr %26, null
  br i1 %tobool.not.i.i.i.i.i23.i.i, label %_ZN7rocksdbL15NewStaticObjectINS_16CompactionFilterEEENS_6StatusERKNS_13ConfigOptionsERKNSt7__cxx1112basic_stringIcSt11char_traitsIcESaIcEEERKSt13unordered_mapISB_SB_St4hashISB_ESt8equal_toISB_ESaISt4pairISC_SB_EEEPPT_.exit.i, label %_ZN7rocksdb6StatusaSEOS0_.exit25.i.i

_ZN7rocksdb6StatusaSEOS0_.exit25.i.i:             ; preds = %invoke.cont7.i.i
  call void @_ZdaPv(ptr noundef nonnull %26) #19
  br label %_ZN7rocksdbL15NewStaticObjectINS_16CompactionFilterEEENS_6StatusERKNS_13ConfigOptionsERKNSt7__cxx1112basic_stringIcSt11char_traitsIcESaIcEEERKSt13unordered_mapISB_SB_St4hashISB_ESt8equal_toISB_ESaISt4pairISC_SB_EEEPPT_.exit.i

lpad.i.i:                                         ; preds = %if.then11.i.i, %if.then.i.i
  %29 = landingpad { ptr, i32 }
          cleanup
  %30 = load ptr, ptr %state_.i.i5.i, align 8, !alias.scope !10
  %cmp.not.i.i31.i.i = icmp eq ptr %30, null
  br i1 %cmp.not.i.i31.i.i, label %_ZN7rocksdb6StatusD2Ev.exit33.i.i, label %_ZNKSt14default_deleteIA_KcEclIS0_EENSt9enable_ifIXsr14is_convertibleIPA_T_PS1_EE5valueEvE4typeEPS5_.exit.i.i32.i.i

_ZNKSt14default_deleteIA_KcEclIS0_EENSt9enable_ifIXsr14is_convertibleIPA_T_PS1_EE5valueEvE4typeEPS5_.exit.i.i32.i.i: ; preds = %lpad.i.i
  call void @_ZdaPv(ptr noundef nonnull %30) #19
  br label %_ZN7rocksdb6StatusD2Ev.exit33.i.i

_ZN7rocksdb6StatusD2Ev.exit33.i.i:                ; preds = %_ZNKSt14default_deleteIA_KcEclIS0_EENSt9enable_ifIXsr14is_convertibleIPA_T_PS1_EE5valueEvE4typeEPS5_.exit.i.i32.i.i, %lpad.i.i
  store ptr null, ptr %state_.i.i5.i, align 8, !alias.scope !10
  br label %lpad1.body.i

invoke.cont9.i.i:                                 ; preds = %_ZN7rocksdb6StatusD2Ev.exit.i.i
  %cmp.i34.i.i = icmp eq i8 %18, 0
  br i1 %cmp.i34.i.i, label %if.then11.i.i, label %_ZN7rocksdbL15NewStaticObjectINS_16CompactionFilterEEENS_6StatusERKNS_13ConfigOptionsERKNSt7__cxx1112basic_stringIcSt11char_traitsIcESaIcEEERKSt13unordered_mapISB_SB_St4hashISB_ESt8equal_toISB_ESaISt4pairISC_SB_EEEPPT_.exit.i

if.then11.i.i:                                    ; preds = %invoke.cont9.i.i, %invoke.cont9.i.thread.i
  %31 = load ptr, ptr %filter, align 8, !noalias !10
  invoke void @_ZN7rocksdb12Customizable18ConfigureNewObjectERKNS_13ConfigOptionsEPS0_RKSt13unordered_mapINSt7__cxx1112basic_stringIcSt11char_traitsIcESaIcEEESB_St4hashISB_ESt8equal_toISB_ESaISt4pairIKSB_SB_EEE(ptr nonnull sret(%"class.rocksdb::Status") align 8 %ref.tmp12.i.i, ptr noundef nonnull align 8 dereferenceable(80) %config_options, ptr noundef %31, ptr noundef nonnull align 8 dereferenceable(56) %opt_map.i)
          to label %invoke.cont13.i.i unwind label %lpad.i.i

invoke.cont13.i.i:                                ; preds = %if.then11.i.i
  %cmp.not.i35.i.i = icmp eq ptr %ref.tmp12.i.i, %agg.result
  br i1 %cmp.not.i35.i.i, label %_ZN7rocksdb6StatusaSEOS0_.exit51.i.i, label %if.then.i36.i.i

if.then.i36.i.i:                                  ; preds = %invoke.cont13.i.i
  %32 = load i8, ptr %ref.tmp12.i.i, align 8, !noalias !10
  store i8 %32, ptr %agg.result, align 8, !alias.scope !10
  %subcode_.i37.i.i = getelementptr inbounds i8, ptr %ref.tmp12.i.i, i64 1
  %33 = load i8, ptr %subcode_.i37.i.i, align 1, !noalias !10
  %subcode_4.i38.i.i = getelementptr inbounds i8, ptr %agg.result, i64 1
  store i8 %33, ptr %subcode_4.i38.i.i, align 1, !alias.scope !10
  %sev_.i39.i.i = getelementptr inbounds i8, ptr %ref.tmp12.i.i, i64 2
  %34 = load i8, ptr %sev_.i39.i.i, align 2, !noalias !10
  %sev_6.i40.i.i = getelementptr inbounds i8, ptr %agg.result, i64 2
  store i8 %34, ptr %sev_6.i40.i.i, align 2, !alias.scope !10
  %retryable_.i41.i.i = getelementptr inbounds i8, ptr %ref.tmp12.i.i, i64 3
  %35 = load i8, ptr %retryable_.i41.i.i, align 1, !noalias !10
  %36 = and i8 %35, 1
  %retryable_8.i42.i.i = getelementptr inbounds i8, ptr %agg.result, i64 3
  store i8 %36, ptr %retryable_8.i42.i.i, align 1, !alias.scope !10
  store <4 x i8> zeroinitializer, ptr %ref.tmp12.i.i, align 8, !noalias !10
  %data_loss_.i43.i.i = getelementptr inbounds i8, ptr %ref.tmp12.i.i, i64 4
  %37 = load i8, ptr %data_loss_.i43.i.i, align 4, !noalias !10
  %38 = and i8 %37, 1
  %data_loss_11.i44.i.i = getelementptr inbounds i8, ptr %agg.result, i64 4
  store i8 %38, ptr %data_loss_11.i44.i.i, align 4, !alias.scope !10
  store i8 0, ptr %data_loss_.i43.i.i, align 4, !noalias !10
  %scope_.i45.i.i = getelementptr inbounds i8, ptr %ref.tmp12.i.i, i64 5
  %39 = load i8, ptr %scope_.i45.i.i, align 1, !noalias !10
  %scope_14.i46.i.i = getelementptr inbounds i8, ptr %agg.result, i64 5
  store i8 %39, ptr %scope_14.i46.i.i, align 1, !alias.scope !10
  store i8 0, ptr %scope_.i45.i.i, align 1, !noalias !10
  %state_.i47.i.i = getelementptr inbounds i8, ptr %ref.tmp12.i.i, i64 8
  %40 = load ptr, ptr %state_.i47.i.i, align 8, !noalias !10
  store ptr null, ptr %state_.i47.i.i, align 8, !noalias !10
  %41 = load ptr, ptr %state_.i.i5.i, align 8, !alias.scope !10
  store ptr %40, ptr %state_.i.i5.i, align 8, !alias.scope !10
  %tobool.not.i.i.i.i.i49.i.i = icmp eq ptr %41, null
  br i1 %tobool.not.i.i.i.i.i49.i.i, label %_ZN7rocksdb6StatusaSEOS0_.exit51.i.i, label %_ZNKSt14default_deleteIA_KcEclIS0_EENSt9enable_ifIXsr14is_convertibleIPA_T_PS1_EE5valueEvE4typeEPS5_.exit.i.i.i.i.i50.i.i

_ZNKSt14default_deleteIA_KcEclIS0_EENSt9enable_ifIXsr14is_convertibleIPA_T_PS1_EE5valueEvE4typeEPS5_.exit.i.i.i.i.i50.i.i: ; preds = %if.then.i36.i.i
  call void @_ZdaPv(ptr noundef nonnull %41) #19
  br label %_ZN7rocksdb6StatusaSEOS0_.exit51.i.i

_ZN7rocksdb6StatusaSEOS0_.exit51.i.i:             ; preds = %_ZNKSt14default_deleteIA_KcEclIS0_EENSt9enable_ifIXsr14is_convertibleIPA_T_PS1_EE5valueEvE4typeEPS5_.exit.i.i.i.i.i50.i.i, %if.then.i36.i.i, %invoke.cont13.i.i
  %state_.i52.i.i = getelementptr inbounds i8, ptr %ref.tmp12.i.i, i64 8
  %42 = load ptr, ptr %state_.i52.i.i, align 8, !noalias !10
  %cmp.not.i.i53.i.i = icmp eq ptr %42, null
  br i1 %cmp.not.i.i53.i.i, label %_ZN7rocksdbL15NewStaticObjectINS_16CompactionFilterEEENS_6StatusERKNS_13ConfigOptionsERKNSt7__cxx1112basic_stringIcSt11char_traitsIcESaIcEEERKSt13unordered_mapISB_SB_St4hashISB_ESt8equal_toISB_ESaISt4pairISC_SB_EEEPPT_.exit.i, label %_ZNKSt14default_deleteIA_KcEclIS0_EENSt9enable_ifIXsr14is_convertibleIPA_T_PS1_EE5valueEvE4typeEPS5_.exit.i.i54.i.i

_ZNKSt14default_deleteIA_KcEclIS0_EENSt9enable_ifIXsr14is_convertibleIPA_T_PS1_EE5valueEvE4typeEPS5_.exit.i.i54.i.i: ; preds = %_ZN7rocksdb6StatusaSEOS0_.exit51.i.i
  call void @_ZdaPv(ptr noundef nonnull %42) #19
  br label %_ZN7rocksdbL15NewStaticObjectINS_16CompactionFilterEEENS_6StatusERKNS_13ConfigOptionsERKNSt7__cxx1112basic_stringIcSt11char_traitsIcESaIcEEERKSt13unordered_mapISB_SB_St4hashISB_ESt8equal_toISB_ESaISt4pairISC_SB_EEEPPT_.exit.i

if.else16.i.i:                                    ; preds = %if.else.i
  %_M_element_count.i.i.i.i.i = getelementptr inbounds i8, ptr %opt_map.i, i64 24
  %43 = load i64, ptr %_M_element_count.i.i.i.i.i, align 8, !noalias !10
  %cmp.i.i.i.i = icmp eq i64 %43, 0
  br i1 %cmp.i.i.i.i, label %if.then18.i.i, label %if.else19.i.i

if.then18.i.i:                                    ; preds = %if.else16.i.i
  store ptr null, ptr %filter, align 8, !noalias !10
  %state_.i.i56.i.i = getelementptr inbounds i8, ptr %agg.result, i64 8
  store ptr null, ptr %state_.i.i56.i.i, align 8, !alias.scope !11
  call void @llvm.memset.p0.i64(ptr noundef nonnull align 8 dereferenceable(6) %agg.result, i8 0, i64 6, i1 false), !alias.scope !11
  br label %_ZN7rocksdbL15NewStaticObjectINS_16CompactionFilterEEENS_6StatusERKNS_13ConfigOptionsERKNSt7__cxx1112basic_stringIcSt11char_traitsIcESaIcEEERKSt13unordered_mapISB_SB_St4hashISB_ESt8equal_toISB_ESaISt4pairISC_SB_EEEPPT_.exit.i

if.else19.i.i:                                    ; preds = %if.else16.i.i
  store ptr @.str.5, ptr %ref.tmp20.i.i, align 8, !noalias !10
  %size_.i.i.i = getelementptr inbounds i8, ptr %ref.tmp20.i.i, i64 8
  store i64 20, ptr %size_.i.i.i, align 8, !noalias !10
  store ptr @.str, ptr %ref.tmp21.i.i, align 8, !noalias !10
  %size_.i57.i.i = getelementptr inbounds i8, ptr %ref.tmp21.i.i, i64 8
  store i64 0, ptr %size_.i57.i.i, align 8, !noalias !10
  invoke void @_ZN7rocksdb6StatusC2ENS0_4CodeENS0_7SubCodeERKNS_5SliceES5_NS0_8SeverityE(ptr noundef nonnull align 8 dereferenceable(16) %agg.result, i8 noundef zeroext 3, i8 noundef zeroext 0, ptr noundef nonnull align 8 dereferenceable(16) %ref.tmp20.i.i, ptr noundef nonnull align 8 dereferenceable(16) %ref.tmp21.i.i, i8 noundef zeroext 0)
          to label %_ZN7rocksdbL15NewStaticObjectINS_16CompactionFilterEEENS_6StatusERKNS_13ConfigOptionsERKNSt7__cxx1112basic_stringIcSt11char_traitsIcESaIcEEERKSt13unordered_mapISB_SB_St4hashISB_ESt8equal_toISB_ESaISt4pairISC_SB_EEEPPT_.exit.i unwind label %lpad1.i

_ZN7rocksdbL15NewStaticObjectINS_16CompactionFilterEEENS_6StatusERKNS_13ConfigOptionsERKNSt7__cxx1112basic_stringIcSt11char_traitsIcESaIcEEERKSt13unordered_mapISB_SB_St4hashISB_ESt8equal_toISB_ESaISt4pairISC_SB_EEEPPT_.exit.i: ; preds = %if.else19.i.i, %if.then18.i.i, %_ZNKSt14default_deleteIA_KcEclIS0_EENSt9enable_ifIXsr14is_convertibleIPA_T_PS1_EE5valueEvE4typeEPS5_.exit.i.i54.i.i, %_ZN7rocksdb6StatusaSEOS0_.exit51.i.i, %invoke.cont9.i.i, %_ZN7rocksdb6StatusaSEOS0_.exit25.i.i, %invoke.cont7.i.i
  call void @llvm.lifetime.end.p0(i64 16, ptr nonnull %ref.tmp.i.i), !noalias !4
  call void @llvm.lifetime.end.p0(i64 16, ptr nonnull %ref.tmp12.i.i), !noalias !4
  call void @llvm.lifetime.end.p0(i64 16, ptr nonnull %ref.tmp20.i.i), !noalias !4
  call void @llvm.lifetime.end.p0(i64 16, ptr nonnull %ref.tmp21.i.i), !noalias !4
  br label %cleanup.i

cleanup.i:                                        ; preds = %_ZN7rocksdbL15NewStaticObjectINS_16CompactionFilterEEENS_6StatusERKNS_13ConfigOptionsERKNSt7__cxx1112basic_stringIcSt11char_traitsIcESaIcEEERKSt13unordered_mapISB_SB_St4hashISB_ESt8equal_toISB_ESaISt4pairISC_SB_EEEPPT_.exit.i, %if.then.i.i.i, %if.then.i3
  %state_.i20.i = getelementptr inbounds i8, ptr %status.i, i64 8
  %44 = load ptr, ptr %state_.i20.i, align 8, !noalias !4
  %cmp.not.i.i21.i = icmp eq ptr %44, null
  br i1 %cmp.not.i.i21.i, label %_ZN7rocksdb6StatusD2Ev.exit23.i, label %_ZNKSt14default_deleteIA_KcEclIS0_EENSt9enable_ifIXsr14is_convertibleIPA_T_PS1_EE5valueEvE4typeEPS5_.exit.i.i22.i

_ZNKSt14default_deleteIA_KcEclIS0_EENSt9enable_ifIXsr14is_convertibleIPA_T_PS1_EE5valueEvE4typeEPS5_.exit.i.i22.i: ; preds = %cleanup.i
  call void @_ZdaPv(ptr noundef nonnull %44) #19
  br label %_ZN7rocksdb6StatusD2Ev.exit23.i

_ZN7rocksdb6StatusD2Ev.exit23.i:                  ; preds = %_ZNKSt14default_deleteIA_KcEclIS0_EENSt9enable_ifIXsr14is_convertibleIPA_T_PS1_EE5valueEvE4typeEPS5_.exit.i.i22.i, %cleanup.i
  store ptr null, ptr %state_.i20.i, align 8, !noalias !4
  %45 = load ptr, ptr %_M_before_begin.i.i.i, align 8, !noalias !4
  %tobool.not3.i.i.i.i.i = icmp eq ptr %45, null
  br i1 %tobool.not3.i.i.i.i.i, label %_ZNSt10_HashtableINSt7__cxx1112basic_stringIcSt11char_traitsIcESaIcEEESt4pairIKS5_S5_ESaIS8_ENSt8__detail10_Select1stESt8equal_toIS5_ESt4hashIS5_ENSA_18_Mod_range_hashingENSA_20_Default_ranged_hashENSA_20_Prime_rehash_policyENSA_17_Hashtable_traitsILb1ELb0ELb1EEEE5clearEv.exit.i.i.i, label %while.body.i.i.i.i.i

while.body.i.i.i.i.i:                             ; preds = %_ZN7rocksdb6StatusD2Ev.exit23.i, %while.body.i.i.i.i.i
  %__n.addr.04.i.i.i.i.i = phi ptr [ %46, %while.body.i.i.i.i.i ], [ %45, %_ZN7rocksdb6StatusD2Ev.exit23.i ]
  %46 = load ptr, ptr %__n.addr.04.i.i.i.i.i, align 8
  %add.ptr.i.i.i.i.i.i = getelementptr inbounds i8, ptr %__n.addr.04.i.i.i.i.i, i64 8
  %second.i.i.i.i.i.i.i.i.i = getelementptr inbounds i8, ptr %__n.addr.04.i.i.i.i.i, i64 40
  call void @_ZNSt7__cxx1112basic_stringIcSt11char_traitsIcESaIcEED1Ev(ptr noundef nonnull align 8 dereferenceable(32) %second.i.i.i.i.i.i.i.i.i) #18
  call void @_ZNSt7__cxx1112basic_stringIcSt11char_traitsIcESaIcEED1Ev(ptr noundef nonnull align 8 dereferenceable(32) %add.ptr.i.i.i.i.i.i) #18
  call void @_ZdlPv(ptr noundef nonnull %__n.addr.04.i.i.i.i.i) #19
  %tobool.not.i.i.i.i.i = icmp eq ptr %46, null
  br i1 %tobool.not.i.i.i.i.i, label %_ZNSt10_HashtableINSt7__cxx1112basic_stringIcSt11char_traitsIcESaIcEEESt4pairIKS5_S5_ESaIS8_ENSt8__detail10_Select1stESt8equal_toIS5_ESt4hashIS5_ENSA_18_Mod_range_hashingENSA_20_Default_ranged_hashENSA_20_Prime_rehash_policyENSA_17_Hashtable_traitsILb1ELb0ELb1EEEE5clearEv.exit.i.i.i, label %while.body.i.i.i.i.i, !llvm.loop !14

_ZNSt10_HashtableINSt7__cxx1112basic_stringIcSt11char_traitsIcESaIcEEESt4pairIKS5_S5_ESaIS8_ENSt8__detail10_Select1stESt8equal_toIS5_ESt4hashIS5_ENSA_18_Mod_range_hashingENSA_20_Default_ranged_hashENSA_20_Prime_rehash_policyENSA_17_Hashtable_traitsILb1ELb0ELb1EEEE5clearEv.exit.i.i.i: ; preds = %while.body.i.i.i.i.i, %_ZN7rocksdb6StatusD2Ev.exit23.i
  %47 = load ptr, ptr %opt_map.i, align 8, !noalias !4
  %48 = load i64, ptr %_M_bucket_count.i.i.i, align 8, !noalias !4
  %mul.i.i.i.i = shl i64 %48, 3
  call void @llvm.memset.p0.i64(ptr align 8 %47, i8 0, i64 %mul.i.i.i.i, i1 false)
  call void @llvm.memset.p0.i64(ptr noundef nonnull align 8 dereferenceable(16) %_M_before_begin.i.i.i, i8 0, i64 16, i1 false), !noalias !4
  %49 = load ptr, ptr %opt_map.i, align 8, !noalias !4
  %cmp.i.i.i.i.i.i = icmp eq ptr %_M_single_bucket.i.i.i, %49
  br i1 %cmp.i.i.i.i.i.i, label %invoke.cont, label %if.end.i.i.i.i.i

if.end.i.i.i.i.i:                                 ; preds = %_ZNSt10_HashtableINSt7__cxx1112basic_stringIcSt11char_traitsIcESaIcEEESt4pairIKS5_S5_ESaIS8_ENSt8__detail10_Select1stESt8equal_toIS5_ESt4hashIS5_ENSA_18_Mod_range_hashingENSA_20_Default_ranged_hashENSA_20_Prime_rehash_policyENSA_17_Hashtable_traitsILb1ELb0ELb1EEEE5clearEv.exit.i.i.i
  call void @_ZdlPv(ptr noundef %49) #19
  br label %invoke.cont

ehcleanup.i:                                      ; preds = %_ZN7rocksdb6StatusD2Ev.exit.i, %lpad.i2
  %.pn.i = phi { ptr, i32 } [ %eh.lpad-body.i, %_ZN7rocksdb6StatusD2Ev.exit.i ], [ %14, %lpad.i2 ]
  call void @_ZNSt13unordered_mapINSt7__cxx1112basic_stringIcSt11char_traitsIcESaIcEEES5_St4hashIS5_ESt8equal_toIS5_ESaISt4pairIKS5_S5_EEED2Ev(ptr noundef nonnull align 8 dereferenceable(56) %opt_map.i) #18
  call void @_ZNSt7__cxx1112basic_stringIcSt11char_traitsIcESaIcEED1Ev(ptr noundef nonnull align 8 dereferenceable(32) %id.i) #18
  br label %common.resume

invoke.cont:                                      ; preds = %if.end.i.i.i.i.i, %_ZNSt10_HashtableINSt7__cxx1112basic_stringIcSt11char_traitsIcESaIcEEESt4pairIKS5_S5_ESaIS8_ENSt8__detail10_Select1stESt8equal_toIS5_ESt4hashIS5_ENSA_18_Mod_range_hashingENSA_20_Default_ranged_hashENSA_20_Prime_rehash_policyENSA_17_Hashtable_traitsILb1ELb0ELb1EEEE5clearEv.exit.i.i.i
  call void @_ZNSt7__cxx1112basic_stringIcSt11char_traitsIcESaIcEED1Ev(ptr noundef nonnull align 8 dereferenceable(32) %id.i) #18
  call void @llvm.lifetime.end.p0(i64 32, ptr nonnull %id.i)
  call void @llvm.lifetime.end.p0(i64 56, ptr nonnull %opt_map.i)
  call void @llvm.lifetime.end.p0(i64 16, ptr nonnull %status.i)
  %50 = load i8, ptr %agg.result, align 8
  %cmp.i = icmp eq i8 %50, 0
  br i1 %cmp.i, label %if.then, label %nrvo.skipdtor

if.then:                                          ; preds = %invoke.cont
  %51 = load ptr, ptr %filter, align 8
  store ptr %51, ptr %result, align 8
  br label %nrvo.skipdtor

nrvo.skipdtor:                                    ; preds = %invoke.cont, %if.then
  ret void
}

declare i32 @__gxx_personality_v0(...)

; Function Attrs: mustprogress uwtable
define void @_ZN7rocksdb23CompactionFilterFactory16CreateFromStringERKNS_13ConfigOptionsERKNSt7__cxx1112basic_stringIcSt11char_traitsIcESaIcEEEPSt10shared_ptrIS0_E(ptr noalias sret(%"class.rocksdb::Status") align 8 %agg.result, ptr noundef nonnull align 8 dereferenceable(80) %config_options, ptr noundef nonnull align 8 dereferenceable(32) %value, ptr noundef %result) local_unnamed_addr #0 align 2 personality ptr @__gxx_personality_v0 {
entry:
  %ref.tmp.i.i = alloca %"class.rocksdb::Status", align 8
  %ref.tmp11.i.i = alloca %"class.rocksdb::Status", align 8
  %ref.tmp20.i.i = alloca %"class.rocksdb::Slice", align 8
  %ref.tmp21.i.i = alloca %"class.rocksdb::Slice", align 8
  %id.i = alloca %"class.std::__cxx11::basic_string", align 8
  %opt_map.i = alloca %"class.std::unordered_map.53", align 8
  %status.i = alloca %"class.rocksdb::Status", align 8
  tail call void @llvm.experimental.noalias.scope.decl(metadata !16)
  call void @llvm.lifetime.start.p0(i64 32, ptr nonnull %id.i)
  call void @llvm.lifetime.start.p0(i64 56, ptr nonnull %opt_map.i)
  call void @llvm.lifetime.start.p0(i64 16, ptr nonnull %status.i)
  call void @_ZNSt7__cxx1112basic_stringIcSt11char_traitsIcESaIcEEC1Ev(ptr noundef nonnull align 8 dereferenceable(32) %id.i) #18, !noalias !16
  %_M_single_bucket.i.i.i = getelementptr inbounds i8, ptr %opt_map.i, i64 48
  store ptr %_M_single_bucket.i.i.i, ptr %opt_map.i, align 8, !noalias !16
  %_M_bucket_count.i.i.i = getelementptr inbounds i8, ptr %opt_map.i, i64 8
  store i64 1, ptr %_M_bucket_count.i.i.i, align 8, !noalias !16
  %_M_before_begin.i.i.i = getelementptr inbounds i8, ptr %opt_map.i, i64 16
  %_M_rehash_policy.i.i.i = getelementptr inbounds i8, ptr %opt_map.i, i64 32
  call void @llvm.memset.p0.i64(ptr noundef nonnull align 8 dereferenceable(16) %_M_before_begin.i.i.i, i8 0, i64 16, i1 false), !noalias !16
  store float 1.000000e+00, ptr %_M_rehash_policy.i.i.i, align 8, !noalias !16
  %_M_next_resize.i.i.i.i = getelementptr inbounds i8, ptr %opt_map.i, i64 40
  call void @llvm.memset.p0.i64(ptr noundef nonnull align 8 dereferenceable(16) %_M_next_resize.i.i.i.i, i8 0, i64 16, i1 false), !noalias !16
  %0 = load ptr, ptr %result, align 8, !noalias !16
  invoke void @_ZN7rocksdb12Customizable13GetOptionsMapERKNS_13ConfigOptionsEPKS0_RKNSt7__cxx1112basic_stringIcSt11char_traitsIcESaIcEEEPSB_PSt13unordered_mapISB_SB_St4hashISB_ESt8equal_toISB_ESaISt4pairISC_SB_EEE(ptr nonnull sret(%"class.rocksdb::Status") align 8 %status.i, ptr noundef nonnull align 8 dereferenceable(80) %config_options, ptr noundef %0, ptr noundef nonnull align 8 dereferenceable(32) %value, ptr noundef nonnull %id.i, ptr noundef nonnull %opt_map.i)
          to label %invoke.cont2.i unwind label %lpad.i, !noalias !16

invoke.cont2.i:                                   ; preds = %entry
  %1 = load i8, ptr %status.i, align 8, !noalias !16
  %cmp.i.i = icmp eq i8 %1, 0
  br i1 %cmp.i.i, label %if.else.i, label %if.then.i

if.then.i:                                        ; preds = %invoke.cont2.i
  %state_.i.i.i = getelementptr inbounds i8, ptr %agg.result, i64 8
  store ptr null, ptr %state_.i.i.i, align 8, !alias.scope !16
  call void @llvm.memset.p0.i64(ptr noundef nonnull align 8 dereferenceable(6) %agg.result, i8 0, i64 6, i1 false), !alias.scope !16
  %cmp.not.i.i.i = icmp eq ptr %status.i, %agg.result
  br i1 %cmp.not.i.i.i, label %cleanup.i, label %if.then.i.i.i

if.then.i.i.i:                                    ; preds = %if.then.i
  store i8 %1, ptr %agg.result, align 8, !alias.scope !16
  %subcode_.i.i.i = getelementptr inbounds i8, ptr %status.i, i64 1
  %2 = load i8, ptr %subcode_.i.i.i, align 1, !noalias !16
  %subcode_4.i.i.i = getelementptr inbounds i8, ptr %agg.result, i64 1
  store i8 %2, ptr %subcode_4.i.i.i, align 1, !alias.scope !16
  %sev_.i.i.i = getelementptr inbounds i8, ptr %status.i, i64 2
  %3 = load i8, ptr %sev_.i.i.i, align 2, !noalias !16
  %sev_6.i.i.i = getelementptr inbounds i8, ptr %agg.result, i64 2
  store i8 %3, ptr %sev_6.i.i.i, align 2, !alias.scope !16
  %retryable_.i.i.i = getelementptr inbounds i8, ptr %status.i, i64 3
  %4 = load i8, ptr %retryable_.i.i.i, align 1, !noalias !16
  %5 = and i8 %4, 1
  %retryable_8.i.i.i = getelementptr inbounds i8, ptr %agg.result, i64 3
  store i8 %5, ptr %retryable_8.i.i.i, align 1, !alias.scope !16
  store <4 x i8> zeroinitializer, ptr %status.i, align 8, !noalias !16
  %data_loss_.i.i.i = getelementptr inbounds i8, ptr %status.i, i64 4
  %6 = load i8, ptr %data_loss_.i.i.i, align 4, !noalias !16
  %7 = and i8 %6, 1
  %data_loss_11.i.i.i = getelementptr inbounds i8, ptr %agg.result, i64 4
  store i8 %7, ptr %data_loss_11.i.i.i, align 4, !alias.scope !16
  store i8 0, ptr %data_loss_.i.i.i, align 4, !noalias !16
  %scope_.i.i.i = getelementptr inbounds i8, ptr %status.i, i64 5
  %8 = load i8, ptr %scope_.i.i.i, align 1, !noalias !16
  %scope_14.i.i.i = getelementptr inbounds i8, ptr %agg.result, i64 5
  store i8 %8, ptr %scope_14.i.i.i, align 1, !alias.scope !16
  store i8 0, ptr %scope_.i.i.i, align 1, !noalias !16
  %state_.i2.i.i = getelementptr inbounds i8, ptr %status.i, i64 8
  %9 = load ptr, ptr %state_.i2.i.i, align 8, !noalias !16
  store ptr null, ptr %state_.i2.i.i, align 8, !noalias !16
  store ptr %9, ptr %state_.i.i.i, align 8, !alias.scope !16
  br label %cleanup.i

lpad.i:                                           ; preds = %entry
  %10 = landingpad { ptr, i32 }
          cleanup
  br label %ehcleanup.i

lpad1.i:                                          ; preds = %if.else19.i.i
  %11 = landingpad { ptr, i32 }
          cleanup
  br label %lpad1.body.i

lpad1.body.i:                                     ; preds = %_ZN7rocksdb6StatusD2Ev.exit33.i.i, %lpad1.i
  %eh.lpad-body.i = phi { ptr, i32 } [ %11, %lpad1.i ], [ %25, %_ZN7rocksdb6StatusD2Ev.exit33.i.i ]
  %state_.i.i = getelementptr inbounds i8, ptr %status.i, i64 8
  %12 = load ptr, ptr %state_.i.i, align 8, !noalias !16
  %cmp.not.i.i4.i = icmp eq ptr %12, null
  br i1 %cmp.not.i.i4.i, label %_ZN7rocksdb6StatusD2Ev.exit.i, label %_ZNKSt14default_deleteIA_KcEclIS0_EENSt9enable_ifIXsr14is_convertibleIPA_T_PS1_EE5valueEvE4typeEPS5_.exit.i.i.i

_ZNKSt14default_deleteIA_KcEclIS0_EENSt9enable_ifIXsr14is_convertibleIPA_T_PS1_EE5valueEvE4typeEPS5_.exit.i.i.i: ; preds = %lpad1.body.i
  call void @_ZdaPv(ptr noundef nonnull %12) #19
  br label %_ZN7rocksdb6StatusD2Ev.exit.i

_ZN7rocksdb6StatusD2Ev.exit.i:                    ; preds = %_ZNKSt14default_deleteIA_KcEclIS0_EENSt9enable_ifIXsr14is_convertibleIPA_T_PS1_EE5valueEvE4typeEPS5_.exit.i.i.i, %lpad1.body.i
  store ptr null, ptr %state_.i.i, align 8, !noalias !16
  br label %ehcleanup.i

if.else.i:                                        ; preds = %invoke.cont2.i
  call void @llvm.experimental.noalias.scope.decl(metadata !19)
  call void @llvm.lifetime.start.p0(i64 16, ptr nonnull %ref.tmp.i.i), !noalias !16
  call void @llvm.lifetime.start.p0(i64 16, ptr nonnull %ref.tmp11.i.i), !noalias !16
  call void @llvm.lifetime.start.p0(i64 16, ptr nonnull %ref.tmp20.i.i), !noalias !16
  call void @llvm.lifetime.start.p0(i64 16, ptr nonnull %ref.tmp21.i.i), !noalias !16
  %call.i.i = call noundef zeroext i1 @_ZNKSt7__cxx1112basic_stringIcSt11char_traitsIcESaIcEE5emptyEv(ptr noundef nonnull align 8 dereferenceable(32) %id.i) #18, !noalias !22
  br i1 %call.i.i, label %if.else16.i.i, label %if.then.i.i

if.then.i.i:                                      ; preds = %if.else.i
  %state_.i.i5.i = getelementptr inbounds i8, ptr %agg.result, i64 8
  store ptr null, ptr %state_.i.i5.i, align 8, !alias.scope !22
  call void @llvm.memset.p0.i64(ptr noundef nonnull align 8 dereferenceable(6) %agg.result, i8 0, i64 6, i1 false), !alias.scope !22
  %registry.i.i = getelementptr inbounds i8, ptr %config_options, i64 64
  %13 = load ptr, ptr %registry.i.i, align 8, !noalias !22
  invoke void @_ZN7rocksdb14ObjectRegistry15NewSharedObjectINS_23CompactionFilterFactoryEEENS_6StatusERKNSt7__cxx1112basic_stringIcSt11char_traitsIcESaIcEEEPSt10shared_ptrIT_E(ptr nonnull sret(%"class.rocksdb::Status") align 8 %ref.tmp.i.i, ptr noundef nonnull align 8 dereferenceable(192) %13, ptr noundef nonnull align 8 dereferenceable(32) %id.i, ptr noundef nonnull %result)
          to label %invoke.cont.i.i unwind label %lpad.i.i, !noalias !22

invoke.cont.i.i:                                  ; preds = %if.then.i.i
  %cmp.not.i.i6.i = icmp eq ptr %ref.tmp.i.i, %agg.result
  br i1 %cmp.not.i.i6.i, label %invoke.cont8.i.thread.i, label %_ZN7rocksdb6StatusD2Ev.exit.i.i

invoke.cont8.i.thread.i:                          ; preds = %invoke.cont.i.i
  store ptr null, ptr %state_.i.i5.i, align 8, !noalias !22
  br label %if.then10.i.i

_ZN7rocksdb6StatusD2Ev.exit.i.i:                  ; preds = %invoke.cont.i.i
  %14 = load i8, ptr %ref.tmp.i.i, align 8, !noalias !22
  store i8 %14, ptr %agg.result, align 8, !alias.scope !22
  %subcode_.i.i8.i = getelementptr inbounds i8, ptr %ref.tmp.i.i, i64 1
  %15 = load i8, ptr %subcode_.i.i8.i, align 1, !noalias !22
  %subcode_4.i.i9.i = getelementptr inbounds i8, ptr %agg.result, i64 1
  store i8 %15, ptr %subcode_4.i.i9.i, align 1, !alias.scope !22
  %sev_.i.i10.i = getelementptr inbounds i8, ptr %ref.tmp.i.i, i64 2
  %16 = load i8, ptr %sev_.i.i10.i, align 2, !noalias !22
  %sev_6.i.i11.i = getelementptr inbounds i8, ptr %agg.result, i64 2
  store i8 %16, ptr %sev_6.i.i11.i, align 2, !alias.scope !22
  %retryable_.i.i12.i = getelementptr inbounds i8, ptr %ref.tmp.i.i, i64 3
  %17 = load i8, ptr %retryable_.i.i12.i, align 1, !noalias !22
  %18 = and i8 %17, 1
  %retryable_8.i.i13.i = getelementptr inbounds i8, ptr %agg.result, i64 3
  store i8 %18, ptr %retryable_8.i.i13.i, align 1, !alias.scope !22
  store <4 x i8> zeroinitializer, ptr %ref.tmp.i.i, align 8, !noalias !22
  %data_loss_.i.i14.i = getelementptr inbounds i8, ptr %ref.tmp.i.i, i64 4
  %19 = load i8, ptr %data_loss_.i.i14.i, align 4, !noalias !22
  %20 = and i8 %19, 1
  %data_loss_11.i.i15.i = getelementptr inbounds i8, ptr %agg.result, i64 4
  store i8 %20, ptr %data_loss_11.i.i15.i, align 4, !alias.scope !22
  store i8 0, ptr %data_loss_.i.i14.i, align 4, !noalias !22
  %scope_.i.i16.i = getelementptr inbounds i8, ptr %ref.tmp.i.i, i64 5
  %21 = load i8, ptr %scope_.i.i16.i, align 1, !noalias !22
  %scope_14.i.i17.i = getelementptr inbounds i8, ptr %agg.result, i64 5
  store i8 %21, ptr %scope_14.i.i17.i, align 1, !alias.scope !22
  store i8 0, ptr %scope_.i.i16.i, align 1, !noalias !22
  %state_.i7.i.i = getelementptr inbounds i8, ptr %ref.tmp.i.i, i64 8
  %22 = load ptr, ptr %state_.i7.i.i, align 8, !noalias !22
  store ptr %22, ptr %state_.i.i5.i, align 8, !alias.scope !22
  store ptr null, ptr %state_.i7.i.i, align 8, !noalias !22
  %ignore_unsupported_options.i.i = getelementptr inbounds i8, ptr %config_options, i64 1
  %23 = load i8, ptr %ignore_unsupported_options.i.i, align 1, !noalias !22
  %24 = and i8 %23, 1
  %tobool.not.i.i = icmp ne i8 %24, 0
  %cmp.i.i.i = icmp eq i8 %14, 3
  %or.cond.i.i = select i1 %tobool.not.i.i, i1 %cmp.i.i.i, i1 false
  br i1 %or.cond.i.i, label %invoke.cont6.i.i, label %invoke.cont8.i.i

invoke.cont6.i.i:                                 ; preds = %_ZN7rocksdb6StatusD2Ev.exit.i.i
  call void @llvm.memset.p0.i64(ptr noundef nonnull align 8 dereferenceable(6) %agg.result, i8 0, i64 6, i1 false), !alias.scope !22
  store ptr null, ptr %state_.i.i5.i, align 8, !alias.scope !22
  %tobool.not.i.i.i.i.i23.i.i = icmp eq ptr %22, null
  br i1 %tobool.not.i.i.i.i.i23.i.i, label %_ZN7rocksdbL15NewSharedObjectINS_23CompactionFilterFactoryEEENS_6StatusERKNS_13ConfigOptionsERKNSt7__cxx1112basic_stringIcSt11char_traitsIcESaIcEEERKSt13unordered_mapISB_SB_St4hashISB_ESt8equal_toISB_ESaISt4pairISC_SB_EEEPSt10shared_ptrIT_E.exit.i, label %_ZN7rocksdb6StatusaSEOS0_.exit25.i.i

_ZN7rocksdb6StatusaSEOS0_.exit25.i.i:             ; preds = %invoke.cont6.i.i
  call void @_ZdaPv(ptr noundef nonnull %22) #19
  br label %_ZN7rocksdbL15NewSharedObjectINS_23CompactionFilterFactoryEEENS_6StatusERKNS_13ConfigOptionsERKNSt7__cxx1112basic_stringIcSt11char_traitsIcESaIcEEERKSt13unordered_mapISB_SB_St4hashISB_ESt8equal_toISB_ESaISt4pairISC_SB_EEEPSt10shared_ptrIT_E.exit.i

lpad.i.i:                                         ; preds = %if.then10.i.i, %if.then.i.i
  %25 = landingpad { ptr, i32 }
          cleanup
  %26 = load ptr, ptr %state_.i.i5.i, align 8, !alias.scope !22
  %cmp.not.i.i31.i.i = icmp eq ptr %26, null
  br i1 %cmp.not.i.i31.i.i, label %_ZN7rocksdb6StatusD2Ev.exit33.i.i, label %_ZNKSt14default_deleteIA_KcEclIS0_EENSt9enable_ifIXsr14is_convertibleIPA_T_PS1_EE5valueEvE4typeEPS5_.exit.i.i32.i.i

_ZNKSt14default_deleteIA_KcEclIS0_EENSt9enable_ifIXsr14is_convertibleIPA_T_PS1_EE5valueEvE4typeEPS5_.exit.i.i32.i.i: ; preds = %lpad.i.i
  call void @_ZdaPv(ptr noundef nonnull %26) #19
  br label %_ZN7rocksdb6StatusD2Ev.exit33.i.i

_ZN7rocksdb6StatusD2Ev.exit33.i.i:                ; preds = %_ZNKSt14default_deleteIA_KcEclIS0_EENSt9enable_ifIXsr14is_convertibleIPA_T_PS1_EE5valueEvE4typeEPS5_.exit.i.i32.i.i, %lpad.i.i
  store ptr null, ptr %state_.i.i5.i, align 8, !alias.scope !22
  br label %lpad1.body.i

invoke.cont8.i.i:                                 ; preds = %_ZN7rocksdb6StatusD2Ev.exit.i.i
  %cmp.i34.i.i = icmp eq i8 %14, 0
  br i1 %cmp.i34.i.i, label %if.then10.i.i, label %_ZN7rocksdbL15NewSharedObjectINS_23CompactionFilterFactoryEEENS_6StatusERKNS_13ConfigOptionsERKNSt7__cxx1112basic_stringIcSt11char_traitsIcESaIcEEERKSt13unordered_mapISB_SB_St4hashISB_ESt8equal_toISB_ESaISt4pairISC_SB_EEEPSt10shared_ptrIT_E.exit.i

if.then10.i.i:                                    ; preds = %invoke.cont8.i.i, %invoke.cont8.i.thread.i
  %27 = load ptr, ptr %result, align 8, !noalias !22
  invoke void @_ZN7rocksdb12Customizable18ConfigureNewObjectERKNS_13ConfigOptionsEPS0_RKSt13unordered_mapINSt7__cxx1112basic_stringIcSt11char_traitsIcESaIcEEESB_St4hashISB_ESt8equal_toISB_ESaISt4pairIKSB_SB_EEE(ptr nonnull sret(%"class.rocksdb::Status") align 8 %ref.tmp11.i.i, ptr noundef nonnull align 8 dereferenceable(80) %config_options, ptr noundef %27, ptr noundef nonnull align 8 dereferenceable(56) %opt_map.i)
          to label %invoke.cont13.i.i unwind label %lpad.i.i

invoke.cont13.i.i:                                ; preds = %if.then10.i.i
  %cmp.not.i35.i.i = icmp eq ptr %ref.tmp11.i.i, %agg.result
  br i1 %cmp.not.i35.i.i, label %_ZN7rocksdb6StatusaSEOS0_.exit51.i.i, label %if.then.i36.i.i

if.then.i36.i.i:                                  ; preds = %invoke.cont13.i.i
  %28 = load i8, ptr %ref.tmp11.i.i, align 8, !noalias !22
  store i8 %28, ptr %agg.result, align 8, !alias.scope !22
  %subcode_.i37.i.i = getelementptr inbounds i8, ptr %ref.tmp11.i.i, i64 1
  %29 = load i8, ptr %subcode_.i37.i.i, align 1, !noalias !22
  %subcode_4.i38.i.i = getelementptr inbounds i8, ptr %agg.result, i64 1
  store i8 %29, ptr %subcode_4.i38.i.i, align 1, !alias.scope !22
  %sev_.i39.i.i = getelementptr inbounds i8, ptr %ref.tmp11.i.i, i64 2
  %30 = load i8, ptr %sev_.i39.i.i, align 2, !noalias !22
  %sev_6.i40.i.i = getelementptr inbounds i8, ptr %agg.result, i64 2
  store i8 %30, ptr %sev_6.i40.i.i, align 2, !alias.scope !22
  %retryable_.i41.i.i = getelementptr inbounds i8, ptr %ref.tmp11.i.i, i64 3
  %31 = load i8, ptr %retryable_.i41.i.i, align 1, !noalias !22
  %32 = and i8 %31, 1
  %retryable_8.i42.i.i = getelementptr inbounds i8, ptr %agg.result, i64 3
  store i8 %32, ptr %retryable_8.i42.i.i, align 1, !alias.scope !22
  store <4 x i8> zeroinitializer, ptr %ref.tmp11.i.i, align 8, !noalias !22
  %data_loss_.i43.i.i = getelementptr inbounds i8, ptr %ref.tmp11.i.i, i64 4
  %33 = load i8, ptr %data_loss_.i43.i.i, align 4, !noalias !22
  %34 = and i8 %33, 1
  %data_loss_11.i44.i.i = getelementptr inbounds i8, ptr %agg.result, i64 4
  store i8 %34, ptr %data_loss_11.i44.i.i, align 4, !alias.scope !22
  store i8 0, ptr %data_loss_.i43.i.i, align 4, !noalias !22
  %scope_.i45.i.i = getelementptr inbounds i8, ptr %ref.tmp11.i.i, i64 5
  %35 = load i8, ptr %scope_.i45.i.i, align 1, !noalias !22
  %scope_14.i46.i.i = getelementptr inbounds i8, ptr %agg.result, i64 5
  store i8 %35, ptr %scope_14.i46.i.i, align 1, !alias.scope !22
  store i8 0, ptr %scope_.i45.i.i, align 1, !noalias !22
  %state_.i47.i.i = getelementptr inbounds i8, ptr %ref.tmp11.i.i, i64 8
  %36 = load ptr, ptr %state_.i47.i.i, align 8, !noalias !22
  store ptr null, ptr %state_.i47.i.i, align 8, !noalias !22
  %37 = load ptr, ptr %state_.i.i5.i, align 8, !alias.scope !22
  store ptr %36, ptr %state_.i.i5.i, align 8, !alias.scope !22
  %tobool.not.i.i.i.i.i49.i.i = icmp eq ptr %37, null
  br i1 %tobool.not.i.i.i.i.i49.i.i, label %_ZN7rocksdb6StatusaSEOS0_.exit51.i.i, label %_ZNKSt14default_deleteIA_KcEclIS0_EENSt9enable_ifIXsr14is_convertibleIPA_T_PS1_EE5valueEvE4typeEPS5_.exit.i.i.i.i.i50.i.i

_ZNKSt14default_deleteIA_KcEclIS0_EENSt9enable_ifIXsr14is_convertibleIPA_T_PS1_EE5valueEvE4typeEPS5_.exit.i.i.i.i.i50.i.i: ; preds = %if.then.i36.i.i
  call void @_ZdaPv(ptr noundef nonnull %37) #19
  br label %_ZN7rocksdb6StatusaSEOS0_.exit51.i.i

_ZN7rocksdb6StatusaSEOS0_.exit51.i.i:             ; preds = %_ZNKSt14default_deleteIA_KcEclIS0_EENSt9enable_ifIXsr14is_convertibleIPA_T_PS1_EE5valueEvE4typeEPS5_.exit.i.i.i.i.i50.i.i, %if.then.i36.i.i, %invoke.cont13.i.i
  %state_.i52.i.i = getelementptr inbounds i8, ptr %ref.tmp11.i.i, i64 8
  %38 = load ptr, ptr %state_.i52.i.i, align 8, !noalias !22
  %cmp.not.i.i53.i.i = icmp eq ptr %38, null
  br i1 %cmp.not.i.i53.i.i, label %_ZN7rocksdbL15NewSharedObjectINS_23CompactionFilterFactoryEEENS_6StatusERKNS_13ConfigOptionsERKNSt7__cxx1112basic_stringIcSt11char_traitsIcESaIcEEERKSt13unordered_mapISB_SB_St4hashISB_ESt8equal_toISB_ESaISt4pairISC_SB_EEEPSt10shared_ptrIT_E.exit.i, label %_ZNKSt14default_deleteIA_KcEclIS0_EENSt9enable_ifIXsr14is_convertibleIPA_T_PS1_EE5valueEvE4typeEPS5_.exit.i.i54.i.i

_ZNKSt14default_deleteIA_KcEclIS0_EENSt9enable_ifIXsr14is_convertibleIPA_T_PS1_EE5valueEvE4typeEPS5_.exit.i.i54.i.i: ; preds = %_ZN7rocksdb6StatusaSEOS0_.exit51.i.i
  call void @_ZdaPv(ptr noundef nonnull %38) #19
  br label %_ZN7rocksdbL15NewSharedObjectINS_23CompactionFilterFactoryEEENS_6StatusERKNS_13ConfigOptionsERKNSt7__cxx1112basic_stringIcSt11char_traitsIcESaIcEEERKSt13unordered_mapISB_SB_St4hashISB_ESt8equal_toISB_ESaISt4pairISC_SB_EEEPSt10shared_ptrIT_E.exit.i

if.else16.i.i:                                    ; preds = %if.else.i
  %_M_element_count.i.i.i.i.i = getelementptr inbounds i8, ptr %opt_map.i, i64 24
  %39 = load i64, ptr %_M_element_count.i.i.i.i.i, align 8, !noalias !22
  %cmp.i.i.i.i = icmp eq i64 %39, 0
  br i1 %cmp.i.i.i.i, label %if.then18.i.i, label %if.else19.i.i

if.then18.i.i:                                    ; preds = %if.else16.i.i
  store ptr null, ptr %result, align 8, !noalias !22
  %_M_refcount3.i.i.i.i = getelementptr inbounds i8, ptr %result, i64 8
  %40 = load ptr, ptr %_M_refcount3.i.i.i.i, align 8, !noalias !22
  store ptr null, ptr %_M_refcount3.i.i.i.i, align 8, !noalias !22
  %cmp.not.i.i.i.i.i = icmp eq ptr %40, null
  br i1 %cmp.not.i.i.i.i.i, label %_ZNSt12__shared_ptrIN7rocksdb23CompactionFilterFactoryELN9__gnu_cxx12_Lock_policyE2EE5resetEv.exit.i.i, label %if.then.i.i.i.i.i

if.then.i.i.i.i.i:                                ; preds = %if.then18.i.i
  %_M_use_count.i.i.i.i.i.i = getelementptr inbounds i8, ptr %40, i64 8
  %41 = load atomic i64, ptr %_M_use_count.i.i.i.i.i.i acquire, align 8, !noalias !22
  %cmp.i.i.i.i.i.i = icmp eq i64 %41, 4294967297
  %42 = trunc i64 %41 to i32
  br i1 %cmp.i.i.i.i.i.i, label %if.then.i.i.i.i.i.i, label %if.end.i.i.i.i.i.i

if.then.i.i.i.i.i.i:                              ; preds = %if.then.i.i.i.i.i
  store i32 0, ptr %_M_use_count.i.i.i.i.i.i, align 8, !noalias !22
  %_M_weak_count.i.i.i.i.i.i = getelementptr inbounds i8, ptr %40, i64 12
  store i32 0, ptr %_M_weak_count.i.i.i.i.i.i, align 4, !noalias !22
  %vtable.i.i.i.i.i.i = load ptr, ptr %40, align 8, !noalias !22
  %vfn.i.i.i.i.i.i = getelementptr inbounds i8, ptr %vtable.i.i.i.i.i.i, i64 16
  %43 = load ptr, ptr %vfn.i.i.i.i.i.i, align 8, !noalias !22
  call void %43(ptr noundef nonnull align 8 dereferenceable(16) %40) #18, !noalias !22
  br label %if.end8.sink.split.i.i.i.i.i.i

if.end.i.i.i.i.i.i:                               ; preds = %if.then.i.i.i.i.i
  %44 = load i8, ptr @__libc_single_threaded, align 1, !noalias !22
  %tobool.i.not.i.i.i.i.i.i = icmp eq i8 %44, 0
  br i1 %tobool.i.not.i.i.i.i.i.i, label %if.else.i.i.i.i.i.i.i, label %if.then.i.i.i.i.i.i.i

if.then.i.i.i.i.i.i.i:                            ; preds = %if.end.i.i.i.i.i.i
  %add.i.i.i.i.i.i.i = add nsw i32 %42, -1
  store i32 %add.i.i.i.i.i.i.i, ptr %_M_use_count.i.i.i.i.i.i, align 4, !noalias !22
  br label %_ZN9__gnu_cxx27__exchange_and_add_dispatchEPii.exit.i.i.i.i.i.i

if.else.i.i.i.i.i.i.i:                            ; preds = %if.end.i.i.i.i.i.i
  %45 = atomicrmw volatile add ptr %_M_use_count.i.i.i.i.i.i, i32 -1 acq_rel, align 4, !noalias !22
  br label %_ZN9__gnu_cxx27__exchange_and_add_dispatchEPii.exit.i.i.i.i.i.i

_ZN9__gnu_cxx27__exchange_and_add_dispatchEPii.exit.i.i.i.i.i.i: ; preds = %if.else.i.i.i.i.i.i.i, %if.then.i.i.i.i.i.i.i
  %retval.i.0.i.i.i.i.i.i = phi i32 [ %42, %if.then.i.i.i.i.i.i.i ], [ %45, %if.else.i.i.i.i.i.i.i ]
  %cmp6.i.i.i.i.i.i = icmp eq i32 %retval.i.0.i.i.i.i.i.i, 1
  br i1 %cmp6.i.i.i.i.i.i, label %if.then7.i.i.i.i.i.i, label %_ZNSt12__shared_ptrIN7rocksdb23CompactionFilterFactoryELN9__gnu_cxx12_Lock_policyE2EE5resetEv.exit.i.i

if.then7.i.i.i.i.i.i:                             ; preds = %_ZN9__gnu_cxx27__exchange_and_add_dispatchEPii.exit.i.i.i.i.i.i
  %vtable.i.i.i.i.i.i.i.i = load ptr, ptr %40, align 8, !noalias !22
  %vfn.i.i.i.i.i.i.i.i = getelementptr inbounds i8, ptr %vtable.i.i.i.i.i.i.i.i, i64 16
  %46 = load ptr, ptr %vfn.i.i.i.i.i.i.i.i, align 8, !noalias !22
  call void %46(ptr noundef nonnull align 8 dereferenceable(16) %40) #18, !noalias !22
  %_M_weak_count.i.i.i.i.i.i.i.i = getelementptr inbounds i8, ptr %40, i64 12
  %47 = load i8, ptr @__libc_single_threaded, align 1, !noalias !22
  %tobool.i.not.i.i.i.i.i.i.i.i = icmp eq i8 %47, 0
  br i1 %tobool.i.not.i.i.i.i.i.i.i.i, label %if.else.i.i.i.i.i.i.i.i.i, label %if.then.i.i.i.i.i.i.i.i.i

if.then.i.i.i.i.i.i.i.i.i:                        ; preds = %if.then7.i.i.i.i.i.i
  %48 = load i32, ptr %_M_weak_count.i.i.i.i.i.i.i.i, align 4, !noalias !22
  %add.i.i.i.i.i.i.i.i.i = add nsw i32 %48, -1
  store i32 %add.i.i.i.i.i.i.i.i.i, ptr %_M_weak_count.i.i.i.i.i.i.i.i, align 4, !noalias !22
  br label %_ZN9__gnu_cxx27__exchange_and_add_dispatchEPii.exit.i.i.i.i.i.i.i.i

if.else.i.i.i.i.i.i.i.i.i:                        ; preds = %if.then7.i.i.i.i.i.i
  %49 = atomicrmw volatile add ptr %_M_weak_count.i.i.i.i.i.i.i.i, i32 -1 acq_rel, align 4, !noalias !22
  br label %_ZN9__gnu_cxx27__exchange_and_add_dispatchEPii.exit.i.i.i.i.i.i.i.i

_ZN9__gnu_cxx27__exchange_and_add_dispatchEPii.exit.i.i.i.i.i.i.i.i: ; preds = %if.else.i.i.i.i.i.i.i.i.i, %if.then.i.i.i.i.i.i.i.i.i
  %retval.i.0.i.i.i.i.i.i.i.i = phi i32 [ %48, %if.then.i.i.i.i.i.i.i.i.i ], [ %49, %if.else.i.i.i.i.i.i.i.i.i ]
  %cmp.i.i.i.i.i.i.i.i = icmp eq i32 %retval.i.0.i.i.i.i.i.i.i.i, 1
  br i1 %cmp.i.i.i.i.i.i.i.i, label %if.end8.sink.split.i.i.i.i.i.i, label %_ZNSt12__shared_ptrIN7rocksdb23CompactionFilterFactoryELN9__gnu_cxx12_Lock_policyE2EE5resetEv.exit.i.i

if.end8.sink.split.i.i.i.i.i.i:                   ; preds = %_ZN9__gnu_cxx27__exchange_and_add_dispatchEPii.exit.i.i.i.i.i.i.i.i, %if.then.i.i.i.i.i.i
  %vtable2.i.i.i.i.i.i.i.i = load ptr, ptr %40, align 8, !noalias !22
  %vfn3.i.i.i.i.i.i.i.i = getelementptr inbounds i8, ptr %vtable2.i.i.i.i.i.i.i.i, i64 24
  %50 = load ptr, ptr %vfn3.i.i.i.i.i.i.i.i, align 8, !noalias !22
  call void %50(ptr noundef nonnull align 8 dereferenceable(16) %40) #18, !noalias !22
  br label %_ZNSt12__shared_ptrIN7rocksdb23CompactionFilterFactoryELN9__gnu_cxx12_Lock_policyE2EE5resetEv.exit.i.i

_ZNSt12__shared_ptrIN7rocksdb23CompactionFilterFactoryELN9__gnu_cxx12_Lock_policyE2EE5resetEv.exit.i.i: ; preds = %if.end8.sink.split.i.i.i.i.i.i, %_ZN9__gnu_cxx27__exchange_and_add_dispatchEPii.exit.i.i.i.i.i.i.i.i, %_ZN9__gnu_cxx27__exchange_and_add_dispatchEPii.exit.i.i.i.i.i.i, %if.then18.i.i
  %state_.i.i56.i.i = getelementptr inbounds i8, ptr %agg.result, i64 8
  store ptr null, ptr %state_.i.i56.i.i, align 8, !alias.scope !23
  call void @llvm.memset.p0.i64(ptr noundef nonnull align 8 dereferenceable(6) %agg.result, i8 0, i64 6, i1 false), !alias.scope !23
  br label %_ZN7rocksdbL15NewSharedObjectINS_23CompactionFilterFactoryEEENS_6StatusERKNS_13ConfigOptionsERKNSt7__cxx1112basic_stringIcSt11char_traitsIcESaIcEEERKSt13unordered_mapISB_SB_St4hashISB_ESt8equal_toISB_ESaISt4pairISC_SB_EEEPSt10shared_ptrIT_E.exit.i

if.else19.i.i:                                    ; preds = %if.else16.i.i
  store ptr @.str.5, ptr %ref.tmp20.i.i, align 8, !noalias !22
  %size_.i.i.i = getelementptr inbounds i8, ptr %ref.tmp20.i.i, i64 8
  store i64 20, ptr %size_.i.i.i, align 8, !noalias !22
  store ptr @.str, ptr %ref.tmp21.i.i, align 8, !noalias !22
  %size_.i57.i.i = getelementptr inbounds i8, ptr %ref.tmp21.i.i, i64 8
  store i64 0, ptr %size_.i57.i.i, align 8, !noalias !22
  invoke void @_ZN7rocksdb6StatusC2ENS0_4CodeENS0_7SubCodeERKNS_5SliceES5_NS0_8SeverityE(ptr noundef nonnull align 8 dereferenceable(16) %agg.result, i8 noundef zeroext 3, i8 noundef zeroext 0, ptr noundef nonnull align 8 dereferenceable(16) %ref.tmp20.i.i, ptr noundef nonnull align 8 dereferenceable(16) %ref.tmp21.i.i, i8 noundef zeroext 0)
          to label %_ZN7rocksdbL15NewSharedObjectINS_23CompactionFilterFactoryEEENS_6StatusERKNS_13ConfigOptionsERKNSt7__cxx1112basic_stringIcSt11char_traitsIcESaIcEEERKSt13unordered_mapISB_SB_St4hashISB_ESt8equal_toISB_ESaISt4pairISC_SB_EEEPSt10shared_ptrIT_E.exit.i unwind label %lpad1.i

_ZN7rocksdbL15NewSharedObjectINS_23CompactionFilterFactoryEEENS_6StatusERKNS_13ConfigOptionsERKNSt7__cxx1112basic_stringIcSt11char_traitsIcESaIcEEERKSt13unordered_mapISB_SB_St4hashISB_ESt8equal_toISB_ESaISt4pairISC_SB_EEEPSt10shared_ptrIT_E.exit.i: ; preds = %if.else19.i.i, %_ZNSt12__shared_ptrIN7rocksdb23CompactionFilterFactoryELN9__gnu_cxx12_Lock_policyE2EE5resetEv.exit.i.i, %_ZNKSt14default_deleteIA_KcEclIS0_EENSt9enable_ifIXsr14is_convertibleIPA_T_PS1_EE5valueEvE4typeEPS5_.exit.i.i54.i.i, %_ZN7rocksdb6StatusaSEOS0_.exit51.i.i, %invoke.cont8.i.i, %_ZN7rocksdb6StatusaSEOS0_.exit25.i.i, %invoke.cont6.i.i
  call void @llvm.lifetime.end.p0(i64 16, ptr nonnull %ref.tmp.i.i), !noalias !16
  call void @llvm.lifetime.end.p0(i64 16, ptr nonnull %ref.tmp11.i.i), !noalias !16
  call void @llvm.lifetime.end.p0(i64 16, ptr nonnull %ref.tmp20.i.i), !noalias !16
  call void @llvm.lifetime.end.p0(i64 16, ptr nonnull %ref.tmp21.i.i), !noalias !16
  br label %cleanup.i

cleanup.i:                                        ; preds = %_ZN7rocksdbL15NewSharedObjectINS_23CompactionFilterFactoryEEENS_6StatusERKNS_13ConfigOptionsERKNSt7__cxx1112basic_stringIcSt11char_traitsIcESaIcEEERKSt13unordered_mapISB_SB_St4hashISB_ESt8equal_toISB_ESaISt4pairISC_SB_EEEPSt10shared_ptrIT_E.exit.i, %if.then.i.i.i, %if.then.i
  %state_.i20.i = getelementptr inbounds i8, ptr %status.i, i64 8
  %51 = load ptr, ptr %state_.i20.i, align 8, !noalias !16
  %cmp.not.i.i21.i = icmp eq ptr %51, null
  br i1 %cmp.not.i.i21.i, label %_ZN7rocksdb6StatusD2Ev.exit23.i, label %_ZNKSt14default_deleteIA_KcEclIS0_EENSt9enable_ifIXsr14is_convertibleIPA_T_PS1_EE5valueEvE4typeEPS5_.exit.i.i22.i

_ZNKSt14default_deleteIA_KcEclIS0_EENSt9enable_ifIXsr14is_convertibleIPA_T_PS1_EE5valueEvE4typeEPS5_.exit.i.i22.i: ; preds = %cleanup.i
  call void @_ZdaPv(ptr noundef nonnull %51) #19
  br label %_ZN7rocksdb6StatusD2Ev.exit23.i

_ZN7rocksdb6StatusD2Ev.exit23.i:                  ; preds = %_ZNKSt14default_deleteIA_KcEclIS0_EENSt9enable_ifIXsr14is_convertibleIPA_T_PS1_EE5valueEvE4typeEPS5_.exit.i.i22.i, %cleanup.i
  store ptr null, ptr %state_.i20.i, align 8, !noalias !16
  %52 = load ptr, ptr %_M_before_begin.i.i.i, align 8, !noalias !16
  %tobool.not3.i.i.i.i.i = icmp eq ptr %52, null
  br i1 %tobool.not3.i.i.i.i.i, label %_ZNSt10_HashtableINSt7__cxx1112basic_stringIcSt11char_traitsIcESaIcEEESt4pairIKS5_S5_ESaIS8_ENSt8__detail10_Select1stESt8equal_toIS5_ESt4hashIS5_ENSA_18_Mod_range_hashingENSA_20_Default_ranged_hashENSA_20_Prime_rehash_policyENSA_17_Hashtable_traitsILb1ELb0ELb1EEEE5clearEv.exit.i.i.i, label %while.body.i.i.i.i.i

while.body.i.i.i.i.i:                             ; preds = %_ZN7rocksdb6StatusD2Ev.exit23.i, %while.body.i.i.i.i.i
  %__n.addr.04.i.i.i.i.i = phi ptr [ %53, %while.body.i.i.i.i.i ], [ %52, %_ZN7rocksdb6StatusD2Ev.exit23.i ]
  %53 = load ptr, ptr %__n.addr.04.i.i.i.i.i, align 8
  %add.ptr.i.i.i.i.i.i = getelementptr inbounds i8, ptr %__n.addr.04.i.i.i.i.i, i64 8
  %second.i.i.i.i.i.i.i.i.i = getelementptr inbounds i8, ptr %__n.addr.04.i.i.i.i.i, i64 40
  call void @_ZNSt7__cxx1112basic_stringIcSt11char_traitsIcESaIcEED1Ev(ptr noundef nonnull align 8 dereferenceable(32) %second.i.i.i.i.i.i.i.i.i) #18
  call void @_ZNSt7__cxx1112basic_stringIcSt11char_traitsIcESaIcEED1Ev(ptr noundef nonnull align 8 dereferenceable(32) %add.ptr.i.i.i.i.i.i) #18
  call void @_ZdlPv(ptr noundef nonnull %__n.addr.04.i.i.i.i.i) #19
  %tobool.not.i.i.i.i.i = icmp eq ptr %53, null
  br i1 %tobool.not.i.i.i.i.i, label %_ZNSt10_HashtableINSt7__cxx1112basic_stringIcSt11char_traitsIcESaIcEEESt4pairIKS5_S5_ESaIS8_ENSt8__detail10_Select1stESt8equal_toIS5_ESt4hashIS5_ENSA_18_Mod_range_hashingENSA_20_Default_ranged_hashENSA_20_Prime_rehash_policyENSA_17_Hashtable_traitsILb1ELb0ELb1EEEE5clearEv.exit.i.i.i, label %while.body.i.i.i.i.i, !llvm.loop !14

_ZNSt10_HashtableINSt7__cxx1112basic_stringIcSt11char_traitsIcESaIcEEESt4pairIKS5_S5_ESaIS8_ENSt8__detail10_Select1stESt8equal_toIS5_ESt4hashIS5_ENSA_18_Mod_range_hashingENSA_20_Default_ranged_hashENSA_20_Prime_rehash_policyENSA_17_Hashtable_traitsILb1ELb0ELb1EEEE5clearEv.exit.i.i.i: ; preds = %while.body.i.i.i.i.i, %_ZN7rocksdb6StatusD2Ev.exit23.i
  %54 = load ptr, ptr %opt_map.i, align 8, !noalias !16
  %55 = load i64, ptr %_M_bucket_count.i.i.i, align 8, !noalias !16
  %mul.i.i.i.i = shl i64 %55, 3
  call void @llvm.memset.p0.i64(ptr align 8 %54, i8 0, i64 %mul.i.i.i.i, i1 false)
  call void @llvm.memset.p0.i64(ptr noundef nonnull align 8 dereferenceable(16) %_M_before_begin.i.i.i, i8 0, i64 16, i1 false), !noalias !16
  %56 = load ptr, ptr %opt_map.i, align 8, !noalias !16
  %cmp.i.i.i.i.i24.i = icmp eq ptr %_M_single_bucket.i.i.i, %56
  br i1 %cmp.i.i.i.i.i24.i, label %_ZN7rocksdbL16LoadSharedObjectINS_23CompactionFilterFactoryEEENS_6StatusERKNS_13ConfigOptionsERKNSt7__cxx1112basic_stringIcSt11char_traitsIcESaIcEEEPSt10shared_ptrIT_E.exit, label %if.end.i.i.i.i.i

if.end.i.i.i.i.i:                                 ; preds = %_ZNSt10_HashtableINSt7__cxx1112basic_stringIcSt11char_traitsIcESaIcEEESt4pairIKS5_S5_ESaIS8_ENSt8__detail10_Select1stESt8equal_toIS5_ESt4hashIS5_ENSA_18_Mod_range_hashingENSA_20_Default_ranged_hashENSA_20_Prime_rehash_policyENSA_17_Hashtable_traitsILb1ELb0ELb1EEEE5clearEv.exit.i.i.i
  call void @_ZdlPv(ptr noundef %56) #19
  br label %_ZN7rocksdbL16LoadSharedObjectINS_23CompactionFilterFactoryEEENS_6StatusERKNS_13ConfigOptionsERKNSt7__cxx1112basic_stringIcSt11char_traitsIcESaIcEEEPSt10shared_ptrIT_E.exit

ehcleanup.i:                                      ; preds = %_ZN7rocksdb6StatusD2Ev.exit.i, %lpad.i
  %.pn.i = phi { ptr, i32 } [ %eh.lpad-body.i, %_ZN7rocksdb6StatusD2Ev.exit.i ], [ %10, %lpad.i ]
  call void @_ZNSt13unordered_mapINSt7__cxx1112basic_stringIcSt11char_traitsIcESaIcEEES5_St4hashIS5_ESt8equal_toIS5_ESaISt4pairIKS5_S5_EEED2Ev(ptr noundef nonnull align 8 dereferenceable(56) %opt_map.i) #18
  call void @_ZNSt7__cxx1112basic_stringIcSt11char_traitsIcESaIcEED1Ev(ptr noundef nonnull align 8 dereferenceable(32) %id.i) #18
  resume { ptr, i32 } %.pn.i

_ZN7rocksdbL16LoadSharedObjectINS_23CompactionFilterFactoryEEENS_6StatusERKNS_13ConfigOptionsERKNSt7__cxx1112basic_stringIcSt11char_traitsIcESaIcEEEPSt10shared_ptrIT_E.exit: ; preds = %_ZNSt10_HashtableINSt7__cxx1112basic_stringIcSt11char_traitsIcESaIcEEESt4pairIKS5_S5_ESaIS8_ENSt8__detail10_Select1stESt8equal_toIS5_ESt4hashIS5_ENSA_18_Mod_range_hashingENSA_20_Default_ranged_hashENSA_20_Prime_rehash_policyENSA_17_Hashtable_traitsILb1ELb0ELb1EEEE5clearEv.exit.i.i.i, %if.end.i.i.i.i.i
  call void @_ZNSt7__cxx1112basic_stringIcSt11char_traitsIcESaIcEED1Ev(ptr noundef nonnull align 8 dereferenceable(32) %id.i) #18
  call void @llvm.lifetime.end.p0(i64 32, ptr nonnull %id.i)
  call void @llvm.lifetime.end.p0(i64 56, ptr nonnull %opt_map.i)
  call void @llvm.lifetime.end.p0(i64 16, ptr nonnull %status.i)
  ret void
}

; Function Attrs: noreturn nounwind uwtable
define linkonce_odr hidden void @__clang_call_terminate(ptr noundef %0) local_unnamed_addr #1 comdat {
  %2 = tail call ptr @__cxa_begin_catch(ptr %0) #18
  tail call void @_ZSt9terminatev() #20
  unreachable
}

declare ptr @__cxa_begin_catch(ptr) local_unnamed_addr

declare void @_ZSt9terminatev() local_unnamed_addr

; Function Attrs: nobuiltin nounwind
declare void @_ZdaPv(ptr noundef) local_unnamed_addr #2

declare void @__once_proxy() #3

; Function Attrs: noreturn
declare void @_ZSt20__throw_system_errori(i32 noundef) local_unnamed_addr #4

; Function Attrs: mustprogress nocallback nofree nosync nounwind speculatable willreturn memory(none)
declare nonnull ptr @llvm.threadlocal.address.p0(ptr nonnull) #5

; Function Attrs: mustprogress uwtable
define internal void @"_ZZNSt9once_flag18_Prepare_executionC1IZSt9call_onceIZN7rocksdb16CompactionFilter16CreateFromStringERKNS3_13ConfigOptionsERKNSt7__cxx1112basic_stringIcSt11char_traitsIcESaIcEEEPPKS4_E3$_0JEEvRS_OT_DpOT0_EUlvE_EERSL_ENUlvE_8__invokeEv"() #0 align 2 personality ptr @__gxx_personality_v0 {
entry:
  %__guard.i.i.i.i.i = alloca %struct._Guard, align 8
  %ref.tmp.i.i.i.i.i.i = alloca %"class.std::__cxx11::basic_string", align 8
  %ref.tmp1.i.i.i.i.i.i = alloca %"class.std::allocator", align 1
  %ref.tmp2.i.i.i.i.i.i = alloca %"class.std::function", align 8
  %ref.tmp.i.i.i.i.i = alloca %"class.std::__cxx11::basic_string", align 8
  %ref.tmp3.i.i.i.i.i = alloca %"class.std::allocator", align 1
  call void @llvm.lifetime.start.p0(i64 32, ptr nonnull %ref.tmp.i.i.i.i.i)
  call void @llvm.lifetime.start.p0(i64 1, ptr nonnull %ref.tmp3.i.i.i.i.i)
  %call.i.i.i.i.i = tail call noundef nonnull align 8 dereferenceable(16) ptr @_ZN7rocksdb13ObjectLibrary7DefaultEv()
  %0 = load ptr, ptr %call.i.i.i.i.i, align 8
  call void @_ZNSaIcEC1Ev(ptr noundef nonnull align 1 dereferenceable(1) %ref.tmp3.i.i.i.i.i) #18
  %call.i2.i.i.i.i.i = invoke noundef ptr @_ZNSt7__cxx1112basic_stringIcSt11char_traitsIcESaIcEE13_M_local_dataEv(ptr noundef nonnull align 8 dereferenceable(32) %ref.tmp.i.i.i.i.i)
          to label %call.i.noexc.i.i.i.i.i unwind label %lpad.i.i.i.i.i

call.i.noexc.i.i.i.i.i:                           ; preds = %entry
  invoke void @_ZNSt7__cxx1112basic_stringIcSt11char_traitsIcESaIcEE12_Alloc_hiderC1EPcRKS3_(ptr noundef nonnull align 8 dereferenceable(8) %ref.tmp.i.i.i.i.i, ptr noundef %call.i2.i.i.i.i.i, ptr noundef nonnull align 1 dereferenceable(1) %ref.tmp3.i.i.i.i.i)
          to label %.noexc.i.i.i.i.i unwind label %lpad.i.i.i.i.i

.noexc.i.i.i.i.i:                                 ; preds = %call.i.noexc.i.i.i.i.i
  call void @llvm.lifetime.start.p0(i64 8, ptr nonnull %__guard.i.i.i.i.i)
  %call.i.i.i.i.i.i = invoke noundef ptr @_ZNSt7__cxx1112basic_stringIcSt11char_traitsIcESaIcEE13_M_local_dataEv(ptr noundef nonnull align 8 dereferenceable(32) %ref.tmp.i.i.i.i.i)
          to label %if.end.i.i.i.i.i unwind label %terminate.lpad.i.i.i.i.i.i

terminate.lpad.i.i.i.i.i.i:                       ; preds = %.noexc.i.i.i.i.i
  %1 = landingpad { ptr, i32 }
          catch ptr null
  %2 = extractvalue { ptr, i32 } %1, 0
  call void @__clang_call_terminate(ptr %2) #20
  unreachable

if.end.i.i.i.i.i:                                 ; preds = %.noexc.i.i.i.i.i
  store ptr %ref.tmp.i.i.i.i.i, ptr %__guard.i.i.i.i.i, align 8
  %call4.i.i.i.i.i = invoke noundef ptr @_ZNKSt7__cxx1112basic_stringIcSt11char_traitsIcESaIcEE7_M_dataEv(ptr noundef nonnull align 8 dereferenceable(32) %ref.tmp.i.i.i.i.i)
          to label %invoke.cont.i2.i.i.i.i unwind label %lpad.i1.i.i.i.i

invoke.cont.i2.i.i.i.i:                           ; preds = %if.end.i.i.i.i.i
  call void @_ZNSt7__cxx1112basic_stringIcSt11char_traitsIcESaIcEE13_S_copy_charsEPcPKcS7_(ptr noundef %call4.i.i.i.i.i, ptr noundef nonnull @.str, ptr noundef nonnull @.str) #18
  store ptr null, ptr %__guard.i.i.i.i.i, align 8
  invoke void @_ZNSt7__cxx1112basic_stringIcSt11char_traitsIcESaIcEE13_M_set_lengthEm(ptr noundef nonnull align 8 dereferenceable(32) %ref.tmp.i.i.i.i.i, i64 noundef 0)
          to label %invoke.cont.i.i.i.i.i unwind label %lpad.i1.i.i.i.i

lpad.i1.i.i.i.i:                                  ; preds = %invoke.cont.i2.i.i.i.i, %if.end.i.i.i.i.i
  %3 = landingpad { ptr, i32 }
          cleanup
  call void @_ZZNSt7__cxx1112basic_stringIcSt11char_traitsIcESaIcEE12_M_constructIPKcEEvT_S8_St20forward_iterator_tagEN6_GuardD2Ev(ptr noundef nonnull align 8 dereferenceable(8) %__guard.i.i.i.i.i) #18
  call void @_ZNSaIcED2Ev(ptr noundef nonnull align 1 dereferenceable(1) %ref.tmp.i.i.i.i.i) #18
  br label %ehcleanup.i.i.i.i.i

invoke.cont.i.i.i.i.i:                            ; preds = %invoke.cont.i2.i.i.i.i
  call void @llvm.lifetime.end.p0(i64 8, ptr nonnull %__guard.i.i.i.i.i)
  call void @llvm.lifetime.start.p0(i64 32, ptr nonnull %ref.tmp.i.i.i.i.i.i)
  call void @llvm.lifetime.start.p0(i64 1, ptr nonnull %ref.tmp1.i.i.i.i.i.i)
  call void @llvm.lifetime.start.p0(i64 32, ptr nonnull %ref.tmp2.i.i.i.i.i.i)
  call void @_ZNSaIcEC1Ev(ptr noundef nonnull align 1 dereferenceable(1) %ref.tmp1.i.i.i.i.i.i) #18
  %call.i2.i.i.i.i.i.i = invoke noundef ptr @_ZNSt7__cxx1112basic_stringIcSt11char_traitsIcESaIcEE13_M_local_dataEv(ptr noundef nonnull align 8 dereferenceable(32) %ref.tmp.i.i.i.i.i.i)
          to label %call.i.noexc.i.i.i.i.i.i unwind label %lpad.i3.i.i.i.i.i

call.i.noexc.i.i.i.i.i.i:                         ; preds = %invoke.cont.i.i.i.i.i
  invoke void @_ZNSt7__cxx1112basic_stringIcSt11char_traitsIcESaIcEE12_Alloc_hiderC1EPcRKS3_(ptr noundef nonnull align 8 dereferenceable(8) %ref.tmp.i.i.i.i.i.i, ptr noundef %call.i2.i.i.i.i.i.i, ptr noundef nonnull align 1 dereferenceable(1) %ref.tmp1.i.i.i.i.i.i)
          to label %.noexc.i.i.i.i.i.i unwind label %lpad.i3.i.i.i.i.i

.noexc.i.i.i.i.i.i:                               ; preds = %call.i.noexc.i.i.i.i.i.i
  invoke void @_ZNSt7__cxx1112basic_stringIcSt11char_traitsIcESaIcEE12_M_constructIPKcEEvT_S8_St20forward_iterator_tag(ptr noundef nonnull align 8 dereferenceable(32) %ref.tmp.i.i.i.i.i.i, ptr noundef nonnull @.str.3, ptr noundef nonnull getelementptr inbounds ([33 x i8], ptr @.str.3, i64 0, i64 32))
          to label %invoke.cont.i.i.i.i.i.i unwind label %lpad.i.i.i.i.i.i.i

lpad.i.i.i.i.i.i.i:                               ; preds = %.noexc.i.i.i.i.i.i
  %4 = landingpad { ptr, i32 }
          cleanup
  call void @_ZNSaIcED2Ev(ptr noundef nonnull align 1 dereferenceable(1) %ref.tmp.i.i.i.i.i.i) #18
  br label %ehcleanup.i.i.i.i.i.i

invoke.cont.i.i.i.i.i.i:                          ; preds = %.noexc.i.i.i.i.i.i
  %_M_manager.i.i.i.i.i.i.i.i = getelementptr inbounds i8, ptr %ref.tmp2.i.i.i.i.i.i, i64 16
  %_M_invoker.i.i.i.i.i.i.i = getelementptr inbounds i8, ptr %ref.tmp2.i.i.i.i.i.i, i64 24
  call void @llvm.memset.p0.i64(ptr noundef nonnull align 8 dereferenceable(16) %ref.tmp2.i.i.i.i.i.i, i8 0, i64 16, i1 false)
  store ptr @"_ZNSt17_Function_handlerIFPN7rocksdb16CompactionFilterERKNSt7__cxx1112basic_stringIcSt11char_traitsIcESaIcEEEPSt10unique_ptrIS1_St14default_deleteIS1_EEPS8_EZNS0_L32RegisterBuiltinCompactionFiltersERNS0_13ObjectLibraryESA_E3$_0E9_M_invokeERKSt9_Any_dataSA_OSF_OSG_", ptr %_M_invoker.i.i.i.i.i.i.i, align 8
  store ptr @"_ZNSt17_Function_handlerIFPN7rocksdb16CompactionFilterERKNSt7__cxx1112basic_stringIcSt11char_traitsIcESaIcEEEPSt10unique_ptrIS1_St14default_deleteIS1_EEPS8_EZNS0_L32RegisterBuiltinCompactionFiltersERNS0_13ObjectLibraryESA_E3$_0E10_M_managerERSt9_Any_dataRKSM_St18_Manager_operation", ptr %_M_manager.i.i.i.i.i.i.i.i, align 8
  %call6.i.i.i.i.i.i = invoke noundef nonnull align 8 dereferenceable(32) ptr @_ZN7rocksdb13ObjectLibrary10AddFactoryINS_16CompactionFilterEEERKSt8functionIFPT_RKNSt7__cxx1112basic_stringIcSt11char_traitsIcESaIcEEEPSt10unique_ptrIS4_St14default_deleteIS4_EEPSB_EESD_SN_(ptr noundef nonnull align 8 dereferenceable(128) %0, ptr noundef nonnull align 8 dereferenceable(32) %ref.tmp.i.i.i.i.i.i, ptr noundef nonnull align 8 dereferenceable(32) %ref.tmp2.i.i.i.i.i.i)
          to label %invoke.cont5.i.i.i.i.i.i unwind label %lpad4.i.i.i.i.i.i

invoke.cont5.i.i.i.i.i.i:                         ; preds = %invoke.cont.i.i.i.i.i.i
  %5 = load ptr, ptr %_M_manager.i.i.i.i.i.i.i.i, align 8
  %tobool.not.i.i.i.i.i.i.i.i = icmp eq ptr %5, null
  br i1 %tobool.not.i.i.i.i.i.i.i.i, label %"_ZZNSt9once_flag18_Prepare_executionC1IZSt9call_onceIZN7rocksdb16CompactionFilter16CreateFromStringERKNS3_13ConfigOptionsERKNSt7__cxx1112basic_stringIcSt11char_traitsIcESaIcEEEPPKS4_E3$_0JEEvRS_OT_DpOT0_EUlvE_EERSL_ENKUlvE_clEv.exit", label %if.then.i.i.i.i.i.i.i.i

if.then.i.i.i.i.i.i.i.i:                          ; preds = %invoke.cont5.i.i.i.i.i.i
  %call.i.i4.i.i.i.i.i.i = invoke noundef zeroext i1 %5(ptr noundef nonnull align 8 dereferenceable(16) %ref.tmp2.i.i.i.i.i.i, ptr noundef nonnull align 8 dereferenceable(16) %ref.tmp2.i.i.i.i.i.i, i32 noundef 3)
          to label %"_ZZNSt9once_flag18_Prepare_executionC1IZSt9call_onceIZN7rocksdb16CompactionFilter16CreateFromStringERKNS3_13ConfigOptionsERKNSt7__cxx1112basic_stringIcSt11char_traitsIcESaIcEEEPPKS4_E3$_0JEEvRS_OT_DpOT0_EUlvE_EERSL_ENKUlvE_clEv.exit" unwind label %terminate.lpad.i.i.i.i.i.i.i.i

terminate.lpad.i.i.i.i.i.i.i.i:                   ; preds = %if.then.i.i.i.i.i.i.i.i
  %6 = landingpad { ptr, i32 }
          catch ptr null
  %7 = extractvalue { ptr, i32 } %6, 0
  call void @__clang_call_terminate(ptr %7) #20
  unreachable

lpad.i3.i.i.i.i.i:                                ; preds = %call.i.noexc.i.i.i.i.i.i, %invoke.cont.i.i.i.i.i
  %8 = landingpad { ptr, i32 }
          cleanup
  br label %ehcleanup.i.i.i.i.i.i

lpad4.i.i.i.i.i.i:                                ; preds = %invoke.cont.i.i.i.i.i.i
  %9 = landingpad { ptr, i32 }
          cleanup
  %10 = load ptr, ptr %_M_manager.i.i.i.i.i.i.i.i, align 8
  %tobool.not.i.i6.i.i.i.i.i.i = icmp eq ptr %10, null
  br i1 %tobool.not.i.i6.i.i.i.i.i.i, label %_ZNSt8functionIFPN7rocksdb16CompactionFilterERKNSt7__cxx1112basic_stringIcSt11char_traitsIcESaIcEEEPSt10unique_ptrIS1_St14default_deleteIS1_EEPS8_EED2Ev.exit10.i.i.i.i.i.i, label %if.then.i.i7.i.i.i.i.i.i

if.then.i.i7.i.i.i.i.i.i:                         ; preds = %lpad4.i.i.i.i.i.i
  %call.i.i8.i.i.i.i.i.i = invoke noundef zeroext i1 %10(ptr noundef nonnull align 8 dereferenceable(16) %ref.tmp2.i.i.i.i.i.i, ptr noundef nonnull align 8 dereferenceable(16) %ref.tmp2.i.i.i.i.i.i, i32 noundef 3)
          to label %_ZNSt8functionIFPN7rocksdb16CompactionFilterERKNSt7__cxx1112basic_stringIcSt11char_traitsIcESaIcEEEPSt10unique_ptrIS1_St14default_deleteIS1_EEPS8_EED2Ev.exit10.i.i.i.i.i.i unwind label %terminate.lpad.i.i9.i.i.i.i.i.i

terminate.lpad.i.i9.i.i.i.i.i.i:                  ; preds = %if.then.i.i7.i.i.i.i.i.i
  %11 = landingpad { ptr, i32 }
          catch ptr null
  %12 = extractvalue { ptr, i32 } %11, 0
  call void @__clang_call_terminate(ptr %12) #20
  unreachable

_ZNSt8functionIFPN7rocksdb16CompactionFilterERKNSt7__cxx1112basic_stringIcSt11char_traitsIcESaIcEEEPSt10unique_ptrIS1_St14default_deleteIS1_EEPS8_EED2Ev.exit10.i.i.i.i.i.i: ; preds = %if.then.i.i7.i.i.i.i.i.i, %lpad4.i.i.i.i.i.i
  call void @_ZNSt7__cxx1112basic_stringIcSt11char_traitsIcESaIcEED1Ev(ptr noundef nonnull align 8 dereferenceable(32) %ref.tmp.i.i.i.i.i.i) #18
  br label %ehcleanup.i.i.i.i.i.i

ehcleanup.i.i.i.i.i.i:                            ; preds = %_ZNSt8functionIFPN7rocksdb16CompactionFilterERKNSt7__cxx1112basic_stringIcSt11char_traitsIcESaIcEEEPSt10unique_ptrIS1_St14default_deleteIS1_EEPS8_EED2Ev.exit10.i.i.i.i.i.i, %lpad.i3.i.i.i.i.i, %lpad.i.i.i.i.i.i.i
  %.pn.i.i.i.i.i.i = phi { ptr, i32 } [ %9, %_ZNSt8functionIFPN7rocksdb16CompactionFilterERKNSt7__cxx1112basic_stringIcSt11char_traitsIcESaIcEEEPSt10unique_ptrIS1_St14default_deleteIS1_EEPS8_EED2Ev.exit10.i.i.i.i.i.i ], [ %8, %lpad.i3.i.i.i.i.i ], [ %4, %lpad.i.i.i.i.i.i.i ]
  call void @_ZNSaIcED1Ev(ptr noundef nonnull align 1 dereferenceable(1) %ref.tmp1.i.i.i.i.i.i) #18
  call void @_ZNSt7__cxx1112basic_stringIcSt11char_traitsIcESaIcEED1Ev(ptr noundef nonnull align 8 dereferenceable(32) %ref.tmp.i.i.i.i.i) #18
  br label %ehcleanup.i.i.i.i.i

lpad.i.i.i.i.i:                                   ; preds = %call.i.noexc.i.i.i.i.i, %entry
  %13 = landingpad { ptr, i32 }
          cleanup
  br label %ehcleanup.i.i.i.i.i

ehcleanup.i.i.i.i.i:                              ; preds = %lpad.i.i.i.i.i, %ehcleanup.i.i.i.i.i.i, %lpad.i1.i.i.i.i
  %.pn.i.i.i.i.i = phi { ptr, i32 } [ %.pn.i.i.i.i.i.i, %ehcleanup.i.i.i.i.i.i ], [ %13, %lpad.i.i.i.i.i ], [ %3, %lpad.i1.i.i.i.i ]
  call void @_ZNSaIcED1Ev(ptr noundef nonnull align 1 dereferenceable(1) %ref.tmp3.i.i.i.i.i) #18
  resume { ptr, i32 } %.pn.i.i.i.i.i

"_ZZNSt9once_flag18_Prepare_executionC1IZSt9call_onceIZN7rocksdb16CompactionFilter16CreateFromStringERKNS3_13ConfigOptionsERKNSt7__cxx1112basic_stringIcSt11char_traitsIcESaIcEEEPPKS4_E3$_0JEEvRS_OT_DpOT0_EUlvE_EERSL_ENKUlvE_clEv.exit": ; preds = %invoke.cont5.i.i.i.i.i.i, %if.then.i.i.i.i.i.i.i.i
  call void @_ZNSt7__cxx1112basic_stringIcSt11char_traitsIcESaIcEED1Ev(ptr noundef nonnull align 8 dereferenceable(32) %ref.tmp.i.i.i.i.i.i) #18
  call void @_ZNSaIcED1Ev(ptr noundef nonnull align 1 dereferenceable(1) %ref.tmp1.i.i.i.i.i.i) #18
  call void @llvm.lifetime.end.p0(i64 32, ptr nonnull %ref.tmp.i.i.i.i.i.i)
  call void @llvm.lifetime.end.p0(i64 1, ptr nonnull %ref.tmp1.i.i.i.i.i.i)
  call void @llvm.lifetime.end.p0(i64 32, ptr nonnull %ref.tmp2.i.i.i.i.i.i)
  call void @_ZNSt7__cxx1112basic_stringIcSt11char_traitsIcESaIcEED1Ev(ptr noundef nonnull align 8 dereferenceable(32) %ref.tmp.i.i.i.i.i) #18
  call void @_ZNSaIcED1Ev(ptr noundef nonnull align 1 dereferenceable(1) %ref.tmp3.i.i.i.i.i) #18
  call void @llvm.lifetime.end.p0(i64 32, ptr nonnull %ref.tmp.i.i.i.i.i)
  call void @llvm.lifetime.end.p0(i64 1, ptr nonnull %ref.tmp3.i.i.i.i.i)
  ret void
}

declare noundef nonnull align 8 dereferenceable(16) ptr @_ZN7rocksdb13ObjectLibrary7DefaultEv() local_unnamed_addr #3

; Function Attrs: nounwind
declare void @_ZNSaIcEC1Ev(ptr noundef nonnull align 1 dereferenceable(1)) unnamed_addr #6

; Function Attrs: nounwind
declare void @_ZNSt7__cxx1112basic_stringIcSt11char_traitsIcESaIcEED1Ev(ptr noundef nonnull align 8 dereferenceable(32)) unnamed_addr #6

; Function Attrs: nounwind
declare void @_ZNSaIcED1Ev(ptr noundef nonnull align 1 dereferenceable(1)) unnamed_addr #6

; Function Attrs: mustprogress uwtable
define linkonce_odr noundef nonnull align 8 dereferenceable(32) ptr @_ZN7rocksdb13ObjectLibrary10AddFactoryINS_16CompactionFilterEEERKSt8functionIFPT_RKNSt7__cxx1112basic_stringIcSt11char_traitsIcESaIcEEEPSt10unique_ptrIS4_St14default_deleteIS4_EEPSB_EESD_SN_(ptr noundef nonnull align 8 dereferenceable(128) %this, ptr noundef nonnull align 8 dereferenceable(32) %name, ptr noundef nonnull align 8 dereferenceable(32) %func) local_unnamed_addr #0 comdat align 2 personality ptr @__gxx_personality_v0 {
entry:
  %entry2 = alloca %"class.std::unique_ptr.15", align 8
  %agg.tmp = alloca %"class.std::function", align 8
  %call = tail call noalias noundef nonnull dereferenceable(48) ptr @_Znwm(i64 noundef 48) #21
  %call3 = invoke noalias noundef nonnull dereferenceable(112) ptr @_Znwm(i64 noundef 112) #21
          to label %invoke.cont unwind label %lpad

invoke.cont:                                      ; preds = %entry
  store ptr getelementptr inbounds ({ [6 x ptr] }, ptr @_ZTVN7rocksdb13ObjectLibrary12PatternEntryE, i64 0, inrange i32 0, i64 2), ptr %call3, align 8
  %name_.i = getelementptr inbounds i8, ptr %call3, i64 8
  invoke void @_ZNSt7__cxx1112basic_stringIcSt11char_traitsIcESaIcEEC1ERKS4_(ptr noundef nonnull align 8 dereferenceable(32) %name_.i, ptr noundef nonnull align 8 dereferenceable(32) %name)
          to label %invoke.cont5 unwind label %lpad4

invoke.cont5:                                     ; preds = %invoke.cont
  %names_.i = getelementptr inbounds i8, ptr %call3, i64 48
  tail call void @llvm.memset.p0.i64(ptr noundef nonnull align 8 dereferenceable(24) %names_.i, i8 0, i64 24, i1 false)
  %optional_.i = getelementptr inbounds i8, ptr %call3, i64 72
  store i8 1, ptr %optional_.i, align 8
  %slength_.i = getelementptr inbounds i8, ptr %call3, i64 80
  tail call void @llvm.memset.p0.i64(ptr noundef nonnull align 8 dereferenceable(32) %slength_.i, i8 0, i64 32, i1 false)
  %call.i = tail call noundef i64 @_ZNKSt7__cxx1112basic_stringIcSt11char_traitsIcESaIcEE4sizeEv(ptr noundef nonnull align 8 dereferenceable(32) %name_.i) #18
  %nlength_.i = getelementptr inbounds i8, ptr %call3, i64 40
  store i64 %call.i, ptr %nlength_.i, align 8
  %_M_manager.i.i = getelementptr inbounds i8, ptr %agg.tmp, i64 16
  %_M_invoker.i = getelementptr inbounds i8, ptr %agg.tmp, i64 24
  %_M_manager.i.i.i = getelementptr inbounds i8, ptr %func, i64 16
  call void @llvm.memset.p0.i64(ptr noundef nonnull align 8 dereferenceable(32) %agg.tmp, i8 0, i64 32, i1 false)
  %0 = load ptr, ptr %_M_manager.i.i.i, align 8
  %tobool.not.i.i.not.i = icmp eq ptr %0, null
  br i1 %tobool.not.i.i.not.i, label %invoke.cont6.thread, label %if.then.i

invoke.cont6.thread:                              ; preds = %invoke.cont5
  store ptr getelementptr inbounds ({ [6 x ptr] }, ptr @_ZTVN7rocksdb13ObjectLibrary12FactoryEntryINS_16CompactionFilterEEE, i64 0, inrange i32 0, i64 2), ptr %call, align 8
  %entry_.i20 = getelementptr inbounds i8, ptr %call, i64 8
  store ptr %call3, ptr %entry_.i20, align 8
  %factory_.i21 = getelementptr inbounds i8, ptr %call, i64 16
  tail call void @llvm.memset.p0.i64(ptr noundef nonnull align 8 dereferenceable(32) %factory_.i21, i8 0, i64 32, i1 false)
  br label %_ZNSt8functionIFPN7rocksdb16CompactionFilterERKNSt7__cxx1112basic_stringIcSt11char_traitsIcESaIcEEEPSt10unique_ptrIS1_St14default_deleteIS1_EEPS8_EED2Ev.exit

if.then.i:                                        ; preds = %invoke.cont5
  %call3.i = invoke noundef zeroext i1 %0(ptr noundef nonnull align 8 dereferenceable(16) %agg.tmp, ptr noundef nonnull align 8 dereferenceable(16) %func, i32 noundef 2)
          to label %invoke.cont6 unwind label %lpad.i

lpad.i:                                           ; preds = %if.then.i
  %1 = landingpad { ptr, i32 }
          cleanup
  %2 = load ptr, ptr %_M_manager.i.i, align 8
  %tobool.not.i.i = icmp eq ptr %2, null
  br i1 %tobool.not.i.i, label %cleanup.action, label %if.then.i.i

if.then.i.i:                                      ; preds = %lpad.i
  %call.i.i = invoke noundef zeroext i1 %2(ptr noundef nonnull align 8 dereferenceable(16) %agg.tmp, ptr noundef nonnull align 8 dereferenceable(16) %agg.tmp, i32 noundef 3)
          to label %cleanup.action unwind label %terminate.lpad.i.i

terminate.lpad.i.i:                               ; preds = %if.then.i.i
  %3 = landingpad { ptr, i32 }
          catch ptr null
  %4 = extractvalue { ptr, i32 } %3, 0
  call void @__clang_call_terminate(ptr %4) #20
  unreachable

invoke.cont6:                                     ; preds = %if.then.i
  %_M_invoker4.i = getelementptr inbounds i8, ptr %func, i64 24
  %5 = load ptr, ptr %_M_invoker4.i, align 8
  store ptr %5, ptr %_M_invoker.i, align 8
  %6 = load ptr, ptr %_M_manager.i.i.i, align 8
  store ptr %6, ptr %_M_manager.i.i, align 8
  store ptr getelementptr inbounds ({ [6 x ptr] }, ptr @_ZTVN7rocksdb13ObjectLibrary12FactoryEntryINS_16CompactionFilterEEE, i64 0, inrange i32 0, i64 2), ptr %call, align 8
  %entry_.i = getelementptr inbounds i8, ptr %call, i64 8
  store ptr %call3, ptr %entry_.i, align 8
  %factory_.i = getelementptr inbounds i8, ptr %call, i64 16
  %_M_invoker.i.i = getelementptr inbounds i8, ptr %call, i64 40
  call void @llvm.memset.p0.i64(ptr noundef nonnull align 8 dereferenceable(24) %factory_.i, i8 0, i64 24, i1 false)
  store ptr %5, ptr %_M_invoker.i.i, align 8
  %tobool.not.i.i.not.i.i = icmp eq ptr %6, null
  br i1 %tobool.not.i.i.not.i.i, label %_ZNSt8functionIFPN7rocksdb16CompactionFilterERKNSt7__cxx1112basic_stringIcSt11char_traitsIcESaIcEEEPSt10unique_ptrIS1_St14default_deleteIS1_EEPS8_EED2Ev.exit, label %_ZN7rocksdb13ObjectLibrary12FactoryEntryINS_16CompactionFilterEEC2EPNS0_5EntryESt8functionIFPS2_RKNSt7__cxx1112basic_stringIcSt11char_traitsIcESaIcEEEPSt10unique_ptrIS2_St14default_deleteIS2_EEPSD_EE.exit

_ZN7rocksdb13ObjectLibrary12FactoryEntryINS_16CompactionFilterEEC2EPNS0_5EntryESt8functionIFPS2_RKNSt7__cxx1112basic_stringIcSt11char_traitsIcESaIcEEEPSt10unique_ptrIS2_St14default_deleteIS2_EEPSD_EE.exit: ; preds = %invoke.cont6
  %_M_manager.i.i.i6 = getelementptr inbounds i8, ptr %call, i64 32
  call void @llvm.memcpy.p0.p0.i64(ptr noundef nonnull align 8 dereferenceable(16) %factory_.i, ptr noundef nonnull align 8 dereferenceable(16) %agg.tmp, i64 16, i1 false)
  store ptr %6, ptr %_M_manager.i.i.i6, align 8
  call void @llvm.memset.p0.i64(ptr noundef nonnull align 8 dereferenceable(16) %_M_manager.i.i, i8 0, i64 16, i1 false)
  br label %_ZNSt8functionIFPN7rocksdb16CompactionFilterERKNSt7__cxx1112basic_stringIcSt11char_traitsIcESaIcEEEPSt10unique_ptrIS1_St14default_deleteIS1_EEPS8_EED2Ev.exit

_ZNSt8functionIFPN7rocksdb16CompactionFilterERKNSt7__cxx1112basic_stringIcSt11char_traitsIcESaIcEEEPSt10unique_ptrIS1_St14default_deleteIS1_EEPS8_EED2Ev.exit: ; preds = %invoke.cont6.thread, %invoke.cont6, %_ZN7rocksdb13ObjectLibrary12FactoryEntryINS_16CompactionFilterEEC2EPNS0_5EntryESt8functionIFPS2_RKNSt7__cxx1112basic_stringIcSt11char_traitsIcESaIcEEEPSt10unique_ptrIS2_St14default_deleteIS2_EEPSD_EE.exit
  store ptr %call, ptr %entry2, align 8
  invoke void @_ZN7rocksdb13ObjectLibrary15AddFactoryEntryEPKcOSt10unique_ptrINS0_5EntryESt14default_deleteIS4_EE(ptr noundef nonnull align 8 dereferenceable(128) %this, ptr noundef nonnull @.str.2, ptr noundef nonnull align 8 dereferenceable(8) %entry2)
          to label %invoke.cont12 unwind label %lpad9

invoke.cont12:                                    ; preds = %_ZNSt8functionIFPN7rocksdb16CompactionFilterERKNSt7__cxx1112basic_stringIcSt11char_traitsIcESaIcEEEPSt10unique_ptrIS1_St14default_deleteIS1_EEPS8_EED2Ev.exit
  %7 = load ptr, ptr %entry2, align 8
  %cmp.not.i = icmp eq ptr %7, null
  br i1 %cmp.not.i, label %_ZNSt10unique_ptrIN7rocksdb13ObjectLibrary5EntryESt14default_deleteIS2_EED2Ev.exit, label %_ZNKSt14default_deleteIN7rocksdb13ObjectLibrary5EntryEEclEPS2_.exit.i

_ZNKSt14default_deleteIN7rocksdb13ObjectLibrary5EntryEEclEPS2_.exit.i: ; preds = %invoke.cont12
  %vtable.i.i = load ptr, ptr %7, align 8
  %vfn.i.i = getelementptr inbounds i8, ptr %vtable.i.i, i64 8
  %8 = load ptr, ptr %vfn.i.i, align 8
  call void %8(ptr noundef nonnull align 8 dereferenceable(8) %7) #18
  br label %_ZNSt10unique_ptrIN7rocksdb13ObjectLibrary5EntryESt14default_deleteIS2_EED2Ev.exit

_ZNSt10unique_ptrIN7rocksdb13ObjectLibrary5EntryESt14default_deleteIS2_EED2Ev.exit: ; preds = %invoke.cont12, %_ZNKSt14default_deleteIN7rocksdb13ObjectLibrary5EntryEEclEPS2_.exit.i
  ret ptr %func

lpad:                                             ; preds = %entry
  %9 = landingpad { ptr, i32 }
          cleanup
  br label %cleanup.action

lpad4:                                            ; preds = %invoke.cont
  %10 = landingpad { ptr, i32 }
          cleanup
  tail call void @_ZdlPv(ptr noundef nonnull %call3) #19
  br label %cleanup.action

cleanup.action:                                   ; preds = %lpad, %if.then.i.i, %lpad.i, %lpad4
  %.pn = phi { ptr, i32 } [ %10, %lpad4 ], [ %9, %lpad ], [ %1, %if.then.i.i ], [ %1, %lpad.i ]
  call void @_ZdlPv(ptr noundef nonnull %call) #19
  br label %eh.resume

lpad9:                                            ; preds = %_ZNSt8functionIFPN7rocksdb16CompactionFilterERKNSt7__cxx1112basic_stringIcSt11char_traitsIcESaIcEEEPSt10unique_ptrIS1_St14default_deleteIS1_EEPS8_EED2Ev.exit
  %11 = landingpad { ptr, i32 }
          cleanup
  %12 = load ptr, ptr %entry2, align 8
  %cmp.not.i14 = icmp eq ptr %12, null
  br i1 %cmp.not.i14, label %eh.resume, label %_ZNKSt14default_deleteIN7rocksdb13ObjectLibrary5EntryEEclEPS2_.exit.i15

_ZNKSt14default_deleteIN7rocksdb13ObjectLibrary5EntryEEclEPS2_.exit.i15: ; preds = %lpad9
  %vtable.i.i16 = load ptr, ptr %12, align 8
  %vfn.i.i17 = getelementptr inbounds i8, ptr %vtable.i.i16, i64 8
  %13 = load ptr, ptr %vfn.i.i17, align 8
  call void %13(ptr noundef nonnull align 8 dereferenceable(8) %12) #18
  br label %eh.resume

eh.resume:                                        ; preds = %_ZNKSt14default_deleteIN7rocksdb13ObjectLibrary5EntryEEclEPS2_.exit.i15, %lpad9, %cleanup.action
  %.pn3 = phi { ptr, i32 } [ %.pn, %cleanup.action ], [ %11, %lpad9 ], [ %11, %_ZNKSt14default_deleteIN7rocksdb13ObjectLibrary5EntryEEclEPS2_.exit.i15 ]
  resume { ptr, i32 } %.pn3
}

; Function Attrs: nobuiltin allocsize(0)
declare noundef nonnull ptr @_Znwm(i64 noundef) local_unnamed_addr #7

; Function Attrs: nobuiltin nounwind
declare void @_ZdlPv(ptr noundef) local_unnamed_addr #2

; Function Attrs: mustprogress uwtable
define linkonce_odr void @_ZN7rocksdb13ObjectLibrary15AddFactoryEntryEPKcOSt10unique_ptrINS0_5EntryESt14default_deleteIS4_EE(ptr noundef nonnull align 8 dereferenceable(128) %this, ptr noundef %type, ptr noundef nonnull align 8 dereferenceable(8) %entry1) local_unnamed_addr #0 comdat align 2 personality ptr @__gxx_personality_v0 {
entry:
  %ref.tmp = alloca %"class.std::__cxx11::basic_string", align 8
  %ref.tmp3 = alloca %"class.std::allocator", align 1
  %call1.i.i.i.i = tail call noundef i32 @pthread_mutex_lock(ptr noundef nonnull %this) #18
  %tobool.not.i.i.i = icmp eq i32 %call1.i.i.i.i, 0
  br i1 %tobool.not.i.i.i, label %_ZNSt11unique_lockISt5mutexEC2ERS0_.exit, label %if.then.i.i.i

if.then.i.i.i:                                    ; preds = %entry
  tail call void @_ZSt20__throw_system_errori(i32 noundef %call1.i.i.i.i) #17
  unreachable

_ZNSt11unique_lockISt5mutexEC2ERS0_.exit:         ; preds = %entry
  call void @_ZNSaIcEC1Ev(ptr noundef nonnull align 1 dereferenceable(1) %ref.tmp3) #18
  %call.i4 = invoke noundef ptr @_ZNSt7__cxx1112basic_stringIcSt11char_traitsIcESaIcEE13_M_local_dataEv(ptr noundef nonnull align 8 dereferenceable(32) %ref.tmp)
          to label %call.i.noexc unwind label %lpad

call.i.noexc:                                     ; preds = %_ZNSt11unique_lockISt5mutexEC2ERS0_.exit
  invoke void @_ZNSt7__cxx1112basic_stringIcSt11char_traitsIcESaIcEE12_Alloc_hiderC1EPcRKS3_(ptr noundef nonnull align 8 dereferenceable(8) %ref.tmp, ptr noundef %call.i4, ptr noundef nonnull align 1 dereferenceable(1) %ref.tmp3)
          to label %.noexc unwind label %lpad

.noexc:                                           ; preds = %call.i.noexc
  %cmp.i = icmp eq ptr %type, null
  br i1 %cmp.i, label %if.then.i, label %if.end.i

if.then.i:                                        ; preds = %.noexc
  invoke void @_ZSt19__throw_logic_errorPKc(ptr noundef nonnull @.str.4) #17
          to label %invoke.cont.i unwind label %lpad.i

invoke.cont.i:                                    ; preds = %if.then.i
  unreachable

lpad.i:                                           ; preds = %if.end.i, %if.then.i
  %0 = landingpad { ptr, i32 }
          cleanup
  call void @_ZNSaIcED2Ev(ptr noundef nonnull align 1 dereferenceable(1) %ref.tmp) #18
  br label %ehcleanup

if.end.i:                                         ; preds = %.noexc
  %call.i.i = call noundef i64 @strlen(ptr noundef nonnull dereferenceable(1) %type) #18
  %add.ptr.i = getelementptr inbounds i8, ptr %type, i64 %call.i.i
  invoke void @_ZNSt7__cxx1112basic_stringIcSt11char_traitsIcESaIcEE12_M_constructIPKcEEvT_S8_St20forward_iterator_tag(ptr noundef nonnull align 8 dereferenceable(32) %ref.tmp, ptr noundef nonnull %type, ptr noundef nonnull %add.ptr.i)
          to label %invoke.cont unwind label %lpad.i

invoke.cont:                                      ; preds = %if.end.i
  %factories_ = getelementptr inbounds i8, ptr %this, i64 40
  %call.i6 = invoke noundef nonnull align 8 dereferenceable(24) ptr @_ZNSt8__detail9_Map_baseINSt7__cxx1112basic_stringIcSt11char_traitsIcESaIcEEESt4pairIKS6_St6vectorISt10unique_ptrIN7rocksdb13ObjectLibrary5EntryESt14default_deleteISD_EESaISG_EEESaISJ_ENS_10_Select1stESt8equal_toIS6_ESt4hashIS6_ENS_18_Mod_range_hashingENS_20_Default_ranged_hashENS_20_Prime_rehash_policyENS_17_Hashtable_traitsILb1ELb0ELb1EEELb1EEixEOS6_(ptr noundef nonnull align 1 dereferenceable(1) %factories_, ptr noundef nonnull align 8 dereferenceable(32) %ref.tmp)
          to label %invoke.cont5 unwind label %lpad4

invoke.cont5:                                     ; preds = %invoke.cont
  call void @_ZNSt7__cxx1112basic_stringIcSt11char_traitsIcESaIcEED1Ev(ptr noundef nonnull align 8 dereferenceable(32) %ref.tmp) #18
  call void @_ZNSaIcED1Ev(ptr noundef nonnull align 1 dereferenceable(1) %ref.tmp3) #18
  %_M_finish.i = getelementptr inbounds i8, ptr %call.i6, i64 8
  %1 = load ptr, ptr %_M_finish.i, align 8
  %_M_end_of_storage.i = getelementptr inbounds i8, ptr %call.i6, i64 16
  %2 = load ptr, ptr %_M_end_of_storage.i, align 8
  %cmp.not.i = icmp eq ptr %1, %2
  br i1 %cmp.not.i, label %if.else.i, label %if.then.i7

if.then.i7:                                       ; preds = %invoke.cont5
  %3 = load i64, ptr %entry1, align 8
  store i64 %3, ptr %1, align 8
  store ptr null, ptr %entry1, align 8
  %4 = load ptr, ptr %_M_finish.i, align 8
  %incdec.ptr.i = getelementptr inbounds i8, ptr %4, i64 8
  store ptr %incdec.ptr.i, ptr %_M_finish.i, align 8
  br label %_ZNSt11unique_lockISt5mutexED2Ev.exit

if.else.i:                                        ; preds = %invoke.cont5
  invoke void @_ZNSt6vectorISt10unique_ptrIN7rocksdb13ObjectLibrary5EntryESt14default_deleteIS3_EESaIS6_EE17_M_realloc_insertIJS6_EEEvN9__gnu_cxx17__normal_iteratorIPS6_S8_EEDpOT_(ptr noundef nonnull align 8 dereferenceable(24) %call.i6, ptr %1, ptr noundef nonnull align 8 dereferenceable(8) %entry1)
          to label %_ZNSt11unique_lockISt5mutexED2Ev.exit unwind label %lpad6

_ZNSt11unique_lockISt5mutexED2Ev.exit:            ; preds = %if.else.i, %if.then.i7
  %call1.i.i.i.i11 = call noundef i32 @pthread_mutex_unlock(ptr noundef nonnull %this) #18
  ret void

lpad:                                             ; preds = %call.i.noexc, %_ZNSt11unique_lockISt5mutexEC2ERS0_.exit
  %5 = landingpad { ptr, i32 }
          cleanup
  br label %ehcleanup

lpad4:                                            ; preds = %invoke.cont
  %6 = landingpad { ptr, i32 }
          cleanup
  call void @_ZNSt7__cxx1112basic_stringIcSt11char_traitsIcESaIcEED1Ev(ptr noundef nonnull align 8 dereferenceable(32) %ref.tmp) #18
  br label %ehcleanup

ehcleanup:                                        ; preds = %lpad, %lpad.i, %lpad4
  %.pn = phi { ptr, i32 } [ %6, %lpad4 ], [ %5, %lpad ], [ %0, %lpad.i ]
  call void @_ZNSaIcED1Ev(ptr noundef nonnull align 1 dereferenceable(1) %ref.tmp3) #18
  br label %_ZNSt11unique_lockISt5mutexED2Ev.exit20

lpad6:                                            ; preds = %if.else.i
  %7 = landingpad { ptr, i32 }
          cleanup
  br label %_ZNSt11unique_lockISt5mutexED2Ev.exit20

_ZNSt11unique_lockISt5mutexED2Ev.exit20:          ; preds = %ehcleanup, %lpad6
  %.pn2 = phi { ptr, i32 } [ %7, %lpad6 ], [ %.pn, %ehcleanup ]
  %call1.i.i.i.i18 = call noundef i32 @pthread_mutex_unlock(ptr noundef nonnull %this) #18
  resume { ptr, i32 } %.pn2
}

declare void @_ZNSt7__cxx1112basic_stringIcSt11char_traitsIcESaIcEEC1ERKS4_(ptr noundef nonnull align 8 dereferenceable(32), ptr noundef nonnull align 8 dereferenceable(32)) unnamed_addr #3

; Function Attrs: nounwind
declare noundef i64 @_ZNKSt7__cxx1112basic_stringIcSt11char_traitsIcESaIcEE4sizeEv(ptr noundef nonnull align 8 dereferenceable(32)) local_unnamed_addr #6

; Function Attrs: mustprogress nocallback nofree nounwind willreturn memory(argmem: write)
declare void @llvm.memset.p0.i64(ptr nocapture writeonly, i8, i64, i1 immarg) #8

; Function Attrs: mustprogress nounwind uwtable
define linkonce_odr void @_ZN7rocksdb13ObjectLibrary12FactoryEntryINS_16CompactionFilterEED2Ev(ptr noundef nonnull align 8 dereferenceable(48) %this) unnamed_addr #9 comdat align 2 personality ptr @__gxx_personality_v0 {
entry:
  store ptr getelementptr inbounds ({ [6 x ptr] }, ptr @_ZTVN7rocksdb13ObjectLibrary12FactoryEntryINS_16CompactionFilterEEE, i64 0, inrange i32 0, i64 2), ptr %this, align 8
  %_M_manager.i.i = getelementptr inbounds i8, ptr %this, i64 32
  %0 = load ptr, ptr %_M_manager.i.i, align 8
  %tobool.not.i.i = icmp eq ptr %0, null
  br i1 %tobool.not.i.i, label %_ZNSt8functionIFPN7rocksdb16CompactionFilterERKNSt7__cxx1112basic_stringIcSt11char_traitsIcESaIcEEEPSt10unique_ptrIS1_St14default_deleteIS1_EEPS8_EED2Ev.exit, label %if.then.i.i

if.then.i.i:                                      ; preds = %entry
  %factory_ = getelementptr inbounds i8, ptr %this, i64 16
  %call.i.i = invoke noundef zeroext i1 %0(ptr noundef nonnull align 8 dereferenceable(16) %factory_, ptr noundef nonnull align 8 dereferenceable(16) %factory_, i32 noundef 3)
          to label %_ZNSt8functionIFPN7rocksdb16CompactionFilterERKNSt7__cxx1112basic_stringIcSt11char_traitsIcESaIcEEEPSt10unique_ptrIS1_St14default_deleteIS1_EEPS8_EED2Ev.exit unwind label %terminate.lpad.i.i

terminate.lpad.i.i:                               ; preds = %if.then.i.i
  %1 = landingpad { ptr, i32 }
          catch ptr null
  %2 = extractvalue { ptr, i32 } %1, 0
  tail call void @__clang_call_terminate(ptr %2) #20
  unreachable

_ZNSt8functionIFPN7rocksdb16CompactionFilterERKNSt7__cxx1112basic_stringIcSt11char_traitsIcESaIcEEEPSt10unique_ptrIS1_St14default_deleteIS1_EEPS8_EED2Ev.exit: ; preds = %entry, %if.then.i.i
  %entry_ = getelementptr inbounds i8, ptr %this, i64 8
  %3 = load ptr, ptr %entry_, align 8
  %cmp.not.i = icmp eq ptr %3, null
  br i1 %cmp.not.i, label %_ZNSt10unique_ptrIN7rocksdb13ObjectLibrary5EntryESt14default_deleteIS2_EED2Ev.exit, label %_ZNKSt14default_deleteIN7rocksdb13ObjectLibrary5EntryEEclEPS2_.exit.i

_ZNKSt14default_deleteIN7rocksdb13ObjectLibrary5EntryEEclEPS2_.exit.i: ; preds = %_ZNSt8functionIFPN7rocksdb16CompactionFilterERKNSt7__cxx1112basic_stringIcSt11char_traitsIcESaIcEEEPSt10unique_ptrIS1_St14default_deleteIS1_EEPS8_EED2Ev.exit
  %vtable.i.i = load ptr, ptr %3, align 8
  %vfn.i.i = getelementptr inbounds i8, ptr %vtable.i.i, i64 8
  %4 = load ptr, ptr %vfn.i.i, align 8
  tail call void %4(ptr noundef nonnull align 8 dereferenceable(8) %3) #18
  br label %_ZNSt10unique_ptrIN7rocksdb13ObjectLibrary5EntryESt14default_deleteIS2_EED2Ev.exit

_ZNSt10unique_ptrIN7rocksdb13ObjectLibrary5EntryESt14default_deleteIS2_EED2Ev.exit: ; preds = %_ZNSt8functionIFPN7rocksdb16CompactionFilterERKNSt7__cxx1112basic_stringIcSt11char_traitsIcESaIcEEEPSt10unique_ptrIS1_St14default_deleteIS1_EEPS8_EED2Ev.exit, %_ZNKSt14default_deleteIN7rocksdb13ObjectLibrary5EntryEEclEPS2_.exit.i
  store ptr null, ptr %entry_, align 8
  ret void
}

; Function Attrs: mustprogress nounwind uwtable
define linkonce_odr void @_ZN7rocksdb13ObjectLibrary12FactoryEntryINS_16CompactionFilterEED0Ev(ptr noundef nonnull align 8 dereferenceable(48) %this) unnamed_addr #9 comdat align 2 personality ptr @__gxx_personality_v0 {
entry:
  store ptr getelementptr inbounds ({ [6 x ptr] }, ptr @_ZTVN7rocksdb13ObjectLibrary12FactoryEntryINS_16CompactionFilterEEE, i64 0, inrange i32 0, i64 2), ptr %this, align 8
  %_M_manager.i.i.i = getelementptr inbounds i8, ptr %this, i64 32
  %0 = load ptr, ptr %_M_manager.i.i.i, align 8
  %tobool.not.i.i.i = icmp eq ptr %0, null
  br i1 %tobool.not.i.i.i, label %_ZNSt8functionIFPN7rocksdb16CompactionFilterERKNSt7__cxx1112basic_stringIcSt11char_traitsIcESaIcEEEPSt10unique_ptrIS1_St14default_deleteIS1_EEPS8_EED2Ev.exit.i, label %if.then.i.i.i

if.then.i.i.i:                                    ; preds = %entry
  %factory_.i = getelementptr inbounds i8, ptr %this, i64 16
  %call.i.i.i = invoke noundef zeroext i1 %0(ptr noundef nonnull align 8 dereferenceable(16) %factory_.i, ptr noundef nonnull align 8 dereferenceable(16) %factory_.i, i32 noundef 3)
          to label %_ZNSt8functionIFPN7rocksdb16CompactionFilterERKNSt7__cxx1112basic_stringIcSt11char_traitsIcESaIcEEEPSt10unique_ptrIS1_St14default_deleteIS1_EEPS8_EED2Ev.exit.i unwind label %terminate.lpad.i.i.i

terminate.lpad.i.i.i:                             ; preds = %if.then.i.i.i
  %1 = landingpad { ptr, i32 }
          catch ptr null
  %2 = extractvalue { ptr, i32 } %1, 0
  tail call void @__clang_call_terminate(ptr %2) #20
  unreachable

_ZNSt8functionIFPN7rocksdb16CompactionFilterERKNSt7__cxx1112basic_stringIcSt11char_traitsIcESaIcEEEPSt10unique_ptrIS1_St14default_deleteIS1_EEPS8_EED2Ev.exit.i: ; preds = %if.then.i.i.i, %entry
  %entry_.i = getelementptr inbounds i8, ptr %this, i64 8
  %3 = load ptr, ptr %entry_.i, align 8
  %cmp.not.i.i = icmp eq ptr %3, null
  br i1 %cmp.not.i.i, label %_ZN7rocksdb13ObjectLibrary12FactoryEntryINS_16CompactionFilterEED2Ev.exit, label %_ZNKSt14default_deleteIN7rocksdb13ObjectLibrary5EntryEEclEPS2_.exit.i.i

_ZNKSt14default_deleteIN7rocksdb13ObjectLibrary5EntryEEclEPS2_.exit.i.i: ; preds = %_ZNSt8functionIFPN7rocksdb16CompactionFilterERKNSt7__cxx1112basic_stringIcSt11char_traitsIcESaIcEEEPSt10unique_ptrIS1_St14default_deleteIS1_EEPS8_EED2Ev.exit.i
  %vtable.i.i.i = load ptr, ptr %3, align 8
  %vfn.i.i.i = getelementptr inbounds i8, ptr %vtable.i.i.i, i64 8
  %4 = load ptr, ptr %vfn.i.i.i, align 8
  tail call void %4(ptr noundef nonnull align 8 dereferenceable(8) %3) #18
  br label %_ZN7rocksdb13ObjectLibrary12FactoryEntryINS_16CompactionFilterEED2Ev.exit

_ZN7rocksdb13ObjectLibrary12FactoryEntryINS_16CompactionFilterEED2Ev.exit: ; preds = %_ZNSt8functionIFPN7rocksdb16CompactionFilterERKNSt7__cxx1112basic_stringIcSt11char_traitsIcESaIcEEEPSt10unique_ptrIS1_St14default_deleteIS1_EEPS8_EED2Ev.exit.i, %_ZNKSt14default_deleteIN7rocksdb13ObjectLibrary5EntryEEclEPS2_.exit.i.i
  tail call void @_ZdlPv(ptr noundef nonnull %this) #19
  ret void
}

; Function Attrs: mustprogress uwtable
define linkonce_odr noundef zeroext i1 @_ZNK7rocksdb13ObjectLibrary12FactoryEntryINS_16CompactionFilterEE7MatchesERKNSt7__cxx1112basic_stringIcSt11char_traitsIcESaIcEEE(ptr noundef nonnull align 8 dereferenceable(48) %this, ptr noundef nonnull align 8 dereferenceable(32) %target) unnamed_addr #0 comdat align 2 {
entry:
  %entry_ = getelementptr inbounds i8, ptr %this, i64 8
  %0 = load ptr, ptr %entry_, align 8
  %vtable = load ptr, ptr %0, align 8
  %vfn = getelementptr inbounds i8, ptr %vtable, i64 16
  %1 = load ptr, ptr %vfn, align 8
  %call2 = tail call noundef zeroext i1 %1(ptr noundef nonnull align 8 dereferenceable(8) %0, ptr noundef nonnull align 8 dereferenceable(32) %target)
  ret i1 %call2
}

; Function Attrs: mustprogress uwtable
define linkonce_odr noundef ptr @_ZNK7rocksdb13ObjectLibrary12FactoryEntryINS_16CompactionFilterEE4NameEv(ptr noundef nonnull align 8 dereferenceable(48) %this) unnamed_addr #0 comdat align 2 {
entry:
  %entry_ = getelementptr inbounds i8, ptr %this, i64 8
  %0 = load ptr, ptr %entry_, align 8
  %vtable = load ptr, ptr %0, align 8
  %vfn = getelementptr inbounds i8, ptr %vtable, i64 24
  %1 = load ptr, ptr %vfn, align 8
  %call2 = tail call noundef ptr %1(ptr noundef nonnull align 8 dereferenceable(8) %0)
  ret ptr %call2
}

; Function Attrs: mustprogress nocallback nofree nounwind willreturn memory(argmem: readwrite)
declare void @llvm.memcpy.p0.p0.i64(ptr noalias nocapture writeonly, ptr noalias nocapture readonly, i64, i1 immarg) #10

; Function Attrs: nounwind
declare i32 @pthread_mutex_lock(ptr noundef) local_unnamed_addr #6

; Function Attrs: mustprogress uwtable
define linkonce_odr noundef nonnull align 8 dereferenceable(24) ptr @_ZNSt8__detail9_Map_baseINSt7__cxx1112basic_stringIcSt11char_traitsIcESaIcEEESt4pairIKS6_St6vectorISt10unique_ptrIN7rocksdb13ObjectLibrary5EntryESt14default_deleteISD_EESaISG_EEESaISJ_ENS_10_Select1stESt8equal_toIS6_ESt4hashIS6_ENS_18_Mod_range_hashingENS_20_Default_ranged_hashENS_20_Prime_rehash_policyENS_17_Hashtable_traitsILb1ELb0ELb1EEELb1EEixEOS6_(ptr noundef nonnull align 1 dereferenceable(1) %this, ptr noundef nonnull align 8 dereferenceable(32) %__k) local_unnamed_addr #0 comdat align 2 personality ptr @__gxx_personality_v0 {
entry:
  %__node5 = alloca %"struct.std::_Hashtable<std::__cxx11::basic_string<char>, std::pair<const std::__cxx11::basic_string<char>, std::vector<std::unique_ptr<rocksdb::ObjectLibrary::Entry>>>, std::allocator<std::pair<const std::__cxx11::basic_string<char>, std::vector<std::unique_ptr<rocksdb::ObjectLibrary::Entry>>>>, std::__detail::_Select1st, std::equal_to<std::__cxx11::basic_string<char>>, std::hash<string>, std::__detail::_Mod_range_hashing, std::__detail::_Default_ranged_hash, std::__detail::_Prime_rehash_policy, std::__detail::_Hashtable_traits<true, false, true>>::_Scoped_node", align 8
  %call.i.i = tail call noundef ptr @_ZNKSt7__cxx1112basic_stringIcSt11char_traitsIcESaIcEE4dataEv(ptr noundef nonnull align 8 dereferenceable(32) %__k) #18
  %call2.i.i = tail call noundef i64 @_ZNKSt7__cxx1112basic_stringIcSt11char_traitsIcESaIcEE6lengthEv(ptr noundef nonnull align 8 dereferenceable(32) %__k) #18
  %call.i2.i.i = invoke noundef i64 @_ZSt11_Hash_bytesPKvmm(ptr noundef %call.i.i, i64 noundef %call2.i.i, i64 noundef 3339675911)
          to label %_ZNKSt8__detail15_Hash_code_baseINSt7__cxx1112basic_stringIcSt11char_traitsIcESaIcEEESt4pairIKS6_St6vectorISt10unique_ptrIN7rocksdb13ObjectLibrary5EntryESt14default_deleteISD_EESaISG_EEENS_10_Select1stESt4hashIS6_ENS_18_Mod_range_hashingENS_20_Default_ranged_hashELb1EE12_M_hash_codeERS8_.exit unwind label %terminate.lpad.i.i

terminate.lpad.i.i:                               ; preds = %entry
  %0 = landingpad { ptr, i32 }
          catch ptr null
  %1 = extractvalue { ptr, i32 } %0, 0
  tail call void @__clang_call_terminate(ptr %1) #20
  unreachable

_ZNKSt8__detail15_Hash_code_baseINSt7__cxx1112basic_stringIcSt11char_traitsIcESaIcEEESt4pairIKS6_St6vectorISt10unique_ptrIN7rocksdb13ObjectLibrary5EntryESt14default_deleteISD_EESaISG_EEENS_10_Select1stESt4hashIS6_ENS_18_Mod_range_hashingENS_20_Default_ranged_hashELb1EE12_M_hash_codeERS8_.exit: ; preds = %entry
  %_M_bucket_count.i = getelementptr inbounds i8, ptr %this, i64 8
  %2 = load i64, ptr %_M_bucket_count.i, align 8
  %rem.i.i.i = urem i64 %call.i2.i.i, %2
  %call.i = tail call noundef ptr @_ZNKSt10_HashtableINSt7__cxx1112basic_stringIcSt11char_traitsIcESaIcEEESt4pairIKS5_St6vectorISt10unique_ptrIN7rocksdb13ObjectLibrary5EntryESt14default_deleteISC_EESaISF_EEESaISI_ENSt8__detail10_Select1stESt8equal_toIS5_ESt4hashIS5_ENSK_18_Mod_range_hashingENSK_20_Default_ranged_hashENSK_20_Prime_rehash_policyENSK_17_Hashtable_traitsILb1ELb0ELb1EEEE19_M_find_before_nodeEmRS7_m(ptr noundef nonnull align 8 dereferenceable(56) %this, i64 noundef %rem.i.i.i, ptr noundef nonnull align 8 dereferenceable(32) %__k, i64 noundef %call.i2.i.i)
  %tobool.not.i = icmp eq ptr %call.i, null
  br i1 %tobool.not.i, label %if.end, label %_ZNKSt10_HashtableINSt7__cxx1112basic_stringIcSt11char_traitsIcESaIcEEESt4pairIKS5_St6vectorISt10unique_ptrIN7rocksdb13ObjectLibrary5EntryESt14default_deleteISC_EESaISF_EEESaISI_ENSt8__detail10_Select1stESt8equal_toIS5_ESt4hashIS5_ENSK_18_Mod_range_hashingENSK_20_Default_ranged_hashENSK_20_Prime_rehash_policyENSK_17_Hashtable_traitsILb1ELb0ELb1EEEE12_M_find_nodeEmRS7_m.exit

_ZNKSt10_HashtableINSt7__cxx1112basic_stringIcSt11char_traitsIcESaIcEEESt4pairIKS5_St6vectorISt10unique_ptrIN7rocksdb13ObjectLibrary5EntryESt14default_deleteISC_EESaISF_EEESaISI_ENSt8__detail10_Select1stESt8equal_toIS5_ESt4hashIS5_ENSK_18_Mod_range_hashingENSK_20_Default_ranged_hashENSK_20_Prime_rehash_policyENSK_17_Hashtable_traitsILb1ELb0ELb1EEEE12_M_find_nodeEmRS7_m.exit: ; preds = %_ZNKSt8__detail15_Hash_code_baseINSt7__cxx1112basic_stringIcSt11char_traitsIcESaIcEEESt4pairIKS6_St6vectorISt10unique_ptrIN7rocksdb13ObjectLibrary5EntryESt14default_deleteISD_EESaISG_EEENS_10_Select1stESt4hashIS6_ENS_18_Mod_range_hashingENS_20_Default_ranged_hashELb1EE12_M_hash_codeERS8_.exit
  %3 = load ptr, ptr %call.i, align 8
  %tobool.not = icmp eq ptr %3, null
  br i1 %tobool.not, label %if.end, label %return

if.end:                                           ; preds = %_ZNKSt8__detail15_Hash_code_baseINSt7__cxx1112basic_stringIcSt11char_traitsIcESaIcEEESt4pairIKS6_St6vectorISt10unique_ptrIN7rocksdb13ObjectLibrary5EntryESt14default_deleteISD_EESaISG_EEENS_10_Select1stESt4hashIS6_ENS_18_Mod_range_hashingENS_20_Default_ranged_hashELb1EE12_M_hash_codeERS8_.exit, %_ZNKSt10_HashtableINSt7__cxx1112basic_stringIcSt11char_traitsIcESaIcEEESt4pairIKS5_St6vectorISt10unique_ptrIN7rocksdb13ObjectLibrary5EntryESt14default_deleteISC_EESaISF_EEESaISI_ENSt8__detail10_Select1stESt8equal_toIS5_ESt4hashIS5_ENSK_18_Mod_range_hashingENSK_20_Default_ranged_hashENSK_20_Prime_rehash_policyENSK_17_Hashtable_traitsILb1ELb0ELb1EEEE12_M_find_nodeEmRS7_m.exit
  store ptr %this, ptr %__node5, align 8
  %_M_node.i = getelementptr inbounds i8, ptr %__node5, i64 8
  %call5.i.i.i.i = tail call noalias noundef nonnull dereferenceable(72) ptr @_Znwm(i64 noundef 72) #21
  store ptr null, ptr %call5.i.i.i.i, align 8
  %add.ptr.i.i = getelementptr inbounds i8, ptr %call5.i.i.i.i, i64 8
  tail call void @_ZNSt7__cxx1112basic_stringIcSt11char_traitsIcESaIcEEC1EOS4_(ptr noundef nonnull align 8 dereferenceable(32) %add.ptr.i.i, ptr noundef nonnull align 8 dereferenceable(32) %__k) #18
  %second.i.i.i.i.i.i = getelementptr inbounds i8, ptr %call5.i.i.i.i, i64 40
  tail call void @llvm.memset.p0.i64(ptr noundef nonnull align 8 dereferenceable(24) %second.i.i.i.i.i.i, i8 0, i64 24, i1 false)
  store ptr %call5.i.i.i.i, ptr %_M_node.i, align 8
  %call7 = invoke ptr @_ZNSt10_HashtableINSt7__cxx1112basic_stringIcSt11char_traitsIcESaIcEEESt4pairIKS5_St6vectorISt10unique_ptrIN7rocksdb13ObjectLibrary5EntryESt14default_deleteISC_EESaISF_EEESaISI_ENSt8__detail10_Select1stESt8equal_toIS5_ESt4hashIS5_ENSK_18_Mod_range_hashingENSK_20_Default_ranged_hashENSK_20_Prime_rehash_policyENSK_17_Hashtable_traitsILb1ELb0ELb1EEEE21_M_insert_unique_nodeEmmPNSK_10_Hash_nodeISI_Lb1EEEm(ptr noundef nonnull align 8 dereferenceable(56) %this, i64 noundef %rem.i.i.i, i64 noundef %call.i2.i.i, ptr noundef nonnull %call5.i.i.i.i, i64 noundef 1)
          to label %return unwind label %lpad

lpad:                                             ; preds = %if.end
  %4 = landingpad { ptr, i32 }
          cleanup
  call void @_ZNSt10_HashtableINSt7__cxx1112basic_stringIcSt11char_traitsIcESaIcEEESt4pairIKS5_St6vectorISt10unique_ptrIN7rocksdb13ObjectLibrary5EntryESt14default_deleteISC_EESaISF_EEESaISI_ENSt8__detail10_Select1stESt8equal_toIS5_ESt4hashIS5_ENSK_18_Mod_range_hashingENSK_20_Default_ranged_hashENSK_20_Prime_rehash_policyENSK_17_Hashtable_traitsILb1ELb0ELb1EEEE12_Scoped_nodeD2Ev(ptr noundef nonnull align 8 dereferenceable(16) %__node5) #18
  resume { ptr, i32 } %4

return:                                           ; preds = %if.end, %_ZNKSt10_HashtableINSt7__cxx1112basic_stringIcSt11char_traitsIcESaIcEEESt4pairIKS5_St6vectorISt10unique_ptrIN7rocksdb13ObjectLibrary5EntryESt14default_deleteISC_EESaISF_EEESaISI_ENSt8__detail10_Select1stESt8equal_toIS5_ESt4hashIS5_ENSK_18_Mod_range_hashingENSK_20_Default_ranged_hashENSK_20_Prime_rehash_policyENSK_17_Hashtable_traitsILb1ELb0ELb1EEEE12_M_find_nodeEmRS7_m.exit
  %.pn = phi ptr [ %3, %_ZNKSt10_HashtableINSt7__cxx1112basic_stringIcSt11char_traitsIcESaIcEEESt4pairIKS5_St6vectorISt10unique_ptrIN7rocksdb13ObjectLibrary5EntryESt14default_deleteISC_EESaISF_EEESaISI_ENSt8__detail10_Select1stESt8equal_toIS5_ESt4hashIS5_ENSK_18_Mod_range_hashingENSK_20_Default_ranged_hashENSK_20_Prime_rehash_policyENSK_17_Hashtable_traitsILb1ELb0ELb1EEEE12_M_find_nodeEmRS7_m.exit ], [ %call7, %if.end ]
  %retval.0 = getelementptr inbounds i8, ptr %.pn, i64 40
  ret ptr %retval.0
}

; Function Attrs: mustprogress uwtable
define linkonce_odr ptr @_ZNSt10_HashtableINSt7__cxx1112basic_stringIcSt11char_traitsIcESaIcEEESt4pairIKS5_St6vectorISt10unique_ptrIN7rocksdb13ObjectLibrary5EntryESt14default_deleteISC_EESaISF_EEESaISI_ENSt8__detail10_Select1stESt8equal_toIS5_ESt4hashIS5_ENSK_18_Mod_range_hashingENSK_20_Default_ranged_hashENSK_20_Prime_rehash_policyENSK_17_Hashtable_traitsILb1ELb0ELb1EEEE21_M_insert_unique_nodeEmmPNSK_10_Hash_nodeISI_Lb1EEEm(ptr noundef nonnull align 8 dereferenceable(56) %this, i64 noundef %__bkt, i64 noundef %__code, ptr noundef %__node, i64 noundef %__n_elt) local_unnamed_addr #0 comdat align 2 personality ptr @__gxx_personality_v0 {
entry:
  %_M_rehash_policy = getelementptr inbounds i8, ptr %this, i64 32
  %_M_next_resize.i = getelementptr inbounds i8, ptr %this, i64 40
  %0 = load i64, ptr %_M_next_resize.i, align 8
  %_M_bucket_count = getelementptr inbounds i8, ptr %this, i64 8
  %1 = load i64, ptr %_M_bucket_count, align 8
  %_M_element_count = getelementptr inbounds i8, ptr %this, i64 24
  %2 = load i64, ptr %_M_element_count, align 8
  %call3 = tail call { i8, i64 } @_ZNKSt8__detail20_Prime_rehash_policy14_M_need_rehashEmmm(ptr noundef nonnull align 8 dereferenceable(16) %_M_rehash_policy, i64 noundef %1, i64 noundef %2, i64 noundef %__n_elt)
  %3 = extractvalue { i8, i64 } %call3, 0
  %4 = and i8 %3, 1
  %tobool.not = icmp eq i8 %4, 0
  br i1 %tobool.not, label %if.end, label %if.then

if.then:                                          ; preds = %entry
  %5 = extractvalue { i8, i64 } %call3, 1
  invoke void @_ZNSt10_HashtableINSt7__cxx1112basic_stringIcSt11char_traitsIcESaIcEEESt4pairIKS5_St6vectorISt10unique_ptrIN7rocksdb13ObjectLibrary5EntryESt14default_deleteISC_EESaISF_EEESaISI_ENSt8__detail10_Select1stESt8equal_toIS5_ESt4hashIS5_ENSK_18_Mod_range_hashingENSK_20_Default_ranged_hashENSK_20_Prime_rehash_policyENSK_17_Hashtable_traitsILb1ELb0ELb1EEEE13_M_rehash_auxEmSt17integral_constantIbLb1EE(ptr noundef nonnull align 8 dereferenceable(56) %this, i64 noundef %5)
          to label %_ZNSt10_HashtableINSt7__cxx1112basic_stringIcSt11char_traitsIcESaIcEEESt4pairIKS5_St6vectorISt10unique_ptrIN7rocksdb13ObjectLibrary5EntryESt14default_deleteISC_EESaISF_EEESaISI_ENSt8__detail10_Select1stESt8equal_toIS5_ESt4hashIS5_ENSK_18_Mod_range_hashingENSK_20_Default_ranged_hashENSK_20_Prime_rehash_policyENSK_17_Hashtable_traitsILb1ELb0ELb1EEEE9_M_rehashEmRKm.exit unwind label %lpad.i

lpad.i:                                           ; preds = %if.then
  %6 = landingpad { ptr, i32 }
          catch ptr null
  %7 = extractvalue { ptr, i32 } %6, 0
  %8 = tail call ptr @__cxa_begin_catch(ptr %7) #18
  store i64 %0, ptr %_M_next_resize.i, align 8
  invoke void @__cxa_rethrow() #17
          to label %unreachable.i unwind label %lpad2.i

lpad2.i:                                          ; preds = %lpad.i
  %9 = landingpad { ptr, i32 }
          cleanup
  invoke void @__cxa_end_catch()
          to label %eh.resume.i unwind label %terminate.lpad.i

eh.resume.i:                                      ; preds = %lpad2.i
  resume { ptr, i32 } %9

terminate.lpad.i:                                 ; preds = %lpad2.i
  %10 = landingpad { ptr, i32 }
          catch ptr null
  %11 = extractvalue { ptr, i32 } %10, 0
  tail call void @__clang_call_terminate(ptr %11) #20
  unreachable

unreachable.i:                                    ; preds = %lpad.i
  unreachable

_ZNSt10_HashtableINSt7__cxx1112basic_stringIcSt11char_traitsIcESaIcEEESt4pairIKS5_St6vectorISt10unique_ptrIN7rocksdb13ObjectLibrary5EntryESt14default_deleteISC_EESaISF_EEESaISI_ENSt8__detail10_Select1stESt8equal_toIS5_ESt4hashIS5_ENSK_18_Mod_range_hashingENSK_20_Default_ranged_hashENSK_20_Prime_rehash_policyENSK_17_Hashtable_traitsILb1ELb0ELb1EEEE9_M_rehashEmRKm.exit: ; preds = %if.then
  %12 = load i64, ptr %_M_bucket_count, align 8
  %rem.i.i.i = urem i64 %__code, %12
  br label %if.end

if.end:                                           ; preds = %_ZNSt10_HashtableINSt7__cxx1112basic_stringIcSt11char_traitsIcESaIcEEESt4pairIKS5_St6vectorISt10unique_ptrIN7rocksdb13ObjectLibrary5EntryESt14default_deleteISC_EESaISF_EEESaISI_ENSt8__detail10_Select1stESt8equal_toIS5_ESt4hashIS5_ENSK_18_Mod_range_hashingENSK_20_Default_ranged_hashENSK_20_Prime_rehash_policyENSK_17_Hashtable_traitsILb1ELb0ELb1EEEE9_M_rehashEmRKm.exit, %entry
  %__bkt.addr.0 = phi i64 [ %rem.i.i.i, %_ZNSt10_HashtableINSt7__cxx1112basic_stringIcSt11char_traitsIcESaIcEEESt4pairIKS5_St6vectorISt10unique_ptrIN7rocksdb13ObjectLibrary5EntryESt14default_deleteISC_EESaISF_EEESaISI_ENSt8__detail10_Select1stESt8equal_toIS5_ESt4hashIS5_ENSK_18_Mod_range_hashingENSK_20_Default_ranged_hashENSK_20_Prime_rehash_policyENSK_17_Hashtable_traitsILb1ELb0ELb1EEEE9_M_rehashEmRKm.exit ], [ %__bkt, %entry ]
  %add.ptr = getelementptr inbounds i8, ptr %__node, i64 64
  store i64 %__code, ptr %add.ptr, align 8
  %13 = load ptr, ptr %this, align 8
  %arrayidx.i = getelementptr inbounds ptr, ptr %13, i64 %__bkt.addr.0
  %14 = load ptr, ptr %arrayidx.i, align 8
  %tobool.not.i = icmp eq ptr %14, null
  br i1 %tobool.not.i, label %if.else.i, label %if.then.i

if.then.i:                                        ; preds = %if.end
  %15 = load ptr, ptr %14, align 8
  store ptr %15, ptr %__node, align 8
  %16 = load ptr, ptr %this, align 8
  %arrayidx6.i = getelementptr inbounds ptr, ptr %16, i64 %__bkt.addr.0
  %17 = load ptr, ptr %arrayidx6.i, align 8
  store ptr %__node, ptr %17, align 8
  br label %_ZNSt10_HashtableINSt7__cxx1112basic_stringIcSt11char_traitsIcESaIcEEESt4pairIKS5_St6vectorISt10unique_ptrIN7rocksdb13ObjectLibrary5EntryESt14default_deleteISC_EESaISF_EEESaISI_ENSt8__detail10_Select1stESt8equal_toIS5_ESt4hashIS5_ENSK_18_Mod_range_hashingENSK_20_Default_ranged_hashENSK_20_Prime_rehash_policyENSK_17_Hashtable_traitsILb1ELb0ELb1EEEE22_M_insert_bucket_beginEmPNSK_10_Hash_nodeISI_Lb1EEE.exit

if.else.i:                                        ; preds = %if.end
  %_M_before_begin.i = getelementptr inbounds i8, ptr %this, i64 16
  %18 = load ptr, ptr %_M_before_begin.i, align 8
  store ptr %18, ptr %__node, align 8
  store ptr %__node, ptr %_M_before_begin.i, align 8
  %19 = load ptr, ptr %__node, align 8
  %tobool13.not.i = icmp eq ptr %19, null
  br i1 %tobool13.not.i, label %if.end.i, label %if.then14.i

if.then14.i:                                      ; preds = %if.else.i
  %20 = load ptr, ptr %this, align 8
  %21 = load i64, ptr %_M_bucket_count, align 8
  %add.ptr.i.i.i = getelementptr inbounds i8, ptr %19, i64 64
  %22 = load i64, ptr %add.ptr.i.i.i, align 8
  %rem.i.i.i.i = urem i64 %22, %21
  %arrayidx17.i = getelementptr inbounds ptr, ptr %20, i64 %rem.i.i.i.i
  store ptr %__node, ptr %arrayidx17.i, align 8
  br label %if.end.i

if.end.i:                                         ; preds = %if.then14.i, %if.else.i
  %23 = load ptr, ptr %this, align 8
  %arrayidx20.i = getelementptr inbounds ptr, ptr %23, i64 %__bkt.addr.0
  store ptr %_M_before_begin.i, ptr %arrayidx20.i, align 8
  br label %_ZNSt10_HashtableINSt7__cxx1112basic_stringIcSt11char_traitsIcESaIcEEESt4pairIKS5_St6vectorISt10unique_ptrIN7rocksdb13ObjectLibrary5EntryESt14default_deleteISC_EESaISF_EEESaISI_ENSt8__detail10_Select1stESt8equal_toIS5_ESt4hashIS5_ENSK_18_Mod_range_hashingENSK_20_Default_ranged_hashENSK_20_Prime_rehash_policyENSK_17_Hashtable_traitsILb1ELb0ELb1EEEE22_M_insert_bucket_beginEmPNSK_10_Hash_nodeISI_Lb1EEE.exit

_ZNSt10_HashtableINSt7__cxx1112basic_stringIcSt11char_traitsIcESaIcEEESt4pairIKS5_St6vectorISt10unique_ptrIN7rocksdb13ObjectLibrary5EntryESt14default_deleteISC_EESaISF_EEESaISI_ENSt8__detail10_Select1stESt8equal_toIS5_ESt4hashIS5_ENSK_18_Mod_range_hashingENSK_20_Default_ranged_hashENSK_20_Prime_rehash_policyENSK_17_Hashtable_traitsILb1ELb0ELb1EEEE22_M_insert_bucket_beginEmPNSK_10_Hash_nodeISI_Lb1EEE.exit: ; preds = %if.then.i, %if.end.i
  %24 = load i64, ptr %_M_element_count, align 8
  %inc = add i64 %24, 1
  store i64 %inc, ptr %_M_element_count, align 8
  ret ptr %__node
}

; Function Attrs: mustprogress nounwind uwtable
define linkonce_odr void @_ZNSt10_HashtableINSt7__cxx1112basic_stringIcSt11char_traitsIcESaIcEEESt4pairIKS5_St6vectorISt10unique_ptrIN7rocksdb13ObjectLibrary5EntryESt14default_deleteISC_EESaISF_EEESaISI_ENSt8__detail10_Select1stESt8equal_toIS5_ESt4hashIS5_ENSK_18_Mod_range_hashingENSK_20_Default_ranged_hashENSK_20_Prime_rehash_policyENSK_17_Hashtable_traitsILb1ELb0ELb1EEEE12_Scoped_nodeD2Ev(ptr noundef nonnull align 8 dereferenceable(16) %this) unnamed_addr #9 comdat align 2 personality ptr @__gxx_personality_v0 {
entry:
  %_M_node = getelementptr inbounds i8, ptr %this, i64 8
  %0 = load ptr, ptr %_M_node, align 8
  %tobool.not = icmp eq ptr %0, null
  br i1 %tobool.not, label %if.end, label %if.then

if.then:                                          ; preds = %entry
  %second.i.i.i.i = getelementptr inbounds i8, ptr %0, i64 40
  %1 = load ptr, ptr %second.i.i.i.i, align 8
  %_M_finish.i.i.i.i.i = getelementptr inbounds i8, ptr %0, i64 48
  %2 = load ptr, ptr %_M_finish.i.i.i.i.i, align 8
  %cmp.not3.i.i.i.i.i.i.i.i = icmp eq ptr %1, %2
  br i1 %cmp.not3.i.i.i.i.i.i.i.i, label %invoke.cont.i.i.i.i.i, label %for.body.i.i.i.i.i.i.i.i

for.body.i.i.i.i.i.i.i.i:                         ; preds = %if.then, %_ZSt8_DestroyISt10unique_ptrIN7rocksdb13ObjectLibrary5EntryESt14default_deleteIS3_EEEvPT_.exit.i.i.i.i.i.i.i.i
  %__first.addr.04.i.i.i.i.i.i.i.i = phi ptr [ %incdec.ptr.i.i.i.i.i.i.i.i, %_ZSt8_DestroyISt10unique_ptrIN7rocksdb13ObjectLibrary5EntryESt14default_deleteIS3_EEEvPT_.exit.i.i.i.i.i.i.i.i ], [ %1, %if.then ]
  %3 = load ptr, ptr %__first.addr.04.i.i.i.i.i.i.i.i, align 8
  %cmp.not.i.i.i.i.i.i.i.i.i.i = icmp eq ptr %3, null
  br i1 %cmp.not.i.i.i.i.i.i.i.i.i.i, label %_ZSt8_DestroyISt10unique_ptrIN7rocksdb13ObjectLibrary5EntryESt14default_deleteIS3_EEEvPT_.exit.i.i.i.i.i.i.i.i, label %_ZNKSt14default_deleteIN7rocksdb13ObjectLibrary5EntryEEclEPS2_.exit.i.i.i.i.i.i.i.i.i.i

_ZNKSt14default_deleteIN7rocksdb13ObjectLibrary5EntryEEclEPS2_.exit.i.i.i.i.i.i.i.i.i.i: ; preds = %for.body.i.i.i.i.i.i.i.i
  %vtable.i.i.i.i.i.i.i.i.i.i.i = load ptr, ptr %3, align 8
  %vfn.i.i.i.i.i.i.i.i.i.i.i = getelementptr inbounds i8, ptr %vtable.i.i.i.i.i.i.i.i.i.i.i, i64 8
  %4 = load ptr, ptr %vfn.i.i.i.i.i.i.i.i.i.i.i, align 8
  tail call void %4(ptr noundef nonnull align 8 dereferenceable(8) %3) #18
  br label %_ZSt8_DestroyISt10unique_ptrIN7rocksdb13ObjectLibrary5EntryESt14default_deleteIS3_EEEvPT_.exit.i.i.i.i.i.i.i.i

_ZSt8_DestroyISt10unique_ptrIN7rocksdb13ObjectLibrary5EntryESt14default_deleteIS3_EEEvPT_.exit.i.i.i.i.i.i.i.i: ; preds = %_ZNKSt14default_deleteIN7rocksdb13ObjectLibrary5EntryEEclEPS2_.exit.i.i.i.i.i.i.i.i.i.i, %for.body.i.i.i.i.i.i.i.i
  store ptr null, ptr %__first.addr.04.i.i.i.i.i.i.i.i, align 8
  %incdec.ptr.i.i.i.i.i.i.i.i = getelementptr inbounds i8, ptr %__first.addr.04.i.i.i.i.i.i.i.i, i64 8
  %cmp.not.i.i.i.i.i.i.i.i = icmp eq ptr %incdec.ptr.i.i.i.i.i.i.i.i, %2
  br i1 %cmp.not.i.i.i.i.i.i.i.i, label %invoke.contthread-pre-split.i.i.i.i.i, label %for.body.i.i.i.i.i.i.i.i, !llvm.loop !26

invoke.contthread-pre-split.i.i.i.i.i:            ; preds = %_ZSt8_DestroyISt10unique_ptrIN7rocksdb13ObjectLibrary5EntryESt14default_deleteIS3_EEEvPT_.exit.i.i.i.i.i.i.i.i
  %.pr.i.i.i.i.i = load ptr, ptr %second.i.i.i.i, align 8
  br label %invoke.cont.i.i.i.i.i

invoke.cont.i.i.i.i.i:                            ; preds = %invoke.contthread-pre-split.i.i.i.i.i, %if.then
  %5 = phi ptr [ %.pr.i.i.i.i.i, %invoke.contthread-pre-split.i.i.i.i.i ], [ %1, %if.then ]
  %tobool.not.i.i.i.i.i.i.i = icmp eq ptr %5, null
  br i1 %tobool.not.i.i.i.i.i.i.i, label %_ZNSt8__detail16_Hashtable_allocISaINS_10_Hash_nodeISt4pairIKNSt7__cxx1112basic_stringIcSt11char_traitsIcESaIcEEESt6vectorISt10unique_ptrIN7rocksdb13ObjectLibrary5EntryESt14default_deleteISE_EESaISH_EEELb1EEEEE18_M_deallocate_nodeEPSL_.exit, label %if.then.i.i.i.i.i.i.i

if.then.i.i.i.i.i.i.i:                            ; preds = %invoke.cont.i.i.i.i.i
  tail call void @_ZdlPv(ptr noundef nonnull %5) #19
  br label %_ZNSt8__detail16_Hashtable_allocISaINS_10_Hash_nodeISt4pairIKNSt7__cxx1112basic_stringIcSt11char_traitsIcESaIcEEESt6vectorISt10unique_ptrIN7rocksdb13ObjectLibrary5EntryESt14default_deleteISE_EESaISH_EEELb1EEEEE18_M_deallocate_nodeEPSL_.exit

_ZNSt8__detail16_Hashtable_allocISaINS_10_Hash_nodeISt4pairIKNSt7__cxx1112basic_stringIcSt11char_traitsIcESaIcEEESt6vectorISt10unique_ptrIN7rocksdb13ObjectLibrary5EntryESt14default_deleteISE_EESaISH_EEELb1EEEEE18_M_deallocate_nodeEPSL_.exit: ; preds = %invoke.cont.i.i.i.i.i, %if.then.i.i.i.i.i.i.i
  %add.ptr.i = getelementptr inbounds i8, ptr %0, i64 8
  tail call void @_ZNSt7__cxx1112basic_stringIcSt11char_traitsIcESaIcEED1Ev(ptr noundef nonnull align 8 dereferenceable(32) %add.ptr.i) #18
  tail call void @_ZdlPv(ptr noundef nonnull %0) #19
  br label %if.end

if.end:                                           ; preds = %_ZNSt8__detail16_Hashtable_allocISaINS_10_Hash_nodeISt4pairIKNSt7__cxx1112basic_stringIcSt11char_traitsIcESaIcEEESt6vectorISt10unique_ptrIN7rocksdb13ObjectLibrary5EntryESt14default_deleteISE_EESaISH_EEELb1EEEEE18_M_deallocate_nodeEPSL_.exit, %entry
  ret void
}

; Function Attrs: nounwind
declare noundef ptr @_ZNKSt7__cxx1112basic_stringIcSt11char_traitsIcESaIcEE4dataEv(ptr noundef nonnull align 8 dereferenceable(32)) local_unnamed_addr #6

; Function Attrs: nounwind
declare noundef i64 @_ZNKSt7__cxx1112basic_stringIcSt11char_traitsIcESaIcEE6lengthEv(ptr noundef nonnull align 8 dereferenceable(32)) local_unnamed_addr #6

declare noundef i64 @_ZSt11_Hash_bytesPKvmm(ptr noundef, i64 noundef, i64 noundef) local_unnamed_addr #3

; Function Attrs: mustprogress uwtable
define linkonce_odr noundef ptr @_ZNKSt10_HashtableINSt7__cxx1112basic_stringIcSt11char_traitsIcESaIcEEESt4pairIKS5_St6vectorISt10unique_ptrIN7rocksdb13ObjectLibrary5EntryESt14default_deleteISC_EESaISF_EEESaISI_ENSt8__detail10_Select1stESt8equal_toIS5_ESt4hashIS5_ENSK_18_Mod_range_hashingENSK_20_Default_ranged_hashENSK_20_Prime_rehash_policyENSK_17_Hashtable_traitsILb1ELb0ELb1EEEE19_M_find_before_nodeEmRS7_m(ptr noundef nonnull align 8 dereferenceable(56) %this, i64 noundef %__bkt, ptr noundef nonnull align 8 dereferenceable(32) %__k, i64 noundef %__code) local_unnamed_addr #0 comdat align 2 personality ptr @__gxx_personality_v0 {
entry:
  %0 = load ptr, ptr %this, align 8
  %arrayidx = getelementptr inbounds ptr, ptr %0, i64 %__bkt
  %1 = load ptr, ptr %arrayidx, align 8
  %tobool.not = icmp eq ptr %1, null
  br i1 %tobool.not, label %return, label %if.end

if.end:                                           ; preds = %entry
  %2 = load ptr, ptr %1, align 8
  %_M_bucket_count.i = getelementptr inbounds i8, ptr %this, i64 8
  %add.ptr.i.phi.trans.insert = getelementptr inbounds i8, ptr %2, i64 64
  %.pre = load i64, ptr %add.ptr.i.phi.trans.insert, align 8
  br label %for.cond

for.cond:                                         ; preds = %lor.lhs.false, %if.end
  %3 = phi i64 [ %.pre, %if.end ], [ %7, %lor.lhs.false ]
  %__prev_p.0 = phi ptr [ %1, %if.end ], [ %__p.0, %lor.lhs.false ]
  %__p.0 = phi ptr [ %2, %if.end ], [ %5, %lor.lhs.false ]
  %add.ptr = getelementptr inbounds i8, ptr %__p.0, i64 8
  %cmp.i.i = icmp eq i64 %3, %__code
  br i1 %cmp.i.i, label %land.rhs.i, label %if.end3

land.rhs.i:                                       ; preds = %for.cond
  %call.i.i.i.i = tail call noundef i64 @_ZNKSt7__cxx1112basic_stringIcSt11char_traitsIcESaIcEE4sizeEv(ptr noundef nonnull align 8 dereferenceable(32) %__k) #18
  %call1.i.i.i.i = tail call noundef i64 @_ZNKSt7__cxx1112basic_stringIcSt11char_traitsIcESaIcEE4sizeEv(ptr noundef nonnull align 8 dereferenceable(32) %add.ptr) #18
  %cmp.i.i.i.i = icmp eq i64 %call.i.i.i.i, %call1.i.i.i.i
  br i1 %cmp.i.i.i.i, label %land.rhs.i.i.i.i, label %if.end3

land.rhs.i.i.i.i:                                 ; preds = %land.rhs.i
  %call2.i.i.i.i = tail call noundef ptr @_ZNKSt7__cxx1112basic_stringIcSt11char_traitsIcESaIcEE4dataEv(ptr noundef nonnull align 8 dereferenceable(32) %__k) #18
  %call3.i.i.i.i = tail call noundef ptr @_ZNKSt7__cxx1112basic_stringIcSt11char_traitsIcESaIcEE4dataEv(ptr noundef nonnull align 8 dereferenceable(32) %add.ptr) #18
  %call4.i.i.i.i = tail call noundef i64 @_ZNKSt7__cxx1112basic_stringIcSt11char_traitsIcESaIcEE4sizeEv(ptr noundef nonnull align 8 dereferenceable(32) %__k) #18
  %cmp.i.i.i.i.i = icmp eq i64 %call4.i.i.i.i, 0
  br i1 %cmp.i.i.i.i.i, label %return, label %_ZNKSt8__detail15_Hashtable_baseINSt7__cxx1112basic_stringIcSt11char_traitsIcESaIcEEESt4pairIKS6_St6vectorISt10unique_ptrIN7rocksdb13ObjectLibrary5EntryESt14default_deleteISD_EESaISG_EEENS_10_Select1stESt8equal_toIS6_ESt4hashIS6_ENS_18_Mod_range_hashingENS_20_Default_ranged_hashENS_17_Hashtable_traitsILb1ELb0ELb1EEEE9_M_equalsERS8_mRKNS_16_Hash_node_valueISJ_Lb1EEE.exit

_ZNKSt8__detail15_Hashtable_baseINSt7__cxx1112basic_stringIcSt11char_traitsIcESaIcEEESt4pairIKS6_St6vectorISt10unique_ptrIN7rocksdb13ObjectLibrary5EntryESt14default_deleteISD_EESaISG_EEENS_10_Select1stESt8equal_toIS6_ESt4hashIS6_ENS_18_Mod_range_hashingENS_20_Default_ranged_hashENS_17_Hashtable_traitsILb1ELb0ELb1EEEE9_M_equalsERS8_mRKNS_16_Hash_node_valueISJ_Lb1EEE.exit: ; preds = %land.rhs.i.i.i.i
  %bcmp.i.i.i.i = tail call i32 @bcmp(ptr %call2.i.i.i.i, ptr %call3.i.i.i.i, i64 %call4.i.i.i.i)
  %4 = icmp eq i32 %bcmp.i.i.i.i, 0
  br i1 %4, label %return, label %if.end3

if.end3:                                          ; preds = %land.rhs.i, %for.cond, %_ZNKSt8__detail15_Hashtable_baseINSt7__cxx1112basic_stringIcSt11char_traitsIcESaIcEEESt4pairIKS6_St6vectorISt10unique_ptrIN7rocksdb13ObjectLibrary5EntryESt14default_deleteISD_EESaISG_EEENS_10_Select1stESt8equal_toIS6_ESt4hashIS6_ENS_18_Mod_range_hashingENS_20_Default_ranged_hashENS_17_Hashtable_traitsILb1ELb0ELb1EEEE9_M_equalsERS8_mRKNS_16_Hash_node_valueISJ_Lb1EEE.exit
  %5 = load ptr, ptr %__p.0, align 8
  %tobool5.not = icmp eq ptr %5, null
  br i1 %tobool5.not, label %return, label %lor.lhs.false

lor.lhs.false:                                    ; preds = %if.end3
  %6 = load i64, ptr %_M_bucket_count.i, align 8
  %add.ptr.i.i = getelementptr inbounds i8, ptr %5, i64 64
  %7 = load i64, ptr %add.ptr.i.i, align 8
  %rem.i.i.i = urem i64 %7, %6
  %cmp.not = icmp eq i64 %rem.i.i.i, %__bkt
  br i1 %cmp.not, label %for.cond, label %return, !llvm.loop !27

return:                                           ; preds = %land.rhs.i.i.i.i, %lor.lhs.false, %if.end3, %_ZNKSt8__detail15_Hashtable_baseINSt7__cxx1112basic_stringIcSt11char_traitsIcESaIcEEESt4pairIKS6_St6vectorISt10unique_ptrIN7rocksdb13ObjectLibrary5EntryESt14default_deleteISD_EESaISG_EEENS_10_Select1stESt8equal_toIS6_ESt4hashIS6_ENS_18_Mod_range_hashingENS_20_Default_ranged_hashENS_17_Hashtable_traitsILb1ELb0ELb1EEEE9_M_equalsERS8_mRKNS_16_Hash_node_valueISJ_Lb1EEE.exit, %entry
  %retval.0 = phi ptr [ null, %entry ], [ %__prev_p.0, %land.rhs.i.i.i.i ], [ null, %lor.lhs.false ], [ null, %if.end3 ], [ %__prev_p.0, %_ZNKSt8__detail15_Hashtable_baseINSt7__cxx1112basic_stringIcSt11char_traitsIcESaIcEEESt4pairIKS6_St6vectorISt10unique_ptrIN7rocksdb13ObjectLibrary5EntryESt14default_deleteISD_EESaISG_EEENS_10_Select1stESt8equal_toIS6_ESt4hashIS6_ENS_18_Mod_range_hashingENS_20_Default_ranged_hashENS_17_Hashtable_traitsILb1ELb0ELb1EEEE9_M_equalsERS8_mRKNS_16_Hash_node_valueISJ_Lb1EEE.exit ]
  ret ptr %retval.0
}

declare void @__cxa_rethrow() local_unnamed_addr

declare void @__cxa_end_catch() local_unnamed_addr

; Function Attrs: noreturn
declare void @_ZSt28__throw_bad_array_new_lengthv() local_unnamed_addr #4

; Function Attrs: noreturn
declare void @_ZSt17__throw_bad_allocv() local_unnamed_addr #4

; Function Attrs: nounwind
declare void @_ZNSt7__cxx1112basic_stringIcSt11char_traitsIcESaIcEEC1EOS4_(ptr noundef nonnull align 8 dereferenceable(32), ptr noundef nonnull align 8 dereferenceable(32)) unnamed_addr #6

declare { i8, i64 } @_ZNKSt8__detail20_Prime_rehash_policy14_M_need_rehashEmmm(ptr noundef nonnull align 8 dereferenceable(16), i64 noundef, i64 noundef, i64 noundef) local_unnamed_addr #3

; Function Attrs: mustprogress uwtable
define linkonce_odr void @_ZNSt10_HashtableINSt7__cxx1112basic_stringIcSt11char_traitsIcESaIcEEESt4pairIKS5_St6vectorISt10unique_ptrIN7rocksdb13ObjectLibrary5EntryESt14default_deleteISC_EESaISF_EEESaISI_ENSt8__detail10_Select1stESt8equal_toIS5_ESt4hashIS5_ENSK_18_Mod_range_hashingENSK_20_Default_ranged_hashENSK_20_Prime_rehash_policyENSK_17_Hashtable_traitsILb1ELb0ELb1EEEE13_M_rehash_auxEmSt17integral_constantIbLb1EE(ptr noundef nonnull align 8 dereferenceable(56) %this, i64 noundef %__bkt_count) local_unnamed_addr #0 comdat align 2 personality ptr @__gxx_personality_v0 {
entry:
  %cmp.i = icmp eq i64 %__bkt_count, 1
  br i1 %cmp.i, label %if.then.i, label %if.end.i

if.then.i:                                        ; preds = %entry
  %_M_single_bucket.i = getelementptr inbounds i8, ptr %this, i64 48
  store ptr null, ptr %_M_single_bucket.i, align 8
  br label %_ZNSt10_HashtableINSt7__cxx1112basic_stringIcSt11char_traitsIcESaIcEEESt4pairIKS5_St6vectorISt10unique_ptrIN7rocksdb13ObjectLibrary5EntryESt14default_deleteISC_EESaISF_EEESaISI_ENSt8__detail10_Select1stESt8equal_toIS5_ESt4hashIS5_ENSK_18_Mod_range_hashingENSK_20_Default_ranged_hashENSK_20_Prime_rehash_policyENSK_17_Hashtable_traitsILb1ELb0ELb1EEEE19_M_allocate_bucketsEm.exit

if.end.i:                                         ; preds = %entry
  %cmp.i.i.i.i = icmp ugt i64 %__bkt_count, 1152921504606846975
  br i1 %cmp.i.i.i.i, label %if.then.i.i.i.i, label %_ZNSt8__detail16_Hashtable_allocISaINS_10_Hash_nodeISt4pairIKNSt7__cxx1112basic_stringIcSt11char_traitsIcESaIcEEESt6vectorISt10unique_ptrIN7rocksdb13ObjectLibrary5EntryESt14default_deleteISE_EESaISH_EEELb1EEEEE19_M_allocate_bucketsEm.exit.i

if.then.i.i.i.i:                                  ; preds = %if.end.i
  %cmp2.i.i.i.i = icmp ugt i64 %__bkt_count, 2305843009213693951
  br i1 %cmp2.i.i.i.i, label %if.then3.i.i.i.i, label %if.end.i.i.i.i

if.then3.i.i.i.i:                                 ; preds = %if.then.i.i.i.i
  tail call void @_ZSt28__throw_bad_array_new_lengthv() #17
  unreachable

if.end.i.i.i.i:                                   ; preds = %if.then.i.i.i.i
  tail call void @_ZSt17__throw_bad_allocv() #17
  unreachable

_ZNSt8__detail16_Hashtable_allocISaINS_10_Hash_nodeISt4pairIKNSt7__cxx1112basic_stringIcSt11char_traitsIcESaIcEEESt6vectorISt10unique_ptrIN7rocksdb13ObjectLibrary5EntryESt14default_deleteISE_EESaISH_EEELb1EEEEE19_M_allocate_bucketsEm.exit.i: ; preds = %if.end.i
  %mul.i.i.i.i = shl nuw nsw i64 %__bkt_count, 3
  %call5.i.i4.i.i = tail call noalias noundef nonnull ptr @_Znwm(i64 noundef %mul.i.i.i.i) #21
  tail call void @llvm.memset.p0.i64(ptr nonnull align 8 %call5.i.i4.i.i, i8 0, i64 %mul.i.i.i.i, i1 false)
  br label %_ZNSt10_HashtableINSt7__cxx1112basic_stringIcSt11char_traitsIcESaIcEEESt4pairIKS5_St6vectorISt10unique_ptrIN7rocksdb13ObjectLibrary5EntryESt14default_deleteISC_EESaISF_EEESaISI_ENSt8__detail10_Select1stESt8equal_toIS5_ESt4hashIS5_ENSK_18_Mod_range_hashingENSK_20_Default_ranged_hashENSK_20_Prime_rehash_policyENSK_17_Hashtable_traitsILb1ELb0ELb1EEEE19_M_allocate_bucketsEm.exit

_ZNSt10_HashtableINSt7__cxx1112basic_stringIcSt11char_traitsIcESaIcEEESt4pairIKS5_St6vectorISt10unique_ptrIN7rocksdb13ObjectLibrary5EntryESt14default_deleteISC_EESaISF_EEESaISI_ENSt8__detail10_Select1stESt8equal_toIS5_ESt4hashIS5_ENSK_18_Mod_range_hashingENSK_20_Default_ranged_hashENSK_20_Prime_rehash_policyENSK_17_Hashtable_traitsILb1ELb0ELb1EEEE19_M_allocate_bucketsEm.exit: ; preds = %if.then.i, %_ZNSt8__detail16_Hashtable_allocISaINS_10_Hash_nodeISt4pairIKNSt7__cxx1112basic_stringIcSt11char_traitsIcESaIcEEESt6vectorISt10unique_ptrIN7rocksdb13ObjectLibrary5EntryESt14default_deleteISE_EESaISH_EEELb1EEEEE19_M_allocate_bucketsEm.exit.i
  %retval.0.i = phi ptr [ %_M_single_bucket.i, %if.then.i ], [ %call5.i.i4.i.i, %_ZNSt8__detail16_Hashtable_allocISaINS_10_Hash_nodeISt4pairIKNSt7__cxx1112basic_stringIcSt11char_traitsIcESaIcEEESt6vectorISt10unique_ptrIN7rocksdb13ObjectLibrary5EntryESt14default_deleteISE_EESaISH_EEELb1EEEEE19_M_allocate_bucketsEm.exit.i ]
  %_M_before_begin.i = getelementptr inbounds i8, ptr %this, i64 16
  %0 = load ptr, ptr %_M_before_begin.i, align 8
  store ptr null, ptr %_M_before_begin.i, align 8
  %tobool.not20 = icmp eq ptr %0, null
  br i1 %tobool.not20, label %while.end, label %while.body

while.body:                                       ; preds = %_ZNSt10_HashtableINSt7__cxx1112basic_stringIcSt11char_traitsIcESaIcEEESt4pairIKS5_St6vectorISt10unique_ptrIN7rocksdb13ObjectLibrary5EntryESt14default_deleteISC_EESaISF_EEESaISI_ENSt8__detail10_Select1stESt8equal_toIS5_ESt4hashIS5_ENSK_18_Mod_range_hashingENSK_20_Default_ranged_hashENSK_20_Prime_rehash_policyENSK_17_Hashtable_traitsILb1ELb0ELb1EEEE19_M_allocate_bucketsEm.exit, %if.end22
  %__p.022 = phi ptr [ %1, %if.end22 ], [ %0, %_ZNSt10_HashtableINSt7__cxx1112basic_stringIcSt11char_traitsIcESaIcEEESt4pairIKS5_St6vectorISt10unique_ptrIN7rocksdb13ObjectLibrary5EntryESt14default_deleteISC_EESaISF_EEESaISI_ENSt8__detail10_Select1stESt8equal_toIS5_ESt4hashIS5_ENSK_18_Mod_range_hashingENSK_20_Default_ranged_hashENSK_20_Prime_rehash_policyENSK_17_Hashtable_traitsILb1ELb0ELb1EEEE19_M_allocate_bucketsEm.exit ]
  %__bbegin_bkt.021 = phi i64 [ %__bbegin_bkt.1, %if.end22 ], [ 0, %_ZNSt10_HashtableINSt7__cxx1112basic_stringIcSt11char_traitsIcESaIcEEESt4pairIKS5_St6vectorISt10unique_ptrIN7rocksdb13ObjectLibrary5EntryESt14default_deleteISC_EESaISF_EEESaISI_ENSt8__detail10_Select1stESt8equal_toIS5_ESt4hashIS5_ENSK_18_Mod_range_hashingENSK_20_Default_ranged_hashENSK_20_Prime_rehash_policyENSK_17_Hashtable_traitsILb1ELb0ELb1EEEE19_M_allocate_bucketsEm.exit ]
  %1 = load ptr, ptr %__p.022, align 8
  %add.ptr.i = getelementptr inbounds i8, ptr %__p.022, i64 64
  %2 = load i64, ptr %add.ptr.i, align 8
  %rem.i.i = urem i64 %2, %__bkt_count
  %arrayidx = getelementptr inbounds ptr, ptr %retval.0.i, i64 %rem.i.i
  %3 = load ptr, ptr %arrayidx, align 8
  %tobool5.not = icmp eq ptr %3, null
  br i1 %tobool5.not, label %if.then, label %if.else

if.then:                                          ; preds = %while.body
  %4 = load ptr, ptr %_M_before_begin.i, align 8
  store ptr %4, ptr %__p.022, align 8
  store ptr %__p.022, ptr %_M_before_begin.i, align 8
  store ptr %_M_before_begin.i, ptr %arrayidx, align 8
  %5 = load ptr, ptr %__p.022, align 8
  %tobool14.not = icmp eq ptr %5, null
  br i1 %tobool14.not, label %if.end22, label %if.then15

if.then15:                                        ; preds = %if.then
  %arrayidx16 = getelementptr inbounds ptr, ptr %retval.0.i, i64 %__bbegin_bkt.021
  br label %if.end22.sink.split

if.else:                                          ; preds = %while.body
  %6 = load ptr, ptr %3, align 8
  store ptr %6, ptr %__p.022, align 8
  %7 = load ptr, ptr %arrayidx, align 8
  br label %if.end22.sink.split

if.end22.sink.split:                              ; preds = %if.else, %if.then15
  %arrayidx16.sink = phi ptr [ %arrayidx16, %if.then15 ], [ %7, %if.else ]
  %__bbegin_bkt.1.ph = phi i64 [ %rem.i.i, %if.then15 ], [ %__bbegin_bkt.021, %if.else ]
  store ptr %__p.022, ptr %arrayidx16.sink, align 8
  br label %if.end22

if.end22:                                         ; preds = %if.end22.sink.split, %if.then
  %__bbegin_bkt.1 = phi i64 [ %rem.i.i, %if.then ], [ %__bbegin_bkt.1.ph, %if.end22.sink.split ]
  %tobool.not = icmp eq ptr %1, null
  br i1 %tobool.not, label %while.end, label %while.body, !llvm.loop !28

while.end:                                        ; preds = %if.end22, %_ZNSt10_HashtableINSt7__cxx1112basic_stringIcSt11char_traitsIcESaIcEEESt4pairIKS5_St6vectorISt10unique_ptrIN7rocksdb13ObjectLibrary5EntryESt14default_deleteISC_EESaISF_EEESaISI_ENSt8__detail10_Select1stESt8equal_toIS5_ESt4hashIS5_ENSK_18_Mod_range_hashingENSK_20_Default_ranged_hashENSK_20_Prime_rehash_policyENSK_17_Hashtable_traitsILb1ELb0ELb1EEEE19_M_allocate_bucketsEm.exit
  %8 = load ptr, ptr %this, align 8
  %_M_single_bucket.i.i.i = getelementptr inbounds i8, ptr %this, i64 48
  %cmp.i.i.i = icmp eq ptr %_M_single_bucket.i.i.i, %8
  br i1 %cmp.i.i.i, label %_ZNSt10_HashtableINSt7__cxx1112basic_stringIcSt11char_traitsIcESaIcEEESt4pairIKS5_St6vectorISt10unique_ptrIN7rocksdb13ObjectLibrary5EntryESt14default_deleteISC_EESaISF_EEESaISI_ENSt8__detail10_Select1stESt8equal_toIS5_ESt4hashIS5_ENSK_18_Mod_range_hashingENSK_20_Default_ranged_hashENSK_20_Prime_rehash_policyENSK_17_Hashtable_traitsILb1ELb0ELb1EEEE21_M_deallocate_bucketsEv.exit, label %if.end.i.i

if.end.i.i:                                       ; preds = %while.end
  tail call void @_ZdlPv(ptr noundef %8) #19
  br label %_ZNSt10_HashtableINSt7__cxx1112basic_stringIcSt11char_traitsIcESaIcEEESt4pairIKS5_St6vectorISt10unique_ptrIN7rocksdb13ObjectLibrary5EntryESt14default_deleteISC_EESaISF_EEESaISI_ENSt8__detail10_Select1stESt8equal_toIS5_ESt4hashIS5_ENSK_18_Mod_range_hashingENSK_20_Default_ranged_hashENSK_20_Prime_rehash_policyENSK_17_Hashtable_traitsILb1ELb0ELb1EEEE21_M_deallocate_bucketsEv.exit

_ZNSt10_HashtableINSt7__cxx1112basic_stringIcSt11char_traitsIcESaIcEEESt4pairIKS5_St6vectorISt10unique_ptrIN7rocksdb13ObjectLibrary5EntryESt14default_deleteISC_EESaISF_EEESaISI_ENSt8__detail10_Select1stESt8equal_toIS5_ESt4hashIS5_ENSK_18_Mod_range_hashingENSK_20_Default_ranged_hashENSK_20_Prime_rehash_policyENSK_17_Hashtable_traitsILb1ELb0ELb1EEEE21_M_deallocate_bucketsEv.exit: ; preds = %while.end, %if.end.i.i
  %_M_bucket_count = getelementptr inbounds i8, ptr %this, i64 8
  store i64 %__bkt_count, ptr %_M_bucket_count, align 8
  store ptr %retval.0.i, ptr %this, align 8
  ret void
}

; Function Attrs: mustprogress uwtable
define linkonce_odr void @_ZNSt6vectorISt10unique_ptrIN7rocksdb13ObjectLibrary5EntryESt14default_deleteIS3_EESaIS6_EE17_M_realloc_insertIJS6_EEEvN9__gnu_cxx17__normal_iteratorIPS6_S8_EEDpOT_(ptr noundef nonnull align 8 dereferenceable(24) %this, ptr %__position.coerce, ptr noundef nonnull align 8 dereferenceable(8) %__args) local_unnamed_addr #0 comdat align 2 personality ptr @__gxx_personality_v0 {
entry:
  %_M_finish.i.i = getelementptr inbounds i8, ptr %this, i64 8
  %0 = load ptr, ptr %_M_finish.i.i, align 8
  %1 = load ptr, ptr %this, align 8
  %sub.ptr.lhs.cast.i.i = ptrtoint ptr %0 to i64
  %sub.ptr.rhs.cast.i.i = ptrtoint ptr %1 to i64
  %sub.ptr.sub.i.i = sub i64 %sub.ptr.lhs.cast.i.i, %sub.ptr.rhs.cast.i.i
  %cmp.i = icmp eq i64 %sub.ptr.sub.i.i, 9223372036854775800
  br i1 %cmp.i, label %if.then.i, label %_ZNKSt6vectorISt10unique_ptrIN7rocksdb13ObjectLibrary5EntryESt14default_deleteIS3_EESaIS6_EE12_M_check_lenEmPKc.exit

if.then.i:                                        ; preds = %entry
  tail call void @_ZSt20__throw_length_errorPKc(ptr noundef nonnull @.str.1) #17
  unreachable

_ZNKSt6vectorISt10unique_ptrIN7rocksdb13ObjectLibrary5EntryESt14default_deleteIS3_EESaIS6_EE12_M_check_lenEmPKc.exit: ; preds = %entry
  %sub.ptr.div.i.i = ashr exact i64 %sub.ptr.sub.i.i, 3
  %.sroa.speculated.i = tail call i64 @llvm.umax.i64(i64 %sub.ptr.div.i.i, i64 1)
  %add.i = add i64 %.sroa.speculated.i, %sub.ptr.div.i.i
  %cmp7.i = icmp ult i64 %add.i, %sub.ptr.div.i.i
  %cmp9.i = icmp ugt i64 %add.i, 1152921504606846975
  %or.cond.i = or i1 %cmp7.i, %cmp9.i
  %cond.i = select i1 %or.cond.i, i64 1152921504606846975, i64 %add.i
  %sub.ptr.lhs.cast.i = ptrtoint ptr %__position.coerce to i64
  %sub.ptr.sub.i = sub i64 %sub.ptr.lhs.cast.i, %sub.ptr.rhs.cast.i.i
  %sub.ptr.div.i = ashr exact i64 %sub.ptr.sub.i, 3
  %cmp.not.i = icmp eq i64 %cond.i, 0
  br i1 %cmp.not.i, label %_ZNSt12_Vector_baseISt10unique_ptrIN7rocksdb13ObjectLibrary5EntryESt14default_deleteIS3_EESaIS6_EE11_M_allocateEm.exit, label %_ZNSt16allocator_traitsISaISt10unique_ptrIN7rocksdb13ObjectLibrary5EntryESt14default_deleteIS3_EEEE8allocateERS7_m.exit.i

_ZNSt16allocator_traitsISaISt10unique_ptrIN7rocksdb13ObjectLibrary5EntryESt14default_deleteIS3_EEEE8allocateERS7_m.exit.i: ; preds = %_ZNKSt6vectorISt10unique_ptrIN7rocksdb13ObjectLibrary5EntryESt14default_deleteIS3_EESaIS6_EE12_M_check_lenEmPKc.exit
  %mul.i.i.i = shl nuw nsw i64 %cond.i, 3
  %call5.i.i.i = tail call noalias noundef nonnull ptr @_Znwm(i64 noundef %mul.i.i.i) #21
  br label %_ZNSt12_Vector_baseISt10unique_ptrIN7rocksdb13ObjectLibrary5EntryESt14default_deleteIS3_EESaIS6_EE11_M_allocateEm.exit

_ZNSt12_Vector_baseISt10unique_ptrIN7rocksdb13ObjectLibrary5EntryESt14default_deleteIS3_EESaIS6_EE11_M_allocateEm.exit: ; preds = %_ZNKSt6vectorISt10unique_ptrIN7rocksdb13ObjectLibrary5EntryESt14default_deleteIS3_EESaIS6_EE12_M_check_lenEmPKc.exit, %_ZNSt16allocator_traitsISaISt10unique_ptrIN7rocksdb13ObjectLibrary5EntryESt14default_deleteIS3_EEEE8allocateERS7_m.exit.i
  %cond.i10 = phi ptr [ %call5.i.i.i, %_ZNSt16allocator_traitsISaISt10unique_ptrIN7rocksdb13ObjectLibrary5EntryESt14default_deleteIS3_EEEE8allocateERS7_m.exit.i ], [ null, %_ZNKSt6vectorISt10unique_ptrIN7rocksdb13ObjectLibrary5EntryESt14default_deleteIS3_EESaIS6_EE12_M_check_lenEmPKc.exit ]
  %add.ptr = getelementptr inbounds %"class.std::unique_ptr.15", ptr %cond.i10, i64 %sub.ptr.div.i
  %2 = load i64, ptr %__args, align 8
  store i64 %2, ptr %add.ptr, align 8
  store ptr null, ptr %__args, align 8
  %cmp.not5.i.i.i = icmp eq ptr %1, %__position.coerce
  br i1 %cmp.not5.i.i.i, label %_ZNSt6vectorISt10unique_ptrIN7rocksdb13ObjectLibrary5EntryESt14default_deleteIS3_EESaIS6_EE11_S_relocateEPS6_S9_S9_RS7_.exit, label %for.body.i.i.i

for.body.i.i.i:                                   ; preds = %_ZNSt12_Vector_baseISt10unique_ptrIN7rocksdb13ObjectLibrary5EntryESt14default_deleteIS3_EESaIS6_EE11_M_allocateEm.exit, %for.body.i.i.i
  %__cur.07.i.i.i = phi ptr [ %incdec.ptr1.i.i.i, %for.body.i.i.i ], [ %cond.i10, %_ZNSt12_Vector_baseISt10unique_ptrIN7rocksdb13ObjectLibrary5EntryESt14default_deleteIS3_EESaIS6_EE11_M_allocateEm.exit ]
  %__first.addr.06.i.i.i = phi ptr [ %incdec.ptr.i.i.i, %for.body.i.i.i ], [ %1, %_ZNSt12_Vector_baseISt10unique_ptrIN7rocksdb13ObjectLibrary5EntryESt14default_deleteIS3_EESaIS6_EE11_M_allocateEm.exit ]
  tail call void @llvm.experimental.noalias.scope.decl(metadata !29)
  tail call void @llvm.experimental.noalias.scope.decl(metadata !32)
  %3 = load i64, ptr %__first.addr.06.i.i.i, align 8, !alias.scope !32, !noalias !29
  store i64 %3, ptr %__cur.07.i.i.i, align 8, !alias.scope !29, !noalias !32
  store ptr null, ptr %__first.addr.06.i.i.i, align 8, !alias.scope !32, !noalias !29
  %incdec.ptr.i.i.i = getelementptr inbounds i8, ptr %__first.addr.06.i.i.i, i64 8
  %incdec.ptr1.i.i.i = getelementptr inbounds i8, ptr %__cur.07.i.i.i, i64 8
  %cmp.not.i.i.i = icmp eq ptr %incdec.ptr.i.i.i, %__position.coerce
  br i1 %cmp.not.i.i.i, label %_ZNSt6vectorISt10unique_ptrIN7rocksdb13ObjectLibrary5EntryESt14default_deleteIS3_EESaIS6_EE11_S_relocateEPS6_S9_S9_RS7_.exit, label %for.body.i.i.i, !llvm.loop !34

_ZNSt6vectorISt10unique_ptrIN7rocksdb13ObjectLibrary5EntryESt14default_deleteIS3_EESaIS6_EE11_S_relocateEPS6_S9_S9_RS7_.exit: ; preds = %for.body.i.i.i, %_ZNSt12_Vector_baseISt10unique_ptrIN7rocksdb13ObjectLibrary5EntryESt14default_deleteIS3_EESaIS6_EE11_M_allocateEm.exit
  %__cur.0.lcssa.i.i.i = phi ptr [ %cond.i10, %_ZNSt12_Vector_baseISt10unique_ptrIN7rocksdb13ObjectLibrary5EntryESt14default_deleteIS3_EESaIS6_EE11_M_allocateEm.exit ], [ %incdec.ptr1.i.i.i, %for.body.i.i.i ]
  %incdec.ptr = getelementptr i8, ptr %__cur.0.lcssa.i.i.i, i64 8
  %cmp.not5.i.i.i11 = icmp eq ptr %0, %__position.coerce
  br i1 %cmp.not5.i.i.i11, label %_ZNSt6vectorISt10unique_ptrIN7rocksdb13ObjectLibrary5EntryESt14default_deleteIS3_EESaIS6_EE11_S_relocateEPS6_S9_S9_RS7_.exit19, label %for.body.i.i.i12

for.body.i.i.i12:                                 ; preds = %_ZNSt6vectorISt10unique_ptrIN7rocksdb13ObjectLibrary5EntryESt14default_deleteIS3_EESaIS6_EE11_S_relocateEPS6_S9_S9_RS7_.exit, %for.body.i.i.i12
  %__cur.07.i.i.i13 = phi ptr [ %incdec.ptr1.i.i.i16, %for.body.i.i.i12 ], [ %incdec.ptr, %_ZNSt6vectorISt10unique_ptrIN7rocksdb13ObjectLibrary5EntryESt14default_deleteIS3_EESaIS6_EE11_S_relocateEPS6_S9_S9_RS7_.exit ]
  %__first.addr.06.i.i.i14 = phi ptr [ %incdec.ptr.i.i.i15, %for.body.i.i.i12 ], [ %__position.coerce, %_ZNSt6vectorISt10unique_ptrIN7rocksdb13ObjectLibrary5EntryESt14default_deleteIS3_EESaIS6_EE11_S_relocateEPS6_S9_S9_RS7_.exit ]
  tail call void @llvm.experimental.noalias.scope.decl(metadata !35)
  tail call void @llvm.experimental.noalias.scope.decl(metadata !38)
  %4 = load i64, ptr %__first.addr.06.i.i.i14, align 8, !alias.scope !38, !noalias !35
  store i64 %4, ptr %__cur.07.i.i.i13, align 8, !alias.scope !35, !noalias !38
  store ptr null, ptr %__first.addr.06.i.i.i14, align 8, !alias.scope !38, !noalias !35
  %incdec.ptr.i.i.i15 = getelementptr inbounds i8, ptr %__first.addr.06.i.i.i14, i64 8
  %incdec.ptr1.i.i.i16 = getelementptr inbounds i8, ptr %__cur.07.i.i.i13, i64 8
  %cmp.not.i.i.i17 = icmp eq ptr %incdec.ptr.i.i.i15, %0
  br i1 %cmp.not.i.i.i17, label %_ZNSt6vectorISt10unique_ptrIN7rocksdb13ObjectLibrary5EntryESt14default_deleteIS3_EESaIS6_EE11_S_relocateEPS6_S9_S9_RS7_.exit19, label %for.body.i.i.i12, !llvm.loop !34

_ZNSt6vectorISt10unique_ptrIN7rocksdb13ObjectLibrary5EntryESt14default_deleteIS3_EESaIS6_EE11_S_relocateEPS6_S9_S9_RS7_.exit19: ; preds = %for.body.i.i.i12, %_ZNSt6vectorISt10unique_ptrIN7rocksdb13ObjectLibrary5EntryESt14default_deleteIS3_EESaIS6_EE11_S_relocateEPS6_S9_S9_RS7_.exit
  %__cur.0.lcssa.i.i.i18 = phi ptr [ %incdec.ptr, %_ZNSt6vectorISt10unique_ptrIN7rocksdb13ObjectLibrary5EntryESt14default_deleteIS3_EESaIS6_EE11_S_relocateEPS6_S9_S9_RS7_.exit ], [ %incdec.ptr1.i.i.i16, %for.body.i.i.i12 ]
  %tobool.not.i = icmp eq ptr %1, null
  br i1 %tobool.not.i, label %_ZNSt12_Vector_baseISt10unique_ptrIN7rocksdb13ObjectLibrary5EntryESt14default_deleteIS3_EESaIS6_EE13_M_deallocateEPS6_m.exit, label %if.then.i20

if.then.i20:                                      ; preds = %_ZNSt6vectorISt10unique_ptrIN7rocksdb13ObjectLibrary5EntryESt14default_deleteIS3_EESaIS6_EE11_S_relocateEPS6_S9_S9_RS7_.exit19
  tail call void @_ZdlPv(ptr noundef nonnull %1) #19
  br label %_ZNSt12_Vector_baseISt10unique_ptrIN7rocksdb13ObjectLibrary5EntryESt14default_deleteIS3_EESaIS6_EE13_M_deallocateEPS6_m.exit

_ZNSt12_Vector_baseISt10unique_ptrIN7rocksdb13ObjectLibrary5EntryESt14default_deleteIS3_EESaIS6_EE13_M_deallocateEPS6_m.exit: ; preds = %_ZNSt6vectorISt10unique_ptrIN7rocksdb13ObjectLibrary5EntryESt14default_deleteIS3_EESaIS6_EE11_S_relocateEPS6_S9_S9_RS7_.exit19, %if.then.i20
  %_M_end_of_storage = getelementptr inbounds i8, ptr %this, i64 16
  store ptr %cond.i10, ptr %this, align 8
  store ptr %__cur.0.lcssa.i.i.i18, ptr %_M_finish.i.i, align 8
  %add.ptr19 = getelementptr inbounds %"class.std::unique_ptr.15", ptr %cond.i10, i64 %cond.i
  store ptr %add.ptr19, ptr %_M_end_of_storage, align 8
  ret void
}

; Function Attrs: noreturn
declare void @_ZSt20__throw_length_errorPKc(ptr noundef) local_unnamed_addr #4

; Function Attrs: nounwind
declare i32 @pthread_mutex_unlock(ptr noundef) local_unnamed_addr #6

; Function Attrs: mustprogress uwtable
define internal noalias noundef nonnull ptr @"_ZNSt17_Function_handlerIFPN7rocksdb16CompactionFilterERKNSt7__cxx1112basic_stringIcSt11char_traitsIcESaIcEEEPSt10unique_ptrIS1_St14default_deleteIS1_EEPS8_EZNS0_L32RegisterBuiltinCompactionFiltersERNS0_13ObjectLibraryESA_E3$_0E9_M_invokeERKSt9_Any_dataSA_OSF_OSG_"(ptr nocapture nonnull readnone align 8 %__functor, ptr nocapture nonnull readnone align 8 %__args, ptr nocapture nonnull readnone align 8 %__args1, ptr nocapture nonnull readnone align 8 %__args3) #0 align 2 {
entry:
  %call.i.i.i = tail call noalias noundef nonnull dereferenceable(32) ptr @_Znwm(i64 noundef 32) #21
  tail call void @llvm.memset.p0.i64(ptr noundef nonnull align 16 dereferenceable(32) %call.i.i.i, i8 0, i64 32, i1 false)
  store ptr getelementptr inbounds ({ [29 x ptr] }, ptr @_ZTVN7rocksdb32RemoveEmptyValueCompactionFilterE, i64 0, inrange i32 0, i64 2), ptr %call.i.i.i, align 8
  ret ptr %call.i.i.i
}

; Function Attrs: mustprogress nofree norecurse nosync nounwind willreturn memory(argmem: write) uwtable
define internal noundef zeroext i1 @"_ZNSt17_Function_handlerIFPN7rocksdb16CompactionFilterERKNSt7__cxx1112basic_stringIcSt11char_traitsIcESaIcEEEPSt10unique_ptrIS1_St14default_deleteIS1_EEPS8_EZNS0_L32RegisterBuiltinCompactionFiltersERNS0_13ObjectLibraryESA_E3$_0E10_M_managerERSt9_Any_dataRKSM_St18_Manager_operation"(ptr nocapture noundef nonnull writeonly align 8 dereferenceable(16) %__dest, ptr noundef nonnull align 8 dereferenceable(16) %__source, i32 noundef %__op) #11 align 2 personality ptr @__gxx_personality_v0 {
entry:
  switch i32 %__op, label %sw.epilog [
    i32 1, label %sw.epilog.sink.split
    i32 0, label %sw.bb.i
  ]

sw.bb.i:                                          ; preds = %entry
  br label %sw.epilog.sink.split

sw.epilog.sink.split:                             ; preds = %entry, %sw.bb.i
  %.sink = phi ptr [ null, %sw.bb.i ], [ %__source, %entry ]
  store ptr %.sink, ptr %__dest, align 8
  br label %sw.epilog

sw.epilog:                                        ; preds = %sw.epilog.sink.split, %entry
  ret i1 false
}

; Function Attrs: nounwind
declare noundef zeroext i1 @_ZNKSt7__cxx1112basic_stringIcSt11char_traitsIcESaIcEE5emptyEv(ptr noundef nonnull align 8 dereferenceable(32)) local_unnamed_addr #6

declare noundef ptr @_ZNSt7__cxx1112basic_stringIcSt11char_traitsIcESaIcEE13_M_local_dataEv(ptr noundef nonnull align 8 dereferenceable(32)) local_unnamed_addr #3

declare void @_ZNSt7__cxx1112basic_stringIcSt11char_traitsIcESaIcEE12_Alloc_hiderC1EPcRKS3_(ptr noundef nonnull align 8 dereferenceable(8), ptr noundef, ptr noundef nonnull align 1 dereferenceable(1)) unnamed_addr #3

; Function Attrs: noreturn
declare void @_ZSt19__throw_logic_errorPKc(ptr noundef) local_unnamed_addr #4

; Function Attrs: mustprogress uwtable
define linkonce_odr void @_ZNSt7__cxx1112basic_stringIcSt11char_traitsIcESaIcEE12_M_constructIPKcEEvT_S8_St20forward_iterator_tag(ptr noundef nonnull align 8 dereferenceable(32) %this, ptr noundef %__beg, ptr noundef %__end) local_unnamed_addr #0 comdat align 2 personality ptr @__gxx_personality_v0 {
entry:
  %__dnew = alloca i64, align 8
  %__guard = alloca %struct._Guard, align 8
  %sub.ptr.lhs.cast.i.i = ptrtoint ptr %__end to i64
  %sub.ptr.rhs.cast.i.i = ptrtoint ptr %__beg to i64
  %sub.ptr.sub.i.i = sub i64 %sub.ptr.lhs.cast.i.i, %sub.ptr.rhs.cast.i.i
  store i64 %sub.ptr.sub.i.i, ptr %__dnew, align 8
  %cmp = icmp ugt i64 %sub.ptr.sub.i.i, 15
  br i1 %cmp, label %if.then, label %if.else

if.then:                                          ; preds = %entry
  %call2 = call noundef ptr @_ZNSt7__cxx1112basic_stringIcSt11char_traitsIcESaIcEE9_M_createERmm(ptr noundef nonnull align 8 dereferenceable(32) %this, ptr noundef nonnull align 8 dereferenceable(8) %__dnew, i64 noundef 0)
  call void @_ZNSt7__cxx1112basic_stringIcSt11char_traitsIcESaIcEE7_M_dataEPc(ptr noundef nonnull align 8 dereferenceable(32) %this, ptr noundef %call2)
  %0 = load i64, ptr %__dnew, align 8
  call void @_ZNSt7__cxx1112basic_stringIcSt11char_traitsIcESaIcEE11_M_capacityEm(ptr noundef nonnull align 8 dereferenceable(32) %this, i64 noundef %0)
  br label %if.end

if.else:                                          ; preds = %entry
  %call.i = invoke noundef ptr @_ZNSt7__cxx1112basic_stringIcSt11char_traitsIcESaIcEE13_M_local_dataEv(ptr noundef nonnull align 8 dereferenceable(32) %this)
          to label %if.end unwind label %terminate.lpad.i

terminate.lpad.i:                                 ; preds = %if.else
  %1 = landingpad { ptr, i32 }
          catch ptr null
  %2 = extractvalue { ptr, i32 } %1, 0
  tail call void @__clang_call_terminate(ptr %2) #20
  unreachable

if.end:                                           ; preds = %if.else, %if.then
  store ptr %this, ptr %__guard, align 8
  %call4 = invoke noundef ptr @_ZNKSt7__cxx1112basic_stringIcSt11char_traitsIcESaIcEE7_M_dataEv(ptr noundef nonnull align 8 dereferenceable(32) %this)
          to label %invoke.cont unwind label %lpad

invoke.cont:                                      ; preds = %if.end
  call void @_ZNSt7__cxx1112basic_stringIcSt11char_traitsIcESaIcEE13_S_copy_charsEPcPKcS7_(ptr noundef %call4, ptr noundef %__beg, ptr noundef %__end) #18
  store ptr null, ptr %__guard, align 8
  %3 = load i64, ptr %__dnew, align 8
  invoke void @_ZNSt7__cxx1112basic_stringIcSt11char_traitsIcESaIcEE13_M_set_lengthEm(ptr noundef nonnull align 8 dereferenceable(32) %this, i64 noundef %3)
          to label %_ZZNSt7__cxx1112basic_stringIcSt11char_traitsIcESaIcEE12_M_constructIPKcEEvT_S8_St20forward_iterator_tagEN6_GuardD2Ev.exit unwind label %lpad

_ZZNSt7__cxx1112basic_stringIcSt11char_traitsIcESaIcEE12_M_constructIPKcEEvT_S8_St20forward_iterator_tagEN6_GuardD2Ev.exit: ; preds = %invoke.cont
  ret void

lpad:                                             ; preds = %invoke.cont, %if.end
  %4 = landingpad { ptr, i32 }
          cleanup
  call void @_ZZNSt7__cxx1112basic_stringIcSt11char_traitsIcESaIcEE12_M_constructIPKcEEvT_S8_St20forward_iterator_tagEN6_GuardD2Ev(ptr noundef nonnull align 8 dereferenceable(8) %__guard) #18
  resume { ptr, i32 } %4
}

; Function Attrs: mustprogress nofree nounwind willreturn memory(argmem: read)
declare i64 @strlen(ptr nocapture noundef) local_unnamed_addr #12

declare void @_ZNSt7__cxx1112basic_stringIcSt11char_traitsIcESaIcEE7_M_dataEPc(ptr noundef nonnull align 8 dereferenceable(32), ptr noundef) local_unnamed_addr #3

declare noundef ptr @_ZNSt7__cxx1112basic_stringIcSt11char_traitsIcESaIcEE9_M_createERmm(ptr noundef nonnull align 8 dereferenceable(32), ptr noundef nonnull align 8 dereferenceable(8), i64 noundef) local_unnamed_addr #3

declare void @_ZNSt7__cxx1112basic_stringIcSt11char_traitsIcESaIcEE11_M_capacityEm(ptr noundef nonnull align 8 dereferenceable(32), i64 noundef) local_unnamed_addr #3

; Function Attrs: nounwind
declare void @_ZNSt7__cxx1112basic_stringIcSt11char_traitsIcESaIcEE13_S_copy_charsEPcPKcS7_(ptr noundef, ptr noundef, ptr noundef) local_unnamed_addr #6

declare noundef ptr @_ZNKSt7__cxx1112basic_stringIcSt11char_traitsIcESaIcEE7_M_dataEv(ptr noundef nonnull align 8 dereferenceable(32)) local_unnamed_addr #3

declare void @_ZNSt7__cxx1112basic_stringIcSt11char_traitsIcESaIcEE13_M_set_lengthEm(ptr noundef nonnull align 8 dereferenceable(32), i64 noundef) local_unnamed_addr #3

; Function Attrs: mustprogress nounwind uwtable
define linkonce_odr void @_ZZNSt7__cxx1112basic_stringIcSt11char_traitsIcESaIcEE12_M_constructIPKcEEvT_S8_St20forward_iterator_tagEN6_GuardD2Ev(ptr noundef nonnull align 8 dereferenceable(8) %this) unnamed_addr #9 comdat align 2 personality ptr @__gxx_personality_v0 {
entry:
  %0 = load ptr, ptr %this, align 8
  %tobool.not = icmp eq ptr %0, null
  br i1 %tobool.not, label %if.end, label %if.then

if.then:                                          ; preds = %entry
  invoke void @_ZNSt7__cxx1112basic_stringIcSt11char_traitsIcESaIcEE10_M_disposeEv(ptr noundef nonnull align 8 dereferenceable(32) %0)
          to label %if.end unwind label %terminate.lpad

if.end:                                           ; preds = %if.then, %entry
  ret void

terminate.lpad:                                   ; preds = %if.then
  %1 = landingpad { ptr, i32 }
          catch ptr null
  %2 = extractvalue { ptr, i32 } %1, 0
  tail call void @__clang_call_terminate(ptr %2) #20
  unreachable
}

declare void @_ZNSt7__cxx1112basic_stringIcSt11char_traitsIcESaIcEE10_M_disposeEv(ptr noundef nonnull align 8 dereferenceable(32)) local_unnamed_addr #3

; Function Attrs: nounwind
declare void @_ZNSaIcED2Ev(ptr noundef nonnull align 1 dereferenceable(1)) unnamed_addr #6

declare i32 @pthread_once(ptr noundef, ptr noundef) local_unnamed_addr #3

; Function Attrs: nounwind
declare void @_ZNSt7__cxx1112basic_stringIcSt11char_traitsIcESaIcEEC1Ev(ptr noundef nonnull align 8 dereferenceable(32)) unnamed_addr #6

declare void @_ZN7rocksdb12Customizable13GetOptionsMapERKNS_13ConfigOptionsEPKS0_RKNSt7__cxx1112basic_stringIcSt11char_traitsIcESaIcEEEPSB_PSt13unordered_mapISB_SB_St4hashISB_ESt8equal_toISB_ESaISt4pairISC_SB_EEE(ptr sret(%"class.rocksdb::Status") align 8, ptr noundef nonnull align 8 dereferenceable(80), ptr noundef, ptr noundef nonnull align 8 dereferenceable(32), ptr noundef, ptr noundef) local_unnamed_addr #3

; Function Attrs: mustprogress nounwind uwtable
define linkonce_odr void @_ZNSt13unordered_mapINSt7__cxx1112basic_stringIcSt11char_traitsIcESaIcEEES5_St4hashIS5_ESt8equal_toIS5_ESaISt4pairIKS5_S5_EEED2Ev(ptr noundef nonnull align 8 dereferenceable(56) %this) unnamed_addr #9 comdat align 2 personality ptr @__gxx_personality_v0 {
entry:
  %_M_before_begin.i.i.i = getelementptr inbounds i8, ptr %this, i64 16
  %0 = load ptr, ptr %_M_before_begin.i.i.i, align 8
  %tobool.not3.i.i.i = icmp eq ptr %0, null
  br i1 %tobool.not3.i.i.i, label %_ZNSt10_HashtableINSt7__cxx1112basic_stringIcSt11char_traitsIcESaIcEEESt4pairIKS5_S5_ESaIS8_ENSt8__detail10_Select1stESt8equal_toIS5_ESt4hashIS5_ENSA_18_Mod_range_hashingENSA_20_Default_ranged_hashENSA_20_Prime_rehash_policyENSA_17_Hashtable_traitsILb1ELb0ELb1EEEE5clearEv.exit.i, label %while.body.i.i.i

while.body.i.i.i:                                 ; preds = %entry, %while.body.i.i.i
  %__n.addr.04.i.i.i = phi ptr [ %1, %while.body.i.i.i ], [ %0, %entry ]
  %1 = load ptr, ptr %__n.addr.04.i.i.i, align 8
  %add.ptr.i.i.i.i = getelementptr inbounds i8, ptr %__n.addr.04.i.i.i, i64 8
  %second.i.i.i.i.i.i.i = getelementptr inbounds i8, ptr %__n.addr.04.i.i.i, i64 40
  tail call void @_ZNSt7__cxx1112basic_stringIcSt11char_traitsIcESaIcEED1Ev(ptr noundef nonnull align 8 dereferenceable(32) %second.i.i.i.i.i.i.i) #18
  tail call void @_ZNSt7__cxx1112basic_stringIcSt11char_traitsIcESaIcEED1Ev(ptr noundef nonnull align 8 dereferenceable(32) %add.ptr.i.i.i.i) #18
  tail call void @_ZdlPv(ptr noundef nonnull %__n.addr.04.i.i.i) #19
  %tobool.not.i.i.i = icmp eq ptr %1, null
  br i1 %tobool.not.i.i.i, label %_ZNSt10_HashtableINSt7__cxx1112basic_stringIcSt11char_traitsIcESaIcEEESt4pairIKS5_S5_ESaIS8_ENSt8__detail10_Select1stESt8equal_toIS5_ESt4hashIS5_ENSA_18_Mod_range_hashingENSA_20_Default_ranged_hashENSA_20_Prime_rehash_policyENSA_17_Hashtable_traitsILb1ELb0ELb1EEEE5clearEv.exit.i, label %while.body.i.i.i, !llvm.loop !14

_ZNSt10_HashtableINSt7__cxx1112basic_stringIcSt11char_traitsIcESaIcEEESt4pairIKS5_S5_ESaIS8_ENSt8__detail10_Select1stESt8equal_toIS5_ESt4hashIS5_ENSA_18_Mod_range_hashingENSA_20_Default_ranged_hashENSA_20_Prime_rehash_policyENSA_17_Hashtable_traitsILb1ELb0ELb1EEEE5clearEv.exit.i: ; preds = %while.body.i.i.i, %entry
  %2 = load ptr, ptr %this, align 8
  %_M_bucket_count.i.i = getelementptr inbounds i8, ptr %this, i64 8
  %3 = load i64, ptr %_M_bucket_count.i.i, align 8
  %mul.i.i = shl i64 %3, 3
  tail call void @llvm.memset.p0.i64(ptr align 8 %2, i8 0, i64 %mul.i.i, i1 false)
  tail call void @llvm.memset.p0.i64(ptr noundef nonnull align 8 dereferenceable(16) %_M_before_begin.i.i.i, i8 0, i64 16, i1 false)
  %4 = load ptr, ptr %this, align 8
  %_M_single_bucket.i.i.i.i = getelementptr inbounds i8, ptr %this, i64 48
  %cmp.i.i.i.i = icmp eq ptr %_M_single_bucket.i.i.i.i, %4
  br i1 %cmp.i.i.i.i, label %_ZNSt10_HashtableINSt7__cxx1112basic_stringIcSt11char_traitsIcESaIcEEESt4pairIKS5_S5_ESaIS8_ENSt8__detail10_Select1stESt8equal_toIS5_ESt4hashIS5_ENSA_18_Mod_range_hashingENSA_20_Default_ranged_hashENSA_20_Prime_rehash_policyENSA_17_Hashtable_traitsILb1ELb0ELb1EEEED2Ev.exit, label %if.end.i.i.i

if.end.i.i.i:                                     ; preds = %_ZNSt10_HashtableINSt7__cxx1112basic_stringIcSt11char_traitsIcESaIcEEESt4pairIKS5_S5_ESaIS8_ENSt8__detail10_Select1stESt8equal_toIS5_ESt4hashIS5_ENSA_18_Mod_range_hashingENSA_20_Default_ranged_hashENSA_20_Prime_rehash_policyENSA_17_Hashtable_traitsILb1ELb0ELb1EEEE5clearEv.exit.i
  tail call void @_ZdlPv(ptr noundef %4) #19
  br label %_ZNSt10_HashtableINSt7__cxx1112basic_stringIcSt11char_traitsIcESaIcEEESt4pairIKS5_S5_ESaIS8_ENSt8__detail10_Select1stESt8equal_toIS5_ESt4hashIS5_ENSA_18_Mod_range_hashingENSA_20_Default_ranged_hashENSA_20_Prime_rehash_policyENSA_17_Hashtable_traitsILb1ELb0ELb1EEEED2Ev.exit

_ZNSt10_HashtableINSt7__cxx1112basic_stringIcSt11char_traitsIcESaIcEEESt4pairIKS5_S5_ESaIS8_ENSt8__detail10_Select1stESt8equal_toIS5_ESt4hashIS5_ENSA_18_Mod_range_hashingENSA_20_Default_ranged_hashENSA_20_Prime_rehash_policyENSA_17_Hashtable_traitsILb1ELb0ELb1EEEED2Ev.exit: ; preds = %_ZNSt10_HashtableINSt7__cxx1112basic_stringIcSt11char_traitsIcESaIcEEESt4pairIKS5_S5_ESaIS8_ENSt8__detail10_Select1stESt8equal_toIS5_ESt4hashIS5_ENSA_18_Mod_range_hashingENSA_20_Default_ranged_hashENSA_20_Prime_rehash_policyENSA_17_Hashtable_traitsILb1ELb0ELb1EEEE5clearEv.exit.i, %if.end.i.i.i
  ret void
}

; Function Attrs: mustprogress uwtable
define linkonce_odr void @_ZN7rocksdb14ObjectRegistry15NewStaticObjectINS_16CompactionFilterEEENS_6StatusERKNSt7__cxx1112basic_stringIcSt11char_traitsIcESaIcEEEPPT_(ptr noalias sret(%"class.rocksdb::Status") align 8 %agg.result, ptr noundef nonnull align 8 dereferenceable(192) %this, ptr noundef nonnull align 8 dereferenceable(32) %target, ptr noundef %result) local_unnamed_addr #0 comdat align 2 personality ptr @__gxx_personality_v0 {
entry:
  %guard = alloca %"class.std::unique_ptr.75", align 8
  %ptr = alloca ptr, align 8
  %s = alloca %"class.rocksdb::Status", align 8
  %ref.tmp = alloca %"class.rocksdb::Slice", align 8
  %ref.tmp6 = alloca %"class.std::__cxx11::basic_string", align 8
  %ref.tmp7 = alloca %"class.std::__cxx11::basic_string", align 8
  %ref.tmp8 = alloca %"class.std::__cxx11::basic_string", align 8
  %ref.tmp9 = alloca %"class.std::allocator", align 1
  %ref.tmp19 = alloca %"class.rocksdb::Slice", align 8
  store ptr null, ptr %guard, align 8
  store ptr null, ptr %ptr, align 8
  invoke void @_ZN7rocksdb14ObjectRegistry9NewObjectINS_16CompactionFilterEEENS_6StatusERKNSt7__cxx1112basic_stringIcSt11char_traitsIcESaIcEEEPPT_PSt10unique_ptrISC_St14default_deleteISC_EE(ptr nonnull sret(%"class.rocksdb::Status") align 8 %s, ptr noundef nonnull align 8 dereferenceable(192) %this, ptr noundef nonnull align 8 dereferenceable(32) %target, ptr noundef nonnull %ptr, ptr noundef nonnull %guard)
          to label %invoke.cont3 unwind label %lpad

invoke.cont3:                                     ; preds = %entry
  %0 = load i8, ptr %s, align 8
  %cmp.i = icmp eq i8 %0, 0
  br i1 %cmp.i, label %if.else, label %if.then

if.then:                                          ; preds = %invoke.cont3
  %state_.i.i = getelementptr inbounds i8, ptr %agg.result, i64 8
  store ptr null, ptr %state_.i.i, align 8
  call void @llvm.memset.p0.i64(ptr noundef nonnull align 8 dereferenceable(6) %agg.result, i8 0, i64 6, i1 false)
  %cmp.not.i.i = icmp eq ptr %s, %agg.result
  br i1 %cmp.not.i.i, label %cleanup, label %if.then.i.i

if.then.i.i:                                      ; preds = %if.then
  store i8 %0, ptr %agg.result, align 8
  %subcode_.i.i = getelementptr inbounds i8, ptr %s, i64 1
  %1 = load i8, ptr %subcode_.i.i, align 1
  %subcode_4.i.i = getelementptr inbounds i8, ptr %agg.result, i64 1
  store i8 %1, ptr %subcode_4.i.i, align 1
  %sev_.i.i = getelementptr inbounds i8, ptr %s, i64 2
  %2 = load i8, ptr %sev_.i.i, align 2
  %sev_6.i.i = getelementptr inbounds i8, ptr %agg.result, i64 2
  store i8 %2, ptr %sev_6.i.i, align 2
  %retryable_.i.i = getelementptr inbounds i8, ptr %s, i64 3
  %3 = load i8, ptr %retryable_.i.i, align 1
  %4 = and i8 %3, 1
  %retryable_8.i.i = getelementptr inbounds i8, ptr %agg.result, i64 3
  store i8 %4, ptr %retryable_8.i.i, align 1
  store <4 x i8> zeroinitializer, ptr %s, align 8
  %data_loss_.i.i = getelementptr inbounds i8, ptr %s, i64 4
  %5 = load i8, ptr %data_loss_.i.i, align 4
  %6 = and i8 %5, 1
  %data_loss_11.i.i = getelementptr inbounds i8, ptr %agg.result, i64 4
  store i8 %6, ptr %data_loss_11.i.i, align 4
  store i8 0, ptr %data_loss_.i.i, align 4
  %scope_.i.i = getelementptr inbounds i8, ptr %s, i64 5
  %7 = load i8, ptr %scope_.i.i, align 1
  %scope_14.i.i = getelementptr inbounds i8, ptr %agg.result, i64 5
  store i8 %7, ptr %scope_14.i.i, align 1
  store i8 0, ptr %scope_.i.i, align 1
  %state_.i2.i = getelementptr inbounds i8, ptr %s, i64 8
  %8 = load ptr, ptr %state_.i2.i, align 8
  store ptr null, ptr %state_.i2.i, align 8
  store ptr %8, ptr %state_.i.i, align 8
  br label %cleanup

lpad:                                             ; preds = %entry
  %9 = landingpad { ptr, i32 }
          cleanup
  br label %ehcleanup28

if.else:                                          ; preds = %invoke.cont3
  %10 = load ptr, ptr %guard, align 8
  %tobool.not = icmp eq ptr %10, null
  br i1 %tobool.not, label %if.else24, label %if.then5

if.then5:                                         ; preds = %if.else
  call void @_ZNSaIcEC1Ev(ptr noundef nonnull align 1 dereferenceable(1) %ref.tmp9) #18
  %call.i7 = invoke noundef ptr @_ZNSt7__cxx1112basic_stringIcSt11char_traitsIcESaIcEE13_M_local_dataEv(ptr noundef nonnull align 8 dereferenceable(32) %ref.tmp8)
          to label %call.i.noexc unwind label %lpad10

call.i.noexc:                                     ; preds = %if.then5
  invoke void @_ZNSt7__cxx1112basic_stringIcSt11char_traitsIcESaIcEE12_Alloc_hiderC1EPcRKS3_(ptr noundef nonnull align 8 dereferenceable(8) %ref.tmp8, ptr noundef %call.i7, ptr noundef nonnull align 1 dereferenceable(1) %ref.tmp9)
          to label %.noexc unwind label %lpad10

.noexc:                                           ; preds = %call.i.noexc
  invoke void @_ZNSt7__cxx1112basic_stringIcSt11char_traitsIcESaIcEE12_M_constructIPKcEEvT_S8_St20forward_iterator_tag(ptr noundef nonnull align 8 dereferenceable(32) %ref.tmp8, ptr noundef nonnull @.str.6, ptr noundef nonnull getelementptr inbounds ([22 x i8], ptr @.str.6, i64 0, i64 21))
          to label %invoke.cont11 unwind label %lpad.i

lpad.i:                                           ; preds = %.noexc
  %11 = landingpad { ptr, i32 }
          cleanup
  call void @_ZNSaIcED2Ev(ptr noundef nonnull align 1 dereferenceable(1) %ref.tmp8) #18
  br label %ehcleanup23

invoke.cont11:                                    ; preds = %.noexc
  %call.i9 = invoke noundef nonnull align 8 dereferenceable(32) ptr @_ZNSt7__cxx1112basic_stringIcSt11char_traitsIcESaIcEE6appendEPKc(ptr noundef nonnull align 8 dereferenceable(32) %ref.tmp8, ptr noundef nonnull @.str.2)
          to label %invoke.cont14 unwind label %lpad13

invoke.cont14:                                    ; preds = %invoke.cont11
  call void @_ZNSt7__cxx1112basic_stringIcSt11char_traitsIcESaIcEEC1EOS4_(ptr noundef nonnull align 8 dereferenceable(32) %ref.tmp7, ptr noundef nonnull align 8 dereferenceable(32) %call.i9) #18
  %call.i11 = invoke noundef nonnull align 8 dereferenceable(32) ptr @_ZNSt7__cxx1112basic_stringIcSt11char_traitsIcESaIcEE6appendEPKc(ptr noundef nonnull align 8 dereferenceable(32) %ref.tmp7, ptr noundef nonnull @.str.7)
          to label %invoke.cont16 unwind label %lpad15

invoke.cont16:                                    ; preds = %invoke.cont14
  call void @_ZNSt7__cxx1112basic_stringIcSt11char_traitsIcESaIcEEC1EOS4_(ptr noundef nonnull align 8 dereferenceable(32) %ref.tmp6, ptr noundef nonnull align 8 dereferenceable(32) %call.i11) #18
  %call.i = call noundef ptr @_ZNKSt7__cxx1112basic_stringIcSt11char_traitsIcESaIcEE4dataEv(ptr noundef nonnull align 8 dereferenceable(32) %ref.tmp6) #18
  store ptr %call.i, ptr %ref.tmp, align 8
  %size_.i = getelementptr inbounds i8, ptr %ref.tmp, i64 8
  %call2.i = call noundef i64 @_ZNKSt7__cxx1112basic_stringIcSt11char_traitsIcESaIcEE4sizeEv(ptr noundef nonnull align 8 dereferenceable(32) %ref.tmp6) #18
  store i64 %call2.i, ptr %size_.i, align 8
  %call.i13 = call noundef ptr @_ZNKSt7__cxx1112basic_stringIcSt11char_traitsIcESaIcEE4dataEv(ptr noundef nonnull align 8 dereferenceable(32) %target) #18
  store ptr %call.i13, ptr %ref.tmp19, align 8
  %size_.i14 = getelementptr inbounds i8, ptr %ref.tmp19, i64 8
  %call2.i15 = call noundef i64 @_ZNKSt7__cxx1112basic_stringIcSt11char_traitsIcESaIcEE4sizeEv(ptr noundef nonnull align 8 dereferenceable(32) %target) #18
  store i64 %call2.i15, ptr %size_.i14, align 8
  invoke void @_ZN7rocksdb6StatusC2ENS0_4CodeENS0_7SubCodeERKNS_5SliceES5_NS0_8SeverityE(ptr noundef nonnull align 8 dereferenceable(16) %agg.result, i8 noundef zeroext 4, i8 noundef zeroext 0, ptr noundef nonnull align 8 dereferenceable(16) %ref.tmp, ptr noundef nonnull align 8 dereferenceable(16) %ref.tmp19, i8 noundef zeroext 0)
          to label %invoke.cont21 unwind label %lpad17

invoke.cont21:                                    ; preds = %invoke.cont16
  call void @_ZNSt7__cxx1112basic_stringIcSt11char_traitsIcESaIcEED1Ev(ptr noundef nonnull align 8 dereferenceable(32) %ref.tmp6) #18
  call void @_ZNSt7__cxx1112basic_stringIcSt11char_traitsIcESaIcEED1Ev(ptr noundef nonnull align 8 dereferenceable(32) %ref.tmp7) #18
  call void @_ZNSt7__cxx1112basic_stringIcSt11char_traitsIcESaIcEED1Ev(ptr noundef nonnull align 8 dereferenceable(32) %ref.tmp8) #18
  call void @_ZNSaIcED1Ev(ptr noundef nonnull align 1 dereferenceable(1) %ref.tmp9) #18
  br label %cleanup

lpad10:                                           ; preds = %call.i.noexc, %if.then5
  %12 = landingpad { ptr, i32 }
          cleanup
  br label %ehcleanup23

lpad13:                                           ; preds = %invoke.cont11
  %13 = landingpad { ptr, i32 }
          cleanup
  br label %ehcleanup22

lpad15:                                           ; preds = %invoke.cont14
  %14 = landingpad { ptr, i32 }
          cleanup
  br label %ehcleanup

lpad17:                                           ; preds = %invoke.cont16
  %15 = landingpad { ptr, i32 }
          cleanup
  call void @_ZNSt7__cxx1112basic_stringIcSt11char_traitsIcESaIcEED1Ev(ptr noundef nonnull align 8 dereferenceable(32) %ref.tmp6) #18
  br label %ehcleanup

ehcleanup:                                        ; preds = %lpad17, %lpad15
  %.pn = phi { ptr, i32 } [ %15, %lpad17 ], [ %14, %lpad15 ]
  call void @_ZNSt7__cxx1112basic_stringIcSt11char_traitsIcESaIcEED1Ev(ptr noundef nonnull align 8 dereferenceable(32) %ref.tmp7) #18
  br label %ehcleanup22

ehcleanup22:                                      ; preds = %ehcleanup, %lpad13
  %.pn.pn = phi { ptr, i32 } [ %.pn, %ehcleanup ], [ %13, %lpad13 ]
  call void @_ZNSt7__cxx1112basic_stringIcSt11char_traitsIcESaIcEED1Ev(ptr noundef nonnull align 8 dereferenceable(32) %ref.tmp8) #18
  br label %ehcleanup23

ehcleanup23:                                      ; preds = %lpad10, %lpad.i, %ehcleanup22
  %.pn.pn.pn = phi { ptr, i32 } [ %.pn.pn, %ehcleanup22 ], [ %12, %lpad10 ], [ %11, %lpad.i ]
  call void @_ZNSaIcED1Ev(ptr noundef nonnull align 1 dereferenceable(1) %ref.tmp9) #18
  %state_.i19 = getelementptr inbounds i8, ptr %s, i64 8
  %16 = load ptr, ptr %state_.i19, align 8
  %cmp.not.i.i20 = icmp eq ptr %16, null
  br i1 %cmp.not.i.i20, label %_ZN7rocksdb6StatusD2Ev.exit22, label %_ZNKSt14default_deleteIA_KcEclIS0_EENSt9enable_ifIXsr14is_convertibleIPA_T_PS1_EE5valueEvE4typeEPS5_.exit.i.i21

if.else24:                                        ; preds = %if.else
  %17 = load ptr, ptr %ptr, align 8
  store ptr %17, ptr %result, align 8
  %state_.i.i17 = getelementptr inbounds i8, ptr %agg.result, i64 8
  store ptr null, ptr %state_.i.i17, align 8, !alias.scope !40
  call void @llvm.memset.p0.i64(ptr noundef nonnull align 8 dereferenceable(6) %agg.result, i8 0, i64 6, i1 false), !alias.scope !40
  br label %cleanup

cleanup:                                          ; preds = %if.then, %if.then.i.i, %if.else24, %invoke.cont21
  %state_.i = getelementptr inbounds i8, ptr %s, i64 8
  %18 = load ptr, ptr %state_.i, align 8
  %cmp.not.i.i18 = icmp eq ptr %18, null
  br i1 %cmp.not.i.i18, label %_ZN7rocksdb6StatusD2Ev.exit, label %_ZNKSt14default_deleteIA_KcEclIS0_EENSt9enable_ifIXsr14is_convertibleIPA_T_PS1_EE5valueEvE4typeEPS5_.exit.i.i

_ZNKSt14default_deleteIA_KcEclIS0_EENSt9enable_ifIXsr14is_convertibleIPA_T_PS1_EE5valueEvE4typeEPS5_.exit.i.i: ; preds = %cleanup
  call void @_ZdaPv(ptr noundef nonnull %18) #19
  br label %_ZN7rocksdb6StatusD2Ev.exit

_ZN7rocksdb6StatusD2Ev.exit:                      ; preds = %cleanup, %_ZNKSt14default_deleteIA_KcEclIS0_EENSt9enable_ifIXsr14is_convertibleIPA_T_PS1_EE5valueEvE4typeEPS5_.exit.i.i
  store ptr null, ptr %state_.i, align 8
  %19 = load ptr, ptr %guard, align 8
  %cmp.not.i = icmp eq ptr %19, null
  br i1 %cmp.not.i, label %_ZNSt10unique_ptrIN7rocksdb16CompactionFilterESt14default_deleteIS1_EED2Ev.exit, label %_ZNKSt14default_deleteIN7rocksdb16CompactionFilterEEclEPS1_.exit.i

_ZNKSt14default_deleteIN7rocksdb16CompactionFilterEEclEPS1_.exit.i: ; preds = %_ZN7rocksdb6StatusD2Ev.exit
  %vtable.i.i = load ptr, ptr %19, align 8
  %vfn.i.i = getelementptr inbounds i8, ptr %vtable.i.i, i64 8
  %20 = load ptr, ptr %vfn.i.i, align 8
  call void %20(ptr noundef nonnull align 8 dereferenceable(32) %19) #18
  br label %_ZNSt10unique_ptrIN7rocksdb16CompactionFilterESt14default_deleteIS1_EED2Ev.exit

_ZNSt10unique_ptrIN7rocksdb16CompactionFilterESt14default_deleteIS1_EED2Ev.exit: ; preds = %_ZN7rocksdb6StatusD2Ev.exit, %_ZNKSt14default_deleteIN7rocksdb16CompactionFilterEEclEPS1_.exit.i
  ret void

_ZNKSt14default_deleteIA_KcEclIS0_EENSt9enable_ifIXsr14is_convertibleIPA_T_PS1_EE5valueEvE4typeEPS5_.exit.i.i21: ; preds = %ehcleanup23
  call void @_ZdaPv(ptr noundef nonnull %16) #19
  br label %_ZN7rocksdb6StatusD2Ev.exit22

_ZN7rocksdb6StatusD2Ev.exit22:                    ; preds = %ehcleanup23, %_ZNKSt14default_deleteIA_KcEclIS0_EENSt9enable_ifIXsr14is_convertibleIPA_T_PS1_EE5valueEvE4typeEPS5_.exit.i.i21
  store ptr null, ptr %state_.i19, align 8
  br label %ehcleanup28

ehcleanup28:                                      ; preds = %_ZN7rocksdb6StatusD2Ev.exit22, %lpad
  %.pn.pn.pn.pn.pn = phi { ptr, i32 } [ %.pn.pn.pn, %_ZN7rocksdb6StatusD2Ev.exit22 ], [ %9, %lpad ]
  %21 = load ptr, ptr %guard, align 8
  %cmp.not.i23 = icmp eq ptr %21, null
  br i1 %cmp.not.i23, label %_ZNSt10unique_ptrIN7rocksdb16CompactionFilterESt14default_deleteIS1_EED2Ev.exit27, label %_ZNKSt14default_deleteIN7rocksdb16CompactionFilterEEclEPS1_.exit.i24

_ZNKSt14default_deleteIN7rocksdb16CompactionFilterEEclEPS1_.exit.i24: ; preds = %ehcleanup28
  %vtable.i.i25 = load ptr, ptr %21, align 8
  %vfn.i.i26 = getelementptr inbounds i8, ptr %vtable.i.i25, i64 8
  %22 = load ptr, ptr %vfn.i.i26, align 8
  call void %22(ptr noundef nonnull align 8 dereferenceable(32) %21) #18
  br label %_ZNSt10unique_ptrIN7rocksdb16CompactionFilterESt14default_deleteIS1_EED2Ev.exit27

_ZNSt10unique_ptrIN7rocksdb16CompactionFilterESt14default_deleteIS1_EED2Ev.exit27: ; preds = %ehcleanup28, %_ZNKSt14default_deleteIN7rocksdb16CompactionFilterEEclEPS1_.exit.i24
  resume { ptr, i32 } %.pn.pn.pn.pn.pn
}

declare void @_ZN7rocksdb12Customizable18ConfigureNewObjectERKNS_13ConfigOptionsEPS0_RKSt13unordered_mapINSt7__cxx1112basic_stringIcSt11char_traitsIcESaIcEEESB_St4hashISB_ESt8equal_toISB_ESaISt4pairIKSB_SB_EEE(ptr sret(%"class.rocksdb::Status") align 8, ptr noundef nonnull align 8 dereferenceable(80), ptr noundef, ptr noundef nonnull align 8 dereferenceable(56)) local_unnamed_addr #3

; Function Attrs: mustprogress uwtable
define linkonce_odr void @_ZN7rocksdb14ObjectRegistry9NewObjectINS_16CompactionFilterEEENS_6StatusERKNSt7__cxx1112basic_stringIcSt11char_traitsIcESaIcEEEPPT_PSt10unique_ptrISC_St14default_deleteISC_EE(ptr noalias sret(%"class.rocksdb::Status") align 8 %agg.result, ptr noundef nonnull align 8 dereferenceable(192) %this, ptr noundef nonnull align 8 dereferenceable(32) %target, ptr noundef %object, ptr noundef %guard) local_unnamed_addr #0 comdat align 2 personality ptr @__gxx_personality_v0 {
entry:
  %__args.addr2.i = alloca ptr, align 8
  %__args.addr4.i = alloca ptr, align 8
  %factory = alloca %"class.std::function", align 8
  %errmsg = alloca %"class.std::__cxx11::basic_string", align 8
  %ref.tmp = alloca %"class.rocksdb::Slice", align 8
  %ref.tmp7 = alloca %"class.std::__cxx11::basic_string", align 8
  %ref.tmp8 = alloca %"class.std::__cxx11::basic_string", align 8
  %ref.tmp9 = alloca %"class.std::allocator", align 1
  %ref.tmp17 = alloca %"class.rocksdb::Slice", align 8
  %ref.tmp22 = alloca %"class.rocksdb::Slice", align 8
  %ref.tmp24 = alloca %"class.rocksdb::Slice", align 8
  %ref.tmp29 = alloca %"class.rocksdb::Slice", align 8
  %ref.tmp30 = alloca %"class.std::__cxx11::basic_string", align 8
  %ref.tmp31 = alloca %"class.std::__cxx11::basic_string", align 8
  %ref.tmp32 = alloca %"class.std::allocator", align 1
  %ref.tmp40 = alloca %"class.rocksdb::Slice", align 8
  %0 = load ptr, ptr %guard, align 8
  store ptr null, ptr %guard, align 8
  %tobool.not.i.i = icmp eq ptr %0, null
  br i1 %tobool.not.i.i, label %_ZNSt10unique_ptrIN7rocksdb16CompactionFilterESt14default_deleteIS1_EE5resetEPS1_.exit, label %_ZNKSt14default_deleteIN7rocksdb16CompactionFilterEEclEPS1_.exit.i.i

_ZNKSt14default_deleteIN7rocksdb16CompactionFilterEEclEPS1_.exit.i.i: ; preds = %entry
  %vtable.i.i.i = load ptr, ptr %0, align 8
  %vfn.i.i.i = getelementptr inbounds i8, ptr %vtable.i.i.i, i64 8
  %1 = load ptr, ptr %vfn.i.i.i, align 8
  tail call void %1(ptr noundef nonnull align 8 dereferenceable(32) %0) #18
  br label %_ZNSt10unique_ptrIN7rocksdb16CompactionFilterESt14default_deleteIS1_EE5resetEPS1_.exit

_ZNSt10unique_ptrIN7rocksdb16CompactionFilterESt14default_deleteIS1_EE5resetEPS1_.exit: ; preds = %entry, %_ZNKSt14default_deleteIN7rocksdb16CompactionFilterEEclEPS1_.exit.i.i
  call void @_ZNK7rocksdb14ObjectRegistry11FindFactoryINS_16CompactionFilterEEEKSt8functionIFPT_RKNSt7__cxx1112basic_stringIcSt11char_traitsIcESaIcEEEPSt10unique_ptrIS4_St14default_deleteIS4_EEPSB_EESD_(ptr nonnull sret(%"class.std::function") align 8 %factory, ptr noundef nonnull align 8 dereferenceable(192) %this, ptr noundef nonnull align 8 dereferenceable(32) %target)
  %_M_manager.i.i.i = getelementptr inbounds i8, ptr %factory, i64 16
  %2 = load ptr, ptr %_M_manager.i.i.i, align 8
  %tobool.not.i.i.i.not = icmp eq ptr %2, null
  br i1 %tobool.not.i.i.i.not, label %if.else28, label %if.then

if.then:                                          ; preds = %_ZNSt10unique_ptrIN7rocksdb16CompactionFilterESt14default_deleteIS1_EE5resetEPS1_.exit
  call void @_ZNSt7__cxx1112basic_stringIcSt11char_traitsIcESaIcEEC1Ev(ptr noundef nonnull align 8 dereferenceable(32) %errmsg) #18
  call void @llvm.lifetime.start.p0(i64 8, ptr nonnull %__args.addr2.i)
  call void @llvm.lifetime.start.p0(i64 8, ptr nonnull %__args.addr4.i)
  store ptr %guard, ptr %__args.addr2.i, align 8
  store ptr %errmsg, ptr %__args.addr4.i, align 8
  %3 = load ptr, ptr %_M_manager.i.i.i, align 8
  %tobool.not.i.i15 = icmp eq ptr %3, null
  br i1 %tobool.not.i.i15, label %if.then.i, label %if.end.i

if.then.i:                                        ; preds = %if.then
  invoke void @_ZSt25__throw_bad_function_callv() #17
          to label %.noexc unwind label %lpad

.noexc:                                           ; preds = %if.then.i
  unreachable

if.end.i:                                         ; preds = %if.then
  %_M_invoker.i = getelementptr inbounds i8, ptr %factory, i64 24
  %4 = load ptr, ptr %_M_invoker.i, align 8
  %call6.i16 = invoke noundef ptr %4(ptr noundef nonnull align 8 dereferenceable(16) %factory, ptr noundef nonnull align 8 dereferenceable(32) %target, ptr noundef nonnull align 8 dereferenceable(8) %__args.addr2.i, ptr noundef nonnull align 8 dereferenceable(8) %__args.addr4.i)
          to label %invoke.cont unwind label %lpad

invoke.cont:                                      ; preds = %if.end.i
  call void @llvm.lifetime.end.p0(i64 8, ptr nonnull %__args.addr2.i)
  call void @llvm.lifetime.end.p0(i64 8, ptr nonnull %__args.addr4.i)
  store ptr %call6.i16, ptr %object, align 8
  %cmp.not = icmp eq ptr %call6.i16, null
  br i1 %cmp.not, label %if.else, label %if.then3

if.then3:                                         ; preds = %invoke.cont
  %state_.i.i = getelementptr inbounds i8, ptr %agg.result, i64 8
  store ptr null, ptr %state_.i.i, align 8, !alias.scope !43
  call void @llvm.memset.p0.i64(ptr noundef nonnull align 8 dereferenceable(6) %agg.result, i8 0, i64 6, i1 false), !alias.scope !43
  br label %cleanup

lpad:                                             ; preds = %if.else21, %if.end.i, %if.then.i
  %5 = landingpad { ptr, i32 }
          cleanup
  br label %ehcleanup27

if.else:                                          ; preds = %invoke.cont
  %call5 = call noundef zeroext i1 @_ZNKSt7__cxx1112basic_stringIcSt11char_traitsIcESaIcEE5emptyEv(ptr noundef nonnull align 8 dereferenceable(32) %errmsg) #18
  br i1 %call5, label %if.then6, label %if.else21

if.then6:                                         ; preds = %if.else
  call void @_ZNSaIcEC1Ev(ptr noundef nonnull align 1 dereferenceable(1) %ref.tmp9) #18
  %call.i18 = invoke noundef ptr @_ZNSt7__cxx1112basic_stringIcSt11char_traitsIcESaIcEE13_M_local_dataEv(ptr noundef nonnull align 8 dereferenceable(32) %ref.tmp8)
          to label %call.i.noexc unwind label %lpad10

call.i.noexc:                                     ; preds = %if.then6
  invoke void @_ZNSt7__cxx1112basic_stringIcSt11char_traitsIcESaIcEE12_Alloc_hiderC1EPcRKS3_(ptr noundef nonnull align 8 dereferenceable(8) %ref.tmp8, ptr noundef %call.i18, ptr noundef nonnull align 1 dereferenceable(1) %ref.tmp9)
          to label %.noexc19 unwind label %lpad10

.noexc19:                                         ; preds = %call.i.noexc
  invoke void @_ZNSt7__cxx1112basic_stringIcSt11char_traitsIcESaIcEE12_M_constructIPKcEEvT_S8_St20forward_iterator_tag(ptr noundef nonnull align 8 dereferenceable(32) %ref.tmp8, ptr noundef nonnull @.str.8, ptr noundef nonnull getelementptr inbounds ([16 x i8], ptr @.str.8, i64 0, i64 15))
          to label %invoke.cont11 unwind label %lpad.i

lpad.i:                                           ; preds = %.noexc19
  %6 = landingpad { ptr, i32 }
          cleanup
  call void @_ZNSaIcED2Ev(ptr noundef nonnull align 1 dereferenceable(1) %ref.tmp8) #18
  br label %ehcleanup20

invoke.cont11:                                    ; preds = %.noexc19
  %call.i21 = invoke noundef nonnull align 8 dereferenceable(32) ptr @_ZNSt7__cxx1112basic_stringIcSt11char_traitsIcESaIcEE6appendEPKc(ptr noundef nonnull align 8 dereferenceable(32) %ref.tmp8, ptr noundef nonnull @.str.2)
          to label %invoke.cont14 unwind label %lpad13

invoke.cont14:                                    ; preds = %invoke.cont11
  call void @_ZNSt7__cxx1112basic_stringIcSt11char_traitsIcESaIcEEC1EOS4_(ptr noundef nonnull align 8 dereferenceable(32) %ref.tmp7, ptr noundef nonnull align 8 dereferenceable(32) %call.i21) #18
  %call.i = call noundef ptr @_ZNKSt7__cxx1112basic_stringIcSt11char_traitsIcESaIcEE4dataEv(ptr noundef nonnull align 8 dereferenceable(32) %ref.tmp7) #18
  store ptr %call.i, ptr %ref.tmp, align 8
  %size_.i = getelementptr inbounds i8, ptr %ref.tmp, i64 8
  %call2.i = call noundef i64 @_ZNKSt7__cxx1112basic_stringIcSt11char_traitsIcESaIcEE4sizeEv(ptr noundef nonnull align 8 dereferenceable(32) %ref.tmp7) #18
  store i64 %call2.i, ptr %size_.i, align 8
  %call.i22 = call noundef ptr @_ZNKSt7__cxx1112basic_stringIcSt11char_traitsIcESaIcEE4dataEv(ptr noundef nonnull align 8 dereferenceable(32) %target) #18
  store ptr %call.i22, ptr %ref.tmp17, align 8
  %size_.i23 = getelementptr inbounds i8, ptr %ref.tmp17, i64 8
  %call2.i24 = call noundef i64 @_ZNKSt7__cxx1112basic_stringIcSt11char_traitsIcESaIcEE4sizeEv(ptr noundef nonnull align 8 dereferenceable(32) %target) #18
  store i64 %call2.i24, ptr %size_.i23, align 8
  invoke void @_ZN7rocksdb6StatusC2ENS0_4CodeENS0_7SubCodeERKNS_5SliceES5_NS0_8SeverityE(ptr noundef nonnull align 8 dereferenceable(16) %agg.result, i8 noundef zeroext 4, i8 noundef zeroext 0, ptr noundef nonnull align 8 dereferenceable(16) %ref.tmp, ptr noundef nonnull align 8 dereferenceable(16) %ref.tmp17, i8 noundef zeroext 0)
          to label %invoke.cont19 unwind label %lpad15

invoke.cont19:                                    ; preds = %invoke.cont14
  call void @_ZNSt7__cxx1112basic_stringIcSt11char_traitsIcESaIcEED1Ev(ptr noundef nonnull align 8 dereferenceable(32) %ref.tmp7) #18
  call void @_ZNSt7__cxx1112basic_stringIcSt11char_traitsIcESaIcEED1Ev(ptr noundef nonnull align 8 dereferenceable(32) %ref.tmp8) #18
  call void @_ZNSaIcED1Ev(ptr noundef nonnull align 1 dereferenceable(1) %ref.tmp9) #18
  br label %cleanup

lpad10:                                           ; preds = %call.i.noexc, %if.then6
  %7 = landingpad { ptr, i32 }
          cleanup
  br label %ehcleanup20

lpad13:                                           ; preds = %invoke.cont11
  %8 = landingpad { ptr, i32 }
          cleanup
  br label %ehcleanup

lpad15:                                           ; preds = %invoke.cont14
  %9 = landingpad { ptr, i32 }
          cleanup
  call void @_ZNSt7__cxx1112basic_stringIcSt11char_traitsIcESaIcEED1Ev(ptr noundef nonnull align 8 dereferenceable(32) %ref.tmp7) #18
  br label %ehcleanup

ehcleanup:                                        ; preds = %lpad15, %lpad13
  %.pn9 = phi { ptr, i32 } [ %9, %lpad15 ], [ %8, %lpad13 ]
  call void @_ZNSt7__cxx1112basic_stringIcSt11char_traitsIcESaIcEED1Ev(ptr noundef nonnull align 8 dereferenceable(32) %ref.tmp8) #18
  br label %ehcleanup20

ehcleanup20:                                      ; preds = %lpad10, %lpad.i, %ehcleanup
  %.pn9.pn = phi { ptr, i32 } [ %.pn9, %ehcleanup ], [ %7, %lpad10 ], [ %6, %lpad.i ]
  call void @_ZNSaIcED1Ev(ptr noundef nonnull align 1 dereferenceable(1) %ref.tmp9) #18
  br label %ehcleanup27

if.else21:                                        ; preds = %if.else
  %call.i26 = call noundef ptr @_ZNKSt7__cxx1112basic_stringIcSt11char_traitsIcESaIcEE4dataEv(ptr noundef nonnull align 8 dereferenceable(32) %errmsg) #18
  store ptr %call.i26, ptr %ref.tmp22, align 8
  %size_.i27 = getelementptr inbounds i8, ptr %ref.tmp22, i64 8
  %call2.i28 = call noundef i64 @_ZNKSt7__cxx1112basic_stringIcSt11char_traitsIcESaIcEE4sizeEv(ptr noundef nonnull align 8 dereferenceable(32) %errmsg) #18
  store i64 %call2.i28, ptr %size_.i27, align 8
  %call.i29 = call noundef ptr @_ZNKSt7__cxx1112basic_stringIcSt11char_traitsIcESaIcEE4dataEv(ptr noundef nonnull align 8 dereferenceable(32) %target) #18
  store ptr %call.i29, ptr %ref.tmp24, align 8
  %size_.i30 = getelementptr inbounds i8, ptr %ref.tmp24, i64 8
  %call2.i31 = call noundef i64 @_ZNKSt7__cxx1112basic_stringIcSt11char_traitsIcESaIcEE4sizeEv(ptr noundef nonnull align 8 dereferenceable(32) %target) #18
  store i64 %call2.i31, ptr %size_.i30, align 8
  invoke void @_ZN7rocksdb6StatusC2ENS0_4CodeENS0_7SubCodeERKNS_5SliceES5_NS0_8SeverityE(ptr noundef nonnull align 8 dereferenceable(16) %agg.result, i8 noundef zeroext 4, i8 noundef zeroext 0, ptr noundef nonnull align 8 dereferenceable(16) %ref.tmp22, ptr noundef nonnull align 8 dereferenceable(16) %ref.tmp24, i8 noundef zeroext 0)
          to label %cleanup unwind label %lpad

cleanup:                                          ; preds = %if.else21, %if.then3, %invoke.cont19
  call void @_ZNSt7__cxx1112basic_stringIcSt11char_traitsIcESaIcEED1Ev(ptr noundef nonnull align 8 dereferenceable(32) %errmsg) #18
  br label %cleanup46

ehcleanup27:                                      ; preds = %ehcleanup20, %lpad
  %.pn12 = phi { ptr, i32 } [ %5, %lpad ], [ %.pn9.pn, %ehcleanup20 ]
  call void @_ZNSt7__cxx1112basic_stringIcSt11char_traitsIcESaIcEED1Ev(ptr noundef nonnull align 8 dereferenceable(32) %errmsg) #18
  br label %ehcleanup47

if.else28:                                        ; preds = %_ZNSt10unique_ptrIN7rocksdb16CompactionFilterESt14default_deleteIS1_EE5resetEPS1_.exit
  call void @_ZNSaIcEC1Ev(ptr noundef nonnull align 1 dereferenceable(1) %ref.tmp32) #18
  %call.i3439 = invoke noundef ptr @_ZNSt7__cxx1112basic_stringIcSt11char_traitsIcESaIcEE13_M_local_dataEv(ptr noundef nonnull align 8 dereferenceable(32) %ref.tmp31)
          to label %call.i34.noexc unwind label %lpad33

call.i34.noexc:                                   ; preds = %if.else28
  invoke void @_ZNSt7__cxx1112basic_stringIcSt11char_traitsIcESaIcEE12_Alloc_hiderC1EPcRKS3_(ptr noundef nonnull align 8 dereferenceable(8) %ref.tmp31, ptr noundef %call.i3439, ptr noundef nonnull align 1 dereferenceable(1) %ref.tmp32)
          to label %.noexc40 unwind label %lpad33

.noexc40:                                         ; preds = %call.i34.noexc
  invoke void @_ZNSt7__cxx1112basic_stringIcSt11char_traitsIcESaIcEE12_M_constructIPKcEEvT_S8_St20forward_iterator_tag(ptr noundef nonnull align 8 dereferenceable(32) %ref.tmp31, ptr noundef nonnull @.str.8, ptr noundef nonnull getelementptr inbounds ([16 x i8], ptr @.str.8, i64 0, i64 15))
          to label %invoke.cont34 unwind label %lpad.i38

lpad.i38:                                         ; preds = %.noexc40
  %10 = landingpad { ptr, i32 }
          cleanup
  call void @_ZNSaIcED2Ev(ptr noundef nonnull align 1 dereferenceable(1) %ref.tmp31) #18
  br label %ehcleanup45

invoke.cont34:                                    ; preds = %.noexc40
  %call.i4344 = invoke noundef nonnull align 8 dereferenceable(32) ptr @_ZNSt7__cxx1112basic_stringIcSt11char_traitsIcESaIcEE6appendEPKc(ptr noundef nonnull align 8 dereferenceable(32) %ref.tmp31, ptr noundef nonnull @.str.2)
          to label %invoke.cont37 unwind label %lpad36

invoke.cont37:                                    ; preds = %invoke.cont34
  call void @_ZNSt7__cxx1112basic_stringIcSt11char_traitsIcESaIcEEC1EOS4_(ptr noundef nonnull align 8 dereferenceable(32) %ref.tmp30, ptr noundef nonnull align 8 dereferenceable(32) %call.i4344) #18
  %call.i46 = call noundef ptr @_ZNKSt7__cxx1112basic_stringIcSt11char_traitsIcESaIcEE4dataEv(ptr noundef nonnull align 8 dereferenceable(32) %ref.tmp30) #18
  store ptr %call.i46, ptr %ref.tmp29, align 8
  %size_.i47 = getelementptr inbounds i8, ptr %ref.tmp29, i64 8
  %call2.i48 = call noundef i64 @_ZNKSt7__cxx1112basic_stringIcSt11char_traitsIcESaIcEE4sizeEv(ptr noundef nonnull align 8 dereferenceable(32) %ref.tmp30) #18
  store i64 %call2.i48, ptr %size_.i47, align 8
  %call.i49 = call noundef ptr @_ZNKSt7__cxx1112basic_stringIcSt11char_traitsIcESaIcEE4dataEv(ptr noundef nonnull align 8 dereferenceable(32) %target) #18
  store ptr %call.i49, ptr %ref.tmp40, align 8
  %size_.i50 = getelementptr inbounds i8, ptr %ref.tmp40, i64 8
  %call2.i51 = call noundef i64 @_ZNKSt7__cxx1112basic_stringIcSt11char_traitsIcESaIcEE4sizeEv(ptr noundef nonnull align 8 dereferenceable(32) %target) #18
  store i64 %call2.i51, ptr %size_.i50, align 8
  invoke void @_ZN7rocksdb6StatusC2ENS0_4CodeENS0_7SubCodeERKNS_5SliceES5_NS0_8SeverityE(ptr noundef nonnull align 8 dereferenceable(16) %agg.result, i8 noundef zeroext 3, i8 noundef zeroext 0, ptr noundef nonnull align 8 dereferenceable(16) %ref.tmp29, ptr noundef nonnull align 8 dereferenceable(16) %ref.tmp40, i8 noundef zeroext 0)
          to label %invoke.cont42 unwind label %lpad38

invoke.cont42:                                    ; preds = %invoke.cont37
  call void @_ZNSt7__cxx1112basic_stringIcSt11char_traitsIcESaIcEED1Ev(ptr noundef nonnull align 8 dereferenceable(32) %ref.tmp30) #18
  call void @_ZNSt7__cxx1112basic_stringIcSt11char_traitsIcESaIcEED1Ev(ptr noundef nonnull align 8 dereferenceable(32) %ref.tmp31) #18
  call void @_ZNSaIcED1Ev(ptr noundef nonnull align 1 dereferenceable(1) %ref.tmp32) #18
  br label %cleanup46

lpad33:                                           ; preds = %call.i34.noexc, %if.else28
  %11 = landingpad { ptr, i32 }
          cleanup
  br label %ehcleanup45

lpad36:                                           ; preds = %invoke.cont34
  %12 = landingpad { ptr, i32 }
          cleanup
  br label %ehcleanup44

lpad38:                                           ; preds = %invoke.cont37
  %13 = landingpad { ptr, i32 }
          cleanup
  call void @_ZNSt7__cxx1112basic_stringIcSt11char_traitsIcESaIcEED1Ev(ptr noundef nonnull align 8 dereferenceable(32) %ref.tmp30) #18
  br label %ehcleanup44

ehcleanup44:                                      ; preds = %lpad38, %lpad36
  %.pn = phi { ptr, i32 } [ %13, %lpad38 ], [ %12, %lpad36 ]
  call void @_ZNSt7__cxx1112basic_stringIcSt11char_traitsIcESaIcEED1Ev(ptr noundef nonnull align 8 dereferenceable(32) %ref.tmp31) #18
  br label %ehcleanup45

ehcleanup45:                                      ; preds = %lpad33, %lpad.i38, %ehcleanup44
  %.pn.pn = phi { ptr, i32 } [ %.pn, %ehcleanup44 ], [ %11, %lpad33 ], [ %10, %lpad.i38 ]
  call void @_ZNSaIcED1Ev(ptr noundef nonnull align 1 dereferenceable(1) %ref.tmp32) #18
  br label %ehcleanup47

cleanup46:                                        ; preds = %invoke.cont42, %cleanup
  %14 = load ptr, ptr %_M_manager.i.i.i, align 8
  %tobool.not.i.i54 = icmp eq ptr %14, null
  br i1 %tobool.not.i.i54, label %_ZNSt8functionIFPN7rocksdb16CompactionFilterERKNSt7__cxx1112basic_stringIcSt11char_traitsIcESaIcEEEPSt10unique_ptrIS1_St14default_deleteIS1_EEPS8_EED2Ev.exit, label %if.then.i.i

if.then.i.i:                                      ; preds = %cleanup46
  %call.i.i55 = invoke noundef zeroext i1 %14(ptr noundef nonnull align 8 dereferenceable(16) %factory, ptr noundef nonnull align 8 dereferenceable(16) %factory, i32 noundef 3)
          to label %_ZNSt8functionIFPN7rocksdb16CompactionFilterERKNSt7__cxx1112basic_stringIcSt11char_traitsIcESaIcEEEPSt10unique_ptrIS1_St14default_deleteIS1_EEPS8_EED2Ev.exit unwind label %terminate.lpad.i.i

terminate.lpad.i.i:                               ; preds = %if.then.i.i
  %15 = landingpad { ptr, i32 }
          catch ptr null
  %16 = extractvalue { ptr, i32 } %15, 0
  call void @__clang_call_terminate(ptr %16) #20
  unreachable

_ZNSt8functionIFPN7rocksdb16CompactionFilterERKNSt7__cxx1112basic_stringIcSt11char_traitsIcESaIcEEEPSt10unique_ptrIS1_St14default_deleteIS1_EEPS8_EED2Ev.exit: ; preds = %cleanup46, %if.then.i.i
  ret void

ehcleanup47:                                      ; preds = %ehcleanup45, %ehcleanup27
  %.pn12.pn = phi { ptr, i32 } [ %.pn12, %ehcleanup27 ], [ %.pn.pn, %ehcleanup45 ]
  %17 = load ptr, ptr %_M_manager.i.i.i, align 8
  %tobool.not.i.i57 = icmp eq ptr %17, null
  br i1 %tobool.not.i.i57, label %_ZNSt8functionIFPN7rocksdb16CompactionFilterERKNSt7__cxx1112basic_stringIcSt11char_traitsIcESaIcEEEPSt10unique_ptrIS1_St14default_deleteIS1_EEPS8_EED2Ev.exit61, label %if.then.i.i58

if.then.i.i58:                                    ; preds = %ehcleanup47
  %call.i.i59 = invoke noundef zeroext i1 %17(ptr noundef nonnull align 8 dereferenceable(16) %factory, ptr noundef nonnull align 8 dereferenceable(16) %factory, i32 noundef 3)
          to label %_ZNSt8functionIFPN7rocksdb16CompactionFilterERKNSt7__cxx1112basic_stringIcSt11char_traitsIcESaIcEEEPSt10unique_ptrIS1_St14default_deleteIS1_EEPS8_EED2Ev.exit61 unwind label %terminate.lpad.i.i60

terminate.lpad.i.i60:                             ; preds = %if.then.i.i58
  %18 = landingpad { ptr, i32 }
          catch ptr null
  %19 = extractvalue { ptr, i32 } %18, 0
  call void @__clang_call_terminate(ptr %19) #20
  unreachable

_ZNSt8functionIFPN7rocksdb16CompactionFilterERKNSt7__cxx1112basic_stringIcSt11char_traitsIcESaIcEEEPSt10unique_ptrIS1_St14default_deleteIS1_EEPS8_EED2Ev.exit61: ; preds = %ehcleanup47, %if.then.i.i58
  resume { ptr, i32 } %.pn12.pn
}

; Function Attrs: mustprogress uwtable
define linkonce_odr void @_ZNK7rocksdb14ObjectRegistry11FindFactoryINS_16CompactionFilterEEEKSt8functionIFPT_RKNSt7__cxx1112basic_stringIcSt11char_traitsIcESaIcEEEPSt10unique_ptrIS4_St14default_deleteIS4_EEPSB_EESD_(ptr noalias sret(%"class.std::function") align 8 %agg.result, ptr noundef nonnull align 8 dereferenceable(192) %this, ptr noundef nonnull align 8 dereferenceable(32) %name) local_unnamed_addr #0 comdat align 2 personality ptr @__gxx_personality_v0 {
entry:
  %_M_manager.i.i.i = getelementptr inbounds i8, ptr %agg.result, i64 16
  br label %tailrecurse

tailrecurse:                                      ; preds = %cleanup.cont12, %entry
  %this.tr = phi ptr [ %this, %entry ], [ %5, %cleanup.cont12 ]
  %library_mutex_ = getelementptr inbounds i8, ptr %this.tr, i64 152
  %call1.i.i.i.i = tail call noundef i32 @pthread_mutex_lock(ptr noundef nonnull %library_mutex_) #18
  %tobool.not.i.i.i = icmp eq i32 %call1.i.i.i.i, 0
  br i1 %tobool.not.i.i.i, label %_ZNSt11unique_lockISt5mutexEC2ERS0_.exit, label %if.then.i.i.i

if.then.i.i.i:                                    ; preds = %tailrecurse
  tail call void @_ZSt20__throw_system_errori(i32 noundef %call1.i.i.i.i) #17
  unreachable

_ZNSt11unique_lockISt5mutexEC2ERS0_.exit:         ; preds = %tailrecurse
  %_M_finish.i.i = getelementptr inbounds i8, ptr %this.tr, i64 8
  %0 = load ptr, ptr %_M_finish.i.i, align 8, !noalias !46
  br label %invoke.cont

invoke.cont:                                      ; preds = %invoke.cont6, %_ZNSt11unique_lockISt5mutexEC2ERS0_.exit
  %iter.sroa.0.0 = phi ptr [ %0, %_ZNSt11unique_lockISt5mutexEC2ERS0_.exit ], [ %incdec.ptr.i.i, %invoke.cont6 ]
  %1 = load ptr, ptr %this.tr, align 8, !noalias !49
  %cmp.i.i.i.not = icmp eq ptr %iter.sroa.0.0, %1
  br i1 %cmp.i.i.i.not, label %cleanup.cont12, label %invoke.cont3

invoke.cont3:                                     ; preds = %invoke.cont
  %incdec.ptr.i.i = getelementptr inbounds i8, ptr %iter.sroa.0.0, i64 -16
  %2 = load ptr, ptr %incdec.ptr.i.i, align 8
  invoke void @_ZNK7rocksdb13ObjectLibrary11FindFactoryINS_16CompactionFilterEEESt8functionIFPT_RKNSt7__cxx1112basic_stringIcSt11char_traitsIcESaIcEEEPSt10unique_ptrIS4_St14default_deleteIS4_EEPSB_EESD_(ptr sret(%"class.std::function") align 8 %agg.result, ptr noundef nonnull align 8 dereferenceable(128) %2, ptr noundef nonnull align 8 dereferenceable(32) %name)
          to label %invoke.cont6 unwind label %_ZNSt11unique_lockISt5mutexED2Ev.exit

invoke.cont6:                                     ; preds = %invoke.cont3
  %3 = load ptr, ptr %_M_manager.i.i.i, align 8
  %tobool.not.i.i.i3.not = icmp eq ptr %3, null
  br i1 %tobool.not.i.i.i3.not, label %invoke.cont, label %_ZNSt11unique_lockISt5mutexED2Ev.exit13, !llvm.loop !52

_ZNSt11unique_lockISt5mutexED2Ev.exit:            ; preds = %invoke.cont3
  %4 = landingpad { ptr, i32 }
          cleanup
  %call1.i.i.i.i5 = tail call noundef i32 @pthread_mutex_unlock(ptr noundef nonnull %library_mutex_) #18
  resume { ptr, i32 } %4

_ZNSt11unique_lockISt5mutexED2Ev.exit13:          ; preds = %invoke.cont6
  %call1.i.i.i.i12 = tail call noundef i32 @pthread_mutex_unlock(ptr noundef nonnull %library_mutex_) #18
  br label %return

cleanup.cont12:                                   ; preds = %invoke.cont
  %call1.i.i.i.i1216 = tail call noundef i32 @pthread_mutex_unlock(ptr noundef nonnull %library_mutex_) #18
  %parent_ = getelementptr inbounds i8, ptr %this.tr, i64 96
  %5 = load ptr, ptr %parent_, align 8
  %cmp.i.not.i = icmp eq ptr %5, null
  br i1 %cmp.i.not.i, label %if.then14, label %tailrecurse

if.then14:                                        ; preds = %cleanup.cont12
  tail call void @llvm.memset.p0.i64(ptr noundef nonnull align 8 dereferenceable(32) %agg.result, i8 0, i64 32, i1 false)
  br label %return

return:                                           ; preds = %_ZNSt11unique_lockISt5mutexED2Ev.exit13, %if.then14
  ret void
}

; Function Attrs: mustprogress uwtable
define linkonce_odr void @_ZNK7rocksdb13ObjectLibrary11FindFactoryINS_16CompactionFilterEEESt8functionIFPT_RKNSt7__cxx1112basic_stringIcSt11char_traitsIcESaIcEEEPSt10unique_ptrIS4_St14default_deleteIS4_EEPSB_EESD_(ptr noalias sret(%"class.std::function") align 8 %agg.result, ptr noundef nonnull align 8 dereferenceable(128) %this, ptr noundef nonnull align 8 dereferenceable(32) %target) local_unnamed_addr #0 comdat align 2 personality ptr @__gxx_personality_v0 {
entry:
  %ref.tmp = alloca %"class.std::__cxx11::basic_string", align 8
  %ref.tmp2 = alloca %"class.std::allocator", align 1
  %call1.i.i.i.i = tail call noundef i32 @pthread_mutex_lock(ptr noundef nonnull %this) #18
  %tobool.not.i.i.i = icmp eq i32 %call1.i.i.i.i, 0
  br i1 %tobool.not.i.i.i, label %_ZNSt11unique_lockISt5mutexEC2ERS0_.exit, label %if.then.i.i.i

if.then.i.i.i:                                    ; preds = %entry
  tail call void @_ZSt20__throw_system_errori(i32 noundef %call1.i.i.i.i) #17
  unreachable

_ZNSt11unique_lockISt5mutexEC2ERS0_.exit:         ; preds = %entry
  %factories_ = getelementptr inbounds i8, ptr %this, i64 40
  call void @_ZNSaIcEC1Ev(ptr noundef nonnull align 1 dereferenceable(1) %ref.tmp2) #18
  %call.i6 = invoke noundef ptr @_ZNSt7__cxx1112basic_stringIcSt11char_traitsIcESaIcEE13_M_local_dataEv(ptr noundef nonnull align 8 dereferenceable(32) %ref.tmp)
          to label %call.i.noexc unwind label %lpad

call.i.noexc:                                     ; preds = %_ZNSt11unique_lockISt5mutexEC2ERS0_.exit
  invoke void @_ZNSt7__cxx1112basic_stringIcSt11char_traitsIcESaIcEE12_Alloc_hiderC1EPcRKS3_(ptr noundef nonnull align 8 dereferenceable(8) %ref.tmp, ptr noundef %call.i6, ptr noundef nonnull align 1 dereferenceable(1) %ref.tmp2)
          to label %.noexc unwind label %lpad

.noexc:                                           ; preds = %call.i.noexc
  invoke void @_ZNSt7__cxx1112basic_stringIcSt11char_traitsIcESaIcEE12_M_constructIPKcEEvT_S8_St20forward_iterator_tag(ptr noundef nonnull align 8 dereferenceable(32) %ref.tmp, ptr noundef nonnull @.str.2, ptr noundef nonnull getelementptr inbounds ([17 x i8], ptr @.str.2, i64 0, i64 16))
          to label %invoke.cont unwind label %lpad.i

lpad.i:                                           ; preds = %.noexc
  %0 = landingpad { ptr, i32 }
          cleanup
  call void @_ZNSaIcED2Ev(ptr noundef nonnull align 1 dereferenceable(1) %ref.tmp) #18
  br label %ehcleanup

invoke.cont:                                      ; preds = %.noexc
  %call.i8 = invoke ptr @_ZNKSt10_HashtableINSt7__cxx1112basic_stringIcSt11char_traitsIcESaIcEEESt4pairIKS5_St6vectorISt10unique_ptrIN7rocksdb13ObjectLibrary5EntryESt14default_deleteISC_EESaISF_EEESaISI_ENSt8__detail10_Select1stESt8equal_toIS5_ESt4hashIS5_ENSK_18_Mod_range_hashingENSK_20_Default_ranged_hashENSK_20_Prime_rehash_policyENSK_17_Hashtable_traitsILb1ELb0ELb1EEEE4findERS7_(ptr noundef nonnull align 8 dereferenceable(56) %factories_, ptr noundef nonnull align 8 dereferenceable(32) %ref.tmp)
          to label %invoke.cont4 unwind label %lpad3

invoke.cont4:                                     ; preds = %invoke.cont
  call void @_ZNSt7__cxx1112basic_stringIcSt11char_traitsIcESaIcEED1Ev(ptr noundef nonnull align 8 dereferenceable(32) %ref.tmp) #18
  call void @_ZNSaIcED1Ev(ptr noundef nonnull align 1 dereferenceable(1) %ref.tmp2) #18
  %cmp.i.not = icmp eq ptr %call.i8, null
  br i1 %cmp.i.not, label %if.end30, label %if.then

if.then:                                          ; preds = %invoke.cont4
  %second = getelementptr inbounds i8, ptr %call.i8, i64 40
  %1 = load ptr, ptr %second, align 8
  %_M_finish.i = getelementptr inbounds i8, ptr %call.i8, i64 48
  %2 = load ptr, ptr %_M_finish.i, align 8
  %cmp.i10.not30 = icmp eq ptr %1, %2
  br i1 %cmp.i10.not30, label %if.end30, label %for.body

for.body:                                         ; preds = %if.then, %for.inc
  %__begin0.sroa.0.031 = phi ptr [ %incdec.ptr.i, %for.inc ], [ %1, %if.then ]
  %3 = load ptr, ptr %__begin0.sroa.0.031, align 8
  %vtable = load ptr, ptr %3, align 8
  %vfn = getelementptr inbounds i8, ptr %vtable, i64 16
  %4 = load ptr, ptr %vfn, align 8
  %call23 = invoke noundef zeroext i1 %4(ptr noundef nonnull align 8 dereferenceable(8) %3, ptr noundef nonnull align 8 dereferenceable(32) %target)
          to label %invoke.cont22 unwind label %lpad21

invoke.cont22:                                    ; preds = %for.body
  br i1 %call23, label %if.then24, label %for.inc

if.then24:                                        ; preds = %invoke.cont22
  %5 = load ptr, ptr %__begin0.sroa.0.031, align 8
  %_M_manager.i.i = getelementptr inbounds i8, ptr %agg.result, i64 16
  %_M_invoker.i = getelementptr inbounds i8, ptr %agg.result, i64 24
  %_M_manager.i.i.i = getelementptr inbounds i8, ptr %5, i64 32
  call void @llvm.memset.p0.i64(ptr noundef nonnull align 8 dereferenceable(32) %agg.result, i8 0, i64 32, i1 false)
  %6 = load ptr, ptr %_M_manager.i.i.i, align 8
  %tobool.not.i.i.not.i = icmp eq ptr %6, null
  br i1 %tobool.not.i.i.not.i, label %_ZNSt11unique_lockISt5mutexED2Ev.exit, label %if.then.i

if.then.i:                                        ; preds = %if.then24
  %factory_.i = getelementptr inbounds i8, ptr %5, i64 16
  %call3.i = invoke noundef zeroext i1 %6(ptr noundef nonnull align 8 dereferenceable(16) %agg.result, ptr noundef nonnull align 8 dereferenceable(16) %factory_.i, i32 noundef 2)
          to label %invoke.cont.i unwind label %lpad.i11

invoke.cont.i:                                    ; preds = %if.then.i
  %_M_invoker4.i = getelementptr inbounds i8, ptr %5, i64 40
  %7 = load ptr, ptr %_M_invoker4.i, align 8
  store ptr %7, ptr %_M_invoker.i, align 8
  %8 = load ptr, ptr %_M_manager.i.i.i, align 8
  store ptr %8, ptr %_M_manager.i.i, align 8
  br label %_ZNSt11unique_lockISt5mutexED2Ev.exit

lpad.i11:                                         ; preds = %if.then.i
  %9 = landingpad { ptr, i32 }
          cleanup
  %10 = load ptr, ptr %_M_manager.i.i, align 8
  %tobool.not.i.i = icmp eq ptr %10, null
  br i1 %tobool.not.i.i, label %_ZNSt11unique_lockISt5mutexED2Ev.exit22, label %if.then.i.i

if.then.i.i:                                      ; preds = %lpad.i11
  %call.i.i12 = invoke noundef zeroext i1 %10(ptr noundef nonnull align 8 dereferenceable(16) %agg.result, ptr noundef nonnull align 8 dereferenceable(16) %agg.result, i32 noundef 3)
          to label %_ZNSt11unique_lockISt5mutexED2Ev.exit22 unwind label %terminate.lpad.i.i

terminate.lpad.i.i:                               ; preds = %if.then.i.i
  %11 = landingpad { ptr, i32 }
          catch ptr null
  %12 = extractvalue { ptr, i32 } %11, 0
  call void @__clang_call_terminate(ptr %12) #20
  unreachable

lpad:                                             ; preds = %call.i.noexc, %_ZNSt11unique_lockISt5mutexEC2ERS0_.exit
  %13 = landingpad { ptr, i32 }
          cleanup
  br label %ehcleanup

lpad3:                                            ; preds = %invoke.cont
  %14 = landingpad { ptr, i32 }
          cleanup
  call void @_ZNSt7__cxx1112basic_stringIcSt11char_traitsIcESaIcEED1Ev(ptr noundef nonnull align 8 dereferenceable(32) %ref.tmp) #18
  br label %ehcleanup

ehcleanup:                                        ; preds = %lpad, %lpad.i, %lpad3
  %.pn = phi { ptr, i32 } [ %14, %lpad3 ], [ %13, %lpad ], [ %0, %lpad.i ]
  call void @_ZNSaIcED1Ev(ptr noundef nonnull align 1 dereferenceable(1) %ref.tmp2) #18
  br label %_ZNSt11unique_lockISt5mutexED2Ev.exit22

lpad21:                                           ; preds = %for.body
  %15 = landingpad { ptr, i32 }
          cleanup
  br label %_ZNSt11unique_lockISt5mutexED2Ev.exit22

for.inc:                                          ; preds = %invoke.cont22
  %incdec.ptr.i = getelementptr inbounds i8, ptr %__begin0.sroa.0.031, i64 8
  %cmp.i10.not = icmp eq ptr %incdec.ptr.i, %2
  br i1 %cmp.i10.not, label %if.end30, label %for.body

if.end30:                                         ; preds = %for.inc, %if.then, %invoke.cont4
  call void @llvm.memset.p0.i64(ptr noundef nonnull align 8 dereferenceable(32) %agg.result, i8 0, i64 32, i1 false)
  br label %_ZNSt11unique_lockISt5mutexED2Ev.exit

_ZNSt11unique_lockISt5mutexED2Ev.exit:            ; preds = %if.end30, %if.then24, %invoke.cont.i
  %call1.i.i.i.i15 = call noundef i32 @pthread_mutex_unlock(ptr noundef nonnull %this) #18
  ret void

_ZNSt11unique_lockISt5mutexED2Ev.exit22:          ; preds = %ehcleanup, %lpad.i11, %if.then.i.i, %lpad21
  %.pn4 = phi { ptr, i32 } [ %.pn, %ehcleanup ], [ %15, %lpad21 ], [ %9, %if.then.i.i ], [ %9, %lpad.i11 ]
  %call1.i.i.i.i21 = call noundef i32 @pthread_mutex_unlock(ptr noundef nonnull %this) #18
  resume { ptr, i32 } %.pn4
}

; Function Attrs: mustprogress uwtable
define linkonce_odr ptr @_ZNKSt10_HashtableINSt7__cxx1112basic_stringIcSt11char_traitsIcESaIcEEESt4pairIKS5_St6vectorISt10unique_ptrIN7rocksdb13ObjectLibrary5EntryESt14default_deleteISC_EESaISF_EEESaISI_ENSt8__detail10_Select1stESt8equal_toIS5_ESt4hashIS5_ENSK_18_Mod_range_hashingENSK_20_Default_ranged_hashENSK_20_Prime_rehash_policyENSK_17_Hashtable_traitsILb1ELb0ELb1EEEE4findERS7_(ptr noundef nonnull align 8 dereferenceable(56) %this, ptr noundef nonnull align 8 dereferenceable(32) %__k) local_unnamed_addr #0 comdat align 2 personality ptr @__gxx_personality_v0 {
entry:
  %_M_element_count.i = getelementptr inbounds i8, ptr %this, i64 24
  %0 = load i64, ptr %_M_element_count.i, align 8
  %cmp.not = icmp ugt i64 %0, 20
  br i1 %cmp.not, label %if.end15, label %if.then

if.then:                                          ; preds = %entry
  %_M_before_begin.i.i = getelementptr inbounds i8, ptr %this, i64 16
  %retval.sroa.0.08 = load ptr, ptr %_M_before_begin.i.i, align 8
  %cmp.i.not9 = icmp eq ptr %retval.sroa.0.08, null
  br i1 %cmp.i.not9, label %return, label %for.body

for.body:                                         ; preds = %if.then, %for.inc
  %retval.sroa.0.010 = phi ptr [ %retval.sroa.0.0, %for.inc ], [ %retval.sroa.0.08, %if.then ]
  %add.ptr = getelementptr inbounds i8, ptr %retval.sroa.0.010, i64 8
  %call.i.i.i = tail call noundef i64 @_ZNKSt7__cxx1112basic_stringIcSt11char_traitsIcESaIcEE4sizeEv(ptr noundef nonnull align 8 dereferenceable(32) %__k) #18
  %call1.i.i.i = tail call noundef i64 @_ZNKSt7__cxx1112basic_stringIcSt11char_traitsIcESaIcEE4sizeEv(ptr noundef nonnull align 8 dereferenceable(32) %add.ptr) #18
  %cmp.i.i.i = icmp eq i64 %call.i.i.i, %call1.i.i.i
  br i1 %cmp.i.i.i, label %land.rhs.i.i.i, label %for.inc

land.rhs.i.i.i:                                   ; preds = %for.body
  %call2.i.i.i = tail call noundef ptr @_ZNKSt7__cxx1112basic_stringIcSt11char_traitsIcESaIcEE4dataEv(ptr noundef nonnull align 8 dereferenceable(32) %__k) #18
  %call3.i.i.i = tail call noundef ptr @_ZNKSt7__cxx1112basic_stringIcSt11char_traitsIcESaIcEE4dataEv(ptr noundef nonnull align 8 dereferenceable(32) %add.ptr) #18
  %call4.i.i.i = tail call noundef i64 @_ZNKSt7__cxx1112basic_stringIcSt11char_traitsIcESaIcEE4sizeEv(ptr noundef nonnull align 8 dereferenceable(32) %__k) #18
  %cmp.i.i.i.i = icmp eq i64 %call4.i.i.i, 0
  br i1 %cmp.i.i.i.i, label %return, label %_ZNKSt8__detail15_Hashtable_baseINSt7__cxx1112basic_stringIcSt11char_traitsIcESaIcEEESt4pairIKS6_St6vectorISt10unique_ptrIN7rocksdb13ObjectLibrary5EntryESt14default_deleteISD_EESaISG_EEENS_10_Select1stESt8equal_toIS6_ESt4hashIS6_ENS_18_Mod_range_hashingENS_20_Default_ranged_hashENS_17_Hashtable_traitsILb1ELb0ELb1EEEE13_M_key_equalsERS8_RKNS_16_Hash_node_valueISJ_Lb1EEE.exit

_ZNKSt8__detail15_Hashtable_baseINSt7__cxx1112basic_stringIcSt11char_traitsIcESaIcEEESt4pairIKS6_St6vectorISt10unique_ptrIN7rocksdb13ObjectLibrary5EntryESt14default_deleteISD_EESaISG_EEENS_10_Select1stESt8equal_toIS6_ESt4hashIS6_ENS_18_Mod_range_hashingENS_20_Default_ranged_hashENS_17_Hashtable_traitsILb1ELb0ELb1EEEE13_M_key_equalsERS8_RKNS_16_Hash_node_valueISJ_Lb1EEE.exit: ; preds = %land.rhs.i.i.i
  %bcmp.i.i.i = tail call i32 @bcmp(ptr %call2.i.i.i, ptr %call3.i.i.i, i64 %call4.i.i.i)
  %1 = icmp eq i32 %bcmp.i.i.i, 0
  br i1 %1, label %return, label %for.inc

for.inc:                                          ; preds = %for.body, %_ZNKSt8__detail15_Hashtable_baseINSt7__cxx1112basic_stringIcSt11char_traitsIcESaIcEEESt4pairIKS6_St6vectorISt10unique_ptrIN7rocksdb13ObjectLibrary5EntryESt14default_deleteISD_EESaISG_EEENS_10_Select1stESt8equal_toIS6_ESt4hashIS6_ENS_18_Mod_range_hashingENS_20_Default_ranged_hashENS_17_Hashtable_traitsILb1ELb0ELb1EEEE13_M_key_equalsERS8_RKNS_16_Hash_node_valueISJ_Lb1EEE.exit
  %retval.sroa.0.0 = load ptr, ptr %retval.sroa.0.010, align 8
  %cmp.i.not = icmp eq ptr %retval.sroa.0.0, null
  br i1 %cmp.i.not, label %return, label %for.body, !llvm.loop !53

if.end15:                                         ; preds = %entry
  %call.i.i = tail call noundef ptr @_ZNKSt7__cxx1112basic_stringIcSt11char_traitsIcESaIcEE4dataEv(ptr noundef nonnull align 8 dereferenceable(32) %__k) #18
  %call2.i.i = tail call noundef i64 @_ZNKSt7__cxx1112basic_stringIcSt11char_traitsIcESaIcEE6lengthEv(ptr noundef nonnull align 8 dereferenceable(32) %__k) #18
  %call.i2.i.i = invoke noundef i64 @_ZSt11_Hash_bytesPKvmm(ptr noundef %call.i.i, i64 noundef %call2.i.i, i64 noundef 3339675911)
          to label %_ZNKSt8__detail15_Hash_code_baseINSt7__cxx1112basic_stringIcSt11char_traitsIcESaIcEEESt4pairIKS6_St6vectorISt10unique_ptrIN7rocksdb13ObjectLibrary5EntryESt14default_deleteISD_EESaISG_EEENS_10_Select1stESt4hashIS6_ENS_18_Mod_range_hashingENS_20_Default_ranged_hashELb1EE12_M_hash_codeERS8_.exit unwind label %terminate.lpad.i.i

terminate.lpad.i.i:                               ; preds = %if.end15
  %2 = landingpad { ptr, i32 }
          catch ptr null
  %3 = extractvalue { ptr, i32 } %2, 0
  tail call void @__clang_call_terminate(ptr %3) #20
  unreachable

_ZNKSt8__detail15_Hash_code_baseINSt7__cxx1112basic_stringIcSt11char_traitsIcESaIcEEESt4pairIKS6_St6vectorISt10unique_ptrIN7rocksdb13ObjectLibrary5EntryESt14default_deleteISD_EESaISG_EEENS_10_Select1stESt4hashIS6_ENS_18_Mod_range_hashingENS_20_Default_ranged_hashELb1EE12_M_hash_codeERS8_.exit: ; preds = %if.end15
  %_M_bucket_count.i = getelementptr inbounds i8, ptr %this, i64 8
  %4 = load i64, ptr %_M_bucket_count.i, align 8
  %rem.i.i.i = urem i64 %call.i2.i.i, %4
  %call.i = tail call noundef ptr @_ZNKSt10_HashtableINSt7__cxx1112basic_stringIcSt11char_traitsIcESaIcEEESt4pairIKS5_St6vectorISt10unique_ptrIN7rocksdb13ObjectLibrary5EntryESt14default_deleteISC_EESaISF_EEESaISI_ENSt8__detail10_Select1stESt8equal_toIS5_ESt4hashIS5_ENSK_18_Mod_range_hashingENSK_20_Default_ranged_hashENSK_20_Prime_rehash_policyENSK_17_Hashtable_traitsILb1ELb0ELb1EEEE19_M_find_before_nodeEmRS7_m(ptr noundef nonnull align 8 dereferenceable(56) %this, i64 noundef %rem.i.i.i, ptr noundef nonnull align 8 dereferenceable(32) %__k, i64 noundef %call.i2.i.i)
  %tobool.not.i = icmp eq ptr %call.i, null
  br i1 %tobool.not.i, label %return, label %if.then.i

if.then.i:                                        ; preds = %_ZNKSt8__detail15_Hash_code_baseINSt7__cxx1112basic_stringIcSt11char_traitsIcESaIcEEESt4pairIKS6_St6vectorISt10unique_ptrIN7rocksdb13ObjectLibrary5EntryESt14default_deleteISD_EESaISG_EEENS_10_Select1stESt4hashIS6_ENS_18_Mod_range_hashingENS_20_Default_ranged_hashELb1EE12_M_hash_codeERS8_.exit
  %5 = load ptr, ptr %call.i, align 8
  br label %return

return:                                           ; preds = %_ZNKSt8__detail15_Hashtable_baseINSt7__cxx1112basic_stringIcSt11char_traitsIcESaIcEEESt4pairIKS6_St6vectorISt10unique_ptrIN7rocksdb13ObjectLibrary5EntryESt14default_deleteISD_EESaISG_EEENS_10_Select1stESt8equal_toIS6_ESt4hashIS6_ENS_18_Mod_range_hashingENS_20_Default_ranged_hashENS_17_Hashtable_traitsILb1ELb0ELb1EEEE13_M_key_equalsERS8_RKNS_16_Hash_node_valueISJ_Lb1EEE.exit, %for.inc, %land.rhs.i.i.i, %if.then, %if.then.i, %_ZNKSt8__detail15_Hash_code_baseINSt7__cxx1112basic_stringIcSt11char_traitsIcESaIcEEESt4pairIKS6_St6vectorISt10unique_ptrIN7rocksdb13ObjectLibrary5EntryESt14default_deleteISD_EESaISG_EEENS_10_Select1stESt4hashIS6_ENS_18_Mod_range_hashingENS_20_Default_ranged_hashELb1EE12_M_hash_codeERS8_.exit
  %retval.sroa.0.1 = phi ptr [ %5, %if.then.i ], [ null, %_ZNKSt8__detail15_Hash_code_baseINSt7__cxx1112basic_stringIcSt11char_traitsIcESaIcEEESt4pairIKS6_St6vectorISt10unique_ptrIN7rocksdb13ObjectLibrary5EntryESt14default_deleteISD_EESaISG_EEENS_10_Select1stESt4hashIS6_ENS_18_Mod_range_hashingENS_20_Default_ranged_hashELb1EE12_M_hash_codeERS8_.exit ], [ null, %if.then ], [ %retval.sroa.0.010, %_ZNKSt8__detail15_Hashtable_baseINSt7__cxx1112basic_stringIcSt11char_traitsIcESaIcEEESt4pairIKS6_St6vectorISt10unique_ptrIN7rocksdb13ObjectLibrary5EntryESt14default_deleteISD_EESaISG_EEENS_10_Select1stESt8equal_toIS6_ESt4hashIS6_ENS_18_Mod_range_hashingENS_20_Default_ranged_hashENS_17_Hashtable_traitsILb1ELb0ELb1EEEE13_M_key_equalsERS8_RKNS_16_Hash_node_valueISJ_Lb1EEE.exit ], [ null, %for.inc ], [ %retval.sroa.0.010, %land.rhs.i.i.i ]
  ret ptr %retval.sroa.0.1
}

; Function Attrs: noreturn
declare void @_ZSt25__throw_bad_function_callv() local_unnamed_addr #4

declare void @_ZN7rocksdb6StatusC2ENS0_4CodeENS0_7SubCodeERKNS_5SliceES5_NS0_8SeverityE(ptr noundef nonnull align 8 dereferenceable(16), i8 noundef zeroext, i8 noundef zeroext, ptr noundef nonnull align 8 dereferenceable(16), ptr noundef nonnull align 8 dereferenceable(16), i8 noundef zeroext) unnamed_addr #3

declare noundef nonnull align 8 dereferenceable(32) ptr @_ZNSt7__cxx1112basic_stringIcSt11char_traitsIcESaIcEE6appendEPKc(ptr noundef nonnull align 8 dereferenceable(32), ptr noundef) local_unnamed_addr #3

; Function Attrs: mustprogress uwtable
define linkonce_odr void @_ZN7rocksdb14ObjectRegistry15NewSharedObjectINS_23CompactionFilterFactoryEEENS_6StatusERKNSt7__cxx1112basic_stringIcSt11char_traitsIcESaIcEEEPSt10shared_ptrIT_E(ptr noalias sret(%"class.rocksdb::Status") align 8 %agg.result, ptr noundef nonnull align 8 dereferenceable(192) %this, ptr noundef nonnull align 8 dereferenceable(32) %target, ptr noundef %result) local_unnamed_addr #0 comdat align 2 personality ptr @__gxx_personality_v0 {
entry:
  %guard = alloca %"class.std::unique_ptr.98", align 8
  %ptr = alloca ptr, align 8
  %s = alloca %"class.rocksdb::Status", align 8
  %ref.tmp = alloca %"class.rocksdb::Slice", align 8
  %ref.tmp10 = alloca %"class.std::__cxx11::basic_string", align 8
  %ref.tmp11 = alloca %"class.std::__cxx11::basic_string", align 8
  %ref.tmp12 = alloca %"class.std::__cxx11::basic_string", align 8
  %ref.tmp13 = alloca %"class.std::allocator", align 1
  %ref.tmp24 = alloca %"class.rocksdb::Slice", align 8
  store ptr null, ptr %guard, align 8
  store ptr null, ptr %ptr, align 8
  invoke void @_ZN7rocksdb14ObjectRegistry9NewObjectINS_23CompactionFilterFactoryEEENS_6StatusERKNSt7__cxx1112basic_stringIcSt11char_traitsIcESaIcEEEPPT_PSt10unique_ptrISC_St14default_deleteISC_EE(ptr nonnull sret(%"class.rocksdb::Status") align 8 %s, ptr noundef nonnull align 8 dereferenceable(192) %this, ptr noundef nonnull align 8 dereferenceable(32) %target, ptr noundef nonnull %ptr, ptr noundef nonnull %guard)
          to label %invoke.cont3 unwind label %lpad

invoke.cont3:                                     ; preds = %entry
  %0 = load i8, ptr %s, align 8
  %cmp.i = icmp eq i8 %0, 0
  br i1 %cmp.i, label %if.else, label %if.then

if.then:                                          ; preds = %invoke.cont3
  %state_.i.i = getelementptr inbounds i8, ptr %agg.result, i64 8
  store ptr null, ptr %state_.i.i, align 8
  call void @llvm.memset.p0.i64(ptr noundef nonnull align 8 dereferenceable(6) %agg.result, i8 0, i64 6, i1 false)
  %cmp.not.i.i = icmp eq ptr %s, %agg.result
  br i1 %cmp.not.i.i, label %cleanup, label %if.then.i.i

if.then.i.i:                                      ; preds = %if.then
  store i8 %0, ptr %agg.result, align 8
  %subcode_.i.i = getelementptr inbounds i8, ptr %s, i64 1
  %1 = load i8, ptr %subcode_.i.i, align 1
  %subcode_4.i.i = getelementptr inbounds i8, ptr %agg.result, i64 1
  store i8 %1, ptr %subcode_4.i.i, align 1
  %sev_.i.i = getelementptr inbounds i8, ptr %s, i64 2
  %2 = load i8, ptr %sev_.i.i, align 2
  %sev_6.i.i = getelementptr inbounds i8, ptr %agg.result, i64 2
  store i8 %2, ptr %sev_6.i.i, align 2
  %retryable_.i.i = getelementptr inbounds i8, ptr %s, i64 3
  %3 = load i8, ptr %retryable_.i.i, align 1
  %4 = and i8 %3, 1
  %retryable_8.i.i = getelementptr inbounds i8, ptr %agg.result, i64 3
  store i8 %4, ptr %retryable_8.i.i, align 1
  store <4 x i8> zeroinitializer, ptr %s, align 8
  %data_loss_.i.i = getelementptr inbounds i8, ptr %s, i64 4
  %5 = load i8, ptr %data_loss_.i.i, align 4
  %6 = and i8 %5, 1
  %data_loss_11.i.i = getelementptr inbounds i8, ptr %agg.result, i64 4
  store i8 %6, ptr %data_loss_11.i.i, align 4
  store i8 0, ptr %data_loss_.i.i, align 4
  %scope_.i.i = getelementptr inbounds i8, ptr %s, i64 5
  %7 = load i8, ptr %scope_.i.i, align 1
  %scope_14.i.i = getelementptr inbounds i8, ptr %agg.result, i64 5
  store i8 %7, ptr %scope_14.i.i, align 1
  store i8 0, ptr %scope_.i.i, align 1
  %state_.i2.i = getelementptr inbounds i8, ptr %s, i64 8
  %8 = load ptr, ptr %state_.i2.i, align 8
  store ptr null, ptr %state_.i2.i, align 8
  store ptr %8, ptr %state_.i.i, align 8
  br label %cleanup

lpad:                                             ; preds = %entry
  %9 = landingpad { ptr, i32 }
          cleanup
  br label %ehcleanup31

lpad2:                                            ; preds = %if.then5
  %10 = landingpad { ptr, i32 }
          cleanup
  br label %ehcleanup29

if.else:                                          ; preds = %invoke.cont3
  %11 = load ptr, ptr %guard, align 8
  %cmp.i8.not = icmp eq ptr %11, null
  br i1 %cmp.i8.not, label %if.else9, label %if.then5

if.then5:                                         ; preds = %if.else
  store ptr null, ptr %guard, align 8
  invoke void @_ZNSt12__shared_ptrIN7rocksdb23CompactionFilterFactoryELN9__gnu_cxx12_Lock_policyE2EE5resetIS1_EENSt9enable_ifIXsr21__sp_is_constructibleIS1_T_EE5valueEvE4typeEPS7_(ptr noundef nonnull align 8 dereferenceable(16) %result, ptr noundef nonnull %11)
          to label %invoke.cont7 unwind label %lpad2

invoke.cont7:                                     ; preds = %if.then5
  %state_.i.i9 = getelementptr inbounds i8, ptr %agg.result, i64 8
  store ptr null, ptr %state_.i.i9, align 8, !alias.scope !54
  call void @llvm.memset.p0.i64(ptr noundef nonnull align 8 dereferenceable(6) %agg.result, i8 0, i64 6, i1 false), !alias.scope !54
  br label %cleanup

if.else9:                                         ; preds = %if.else
  call void @_ZNSaIcEC1Ev(ptr noundef nonnull align 1 dereferenceable(1) %ref.tmp13) #18
  %call.i10 = invoke noundef ptr @_ZNSt7__cxx1112basic_stringIcSt11char_traitsIcESaIcEE13_M_local_dataEv(ptr noundef nonnull align 8 dereferenceable(32) %ref.tmp12)
          to label %call.i.noexc unwind label %lpad14

call.i.noexc:                                     ; preds = %if.else9
  invoke void @_ZNSt7__cxx1112basic_stringIcSt11char_traitsIcESaIcEE12_Alloc_hiderC1EPcRKS3_(ptr noundef nonnull align 8 dereferenceable(8) %ref.tmp12, ptr noundef %call.i10, ptr noundef nonnull align 1 dereferenceable(1) %ref.tmp13)
          to label %.noexc unwind label %lpad14

.noexc:                                           ; preds = %call.i.noexc
  invoke void @_ZNSt7__cxx1112basic_stringIcSt11char_traitsIcESaIcEE12_M_constructIPKcEEvT_S8_St20forward_iterator_tag(ptr noundef nonnull align 8 dereferenceable(32) %ref.tmp12, ptr noundef nonnull @.str.9, ptr noundef nonnull getelementptr inbounds ([22 x i8], ptr @.str.9, i64 0, i64 21))
          to label %invoke.cont15 unwind label %lpad.i

lpad.i:                                           ; preds = %.noexc
  %12 = landingpad { ptr, i32 }
          cleanup
  call void @_ZNSaIcED2Ev(ptr noundef nonnull align 1 dereferenceable(1) %ref.tmp12) #18
  br label %ehcleanup28

invoke.cont15:                                    ; preds = %.noexc
  %call.i12 = invoke noundef nonnull align 8 dereferenceable(32) ptr @_ZNSt7__cxx1112basic_stringIcSt11char_traitsIcESaIcEE6appendEPKc(ptr noundef nonnull align 8 dereferenceable(32) %ref.tmp12, ptr noundef nonnull @.str.11)
          to label %invoke.cont19 unwind label %lpad16

invoke.cont19:                                    ; preds = %invoke.cont15
  call void @_ZNSt7__cxx1112basic_stringIcSt11char_traitsIcESaIcEEC1EOS4_(ptr noundef nonnull align 8 dereferenceable(32) %ref.tmp11, ptr noundef nonnull align 8 dereferenceable(32) %call.i12) #18
  %call.i14 = invoke noundef nonnull align 8 dereferenceable(32) ptr @_ZNSt7__cxx1112basic_stringIcSt11char_traitsIcESaIcEE6appendEPKc(ptr noundef nonnull align 8 dereferenceable(32) %ref.tmp11, ptr noundef nonnull @.str.10)
          to label %invoke.cont21 unwind label %lpad20

invoke.cont21:                                    ; preds = %invoke.cont19
  call void @_ZNSt7__cxx1112basic_stringIcSt11char_traitsIcESaIcEEC1EOS4_(ptr noundef nonnull align 8 dereferenceable(32) %ref.tmp10, ptr noundef nonnull align 8 dereferenceable(32) %call.i14) #18
  %call.i = call noundef ptr @_ZNKSt7__cxx1112basic_stringIcSt11char_traitsIcESaIcEE4dataEv(ptr noundef nonnull align 8 dereferenceable(32) %ref.tmp10) #18
  store ptr %call.i, ptr %ref.tmp, align 8
  %size_.i = getelementptr inbounds i8, ptr %ref.tmp, i64 8
  %call2.i = call noundef i64 @_ZNKSt7__cxx1112basic_stringIcSt11char_traitsIcESaIcEE4sizeEv(ptr noundef nonnull align 8 dereferenceable(32) %ref.tmp10) #18
  store i64 %call2.i, ptr %size_.i, align 8
  %call.i16 = call noundef ptr @_ZNKSt7__cxx1112basic_stringIcSt11char_traitsIcESaIcEE4dataEv(ptr noundef nonnull align 8 dereferenceable(32) %target) #18
  store ptr %call.i16, ptr %ref.tmp24, align 8
  %size_.i17 = getelementptr inbounds i8, ptr %ref.tmp24, i64 8
  %call2.i18 = call noundef i64 @_ZNKSt7__cxx1112basic_stringIcSt11char_traitsIcESaIcEE4sizeEv(ptr noundef nonnull align 8 dereferenceable(32) %target) #18
  store i64 %call2.i18, ptr %size_.i17, align 8
  invoke void @_ZN7rocksdb6StatusC2ENS0_4CodeENS0_7SubCodeERKNS_5SliceES5_NS0_8SeverityE(ptr noundef nonnull align 8 dereferenceable(16) %agg.result, i8 noundef zeroext 4, i8 noundef zeroext 0, ptr noundef nonnull align 8 dereferenceable(16) %ref.tmp, ptr noundef nonnull align 8 dereferenceable(16) %ref.tmp24, i8 noundef zeroext 0)
          to label %invoke.cont26 unwind label %lpad22

invoke.cont26:                                    ; preds = %invoke.cont21
  call void @_ZNSt7__cxx1112basic_stringIcSt11char_traitsIcESaIcEED1Ev(ptr noundef nonnull align 8 dereferenceable(32) %ref.tmp10) #18
  call void @_ZNSt7__cxx1112basic_stringIcSt11char_traitsIcESaIcEED1Ev(ptr noundef nonnull align 8 dereferenceable(32) %ref.tmp11) #18
  call void @_ZNSt7__cxx1112basic_stringIcSt11char_traitsIcESaIcEED1Ev(ptr noundef nonnull align 8 dereferenceable(32) %ref.tmp12) #18
  call void @_ZNSaIcED1Ev(ptr noundef nonnull align 1 dereferenceable(1) %ref.tmp13) #18
  br label %cleanup

lpad14:                                           ; preds = %call.i.noexc, %if.else9
  %13 = landingpad { ptr, i32 }
          cleanup
  br label %ehcleanup28

lpad16:                                           ; preds = %invoke.cont15
  %14 = landingpad { ptr, i32 }
          cleanup
  br label %ehcleanup27

lpad20:                                           ; preds = %invoke.cont19
  %15 = landingpad { ptr, i32 }
          cleanup
  br label %ehcleanup

lpad22:                                           ; preds = %invoke.cont21
  %16 = landingpad { ptr, i32 }
          cleanup
  call void @_ZNSt7__cxx1112basic_stringIcSt11char_traitsIcESaIcEED1Ev(ptr noundef nonnull align 8 dereferenceable(32) %ref.tmp10) #18
  br label %ehcleanup

ehcleanup:                                        ; preds = %lpad22, %lpad20
  %.pn = phi { ptr, i32 } [ %16, %lpad22 ], [ %15, %lpad20 ]
  call void @_ZNSt7__cxx1112basic_stringIcSt11char_traitsIcESaIcEED1Ev(ptr noundef nonnull align 8 dereferenceable(32) %ref.tmp11) #18
  br label %ehcleanup27

ehcleanup27:                                      ; preds = %ehcleanup, %lpad16
  %.pn.pn = phi { ptr, i32 } [ %.pn, %ehcleanup ], [ %14, %lpad16 ]
  call void @_ZNSt7__cxx1112basic_stringIcSt11char_traitsIcESaIcEED1Ev(ptr noundef nonnull align 8 dereferenceable(32) %ref.tmp12) #18
  br label %ehcleanup28

ehcleanup28:                                      ; preds = %lpad14, %lpad.i, %ehcleanup27
  %.pn.pn.pn = phi { ptr, i32 } [ %.pn.pn, %ehcleanup27 ], [ %13, %lpad14 ], [ %12, %lpad.i ]
  call void @_ZNSaIcED1Ev(ptr noundef nonnull align 1 dereferenceable(1) %ref.tmp13) #18
  br label %ehcleanup29

cleanup:                                          ; preds = %if.then, %if.then.i.i, %invoke.cont7, %invoke.cont26
  %state_.i = getelementptr inbounds i8, ptr %s, i64 8
  %17 = load ptr, ptr %state_.i, align 8
  %cmp.not.i.i20 = icmp eq ptr %17, null
  br i1 %cmp.not.i.i20, label %_ZN7rocksdb6StatusD2Ev.exit, label %_ZNKSt14default_deleteIA_KcEclIS0_EENSt9enable_ifIXsr14is_convertibleIPA_T_PS1_EE5valueEvE4typeEPS5_.exit.i.i

_ZNKSt14default_deleteIA_KcEclIS0_EENSt9enable_ifIXsr14is_convertibleIPA_T_PS1_EE5valueEvE4typeEPS5_.exit.i.i: ; preds = %cleanup
  call void @_ZdaPv(ptr noundef nonnull %17) #19
  br label %_ZN7rocksdb6StatusD2Ev.exit

_ZN7rocksdb6StatusD2Ev.exit:                      ; preds = %cleanup, %_ZNKSt14default_deleteIA_KcEclIS0_EENSt9enable_ifIXsr14is_convertibleIPA_T_PS1_EE5valueEvE4typeEPS5_.exit.i.i
  store ptr null, ptr %state_.i, align 8
  %18 = load ptr, ptr %guard, align 8
  %cmp.not.i = icmp eq ptr %18, null
  br i1 %cmp.not.i, label %_ZNSt10unique_ptrIN7rocksdb23CompactionFilterFactoryESt14default_deleteIS1_EED2Ev.exit, label %_ZNKSt14default_deleteIN7rocksdb23CompactionFilterFactoryEEclEPS1_.exit.i

_ZNKSt14default_deleteIN7rocksdb23CompactionFilterFactoryEEclEPS1_.exit.i: ; preds = %_ZN7rocksdb6StatusD2Ev.exit
  %vtable.i.i = load ptr, ptr %18, align 8
  %vfn.i.i = getelementptr inbounds i8, ptr %vtable.i.i, i64 8
  %19 = load ptr, ptr %vfn.i.i, align 8
  call void %19(ptr noundef nonnull align 8 dereferenceable(32) %18) #18
  br label %_ZNSt10unique_ptrIN7rocksdb23CompactionFilterFactoryESt14default_deleteIS1_EED2Ev.exit

_ZNSt10unique_ptrIN7rocksdb23CompactionFilterFactoryESt14default_deleteIS1_EED2Ev.exit: ; preds = %_ZN7rocksdb6StatusD2Ev.exit, %_ZNKSt14default_deleteIN7rocksdb23CompactionFilterFactoryEEclEPS1_.exit.i
  ret void

ehcleanup29:                                      ; preds = %ehcleanup28, %lpad2
  %.pn5 = phi { ptr, i32 } [ %10, %lpad2 ], [ %.pn.pn.pn, %ehcleanup28 ]
  %state_.i21 = getelementptr inbounds i8, ptr %s, i64 8
  %20 = load ptr, ptr %state_.i21, align 8
  %cmp.not.i.i22 = icmp eq ptr %20, null
  br i1 %cmp.not.i.i22, label %_ZN7rocksdb6StatusD2Ev.exit24, label %_ZNKSt14default_deleteIA_KcEclIS0_EENSt9enable_ifIXsr14is_convertibleIPA_T_PS1_EE5valueEvE4typeEPS5_.exit.i.i23

_ZNKSt14default_deleteIA_KcEclIS0_EENSt9enable_ifIXsr14is_convertibleIPA_T_PS1_EE5valueEvE4typeEPS5_.exit.i.i23: ; preds = %ehcleanup29
  call void @_ZdaPv(ptr noundef nonnull %20) #19
  br label %_ZN7rocksdb6StatusD2Ev.exit24

_ZN7rocksdb6StatusD2Ev.exit24:                    ; preds = %ehcleanup29, %_ZNKSt14default_deleteIA_KcEclIS0_EENSt9enable_ifIXsr14is_convertibleIPA_T_PS1_EE5valueEvE4typeEPS5_.exit.i.i23
  store ptr null, ptr %state_.i21, align 8
  br label %ehcleanup31

ehcleanup31:                                      ; preds = %_ZN7rocksdb6StatusD2Ev.exit24, %lpad
  %.pn5.pn = phi { ptr, i32 } [ %.pn5, %_ZN7rocksdb6StatusD2Ev.exit24 ], [ %9, %lpad ]
  %21 = load ptr, ptr %guard, align 8
  %cmp.not.i25 = icmp eq ptr %21, null
  br i1 %cmp.not.i25, label %_ZNSt10unique_ptrIN7rocksdb23CompactionFilterFactoryESt14default_deleteIS1_EED2Ev.exit29, label %_ZNKSt14default_deleteIN7rocksdb23CompactionFilterFactoryEEclEPS1_.exit.i26

_ZNKSt14default_deleteIN7rocksdb23CompactionFilterFactoryEEclEPS1_.exit.i26: ; preds = %ehcleanup31
  %vtable.i.i27 = load ptr, ptr %21, align 8
  %vfn.i.i28 = getelementptr inbounds i8, ptr %vtable.i.i27, i64 8
  %22 = load ptr, ptr %vfn.i.i28, align 8
  call void %22(ptr noundef nonnull align 8 dereferenceable(32) %21) #18
  br label %_ZNSt10unique_ptrIN7rocksdb23CompactionFilterFactoryESt14default_deleteIS1_EED2Ev.exit29

_ZNSt10unique_ptrIN7rocksdb23CompactionFilterFactoryESt14default_deleteIS1_EED2Ev.exit29: ; preds = %ehcleanup31, %_ZNKSt14default_deleteIN7rocksdb23CompactionFilterFactoryEEclEPS1_.exit.i26
  resume { ptr, i32 } %.pn5.pn
}

; Function Attrs: mustprogress uwtable
define linkonce_odr void @_ZN7rocksdb14ObjectRegistry9NewObjectINS_23CompactionFilterFactoryEEENS_6StatusERKNSt7__cxx1112basic_stringIcSt11char_traitsIcESaIcEEEPPT_PSt10unique_ptrISC_St14default_deleteISC_EE(ptr noalias sret(%"class.rocksdb::Status") align 8 %agg.result, ptr noundef nonnull align 8 dereferenceable(192) %this, ptr noundef nonnull align 8 dereferenceable(32) %target, ptr noundef %object, ptr noundef %guard) local_unnamed_addr #0 comdat align 2 personality ptr @__gxx_personality_v0 {
entry:
  %__args.addr2.i = alloca ptr, align 8
  %__args.addr4.i = alloca ptr, align 8
  %factory = alloca %"class.std::function.108", align 8
  %errmsg = alloca %"class.std::__cxx11::basic_string", align 8
  %ref.tmp = alloca %"class.rocksdb::Slice", align 8
  %ref.tmp7 = alloca %"class.std::__cxx11::basic_string", align 8
  %ref.tmp8 = alloca %"class.std::__cxx11::basic_string", align 8
  %ref.tmp9 = alloca %"class.std::allocator", align 1
  %ref.tmp18 = alloca %"class.rocksdb::Slice", align 8
  %ref.tmp23 = alloca %"class.rocksdb::Slice", align 8
  %ref.tmp25 = alloca %"class.rocksdb::Slice", align 8
  %ref.tmp30 = alloca %"class.rocksdb::Slice", align 8
  %ref.tmp31 = alloca %"class.std::__cxx11::basic_string", align 8
  %ref.tmp32 = alloca %"class.std::__cxx11::basic_string", align 8
  %ref.tmp33 = alloca %"class.std::allocator", align 1
  %ref.tmp42 = alloca %"class.rocksdb::Slice", align 8
  %0 = load ptr, ptr %guard, align 8
  store ptr null, ptr %guard, align 8
  %tobool.not.i.i = icmp eq ptr %0, null
  br i1 %tobool.not.i.i, label %_ZNSt10unique_ptrIN7rocksdb23CompactionFilterFactoryESt14default_deleteIS1_EE5resetEPS1_.exit, label %_ZNKSt14default_deleteIN7rocksdb23CompactionFilterFactoryEEclEPS1_.exit.i.i

_ZNKSt14default_deleteIN7rocksdb23CompactionFilterFactoryEEclEPS1_.exit.i.i: ; preds = %entry
  %vtable.i.i.i = load ptr, ptr %0, align 8
  %vfn.i.i.i = getelementptr inbounds i8, ptr %vtable.i.i.i, i64 8
