; ModuleID = 'bench/rocksdb/original/env.cc.ll'
source_filename = "bench/rocksdb/original/env.cc.ll"
target datalayout = "e-m:e-p270:32:32-p271:32:32-p272:64:64-i64:64-i128:128-f80:128-n8:16:32:64-S128"
target triple = "x86_64-unknown-linux-gnu"

%"class.std::vector" = type { %"struct.std::_Vector_base" }
%"struct.std::_Vector_base" = type { %"struct.std::_Vector_base<rocksdb::Slice, std::allocator<rocksdb::Slice>>::_Vector_impl" }
%"struct.std::_Vector_base<rocksdb::Slice, std::allocator<rocksdb::Slice>>::_Vector_impl" = type { %"struct.std::_Vector_base<rocksdb::Slice, std::allocator<rocksdb::Slice>>::_Vector_impl_data" }
%"struct.std::_Vector_base<rocksdb::Slice, std::allocator<rocksdb::Slice>>::_Vector_impl_data" = type { ptr, ptr, ptr }
%"class.std::unordered_map.103" = type { %"class.std::_Hashtable.104" }
%"class.std::_Hashtable.104" = type { ptr, i64, %"struct.std::__detail::_Hash_node_base", i64, %"struct.std::__detail::_Prime_rehash_policy", ptr }
%"struct.std::__detail::_Hash_node_base" = type { ptr }
%"struct.std::__detail::_Prime_rehash_policy" = type { float, i64 }
%"struct.std::once_flag" = type { i32 }
%"struct.rocksdb::IOStatsContext" = type <{ i64, i64, i64, i64, i64, i64, i64, i64, i64, i64, i64, i64, i64, %"struct.rocksdb::FileIOByTemperature", i8, [7 x i8] }>
%"struct.rocksdb::FileIOByTemperature" = type { i64, i64, i64, i64, i64, i64 }
%"class.rocksdb::Status" = type { i8, i8, i8, i8, i8, i8, %"class.std::unique_ptr" }
%"class.std::unique_ptr" = type { %"struct.std::__uniq_ptr_data" }
%"struct.std::__uniq_ptr_data" = type { %"class.std::__uniq_ptr_impl" }
%"class.std::__uniq_ptr_impl" = type { %"class.std::tuple" }
%"class.std::tuple" = type { %"struct.std::_Tuple_impl" }
%"struct.std::_Tuple_impl" = type { %"struct.std::_Head_base.15" }
%"struct.std::_Head_base.15" = type { ptr }
%"struct.rocksdb::FileOptions" = type <{ %"struct.rocksdb::EnvOptions", %"struct.rocksdb::IOOptions", i8, i8, [6 x i8] }>
%"struct.rocksdb::EnvOptions" = type { i8, i8, i8, i8, i8, i8, i64, i8, i8, i64, i64, i64, ptr }
%"struct.rocksdb::IOOptions" = type <{ %"class.std::chrono::duration", i8, [3 x i8], i32, i8, [7 x i8], %"class.std::unordered_map", i8, i8, i8, [5 x i8] }>
%"class.std::chrono::duration" = type { i64 }
%"class.std::unordered_map" = type { %"class.std::_Hashtable" }
%"class.std::_Hashtable" = type { ptr, i64, %"struct.std::__detail::_Hash_node_base", i64, %"struct.std::__detail::_Prime_rehash_policy", ptr }
%"class.std::unique_ptr.92" = type { %"struct.std::__uniq_ptr_data.93" }
%"struct.std::__uniq_ptr_data.93" = type { %"class.std::__uniq_ptr_impl.94" }
%"class.std::__uniq_ptr_impl.94" = type { %"class.std::tuple.95" }
%"class.std::tuple.95" = type { %"struct.std::_Tuple_impl.96" }
%"struct.std::_Tuple_impl.96" = type { %"struct.std::_Head_base.99" }
%"struct.std::_Head_base.99" = type { ptr }
%"class.rocksdb::IOStatus" = type { %"class.rocksdb::Status" }
%"class.rocksdb::Slice" = type { ptr, i64 }
%"class.std::__cxx11::basic_string" = type { %"struct.std::__cxx11::basic_string<char>::_Alloc_hider", i64, %union.anon }
%"struct.std::__cxx11::basic_string<char>::_Alloc_hider" = type { ptr }
%union.anon = type { i64, [8 x i8] }
%class.anon.130 = type { ptr }
%class.anon.128 = type { i8 }
%"class.std::unique_ptr.22" = type { %"struct.std::__uniq_ptr_data.23" }
%"struct.std::__uniq_ptr_data.23" = type { %"class.std::__uniq_ptr_impl.24" }
%"class.std::__uniq_ptr_impl.24" = type { %"class.std::tuple.25" }
%"class.std::tuple.25" = type { %"struct.std::_Tuple_impl.26" }
%"struct.std::_Tuple_impl.26" = type { %"struct.std::_Head_base.29" }
%"struct.std::_Head_base.29" = type { ptr }
%"class.std::function.150" = type { %"class.std::_Function_base", ptr }
%"class.std::_Function_base" = type { %"union.std::_Any_data", ptr }
%"union.std::_Any_data" = type { %"union.std::_Nocopy_types" }
%"union.std::_Nocopy_types" = type { { i64, i64 } }
%"class.std::allocator.16" = type { i8 }
%"class.std::shared_ptr" = type { %"class.std::__shared_ptr" }
%"class.std::__shared_ptr" = type { ptr, %"class.std::__shared_count" }
%"class.std::__shared_count" = type { ptr }
%"class.std::thread::id" = type { i64 }
%"class.std::vector.40" = type { %"struct.std::_Vector_base.41" }
%"struct.std::_Vector_base.41" = type { %"struct.std::_Vector_base<std::__cxx11::basic_string<char>, std::allocator<std::__cxx11::basic_string<char>>>::_Vector_impl" }
%"struct.std::_Vector_base<std::__cxx11::basic_string<char>, std::allocator<std::__cxx11::basic_string<char>>>::_Vector_impl" = type { %"struct.std::_Vector_base<std::__cxx11::basic_string<char>, std::allocator<std::__cxx11::basic_string<char>>>::_Vector_impl_data" }
%"struct.std::_Vector_base<std::__cxx11::basic_string<char>, std::allocator<std::__cxx11::basic_string<char>>>::_Vector_impl_data" = type { ptr, ptr, ptr }
%"struct.rocksdb::Env::FileAttributes" = type { %"class.std::__cxx11::basic_string", i64 }
%"struct.std::array" = type { [256 x i8] }
%struct.__va_list_tag = type { i32, i32, ptr, ptr }
%"struct.rocksdb::DBOptions" = type { i8, i8, i8, i8, i8, i8, i8, i8, ptr, %"class.std::shared_ptr.61", %"class.std::shared_ptr.64", %"class.std::shared_ptr.58", i8, i32, i32, i64, %"class.std::shared_ptr.67", i8, %"class.std::vector.70", %"class.std::__cxx11::basic_string", %"class.std::__cxx11::basic_string", i64, i32, i32, i32, i32, i64, i64, i64, i64, i64, i32, i64, i64, i64, i8, i8, i8, i8, i8, i8, i32, i32, i8, i64, i8, i64, %"class.std::shared_ptr.75", i32, i64, i64, i64, i8, i64, i64, i8, %"class.std::vector.78", i8, i64, i8, i8, i8, i8, i64, i64, i64, i8, i8, i8, i8, %"class.std::shared_ptr.83", ptr, i8, i8, i8, i8, i8, i8, i8, i8, i8, i8, i8, i64, %"class.std::shared_ptr.86", i8, i32, i64, i8, %"class.std::__cxx11::basic_string", %"class.rocksdb::SmallEnumSet", %"class.std::shared_ptr.89", i8, i8, %"class.std::__cxx11::basic_string" }
%"class.std::shared_ptr.61" = type { %"class.std::__shared_ptr.62" }
%"class.std::__shared_ptr.62" = type { ptr, %"class.std::__shared_count" }
%"class.std::shared_ptr.64" = type { %"class.std::__shared_ptr.65" }
%"class.std::__shared_ptr.65" = type { ptr, %"class.std::__shared_count" }
%"class.std::shared_ptr.58" = type { %"class.std::__shared_ptr.59" }
%"class.std::__shared_ptr.59" = type { ptr, %"class.std::__shared_count" }
%"class.std::shared_ptr.67" = type { %"class.std::__shared_ptr.68" }
%"class.std::__shared_ptr.68" = type { ptr, %"class.std::__shared_count" }
%"class.std::vector.70" = type { %"struct.std::_Vector_base.71" }
%"struct.std::_Vector_base.71" = type { %"struct.std::_Vector_base<rocksdb::DbPath, std::allocator<rocksdb::DbPath>>::_Vector_impl" }
%"struct.std::_Vector_base<rocksdb::DbPath, std::allocator<rocksdb::DbPath>>::_Vector_impl" = type { %"struct.std::_Vector_base<rocksdb::DbPath, std::allocator<rocksdb::DbPath>>::_Vector_impl_data" }
%"struct.std::_Vector_base<rocksdb::DbPath, std::allocator<rocksdb::DbPath>>::_Vector_impl_data" = type { ptr, ptr, ptr }
%"class.std::shared_ptr.75" = type { %"class.std::__shared_ptr.76" }
%"class.std::__shared_ptr.76" = type { ptr, %"class.std::__shared_count" }
%"class.std::vector.78" = type { %"struct.std::_Vector_base.79" }
%"struct.std::_Vector_base.79" = type { %"struct.std::_Vector_base<std::shared_ptr<rocksdb::EventListener>, std::allocator<std::shared_ptr<rocksdb::EventListener>>>::_Vector_impl" }
%"struct.std::_Vector_base<std::shared_ptr<rocksdb::EventListener>, std::allocator<std::shared_ptr<rocksdb::EventListener>>>::_Vector_impl" = type { %"struct.std::_Vector_base<std::shared_ptr<rocksdb::EventListener>, std::allocator<std::shared_ptr<rocksdb::EventListener>>>::_Vector_impl_data" }
%"struct.std::_Vector_base<std::shared_ptr<rocksdb::EventListener>, std::allocator<std::shared_ptr<rocksdb::EventListener>>>::_Vector_impl_data" = type { ptr, ptr, ptr }
%"class.std::shared_ptr.83" = type { %"class.std::__shared_ptr.84" }
%"class.std::__shared_ptr.84" = type { ptr, %"class.std::__shared_count" }
%"class.std::shared_ptr.86" = type { %"class.std::__shared_ptr.87" }
%"class.std::__shared_ptr.87" = type { ptr, %"class.std::__shared_count" }
%"class.rocksdb::SmallEnumSet" = type { i64 }
%"class.std::shared_ptr.89" = type { %"class.std::__shared_ptr.90" }
%"class.std::__shared_ptr.90" = type { ptr, %"class.std::__shared_count" }
%class.anon.391 = type { ptr }
%"class.std::shared_ptr.5" = type { %"class.std::__shared_ptr.6" }
%"class.std::__shared_ptr.6" = type { ptr, %"class.std::__shared_count" }
%class.anon = type { i8 }
%"struct.rocksdb::ReadRequest" = type { i64, i64, ptr, %"class.rocksdb::Slice", %"class.rocksdb::Status" }
%struct._Guard = type { ptr }
%"class.std::unique_ptr.156" = type { %"struct.std::__uniq_ptr_data.157" }
%"struct.std::__uniq_ptr_data.157" = type { %"class.std::__uniq_ptr_impl.158" }
%"class.std::__uniq_ptr_impl.158" = type { %"class.std::tuple.159" }
%"class.std::tuple.159" = type { %"struct.std::_Tuple_impl.160" }
%"struct.std::_Tuple_impl.160" = type { %"struct.std::_Head_base.163" }
%"struct.std::_Head_base.163" = type { ptr }
%"struct.std::_Hashtable<std::__cxx11::basic_string<char>, std::pair<const std::__cxx11::basic_string<char>, std::vector<std::unique_ptr<rocksdb::ObjectLibrary::Entry>>>, std::allocator<std::pair<const std::__cxx11::basic_string<char>, std::vector<std::unique_ptr<rocksdb::ObjectLibrary::Entry>>>>, std::__detail::_Select1st, std::equal_to<std::__cxx11::basic_string<char>>, std::hash<string>, std::__detail::_Mod_range_hashing, std::__detail::_Default_ranged_hash, std::__detail::_Prime_rehash_policy, std::__detail::_Hashtable_traits<true, false, true>>::_Scoped_node" = type { ptr, ptr }
%"class.std::unique_ptr.217" = type { %"struct.std::__uniq_ptr_data.218" }
%"struct.std::__uniq_ptr_data.218" = type { %"class.std::__uniq_ptr_impl.219" }
%"class.std::__uniq_ptr_impl.219" = type { %"class.std::tuple.220" }
%"class.std::tuple.220" = type { %"struct.std::_Tuple_impl.221" }
%"struct.std::_Tuple_impl.221" = type { %"struct.std::_Head_base.224" }
%"struct.std::_Head_base.224" = type { ptr }
%"class.std::unique_ptr.237" = type { %"struct.std::__uniq_ptr_data.238" }
%"struct.std::__uniq_ptr_data.238" = type { %"class.std::__uniq_ptr_impl.239" }
%"class.std::__uniq_ptr_impl.239" = type { %"class.std::tuple.240" }
%"class.std::tuple.240" = type { %"struct.std::_Tuple_impl.241" }
%"struct.std::_Tuple_impl.241" = type { %"struct.std::_Head_base.244" }
%"struct.std::_Head_base.244" = type { ptr }
%"class.std::unique_ptr.276" = type { %"struct.std::__uniq_ptr_data.277" }
%"struct.std::__uniq_ptr_data.277" = type { %"class.std::__uniq_ptr_impl.278" }
%"class.std::__uniq_ptr_impl.278" = type { %"class.std::tuple.279" }
%"class.std::tuple.279" = type { %"struct.std::_Tuple_impl.280" }
%"struct.std::_Tuple_impl.280" = type { %"struct.std::_Head_base.283" }
%"struct.std::_Head_base.283" = type { ptr }
%"class.std::unique_ptr.286" = type { %"struct.std::__uniq_ptr_data.287" }
%"struct.std::__uniq_ptr_data.287" = type { %"class.std::__uniq_ptr_impl.288" }
%"class.std::__uniq_ptr_impl.288" = type { %"class.std::tuple.289" }
%"class.std::tuple.289" = type { %"struct.std::_Tuple_impl.290" }
%"struct.std::_Tuple_impl.290" = type { %"struct.std::_Head_base.293" }
%"struct.std::_Head_base.293" = type { ptr }
%"class.std::unique_ptr.306" = type { %"struct.std::__uniq_ptr_data.307" }
%"struct.std::__uniq_ptr_data.307" = type { %"class.std::__uniq_ptr_impl.308" }
%"class.std::__uniq_ptr_impl.308" = type { %"class.std::tuple.309" }
%"class.std::tuple.309" = type { %"struct.std::_Tuple_impl.310" }
%"struct.std::_Tuple_impl.310" = type { %"struct.std::_Head_base.313" }
%"struct.std::_Head_base.313" = type { ptr }
%"class.std::vector.270" = type { %"struct.std::_Vector_base.271" }
%"struct.std::_Vector_base.271" = type { %"struct.std::_Vector_base<rocksdb::ReadRequest, std::allocator<rocksdb::ReadRequest>>::_Vector_impl" }
%"struct.std::_Vector_base<rocksdb::ReadRequest, std::allocator<rocksdb::ReadRequest>>::_Vector_impl" = type { %"struct.std::_Vector_base<rocksdb::ReadRequest, std::allocator<rocksdb::ReadRequest>>::_Vector_impl_data" }
%"struct.std::_Vector_base<rocksdb::ReadRequest, std::allocator<rocksdb::ReadRequest>>::_Vector_impl_data" = type { ptr, ptr, ptr }
%"struct.rocksdb::FSReadRequest" = type { i64, i64, ptr, %"class.rocksdb::Slice", %"class.rocksdb::IOStatus", %"class.std::unique_ptr.260" }
%"class.std::unique_ptr.260" = type { %"struct.std::__uniq_ptr_data.261" }
%"struct.std::__uniq_ptr_data.261" = type { %"class.std::__uniq_ptr_impl.262" }
%"class.std::__uniq_ptr_impl.262" = type { %"class.std::tuple.263" }
%"class.std::tuple.263" = type { %"struct.std::_Tuple_impl.264" }
%"struct.std::_Tuple_impl.264" = type { %"struct.std::_Tuple_impl.265", %"struct.std::_Head_base.269" }
%"struct.std::_Tuple_impl.265" = type { %"struct.std::_Head_base.266" }
%"struct.std::_Head_base.266" = type { %"class.std::function.267" }
%"class.std::function.267" = type { %"class.std::_Function_base", ptr }
%"struct.std::_Head_base.269" = type { ptr }
%"class.std::shared_ptr.344" = type { %"class.std::__shared_ptr.345" }
%"class.std::__shared_ptr.345" = type { ptr, %"class.std::__shared_count" }
%"struct.rocksdb::FileChecksumGenContext" = type { %"class.std::__cxx11::basic_string", %"class.std::__cxx11::basic_string" }
%"class.std::unique_ptr.365" = type { %"struct.std::__uniq_ptr_data.366" }
%"struct.std::__uniq_ptr_data.366" = type { %"class.std::__uniq_ptr_impl.367" }
%"class.std::__uniq_ptr_impl.367" = type { %"class.std::tuple.368" }
%"class.std::tuple.368" = type { %"struct.std::_Tuple_impl.369" }
%"struct.std::_Tuple_impl.369" = type { %"struct.std::_Head_base.372" }
%"struct.std::_Head_base.372" = type { ptr }
%"class.rocksdb::PerfStepTimer" = type { i8, i8, i32, ptr, i64, ptr, ptr }
%struct.timeval = type { i64, i64 }
%struct.tm = type { i32, i32, i32, i32, i32, i32, i32, i32, i32, i64, ptr }
%"class.rocksdb::EnvLogger::FileOpGuard" = type <{ ptr, i8, [7 x i8] }>
%"class.std::shared_ptr.199" = type { %"class.std::__shared_ptr.200" }
%"class.std::__shared_ptr.200" = type { ptr, %"class.std::__shared_count" }
%"struct.std::__detail::_AllocNode" = type { ptr }
%"struct.std::_Hashtable<std::__cxx11::basic_string<char>, std::pair<const std::__cxx11::basic_string<char>, rocksdb::OptionTypeInfo>, std::allocator<std::pair<const std::__cxx11::basic_string<char>, rocksdb::OptionTypeInfo>>, std::__detail::_Select1st, std::equal_to<std::__cxx11::basic_string<char>>, std::hash<string>, std::__detail::_Mod_range_hashing, std::__detail::_Default_ranged_hash, std::__detail::_Prime_rehash_policy, std::__detail::_Hashtable_traits<true, false, true>>::_Scoped_node" = type { ptr, ptr }
%"class.std::function.394" = type { %"class.std::_Function_base", ptr }
%"class.std::unique_ptr.399" = type { %"struct.std::__uniq_ptr_data.400" }
%"struct.std::__uniq_ptr_data.400" = type { %"class.std::__uniq_ptr_impl.401" }
%"class.std::__uniq_ptr_impl.401" = type { %"class.std::tuple.402" }
%"class.std::tuple.402" = type { %"struct.std::_Tuple_impl.403" }
%"struct.std::_Tuple_impl.403" = type { %"struct.std::_Head_base.406" }
%"struct.std::_Head_base.406" = type { ptr }
%"class.rocksdb::OptionTypeInfo" = type <{ i32, [4 x i8], %"class.std::function", %"class.std::function.117", %"class.std::function.119", %"class.std::function.121", %"class.std::function.123", i32, i32, i32, [4 x i8] }>
%"class.std::function" = type { %"class.std::_Function_base", ptr }
%"class.std::function.117" = type { %"class.std::_Function_base", ptr }
%"class.std::function.119" = type { %"class.std::_Function_base", ptr }
%"class.std::function.121" = type { %"class.std::_Function_base", ptr }
%"class.std::function.123" = type { %"class.std::_Function_base", ptr }
%"struct.std::pair" = type { %"class.std::__cxx11::basic_string", %"class.rocksdb::OptionTypeInfo" }
%"struct.std::hash" = type { i8 }
%"struct.std::equal_to" = type { i8 }
%"class.std::allocator.125" = type { i8 }

$_ZNSt6vectorIN7rocksdb5SliceESaIS1_EED2Ev = comdat any

$_ZNSt10shared_ptrIN7rocksdb11SystemClockEED2Ev = comdat any

$_ZNSt10shared_ptrIN7rocksdb10FileSystemEED2Ev = comdat any

$_ZN7rocksdb12CustomizableD2Ev = comdat any

$_ZN7rocksdb14ObjectRegistry9NewObjectINS_3EnvEEENS_6StatusERKNSt7__cxx1112basic_stringIcSt11char_traitsIcESaIcEEEPPT_PSt10unique_ptrISC_St14default_deleteISC_EE = comdat any

$_ZNSt12__shared_ptrIN7rocksdb3EnvELN9__gnu_cxx12_Lock_policyE2EE5resetIS1_EENSt9enable_ifIXsr21__sp_is_constructibleIS1_T_EE5valueEvE4typeEPS7_ = comdat any

$_ZNSt13unordered_mapINSt7__cxx1112basic_stringIcSt11char_traitsIcESaIcEEES5_St4hashIS5_ESt8equal_toIS5_ESaISt4pairIKS5_S5_EEED2Ev = comdat any

$_ZNSt12__shared_ptrIN7rocksdb3EnvELN9__gnu_cxx12_Lock_policyE2EE5resetINS0_19CompositeEnvWrapperEEENSt9enable_ifIXsr21__sp_is_constructibleIS1_T_EE5valueEvE4typeEPS8_ = comdat any

$_ZNSt6vectorINSt7__cxx1112basic_stringIcSt11char_traitsIcESaIcEEESaIS5_EED2Ev = comdat any

$_ZN7rocksdb9DBOptionsD2Ev = comdat any

$_ZN7rocksdb11FileOptionsD2Ev = comdat any

$_ZNSt4pairIKNSt7__cxx1112basic_stringIcSt11char_traitsIcESaIcEEEN7rocksdb14OptionTypeInfoEEC2IRA7_KcS8_TnNSt9enable_ifIXaaclsr5_PCCPE22_MoveConstructiblePairIT_T0_EEclsr5_PCCPE30_ImplicitlyMoveConvertiblePairISF_SG_EEEbE4typeELb1EEEOSF_OSG_ = comdat any

$_ZN7rocksdb14OptionTypeInfoD2Ev = comdat any

$_ZNSt13unordered_mapINSt7__cxx1112basic_stringIcSt11char_traitsIcESaIcEEEN7rocksdb14OptionTypeInfoESt4hashIS5_ESt8equal_toIS5_ESaISt4pairIKS5_S7_EEED2Ev = comdat any

$_ZNK7rocksdb12Configurable8ToStringB5cxx11ERKNS_13ConfigOptionsE = comdat any

$_ZNK7rocksdb14SequentialFile13use_direct_ioEv = comdat any

$_ZNK7rocksdb14SequentialFile26GetRequiredBufferAlignmentEv = comdat any

$_ZN7rocksdb14SequentialFile15InvalidateCacheEmm = comdat any

$_ZN7rocksdb14SequentialFile14PositionedReadEmmPNS_5SliceEPc = comdat any

$_ZN7rocksdb16RandomAccessFile8PrefetchEmm = comdat any

$_ZN7rocksdb16RandomAccessFile9MultiReadEPNS_11ReadRequestEm = comdat any

$_ZNK7rocksdb16RandomAccessFile11GetUniqueIdEPcm = comdat any

$_ZN7rocksdb16RandomAccessFile4HintENS0_13AccessPatternE = comdat any

$_ZNK7rocksdb16RandomAccessFile13use_direct_ioEv = comdat any

$_ZNK7rocksdb16RandomAccessFile26GetRequiredBufferAlignmentEv = comdat any

$_ZN7rocksdb16RandomAccessFile15InvalidateCacheEmm = comdat any

$_ZN7rocksdb12WritableFile6AppendERKNS_5SliceERKNS_20DataVerificationInfoE = comdat any

$_ZN7rocksdb12WritableFile16PositionedAppendERKNS_5SliceEm = comdat any

$_ZN7rocksdb12WritableFile16PositionedAppendERKNS_5SliceEmRKNS_20DataVerificationInfoE = comdat any

$_ZN7rocksdb12WritableFile8TruncateEm = comdat any

$_ZN7rocksdb12WritableFile5FsyncEv = comdat any

$_ZNK7rocksdb12WritableFile16IsSyncThreadSafeEv = comdat any

$_ZNK7rocksdb12WritableFile13use_direct_ioEv = comdat any

$_ZNK7rocksdb12WritableFile26GetRequiredBufferAlignmentEv = comdat any

$_ZN7rocksdb12WritableFile13SetIOPriorityENS_3Env10IOPriorityE = comdat any

$_ZN7rocksdb12WritableFile13GetIOPriorityEv = comdat any

$_ZN7rocksdb12WritableFile20SetWriteLifeTimeHintENS_3Env17WriteLifeTimeHintE = comdat any

$_ZN7rocksdb12WritableFile20GetWriteLifeTimeHintEv = comdat any

$_ZN7rocksdb12WritableFile11GetFileSizeEv = comdat any

$_ZN7rocksdb12WritableFile25SetPreallocationBlockSizeEm = comdat any

$_ZN7rocksdb12WritableFile22GetPreallocationStatusEPmS1_ = comdat any

$_ZNK7rocksdb12WritableFile11GetUniqueIdEPcm = comdat any

$_ZN7rocksdb12WritableFile15InvalidateCacheEmm = comdat any

$_ZN7rocksdb12WritableFile9RangeSyncEmm = comdat any

$_ZN7rocksdb12WritableFile12PrepareWriteEmm = comdat any

$_ZN7rocksdb12WritableFile8AllocateEmm = comdat any

$_ZN7rocksdb6Logger9LogHeaderEPKcP13__va_list_tag = comdat any

$_ZN7rocksdb6Logger4LogvEPKcP13__va_list_tag = comdat any

$_ZNK7rocksdb6Logger14GetLogFileSizeEv = comdat any

$_ZN7rocksdb6Logger5FlushEv = comdat any

$_ZNK7rocksdb6Logger15GetInfoLogLevelEv = comdat any

$_ZN7rocksdb6Logger15SetInfoLogLevelENS_12InfoLogLevelE = comdat any

$_ZN7rocksdb11SystemClockD2Ev = comdat any

$_ZN7rocksdb11SystemClockD0Ev = comdat any

$_ZNK7rocksdb12Configurable19GetPrintableOptionsB5cxx11Ev = comdat any

$_ZNK7rocksdb12Customizable13GetOptionsPtrERKNSt7__cxx1112basic_stringIcSt11char_traitsIcESaIcEEE = comdat any

$_ZNK7rocksdb12Customizable5GetIdB5cxx11Ev = comdat any

$_ZNK7rocksdb12Customizable12IsInstanceOfERKNSt7__cxx1112basic_stringIcSt11char_traitsIcESaIcEEE = comdat any

$_ZNK7rocksdb12Customizable5InnerEv = comdat any

$_ZNK7rocksdb12Customizable8NickNameEv = comdat any

$_ZN7rocksdb11SystemClock8NowNanosEv = comdat any

$_ZN7rocksdb11SystemClock9CPUMicrosEv = comdat any

$_ZN7rocksdb11SystemClock8CPUNanosEv = comdat any

$_ZNK7rocksdb3Env4NameEv = comdat any

$_ZN7rocksdb3Env15RegisterDbPathsERKSt6vectorINSt7__cxx1112basic_stringIcSt11char_traitsIcESaIcEEESaIS7_EE = comdat any

$_ZN7rocksdb3Env17UnregisterDbPathsERKSt6vectorINSt7__cxx1112basic_stringIcSt11char_traitsIcESaIcEEESaIS7_EE = comdat any

$_ZN7rocksdb3Env18ReopenWritableFileERKNSt7__cxx1112basic_stringIcSt11char_traitsIcESaIcEEEPSt10unique_ptrINS_12WritableFileESt14default_deleteISA_EERKNS_10EnvOptionsE = comdat any

$_ZN7rocksdb3Env15NewRandomRWFileERKNSt7__cxx1112basic_stringIcSt11char_traitsIcESaIcEEEPSt10unique_ptrINS_12RandomRWFileESt14default_deleteISA_EERKNS_10EnvOptionsE = comdat any

$_ZN7rocksdb3Env25NewMemoryMappedFileBufferERKNSt7__cxx1112basic_stringIcSt11char_traitsIcESaIcEEEPSt10unique_ptrINS_22MemoryMappedFileBufferESt14default_deleteISA_EE = comdat any

$_ZN7rocksdb3Env8TruncateERKNSt7__cxx1112basic_stringIcSt11char_traitsIcESaIcEEEm = comdat any

$_ZN7rocksdb3Env8LinkFileERKNSt7__cxx1112basic_stringIcSt11char_traitsIcESaIcEEES8_ = comdat any

$_ZN7rocksdb3Env12NumFileLinksERKNSt7__cxx1112basic_stringIcSt11char_traitsIcESaIcEEEPm = comdat any

$_ZN7rocksdb3Env12AreFilesSameERKNSt7__cxx1112basic_stringIcSt11char_traitsIcESaIcEEES8_Pb = comdat any

$_ZN7rocksdb3Env11LoadLibraryERKNSt7__cxx1112basic_stringIcSt11char_traitsIcESaIcEEES8_PSt10shared_ptrINS_14DynamicLibraryEE = comdat any

$_ZN7rocksdb3Env10UnScheduleEPvNS0_8PriorityE = comdat any

$_ZN7rocksdb3Env11WaitForJoinEv = comdat any

$_ZN7rocksdb3Env14ReserveThreadsEiNS0_8PriorityE = comdat any

$_ZN7rocksdb3Env14ReleaseThreadsEiNS0_8PriorityE = comdat any

$_ZNK7rocksdb3Env21GetThreadPoolQueueLenENS0_8PriorityE = comdat any

$_ZN7rocksdb3Env8NowNanosEv = comdat any

$_ZN7rocksdb3Env11NowCPUNanosEv = comdat any

$_ZN7rocksdb3Env22SetAllowNonOwnerAccessEb = comdat any

$_ZN7rocksdb3Env25LowerThreadPoolIOPriorityENS0_8PriorityE = comdat any

$_ZN7rocksdb3Env26LowerThreadPoolCPUPriorityENS0_8PriorityENS_11CpuPriorityE = comdat any

$_ZN7rocksdb3Env26LowerThreadPoolCPUPriorityENS0_8PriorityE = comdat any

$_ZN7rocksdb3Env13GetThreadListEPSt6vectorINS_12ThreadStatusESaIS2_EE = comdat any

$_ZNK7rocksdb3Env22GetThreadStatusUpdaterEv = comdat any

$_ZN7rocksdb3Env12GetFreeSpaceERKNSt7__cxx1112basic_stringIcSt11char_traitsIcESaIcEEEPm = comdat any

$_ZN7rocksdb3Env11IsDirectoryERKNSt7__cxx1112basic_stringIcSt11char_traitsIcESaIcEEEPb = comdat any

$_ZNK7rocksdb3Env18SanitizeEnvOptionsEPNS_10EnvOptionsE = comdat any

$_ZN7rocksdb18SystemClockWrapperD2Ev = comdat any

$_ZN7rocksdb18SystemClockWrapperD0Ev = comdat any

$_ZNK7rocksdb18SystemClockWrapper5InnerEv = comdat any

$_ZN7rocksdb18SystemClockWrapper9NowMicrosEv = comdat any

$_ZN7rocksdb18SystemClockWrapper8NowNanosEv = comdat any

$_ZN7rocksdb18SystemClockWrapper9CPUMicrosEv = comdat any

$_ZN7rocksdb18SystemClockWrapper8CPUNanosEv = comdat any

$_ZN7rocksdb18SystemClockWrapper20SleepForMicrosecondsEi = comdat any

$_ZN7rocksdb18SystemClockWrapper9TimedWaitEPNS_4port7CondVarENSt6chrono8durationIlSt5ratioILl1ELl1000000EEEE = comdat any

$_ZN7rocksdb18SystemClockWrapper14GetCurrentTimeEPl = comdat any

$_ZN7rocksdb18SystemClockWrapper12TimeToStringB5cxx11Em = comdat any

$__clang_call_terminate = comdat any

$_ZN7rocksdb13ObjectLibrary10AddFactoryINS_3EnvEEERKSt8functionIFPT_RKNSt7__cxx1112basic_stringIcSt11char_traitsIcESaIcEEEPSt10unique_ptrIS4_St14default_deleteIS4_EEPSB_EESD_SN_ = comdat any

$_ZN7rocksdb13ObjectLibrary15AddFactoryEntryEPKcOSt10unique_ptrINS0_5EntryESt14default_deleteIS4_EE = comdat any

$_ZN7rocksdb13ObjectLibrary12FactoryEntryINS_3EnvEED2Ev = comdat any

$_ZN7rocksdb13ObjectLibrary12FactoryEntryINS_3EnvEED0Ev = comdat any

$_ZNK7rocksdb13ObjectLibrary12FactoryEntryINS_3EnvEE7MatchesERKNSt7__cxx1112basic_stringIcSt11char_traitsIcESaIcEEE = comdat any

$_ZNK7rocksdb13ObjectLibrary12FactoryEntryINS_3EnvEE4NameEv = comdat any

$_ZNSt8__detail9_Map_baseINSt7__cxx1112basic_stringIcSt11char_traitsIcESaIcEEESt4pairIKS6_St6vectorISt10unique_ptrIN7rocksdb13ObjectLibrary5EntryESt14default_deleteISD_EESaISG_EEESaISJ_ENS_10_Select1stESt8equal_toIS6_ESt4hashIS6_ENS_18_Mod_range_hashingENS_20_Default_ranged_hashENS_20_Prime_rehash_policyENS_17_Hashtable_traitsILb1ELb0ELb1EEELb1EEixEOS6_ = comdat any

$_ZNSt10_HashtableINSt7__cxx1112basic_stringIcSt11char_traitsIcESaIcEEESt4pairIKS5_St6vectorISt10unique_ptrIN7rocksdb13ObjectLibrary5EntryESt14default_deleteISC_EESaISF_EEESaISI_ENSt8__detail10_Select1stESt8equal_toIS5_ESt4hashIS5_ENSK_18_Mod_range_hashingENSK_20_Default_ranged_hashENSK_20_Prime_rehash_policyENSK_17_Hashtable_traitsILb1ELb0ELb1EEEE21_M_insert_unique_nodeEmmPNSK_10_Hash_nodeISI_Lb1EEEm = comdat any

$_ZNSt10_HashtableINSt7__cxx1112basic_stringIcSt11char_traitsIcESaIcEEESt4pairIKS5_St6vectorISt10unique_ptrIN7rocksdb13ObjectLibrary5EntryESt14default_deleteISC_EESaISF_EEESaISI_ENSt8__detail10_Select1stESt8equal_toIS5_ESt4hashIS5_ENSK_18_Mod_range_hashingENSK_20_Default_ranged_hashENSK_20_Prime_rehash_policyENSK_17_Hashtable_traitsILb1ELb0ELb1EEEE12_Scoped_nodeD2Ev = comdat any

$_ZNKSt10_HashtableINSt7__cxx1112basic_stringIcSt11char_traitsIcESaIcEEESt4pairIKS5_St6vectorISt10unique_ptrIN7rocksdb13ObjectLibrary5EntryESt14default_deleteISC_EESaISF_EEESaISI_ENSt8__detail10_Select1stESt8equal_toIS5_ESt4hashIS5_ENSK_18_Mod_range_hashingENSK_20_Default_ranged_hashENSK_20_Prime_rehash_policyENSK_17_Hashtable_traitsILb1ELb0ELb1EEEE19_M_find_before_nodeEmRS7_m = comdat any

$_ZNSt10_HashtableINSt7__cxx1112basic_stringIcSt11char_traitsIcESaIcEEESt4pairIKS5_St6vectorISt10unique_ptrIN7rocksdb13ObjectLibrary5EntryESt14default_deleteISC_EESaISF_EEESaISI_ENSt8__detail10_Select1stESt8equal_toIS5_ESt4hashIS5_ENSK_18_Mod_range_hashingENSK_20_Default_ranged_hashENSK_20_Prime_rehash_policyENSK_17_Hashtable_traitsILb1ELb0ELb1EEEE13_M_rehash_auxEmSt17integral_constantIbLb1EE = comdat any

$_ZNSt6vectorISt10unique_ptrIN7rocksdb13ObjectLibrary5EntryESt14default_deleteIS3_EESaIS6_EE17_M_realloc_insertIJS6_EEEvN9__gnu_cxx17__normal_iteratorIPS6_S8_EEDpOT_ = comdat any

$_ZNSt6vectorISt10shared_ptrIN7rocksdb13EventListenerEESaIS3_EED2Ev = comdat any

$_ZNSt10_HashtableINSt7__cxx1112basic_stringIcSt11char_traitsIcESaIcEEESt4pairIKS5_N7rocksdb14OptionTypeInfoEESaISA_ENSt8__detail10_Select1stESt8equal_toIS5_ESt4hashIS5_ENSC_18_Mod_range_hashingENSC_20_Default_ranged_hashENSC_20_Prime_rehash_policyENSC_17_Hashtable_traitsILb1ELb0ELb1EEEED2Ev = comdat any

$_ZNSt7__cxx1112basic_stringIcSt11char_traitsIcESaIcEE12_M_constructIPKcEEvT_S8_St20forward_iterator_tag = comdat any

$_ZZNSt7__cxx1112basic_stringIcSt11char_traitsIcESaIcEE12_M_constructIPKcEEvT_S8_St20forward_iterator_tagEN6_GuardD2Ev = comdat any

$_ZNSt6vectorIN7rocksdb3Env14FileAttributesESaIS2_EE17_M_default_appendEm = comdat any

$_ZN7rocksdb10FileSystem15RegisterDbPathsERKSt6vectorINSt7__cxx1112basic_stringIcSt11char_traitsIcESaIcEEESaIS7_EE = comdat any

$_ZN7rocksdb10FileSystem17UnregisterDbPathsERKSt6vectorINSt7__cxx1112basic_stringIcSt11char_traitsIcESaIcEEESaIS7_EE = comdat any

$_ZN7rocksdb10FileSystem4PollERSt6vectorIPvSaIS2_EEm = comdat any

$_ZN7rocksdb10FileSystem7AbortIOERSt6vectorIPvSaIS2_EE = comdat any

$_ZN7rocksdb10FileSystem12SupportedOpsERl = comdat any

$_ZNK7rocksdb16FSSequentialFile14GetTemperatureEv = comdat any

$_ZN7rocksdb18FSRandomAccessFile9ReadAsyncERNS_13FSReadRequestERKNS_9IOOptionsESt8functionIFvRKS1_PvEES9_PS9_PS6_IFvS9_EEPNS_14IODebugContextE = comdat any

$_ZNK7rocksdb18FSRandomAccessFile14GetTemperatureEv = comdat any

$_ZNSt6vectorIN7rocksdb11ReadRequestESaIS1_EE7reserveEm = comdat any

$_ZNSt6vectorIN7rocksdb11ReadRequestESaIS1_EED2Ev = comdat any

$_ZNSt6vectorIN7rocksdb11ReadRequestESaIS1_EE17_M_realloc_insertIJS1_EEEvN9__gnu_cxx17__normal_iteratorIPS1_S3_EEDpOT_ = comdat any

$_ZN7rocksdb14FSWritableFile13SetIOPriorityENS_3Env10IOPriorityE = comdat any

$_ZN7rocksdb14FSWritableFile13GetIOPriorityEv = comdat any

$_ZNK7rocksdb14FSRandomRWFile14GetTemperatureEv = comdat any

$_ZN7rocksdb11FSDirectory19FsyncWithDirOptionsERKNS_9IOOptionsEPNS_14IODebugContextERKNS_15DirFsyncOptionsE = comdat any

$_ZN7rocksdb14ObjectRegistry15NewStaticObjectINS_3EnvEEENS_6StatusERKNSt7__cxx1112basic_stringIcSt11char_traitsIcESaIcEEEPPT_ = comdat any

$_ZNK7rocksdb14ObjectRegistry11FindFactoryINS_3EnvEEEKSt8functionIFPT_RKNSt7__cxx1112basic_stringIcSt11char_traitsIcESaIcEEEPSt10unique_ptrIS4_St14default_deleteIS4_EEPSB_EESD_ = comdat any

$_ZNK7rocksdb13ObjectLibrary11FindFactoryINS_3EnvEEESt8functionIFPT_RKNSt7__cxx1112basic_stringIcSt11char_traitsIcESaIcEEEPSt10unique_ptrIS4_St14default_deleteIS4_EEPSB_EESD_ = comdat any

$_ZNKSt10_HashtableINSt7__cxx1112basic_stringIcSt11char_traitsIcESaIcEEESt4pairIKS5_St6vectorISt10unique_ptrIN7rocksdb13ObjectLibrary5EntryESt14default_deleteISC_EESaISF_EEESaISI_ENSt8__detail10_Select1stESt8equal_toIS5_ESt4hashIS5_ENSK_18_Mod_range_hashingENSK_20_Default_ranged_hashENSK_20_Prime_rehash_policyENSK_17_Hashtable_traitsILb1ELb0ELb1EEEE4findERS7_ = comdat any

$_ZNSt15_Sp_counted_ptrIPN7rocksdb3EnvELN9__gnu_cxx12_Lock_policyE2EED2Ev = comdat any

$_ZNSt15_Sp_counted_ptrIPN7rocksdb3EnvELN9__gnu_cxx12_Lock_policyE2EED0Ev = comdat any

$_ZNSt15_Sp_counted_ptrIPN7rocksdb3EnvELN9__gnu_cxx12_Lock_policyE2EE10_M_disposeEv = comdat any

$_ZNSt15_Sp_counted_ptrIPN7rocksdb3EnvELN9__gnu_cxx12_Lock_policyE2EE10_M_destroyEv = comdat any

$_ZNSt15_Sp_counted_ptrIPN7rocksdb3EnvELN9__gnu_cxx12_Lock_policyE2EE14_M_get_deleterERKSt9type_info = comdat any

$_ZNSt15_Sp_counted_ptrIPN7rocksdb19CompositeEnvWrapperELN9__gnu_cxx12_Lock_policyE2EED2Ev = comdat any

$_ZNSt15_Sp_counted_ptrIPN7rocksdb19CompositeEnvWrapperELN9__gnu_cxx12_Lock_policyE2EED0Ev = comdat any

$_ZNSt15_Sp_counted_ptrIPN7rocksdb19CompositeEnvWrapperELN9__gnu_cxx12_Lock_policyE2EE10_M_disposeEv = comdat any

$_ZNSt15_Sp_counted_ptrIPN7rocksdb19CompositeEnvWrapperELN9__gnu_cxx12_Lock_policyE2EE10_M_destroyEv = comdat any

$_ZNSt15_Sp_counted_ptrIPN7rocksdb19CompositeEnvWrapperELN9__gnu_cxx12_Lock_policyE2EE14_M_get_deleterERKSt9type_info = comdat any

$_ZNSt23_Sp_counted_ptr_inplaceIN7rocksdb9EnvLoggerESaIvELN9__gnu_cxx12_Lock_policyE2EED2Ev = comdat any

$_ZNSt23_Sp_counted_ptr_inplaceIN7rocksdb9EnvLoggerESaIvELN9__gnu_cxx12_Lock_policyE2EED0Ev = comdat any

$_ZNSt23_Sp_counted_ptr_inplaceIN7rocksdb9EnvLoggerESaIvELN9__gnu_cxx12_Lock_policyE2EE10_M_disposeEv = comdat any

$_ZNSt23_Sp_counted_ptr_inplaceIN7rocksdb9EnvLoggerESaIvELN9__gnu_cxx12_Lock_policyE2EE10_M_destroyEv = comdat any

$_ZNSt23_Sp_counted_ptr_inplaceIN7rocksdb9EnvLoggerESaIvELN9__gnu_cxx12_Lock_policyE2EE14_M_get_deleterERKSt9type_info = comdat any

$_ZN7rocksdb9EnvLoggerC2EOSt10unique_ptrINS_14FSWritableFileESt14default_deleteIS2_EERKNSt7__cxx1112basic_stringIcSt11char_traitsIcESaIcEEERKNS_10EnvOptionsEPNS_3EnvENS_12InfoLogLevelE = comdat any

$_ZN7rocksdb18WritableFileWriterC2EOSt10unique_ptrINS_14FSWritableFileESt14default_deleteIS2_EERKNSt7__cxx1112basic_stringIcSt11char_traitsIcESaIcEEERKNS_11FileOptionsEPNS_11SystemClockERKSt10shared_ptrINS_8IOTracerEEPNS_10StatisticsERKSt6vectorISK_INS_13EventListenerEESaIST_EEPNS_22FileChecksumGenFactoryEbb = comdat any

$_ZNSt10shared_ptrIN7rocksdb8IOTracerEED2Ev = comdat any

$_ZN7rocksdb18WritableFileWriterD2Ev = comdat any

$_ZN7rocksdb9EnvLoggerD2Ev = comdat any

$_ZN7rocksdb9EnvLoggerD0Ev = comdat any

$_ZN7rocksdb9EnvLogger4LogvEPKcP13__va_list_tag = comdat any

$_ZNK7rocksdb9EnvLogger14GetLogFileSizeEv = comdat any

$_ZN7rocksdb9EnvLogger5FlushEv = comdat any

$_ZN7rocksdb9EnvLogger9CloseImplEv = comdat any

$_ZN7rocksdb17FSWritableFilePtrC2EOSt10unique_ptrINS_14FSWritableFileESt14default_deleteIS2_EERKSt10shared_ptrINS_8IOTracerEERKNSt7__cxx1112basic_stringIcSt11char_traitsIcESaIcEEE = comdat any

$_ZN7rocksdb17FSWritableFilePtrD2Ev = comdat any

$_ZN7rocksdb26FSWritableFileOwnerWrapperD2Ev = comdat any

$_ZN7rocksdb26FSWritableFileOwnerWrapperD0Ev = comdat any

$_ZN7rocksdb21FSWritableFileWrapper6AppendERKNS_5SliceERKNS_9IOOptionsEPNS_14IODebugContextE = comdat any

$_ZN7rocksdb21FSWritableFileWrapper6AppendERKNS_5SliceERKNS_9IOOptionsERKNS_20DataVerificationInfoEPNS_14IODebugContextE = comdat any

$_ZN7rocksdb21FSWritableFileWrapper16PositionedAppendERKNS_5SliceEmRKNS_9IOOptionsEPNS_14IODebugContextE = comdat any

$_ZN7rocksdb21FSWritableFileWrapper16PositionedAppendERKNS_5SliceEmRKNS_9IOOptionsERKNS_20DataVerificationInfoEPNS_14IODebugContextE = comdat any

$_ZN7rocksdb21FSWritableFileWrapper8TruncateEmRKNS_9IOOptionsEPNS_14IODebugContextE = comdat any

$_ZN7rocksdb21FSWritableFileWrapper5CloseERKNS_9IOOptionsEPNS_14IODebugContextE = comdat any

$_ZN7rocksdb21FSWritableFileWrapper5FlushERKNS_9IOOptionsEPNS_14IODebugContextE = comdat any

$_ZN7rocksdb21FSWritableFileWrapper4SyncERKNS_9IOOptionsEPNS_14IODebugContextE = comdat any

$_ZN7rocksdb21FSWritableFileWrapper5FsyncERKNS_9IOOptionsEPNS_14IODebugContextE = comdat any

$_ZNK7rocksdb21FSWritableFileWrapper16IsSyncThreadSafeEv = comdat any

$_ZNK7rocksdb21FSWritableFileWrapper13use_direct_ioEv = comdat any

$_ZNK7rocksdb21FSWritableFileWrapper26GetRequiredBufferAlignmentEv = comdat any

$_ZN7rocksdb21FSWritableFileWrapper20SetWriteLifeTimeHintENS_3Env17WriteLifeTimeHintE = comdat any

$_ZN7rocksdb21FSWritableFileWrapper20GetWriteLifeTimeHintEv = comdat any

$_ZN7rocksdb21FSWritableFileWrapper11GetFileSizeERKNS_9IOOptionsEPNS_14IODebugContextE = comdat any

$_ZN7rocksdb21FSWritableFileWrapper25SetPreallocationBlockSizeEm = comdat any

$_ZN7rocksdb21FSWritableFileWrapper22GetPreallocationStatusEPmS1_ = comdat any

$_ZNK7rocksdb21FSWritableFileWrapper11GetUniqueIdEPcm = comdat any

$_ZN7rocksdb21FSWritableFileWrapper15InvalidateCacheEmm = comdat any

$_ZN7rocksdb21FSWritableFileWrapper9RangeSyncEmmRKNS_9IOOptionsEPNS_14IODebugContextE = comdat any

$_ZN7rocksdb21FSWritableFileWrapper12PrepareWriteEmmRKNS_9IOOptionsEPNS_14IODebugContextE = comdat any

$_ZN7rocksdb21FSWritableFileWrapper8AllocateEmmRKNS_9IOOptionsEPNS_14IODebugContextE = comdat any

$_ZNSt6vectorISt10shared_ptrIN7rocksdb13EventListenerEESaIS3_EE17_M_realloc_insertIJRKS3_EEEvN9__gnu_cxx17__normal_iteratorIPS3_S5_EEDpOT_ = comdat any

$_ZN7rocksdb9EnvLogger11CloseHelperEv = comdat any

$_ZN7rocksdb9EnvLogger11FileOpGuardD2Ev = comdat any

$_ZN7rocksdb13PerfStepTimerD2Ev = comdat any

$_ZN7rocksdb14OptionTypeInfoC2ERKS0_ = comdat any

$_ZNSt17_Function_handlerIFN7rocksdb6StatusERKNS0_13ConfigOptionsERKNSt7__cxx1112basic_stringIcSt11char_traitsIcESaIcEEESC_PvEZNS0_14OptionTypeInfo17AsCustomSharedPtrINS0_11SystemClockEEESF_iNS0_22OptionVerificationTypeENS0_15OptionTypeFlagsEEUlS4_SC_SC_SD_E_E9_M_invokeERKSt9_Any_dataS4_SC_SC_OSD_ = comdat any

$_ZNSt17_Function_handlerIFN7rocksdb6StatusERKNS0_13ConfigOptionsERKNSt7__cxx1112basic_stringIcSt11char_traitsIcESaIcEEESC_PvEZNS0_14OptionTypeInfo17AsCustomSharedPtrINS0_11SystemClockEEESF_iNS0_22OptionVerificationTypeENS0_15OptionTypeFlagsEEUlS4_SC_SC_SD_E_E10_M_managerERSt9_Any_dataRKSM_St18_Manager_operation = comdat any

$_ZZN7rocksdb14OptionTypeInfo17AsCustomSharedPtrINS_11SystemClockEEES0_iNS_22OptionVerificationTypeENS_15OptionTypeFlagsEENKUlRKNS_13ConfigOptionsERKNSt7__cxx1112basic_stringIcSt11char_traitsIcESaIcEEESF_PvE_clES7_SF_SF_SG_ = comdat any

$_ZNSt10_HashtableINSt7__cxx1112basic_stringIcSt11char_traitsIcESaIcEEESt4pairIKS5_N7rocksdb14OptionTypeInfoEESaISA_ENSt8__detail10_Select1stESt8equal_toIS5_ESt4hashIS5_ENSC_18_Mod_range_hashingENSC_20_Default_ranged_hashENSC_20_Prime_rehash_policyENSC_17_Hashtable_traitsILb1ELb0ELb1EEEEC2IPKSA_EET_SR_mRKSH_RKSF_RKSB_St17integral_constantIbLb1EE = comdat any

$_ZNSt10_HashtableINSt7__cxx1112basic_stringIcSt11char_traitsIcESaIcEEESt4pairIKS5_N7rocksdb14OptionTypeInfoEESaISA_ENSt8__detail10_Select1stESt8equal_toIS5_ESt4hashIS5_ENSC_18_Mod_range_hashingENSC_20_Default_ranged_hashENSC_20_Prime_rehash_policyENSC_17_Hashtable_traitsILb1ELb0ELb1EEEE16_M_insert_uniqueIRS7_RKSA_NSC_10_AllocNodeISaINSC_10_Hash_nodeISA_Lb1EEEEEEEES6_INSC_14_Node_iteratorISA_Lb0ELb1EEEbEOT_OT0_RKT1_ = comdat any

$_ZNSt10_HashtableINSt7__cxx1112basic_stringIcSt11char_traitsIcESaIcEEESt4pairIKS5_N7rocksdb14OptionTypeInfoEESaISA_ENSt8__detail10_Select1stESt8equal_toIS5_ESt4hashIS5_ENSC_18_Mod_range_hashingENSC_20_Default_ranged_hashENSC_20_Prime_rehash_policyENSC_17_Hashtable_traitsILb1ELb0ELb1EEEE21_M_insert_unique_nodeEmmPNSC_10_Hash_nodeISA_Lb1EEEm = comdat any

$_ZNSt10_HashtableINSt7__cxx1112basic_stringIcSt11char_traitsIcESaIcEEESt4pairIKS5_N7rocksdb14OptionTypeInfoEESaISA_ENSt8__detail10_Select1stESt8equal_toIS5_ESt4hashIS5_ENSC_18_Mod_range_hashingENSC_20_Default_ranged_hashENSC_20_Prime_rehash_policyENSC_17_Hashtable_traitsILb1ELb0ELb1EEEE12_Scoped_nodeD2Ev = comdat any

$_ZNKSt10_HashtableINSt7__cxx1112basic_stringIcSt11char_traitsIcESaIcEEESt4pairIKS5_N7rocksdb14OptionTypeInfoEESaISA_ENSt8__detail10_Select1stESt8equal_toIS5_ESt4hashIS5_ENSC_18_Mod_range_hashingENSC_20_Default_ranged_hashENSC_20_Prime_rehash_policyENSC_17_Hashtable_traitsILb1ELb0ELb1EEEE22_M_find_before_node_trIS5_EEPNSC_15_Hash_node_baseEmRKT_m = comdat any

$_ZNSt8__detail16_Hashtable_allocISaINS_10_Hash_nodeISt4pairIKNSt7__cxx1112basic_stringIcSt11char_traitsIcESaIcEEEN7rocksdb14OptionTypeInfoEELb1EEEEE16_M_allocate_nodeIJRS9_RKSB_EEEPSD_DpOT_ = comdat any

$_ZNSt10_HashtableINSt7__cxx1112basic_stringIcSt11char_traitsIcESaIcEEESt4pairIKS5_N7rocksdb14OptionTypeInfoEESaISA_ENSt8__detail10_Select1stESt8equal_toIS5_ESt4hashIS5_ENSC_18_Mod_range_hashingENSC_20_Default_ranged_hashENSC_20_Prime_rehash_policyENSC_17_Hashtable_traitsILb1ELb0ELb1EEEE13_M_rehash_auxEmSt17integral_constantIbLb1EE = comdat any

$_ZN7rocksdb13ObjectLibrary10AddFactoryINS_11SystemClockEEERKSt8functionIFPT_RKNSt7__cxx1112basic_stringIcSt11char_traitsIcESaIcEEEPSt10unique_ptrIS4_St14default_deleteIS4_EEPSB_EESD_SN_ = comdat any

$_ZN7rocksdb13ObjectLibrary12FactoryEntryINS_11SystemClockEED2Ev = comdat any

$_ZN7rocksdb13ObjectLibrary12FactoryEntryINS_11SystemClockEED0Ev = comdat any

$_ZNK7rocksdb13ObjectLibrary12FactoryEntryINS_11SystemClockEE7MatchesERKNSt7__cxx1112basic_stringIcSt11char_traitsIcESaIcEEE = comdat any

$_ZNK7rocksdb13ObjectLibrary12FactoryEntryINS_11SystemClockEE4NameEv = comdat any

$_ZN7rocksdb14ObjectRegistry15NewSharedObjectINS_11SystemClockEEENS_6StatusERKNSt7__cxx1112basic_stringIcSt11char_traitsIcESaIcEEEPSt10shared_ptrIT_E = comdat any

$_ZN7rocksdb14ObjectRegistry9NewObjectINS_11SystemClockEEENS_6StatusERKNSt7__cxx1112basic_stringIcSt11char_traitsIcESaIcEEEPPT_PSt10unique_ptrISC_St14default_deleteISC_EE = comdat any

$_ZNSt12__shared_ptrIN7rocksdb11SystemClockELN9__gnu_cxx12_Lock_policyE2EE5resetIS1_EENSt9enable_ifIXsr21__sp_is_constructibleIS1_T_EE5valueEvE4typeEPS7_ = comdat any

$_ZNK7rocksdb14ObjectRegistry11FindFactoryINS_11SystemClockEEEKSt8functionIFPT_RKNSt7__cxx1112basic_stringIcSt11char_traitsIcESaIcEEEPSt10unique_ptrIS4_St14default_deleteIS4_EEPSB_EESD_ = comdat any

$_ZNK7rocksdb13ObjectLibrary11FindFactoryINS_11SystemClockEEESt8functionIFPT_RKNSt7__cxx1112basic_stringIcSt11char_traitsIcESaIcEEEPSt10unique_ptrIS4_St14default_deleteIS4_EEPSB_EESD_ = comdat any

$_ZNSt15_Sp_counted_ptrIPN7rocksdb11SystemClockELN9__gnu_cxx12_Lock_policyE2EED2Ev = comdat any

$_ZNSt15_Sp_counted_ptrIPN7rocksdb11SystemClockELN9__gnu_cxx12_Lock_policyE2EED0Ev = comdat any

$_ZNSt15_Sp_counted_ptrIPN7rocksdb11SystemClockELN9__gnu_cxx12_Lock_policyE2EE10_M_disposeEv = comdat any

$_ZNSt15_Sp_counted_ptrIPN7rocksdb11SystemClockELN9__gnu_cxx12_Lock_policyE2EE10_M_destroyEv = comdat any

$_ZNSt15_Sp_counted_ptrIPN7rocksdb11SystemClockELN9__gnu_cxx12_Lock_policyE2EE14_M_get_deleterERKSt9type_info = comdat any

$_ZTVN7rocksdb13ObjectLibrary12FactoryEntryINS_3EnvEEE = comdat any

$_ZZNSt19_Sp_make_shared_tag5_S_tiEvE5__tag = comdat any

$_ZTVSt15_Sp_counted_ptrIPN7rocksdb3EnvELN9__gnu_cxx12_Lock_policyE2EE = comdat any

$_ZTVSt15_Sp_counted_ptrIPN7rocksdb19CompositeEnvWrapperELN9__gnu_cxx12_Lock_policyE2EE = comdat any

$_ZTVSt23_Sp_counted_ptr_inplaceIN7rocksdb9EnvLoggerESaIvELN9__gnu_cxx12_Lock_policyE2EE = comdat any

$_ZTVN7rocksdb9EnvLoggerE = comdat any

$_ZTVN7rocksdb26FSWritableFileOwnerWrapperE = comdat any

$_ZTVN7rocksdb13ObjectLibrary12FactoryEntryINS_11SystemClockEEE = comdat any

$_ZTVSt15_Sp_counted_ptrIPN7rocksdb11SystemClockELN9__gnu_cxx12_Lock_policyE2EE = comdat any

@_ZN7rocksdbL18empty_operand_listE = internal global %"class.std::vector" zeroinitializer, align 8
@__dso_handle = external hidden global i8
@_ZTVN7rocksdb3EnvE = unnamed_addr constant { [87 x ptr] } { [87 x ptr] [ptr null, ptr null, ptr @_ZN7rocksdb3EnvD1Ev, ptr @_ZN7rocksdb3EnvD0Ev, ptr @_ZNK7rocksdb12Customizable9GetOptionERKNS_13ConfigOptionsERKNSt7__cxx1112basic_stringIcSt11char_traitsIcESaIcEEEPS9_, ptr @_ZNK7rocksdb12Customizable13AreEquivalentERKNS_13ConfigOptionsEPKNS_12ConfigurableEPNSt7__cxx1112basic_stringIcSt11char_traitsIcESaIcEEE, ptr @_ZNK7rocksdb12Configurable19GetPrintableOptionsB5cxx11Ev, ptr @_ZN7rocksdb12Configurable14PrepareOptionsERKNS_13ConfigOptionsE, ptr @_ZNK7rocksdb12Configurable15ValidateOptionsERKNS_9DBOptionsERKNS_19ColumnFamilyOptionsE, ptr @_ZNK7rocksdb12Customizable13GetOptionsPtrERKNSt7__cxx1112basic_stringIcSt11char_traitsIcESaIcEEE, ptr @_ZN7rocksdb12Configurable18ParseStringOptionsERKNS_13ConfigOptionsERKNSt7__cxx1112basic_stringIcSt11char_traitsIcESaIcEEE, ptr @_ZN7rocksdb12Configurable16ConfigureOptionsERKNS_13ConfigOptionsERKSt13unordered_mapINSt7__cxx1112basic_stringIcSt11char_traitsIcESaIcEEESA_St4hashISA_ESt8equal_toISA_ESaISt4pairIKSA_SA_EEEPSJ_, ptr @_ZN7rocksdb12Configurable11ParseOptionERKNS_13ConfigOptionsERKNS_14OptionTypeInfoERKNSt7__cxx1112basic_stringIcSt11char_traitsIcESaIcEEESE_Pv, ptr @_ZNK7rocksdb12Configurable15OptionsAreEqualERKNS_13ConfigOptionsERKNS_14OptionTypeInfoERKNSt7__cxx1112basic_stringIcSt11char_traitsIcESaIcEEEPKvSG_PSC_, ptr @_ZNK7rocksdb12Customizable16SerializeOptionsERKNS_13ConfigOptionsERKNSt7__cxx1112basic_stringIcSt11char_traitsIcESaIcEEE, ptr @_ZNK7rocksdb12Customizable13GetOptionNameERKNSt7__cxx1112basic_stringIcSt11char_traitsIcESaIcEEE, ptr @_ZNK7rocksdb3Env4NameEv, ptr @_ZNK7rocksdb12Customizable5GetIdB5cxx11Ev, ptr @_ZNK7rocksdb12Customizable12IsInstanceOfERKNSt7__cxx1112basic_stringIcSt11char_traitsIcESaIcEEE, ptr @_ZNK7rocksdb12Customizable5InnerEv, ptr @_ZNK7rocksdb12Customizable8NickNameEv, ptr @_ZN7rocksdb3Env15RegisterDbPathsERKSt6vectorINSt7__cxx1112basic_stringIcSt11char_traitsIcESaIcEEESaIS7_EE, ptr @_ZN7rocksdb3Env17UnregisterDbPathsERKSt6vectorINSt7__cxx1112basic_stringIcSt11char_traitsIcESaIcEEESaIS7_EE, ptr @__cxa_pure_virtual, ptr @__cxa_pure_virtual, ptr @__cxa_pure_virtual, ptr @_ZN7rocksdb3Env18ReopenWritableFileERKNSt7__cxx1112basic_stringIcSt11char_traitsIcESaIcEEEPSt10unique_ptrINS_12WritableFileESt14default_deleteISA_EERKNS_10EnvOptionsE, ptr @_ZN7rocksdb3Env17ReuseWritableFileERKNSt7__cxx1112basic_stringIcSt11char_traitsIcESaIcEEES8_PSt10unique_ptrINS_12WritableFileESt14default_deleteISA_EERKNS_10EnvOptionsE, ptr @_ZN7rocksdb3Env15NewRandomRWFileERKNSt7__cxx1112basic_stringIcSt11char_traitsIcESaIcEEEPSt10unique_ptrINS_12RandomRWFileESt14default_deleteISA_EERKNS_10EnvOptionsE, ptr @_ZN7rocksdb3Env25NewMemoryMappedFileBufferERKNSt7__cxx1112basic_stringIcSt11char_traitsIcESaIcEEEPSt10unique_ptrINS_22MemoryMappedFileBufferESt14default_deleteISA_EE, ptr @__cxa_pure_virtual, ptr @__cxa_pure_virtual, ptr @__cxa_pure_virtual, ptr @_ZN7rocksdb3Env25GetChildrenFileAttributesERKNSt7__cxx1112basic_stringIcSt11char_traitsIcESaIcEEEPSt6vectorINS0_14FileAttributesESaISA_EE, ptr @__cxa_pure_virtual, ptr @_ZN7rocksdb3Env8TruncateERKNSt7__cxx1112basic_stringIcSt11char_traitsIcESaIcEEEm, ptr @__cxa_pure_virtual, ptr @__cxa_pure_virtual, ptr @__cxa_pure_virtual, ptr @__cxa_pure_virtual, ptr @__cxa_pure_virtual, ptr @__cxa_pure_virtual, ptr @_ZN7rocksdb3Env8LinkFileERKNSt7__cxx1112basic_stringIcSt11char_traitsIcESaIcEEES8_, ptr @_ZN7rocksdb3Env12NumFileLinksERKNSt7__cxx1112basic_stringIcSt11char_traitsIcESaIcEEEPm, ptr @_ZN7rocksdb3Env12AreFilesSameERKNSt7__cxx1112basic_stringIcSt11char_traitsIcESaIcEEES8_Pb, ptr @__cxa_pure_virtual, ptr @__cxa_pure_virtual, ptr @_ZN7rocksdb3Env11LoadLibraryERKNSt7__cxx1112basic_stringIcSt11char_traitsIcESaIcEEES8_PSt10shared_ptrINS_14DynamicLibraryEE, ptr @__cxa_pure_virtual, ptr @_ZN7rocksdb3Env10UnScheduleEPvNS0_8PriorityE, ptr @__cxa_pure_virtual, ptr @_ZN7rocksdb3Env11WaitForJoinEv, ptr @_ZN7rocksdb3Env14ReserveThreadsEiNS0_8PriorityE, ptr @_ZN7rocksdb3Env14ReleaseThreadsEiNS0_8PriorityE, ptr @_ZNK7rocksdb3Env21GetThreadPoolQueueLenENS0_8PriorityE, ptr @__cxa_pure_virtual, ptr @_ZN7rocksdb3Env9NewLoggerERKNSt7__cxx1112basic_stringIcSt11char_traitsIcESaIcEEEPSt10shared_ptrINS_6LoggerEE, ptr @__cxa_pure_virtual, ptr @_ZN7rocksdb3Env8NowNanosEv, ptr @_ZN7rocksdb3Env11NowCPUNanosEv, ptr @__cxa_pure_virtual, ptr @__cxa_pure_virtual, ptr @_ZN7rocksdb3Env17GetHostNameStringEPNSt7__cxx1112basic_stringIcSt11char_traitsIcESaIcEEE, ptr @__cxa_pure_virtual, ptr @__cxa_pure_virtual, ptr @__cxa_pure_virtual, ptr @__cxa_pure_virtual, ptr @_ZN7rocksdb3Env22SetAllowNonOwnerAccessEb, ptr @__cxa_pure_virtual, ptr @_ZN7rocksdb3Env25LowerThreadPoolIOPriorityENS0_8PriorityE, ptr @_ZN7rocksdb3Env26LowerThreadPoolCPUPriorityENS0_8PriorityENS_11CpuPriorityE, ptr @_ZN7rocksdb3Env26LowerThreadPoolCPUPriorityENS0_8PriorityE, ptr @__cxa_pure_virtual, ptr @_ZN7rocksdb3Env16GenerateUniqueIdB5cxx11Ev, ptr @_ZNK7rocksdb3Env18OptimizeForLogReadERKNS_10EnvOptionsE, ptr @_ZNK7rocksdb3Env23OptimizeForManifestReadERKNS_10EnvOptionsE, ptr @_ZNK7rocksdb3Env19OptimizeForLogWriteERKNS_10EnvOptionsERKNS_9DBOptionsE, ptr @_ZNK7rocksdb3Env24OptimizeForManifestWriteERKNS_10EnvOptionsE, ptr @_ZNK7rocksdb3Env31OptimizeForCompactionTableWriteERKNS_10EnvOptionsERKNS_18ImmutableDBOptionsE, ptr @_ZNK7rocksdb3Env30OptimizeForCompactionTableReadERKNS_10EnvOptionsERKNS_18ImmutableDBOptionsE, ptr @_ZNK7rocksdb3Env23OptimizeForBlobFileReadERKNS_10EnvOptionsERKNS_18ImmutableDBOptionsE, ptr @_ZN7rocksdb3Env13GetThreadListEPSt6vectorINS_12ThreadStatusESaIS2_EE, ptr @_ZNK7rocksdb3Env22GetThreadStatusUpdaterEv, ptr @_ZNK7rocksdb3Env11GetThreadIDEv, ptr @_ZN7rocksdb3Env12GetFreeSpaceERKNSt7__cxx1112basic_stringIcSt11char_traitsIcESaIcEEEPm, ptr @_ZN7rocksdb3Env11IsDirectoryERKNSt7__cxx1112basic_stringIcSt11char_traitsIcESaIcEEEPb, ptr @_ZNK7rocksdb3Env18SanitizeEnvOptionsEPNS_10EnvOptionsE] }, align 8
@.str = private unnamed_addr constant [39 x i8] c"cannot specify both fs_uri and env_uri\00", align 1
@.str.1 = private unnamed_addr constant [7 x i8] c"Bottom\00", align 1
@.str.2 = private unnamed_addr constant [4 x i8] c"Low\00", align 1
@.str.3 = private unnamed_addr constant [5 x i8] c"High\00", align 1
@.str.4 = private unnamed_addr constant [5 x i8] c"User\00", align 1
@.str.5 = private unnamed_addr constant [8 x i8] c"Invalid\00", align 1
@.str.6 = private unnamed_addr constant [2 x i8] c"/\00", align 1
@_ZZN7rocksdb6Logger4LogvENS_12InfoLogLevelEPKcP13__va_list_tagE18kInfoLogLevelNames = internal unnamed_addr constant [5 x ptr] [ptr @.str.7, ptr @.str.8, ptr @.str.9, ptr @.str.10, ptr @.str.11], align 16
@.str.7 = private unnamed_addr constant [6 x i8] c"DEBUG\00", align 1
@.str.8 = private unnamed_addr constant [5 x i8] c"INFO\00", align 1
@.str.9 = private unnamed_addr constant [5 x i8] c"WARN\00", align 1
@.str.10 = private unnamed_addr constant [6 x i8] c"ERROR\00", align 1
@.str.11 = private unnamed_addr constant [6 x i8] c"FATAL\00", align 1
@.str.12 = private unnamed_addr constant [8 x i8] c"[%s] %s\00", align 1
@_ZN7rocksdb12_GLOBAL__N_120sc_wrapper_type_infoB5cxx11E = internal global %"class.std::unordered_map.103" zeroinitializer, align 8
@.str.14 = private unnamed_addr constant [7 x i8] c"target\00", align 1
@_ZTVN7rocksdb18SystemClockWrapperE = unnamed_addr constant { [29 x ptr] } { [29 x ptr] [ptr null, ptr null, ptr @_ZN7rocksdb18SystemClockWrapperD2Ev, ptr @_ZN7rocksdb18SystemClockWrapperD0Ev, ptr @_ZNK7rocksdb12Customizable9GetOptionERKNS_13ConfigOptionsERKNSt7__cxx1112basic_stringIcSt11char_traitsIcESaIcEEEPS9_, ptr @_ZNK7rocksdb12Customizable13AreEquivalentERKNS_13ConfigOptionsEPKNS_12ConfigurableEPNSt7__cxx1112basic_stringIcSt11char_traitsIcESaIcEEE, ptr @_ZNK7rocksdb12Configurable19GetPrintableOptionsB5cxx11Ev, ptr @_ZN7rocksdb18SystemClockWrapper14PrepareOptionsERKNS_13ConfigOptionsE, ptr @_ZNK7rocksdb12Configurable15ValidateOptionsERKNS_9DBOptionsERKNS_19ColumnFamilyOptionsE, ptr @_ZNK7rocksdb12Customizable13GetOptionsPtrERKNSt7__cxx1112basic_stringIcSt11char_traitsIcESaIcEEE, ptr @_ZN7rocksdb12Configurable18ParseStringOptionsERKNS_13ConfigOptionsERKNSt7__cxx1112basic_stringIcSt11char_traitsIcESaIcEEE, ptr @_ZN7rocksdb12Configurable16ConfigureOptionsERKNS_13ConfigOptionsERKSt13unordered_mapINSt7__cxx1112basic_stringIcSt11char_traitsIcESaIcEEESA_St4hashISA_ESt8equal_toISA_ESaISt4pairIKSA_SA_EEEPSJ_, ptr @_ZN7rocksdb12Configurable11ParseOptionERKNS_13ConfigOptionsERKNS_14OptionTypeInfoERKNSt7__cxx1112basic_stringIcSt11char_traitsIcESaIcEEESE_Pv, ptr @_ZNK7rocksdb12Configurable15OptionsAreEqualERKNS_13ConfigOptionsERKNS_14OptionTypeInfoERKNSt7__cxx1112basic_stringIcSt11char_traitsIcESaIcEEEPKvSG_PSC_, ptr @_ZNK7rocksdb18SystemClockWrapper16SerializeOptionsERKNS_13ConfigOptionsERKNSt7__cxx1112basic_stringIcSt11char_traitsIcESaIcEEE, ptr @_ZNK7rocksdb12Customizable13GetOptionNameERKNSt7__cxx1112basic_stringIcSt11char_traitsIcESaIcEEE, ptr @__cxa_pure_virtual, ptr @_ZNK7rocksdb12Customizable5GetIdB5cxx11Ev, ptr @_ZNK7rocksdb12Customizable12IsInstanceOfERKNSt7__cxx1112basic_stringIcSt11char_traitsIcESaIcEEE, ptr @_ZNK7rocksdb18SystemClockWrapper5InnerEv, ptr @_ZNK7rocksdb12Customizable8NickNameEv, ptr @_ZN7rocksdb18SystemClockWrapper9NowMicrosEv, ptr @_ZN7rocksdb18SystemClockWrapper8NowNanosEv, ptr @_ZN7rocksdb18SystemClockWrapper9CPUMicrosEv, ptr @_ZN7rocksdb18SystemClockWrapper8CPUNanosEv, ptr @_ZN7rocksdb18SystemClockWrapper20SleepForMicrosecondsEi, ptr @_ZN7rocksdb18SystemClockWrapper9TimedWaitEPNS_4port7CondVarENSt6chrono8durationIlSt5ratioILl1ELl1000000EEEE, ptr @_ZN7rocksdb18SystemClockWrapper14GetCurrentTimeEPl, ptr @_ZN7rocksdb18SystemClockWrapper12TimeToStringB5cxx11Em] }, align 8
@.str.15 = private unnamed_addr constant [1 x i8] zeroinitializer, align 1
@.str.16 = private unnamed_addr constant [2 x i8] c"=\00", align 1
@.str.17 = private unnamed_addr constant [8 x i8] c"target=\00", align 1
@_ZZN7rocksdb11SystemClock16CreateFromStringERKNS_13ConfigOptionsERKNSt7__cxx1112basic_stringIcSt11char_traitsIcESaIcEEEPSt10shared_ptrIS0_EE4once = internal global %"struct.std::once_flag" zeroinitializer, align 4
@_ZTVN7rocksdb14SequentialFileE = unnamed_addr constant { [10 x ptr] } { [10 x ptr] [ptr null, ptr null, ptr @_ZN7rocksdb14SequentialFileD1Ev, ptr @_ZN7rocksdb14SequentialFileD0Ev, ptr @__cxa_pure_virtual, ptr @__cxa_pure_virtual, ptr @_ZNK7rocksdb14SequentialFile13use_direct_ioEv, ptr @_ZNK7rocksdb14SequentialFile26GetRequiredBufferAlignmentEv, ptr @_ZN7rocksdb14SequentialFile15InvalidateCacheEmm, ptr @_ZN7rocksdb14SequentialFile14PositionedReadEmmPNS_5SliceEPc] }, align 8
@_ZTVN7rocksdb16RandomAccessFileE = unnamed_addr constant { [12 x ptr] } { [12 x ptr] [ptr null, ptr null, ptr @_ZN7rocksdb16RandomAccessFileD1Ev, ptr @_ZN7rocksdb16RandomAccessFileD0Ev, ptr @__cxa_pure_virtual, ptr @_ZN7rocksdb16RandomAccessFile8PrefetchEmm, ptr @_ZN7rocksdb16RandomAccessFile9MultiReadEPNS_11ReadRequestEm, ptr @_ZNK7rocksdb16RandomAccessFile11GetUniqueIdEPcm, ptr @_ZN7rocksdb16RandomAccessFile4HintENS0_13AccessPatternE, ptr @_ZNK7rocksdb16RandomAccessFile13use_direct_ioEv, ptr @_ZNK7rocksdb16RandomAccessFile26GetRequiredBufferAlignmentEv, ptr @_ZN7rocksdb16RandomAccessFile15InvalidateCacheEmm] }, align 8
@_ZTVN7rocksdb12WritableFileE = unnamed_addr constant { [28 x ptr] } { [28 x ptr] [ptr null, ptr null, ptr @_ZN7rocksdb12WritableFileD1Ev, ptr @_ZN7rocksdb12WritableFileD0Ev, ptr @__cxa_pure_virtual, ptr @_ZN7rocksdb12WritableFile6AppendERKNS_5SliceERKNS_20DataVerificationInfoE, ptr @_ZN7rocksdb12WritableFile16PositionedAppendERKNS_5SliceEm, ptr @_ZN7rocksdb12WritableFile16PositionedAppendERKNS_5SliceEmRKNS_20DataVerificationInfoE, ptr @_ZN7rocksdb12WritableFile8TruncateEm, ptr @__cxa_pure_virtual, ptr @__cxa_pure_virtual, ptr @__cxa_pure_virtual, ptr @_ZN7rocksdb12WritableFile5FsyncEv, ptr @_ZNK7rocksdb12WritableFile16IsSyncThreadSafeEv, ptr @_ZNK7rocksdb12WritableFile13use_direct_ioEv, ptr @_ZNK7rocksdb12WritableFile26GetRequiredBufferAlignmentEv, ptr @_ZN7rocksdb12WritableFile13SetIOPriorityENS_3Env10IOPriorityE, ptr @_ZN7rocksdb12WritableFile13GetIOPriorityEv, ptr @_ZN7rocksdb12WritableFile20SetWriteLifeTimeHintENS_3Env17WriteLifeTimeHintE, ptr @_ZN7rocksdb12WritableFile20GetWriteLifeTimeHintEv, ptr @_ZN7rocksdb12WritableFile11GetFileSizeEv, ptr @_ZN7rocksdb12WritableFile25SetPreallocationBlockSizeEm, ptr @_ZN7rocksdb12WritableFile22GetPreallocationStatusEPmS1_, ptr @_ZNK7rocksdb12WritableFile11GetUniqueIdEPcm, ptr @_ZN7rocksdb12WritableFile15InvalidateCacheEmm, ptr @_ZN7rocksdb12WritableFile9RangeSyncEmm, ptr @_ZN7rocksdb12WritableFile12PrepareWriteEmm, ptr @_ZN7rocksdb12WritableFile8AllocateEmm] }, align 8
@_ZTVN7rocksdb6LoggerE = unnamed_addr constant { [13 x ptr] } { [13 x ptr] [ptr null, ptr null, ptr @_ZN7rocksdb6LoggerD1Ev, ptr @_ZN7rocksdb6LoggerD0Ev, ptr @_ZN7rocksdb6Logger5CloseEv, ptr @_ZN7rocksdb6Logger9LogHeaderEPKcP13__va_list_tag, ptr @_ZN7rocksdb6Logger4LogvEPKcP13__va_list_tag, ptr @_ZN7rocksdb6Logger4LogvENS_12InfoLogLevelEPKcP13__va_list_tag, ptr @_ZNK7rocksdb6Logger14GetLogFileSizeEv, ptr @_ZN7rocksdb6Logger5FlushEv, ptr @_ZNK7rocksdb6Logger15GetInfoLogLevelEv, ptr @_ZN7rocksdb6Logger15SetInfoLogLevelENS_12InfoLogLevelE, ptr @_ZN7rocksdb6Logger9CloseImplEv] }, align 8
@_ZTVN7rocksdb8FileLockE = unnamed_addr constant { [4 x ptr] } { [4 x ptr] [ptr null, ptr null, ptr @_ZN7rocksdb8FileLockD1Ev, ptr @_ZN7rocksdb8FileLockD0Ev] }, align 8
@_ZTVN7rocksdb11SystemClockE = unnamed_addr constant { [29 x ptr] } { [29 x ptr] [ptr null, ptr null, ptr @_ZN7rocksdb11SystemClockD2Ev, ptr @_ZN7rocksdb11SystemClockD0Ev, ptr @_ZNK7rocksdb12Customizable9GetOptionERKNS_13ConfigOptionsERKNSt7__cxx1112basic_stringIcSt11char_traitsIcESaIcEEEPS9_, ptr @_ZNK7rocksdb12Customizable13AreEquivalentERKNS_13ConfigOptionsEPKNS_12ConfigurableEPNSt7__cxx1112basic_stringIcSt11char_traitsIcESaIcEEE, ptr @_ZNK7rocksdb12Configurable19GetPrintableOptionsB5cxx11Ev, ptr @_ZN7rocksdb12Configurable14PrepareOptionsERKNS_13ConfigOptionsE, ptr @_ZNK7rocksdb12Configurable15ValidateOptionsERKNS_9DBOptionsERKNS_19ColumnFamilyOptionsE, ptr @_ZNK7rocksdb12Customizable13GetOptionsPtrERKNSt7__cxx1112basic_stringIcSt11char_traitsIcESaIcEEE, ptr @_ZN7rocksdb12Configurable18ParseStringOptionsERKNS_13ConfigOptionsERKNSt7__cxx1112basic_stringIcSt11char_traitsIcESaIcEEE, ptr @_ZN7rocksdb12Configurable16ConfigureOptionsERKNS_13ConfigOptionsERKSt13unordered_mapINSt7__cxx1112basic_stringIcSt11char_traitsIcESaIcEEESA_St4hashISA_ESt8equal_toISA_ESaISt4pairIKSA_SA_EEEPSJ_, ptr @_ZN7rocksdb12Configurable11ParseOptionERKNS_13ConfigOptionsERKNS_14OptionTypeInfoERKNSt7__cxx1112basic_stringIcSt11char_traitsIcESaIcEEESE_Pv, ptr @_ZNK7rocksdb12Configurable15OptionsAreEqualERKNS_13ConfigOptionsERKNS_14OptionTypeInfoERKNSt7__cxx1112basic_stringIcSt11char_traitsIcESaIcEEEPKvSG_PSC_, ptr @_ZNK7rocksdb12Customizable16SerializeOptionsERKNS_13ConfigOptionsERKNSt7__cxx1112basic_stringIcSt11char_traitsIcESaIcEEE, ptr @_ZNK7rocksdb12Customizable13GetOptionNameERKNSt7__cxx1112basic_stringIcSt11char_traitsIcESaIcEEE, ptr @__cxa_pure_virtual, ptr @_ZNK7rocksdb12Customizable5GetIdB5cxx11Ev, ptr @_ZNK7rocksdb12Customizable12IsInstanceOfERKNSt7__cxx1112basic_stringIcSt11char_traitsIcESaIcEEE, ptr @_ZNK7rocksdb12Customizable5InnerEv, ptr @_ZNK7rocksdb12Customizable8NickNameEv, ptr @__cxa_pure_virtual, ptr @_ZN7rocksdb11SystemClock8NowNanosEv, ptr @_ZN7rocksdb11SystemClock9CPUMicrosEv, ptr @_ZN7rocksdb11SystemClock8CPUNanosEv, ptr @__cxa_pure_virtual, ptr @_ZN7rocksdb11SystemClock9TimedWaitEPNS_4port7CondVarENSt6chrono8durationIlSt5ratioILl1ELl1000000EEEE, ptr @__cxa_pure_virtual, ptr @__cxa_pure_virtual] }, align 8
@_ZN7rocksdb10perf_levelE = external thread_local global i8, align 1
@_ZTVN7rocksdb12ConfigurableE = external unnamed_addr constant { [16 x ptr] }, align 8
@__libc_single_threaded = external local_unnamed_addr global i8, align 1
@_ZZN7rocksdb12_GLOBAL__N_118RegisterSystemEnvsEvE6loaded = internal global %"struct.std::once_flag" zeroinitializer, align 4
@_ZSt15__once_callable = external thread_local global ptr, align 8
@_ZSt11__once_call = external thread_local global ptr, align 8
@_ZTVN7rocksdb13ObjectLibrary12PatternEntryE = external unnamed_addr constant { [6 x ptr] }, align 8
@_ZTVN7rocksdb13ObjectLibrary12FactoryEntryINS_3EnvEEE = linkonce_odr unnamed_addr constant { [6 x ptr] } { [6 x ptr] [ptr null, ptr null, ptr @_ZN7rocksdb13ObjectLibrary12FactoryEntryINS_3EnvEED2Ev, ptr @_ZN7rocksdb13ObjectLibrary12FactoryEntryINS_3EnvEED0Ev, ptr @_ZNK7rocksdb13ObjectLibrary12FactoryEntryINS_3EnvEE7MatchesERKNSt7__cxx1112basic_stringIcSt11char_traitsIcESaIcEEE, ptr @_ZNK7rocksdb13ObjectLibrary12FactoryEntryINS_3EnvEE4NameEv] }, comdat, align 8
@.str.18 = private unnamed_addr constant [26 x i8] c"vector::_M_realloc_insert\00", align 1
@.str.19 = private unnamed_addr constant [12 x i8] c"Environment\00", align 1
@.str.20 = private unnamed_addr constant [8 x i8] c"MockEnv\00", align 1
@.str.21 = private unnamed_addr constant [13 x i8] c"CompositeEnv\00", align 1
@.str.22 = private unnamed_addr constant [13 x i8] c"DefaultClock\00", align 1
@.str.23 = private unnamed_addr constant [3 x i8] c"id\00", align 1
@.str.24 = private unnamed_addr constant [47 x i8] c"SequentialFile::InvalidateCache not supported.\00", align 1
@.str.25 = private unnamed_addr constant [48 x i8] c"SequentialFile::PositionedRead() not supported.\00", align 1
@.str.26 = private unnamed_addr constant [49 x i8] c"RandomAccessFile::InvalidateCache not supported.\00", align 1
@.str.27 = private unnamed_addr constant [48 x i8] c"WritableFile::PositionedAppend() not supported.\00", align 1
@.str.28 = private unnamed_addr constant [17 x i8] c"PositionedAppend\00", align 1
@.str.29 = private unnamed_addr constant [45 x i8] c"WritableFile::InvalidateCache not supported.\00", align 1
@.str.30 = private unnamed_addr constant [41 x i8] c"Env::ReopenWritableFile() not supported.\00", align 1
@.str.31 = private unnamed_addr constant [44 x i8] c"RandomRWFile is not implemented in this Env\00", align 1
@.str.32 = private unnamed_addr constant [54 x i8] c"MemoryMappedFileBuffer is not implemented in this Env\00", align 1
@.str.33 = private unnamed_addr constant [39 x i8] c"Truncate is not supported for this Env\00", align 1
@.str.34 = private unnamed_addr constant [39 x i8] c"LinkFile is not supported for this Env\00", align 1
@.str.35 = private unnamed_addr constant [59 x i8] c"Getting number of file links is not supported for this Env\00", align 1
@.str.36 = private unnamed_addr constant [43 x i8] c"AreFilesSame is not supported for this Env\00", align 1
@.str.37 = private unnamed_addr constant [43 x i8] c"LoadLibrary is not implemented in this Env\00", align 1
@.str.38 = private unnamed_addr constant [45 x i8] c"Env::SetAllowNonOwnerAccess() not supported.\00", align 1
@.str.39 = private unnamed_addr constant [69 x i8] c"Env::LowerThreadPoolCPUPriority(Priority, CpuPriority) not supported\00", align 1
@.str.40 = private unnamed_addr constant [36 x i8] c"Env::GetThreadList() not supported.\00", align 1
@.str.41 = private unnamed_addr constant [35 x i8] c"Env::GetFreeSpace() not supported.\00", align 1
@.str.42 = private unnamed_addr constant [34 x i8] c"Env::IsDirectory() not supported.\00", align 1
@.str.43 = private unnamed_addr constant [50 x i8] c"basic_string: construction from null is not valid\00", align 1
@.str.44 = private unnamed_addr constant [26 x i8] c"vector::_M_default_append\00", align 1
@_ZTVSt23_Sp_counted_ptr_inplaceIN7rocksdb12_GLOBAL__N_123LegacyFileSystemWrapperESaIvELN9__gnu_cxx12_Lock_policyE2EE = internal unnamed_addr constant { [7 x ptr] } { [7 x ptr] [ptr null, ptr null, ptr @_ZNSt23_Sp_counted_ptr_inplaceIN7rocksdb12_GLOBAL__N_123LegacyFileSystemWrapperESaIvELN9__gnu_cxx12_Lock_policyE2EED2Ev, ptr @_ZNSt23_Sp_counted_ptr_inplaceIN7rocksdb12_GLOBAL__N_123LegacyFileSystemWrapperESaIvELN9__gnu_cxx12_Lock_policyE2EED0Ev, ptr @_ZNSt23_Sp_counted_ptr_inplaceIN7rocksdb12_GLOBAL__N_123LegacyFileSystemWrapperESaIvELN9__gnu_cxx12_Lock_policyE2EE10_M_disposeEv, ptr @_ZNSt23_Sp_counted_ptr_inplaceIN7rocksdb12_GLOBAL__N_123LegacyFileSystemWrapperESaIvELN9__gnu_cxx12_Lock_policyE2EE10_M_destroyEv, ptr @_ZNSt23_Sp_counted_ptr_inplaceIN7rocksdb12_GLOBAL__N_123LegacyFileSystemWrapperESaIvELN9__gnu_cxx12_Lock_policyE2EE14_M_get_deleterERKSt9type_info] }, align 8
@_ZTVN7rocksdb12_GLOBAL__N_123LegacyFileSystemWrapperE = internal unnamed_addr constant { [63 x ptr] } { [63 x ptr] [ptr null, ptr null, ptr @_ZN7rocksdb12_GLOBAL__N_123LegacyFileSystemWrapperD2Ev, ptr @_ZN7rocksdb12_GLOBAL__N_123LegacyFileSystemWrapperD0Ev, ptr @_ZNK7rocksdb12Customizable9GetOptionERKNS_13ConfigOptionsERKNSt7__cxx1112basic_stringIcSt11char_traitsIcESaIcEEEPS9_, ptr @_ZNK7rocksdb12Customizable13AreEquivalentERKNS_13ConfigOptionsEPKNS_12ConfigurableEPNSt7__cxx1112basic_stringIcSt11char_traitsIcESaIcEEE, ptr @_ZNK7rocksdb12Configurable19GetPrintableOptionsB5cxx11Ev, ptr @_ZN7rocksdb12Configurable14PrepareOptionsERKNS_13ConfigOptionsE, ptr @_ZNK7rocksdb12Configurable15ValidateOptionsERKNS_9DBOptionsERKNS_19ColumnFamilyOptionsE, ptr @_ZNK7rocksdb12Customizable13GetOptionsPtrERKNSt7__cxx1112basic_stringIcSt11char_traitsIcESaIcEEE, ptr @_ZN7rocksdb12Configurable18ParseStringOptionsERKNS_13ConfigOptionsERKNSt7__cxx1112basic_stringIcSt11char_traitsIcESaIcEEE, ptr @_ZN7rocksdb12Configurable16ConfigureOptionsERKNS_13ConfigOptionsERKSt13unordered_mapINSt7__cxx1112basic_stringIcSt11char_traitsIcESaIcEEESA_St4hashISA_ESt8equal_toISA_ESaISt4pairIKSA_SA_EEEPSJ_, ptr @_ZN7rocksdb12Configurable11ParseOptionERKNS_13ConfigOptionsERKNS_14OptionTypeInfoERKNSt7__cxx1112basic_stringIcSt11char_traitsIcESaIcEEESE_Pv, ptr @_ZNK7rocksdb12Configurable15OptionsAreEqualERKNS_13ConfigOptionsERKNS_14OptionTypeInfoERKNSt7__cxx1112basic_stringIcSt11char_traitsIcESaIcEEEPKvSG_PSC_, ptr @_ZNK7rocksdb12_GLOBAL__N_123LegacyFileSystemWrapper16SerializeOptionsERKNS_13ConfigOptionsERKNSt7__cxx1112basic_stringIcSt11char_traitsIcESaIcEEE, ptr @_ZNK7rocksdb12Customizable13GetOptionNameERKNSt7__cxx1112basic_stringIcSt11char_traitsIcESaIcEEE, ptr @_ZNK7rocksdb12_GLOBAL__N_123LegacyFileSystemWrapper4NameEv, ptr @_ZNK7rocksdb12Customizable5GetIdB5cxx11Ev, ptr @_ZNK7rocksdb12Customizable12IsInstanceOfERKNSt7__cxx1112basic_stringIcSt11char_traitsIcESaIcEEE, ptr @_ZNK7rocksdb12Customizable5InnerEv, ptr @_ZNK7rocksdb12Customizable8NickNameEv, ptr @_ZN7rocksdb10FileSystem15RegisterDbPathsERKSt6vectorINSt7__cxx1112basic_stringIcSt11char_traitsIcESaIcEEESaIS7_EE, ptr @_ZN7rocksdb10FileSystem17UnregisterDbPathsERKSt6vectorINSt7__cxx1112basic_stringIcSt11char_traitsIcESaIcEEESaIS7_EE, ptr @_ZN7rocksdb12_GLOBAL__N_123LegacyFileSystemWrapper17NewSequentialFileERKNSt7__cxx1112basic_stringIcSt11char_traitsIcESaIcEEERKNS_11FileOptionsEPSt10unique_ptrINS_16FSSequentialFileESt14default_deleteISE_EEPNS_14IODebugContextE, ptr @_ZN7rocksdb12_GLOBAL__N_123LegacyFileSystemWrapper19NewRandomAccessFileERKNSt7__cxx1112basic_stringIcSt11char_traitsIcESaIcEEERKNS_11FileOptionsEPSt10unique_ptrINS_18FSRandomAccessFileESt14default_deleteISE_EEPNS_14IODebugContextE, ptr @_ZN7rocksdb12_GLOBAL__N_123LegacyFileSystemWrapper15NewWritableFileERKNSt7__cxx1112basic_stringIcSt11char_traitsIcESaIcEEERKNS_11FileOptionsEPSt10unique_ptrINS_14FSWritableFileESt14default_deleteISE_EEPNS_14IODebugContextE, ptr @_ZN7rocksdb12_GLOBAL__N_123LegacyFileSystemWrapper18ReopenWritableFileERKNSt7__cxx1112basic_stringIcSt11char_traitsIcESaIcEEERKNS_11FileOptionsEPSt10unique_ptrINS_14FSWritableFileESt14default_deleteISE_EEPNS_14IODebugContextE, ptr @_ZN7rocksdb12_GLOBAL__N_123LegacyFileSystemWrapper17ReuseWritableFileERKNSt7__cxx1112basic_stringIcSt11char_traitsIcESaIcEEES9_RKNS_11FileOptionsEPSt10unique_ptrINS_14FSWritableFileESt14default_deleteISE_EEPNS_14IODebugContextE, ptr @_ZN7rocksdb12_GLOBAL__N_123LegacyFileSystemWrapper15NewRandomRWFileERKNSt7__cxx1112basic_stringIcSt11char_traitsIcESaIcEEERKNS_11FileOptionsEPSt10unique_ptrINS_14FSRandomRWFileESt14default_deleteISE_EEPNS_14IODebugContextE, ptr @_ZN7rocksdb12_GLOBAL__N_123LegacyFileSystemWrapper25NewMemoryMappedFileBufferERKNSt7__cxx1112basic_stringIcSt11char_traitsIcESaIcEEEPSt10unique_ptrINS_22MemoryMappedFileBufferESt14default_deleteISB_EE, ptr @_ZN7rocksdb12_GLOBAL__N_123LegacyFileSystemWrapper12NewDirectoryERKNSt7__cxx1112basic_stringIcSt11char_traitsIcESaIcEEERKNS_9IOOptionsEPSt10unique_ptrINS_11FSDirectoryESt14default_deleteISE_EEPNS_14IODebugContextE, ptr @_ZN7rocksdb12_GLOBAL__N_123LegacyFileSystemWrapper10FileExistsERKNSt7__cxx1112basic_stringIcSt11char_traitsIcESaIcEEERKNS_9IOOptionsEPNS_14IODebugContextE, ptr @_ZN7rocksdb12_GLOBAL__N_123LegacyFileSystemWrapper11GetChildrenERKNSt7__cxx1112basic_stringIcSt11char_traitsIcESaIcEEERKNS_9IOOptionsEPSt6vectorIS7_SaIS7_EEPNS_14IODebugContextE, ptr @_ZN7rocksdb12_GLOBAL__N_123LegacyFileSystemWrapper25GetChildrenFileAttributesERKNSt7__cxx1112basic_stringIcSt11char_traitsIcESaIcEEERKNS_9IOOptionsEPSt6vectorINS_3Env14FileAttributesESaISF_EEPNS_14IODebugContextE, ptr @_ZN7rocksdb12_GLOBAL__N_123LegacyFileSystemWrapper10DeleteFileERKNSt7__cxx1112basic_stringIcSt11char_traitsIcESaIcEEERKNS_9IOOptionsEPNS_14IODebugContextE, ptr @_ZN7rocksdb12_GLOBAL__N_123LegacyFileSystemWrapper8TruncateERKNSt7__cxx1112basic_stringIcSt11char_traitsIcESaIcEEEmRKNS_9IOOptionsEPNS_14IODebugContextE, ptr @_ZN7rocksdb12_GLOBAL__N_123LegacyFileSystemWrapper9CreateDirERKNSt7__cxx1112basic_stringIcSt11char_traitsIcESaIcEEERKNS_9IOOptionsEPNS_14IODebugContextE, ptr @_ZN7rocksdb12_GLOBAL__N_123LegacyFileSystemWrapper18CreateDirIfMissingERKNSt7__cxx1112basic_stringIcSt11char_traitsIcESaIcEEERKNS_9IOOptionsEPNS_14IODebugContextE, ptr @_ZN7rocksdb12_GLOBAL__N_123LegacyFileSystemWrapper9DeleteDirERKNSt7__cxx1112basic_stringIcSt11char_traitsIcESaIcEEERKNS_9IOOptionsEPNS_14IODebugContextE, ptr @_ZN7rocksdb12_GLOBAL__N_123LegacyFileSystemWrapper11GetFileSizeERKNSt7__cxx1112basic_stringIcSt11char_traitsIcESaIcEEERKNS_9IOOptionsEPmPNS_14IODebugContextE, ptr @_ZN7rocksdb12_GLOBAL__N_123LegacyFileSystemWrapper23GetFileModificationTimeERKNSt7__cxx1112basic_stringIcSt11char_traitsIcESaIcEEERKNS_9IOOptionsEPmPNS_14IODebugContextE, ptr @_ZN7rocksdb12_GLOBAL__N_123LegacyFileSystemWrapper10RenameFileERKNSt7__cxx1112basic_stringIcSt11char_traitsIcESaIcEEES9_RKNS_9IOOptionsEPNS_14IODebugContextE, ptr @_ZN7rocksdb12_GLOBAL__N_123LegacyFileSystemWrapper8LinkFileERKNSt7__cxx1112basic_stringIcSt11char_traitsIcESaIcEEES9_RKNS_9IOOptionsEPNS_14IODebugContextE, ptr @_ZN7rocksdb12_GLOBAL__N_123LegacyFileSystemWrapper12NumFileLinksERKNSt7__cxx1112basic_stringIcSt11char_traitsIcESaIcEEERKNS_9IOOptionsEPmPNS_14IODebugContextE, ptr @_ZN7rocksdb12_GLOBAL__N_123LegacyFileSystemWrapper12AreFilesSameERKNSt7__cxx1112basic_stringIcSt11char_traitsIcESaIcEEES9_RKNS_9IOOptionsEPbPNS_14IODebugContextE, ptr @_ZN7rocksdb12_GLOBAL__N_123LegacyFileSystemWrapper8LockFileERKNSt7__cxx1112basic_stringIcSt11char_traitsIcESaIcEEERKNS_9IOOptionsEPPNS_8FileLockEPNS_14IODebugContextE, ptr @_ZN7rocksdb12_GLOBAL__N_123LegacyFileSystemWrapper10UnlockFileEPNS_8FileLockERKNS_9IOOptionsEPNS_14IODebugContextE, ptr @_ZN7rocksdb12_GLOBAL__N_123LegacyFileSystemWrapper16GetTestDirectoryERKNS_9IOOptionsEPNSt7__cxx1112basic_stringIcSt11char_traitsIcESaIcEEEPNS_14IODebugContextE, ptr @_ZN7rocksdb12_GLOBAL__N_123LegacyFileSystemWrapper9NewLoggerERKNSt7__cxx1112basic_stringIcSt11char_traitsIcESaIcEEERKNS_9IOOptionsEPSt10shared_ptrINS_6LoggerEEPNS_14IODebugContextE, ptr @_ZN7rocksdb12_GLOBAL__N_123LegacyFileSystemWrapper15GetAbsolutePathERKNSt7__cxx1112basic_stringIcSt11char_traitsIcESaIcEEERKNS_9IOOptionsEPS7_PNS_14IODebugContextE, ptr @_ZNK7rocksdb12_GLOBAL__N_123LegacyFileSystemWrapper19SanitizeFileOptionsEPNS_11FileOptionsE, ptr @_ZNK7rocksdb12_GLOBAL__N_123LegacyFileSystemWrapper18OptimizeForLogReadERKNS_11FileOptionsE, ptr @_ZNK7rocksdb12_GLOBAL__N_123LegacyFileSystemWrapper23OptimizeForManifestReadERKNS_11FileOptionsE, ptr @_ZNK7rocksdb12_GLOBAL__N_123LegacyFileSystemWrapper19OptimizeForLogWriteERKNS_11FileOptionsERKNS_9DBOptionsE, ptr @_ZNK7rocksdb12_GLOBAL__N_123LegacyFileSystemWrapper24OptimizeForManifestWriteERKNS_11FileOptionsE, ptr @_ZNK7rocksdb12_GLOBAL__N_123LegacyFileSystemWrapper31OptimizeForCompactionTableWriteERKNS_11FileOptionsERKNS_18ImmutableDBOptionsE, ptr @_ZNK7rocksdb12_GLOBAL__N_123LegacyFileSystemWrapper30OptimizeForCompactionTableReadERKNS_11FileOptionsERKNS_18ImmutableDBOptionsE, ptr @_ZNK7rocksdb12_GLOBAL__N_123LegacyFileSystemWrapper23OptimizeForBlobFileReadERKNS_11FileOptionsERKNS_18ImmutableDBOptionsE, ptr @_ZN7rocksdb12_GLOBAL__N_123LegacyFileSystemWrapper12GetFreeSpaceERKNSt7__cxx1112basic_stringIcSt11char_traitsIcESaIcEEERKNS_9IOOptionsEPmPNS_14IODebugContextE, ptr @_ZN7rocksdb12_GLOBAL__N_123LegacyFileSystemWrapper11IsDirectoryERKNSt7__cxx1112basic_stringIcSt11char_traitsIcESaIcEEERKNS_9IOOptionsEPbPNS_14IODebugContextE, ptr @_ZN7rocksdb10FileSystem4PollERSt6vectorIPvSaIS2_EEm, ptr @_ZN7rocksdb10FileSystem7AbortIOERSt6vectorIPvSaIS2_EE, ptr @_ZN7rocksdb10FileSystem12SupportedOpsERl] }, align 8
@.str.45 = private unnamed_addr constant [17 x i8] c"LegacyFileSystem\00", align 1
@_ZTVN7rocksdb12_GLOBAL__N_127LegacySequentialFileWrapperE = internal unnamed_addr constant { [11 x ptr] } { [11 x ptr] [ptr null, ptr null, ptr @_ZN7rocksdb12_GLOBAL__N_127LegacySequentialFileWrapperD2Ev, ptr @_ZN7rocksdb12_GLOBAL__N_127LegacySequentialFileWrapperD0Ev, ptr @_ZN7rocksdb12_GLOBAL__N_127LegacySequentialFileWrapper4ReadEmRKNS_9IOOptionsEPNS_5SliceEPcPNS_14IODebugContextE, ptr @_ZN7rocksdb12_GLOBAL__N_127LegacySequentialFileWrapper4SkipEm, ptr @_ZNK7rocksdb12_GLOBAL__N_127LegacySequentialFileWrapper13use_direct_ioEv, ptr @_ZNK7rocksdb12_GLOBAL__N_127LegacySequentialFileWrapper26GetRequiredBufferAlignmentEv, ptr @_ZN7rocksdb12_GLOBAL__N_127LegacySequentialFileWrapper15InvalidateCacheEmm, ptr @_ZN7rocksdb12_GLOBAL__N_127LegacySequentialFileWrapper14PositionedReadEmmRKNS_9IOOptionsEPNS_5SliceEPcPNS_14IODebugContextE, ptr @_ZNK7rocksdb16FSSequentialFile14GetTemperatureEv] }, align 8
@_ZTVN7rocksdb12_GLOBAL__N_129LegacyRandomAccessFileWrapperE = internal unnamed_addr constant { [14 x ptr] } { [14 x ptr] [ptr null, ptr null, ptr @_ZN7rocksdb12_GLOBAL__N_129LegacyRandomAccessFileWrapperD2Ev, ptr @_ZN7rocksdb12_GLOBAL__N_129LegacyRandomAccessFileWrapperD0Ev, ptr @_ZNK7rocksdb12_GLOBAL__N_129LegacyRandomAccessFileWrapper4ReadEmmRKNS_9IOOptionsEPNS_5SliceEPcPNS_14IODebugContextE, ptr @_ZN7rocksdb12_GLOBAL__N_129LegacyRandomAccessFileWrapper8PrefetchEmmRKNS_9IOOptionsEPNS_14IODebugContextE, ptr @_ZN7rocksdb12_GLOBAL__N_129LegacyRandomAccessFileWrapper9MultiReadEPNS_13FSReadRequestEmRKNS_9IOOptionsEPNS_14IODebugContextE, ptr @_ZNK7rocksdb12_GLOBAL__N_129LegacyRandomAccessFileWrapper11GetUniqueIdEPcm, ptr @_ZN7rocksdb12_GLOBAL__N_129LegacyRandomAccessFileWrapper4HintENS_18FSRandomAccessFile13AccessPatternE, ptr @_ZNK7rocksdb12_GLOBAL__N_129LegacyRandomAccessFileWrapper13use_direct_ioEv, ptr @_ZNK7rocksdb12_GLOBAL__N_129LegacyRandomAccessFileWrapper26GetRequiredBufferAlignmentEv, ptr @_ZN7rocksdb12_GLOBAL__N_129LegacyRandomAccessFileWrapper15InvalidateCacheEmm, ptr @_ZN7rocksdb18FSRandomAccessFile9ReadAsyncERNS_13FSReadRequestERKNS_9IOOptionsESt8functionIFvRKS1_PvEES9_PS9_PS6_IFvS9_EEPNS_14IODebugContextE, ptr @_ZNK7rocksdb18FSRandomAccessFile14GetTemperatureEv] }, align 8
@.str.49 = private unnamed_addr constant [16 x i8] c"vector::reserve\00", align 1
@_ZTVN7rocksdb12_GLOBAL__N_125LegacyWritableFileWrapperE = internal unnamed_addr constant { [28 x ptr] } { [28 x ptr] [ptr null, ptr null, ptr @_ZN7rocksdb12_GLOBAL__N_125LegacyWritableFileWrapperD2Ev, ptr @_ZN7rocksdb12_GLOBAL__N_125LegacyWritableFileWrapperD0Ev, ptr @_ZN7rocksdb12_GLOBAL__N_125LegacyWritableFileWrapper6AppendERKNS_5SliceERKNS_9IOOptionsEPNS_14IODebugContextE, ptr @_ZN7rocksdb12_GLOBAL__N_125LegacyWritableFileWrapper6AppendERKNS_5SliceERKNS_9IOOptionsERKNS_20DataVerificationInfoEPNS_14IODebugContextE, ptr @_ZN7rocksdb12_GLOBAL__N_125LegacyWritableFileWrapper16PositionedAppendERKNS_5SliceEmRKNS_9IOOptionsEPNS_14IODebugContextE, ptr @_ZN7rocksdb12_GLOBAL__N_125LegacyWritableFileWrapper16PositionedAppendERKNS_5SliceEmRKNS_9IOOptionsERKNS_20DataVerificationInfoEPNS_14IODebugContextE, ptr @_ZN7rocksdb12_GLOBAL__N_125LegacyWritableFileWrapper8TruncateEmRKNS_9IOOptionsEPNS_14IODebugContextE, ptr @_ZN7rocksdb12_GLOBAL__N_125LegacyWritableFileWrapper5CloseERKNS_9IOOptionsEPNS_14IODebugContextE, ptr @_ZN7rocksdb12_GLOBAL__N_125LegacyWritableFileWrapper5FlushERKNS_9IOOptionsEPNS_14IODebugContextE, ptr @_ZN7rocksdb12_GLOBAL__N_125LegacyWritableFileWrapper4SyncERKNS_9IOOptionsEPNS_14IODebugContextE, ptr @_ZN7rocksdb12_GLOBAL__N_125LegacyWritableFileWrapper5FsyncERKNS_9IOOptionsEPNS_14IODebugContextE, ptr @_ZNK7rocksdb12_GLOBAL__N_125LegacyWritableFileWrapper16IsSyncThreadSafeEv, ptr @_ZNK7rocksdb12_GLOBAL__N_125LegacyWritableFileWrapper13use_direct_ioEv, ptr @_ZNK7rocksdb12_GLOBAL__N_125LegacyWritableFileWrapper26GetRequiredBufferAlignmentEv, ptr @_ZN7rocksdb12_GLOBAL__N_125LegacyWritableFileWrapper20SetWriteLifeTimeHintENS_3Env17WriteLifeTimeHintE, ptr @_ZN7rocksdb14FSWritableFile13SetIOPriorityENS_3Env10IOPriorityE, ptr @_ZN7rocksdb14FSWritableFile13GetIOPriorityEv, ptr @_ZN7rocksdb12_GLOBAL__N_125LegacyWritableFileWrapper20GetWriteLifeTimeHintEv, ptr @_ZN7rocksdb12_GLOBAL__N_125LegacyWritableFileWrapper11GetFileSizeERKNS_9IOOptionsEPNS_14IODebugContextE, ptr @_ZN7rocksdb12_GLOBAL__N_125LegacyWritableFileWrapper25SetPreallocationBlockSizeEm, ptr @_ZN7rocksdb12_GLOBAL__N_125LegacyWritableFileWrapper22GetPreallocationStatusEPmS2_, ptr @_ZNK7rocksdb12_GLOBAL__N_125LegacyWritableFileWrapper11GetUniqueIdEPcm, ptr @_ZN7rocksdb12_GLOBAL__N_125LegacyWritableFileWrapper15InvalidateCacheEmm, ptr @_ZN7rocksdb12_GLOBAL__N_125LegacyWritableFileWrapper9RangeSyncEmmRKNS_9IOOptionsEPNS_14IODebugContextE, ptr @_ZN7rocksdb12_GLOBAL__N_125LegacyWritableFileWrapper12PrepareWriteEmmRKNS_9IOOptionsEPNS_14IODebugContextE, ptr @_ZN7rocksdb12_GLOBAL__N_125LegacyWritableFileWrapper8AllocateEmmRKNS_9IOOptionsEPNS_14IODebugContextE] }, align 8
@_ZTVN7rocksdb12_GLOBAL__N_125LegacyRandomRWFileWrapperE = internal unnamed_addr constant { [13 x ptr] } { [13 x ptr] [ptr null, ptr null, ptr @_ZN7rocksdb12_GLOBAL__N_125LegacyRandomRWFileWrapperD2Ev, ptr @_ZN7rocksdb12_GLOBAL__N_125LegacyRandomRWFileWrapperD0Ev, ptr @_ZNK7rocksdb12_GLOBAL__N_125LegacyRandomRWFileWrapper13use_direct_ioEv, ptr @_ZNK7rocksdb12_GLOBAL__N_125LegacyRandomRWFileWrapper26GetRequiredBufferAlignmentEv, ptr @_ZN7rocksdb12_GLOBAL__N_125LegacyRandomRWFileWrapper5WriteEmRKNS_5SliceERKNS_9IOOptionsEPNS_14IODebugContextE, ptr @_ZNK7rocksdb12_GLOBAL__N_125LegacyRandomRWFileWrapper4ReadEmmRKNS_9IOOptionsEPNS_5SliceEPcPNS_14IODebugContextE, ptr @_ZN7rocksdb12_GLOBAL__N_125LegacyRandomRWFileWrapper5FlushERKNS_9IOOptionsEPNS_14IODebugContextE, ptr @_ZN7rocksdb12_GLOBAL__N_125LegacyRandomRWFileWrapper4SyncERKNS_9IOOptionsEPNS_14IODebugContextE, ptr @_ZN7rocksdb12_GLOBAL__N_125LegacyRandomRWFileWrapper5FsyncERKNS_9IOOptionsEPNS_14IODebugContextE, ptr @_ZN7rocksdb12_GLOBAL__N_125LegacyRandomRWFileWrapper5CloseERKNS_9IOOptionsEPNS_14IODebugContextE, ptr @_ZNK7rocksdb14FSRandomRWFile14GetTemperatureEv] }, align 8
@_ZTVN7rocksdb12_GLOBAL__N_122LegacyDirectoryWrapperE = internal unnamed_addr constant { [8 x ptr] } { [8 x ptr] [ptr null, ptr null, ptr @_ZN7rocksdb12_GLOBAL__N_122LegacyDirectoryWrapperD2Ev, ptr @_ZN7rocksdb12_GLOBAL__N_122LegacyDirectoryWrapperD0Ev, ptr @_ZN7rocksdb12_GLOBAL__N_122LegacyDirectoryWrapper5FsyncERKNS_9IOOptionsEPNS_14IODebugContextE, ptr @_ZN7rocksdb11FSDirectory19FsyncWithDirOptionsERKNS_9IOOptionsEPNS_14IODebugContextERKNS_15DirFsyncOptionsE, ptr @_ZN7rocksdb12_GLOBAL__N_122LegacyDirectoryWrapper5CloseERKNS_9IOOptionsEPNS_14IODebugContextE, ptr @_ZNK7rocksdb12_GLOBAL__N_122LegacyDirectoryWrapper11GetUniqueIdEPcm] }, align 8
@_ZZNSt19_Sp_make_shared_tag5_S_tiEvE5__tag = linkonce_odr constant [16 x i8] zeroinitializer, comdat, align 8
@_ZTVSt23_Sp_counted_ptr_inplaceIN7rocksdb12_GLOBAL__N_117LegacySystemClockESaIvELN9__gnu_cxx12_Lock_policyE2EE = internal unnamed_addr constant { [7 x ptr] } { [7 x ptr] [ptr null, ptr null, ptr @_ZNSt23_Sp_counted_ptr_inplaceIN7rocksdb12_GLOBAL__N_117LegacySystemClockESaIvELN9__gnu_cxx12_Lock_policyE2EED2Ev, ptr @_ZNSt23_Sp_counted_ptr_inplaceIN7rocksdb12_GLOBAL__N_117LegacySystemClockESaIvELN9__gnu_cxx12_Lock_policyE2EED0Ev, ptr @_ZNSt23_Sp_counted_ptr_inplaceIN7rocksdb12_GLOBAL__N_117LegacySystemClockESaIvELN9__gnu_cxx12_Lock_policyE2EE10_M_disposeEv, ptr @_ZNSt23_Sp_counted_ptr_inplaceIN7rocksdb12_GLOBAL__N_117LegacySystemClockESaIvELN9__gnu_cxx12_Lock_policyE2EE10_M_destroyEv, ptr @_ZNSt23_Sp_counted_ptr_inplaceIN7rocksdb12_GLOBAL__N_117LegacySystemClockESaIvELN9__gnu_cxx12_Lock_policyE2EE14_M_get_deleterERKSt9type_info] }, align 8
@_ZTVN7rocksdb12_GLOBAL__N_117LegacySystemClockE = internal unnamed_addr constant { [29 x ptr] } { [29 x ptr] [ptr null, ptr null, ptr @_ZN7rocksdb12_GLOBAL__N_117LegacySystemClockD2Ev, ptr @_ZN7rocksdb12_GLOBAL__N_117LegacySystemClockD0Ev, ptr @_ZNK7rocksdb12Customizable9GetOptionERKNS_13ConfigOptionsERKNSt7__cxx1112basic_stringIcSt11char_traitsIcESaIcEEEPS9_, ptr @_ZNK7rocksdb12Customizable13AreEquivalentERKNS_13ConfigOptionsEPKNS_12ConfigurableEPNSt7__cxx1112basic_stringIcSt11char_traitsIcESaIcEEE, ptr @_ZNK7rocksdb12Configurable19GetPrintableOptionsB5cxx11Ev, ptr @_ZN7rocksdb12Configurable14PrepareOptionsERKNS_13ConfigOptionsE, ptr @_ZNK7rocksdb12Configurable15ValidateOptionsERKNS_9DBOptionsERKNS_19ColumnFamilyOptionsE, ptr @_ZNK7rocksdb12Customizable13GetOptionsPtrERKNSt7__cxx1112basic_stringIcSt11char_traitsIcESaIcEEE, ptr @_ZN7rocksdb12Configurable18ParseStringOptionsERKNS_13ConfigOptionsERKNSt7__cxx1112basic_stringIcSt11char_traitsIcESaIcEEE, ptr @_ZN7rocksdb12Configurable16ConfigureOptionsERKNS_13ConfigOptionsERKSt13unordered_mapINSt7__cxx1112basic_stringIcSt11char_traitsIcESaIcEEESA_St4hashISA_ESt8equal_toISA_ESaISt4pairIKSA_SA_EEEPSJ_, ptr @_ZN7rocksdb12Configurable11ParseOptionERKNS_13ConfigOptionsERKNS_14OptionTypeInfoERKNSt7__cxx1112basic_stringIcSt11char_traitsIcESaIcEEESE_Pv, ptr @_ZNK7rocksdb12Configurable15OptionsAreEqualERKNS_13ConfigOptionsERKNS_14OptionTypeInfoERKNSt7__cxx1112basic_stringIcSt11char_traitsIcESaIcEEEPKvSG_PSC_, ptr @_ZNK7rocksdb12_GLOBAL__N_117LegacySystemClock16SerializeOptionsERKNS_13ConfigOptionsERKNSt7__cxx1112basic_stringIcSt11char_traitsIcESaIcEEE, ptr @_ZNK7rocksdb12Customizable13GetOptionNameERKNSt7__cxx1112basic_stringIcSt11char_traitsIcESaIcEEE, ptr @_ZNK7rocksdb12_GLOBAL__N_117LegacySystemClock4NameEv, ptr @_ZNK7rocksdb12Customizable5GetIdB5cxx11Ev, ptr @_ZNK7rocksdb12Customizable12IsInstanceOfERKNSt7__cxx1112basic_stringIcSt11char_traitsIcESaIcEEE, ptr @_ZNK7rocksdb12Customizable5InnerEv, ptr @_ZNK7rocksdb12Customizable8NickNameEv, ptr @_ZN7rocksdb12_GLOBAL__N_117LegacySystemClock9NowMicrosEv, ptr @_ZN7rocksdb12_GLOBAL__N_117LegacySystemClock8NowNanosEv, ptr @_ZN7rocksdb12_GLOBAL__N_117LegacySystemClock9CPUMicrosEv, ptr @_ZN7rocksdb12_GLOBAL__N_117LegacySystemClock8CPUNanosEv, ptr @_ZN7rocksdb12_GLOBAL__N_117LegacySystemClock20SleepForMicrosecondsEi, ptr @_ZN7rocksdb11SystemClock9TimedWaitEPNS_4port7CondVarENSt6chrono8durationIlSt5ratioILl1ELl1000000EEEE, ptr @_ZN7rocksdb12_GLOBAL__N_117LegacySystemClock14GetCurrentTimeEPl, ptr @_ZN7rocksdb12_GLOBAL__N_117LegacySystemClock12TimeToStringB5cxx11Em] }, align 8
@.str.51 = private unnamed_addr constant [18 x i8] c"LegacySystemClock\00", align 1
@.str.52 = private unnamed_addr constant [21 x i8] c"Cannot reset object \00", align 1
@.str.53 = private unnamed_addr constant [22 x i8] c"Cannot make a static \00", align 1
@.str.54 = private unnamed_addr constant [21 x i8] c" from a guarded one \00", align 1
@.str.55 = private unnamed_addr constant [16 x i8] c"Could not load \00", align 1
@_ZTVSt15_Sp_counted_ptrIPN7rocksdb3EnvELN9__gnu_cxx12_Lock_policyE2EE = linkonce_odr unnamed_addr constant { [7 x ptr] } { [7 x ptr] [ptr null, ptr null, ptr @_ZNSt15_Sp_counted_ptrIPN7rocksdb3EnvELN9__gnu_cxx12_Lock_policyE2EED2Ev, ptr @_ZNSt15_Sp_counted_ptrIPN7rocksdb3EnvELN9__gnu_cxx12_Lock_policyE2EED0Ev, ptr @_ZNSt15_Sp_counted_ptrIPN7rocksdb3EnvELN9__gnu_cxx12_Lock_policyE2EE10_M_disposeEv, ptr @_ZNSt15_Sp_counted_ptrIPN7rocksdb3EnvELN9__gnu_cxx12_Lock_policyE2EE10_M_destroyEv, ptr @_ZNSt15_Sp_counted_ptrIPN7rocksdb3EnvELN9__gnu_cxx12_Lock_policyE2EE14_M_get_deleterERKSt9type_info] }, comdat, align 8
@_ZTVSt15_Sp_counted_ptrIPN7rocksdb19CompositeEnvWrapperELN9__gnu_cxx12_Lock_policyE2EE = linkonce_odr unnamed_addr constant { [7 x ptr] } { [7 x ptr] [ptr null, ptr null, ptr @_ZNSt15_Sp_counted_ptrIPN7rocksdb19CompositeEnvWrapperELN9__gnu_cxx12_Lock_policyE2EED2Ev, ptr @_ZNSt15_Sp_counted_ptrIPN7rocksdb19CompositeEnvWrapperELN9__gnu_cxx12_Lock_policyE2EED0Ev, ptr @_ZNSt15_Sp_counted_ptrIPN7rocksdb19CompositeEnvWrapperELN9__gnu_cxx12_Lock_policyE2EE10_M_disposeEv, ptr @_ZNSt15_Sp_counted_ptrIPN7rocksdb19CompositeEnvWrapperELN9__gnu_cxx12_Lock_policyE2EE10_M_destroyEv, ptr @_ZNSt15_Sp_counted_ptrIPN7rocksdb19CompositeEnvWrapperELN9__gnu_cxx12_Lock_policyE2EE14_M_get_deleterERKSt9type_info] }, comdat, align 8
@.str.57 = private unnamed_addr constant [37 x i8] c"0123456789abcdefghijklmnopqrstuvwxyz\00", align 1
@_ZTVSt23_Sp_counted_ptr_inplaceIN7rocksdb9EnvLoggerESaIvELN9__gnu_cxx12_Lock_policyE2EE = linkonce_odr unnamed_addr constant { [7 x ptr] } { [7 x ptr] [ptr null, ptr null, ptr @_ZNSt23_Sp_counted_ptr_inplaceIN7rocksdb9EnvLoggerESaIvELN9__gnu_cxx12_Lock_policyE2EED2Ev, ptr @_ZNSt23_Sp_counted_ptr_inplaceIN7rocksdb9EnvLoggerESaIvELN9__gnu_cxx12_Lock_policyE2EED0Ev, ptr @_ZNSt23_Sp_counted_ptr_inplaceIN7rocksdb9EnvLoggerESaIvELN9__gnu_cxx12_Lock_policyE2EE10_M_disposeEv, ptr @_ZNSt23_Sp_counted_ptr_inplaceIN7rocksdb9EnvLoggerESaIvELN9__gnu_cxx12_Lock_policyE2EE10_M_destroyEv, ptr @_ZNSt23_Sp_counted_ptr_inplaceIN7rocksdb9EnvLoggerESaIvELN9__gnu_cxx12_Lock_policyE2EE14_M_get_deleterERKSt9type_info] }, comdat, align 8
@_ZTVN7rocksdb9EnvLoggerE = linkonce_odr unnamed_addr constant { [13 x ptr] } { [13 x ptr] [ptr null, ptr null, ptr @_ZN7rocksdb9EnvLoggerD2Ev, ptr @_ZN7rocksdb9EnvLoggerD0Ev, ptr @_ZN7rocksdb6Logger5CloseEv, ptr @_ZN7rocksdb6Logger9LogHeaderEPKcP13__va_list_tag, ptr @_ZN7rocksdb9EnvLogger4LogvEPKcP13__va_list_tag, ptr @_ZN7rocksdb6Logger4LogvENS_12InfoLogLevelEPKcP13__va_list_tag, ptr @_ZNK7rocksdb9EnvLogger14GetLogFileSizeEv, ptr @_ZN7rocksdb9EnvLogger5FlushEv, ptr @_ZNK7rocksdb6Logger15GetInfoLogLevelEv, ptr @_ZN7rocksdb6Logger15SetInfoLogLevelENS_12InfoLogLevelE, ptr @_ZN7rocksdb9EnvLogger9CloseImplEv] }, comdat, align 8
@_ZN7rocksdb23kDefaultToAdaptiveMutexE = external local_unnamed_addr constant i8, align 1
@.str.58 = private unnamed_addr constant [3 x i8] c"/\\\00", align 1
@_ZTVN7rocksdb28FSWritableFileTracingWrapperE = external unnamed_addr constant { [28 x ptr] }, align 8
@_ZTVN7rocksdb26FSWritableFileOwnerWrapperE = linkonce_odr unnamed_addr constant { [28 x ptr] } { [28 x ptr] [ptr null, ptr null, ptr @_ZN7rocksdb26FSWritableFileOwnerWrapperD2Ev, ptr @_ZN7rocksdb26FSWritableFileOwnerWrapperD0Ev, ptr @_ZN7rocksdb21FSWritableFileWrapper6AppendERKNS_5SliceERKNS_9IOOptionsEPNS_14IODebugContextE, ptr @_ZN7rocksdb21FSWritableFileWrapper6AppendERKNS_5SliceERKNS_9IOOptionsERKNS_20DataVerificationInfoEPNS_14IODebugContextE, ptr @_ZN7rocksdb21FSWritableFileWrapper16PositionedAppendERKNS_5SliceEmRKNS_9IOOptionsEPNS_14IODebugContextE, ptr @_ZN7rocksdb21FSWritableFileWrapper16PositionedAppendERKNS_5SliceEmRKNS_9IOOptionsERKNS_20DataVerificationInfoEPNS_14IODebugContextE, ptr @_ZN7rocksdb21FSWritableFileWrapper8TruncateEmRKNS_9IOOptionsEPNS_14IODebugContextE, ptr @_ZN7rocksdb21FSWritableFileWrapper5CloseERKNS_9IOOptionsEPNS_14IODebugContextE, ptr @_ZN7rocksdb21FSWritableFileWrapper5FlushERKNS_9IOOptionsEPNS_14IODebugContextE, ptr @_ZN7rocksdb21FSWritableFileWrapper4SyncERKNS_9IOOptionsEPNS_14IODebugContextE, ptr @_ZN7rocksdb21FSWritableFileWrapper5FsyncERKNS_9IOOptionsEPNS_14IODebugContextE, ptr @_ZNK7rocksdb21FSWritableFileWrapper16IsSyncThreadSafeEv, ptr @_ZNK7rocksdb21FSWritableFileWrapper13use_direct_ioEv, ptr @_ZNK7rocksdb21FSWritableFileWrapper26GetRequiredBufferAlignmentEv, ptr @_ZN7rocksdb21FSWritableFileWrapper20SetWriteLifeTimeHintENS_3Env17WriteLifeTimeHintE, ptr @_ZN7rocksdb14FSWritableFile13SetIOPriorityENS_3Env10IOPriorityE, ptr @_ZN7rocksdb14FSWritableFile13GetIOPriorityEv, ptr @_ZN7rocksdb21FSWritableFileWrapper20GetWriteLifeTimeHintEv, ptr @_ZN7rocksdb21FSWritableFileWrapper11GetFileSizeERKNS_9IOOptionsEPNS_14IODebugContextE, ptr @_ZN7rocksdb21FSWritableFileWrapper25SetPreallocationBlockSizeEm, ptr @_ZN7rocksdb21FSWritableFileWrapper22GetPreallocationStatusEPmS1_, ptr @_ZNK7rocksdb21FSWritableFileWrapper11GetUniqueIdEPcm, ptr @_ZN7rocksdb21FSWritableFileWrapper15InvalidateCacheEmm, ptr @_ZN7rocksdb21FSWritableFileWrapper9RangeSyncEmmRKNS_9IOOptionsEPNS_14IODebugContextE, ptr @_ZN7rocksdb21FSWritableFileWrapper12PrepareWriteEmmRKNS_9IOOptionsEPNS_14IODebugContextE, ptr @_ZN7rocksdb21FSWritableFileWrapper8AllocateEmmRKNS_9IOOptionsEPNS_14IODebugContextE] }, comdat, align 8
@.str.59 = private unnamed_addr constant [37 x i8] c"Close of log file failed with error:\00", align 1
@_ZN7rocksdb15iostats_contextE = external thread_local global %"struct.rocksdb::IOStatsContext", align 8
@.str.60 = private unnamed_addr constant [41 x i8] c"%04d/%02d/%02d-%02d:%02d:%02d.%06d %llu \00", align 1
@_ZTVN7rocksdb13ObjectLibrary12FactoryEntryINS_11SystemClockEEE = linkonce_odr unnamed_addr constant { [6 x ptr] } { [6 x ptr] [ptr null, ptr null, ptr @_ZN7rocksdb13ObjectLibrary12FactoryEntryINS_11SystemClockEED2Ev, ptr @_ZN7rocksdb13ObjectLibrary12FactoryEntryINS_11SystemClockEED0Ev, ptr @_ZNK7rocksdb13ObjectLibrary12FactoryEntryINS_11SystemClockEE7MatchesERKNSt7__cxx1112basic_stringIcSt11char_traitsIcESaIcEEE, ptr @_ZNK7rocksdb13ObjectLibrary12FactoryEntryINS_11SystemClockEE4NameEv] }, comdat, align 8
@.str.61 = private unnamed_addr constant [12 x i8] c"SystemClock\00", align 1
@.str.62 = private unnamed_addr constant [24 x i8] c"TimeEmulatedSystemClock\00", align 1
@.str.63 = private unnamed_addr constant [22 x i8] c"Cannot make a shared \00", align 1
@.str.64 = private unnamed_addr constant [21 x i8] c" from unguarded one \00", align 1
@_ZTVSt15_Sp_counted_ptrIPN7rocksdb11SystemClockELN9__gnu_cxx12_Lock_policyE2EE = linkonce_odr unnamed_addr constant { [7 x ptr] } { [7 x ptr] [ptr null, ptr null, ptr @_ZNSt15_Sp_counted_ptrIPN7rocksdb11SystemClockELN9__gnu_cxx12_Lock_policyE2EED2Ev, ptr @_ZNSt15_Sp_counted_ptrIPN7rocksdb11SystemClockELN9__gnu_cxx12_Lock_policyE2EED0Ev, ptr @_ZNSt15_Sp_counted_ptrIPN7rocksdb11SystemClockELN9__gnu_cxx12_Lock_policyE2EE10_M_disposeEv, ptr @_ZNSt15_Sp_counted_ptrIPN7rocksdb11SystemClockELN9__gnu_cxx12_Lock_policyE2EE10_M_destroyEv, ptr @_ZNSt15_Sp_counted_ptrIPN7rocksdb11SystemClockELN9__gnu_cxx12_Lock_policyE2EE14_M_get_deleterERKSt9type_info] }, comdat, align 8
@llvm.global_ctors = appending global [1 x { i32, ptr, ptr }] [{ i32, ptr, ptr } { i32 65535, ptr @_GLOBAL__sub_I_env.cc, ptr null }]

@_ZN7rocksdb3EnvD1Ev = unnamed_addr alias void (ptr), ptr @_ZN7rocksdb3EnvD2Ev
@_ZN7rocksdb14SequentialFileD1Ev = unnamed_addr alias void (ptr), ptr @_ZN7rocksdb14SequentialFileD2Ev
@_ZN7rocksdb16RandomAccessFileD1Ev = unnamed_addr alias void (ptr), ptr @_ZN7rocksdb16RandomAccessFileD2Ev
@_ZN7rocksdb12WritableFileD1Ev = unnamed_addr alias void (ptr), ptr @_ZN7rocksdb12WritableFileD2Ev
@_ZN7rocksdb22MemoryMappedFileBufferD1Ev = unnamed_addr alias void (ptr), ptr @_ZN7rocksdb22MemoryMappedFileBufferD2Ev
@_ZN7rocksdb6LoggerD1Ev = unnamed_addr alias void (ptr), ptr @_ZN7rocksdb6LoggerD2Ev
@_ZN7rocksdb8FileLockD1Ev = unnamed_addr alias void (ptr), ptr @_ZN7rocksdb8FileLockD2Ev
@_ZN7rocksdb10EnvOptionsC1ERKNS_9DBOptionsE = unnamed_addr alias void (ptr, ptr), ptr @_ZN7rocksdb10EnvOptionsC2ERKNS_9DBOptionsE
@_ZN7rocksdb10EnvOptionsC1Ev = unnamed_addr alias void (ptr), ptr @_ZN7rocksdb10EnvOptionsC2Ev

; Function Attrs: mustprogress nounwind uwtable
define linkonce_odr void @_ZNSt6vectorIN7rocksdb5SliceESaIS1_EED2Ev(ptr noundef nonnull align 8 dereferenceable(24) %this) unnamed_addr #0 comdat align 2 personality ptr @__gxx_personality_v0 {
invoke.cont:
  %0 = load ptr, ptr %this, align 8
  %tobool.not.i.i = icmp eq ptr %0, null
  br i1 %tobool.not.i.i, label %_ZNSt12_Vector_baseIN7rocksdb5SliceESaIS1_EED2Ev.exit, label %if.then.i.i

if.then.i.i:                                      ; preds = %invoke.cont
  tail call void @_ZdlPv(ptr noundef nonnull %0) #30
  br label %_ZNSt12_Vector_baseIN7rocksdb5SliceESaIS1_EED2Ev.exit

_ZNSt12_Vector_baseIN7rocksdb5SliceESaIS1_EED2Ev.exit: ; preds = %invoke.cont, %if.then.i.i
  ret void
}

; Function Attrs: nofree nounwind
declare i32 @__cxa_atexit(ptr, ptr, ptr) local_unnamed_addr #1

; Function Attrs: mustprogress uwtable
define void @_ZN7rocksdb3EnvC2Ev(ptr noundef nonnull align 8 dereferenceable(72) %this) unnamed_addr #2 align 2 personality ptr @__gxx_personality_v0 {
entry:
  %options_.i.i = getelementptr inbounds i8, ptr %this, i64 8
  tail call void @llvm.memset.p0.i64(ptr noundef nonnull align 8 dereferenceable(24) %options_.i.i, i8 0, i64 24, i1 false)
  store ptr getelementptr inbounds ({ [87 x ptr] }, ptr @_ZTVN7rocksdb3EnvE, i64 0, inrange i32 0, i64 2), ptr %this, align 8
  %thread_status_updater_ = getelementptr inbounds i8, ptr %this, i64 32
  %file_system_ = getelementptr inbounds i8, ptr %this, i64 40
  %system_clock_ = getelementptr inbounds i8, ptr %this, i64 56
  tail call void @llvm.memset.p0.i64(ptr noundef nonnull align 8 dereferenceable(40) %thread_status_updater_, i8 0, i64 40, i1 false)
  %call5.i.i.i5.i.i.i.i1 = invoke noalias noundef nonnull dereferenceable(56) ptr @_Znwm(i64 noundef 56) #31
          to label %call5.i.i.i5.i.i.i.i.noexc unwind label %lpad

call5.i.i.i5.i.i.i.i.noexc:                       ; preds = %entry
  %_M_use_count.i.i.i.i.i.i = getelementptr inbounds i8, ptr %call5.i.i.i5.i.i.i.i1, i64 8
  store i32 1, ptr %_M_use_count.i.i.i.i.i.i, align 8, !noalias !4
  %_M_weak_count.i.i.i.i.i.i = getelementptr inbounds i8, ptr %call5.i.i.i5.i.i.i.i1, i64 12
  store i32 1, ptr %_M_weak_count.i.i.i.i.i.i, align 4, !noalias !4
  store ptr getelementptr inbounds ({ [7 x ptr] }, ptr @_ZTVSt23_Sp_counted_ptr_inplaceIN7rocksdb12_GLOBAL__N_123LegacyFileSystemWrapperESaIvELN9__gnu_cxx12_Lock_policyE2EE, i64 0, inrange i32 0, i64 2), ptr %call5.i.i.i5.i.i.i.i1, align 8, !noalias !4
  %_M_impl.i.i.i.i.i.i = getelementptr inbounds i8, ptr %call5.i.i.i5.i.i.i.i1, i64 16
  invoke void @_ZN7rocksdb10FileSystemC2Ev(ptr noundef nonnull align 8 dereferenceable(32) %_M_impl.i.i.i.i.i.i)
          to label %invoke.cont unwind label %_ZNSt15__allocated_ptrISaISt23_Sp_counted_ptr_inplaceIN7rocksdb12_GLOBAL__N_123LegacyFileSystemWrapperESaIvELN9__gnu_cxx12_Lock_policyE2EEEED2Ev.exit8.i.i.i.i, !noalias !4

_ZNSt15__allocated_ptrISaISt23_Sp_counted_ptr_inplaceIN7rocksdb12_GLOBAL__N_123LegacyFileSystemWrapperESaIvELN9__gnu_cxx12_Lock_policyE2EEEED2Ev.exit8.i.i.i.i: ; preds = %call5.i.i.i5.i.i.i.i.noexc
  %0 = landingpad { ptr, i32 }
          cleanup
  tail call void @_ZdlPv(ptr noundef nonnull %call5.i.i.i5.i.i.i.i1) #30, !noalias !4
  br label %lpad.body

invoke.cont:                                      ; preds = %call5.i.i.i5.i.i.i.i.noexc
  store ptr getelementptr inbounds ({ [63 x ptr] }, ptr @_ZTVN7rocksdb12_GLOBAL__N_123LegacyFileSystemWrapperE, i64 0, inrange i32 0, i64 2), ptr %_M_impl.i.i.i.i.i.i, align 8, !noalias !4
  %target_.i.i.i.i.i.i.i.i = getelementptr inbounds i8, ptr %call5.i.i.i5.i.i.i.i1, i64 48
  store ptr %this, ptr %target_.i.i.i.i.i.i.i.i, align 8, !noalias !4
  store ptr %_M_impl.i.i.i.i.i.i, ptr %file_system_, align 8
  %_M_refcount3.i.i.i = getelementptr inbounds i8, ptr %this, i64 48
  %1 = load ptr, ptr %_M_refcount3.i.i.i, align 8
  store ptr %call5.i.i.i5.i.i.i.i1, ptr %_M_refcount3.i.i.i, align 8
  %cmp.not.i.i.i.i = icmp eq ptr %1, null
  br i1 %cmp.not.i.i.i.i, label %_ZNSt10shared_ptrIN7rocksdb12_GLOBAL__N_123LegacyFileSystemWrapperEED2Ev.exit, label %if.then.i.i.i.i

if.then.i.i.i.i:                                  ; preds = %invoke.cont
  %_M_use_count.i.i.i.i.i = getelementptr inbounds i8, ptr %1, i64 8
  %2 = load atomic i64, ptr %_M_use_count.i.i.i.i.i acquire, align 8
  %cmp.i.i.i.i.i = icmp eq i64 %2, 4294967297
  %3 = trunc i64 %2 to i32
  br i1 %cmp.i.i.i.i.i, label %if.then.i.i.i.i.i, label %if.end.i.i.i.i.i

if.then.i.i.i.i.i:                                ; preds = %if.then.i.i.i.i
  store i32 0, ptr %_M_use_count.i.i.i.i.i, align 8
  %_M_weak_count.i.i.i.i.i = getelementptr inbounds i8, ptr %1, i64 12
  store i32 0, ptr %_M_weak_count.i.i.i.i.i, align 4
  %vtable.i.i.i.i.i = load ptr, ptr %1, align 8
  %vfn.i.i.i.i.i = getelementptr inbounds i8, ptr %vtable.i.i.i.i.i, i64 16
  %4 = load ptr, ptr %vfn.i.i.i.i.i, align 8
  tail call void %4(ptr noundef nonnull align 8 dereferenceable(16) %1) #32
  br label %if.end8.sink.split.i.i.i.i.i

if.end.i.i.i.i.i:                                 ; preds = %if.then.i.i.i.i
  %5 = load i8, ptr @__libc_single_threaded, align 1
  %tobool.i.not.i.i.i.i.i = icmp eq i8 %5, 0
  br i1 %tobool.i.not.i.i.i.i.i, label %if.else.i.i.i.i.i.i, label %if.then.i.i.i.i.i.i

if.then.i.i.i.i.i.i:                              ; preds = %if.end.i.i.i.i.i
  %add.i.i.i.i.i.i = add nsw i32 %3, -1
  store i32 %add.i.i.i.i.i.i, ptr %_M_use_count.i.i.i.i.i, align 4
  br label %_ZN9__gnu_cxx27__exchange_and_add_dispatchEPii.exit.i.i.i.i.i

if.else.i.i.i.i.i.i:                              ; preds = %if.end.i.i.i.i.i
  %6 = atomicrmw volatile add ptr %_M_use_count.i.i.i.i.i, i32 -1 acq_rel, align 4
  br label %_ZN9__gnu_cxx27__exchange_and_add_dispatchEPii.exit.i.i.i.i.i

_ZN9__gnu_cxx27__exchange_and_add_dispatchEPii.exit.i.i.i.i.i: ; preds = %if.else.i.i.i.i.i.i, %if.then.i.i.i.i.i.i
  %retval.i.0.i.i.i.i.i = phi i32 [ %3, %if.then.i.i.i.i.i.i ], [ %6, %if.else.i.i.i.i.i.i ]
  %cmp6.i.i.i.i.i = icmp eq i32 %retval.i.0.i.i.i.i.i, 1
  br i1 %cmp6.i.i.i.i.i, label %if.then7.i.i.i.i.i, label %_ZNSt10shared_ptrIN7rocksdb12_GLOBAL__N_123LegacyFileSystemWrapperEED2Ev.exit

if.then7.i.i.i.i.i:                               ; preds = %_ZN9__gnu_cxx27__exchange_and_add_dispatchEPii.exit.i.i.i.i.i
  %vtable.i.i.i.i.i.i.i = load ptr, ptr %1, align 8
  %vfn.i.i.i.i.i.i.i = getelementptr inbounds i8, ptr %vtable.i.i.i.i.i.i.i, i64 16
  %7 = load ptr, ptr %vfn.i.i.i.i.i.i.i, align 8
  tail call void %7(ptr noundef nonnull align 8 dereferenceable(16) %1) #32
  %_M_weak_count.i.i.i.i.i.i.i = getelementptr inbounds i8, ptr %1, i64 12
  %8 = load i8, ptr @__libc_single_threaded, align 1
  %tobool.i.not.i.i.i.i.i.i.i = icmp eq i8 %8, 0
  br i1 %tobool.i.not.i.i.i.i.i.i.i, label %if.else.i.i.i.i.i.i.i.i, label %if.then.i.i.i.i.i.i.i.i

if.then.i.i.i.i.i.i.i.i:                          ; preds = %if.then7.i.i.i.i.i
  %9 = load i32, ptr %_M_weak_count.i.i.i.i.i.i.i, align 4
  %add.i.i.i.i.i.i.i.i = add nsw i32 %9, -1
  store i32 %add.i.i.i.i.i.i.i.i, ptr %_M_weak_count.i.i.i.i.i.i.i, align 4
  br label %_ZN9__gnu_cxx27__exchange_and_add_dispatchEPii.exit.i.i.i.i.i.i.i

if.else.i.i.i.i.i.i.i.i:                          ; preds = %if.then7.i.i.i.i.i
  %10 = atomicrmw volatile add ptr %_M_weak_count.i.i.i.i.i.i.i, i32 -1 acq_rel, align 4
  br label %_ZN9__gnu_cxx27__exchange_and_add_dispatchEPii.exit.i.i.i.i.i.i.i

_ZN9__gnu_cxx27__exchange_and_add_dispatchEPii.exit.i.i.i.i.i.i.i: ; preds = %if.else.i.i.i.i.i.i.i.i, %if.then.i.i.i.i.i.i.i.i
  %retval.i.0.i.i.i.i.i.i.i = phi i32 [ %9, %if.then.i.i.i.i.i.i.i.i ], [ %10, %if.else.i.i.i.i.i.i.i.i ]
  %cmp.i.i.i.i.i.i.i = icmp eq i32 %retval.i.0.i.i.i.i.i.i.i, 1
  br i1 %cmp.i.i.i.i.i.i.i, label %if.end8.sink.split.i.i.i.i.i, label %_ZNSt10shared_ptrIN7rocksdb12_GLOBAL__N_123LegacyFileSystemWrapperEED2Ev.exit

if.end8.sink.split.i.i.i.i.i:                     ; preds = %_ZN9__gnu_cxx27__exchange_and_add_dispatchEPii.exit.i.i.i.i.i.i.i, %if.then.i.i.i.i.i
  %vtable2.i.i.i.i.i.i.i = load ptr, ptr %1, align 8
  %vfn3.i.i.i.i.i.i.i = getelementptr inbounds i8, ptr %vtable2.i.i.i.i.i.i.i, i64 24
  %11 = load ptr, ptr %vfn3.i.i.i.i.i.i.i, align 8
  tail call void %11(ptr noundef nonnull align 8 dereferenceable(16) %1) #32
  br label %_ZNSt10shared_ptrIN7rocksdb12_GLOBAL__N_123LegacyFileSystemWrapperEED2Ev.exit

_ZNSt10shared_ptrIN7rocksdb12_GLOBAL__N_123LegacyFileSystemWrapperEED2Ev.exit: ; preds = %if.end8.sink.split.i.i.i.i.i, %_ZN9__gnu_cxx27__exchange_and_add_dispatchEPii.exit.i.i.i.i.i.i.i, %_ZN9__gnu_cxx27__exchange_and_add_dispatchEPii.exit.i.i.i.i.i, %invoke.cont
  %call5.i.i.i5.i.i.i.i10 = invoke noalias noundef nonnull dereferenceable(56) ptr @_Znwm(i64 noundef 56) #31
          to label %invoke.cont6 unwind label %lpad

invoke.cont6:                                     ; preds = %_ZNSt10shared_ptrIN7rocksdb12_GLOBAL__N_123LegacyFileSystemWrapperEED2Ev.exit
  %_M_use_count.i.i.i.i.i.i6 = getelementptr inbounds i8, ptr %call5.i.i.i5.i.i.i.i10, i64 8
  store i32 1, ptr %_M_use_count.i.i.i.i.i.i6, align 8, !noalias !7
  %_M_weak_count.i.i.i.i.i.i7 = getelementptr inbounds i8, ptr %call5.i.i.i5.i.i.i.i10, i64 12
  store i32 1, ptr %_M_weak_count.i.i.i.i.i.i7, align 4, !noalias !7
  store ptr getelementptr inbounds ({ [7 x ptr] }, ptr @_ZTVSt23_Sp_counted_ptr_inplaceIN7rocksdb12_GLOBAL__N_117LegacySystemClockESaIvELN9__gnu_cxx12_Lock_policyE2EE, i64 0, inrange i32 0, i64 2), ptr %call5.i.i.i5.i.i.i.i10, align 8, !noalias !7
  %_M_impl.i.i.i.i.i.i8 = getelementptr inbounds i8, ptr %call5.i.i.i5.i.i.i.i10, i64 16
  %options_.i.i.i.i.i.i.i.i.i.i.i = getelementptr inbounds i8, ptr %call5.i.i.i5.i.i.i.i10, i64 24
  tail call void @llvm.memset.p0.i64(ptr noundef nonnull align 8 dereferenceable(24) %options_.i.i.i.i.i.i.i.i.i.i.i, i8 0, i64 24, i1 false), !noalias !7
  store ptr getelementptr inbounds ({ [29 x ptr] }, ptr @_ZTVN7rocksdb12_GLOBAL__N_117LegacySystemClockE, i64 0, inrange i32 0, i64 2), ptr %_M_impl.i.i.i.i.i.i8, align 8, !noalias !7
  %env_.i.i.i.i.i.i.i.i = getelementptr inbounds i8, ptr %call5.i.i.i5.i.i.i.i10, i64 48
  store ptr %this, ptr %env_.i.i.i.i.i.i.i.i, align 8, !noalias !7
  store ptr %_M_impl.i.i.i.i.i.i8, ptr %system_clock_, align 8
  %_M_refcount3.i.i.i12 = getelementptr inbounds i8, ptr %this, i64 64
  %12 = load ptr, ptr %_M_refcount3.i.i.i12, align 8
  store ptr %call5.i.i.i5.i.i.i.i10, ptr %_M_refcount3.i.i.i12, align 8
  %cmp.not.i.i.i.i13 = icmp eq ptr %12, null
  br i1 %cmp.not.i.i.i.i13, label %_ZNSt10shared_ptrIN7rocksdb12_GLOBAL__N_117LegacySystemClockEED2Ev.exit, label %if.then.i.i.i.i14

if.then.i.i.i.i14:                                ; preds = %invoke.cont6
  %_M_use_count.i.i.i.i.i15 = getelementptr inbounds i8, ptr %12, i64 8
  %13 = load atomic i64, ptr %_M_use_count.i.i.i.i.i15 acquire, align 8
  %cmp.i.i.i.i.i16 = icmp eq i64 %13, 4294967297
  %14 = trunc i64 %13 to i32
  br i1 %cmp.i.i.i.i.i16, label %if.then.i.i.i.i.i39, label %if.end.i.i.i.i.i17

if.then.i.i.i.i.i39:                              ; preds = %if.then.i.i.i.i14
  store i32 0, ptr %_M_use_count.i.i.i.i.i15, align 8
  %_M_weak_count.i.i.i.i.i40 = getelementptr inbounds i8, ptr %12, i64 12
  store i32 0, ptr %_M_weak_count.i.i.i.i.i40, align 4
  %vtable.i.i.i.i.i41 = load ptr, ptr %12, align 8
  %vfn.i.i.i.i.i42 = getelementptr inbounds i8, ptr %vtable.i.i.i.i.i41, i64 16
  %15 = load ptr, ptr %vfn.i.i.i.i.i42, align 8
  tail call void %15(ptr noundef nonnull align 8 dereferenceable(16) %12) #32
  br label %if.end8.sink.split.i.i.i.i.i34

if.end.i.i.i.i.i17:                               ; preds = %if.then.i.i.i.i14
  %16 = load i8, ptr @__libc_single_threaded, align 1
  %tobool.i.not.i.i.i.i.i18 = icmp eq i8 %16, 0
  br i1 %tobool.i.not.i.i.i.i.i18, label %if.else.i.i.i.i.i.i38, label %if.then.i.i.i.i.i.i19

if.then.i.i.i.i.i.i19:                            ; preds = %if.end.i.i.i.i.i17
  %add.i.i.i.i.i.i20 = add nsw i32 %14, -1
  store i32 %add.i.i.i.i.i.i20, ptr %_M_use_count.i.i.i.i.i15, align 4
  br label %_ZN9__gnu_cxx27__exchange_and_add_dispatchEPii.exit.i.i.i.i.i21

if.else.i.i.i.i.i.i38:                            ; preds = %if.end.i.i.i.i.i17
  %17 = atomicrmw volatile add ptr %_M_use_count.i.i.i.i.i15, i32 -1 acq_rel, align 4
  br label %_ZN9__gnu_cxx27__exchange_and_add_dispatchEPii.exit.i.i.i.i.i21

_ZN9__gnu_cxx27__exchange_and_add_dispatchEPii.exit.i.i.i.i.i21: ; preds = %if.else.i.i.i.i.i.i38, %if.then.i.i.i.i.i.i19
  %retval.i.0.i.i.i.i.i22 = phi i32 [ %14, %if.then.i.i.i.i.i.i19 ], [ %17, %if.else.i.i.i.i.i.i38 ]
  %cmp6.i.i.i.i.i23 = icmp eq i32 %retval.i.0.i.i.i.i.i22, 1
  br i1 %cmp6.i.i.i.i.i23, label %if.then7.i.i.i.i.i24, label %_ZNSt10shared_ptrIN7rocksdb12_GLOBAL__N_117LegacySystemClockEED2Ev.exit

if.then7.i.i.i.i.i24:                             ; preds = %_ZN9__gnu_cxx27__exchange_and_add_dispatchEPii.exit.i.i.i.i.i21
  %vtable.i.i.i.i.i.i.i25 = load ptr, ptr %12, align 8
  %vfn.i.i.i.i.i.i.i26 = getelementptr inbounds i8, ptr %vtable.i.i.i.i.i.i.i25, i64 16
  %18 = load ptr, ptr %vfn.i.i.i.i.i.i.i26, align 8
  tail call void %18(ptr noundef nonnull align 8 dereferenceable(16) %12) #32
  %_M_weak_count.i.i.i.i.i.i.i27 = getelementptr inbounds i8, ptr %12, i64 12
  %19 = load i8, ptr @__libc_single_threaded, align 1
  %tobool.i.not.i.i.i.i.i.i.i28 = icmp eq i8 %19, 0
  br i1 %tobool.i.not.i.i.i.i.i.i.i28, label %if.else.i.i.i.i.i.i.i.i37, label %if.then.i.i.i.i.i.i.i.i29

if.then.i.i.i.i.i.i.i.i29:                        ; preds = %if.then7.i.i.i.i.i24
  %20 = load i32, ptr %_M_weak_count.i.i.i.i.i.i.i27, align 4
  %add.i.i.i.i.i.i.i.i30 = add nsw i32 %20, -1
  store i32 %add.i.i.i.i.i.i.i.i30, ptr %_M_weak_count.i.i.i.i.i.i.i27, align 4
  br label %_ZN9__gnu_cxx27__exchange_and_add_dispatchEPii.exit.i.i.i.i.i.i.i31

if.else.i.i.i.i.i.i.i.i37:                        ; preds = %if.then7.i.i.i.i.i24
  %21 = atomicrmw volatile add ptr %_M_weak_count.i.i.i.i.i.i.i27, i32 -1 acq_rel, align 4
  br label %_ZN9__gnu_cxx27__exchange_and_add_dispatchEPii.exit.i.i.i.i.i.i.i31

_ZN9__gnu_cxx27__exchange_and_add_dispatchEPii.exit.i.i.i.i.i.i.i31: ; preds = %if.else.i.i.i.i.i.i.i.i37, %if.then.i.i.i.i.i.i.i.i29
  %retval.i.0.i.i.i.i.i.i.i32 = phi i32 [ %20, %if.then.i.i.i.i.i.i.i.i29 ], [ %21, %if.else.i.i.i.i.i.i.i.i37 ]
  %cmp.i.i.i.i.i.i.i33 = icmp eq i32 %retval.i.0.i.i.i.i.i.i.i32, 1
  br i1 %cmp.i.i.i.i.i.i.i33, label %if.end8.sink.split.i.i.i.i.i34, label %_ZNSt10shared_ptrIN7rocksdb12_GLOBAL__N_117LegacySystemClockEED2Ev.exit

if.end8.sink.split.i.i.i.i.i34:                   ; preds = %_ZN9__gnu_cxx27__exchange_and_add_dispatchEPii.exit.i.i.i.i.i.i.i31, %if.then.i.i.i.i.i39
  %vtable2.i.i.i.i.i.i.i35 = load ptr, ptr %12, align 8
  %vfn3.i.i.i.i.i.i.i36 = getelementptr inbounds i8, ptr %vtable2.i.i.i.i.i.i.i35, i64 24
  %22 = load ptr, ptr %vfn3.i.i.i.i.i.i.i36, align 8
  tail call void %22(ptr noundef nonnull align 8 dereferenceable(16) %12) #32
  br label %_ZNSt10shared_ptrIN7rocksdb12_GLOBAL__N_117LegacySystemClockEED2Ev.exit

_ZNSt10shared_ptrIN7rocksdb12_GLOBAL__N_117LegacySystemClockEED2Ev.exit: ; preds = %if.end8.sink.split.i.i.i.i.i34, %_ZN9__gnu_cxx27__exchange_and_add_dispatchEPii.exit.i.i.i.i.i.i.i31, %_ZN9__gnu_cxx27__exchange_and_add_dispatchEPii.exit.i.i.i.i.i21, %invoke.cont6
  ret void

lpad:                                             ; preds = %_ZNSt10shared_ptrIN7rocksdb12_GLOBAL__N_123LegacyFileSystemWrapperEED2Ev.exit, %entry
  %23 = landingpad { ptr, i32 }
          cleanup
  br label %lpad.body

lpad.body:                                        ; preds = %_ZNSt15__allocated_ptrISaISt23_Sp_counted_ptr_inplaceIN7rocksdb12_GLOBAL__N_123LegacyFileSystemWrapperESaIvELN9__gnu_cxx12_Lock_policyE2EEEED2Ev.exit8.i.i.i.i, %lpad
  %eh.lpad-body = phi { ptr, i32 } [ %23, %lpad ], [ %0, %_ZNSt15__allocated_ptrISaISt23_Sp_counted_ptr_inplaceIN7rocksdb12_GLOBAL__N_123LegacyFileSystemWrapperESaIvELN9__gnu_cxx12_Lock_policyE2EEEED2Ev.exit8.i.i.i.i ]
  tail call void @_ZNSt10shared_ptrIN7rocksdb11SystemClockEED2Ev(ptr noundef nonnull align 8 dereferenceable(16) %system_clock_) #32
  tail call void @_ZNSt10shared_ptrIN7rocksdb10FileSystemEED2Ev(ptr noundef nonnull align 8 dereferenceable(16) %file_system_) #32
  tail call void @_ZN7rocksdb12CustomizableD2Ev(ptr noundef nonnull align 8 dereferenceable(32) %this) #32
  resume { ptr, i32 } %eh.lpad-body
}

declare i32 @__gxx_personality_v0(...)

; Function Attrs: mustprogress nounwind uwtable
define linkonce_odr void @_ZNSt10shared_ptrIN7rocksdb11SystemClockEED2Ev(ptr noundef nonnull align 8 dereferenceable(16) %this) unnamed_addr #0 comdat align 2 personality ptr @__gxx_personality_v0 {
entry:
  %_M_refcount.i = getelementptr inbounds i8, ptr %this, i64 8
  %0 = load ptr, ptr %_M_refcount.i, align 8
  %cmp.not.i.i = icmp eq ptr %0, null
  br i1 %cmp.not.i.i, label %_ZNSt12__shared_ptrIN7rocksdb11SystemClockELN9__gnu_cxx12_Lock_policyE2EED2Ev.exit, label %if.then.i.i

if.then.i.i:                                      ; preds = %entry
  %_M_use_count.i.i.i = getelementptr inbounds i8, ptr %0, i64 8
  %1 = load atomic i64, ptr %_M_use_count.i.i.i acquire, align 8
  %cmp.i.i.i = icmp eq i64 %1, 4294967297
  %2 = trunc i64 %1 to i32
  br i1 %cmp.i.i.i, label %if.then.i.i.i, label %if.end.i.i.i

if.then.i.i.i:                                    ; preds = %if.then.i.i
  store i32 0, ptr %_M_use_count.i.i.i, align 8
  %_M_weak_count.i.i.i = getelementptr inbounds i8, ptr %0, i64 12
  store i32 0, ptr %_M_weak_count.i.i.i, align 4
  %vtable.i.i.i = load ptr, ptr %0, align 8
  %vfn.i.i.i = getelementptr inbounds i8, ptr %vtable.i.i.i, i64 16
  %3 = load ptr, ptr %vfn.i.i.i, align 8
  tail call void %3(ptr noundef nonnull align 8 dereferenceable(16) %0) #32
  br label %if.end8.sink.split.i.i.i

if.end.i.i.i:                                     ; preds = %if.then.i.i
  %4 = load i8, ptr @__libc_single_threaded, align 1
  %tobool.i.not.i.i.i = icmp eq i8 %4, 0
  br i1 %tobool.i.not.i.i.i, label %if.else.i.i.i.i, label %if.then.i.i.i.i

if.then.i.i.i.i:                                  ; preds = %if.end.i.i.i
  %add.i.i.i.i = add nsw i32 %2, -1
  store i32 %add.i.i.i.i, ptr %_M_use_count.i.i.i, align 4
  br label %_ZN9__gnu_cxx27__exchange_and_add_dispatchEPii.exit.i.i.i

if.else.i.i.i.i:                                  ; preds = %if.end.i.i.i
  %5 = atomicrmw volatile add ptr %_M_use_count.i.i.i, i32 -1 acq_rel, align 4
  br label %_ZN9__gnu_cxx27__exchange_and_add_dispatchEPii.exit.i.i.i

_ZN9__gnu_cxx27__exchange_and_add_dispatchEPii.exit.i.i.i: ; preds = %if.else.i.i.i.i, %if.then.i.i.i.i
  %retval.i.0.i.i.i = phi i32 [ %2, %if.then.i.i.i.i ], [ %5, %if.else.i.i.i.i ]
  %cmp6.i.i.i = icmp eq i32 %retval.i.0.i.i.i, 1
  br i1 %cmp6.i.i.i, label %if.then7.i.i.i, label %_ZNSt12__shared_ptrIN7rocksdb11SystemClockELN9__gnu_cxx12_Lock_policyE2EED2Ev.exit

if.then7.i.i.i:                                   ; preds = %_ZN9__gnu_cxx27__exchange_and_add_dispatchEPii.exit.i.i.i
  %vtable.i.i.i.i.i = load ptr, ptr %0, align 8
  %vfn.i.i.i.i.i = getelementptr inbounds i8, ptr %vtable.i.i.i.i.i, i64 16
  %6 = load ptr, ptr %vfn.i.i.i.i.i, align 8
  tail call void %6(ptr noundef nonnull align 8 dereferenceable(16) %0) #32
  %_M_weak_count.i.i.i.i.i = getelementptr inbounds i8, ptr %0, i64 12
  %7 = load i8, ptr @__libc_single_threaded, align 1
  %tobool.i.not.i.i.i.i.i = icmp eq i8 %7, 0
  br i1 %tobool.i.not.i.i.i.i.i, label %if.else.i.i.i.i.i.i, label %if.then.i.i.i.i.i.i

if.then.i.i.i.i.i.i:                              ; preds = %if.then7.i.i.i
  %8 = load i32, ptr %_M_weak_count.i.i.i.i.i, align 4
  %add.i.i.i.i.i.i = add nsw i32 %8, -1
  store i32 %add.i.i.i.i.i.i, ptr %_M_weak_count.i.i.i.i.i, align 4
  br label %_ZN9__gnu_cxx27__exchange_and_add_dispatchEPii.exit.i.i.i.i.i

if.else.i.i.i.i.i.i:                              ; preds = %if.then7.i.i.i
  %9 = atomicrmw volatile add ptr %_M_weak_count.i.i.i.i.i, i32 -1 acq_rel, align 4
  br label %_ZN9__gnu_cxx27__exchange_and_add_dispatchEPii.exit.i.i.i.i.i

_ZN9__gnu_cxx27__exchange_and_add_dispatchEPii.exit.i.i.i.i.i: ; preds = %if.else.i.i.i.i.i.i, %if.then.i.i.i.i.i.i
  %retval.i.0.i.i.i.i.i = phi i32 [ %8, %if.then.i.i.i.i.i.i ], [ %9, %if.else.i.i.i.i.i.i ]
  %cmp.i.i.i.i.i = icmp eq i32 %retval.i.0.i.i.i.i.i, 1
  br i1 %cmp.i.i.i.i.i, label %if.end8.sink.split.i.i.i, label %_ZNSt12__shared_ptrIN7rocksdb11SystemClockELN9__gnu_cxx12_Lock_policyE2EED2Ev.exit

if.end8.sink.split.i.i.i:                         ; preds = %_ZN9__gnu_cxx27__exchange_and_add_dispatchEPii.exit.i.i.i.i.i, %if.then.i.i.i
  %vtable2.i.i.i.i.i = load ptr, ptr %0, align 8
  %vfn3.i.i.i.i.i = getelementptr inbounds i8, ptr %vtable2.i.i.i.i.i, i64 24
  %10 = load ptr, ptr %vfn3.i.i.i.i.i, align 8
  tail call void %10(ptr noundef nonnull align 8 dereferenceable(16) %0) #32
  br label %_ZNSt12__shared_ptrIN7rocksdb11SystemClockELN9__gnu_cxx12_Lock_policyE2EED2Ev.exit

_ZNSt12__shared_ptrIN7rocksdb11SystemClockELN9__gnu_cxx12_Lock_policyE2EED2Ev.exit: ; preds = %entry, %_ZN9__gnu_cxx27__exchange_and_add_dispatchEPii.exit.i.i.i, %_ZN9__gnu_cxx27__exchange_and_add_dispatchEPii.exit.i.i.i.i.i, %if.end8.sink.split.i.i.i
  ret void
}

; Function Attrs: mustprogress nounwind uwtable
define linkonce_odr void @_ZNSt10shared_ptrIN7rocksdb10FileSystemEED2Ev(ptr noundef nonnull align 8 dereferenceable(16) %this) unnamed_addr #0 comdat align 2 personality ptr @__gxx_personality_v0 {
entry:
  %_M_refcount.i = getelementptr inbounds i8, ptr %this, i64 8
  %0 = load ptr, ptr %_M_refcount.i, align 8
  %cmp.not.i.i = icmp eq ptr %0, null
  br i1 %cmp.not.i.i, label %_ZNSt12__shared_ptrIN7rocksdb10FileSystemELN9__gnu_cxx12_Lock_policyE2EED2Ev.exit, label %if.then.i.i

if.then.i.i:                                      ; preds = %entry
  %_M_use_count.i.i.i = getelementptr inbounds i8, ptr %0, i64 8
  %1 = load atomic i64, ptr %_M_use_count.i.i.i acquire, align 8
  %cmp.i.i.i = icmp eq i64 %1, 4294967297
  %2 = trunc i64 %1 to i32
  br i1 %cmp.i.i.i, label %if.then.i.i.i, label %if.end.i.i.i

if.then.i.i.i:                                    ; preds = %if.then.i.i
  store i32 0, ptr %_M_use_count.i.i.i, align 8
  %_M_weak_count.i.i.i = getelementptr inbounds i8, ptr %0, i64 12
  store i32 0, ptr %_M_weak_count.i.i.i, align 4
  %vtable.i.i.i = load ptr, ptr %0, align 8
  %vfn.i.i.i = getelementptr inbounds i8, ptr %vtable.i.i.i, i64 16
  %3 = load ptr, ptr %vfn.i.i.i, align 8
  tail call void %3(ptr noundef nonnull align 8 dereferenceable(16) %0) #32
  br label %if.end8.sink.split.i.i.i

if.end.i.i.i:                                     ; preds = %if.then.i.i
  %4 = load i8, ptr @__libc_single_threaded, align 1
  %tobool.i.not.i.i.i = icmp eq i8 %4, 0
  br i1 %tobool.i.not.i.i.i, label %if.else.i.i.i.i, label %if.then.i.i.i.i

if.then.i.i.i.i:                                  ; preds = %if.end.i.i.i
  %add.i.i.i.i = add nsw i32 %2, -1
  store i32 %add.i.i.i.i, ptr %_M_use_count.i.i.i, align 4
  br label %_ZN9__gnu_cxx27__exchange_and_add_dispatchEPii.exit.i.i.i

if.else.i.i.i.i:                                  ; preds = %if.end.i.i.i
  %5 = atomicrmw volatile add ptr %_M_use_count.i.i.i, i32 -1 acq_rel, align 4
  br label %_ZN9__gnu_cxx27__exchange_and_add_dispatchEPii.exit.i.i.i

_ZN9__gnu_cxx27__exchange_and_add_dispatchEPii.exit.i.i.i: ; preds = %if.else.i.i.i.i, %if.then.i.i.i.i
  %retval.i.0.i.i.i = phi i32 [ %2, %if.then.i.i.i.i ], [ %5, %if.else.i.i.i.i ]
  %cmp6.i.i.i = icmp eq i32 %retval.i.0.i.i.i, 1
  br i1 %cmp6.i.i.i, label %if.then7.i.i.i, label %_ZNSt12__shared_ptrIN7rocksdb10FileSystemELN9__gnu_cxx12_Lock_policyE2EED2Ev.exit

if.then7.i.i.i:                                   ; preds = %_ZN9__gnu_cxx27__exchange_and_add_dispatchEPii.exit.i.i.i
  %vtable.i.i.i.i.i = load ptr, ptr %0, align 8
  %vfn.i.i.i.i.i = getelementptr inbounds i8, ptr %vtable.i.i.i.i.i, i64 16
  %6 = load ptr, ptr %vfn.i.i.i.i.i, align 8
  tail call void %6(ptr noundef nonnull align 8 dereferenceable(16) %0) #32
  %_M_weak_count.i.i.i.i.i = getelementptr inbounds i8, ptr %0, i64 12
  %7 = load i8, ptr @__libc_single_threaded, align 1
  %tobool.i.not.i.i.i.i.i = icmp eq i8 %7, 0
  br i1 %tobool.i.not.i.i.i.i.i, label %if.else.i.i.i.i.i.i, label %if.then.i.i.i.i.i.i

if.then.i.i.i.i.i.i:                              ; preds = %if.then7.i.i.i
  %8 = load i32, ptr %_M_weak_count.i.i.i.i.i, align 4
  %add.i.i.i.i.i.i = add nsw i32 %8, -1
  store i32 %add.i.i.i.i.i.i, ptr %_M_weak_count.i.i.i.i.i, align 4
  br label %_ZN9__gnu_cxx27__exchange_and_add_dispatchEPii.exit.i.i.i.i.i

if.else.i.i.i.i.i.i:                              ; preds = %if.then7.i.i.i
  %9 = atomicrmw volatile add ptr %_M_weak_count.i.i.i.i.i, i32 -1 acq_rel, align 4
  br label %_ZN9__gnu_cxx27__exchange_and_add_dispatchEPii.exit.i.i.i.i.i

_ZN9__gnu_cxx27__exchange_and_add_dispatchEPii.exit.i.i.i.i.i: ; preds = %if.else.i.i.i.i.i.i, %if.then.i.i.i.i.i.i
  %retval.i.0.i.i.i.i.i = phi i32 [ %8, %if.then.i.i.i.i.i.i ], [ %9, %if.else.i.i.i.i.i.i ]
  %cmp.i.i.i.i.i = icmp eq i32 %retval.i.0.i.i.i.i.i, 1
  br i1 %cmp.i.i.i.i.i, label %if.end8.sink.split.i.i.i, label %_ZNSt12__shared_ptrIN7rocksdb10FileSystemELN9__gnu_cxx12_Lock_policyE2EED2Ev.exit

if.end8.sink.split.i.i.i:                         ; preds = %_ZN9__gnu_cxx27__exchange_and_add_dispatchEPii.exit.i.i.i.i.i, %if.then.i.i.i
  %vtable2.i.i.i.i.i = load ptr, ptr %0, align 8
  %vfn3.i.i.i.i.i = getelementptr inbounds i8, ptr %vtable2.i.i.i.i.i, i64 24
  %10 = load ptr, ptr %vfn3.i.i.i.i.i, align 8
  tail call void %10(ptr noundef nonnull align 8 dereferenceable(16) %0) #32
  br label %_ZNSt12__shared_ptrIN7rocksdb10FileSystemELN9__gnu_cxx12_Lock_policyE2EED2Ev.exit

_ZNSt12__shared_ptrIN7rocksdb10FileSystemELN9__gnu_cxx12_Lock_policyE2EED2Ev.exit: ; preds = %entry, %_ZN9__gnu_cxx27__exchange_and_add_dispatchEPii.exit.i.i.i, %_ZN9__gnu_cxx27__exchange_and_add_dispatchEPii.exit.i.i.i.i.i, %if.end8.sink.split.i.i.i
  ret void
}

; Function Attrs: mustprogress nounwind uwtable
define linkonce_odr void @_ZN7rocksdb12CustomizableD2Ev(ptr noundef nonnull align 8 dereferenceable(32) %this) unnamed_addr #0 comdat align 2 personality ptr @__gxx_personality_v0 {
entry:
  store ptr getelementptr inbounds ({ [16 x ptr] }, ptr @_ZTVN7rocksdb12ConfigurableE, i64 0, inrange i32 0, i64 2), ptr %this, align 8
  %options_.i = getelementptr inbounds i8, ptr %this, i64 8
  %0 = load ptr, ptr %options_.i, align 8
  %_M_finish.i.i = getelementptr inbounds i8, ptr %this, i64 16
  %1 = load ptr, ptr %_M_finish.i.i, align 8
  %cmp.not3.i.i.i.i.i = icmp eq ptr %0, %1
  br i1 %cmp.not3.i.i.i.i.i, label %invoke.cont.i.i, label %for.body.i.i.i.i.i

for.body.i.i.i.i.i:                               ; preds = %entry, %for.body.i.i.i.i.i
  %__first.addr.04.i.i.i.i.i = phi ptr [ %incdec.ptr.i.i.i.i.i, %for.body.i.i.i.i.i ], [ %0, %entry ]
  tail call void @_ZNSt7__cxx1112basic_stringIcSt11char_traitsIcESaIcEED1Ev(ptr noundef nonnull align 8 dereferenceable(32) %__first.addr.04.i.i.i.i.i) #32
  %incdec.ptr.i.i.i.i.i = getelementptr inbounds i8, ptr %__first.addr.04.i.i.i.i.i, i64 48
  %cmp.not.i.i.i.i.i = icmp eq ptr %incdec.ptr.i.i.i.i.i, %1
  br i1 %cmp.not.i.i.i.i.i, label %invoke.contthread-pre-split.i.i, label %for.body.i.i.i.i.i, !llvm.loop !10

invoke.contthread-pre-split.i.i:                  ; preds = %for.body.i.i.i.i.i
  %.pr.i.i = load ptr, ptr %options_.i, align 8
  br label %invoke.cont.i.i

invoke.cont.i.i:                                  ; preds = %invoke.contthread-pre-split.i.i, %entry
  %2 = phi ptr [ %.pr.i.i, %invoke.contthread-pre-split.i.i ], [ %0, %entry ]
  %tobool.not.i.i.i.i = icmp eq ptr %2, null
  br i1 %tobool.not.i.i.i.i, label %_ZN7rocksdb12ConfigurableD2Ev.exit, label %if.then.i.i.i.i

if.then.i.i.i.i:                                  ; preds = %invoke.cont.i.i
  tail call void @_ZdlPv(ptr noundef nonnull %2) #30
  br label %_ZN7rocksdb12ConfigurableD2Ev.exit

_ZN7rocksdb12ConfigurableD2Ev.exit:               ; preds = %invoke.cont.i.i, %if.then.i.i.i.i
  ret void
}

; Function Attrs: mustprogress uwtable
define void @_ZN7rocksdb3EnvC2ERKSt10shared_ptrINS_10FileSystemEE(ptr noundef nonnull align 8 dereferenceable(72) %this, ptr nocapture noundef nonnull readonly align 8 dereferenceable(16) %fs) unnamed_addr #2 align 2 personality ptr @__gxx_personality_v0 {
entry:
  %options_.i.i = getelementptr inbounds i8, ptr %this, i64 8
  tail call void @llvm.memset.p0.i64(ptr noundef nonnull align 8 dereferenceable(24) %options_.i.i, i8 0, i64 24, i1 false)
  store ptr getelementptr inbounds ({ [87 x ptr] }, ptr @_ZTVN7rocksdb3EnvE, i64 0, inrange i32 0, i64 2), ptr %this, align 8
  %thread_status_updater_ = getelementptr inbounds i8, ptr %this, i64 32
  store ptr null, ptr %thread_status_updater_, align 8
  %file_system_ = getelementptr inbounds i8, ptr %this, i64 40
  %0 = load ptr, ptr %fs, align 8
  store ptr %0, ptr %file_system_, align 8
  %_M_refcount.i.i = getelementptr inbounds i8, ptr %this, i64 48
  %_M_refcount3.i.i = getelementptr inbounds i8, ptr %fs, i64 8
  %1 = load ptr, ptr %_M_refcount3.i.i, align 8
  store ptr %1, ptr %_M_refcount.i.i, align 8
  %cmp.not.i.i.i = icmp eq ptr %1, null
  br i1 %cmp.not.i.i.i, label %_ZNSt10shared_ptrIN7rocksdb10FileSystemEEC2ERKS2_.exit, label %if.then.i.i.i

if.then.i.i.i:                                    ; preds = %entry
  %_M_use_count.i.i.i.i = getelementptr inbounds i8, ptr %1, i64 8
  %2 = load i8, ptr @__libc_single_threaded, align 1
  %tobool.i.i.not.i.i.i.i = icmp eq i8 %2, 0
  br i1 %tobool.i.i.not.i.i.i.i, label %if.else.i.i.i.i.i, label %if.then.i.i.i.i.i

if.then.i.i.i.i.i:                                ; preds = %if.then.i.i.i
  %3 = load i32, ptr %_M_use_count.i.i.i.i, align 4
  %add.i.i.i.i.i = add nsw i32 %3, 1
  store i32 %add.i.i.i.i.i, ptr %_M_use_count.i.i.i.i, align 4
  br label %_ZNSt10shared_ptrIN7rocksdb10FileSystemEEC2ERKS2_.exit

if.else.i.i.i.i.i:                                ; preds = %if.then.i.i.i
  %4 = atomicrmw volatile add ptr %_M_use_count.i.i.i.i, i32 1 acq_rel, align 4
  br label %_ZNSt10shared_ptrIN7rocksdb10FileSystemEEC2ERKS2_.exit

_ZNSt10shared_ptrIN7rocksdb10FileSystemEEC2ERKS2_.exit: ; preds = %entry, %if.then.i.i.i.i.i, %if.else.i.i.i.i.i
  %system_clock_ = getelementptr inbounds i8, ptr %this, i64 56
  tail call void @llvm.memset.p0.i64(ptr noundef nonnull align 8 dereferenceable(16) %system_clock_, i8 0, i64 16, i1 false)
  %call5.i.i.i5.i.i.i.i1 = invoke noalias noundef nonnull dereferenceable(56) ptr @_Znwm(i64 noundef 56) #31
          to label %_ZNSt10shared_ptrIN7rocksdb12_GLOBAL__N_117LegacySystemClockEED2Ev.exit unwind label %lpad

_ZNSt10shared_ptrIN7rocksdb12_GLOBAL__N_117LegacySystemClockEED2Ev.exit: ; preds = %_ZNSt10shared_ptrIN7rocksdb10FileSystemEEC2ERKS2_.exit
  %_M_use_count.i.i.i.i.i.i = getelementptr inbounds i8, ptr %call5.i.i.i5.i.i.i.i1, i64 8
  store i32 1, ptr %_M_use_count.i.i.i.i.i.i, align 8, !noalias !12
  %_M_weak_count.i.i.i.i.i.i = getelementptr inbounds i8, ptr %call5.i.i.i5.i.i.i.i1, i64 12
  store i32 1, ptr %_M_weak_count.i.i.i.i.i.i, align 4, !noalias !12
  store ptr getelementptr inbounds ({ [7 x ptr] }, ptr @_ZTVSt23_Sp_counted_ptr_inplaceIN7rocksdb12_GLOBAL__N_117LegacySystemClockESaIvELN9__gnu_cxx12_Lock_policyE2EE, i64 0, inrange i32 0, i64 2), ptr %call5.i.i.i5.i.i.i.i1, align 8, !noalias !12
  %_M_impl.i.i.i.i.i.i = getelementptr inbounds i8, ptr %call5.i.i.i5.i.i.i.i1, i64 16
  %options_.i.i.i.i.i.i.i.i.i.i.i = getelementptr inbounds i8, ptr %call5.i.i.i5.i.i.i.i1, i64 24
  tail call void @llvm.memset.p0.i64(ptr noundef nonnull align 8 dereferenceable(24) %options_.i.i.i.i.i.i.i.i.i.i.i, i8 0, i64 24, i1 false), !noalias !12
  store ptr getelementptr inbounds ({ [29 x ptr] }, ptr @_ZTVN7rocksdb12_GLOBAL__N_117LegacySystemClockE, i64 0, inrange i32 0, i64 2), ptr %_M_impl.i.i.i.i.i.i, align 8, !noalias !12
  %env_.i.i.i.i.i.i.i.i = getelementptr inbounds i8, ptr %call5.i.i.i5.i.i.i.i1, i64 48
  store ptr %this, ptr %env_.i.i.i.i.i.i.i.i, align 8, !noalias !12
  store ptr %_M_impl.i.i.i.i.i.i, ptr %system_clock_, align 8
  %_M_refcount3.i.i.i = getelementptr inbounds i8, ptr %this, i64 64
  store ptr %call5.i.i.i5.i.i.i.i1, ptr %_M_refcount3.i.i.i, align 8
  ret void

lpad:                                             ; preds = %_ZNSt10shared_ptrIN7rocksdb10FileSystemEEC2ERKS2_.exit
  %5 = landingpad { ptr, i32 }
          cleanup
  tail call void @_ZNSt10shared_ptrIN7rocksdb11SystemClockEED2Ev(ptr noundef nonnull align 8 dereferenceable(16) %system_clock_) #32
  tail call void @_ZNSt10shared_ptrIN7rocksdb10FileSystemEED2Ev(ptr noundef nonnull align 8 dereferenceable(16) %file_system_) #32
  tail call void @_ZN7rocksdb12CustomizableD2Ev(ptr noundef nonnull align 8 dereferenceable(32) %this) #32
  resume { ptr, i32 } %5
}

; Function Attrs: mustprogress nofree nounwind willreturn uwtable
define void @_ZN7rocksdb3EnvC2ERKSt10shared_ptrINS_10FileSystemEERKS1_INS_11SystemClockEE(ptr nocapture noundef nonnull writeonly align 8 dereferenceable(72) %this, ptr nocapture noundef nonnull readonly align 8 dereferenceable(16) %fs, ptr nocapture noundef nonnull readonly align 8 dereferenceable(16) %clock) unnamed_addr #3 align 2 personality ptr @__gxx_personality_v0 {
entry:
  %options_.i.i = getelementptr inbounds i8, ptr %this, i64 8
  tail call void @llvm.memset.p0.i64(ptr noundef nonnull align 8 dereferenceable(24) %options_.i.i, i8 0, i64 24, i1 false)
  store ptr getelementptr inbounds ({ [87 x ptr] }, ptr @_ZTVN7rocksdb3EnvE, i64 0, inrange i32 0, i64 2), ptr %this, align 8
  %thread_status_updater_ = getelementptr inbounds i8, ptr %this, i64 32
  store ptr null, ptr %thread_status_updater_, align 8
  %file_system_ = getelementptr inbounds i8, ptr %this, i64 40
  %0 = load ptr, ptr %fs, align 8
  store ptr %0, ptr %file_system_, align 8
  %_M_refcount.i.i = getelementptr inbounds i8, ptr %this, i64 48
  %_M_refcount3.i.i = getelementptr inbounds i8, ptr %fs, i64 8
  %1 = load ptr, ptr %_M_refcount3.i.i, align 8
  store ptr %1, ptr %_M_refcount.i.i, align 8
  %cmp.not.i.i.i = icmp eq ptr %1, null
  br i1 %cmp.not.i.i.i, label %_ZNSt10shared_ptrIN7rocksdb10FileSystemEEC2ERKS2_.exit, label %if.then.i.i.i

if.then.i.i.i:                                    ; preds = %entry
  %_M_use_count.i.i.i.i = getelementptr inbounds i8, ptr %1, i64 8
  %2 = load i8, ptr @__libc_single_threaded, align 1
  %tobool.i.i.not.i.i.i.i = icmp eq i8 %2, 0
  br i1 %tobool.i.i.not.i.i.i.i, label %if.else.i.i.i.i.i, label %if.then.i.i.i.i.i

if.then.i.i.i.i.i:                                ; preds = %if.then.i.i.i
  %3 = load i32, ptr %_M_use_count.i.i.i.i, align 4
  %add.i.i.i.i.i = add nsw i32 %3, 1
  store i32 %add.i.i.i.i.i, ptr %_M_use_count.i.i.i.i, align 4
  br label %_ZNSt10shared_ptrIN7rocksdb10FileSystemEEC2ERKS2_.exit

if.else.i.i.i.i.i:                                ; preds = %if.then.i.i.i
  %4 = atomicrmw volatile add ptr %_M_use_count.i.i.i.i, i32 1 acq_rel, align 4
  br label %_ZNSt10shared_ptrIN7rocksdb10FileSystemEEC2ERKS2_.exit

_ZNSt10shared_ptrIN7rocksdb10FileSystemEEC2ERKS2_.exit: ; preds = %entry, %if.then.i.i.i.i.i, %if.else.i.i.i.i.i
  %system_clock_ = getelementptr inbounds i8, ptr %this, i64 56
  %5 = load ptr, ptr %clock, align 8
  store ptr %5, ptr %system_clock_, align 8
  %_M_refcount.i.i1 = getelementptr inbounds i8, ptr %this, i64 64
  %_M_refcount3.i.i2 = getelementptr inbounds i8, ptr %clock, i64 8
  %6 = load ptr, ptr %_M_refcount3.i.i2, align 8
  store ptr %6, ptr %_M_refcount.i.i1, align 8
  %cmp.not.i.i.i3 = icmp eq ptr %6, null
  br i1 %cmp.not.i.i.i3, label %_ZNSt10shared_ptrIN7rocksdb11SystemClockEEC2ERKS2_.exit, label %if.then.i.i.i4

if.then.i.i.i4:                                   ; preds = %_ZNSt10shared_ptrIN7rocksdb10FileSystemEEC2ERKS2_.exit
  %_M_use_count.i.i.i.i5 = getelementptr inbounds i8, ptr %6, i64 8
  %7 = load i8, ptr @__libc_single_threaded, align 1
  %tobool.i.i.not.i.i.i.i6 = icmp eq i8 %7, 0
  br i1 %tobool.i.i.not.i.i.i.i6, label %if.else.i.i.i.i.i9, label %if.then.i.i.i.i.i7

if.then.i.i.i.i.i7:                               ; preds = %if.then.i.i.i4
  %8 = load i32, ptr %_M_use_count.i.i.i.i5, align 4
  %add.i.i.i.i.i8 = add nsw i32 %8, 1
  store i32 %add.i.i.i.i.i8, ptr %_M_use_count.i.i.i.i5, align 4
  br label %_ZNSt10shared_ptrIN7rocksdb11SystemClockEEC2ERKS2_.exit

if.else.i.i.i.i.i9:                               ; preds = %if.then.i.i.i4
  %9 = atomicrmw volatile add ptr %_M_use_count.i.i.i.i5, i32 1 acq_rel, align 4
  br label %_ZNSt10shared_ptrIN7rocksdb11SystemClockEEC2ERKS2_.exit

_ZNSt10shared_ptrIN7rocksdb11SystemClockEEC2ERKS2_.exit: ; preds = %_ZNSt10shared_ptrIN7rocksdb10FileSystemEEC2ERKS2_.exit, %if.then.i.i.i.i.i7, %if.else.i.i.i.i.i9
  ret void
}

; Function Attrs: mustprogress nounwind uwtable
define void @_ZN7rocksdb3EnvD2Ev(ptr nocapture noundef nonnull align 8 dereferenceable(72) %this) unnamed_addr #0 align 2 personality ptr @__gxx_personality_v0 {
entry:
  store ptr getelementptr inbounds ({ [87 x ptr] }, ptr @_ZTVN7rocksdb3EnvE, i64 0, inrange i32 0, i64 2), ptr %this, align 8
  %_M_refcount.i.i = getelementptr inbounds i8, ptr %this, i64 64
  %0 = load ptr, ptr %_M_refcount.i.i, align 8
  %cmp.not.i.i.i = icmp eq ptr %0, null
  br i1 %cmp.not.i.i.i, label %_ZNSt10shared_ptrIN7rocksdb11SystemClockEED2Ev.exit, label %if.then.i.i.i

if.then.i.i.i:                                    ; preds = %entry
  %_M_use_count.i.i.i.i = getelementptr inbounds i8, ptr %0, i64 8
  %1 = load atomic i64, ptr %_M_use_count.i.i.i.i acquire, align 8
  %cmp.i.i.i.i = icmp eq i64 %1, 4294967297
  %2 = trunc i64 %1 to i32
  br i1 %cmp.i.i.i.i, label %if.then.i.i.i.i, label %if.end.i.i.i.i

if.then.i.i.i.i:                                  ; preds = %if.then.i.i.i
  store i32 0, ptr %_M_use_count.i.i.i.i, align 8
  %_M_weak_count.i.i.i.i = getelementptr inbounds i8, ptr %0, i64 12
  store i32 0, ptr %_M_weak_count.i.i.i.i, align 4
  %vtable.i.i.i.i = load ptr, ptr %0, align 8
  %vfn.i.i.i.i = getelementptr inbounds i8, ptr %vtable.i.i.i.i, i64 16
  %3 = load ptr, ptr %vfn.i.i.i.i, align 8
  tail call void %3(ptr noundef nonnull align 8 dereferenceable(16) %0) #32
  br label %if.end8.sink.split.i.i.i.i

if.end.i.i.i.i:                                   ; preds = %if.then.i.i.i
  %4 = load i8, ptr @__libc_single_threaded, align 1
  %tobool.i.not.i.i.i.i = icmp eq i8 %4, 0
  br i1 %tobool.i.not.i.i.i.i, label %if.else.i.i.i.i.i, label %if.then.i.i.i.i.i

if.then.i.i.i.i.i:                                ; preds = %if.end.i.i.i.i
  %add.i.i.i.i.i = add nsw i32 %2, -1
  store i32 %add.i.i.i.i.i, ptr %_M_use_count.i.i.i.i, align 4
  br label %_ZN9__gnu_cxx27__exchange_and_add_dispatchEPii.exit.i.i.i.i

if.else.i.i.i.i.i:                                ; preds = %if.end.i.i.i.i
  %5 = atomicrmw volatile add ptr %_M_use_count.i.i.i.i, i32 -1 acq_rel, align 4
  br label %_ZN9__gnu_cxx27__exchange_and_add_dispatchEPii.exit.i.i.i.i

_ZN9__gnu_cxx27__exchange_and_add_dispatchEPii.exit.i.i.i.i: ; preds = %if.else.i.i.i.i.i, %if.then.i.i.i.i.i
  %retval.i.0.i.i.i.i = phi i32 [ %2, %if.then.i.i.i.i.i ], [ %5, %if.else.i.i.i.i.i ]
  %cmp6.i.i.i.i = icmp eq i32 %retval.i.0.i.i.i.i, 1
  br i1 %cmp6.i.i.i.i, label %if.then7.i.i.i.i, label %_ZNSt10shared_ptrIN7rocksdb11SystemClockEED2Ev.exit

if.then7.i.i.i.i:                                 ; preds = %_ZN9__gnu_cxx27__exchange_and_add_dispatchEPii.exit.i.i.i.i
  %vtable.i.i.i.i.i.i = load ptr, ptr %0, align 8
  %vfn.i.i.i.i.i.i = getelementptr inbounds i8, ptr %vtable.i.i.i.i.i.i, i64 16
  %6 = load ptr, ptr %vfn.i.i.i.i.i.i, align 8
  tail call void %6(ptr noundef nonnull align 8 dereferenceable(16) %0) #32
  %_M_weak_count.i.i.i.i.i.i = getelementptr inbounds i8, ptr %0, i64 12
  %7 = load i8, ptr @__libc_single_threaded, align 1
  %tobool.i.not.i.i.i.i.i.i = icmp eq i8 %7, 0
  br i1 %tobool.i.not.i.i.i.i.i.i, label %if.else.i.i.i.i.i.i.i, label %if.then.i.i.i.i.i.i.i

if.then.i.i.i.i.i.i.i:                            ; preds = %if.then7.i.i.i.i
  %8 = load i32, ptr %_M_weak_count.i.i.i.i.i.i, align 4
  %add.i.i.i.i.i.i.i = add nsw i32 %8, -1
  store i32 %add.i.i.i.i.i.i.i, ptr %_M_weak_count.i.i.i.i.i.i, align 4
  br label %_ZN9__gnu_cxx27__exchange_and_add_dispatchEPii.exit.i.i.i.i.i.i

if.else.i.i.i.i.i.i.i:                            ; preds = %if.then7.i.i.i.i
  %9 = atomicrmw volatile add ptr %_M_weak_count.i.i.i.i.i.i, i32 -1 acq_rel, align 4
  br label %_ZN9__gnu_cxx27__exchange_and_add_dispatchEPii.exit.i.i.i.i.i.i

_ZN9__gnu_cxx27__exchange_and_add_dispatchEPii.exit.i.i.i.i.i.i: ; preds = %if.else.i.i.i.i.i.i.i, %if.then.i.i.i.i.i.i.i
  %retval.i.0.i.i.i.i.i.i = phi i32 [ %8, %if.then.i.i.i.i.i.i.i ], [ %9, %if.else.i.i.i.i.i.i.i ]
  %cmp.i.i.i.i.i.i = icmp eq i32 %retval.i.0.i.i.i.i.i.i, 1
  br i1 %cmp.i.i.i.i.i.i, label %if.end8.sink.split.i.i.i.i, label %_ZNSt10shared_ptrIN7rocksdb11SystemClockEED2Ev.exit

if.end8.sink.split.i.i.i.i:                       ; preds = %_ZN9__gnu_cxx27__exchange_and_add_dispatchEPii.exit.i.i.i.i.i.i, %if.then.i.i.i.i
  %vtable2.i.i.i.i.i.i = load ptr, ptr %0, align 8
  %vfn3.i.i.i.i.i.i = getelementptr inbounds i8, ptr %vtable2.i.i.i.i.i.i, i64 24
  %10 = load ptr, ptr %vfn3.i.i.i.i.i.i, align 8
  tail call void %10(ptr noundef nonnull align 8 dereferenceable(16) %0) #32
  br label %_ZNSt10shared_ptrIN7rocksdb11SystemClockEED2Ev.exit

_ZNSt10shared_ptrIN7rocksdb11SystemClockEED2Ev.exit: ; preds = %entry, %_ZN9__gnu_cxx27__exchange_and_add_dispatchEPii.exit.i.i.i.i, %_ZN9__gnu_cxx27__exchange_and_add_dispatchEPii.exit.i.i.i.i.i.i, %if.end8.sink.split.i.i.i.i
  %_M_refcount.i.i1 = getelementptr inbounds i8, ptr %this, i64 48
  %11 = load ptr, ptr %_M_refcount.i.i1, align 8
  %cmp.not.i.i.i2 = icmp eq ptr %11, null
  br i1 %cmp.not.i.i.i2, label %_ZNSt10shared_ptrIN7rocksdb10FileSystemEED2Ev.exit, label %if.then.i.i.i3

if.then.i.i.i3:                                   ; preds = %_ZNSt10shared_ptrIN7rocksdb11SystemClockEED2Ev.exit
  %_M_use_count.i.i.i.i4 = getelementptr inbounds i8, ptr %11, i64 8
  %12 = load atomic i64, ptr %_M_use_count.i.i.i.i4 acquire, align 8
  %cmp.i.i.i.i5 = icmp eq i64 %12, 4294967297
  %13 = trunc i64 %12 to i32
  br i1 %cmp.i.i.i.i5, label %if.then.i.i.i.i28, label %if.end.i.i.i.i6

if.then.i.i.i.i28:                                ; preds = %if.then.i.i.i3
  store i32 0, ptr %_M_use_count.i.i.i.i4, align 8
  %_M_weak_count.i.i.i.i29 = getelementptr inbounds i8, ptr %11, i64 12
  store i32 0, ptr %_M_weak_count.i.i.i.i29, align 4
  %vtable.i.i.i.i30 = load ptr, ptr %11, align 8
  %vfn.i.i.i.i31 = getelementptr inbounds i8, ptr %vtable.i.i.i.i30, i64 16
  %14 = load ptr, ptr %vfn.i.i.i.i31, align 8
  tail call void %14(ptr noundef nonnull align 8 dereferenceable(16) %11) #32
  br label %if.end8.sink.split.i.i.i.i23

if.end.i.i.i.i6:                                  ; preds = %if.then.i.i.i3
  %15 = load i8, ptr @__libc_single_threaded, align 1
  %tobool.i.not.i.i.i.i7 = icmp eq i8 %15, 0
  br i1 %tobool.i.not.i.i.i.i7, label %if.else.i.i.i.i.i27, label %if.then.i.i.i.i.i8

if.then.i.i.i.i.i8:                               ; preds = %if.end.i.i.i.i6
  %add.i.i.i.i.i9 = add nsw i32 %13, -1
  store i32 %add.i.i.i.i.i9, ptr %_M_use_count.i.i.i.i4, align 4
  br label %_ZN9__gnu_cxx27__exchange_and_add_dispatchEPii.exit.i.i.i.i10

if.else.i.i.i.i.i27:                              ; preds = %if.end.i.i.i.i6
  %16 = atomicrmw volatile add ptr %_M_use_count.i.i.i.i4, i32 -1 acq_rel, align 4
  br label %_ZN9__gnu_cxx27__exchange_and_add_dispatchEPii.exit.i.i.i.i10

_ZN9__gnu_cxx27__exchange_and_add_dispatchEPii.exit.i.i.i.i10: ; preds = %if.else.i.i.i.i.i27, %if.then.i.i.i.i.i8
  %retval.i.0.i.i.i.i11 = phi i32 [ %13, %if.then.i.i.i.i.i8 ], [ %16, %if.else.i.i.i.i.i27 ]
  %cmp6.i.i.i.i12 = icmp eq i32 %retval.i.0.i.i.i.i11, 1
  br i1 %cmp6.i.i.i.i12, label %if.then7.i.i.i.i13, label %_ZNSt10shared_ptrIN7rocksdb10FileSystemEED2Ev.exit

if.then7.i.i.i.i13:                               ; preds = %_ZN9__gnu_cxx27__exchange_and_add_dispatchEPii.exit.i.i.i.i10
  %vtable.i.i.i.i.i.i14 = load ptr, ptr %11, align 8
  %vfn.i.i.i.i.i.i15 = getelementptr inbounds i8, ptr %vtable.i.i.i.i.i.i14, i64 16
  %17 = load ptr, ptr %vfn.i.i.i.i.i.i15, align 8
  tail call void %17(ptr noundef nonnull align 8 dereferenceable(16) %11) #32
  %_M_weak_count.i.i.i.i.i.i16 = getelementptr inbounds i8, ptr %11, i64 12
  %18 = load i8, ptr @__libc_single_threaded, align 1
  %tobool.i.not.i.i.i.i.i.i17 = icmp eq i8 %18, 0
  br i1 %tobool.i.not.i.i.i.i.i.i17, label %if.else.i.i.i.i.i.i.i26, label %if.then.i.i.i.i.i.i.i18

if.then.i.i.i.i.i.i.i18:                          ; preds = %if.then7.i.i.i.i13
  %19 = load i32, ptr %_M_weak_count.i.i.i.i.i.i16, align 4
  %add.i.i.i.i.i.i.i19 = add nsw i32 %19, -1
  store i32 %add.i.i.i.i.i.i.i19, ptr %_M_weak_count.i.i.i.i.i.i16, align 4
  br label %_ZN9__gnu_cxx27__exchange_and_add_dispatchEPii.exit.i.i.i.i.i.i20

if.else.i.i.i.i.i.i.i26:                          ; preds = %if.then7.i.i.i.i13
  %20 = atomicrmw volatile add ptr %_M_weak_count.i.i.i.i.i.i16, i32 -1 acq_rel, align 4
  br label %_ZN9__gnu_cxx27__exchange_and_add_dispatchEPii.exit.i.i.i.i.i.i20

_ZN9__gnu_cxx27__exchange_and_add_dispatchEPii.exit.i.i.i.i.i.i20: ; preds = %if.else.i.i.i.i.i.i.i26, %if.then.i.i.i.i.i.i.i18
  %retval.i.0.i.i.i.i.i.i21 = phi i32 [ %19, %if.then.i.i.i.i.i.i.i18 ], [ %20, %if.else.i.i.i.i.i.i.i26 ]
  %cmp.i.i.i.i.i.i22 = icmp eq i32 %retval.i.0.i.i.i.i.i.i21, 1
  br i1 %cmp.i.i.i.i.i.i22, label %if.end8.sink.split.i.i.i.i23, label %_ZNSt10shared_ptrIN7rocksdb10FileSystemEED2Ev.exit

if.end8.sink.split.i.i.i.i23:                     ; preds = %_ZN9__gnu_cxx27__exchange_and_add_dispatchEPii.exit.i.i.i.i.i.i20, %if.then.i.i.i.i28
  %vtable2.i.i.i.i.i.i24 = load ptr, ptr %11, align 8
  %vfn3.i.i.i.i.i.i25 = getelementptr inbounds i8, ptr %vtable2.i.i.i.i.i.i24, i64 24
  %21 = load ptr, ptr %vfn3.i.i.i.i.i.i25, align 8
  tail call void %21(ptr noundef nonnull align 8 dereferenceable(16) %11) #32
  br label %_ZNSt10shared_ptrIN7rocksdb10FileSystemEED2Ev.exit

_ZNSt10shared_ptrIN7rocksdb10FileSystemEED2Ev.exit: ; preds = %_ZNSt10shared_ptrIN7rocksdb11SystemClockEED2Ev.exit, %_ZN9__gnu_cxx27__exchange_and_add_dispatchEPii.exit.i.i.i.i10, %_ZN9__gnu_cxx27__exchange_and_add_dispatchEPii.exit.i.i.i.i.i.i20, %if.end8.sink.split.i.i.i.i23
  store ptr getelementptr inbounds ({ [16 x ptr] }, ptr @_ZTVN7rocksdb12ConfigurableE, i64 0, inrange i32 0, i64 2), ptr %this, align 8
  %options_.i.i = getelementptr inbounds i8, ptr %this, i64 8
  %22 = load ptr, ptr %options_.i.i, align 8
  %_M_finish.i.i.i = getelementptr inbounds i8, ptr %this, i64 16
  %23 = load ptr, ptr %_M_finish.i.i.i, align 8
  %cmp.not3.i.i.i.i.i.i = icmp eq ptr %22, %23
  br i1 %cmp.not3.i.i.i.i.i.i, label %invoke.cont.i.i.i, label %for.body.i.i.i.i.i.i

for.body.i.i.i.i.i.i:                             ; preds = %_ZNSt10shared_ptrIN7rocksdb10FileSystemEED2Ev.exit, %for.body.i.i.i.i.i.i
  %__first.addr.04.i.i.i.i.i.i = phi ptr [ %incdec.ptr.i.i.i.i.i.i, %for.body.i.i.i.i.i.i ], [ %22, %_ZNSt10shared_ptrIN7rocksdb10FileSystemEED2Ev.exit ]
  tail call void @_ZNSt7__cxx1112basic_stringIcSt11char_traitsIcESaIcEED1Ev(ptr noundef nonnull align 8 dereferenceable(32) %__first.addr.04.i.i.i.i.i.i) #32
  %incdec.ptr.i.i.i.i.i.i = getelementptr inbounds i8, ptr %__first.addr.04.i.i.i.i.i.i, i64 48
  %cmp.not.i.i.i.i.i.i = icmp eq ptr %incdec.ptr.i.i.i.i.i.i, %23
  br i1 %cmp.not.i.i.i.i.i.i, label %invoke.contthread-pre-split.i.i.i, label %for.body.i.i.i.i.i.i, !llvm.loop !10

invoke.contthread-pre-split.i.i.i:                ; preds = %for.body.i.i.i.i.i.i
  %.pr.i.i.i = load ptr, ptr %options_.i.i, align 8
  br label %invoke.cont.i.i.i

invoke.cont.i.i.i:                                ; preds = %invoke.contthread-pre-split.i.i.i, %_ZNSt10shared_ptrIN7rocksdb10FileSystemEED2Ev.exit
  %24 = phi ptr [ %.pr.i.i.i, %invoke.contthread-pre-split.i.i.i ], [ %22, %_ZNSt10shared_ptrIN7rocksdb10FileSystemEED2Ev.exit ]
  %tobool.not.i.i.i.i.i = icmp eq ptr %24, null
  br i1 %tobool.not.i.i.i.i.i, label %_ZN7rocksdb12CustomizableD2Ev.exit, label %if.then.i.i.i.i.i32

if.then.i.i.i.i.i32:                              ; preds = %invoke.cont.i.i.i
  tail call void @_ZdlPv(ptr noundef nonnull %24) #30
  br label %_ZN7rocksdb12CustomizableD2Ev.exit

_ZN7rocksdb12CustomizableD2Ev.exit:               ; preds = %invoke.cont.i.i.i, %if.then.i.i.i.i.i32
  ret void
}

; Function Attrs: mustprogress noreturn nounwind memory(inaccessiblemem: write) uwtable
define void @_ZN7rocksdb3EnvD0Ev(ptr nocapture nonnull readnone align 8 %this) unnamed_addr #4 align 2 {
entry:
  tail call void @llvm.trap() #33
  unreachable
}

; Function Attrs: cold noreturn nounwind memory(inaccessiblemem: write)
declare void @llvm.trap() #5

; Function Attrs: mustprogress uwtable
define void @_ZN7rocksdb3Env9NewLoggerERKNSt7__cxx1112basic_stringIcSt11char_traitsIcESaIcEEEPSt10shared_ptrINS_6LoggerEE(ptr noalias nocapture writeonly sret(%"class.rocksdb::Status") align 8 %agg.result, ptr noundef nonnull align 8 dereferenceable(72) %this, ptr noundef nonnull align 8 dereferenceable(32) %fname, ptr nocapture noundef %result) unnamed_addr #2 align 2 {
entry:
  tail call void @_ZN7rocksdb12NewEnvLoggerERKNSt7__cxx1112basic_stringIcSt11char_traitsIcESaIcEEEPNS_3EnvEPSt10shared_ptrINS_6LoggerEE(ptr sret(%"class.rocksdb::Status") align 8 %agg.result, ptr noundef nonnull align 8 dereferenceable(32) %fname, ptr noundef nonnull %this, ptr noundef %result)
  ret void
}

; Function Attrs: mustprogress uwtable
define void @_ZN7rocksdb12NewEnvLoggerERKNSt7__cxx1112basic_stringIcSt11char_traitsIcESaIcEEEPNS_3EnvEPSt10shared_ptrINS_6LoggerEE(ptr noalias nocapture writeonly sret(%"class.rocksdb::Status") align 8 %agg.result, ptr noundef nonnull align 8 dereferenceable(32) %fname, ptr noundef %env, ptr nocapture noundef %result) local_unnamed_addr #2 personality ptr @__gxx_personality_v0 {
entry:
  %ref.tmp.i = alloca %"class.std::unique_ptr", align 8
  %options = alloca %"struct.rocksdb::FileOptions", align 8
  %writable_file = alloca %"class.std::unique_ptr.92", align 8
  %status = alloca %"class.rocksdb::IOStatus", align 8
  call void @_ZN7rocksdb10EnvOptionsC2Ev(ptr noundef nonnull align 8 dereferenceable(56) %options)
  %io_options.i = getelementptr inbounds i8, ptr %options, i64 56
  store i64 0, ptr %io_options.i, align 8
  %prio.i.i.i = getelementptr inbounds i8, ptr %options, i64 64
  store i8 0, ptr %prio.i.i.i, align 8
  %rate_limiter_priority.i.i.i = getelementptr inbounds i8, ptr %options, i64 68
  store i32 4, ptr %rate_limiter_priority.i.i.i, align 4
  %type.i.i.i = getelementptr inbounds i8, ptr %options, i64 72
  store i8 7, ptr %type.i.i.i, align 8
  %property_bag.i.i.i = getelementptr inbounds i8, ptr %options, i64 80
  %_M_single_bucket.i.i.i.i.i = getelementptr inbounds i8, ptr %options, i64 128
  store ptr %_M_single_bucket.i.i.i.i.i, ptr %property_bag.i.i.i, align 8
  %_M_bucket_count.i.i.i.i.i = getelementptr inbounds i8, ptr %options, i64 88
  store i64 1, ptr %_M_bucket_count.i.i.i.i.i, align 8
  %_M_before_begin.i.i.i.i.i = getelementptr inbounds i8, ptr %options, i64 96
  %_M_rehash_policy.i.i.i.i.i = getelementptr inbounds i8, ptr %options, i64 112
  call void @llvm.memset.p0.i64(ptr noundef nonnull align 8 dereferenceable(16) %_M_before_begin.i.i.i.i.i, i8 0, i64 16, i1 false)
  store float 1.000000e+00, ptr %_M_rehash_policy.i.i.i.i.i, align 8
  %_M_next_resize.i.i.i.i.i.i = getelementptr inbounds i8, ptr %options, i64 120
  %io_activity.i.i.i = getelementptr inbounds i8, ptr %options, i64 138
  call void @llvm.memset.p0.i64(ptr noundef nonnull align 8 dereferenceable(18) %_M_next_resize.i.i.i.i.i.i, i8 0, i64 18, i1 false)
  store i8 10, ptr %io_activity.i.i.i, align 2
  %temperature.i = getelementptr inbounds i8, ptr %options, i64 144
  store i8 0, ptr %temperature.i, align 8
  %handoff_checksum_type.i = getelementptr inbounds i8, ptr %options, i64 145
  store i8 1, ptr %handoff_checksum_type.i, align 1
  %writable_file_max_buffer_size = getelementptr inbounds i8, ptr %options, i64 40
  store i64 1048576, ptr %writable_file_max_buffer_size, align 8
  store ptr null, ptr %writable_file, align 8
  %file_system_.i = getelementptr inbounds i8, ptr %env, i64 40
  %0 = load ptr, ptr %file_system_.i, align 8
  %vtable = load ptr, ptr %0, align 8
  %vfn = getelementptr inbounds i8, ptr %vtable, i64 184
  %1 = load ptr, ptr %vfn, align 8
  invoke void %1(ptr nonnull sret(%"class.rocksdb::IOStatus") align 8 %status, ptr noundef nonnull align 8 dereferenceable(32) %0, ptr noundef nonnull align 8 dereferenceable(32) %fname, ptr noundef nonnull align 8 dereferenceable(146) %options, ptr noundef nonnull %writable_file, ptr noundef null)
          to label %invoke.cont4 unwind label %lpad

invoke.cont4:                                     ; preds = %entry
  %2 = load i8, ptr %status, align 8
  %cmp.i = icmp eq i8 %2, 0
  br i1 %cmp.i, label %if.end, label %if.then

if.then:                                          ; preds = %invoke.cont4
  call void @llvm.lifetime.start.p0(i64 8, ptr nonnull %ref.tmp.i)
  store i8 %2, ptr %agg.result, align 8
  %subcode_.i = getelementptr inbounds i8, ptr %agg.result, i64 1
  %subcode_3.i = getelementptr inbounds i8, ptr %status, i64 1
  %3 = load i8, ptr %subcode_3.i, align 1
  store i8 %3, ptr %subcode_.i, align 1
  %sev_.i = getelementptr inbounds i8, ptr %agg.result, i64 2
  %sev_4.i = getelementptr inbounds i8, ptr %status, i64 2
  %4 = load i8, ptr %sev_4.i, align 2
  store i8 %4, ptr %sev_.i, align 2
  %retryable_.i = getelementptr inbounds i8, ptr %agg.result, i64 3
  %retryable_5.i = getelementptr inbounds i8, ptr %status, i64 3
  %5 = load i8, ptr %retryable_5.i, align 1
  %6 = and i8 %5, 1
  store i8 %6, ptr %retryable_.i, align 1
  %data_loss_.i = getelementptr inbounds i8, ptr %agg.result, i64 4
  %data_loss_6.i = getelementptr inbounds i8, ptr %status, i64 4
  %7 = load i8, ptr %data_loss_6.i, align 4
  %8 = and i8 %7, 1
  store i8 %8, ptr %data_loss_.i, align 4
  %scope_.i = getelementptr inbounds i8, ptr %agg.result, i64 5
  %scope_9.i = getelementptr inbounds i8, ptr %status, i64 5
  %9 = load i8, ptr %scope_9.i, align 1
  store i8 %9, ptr %scope_.i, align 1
  %state_.i = getelementptr inbounds i8, ptr %agg.result, i64 8
  store ptr null, ptr %state_.i, align 8
  %state_10.i = getelementptr inbounds i8, ptr %status, i64 8
  %10 = load ptr, ptr %state_10.i, align 8
  %cmp.i.not.i.i = icmp eq ptr %10, null
  br i1 %cmp.i.not.i.i, label %_ZN7rocksdb6StatusC2ERKS0_.exit, label %cond.false.i

cond.false.i:                                     ; preds = %if.then
  invoke void @_ZN7rocksdb6Status9CopyStateEPKc(ptr nonnull sret(%"class.std::unique_ptr") align 8 %ref.tmp.i, ptr noundef nonnull %10)
          to label %cond.end.i unwind label %_ZNSt10unique_ptrIA_KcSt14default_deleteIS1_EED2Ev.exit11.i

cond.end.i:                                       ; preds = %cond.false.i
  %.pre.i = load ptr, ptr %ref.tmp.i, align 8
  store ptr null, ptr %ref.tmp.i, align 8
  store ptr %.pre.i, ptr %state_.i, align 8
  br label %_ZN7rocksdb6StatusC2ERKS0_.exit

_ZNSt10unique_ptrIA_KcSt14default_deleteIS1_EED2Ev.exit11.i: ; preds = %cond.false.i
  %11 = landingpad { ptr, i32 }
          cleanup
  store ptr null, ptr %state_.i, align 8
  br label %lpad3.body

_ZN7rocksdb6StatusC2ERKS0_.exit:                  ; preds = %cond.end.i, %if.then
  call void @llvm.lifetime.end.p0(i64 8, ptr nonnull %ref.tmp.i)
  br label %cleanup

lpad:                                             ; preds = %entry
  %12 = landingpad { ptr, i32 }
          cleanup
  br label %ehcleanup

lpad3:                                            ; preds = %if.end
  %13 = landingpad { ptr, i32 }
          cleanup
  br label %lpad3.body

lpad3.body:                                       ; preds = %lpad3, %_ZNSt15__allocated_ptrISaISt23_Sp_counted_ptr_inplaceIN7rocksdb9EnvLoggerESaIvELN9__gnu_cxx12_Lock_policyE2EEEED2Ev.exit9.i.i.i.i, %_ZNSt10unique_ptrIA_KcSt14default_deleteIS1_EED2Ev.exit11.i
  %eh.lpad-body = phi { ptr, i32 } [ %11, %_ZNSt10unique_ptrIA_KcSt14default_deleteIS1_EED2Ev.exit11.i ], [ %13, %lpad3 ], [ %15, %_ZNSt15__allocated_ptrISaISt23_Sp_counted_ptr_inplaceIN7rocksdb9EnvLoggerESaIvELN9__gnu_cxx12_Lock_policyE2EEEED2Ev.exit9.i.i.i.i ]
  %state_.i.i = getelementptr inbounds i8, ptr %status, i64 8
  %14 = load ptr, ptr %state_.i.i, align 8
  %cmp.not.i.i.i = icmp eq ptr %14, null
  br i1 %cmp.not.i.i.i, label %_ZN7rocksdb8IOStatusD2Ev.exit, label %_ZNKSt14default_deleteIA_KcEclIS0_EENSt9enable_ifIXsr14is_convertibleIPA_T_PS1_EE5valueEvE4typeEPS5_.exit.i.i.i

_ZNKSt14default_deleteIA_KcEclIS0_EENSt9enable_ifIXsr14is_convertibleIPA_T_PS1_EE5valueEvE4typeEPS5_.exit.i.i.i: ; preds = %lpad3.body
  call void @_ZdaPv(ptr noundef nonnull %14) #30
  br label %_ZN7rocksdb8IOStatusD2Ev.exit

_ZN7rocksdb8IOStatusD2Ev.exit:                    ; preds = %lpad3.body, %_ZNKSt14default_deleteIA_KcEclIS0_EENSt9enable_ifIXsr14is_convertibleIPA_T_PS1_EE5valueEvE4typeEPS5_.exit.i.i.i
  store ptr null, ptr %state_.i.i, align 8
  br label %ehcleanup

if.end:                                           ; preds = %invoke.cont4
  %call5.i.i.i3.i.i.i.i3 = invoke noalias noundef nonnull dereferenceable(336) ptr @_Znwm(i64 noundef 336) #31
          to label %call5.i.i.i3.i.i.i.i.noexc unwind label %lpad3

call5.i.i.i3.i.i.i.i.noexc:                       ; preds = %if.end
  %_M_use_count.i.i.i.i.i.i = getelementptr inbounds i8, ptr %call5.i.i.i3.i.i.i.i3, i64 8
  store i32 1, ptr %_M_use_count.i.i.i.i.i.i, align 8, !noalias !15
  %_M_weak_count.i.i.i.i.i.i = getelementptr inbounds i8, ptr %call5.i.i.i3.i.i.i.i3, i64 12
  store i32 1, ptr %_M_weak_count.i.i.i.i.i.i, align 4, !noalias !15
  store ptr getelementptr inbounds ({ [7 x ptr] }, ptr @_ZTVSt23_Sp_counted_ptr_inplaceIN7rocksdb9EnvLoggerESaIvELN9__gnu_cxx12_Lock_policyE2EE, i64 0, inrange i32 0, i64 2), ptr %call5.i.i.i3.i.i.i.i3, align 8, !noalias !15
  %_M_impl.i.i.i.i.i.i = getelementptr inbounds i8, ptr %call5.i.i.i3.i.i.i.i3, i64 16
  invoke void @_ZN7rocksdb9EnvLoggerC2EOSt10unique_ptrINS_14FSWritableFileESt14default_deleteIS2_EERKNSt7__cxx1112basic_stringIcSt11char_traitsIcESaIcEEERKNS_10EnvOptionsEPNS_3EnvENS_12InfoLogLevelE(ptr noundef nonnull align 8 dereferenceable(313) %_M_impl.i.i.i.i.i.i, ptr noundef nonnull align 8 dereferenceable(8) %writable_file, ptr noundef nonnull align 8 dereferenceable(32) %fname, ptr noundef nonnull align 8 dereferenceable(56) %options, ptr noundef nonnull %env, i8 noundef zeroext 3)
          to label %invoke.cont7 unwind label %_ZNSt15__allocated_ptrISaISt23_Sp_counted_ptr_inplaceIN7rocksdb9EnvLoggerESaIvELN9__gnu_cxx12_Lock_policyE2EEEED2Ev.exit9.i.i.i.i, !noalias !15

_ZNSt15__allocated_ptrISaISt23_Sp_counted_ptr_inplaceIN7rocksdb9EnvLoggerESaIvELN9__gnu_cxx12_Lock_policyE2EEEED2Ev.exit9.i.i.i.i: ; preds = %call5.i.i.i3.i.i.i.i.noexc
  %15 = landingpad { ptr, i32 }
          cleanup
  call void @_ZdlPv(ptr noundef nonnull %call5.i.i.i3.i.i.i.i3) #30, !noalias !15
  br label %lpad3.body

invoke.cont7:                                     ; preds = %call5.i.i.i3.i.i.i.i.noexc
  store ptr %_M_impl.i.i.i.i.i.i, ptr %result, align 8
  %_M_refcount3.i.i.i = getelementptr inbounds i8, ptr %result, i64 8
  %16 = load ptr, ptr %_M_refcount3.i.i.i, align 8
  store ptr %call5.i.i.i3.i.i.i.i3, ptr %_M_refcount3.i.i.i, align 8
  %cmp.not.i.i.i.i = icmp eq ptr %16, null
  br i1 %cmp.not.i.i.i.i, label %_ZNSt10shared_ptrIN7rocksdb9EnvLoggerEED2Ev.exit, label %if.then.i.i.i.i

if.then.i.i.i.i:                                  ; preds = %invoke.cont7
  %_M_use_count.i.i.i.i.i = getelementptr inbounds i8, ptr %16, i64 8
  %17 = load atomic i64, ptr %_M_use_count.i.i.i.i.i acquire, align 8
  %cmp.i.i.i.i.i = icmp eq i64 %17, 4294967297
  %18 = trunc i64 %17 to i32
  br i1 %cmp.i.i.i.i.i, label %if.then.i.i.i.i.i, label %if.end.i.i.i.i.i

if.then.i.i.i.i.i:                                ; preds = %if.then.i.i.i.i
  store i32 0, ptr %_M_use_count.i.i.i.i.i, align 8
  %_M_weak_count.i.i.i.i.i = getelementptr inbounds i8, ptr %16, i64 12
  store i32 0, ptr %_M_weak_count.i.i.i.i.i, align 4
  %vtable.i.i.i.i.i = load ptr, ptr %16, align 8
  %vfn.i.i.i.i.i = getelementptr inbounds i8, ptr %vtable.i.i.i.i.i, i64 16
  %19 = load ptr, ptr %vfn.i.i.i.i.i, align 8
  call void %19(ptr noundef nonnull align 8 dereferenceable(16) %16) #32
  br label %if.end8.sink.split.i.i.i.i.i

if.end.i.i.i.i.i:                                 ; preds = %if.then.i.i.i.i
  %20 = load i8, ptr @__libc_single_threaded, align 1
  %tobool.i.not.i.i.i.i.i = icmp eq i8 %20, 0
  br i1 %tobool.i.not.i.i.i.i.i, label %if.else.i.i.i.i.i.i, label %if.then.i.i.i.i.i.i

if.then.i.i.i.i.i.i:                              ; preds = %if.end.i.i.i.i.i
  %add.i.i.i.i.i.i = add nsw i32 %18, -1
  store i32 %add.i.i.i.i.i.i, ptr %_M_use_count.i.i.i.i.i, align 4
  br label %_ZN9__gnu_cxx27__exchange_and_add_dispatchEPii.exit.i.i.i.i.i

if.else.i.i.i.i.i.i:                              ; preds = %if.end.i.i.i.i.i
  %21 = atomicrmw volatile add ptr %_M_use_count.i.i.i.i.i, i32 -1 acq_rel, align 4
  br label %_ZN9__gnu_cxx27__exchange_and_add_dispatchEPii.exit.i.i.i.i.i

_ZN9__gnu_cxx27__exchange_and_add_dispatchEPii.exit.i.i.i.i.i: ; preds = %if.else.i.i.i.i.i.i, %if.then.i.i.i.i.i.i
  %retval.i.0.i.i.i.i.i = phi i32 [ %18, %if.then.i.i.i.i.i.i ], [ %21, %if.else.i.i.i.i.i.i ]
  %cmp6.i.i.i.i.i = icmp eq i32 %retval.i.0.i.i.i.i.i, 1
  br i1 %cmp6.i.i.i.i.i, label %if.then7.i.i.i.i.i, label %_ZNSt10shared_ptrIN7rocksdb9EnvLoggerEED2Ev.exit

if.then7.i.i.i.i.i:                               ; preds = %_ZN9__gnu_cxx27__exchange_and_add_dispatchEPii.exit.i.i.i.i.i
  %vtable.i.i.i.i.i.i.i = load ptr, ptr %16, align 8
  %vfn.i.i.i.i.i.i.i = getelementptr inbounds i8, ptr %vtable.i.i.i.i.i.i.i, i64 16
  %22 = load ptr, ptr %vfn.i.i.i.i.i.i.i, align 8
  call void %22(ptr noundef nonnull align 8 dereferenceable(16) %16) #32
  %_M_weak_count.i.i.i.i.i.i.i = getelementptr inbounds i8, ptr %16, i64 12
  %23 = load i8, ptr @__libc_single_threaded, align 1
  %tobool.i.not.i.i.i.i.i.i.i = icmp eq i8 %23, 0
  br i1 %tobool.i.not.i.i.i.i.i.i.i, label %if.else.i.i.i.i.i.i.i.i, label %if.then.i.i.i.i.i.i.i.i

if.then.i.i.i.i.i.i.i.i:                          ; preds = %if.then7.i.i.i.i.i
  %24 = load i32, ptr %_M_weak_count.i.i.i.i.i.i.i, align 4
  %add.i.i.i.i.i.i.i.i = add nsw i32 %24, -1
  store i32 %add.i.i.i.i.i.i.i.i, ptr %_M_weak_count.i.i.i.i.i.i.i, align 4
  br label %_ZN9__gnu_cxx27__exchange_and_add_dispatchEPii.exit.i.i.i.i.i.i.i

if.else.i.i.i.i.i.i.i.i:                          ; preds = %if.then7.i.i.i.i.i
  %25 = atomicrmw volatile add ptr %_M_weak_count.i.i.i.i.i.i.i, i32 -1 acq_rel, align 4
  br label %_ZN9__gnu_cxx27__exchange_and_add_dispatchEPii.exit.i.i.i.i.i.i.i

_ZN9__gnu_cxx27__exchange_and_add_dispatchEPii.exit.i.i.i.i.i.i.i: ; preds = %if.else.i.i.i.i.i.i.i.i, %if.then.i.i.i.i.i.i.i.i
  %retval.i.0.i.i.i.i.i.i.i = phi i32 [ %24, %if.then.i.i.i.i.i.i.i.i ], [ %25, %if.else.i.i.i.i.i.i.i.i ]
  %cmp.i.i.i.i.i.i.i = icmp eq i32 %retval.i.0.i.i.i.i.i.i.i, 1
  br i1 %cmp.i.i.i.i.i.i.i, label %if.end8.sink.split.i.i.i.i.i, label %_ZNSt10shared_ptrIN7rocksdb9EnvLoggerEED2Ev.exit

if.end8.sink.split.i.i.i.i.i:                     ; preds = %_ZN9__gnu_cxx27__exchange_and_add_dispatchEPii.exit.i.i.i.i.i.i.i, %if.then.i.i.i.i.i
  %vtable2.i.i.i.i.i.i.i = load ptr, ptr %16, align 8
  %vfn3.i.i.i.i.i.i.i = getelementptr inbounds i8, ptr %vtable2.i.i.i.i.i.i.i, i64 24
  %26 = load ptr, ptr %vfn3.i.i.i.i.i.i.i, align 8
  call void %26(ptr noundef nonnull align 8 dereferenceable(16) %16) #32
  br label %_ZNSt10shared_ptrIN7rocksdb9EnvLoggerEED2Ev.exit

_ZNSt10shared_ptrIN7rocksdb9EnvLoggerEED2Ev.exit: ; preds = %if.end8.sink.split.i.i.i.i.i, %_ZN9__gnu_cxx27__exchange_and_add_dispatchEPii.exit.i.i.i.i.i.i.i, %_ZN9__gnu_cxx27__exchange_and_add_dispatchEPii.exit.i.i.i.i.i, %invoke.cont7
  %state_.i.i10 = getelementptr inbounds i8, ptr %agg.result, i64 8
  store ptr null, ptr %state_.i.i10, align 8, !alias.scope !18
  call void @llvm.memset.p0.i64(ptr noundef nonnull align 8 dereferenceable(6) %agg.result, i8 0, i64 6, i1 false), !alias.scope !18
  br label %cleanup

cleanup:                                          ; preds = %_ZNSt10shared_ptrIN7rocksdb9EnvLoggerEED2Ev.exit, %_ZN7rocksdb6StatusC2ERKS0_.exit
  %state_.i.i11 = getelementptr inbounds i8, ptr %status, i64 8
  %27 = load ptr, ptr %state_.i.i11, align 8
  %cmp.not.i.i.i12 = icmp eq ptr %27, null
  br i1 %cmp.not.i.i.i12, label %_ZN7rocksdb8IOStatusD2Ev.exit14, label %_ZNKSt14default_deleteIA_KcEclIS0_EENSt9enable_ifIXsr14is_convertibleIPA_T_PS1_EE5valueEvE4typeEPS5_.exit.i.i.i13

_ZNKSt14default_deleteIA_KcEclIS0_EENSt9enable_ifIXsr14is_convertibleIPA_T_PS1_EE5valueEvE4typeEPS5_.exit.i.i.i13: ; preds = %cleanup
  call void @_ZdaPv(ptr noundef nonnull %27) #30
  br label %_ZN7rocksdb8IOStatusD2Ev.exit14

_ZN7rocksdb8IOStatusD2Ev.exit14:                  ; preds = %cleanup, %_ZNKSt14default_deleteIA_KcEclIS0_EENSt9enable_ifIXsr14is_convertibleIPA_T_PS1_EE5valueEvE4typeEPS5_.exit.i.i.i13
  store ptr null, ptr %state_.i.i11, align 8
  %28 = load ptr, ptr %writable_file, align 8
  %cmp.not.i = icmp eq ptr %28, null
  br i1 %cmp.not.i, label %_ZNSt10unique_ptrIN7rocksdb14FSWritableFileESt14default_deleteIS1_EED2Ev.exit, label %_ZNKSt14default_deleteIN7rocksdb14FSWritableFileEEclEPS1_.exit.i

_ZNKSt14default_deleteIN7rocksdb14FSWritableFileEEclEPS1_.exit.i: ; preds = %_ZN7rocksdb8IOStatusD2Ev.exit14
  %vtable.i.i = load ptr, ptr %28, align 8
  %vfn.i.i = getelementptr inbounds i8, ptr %vtable.i.i, i64 8
  %29 = load ptr, ptr %vfn.i.i, align 8
  call void %29(ptr noundef nonnull align 8 dereferenceable(33) %28) #32
  br label %_ZNSt10unique_ptrIN7rocksdb14FSWritableFileESt14default_deleteIS1_EED2Ev.exit

_ZNSt10unique_ptrIN7rocksdb14FSWritableFileESt14default_deleteIS1_EED2Ev.exit: ; preds = %_ZN7rocksdb8IOStatusD2Ev.exit14, %_ZNKSt14default_deleteIN7rocksdb14FSWritableFileEEclEPS1_.exit.i
  store ptr null, ptr %writable_file, align 8
  %30 = load ptr, ptr %_M_before_begin.i.i.i.i.i, align 8
  %tobool.not3.i.i.i.i.i.i = icmp eq ptr %30, null
  br i1 %tobool.not3.i.i.i.i.i.i, label %_ZNSt10_HashtableINSt7__cxx1112basic_stringIcSt11char_traitsIcESaIcEEESt4pairIKS5_S5_ESaIS8_ENSt8__detail10_Select1stESt8equal_toIS5_ESt4hashIS5_ENSA_18_Mod_range_hashingENSA_20_Default_ranged_hashENSA_20_Prime_rehash_policyENSA_17_Hashtable_traitsILb1ELb0ELb1EEEE5clearEv.exit.i.i.i.i, label %while.body.i.i.i.i.i.i

while.body.i.i.i.i.i.i:                           ; preds = %_ZNSt10unique_ptrIN7rocksdb14FSWritableFileESt14default_deleteIS1_EED2Ev.exit, %while.body.i.i.i.i.i.i
  %__n.addr.04.i.i.i.i.i.i = phi ptr [ %31, %while.body.i.i.i.i.i.i ], [ %30, %_ZNSt10unique_ptrIN7rocksdb14FSWritableFileESt14default_deleteIS1_EED2Ev.exit ]
  %31 = load ptr, ptr %__n.addr.04.i.i.i.i.i.i, align 8
  %add.ptr.i.i.i.i.i.i.i = getelementptr inbounds i8, ptr %__n.addr.04.i.i.i.i.i.i, i64 8
  %second.i.i.i.i.i.i.i.i.i.i = getelementptr inbounds i8, ptr %__n.addr.04.i.i.i.i.i.i, i64 40
  call void @_ZNSt7__cxx1112basic_stringIcSt11char_traitsIcESaIcEED1Ev(ptr noundef nonnull align 8 dereferenceable(32) %second.i.i.i.i.i.i.i.i.i.i) #32
  call void @_ZNSt7__cxx1112basic_stringIcSt11char_traitsIcESaIcEED1Ev(ptr noundef nonnull align 8 dereferenceable(32) %add.ptr.i.i.i.i.i.i.i) #32
  call void @_ZdlPv(ptr noundef nonnull %__n.addr.04.i.i.i.i.i.i) #30
  %tobool.not.i.i.i.i.i.i = icmp eq ptr %31, null
  br i1 %tobool.not.i.i.i.i.i.i, label %_ZNSt10_HashtableINSt7__cxx1112basic_stringIcSt11char_traitsIcESaIcEEESt4pairIKS5_S5_ESaIS8_ENSt8__detail10_Select1stESt8equal_toIS5_ESt4hashIS5_ENSA_18_Mod_range_hashingENSA_20_Default_ranged_hashENSA_20_Prime_rehash_policyENSA_17_Hashtable_traitsILb1ELb0ELb1EEEE5clearEv.exit.i.i.i.i, label %while.body.i.i.i.i.i.i, !llvm.loop !21

_ZNSt10_HashtableINSt7__cxx1112basic_stringIcSt11char_traitsIcESaIcEEESt4pairIKS5_S5_ESaIS8_ENSt8__detail10_Select1stESt8equal_toIS5_ESt4hashIS5_ENSA_18_Mod_range_hashingENSA_20_Default_ranged_hashENSA_20_Prime_rehash_policyENSA_17_Hashtable_traitsILb1ELb0ELb1EEEE5clearEv.exit.i.i.i.i: ; preds = %while.body.i.i.i.i.i.i, %_ZNSt10unique_ptrIN7rocksdb14FSWritableFileESt14default_deleteIS1_EED2Ev.exit
  %32 = load ptr, ptr %property_bag.i.i.i, align 8
  %33 = load i64, ptr %_M_bucket_count.i.i.i.i.i, align 8
  %mul.i.i.i.i.i = shl i64 %33, 3
  call void @llvm.memset.p0.i64(ptr align 8 %32, i8 0, i64 %mul.i.i.i.i.i, i1 false)
  call void @llvm.memset.p0.i64(ptr noundef nonnull align 8 dereferenceable(16) %_M_before_begin.i.i.i.i.i, i8 0, i64 16, i1 false)
  %34 = load ptr, ptr %property_bag.i.i.i, align 8
  %cmp.i.i.i.i.i.i.i16 = icmp eq ptr %_M_single_bucket.i.i.i.i.i, %34
  br i1 %cmp.i.i.i.i.i.i.i16, label %_ZN7rocksdb11FileOptionsD2Ev.exit, label %if.end.i.i.i.i.i.i

if.end.i.i.i.i.i.i:                               ; preds = %_ZNSt10_HashtableINSt7__cxx1112basic_stringIcSt11char_traitsIcESaIcEEESt4pairIKS5_S5_ESaIS8_ENSt8__detail10_Select1stESt8equal_toIS5_ESt4hashIS5_ENSA_18_Mod_range_hashingENSA_20_Default_ranged_hashENSA_20_Prime_rehash_policyENSA_17_Hashtable_traitsILb1ELb0ELb1EEEE5clearEv.exit.i.i.i.i
  call void @_ZdlPv(ptr noundef %34) #30
  br label %_ZN7rocksdb11FileOptionsD2Ev.exit

_ZN7rocksdb11FileOptionsD2Ev.exit:                ; preds = %_ZNSt10_HashtableINSt7__cxx1112basic_stringIcSt11char_traitsIcESaIcEEESt4pairIKS5_S5_ESaIS8_ENSt8__detail10_Select1stESt8equal_toIS5_ESt4hashIS5_ENSA_18_Mod_range_hashingENSA_20_Default_ranged_hashENSA_20_Prime_rehash_policyENSA_17_Hashtable_traitsILb1ELb0ELb1EEEE5clearEv.exit.i.i.i.i, %if.end.i.i.i.i.i.i
  ret void

ehcleanup:                                        ; preds = %_ZN7rocksdb8IOStatusD2Ev.exit, %lpad
  %.pn = phi { ptr, i32 } [ %eh.lpad-body, %_ZN7rocksdb8IOStatusD2Ev.exit ], [ %12, %lpad ]
  %35 = load ptr, ptr %writable_file, align 8
  %cmp.not.i17 = icmp eq ptr %35, null
  br i1 %cmp.not.i17, label %_ZNSt10unique_ptrIN7rocksdb14FSWritableFileESt14default_deleteIS1_EED2Ev.exit21, label %_ZNKSt14default_deleteIN7rocksdb14FSWritableFileEEclEPS1_.exit.i18

_ZNKSt14default_deleteIN7rocksdb14FSWritableFileEEclEPS1_.exit.i18: ; preds = %ehcleanup
  %vtable.i.i19 = load ptr, ptr %35, align 8
  %vfn.i.i20 = getelementptr inbounds i8, ptr %vtable.i.i19, i64 8
  %36 = load ptr, ptr %vfn.i.i20, align 8
  call void %36(ptr noundef nonnull align 8 dereferenceable(33) %35) #32
  br label %_ZNSt10unique_ptrIN7rocksdb14FSWritableFileESt14default_deleteIS1_EED2Ev.exit21

_ZNSt10unique_ptrIN7rocksdb14FSWritableFileESt14default_deleteIS1_EED2Ev.exit21: ; preds = %ehcleanup, %_ZNKSt14default_deleteIN7rocksdb14FSWritableFileEEclEPS1_.exit.i18
  store ptr null, ptr %writable_file, align 8
  call void @_ZN7rocksdb11FileOptionsD2Ev(ptr noundef nonnull align 8 dereferenceable(146) %options) #32
  resume { ptr, i32 } %.pn
}

; Function Attrs: mustprogress uwtable
define void @_ZN7rocksdb3Env16CreateFromStringERKNS_13ConfigOptionsERKNSt7__cxx1112basic_stringIcSt11char_traitsIcESaIcEEEPPS0_(ptr noalias sret(%"class.rocksdb::Status") align 8 %agg.result, ptr noundef nonnull align 8 dereferenceable(80) %config_options, ptr noundef nonnull align 8 dereferenceable(32) %value, ptr nocapture noundef %result) local_unnamed_addr #2 align 2 personality ptr @__gxx_personality_v0 {
entry:
  %ref.tmp.i.i = alloca %"class.rocksdb::Status", align 8
  %ref.tmp11.i.i = alloca %"class.rocksdb::Status", align 8
  %ref.tmp19.i.i = alloca %"class.rocksdb::Slice", align 8
  %ref.tmp20.i.i = alloca %"class.rocksdb::Slice", align 8
  %id.i = alloca %"class.std::__cxx11::basic_string", align 8
  %opt_map.i = alloca %"class.std::unordered_map", align 8
  %status.i = alloca %"class.rocksdb::Status", align 8
  %__callable.i.i = alloca %class.anon.130, align 8
  %ref.tmp.i = alloca %class.anon.128, align 1
  %env = alloca ptr, align 8
  %call = tail call noundef ptr @_ZN7rocksdb3Env7DefaultEv()
  %call1 = tail call noundef zeroext i1 @_ZNKSt7__cxx1112basic_stringIcSt11char_traitsIcESaIcEE5emptyEv(ptr noundef nonnull align 8 dereferenceable(32) %value) #32
  br i1 %call1, label %if.then, label %lor.lhs.false

lor.lhs.false:                                    ; preds = %entry
  %vtable = load ptr, ptr %call, align 8
  %vfn = getelementptr inbounds i8, ptr %vtable, i64 128
  %0 = load ptr, ptr %vfn, align 8
  %call2 = tail call noundef zeroext i1 %0(ptr noundef nonnull align 8 dereferenceable(32) %call, ptr noundef nonnull align 8 dereferenceable(32) %value)
  br i1 %call2, label %if.then, label %if.else

if.then:                                          ; preds = %lor.lhs.false, %entry
  store ptr %call, ptr %result, align 8
  %state_.i.i = getelementptr inbounds i8, ptr %agg.result, i64 8
  store ptr null, ptr %state_.i.i, align 8, !alias.scope !22
  tail call void @llvm.memset.p0.i64(ptr noundef nonnull align 8 dereferenceable(6) %agg.result, i8 0, i64 6, i1 false), !alias.scope !22
  br label %return

if.else:                                          ; preds = %lor.lhs.false
  call void @llvm.lifetime.start.p0(i64 1, ptr nonnull %ref.tmp.i)
  call void @llvm.lifetime.start.p0(i64 8, ptr nonnull %__callable.i.i)
  store ptr %ref.tmp.i, ptr %__callable.i.i, align 8
  %1 = call align 8 ptr @llvm.threadlocal.address.p0(ptr align 8 @_ZSt15__once_callable)
  store ptr %__callable.i.i, ptr %1, align 8
  %2 = call align 8 ptr @llvm.threadlocal.address.p0(ptr align 8 @_ZSt11__once_call)
  store ptr @"_ZZNSt9once_flag18_Prepare_executionC1IZSt9call_onceIZN7rocksdb12_GLOBAL__N_118RegisterSystemEnvsEvE3$_0JEEvRS_OT_DpOT0_EUlvE_EERS7_ENUlvE_8__invokeEv", ptr %2, align 8
  %call1.i2.i.i = invoke noundef i32 @pthread_once(ptr noundef nonnull @_ZZN7rocksdb12_GLOBAL__N_118RegisterSystemEnvsEvE6loaded, ptr noundef nonnull @__once_proxy)
          to label %invoke.cont.i.i unwind label %lpad.i.i

invoke.cont.i.i:                                  ; preds = %if.else
  %tobool.not.i.i = icmp eq i32 %call1.i2.i.i, 0
  br i1 %tobool.not.i.i, label %_ZN7rocksdb12_GLOBAL__N_118RegisterSystemEnvsEv.exit, label %if.then.i.i

if.then.i.i:                                      ; preds = %invoke.cont.i.i
  invoke void @_ZSt20__throw_system_errori(i32 noundef %call1.i2.i.i) #34
          to label %invoke.cont1.i.i unwind label %lpad.i.i

invoke.cont1.i.i:                                 ; preds = %if.then.i.i
  unreachable

common.resume:                                    ; preds = %ehcleanup.i, %lpad.i.i
  %common.resume.op = phi { ptr, i32 } [ %3, %lpad.i.i ], [ %.pn.i, %ehcleanup.i ]
  resume { ptr, i32 } %common.resume.op

lpad.i.i:                                         ; preds = %if.then.i.i, %if.else
  %3 = landingpad { ptr, i32 }
          cleanup
  store ptr null, ptr %1, align 8
  store ptr null, ptr %2, align 8
  br label %common.resume

_ZN7rocksdb12_GLOBAL__N_118RegisterSystemEnvsEv.exit: ; preds = %invoke.cont.i.i
  store ptr null, ptr %1, align 8
  store ptr null, ptr %2, align 8
  call void @llvm.lifetime.end.p0(i64 8, ptr nonnull %__callable.i.i)
  call void @llvm.lifetime.end.p0(i64 1, ptr nonnull %ref.tmp.i)
  %4 = load ptr, ptr %result, align 8
  store ptr %4, ptr %env, align 8
  call void @llvm.experimental.noalias.scope.decl(metadata !25)
  call void @llvm.lifetime.start.p0(i64 32, ptr nonnull %id.i)
  call void @llvm.lifetime.start.p0(i64 56, ptr nonnull %opt_map.i)
  call void @llvm.lifetime.start.p0(i64 16, ptr nonnull %status.i)
  call void @_ZNSt7__cxx1112basic_stringIcSt11char_traitsIcESaIcEEC1Ev(ptr noundef nonnull align 8 dereferenceable(32) %id.i) #32, !noalias !25
  %_M_single_bucket.i.i.i = getelementptr inbounds i8, ptr %opt_map.i, i64 48
  store ptr %_M_single_bucket.i.i.i, ptr %opt_map.i, align 8, !noalias !25
  %_M_bucket_count.i.i.i = getelementptr inbounds i8, ptr %opt_map.i, i64 8
  store i64 1, ptr %_M_bucket_count.i.i.i, align 8, !noalias !25
  %_M_before_begin.i.i.i = getelementptr inbounds i8, ptr %opt_map.i, i64 16
  %_M_rehash_policy.i.i.i = getelementptr inbounds i8, ptr %opt_map.i, i64 32
  call void @llvm.memset.p0.i64(ptr noundef nonnull align 8 dereferenceable(16) %_M_before_begin.i.i.i, i8 0, i64 16, i1 false), !noalias !25
  store float 1.000000e+00, ptr %_M_rehash_policy.i.i.i, align 8, !noalias !25
  %_M_next_resize.i.i.i.i = getelementptr inbounds i8, ptr %opt_map.i, i64 40
  call void @llvm.memset.p0.i64(ptr noundef nonnull align 8 dereferenceable(16) %_M_next_resize.i.i.i.i, i8 0, i64 16, i1 false), !noalias !25
  %5 = load ptr, ptr %env, align 8, !noalias !25
  invoke void @_ZN7rocksdb12Customizable13GetOptionsMapERKNS_13ConfigOptionsEPKS0_RKNSt7__cxx1112basic_stringIcSt11char_traitsIcESaIcEEEPSB_PSt13unordered_mapISB_SB_St4hashISB_ESt8equal_toISB_ESaISt4pairISC_SB_EEE(ptr nonnull sret(%"class.rocksdb::Status") align 8 %status.i, ptr noundef nonnull align 8 dereferenceable(80) %config_options, ptr noundef %5, ptr noundef nonnull align 8 dereferenceable(32) %value, ptr noundef nonnull %id.i, ptr noundef nonnull %opt_map.i)
          to label %invoke.cont2.i unwind label %lpad.i, !noalias !25

invoke.cont2.i:                                   ; preds = %_ZN7rocksdb12_GLOBAL__N_118RegisterSystemEnvsEv.exit
  %6 = load i8, ptr %status.i, align 8, !noalias !25
  %cmp.i.i = icmp eq i8 %6, 0
  br i1 %cmp.i.i, label %if.else.i, label %if.then.i

if.then.i:                                        ; preds = %invoke.cont2.i
  %state_.i.i.i = getelementptr inbounds i8, ptr %agg.result, i64 8
  store ptr null, ptr %state_.i.i.i, align 8, !alias.scope !25
  call void @llvm.memset.p0.i64(ptr noundef nonnull align 8 dereferenceable(6) %agg.result, i8 0, i64 6, i1 false), !alias.scope !25
  %cmp.not.i.i.i = icmp eq ptr %status.i, %agg.result
  br i1 %cmp.not.i.i.i, label %cleanup.i, label %if.then.i.i.i

if.then.i.i.i:                                    ; preds = %if.then.i
  store i8 %6, ptr %agg.result, align 8, !alias.scope !25
  %subcode_.i.i.i = getelementptr inbounds i8, ptr %status.i, i64 1
  %7 = load i8, ptr %subcode_.i.i.i, align 1, !noalias !25
  %subcode_4.i.i.i = getelementptr inbounds i8, ptr %agg.result, i64 1
  store i8 %7, ptr %subcode_4.i.i.i, align 1, !alias.scope !25
  %sev_.i.i.i = getelementptr inbounds i8, ptr %status.i, i64 2
  %8 = load i8, ptr %sev_.i.i.i, align 2, !noalias !25
  %sev_6.i.i.i = getelementptr inbounds i8, ptr %agg.result, i64 2
  store i8 %8, ptr %sev_6.i.i.i, align 2, !alias.scope !25
  %retryable_.i.i.i = getelementptr inbounds i8, ptr %status.i, i64 3
  %9 = load i8, ptr %retryable_.i.i.i, align 1, !noalias !25
  %10 = and i8 %9, 1
  %retryable_8.i.i.i = getelementptr inbounds i8, ptr %agg.result, i64 3
  store i8 %10, ptr %retryable_8.i.i.i, align 1, !alias.scope !25
  store <4 x i8> zeroinitializer, ptr %status.i, align 8, !noalias !25
  %data_loss_.i.i.i = getelementptr inbounds i8, ptr %status.i, i64 4
  %11 = load i8, ptr %data_loss_.i.i.i, align 4, !noalias !25
  %12 = and i8 %11, 1
  %data_loss_11.i.i.i = getelementptr inbounds i8, ptr %agg.result, i64 4
  store i8 %12, ptr %data_loss_11.i.i.i, align 4, !alias.scope !25
  store i8 0, ptr %data_loss_.i.i.i, align 4, !noalias !25
  %scope_.i.i.i = getelementptr inbounds i8, ptr %status.i, i64 5
  %13 = load i8, ptr %scope_.i.i.i, align 1, !noalias !25
  %scope_14.i.i.i = getelementptr inbounds i8, ptr %agg.result, i64 5
  store i8 %13, ptr %scope_14.i.i.i, align 1, !alias.scope !25
  store i8 0, ptr %scope_.i.i.i, align 1, !noalias !25
  %state_.i2.i.i = getelementptr inbounds i8, ptr %status.i, i64 8
  %14 = load ptr, ptr %state_.i2.i.i, align 8, !noalias !25
  store ptr null, ptr %state_.i2.i.i, align 8, !noalias !25
  store ptr %14, ptr %state_.i.i.i, align 8, !alias.scope !25
  br label %cleanup.i

lpad.i:                                           ; preds = %_ZN7rocksdb12_GLOBAL__N_118RegisterSystemEnvsEv.exit
  %15 = landingpad { ptr, i32 }
          cleanup
  br label %ehcleanup.i

lpad1.i:                                          ; preds = %if.else18.i.i
  %16 = landingpad { ptr, i32 }
          cleanup
  br label %lpad1.body.i

lpad1.body.i:                                     ; preds = %_ZN7rocksdb6StatusD2Ev.exit33.i.i, %lpad1.i
  %eh.lpad-body.i = phi { ptr, i32 } [ %16, %lpad1.i ], [ %30, %_ZN7rocksdb6StatusD2Ev.exit33.i.i ]
  %state_.i.i8 = getelementptr inbounds i8, ptr %status.i, i64 8
  %17 = load ptr, ptr %state_.i.i8, align 8, !noalias !25
  %cmp.not.i.i4.i = icmp eq ptr %17, null
  br i1 %cmp.not.i.i4.i, label %_ZN7rocksdb6StatusD2Ev.exit.i, label %_ZNKSt14default_deleteIA_KcEclIS0_EENSt9enable_ifIXsr14is_convertibleIPA_T_PS1_EE5valueEvE4typeEPS5_.exit.i.i.i

_ZNKSt14default_deleteIA_KcEclIS0_EENSt9enable_ifIXsr14is_convertibleIPA_T_PS1_EE5valueEvE4typeEPS5_.exit.i.i.i: ; preds = %lpad1.body.i
  call void @_ZdaPv(ptr noundef nonnull %17) #30
  br label %_ZN7rocksdb6StatusD2Ev.exit.i

_ZN7rocksdb6StatusD2Ev.exit.i:                    ; preds = %_ZNKSt14default_deleteIA_KcEclIS0_EENSt9enable_ifIXsr14is_convertibleIPA_T_PS1_EE5valueEvE4typeEPS5_.exit.i.i.i, %lpad1.body.i
  store ptr null, ptr %state_.i.i8, align 8, !noalias !25
  br label %ehcleanup.i

if.else.i:                                        ; preds = %invoke.cont2.i
  call void @llvm.experimental.noalias.scope.decl(metadata !28)
  call void @llvm.lifetime.start.p0(i64 16, ptr nonnull %ref.tmp.i.i), !noalias !25
  call void @llvm.lifetime.start.p0(i64 16, ptr nonnull %ref.tmp11.i.i), !noalias !25
  call void @llvm.lifetime.start.p0(i64 16, ptr nonnull %ref.tmp19.i.i), !noalias !25
  call void @llvm.lifetime.start.p0(i64 16, ptr nonnull %ref.tmp20.i.i), !noalias !25
  %call.i.i = call noundef zeroext i1 @_ZNKSt7__cxx1112basic_stringIcSt11char_traitsIcESaIcEE5emptyEv(ptr noundef nonnull align 8 dereferenceable(32) %id.i) #32, !noalias !31
  br i1 %call.i.i, label %if.else15.i.i, label %if.then.i.i6

if.then.i.i6:                                     ; preds = %if.else.i
  %state_.i.i5.i = getelementptr inbounds i8, ptr %agg.result, i64 8
  store ptr null, ptr %state_.i.i5.i, align 8, !alias.scope !31
  call void @llvm.memset.p0.i64(ptr noundef nonnull align 8 dereferenceable(6) %agg.result, i8 0, i64 6, i1 false), !alias.scope !31
  %registry.i.i = getelementptr inbounds i8, ptr %config_options, i64 64
  %18 = load ptr, ptr %registry.i.i, align 8, !noalias !31
  invoke void @_ZN7rocksdb14ObjectRegistry15NewStaticObjectINS_3EnvEEENS_6StatusERKNSt7__cxx1112basic_stringIcSt11char_traitsIcESaIcEEEPPT_(ptr nonnull sret(%"class.rocksdb::Status") align 8 %ref.tmp.i.i, ptr noundef nonnull align 8 dereferenceable(192) %18, ptr noundef nonnull align 8 dereferenceable(32) %id.i, ptr noundef nonnull %env)
          to label %invoke.cont.i.i9 unwind label %lpad.i.i7, !noalias !31

invoke.cont.i.i9:                                 ; preds = %if.then.i.i6
  %cmp.not.i.i6.i = icmp eq ptr %ref.tmp.i.i, %agg.result
  br i1 %cmp.not.i.i6.i, label %invoke.cont8.i.thread.i, label %_ZN7rocksdb6StatusD2Ev.exit.i.i

invoke.cont8.i.thread.i:                          ; preds = %invoke.cont.i.i9
  store ptr null, ptr %state_.i.i5.i, align 8, !noalias !31
  br label %if.then10.i.i

_ZN7rocksdb6StatusD2Ev.exit.i.i:                  ; preds = %invoke.cont.i.i9
  %19 = load i8, ptr %ref.tmp.i.i, align 8, !noalias !31
  store i8 %19, ptr %agg.result, align 8, !alias.scope !31
  %subcode_.i.i8.i = getelementptr inbounds i8, ptr %ref.tmp.i.i, i64 1
  %20 = load i8, ptr %subcode_.i.i8.i, align 1, !noalias !31
  %subcode_4.i.i9.i = getelementptr inbounds i8, ptr %agg.result, i64 1
  store i8 %20, ptr %subcode_4.i.i9.i, align 1, !alias.scope !31
  %sev_.i.i10.i = getelementptr inbounds i8, ptr %ref.tmp.i.i, i64 2
  %21 = load i8, ptr %sev_.i.i10.i, align 2, !noalias !31
  %sev_6.i.i11.i = getelementptr inbounds i8, ptr %agg.result, i64 2
  store i8 %21, ptr %sev_6.i.i11.i, align 2, !alias.scope !31
  %retryable_.i.i12.i = getelementptr inbounds i8, ptr %ref.tmp.i.i, i64 3
  %22 = load i8, ptr %retryable_.i.i12.i, align 1, !noalias !31
  %23 = and i8 %22, 1
  %retryable_8.i.i13.i = getelementptr inbounds i8, ptr %agg.result, i64 3
  store i8 %23, ptr %retryable_8.i.i13.i, align 1, !alias.scope !31
  store <4 x i8> zeroinitializer, ptr %ref.tmp.i.i, align 8, !noalias !31
  %data_loss_.i.i14.i = getelementptr inbounds i8, ptr %ref.tmp.i.i, i64 4
  %24 = load i8, ptr %data_loss_.i.i14.i, align 4, !noalias !31
  %25 = and i8 %24, 1
  %data_loss_11.i.i15.i = getelementptr inbounds i8, ptr %agg.result, i64 4
  store i8 %25, ptr %data_loss_11.i.i15.i, align 4, !alias.scope !31
  store i8 0, ptr %data_loss_.i.i14.i, align 4, !noalias !31
  %scope_.i.i16.i = getelementptr inbounds i8, ptr %ref.tmp.i.i, i64 5
  %26 = load i8, ptr %scope_.i.i16.i, align 1, !noalias !31
  %scope_14.i.i17.i = getelementptr inbounds i8, ptr %agg.result, i64 5
  store i8 %26, ptr %scope_14.i.i17.i, align 1, !alias.scope !31
  store i8 0, ptr %scope_.i.i16.i, align 1, !noalias !31
  %state_.i7.i.i = getelementptr inbounds i8, ptr %ref.tmp.i.i, i64 8
  %27 = load ptr, ptr %state_.i7.i.i, align 8, !noalias !31
  store ptr %27, ptr %state_.i.i5.i, align 8, !alias.scope !31
  store ptr null, ptr %state_.i7.i.i, align 8, !noalias !31
  %ignore_unsupported_options.i.i = getelementptr inbounds i8, ptr %config_options, i64 1
  %28 = load i8, ptr %ignore_unsupported_options.i.i, align 1, !noalias !31
  %29 = and i8 %28, 1
  %tobool.not.i.i10 = icmp ne i8 %29, 0
  %cmp.i.i.i = icmp eq i8 %19, 3
  %or.cond.i.i = select i1 %tobool.not.i.i10, i1 %cmp.i.i.i, i1 false
  br i1 %or.cond.i.i, label %invoke.cont6.i.i, label %invoke.cont8.i.i

invoke.cont6.i.i:                                 ; preds = %_ZN7rocksdb6StatusD2Ev.exit.i.i
  call void @llvm.memset.p0.i64(ptr noundef nonnull align 8 dereferenceable(6) %agg.result, i8 0, i64 6, i1 false), !alias.scope !31
  store ptr null, ptr %state_.i.i5.i, align 8, !alias.scope !31
  %tobool.not.i.i.i.i.i23.i.i = icmp eq ptr %27, null
  br i1 %tobool.not.i.i.i.i.i23.i.i, label %_ZN7rocksdbL15NewStaticObjectINS_3EnvEEENS_6StatusERKNS_13ConfigOptionsERKNSt7__cxx1112basic_stringIcSt11char_traitsIcESaIcEEERKSt13unordered_mapISB_SB_St4hashISB_ESt8equal_toISB_ESaISt4pairISC_SB_EEEPPT_.exit.i, label %_ZN7rocksdb6StatusaSEOS0_.exit25.i.i

_ZN7rocksdb6StatusaSEOS0_.exit25.i.i:             ; preds = %invoke.cont6.i.i
  call void @_ZdaPv(ptr noundef nonnull %27) #30
  br label %_ZN7rocksdbL15NewStaticObjectINS_3EnvEEENS_6StatusERKNS_13ConfigOptionsERKNSt7__cxx1112basic_stringIcSt11char_traitsIcESaIcEEERKSt13unordered_mapISB_SB_St4hashISB_ESt8equal_toISB_ESaISt4pairISC_SB_EEEPPT_.exit.i

lpad.i.i7:                                        ; preds = %if.then10.i.i, %if.then.i.i6
  %30 = landingpad { ptr, i32 }
          cleanup
  %31 = load ptr, ptr %state_.i.i5.i, align 8, !alias.scope !31
  %cmp.not.i.i31.i.i = icmp eq ptr %31, null
  br i1 %cmp.not.i.i31.i.i, label %_ZN7rocksdb6StatusD2Ev.exit33.i.i, label %_ZNKSt14default_deleteIA_KcEclIS0_EENSt9enable_ifIXsr14is_convertibleIPA_T_PS1_EE5valueEvE4typeEPS5_.exit.i.i32.i.i

_ZNKSt14default_deleteIA_KcEclIS0_EENSt9enable_ifIXsr14is_convertibleIPA_T_PS1_EE5valueEvE4typeEPS5_.exit.i.i32.i.i: ; preds = %lpad.i.i7
  call void @_ZdaPv(ptr noundef nonnull %31) #30
  br label %_ZN7rocksdb6StatusD2Ev.exit33.i.i

_ZN7rocksdb6StatusD2Ev.exit33.i.i:                ; preds = %_ZNKSt14default_deleteIA_KcEclIS0_EENSt9enable_ifIXsr14is_convertibleIPA_T_PS1_EE5valueEvE4typeEPS5_.exit.i.i32.i.i, %lpad.i.i7
  store ptr null, ptr %state_.i.i5.i, align 8, !alias.scope !31
  br label %lpad1.body.i

invoke.cont8.i.i:                                 ; preds = %_ZN7rocksdb6StatusD2Ev.exit.i.i
  %cmp.i34.i.i = icmp eq i8 %19, 0
  br i1 %cmp.i34.i.i, label %if.then10.i.i, label %_ZN7rocksdbL15NewStaticObjectINS_3EnvEEENS_6StatusERKNS_13ConfigOptionsERKNSt7__cxx1112basic_stringIcSt11char_traitsIcESaIcEEERKSt13unordered_mapISB_SB_St4hashISB_ESt8equal_toISB_ESaISt4pairISC_SB_EEEPPT_.exit.i

if.then10.i.i:                                    ; preds = %invoke.cont8.i.i, %invoke.cont8.i.thread.i
  %32 = load ptr, ptr %env, align 8, !noalias !31
  invoke void @_ZN7rocksdb12Customizable18ConfigureNewObjectERKNS_13ConfigOptionsEPS0_RKSt13unordered_mapINSt7__cxx1112basic_stringIcSt11char_traitsIcESaIcEEESB_St4hashISB_ESt8equal_toISB_ESaISt4pairIKSB_SB_EEE(ptr nonnull sret(%"class.rocksdb::Status") align 8 %ref.tmp11.i.i, ptr noundef nonnull align 8 dereferenceable(80) %config_options, ptr noundef %32, ptr noundef nonnull align 8 dereferenceable(56) %opt_map.i)
          to label %invoke.cont12.i.i unwind label %lpad.i.i7

invoke.cont12.i.i:                                ; preds = %if.then10.i.i
  %cmp.not.i35.i.i = icmp eq ptr %ref.tmp11.i.i, %agg.result
  br i1 %cmp.not.i35.i.i, label %_ZN7rocksdb6StatusaSEOS0_.exit51.i.i, label %if.then.i36.i.i

if.then.i36.i.i:                                  ; preds = %invoke.cont12.i.i
  %33 = load i8, ptr %ref.tmp11.i.i, align 8, !noalias !31
  store i8 %33, ptr %agg.result, align 8, !alias.scope !31
  %subcode_.i37.i.i = getelementptr inbounds i8, ptr %ref.tmp11.i.i, i64 1
  %34 = load i8, ptr %subcode_.i37.i.i, align 1, !noalias !31
  %subcode_4.i38.i.i = getelementptr inbounds i8, ptr %agg.result, i64 1
  store i8 %34, ptr %subcode_4.i38.i.i, align 1, !alias.scope !31
  %sev_.i39.i.i = getelementptr inbounds i8, ptr %ref.tmp11.i.i, i64 2
  %35 = load i8, ptr %sev_.i39.i.i, align 2, !noalias !31
  %sev_6.i40.i.i = getelementptr inbounds i8, ptr %agg.result, i64 2
  store i8 %35, ptr %sev_6.i40.i.i, align 2, !alias.scope !31
  %retryable_.i41.i.i = getelementptr inbounds i8, ptr %ref.tmp11.i.i, i64 3
  %36 = load i8, ptr %retryable_.i41.i.i, align 1, !noalias !31
  %37 = and i8 %36, 1
  %retryable_8.i42.i.i = getelementptr inbounds i8, ptr %agg.result, i64 3
  store i8 %37, ptr %retryable_8.i42.i.i, align 1, !alias.scope !31
  store <4 x i8> zeroinitializer, ptr %ref.tmp11.i.i, align 8, !noalias !31
  %data_loss_.i43.i.i = getelementptr inbounds i8, ptr %ref.tmp11.i.i, i64 4
  %38 = load i8, ptr %data_loss_.i43.i.i, align 4, !noalias !31
  %39 = and i8 %38, 1
  %data_loss_11.i44.i.i = getelementptr inbounds i8, ptr %agg.result, i64 4
  store i8 %39, ptr %data_loss_11.i44.i.i, align 4, !alias.scope !31
  store i8 0, ptr %data_loss_.i43.i.i, align 4, !noalias !31
  %scope_.i45.i.i = getelementptr inbounds i8, ptr %ref.tmp11.i.i, i64 5
  %40 = load i8, ptr %scope_.i45.i.i, align 1, !noalias !31
  %scope_14.i46.i.i = getelementptr inbounds i8, ptr %agg.result, i64 5
  store i8 %40, ptr %scope_14.i46.i.i, align 1, !alias.scope !31
  store i8 0, ptr %scope_.i45.i.i, align 1, !noalias !31
  %state_.i47.i.i = getelementptr inbounds i8, ptr %ref.tmp11.i.i, i64 8
  %41 = load ptr, ptr %state_.i47.i.i, align 8, !noalias !31
  store ptr null, ptr %state_.i47.i.i, align 8, !noalias !31
  %42 = load ptr, ptr %state_.i.i5.i, align 8, !alias.scope !31
  store ptr %41, ptr %state_.i.i5.i, align 8, !alias.scope !31
  %tobool.not.i.i.i.i.i49.i.i = icmp eq ptr %42, null
  br i1 %tobool.not.i.i.i.i.i49.i.i, label %_ZN7rocksdb6StatusaSEOS0_.exit51.i.i, label %_ZNKSt14default_deleteIA_KcEclIS0_EENSt9enable_ifIXsr14is_convertibleIPA_T_PS1_EE5valueEvE4typeEPS5_.exit.i.i.i.i.i50.i.i

_ZNKSt14default_deleteIA_KcEclIS0_EENSt9enable_ifIXsr14is_convertibleIPA_T_PS1_EE5valueEvE4typeEPS5_.exit.i.i.i.i.i50.i.i: ; preds = %if.then.i36.i.i
  call void @_ZdaPv(ptr noundef nonnull %42) #30
  br label %_ZN7rocksdb6StatusaSEOS0_.exit51.i.i

_ZN7rocksdb6StatusaSEOS0_.exit51.i.i:             ; preds = %_ZNKSt14default_deleteIA_KcEclIS0_EENSt9enable_ifIXsr14is_convertibleIPA_T_PS1_EE5valueEvE4typeEPS5_.exit.i.i.i.i.i50.i.i, %if.then.i36.i.i, %invoke.cont12.i.i
  %state_.i52.i.i = getelementptr inbounds i8, ptr %ref.tmp11.i.i, i64 8
  %43 = load ptr, ptr %state_.i52.i.i, align 8, !noalias !31
  %cmp.not.i.i53.i.i = icmp eq ptr %43, null
  br i1 %cmp.not.i.i53.i.i, label %_ZN7rocksdbL15NewStaticObjectINS_3EnvEEENS_6StatusERKNS_13ConfigOptionsERKNSt7__cxx1112basic_stringIcSt11char_traitsIcESaIcEEERKSt13unordered_mapISB_SB_St4hashISB_ESt8equal_toISB_ESaISt4pairISC_SB_EEEPPT_.exit.i, label %_ZNKSt14default_deleteIA_KcEclIS0_EENSt9enable_ifIXsr14is_convertibleIPA_T_PS1_EE5valueEvE4typeEPS5_.exit.i.i54.i.i

_ZNKSt14default_deleteIA_KcEclIS0_EENSt9enable_ifIXsr14is_convertibleIPA_T_PS1_EE5valueEvE4typeEPS5_.exit.i.i54.i.i: ; preds = %_ZN7rocksdb6StatusaSEOS0_.exit51.i.i
  call void @_ZdaPv(ptr noundef nonnull %43) #30
  br label %_ZN7rocksdbL15NewStaticObjectINS_3EnvEEENS_6StatusERKNS_13ConfigOptionsERKNSt7__cxx1112basic_stringIcSt11char_traitsIcESaIcEEERKSt13unordered_mapISB_SB_St4hashISB_ESt8equal_toISB_ESaISt4pairISC_SB_EEEPPT_.exit.i

if.else15.i.i:                                    ; preds = %if.else.i
  %_M_element_count.i.i.i.i.i = getelementptr inbounds i8, ptr %opt_map.i, i64 24
  %44 = load i64, ptr %_M_element_count.i.i.i.i.i, align 8, !noalias !31
  %cmp.i.i.i.i = icmp eq i64 %44, 0
  br i1 %cmp.i.i.i.i, label %if.then17.i.i, label %if.else18.i.i

if.then17.i.i:                                    ; preds = %if.else15.i.i
  store ptr null, ptr %env, align 8, !noalias !31
  %state_.i.i56.i.i = getelementptr inbounds i8, ptr %agg.result, i64 8
  store ptr null, ptr %state_.i.i56.i.i, align 8, !alias.scope !32
  call void @llvm.memset.p0.i64(ptr noundef nonnull align 8 dereferenceable(6) %agg.result, i8 0, i64 6, i1 false), !alias.scope !32
  br label %_ZN7rocksdbL15NewStaticObjectINS_3EnvEEENS_6StatusERKNS_13ConfigOptionsERKNSt7__cxx1112basic_stringIcSt11char_traitsIcESaIcEEERKSt13unordered_mapISB_SB_St4hashISB_ESt8equal_toISB_ESaISt4pairISC_SB_EEEPPT_.exit.i

if.else18.i.i:                                    ; preds = %if.else15.i.i
  store ptr @.str.52, ptr %ref.tmp19.i.i, align 8, !noalias !31
  %size_.i.i.i = getelementptr inbounds i8, ptr %ref.tmp19.i.i, i64 8
  store i64 20, ptr %size_.i.i.i, align 8, !noalias !31
  store ptr @.str.15, ptr %ref.tmp20.i.i, align 8, !noalias !31
  %size_.i57.i.i = getelementptr inbounds i8, ptr %ref.tmp20.i.i, i64 8
  store i64 0, ptr %size_.i57.i.i, align 8, !noalias !31
  invoke void @_ZN7rocksdb6StatusC2ENS0_4CodeENS0_7SubCodeERKNS_5SliceES5_NS0_8SeverityE(ptr noundef nonnull align 8 dereferenceable(16) %agg.result, i8 noundef zeroext 3, i8 noundef zeroext 0, ptr noundef nonnull align 8 dereferenceable(16) %ref.tmp19.i.i, ptr noundef nonnull align 8 dereferenceable(16) %ref.tmp20.i.i, i8 noundef zeroext 0)
          to label %_ZN7rocksdbL15NewStaticObjectINS_3EnvEEENS_6StatusERKNS_13ConfigOptionsERKNSt7__cxx1112basic_stringIcSt11char_traitsIcESaIcEEERKSt13unordered_mapISB_SB_St4hashISB_ESt8equal_toISB_ESaISt4pairISC_SB_EEEPPT_.exit.i unwind label %lpad1.i

_ZN7rocksdbL15NewStaticObjectINS_3EnvEEENS_6StatusERKNS_13ConfigOptionsERKNSt7__cxx1112basic_stringIcSt11char_traitsIcESaIcEEERKSt13unordered_mapISB_SB_St4hashISB_ESt8equal_toISB_ESaISt4pairISC_SB_EEEPPT_.exit.i: ; preds = %if.else18.i.i, %if.then17.i.i, %_ZNKSt14default_deleteIA_KcEclIS0_EENSt9enable_ifIXsr14is_convertibleIPA_T_PS1_EE5valueEvE4typeEPS5_.exit.i.i54.i.i, %_ZN7rocksdb6StatusaSEOS0_.exit51.i.i, %invoke.cont8.i.i, %_ZN7rocksdb6StatusaSEOS0_.exit25.i.i, %invoke.cont6.i.i
  call void @llvm.lifetime.end.p0(i64 16, ptr nonnull %ref.tmp.i.i), !noalias !25
  call void @llvm.lifetime.end.p0(i64 16, ptr nonnull %ref.tmp11.i.i), !noalias !25
  call void @llvm.lifetime.end.p0(i64 16, ptr nonnull %ref.tmp19.i.i), !noalias !25
  call void @llvm.lifetime.end.p0(i64 16, ptr nonnull %ref.tmp20.i.i), !noalias !25
  br label %cleanup.i

cleanup.i:                                        ; preds = %_ZN7rocksdbL15NewStaticObjectINS_3EnvEEENS_6StatusERKNS_13ConfigOptionsERKNSt7__cxx1112basic_stringIcSt11char_traitsIcESaIcEEERKSt13unordered_mapISB_SB_St4hashISB_ESt8equal_toISB_ESaISt4pairISC_SB_EEEPPT_.exit.i, %if.then.i.i.i, %if.then.i
  %state_.i20.i = getelementptr inbounds i8, ptr %status.i, i64 8
  %45 = load ptr, ptr %state_.i20.i, align 8, !noalias !25
  %cmp.not.i.i21.i = icmp eq ptr %45, null
  br i1 %cmp.not.i.i21.i, label %_ZN7rocksdb6StatusD2Ev.exit23.i, label %_ZNKSt14default_deleteIA_KcEclIS0_EENSt9enable_ifIXsr14is_convertibleIPA_T_PS1_EE5valueEvE4typeEPS5_.exit.i.i22.i

_ZNKSt14default_deleteIA_KcEclIS0_EENSt9enable_ifIXsr14is_convertibleIPA_T_PS1_EE5valueEvE4typeEPS5_.exit.i.i22.i: ; preds = %cleanup.i
  call void @_ZdaPv(ptr noundef nonnull %45) #30
  br label %_ZN7rocksdb6StatusD2Ev.exit23.i

_ZN7rocksdb6StatusD2Ev.exit23.i:                  ; preds = %_ZNKSt14default_deleteIA_KcEclIS0_EENSt9enable_ifIXsr14is_convertibleIPA_T_PS1_EE5valueEvE4typeEPS5_.exit.i.i22.i, %cleanup.i
  store ptr null, ptr %state_.i20.i, align 8, !noalias !25
  %46 = load ptr, ptr %_M_before_begin.i.i.i, align 8, !noalias !25
  %tobool.not3.i.i.i.i.i = icmp eq ptr %46, null
  br i1 %tobool.not3.i.i.i.i.i, label %_ZNSt10_HashtableINSt7__cxx1112basic_stringIcSt11char_traitsIcESaIcEEESt4pairIKS5_S5_ESaIS8_ENSt8__detail10_Select1stESt8equal_toIS5_ESt4hashIS5_ENSA_18_Mod_range_hashingENSA_20_Default_ranged_hashENSA_20_Prime_rehash_policyENSA_17_Hashtable_traitsILb1ELb0ELb1EEEE5clearEv.exit.i.i.i, label %while.body.i.i.i.i.i

while.body.i.i.i.i.i:                             ; preds = %_ZN7rocksdb6StatusD2Ev.exit23.i, %while.body.i.i.i.i.i
  %__n.addr.04.i.i.i.i.i = phi ptr [ %47, %while.body.i.i.i.i.i ], [ %46, %_ZN7rocksdb6StatusD2Ev.exit23.i ]
  %47 = load ptr, ptr %__n.addr.04.i.i.i.i.i, align 8
  %add.ptr.i.i.i.i.i.i = getelementptr inbounds i8, ptr %__n.addr.04.i.i.i.i.i, i64 8
  %second.i.i.i.i.i.i.i.i.i = getelementptr inbounds i8, ptr %__n.addr.04.i.i.i.i.i, i64 40
  call void @_ZNSt7__cxx1112basic_stringIcSt11char_traitsIcESaIcEED1Ev(ptr noundef nonnull align 8 dereferenceable(32) %second.i.i.i.i.i.i.i.i.i) #32
  call void @_ZNSt7__cxx1112basic_stringIcSt11char_traitsIcESaIcEED1Ev(ptr noundef nonnull align 8 dereferenceable(32) %add.ptr.i.i.i.i.i.i) #32
  call void @_ZdlPv(ptr noundef nonnull %__n.addr.04.i.i.i.i.i) #30
  %tobool.not.i.i.i.i.i = icmp eq ptr %47, null
  br i1 %tobool.not.i.i.i.i.i, label %_ZNSt10_HashtableINSt7__cxx1112basic_stringIcSt11char_traitsIcESaIcEEESt4pairIKS5_S5_ESaIS8_ENSt8__detail10_Select1stESt8equal_toIS5_ESt4hashIS5_ENSA_18_Mod_range_hashingENSA_20_Default_ranged_hashENSA_20_Prime_rehash_policyENSA_17_Hashtable_traitsILb1ELb0ELb1EEEE5clearEv.exit.i.i.i, label %while.body.i.i.i.i.i, !llvm.loop !21

_ZNSt10_HashtableINSt7__cxx1112basic_stringIcSt11char_traitsIcESaIcEEESt4pairIKS5_S5_ESaIS8_ENSt8__detail10_Select1stESt8equal_toIS5_ESt4hashIS5_ENSA_18_Mod_range_hashingENSA_20_Default_ranged_hashENSA_20_Prime_rehash_policyENSA_17_Hashtable_traitsILb1ELb0ELb1EEEE5clearEv.exit.i.i.i: ; preds = %while.body.i.i.i.i.i, %_ZN7rocksdb6StatusD2Ev.exit23.i
  %48 = load ptr, ptr %opt_map.i, align 8, !noalias !25
  %49 = load i64, ptr %_M_bucket_count.i.i.i, align 8, !noalias !25
  %mul.i.i.i.i = shl i64 %49, 3
  call void @llvm.memset.p0.i64(ptr align 8 %48, i8 0, i64 %mul.i.i.i.i, i1 false)
  call void @llvm.memset.p0.i64(ptr noundef nonnull align 8 dereferenceable(16) %_M_before_begin.i.i.i, i8 0, i64 16, i1 false), !noalias !25
  %50 = load ptr, ptr %opt_map.i, align 8, !noalias !25
  %cmp.i.i.i.i.i.i = icmp eq ptr %_M_single_bucket.i.i.i, %50
  br i1 %cmp.i.i.i.i.i.i, label %invoke.cont, label %if.end.i.i.i.i.i

if.end.i.i.i.i.i:                                 ; preds = %_ZNSt10_HashtableINSt7__cxx1112basic_stringIcSt11char_traitsIcESaIcEEESt4pairIKS5_S5_ESaIS8_ENSt8__detail10_Select1stESt8equal_toIS5_ESt4hashIS5_ENSA_18_Mod_range_hashingENSA_20_Default_ranged_hashENSA_20_Prime_rehash_policyENSA_17_Hashtable_traitsILb1ELb0ELb1EEEE5clearEv.exit.i.i.i
  call void @_ZdlPv(ptr noundef %50) #30
  br label %invoke.cont

ehcleanup.i:                                      ; preds = %_ZN7rocksdb6StatusD2Ev.exit.i, %lpad.i
  %.pn.i = phi { ptr, i32 } [ %eh.lpad-body.i, %_ZN7rocksdb6StatusD2Ev.exit.i ], [ %15, %lpad.i ]
  call void @_ZNSt13unordered_mapINSt7__cxx1112basic_stringIcSt11char_traitsIcESaIcEEES5_St4hashIS5_ESt8equal_toIS5_ESaISt4pairIKS5_S5_EEED2Ev(ptr noundef nonnull align 8 dereferenceable(56) %opt_map.i) #32
  call void @_ZNSt7__cxx1112basic_stringIcSt11char_traitsIcESaIcEED1Ev(ptr noundef nonnull align 8 dereferenceable(32) %id.i) #32
  br label %common.resume

invoke.cont:                                      ; preds = %if.end.i.i.i.i.i, %_ZNSt10_HashtableINSt7__cxx1112basic_stringIcSt11char_traitsIcESaIcEEESt4pairIKS5_S5_ESaIS8_ENSt8__detail10_Select1stESt8equal_toIS5_ESt4hashIS5_ENSA_18_Mod_range_hashingENSA_20_Default_ranged_hashENSA_20_Prime_rehash_policyENSA_17_Hashtable_traitsILb1ELb0ELb1EEEE5clearEv.exit.i.i.i
  call void @_ZNSt7__cxx1112basic_stringIcSt11char_traitsIcESaIcEED1Ev(ptr noundef nonnull align 8 dereferenceable(32) %id.i) #32
  call void @llvm.lifetime.end.p0(i64 32, ptr nonnull %id.i)
  call void @llvm.lifetime.end.p0(i64 56, ptr nonnull %opt_map.i)
  call void @llvm.lifetime.end.p0(i64 16, ptr nonnull %status.i)
  %51 = load i8, ptr %agg.result, align 8
  %cmp.i = icmp eq i8 %51, 0
  br i1 %cmp.i, label %if.then4, label %return

if.then4:                                         ; preds = %invoke.cont
  %52 = load ptr, ptr %env, align 8
  store ptr %52, ptr %result, align 8
  br label %return

return:                                           ; preds = %invoke.cont, %if.then4, %if.then
  ret void
}

declare noundef ptr @_ZN7rocksdb3Env7DefaultEv() local_unnamed_addr #6

; Function Attrs: nounwind
declare noundef zeroext i1 @_ZNKSt7__cxx1112basic_stringIcSt11char_traitsIcESaIcEE5emptyEv(ptr noundef nonnull align 8 dereferenceable(32)) local_unnamed_addr #7

; Function Attrs: mustprogress uwtable
define void @_ZN7rocksdb3Env16CreateFromStringERKNS_13ConfigOptionsERKNSt7__cxx1112basic_stringIcSt11char_traitsIcESaIcEEEPPS0_PSt10shared_ptrIS0_E(ptr noalias sret(%"class.rocksdb::Status") align 8 %agg.result, ptr noundef nonnull align 8 dereferenceable(80) %config_options, ptr noundef nonnull align 8 dereferenceable(32) %value, ptr nocapture noundef %result, ptr noundef %guard) local_unnamed_addr #2 align 2 personality ptr @__gxx_personality_v0 {
entry:
  %__callable.i.i = alloca %class.anon.130, align 8
  %ref.tmp.i = alloca %class.anon.128, align 1
  %uniq = alloca %"class.std::unique_ptr.22", align 8
  %env = alloca ptr, align 8
  %id = alloca %"class.std::__cxx11::basic_string", align 8
  %opt_map = alloca %"class.std::unordered_map", align 8
  %ref.tmp12 = alloca %"class.rocksdb::Status", align 8
  %ref.tmp27 = alloca %"class.rocksdb::Status", align 8
  store ptr null, ptr %uniq, align 8
  %0 = load ptr, ptr %result, align 8
  store ptr %0, ptr %env, align 8
  call void @_ZNSt7__cxx1112basic_stringIcSt11char_traitsIcESaIcEEC1Ev(ptr noundef nonnull align 8 dereferenceable(32) %id) #32
  %_M_single_bucket.i.i = getelementptr inbounds i8, ptr %opt_map, i64 48
  store ptr %_M_single_bucket.i.i, ptr %opt_map, align 8
  %_M_bucket_count.i.i = getelementptr inbounds i8, ptr %opt_map, i64 8
  store i64 1, ptr %_M_bucket_count.i.i, align 8
  %_M_before_begin.i.i = getelementptr inbounds i8, ptr %opt_map, i64 16
  %_M_rehash_policy.i.i = getelementptr inbounds i8, ptr %opt_map, i64 32
  call void @llvm.memset.p0.i64(ptr noundef nonnull align 8 dereferenceable(16) %_M_before_begin.i.i, i8 0, i64 16, i1 false)
  store float 1.000000e+00, ptr %_M_rehash_policy.i.i, align 8
  %_M_next_resize.i.i.i = getelementptr inbounds i8, ptr %opt_map, i64 40
  call void @llvm.memset.p0.i64(ptr noundef nonnull align 8 dereferenceable(16) %_M_next_resize.i.i.i, i8 0, i64 16, i1 false)
  invoke void @_ZN7rocksdb12Customizable13GetOptionsMapERKNS_13ConfigOptionsEPKS0_RKNSt7__cxx1112basic_stringIcSt11char_traitsIcESaIcEEEPSB_PSt13unordered_mapISB_SB_St4hashISB_ESt8equal_toISB_ESaISt4pairISC_SB_EEE(ptr sret(%"class.rocksdb::Status") align 8 %agg.result, ptr noundef nonnull align 8 dereferenceable(80) %config_options, ptr noundef %0, ptr noundef nonnull align 8 dereferenceable(32) %value, ptr noundef nonnull %id, ptr noundef nonnull %opt_map)
          to label %invoke.cont2 unwind label %lpad

invoke.cont2:                                     ; preds = %entry
  %1 = load i8, ptr %agg.result, align 8
  %cmp.i = icmp eq i8 %1, 0
  br i1 %cmp.i, label %if.end, label %nrvo.skipdtor

lpad:                                             ; preds = %entry
  %2 = landingpad { ptr, i32 }
          cleanup
  br label %ehcleanup

lpad1:                                            ; preds = %if.then34, %if.then26, %invoke.cont11, %lor.lhs.false, %if.end
  %3 = landingpad { ptr, i32 }
          cleanup
  br label %lpad1.body

lpad1.body:                                       ; preds = %lpad.i.i, %lpad1
  %eh.lpad-body = phi { ptr, i32 } [ %3, %lpad1 ], [ %9, %lpad.i.i ]
  %state_.i = getelementptr inbounds i8, ptr %agg.result, i64 8
  %4 = load ptr, ptr %state_.i, align 8
  %cmp.not.i.i = icmp eq ptr %4, null
  br i1 %cmp.not.i.i, label %_ZN7rocksdb6StatusD2Ev.exit, label %_ZNKSt14default_deleteIA_KcEclIS0_EENSt9enable_ifIXsr14is_convertibleIPA_T_PS1_EE5valueEvE4typeEPS5_.exit.i.i

_ZNKSt14default_deleteIA_KcEclIS0_EENSt9enable_ifIXsr14is_convertibleIPA_T_PS1_EE5valueEvE4typeEPS5_.exit.i.i: ; preds = %lpad1.body
  call void @_ZdaPv(ptr noundef nonnull %4) #30
  br label %_ZN7rocksdb6StatusD2Ev.exit

_ZN7rocksdb6StatusD2Ev.exit:                      ; preds = %lpad1.body, %_ZNKSt14default_deleteIA_KcEclIS0_EENSt9enable_ifIXsr14is_convertibleIPA_T_PS1_EE5valueEvE4typeEPS5_.exit.i.i
  store ptr null, ptr %state_.i, align 8
  br label %ehcleanup

if.end:                                           ; preds = %invoke.cont2
  %call4 = invoke noundef ptr @_ZN7rocksdb3Env7DefaultEv()
          to label %invoke.cont3 unwind label %lpad1

invoke.cont3:                                     ; preds = %if.end
  %call5 = call noundef zeroext i1 @_ZNKSt7__cxx1112basic_stringIcSt11char_traitsIcESaIcEE5emptyEv(ptr noundef nonnull align 8 dereferenceable(32) %id) #32
  br i1 %call5, label %invoke.cont9, label %lor.lhs.false

lor.lhs.false:                                    ; preds = %invoke.cont3
  %vtable = load ptr, ptr %call4, align 8
  %vfn = getelementptr inbounds i8, ptr %vtable, i64 128
  %5 = load ptr, ptr %vfn, align 8
  %call7 = invoke noundef zeroext i1 %5(ptr noundef nonnull align 8 dereferenceable(32) %call4, ptr noundef nonnull align 8 dereferenceable(32) %id)
          to label %invoke.cont6 unwind label %lpad1

invoke.cont6:                                     ; preds = %lor.lhs.false
  br i1 %call7, label %invoke.cont9, label %if.else

invoke.cont9:                                     ; preds = %invoke.cont3, %invoke.cont6
  store ptr %call4, ptr %env, align 8
  %state_16.i = getelementptr inbounds i8, ptr %agg.result, i64 8
  call void @llvm.memset.p0.i64(ptr noundef nonnull align 8 dereferenceable(6) %agg.result, i8 0, i64 6, i1 false)
  %6 = load ptr, ptr %state_16.i, align 8
  store ptr null, ptr %state_16.i, align 8
  %tobool.not.i.i.i.i.i = icmp eq ptr %6, null
  br i1 %tobool.not.i.i.i.i.i, label %if.end16, label %_ZN7rocksdb6StatusaSEOS0_.exit

_ZN7rocksdb6StatusaSEOS0_.exit:                   ; preds = %invoke.cont9
  call void @_ZdaPv(ptr noundef nonnull %6) #30
  br label %if.end16

if.else:                                          ; preds = %invoke.cont6
  call void @llvm.lifetime.start.p0(i64 1, ptr nonnull %ref.tmp.i)
  call void @llvm.lifetime.start.p0(i64 8, ptr nonnull %__callable.i.i)
  store ptr %ref.tmp.i, ptr %__callable.i.i, align 8
  %7 = call align 8 ptr @llvm.threadlocal.address.p0(ptr align 8 @_ZSt15__once_callable)
  store ptr %__callable.i.i, ptr %7, align 8
  %8 = call align 8 ptr @llvm.threadlocal.address.p0(ptr align 8 @_ZSt11__once_call)
  store ptr @"_ZZNSt9once_flag18_Prepare_executionC1IZSt9call_onceIZN7rocksdb12_GLOBAL__N_118RegisterSystemEnvsEvE3$_0JEEvRS_OT_DpOT0_EUlvE_EERS7_ENUlvE_8__invokeEv", ptr %8, align 8
  %call1.i2.i.i = invoke noundef i32 @pthread_once(ptr noundef nonnull @_ZZN7rocksdb12_GLOBAL__N_118RegisterSystemEnvsEvE6loaded, ptr noundef nonnull @__once_proxy)
          to label %invoke.cont.i.i unwind label %lpad.i.i

invoke.cont.i.i:                                  ; preds = %if.else
  %tobool.not.i.i = icmp eq i32 %call1.i2.i.i, 0
  br i1 %tobool.not.i.i, label %invoke.cont11, label %if.then.i.i

if.then.i.i:                                      ; preds = %invoke.cont.i.i
  invoke void @_ZSt20__throw_system_errori(i32 noundef %call1.i2.i.i) #34
          to label %invoke.cont1.i.i unwind label %lpad.i.i

invoke.cont1.i.i:                                 ; preds = %if.then.i.i
  unreachable

lpad.i.i:                                         ; preds = %if.then.i.i, %if.else
  %9 = landingpad { ptr, i32 }
          cleanup
  store ptr null, ptr %7, align 8
  store ptr null, ptr %8, align 8
  br label %lpad1.body

invoke.cont11:                                    ; preds = %invoke.cont.i.i
  store ptr null, ptr %7, align 8
  store ptr null, ptr %8, align 8
  call void @llvm.lifetime.end.p0(i64 8, ptr nonnull %__callable.i.i)
  call void @llvm.lifetime.end.p0(i64 1, ptr nonnull %ref.tmp.i)
  %registry = getelementptr inbounds i8, ptr %config_options, i64 64
  %10 = load ptr, ptr %registry, align 8
  invoke void @_ZN7rocksdb14ObjectRegistry9NewObjectINS_3EnvEEENS_6StatusERKNSt7__cxx1112basic_stringIcSt11char_traitsIcESaIcEEEPPT_PSt10unique_ptrISC_St14default_deleteISC_EE(ptr nonnull sret(%"class.rocksdb::Status") align 8 %ref.tmp12, ptr noundef nonnull align 8 dereferenceable(192) %10, ptr noundef nonnull align 8 dereferenceable(32) %id, ptr noundef nonnull %env, ptr noundef nonnull %uniq)
          to label %invoke.cont14 unwind label %lpad1

invoke.cont14:                                    ; preds = %invoke.cont11
  %cmp.not.i12 = icmp eq ptr %ref.tmp12, %agg.result
  br i1 %cmp.not.i12, label %_ZN7rocksdb6StatusaSEOS0_.exit28, label %if.then.i13

if.then.i13:                                      ; preds = %invoke.cont14
  %11 = load i8, ptr %ref.tmp12, align 8
  store i8 %11, ptr %agg.result, align 8
  %subcode_.i14 = getelementptr inbounds i8, ptr %ref.tmp12, i64 1
  %12 = load i8, ptr %subcode_.i14, align 1
  %subcode_4.i15 = getelementptr inbounds i8, ptr %agg.result, i64 1
  store i8 %12, ptr %subcode_4.i15, align 1
  %sev_.i16 = getelementptr inbounds i8, ptr %ref.tmp12, i64 2
  %13 = load i8, ptr %sev_.i16, align 2
  %sev_6.i17 = getelementptr inbounds i8, ptr %agg.result, i64 2
  store i8 %13, ptr %sev_6.i17, align 2
  %retryable_.i18 = getelementptr inbounds i8, ptr %ref.tmp12, i64 3
  %14 = load i8, ptr %retryable_.i18, align 1
  %15 = and i8 %14, 1
  %retryable_8.i19 = getelementptr inbounds i8, ptr %agg.result, i64 3
  store i8 %15, ptr %retryable_8.i19, align 1
  store <4 x i8> zeroinitializer, ptr %ref.tmp12, align 8
  %data_loss_.i20 = getelementptr inbounds i8, ptr %ref.tmp12, i64 4
  %16 = load i8, ptr %data_loss_.i20, align 4
  %17 = and i8 %16, 1
  %data_loss_11.i21 = getelementptr inbounds i8, ptr %agg.result, i64 4
  store i8 %17, ptr %data_loss_11.i21, align 4
  store i8 0, ptr %data_loss_.i20, align 4
  %scope_.i22 = getelementptr inbounds i8, ptr %ref.tmp12, i64 5
  %18 = load i8, ptr %scope_.i22, align 1
  %scope_14.i23 = getelementptr inbounds i8, ptr %agg.result, i64 5
  store i8 %18, ptr %scope_14.i23, align 1
  store i8 0, ptr %scope_.i22, align 1
  %state_.i24 = getelementptr inbounds i8, ptr %ref.tmp12, i64 8
  %state_16.i25 = getelementptr inbounds i8, ptr %agg.result, i64 8
  %19 = load ptr, ptr %state_.i24, align 8
  store ptr null, ptr %state_.i24, align 8
  %20 = load ptr, ptr %state_16.i25, align 8
  store ptr %19, ptr %state_16.i25, align 8
  %tobool.not.i.i.i.i.i26 = icmp eq ptr %20, null
  br i1 %tobool.not.i.i.i.i.i26, label %_ZN7rocksdb6StatusaSEOS0_.exit28, label %_ZNKSt14default_deleteIA_KcEclIS0_EENSt9enable_ifIXsr14is_convertibleIPA_T_PS1_EE5valueEvE4typeEPS5_.exit.i.i.i.i.i27

_ZNKSt14default_deleteIA_KcEclIS0_EENSt9enable_ifIXsr14is_convertibleIPA_T_PS1_EE5valueEvE4typeEPS5_.exit.i.i.i.i.i27: ; preds = %if.then.i13
  call void @_ZdaPv(ptr noundef nonnull %20) #30
  br label %_ZN7rocksdb6StatusaSEOS0_.exit28

_ZN7rocksdb6StatusaSEOS0_.exit28:                 ; preds = %invoke.cont14, %if.then.i13, %_ZNKSt14default_deleteIA_KcEclIS0_EENSt9enable_ifIXsr14is_convertibleIPA_T_PS1_EE5valueEvE4typeEPS5_.exit.i.i.i.i.i27
  %state_.i29 = getelementptr inbounds i8, ptr %ref.tmp12, i64 8
  %21 = load ptr, ptr %state_.i29, align 8
  %cmp.not.i.i30 = icmp eq ptr %21, null
  br i1 %cmp.not.i.i30, label %_ZN7rocksdb6StatusD2Ev.exit32, label %_ZNKSt14default_deleteIA_KcEclIS0_EENSt9enable_ifIXsr14is_convertibleIPA_T_PS1_EE5valueEvE4typeEPS5_.exit.i.i31

_ZNKSt14default_deleteIA_KcEclIS0_EENSt9enable_ifIXsr14is_convertibleIPA_T_PS1_EE5valueEvE4typeEPS5_.exit.i.i31: ; preds = %_ZN7rocksdb6StatusaSEOS0_.exit28
  call void @_ZdaPv(ptr noundef nonnull %21) #30
  br label %_ZN7rocksdb6StatusD2Ev.exit32

_ZN7rocksdb6StatusD2Ev.exit32:                    ; preds = %_ZN7rocksdb6StatusaSEOS0_.exit28, %_ZNKSt14default_deleteIA_KcEclIS0_EENSt9enable_ifIXsr14is_convertibleIPA_T_PS1_EE5valueEvE4typeEPS5_.exit.i.i31
  store ptr null, ptr %state_.i29, align 8
  br label %if.end16

if.end16:                                         ; preds = %invoke.cont9, %_ZN7rocksdb6StatusaSEOS0_.exit, %_ZN7rocksdb6StatusD2Ev.exit32
  %ignore_unsupported_options = getelementptr inbounds i8, ptr %config_options, i64 1
  %22 = load i8, ptr %ignore_unsupported_options, align 1
  %23 = and i8 %22, 1
  %tobool.not = icmp ne i8 %23, 0
  %.pr88 = load i8, ptr %agg.result, align 8
  %cmp.i33 = icmp eq i8 %.pr88, 3
  %or.cond = select i1 %tobool.not, i1 %cmp.i33, i1 false
  br i1 %or.cond, label %invoke.cont21, label %invoke.cont24

invoke.cont21:                                    ; preds = %if.end16
  %state_16.i48 = getelementptr inbounds i8, ptr %agg.result, i64 8
  call void @llvm.memset.p0.i64(ptr noundef nonnull align 8 dereferenceable(6) %agg.result, i8 0, i64 6, i1 false)
  %24 = load ptr, ptr %state_16.i48, align 8
  store ptr null, ptr %state_16.i48, align 8
  %tobool.not.i.i.i.i.i49 = icmp eq ptr %24, null
  br i1 %tobool.not.i.i.i.i.i49, label %invoke.cont32, label %_ZN7rocksdb6StatusaSEOS0_.exit51

_ZN7rocksdb6StatusaSEOS0_.exit51:                 ; preds = %invoke.cont21
  call void @_ZdaPv(ptr noundef nonnull %24) #30
  br label %invoke.cont32

invoke.cont24:                                    ; preds = %if.end16
  %cmp.i56 = icmp eq i8 %.pr88, 0
  br i1 %cmp.i56, label %if.then26, label %invoke.cont32

if.then26:                                        ; preds = %invoke.cont24
  %25 = load ptr, ptr %env, align 8
  invoke void @_ZN7rocksdb12Customizable18ConfigureNewObjectERKNS_13ConfigOptionsEPS0_RKSt13unordered_mapINSt7__cxx1112basic_stringIcSt11char_traitsIcESaIcEEESB_St4hashISB_ESt8equal_toISB_ESaISt4pairIKSB_SB_EEE(ptr nonnull sret(%"class.rocksdb::Status") align 8 %ref.tmp27, ptr noundef nonnull align 8 dereferenceable(80) %config_options, ptr noundef %25, ptr noundef nonnull align 8 dereferenceable(56) %opt_map)
          to label %invoke.cont28 unwind label %lpad1

invoke.cont28:                                    ; preds = %if.then26
  %cmp.not.i57 = icmp eq ptr %ref.tmp27, %agg.result
  br i1 %cmp.not.i57, label %_ZN7rocksdb6StatusaSEOS0_.exit73, label %if.then.i58

if.then.i58:                                      ; preds = %invoke.cont28
  %26 = load i8, ptr %ref.tmp27, align 8
  store i8 %26, ptr %agg.result, align 8
  %subcode_.i59 = getelementptr inbounds i8, ptr %ref.tmp27, i64 1
  %27 = load i8, ptr %subcode_.i59, align 1
  %subcode_4.i60 = getelementptr inbounds i8, ptr %agg.result, i64 1
  store i8 %27, ptr %subcode_4.i60, align 1
  %sev_.i61 = getelementptr inbounds i8, ptr %ref.tmp27, i64 2
  %28 = load i8, ptr %sev_.i61, align 2
  %sev_6.i62 = getelementptr inbounds i8, ptr %agg.result, i64 2
  store i8 %28, ptr %sev_6.i62, align 2
  %retryable_.i63 = getelementptr inbounds i8, ptr %ref.tmp27, i64 3
  %29 = load i8, ptr %retryable_.i63, align 1
  %30 = and i8 %29, 1
  %retryable_8.i64 = getelementptr inbounds i8, ptr %agg.result, i64 3
  store i8 %30, ptr %retryable_8.i64, align 1
  store <4 x i8> zeroinitializer, ptr %ref.tmp27, align 8
  %data_loss_.i65 = getelementptr inbounds i8, ptr %ref.tmp27, i64 4
  %31 = load i8, ptr %data_loss_.i65, align 4
  %32 = and i8 %31, 1
  %data_loss_11.i66 = getelementptr inbounds i8, ptr %agg.result, i64 4
  store i8 %32, ptr %data_loss_11.i66, align 4
  store i8 0, ptr %data_loss_.i65, align 4
  %scope_.i67 = getelementptr inbounds i8, ptr %ref.tmp27, i64 5
  %33 = load i8, ptr %scope_.i67, align 1
  %scope_14.i68 = getelementptr inbounds i8, ptr %agg.result, i64 5
  store i8 %33, ptr %scope_14.i68, align 1
  store i8 0, ptr %scope_.i67, align 1
  %state_.i69 = getelementptr inbounds i8, ptr %ref.tmp27, i64 8
  %state_16.i70 = getelementptr inbounds i8, ptr %agg.result, i64 8
  %34 = load ptr, ptr %state_.i69, align 8
  store ptr null, ptr %state_.i69, align 8
  %35 = load ptr, ptr %state_16.i70, align 8
  store ptr %34, ptr %state_16.i70, align 8
  %tobool.not.i.i.i.i.i71 = icmp eq ptr %35, null
  br i1 %tobool.not.i.i.i.i.i71, label %_ZN7rocksdb6StatusaSEOS0_.exit73, label %_ZNKSt14default_deleteIA_KcEclIS0_EENSt9enable_ifIXsr14is_convertibleIPA_T_PS1_EE5valueEvE4typeEPS5_.exit.i.i.i.i.i72

_ZNKSt14default_deleteIA_KcEclIS0_EENSt9enable_ifIXsr14is_convertibleIPA_T_PS1_EE5valueEvE4typeEPS5_.exit.i.i.i.i.i72: ; preds = %if.then.i58
  call void @_ZdaPv(ptr noundef nonnull %35) #30
  br label %_ZN7rocksdb6StatusaSEOS0_.exit73

_ZN7rocksdb6StatusaSEOS0_.exit73:                 ; preds = %invoke.cont28, %if.then.i58, %_ZNKSt14default_deleteIA_KcEclIS0_EENSt9enable_ifIXsr14is_convertibleIPA_T_PS1_EE5valueEvE4typeEPS5_.exit.i.i.i.i.i72
  %state_.i74 = getelementptr inbounds i8, ptr %ref.tmp27, i64 8
  %36 = load ptr, ptr %state_.i74, align 8
  %cmp.not.i.i75 = icmp eq ptr %36, null
  br i1 %cmp.not.i.i75, label %_ZN7rocksdb6StatusD2Ev.exit77, label %_ZNKSt14default_deleteIA_KcEclIS0_EENSt9enable_ifIXsr14is_convertibleIPA_T_PS1_EE5valueEvE4typeEPS5_.exit.i.i76

_ZNKSt14default_deleteIA_KcEclIS0_EENSt9enable_ifIXsr14is_convertibleIPA_T_PS1_EE5valueEvE4typeEPS5_.exit.i.i76: ; preds = %_ZN7rocksdb6StatusaSEOS0_.exit73
  call void @_ZdaPv(ptr noundef nonnull %36) #30
  br label %_ZN7rocksdb6StatusD2Ev.exit77

_ZN7rocksdb6StatusD2Ev.exit77:                    ; preds = %_ZN7rocksdb6StatusaSEOS0_.exit73, %_ZNKSt14default_deleteIA_KcEclIS0_EENSt9enable_ifIXsr14is_convertibleIPA_T_PS1_EE5valueEvE4typeEPS5_.exit.i.i76
  store ptr null, ptr %state_.i74, align 8
  br label %invoke.cont32

invoke.cont32:                                    ; preds = %invoke.cont21, %_ZN7rocksdb6StatusaSEOS0_.exit51, %_ZN7rocksdb6StatusD2Ev.exit77, %invoke.cont24
  %37 = load i8, ptr %agg.result, align 8
  %cmp.i78 = icmp eq i8 %37, 0
  br i1 %cmp.i78, label %if.then34, label %nrvo.skipdtor

if.then34:                                        ; preds = %invoke.cont32
  %38 = load ptr, ptr %uniq, align 8
  store ptr null, ptr %uniq, align 8
  invoke void @_ZNSt12__shared_ptrIN7rocksdb3EnvELN9__gnu_cxx12_Lock_policyE2EE5resetIS1_EENSt9enable_ifIXsr21__sp_is_constructibleIS1_T_EE5valueEvE4typeEPS7_(ptr noundef nonnull align 8 dereferenceable(16) %guard, ptr noundef %38)
          to label %invoke.cont36 unwind label %lpad1

invoke.cont36:                                    ; preds = %if.then34
  %39 = load ptr, ptr %env, align 8
  store ptr %39, ptr %result, align 8
  br label %nrvo.skipdtor

nrvo.skipdtor:                                    ; preds = %invoke.cont2, %invoke.cont36, %invoke.cont32
  %40 = load ptr, ptr %_M_before_begin.i.i, align 8
  %tobool.not3.i.i.i.i = icmp eq ptr %40, null
  br i1 %tobool.not3.i.i.i.i, label %_ZNSt10_HashtableINSt7__cxx1112basic_stringIcSt11char_traitsIcESaIcEEESt4pairIKS5_S5_ESaIS8_ENSt8__detail10_Select1stESt8equal_toIS5_ESt4hashIS5_ENSA_18_Mod_range_hashingENSA_20_Default_ranged_hashENSA_20_Prime_rehash_policyENSA_17_Hashtable_traitsILb1ELb0ELb1EEEE5clearEv.exit.i.i, label %while.body.i.i.i.i

while.body.i.i.i.i:                               ; preds = %nrvo.skipdtor, %while.body.i.i.i.i
  %__n.addr.04.i.i.i.i = phi ptr [ %41, %while.body.i.i.i.i ], [ %40, %nrvo.skipdtor ]
  %41 = load ptr, ptr %__n.addr.04.i.i.i.i, align 8
  %add.ptr.i.i.i.i.i = getelementptr inbounds i8, ptr %__n.addr.04.i.i.i.i, i64 8
  %second.i.i.i.i.i.i.i.i = getelementptr inbounds i8, ptr %__n.addr.04.i.i.i.i, i64 40
  call void @_ZNSt7__cxx1112basic_stringIcSt11char_traitsIcESaIcEED1Ev(ptr noundef nonnull align 8 dereferenceable(32) %second.i.i.i.i.i.i.i.i) #32
  call void @_ZNSt7__cxx1112basic_stringIcSt11char_traitsIcESaIcEED1Ev(ptr noundef nonnull align 8 dereferenceable(32) %add.ptr.i.i.i.i.i) #32
  call void @_ZdlPv(ptr noundef nonnull %__n.addr.04.i.i.i.i) #30
  %tobool.not.i.i.i.i = icmp eq ptr %41, null
  br i1 %tobool.not.i.i.i.i, label %_ZNSt10_HashtableINSt7__cxx1112basic_stringIcSt11char_traitsIcESaIcEEESt4pairIKS5_S5_ESaIS8_ENSt8__detail10_Select1stESt8equal_toIS5_ESt4hashIS5_ENSA_18_Mod_range_hashingENSA_20_Default_ranged_hashENSA_20_Prime_rehash_policyENSA_17_Hashtable_traitsILb1ELb0ELb1EEEE5clearEv.exit.i.i, label %while.body.i.i.i.i, !llvm.loop !21

_ZNSt10_HashtableINSt7__cxx1112basic_stringIcSt11char_traitsIcESaIcEEESt4pairIKS5_S5_ESaIS8_ENSt8__detail10_Select1stESt8equal_toIS5_ESt4hashIS5_ENSA_18_Mod_range_hashingENSA_20_Default_ranged_hashENSA_20_Prime_rehash_policyENSA_17_Hashtable_traitsILb1ELb0ELb1EEEE5clearEv.exit.i.i: ; preds = %while.body.i.i.i.i, %nrvo.skipdtor
  %42 = load ptr, ptr %opt_map, align 8
  %43 = load i64, ptr %_M_bucket_count.i.i, align 8
  %mul.i.i.i = shl i64 %43, 3
  call void @llvm.memset.p0.i64(ptr align 8 %42, i8 0, i64 %mul.i.i.i, i1 false)
  call void @llvm.memset.p0.i64(ptr noundef nonnull align 8 dereferenceable(16) %_M_before_begin.i.i, i8 0, i64 16, i1 false)
  %44 = load ptr, ptr %opt_map, align 8
  %cmp.i.i.i.i.i = icmp eq ptr %_M_single_bucket.i.i, %44
  br i1 %cmp.i.i.i.i.i, label %_ZNSt13unordered_mapINSt7__cxx1112basic_stringIcSt11char_traitsIcESaIcEEES5_St4hashIS5_ESt8equal_toIS5_ESaISt4pairIKS5_S5_EEED2Ev.exit, label %if.end.i.i.i.i

if.end.i.i.i.i:                                   ; preds = %_ZNSt10_HashtableINSt7__cxx1112basic_stringIcSt11char_traitsIcESaIcEEESt4pairIKS5_S5_ESaIS8_ENSt8__detail10_Select1stESt8equal_toIS5_ESt4hashIS5_ENSA_18_Mod_range_hashingENSA_20_Default_ranged_hashENSA_20_Prime_rehash_policyENSA_17_Hashtable_traitsILb1ELb0ELb1EEEE5clearEv.exit.i.i
  call void @_ZdlPv(ptr noundef %44) #30
  br label %_ZNSt13unordered_mapINSt7__cxx1112basic_stringIcSt11char_traitsIcESaIcEEES5_St4hashIS5_ESt8equal_toIS5_ESaISt4pairIKS5_S5_EEED2Ev.exit

_ZNSt13unordered_mapINSt7__cxx1112basic_stringIcSt11char_traitsIcESaIcEEES5_St4hashIS5_ESt8equal_toIS5_ESaISt4pairIKS5_S5_EEED2Ev.exit: ; preds = %_ZNSt10_HashtableINSt7__cxx1112basic_stringIcSt11char_traitsIcESaIcEEESt4pairIKS5_S5_ESaIS8_ENSt8__detail10_Select1stESt8equal_toIS5_ESt4hashIS5_ENSA_18_Mod_range_hashingENSA_20_Default_ranged_hashENSA_20_Prime_rehash_policyENSA_17_Hashtable_traitsILb1ELb0ELb1EEEE5clearEv.exit.i.i, %if.end.i.i.i.i
  call void @_ZNSt7__cxx1112basic_stringIcSt11char_traitsIcESaIcEED1Ev(ptr noundef nonnull align 8 dereferenceable(32) %id) #32
  %45 = load ptr, ptr %uniq, align 8
  %cmp.not.i79 = icmp eq ptr %45, null
  br i1 %cmp.not.i79, label %_ZNSt10unique_ptrIN7rocksdb3EnvESt14default_deleteIS1_EED2Ev.exit, label %_ZNKSt14default_deleteIN7rocksdb3EnvEEclEPS1_.exit.i

_ZNKSt14default_deleteIN7rocksdb3EnvEEclEPS1_.exit.i: ; preds = %_ZNSt13unordered_mapINSt7__cxx1112basic_stringIcSt11char_traitsIcESaIcEEES5_St4hashIS5_ESt8equal_toIS5_ESaISt4pairIKS5_S5_EEED2Ev.exit
  %vtable.i.i = load ptr, ptr %45, align 8
  %vfn.i.i = getelementptr inbounds i8, ptr %vtable.i.i, i64 8
  %46 = load ptr, ptr %vfn.i.i, align 8
  call void %46(ptr noundef nonnull align 8 dereferenceable(72) %45) #32
  br label %_ZNSt10unique_ptrIN7rocksdb3EnvESt14default_deleteIS1_EED2Ev.exit

_ZNSt10unique_ptrIN7rocksdb3EnvESt14default_deleteIS1_EED2Ev.exit: ; preds = %_ZNSt13unordered_mapINSt7__cxx1112basic_stringIcSt11char_traitsIcESaIcEEES5_St4hashIS5_ESt8equal_toIS5_ESaISt4pairIKS5_S5_EEED2Ev.exit, %_ZNKSt14default_deleteIN7rocksdb3EnvEEclEPS1_.exit.i
  ret void

ehcleanup:                                        ; preds = %_ZN7rocksdb6StatusD2Ev.exit, %lpad
  %.pn = phi { ptr, i32 } [ %eh.lpad-body, %_ZN7rocksdb6StatusD2Ev.exit ], [ %2, %lpad ]
  call void @_ZNSt13unordered_mapINSt7__cxx1112basic_stringIcSt11char_traitsIcESaIcEEES5_St4hashIS5_ESt8equal_toIS5_ESaISt4pairIKS5_S5_EEED2Ev(ptr noundef nonnull align 8 dereferenceable(56) %opt_map) #32
  call void @_ZNSt7__cxx1112basic_stringIcSt11char_traitsIcESaIcEED1Ev(ptr noundef nonnull align 8 dereferenceable(32) %id) #32
  %47 = load ptr, ptr %uniq, align 8
  %cmp.not.i80 = icmp eq ptr %47, null
  br i1 %cmp.not.i80, label %_ZNSt10unique_ptrIN7rocksdb3EnvESt14default_deleteIS1_EED2Ev.exit84, label %_ZNKSt14default_deleteIN7rocksdb3EnvEEclEPS1_.exit.i81

_ZNKSt14default_deleteIN7rocksdb3EnvEEclEPS1_.exit.i81: ; preds = %ehcleanup
  %vtable.i.i82 = load ptr, ptr %47, align 8
  %vfn.i.i83 = getelementptr inbounds i8, ptr %vtable.i.i82, i64 8
  %48 = load ptr, ptr %vfn.i.i83, align 8
  call void %48(ptr noundef nonnull align 8 dereferenceable(72) %47) #32
  br label %_ZNSt10unique_ptrIN7rocksdb3EnvESt14default_deleteIS1_EED2Ev.exit84

_ZNSt10unique_ptrIN7rocksdb3EnvESt14default_deleteIS1_EED2Ev.exit84: ; preds = %ehcleanup, %_ZNKSt14default_deleteIN7rocksdb3EnvEEclEPS1_.exit.i81
  resume { ptr, i32 } %.pn
}

; Function Attrs: nounwind
declare void @_ZNSt7__cxx1112basic_stringIcSt11char_traitsIcESaIcEEC1Ev(ptr noundef nonnull align 8 dereferenceable(32)) unnamed_addr #7

declare void @_ZN7rocksdb12Customizable13GetOptionsMapERKNS_13ConfigOptionsEPKS0_RKNSt7__cxx1112basic_stringIcSt11char_traitsIcESaIcEEEPSB_PSt13unordered_mapISB_SB_St4hashISB_ESt8equal_toISB_ESaISt4pairISC_SB_EEE(ptr sret(%"class.rocksdb::Status") align 8, ptr noundef nonnull align 8 dereferenceable(80), ptr noundef, ptr noundef nonnull align 8 dereferenceable(32), ptr noundef, ptr noundef) local_unnamed_addr #6

; Function Attrs: mustprogress uwtable
define linkonce_odr void @_ZN7rocksdb14ObjectRegistry9NewObjectINS_3EnvEEENS_6StatusERKNSt7__cxx1112basic_stringIcSt11char_traitsIcESaIcEEEPPT_PSt10unique_ptrISC_St14default_deleteISC_EE(ptr noalias sret(%"class.rocksdb::Status") align 8 %agg.result, ptr noundef nonnull align 8 dereferenceable(192) %this, ptr noundef nonnull align 8 dereferenceable(32) %target, ptr noundef %object, ptr noundef %guard) local_unnamed_addr #2 comdat align 2 personality ptr @__gxx_personality_v0 {
entry:
  %__args.addr2.i = alloca ptr, align 8
  %__args.addr4.i = alloca ptr, align 8
  %factory = alloca %"class.std::function.150", align 8
  %errmsg = alloca %"class.std::__cxx11::basic_string", align 8
  %ref.tmp = alloca %"class.rocksdb::Slice", align 8
  %ref.tmp7 = alloca %"class.std::__cxx11::basic_string", align 8
  %ref.tmp8 = alloca %"class.std::__cxx11::basic_string", align 8
  %ref.tmp9 = alloca %"class.std::allocator.16", align 1
  %ref.tmp17 = alloca %"class.rocksdb::Slice", align 8
  %ref.tmp22 = alloca %"class.rocksdb::Slice", align 8
  %ref.tmp24 = alloca %"class.rocksdb::Slice", align 8
  %ref.tmp29 = alloca %"class.rocksdb::Slice", align 8
  %ref.tmp30 = alloca %"class.std::__cxx11::basic_string", align 8
  %ref.tmp31 = alloca %"class.std::__cxx11::basic_string", align 8
  %ref.tmp32 = alloca %"class.std::allocator.16", align 1
  %ref.tmp40 = alloca %"class.rocksdb::Slice", align 8
  %0 = load ptr, ptr %guard, align 8
  store ptr null, ptr %guard, align 8
  %tobool.not.i.i = icmp eq ptr %0, null
  br i1 %tobool.not.i.i, label %_ZNSt10unique_ptrIN7rocksdb3EnvESt14default_deleteIS1_EE5resetEPS1_.exit, label %_ZNKSt14default_deleteIN7rocksdb3EnvEEclEPS1_.exit.i.i

_ZNKSt14default_deleteIN7rocksdb3EnvEEclEPS1_.exit.i.i: ; preds = %entry
  %vtable.i.i.i = load ptr, ptr %0, align 8
  %vfn.i.i.i = getelementptr inbounds i8, ptr %vtable.i.i.i, i64 8
  %1 = load ptr, ptr %vfn.i.i.i, align 8
  tail call void %1(ptr noundef nonnull align 8 dereferenceable(72) %0) #32
  br label %_ZNSt10unique_ptrIN7rocksdb3EnvESt14default_deleteIS1_EE5resetEPS1_.exit

_ZNSt10unique_ptrIN7rocksdb3EnvESt14default_deleteIS1_EE5resetEPS1_.exit: ; preds = %entry, %_ZNKSt14default_deleteIN7rocksdb3EnvEEclEPS1_.exit.i.i
  call void @_ZNK7rocksdb14ObjectRegistry11FindFactoryINS_3EnvEEEKSt8functionIFPT_RKNSt7__cxx1112basic_stringIcSt11char_traitsIcESaIcEEEPSt10unique_ptrIS4_St14default_deleteIS4_EEPSB_EESD_(ptr nonnull sret(%"class.std::function.150") align 8 %factory, ptr noundef nonnull align 8 dereferenceable(192) %this, ptr noundef nonnull align 8 dereferenceable(32) %target)
  %_M_manager.i.i.i = getelementptr inbounds i8, ptr %factory, i64 16
  %2 = load ptr, ptr %_M_manager.i.i.i, align 8
  %tobool.not.i.i.i.not = icmp eq ptr %2, null
  br i1 %tobool.not.i.i.i.not, label %if.else28, label %if.then

if.then:                                          ; preds = %_ZNSt10unique_ptrIN7rocksdb3EnvESt14default_deleteIS1_EE5resetEPS1_.exit
  call void @_ZNSt7__cxx1112basic_stringIcSt11char_traitsIcESaIcEEC1Ev(ptr noundef nonnull align 8 dereferenceable(32) %errmsg) #32
  call void @llvm.lifetime.start.p0(i64 8, ptr nonnull %__args.addr2.i)
  call void @llvm.lifetime.start.p0(i64 8, ptr nonnull %__args.addr4.i)
  store ptr %guard, ptr %__args.addr2.i, align 8
  store ptr %errmsg, ptr %__args.addr4.i, align 8
  %3 = load ptr, ptr %_M_manager.i.i.i, align 8
  %tobool.not.i.i15 = icmp eq ptr %3, null
  br i1 %tobool.not.i.i15, label %if.then.i, label %if.end.i

if.then.i:                                        ; preds = %if.then
  invoke void @_ZSt25__throw_bad_function_callv() #34
          to label %.noexc unwind label %lpad

.noexc:                                           ; preds = %if.then.i
  unreachable

if.end.i:                                         ; preds = %if.then
  %_M_invoker.i = getelementptr inbounds i8, ptr %factory, i64 24
  %4 = load ptr, ptr %_M_invoker.i, align 8
  %call6.i16 = invoke noundef ptr %4(ptr noundef nonnull align 8 dereferenceable(16) %factory, ptr noundef nonnull align 8 dereferenceable(32) %target, ptr noundef nonnull align 8 dereferenceable(8) %__args.addr2.i, ptr noundef nonnull align 8 dereferenceable(8) %__args.addr4.i)
          to label %invoke.cont unwind label %lpad

invoke.cont:                                      ; preds = %if.end.i
  call void @llvm.lifetime.end.p0(i64 8, ptr nonnull %__args.addr2.i)
  call void @llvm.lifetime.end.p0(i64 8, ptr nonnull %__args.addr4.i)
  store ptr %call6.i16, ptr %object, align 8
  %cmp.not = icmp eq ptr %call6.i16, null
  br i1 %cmp.not, label %if.else, label %if.then3

if.then3:                                         ; preds = %invoke.cont
  %state_.i.i = getelementptr inbounds i8, ptr %agg.result, i64 8
  store ptr null, ptr %state_.i.i, align 8, !alias.scope !35
  call void @llvm.memset.p0.i64(ptr noundef nonnull align 8 dereferenceable(6) %agg.result, i8 0, i64 6, i1 false), !alias.scope !35
  br label %cleanup

lpad:                                             ; preds = %if.else21, %if.end.i, %if.then.i
  %5 = landingpad { ptr, i32 }
          cleanup
  br label %ehcleanup27

if.else:                                          ; preds = %invoke.cont
  %call5 = call noundef zeroext i1 @_ZNKSt7__cxx1112basic_stringIcSt11char_traitsIcESaIcEE5emptyEv(ptr noundef nonnull align 8 dereferenceable(32) %errmsg) #32
  br i1 %call5, label %if.then6, label %if.else21

if.then6:                                         ; preds = %if.else
  call void @_ZNSaIcEC1Ev(ptr noundef nonnull align 1 dereferenceable(1) %ref.tmp9) #32
  %call.i18 = invoke noundef ptr @_ZNSt7__cxx1112basic_stringIcSt11char_traitsIcESaIcEE13_M_local_dataEv(ptr noundef nonnull align 8 dereferenceable(32) %ref.tmp8)
          to label %call.i.noexc unwind label %lpad10

call.i.noexc:                                     ; preds = %if.then6
  invoke void @_ZNSt7__cxx1112basic_stringIcSt11char_traitsIcESaIcEE12_Alloc_hiderC1EPcRKS3_(ptr noundef nonnull align 8 dereferenceable(8) %ref.tmp8, ptr noundef %call.i18, ptr noundef nonnull align 1 dereferenceable(1) %ref.tmp9)
          to label %.noexc19 unwind label %lpad10

.noexc19:                                         ; preds = %call.i.noexc
  invoke void @_ZNSt7__cxx1112basic_stringIcSt11char_traitsIcESaIcEE12_M_constructIPKcEEvT_S8_St20forward_iterator_tag(ptr noundef nonnull align 8 dereferenceable(32) %ref.tmp8, ptr noundef nonnull @.str.55, ptr noundef nonnull getelementptr inbounds ([16 x i8], ptr @.str.55, i64 0, i64 15))
          to label %invoke.cont11 unwind label %lpad.i

lpad.i:                                           ; preds = %.noexc19
  %6 = landingpad { ptr, i32 }
          cleanup
  call void @_ZNSaIcED2Ev(ptr noundef nonnull align 1 dereferenceable(1) %ref.tmp8) #32
  br label %ehcleanup20

invoke.cont11:                                    ; preds = %.noexc19
  %call.i21 = invoke noundef nonnull align 8 dereferenceable(32) ptr @_ZNSt7__cxx1112basic_stringIcSt11char_traitsIcESaIcEE6appendEPKc(ptr noundef nonnull align 8 dereferenceable(32) %ref.tmp8, ptr noundef nonnull @.str.19)
          to label %invoke.cont14 unwind label %lpad13

invoke.cont14:                                    ; preds = %invoke.cont11
  call void @_ZNSt7__cxx1112basic_stringIcSt11char_traitsIcESaIcEEC1EOS4_(ptr noundef nonnull align 8 dereferenceable(32) %ref.tmp7, ptr noundef nonnull align 8 dereferenceable(32) %call.i21) #32
  %call.i = call noundef ptr @_ZNKSt7__cxx1112basic_stringIcSt11char_traitsIcESaIcEE4dataEv(ptr noundef nonnull align 8 dereferenceable(32) %ref.tmp7) #32
  store ptr %call.i, ptr %ref.tmp, align 8
  %size_.i = getelementptr inbounds i8, ptr %ref.tmp, i64 8
  %call2.i = call noundef i64 @_ZNKSt7__cxx1112basic_stringIcSt11char_traitsIcESaIcEE4sizeEv(ptr noundef nonnull align 8 dereferenceable(32) %ref.tmp7) #32
  store i64 %call2.i, ptr %size_.i, align 8
  %call.i22 = call noundef ptr @_ZNKSt7__cxx1112basic_stringIcSt11char_traitsIcESaIcEE4dataEv(ptr noundef nonnull align 8 dereferenceable(32) %target) #32
  store ptr %call.i22, ptr %ref.tmp17, align 8
  %size_.i23 = getelementptr inbounds i8, ptr %ref.tmp17, i64 8
  %call2.i24 = call noundef i64 @_ZNKSt7__cxx1112basic_stringIcSt11char_traitsIcESaIcEE4sizeEv(ptr noundef nonnull align 8 dereferenceable(32) %target) #32
  store i64 %call2.i24, ptr %size_.i23, align 8
  invoke void @_ZN7rocksdb6StatusC2ENS0_4CodeENS0_7SubCodeERKNS_5SliceES5_NS0_8SeverityE(ptr noundef nonnull align 8 dereferenceable(16) %agg.result, i8 noundef zeroext 4, i8 noundef zeroext 0, ptr noundef nonnull align 8 dereferenceable(16) %ref.tmp, ptr noundef nonnull align 8 dereferenceable(16) %ref.tmp17, i8 noundef zeroext 0)
          to label %invoke.cont19 unwind label %lpad15

invoke.cont19:                                    ; preds = %invoke.cont14
  call void @_ZNSt7__cxx1112basic_stringIcSt11char_traitsIcESaIcEED1Ev(ptr noundef nonnull align 8 dereferenceable(32) %ref.tmp7) #32
  call void @_ZNSt7__cxx1112basic_stringIcSt11char_traitsIcESaIcEED1Ev(ptr noundef nonnull align 8 dereferenceable(32) %ref.tmp8) #32
  call void @_ZNSaIcED1Ev(ptr noundef nonnull align 1 dereferenceable(1) %ref.tmp9) #32
  br label %cleanup

lpad10:                                           ; preds = %call.i.noexc, %if.then6
  %7 = landingpad { ptr, i32 }
          cleanup
  br label %ehcleanup20

lpad13:                                           ; preds = %invoke.cont11
  %8 = landingpad { ptr, i32 }
          cleanup
  br label %ehcleanup

lpad15:                                           ; preds = %invoke.cont14
  %9 = landingpad { ptr, i32 }
          cleanup
  call void @_ZNSt7__cxx1112basic_stringIcSt11char_traitsIcESaIcEED1Ev(ptr noundef nonnull align 8 dereferenceable(32) %ref.tmp7) #32
  br label %ehcleanup

ehcleanup:                                        ; preds = %lpad15, %lpad13
  %.pn9 = phi { ptr, i32 } [ %9, %lpad15 ], [ %8, %lpad13 ]
  call void @_ZNSt7__cxx1112basic_stringIcSt11char_traitsIcESaIcEED1Ev(ptr noundef nonnull align 8 dereferenceable(32) %ref.tmp8) #32
  br label %ehcleanup20

ehcleanup20:                                      ; preds = %lpad10, %lpad.i, %ehcleanup
  %.pn9.pn = phi { ptr, i32 } [ %.pn9, %ehcleanup ], [ %7, %lpad10 ], [ %6, %lpad.i ]
  call void @_ZNSaIcED1Ev(ptr noundef nonnull align 1 dereferenceable(1) %ref.tmp9) #32
  br label %ehcleanup27

if.else21:                                        ; preds = %if.else
  %call.i26 = call noundef ptr @_ZNKSt7__cxx1112basic_stringIcSt11char_traitsIcESaIcEE4dataEv(ptr noundef nonnull align 8 dereferenceable(32) %errmsg) #32
  store ptr %call.i26, ptr %ref.tmp22, align 8
  %size_.i27 = getelementptr inbounds i8, ptr %ref.tmp22, i64 8
  %call2.i28 = call noundef i64 @_ZNKSt7__cxx1112basic_stringIcSt11char_traitsIcESaIcEE4sizeEv(ptr noundef nonnull align 8 dereferenceable(32) %errmsg) #32
  store i64 %call2.i28, ptr %size_.i27, align 8
  %call.i29 = call noundef ptr @_ZNKSt7__cxx1112basic_stringIcSt11char_traitsIcESaIcEE4dataEv(ptr noundef nonnull align 8 dereferenceable(32) %target) #32
  store ptr %call.i29, ptr %ref.tmp24, align 8
  %size_.i30 = getelementptr inbounds i8, ptr %ref.tmp24, i64 8
  %call2.i31 = call noundef i64 @_ZNKSt7__cxx1112basic_stringIcSt11char_traitsIcESaIcEE4sizeEv(ptr noundef nonnull align 8 dereferenceable(32) %target) #32
  store i64 %call2.i31, ptr %size_.i30, align 8
  invoke void @_ZN7rocksdb6StatusC2ENS0_4CodeENS0_7SubCodeERKNS_5SliceES5_NS0_8SeverityE(ptr noundef nonnull align 8 dereferenceable(16) %agg.result, i8 noundef zeroext 4, i8 noundef zeroext 0, ptr noundef nonnull align 8 dereferenceable(16) %ref.tmp22, ptr noundef nonnull align 8 dereferenceable(16) %ref.tmp24, i8 noundef zeroext 0)
          to label %cleanup unwind label %lpad

cleanup:                                          ; preds = %if.else21, %if.then3, %invoke.cont19
  call void @_ZNSt7__cxx1112basic_stringIcSt11char_traitsIcESaIcEED1Ev(ptr noundef nonnull align 8 dereferenceable(32) %errmsg) #32
  br label %cleanup46

ehcleanup27:                                      ; preds = %ehcleanup20, %lpad
  %.pn12 = phi { ptr, i32 } [ %5, %lpad ], [ %.pn9.pn, %ehcleanup20 ]
  call void @_ZNSt7__cxx1112basic_stringIcSt11char_traitsIcESaIcEED1Ev(ptr noundef nonnull align 8 dereferenceable(32) %errmsg) #32
  br label %ehcleanup47

if.else28:                                        ; preds = %_ZNSt10unique_ptrIN7rocksdb3EnvESt14default_deleteIS1_EE5resetEPS1_.exit
  call void @_ZNSaIcEC1Ev(ptr noundef nonnull align 1 dereferenceable(1) %ref.tmp32) #32
  %call.i3439 = invoke noundef ptr @_ZNSt7__cxx1112basic_stringIcSt11char_traitsIcESaIcEE13_M_local_dataEv(ptr noundef nonnull align 8 dereferenceable(32) %ref.tmp31)
          to label %call.i34.noexc unwind label %lpad33

call.i34.noexc:                                   ; preds = %if.else28
  invoke void @_ZNSt7__cxx1112basic_stringIcSt11char_traitsIcESaIcEE12_Alloc_hiderC1EPcRKS3_(ptr noundef nonnull align 8 dereferenceable(8) %ref.tmp31, ptr noundef %call.i3439, ptr noundef nonnull align 1 dereferenceable(1) %ref.tmp32)
          to label %.noexc40 unwind label %lpad33

.noexc40:                                         ; preds = %call.i34.noexc
  invoke void @_ZNSt7__cxx1112basic_stringIcSt11char_traitsIcESaIcEE12_M_constructIPKcEEvT_S8_St20forward_iterator_tag(ptr noundef nonnull align 8 dereferenceable(32) %ref.tmp31, ptr noundef nonnull @.str.55, ptr noundef nonnull getelementptr inbounds ([16 x i8], ptr @.str.55, i64 0, i64 15))
          to label %invoke.cont34 unwind label %lpad.i38

lpad.i38:                                         ; preds = %.noexc40
  %10 = landingpad { ptr, i32 }
          cleanup
  call void @_ZNSaIcED2Ev(ptr noundef nonnull align 1 dereferenceable(1) %ref.tmp31) #32
  br label %ehcleanup45

invoke.cont34:                                    ; preds = %.noexc40
  %call.i4344 = invoke noundef nonnull align 8 dereferenceable(32) ptr @_ZNSt7__cxx1112basic_stringIcSt11char_traitsIcESaIcEE6appendEPKc(ptr noundef nonnull align 8 dereferenceable(32) %ref.tmp31, ptr noundef nonnull @.str.19)
          to label %invoke.cont37 unwind label %lpad36

invoke.cont37:                                    ; preds = %invoke.cont34
  call void @_ZNSt7__cxx1112basic_stringIcSt11char_traitsIcESaIcEEC1EOS4_(ptr noundef nonnull align 8 dereferenceable(32) %ref.tmp30, ptr noundef nonnull align 8 dereferenceable(32) %call.i4344) #32
  %call.i46 = call noundef ptr @_ZNKSt7__cxx1112basic_stringIcSt11char_traitsIcESaIcEE4dataEv(ptr noundef nonnull align 8 dereferenceable(32) %ref.tmp30) #32
  store ptr %call.i46, ptr %ref.tmp29, align 8
  %size_.i47 = getelementptr inbounds i8, ptr %ref.tmp29, i64 8
  %call2.i48 = call noundef i64 @_ZNKSt7__cxx1112basic_stringIcSt11char_traitsIcESaIcEE4sizeEv(ptr noundef nonnull align 8 dereferenceable(32) %ref.tmp30) #32
  store i64 %call2.i48, ptr %size_.i47, align 8
  %call.i49 = call noundef ptr @_ZNKSt7__cxx1112basic_stringIcSt11char_traitsIcESaIcEE4dataEv(ptr noundef nonnull align 8 dereferenceable(32) %target) #32
  store ptr %call.i49, ptr %ref.tmp40, align 8
  %size_.i50 = getelementptr inbounds i8, ptr %ref.tmp40, i64 8
  %call2.i51 = call noundef i64 @_ZNKSt7__cxx1112basic_stringIcSt11char_traitsIcESaIcEE4sizeEv(ptr noundef nonnull align 8 dereferenceable(32) %target) #32
  store i64 %call2.i51, ptr %size_.i50, align 8
  invoke void @_ZN7rocksdb6StatusC2ENS0_4CodeENS0_7SubCodeERKNS_5SliceES5_NS0_8SeverityE(ptr noundef nonnull align 8 dereferenceable(16) %agg.result, i8 noundef zeroext 3, i8 noundef zeroext 0, ptr noundef nonnull align 8 dereferenceable(16) %ref.tmp29, ptr noundef nonnull align 8 dereferenceable(16) %ref.tmp40, i8 noundef zeroext 0)
          to label %invoke.cont42 unwind label %lpad38

invoke.cont42:                                    ; preds = %invoke.cont37
  call void @_ZNSt7__cxx1112basic_stringIcSt11char_traitsIcESaIcEED1Ev(ptr noundef nonnull align 8 dereferenceable(32) %ref.tmp30) #32
  call void @_ZNSt7__cxx1112basic_stringIcSt11char_traitsIcESaIcEED1Ev(ptr noundef nonnull align 8 dereferenceable(32) %ref.tmp31) #32
  call void @_ZNSaIcED1Ev(ptr noundef nonnull align 1 dereferenceable(1) %ref.tmp32) #32
  br label %cleanup46

lpad33:                                           ; preds = %call.i34.noexc, %if.else28
  %11 = landingpad { ptr, i32 }
          cleanup
  br label %ehcleanup45

lpad36:                                           ; preds = %invoke.cont34
  %12 = landingpad { ptr, i32 }
          cleanup
  br label %ehcleanup44

lpad38:                                           ; preds = %invoke.cont37
  %13 = landingpad { ptr, i32 }
          cleanup
  call void @_ZNSt7__cxx1112basic_stringIcSt11char_traitsIcESaIcEED1Ev(ptr noundef nonnull align 8 dereferenceable(32) %ref.tmp30) #32
  br label %ehcleanup44

ehcleanup44:                                      ; preds = %lpad38, %lpad36
  %.pn = phi { ptr, i32 } [ %13, %lpad38 ], [ %12, %lpad36 ]
  call void @_ZNSt7__cxx1112basic_stringIcSt11char_traitsIcESaIcEED1Ev(ptr noundef nonnull align 8 dereferenceable(32) %ref.tmp31) #32
  br label %ehcleanup45

ehcleanup45:                                      ; preds = %lpad33, %lpad.i38, %ehcleanup44
  %.pn.pn = phi { ptr, i32 } [ %.pn, %ehcleanup44 ], [ %11, %lpad33 ], [ %10, %lpad.i38 ]
  call void @_ZNSaIcED1Ev(ptr noundef nonnull align 1 dereferenceable(1) %ref.tmp32) #32
  br label %ehcleanup47

cleanup46:                                        ; preds = %invoke.cont42, %cleanup
  %14 = load ptr, ptr %_M_manager.i.i.i, align 8
  %tobool.not.i.i54 = icmp eq ptr %14, null
  br i1 %tobool.not.i.i54, label %_ZNSt8functionIFPN7rocksdb3EnvERKNSt7__cxx1112basic_stringIcSt11char_traitsIcESaIcEEEPSt10unique_ptrIS1_St14default_deleteIS1_EEPS8_EED2Ev.exit, label %if.then.i.i

if.then.i.i:                                      ; preds = %cleanup46
  %call.i.i55 = invoke noundef zeroext i1 %14(ptr noundef nonnull align 8 dereferenceable(16) %factory, ptr noundef nonnull align 8 dereferenceable(16) %factory, i32 noundef 3)
          to label %_ZNSt8functionIFPN7rocksdb3EnvERKNSt7__cxx1112basic_stringIcSt11char_traitsIcESaIcEEEPSt10unique_ptrIS1_St14default_deleteIS1_EEPS8_EED2Ev.exit unwind label %terminate.lpad.i.i

terminate.lpad.i.i:                               ; preds = %if.then.i.i
  %15 = landingpad { ptr, i32 }
          catch ptr null
  %16 = extractvalue { ptr, i32 } %15, 0
  call void @__clang_call_terminate(ptr %16) #33
  unreachable

_ZNSt8functionIFPN7rocksdb3EnvERKNSt7__cxx1112basic_stringIcSt11char_traitsIcESaIcEEEPSt10unique_ptrIS1_St14default_deleteIS1_EEPS8_EED2Ev.exit: ; preds = %cleanup46, %if.then.i.i
  ret void

ehcleanup47:                                      ; preds = %ehcleanup45, %ehcleanup27
  %.pn12.pn = phi { ptr, i32 } [ %.pn12, %ehcleanup27 ], [ %.pn.pn, %ehcleanup45 ]
  %17 = load ptr, ptr %_M_manager.i.i.i, align 8
  %tobool.not.i.i57 = icmp eq ptr %17, null
  br i1 %tobool.not.i.i57, label %_ZNSt8functionIFPN7rocksdb3EnvERKNSt7__cxx1112basic_stringIcSt11char_traitsIcESaIcEEEPSt10unique_ptrIS1_St14default_deleteIS1_EEPS8_EED2Ev.exit61, label %if.then.i.i58

if.then.i.i58:                                    ; preds = %ehcleanup47
  %call.i.i59 = invoke noundef zeroext i1 %17(ptr noundef nonnull align 8 dereferenceable(16) %factory, ptr noundef nonnull align 8 dereferenceable(16) %factory, i32 noundef 3)
          to label %_ZNSt8functionIFPN7rocksdb3EnvERKNSt7__cxx1112basic_stringIcSt11char_traitsIcESaIcEEEPSt10unique_ptrIS1_St14default_deleteIS1_EEPS8_EED2Ev.exit61 unwind label %terminate.lpad.i.i60

terminate.lpad.i.i60:                             ; preds = %if.then.i.i58
  %18 = landingpad { ptr, i32 }
          catch ptr null
  %19 = extractvalue { ptr, i32 } %18, 0
  call void @__clang_call_terminate(ptr %19) #33
  unreachable

_ZNSt8functionIFPN7rocksdb3EnvERKNSt7__cxx1112basic_stringIcSt11char_traitsIcESaIcEEEPSt10unique_ptrIS1_St14default_deleteIS1_EEPS8_EED2Ev.exit61: ; preds = %ehcleanup47, %if.then.i.i58
  resume { ptr, i32 } %.pn12.pn
}

declare void @_ZN7rocksdb12Customizable18ConfigureNewObjectERKNS_13ConfigOptionsEPS0_RKSt13unordered_mapINSt7__cxx1112basic_stringIcSt11char_traitsIcESaIcEEESB_St4hashISB_ESt8equal_toISB_ESaISt4pairIKSB_SB_EEE(ptr sret(%"class.rocksdb::Status") align 8, ptr noundef nonnull align 8 dereferenceable(80), ptr noundef, ptr noundef nonnull align 8 dereferenceable(56)) local_unnamed_addr #6

; Function Attrs: mustprogress uwtable
define linkonce_odr void @_ZNSt12__shared_ptrIN7rocksdb3EnvELN9__gnu_cxx12_Lock_policyE2EE5resetIS1_EENSt9enable_ifIXsr21__sp_is_constructibleIS1_T_EE5valueEvE4typeEPS7_(ptr noundef nonnull align 8 dereferenceable(16) %this, ptr noundef %__p) local_unnamed_addr #2 comdat align 2 personality ptr @__gxx_personality_v0 {
entry:
  %call.i.i.i = invoke noalias noundef nonnull dereferenceable(24) ptr @_Znwm(i64 noundef 24) #31
          to label %_ZNSt12__shared_ptrIN7rocksdb3EnvELN9__gnu_cxx12_Lock_policyE2EEC2IS1_vEEPT_.exit unwind label %lpad.i.i.i

lpad.i.i.i:                                       ; preds = %entry
  %0 = landingpad { ptr, i32 }
          catch ptr null
  %1 = extractvalue { ptr, i32 } %0, 0
  %2 = tail call ptr @__cxa_begin_catch(ptr %1) #32
  %isnull.i.i.i = icmp eq ptr %__p, null
  br i1 %isnull.i.i.i, label %delete.end.i.i.i, label %delete.notnull.i.i.i

delete.notnull.i.i.i:                             ; preds = %lpad.i.i.i
  %vtable.i.i.i = load ptr, ptr %__p, align 8
  %vfn.i.i.i = getelementptr inbounds i8, ptr %vtable.i.i.i, i64 8
  %3 = load ptr, ptr %vfn.i.i.i, align 8
  tail call void %3(ptr noundef nonnull align 8 dereferenceable(72) %__p) #32
  br label %delete.end.i.i.i

delete.end.i.i.i:                                 ; preds = %delete.notnull.i.i.i, %lpad.i.i.i
  invoke void @__cxa_rethrow() #34
          to label %unreachable.i.i.i unwind label %lpad3.i.i.i

lpad3.i.i.i:                                      ; preds = %delete.end.i.i.i
  %4 = landingpad { ptr, i32 }
          cleanup
  invoke void @__cxa_end_catch()
          to label %eh.resume.i.i.i unwind label %terminate.lpad.i.i.i

eh.resume.i.i.i:                                  ; preds = %lpad3.i.i.i
  resume { ptr, i32 } %4

terminate.lpad.i.i.i:                             ; preds = %lpad3.i.i.i
  %5 = landingpad { ptr, i32 }
          catch ptr null
  %6 = extractvalue { ptr, i32 } %5, 0
  tail call void @__clang_call_terminate(ptr %6) #33
  unreachable

unreachable.i.i.i:                                ; preds = %delete.end.i.i.i
  unreachable

_ZNSt12__shared_ptrIN7rocksdb3EnvELN9__gnu_cxx12_Lock_policyE2EEC2IS1_vEEPT_.exit: ; preds = %entry
  %_M_use_count.i.i.i.i.i = getelementptr inbounds i8, ptr %call.i.i.i, i64 8
  store i32 1, ptr %_M_use_count.i.i.i.i.i, align 8
  %_M_weak_count.i.i.i.i.i = getelementptr inbounds i8, ptr %call.i.i.i, i64 12
  store i32 1, ptr %_M_weak_count.i.i.i.i.i, align 4
  store ptr getelementptr inbounds ({ [7 x ptr] }, ptr @_ZTVSt15_Sp_counted_ptrIPN7rocksdb3EnvELN9__gnu_cxx12_Lock_policyE2EE, i64 0, inrange i32 0, i64 2), ptr %call.i.i.i, align 8
  %_M_ptr.i.i.i.i = getelementptr inbounds i8, ptr %call.i.i.i, i64 16
  store ptr %__p, ptr %_M_ptr.i.i.i.i, align 8
  store ptr %__p, ptr %this, align 8
  %_M_refcount3.i = getelementptr inbounds i8, ptr %this, i64 8
  %7 = load ptr, ptr %_M_refcount3.i, align 8
  store ptr %call.i.i.i, ptr %_M_refcount3.i, align 8
  %cmp.not.i.i = icmp eq ptr %7, null
  br i1 %cmp.not.i.i, label %_ZNSt12__shared_ptrIN7rocksdb3EnvELN9__gnu_cxx12_Lock_policyE2EED2Ev.exit, label %if.then.i.i

if.then.i.i:                                      ; preds = %_ZNSt12__shared_ptrIN7rocksdb3EnvELN9__gnu_cxx12_Lock_policyE2EEC2IS1_vEEPT_.exit
  %_M_use_count.i.i.i = getelementptr inbounds i8, ptr %7, i64 8
  %8 = load atomic i64, ptr %_M_use_count.i.i.i acquire, align 8
  %cmp.i.i.i = icmp eq i64 %8, 4294967297
  %9 = trunc i64 %8 to i32
  br i1 %cmp.i.i.i, label %if.then.i.i.i, label %if.end.i.i.i

if.then.i.i.i:                                    ; preds = %if.then.i.i
  store i32 0, ptr %_M_use_count.i.i.i, align 8
  %_M_weak_count.i.i.i = getelementptr inbounds i8, ptr %7, i64 12
  store i32 0, ptr %_M_weak_count.i.i.i, align 4
  %vtable.i.i.i4 = load ptr, ptr %7, align 8
  %vfn.i.i.i5 = getelementptr inbounds i8, ptr %vtable.i.i.i4, i64 16
  %10 = load ptr, ptr %vfn.i.i.i5, align 8
  tail call void %10(ptr noundef nonnull align 8 dereferenceable(16) %7) #32
  br label %if.end8.sink.split.i.i.i

if.end.i.i.i:                                     ; preds = %if.then.i.i
  %11 = load i8, ptr @__libc_single_threaded, align 1
  %tobool.i.not.i.i.i = icmp eq i8 %11, 0
  br i1 %tobool.i.not.i.i.i, label %if.else.i.i.i.i, label %if.then.i.i.i.i

if.then.i.i.i.i:                                  ; preds = %if.end.i.i.i
  %add.i.i.i.i = add nsw i32 %9, -1
  store i32 %add.i.i.i.i, ptr %_M_use_count.i.i.i, align 4
  br label %_ZN9__gnu_cxx27__exchange_and_add_dispatchEPii.exit.i.i.i

if.else.i.i.i.i:                                  ; preds = %if.end.i.i.i
  %12 = atomicrmw volatile add ptr %_M_use_count.i.i.i, i32 -1 acq_rel, align 4
  br label %_ZN9__gnu_cxx27__exchange_and_add_dispatchEPii.exit.i.i.i

_ZN9__gnu_cxx27__exchange_and_add_dispatchEPii.exit.i.i.i: ; preds = %if.else.i.i.i.i, %if.then.i.i.i.i
  %retval.i.0.i.i.i = phi i32 [ %9, %if.then.i.i.i.i ], [ %12, %if.else.i.i.i.i ]
  %cmp6.i.i.i = icmp eq i32 %retval.i.0.i.i.i, 1
  br i1 %cmp6.i.i.i, label %if.then7.i.i.i, label %_ZNSt12__shared_ptrIN7rocksdb3EnvELN9__gnu_cxx12_Lock_policyE2EED2Ev.exit

if.then7.i.i.i:                                   ; preds = %_ZN9__gnu_cxx27__exchange_and_add_dispatchEPii.exit.i.i.i
  %vtable.i.i.i.i.i = load ptr, ptr %7, align 8
  %vfn.i.i.i.i.i = getelementptr inbounds i8, ptr %vtable.i.i.i.i.i, i64 16
  %13 = load ptr, ptr %vfn.i.i.i.i.i, align 8
  tail call void %13(ptr noundef nonnull align 8 dereferenceable(16) %7) #32
  %_M_weak_count.i.i.i.i.i3 = getelementptr inbounds i8, ptr %7, i64 12
  %14 = load i8, ptr @__libc_single_threaded, align 1
  %tobool.i.not.i.i.i.i.i = icmp eq i8 %14, 0
  br i1 %tobool.i.not.i.i.i.i.i, label %if.else.i.i.i.i.i.i, label %if.then.i.i.i.i.i.i

if.then.i.i.i.i.i.i:                              ; preds = %if.then7.i.i.i
  %15 = load i32, ptr %_M_weak_count.i.i.i.i.i3, align 4
  %add.i.i.i.i.i.i = add nsw i32 %15, -1
  store i32 %add.i.i.i.i.i.i, ptr %_M_weak_count.i.i.i.i.i3, align 4
  br label %_ZN9__gnu_cxx27__exchange_and_add_dispatchEPii.exit.i.i.i.i.i

if.else.i.i.i.i.i.i:                              ; preds = %if.then7.i.i.i
  %16 = atomicrmw volatile add ptr %_M_weak_count.i.i.i.i.i3, i32 -1 acq_rel, align 4
  br label %_ZN9__gnu_cxx27__exchange_and_add_dispatchEPii.exit.i.i.i.i.i

_ZN9__gnu_cxx27__exchange_and_add_dispatchEPii.exit.i.i.i.i.i: ; preds = %if.else.i.i.i.i.i.i, %if.then.i.i.i.i.i.i
  %retval.i.0.i.i.i.i.i = phi i32 [ %15, %if.then.i.i.i.i.i.i ], [ %16, %if.else.i.i.i.i.i.i ]
  %cmp.i.i.i.i.i = icmp eq i32 %retval.i.0.i.i.i.i.i, 1
  br i1 %cmp.i.i.i.i.i, label %if.end8.sink.split.i.i.i, label %_ZNSt12__shared_ptrIN7rocksdb3EnvELN9__gnu_cxx12_Lock_policyE2EED2Ev.exit

if.end8.sink.split.i.i.i:                         ; preds = %_ZN9__gnu_cxx27__exchange_and_add_dispatchEPii.exit.i.i.i.i.i, %if.then.i.i.i
  %vtable2.i.i.i.i.i = load ptr, ptr %7, align 8
  %vfn3.i.i.i.i.i = getelementptr inbounds i8, ptr %vtable2.i.i.i.i.i, i64 24
  %17 = load ptr, ptr %vfn3.i.i.i.i.i, align 8
  tail call void %17(ptr noundef nonnull align 8 dereferenceable(16) %7) #32
  br label %_ZNSt12__shared_ptrIN7rocksdb3EnvELN9__gnu_cxx12_Lock_policyE2EED2Ev.exit

_ZNSt12__shared_ptrIN7rocksdb3EnvELN9__gnu_cxx12_Lock_policyE2EED2Ev.exit: ; preds = %_ZNSt12__shared_ptrIN7rocksdb3EnvELN9__gnu_cxx12_Lock_policyE2EEC2IS1_vEEPT_.exit, %_ZN9__gnu_cxx27__exchange_and_add_dispatchEPii.exit.i.i.i, %_ZN9__gnu_cxx27__exchange_and_add_dispatchEPii.exit.i.i.i.i.i, %if.end8.sink.split.i.i.i
  ret void
}

; Function Attrs: mustprogress nounwind uwtable
define linkonce_odr void @_ZNSt13unordered_mapINSt7__cxx1112basic_stringIcSt11char_traitsIcESaIcEEES5_St4hashIS5_ESt8equal_toIS5_ESaISt4pairIKS5_S5_EEED2Ev(ptr noundef nonnull align 8 dereferenceable(56) %this) unnamed_addr #0 comdat align 2 personality ptr @__gxx_personality_v0 {
entry:
  %_M_before_begin.i.i.i = getelementptr inbounds i8, ptr %this, i64 16
  %0 = load ptr, ptr %_M_before_begin.i.i.i, align 8
  %tobool.not3.i.i.i = icmp eq ptr %0, null
  br i1 %tobool.not3.i.i.i, label %_ZNSt10_HashtableINSt7__cxx1112basic_stringIcSt11char_traitsIcESaIcEEESt4pairIKS5_S5_ESaIS8_ENSt8__detail10_Select1stESt8equal_toIS5_ESt4hashIS5_ENSA_18_Mod_range_hashingENSA_20_Default_ranged_hashENSA_20_Prime_rehash_policyENSA_17_Hashtable_traitsILb1ELb0ELb1EEEE5clearEv.exit.i, label %while.body.i.i.i

while.body.i.i.i:                                 ; preds = %entry, %while.body.i.i.i
  %__n.addr.04.i.i.i = phi ptr [ %1, %while.body.i.i.i ], [ %0, %entry ]
  %1 = load ptr, ptr %__n.addr.04.i.i.i, align 8
  %add.ptr.i.i.i.i = getelementptr inbounds i8, ptr %__n.addr.04.i.i.i, i64 8
  %second.i.i.i.i.i.i.i = getelementptr inbounds i8, ptr %__n.addr.04.i.i.i, i64 40
  tail call void @_ZNSt7__cxx1112basic_stringIcSt11char_traitsIcESaIcEED1Ev(ptr noundef nonnull align 8 dereferenceable(32) %second.i.i.i.i.i.i.i) #32
  tail call void @_ZNSt7__cxx1112basic_stringIcSt11char_traitsIcESaIcEED1Ev(ptr noundef nonnull align 8 dereferenceable(32) %add.ptr.i.i.i.i) #32
  tail call void @_ZdlPv(ptr noundef nonnull %__n.addr.04.i.i.i) #30
  %tobool.not.i.i.i = icmp eq ptr %1, null
  br i1 %tobool.not.i.i.i, label %_ZNSt10_HashtableINSt7__cxx1112basic_stringIcSt11char_traitsIcESaIcEEESt4pairIKS5_S5_ESaIS8_ENSt8__detail10_Select1stESt8equal_toIS5_ESt4hashIS5_ENSA_18_Mod_range_hashingENSA_20_Default_ranged_hashENSA_20_Prime_rehash_policyENSA_17_Hashtable_traitsILb1ELb0ELb1EEEE5clearEv.exit.i, label %while.body.i.i.i, !llvm.loop !21

_ZNSt10_HashtableINSt7__cxx1112basic_stringIcSt11char_traitsIcESaIcEEESt4pairIKS5_S5_ESaIS8_ENSt8__detail10_Select1stESt8equal_toIS5_ESt4hashIS5_ENSA_18_Mod_range_hashingENSA_20_Default_ranged_hashENSA_20_Prime_rehash_policyENSA_17_Hashtable_traitsILb1ELb0ELb1EEEE5clearEv.exit.i: ; preds = %while.body.i.i.i, %entry
  %2 = load ptr, ptr %this, align 8
  %_M_bucket_count.i.i = getelementptr inbounds i8, ptr %this, i64 8
  %3 = load i64, ptr %_M_bucket_count.i.i, align 8
  %mul.i.i = shl i64 %3, 3
  tail call void @llvm.memset.p0.i64(ptr align 8 %2, i8 0, i64 %mul.i.i, i1 false)
  tail call void @llvm.memset.p0.i64(ptr noundef nonnull align 8 dereferenceable(16) %_M_before_begin.i.i.i, i8 0, i64 16, i1 false)
  %4 = load ptr, ptr %this, align 8
  %_M_single_bucket.i.i.i.i = getelementptr inbounds i8, ptr %this, i64 48
  %cmp.i.i.i.i = icmp eq ptr %_M_single_bucket.i.i.i.i, %4
  br i1 %cmp.i.i.i.i, label %_ZNSt10_HashtableINSt7__cxx1112basic_stringIcSt11char_traitsIcESaIcEEESt4pairIKS5_S5_ESaIS8_ENSt8__detail10_Select1stESt8equal_toIS5_ESt4hashIS5_ENSA_18_Mod_range_hashingENSA_20_Default_ranged_hashENSA_20_Prime_rehash_policyENSA_17_Hashtable_traitsILb1ELb0ELb1EEEED2Ev.exit, label %if.end.i.i.i

if.end.i.i.i:                                     ; preds = %_ZNSt10_HashtableINSt7__cxx1112basic_stringIcSt11char_traitsIcESaIcEEESt4pairIKS5_S5_ESaIS8_ENSt8__detail10_Select1stESt8equal_toIS5_ESt4hashIS5_ENSA_18_Mod_range_hashingENSA_20_Default_ranged_hashENSA_20_Prime_rehash_policyENSA_17_Hashtable_traitsILb1ELb0ELb1EEEE5clearEv.exit.i
  tail call void @_ZdlPv(ptr noundef %4) #30
  br label %_ZNSt10_HashtableINSt7__cxx1112basic_stringIcSt11char_traitsIcESaIcEEESt4pairIKS5_S5_ESaIS8_ENSt8__detail10_Select1stESt8equal_toIS5_ESt4hashIS5_ENSA_18_Mod_range_hashingENSA_20_Default_ranged_hashENSA_20_Prime_rehash_policyENSA_17_Hashtable_traitsILb1ELb0ELb1EEEED2Ev.exit

_ZNSt10_HashtableINSt7__cxx1112basic_stringIcSt11char_traitsIcESaIcEEESt4pairIKS5_S5_ESaIS8_ENSt8__detail10_Select1stESt8equal_toIS5_ESt4hashIS5_ENSA_18_Mod_range_hashingENSA_20_Default_ranged_hashENSA_20_Prime_rehash_policyENSA_17_Hashtable_traitsILb1ELb0ELb1EEEED2Ev.exit: ; preds = %_ZNSt10_HashtableINSt7__cxx1112basic_stringIcSt11char_traitsIcESaIcEEESt4pairIKS5_S5_ESaIS8_ENSt8__detail10_Select1stESt8equal_toIS5_ESt4hashIS5_ENSA_18_Mod_range_hashingENSA_20_Default_ranged_hashENSA_20_Prime_rehash_policyENSA_17_Hashtable_traitsILb1ELb0ELb1EEEE5clearEv.exit.i, %if.end.i.i.i
  ret void
}

; Function Attrs: nounwind
declare void @_ZNSt7__cxx1112basic_stringIcSt11char_traitsIcESaIcEED1Ev(ptr noundef nonnull align 8 dereferenceable(32)) unnamed_addr #7

; Function Attrs: mustprogress uwtable
define void @_ZN7rocksdb3Env13CreateFromUriERKNS_13ConfigOptionsERKNSt7__cxx1112basic_stringIcSt11char_traitsIcESaIcEEESB_PPS0_PSt10shared_ptrIS0_E(ptr noalias sret(%"class.rocksdb::Status") align 8 %agg.result, ptr noundef nonnull align 8 dereferenceable(80) %config_options, ptr noundef nonnull align 8 dereferenceable(32) %env_uri, ptr noundef nonnull align 8 dereferenceable(32) %fs_uri, ptr nocapture noundef %result, ptr noundef %guard) local_unnamed_addr #2 align 2 personality ptr @__gxx_personality_v0 {
entry:
  %ref.tmp = alloca %"class.rocksdb::Slice", align 8
  %ref.tmp6 = alloca %"class.rocksdb::Slice", align 8
  %fs = alloca %"class.std::shared_ptr", align 8
  %env = getelementptr inbounds i8, ptr %config_options, i64 56
  %0 = load ptr, ptr %env, align 8
  store ptr %0, ptr %result, align 8
  %call = tail call noundef zeroext i1 @_ZNKSt7__cxx1112basic_stringIcSt11char_traitsIcESaIcEE5emptyEv(ptr noundef nonnull align 8 dereferenceable(32) %env_uri) #32
  br i1 %call, label %land.lhs.true, label %if.else

land.lhs.true:                                    ; preds = %entry
  %call1 = tail call noundef zeroext i1 @_ZNKSt7__cxx1112basic_stringIcSt11char_traitsIcESaIcEE5emptyEv(ptr noundef nonnull align 8 dereferenceable(32) %fs_uri) #32
  br i1 %call1, label %if.then, label %if.else

if.then:                                          ; preds = %land.lhs.true
  store ptr null, ptr %guard, align 8
  %_M_refcount3.i.i = getelementptr inbounds i8, ptr %guard, i64 8
  %1 = load ptr, ptr %_M_refcount3.i.i, align 8
  store ptr null, ptr %_M_refcount3.i.i, align 8
  %cmp.not.i.i.i = icmp eq ptr %1, null
