; ModuleID = 'bench/rocksdb/original/malloc_stats.cc.ll'
source_filename = "bench/rocksdb/original/malloc_stats.cc.ll"
target datalayout = "e-m:e-p270:32:32-p271:32:32-p272:64:64-i64:64-i128:128-f80:128-n8:16:32:64-S128"
target triple = "x86_64-unknown-linux-gnu"

%"struct.rocksdb::MallocStatus" = type { ptr, ptr }

@.str = private unnamed_addr constant [1 x i8] zeroinitializer, align 1
@.str.1 = private unnamed_addr constant [3 x i8] c"%s\00", align 1

; Function Attrs: mustprogress uwtable
define void @_ZN7rocksdb15DumpMallocStatsEPNSt7__cxx1112basic_stringIcSt11char_traitsIcESaIcEEE(ptr noundef %stats) local_unnamed_addr #0 personality ptr @__gxx_personality_v0 {
entry:
  %mstat = alloca %"struct.rocksdb::MallocStatus", align 8
  %brmerge.i = or i1 icmp eq (ptr @mallocx, ptr null), icmp eq (ptr @rallocx, ptr null)
  %brmerge3.i = or i1 %brmerge.i, icmp eq (ptr @xallocx, ptr null)
  %brmerge5.i = or i1 %brmerge3.i, icmp eq (ptr @sallocx, ptr null)
  %brmerge7.i = or i1 %brmerge5.i, icmp eq (ptr @dallocx, ptr null)
  %brmerge9.i = or i1 %brmerge7.i, icmp eq (ptr @sdallocx, ptr null)
  %brmerge11.i = or i1 %brmerge9.i, icmp eq (ptr @nallocx, ptr null)
  %brmerge13.i = or i1 %brmerge11.i, icmp eq (ptr @mallctl, ptr null)
  %brmerge15.i = or i1 %brmerge13.i, icmp eq (ptr @mallctlnametomib, ptr null)
  %brmerge17.i = or i1 %brmerge15.i, icmp eq (ptr @mallctlbymib, ptr null)
  %spec.select.i = select i1 icmp ne (ptr @malloc_stats_print, ptr null), i1 icmp ne (ptr @malloc_usable_size, ptr null), i1 false
  %not.brmerge17.i = xor i1 %brmerge17.i, true
  %spec.select18.i = and i1 %spec.select.i, %not.brmerge17.i
  br i1 %spec.select18.i, label %if.end, label %return

if.end:                                           ; preds = %entry
  %call1 = tail call noalias noundef nonnull dereferenceable(1000001) ptr @_Znam(i64 noundef 1000001) #11
  store ptr %call1, ptr %mstat, align 8
  %add.ptr = getelementptr inbounds i8, ptr %call1, i64 1000000
  %end = getelementptr inbounds %"struct.rocksdb::MallocStatus", ptr %mstat, i64 0, i32 1
  store ptr %add.ptr, ptr %end, align 8
  call void @malloc_stats_print(ptr noundef nonnull @_ZN7rocksdbL17GetJemallocStatusEPvPKc, ptr noundef nonnull %mstat, ptr noundef nonnull @.str) #12
  %call5 = invoke noundef nonnull align 8 dereferenceable(32) ptr @_ZNSt7__cxx1112basic_stringIcSt11char_traitsIcESaIcEE6appendEPKc(ptr noundef nonnull align 8 dereferenceable(32) %stats, ptr noundef nonnull %call1)
          to label %_ZNSt10unique_ptrIA_cSt14default_deleteIS0_EED2Ev.exit unwind label %_ZNSt10unique_ptrIA_cSt14default_deleteIS0_EED2Ev.exit3

_ZNSt10unique_ptrIA_cSt14default_deleteIS0_EED2Ev.exit: ; preds = %if.end
  call void @_ZdaPv(ptr noundef nonnull %call1) #13
  br label %return

return:                                           ; preds = %entry, %_ZNSt10unique_ptrIA_cSt14default_deleteIS0_EED2Ev.exit
  ret void

_ZNSt10unique_ptrIA_cSt14default_deleteIS0_EED2Ev.exit3: ; preds = %if.end
  %0 = landingpad { ptr, i32 }
          cleanup
  call void @_ZdaPv(ptr noundef nonnull %call1) #13
  resume { ptr, i32 } %0
}

; Function Attrs: nobuiltin allocsize(0)
declare noundef nonnull ptr @_Znam(i64 noundef) local_unnamed_addr #1

; Function Attrs: nounwind
declare extern_weak void @malloc_stats_print(ptr noundef, ptr noundef, ptr noundef) #2

; Function Attrs: mustprogress nofree nounwind uwtable
define internal void @_ZN7rocksdbL17GetJemallocStatusEPvPKc(ptr nocapture noundef %mstat_arg, ptr noundef %status) #3 {
entry:
  %tobool.not = icmp eq ptr %status, null
  br i1 %tobool.not, label %return, label %cond.end

cond.end:                                         ; preds = %entry
  %call = tail call i64 @strlen(ptr noundef nonnull dereferenceable(1) %status) #14
  %end = getelementptr inbounds %"struct.rocksdb::MallocStatus", ptr %mstat_arg, i64 0, i32 1
  %0 = load ptr, ptr %end, align 8
  %1 = load ptr, ptr %mstat_arg, align 8
  %sub.ptr.lhs.cast = ptrtoint ptr %0 to i64
  %sub.ptr.rhs.cast = ptrtoint ptr %1 to i64
  %sub.ptr.sub = sub i64 %sub.ptr.lhs.cast, %sub.ptr.rhs.cast
  %2 = freeze i64 %sub.ptr.sub
  %3 = add i64 %call, -1
  %or.cond.not = icmp ult i64 %3, %2
  br i1 %or.cond.not, label %if.end, label %return

if.end:                                           ; preds = %cond.end
  %call3 = tail call i32 (ptr, i64, ptr, ...) @snprintf(ptr noundef %1, i64 noundef %2, ptr noundef nonnull @.str.1, ptr noundef nonnull %status) #12
  %4 = load ptr, ptr %mstat_arg, align 8
  %add.ptr = getelementptr inbounds i8, ptr %4, i64 %call
  store ptr %add.ptr, ptr %mstat_arg, align 8
  br label %return

return:                                           ; preds = %entry, %cond.end, %if.end
  ret void
}

declare noundef nonnull align 8 dereferenceable(32) ptr @_ZNSt7__cxx1112basic_stringIcSt11char_traitsIcESaIcEE6appendEPKc(ptr noundef nonnull align 8 dereferenceable(32), ptr noundef) local_unnamed_addr #4

declare i32 @__gxx_personality_v0(...)

; Function Attrs: nounwind allocsize(0)
declare extern_weak noalias ptr @mallocx(i64 noundef, i32 noundef) #5

; Function Attrs: nounwind allocsize(1)
declare extern_weak ptr @rallocx(ptr noundef, i64 noundef, i32 noundef) #6

; Function Attrs: nounwind
declare extern_weak i64 @xallocx(ptr noundef, i64 noundef, i64 noundef, i32 noundef) #2

; Function Attrs: mustprogress nofree nounwind willreturn memory(read)
declare extern_weak i64 @sallocx(ptr noundef, i32 noundef) #7

; Function Attrs: nounwind
declare extern_weak void @dallocx(ptr noundef, i32 noundef) #2

; Function Attrs: nounwind
declare extern_weak void @sdallocx(ptr noundef, i64 noundef, i32 noundef) #2

; Function Attrs: mustprogress nofree nounwind willreturn memory(read)
declare extern_weak i64 @nallocx(i64 noundef, i32 noundef) #7

; Function Attrs: nounwind
declare extern_weak i32 @mallctl(ptr noundef, ptr noundef, ptr noundef, ptr noundef, i64 noundef) #2

; Function Attrs: nounwind
declare extern_weak i32 @mallctlnametomib(ptr noundef, ptr noundef, ptr noundef) #2

; Function Attrs: nounwind
declare extern_weak i32 @mallctlbymib(ptr noundef, i64 noundef, ptr noundef, ptr noundef, ptr noundef, i64 noundef) #2

; Function Attrs: nounwind
declare extern_weak i64 @malloc_usable_size(ptr noundef) #2

; Function Attrs: mustprogress nofree nounwind willreturn memory(argmem: read)
declare i64 @strlen(ptr nocapture noundef) local_unnamed_addr #8

; Function Attrs: nofree nounwind
declare noundef i32 @snprintf(ptr noalias nocapture noundef writeonly, i64 noundef, ptr nocapture noundef readonly, ...) local_unnamed_addr #9

; Function Attrs: nobuiltin nounwind
declare void @_ZdaPv(ptr noundef) local_unnamed_addr #10

attributes #0 = { mustprogress uwtable "frame-pointer"="non-leaf" "min-legal-vector-width"="0" "no-trapping-math"="true" "stack-protector-buffer-size"="8" "target-cpu"="rocketlake" "target-features"="+64bit,+adx,+aes,+avx,+avx2,+avx512bitalg,+avx512bw,+avx512cd,+avx512dq,+avx512f,+avx512ifma,+avx512vbmi,+avx512vbmi2,+avx512vl,+avx512vnni,+avx512vpopcntdq,+bmi,+bmi2,+clflushopt,+cmov,+crc32,+cx16,+cx8,+evex512,+f16c,+fma,+fsgsbase,+fxsr,+gfni,+invpcid,+lzcnt,+mmx,+movbe,+pclmul,+pku,+popcnt,+prfchw,+rdpid,+rdrnd,+rdseed,+sahf,+sha,+sse,+sse2,+sse3,+sse4.1,+sse4.2,+ssse3,+vaes,+vpclmulqdq,+x87,+xsave,+xsavec,+xsaveopt,+xsaves,-amx-bf16,-amx-complex,-amx-fp16,-amx-int8,-amx-tile,-avx10.1-256,-avx10.1-512,-avx512bf16,-avx512er,-avx512fp16,-avx512pf,-avx512vp2intersect,-avxifma,-avxneconvert,-avxvnni,-avxvnniint16,-avxvnniint8,-cldemote,-clwb,-clzero,-cmpccxadd,-enqcmd,-fma4,-hreset,-kl,-lwp,-movdir64b,-movdiri,-mwaitx,-pconfig,-prefetchi,-prefetchwt1,-ptwrite,-raoint,-rdpru,-rtm,-serialize,-sgx,-sha512,-shstk,-sm3,-sm4,-sse4a,-tbm,-tsxldtrk,-uintr,-usermsr,-waitpkg,-wbnoinvd,-widekl,-xop" }
attributes #1 = { nobuiltin allocsize(0) "frame-pointer"="non-leaf" "no-trapping-math"="true" "stack-protector-buffer-size"="8" "target-cpu"="rocketlake" "target-features"="+64bit,+adx,+aes,+avx,+avx2,+avx512bitalg,+avx512bw,+avx512cd,+avx512dq,+avx512f,+avx512ifma,+avx512vbmi,+avx512vbmi2,+avx512vl,+avx512vnni,+avx512vpopcntdq,+bmi,+bmi2,+clflushopt,+cmov,+crc32,+cx16,+cx8,+evex512,+f16c,+fma,+fsgsbase,+fxsr,+gfni,+invpcid,+lzcnt,+mmx,+movbe,+pclmul,+pku,+popcnt,+prfchw,+rdpid,+rdrnd,+rdseed,+sahf,+sha,+sse,+sse2,+sse3,+sse4.1,+sse4.2,+ssse3,+vaes,+vpclmulqdq,+x87,+xsave,+xsavec,+xsaveopt,+xsaves,-amx-bf16,-amx-complex,-amx-fp16,-amx-int8,-amx-tile,-avx10.1-256,-avx10.1-512,-avx512bf16,-avx512er,-avx512fp16,-avx512pf,-avx512vp2intersect,-avxifma,-avxneconvert,-avxvnni,-avxvnniint16,-avxvnniint8,-cldemote,-clwb,-clzero,-cmpccxadd,-enqcmd,-fma4,-hreset,-kl,-lwp,-movdir64b,-movdiri,-mwaitx,-pconfig,-prefetchi,-prefetchwt1,-ptwrite,-raoint,-rdpru,-rtm,-serialize,-sgx,-sha512,-shstk,-sm3,-sm4,-sse4a,-tbm,-tsxldtrk,-uintr,-usermsr,-waitpkg,-wbnoinvd,-widekl,-xop" }
attributes #2 = { nounwind "frame-pointer"="non-leaf" "no-trapping-math"="true" "stack-protector-buffer-size"="8" "target-cpu"="rocketlake" "target-features"="+64bit,+adx,+aes,+avx,+avx2,+avx512bitalg,+avx512bw,+avx512cd,+avx512dq,+avx512f,+avx512ifma,+avx512vbmi,+avx512vbmi2,+avx512vl,+avx512vnni,+avx512vpopcntdq,+bmi,+bmi2,+clflushopt,+cmov,+crc32,+cx16,+cx8,+evex512,+f16c,+fma,+fsgsbase,+fxsr,+gfni,+invpcid,+lzcnt,+mmx,+movbe,+pclmul,+pku,+popcnt,+prfchw,+rdpid,+rdrnd,+rdseed,+sahf,+sha,+sse,+sse2,+sse3,+sse4.1,+sse4.2,+ssse3,+vaes,+vpclmulqdq,+x87,+xsave,+xsavec,+xsaveopt,+xsaves,-amx-bf16,-amx-complex,-amx-fp16,-amx-int8,-amx-tile,-avx10.1-256,-avx10.1-512,-avx512bf16,-avx512er,-avx512fp16,-avx512pf,-avx512vp2intersect,-avxifma,-avxneconvert,-avxvnni,-avxvnniint16,-avxvnniint8,-cldemote,-clwb,-clzero,-cmpccxadd,-enqcmd,-fma4,-hreset,-kl,-lwp,-movdir64b,-movdiri,-mwaitx,-pconfig,-prefetchi,-prefetchwt1,-ptwrite,-raoint,-rdpru,-rtm,-serialize,-sgx,-sha512,-shstk,-sm3,-sm4,-sse4a,-tbm,-tsxldtrk,-uintr,-usermsr,-waitpkg,-wbnoinvd,-widekl,-xop" }
attributes #3 = { mustprogress nofree nounwind uwtable "frame-pointer"="non-leaf" "min-legal-vector-width"="0" "no-trapping-math"="true" "stack-protector-buffer-size"="8" "target-cpu"="rocketlake" "target-features"="+64bit,+adx,+aes,+avx,+avx2,+avx512bitalg,+avx512bw,+avx512cd,+avx512dq,+avx512f,+avx512ifma,+avx512vbmi,+avx512vbmi2,+avx512vl,+avx512vnni,+avx512vpopcntdq,+bmi,+bmi2,+clflushopt,+cmov,+crc32,+cx16,+cx8,+evex512,+f16c,+fma,+fsgsbase,+fxsr,+gfni,+invpcid,+lzcnt,+mmx,+movbe,+pclmul,+pku,+popcnt,+prfchw,+rdpid,+rdrnd,+rdseed,+sahf,+sha,+sse,+sse2,+sse3,+sse4.1,+sse4.2,+ssse3,+vaes,+vpclmulqdq,+x87,+xsave,+xsavec,+xsaveopt,+xsaves,-amx-bf16,-amx-complex,-amx-fp16,-amx-int8,-amx-tile,-avx10.1-256,-avx10.1-512,-avx512bf16,-avx512er,-avx512fp16,-avx512pf,-avx512vp2intersect,-avxifma,-avxneconvert,-avxvnni,-avxvnniint16,-avxvnniint8,-cldemote,-clwb,-clzero,-cmpccxadd,-enqcmd,-fma4,-hreset,-kl,-lwp,-movdir64b,-movdiri,-mwaitx,-pconfig,-prefetchi,-prefetchwt1,-ptwrite,-raoint,-rdpru,-rtm,-serialize,-sgx,-sha512,-shstk,-sm3,-sm4,-sse4a,-tbm,-tsxldtrk,-uintr,-usermsr,-waitpkg,-wbnoinvd,-widekl,-xop" }
attributes #4 = { "frame-pointer"="non-leaf" "no-trapping-math"="true" "stack-protector-buffer-size"="8" "target-cpu"="rocketlake" "target-features"="+64bit,+adx,+aes,+avx,+avx2,+avx512bitalg,+avx512bw,+avx512cd,+avx512dq,+avx512f,+avx512ifma,+avx512vbmi,+avx512vbmi2,+avx512vl,+avx512vnni,+avx512vpopcntdq,+bmi,+bmi2,+clflushopt,+cmov,+crc32,+cx16,+cx8,+evex512,+f16c,+fma,+fsgsbase,+fxsr,+gfni,+invpcid,+lzcnt,+mmx,+movbe,+pclmul,+pku,+popcnt,+prfchw,+rdpid,+rdrnd,+rdseed,+sahf,+sha,+sse,+sse2,+sse3,+sse4.1,+sse4.2,+ssse3,+vaes,+vpclmulqdq,+x87,+xsave,+xsavec,+xsaveopt,+xsaves,-amx-bf16,-amx-complex,-amx-fp16,-amx-int8,-amx-tile,-avx10.1-256,-avx10.1-512,-avx512bf16,-avx512er,-avx512fp16,-avx512pf,-avx512vp2intersect,-avxifma,-avxneconvert,-avxvnni,-avxvnniint16,-avxvnniint8,-cldemote,-clwb,-clzero,-cmpccxadd,-enqcmd,-fma4,-hreset,-kl,-lwp,-movdir64b,-movdiri,-mwaitx,-pconfig,-prefetchi,-prefetchwt1,-ptwrite,-raoint,-rdpru,-rtm,-serialize,-sgx,-sha512,-shstk,-sm3,-sm4,-sse4a,-tbm,-tsxldtrk,-uintr,-usermsr,-waitpkg,-wbnoinvd,-widekl,-xop" }
attributes #5 = { nounwind allocsize(0) "frame-pointer"="non-leaf" "no-trapping-math"="true" "stack-protector-buffer-size"="8" "target-cpu"="rocketlake" "target-features"="+64bit,+adx,+aes,+avx,+avx2,+avx512bitalg,+avx512bw,+avx512cd,+avx512dq,+avx512f,+avx512ifma,+avx512vbmi,+avx512vbmi2,+avx512vl,+avx512vnni,+avx512vpopcntdq,+bmi,+bmi2,+clflushopt,+cmov,+crc32,+cx16,+cx8,+evex512,+f16c,+fma,+fsgsbase,+fxsr,+gfni,+invpcid,+lzcnt,+mmx,+movbe,+pclmul,+pku,+popcnt,+prfchw,+rdpid,+rdrnd,+rdseed,+sahf,+sha,+sse,+sse2,+sse3,+sse4.1,+sse4.2,+ssse3,+vaes,+vpclmulqdq,+x87,+xsave,+xsavec,+xsaveopt,+xsaves,-amx-bf16,-amx-complex,-amx-fp16,-amx-int8,-amx-tile,-avx10.1-256,-avx10.1-512,-avx512bf16,-avx512er,-avx512fp16,-avx512pf,-avx512vp2intersect,-avxifma,-avxneconvert,-avxvnni,-avxvnniint16,-avxvnniint8,-cldemote,-clwb,-clzero,-cmpccxadd,-enqcmd,-fma4,-hreset,-kl,-lwp,-movdir64b,-movdiri,-mwaitx,-pconfig,-prefetchi,-prefetchwt1,-ptwrite,-raoint,-rdpru,-rtm,-serialize,-sgx,-sha512,-shstk,-sm3,-sm4,-sse4a,-tbm,-tsxldtrk,-uintr,-usermsr,-waitpkg,-wbnoinvd,-widekl,-xop" }
attributes #6 = { nounwind allocsize(1) "frame-pointer"="non-leaf" "no-trapping-math"="true" "stack-protector-buffer-size"="8" "target-cpu"="rocketlake" "target-features"="+64bit,+adx,+aes,+avx,+avx2,+avx512bitalg,+avx512bw,+avx512cd,+avx512dq,+avx512f,+avx512ifma,+avx512vbmi,+avx512vbmi2,+avx512vl,+avx512vnni,+avx512vpopcntdq,+bmi,+bmi2,+clflushopt,+cmov,+crc32,+cx16,+cx8,+evex512,+f16c,+fma,+fsgsbase,+fxsr,+gfni,+invpcid,+lzcnt,+mmx,+movbe,+pclmul,+pku,+popcnt,+prfchw,+rdpid,+rdrnd,+rdseed,+sahf,+sha,+sse,+sse2,+sse3,+sse4.1,+sse4.2,+ssse3,+vaes,+vpclmulqdq,+x87,+xsave,+xsavec,+xsaveopt,+xsaves,-amx-bf16,-amx-complex,-amx-fp16,-amx-int8,-amx-tile,-avx10.1-256,-avx10.1-512,-avx512bf16,-avx512er,-avx512fp16,-avx512pf,-avx512vp2intersect,-avxifma,-avxneconvert,-avxvnni,-avxvnniint16,-avxvnniint8,-cldemote,-clwb,-clzero,-cmpccxadd,-enqcmd,-fma4,-hreset,-kl,-lwp,-movdir64b,-movdiri,-mwaitx,-pconfig,-prefetchi,-prefetchwt1,-ptwrite,-raoint,-rdpru,-rtm,-serialize,-sgx,-sha512,-shstk,-sm3,-sm4,-sse4a,-tbm,-tsxldtrk,-uintr,-usermsr,-waitpkg,-wbnoinvd,-widekl,-xop" }
attributes #7 = { mustprogress nofree nounwind willreturn memory(read) "frame-pointer"="non-leaf" "no-trapping-math"="true" "stack-protector-buffer-size"="8" "target-cpu"="rocketlake" "target-features"="+64bit,+adx,+aes,+avx,+avx2,+avx512bitalg,+avx512bw,+avx512cd,+avx512dq,+avx512f,+avx512ifma,+avx512vbmi,+avx512vbmi2,+avx512vl,+avx512vnni,+avx512vpopcntdq,+bmi,+bmi2,+clflushopt,+cmov,+crc32,+cx16,+cx8,+evex512,+f16c,+fma,+fsgsbase,+fxsr,+gfni,+invpcid,+lzcnt,+mmx,+movbe,+pclmul,+pku,+popcnt,+prfchw,+rdpid,+rdrnd,+rdseed,+sahf,+sha,+sse,+sse2,+sse3,+sse4.1,+sse4.2,+ssse3,+vaes,+vpclmulqdq,+x87,+xsave,+xsavec,+xsaveopt,+xsaves,-amx-bf16,-amx-complex,-amx-fp16,-amx-int8,-amx-tile,-avx10.1-256,-avx10.1-512,-avx512bf16,-avx512er,-avx512fp16,-avx512pf,-avx512vp2intersect,-avxifma,-avxneconvert,-avxvnni,-avxvnniint16,-avxvnniint8,-cldemote,-clwb,-clzero,-cmpccxadd,-enqcmd,-fma4,-hreset,-kl,-lwp,-movdir64b,-movdiri,-mwaitx,-pconfig,-prefetchi,-prefetchwt1,-ptwrite,-raoint,-rdpru,-rtm,-serialize,-sgx,-sha512,-shstk,-sm3,-sm4,-sse4a,-tbm,-tsxldtrk,-uintr,-usermsr,-waitpkg,-wbnoinvd,-widekl,-xop" }
attributes #8 = { mustprogress nofree nounwind willreturn memory(argmem: read) "frame-pointer"="non-leaf" "no-trapping-math"="true" "stack-protector-buffer-size"="8" "target-cpu"="rocketlake" "target-features"="+64bit,+adx,+aes,+avx,+avx2,+avx512bitalg,+avx512bw,+avx512cd,+avx512dq,+avx512f,+avx512ifma,+avx512vbmi,+avx512vbmi2,+avx512vl,+avx512vnni,+avx512vpopcntdq,+bmi,+bmi2,+clflushopt,+cmov,+crc32,+cx16,+cx8,+evex512,+f16c,+fma,+fsgsbase,+fxsr,+gfni,+invpcid,+lzcnt,+mmx,+movbe,+pclmul,+pku,+popcnt,+prfchw,+rdpid,+rdrnd,+rdseed,+sahf,+sha,+sse,+sse2,+sse3,+sse4.1,+sse4.2,+ssse3,+vaes,+vpclmulqdq,+x87,+xsave,+xsavec,+xsaveopt,+xsaves,-amx-bf16,-amx-complex,-amx-fp16,-amx-int8,-amx-tile,-avx10.1-256,-avx10.1-512,-avx512bf16,-avx512er,-avx512fp16,-avx512pf,-avx512vp2intersect,-avxifma,-avxneconvert,-avxvnni,-avxvnniint16,-avxvnniint8,-cldemote,-clwb,-clzero,-cmpccxadd,-enqcmd,-fma4,-hreset,-kl,-lwp,-movdir64b,-movdiri,-mwaitx,-pconfig,-prefetchi,-prefetchwt1,-ptwrite,-raoint,-rdpru,-rtm,-serialize,-sgx,-sha512,-shstk,-sm3,-sm4,-sse4a,-tbm,-tsxldtrk,-uintr,-usermsr,-waitpkg,-wbnoinvd,-widekl,-xop" }
attributes #9 = { nofree nounwind "frame-pointer"="non-leaf" "no-trapping-math"="true" "stack-protector-buffer-size"="8" "target-cpu"="rocketlake" "target-features"="+64bit,+adx,+aes,+avx,+avx2,+avx512bitalg,+avx512bw,+avx512cd,+avx512dq,+avx512f,+avx512ifma,+avx512vbmi,+avx512vbmi2,+avx512vl,+avx512vnni,+avx512vpopcntdq,+bmi,+bmi2,+clflushopt,+cmov,+crc32,+cx16,+cx8,+evex512,+f16c,+fma,+fsgsbase,+fxsr,+gfni,+invpcid,+lzcnt,+mmx,+movbe,+pclmul,+pku,+popcnt,+prfchw,+rdpid,+rdrnd,+rdseed,+sahf,+sha,+sse,+sse2,+sse3,+sse4.1,+sse4.2,+ssse3,+vaes,+vpclmulqdq,+x87,+xsave,+xsavec,+xsaveopt,+xsaves,-amx-bf16,-amx-complex,-amx-fp16,-amx-int8,-amx-tile,-avx10.1-256,-avx10.1-512,-avx512bf16,-avx512er,-avx512fp16,-avx512pf,-avx512vp2intersect,-avxifma,-avxneconvert,-avxvnni,-avxvnniint16,-avxvnniint8,-cldemote,-clwb,-clzero,-cmpccxadd,-enqcmd,-fma4,-hreset,-kl,-lwp,-movdir64b,-movdiri,-mwaitx,-pconfig,-prefetchi,-prefetchwt1,-ptwrite,-raoint,-rdpru,-rtm,-serialize,-sgx,-sha512,-shstk,-sm3,-sm4,-sse4a,-tbm,-tsxldtrk,-uintr,-usermsr,-waitpkg,-wbnoinvd,-widekl,-xop" }
attributes #10 = { nobuiltin nounwind "frame-pointer"="non-leaf" "no-trapping-math"="true" "stack-protector-buffer-size"="8" "target-cpu"="rocketlake" "target-features"="+64bit,+adx,+aes,+avx,+avx2,+avx512bitalg,+avx512bw,+avx512cd,+avx512dq,+avx512f,+avx512ifma,+avx512vbmi,+avx512vbmi2,+avx512vl,+avx512vnni,+avx512vpopcntdq,+bmi,+bmi2,+clflushopt,+cmov,+crc32,+cx16,+cx8,+evex512,+f16c,+fma,+fsgsbase,+fxsr,+gfni,+invpcid,+lzcnt,+mmx,+movbe,+pclmul,+pku,+popcnt,+prfchw,+rdpid,+rdrnd,+rdseed,+sahf,+sha,+sse,+sse2,+sse3,+sse4.1,+sse4.2,+ssse3,+vaes,+vpclmulqdq,+x87,+xsave,+xsavec,+xsaveopt,+xsaves,-amx-bf16,-amx-complex,-amx-fp16,-amx-int8,-amx-tile,-avx10.1-256,-avx10.1-512,-avx512bf16,-avx512er,-avx512fp16,-avx512pf,-avx512vp2intersect,-avxifma,-avxneconvert,-avxvnni,-avxvnniint16,-avxvnniint8,-cldemote,-clwb,-clzero,-cmpccxadd,-enqcmd,-fma4,-hreset,-kl,-lwp,-movdir64b,-movdiri,-mwaitx,-pconfig,-prefetchi,-prefetchwt1,-ptwrite,-raoint,-rdpru,-rtm,-serialize,-sgx,-sha512,-shstk,-sm3,-sm4,-sse4a,-tbm,-tsxldtrk,-uintr,-usermsr,-waitpkg,-wbnoinvd,-widekl,-xop" }
attributes #11 = { builtin allocsize(0) }
attributes #12 = { nounwind }
attributes #13 = { builtin nounwind }
attributes #14 = { nounwind willreturn memory(read) }

!llvm.module.flags = !{!0, !1, !2, !3}

!0 = !{i32 1, !"wchar_size", i32 4}
!1 = !{i32 8, !"PIC Level", i32 2}
!2 = !{i32 7, !"uwtable", i32 2}
!3 = !{i32 7, !"frame-pointer", i32 1}
