; ModuleID = 'bench/rocksdb/original/repair.cc.ll'
source_filename = "bench/rocksdb/original/repair.cc.ll"
target datalayout = "e-m:e-p270:32:32-p271:32:32-p272:64:64-i64:64-i128:128-f80:128-n8:16:32:64-S128"
target triple = "x86_64-unknown-linux-gnu"

%"class.std::vector" = type { %"struct.std::_Vector_base" }
%"struct.std::_Vector_base" = type { %"struct.std::_Vector_base<rocksdb::Slice, std::allocator<rocksdb::Slice>>::_Vector_impl" }
%"struct.std::_Vector_base<rocksdb::Slice, std::allocator<rocksdb::Slice>>::_Vector_impl" = type { %"struct.std::_Vector_base<rocksdb::Slice, std::allocator<rocksdb::Slice>>::_Vector_impl_data" }
%"struct.std::_Vector_base<rocksdb::Slice, std::allocator<rocksdb::Slice>>::_Vector_impl_data" = type { ptr, ptr, ptr }
%"struct.rocksdb::PerfContext" = type <{ %"struct.rocksdb::PerfContextBase", ptr, i8, [7 x i8] }>
%"struct.rocksdb::PerfContextBase" = type { i64, i64, i64, i64, i64, i64, i64, i64, i64, i64, i64, i64, i64, i64, i64, i64, i64, i64, i64, i64, i64, i64, i64, i64, i64, i64, i64, i64, i64, i64, i64, i64, i64, i64, i64, i64, i64, i64, i64, i64, i64, i64, i64, i64, i64, i64, i64, i64, i64, i64, i64, i64, i64, i64, i64, i64, i64, i64, i64, i64, i64, i64, i64, i64, i64, i64, i64, i64, i64, i64, i64, i64, i64, i64, i64, i64, i64, i64, i64, i64, i64, i64, i64, i64, i64, i64, i64, i64, i64, i64, i64, i64, i64, i64, i64, i64, i64, i64, i64, i64, i64 }
%"class.std::__cxx11::basic_string" = type { %"struct.std::__cxx11::basic_string<char>::_Alloc_hider", i64, %union.anon }
%"struct.std::__cxx11::basic_string<char>::_Alloc_hider" = type { ptr }
%union.anon = type { i64, [8 x i8] }
%"struct.std::piecewise_construct_t" = type { i8 }
%"class.rocksdb::Slice" = type { ptr, i64 }
%"class.rocksdb::InternalKeyComparator" = type { %"class.rocksdb::CompareInterface", %"class.rocksdb::UserComparatorWrapper" }
%"class.rocksdb::CompareInterface" = type { ptr }
%"class.rocksdb::UserComparatorWrapper" = type { ptr }
%"class.rocksdb::Status" = type { i8, i8, i8, i8, i8, i8, %"class.std::unique_ptr" }
%"class.std::unique_ptr" = type { %"struct.std::__uniq_ptr_data" }
%"struct.std::__uniq_ptr_data" = type { %"class.std::__uniq_ptr_impl" }
%"class.std::__uniq_ptr_impl" = type { %"class.std::tuple" }
%"class.std::tuple" = type { %"struct.std::_Tuple_impl" }
%"struct.std::_Tuple_impl" = type { %"struct.std::_Head_base.1" }
%"struct.std::_Head_base.1" = type { ptr }
%"struct.rocksdb::ColumnFamilyOptions" = type <{ %"struct.rocksdb::AdvancedColumnFamilyOptions", ptr, %"class.std::shared_ptr.28", ptr, %"class.std::shared_ptr.31", i64, i8, i8, [6 x i8], %"struct.rocksdb::CompressionOptions", %"struct.rocksdb::CompressionOptions", i32, [4 x i8], %"class.std::shared_ptr", i64, i64, i8, [7 x i8], %"class.std::shared_ptr.34", %"class.std::vector.37", %"class.std::shared_ptr.42", %"class.std::shared_ptr.45", i32, [4 x i8] }>
%"struct.rocksdb::AdvancedColumnFamilyOptions" = type { i32, i32, i32, i64, i8, i64, double, ptr, double, i8, i64, %"class.std::shared_ptr", i32, i64, %"class.std::vector.2", i32, i32, i32, i64, i32, i8, i8, double, %"class.std::vector.7", i64, i8, i64, i64, i8, i8, [2 x i8], %"class.rocksdb::CompactionOptionsUniversal", %"struct.rocksdb::CompactionOptionsFIFO", i64, %"class.std::shared_ptr.17", %"class.std::vector.20", i64, i8, i8, i8, i8, i8, i64, i64, i64, i8, i8, i8, i64, i64, i8, i64, i64, i8, i8, double, double, i64, i32, %"class.std::shared_ptr.25", i8, i32, i8, i8, i32 }
%"class.std::vector.2" = type { %"struct.std::_Vector_base.3" }
%"struct.std::_Vector_base.3" = type { %"struct.std::_Vector_base<rocksdb::CompressionType, std::allocator<rocksdb::CompressionType>>::_Vector_impl" }
%"struct.std::_Vector_base<rocksdb::CompressionType, std::allocator<rocksdb::CompressionType>>::_Vector_impl" = type { %"struct.std::_Vector_base<rocksdb::CompressionType, std::allocator<rocksdb::CompressionType>>::_Vector_impl_data" }
%"struct.std::_Vector_base<rocksdb::CompressionType, std::allocator<rocksdb::CompressionType>>::_Vector_impl_data" = type { ptr, ptr, ptr }
%"class.std::vector.7" = type { %"struct.std::_Vector_base.8" }
%"struct.std::_Vector_base.8" = type { %"struct.std::_Vector_base<int, std::allocator<int>>::_Vector_impl" }
%"struct.std::_Vector_base<int, std::allocator<int>>::_Vector_impl" = type { %"struct.std::_Vector_base<int, std::allocator<int>>::_Vector_impl_data" }
%"struct.std::_Vector_base<int, std::allocator<int>>::_Vector_impl_data" = type { ptr, ptr, ptr }
%"class.rocksdb::CompactionOptionsUniversal" = type <{ i32, i32, i32, i32, i32, i32, i8, i8, [2 x i8] }>
%"struct.rocksdb::CompactionOptionsFIFO" = type { i64, i8, i64, %"class.std::vector.12" }
%"class.std::vector.12" = type { %"struct.std::_Vector_base.13" }
%"struct.std::_Vector_base.13" = type { %"struct.std::_Vector_base<rocksdb::FileTemperatureAge, std::allocator<rocksdb::FileTemperatureAge>>::_Vector_impl" }
%"struct.std::_Vector_base<rocksdb::FileTemperatureAge, std::allocator<rocksdb::FileTemperatureAge>>::_Vector_impl" = type { %"struct.std::_Vector_base<rocksdb::FileTemperatureAge, std::allocator<rocksdb::FileTemperatureAge>>::_Vector_impl_data" }
%"struct.std::_Vector_base<rocksdb::FileTemperatureAge, std::allocator<rocksdb::FileTemperatureAge>>::_Vector_impl_data" = type { ptr, ptr, ptr }
%"class.std::shared_ptr.17" = type { %"class.std::__shared_ptr.18" }
%"class.std::__shared_ptr.18" = type { ptr, %"class.std::__shared_count" }
%"class.std::__shared_count" = type { ptr }
%"class.std::vector.20" = type { %"struct.std::_Vector_base.21" }
%"struct.std::_Vector_base.21" = type { %"struct.std::_Vector_base<std::shared_ptr<rocksdb::TablePropertiesCollectorFactory>, std::allocator<std::shared_ptr<rocksdb::TablePropertiesCollectorFactory>>>::_Vector_impl" }
%"struct.std::_Vector_base<std::shared_ptr<rocksdb::TablePropertiesCollectorFactory>, std::allocator<std::shared_ptr<rocksdb::TablePropertiesCollectorFactory>>>::_Vector_impl" = type { %"struct.std::_Vector_base<std::shared_ptr<rocksdb::TablePropertiesCollectorFactory>, std::allocator<std::shared_ptr<rocksdb::TablePropertiesCollectorFactory>>>::_Vector_impl_data" }
%"struct.std::_Vector_base<std::shared_ptr<rocksdb::TablePropertiesCollectorFactory>, std::allocator<std::shared_ptr<rocksdb::TablePropertiesCollectorFactory>>>::_Vector_impl_data" = type { ptr, ptr, ptr }
%"class.std::shared_ptr.25" = type { %"class.std::__shared_ptr.26" }
%"class.std::__shared_ptr.26" = type { ptr, %"class.std::__shared_count" }
%"class.std::shared_ptr.28" = type { %"class.std::__shared_ptr.29" }
%"class.std::__shared_ptr.29" = type { ptr, %"class.std::__shared_count" }
%"class.std::shared_ptr.31" = type { %"class.std::__shared_ptr.32" }
%"class.std::__shared_ptr.32" = type { ptr, %"class.std::__shared_count" }
%"struct.rocksdb::CompressionOptions" = type <{ i32, i32, i32, i32, i32, i32, i8, [7 x i8], i64, i8, [3 x i8], i32, i8, [7 x i8] }>
%"class.std::shared_ptr" = type { %"class.std::__shared_ptr" }
%"class.std::__shared_ptr" = type { ptr, %"class.std::__shared_count" }
%"class.std::shared_ptr.34" = type { %"class.std::__shared_ptr.35" }
%"class.std::__shared_ptr.35" = type { ptr, %"class.std::__shared_count" }
%"class.std::vector.37" = type { %"struct.std::_Vector_base.38" }
%"struct.std::_Vector_base.38" = type { %"struct.std::_Vector_base<rocksdb::DbPath, std::allocator<rocksdb::DbPath>>::_Vector_impl" }
%"struct.std::_Vector_base<rocksdb::DbPath, std::allocator<rocksdb::DbPath>>::_Vector_impl" = type { %"struct.std::_Vector_base<rocksdb::DbPath, std::allocator<rocksdb::DbPath>>::_Vector_impl_data" }
%"struct.std::_Vector_base<rocksdb::DbPath, std::allocator<rocksdb::DbPath>>::_Vector_impl_data" = type { ptr, ptr, ptr }
%"class.std::shared_ptr.42" = type { %"class.std::__shared_ptr.43" }
%"class.std::__shared_ptr.43" = type { ptr, %"class.std::__shared_count" }
%"class.std::shared_ptr.45" = type { %"class.std::__shared_ptr.46" }
%"class.std::__shared_ptr.46" = type { ptr, %"class.std::__shared_count" }
%"class.rocksdb::(anonymous namespace)::Repairer" = type <{ %"class.std::__cxx11::basic_string", %"class.std::__cxx11::basic_string", ptr, %"struct.rocksdb::FileOptions", %"struct.rocksdb::DBOptions", %"struct.rocksdb::ImmutableDBOptions", %"class.rocksdb::InternalKeyComparator", %"struct.rocksdb::ColumnFamilyOptions", %"struct.rocksdb::ImmutableOptions", %"struct.rocksdb::ColumnFamilyOptions", i8, [7 x i8], %"class.std::shared_ptr.25", %"class.std::unique_ptr.90", %"class.rocksdb::WriteBufferManager", %"class.rocksdb::WriteController", %"class.rocksdb::VersionSet", %"class.std::unordered_map.160", %"class.rocksdb::InstrumentedMutex", %"class.std::vector.155", %"class.std::vector.174", %"class.std::vector.179", %"class.std::vector.184", i64, ptr, i8, [7 x i8] }>
%"struct.rocksdb::FileOptions" = type <{ %"struct.rocksdb::EnvOptions", %"struct.rocksdb::IOOptions", i8, i8, [6 x i8] }>
%"struct.rocksdb::EnvOptions" = type { i8, i8, i8, i8, i8, i8, i64, i8, i8, i64, i64, i64, ptr }
%"struct.rocksdb::IOOptions" = type <{ %"class.std::chrono::duration", i8, [3 x i8], i32, i8, [7 x i8], %"class.std::unordered_map", i8, i8, i8, [5 x i8] }>
%"class.std::chrono::duration" = type { i64 }
%"class.std::unordered_map" = type { %"class.std::_Hashtable" }
%"class.std::_Hashtable" = type { ptr, i64, %"struct.std::__detail::_Hash_node_base", i64, %"struct.std::__detail::_Prime_rehash_policy", ptr }
%"struct.std::__detail::_Hash_node_base" = type { ptr }
%"struct.std::__detail::_Prime_rehash_policy" = type { float, i64 }
%"struct.rocksdb::DBOptions" = type { i8, i8, i8, i8, i8, i8, i8, i8, ptr, %"class.std::shared_ptr.61", %"class.std::shared_ptr.64", %"class.std::shared_ptr.67", i8, i32, i32, i64, %"class.std::shared_ptr.70", i8, %"class.std::vector.37", %"class.std::__cxx11::basic_string", %"class.std::__cxx11::basic_string", i64, i32, i32, i32, i32, i64, i64, i64, i64, i64, i32, i64, i64, i64, i8, i8, i8, i8, i8, i8, i32, i32, i8, i64, i8, i64, %"class.std::shared_ptr.73", i32, i64, i64, i64, i8, i64, i64, i8, %"class.std::vector.76", i8, i64, i8, i8, i8, i8, i64, i64, i64, i8, i8, i8, i8, %"class.std::shared_ptr.25", ptr, i8, i8, i8, i8, i8, i8, i8, i8, i8, i8, i8, i64, %"class.std::shared_ptr.81", i8, i32, i64, i8, %"class.std::__cxx11::basic_string", %"class.rocksdb::SmallEnumSet", %"class.std::shared_ptr.84", i8, i8, %"class.std::__cxx11::basic_string" }
%"class.std::shared_ptr.61" = type { %"class.std::__shared_ptr.62" }
%"class.std::__shared_ptr.62" = type { ptr, %"class.std::__shared_count" }
%"class.std::shared_ptr.64" = type { %"class.std::__shared_ptr.65" }
%"class.std::__shared_ptr.65" = type { ptr, %"class.std::__shared_count" }
%"class.std::shared_ptr.67" = type { %"class.std::__shared_ptr.68" }
%"class.std::__shared_ptr.68" = type { ptr, %"class.std::__shared_count" }
%"class.std::shared_ptr.70" = type { %"class.std::__shared_ptr.71" }
%"class.std::__shared_ptr.71" = type { ptr, %"class.std::__shared_count" }
%"class.std::shared_ptr.73" = type { %"class.std::__shared_ptr.74" }
%"class.std::__shared_ptr.74" = type { ptr, %"class.std::__shared_count" }
%"class.std::vector.76" = type { %"struct.std::_Vector_base.77" }
%"struct.std::_Vector_base.77" = type { %"struct.std::_Vector_base<std::shared_ptr<rocksdb::EventListener>, std::allocator<std::shared_ptr<rocksdb::EventListener>>>::_Vector_impl" }
%"struct.std::_Vector_base<std::shared_ptr<rocksdb::EventListener>, std::allocator<std::shared_ptr<rocksdb::EventListener>>>::_Vector_impl" = type { %"struct.std::_Vector_base<std::shared_ptr<rocksdb::EventListener>, std::allocator<std::shared_ptr<rocksdb::EventListener>>>::_Vector_impl_data" }
%"struct.std::_Vector_base<std::shared_ptr<rocksdb::EventListener>, std::allocator<std::shared_ptr<rocksdb::EventListener>>>::_Vector_impl_data" = type { ptr, ptr, ptr }
%"class.std::shared_ptr.81" = type { %"class.std::__shared_ptr.82" }
%"class.std::__shared_ptr.82" = type { ptr, %"class.std::__shared_count" }
%"class.rocksdb::SmallEnumSet" = type { i64 }
%"class.std::shared_ptr.84" = type { %"class.std::__shared_ptr.85" }
%"class.std::__shared_ptr.85" = type { ptr, %"class.std::__shared_count" }
%"struct.rocksdb::ImmutableDBOptions" = type <{ i8, i8, i8, i8, i8, i8, i8, i8, ptr, %"class.std::shared_ptr.61", %"class.std::shared_ptr.64", %"class.std::shared_ptr.67", i8, [3 x i8], i32, %"class.std::shared_ptr.70", i8, [7 x i8], %"class.std::vector.37", %"class.std::__cxx11::basic_string", %"class.std::__cxx11::basic_string", i64, i64, i64, i64, i64, i32, [4 x i8], i64, i64, i64, i64, i8, i8, i8, i8, i8, i8, i8, i8, i64, %"class.std::shared_ptr.73", i32, [4 x i8], i64, i8, [7 x i8], %"class.std::vector.76", i8, i8, i8, i8, i8, [3 x i8], i64, i64, i8, i8, i8, i8, [4 x i8], %"class.std::shared_ptr.25", ptr, i8, i8, i8, i8, i8, i8, i8, i8, i8, i8, i8, [5 x i8], i64, %"class.std::shared_ptr.81", i8, [3 x i8], i32, i64, i8, [7 x i8], %"class.std::__cxx11::basic_string", %"class.rocksdb::SmallEnumSet", i8, [7 x i8], %"class.std::shared_ptr.87", ptr, ptr, ptr, %"class.std::shared_ptr.84", i8, [7 x i8] }>
%"class.std::shared_ptr.87" = type { %"class.std::__shared_ptr.88" }
%"class.std::__shared_ptr.88" = type { ptr, %"class.std::__shared_count" }
%"struct.rocksdb::ImmutableOptions" = type { %"struct.rocksdb::ImmutableDBOptions.base", [7 x i8], %"struct.rocksdb::ImmutableCFOptions.base", [7 x i8] }
%"struct.rocksdb::ImmutableDBOptions.base" = type <{ i8, i8, i8, i8, i8, i8, i8, i8, ptr, %"class.std::shared_ptr.61", %"class.std::shared_ptr.64", %"class.std::shared_ptr.67", i8, [3 x i8], i32, %"class.std::shared_ptr.70", i8, [7 x i8], %"class.std::vector.37", %"class.std::__cxx11::basic_string", %"class.std::__cxx11::basic_string", i64, i64, i64, i64, i64, i32, [4 x i8], i64, i64, i64, i64, i8, i8, i8, i8, i8, i8, i8, i8, i64, %"class.std::shared_ptr.73", i32, [4 x i8], i64, i8, [7 x i8], %"class.std::vector.76", i8, i8, i8, i8, i8, [3 x i8], i64, i64, i8, i8, i8, i8, [4 x i8], %"class.std::shared_ptr.25", ptr, i8, i8, i8, i8, i8, i8, i8, i8, i8, i8, i8, [5 x i8], i64, %"class.std::shared_ptr.81", i8, [3 x i8], i32, i64, i8, [7 x i8], %"class.std::__cxx11::basic_string", %"class.rocksdb::SmallEnumSet", i8, [7 x i8], %"class.std::shared_ptr.87", ptr, ptr, ptr, %"class.std::shared_ptr.84", i8 }>
%"struct.rocksdb::ImmutableCFOptions.base" = type <{ i8, i8, [6 x i8], ptr, %"class.rocksdb::InternalKeyComparator", %"class.std::shared_ptr.28", ptr, %"class.std::shared_ptr.31", i32, i32, i64, i8, [7 x i8], ptr, %"class.std::shared_ptr.17", %"class.std::shared_ptr.34", %"class.std::vector.20", i32, i8, i8, [2 x i8], i32, i8, i8, i8, i8, i64, i64, %"class.std::shared_ptr", %"class.std::vector.37", %"class.std::shared_ptr.42", %"class.std::shared_ptr.45", %"class.std::shared_ptr.25", i8 }>
%"class.std::unique_ptr.90" = type { %"struct.std::__uniq_ptr_data.91" }
%"struct.std::__uniq_ptr_data.91" = type { %"class.std::__uniq_ptr_impl.92" }
%"class.std::__uniq_ptr_impl.92" = type { %"class.std::tuple.93" }
%"class.std::tuple.93" = type { %"struct.std::_Tuple_impl.94" }
%"struct.std::_Tuple_impl.94" = type { %"struct.std::_Head_base.97" }
%"struct.std::_Head_base.97" = type { ptr }
%"class.rocksdb::WriteBufferManager" = type <{ %"struct.std::atomic", %"struct.std::atomic", %"struct.std::atomic", %"struct.std::atomic", %"class.std::shared_ptr.98", %"class.std::mutex", %"class.std::__cxx11::list", %"class.std::mutex", %"struct.std::atomic.104", %"struct.std::atomic.104", [6 x i8] }>
%"struct.std::atomic" = type { %"struct.std::__atomic_base" }
%"struct.std::__atomic_base" = type { i64 }
%"class.std::shared_ptr.98" = type { %"class.std::__shared_ptr.99" }
%"class.std::__shared_ptr.99" = type { ptr, %"class.std::__shared_count" }
%"class.std::__cxx11::list" = type { %"class.std::__cxx11::_List_base" }
%"class.std::__cxx11::_List_base" = type { %"struct.std::__cxx11::_List_base<rocksdb::StallInterface *, std::allocator<rocksdb::StallInterface *>>::_List_impl" }
%"struct.std::__cxx11::_List_base<rocksdb::StallInterface *, std::allocator<rocksdb::StallInterface *>>::_List_impl" = type { %"struct.std::__detail::_List_node_header" }
%"struct.std::__detail::_List_node_header" = type { %"struct.std::__detail::_List_node_base", i64 }
%"struct.std::__detail::_List_node_base" = type { ptr, ptr }
%"class.std::mutex" = type { %"class.std::__mutex_base" }
%"class.std::__mutex_base" = type { %union.pthread_mutex_t }
%union.pthread_mutex_t = type { %struct.__pthread_mutex_s }
%struct.__pthread_mutex_s = type { i32, i32, i32, i32, i32, i16, i16, %struct.__pthread_internal_list }
%struct.__pthread_internal_list = type { ptr, ptr }
%"struct.std::atomic.104" = type { %"struct.std::__atomic_base.105" }
%"struct.std::__atomic_base.105" = type { i8 }
%"class.rocksdb::WriteController" = type { %"struct.std::atomic.106", %"struct.std::atomic.106", %"struct.std::atomic.106", i64, i64, i64, i64, %"class.std::unique_ptr.108" }
%"struct.std::atomic.106" = type { %"struct.std::__atomic_base.107" }
%"struct.std::__atomic_base.107" = type { i32 }
%"class.std::unique_ptr.108" = type { %"struct.std::__uniq_ptr_data.109" }
%"struct.std::__uniq_ptr_data.109" = type { %"class.std::__uniq_ptr_impl.110" }
%"class.std::__uniq_ptr_impl.110" = type { %"class.std::tuple.111" }
%"class.std::tuple.111" = type { %"struct.std::_Tuple_impl.112" }
%"struct.std::_Tuple_impl.112" = type { %"struct.std::_Head_base.115" }
%"struct.std::_Head_base.115" = type { ptr }
%"class.rocksdb::VersionSet" = type { ptr, %"class.rocksdb::WalSet", %"class.std::unique_ptr.120", ptr, ptr, %"class.rocksdb::FileSystemPtr", ptr, %"class.std::__cxx11::basic_string", %"class.std::__cxx11::basic_string", ptr, %"struct.std::atomic", %"struct.std::atomic", i64, i64, i64, i64, %"struct.std::atomic", i64, %"struct.std::atomic", %"struct.std::atomic", i64, %"class.std::unique_ptr.134", i64, %"class.std::deque", i64, %"class.std::vector.145", %"class.std::vector.150", %"class.std::vector.155", %"struct.rocksdb::FileOptions", ptr, %"class.rocksdb::IOStatus", %"class.std::shared_ptr.128", %"class.std::__cxx11::basic_string", %"struct.rocksdb::OffpeakTimeOption", ptr }
%"class.rocksdb::WalSet" = type { %"class.std::map", i64 }
%"class.std::map" = type { %"class.std::_Rb_tree" }
%"class.std::_Rb_tree" = type { %"struct.std::_Rb_tree<unsigned long, std::pair<const unsigned long, rocksdb::WalMetadata>, std::_Select1st<std::pair<const unsigned long, rocksdb::WalMetadata>>, std::less<unsigned long>>::_Rb_tree_impl" }
%"struct.std::_Rb_tree<unsigned long, std::pair<const unsigned long, rocksdb::WalMetadata>, std::_Select1st<std::pair<const unsigned long, rocksdb::WalMetadata>>, std::less<unsigned long>>::_Rb_tree_impl" = type { %"struct.std::_Rb_tree_key_compare", %"struct.std::_Rb_tree_header" }
%"struct.std::_Rb_tree_key_compare" = type { %"struct.std::less" }
%"struct.std::less" = type { i8 }
%"struct.std::_Rb_tree_header" = type { %"struct.std::_Rb_tree_node_base", i64 }
%"struct.std::_Rb_tree_node_base" = type { i32, ptr, ptr, ptr }
%"class.std::unique_ptr.120" = type { %"struct.std::__uniq_ptr_data.121" }
%"struct.std::__uniq_ptr_data.121" = type { %"class.std::__uniq_ptr_impl.122" }
%"class.std::__uniq_ptr_impl.122" = type { %"class.std::tuple.123" }
%"class.std::tuple.123" = type { %"struct.std::_Tuple_impl.124" }
%"struct.std::_Tuple_impl.124" = type { %"struct.std::_Head_base.127" }
%"struct.std::_Head_base.127" = type { ptr }
%"class.rocksdb::FileSystemPtr" = type { %"class.std::shared_ptr.87", %"class.std::shared_ptr.128", %"class.std::shared_ptr.131" }
%"class.std::shared_ptr.131" = type { %"class.std::__shared_ptr.132" }
%"class.std::__shared_ptr.132" = type { ptr, %"class.std::__shared_count" }
%"class.std::unique_ptr.134" = type { %"struct.std::__uniq_ptr_data.135" }
%"struct.std::__uniq_ptr_data.135" = type { %"class.std::__uniq_ptr_impl.136" }
%"class.std::__uniq_ptr_impl.136" = type { %"class.std::tuple.137" }
%"class.std::tuple.137" = type { %"struct.std::_Tuple_impl.138" }
%"struct.std::_Tuple_impl.138" = type { %"struct.std::_Head_base.141" }
%"struct.std::_Head_base.141" = type { ptr }
%"class.std::deque" = type { %"class.std::_Deque_base" }
%"class.std::_Deque_base" = type { %"struct.std::_Deque_base<rocksdb::VersionSet::ManifestWriter *, std::allocator<rocksdb::VersionSet::ManifestWriter *>>::_Deque_impl" }
%"struct.std::_Deque_base<rocksdb::VersionSet::ManifestWriter *, std::allocator<rocksdb::VersionSet::ManifestWriter *>>::_Deque_impl" = type { %"struct.std::_Deque_base<rocksdb::VersionSet::ManifestWriter *, std::allocator<rocksdb::VersionSet::ManifestWriter *>>::_Deque_impl_data" }
%"struct.std::_Deque_base<rocksdb::VersionSet::ManifestWriter *, std::allocator<rocksdb::VersionSet::ManifestWriter *>>::_Deque_impl_data" = type { ptr, i64, %"struct.std::_Deque_iterator", %"struct.std::_Deque_iterator" }
%"struct.std::_Deque_iterator" = type { ptr, ptr, ptr, ptr }
%"class.std::vector.145" = type { %"struct.std::_Vector_base.146" }
%"struct.std::_Vector_base.146" = type { %"struct.std::_Vector_base<rocksdb::ObsoleteFileInfo, std::allocator<rocksdb::ObsoleteFileInfo>>::_Vector_impl" }
%"struct.std::_Vector_base<rocksdb::ObsoleteFileInfo, std::allocator<rocksdb::ObsoleteFileInfo>>::_Vector_impl" = type { %"struct.std::_Vector_base<rocksdb::ObsoleteFileInfo, std::allocator<rocksdb::ObsoleteFileInfo>>::_Vector_impl_data" }
%"struct.std::_Vector_base<rocksdb::ObsoleteFileInfo, std::allocator<rocksdb::ObsoleteFileInfo>>::_Vector_impl_data" = type { ptr, ptr, ptr }
%"class.std::vector.150" = type { %"struct.std::_Vector_base.151" }
%"struct.std::_Vector_base.151" = type { %"struct.std::_Vector_base<rocksdb::ObsoleteBlobFileInfo, std::allocator<rocksdb::ObsoleteBlobFileInfo>>::_Vector_impl" }
%"struct.std::_Vector_base<rocksdb::ObsoleteBlobFileInfo, std::allocator<rocksdb::ObsoleteBlobFileInfo>>::_Vector_impl" = type { %"struct.std::_Vector_base<rocksdb::ObsoleteBlobFileInfo, std::allocator<rocksdb::ObsoleteBlobFileInfo>>::_Vector_impl_data" }
%"struct.std::_Vector_base<rocksdb::ObsoleteBlobFileInfo, std::allocator<rocksdb::ObsoleteBlobFileInfo>>::_Vector_impl_data" = type { ptr, ptr, ptr }
%"class.rocksdb::IOStatus" = type { %"class.rocksdb::Status" }
%"class.std::shared_ptr.128" = type { %"class.std::__shared_ptr.129" }
%"class.std::__shared_ptr.129" = type { ptr, %"class.std::__shared_count" }
%"struct.rocksdb::OffpeakTimeOption" = type { %"class.std::__cxx11::basic_string", i32, i32 }
%"class.std::unordered_map.160" = type { %"class.std::_Hashtable.161" }
%"class.std::_Hashtable.161" = type { ptr, i64, %"struct.std::__detail::_Hash_node_base", i64, %"struct.std::__detail::_Prime_rehash_policy", ptr }
%"class.rocksdb::InstrumentedMutex" = type <{ %"class.rocksdb::port::Mutex", ptr, ptr, i32, [4 x i8] }>
%"class.rocksdb::port::Mutex" = type { %union.pthread_mutex_t }
%"class.std::vector.155" = type { %"struct.std::_Vector_base.156" }
%"struct.std::_Vector_base.156" = type { %"struct.std::_Vector_base<std::__cxx11::basic_string<char>, std::allocator<std::__cxx11::basic_string<char>>>::_Vector_impl" }
%"struct.std::_Vector_base<std::__cxx11::basic_string<char>, std::allocator<std::__cxx11::basic_string<char>>>::_Vector_impl" = type { %"struct.std::_Vector_base<std::__cxx11::basic_string<char>, std::allocator<std::__cxx11::basic_string<char>>>::_Vector_impl_data" }
%"struct.std::_Vector_base<std::__cxx11::basic_string<char>, std::allocator<std::__cxx11::basic_string<char>>>::_Vector_impl_data" = type { ptr, ptr, ptr }
%"class.std::vector.174" = type { %"struct.std::_Vector_base.175" }
%"struct.std::_Vector_base.175" = type { %"struct.std::_Vector_base<rocksdb::FileDescriptor, std::allocator<rocksdb::FileDescriptor>>::_Vector_impl" }
%"struct.std::_Vector_base<rocksdb::FileDescriptor, std::allocator<rocksdb::FileDescriptor>>::_Vector_impl" = type { %"struct.std::_Vector_base<rocksdb::FileDescriptor, std::allocator<rocksdb::FileDescriptor>>::_Vector_impl_data" }
%"struct.std::_Vector_base<rocksdb::FileDescriptor, std::allocator<rocksdb::FileDescriptor>>::_Vector_impl_data" = type { ptr, ptr, ptr }
%"class.std::vector.179" = type { %"struct.std::_Vector_base.180" }
%"struct.std::_Vector_base.180" = type { %"struct.std::_Vector_base<unsigned long, std::allocator<unsigned long>>::_Vector_impl" }
%"struct.std::_Vector_base<unsigned long, std::allocator<unsigned long>>::_Vector_impl" = type { %"struct.std::_Vector_base<unsigned long, std::allocator<unsigned long>>::_Vector_impl_data" }
%"struct.std::_Vector_base<unsigned long, std::allocator<unsigned long>>::_Vector_impl_data" = type { ptr, ptr, ptr }
%"class.std::vector.184" = type { %"struct.std::_Vector_base.185" }
%"struct.std::_Vector_base.185" = type { %"struct.std::_Vector_base<rocksdb::(anonymous namespace)::Repairer::TableInfo, std::allocator<rocksdb::(anonymous namespace)::Repairer::TableInfo>>::_Vector_impl" }
%"struct.std::_Vector_base<rocksdb::(anonymous namespace)::Repairer::TableInfo, std::allocator<rocksdb::(anonymous namespace)::Repairer::TableInfo>>::_Vector_impl" = type { %"struct.std::_Vector_base<rocksdb::(anonymous namespace)::Repairer::TableInfo, std::allocator<rocksdb::(anonymous namespace)::Repairer::TableInfo>>::_Vector_impl_data" }
%"struct.std::_Vector_base<rocksdb::(anonymous namespace)::Repairer::TableInfo, std::allocator<rocksdb::(anonymous namespace)::Repairer::TableInfo>>::_Vector_impl_data" = type { ptr, ptr, ptr }
%"struct.std::_Vector_base<rocksdb::ColumnFamilyDescriptor, std::allocator<rocksdb::ColumnFamilyDescriptor>>::_Vector_impl_data" = type { ptr, ptr, ptr }
%"struct.rocksdb::ColumnFamilyDescriptor" = type { %"class.std::__cxx11::basic_string", %"struct.rocksdb::ColumnFamilyOptions" }
%"struct.rocksdb::LRUCacheOptions" = type <{ %"struct.rocksdb::ShardedCacheOptions.base", [4 x i8], double, double, i8, [7 x i8] }>
%"struct.rocksdb::ShardedCacheOptions.base" = type <{ ptr, i64, i32, i8, [3 x i8], %"class.std::shared_ptr.207", i32, [4 x i8], %"class.std::shared_ptr.218", i32 }>
%"class.std::shared_ptr.207" = type { %"class.std::__shared_ptr.208" }
%"class.std::__shared_ptr.208" = type { ptr, %"class.std::__shared_count" }
%"class.std::shared_ptr.218" = type { %"class.std::__shared_ptr.219" }
%"class.std::__shared_ptr.219" = type { ptr, %"class.std::__shared_count" }
%"class.std::allocator.53" = type { i8 }
%"struct.rocksdb::ShardedCacheOptions" = type <{ ptr, i64, i32, i8, [3 x i8], %"class.std::shared_ptr.207", i32, [4 x i8], %"class.std::shared_ptr.218", i32, [4 x i8] }>
%"class.std::_Sp_counted_base" = type { ptr, i32, i32 }
%"struct.rocksdb::DbPath" = type { %"class.std::__cxx11::basic_string", i64 }
%"struct.rocksdb::FileMetaData" = type <{ %"struct.rocksdb::FileDescriptor", %"class.rocksdb::InternalKey", %"class.rocksdb::InternalKey", ptr, %"struct.rocksdb::FileSampledStats", i64, i64, i64, i64, i64, i64, i64, i32, i8, i8, i8, i8, i64, i64, i64, i64, %"class.std::__cxx11::basic_string", %"class.std::__cxx11::basic_string", %"struct.std::array", i64, i8, [7 x i8] }>
%"struct.rocksdb::FileDescriptor" = type { ptr, i64, i64, i64, i64 }
%"class.rocksdb::InternalKey" = type { %"class.std::__cxx11::basic_string" }
%"struct.rocksdb::FileSampledStats" = type { %"struct.std::atomic" }
%"struct.std::array" = type { [2 x i64] }
%"struct.rocksdb::ReadOptions" = type <{ ptr, ptr, ptr, %"class.std::chrono::duration", %"class.std::chrono::duration", i32, i32, i64, %"class.std::optional", i8, i8, i8, i8, i8, [3 x i8], i64, i64, ptr, ptr, i8, i8, i8, i8, i8, i8, i8, i8, %"class.std::function", i8, i8, [6 x i8] }>
%"class.std::optional" = type { %"struct.std::_Optional_base" }
%"struct.std::_Optional_base" = type { %"struct.std::_Optional_payload" }
%"struct.std::_Optional_payload" = type { %"struct.std::_Optional_payload_base.base", [7 x i8] }
%"struct.std::_Optional_payload_base.base" = type <{ %"union.std::_Optional_payload_base<unsigned long>::_Storage", i8 }>
%"union.std::_Optional_payload_base<unsigned long>::_Storage" = type { i64 }
%"class.std::function" = type { %"class.std::_Function_base", ptr }
%"class.std::_Function_base" = type { %"union.std::_Any_data", ptr }
%"union.std::_Any_data" = type { %"union.std::_Nocopy_types" }
%"union.std::_Nocopy_types" = type { { i64, i64 } }
%"class.std::unordered_map.860" = type { %"class.std::_Hashtable.861" }
%"class.std::_Hashtable.861" = type { ptr, i64, %"struct.std::__detail::_Hash_node_base", i64, %"struct.std::__detail::_Prime_rehash_policy", ptr }
%"class.rocksdb::VersionBuilder" = type { %"class.std::unique_ptr.883" }
%"class.std::unique_ptr.883" = type { %"struct.std::__uniq_ptr_data.884" }
%"struct.std::__uniq_ptr_data.884" = type { %"class.std::__uniq_ptr_impl.885" }
%"class.std::__uniq_ptr_impl.885" = type { %"class.std::tuple.886" }
%"class.std::tuple.886" = type { %"struct.std::_Tuple_impl.887" }
%"struct.std::_Tuple_impl.887" = type { %"struct.std::_Head_base.890" }
%"struct.std::_Head_base.890" = type { ptr }
%"class.rocksdb::VersionStorageInfo" = type { ptr, ptr, i32, i32, %"class.std::vector.179", %"class.rocksdb::autovector.891", %"class.rocksdb::FileIndexer", [8 x i8], %"class.rocksdb::Arena", i8, ptr, %"class.std::unordered_map.903", %"class.std::vector.917", i32, i32, double, %"class.std::vector.922", i8, %"class.std::vector.7", %"class.rocksdb::autovector.927", %"class.rocksdb::autovector.927", %"class.rocksdb::autovector.927", %"class.rocksdb::autovector.927", %"class.rocksdb::autovector.927", %"class.rocksdb::autovector.927", i64, i64, %"class.std::vector.933", %"class.std::vector.7", i32, %"class.std::vector.938", i64, i64, i64, i64, i64, i64, i64, i64, i64, ptr, i32, i8, i8, i32, %"struct.rocksdb::OffpeakTimeOption" }
%"class.rocksdb::autovector.891" = type { i64, [128 x i8], ptr, %"class.std::vector.892" }
%"class.std::vector.892" = type { %"struct.std::_Vector_base.893" }
%"struct.std::_Vector_base.893" = type { %"struct.std::_Vector_base<rocksdb::LevelFilesBrief, std::allocator<rocksdb::LevelFilesBrief>>::_Vector_impl" }
%"struct.std::_Vector_base<rocksdb::LevelFilesBrief, std::allocator<rocksdb::LevelFilesBrief>>::_Vector_impl" = type { %"struct.std::_Vector_base<rocksdb::LevelFilesBrief, std::allocator<rocksdb::LevelFilesBrief>>::_Vector_impl_data" }
%"struct.std::_Vector_base<rocksdb::LevelFilesBrief, std::allocator<rocksdb::LevelFilesBrief>>::_Vector_impl_data" = type { ptr, ptr, ptr }
%"class.rocksdb::FileIndexer" = type { i64, ptr, %"class.rocksdb::autovector.897", ptr }
%"class.rocksdb::autovector.897" = type { i64, [128 x i8], ptr, %"class.std::vector.898" }
%"class.std::vector.898" = type { %"struct.std::_Vector_base.899" }
%"struct.std::_Vector_base.899" = type { %"struct.std::_Vector_base<rocksdb::FileIndexer::IndexLevel, std::allocator<rocksdb::FileIndexer::IndexLevel>>::_Vector_impl" }
%"struct.std::_Vector_base<rocksdb::FileIndexer::IndexLevel, std::allocator<rocksdb::FileIndexer::IndexLevel>>::_Vector_impl" = type { %"struct.std::_Vector_base<rocksdb::FileIndexer::IndexLevel, std::allocator<rocksdb::FileIndexer::IndexLevel>>::_Vector_impl_data" }
%"struct.std::_Vector_base<rocksdb::FileIndexer::IndexLevel, std::allocator<rocksdb::FileIndexer::IndexLevel>>::_Vector_impl_data" = type { ptr, ptr, ptr }
%"class.rocksdb::Arena" = type { %"class.rocksdb::Allocator", [8 x i8], [2048 x i8], i64, %"class.std::deque.761", %"class.std::deque.767", i64, ptr, ptr, i64, i64, i64, ptr }
%"class.rocksdb::Allocator" = type { ptr }
%"class.std::deque.761" = type { %"class.std::_Deque_base.762" }
%"class.std::_Deque_base.762" = type { %"struct.std::_Deque_base<std::unique_ptr<char[]>, std::allocator<std::unique_ptr<char[]>>>::_Deque_impl" }
%"struct.std::_Deque_base<std::unique_ptr<char[]>, std::allocator<std::unique_ptr<char[]>>>::_Deque_impl" = type { %"struct.std::_Deque_base<std::unique_ptr<char[]>, std::allocator<std::unique_ptr<char[]>>>::_Deque_impl_data" }
%"struct.std::_Deque_base<std::unique_ptr<char[]>, std::allocator<std::unique_ptr<char[]>>>::_Deque_impl_data" = type { ptr, i64, %"struct.std::_Deque_iterator.766", %"struct.std::_Deque_iterator.766" }
%"struct.std::_Deque_iterator.766" = type { ptr, ptr, ptr, ptr }
%"class.std::deque.767" = type { %"class.std::_Deque_base.768" }
%"class.std::_Deque_base.768" = type { %"struct.std::_Deque_base<rocksdb::MemMapping, std::allocator<rocksdb::MemMapping>>::_Deque_impl" }
%"struct.std::_Deque_base<rocksdb::MemMapping, std::allocator<rocksdb::MemMapping>>::_Deque_impl" = type { %"struct.std::_Deque_base<rocksdb::MemMapping, std::allocator<rocksdb::MemMapping>>::_Deque_impl_data" }
%"struct.std::_Deque_base<rocksdb::MemMapping, std::allocator<rocksdb::MemMapping>>::_Deque_impl_data" = type { ptr, i64, %"struct.std::_Deque_iterator.772", %"struct.std::_Deque_iterator.772" }
%"struct.std::_Deque_iterator.772" = type { ptr, ptr, ptr, ptr }
%"class.std::unordered_map.903" = type { %"class.std::_Hashtable.904" }
%"class.std::_Hashtable.904" = type { ptr, i64, %"struct.std::__detail::_Hash_node_base", i64, %"struct.std::__detail::_Prime_rehash_policy", ptr }
%"class.std::vector.917" = type { %"struct.std::_Vector_base.918" }
%"struct.std::_Vector_base.918" = type { %"struct.std::_Vector_base<std::shared_ptr<rocksdb::BlobFileMetaData>, std::allocator<std::shared_ptr<rocksdb::BlobFileMetaData>>>::_Vector_impl" }
%"struct.std::_Vector_base<std::shared_ptr<rocksdb::BlobFileMetaData>, std::allocator<std::shared_ptr<rocksdb::BlobFileMetaData>>>::_Vector_impl" = type { %"struct.std::_Vector_base<std::shared_ptr<rocksdb::BlobFileMetaData>, std::allocator<std::shared_ptr<rocksdb::BlobFileMetaData>>>::_Vector_impl_data" }
%"struct.std::_Vector_base<std::shared_ptr<rocksdb::BlobFileMetaData>, std::allocator<std::shared_ptr<rocksdb::BlobFileMetaData>>>::_Vector_impl_data" = type { ptr, ptr, ptr }
%"class.std::vector.922" = type { %"struct.std::_Vector_base.923" }
%"struct.std::_Vector_base.923" = type { %"struct.std::_Vector_base<std::vector<int>, std::allocator<std::vector<int>>>::_Vector_impl" }
%"struct.std::_Vector_base<std::vector<int>, std::allocator<std::vector<int>>>::_Vector_impl" = type { %"struct.std::_Vector_base<std::vector<int>, std::allocator<std::vector<int>>>::_Vector_impl_data" }
%"struct.std::_Vector_base<std::vector<int>, std::allocator<std::vector<int>>>::_Vector_impl_data" = type { ptr, ptr, ptr }
%"class.rocksdb::autovector.927" = type { i64, [128 x i8], ptr, %"class.std::vector.928" }
%"class.std::vector.928" = type { %"struct.std::_Vector_base.929" }
%"struct.std::_Vector_base.929" = type { %"struct.std::_Vector_base<std::pair<int, rocksdb::FileMetaData *>, std::allocator<std::pair<int, rocksdb::FileMetaData *>>>::_Vector_impl" }
%"struct.std::_Vector_base<std::pair<int, rocksdb::FileMetaData *>, std::allocator<std::pair<int, rocksdb::FileMetaData *>>>::_Vector_impl" = type { %"struct.std::_Vector_base<std::pair<int, rocksdb::FileMetaData *>, std::allocator<std::pair<int, rocksdb::FileMetaData *>>>::_Vector_impl_data" }
%"struct.std::_Vector_base<std::pair<int, rocksdb::FileMetaData *>, std::allocator<std::pair<int, rocksdb::FileMetaData *>>>::_Vector_impl_data" = type { ptr, ptr, ptr }
%"class.std::vector.933" = type { %"struct.std::_Vector_base.934" }
%"struct.std::_Vector_base.934" = type { %"struct.std::_Vector_base<double, std::allocator<double>>::_Vector_impl" }
%"struct.std::_Vector_base<double, std::allocator<double>>::_Vector_impl" = type { %"struct.std::_Vector_base<double, std::allocator<double>>::_Vector_impl_data" }
%"struct.std::_Vector_base<double, std::allocator<double>>::_Vector_impl_data" = type { ptr, ptr, ptr }
%"class.std::vector.938" = type { %"struct.std::_Vector_base.939" }
%"struct.std::_Vector_base.939" = type { %"struct.std::_Vector_base<rocksdb::InternalKey, std::allocator<rocksdb::InternalKey>>::_Vector_impl" }
%"struct.std::_Vector_base<rocksdb::InternalKey, std::allocator<rocksdb::InternalKey>>::_Vector_impl" = type { %"struct.std::_Vector_base<rocksdb::InternalKey, std::allocator<rocksdb::InternalKey>>::_Vector_impl_data" }
%"struct.std::_Vector_base<rocksdb::InternalKey, std::allocator<rocksdb::InternalKey>>::_Vector_impl_data" = type { ptr, ptr, ptr }
%"class.rocksdb::VersionEdit" = type { i32, %"class.std::__cxx11::basic_string", %"class.std::__cxx11::basic_string", i64, i64, i64, i32, i64, i64, i8, i8, i8, i8, i8, i8, i8, i8, i8, %"class.std::vector.640", %"class.std::set", %"class.std::vector.652", %"class.std::vector.657", %"class.std::vector.662", %"class.std::vector.667", %"class.rocksdb::WalDeletion", i32, i8, i8, %"class.std::__cxx11::basic_string", i8, i32, %"class.std::__cxx11::basic_string", i8, %"class.rocksdb::autovector" }
%"class.std::vector.640" = type { %"struct.std::_Vector_base.641" }
%"struct.std::_Vector_base.641" = type { %"struct.std::_Vector_base<std::pair<int, rocksdb::InternalKey>, std::allocator<std::pair<int, rocksdb::InternalKey>>>::_Vector_impl" }
%"struct.std::_Vector_base<std::pair<int, rocksdb::InternalKey>, std::allocator<std::pair<int, rocksdb::InternalKey>>>::_Vector_impl" = type { %"struct.std::_Vector_base<std::pair<int, rocksdb::InternalKey>, std::allocator<std::pair<int, rocksdb::InternalKey>>>::_Vector_impl_data" }
%"struct.std::_Vector_base<std::pair<int, rocksdb::InternalKey>, std::allocator<std::pair<int, rocksdb::InternalKey>>>::_Vector_impl_data" = type { ptr, ptr, ptr }
%"class.std::set" = type { %"class.std::_Rb_tree.645" }
%"class.std::_Rb_tree.645" = type { %"struct.std::_Rb_tree<std::pair<int, unsigned long>, std::pair<int, unsigned long>, std::_Identity<std::pair<int, unsigned long>>, std::less<std::pair<int, unsigned long>>>::_Rb_tree_impl" }
%"struct.std::_Rb_tree<std::pair<int, unsigned long>, std::pair<int, unsigned long>, std::_Identity<std::pair<int, unsigned long>>, std::less<std::pair<int, unsigned long>>>::_Rb_tree_impl" = type { %"struct.std::_Rb_tree_key_compare.649", %"struct.std::_Rb_tree_header" }
%"struct.std::_Rb_tree_key_compare.649" = type { %"struct.std::less.650" }
%"struct.std::less.650" = type { i8 }
%"class.std::vector.652" = type { %"struct.std::_Vector_base.653" }
%"struct.std::_Vector_base.653" = type { %"struct.std::_Vector_base<std::pair<int, rocksdb::FileMetaData>, std::allocator<std::pair<int, rocksdb::FileMetaData>>>::_Vector_impl" }
%"struct.std::_Vector_base<std::pair<int, rocksdb::FileMetaData>, std::allocator<std::pair<int, rocksdb::FileMetaData>>>::_Vector_impl" = type { %"struct.std::_Vector_base<std::pair<int, rocksdb::FileMetaData>, std::allocator<std::pair<int, rocksdb::FileMetaData>>>::_Vector_impl_data" }
%"struct.std::_Vector_base<std::pair<int, rocksdb::FileMetaData>, std::allocator<std::pair<int, rocksdb::FileMetaData>>>::_Vector_impl_data" = type { ptr, ptr, ptr }
%"class.std::vector.657" = type { %"struct.std::_Vector_base.658" }
%"struct.std::_Vector_base.658" = type { %"struct.std::_Vector_base<rocksdb::BlobFileAddition, std::allocator<rocksdb::BlobFileAddition>>::_Vector_impl" }
%"struct.std::_Vector_base<rocksdb::BlobFileAddition, std::allocator<rocksdb::BlobFileAddition>>::_Vector_impl" = type { %"struct.std::_Vector_base<rocksdb::BlobFileAddition, std::allocator<rocksdb::BlobFileAddition>>::_Vector_impl_data" }
%"struct.std::_Vector_base<rocksdb::BlobFileAddition, std::allocator<rocksdb::BlobFileAddition>>::_Vector_impl_data" = type { ptr, ptr, ptr }
%"class.std::vector.662" = type { %"struct.std::_Vector_base.663" }
%"struct.std::_Vector_base.663" = type { %"struct.std::_Vector_base<rocksdb::BlobFileGarbage, std::allocator<rocksdb::BlobFileGarbage>>::_Vector_impl" }
%"struct.std::_Vector_base<rocksdb::BlobFileGarbage, std::allocator<rocksdb::BlobFileGarbage>>::_Vector_impl" = type { %"struct.std::_Vector_base<rocksdb::BlobFileGarbage, std::allocator<rocksdb::BlobFileGarbage>>::_Vector_impl_data" }
%"struct.std::_Vector_base<rocksdb::BlobFileGarbage, std::allocator<rocksdb::BlobFileGarbage>>::_Vector_impl_data" = type { ptr, ptr, ptr }
%"class.std::vector.667" = type { %"struct.std::_Vector_base.668" }
%"struct.std::_Vector_base.668" = type { %"struct.std::_Vector_base<rocksdb::WalAddition, std::allocator<rocksdb::WalAddition>>::_Vector_impl" }
%"struct.std::_Vector_base<rocksdb::WalAddition, std::allocator<rocksdb::WalAddition>>::_Vector_impl" = type { %"struct.std::_Vector_base<rocksdb::WalAddition, std::allocator<rocksdb::WalAddition>>::_Vector_impl_data" }
%"struct.std::_Vector_base<rocksdb::WalAddition, std::allocator<rocksdb::WalAddition>>::_Vector_impl_data" = type { ptr, ptr, ptr }
%"class.rocksdb::WalDeletion" = type { i64 }
%"class.rocksdb::autovector" = type { i64, [64 x i8], ptr, %"class.std::vector.179" }
%"class.std::unique_ptr.349" = type { %"struct.std::__uniq_ptr_data.350" }
%"struct.std::__uniq_ptr_data.350" = type { %"class.std::__uniq_ptr_impl.351" }
%"class.std::__uniq_ptr_impl.351" = type { %"class.std::tuple.352" }
%"class.std::tuple.352" = type { %"struct.std::_Tuple_impl.353" }
%"struct.std::_Tuple_impl.353" = type { %"struct.std::_Head_base.356" }
%"struct.std::_Head_base.356" = type { ptr }
%"class.std::function.672" = type { %"class.std::_Function_base", ptr }
%struct._Guard = type { ptr }
%"class.std::unique_ptr.737" = type { %"struct.std::__uniq_ptr_data.738" }
%"struct.std::__uniq_ptr_data.738" = type { %"class.std::__uniq_ptr_impl.739" }
%"class.std::__uniq_ptr_impl.739" = type { %"class.std::tuple.740" }
%"class.std::tuple.740" = type { %"struct.std::_Tuple_impl.741" }
%"struct.std::_Tuple_impl.741" = type { %"struct.std::_Head_base.744" }
%"struct.std::_Head_base.744" = type { ptr }
%struct.LogReporter = type { %"class.rocksdb::log::Reader::Reporter", ptr, %"class.std::shared_ptr.67", i64 }
%"class.rocksdb::log::Reader::Reporter" = type { ptr }
%"class.rocksdb::log::Reader" = type { ptr, %"class.std::shared_ptr.67", %"class.std::unique_ptr.737", ptr, i8, ptr, %"class.rocksdb::Slice", i8, i8, i64, i64, i64, i64, i8, i8, i8, i8, ptr, %"class.std::unique_ptr.745", %"class.std::__cxx11::basic_string", ptr, ptr, %"class.std::unordered_map.558" }
%"class.std::unique_ptr.745" = type { %"struct.std::__uniq_ptr_data.746" }
%"struct.std::__uniq_ptr_data.746" = type { %"class.std::__uniq_ptr_impl.747" }
%"class.std::__uniq_ptr_impl.747" = type { %"class.std::tuple.748" }
%"class.std::tuple.748" = type { %"struct.std::_Tuple_impl.749" }
%"struct.std::_Tuple_impl.749" = type { %"struct.std::_Head_base.752" }
%"struct.std::_Head_base.752" = type { ptr }
%"class.std::unordered_map.558" = type { %"class.std::_Hashtable.559" }
%"class.std::_Hashtable.559" = type { ptr, i64, %"struct.std::__detail::_Hash_node_base", i64, %"struct.std::__detail::_Prime_rehash_policy", ptr }
%"class.rocksdb::WriteBatch" = type { %"class.rocksdb::WriteBatchBase", %"class.std::unique_ptr.313", %"struct.rocksdb::SavePoint", i8, i8, i8, %"struct.std::atomic.321", i64, %"class.std::unique_ptr.323", i64, %"class.std::__cxx11::basic_string" }
%"class.rocksdb::WriteBatchBase" = type { ptr }
%"class.std::unique_ptr.313" = type { %"struct.std::__uniq_ptr_data.314" }
%"struct.std::__uniq_ptr_data.314" = type { %"class.std::__uniq_ptr_impl.315" }
%"class.std::__uniq_ptr_impl.315" = type { %"class.std::tuple.316" }
%"class.std::tuple.316" = type { %"struct.std::_Tuple_impl.317" }
%"struct.std::_Tuple_impl.317" = type { %"struct.std::_Head_base.320" }
%"struct.std::_Head_base.320" = type { ptr }
%"struct.rocksdb::SavePoint" = type { i64, i32, i32 }
%"struct.std::atomic.321" = type { %"struct.std::__atomic_base.322" }
%"struct.std::__atomic_base.322" = type { i32 }
%"class.std::unique_ptr.323" = type { %"struct.std::__uniq_ptr_data.324" }
%"struct.std::__uniq_ptr_data.324" = type { %"class.std::__uniq_ptr_impl.325" }
%"class.std::__uniq_ptr_impl.325" = type { %"class.std::tuple.326" }
%"class.std::tuple.326" = type { %"struct.std::_Tuple_impl.327" }
%"struct.std::_Tuple_impl.327" = type { %"struct.std::_Head_base.330" }
%"struct.std::_Head_base.330" = type { ptr }
%"class.std::vector.839" = type { %"struct.std::_Vector_base.840" }
%"struct.std::_Vector_base.840" = type { %"struct.std::_Vector_base<std::unique_ptr<rocksdb::FragmentedRangeTombstoneIterator>, std::allocator<std::unique_ptr<rocksdb::FragmentedRangeTombstoneIterator>>>::_Vector_impl" }
%"struct.std::_Vector_base<std::unique_ptr<rocksdb::FragmentedRangeTombstoneIterator>, std::allocator<std::unique_ptr<rocksdb::FragmentedRangeTombstoneIterator>>>::_Vector_impl" = type { %"struct.std::_Vector_base<std::unique_ptr<rocksdb::FragmentedRangeTombstoneIterator>, std::allocator<std::unique_ptr<rocksdb::FragmentedRangeTombstoneIterator>>>::_Vector_impl_data" }
%"struct.std::_Vector_base<std::unique_ptr<rocksdb::FragmentedRangeTombstoneIterator>, std::allocator<std::unique_ptr<rocksdb::FragmentedRangeTombstoneIterator>>>::_Vector_impl_data" = type { ptr, ptr, ptr }
%"struct.rocksdb::TableBuilderOptions" = type { ptr, ptr, ptr, ptr, i8, ptr, i32, ptr, i64, i64, i64, %"class.std::__cxx11::basic_string", %"class.std::__cxx11::basic_string", i32, i8, i32, i8, i64 }
%"class.rocksdb::SeqnoToTimeMapping" = type <{ i64, i64, %"class.std::deque.498", i8, [7 x i8] }>
%"class.std::deque.498" = type { %"class.std::_Deque_base.499" }
%"class.std::_Deque_base.499" = type { %"struct.std::_Deque_base<rocksdb::SeqnoToTimeMapping::SeqnoTimePair, std::allocator<rocksdb::SeqnoToTimeMapping::SeqnoTimePair>>::_Deque_impl" }
%"struct.std::_Deque_base<rocksdb::SeqnoToTimeMapping::SeqnoTimePair, std::allocator<rocksdb::SeqnoToTimeMapping::SeqnoTimePair>>::_Deque_impl" = type { %"struct.std::_Deque_base<rocksdb::SeqnoToTimeMapping::SeqnoTimePair, std::allocator<rocksdb::SeqnoToTimeMapping::SeqnoTimePair>>::_Deque_impl_data" }
%"struct.std::_Deque_base<rocksdb::SeqnoToTimeMapping::SeqnoTimePair, std::allocator<rocksdb::SeqnoToTimeMapping::SeqnoTimePair>>::_Deque_impl_data" = type { ptr, i64, %"struct.std::_Deque_iterator.503", %"struct.std::_Deque_iterator.503" }
%"struct.std::_Deque_iterator.503" = type { ptr, ptr, ptr, ptr }
%"class.std::vector.48" = type { %"struct.std::_Vector_base.49" }
%"struct.std::_Vector_base.49" = type { %"struct.std::_Vector_base<rocksdb::ColumnFamilyDescriptor, std::allocator<rocksdb::ColumnFamilyDescriptor>>::_Vector_impl" }
%"struct.std::_Vector_base<rocksdb::ColumnFamilyDescriptor, std::allocator<rocksdb::ColumnFamilyDescriptor>>::_Vector_impl" = type { %"struct.std::_Vector_base<rocksdb::ColumnFamilyDescriptor, std::allocator<rocksdb::ColumnFamilyDescriptor>>::_Vector_impl_data" }
%"class.rocksdb::ColumnFamilySet" = type { %"class.std::unordered_map.524", %"class.std::unordered_map.538", %"class.std::unordered_map.558", %"class.std::unordered_map.558", i32, [4 x i8], %"struct.rocksdb::FileOptions", ptr, ptr, %"class.std::__cxx11::basic_string", ptr, ptr, ptr, ptr, ptr, %"class.std::shared_ptr.128", ptr, %"class.std::__cxx11::basic_string" }
%"class.std::unordered_map.524" = type { %"class.std::_Hashtable.525" }
%"class.std::_Hashtable.525" = type { ptr, i64, %"struct.std::__detail::_Hash_node_base", i64, %"struct.std::__detail::_Prime_rehash_policy", ptr }
%"class.std::unordered_map.538" = type { %"class.std::_Hashtable.539" }
%"class.std::_Hashtable.539" = type { ptr, i64, %"struct.std::__detail::_Hash_node_base", i64, %"struct.std::__detail::_Prime_rehash_policy", ptr }
%"class.rocksdb::ColumnFamilyData" = type { i32, %"class.std::__cxx11::basic_string", ptr, ptr, %"struct.std::atomic.106", %"struct.std::atomic.104", %"struct.std::atomic.104", %"class.rocksdb::InternalKeyComparator", %"class.std::vector.572", %"struct.rocksdb::ColumnFamilyOptions", %"struct.rocksdb::ImmutableOptions", %"struct.rocksdb::MutableCFOptions", i8, %"class.std::unique_ptr.90", %"class.std::unique_ptr.577", %"class.std::unique_ptr.585", %"class.std::unique_ptr.593", ptr, ptr, %"class.rocksdb::MemTableList", ptr, %"struct.std::atomic", %"class.std::unique_ptr.601", ptr, ptr, i64, %"class.std::unique_ptr.609", ptr, %"class.std::unique_ptr.504", i8, i8, i64, i8, %"struct.std::atomic", %"class.std::vector.617", i8, %"class.std::__cxx11::basic_string", %"class.std::shared_ptr.98", i8, %"struct.std::atomic" }
%"class.std::vector.572" = type { %"struct.std::_Vector_base.573" }
%"struct.std::_Vector_base.573" = type { %"struct.std::_Vector_base<std::unique_ptr<rocksdb::IntTblPropCollectorFactory>, std::allocator<std::unique_ptr<rocksdb::IntTblPropCollectorFactory>>>::_Vector_impl" }
%"struct.std::_Vector_base<std::unique_ptr<rocksdb::IntTblPropCollectorFactory>, std::allocator<std::unique_ptr<rocksdb::IntTblPropCollectorFactory>>>::_Vector_impl" = type { %"struct.std::_Vector_base<std::unique_ptr<rocksdb::IntTblPropCollectorFactory>, std::allocator<std::unique_ptr<rocksdb::IntTblPropCollectorFactory>>>::_Vector_impl_data" }
%"struct.std::_Vector_base<std::unique_ptr<rocksdb::IntTblPropCollectorFactory>, std::allocator<std::unique_ptr<rocksdb::IntTblPropCollectorFactory>>>::_Vector_impl_data" = type { ptr, ptr, ptr }
%"struct.rocksdb::MutableCFOptions" = type { i64, i32, i64, double, i8, i64, i64, i64, %"class.std::shared_ptr", double, i8, i64, i64, i32, i32, i32, i64, i8, i64, i32, i64, double, i64, i64, %"class.std::vector.7", %"struct.rocksdb::CompactionOptionsFIFO", %"class.rocksdb::CompactionOptionsUniversal", i8, i64, i64, i8, i8, double, double, i64, i32, i8, i64, i8, i8, i8, i8, i8, [3 x i8], %"struct.rocksdb::CompressionOptions", %"struct.rocksdb::CompressionOptions", i8, i32, i8, i64, %"class.std::vector.2", i32, i32, %"class.std::vector.179" }
%"class.std::unique_ptr.577" = type { %"struct.std::__uniq_ptr_data.578" }
%"struct.std::__uniq_ptr_data.578" = type { %"class.std::__uniq_ptr_impl.579" }
%"class.std::__uniq_ptr_impl.579" = type { %"class.std::tuple.580" }
%"class.std::tuple.580" = type { %"struct.std::_Tuple_impl.581" }
%"struct.std::_Tuple_impl.581" = type { %"struct.std::_Head_base.584" }
%"struct.std::_Head_base.584" = type { ptr }
%"class.std::unique_ptr.585" = type { %"struct.std::__uniq_ptr_data.586" }
%"struct.std::__uniq_ptr_data.586" = type { %"class.std::__uniq_ptr_impl.587" }
%"class.std::__uniq_ptr_impl.587" = type { %"class.std::tuple.588" }
%"class.std::tuple.588" = type { %"struct.std::_Tuple_impl.589" }
%"struct.std::_Tuple_impl.589" = type { %"struct.std::_Head_base.592" }
%"struct.std::_Head_base.592" = type { ptr }
%"class.std::unique_ptr.593" = type { %"struct.std::__uniq_ptr_data.594" }
%"struct.std::__uniq_ptr_data.594" = type { %"class.std::__uniq_ptr_impl.595" }
%"class.std::__uniq_ptr_impl.595" = type { %"class.std::tuple.596" }
%"class.std::tuple.596" = type { %"struct.std::_Tuple_impl.597" }
%"struct.std::_Tuple_impl.597" = type { %"struct.std::_Head_base.600" }
%"struct.std::_Head_base.600" = type { ptr }
%"class.rocksdb::MemTableList" = type <{ %"struct.std::atomic.104", %"struct.std::atomic.104", [2 x i8], i32, ptr, i32, i8, i8, [2 x i8], i64, %"struct.std::atomic", %"struct.std::atomic.104", [7 x i8] }>
%"class.std::unique_ptr.601" = type { %"struct.std::__uniq_ptr_data.602" }
%"struct.std::__uniq_ptr_data.602" = type { %"class.std::__uniq_ptr_impl.603" }
%"class.std::__uniq_ptr_impl.603" = type { %"class.std::tuple.604" }
%"class.std::tuple.604" = type { %"struct.std::_Tuple_impl.605" }
%"struct.std::_Tuple_impl.605" = type { %"struct.std::_Head_base.608" }
%"struct.std::_Head_base.608" = type { ptr }
%"class.std::unique_ptr.609" = type { %"struct.std::__uniq_ptr_data.610" }
%"struct.std::__uniq_ptr_data.610" = type { %"class.std::__uniq_ptr_impl.611" }
%"class.std::__uniq_ptr_impl.611" = type { %"class.std::tuple.612" }
%"class.std::tuple.612" = type { %"struct.std::_Tuple_impl.613" }
%"struct.std::_Tuple_impl.613" = type { %"struct.std::_Head_base.616" }
%"struct.std::_Head_base.616" = type { ptr }
%"class.std::unique_ptr.504" = type { %"struct.std::__uniq_ptr_data.505" }
%"struct.std::__uniq_ptr_data.505" = type { %"class.std::__uniq_ptr_impl.506" }
%"class.std::__uniq_ptr_impl.506" = type { %"class.std::tuple.507" }
%"class.std::tuple.507" = type { %"struct.std::_Tuple_impl.508" }
%"struct.std::_Tuple_impl.508" = type { %"struct.std::_Head_base.511" }
%"struct.std::_Head_base.511" = type { ptr }
%"class.std::vector.617" = type { %"struct.std::_Vector_base.618" }
%"struct.std::_Vector_base.618" = type { %"struct.std::_Vector_base<std::shared_ptr<rocksdb::FSDirectory>, std::allocator<std::shared_ptr<rocksdb::FSDirectory>>>::_Vector_impl" }
%"struct.std::_Vector_base<std::shared_ptr<rocksdb::FSDirectory>, std::allocator<std::shared_ptr<rocksdb::FSDirectory>>>::_Vector_impl" = type { %"struct.std::_Vector_base<std::shared_ptr<rocksdb::FSDirectory>, std::allocator<std::shared_ptr<rocksdb::FSDirectory>>>::_Vector_impl_data" }
%"struct.std::_Vector_base<std::shared_ptr<rocksdb::FSDirectory>, std::allocator<std::shared_ptr<rocksdb::FSDirectory>>>::_Vector_impl_data" = type { ptr, ptr, ptr }
%"class.rocksdb::ColumnFamilyMemTablesImpl" = type { %"class.rocksdb::ColumnFamilyMemTables", ptr, ptr, %"class.rocksdb::ColumnFamilyHandleInternal" }
%"class.rocksdb::ColumnFamilyMemTables" = type { ptr }
%"class.rocksdb::ColumnFamilyHandleInternal" = type { %"class.rocksdb::ColumnFamilyHandleImpl", ptr }
%"class.rocksdb::ColumnFamilyHandleImpl" = type { %"class.rocksdb::ColumnFamilyHandle", ptr, ptr, ptr }
%"class.rocksdb::ColumnFamilyHandle" = type { ptr }
%"class.rocksdb::MemTable" = type { %"struct.rocksdb::MemTable::KeyComparator", %"struct.rocksdb::ImmutableMemTableOptions", i32, i64, %"class.rocksdb::AllocTracker", [8 x i8], %"class.rocksdb::ConcurrentArena", %"class.std::unique_ptr.773", %"class.std::unique_ptr.773", %"struct.std::atomic.104", %"struct.std::atomic", %"struct.std::atomic", %"struct.std::atomic", %"struct.std::atomic", %"struct.std::atomic", i8, i8, i64, %"class.rocksdb::VersionEdit", %"struct.std::atomic", %"struct.std::atomic", i64, i64, %"struct.std::atomic", %"class.std::vector.781", ptr, %"class.std::unique_ptr.786", %"struct.std::atomic.794", ptr, ptr, %"class.std::unordered_map.795", %"struct.std::atomic", i64, i64, %"struct.std::atomic", i32, %"class.std::unique_ptr.813", i64, i8, %"class.rocksdb::Slice", %"class.std::unique_ptr.821", %"class.std::mutex", %"class.rocksdb::CoreLocalArray.829", [8 x i8] }
%"struct.rocksdb::MemTable::KeyComparator" = type { %"class.rocksdb::MemTableRep::KeyComparator", %"class.rocksdb::InternalKeyComparator" }
%"class.rocksdb::MemTableRep::KeyComparator" = type { ptr }
%"struct.rocksdb::ImmutableMemTableOptions" = type { i64, i32, i64, i8, i8, i64, ptr, i64, ptr, ptr, ptr, i8, i32 }
%"class.rocksdb::AllocTracker" = type <{ ptr, %"struct.std::atomic", i8, i8, [6 x i8] }>
%"class.rocksdb::ConcurrentArena" = type { %"class.rocksdb::Allocator", [56 x i8], i64, %"class.rocksdb::CoreLocalArray", [8 x i8], %"class.rocksdb::Arena", %"class.rocksdb::SpinMutex", %"struct.std::atomic", %"struct.std::atomic", %"struct.std::atomic", [56 x i8], [8 x i8] }
%"class.rocksdb::CoreLocalArray" = type <{ %"class.std::unique_ptr.753", i32, [4 x i8] }>
%"class.std::unique_ptr.753" = type { %"struct.std::__uniq_ptr_data.754" }
%"struct.std::__uniq_ptr_data.754" = type { %"class.std::__uniq_ptr_impl.755" }
%"class.std::__uniq_ptr_impl.755" = type { %"class.std::tuple.756" }
%"class.std::tuple.756" = type { %"struct.std::_Tuple_impl.757" }
%"struct.std::_Tuple_impl.757" = type { %"struct.std::_Head_base.760" }
%"struct.std::_Head_base.760" = type { ptr }
%"class.rocksdb::SpinMutex" = type { %"struct.std::atomic.104" }
%"class.std::unique_ptr.773" = type { %"struct.std::__uniq_ptr_data.774" }
%"struct.std::__uniq_ptr_data.774" = type { %"class.std::__uniq_ptr_impl.775" }
%"class.std::__uniq_ptr_impl.775" = type { %"class.std::tuple.776" }
%"class.std::tuple.776" = type { %"struct.std::_Tuple_impl.777" }
%"struct.std::_Tuple_impl.777" = type { %"struct.std::_Head_base.780" }
%"struct.std::_Head_base.780" = type { ptr }
%"class.std::vector.781" = type { %"struct.std::_Vector_base.782" }
%"struct.std::_Vector_base.782" = type { %"struct.std::_Vector_base<rocksdb::port::RWMutex, std::allocator<rocksdb::port::RWMutex>>::_Vector_impl" }
%"struct.std::_Vector_base<rocksdb::port::RWMutex, std::allocator<rocksdb::port::RWMutex>>::_Vector_impl" = type { %"struct.std::_Vector_base<rocksdb::port::RWMutex, std::allocator<rocksdb::port::RWMutex>>::_Vector_impl_data" }
%"struct.std::_Vector_base<rocksdb::port::RWMutex, std::allocator<rocksdb::port::RWMutex>>::_Vector_impl_data" = type { ptr, ptr, ptr }
%"class.std::unique_ptr.786" = type { %"struct.std::__uniq_ptr_data.787" }
%"struct.std::__uniq_ptr_data.787" = type { %"class.std::__uniq_ptr_impl.788" }
%"class.std::__uniq_ptr_impl.788" = type { %"class.std::tuple.789" }
%"class.std::tuple.789" = type { %"struct.std::_Tuple_impl.790" }
%"struct.std::_Tuple_impl.790" = type { %"struct.std::_Head_base.793" }
%"struct.std::_Head_base.793" = type { ptr }
%"struct.std::atomic.794" = type { i32 }
%"class.std::unordered_map.795" = type { %"class.std::_Hashtable.796" }
%"class.std::_Hashtable.796" = type { ptr, i64, %"struct.std::__detail::_Hash_node_base", i64, %"struct.std::__detail::_Prime_rehash_policy", ptr }
%"class.std::unique_ptr.813" = type { %"struct.std::__uniq_ptr_data.814" }
%"struct.std::__uniq_ptr_data.814" = type { %"class.std::__uniq_ptr_impl.815" }
%"class.std::__uniq_ptr_impl.815" = type { %"class.std::tuple.816" }
%"class.std::tuple.816" = type { %"struct.std::_Tuple_impl.817" }
%"struct.std::_Tuple_impl.817" = type { %"struct.std::_Head_base.820" }
%"struct.std::_Head_base.820" = type { ptr }
%"class.std::unique_ptr.821" = type { %"struct.std::__uniq_ptr_data.822" }
%"struct.std::__uniq_ptr_data.822" = type { %"class.std::__uniq_ptr_impl.823" }
%"class.std::__uniq_ptr_impl.823" = type { %"class.std::tuple.824" }
%"class.std::tuple.824" = type { %"struct.std::_Tuple_impl.825" }
%"struct.std::_Tuple_impl.825" = type { %"struct.std::_Head_base.828" }
%"struct.std::_Head_base.828" = type { ptr }
%"class.rocksdb::CoreLocalArray.829" = type <{ %"class.std::unique_ptr.830", i32, [4 x i8] }>
%"class.std::unique_ptr.830" = type { %"struct.std::__uniq_ptr_data.831" }
%"struct.std::__uniq_ptr_data.831" = type { %"class.std::__uniq_ptr_impl.832" }
%"class.std::__uniq_ptr_impl.832" = type { %"class.std::tuple.833" }
%"class.std::tuple.833" = type { %"struct.std::_Tuple_impl.834" }
%"struct.std::_Tuple_impl.834" = type { %"struct.std::_Head_base.837" }
%"struct.std::_Head_base.837" = type { ptr }
%"class.std::unique_ptr.622" = type { %"struct.std::__uniq_ptr_data.623" }
%"struct.std::__uniq_ptr_data.623" = type { %"class.std::__uniq_ptr_impl.624" }
%"class.std::__uniq_ptr_impl.624" = type { %"class.std::tuple.625" }
%"class.std::tuple.625" = type { %"struct.std::_Tuple_impl.626" }
%"struct.std::_Tuple_impl.626" = type { %"struct.std::_Head_base.629" }
%"struct.std::_Head_base.629" = type { ptr }
%"struct.rocksdb::SeqnoToTimeMapping::SeqnoTimePair" = type { i64, i64 }
%"struct.rocksdb::(anonymous namespace)::Repairer::TableInfo" = type { %"struct.rocksdb::FileMetaData", i32, %"class.std::__cxx11::basic_string" }
%"class.rocksdb::Version" = type <{ ptr, ptr, ptr, ptr, ptr, ptr, ptr, ptr, %"class.rocksdb::VersionStorageInfo", ptr, ptr, ptr, i32, [4 x i8], %"struct.rocksdb::FileOptions", %"struct.rocksdb::MutableCFOptions", i64, i64, %"class.std::shared_ptr.128", i8, [7 x i8] }>
%"class.std::vector.944" = type { %"struct.std::_Vector_base.945" }
%"struct.std::_Vector_base.945" = type { %"struct.std::_Vector_base<rocksdb::FileMetaData *, std::allocator<rocksdb::FileMetaData *>>::_Vector_impl" }
%"struct.std::_Vector_base<rocksdb::FileMetaData *, std::allocator<rocksdb::FileMetaData *>>::_Vector_impl" = type { %"struct.std::_Vector_base<rocksdb::FileMetaData *, std::allocator<rocksdb::FileMetaData *>>::_Vector_impl_data" }
%"struct.std::_Vector_base<rocksdb::FileMetaData *, std::allocator<rocksdb::FileMetaData *>>::_Vector_impl_data" = type { ptr, ptr, ptr }
%"struct.std::pair.676" = type { i32, [4 x i8], %"struct.rocksdb::FileMetaData" }
%"struct.rocksdb::Options" = type <{ %"struct.rocksdb::DBOptions", %"struct.rocksdb::ColumnFamilyOptions.base", [4 x i8] }>
%"struct.rocksdb::ColumnFamilyOptions.base" = type <{ %"struct.rocksdb::AdvancedColumnFamilyOptions", ptr, %"class.std::shared_ptr.28", ptr, %"class.std::shared_ptr.31", i64, i8, i8, [6 x i8], %"struct.rocksdb::CompressionOptions", %"struct.rocksdb::CompressionOptions", i32, [4 x i8], %"class.std::shared_ptr", i64, i64, i8, [7 x i8], %"class.std::shared_ptr.34", %"class.std::vector.37", %"class.std::shared_ptr.42", %"class.std::shared_ptr.45", i32 }>
%"class.std::__shared_ptr.236" = type { ptr, %"class.std::__shared_count" }
%"class.std::shared_ptr.235" = type { %"class.std::__shared_ptr.236" }
%"class.std::__shared_ptr.202" = type { ptr, %"class.std::__shared_count" }
%"class.std::shared_ptr.201" = type { %"class.std::__shared_ptr.202" }
%"struct.rocksdb::FileTemperatureAge" = type { i8, i64 }
%"struct.std::_Hashtable<std::__cxx11::basic_string<char>, std::pair<const std::__cxx11::basic_string<char>, rocksdb::ColumnFamilyOptions>, std::allocator<std::pair<const std::__cxx11::basic_string<char>, rocksdb::ColumnFamilyOptions>>, std::__detail::_Select1st, std::equal_to<std::__cxx11::basic_string<char>>, std::hash<string>, std::__detail::_Mod_range_hashing, std::__detail::_Default_ranged_hash, std::__detail::_Prime_rehash_policy, std::__detail::_Hashtable_traits<true, false, true>>::_Scoped_node" = type { ptr, ptr }
%"class.std::tuple.225" = type { %"struct.std::_Tuple_impl.226" }
%"struct.std::_Tuple_impl.226" = type { %"struct.std::_Head_base.227" }
%"struct.std::_Head_base.227" = type { ptr }
%"class.std::tuple.228" = type { i8 }
%"struct.rocksdb::ImmutableCFOptions" = type <{ i8, i8, [6 x i8], ptr, %"class.rocksdb::InternalKeyComparator", %"class.std::shared_ptr.28", ptr, %"class.std::shared_ptr.31", i32, i32, i64, i8, [7 x i8], ptr, %"class.std::shared_ptr.17", %"class.std::shared_ptr.34", %"class.std::vector.20", i32, i8, i8, [2 x i8], i32, i8, i8, i8, i8, i64, i64, %"class.std::shared_ptr", %"class.std::vector.37", %"class.std::shared_ptr.42", %"class.std::shared_ptr.45", %"class.std::shared_ptr.25", i8, [7 x i8] }>
%"struct.rocksdb::ParsedInternalKey" = type <{ %"class.rocksdb::Slice", i64, i8, [7 x i8] }>
%"class.std::shared_ptr.516" = type { %"class.std::__shared_ptr.517" }
%"class.std::__shared_ptr.517" = type { ptr, %"class.std::__shared_count" }
%"struct.rocksdb::RangeTombstone" = type { %"class.rocksdb::Slice", %"class.rocksdb::Slice", i64, %"class.rocksdb::Slice", %"class.std::__cxx11::basic_string", %"class.std::__cxx11::basic_string" }
%"struct.std::pair.638" = type { %"class.rocksdb::InternalKey", %"class.rocksdb::Slice" }
%"struct.rocksdb::TableProperties" = type { i64, i64, i64, i64, i64, i64, i64, i64, i64, i64, i64, i64, i64, i64, i64, i64, i64, i64, i64, i64, i64, i64, i64, i64, i64, i64, i64, %"class.std::__cxx11::basic_string", %"class.std::__cxx11::basic_string", %"class.std::__cxx11::basic_string", %"class.std::__cxx11::basic_string", %"class.std::__cxx11::basic_string", %"class.std::__cxx11::basic_string", %"class.std::__cxx11::basic_string", %"class.std::__cxx11::basic_string", %"class.std::__cxx11::basic_string", %"class.std::__cxx11::basic_string", %"class.std::__cxx11::basic_string", %"class.std::__cxx11::basic_string", %"class.std::map.519", %"class.std::map.519" }
%"class.std::map.519" = type { %"class.std::_Rb_tree.520" }
%"class.std::_Rb_tree.520" = type { %"struct.std::_Rb_tree<std::__cxx11::basic_string<char>, std::pair<const std::__cxx11::basic_string<char>, std::__cxx11::basic_string<char>>, std::_Select1st<std::pair<const std::__cxx11::basic_string<char>, std::__cxx11::basic_string<char>>>, std::less<std::__cxx11::basic_string<char>>>::_Rb_tree_impl" }
%"struct.std::_Rb_tree<std::__cxx11::basic_string<char>, std::pair<const std::__cxx11::basic_string<char>, std::__cxx11::basic_string<char>>, std::_Select1st<std::pair<const std::__cxx11::basic_string<char>, std::__cxx11::basic_string<char>>>, std::less<std::__cxx11::basic_string<char>>>::_Rb_tree_impl" = type { %"struct.std::_Rb_tree_key_compare.347", %"struct.std::_Rb_tree_header" }
%"struct.std::_Rb_tree_key_compare.347" = type { %"struct.std::less.348" }
%"struct.std::less.348" = type { i8 }
%"class.rocksdb::FragmentedRangeTombstoneIterator" = type { %"class.rocksdb::InternalIteratorBase", %"struct.rocksdb::FragmentedRangeTombstoneIterator::RangeTombstoneStackStartComparator", %"struct.rocksdb::FragmentedRangeTombstoneIterator::RangeTombstoneStackEndComparator", ptr, ptr, %"class.std::shared_ptr.630", %"class.std::shared_ptr.633", ptr, i64, i64, ptr, %"class.__gnu_cxx::__normal_iterator.636", %"class.__gnu_cxx::__normal_iterator.637", %"class.__gnu_cxx::__normal_iterator.636", %"class.__gnu_cxx::__normal_iterator.637", %"class.rocksdb::InternalKey" }
%"class.rocksdb::InternalIteratorBase" = type { ptr, %"class.rocksdb::Cleanable" }
%"class.rocksdb::Cleanable" = type { %"struct.rocksdb::Cleanable::Cleanup" }
%"struct.rocksdb::Cleanable::Cleanup" = type { ptr, ptr, ptr, ptr }
%"struct.rocksdb::FragmentedRangeTombstoneIterator::RangeTombstoneStackStartComparator" = type { ptr }
%"struct.rocksdb::FragmentedRangeTombstoneIterator::RangeTombstoneStackEndComparator" = type { ptr }
%"class.std::shared_ptr.630" = type { %"class.std::__shared_ptr.631" }
%"class.std::__shared_ptr.631" = type { ptr, %"class.std::__shared_count" }
%"class.std::shared_ptr.633" = type { %"class.std::__shared_ptr.634" }
%"class.std::__shared_ptr.634" = type { ptr, %"class.std::__shared_count" }
%"class.__gnu_cxx::__normal_iterator.636" = type { ptr }
%"class.__gnu_cxx::__normal_iterator.637" = type { ptr }
%"class.rocksdb::Comparator" = type { %"class.rocksdb::Customizable", %"class.rocksdb::CompareInterface", i64 }
%"class.rocksdb::Customizable" = type { %"class.rocksdb::Configurable" }
%"class.rocksdb::Configurable" = type { ptr, %"class.std::vector.189" }
%"class.std::vector.189" = type { %"struct.std::_Vector_base.190" }
%"struct.std::_Vector_base.190" = type { %"struct.std::_Vector_base<rocksdb::Configurable::RegisteredOptions, std::allocator<rocksdb::Configurable::RegisteredOptions>>::_Vector_impl" }
%"struct.std::_Vector_base<rocksdb::Configurable::RegisteredOptions, std::allocator<rocksdb::Configurable::RegisteredOptions>>::_Vector_impl" = type { %"struct.std::_Vector_base<rocksdb::Configurable::RegisteredOptions, std::allocator<rocksdb::Configurable::RegisteredOptions>>::_Vector_impl_data" }
%"struct.std::_Vector_base<rocksdb::Configurable::RegisteredOptions, std::allocator<rocksdb::Configurable::RegisteredOptions>>::_Vector_impl_data" = type { ptr, ptr, ptr }
%"struct.rocksdb::FragmentedRangeTombstoneList::RangeTombstoneStack" = type { %"class.rocksdb::Slice", %"class.rocksdb::Slice", i64, i64 }
%"struct.rocksdb::FragmentedRangeTombstoneList" = type { %"class.std::vector.716", %"class.std::vector.179", %"class.std::vector", %"struct.std::once_flag", %"class.std::set.721", %"class.std::__cxx11::list.726", %"class.rocksdb::PinnedIteratorsManager", i64, i64 }
%"class.std::vector.716" = type { %"struct.std::_Vector_base.717" }
%"struct.std::_Vector_base.717" = type { %"struct.std::_Vector_base<rocksdb::FragmentedRangeTombstoneList::RangeTombstoneStack, std::allocator<rocksdb::FragmentedRangeTombstoneList::RangeTombstoneStack>>::_Vector_impl" }
%"struct.std::_Vector_base<rocksdb::FragmentedRangeTombstoneList::RangeTombstoneStack, std::allocator<rocksdb::FragmentedRangeTombstoneList::RangeTombstoneStack>>::_Vector_impl" = type { %"struct.std::_Vector_base<rocksdb::FragmentedRangeTombstoneList::RangeTombstoneStack, std::allocator<rocksdb::FragmentedRangeTombstoneList::RangeTombstoneStack>>::_Vector_impl_data" }
%"struct.std::_Vector_base<rocksdb::FragmentedRangeTombstoneList::RangeTombstoneStack, std::allocator<rocksdb::FragmentedRangeTombstoneList::RangeTombstoneStack>>::_Vector_impl_data" = type { ptr, ptr, ptr }
%"struct.std::once_flag" = type { i32 }
%"class.std::set.721" = type { %"class.std::_Rb_tree.722" }
%"class.std::_Rb_tree.722" = type { %"struct.std::_Rb_tree<unsigned long, unsigned long, std::_Identity<unsigned long>, std::less<unsigned long>>::_Rb_tree_impl" }
%"struct.std::_Rb_tree<unsigned long, unsigned long, std::_Identity<unsigned long>, std::less<unsigned long>>::_Rb_tree_impl" = type { %"struct.std::_Rb_tree_key_compare", %"struct.std::_Rb_tree_header" }
%"class.std::__cxx11::list.726" = type { %"class.std::__cxx11::_List_base.727" }
%"class.std::__cxx11::_List_base.727" = type { %"struct.std::__cxx11::_List_base<std::__cxx11::basic_string<char>, std::allocator<std::__cxx11::basic_string<char>>>::_List_impl" }
%"struct.std::__cxx11::_List_base<std::__cxx11::basic_string<char>, std::allocator<std::__cxx11::basic_string<char>>>::_List_impl" = type { %"struct.std::__detail::_List_node_header" }
%"class.rocksdb::PinnedIteratorsManager" = type { %"class.rocksdb::Cleanable", i8, %"class.std::vector.731" }
%"class.std::vector.731" = type { %"struct.std::_Vector_base.732" }
%"struct.std::_Vector_base.732" = type { %"struct.std::_Vector_base<std::pair<void *, void (*)(void *)>, std::allocator<std::pair<void *, void (*)(void *)>>>::_Vector_impl" }
%"struct.std::_Vector_base<std::pair<void *, void (*)(void *)>, std::allocator<std::pair<void *, void (*)(void *)>>>::_Vector_impl" = type { %"struct.std::_Vector_base<std::pair<void *, void (*)(void *)>, std::allocator<std::pair<void *, void (*)(void *)>>>::_Vector_impl_data" }
%"struct.std::_Vector_base<std::pair<void *, void (*)(void *)>, std::allocator<std::pair<void *, void (*)(void *)>>>::_Vector_impl_data" = type { ptr, ptr, ptr }
%"class.rocksdb::autovector.370" = type { i64, [64 x i8], ptr, %"class.std::vector.371" }
%"class.std::vector.371" = type { %"struct.std::_Vector_base.372" }
%"struct.std::_Vector_base.372" = type { %"struct.std::_Vector_base<rocksdb::ColumnFamilyData *, std::allocator<rocksdb::ColumnFamilyData *>>::_Vector_impl" }
%"struct.std::_Vector_base<rocksdb::ColumnFamilyData *, std::allocator<rocksdb::ColumnFamilyData *>>::_Vector_impl" = type { %"struct.std::_Vector_base<rocksdb::ColumnFamilyData *, std::allocator<rocksdb::ColumnFamilyData *>>::_Vector_impl_data" }
%"struct.std::_Vector_base<rocksdb::ColumnFamilyData *, std::allocator<rocksdb::ColumnFamilyData *>>::_Vector_impl_data" = type { ptr, ptr, ptr }
%"class.rocksdb::autovector.684" = type { i64, [64 x i8], ptr, %"class.std::vector.685" }
%"class.std::vector.685" = type { %"struct.std::_Vector_base.686" }
%"struct.std::_Vector_base.686" = type { %"struct.std::_Vector_base<const rocksdb::MutableCFOptions *, std::allocator<const rocksdb::MutableCFOptions *>>::_Vector_impl" }
%"struct.std::_Vector_base<const rocksdb::MutableCFOptions *, std::allocator<const rocksdb::MutableCFOptions *>>::_Vector_impl" = type { %"struct.std::_Vector_base<const rocksdb::MutableCFOptions *, std::allocator<const rocksdb::MutableCFOptions *>>::_Vector_impl_data" }
%"struct.std::_Vector_base<const rocksdb::MutableCFOptions *, std::allocator<const rocksdb::MutableCFOptions *>>::_Vector_impl_data" = type { ptr, ptr, ptr }
%"class.rocksdb::autovector.690" = type { i64, [832 x i8], ptr, %"class.std::vector.691" }
%"class.std::vector.691" = type { %"struct.std::_Vector_base.692" }
%"struct.std::_Vector_base.692" = type { %"struct.std::_Vector_base<rocksdb::autovector<rocksdb::VersionEdit *>, std::allocator<rocksdb::autovector<rocksdb::VersionEdit *>>>::_Vector_impl" }
%"struct.std::_Vector_base<rocksdb::autovector<rocksdb::VersionEdit *>, std::allocator<rocksdb::autovector<rocksdb::VersionEdit *>>>::_Vector_impl" = type { %"struct.std::_Vector_base<rocksdb::autovector<rocksdb::VersionEdit *>, std::allocator<rocksdb::autovector<rocksdb::VersionEdit *>>>::_Vector_impl_data" }
%"struct.std::_Vector_base<rocksdb::autovector<rocksdb::VersionEdit *>, std::allocator<rocksdb::autovector<rocksdb::VersionEdit *>>>::_Vector_impl_data" = type { ptr, ptr, ptr }
%"class.rocksdb::autovector.696" = type { i64, [64 x i8], ptr, %"class.std::vector.697" }
%"class.std::vector.697" = type { %"struct.std::_Vector_base.698" }
%"struct.std::_Vector_base.698" = type { %"struct.std::_Vector_base<rocksdb::VersionEdit *, std::allocator<rocksdb::VersionEdit *>>::_Vector_impl" }
%"struct.std::_Vector_base<rocksdb::VersionEdit *, std::allocator<rocksdb::VersionEdit *>>::_Vector_impl" = type { %"struct.std::_Vector_base<rocksdb::VersionEdit *, std::allocator<rocksdb::VersionEdit *>>::_Vector_impl_data" }
%"struct.std::_Vector_base<rocksdb::VersionEdit *, std::allocator<rocksdb::VersionEdit *>>::_Vector_impl_data" = type { ptr, ptr, ptr }
%"class.std::vector.702" = type { %"struct.std::_Vector_base.703" }
%"struct.std::_Vector_base.703" = type { %"struct.std::_Vector_base<std::function<void (const rocksdb::Status &)>, std::allocator<std::function<void (const rocksdb::Status &)>>>::_Vector_impl" }
%"struct.std::_Vector_base<std::function<void (const rocksdb::Status &)>, std::allocator<std::function<void (const rocksdb::Status &)>>>::_Vector_impl" = type { %"struct.std::_Vector_base<std::function<void (const rocksdb::Status &)>, std::allocator<std::function<void (const rocksdb::Status &)>>>::_Vector_impl_data" }
%"struct.std::_Vector_base<std::function<void (const rocksdb::Status &)>, std::allocator<std::function<void (const rocksdb::Status &)>>>::_Vector_impl_data" = type { ptr, ptr, ptr }
%"class.rocksdb::BlobFileAddition" = type { i64, i64, i64, %"class.std::__cxx11::basic_string", %"class.std::__cxx11::basic_string" }
%"struct.std::pair.680" = type { i32, %"class.rocksdb::InternalKey" }
%"class.rocksdb::SequentialFileReader" = type { %"class.std::__cxx11::basic_string", %"class.rocksdb::FSSequentialFilePtr", %"struct.std::atomic", %"class.std::vector.76", ptr }
%"class.rocksdb::FSSequentialFilePtr" = type { %"class.std::shared_ptr.128", %"class.rocksdb::FSSequentialFileTracingWrapper" }
%"class.rocksdb::FSSequentialFileTracingWrapper" = type { %"class.rocksdb::FSSequentialFileOwnerWrapper", %"class.std::shared_ptr.128", ptr, %"class.std::__cxx11::basic_string" }
%"class.rocksdb::FSSequentialFileOwnerWrapper" = type { %"class.rocksdb::FSSequentialFileWrapper", %"class.std::unique_ptr.850" }
%"class.rocksdb::FSSequentialFileWrapper" = type { %"class.rocksdb::FSSequentialFile", ptr }
%"class.rocksdb::FSSequentialFile" = type { ptr }
%"class.std::unique_ptr.850" = type { %"struct.std::__uniq_ptr_data.851" }
%"struct.std::__uniq_ptr_data.851" = type { %"class.std::__uniq_ptr_impl.852" }
%"class.std::__uniq_ptr_impl.852" = type { %"class.std::tuple.853" }
%"class.std::tuple.853" = type { %"struct.std::_Tuple_impl.854" }
%"struct.std::_Tuple_impl.854" = type { %"struct.std::_Head_base.857" }
%"struct.std::_Head_base.857" = type { ptr }

$_ZNK7rocksdb21InternalKeyComparator7CompareERKNS_5SliceES3_ = comdat any

$_ZNSt6vectorIN7rocksdb5SliceESaIS1_EED2Ev = comdat any

$_ZN7rocksdb19ColumnFamilyOptionsD2Ev = comdat any

$_ZNSt6vectorIN7rocksdb22ColumnFamilyDescriptorESaIS1_EED2Ev = comdat any

$_ZN7rocksdb9DBOptionsD2Ev = comdat any

$_ZN7rocksdb21InternalKeyComparatorD2Ev = comdat any

$_ZN7rocksdb21InternalKeyComparatorD0Ev = comdat any

$_ZN7rocksdb19ColumnFamilyOptionsaSERKS0_ = comdat any

$__clang_call_terminate = comdat any

$_ZN7rocksdb27AdvancedColumnFamilyOptionsaSERKS0_ = comdat any

$_ZNSt6vectorIN7rocksdb6DbPathESaIS1_EEaSERKS3_ = comdat any

$_ZNSt6vectorIN7rocksdb15CompressionTypeESaIS1_EEaSERKS3_ = comdat any

$_ZNSt6vectorIiSaIiEEaSERKS1_ = comdat any

$_ZNSt6vectorISt10shared_ptrIN7rocksdb31TablePropertiesCollectorFactoryEESaIS3_EEaSERKS5_ = comdat any

$_ZNSt6vectorIN7rocksdb18FileTemperatureAgeESaIS1_EEaSERKS3_ = comdat any

$_ZNSt11__copy_moveILb0ELb0ESt26random_access_iterator_tagE8__copy_mIPKSt10shared_ptrIN7rocksdb31TablePropertiesCollectorFactoryEEPS6_EET0_T_SB_SA_ = comdat any

$_ZNSt11__copy_moveILb0ELb0ESt26random_access_iterator_tagE8__copy_mIPSt10shared_ptrIN7rocksdb31TablePropertiesCollectorFactoryEES7_EET0_T_S9_S8_ = comdat any

$_ZNSt6vectorIN7rocksdb6DbPathESaIS1_EE20_M_allocate_and_copyIN9__gnu_cxx17__normal_iteratorIPKS1_S3_EEEEPS1_mT_SB_ = comdat any

$_ZNSt10shared_ptrIN7rocksdb15MemoryAllocatorEED2Ev = comdat any

$_ZNSt10shared_ptrIN7rocksdb8IOTracerEED2Ev = comdat any

$_ZNSt10shared_ptrIN7rocksdb5CacheEED2Ev = comdat any

$_ZNSt6vectorINSt7__cxx1112basic_stringIcSt11char_traitsIcESaIcEEESaIS5_EED2Ev = comdat any

$_ZNSt13unordered_mapINSt7__cxx1112basic_stringIcSt11char_traitsIcESaIcEEEN7rocksdb19ColumnFamilyOptionsESt4hashIS5_ESt8equal_toIS5_ESaISt4pairIKS5_S7_EEED2Ev = comdat any

$_ZNSt10unique_ptrIN7rocksdb10TableCacheESt14default_deleteIS1_EED2Ev = comdat any

$_ZN7rocksdb18ImmutableDBOptionsD2Ev = comdat any

$_ZN7rocksdb11FileOptionsD2Ev = comdat any

$_ZN7rocksdb15LRUCacheOptionsD2Ev = comdat any

$_ZN7rocksdb15LRUCacheOptionsD0Ev = comdat any

$_ZN7rocksdb19ShardedCacheOptionsD2Ev = comdat any

$_ZN7rocksdb19ShardedCacheOptionsD0Ev = comdat any

$_ZNSt7__cxx1112basic_stringIcSt11char_traitsIcESaIcEE12_M_constructIPKcEEvT_S8_St20forward_iterator_tag = comdat any

$_ZZNSt7__cxx1112basic_stringIcSt11char_traitsIcESaIcEE12_M_constructIPKcEEvT_S8_St20forward_iterator_tagEN6_GuardD2Ev = comdat any

$_ZNSt8__detail9_Map_baseINSt7__cxx1112basic_stringIcSt11char_traitsIcESaIcEEESt4pairIKS6_N7rocksdb19ColumnFamilyOptionsEESaISB_ENS_10_Select1stESt8equal_toIS6_ESt4hashIS6_ENS_18_Mod_range_hashingENS_20_Default_ranged_hashENS_20_Prime_rehash_policyENS_17_Hashtable_traitsILb1ELb0ELb1EEELb1EEixERS8_ = comdat any

$_ZNSt10_HashtableINSt7__cxx1112basic_stringIcSt11char_traitsIcESaIcEEESt4pairIKS5_N7rocksdb19ColumnFamilyOptionsEESaISA_ENSt8__detail10_Select1stESt8equal_toIS5_ESt4hashIS5_ENSC_18_Mod_range_hashingENSC_20_Default_ranged_hashENSC_20_Prime_rehash_policyENSC_17_Hashtable_traitsILb1ELb0ELb1EEEE21_M_insert_unique_nodeEmmPNSC_10_Hash_nodeISA_Lb1EEEm = comdat any

$_ZNSt10_HashtableINSt7__cxx1112basic_stringIcSt11char_traitsIcESaIcEEESt4pairIKS5_N7rocksdb19ColumnFamilyOptionsEESaISA_ENSt8__detail10_Select1stESt8equal_toIS5_ESt4hashIS5_ENSC_18_Mod_range_hashingENSC_20_Default_ranged_hashENSC_20_Prime_rehash_policyENSC_17_Hashtable_traitsILb1ELb0ELb1EEEE12_Scoped_nodeD2Ev = comdat any

$_ZNKSt10_HashtableINSt7__cxx1112basic_stringIcSt11char_traitsIcESaIcEEESt4pairIKS5_N7rocksdb19ColumnFamilyOptionsEESaISA_ENSt8__detail10_Select1stESt8equal_toIS5_ESt4hashIS5_ENSC_18_Mod_range_hashingENSC_20_Default_ranged_hashENSC_20_Prime_rehash_policyENSC_17_Hashtable_traitsILb1ELb0ELb1EEEE19_M_find_before_nodeEmRS7_m = comdat any

$_ZNSt8__detail16_Hashtable_allocISaINS_10_Hash_nodeISt4pairIKNSt7__cxx1112basic_stringIcSt11char_traitsIcESaIcEEEN7rocksdb19ColumnFamilyOptionsEELb1EEEEE16_M_allocate_nodeIJRKSt21piecewise_construct_tSt5tupleIJRS9_EESK_IJEEEEEPSD_DpOT_ = comdat any

$_ZNSt10_HashtableINSt7__cxx1112basic_stringIcSt11char_traitsIcESaIcEEESt4pairIKS5_N7rocksdb19ColumnFamilyOptionsEESaISA_ENSt8__detail10_Select1stESt8equal_toIS5_ESt4hashIS5_ENSC_18_Mod_range_hashingENSC_20_Default_ranged_hashENSC_20_Prime_rehash_policyENSC_17_Hashtable_traitsILb1ELb0ELb1EEEE13_M_rehash_auxEmSt17integral_constantIbLb1EE = comdat any

$_ZN7rocksdb12FileMetaDataD2Ev = comdat any

$_ZN7rocksdb18ImmutableCFOptionsD2Ev = comdat any

$_ZNSt6vectorIN7rocksdb6DbPathESaIS1_EED2Ev = comdat any

$_ZNSt10shared_ptrIKN7rocksdb14SliceTransformEED2Ev = comdat any

$_ZNSt10shared_ptrIN7rocksdb12TableFactoryEED2Ev = comdat any

$_ZNSt10shared_ptrIN7rocksdb18MemTableRepFactoryEED2Ev = comdat any

$_ZNSt10shared_ptrIN7rocksdb23CompactionFilterFactoryEED2Ev = comdat any

$_ZNSt10shared_ptrIN7rocksdb13MergeOperatorEED2Ev = comdat any

$_ZNSt10shared_ptrIN7rocksdb17CompactionServiceEED2Ev = comdat any

$_ZNSt10shared_ptrIN7rocksdb22FileChecksumGenFactoryEED2Ev = comdat any

$_ZNSt6vectorISt10shared_ptrIN7rocksdb13EventListenerEESaIS3_EED2Ev = comdat any

$_ZNSt10shared_ptrIN7rocksdb18WriteBufferManagerEED2Ev = comdat any

$_ZNSt10shared_ptrIN7rocksdb10StatisticsEED2Ev = comdat any

$_ZNSt10shared_ptrIN7rocksdb6LoggerEED2Ev = comdat any

$_ZNSt10shared_ptrIN7rocksdb14SstFileManagerEED2Ev = comdat any

$_ZNSt10shared_ptrIN7rocksdb11RateLimiterEED2Ev = comdat any

$_ZN7rocksdb9IOOptionsD2Ev = comdat any

$_ZN7rocksdb27AdvancedColumnFamilyOptionsD2Ev = comdat any

$_ZNSt6vectorINSt7__cxx1112basic_stringIcSt11char_traitsIcESaIcEEESaIS5_EE17_M_realloc_insertIJRKS5_EEEvN9__gnu_cxx17__normal_iteratorIPS5_S7_EEDpOT_ = comdat any

$_ZNSt6vectorIN7rocksdb14FileDescriptorESaIS1_EE17_M_realloc_insertIJRmjiEEEvN9__gnu_cxx17__normal_iteratorIPS1_S3_EEDpOT_ = comdat any

$_ZN7rocksdb19ColumnFamilyOptionsC2ERKS0_ = comdat any

$_ZN7rocksdb27AdvancedColumnFamilyOptionsC2ERKS0_ = comdat any

$_ZNSt6vectorIN7rocksdb6DbPathESaIS1_EEC2ERKS3_ = comdat any

$_ZSt16__do_uninit_copyIPKN7rocksdb22ColumnFamilyDescriptorEPS1_ET0_T_S6_S5_ = comdat any

$_ZSt8_DestroyIPN7rocksdb22ColumnFamilyDescriptorEEvT_S3_ = comdat any

$_ZN7rocksdb12FileMetaDataC2Ev = comdat any

$_ZN7rocksdb16ParseInternalKeyERKNS_5SliceEPNS_17ParsedInternalKeyEb = comdat any

$_ZNK7rocksdb32FragmentedRangeTombstoneIterator9TombstoneEv = comdat any

$_ZN7rocksdb12FileMetaData24UpdateBoundariesForRangeERKNS_11InternalKeyES3_mRKNS_21InternalKeyComparatorE = comdat any

$_ZNK7rocksdb14RangeTombstone15SerializeEndKeyEv = comdat any

$_ZNSt10shared_ptrIKN7rocksdb15TablePropertiesEED2Ev = comdat any

$_ZStplIcSt11char_traitsIcESaIcEENSt7__cxx1112basic_stringIT_T0_T1_EEPKS5_RKS8_ = comdat any

$_ZNSt7__cxx119to_stringEj = comdat any

$_ZN7rocksdb10VersionSet11LogAndApplyEPNS_16ColumnFamilyDataERKNS_16MutableCFOptionsERKNS_11ReadOptionsEPNS_11VersionEditEPNS_17InstrumentedMutexEPNS_11FSDirectoryEbPKNS_19ColumnFamilyOptionsERKSt8functionIFvRKNS_6StatusEEE = comdat any

$_ZN7rocksdb11VersionEditD2Ev = comdat any

$_ZN7rocksdb16MutableCFOptionsD2Ev = comdat any

$_ZNSt10_HashtableINSt7__cxx1112basic_stringIcSt11char_traitsIcESaIcEEESt4pairIKS5_N7rocksdb19ColumnFamilyOptionsEESaISA_ENSt8__detail10_Select1stESt8equal_toIS5_ESt4hashIS5_ENSC_18_Mod_range_hashingENSC_20_Default_ranged_hashENSC_20_Prime_rehash_policyENSC_17_Hashtable_traitsILb1ELb0ELb1EEEE4findERS7_ = comdat any

$_ZN7rocksdb9DBOptionsC2ERKS0_ = comdat any

$_ZSt8_DestroyIPSt4pairIiN7rocksdb12FileMetaDataEES3_EvT_S5_RSaIT0_E = comdat any

$_ZSt8_DestroyIPSt4pairIiN7rocksdb12FileMetaDataEEEvT_S5_ = comdat any

$_ZNSt8_Rb_treeISt4pairIimES1_St9_IdentityIS1_ESt4lessIS1_ESaIS1_EE8_M_eraseEPSt13_Rb_tree_nodeIS1_E = comdat any

$_ZN7rocksdb10autovectorINS0_IPNS_11VersionEditELm8EEELm8EE12emplace_backIJRS3_EEEvDpOT_ = comdat any

$_ZNSt6vectorISt8functionIFvRKN7rocksdb6StatusEEESaIS6_EED2Ev = comdat any

$_ZN7rocksdb10autovectorINS0_IPNS_11VersionEditELm8EEELm8EED2Ev = comdat any

$_ZNSt6vectorIPN7rocksdb11VersionEditESaIS2_EE13_M_assign_auxIN9__gnu_cxx17__normal_iteratorIPKS2_S4_EEEEvT_SB_St20forward_iterator_tag = comdat any

$_ZNSt6vectorIN7rocksdb10autovectorIPNS0_11VersionEditELm8EEESaIS4_EE17_M_realloc_insertIJRS4_EEEvN9__gnu_cxx17__normal_iteratorIPS4_S6_EEDpOT_ = comdat any

$_ZSt16__do_uninit_copyIPKSt8functionIFvRKN7rocksdb6StatusEEEPS6_ET0_T_SB_SA_ = comdat any

$_ZSt8_DestroyIPSt8functionIFvRKN7rocksdb6StatusEEEEvT_S8_ = comdat any

$_ZNSt7__cxx119to_stringEm = comdat any

$_ZN7rocksdb14RangeTombstoneC2ENS_5SliceES1_mS1_ = comdat any

$_ZNK7rocksdb21InternalKeyComparator7CompareERKNS_11InternalKeyES3_ = comdat any

$_ZN7rocksdb12FileMetaDataC2ERKS0_ = comdat any

$_ZNSt6vectorISt10unique_ptrIN7rocksdb32FragmentedRangeTombstoneIteratorESt14default_deleteIS2_EESaIS5_EED2Ev = comdat any

$_ZN7rocksdb18SeqnoToTimeMappingD2Ev = comdat any

$_ZNSt10unique_ptrIN7rocksdb20SequentialFileReaderESt14default_deleteIS1_EED2Ev = comdat any

$_ZN7rocksdb26ColumnFamilyHandleInternalD2Ev = comdat any

$_ZN7rocksdb26ColumnFamilyHandleInternalD0Ev = comdat any

$_ZNK7rocksdb26ColumnFamilyHandleInternal3cfdEv = comdat any

$_ZNSt6vectorIN7rocksdb14FileDescriptorESaIS1_EE17_M_realloc_insertIJRKS1_EEEvN9__gnu_cxx17__normal_iteratorIPS1_S3_EEDpOT_ = comdat any

$_ZN7rocksdb20SequentialFileReaderD2Ev = comdat any

$_ZN7rocksdb19FSSequentialFilePtrD2Ev = comdat any

$_ZN7rocksdb28FSSequentialFileOwnerWrapperD2Ev = comdat any

$_ZN7rocksdb28FSSequentialFileOwnerWrapperD0Ev = comdat any

$_ZN7rocksdb23FSSequentialFileWrapper4ReadEmRKNS_9IOOptionsEPNS_5SliceEPcPNS_14IODebugContextE = comdat any

$_ZN7rocksdb23FSSequentialFileWrapper4SkipEm = comdat any

$_ZNK7rocksdb23FSSequentialFileWrapper13use_direct_ioEv = comdat any

$_ZNK7rocksdb23FSSequentialFileWrapper26GetRequiredBufferAlignmentEv = comdat any

$_ZN7rocksdb23FSSequentialFileWrapper15InvalidateCacheEmm = comdat any

$_ZN7rocksdb23FSSequentialFileWrapper14PositionedReadEmmRKNS_9IOOptionsEPNS_5SliceEPcPNS_14IODebugContextE = comdat any

$_ZNK7rocksdb23FSSequentialFileWrapper14GetTemperatureEv = comdat any

$_ZNSt10shared_ptrIN7rocksdb23CacheReservationManagerEED2Ev = comdat any

$_ZNSt6vectorISt4pairIiN7rocksdb12FileMetaDataEESaIS3_EE12emplace_backIJRiS2_EEERS3_DpOT_ = comdat any

$_ZNSt6vectorISt4pairIiN7rocksdb12FileMetaDataEESaIS3_EE17_M_realloc_insertIJRiS2_EEEvN9__gnu_cxx17__normal_iteratorIPS3_S5_EEDpOT_ = comdat any

$_ZNSt16allocator_traitsISaISt4pairIiN7rocksdb12FileMetaDataEEEE7destroyIS3_EEvRS4_PT_ = comdat any

$_ZNSt6vectorISt4pairIiN7rocksdb12FileMetaDataEESaIS3_EE17_M_realloc_insertIJRiRKS2_EEEvN9__gnu_cxx17__normal_iteratorIPS3_S5_EEDpOT_ = comdat any

$_ZTVN7rocksdb21InternalKeyComparatorE = comdat any

$_ZTVN7rocksdb15LRUCacheOptionsE = comdat any

$_ZTVN7rocksdb19ShardedCacheOptionsE = comdat any

$_ZSt19piecewise_construct = comdat any

$_ZZNSt8__detail18__to_chars_10_implIjEEvPcjT_E8__digits = comdat any

$_ZZNSt8__detail18__to_chars_10_implImEEvPcjT_E8__digits = comdat any

$_ZZNK7rocksdb14RangeTombstone15SerializeEndKeyEvE6kTsMax = comdat any

$_ZTVN7rocksdb26ColumnFamilyHandleInternalE = comdat any

$_ZTVN7rocksdb28FSSequentialFileOwnerWrapperE = comdat any

@_ZN7rocksdbL18empty_operand_listE = internal global %"class.std::vector" zeroinitializer, align 8
@__dso_handle = external hidden global i8
@_ZTVN7rocksdb21InternalKeyComparatorE = linkonce_odr unnamed_addr constant { [5 x ptr] } { [5 x ptr] [ptr null, ptr null, ptr @_ZN7rocksdb21InternalKeyComparatorD2Ev, ptr @_ZN7rocksdb21InternalKeyComparatorD0Ev, ptr @_ZNK7rocksdb21InternalKeyComparator7CompareERKNS_5SliceES3_] }, comdat, align 8
@_ZN7rocksdb10perf_levelE = external thread_local global i8, align 1
@_ZN7rocksdb12perf_contextE = external thread_local global %"struct.rocksdb::PerfContext", align 8
@.str = private unnamed_addr constant [16 x i8] c"column_families\00", align 1
@.str.1 = private unnamed_addr constant [45 x i8] c"Must contain entry for default column family\00", align 1
@_ZN7rocksdb24kDefaultColumnFamilyNameB5cxx11E = external global %"class.std::__cxx11::basic_string", align 8
@__libc_single_threaded = external local_unnamed_addr global i8, align 1
@_ZN7rocksdb23kDefaultToAdaptiveMutexE = external local_unnamed_addr constant i8, align 1
@.str.2 = private constant [1 x i8] zeroinitializer, align 1
@_ZTVN7rocksdb15LRUCacheOptionsE = linkonce_odr unnamed_addr constant { [4 x ptr] } { [4 x ptr] [ptr null, ptr null, ptr @_ZN7rocksdb15LRUCacheOptionsD2Ev, ptr @_ZN7rocksdb15LRUCacheOptionsD0Ev] }, comdat, align 8
@_ZTVN7rocksdb19ShardedCacheOptionsE = linkonce_odr unnamed_addr constant { [4 x ptr] } { [4 x ptr] [ptr null, ptr null, ptr @_ZN7rocksdb19ShardedCacheOptionsD2Ev, ptr @_ZN7rocksdb19ShardedCacheOptionsD0Ev] }, comdat, align 8
@_ZSt19piecewise_construct = linkonce_odr constant %"struct.std::piecewise_construct_t" zeroinitializer, comdat, align 1
@.str.4 = private unnamed_addr constant [2 x i8] c"/\00", align 1
@.str.5 = private unnamed_addr constant [102 x i8] c"[%s:242] **** Repaired rocksdb %s; recovered %zu files; %lu bytes. Some data may have been lost. ****\00", align 1
@.str.6 = private unnamed_addr constant [106 x i8] c"generated/home/dtcxzyw/WorkSpace/Projects/compilers/llvm-opt-benchmark/bench/rocksdb/rocksdb/db/repair.cc\00", align 1
@.str.7 = private unnamed_addr constant [28 x i8] c"[%s:300] Searching path %s\0A\00", align 1
@.str.8 = private unnamed_addr constant [22 x i8] c"repair found no files\00", align 1
@.str.9 = private unnamed_addr constant [26 x i8] c"vector::_M_realloc_insert\00", align 1
@.str.10 = private unnamed_addr constant [6 x i8] c"/lost\00", align 1
@.str.11 = private unnamed_addr constant [27 x i8] c"[%s:787] Archiving %s: %s\0A\00", align 1
@.str.12 = private unnamed_addr constant [49 x i8] c"cannot create std::vector larger than max_size()\00", align 1
@.str.13 = private unnamed_addr constant [32 x i8] c"[%s:514] Table #%s: ignoring %s\00", align 1
@_ZN7rocksdbL28kUnknownFileChecksumFuncNameE = internal constant [8 x i8] c"Unknown\00", align 1
@.str.14 = private unnamed_addr constant [66 x i8] c"[%s:546] Table #%lu: unable to get unique id, default to Unknown.\00", align 1
@_ZN7rocksdb31TablePropertiesCollectorFactory7Context20kUnknownColumnFamilyE = external local_unnamed_addr constant i32, align 4
@.str.15 = private unnamed_addr constant [114 x i8] c"[%s:556] Table #%lu: column family unknown (probably due to legacy format); adding to default column family id 0.\00", align 1
@.str.16 = private unnamed_addr constant [98 x i8] c"[%s:590] Table #%lu: inconsistent column family name '%s'; expected '%s' for column family id %u.\00", align 1
@.str.17 = private unnamed_addr constant [32 x i8] c"inconsistent column family name\00", align 1
@.str.18 = private unnamed_addr constant [41 x i8] c"[%s:617] Table #%lu: unparsable key - %s\00", align 1
@.str.19 = private unnamed_addr constant [35 x i8] c"[%s:636] Table #%lu: %d entries %s\00", align 1
@.str.20 = private unnamed_addr constant [45 x i8] c"Encountered unknown column family with name=\00", align 1
@.str.21 = private unnamed_addr constant [6 x i8] c", id=\00", align 1
@_ZZNSt8__detail18__to_chars_10_implIjEEvPcjT_E8__digits = linkonce_odr local_unnamed_addr constant [201 x i8] c"00010203040506070809101112131415161718192021222324252627282930313233343536373839404142434445464748495051525354555657585960616263646566676869707172737475767778798081828384858687888990919293949596979899\00", comdat, align 16
@.str.22 = private unnamed_addr constant [45 x i8] c"Corrupted Key: Internal Key too small. Size=\00", align 1
@.str.23 = private unnamed_addr constant [3 x i8] c". \00", align 1
@.str.24 = private unnamed_addr constant [14 x i8] c"Corrupted Key\00", align 1
@_ZZNSt8__detail18__to_chars_10_implImEEvPcjT_E8__digits = linkonce_odr local_unnamed_addr constant [201 x i8] c"00010203040506070809101112131415161718192021222324252627282930313233343536373839404142434445464748495051525354555657585960616263646566676869707172737475767778798081828384858687888990919293949596979899\00", comdat, align 16
@_ZZNK7rocksdb14RangeTombstone15SerializeEndKeyEvE6kTsMax = linkonce_odr constant [10 x i8] c"\FF\FF\FF\FF\FF\FF\FF\FF\FF\00", comdat, align 1
@.str.25 = private unnamed_addr constant [49 x i8] c"[%s:347] Log #%lu: ignoring conversion error: %s\00", align 1
@.str.26 = private unnamed_addr constant [21 x i8] c"log record too small\00", align 1
@.str.27 = private unnamed_addr constant [31 x i8] c"[%s:428] Log #%lu: ignoring %s\00", align 1
@.str.28 = private unnamed_addr constant [12 x i8] c"DB Repairer\00", align 1
@.str.29 = private unnamed_addr constant [49 x i8] c"[%s:489] Log #%lu: %d ops saved to Table #%lu %s\00", align 1
@_ZTVZN7rocksdb12_GLOBAL__N_18Repairer17ConvertLogToTableERKNSt7__cxx1112basic_stringIcSt11char_traitsIcESaIcEEEmE11LogReporter = internal unnamed_addr constant { [5 x ptr] } { [5 x ptr] [ptr null, ptr null, ptr @_ZZN7rocksdb12_GLOBAL__N_18Repairer17ConvertLogToTableERKNSt7__cxx1112basic_stringIcSt11char_traitsIcESaIcEEEmEN11LogReporterD2Ev, ptr @_ZZN7rocksdb12_GLOBAL__N_18Repairer17ConvertLogToTableERKNSt7__cxx1112basic_stringIcSt11char_traitsIcESaIcEEEmEN11LogReporterD0Ev, ptr @_ZZN7rocksdb12_GLOBAL__N_18Repairer17ConvertLogToTableERKNSt7__cxx1112basic_stringIcSt11char_traitsIcESaIcEEEmEN11LogReporter10CorruptionEmRKNS_6StatusE] }, align 8
@_ZTVN7rocksdb25ColumnFamilyMemTablesImplE = external unnamed_addr constant { [9 x ptr] }, align 8
@_ZTVN7rocksdb26ColumnFamilyHandleInternalE = linkonce_odr unnamed_addr constant { [9 x ptr] } { [9 x ptr] [ptr null, ptr null, ptr @_ZN7rocksdb26ColumnFamilyHandleInternalD2Ev, ptr @_ZN7rocksdb26ColumnFamilyHandleInternalD0Ev, ptr @_ZNK7rocksdb22ColumnFamilyHandleImpl7GetNameB5cxx11Ev, ptr @_ZNK7rocksdb22ColumnFamilyHandleImpl5GetIDEv, ptr @_ZN7rocksdb22ColumnFamilyHandleImpl13GetDescriptorEPNS_22ColumnFamilyDescriptorE, ptr @_ZNK7rocksdb22ColumnFamilyHandleImpl13GetComparatorEv, ptr @_ZNK7rocksdb26ColumnFamilyHandleInternal3cfdEv] }, comdat, align 8
@.str.30 = private unnamed_addr constant [41 x i8] c"[%s:361] Log #%lu: dropping %d bytes; %s\00", align 1
@_ZTVN7rocksdb30FSSequentialFileTracingWrapperE = external unnamed_addr constant { [11 x ptr] }, align 8
@_ZTVN7rocksdb28FSSequentialFileOwnerWrapperE = linkonce_odr unnamed_addr constant { [11 x ptr] } { [11 x ptr] [ptr null, ptr null, ptr @_ZN7rocksdb28FSSequentialFileOwnerWrapperD2Ev, ptr @_ZN7rocksdb28FSSequentialFileOwnerWrapperD0Ev, ptr @_ZN7rocksdb23FSSequentialFileWrapper4ReadEmRKNS_9IOOptionsEPNS_5SliceEPcPNS_14IODebugContextE, ptr @_ZN7rocksdb23FSSequentialFileWrapper4SkipEm, ptr @_ZNK7rocksdb23FSSequentialFileWrapper13use_direct_ioEv, ptr @_ZNK7rocksdb23FSSequentialFileWrapper26GetRequiredBufferAlignmentEv, ptr @_ZN7rocksdb23FSSequentialFileWrapper15InvalidateCacheEmm, ptr @_ZN7rocksdb23FSSequentialFileWrapper14PositionedReadEmmRKNS_9IOOptionsEPNS_5SliceEPcPNS_14IODebugContextE, ptr @_ZNK7rocksdb23FSSequentialFileWrapper14GetTemperatureEv] }, comdat, align 8
@llvm.global_ctors = appending global [1 x { i32, ptr, ptr }] [{ i32, ptr, ptr } { i32 65535, ptr @_GLOBAL__sub_I_repair.cc, ptr null }]

; Function Attrs: uwtable
define linkonce_odr noundef i32 @_ZNK7rocksdb21InternalKeyComparator7CompareERKNS_5SliceES3_(ptr noundef nonnull align 8 dereferenceable(16) %this, ptr noundef nonnull align 8 dereferenceable(16) %akey, ptr noundef nonnull align 8 dereferenceable(16) %bkey) unnamed_addr #0 comdat align 2 {
entry:
  %ref.tmp = alloca %"class.rocksdb::Slice", align 8
  %ref.tmp2 = alloca %"class.rocksdb::Slice", align 8
  %user_comparator_ = getelementptr inbounds %"class.rocksdb::InternalKeyComparator", ptr %this, i64 0, i32 1
  %0 = load ptr, ptr %akey, align 8
  %size_.i.i = getelementptr inbounds %"class.rocksdb::Slice", ptr %akey, i64 0, i32 1
  %1 = load i64, ptr %size_.i.i, align 8
  %sub.i = add i64 %1, -8
  store ptr %0, ptr %ref.tmp, align 8
  %2 = getelementptr inbounds { ptr, i64 }, ptr %ref.tmp, i64 0, i32 1
  store i64 %sub.i, ptr %2, align 8
  %3 = load ptr, ptr %bkey, align 8
  %size_.i.i8 = getelementptr inbounds %"class.rocksdb::Slice", ptr %bkey, i64 0, i32 1
  %4 = load i64, ptr %size_.i.i8, align 8
  %sub.i9 = add i64 %4, -8
  store ptr %3, ptr %ref.tmp2, align 8
  %5 = getelementptr inbounds { ptr, i64 }, ptr %ref.tmp2, i64 0, i32 1
  store i64 %sub.i9, ptr %5, align 8
  br i1 icmp ne (ptr @_ZTHN7rocksdb10perf_levelE, ptr null), label %6, label %_ZTWN7rocksdb10perf_levelE.exit.i

6:                                                ; preds = %entry
  tail call void @_ZTHN7rocksdb10perf_levelE()
  br label %_ZTWN7rocksdb10perf_levelE.exit.i

_ZTWN7rocksdb10perf_levelE.exit.i:                ; preds = %6, %entry
  %7 = tail call noundef align 1 ptr @llvm.threadlocal.address.p0(ptr align 1 @_ZN7rocksdb10perf_levelE)
  %8 = load i8, ptr %7, align 1
  %cmp.i = icmp ugt i8 %8, 1
  br i1 %cmp.i, label %if.then.i, label %_ZNK7rocksdb21UserComparatorWrapper7CompareERKNS_5SliceES3_.exit

if.then.i:                                        ; preds = %_ZTWN7rocksdb10perf_levelE.exit.i
  br i1 icmp ne (ptr @_ZTHN7rocksdb12perf_contextE, ptr null), label %9, label %_ZTWN7rocksdb12perf_contextE.exit.i

9:                                                ; preds = %if.then.i
  tail call void @_ZTHN7rocksdb12perf_contextE()
  br label %_ZTWN7rocksdb12perf_contextE.exit.i

_ZTWN7rocksdb12perf_contextE.exit.i:              ; preds = %9, %if.then.i
  %10 = tail call noundef align 8 ptr @llvm.threadlocal.address.p0(ptr align 8 @_ZN7rocksdb12perf_contextE)
  %11 = load i64, ptr %10, align 8
  %add.i = add i64 %11, 1
  store i64 %add.i, ptr %10, align 8
  br label %_ZNK7rocksdb21UserComparatorWrapper7CompareERKNS_5SliceES3_.exit

_ZNK7rocksdb21UserComparatorWrapper7CompareERKNS_5SliceES3_.exit: ; preds = %_ZTWN7rocksdb10perf_levelE.exit.i, %_ZTWN7rocksdb12perf_contextE.exit.i
  %12 = load ptr, ptr %user_comparator_, align 8
  %add.ptr.i = getelementptr inbounds i8, ptr %12, i64 32
  %vtable.i = load ptr, ptr %add.ptr.i, align 8
  %vfn.i = getelementptr inbounds ptr, ptr %vtable.i, i64 2
  %13 = load ptr, ptr %vfn.i, align 8
  %call.i = call noundef i32 %13(ptr noundef nonnull align 8 dereferenceable(8) %add.ptr.i, ptr noundef nonnull align 8 dereferenceable(16) %ref.tmp, ptr noundef nonnull align 8 dereferenceable(16) %ref.tmp2)
  %cmp = icmp eq i32 %call.i, 0
  br i1 %cmp, label %if.then, label %if.end19

if.then:                                          ; preds = %_ZNK7rocksdb21UserComparatorWrapper7CompareERKNS_5SliceES3_.exit
  %14 = load ptr, ptr %akey, align 8
  %15 = load i64, ptr %size_.i.i, align 8
  %add.ptr = getelementptr inbounds i8, ptr %14, i64 %15
  %add.ptr7 = getelementptr inbounds i8, ptr %add.ptr, i64 -8
  %result.0.copyload.i = load i64, ptr %add.ptr7, align 1
  %16 = load ptr, ptr %bkey, align 8
  %17 = load i64, ptr %size_.i.i8, align 8
  %add.ptr11 = getelementptr inbounds i8, ptr %16, i64 %17
  %add.ptr12 = getelementptr inbounds i8, ptr %add.ptr11, i64 -8
  %result.0.copyload.i13 = load i64, ptr %add.ptr12, align 1
  %cmp14 = icmp ugt i64 %result.0.copyload.i, %result.0.copyload.i13
  br i1 %cmp14, label %if.end19, label %if.else

if.else:                                          ; preds = %if.then
  %cmp16 = icmp ult i64 %result.0.copyload.i, %result.0.copyload.i13
  %spec.select = zext i1 %cmp16 to i32
  br label %if.end19

if.end19:                                         ; preds = %if.else, %if.then, %_ZNK7rocksdb21UserComparatorWrapper7CompareERKNS_5SliceES3_.exit
  %r.0 = phi i32 [ %call.i, %_ZNK7rocksdb21UserComparatorWrapper7CompareERKNS_5SliceES3_.exit ], [ -1, %if.then ], [ %spec.select, %if.else ]
  ret i32 %r.0
}

; Function Attrs: mustprogress nounwind uwtable
define linkonce_odr void @_ZNSt6vectorIN7rocksdb5SliceESaIS1_EED2Ev(ptr noundef nonnull align 8 dereferenceable(24) %this) unnamed_addr #1 comdat align 2 personality ptr @__gxx_personality_v0 {
invoke.cont:
  %0 = load ptr, ptr %this, align 8
  %tobool.not.i.i = icmp eq ptr %0, null
  br i1 %tobool.not.i.i, label %_ZNSt12_Vector_baseIN7rocksdb5SliceESaIS1_EED2Ev.exit, label %if.then.i.i

if.then.i.i:                                      ; preds = %invoke.cont
  tail call void @_ZdlPv(ptr noundef nonnull %0) #20
  br label %_ZNSt12_Vector_baseIN7rocksdb5SliceESaIS1_EED2Ev.exit

_ZNSt12_Vector_baseIN7rocksdb5SliceESaIS1_EED2Ev.exit: ; preds = %invoke.cont, %if.then.i.i
  ret void
}

; Function Attrs: nofree nounwind
declare i32 @__cxa_atexit(ptr, ptr, ptr) local_unnamed_addr #2

; Function Attrs: mustprogress uwtable
define void @_ZN7rocksdb8RepairDBERKNSt7__cxx1112basic_stringIcSt11char_traitsIcESaIcEEERKNS_9DBOptionsERKSt6vectorINS_22ColumnFamilyDescriptorESaISC_EE(ptr noalias sret(%"class.rocksdb::Status") align 8 %agg.result, ptr noundef nonnull align 8 dereferenceable(32) %dbname, ptr noundef nonnull align 8 dereferenceable(688) %db_options, ptr nocapture noundef nonnull readonly align 8 dereferenceable(24) %column_families) local_unnamed_addr #3 personality ptr @__gxx_personality_v0 {
entry:
  %ref.tmp.i = alloca %"class.rocksdb::Status", align 8
  %default_cf_opts = alloca %"struct.rocksdb::ColumnFamilyOptions", align 8
  %repairer = alloca %"class.rocksdb::(anonymous namespace)::Repairer", align 8
  %ref.tmp = alloca %"struct.rocksdb::ColumnFamilyOptions", align 8
  %ref.tmp6 = alloca %"class.rocksdb::Status", align 8
  call void @_ZN7rocksdb19ColumnFamilyOptionsC1Ev(ptr noundef nonnull align 8 dereferenceable(820) %default_cf_opts)
  invoke fastcc void @_ZN7rocksdb12_GLOBAL__N_119GetDefaultCFOptionsERKSt6vectorINS_22ColumnFamilyDescriptorESaIS2_EEPNS_19ColumnFamilyOptionsE(ptr noalias align 8 %agg.result, ptr noundef nonnull align 8 dereferenceable(24) %column_families, ptr noundef nonnull %default_cf_opts)
          to label %invoke.cont2 unwind label %lpad

invoke.cont2:                                     ; preds = %entry
  %0 = load i8, ptr %agg.result, align 8
  %cmp.i = icmp eq i8 %0, 0
  br i1 %cmp.i, label %if.end, label %nrvo.skipdtor

lpad:                                             ; preds = %entry
  %1 = landingpad { ptr, i32 }
          cleanup
  br label %ehcleanup18

lpad1:                                            ; preds = %if.end
  %2 = landingpad { ptr, i32 }
          cleanup
  br label %ehcleanup

if.end:                                           ; preds = %invoke.cont2
  invoke void @_ZN7rocksdb19ColumnFamilyOptionsC1Ev(ptr noundef nonnull align 8 dereferenceable(820) %ref.tmp)
          to label %invoke.cont3 unwind label %lpad1

invoke.cont3:                                     ; preds = %if.end
  invoke fastcc void @_ZN7rocksdb12_GLOBAL__N_18RepairerC2ERKNSt7__cxx1112basic_stringIcSt11char_traitsIcESaIcEEERKNS_9DBOptionsERKSt6vectorINS_22ColumnFamilyDescriptorESaISE_EERKNS_19ColumnFamilyOptionsESL_b(ptr noundef nonnull align 8 dereferenceable(5249) %repairer, ptr noundef nonnull align 8 dereferenceable(32) %dbname, ptr noundef nonnull align 8 dereferenceable(688) %db_options, ptr noundef nonnull align 8 dereferenceable(24) %column_families, ptr noundef nonnull align 8 dereferenceable(820) %default_cf_opts, ptr noundef nonnull align 8 dereferenceable(820) %ref.tmp, i1 noundef zeroext false)
          to label %invoke.cont5 unwind label %lpad4

invoke.cont5:                                     ; preds = %invoke.cont3
  call void @_ZN7rocksdb19ColumnFamilyOptionsD2Ev(ptr noundef nonnull align 8 dereferenceable(820) %ref.tmp) #21
  invoke fastcc void @_ZN7rocksdb12_GLOBAL__N_18Repairer3RunEv(ptr noalias nonnull align 8 %ref.tmp6, ptr noundef nonnull align 8 dereferenceable(5249) %repairer)
          to label %invoke.cont8 unwind label %lpad7

invoke.cont8:                                     ; preds = %invoke.cont5
  %cmp.not.i = icmp eq ptr %ref.tmp6, %agg.result
  br i1 %cmp.not.i, label %_ZN7rocksdb6StatusaSEOS0_.exit, label %if.then.i

if.then.i:                                        ; preds = %invoke.cont8
  %3 = load i8, ptr %ref.tmp6, align 8
  store i8 %3, ptr %agg.result, align 8
  %subcode_.i = getelementptr inbounds %"class.rocksdb::Status", ptr %ref.tmp6, i64 0, i32 1
  %4 = load i8, ptr %subcode_.i, align 1
  %subcode_4.i = getelementptr inbounds %"class.rocksdb::Status", ptr %agg.result, i64 0, i32 1
  store i8 %4, ptr %subcode_4.i, align 1
  %sev_.i = getelementptr inbounds %"class.rocksdb::Status", ptr %ref.tmp6, i64 0, i32 2
  %5 = load i8, ptr %sev_.i, align 2
  %sev_6.i = getelementptr inbounds %"class.rocksdb::Status", ptr %agg.result, i64 0, i32 2
  store i8 %5, ptr %sev_6.i, align 2
  %retryable_.i = getelementptr inbounds %"class.rocksdb::Status", ptr %ref.tmp6, i64 0, i32 3
  %6 = load i8, ptr %retryable_.i, align 1
  %7 = and i8 %6, 1
  %retryable_8.i = getelementptr inbounds %"class.rocksdb::Status", ptr %agg.result, i64 0, i32 3
  store i8 %7, ptr %retryable_8.i, align 1
  store <4 x i8> zeroinitializer, ptr %ref.tmp6, align 8
  %data_loss_.i = getelementptr inbounds %"class.rocksdb::Status", ptr %ref.tmp6, i64 0, i32 4
  %8 = load i8, ptr %data_loss_.i, align 4
  %9 = and i8 %8, 1
  %data_loss_11.i = getelementptr inbounds %"class.rocksdb::Status", ptr %agg.result, i64 0, i32 4
  store i8 %9, ptr %data_loss_11.i, align 4
  store i8 0, ptr %data_loss_.i, align 4
  %scope_.i = getelementptr inbounds %"class.rocksdb::Status", ptr %ref.tmp6, i64 0, i32 5
  %10 = load i8, ptr %scope_.i, align 1
  %scope_14.i = getelementptr inbounds %"class.rocksdb::Status", ptr %agg.result, i64 0, i32 5
  store i8 %10, ptr %scope_14.i, align 1
  store i8 0, ptr %scope_.i, align 1
  %state_.i = getelementptr inbounds %"class.rocksdb::Status", ptr %ref.tmp6, i64 0, i32 6
  %state_16.i = getelementptr inbounds %"class.rocksdb::Status", ptr %agg.result, i64 0, i32 6
  %11 = load ptr, ptr %state_.i, align 8
  store ptr null, ptr %state_.i, align 8
  %12 = load ptr, ptr %state_16.i, align 8
  store ptr %11, ptr %state_16.i, align 8
  %tobool.not.i.i.i.i.i = icmp eq ptr %12, null
  br i1 %tobool.not.i.i.i.i.i, label %_ZN7rocksdb6StatusaSEOS0_.exit, label %_ZNKSt14default_deleteIA_KcEclIS0_EENSt9enable_ifIXsr14is_convertibleIPA_T_PS1_EE5valueEvE4typeEPS5_.exit.i.i.i.i.i

_ZNKSt14default_deleteIA_KcEclIS0_EENSt9enable_ifIXsr14is_convertibleIPA_T_PS1_EE5valueEvE4typeEPS5_.exit.i.i.i.i.i: ; preds = %if.then.i
  call void @_ZdaPv(ptr noundef nonnull %12) #20
  br label %_ZN7rocksdb6StatusaSEOS0_.exit

_ZN7rocksdb6StatusaSEOS0_.exit:                   ; preds = %invoke.cont8, %if.then.i, %_ZNKSt14default_deleteIA_KcEclIS0_EENSt9enable_ifIXsr14is_convertibleIPA_T_PS1_EE5valueEvE4typeEPS5_.exit.i.i.i.i.i
  %state_.i4 = getelementptr inbounds %"class.rocksdb::Status", ptr %ref.tmp6, i64 0, i32 6
  %13 = load ptr, ptr %state_.i4, align 8
  %cmp.not.i.i = icmp eq ptr %13, null
  br i1 %cmp.not.i.i, label %invoke.cont10, label %_ZNKSt14default_deleteIA_KcEclIS0_EENSt9enable_ifIXsr14is_convertibleIPA_T_PS1_EE5valueEvE4typeEPS5_.exit.i.i

_ZNKSt14default_deleteIA_KcEclIS0_EENSt9enable_ifIXsr14is_convertibleIPA_T_PS1_EE5valueEvE4typeEPS5_.exit.i.i: ; preds = %_ZN7rocksdb6StatusaSEOS0_.exit
  call void @_ZdaPv(ptr noundef nonnull %13) #20
  br label %invoke.cont10

invoke.cont10:                                    ; preds = %_ZNKSt14default_deleteIA_KcEclIS0_EENSt9enable_ifIXsr14is_convertibleIPA_T_PS1_EE5valueEvE4typeEPS5_.exit.i.i, %_ZN7rocksdb6StatusaSEOS0_.exit
  store ptr null, ptr %state_.i4, align 8
  %14 = load i8, ptr %agg.result, align 8
  %cmp.i5 = icmp eq i8 %14, 0
  br i1 %cmp.i5, label %if.then12, label %if.end16

if.then12:                                        ; preds = %invoke.cont10
  call void @llvm.lifetime.start.p0(i64 16, ptr nonnull %ref.tmp.i)
  %closed_.i = getelementptr inbounds %"class.rocksdb::(anonymous namespace)::Repairer", ptr %repairer, i64 0, i32 25
  %15 = load i8, ptr %closed_.i, align 8, !noalias !4
  %16 = and i8 %15, 1
  %tobool.not.i = icmp eq i8 %16, 0
  br i1 %tobool.not.i, label %if.then.i6, label %invoke.cont14

if.then.i6:                                       ; preds = %if.then12
  %db_lock_.i = getelementptr inbounds %"class.rocksdb::(anonymous namespace)::Repairer", ptr %repairer, i64 0, i32 24
  %17 = load ptr, ptr %db_lock_.i, align 8, !noalias !4
  %cmp.not.i7 = icmp eq ptr %17, null
  br i1 %cmp.not.i7, label %if.end.i, label %if.then2.i

if.then2.i:                                       ; preds = %if.then.i6
  %env_.i = getelementptr inbounds %"class.rocksdb::(anonymous namespace)::Repairer", ptr %repairer, i64 0, i32 2
  %18 = load ptr, ptr %env_.i, align 8, !noalias !4
  %vtable.i = load ptr, ptr %18, align 8, !noalias !4
  %vfn.i = getelementptr inbounds ptr, ptr %vtable.i, i64 44
  %19 = load ptr, ptr %vfn.i, align 8, !noalias !4
  invoke void %19(ptr nonnull sret(%"class.rocksdb::Status") align 8 %ref.tmp.i, ptr noundef nonnull align 8 dereferenceable(72) %18, ptr noundef nonnull %17)
          to label %invoke.cont.i unwind label %_ZN7rocksdb6StatusD2Ev.exit5.i, !noalias !4

invoke.cont.i:                                    ; preds = %if.then2.i
  %20 = load i8, ptr %ref.tmp.i, align 8, !noalias !4
  %subcode_.i.i = getelementptr inbounds %"class.rocksdb::Status", ptr %ref.tmp.i, i64 0, i32 1
  %21 = load i8, ptr %subcode_.i.i, align 1, !noalias !4
  %sev_.i.i = getelementptr inbounds %"class.rocksdb::Status", ptr %ref.tmp.i, i64 0, i32 2
  %22 = load i8, ptr %sev_.i.i, align 2, !noalias !4
  %retryable_.i.i = getelementptr inbounds %"class.rocksdb::Status", ptr %ref.tmp.i, i64 0, i32 3
  %23 = load i8, ptr %retryable_.i.i, align 1, !noalias !4
  %24 = and i8 %23, 1
  %data_loss_.i.i = getelementptr inbounds %"class.rocksdb::Status", ptr %ref.tmp.i, i64 0, i32 4
  %25 = load i8, ptr %data_loss_.i.i, align 4, !noalias !4
  %26 = and i8 %25, 1
  %scope_.i.i = getelementptr inbounds %"class.rocksdb::Status", ptr %ref.tmp.i, i64 0, i32 5
  %27 = load i8, ptr %scope_.i.i, align 1, !noalias !4
  %state_.i.i = getelementptr inbounds %"class.rocksdb::Status", ptr %ref.tmp.i, i64 0, i32 6
  %28 = load ptr, ptr %state_.i.i, align 8, !noalias !4
  store ptr null, ptr %db_lock_.i, align 8, !noalias !4
  br label %if.end.i

_ZN7rocksdb6StatusD2Ev.exit5.i:                   ; preds = %if.then2.i
  %29 = landingpad { ptr, i32 }
          cleanup
  br label %lpad7.body

if.end.i:                                         ; preds = %invoke.cont.i, %if.then.i6
  %ref.tmp13.sroa.0.0 = phi i8 [ 0, %if.then.i6 ], [ %20, %invoke.cont.i ]
  %ref.tmp13.sroa.4.0 = phi i8 [ 0, %if.then.i6 ], [ %21, %invoke.cont.i ]
  %ref.tmp13.sroa.7.0 = phi i8 [ 0, %if.then.i6 ], [ %22, %invoke.cont.i ]
  %ref.tmp13.sroa.10.0 = phi i8 [ 0, %if.then.i6 ], [ %24, %invoke.cont.i ]
  %ref.tmp13.sroa.13.0 = phi i8 [ 0, %if.then.i6 ], [ %26, %invoke.cont.i ]
  %ref.tmp13.sroa.19.0 = phi ptr [ null, %if.then.i6 ], [ %28, %invoke.cont.i ]
  %ref.tmp13.sroa.16.0 = phi i8 [ 0, %if.then.i6 ], [ %27, %invoke.cont.i ]
  store i8 1, ptr %closed_.i, align 8, !noalias !4
  br label %invoke.cont14

invoke.cont14:                                    ; preds = %if.end.i, %if.then12
  %ref.tmp13.sroa.0.1 = phi i8 [ %ref.tmp13.sroa.0.0, %if.end.i ], [ 0, %if.then12 ]
  %ref.tmp13.sroa.4.1 = phi i8 [ %ref.tmp13.sroa.4.0, %if.end.i ], [ 0, %if.then12 ]
  %ref.tmp13.sroa.7.1 = phi i8 [ %ref.tmp13.sroa.7.0, %if.end.i ], [ 0, %if.then12 ]
  %ref.tmp13.sroa.10.1 = phi i8 [ %ref.tmp13.sroa.10.0, %if.end.i ], [ 0, %if.then12 ]
  %ref.tmp13.sroa.13.1 = phi i8 [ %ref.tmp13.sroa.13.0, %if.end.i ], [ 0, %if.then12 ]
  %ref.tmp13.sroa.19.1 = phi ptr [ %ref.tmp13.sroa.19.0, %if.end.i ], [ null, %if.then12 ]
  %ref.tmp13.sroa.16.1 = phi i8 [ %ref.tmp13.sroa.16.0, %if.end.i ], [ 0, %if.then12 ]
  call void @llvm.lifetime.end.p0(i64 16, ptr nonnull %ref.tmp.i)
  store i8 %ref.tmp13.sroa.0.1, ptr %agg.result, align 8
  %subcode_4.i11 = getelementptr inbounds %"class.rocksdb::Status", ptr %agg.result, i64 0, i32 1
  store i8 %ref.tmp13.sroa.4.1, ptr %subcode_4.i11, align 1
  %sev_6.i13 = getelementptr inbounds %"class.rocksdb::Status", ptr %agg.result, i64 0, i32 2
  store i8 %ref.tmp13.sroa.7.1, ptr %sev_6.i13, align 2
  %retryable_8.i15 = getelementptr inbounds %"class.rocksdb::Status", ptr %agg.result, i64 0, i32 3
  store i8 %ref.tmp13.sroa.10.1, ptr %retryable_8.i15, align 1
  %data_loss_11.i17 = getelementptr inbounds %"class.rocksdb::Status", ptr %agg.result, i64 0, i32 4
  store i8 %ref.tmp13.sroa.13.1, ptr %data_loss_11.i17, align 4
  %scope_14.i19 = getelementptr inbounds %"class.rocksdb::Status", ptr %agg.result, i64 0, i32 5
  store i8 %ref.tmp13.sroa.16.1, ptr %scope_14.i19, align 1
  %state_16.i21 = getelementptr inbounds %"class.rocksdb::Status", ptr %agg.result, i64 0, i32 6
  %30 = load ptr, ptr %state_16.i21, align 8
  store ptr %ref.tmp13.sroa.19.1, ptr %state_16.i21, align 8
  %tobool.not.i.i.i.i.i22 = icmp eq ptr %30, null
  br i1 %tobool.not.i.i.i.i.i22, label %if.end16, label %_ZNKSt14default_deleteIA_KcEclIS0_EENSt9enable_ifIXsr14is_convertibleIPA_T_PS1_EE5valueEvE4typeEPS5_.exit.i.i.i.i.i23

_ZNKSt14default_deleteIA_KcEclIS0_EENSt9enable_ifIXsr14is_convertibleIPA_T_PS1_EE5valueEvE4typeEPS5_.exit.i.i.i.i.i23: ; preds = %invoke.cont14
  call void @_ZdaPv(ptr noundef nonnull %30) #20
  br label %if.end16

lpad4:                                            ; preds = %invoke.cont3
  %31 = landingpad { ptr, i32 }
          cleanup
  call void @_ZN7rocksdb19ColumnFamilyOptionsD2Ev(ptr noundef nonnull align 8 dereferenceable(820) %ref.tmp) #21
  br label %ehcleanup

lpad7:                                            ; preds = %invoke.cont5
  %32 = landingpad { ptr, i32 }
          cleanup
  br label %lpad7.body

lpad7.body:                                       ; preds = %_ZN7rocksdb6StatusD2Ev.exit5.i, %lpad7
  %eh.lpad-body = phi { ptr, i32 } [ %32, %lpad7 ], [ %29, %_ZN7rocksdb6StatusD2Ev.exit5.i ]
  call fastcc void @_ZN7rocksdb12_GLOBAL__N_18RepairerD2Ev(ptr noundef nonnull align 8 dereferenceable(5249) %repairer) #21
  br label %ehcleanup

if.end16:                                         ; preds = %invoke.cont14, %_ZNKSt14default_deleteIA_KcEclIS0_EENSt9enable_ifIXsr14is_convertibleIPA_T_PS1_EE5valueEvE4typeEPS5_.exit.i.i.i.i.i23, %invoke.cont10
  call fastcc void @_ZN7rocksdb12_GLOBAL__N_18RepairerD2Ev(ptr noundef nonnull align 8 dereferenceable(5249) %repairer) #21
  br label %nrvo.skipdtor

nrvo.skipdtor:                                    ; preds = %if.end16, %invoke.cont2
  call void @_ZN7rocksdb19ColumnFamilyOptionsD2Ev(ptr noundef nonnull align 8 dereferenceable(820) %default_cf_opts) #21
  ret void

ehcleanup:                                        ; preds = %lpad7.body, %lpad4, %lpad1
  %.pn = phi { ptr, i32 } [ %eh.lpad-body, %lpad7.body ], [ %31, %lpad4 ], [ %2, %lpad1 ]
  %state_.i30 = getelementptr inbounds %"class.rocksdb::Status", ptr %agg.result, i64 0, i32 6
  %33 = load ptr, ptr %state_.i30, align 8
  %cmp.not.i.i31 = icmp eq ptr %33, null
  br i1 %cmp.not.i.i31, label %_ZN7rocksdb6StatusD2Ev.exit33, label %_ZNKSt14default_deleteIA_KcEclIS0_EENSt9enable_ifIXsr14is_convertibleIPA_T_PS1_EE5valueEvE4typeEPS5_.exit.i.i32

_ZNKSt14default_deleteIA_KcEclIS0_EENSt9enable_ifIXsr14is_convertibleIPA_T_PS1_EE5valueEvE4typeEPS5_.exit.i.i32: ; preds = %ehcleanup
  call void @_ZdaPv(ptr noundef nonnull %33) #20
  br label %_ZN7rocksdb6StatusD2Ev.exit33

_ZN7rocksdb6StatusD2Ev.exit33:                    ; preds = %ehcleanup, %_ZNKSt14default_deleteIA_KcEclIS0_EENSt9enable_ifIXsr14is_convertibleIPA_T_PS1_EE5valueEvE4typeEPS5_.exit.i.i32
  store ptr null, ptr %state_.i30, align 8
  br label %ehcleanup18

ehcleanup18:                                      ; preds = %_ZN7rocksdb6StatusD2Ev.exit33, %lpad
  %.pn.pn = phi { ptr, i32 } [ %.pn, %_ZN7rocksdb6StatusD2Ev.exit33 ], [ %1, %lpad ]
  call void @_ZN7rocksdb19ColumnFamilyOptionsD2Ev(ptr noundef nonnull align 8 dereferenceable(820) %default_cf_opts) #21
  resume { ptr, i32 } %.pn.pn
}

declare void @_ZN7rocksdb19ColumnFamilyOptionsC1Ev(ptr noundef nonnull align 8 dereferenceable(820)) unnamed_addr #4

; Function Attrs: mustprogress uwtable
define internal fastcc void @_ZN7rocksdb12_GLOBAL__N_119GetDefaultCFOptionsERKSt6vectorINS_22ColumnFamilyDescriptorESaIS2_EEPNS_19ColumnFamilyOptionsE(ptr noalias align 8 %agg.result, ptr nocapture noundef nonnull readonly align 8 dereferenceable(24) %column_families, ptr noundef %res) unnamed_addr #3 personality ptr @__gxx_personality_v0 {
entry:
  %ref.tmp12 = alloca %"class.rocksdb::Slice", align 8
  %ref.tmp13 = alloca %"class.rocksdb::Slice", align 8
  %0 = load ptr, ptr %column_families, align 8
  %_M_finish.i = getelementptr inbounds %"struct.std::_Vector_base<rocksdb::ColumnFamilyDescriptor, std::allocator<rocksdb::ColumnFamilyDescriptor>>::_Vector_impl_data", ptr %column_families, i64 0, i32 1
  %1 = load ptr, ptr %_M_finish.i, align 8
  %sub.ptr.lhs.cast.i.i.i.i = ptrtoint ptr %1 to i64
  %sub.ptr.rhs.cast.i.i.i.i = ptrtoint ptr %0 to i64
  %sub.ptr.sub.i.i.i.i = sub i64 %sub.ptr.lhs.cast.i.i.i.i, %sub.ptr.rhs.cast.i.i.i.i
  %sub.ptr.div.i.i.i.i = sdiv exact i64 %sub.ptr.sub.i.i.i.i, 856
  %shr.i.i.i = ashr i64 %sub.ptr.div.i.i.i.i, 2
  %cmp102.i.i.i = icmp sgt i64 %shr.i.i.i, 0
  br i1 %cmp102.i.i.i, label %for.body.i.i.i, label %for.end.i.i.i

for.body.i.i.i:                                   ; preds = %entry, %if.end22.i.i.i
  %__trip_count.0104.i.i.i = phi i64 [ %dec.i.i.i, %if.end22.i.i.i ], [ %shr.i.i.i, %entry ]
  %__first.sroa.0.0103.i.i.i = phi ptr [ %incdec.ptr.i44.i.i.i, %if.end22.i.i.i ], [ %0, %entry ]
  %call.i.i.i.i.i.i = tail call noundef i64 @_ZNKSt7__cxx1112basic_stringIcSt11char_traitsIcESaIcEE4sizeEv(ptr noundef nonnull align 8 dereferenceable(32) %__first.sroa.0.0103.i.i.i) #21
  %call1.i.i.i.i.i.i = tail call noundef i64 @_ZNKSt7__cxx1112basic_stringIcSt11char_traitsIcESaIcEE4sizeEv(ptr noundef nonnull align 8 dereferenceable(32) @_ZN7rocksdb24kDefaultColumnFamilyNameB5cxx11E) #21
  %cmp.i.i.i.i.i.i = icmp eq i64 %call.i.i.i.i.i.i, %call1.i.i.i.i.i.i
  br i1 %cmp.i.i.i.i.i.i, label %land.rhs.i.i.i.i.i.i, label %if.end.i.i.i

land.rhs.i.i.i.i.i.i:                             ; preds = %for.body.i.i.i
  %call2.i.i.i.i.i.i = tail call noundef ptr @_ZNKSt7__cxx1112basic_stringIcSt11char_traitsIcESaIcEE4dataEv(ptr noundef nonnull align 8 dereferenceable(32) %__first.sroa.0.0103.i.i.i) #21
  %call3.i.i.i.i.i.i = tail call noundef ptr @_ZNKSt7__cxx1112basic_stringIcSt11char_traitsIcESaIcEE4dataEv(ptr noundef nonnull align 8 dereferenceable(32) @_ZN7rocksdb24kDefaultColumnFamilyNameB5cxx11E) #21
  %call4.i.i.i.i.i.i = tail call noundef i64 @_ZNKSt7__cxx1112basic_stringIcSt11char_traitsIcESaIcEE4sizeEv(ptr noundef nonnull align 8 dereferenceable(32) %__first.sroa.0.0103.i.i.i) #21
  %cmp.i.i.i.i.i.i.i = icmp eq i64 %call4.i.i.i.i.i.i, 0
  br i1 %cmp.i.i.i.i.i.i.i, label %"_ZSt7find_ifIN9__gnu_cxx17__normal_iteratorIPKN7rocksdb22ColumnFamilyDescriptorESt6vectorIS3_SaIS3_EEEEZNS2_12_GLOBAL__N_119GetDefaultCFOptionsERKS8_PNS2_19ColumnFamilyOptionsEE3$_0ET_SG_SG_T0_.exit", label %"_ZN9__gnu_cxx5__ops10_Iter_predIZN7rocksdb12_GLOBAL__N_119GetDefaultCFOptionsERKSt6vectorINS2_22ColumnFamilyDescriptorESaIS5_EEPNS2_19ColumnFamilyOptionsEE3$_0EclINS_17__normal_iteratorIPKS5_S7_EEEEbT_.exit.i.i.i"

"_ZN9__gnu_cxx5__ops10_Iter_predIZN7rocksdb12_GLOBAL__N_119GetDefaultCFOptionsERKSt6vectorINS2_22ColumnFamilyDescriptorESaIS5_EEPNS2_19ColumnFamilyOptionsEE3$_0EclINS_17__normal_iteratorIPKS5_S7_EEEEbT_.exit.i.i.i": ; preds = %land.rhs.i.i.i.i.i.i
  %bcmp.i.i.i.i.i.i = tail call i32 @bcmp(ptr %call2.i.i.i.i.i.i, ptr %call3.i.i.i.i.i.i, i64 %call4.i.i.i.i.i.i)
  %2 = icmp eq i32 %bcmp.i.i.i.i.i.i, 0
  br i1 %2, label %"_ZSt7find_ifIN9__gnu_cxx17__normal_iteratorIPKN7rocksdb22ColumnFamilyDescriptorESt6vectorIS3_SaIS3_EEEEZNS2_12_GLOBAL__N_119GetDefaultCFOptionsERKS8_PNS2_19ColumnFamilyOptionsEE3$_0ET_SG_SG_T0_.exit", label %if.end.i.i.i

if.end.i.i.i:                                     ; preds = %"_ZN9__gnu_cxx5__ops10_Iter_predIZN7rocksdb12_GLOBAL__N_119GetDefaultCFOptionsERKSt6vectorINS2_22ColumnFamilyDescriptorESaIS5_EEPNS2_19ColumnFamilyOptionsEE3$_0EclINS_17__normal_iteratorIPKS5_S7_EEEEbT_.exit.i.i.i", %for.body.i.i.i
  %incdec.ptr.i.i.i.i = getelementptr inbounds %"struct.rocksdb::ColumnFamilyDescriptor", ptr %__first.sroa.0.0103.i.i.i, i64 1
  %call.i.i.i9.i.i.i = tail call noundef i64 @_ZNKSt7__cxx1112basic_stringIcSt11char_traitsIcESaIcEE4sizeEv(ptr noundef nonnull align 8 dereferenceable(32) %incdec.ptr.i.i.i.i) #21
  %call1.i.i.i10.i.i.i = tail call noundef i64 @_ZNKSt7__cxx1112basic_stringIcSt11char_traitsIcESaIcEE4sizeEv(ptr noundef nonnull align 8 dereferenceable(32) @_ZN7rocksdb24kDefaultColumnFamilyNameB5cxx11E) #21
  %cmp.i.i.i11.i.i.i = icmp eq i64 %call.i.i.i9.i.i.i, %call1.i.i.i10.i.i.i
  br i1 %cmp.i.i.i11.i.i.i, label %land.rhs.i.i.i12.i.i.i, label %if.end10.i.i.i

land.rhs.i.i.i12.i.i.i:                           ; preds = %if.end.i.i.i
  %call2.i.i.i13.i.i.i = tail call noundef ptr @_ZNKSt7__cxx1112basic_stringIcSt11char_traitsIcESaIcEE4dataEv(ptr noundef nonnull align 8 dereferenceable(32) %incdec.ptr.i.i.i.i) #21
  %call3.i.i.i14.i.i.i = tail call noundef ptr @_ZNKSt7__cxx1112basic_stringIcSt11char_traitsIcESaIcEE4dataEv(ptr noundef nonnull align 8 dereferenceable(32) @_ZN7rocksdb24kDefaultColumnFamilyNameB5cxx11E) #21
  %call4.i.i.i15.i.i.i = tail call noundef i64 @_ZNKSt7__cxx1112basic_stringIcSt11char_traitsIcESaIcEE4sizeEv(ptr noundef nonnull align 8 dereferenceable(32) %incdec.ptr.i.i.i.i) #21
  %cmp.i.i.i.i16.i.i.i = icmp eq i64 %call4.i.i.i15.i.i.i, 0
  br i1 %cmp.i.i.i.i16.i.i.i, label %"_ZSt7find_ifIN9__gnu_cxx17__normal_iteratorIPKN7rocksdb22ColumnFamilyDescriptorESt6vectorIS3_SaIS3_EEEEZNS2_12_GLOBAL__N_119GetDefaultCFOptionsERKS8_PNS2_19ColumnFamilyOptionsEE3$_0ET_SG_SG_T0_.exit", label %"_ZN9__gnu_cxx5__ops10_Iter_predIZN7rocksdb12_GLOBAL__N_119GetDefaultCFOptionsERKSt6vectorINS2_22ColumnFamilyDescriptorESaIS5_EEPNS2_19ColumnFamilyOptionsEE3$_0EclINS_17__normal_iteratorIPKS5_S7_EEEEbT_.exit19.i.i.i"

"_ZN9__gnu_cxx5__ops10_Iter_predIZN7rocksdb12_GLOBAL__N_119GetDefaultCFOptionsERKSt6vectorINS2_22ColumnFamilyDescriptorESaIS5_EEPNS2_19ColumnFamilyOptionsEE3$_0EclINS_17__normal_iteratorIPKS5_S7_EEEEbT_.exit19.i.i.i": ; preds = %land.rhs.i.i.i12.i.i.i
  %bcmp.i.i.i18.i.i.i = tail call i32 @bcmp(ptr %call2.i.i.i13.i.i.i, ptr %call3.i.i.i14.i.i.i, i64 %call4.i.i.i15.i.i.i)
  %3 = icmp eq i32 %bcmp.i.i.i18.i.i.i, 0
  br i1 %3, label %"_ZSt7find_ifIN9__gnu_cxx17__normal_iteratorIPKN7rocksdb22ColumnFamilyDescriptorESt6vectorIS3_SaIS3_EEEEZNS2_12_GLOBAL__N_119GetDefaultCFOptionsERKS8_PNS2_19ColumnFamilyOptionsEE3$_0ET_SG_SG_T0_.exit", label %if.end10.i.i.i

if.end10.i.i.i:                                   ; preds = %"_ZN9__gnu_cxx5__ops10_Iter_predIZN7rocksdb12_GLOBAL__N_119GetDefaultCFOptionsERKSt6vectorINS2_22ColumnFamilyDescriptorESaIS5_EEPNS2_19ColumnFamilyOptionsEE3$_0EclINS_17__normal_iteratorIPKS5_S7_EEEEbT_.exit19.i.i.i", %if.end.i.i.i
  %incdec.ptr.i20.i.i.i = getelementptr inbounds %"struct.rocksdb::ColumnFamilyDescriptor", ptr %__first.sroa.0.0103.i.i.i, i64 2
  %call.i.i.i21.i.i.i = tail call noundef i64 @_ZNKSt7__cxx1112basic_stringIcSt11char_traitsIcESaIcEE4sizeEv(ptr noundef nonnull align 8 dereferenceable(32) %incdec.ptr.i20.i.i.i) #21
  %call1.i.i.i22.i.i.i = tail call noundef i64 @_ZNKSt7__cxx1112basic_stringIcSt11char_traitsIcESaIcEE4sizeEv(ptr noundef nonnull align 8 dereferenceable(32) @_ZN7rocksdb24kDefaultColumnFamilyNameB5cxx11E) #21
  %cmp.i.i.i23.i.i.i = icmp eq i64 %call.i.i.i21.i.i.i, %call1.i.i.i22.i.i.i
  br i1 %cmp.i.i.i23.i.i.i, label %land.rhs.i.i.i24.i.i.i, label %if.end16.i.i.i

land.rhs.i.i.i24.i.i.i:                           ; preds = %if.end10.i.i.i
  %call2.i.i.i25.i.i.i = tail call noundef ptr @_ZNKSt7__cxx1112basic_stringIcSt11char_traitsIcESaIcEE4dataEv(ptr noundef nonnull align 8 dereferenceable(32) %incdec.ptr.i20.i.i.i) #21
  %call3.i.i.i26.i.i.i = tail call noundef ptr @_ZNKSt7__cxx1112basic_stringIcSt11char_traitsIcESaIcEE4dataEv(ptr noundef nonnull align 8 dereferenceable(32) @_ZN7rocksdb24kDefaultColumnFamilyNameB5cxx11E) #21
  %call4.i.i.i27.i.i.i = tail call noundef i64 @_ZNKSt7__cxx1112basic_stringIcSt11char_traitsIcESaIcEE4sizeEv(ptr noundef nonnull align 8 dereferenceable(32) %incdec.ptr.i20.i.i.i) #21
  %cmp.i.i.i.i28.i.i.i = icmp eq i64 %call4.i.i.i27.i.i.i, 0
  br i1 %cmp.i.i.i.i28.i.i.i, label %"_ZSt7find_ifIN9__gnu_cxx17__normal_iteratorIPKN7rocksdb22ColumnFamilyDescriptorESt6vectorIS3_SaIS3_EEEEZNS2_12_GLOBAL__N_119GetDefaultCFOptionsERKS8_PNS2_19ColumnFamilyOptionsEE3$_0ET_SG_SG_T0_.exit", label %"_ZN9__gnu_cxx5__ops10_Iter_predIZN7rocksdb12_GLOBAL__N_119GetDefaultCFOptionsERKSt6vectorINS2_22ColumnFamilyDescriptorESaIS5_EEPNS2_19ColumnFamilyOptionsEE3$_0EclINS_17__normal_iteratorIPKS5_S7_EEEEbT_.exit31.i.i.i"

"_ZN9__gnu_cxx5__ops10_Iter_predIZN7rocksdb12_GLOBAL__N_119GetDefaultCFOptionsERKSt6vectorINS2_22ColumnFamilyDescriptorESaIS5_EEPNS2_19ColumnFamilyOptionsEE3$_0EclINS_17__normal_iteratorIPKS5_S7_EEEEbT_.exit31.i.i.i": ; preds = %land.rhs.i.i.i24.i.i.i
  %bcmp.i.i.i30.i.i.i = tail call i32 @bcmp(ptr %call2.i.i.i25.i.i.i, ptr %call3.i.i.i26.i.i.i, i64 %call4.i.i.i27.i.i.i)
  %4 = icmp eq i32 %bcmp.i.i.i30.i.i.i, 0
  br i1 %4, label %"_ZSt7find_ifIN9__gnu_cxx17__normal_iteratorIPKN7rocksdb22ColumnFamilyDescriptorESt6vectorIS3_SaIS3_EEEEZNS2_12_GLOBAL__N_119GetDefaultCFOptionsERKS8_PNS2_19ColumnFamilyOptionsEE3$_0ET_SG_SG_T0_.exit", label %if.end16.i.i.i

if.end16.i.i.i:                                   ; preds = %"_ZN9__gnu_cxx5__ops10_Iter_predIZN7rocksdb12_GLOBAL__N_119GetDefaultCFOptionsERKSt6vectorINS2_22ColumnFamilyDescriptorESaIS5_EEPNS2_19ColumnFamilyOptionsEE3$_0EclINS_17__normal_iteratorIPKS5_S7_EEEEbT_.exit31.i.i.i", %if.end10.i.i.i
  %incdec.ptr.i32.i.i.i = getelementptr inbounds %"struct.rocksdb::ColumnFamilyDescriptor", ptr %__first.sroa.0.0103.i.i.i, i64 3
  %call.i.i.i33.i.i.i = tail call noundef i64 @_ZNKSt7__cxx1112basic_stringIcSt11char_traitsIcESaIcEE4sizeEv(ptr noundef nonnull align 8 dereferenceable(32) %incdec.ptr.i32.i.i.i) #21
  %call1.i.i.i34.i.i.i = tail call noundef i64 @_ZNKSt7__cxx1112basic_stringIcSt11char_traitsIcESaIcEE4sizeEv(ptr noundef nonnull align 8 dereferenceable(32) @_ZN7rocksdb24kDefaultColumnFamilyNameB5cxx11E) #21
  %cmp.i.i.i35.i.i.i = icmp eq i64 %call.i.i.i33.i.i.i, %call1.i.i.i34.i.i.i
  br i1 %cmp.i.i.i35.i.i.i, label %land.rhs.i.i.i36.i.i.i, label %if.end22.i.i.i

land.rhs.i.i.i36.i.i.i:                           ; preds = %if.end16.i.i.i
  %call2.i.i.i37.i.i.i = tail call noundef ptr @_ZNKSt7__cxx1112basic_stringIcSt11char_traitsIcESaIcEE4dataEv(ptr noundef nonnull align 8 dereferenceable(32) %incdec.ptr.i32.i.i.i) #21
  %call3.i.i.i38.i.i.i = tail call noundef ptr @_ZNKSt7__cxx1112basic_stringIcSt11char_traitsIcESaIcEE4dataEv(ptr noundef nonnull align 8 dereferenceable(32) @_ZN7rocksdb24kDefaultColumnFamilyNameB5cxx11E) #21
  %call4.i.i.i39.i.i.i = tail call noundef i64 @_ZNKSt7__cxx1112basic_stringIcSt11char_traitsIcESaIcEE4sizeEv(ptr noundef nonnull align 8 dereferenceable(32) %incdec.ptr.i32.i.i.i) #21
  %cmp.i.i.i.i40.i.i.i = icmp eq i64 %call4.i.i.i39.i.i.i, 0
  br i1 %cmp.i.i.i.i40.i.i.i, label %"_ZSt7find_ifIN9__gnu_cxx17__normal_iteratorIPKN7rocksdb22ColumnFamilyDescriptorESt6vectorIS3_SaIS3_EEEEZNS2_12_GLOBAL__N_119GetDefaultCFOptionsERKS8_PNS2_19ColumnFamilyOptionsEE3$_0ET_SG_SG_T0_.exit", label %"_ZN9__gnu_cxx5__ops10_Iter_predIZN7rocksdb12_GLOBAL__N_119GetDefaultCFOptionsERKSt6vectorINS2_22ColumnFamilyDescriptorESaIS5_EEPNS2_19ColumnFamilyOptionsEE3$_0EclINS_17__normal_iteratorIPKS5_S7_EEEEbT_.exit43.i.i.i"

"_ZN9__gnu_cxx5__ops10_Iter_predIZN7rocksdb12_GLOBAL__N_119GetDefaultCFOptionsERKSt6vectorINS2_22ColumnFamilyDescriptorESaIS5_EEPNS2_19ColumnFamilyOptionsEE3$_0EclINS_17__normal_iteratorIPKS5_S7_EEEEbT_.exit43.i.i.i": ; preds = %land.rhs.i.i.i36.i.i.i
  %bcmp.i.i.i42.i.i.i = tail call i32 @bcmp(ptr %call2.i.i.i37.i.i.i, ptr %call3.i.i.i38.i.i.i, i64 %call4.i.i.i39.i.i.i)
  %5 = icmp eq i32 %bcmp.i.i.i42.i.i.i, 0
  br i1 %5, label %"_ZSt7find_ifIN9__gnu_cxx17__normal_iteratorIPKN7rocksdb22ColumnFamilyDescriptorESt6vectorIS3_SaIS3_EEEEZNS2_12_GLOBAL__N_119GetDefaultCFOptionsERKS8_PNS2_19ColumnFamilyOptionsEE3$_0ET_SG_SG_T0_.exit", label %if.end22.i.i.i

if.end22.i.i.i:                                   ; preds = %"_ZN9__gnu_cxx5__ops10_Iter_predIZN7rocksdb12_GLOBAL__N_119GetDefaultCFOptionsERKSt6vectorINS2_22ColumnFamilyDescriptorESaIS5_EEPNS2_19ColumnFamilyOptionsEE3$_0EclINS_17__normal_iteratorIPKS5_S7_EEEEbT_.exit43.i.i.i", %if.end16.i.i.i
  %incdec.ptr.i44.i.i.i = getelementptr inbounds %"struct.rocksdb::ColumnFamilyDescriptor", ptr %__first.sroa.0.0103.i.i.i, i64 4
  %dec.i.i.i = add nsw i64 %__trip_count.0104.i.i.i, -1
  %cmp.i.i.i = icmp sgt i64 %__trip_count.0104.i.i.i, 1
  br i1 %cmp.i.i.i, label %for.body.i.i.i, label %for.end.loopexit.i.i.i, !llvm.loop !7

for.end.loopexit.i.i.i:                           ; preds = %if.end22.i.i.i
  %.pre.i.i.i = ptrtoint ptr %incdec.ptr.i44.i.i.i to i64
  %.pre105.i.i.i = sub i64 %sub.ptr.lhs.cast.i.i.i.i, %.pre.i.i.i
  br label %for.end.i.i.i

for.end.i.i.i:                                    ; preds = %for.end.loopexit.i.i.i, %entry
  %sub.ptr.sub.i47.pre-phi.i.i.i = phi i64 [ %.pre105.i.i.i, %for.end.loopexit.i.i.i ], [ %sub.ptr.sub.i.i.i.i, %entry ]
  %__first.sroa.0.0.lcssa.i.i.i = phi ptr [ %incdec.ptr.i44.i.i.i, %for.end.loopexit.i.i.i ], [ %0, %entry ]
  %sub.ptr.div.i48.i.i.i = sdiv exact i64 %sub.ptr.sub.i47.pre-phi.i.i.i, 856
  switch i64 %sub.ptr.div.i48.i.i.i, label %"_ZSt7find_ifIN9__gnu_cxx17__normal_iteratorIPKN7rocksdb22ColumnFamilyDescriptorESt6vectorIS3_SaIS3_EEEEZNS2_12_GLOBAL__N_119GetDefaultCFOptionsERKS8_PNS2_19ColumnFamilyOptionsEE3$_0ET_SG_SG_T0_.exit" [
    i64 3, label %sw.bb.i.i.i
    i64 2, label %sw.bb31.i.i.i
    i64 1, label %sw.bb38.i.i.i
  ]

sw.bb.i.i.i:                                      ; preds = %for.end.i.i.i
  %call.i.i.i49.i.i.i = tail call noundef i64 @_ZNKSt7__cxx1112basic_stringIcSt11char_traitsIcESaIcEE4sizeEv(ptr noundef nonnull align 8 dereferenceable(32) %__first.sroa.0.0.lcssa.i.i.i) #21
  %call1.i.i.i50.i.i.i = tail call noundef i64 @_ZNKSt7__cxx1112basic_stringIcSt11char_traitsIcESaIcEE4sizeEv(ptr noundef nonnull align 8 dereferenceable(32) @_ZN7rocksdb24kDefaultColumnFamilyNameB5cxx11E) #21
  %cmp.i.i.i51.i.i.i = icmp eq i64 %call.i.i.i49.i.i.i, %call1.i.i.i50.i.i.i
  br i1 %cmp.i.i.i51.i.i.i, label %land.rhs.i.i.i52.i.i.i, label %if.end29.i.i.i

land.rhs.i.i.i52.i.i.i:                           ; preds = %sw.bb.i.i.i
  %call2.i.i.i53.i.i.i = tail call noundef ptr @_ZNKSt7__cxx1112basic_stringIcSt11char_traitsIcESaIcEE4dataEv(ptr noundef nonnull align 8 dereferenceable(32) %__first.sroa.0.0.lcssa.i.i.i) #21
  %call3.i.i.i54.i.i.i = tail call noundef ptr @_ZNKSt7__cxx1112basic_stringIcSt11char_traitsIcESaIcEE4dataEv(ptr noundef nonnull align 8 dereferenceable(32) @_ZN7rocksdb24kDefaultColumnFamilyNameB5cxx11E) #21
  %call4.i.i.i55.i.i.i = tail call noundef i64 @_ZNKSt7__cxx1112basic_stringIcSt11char_traitsIcESaIcEE4sizeEv(ptr noundef nonnull align 8 dereferenceable(32) %__first.sroa.0.0.lcssa.i.i.i) #21
  %cmp.i.i.i.i56.i.i.i = icmp eq i64 %call4.i.i.i55.i.i.i, 0
  br i1 %cmp.i.i.i.i56.i.i.i, label %"_ZSt7find_ifIN9__gnu_cxx17__normal_iteratorIPKN7rocksdb22ColumnFamilyDescriptorESt6vectorIS3_SaIS3_EEEEZNS2_12_GLOBAL__N_119GetDefaultCFOptionsERKS8_PNS2_19ColumnFamilyOptionsEE3$_0ET_SG_SG_T0_.exit", label %"_ZN9__gnu_cxx5__ops10_Iter_predIZN7rocksdb12_GLOBAL__N_119GetDefaultCFOptionsERKSt6vectorINS2_22ColumnFamilyDescriptorESaIS5_EEPNS2_19ColumnFamilyOptionsEE3$_0EclINS_17__normal_iteratorIPKS5_S7_EEEEbT_.exit59.i.i.i"

"_ZN9__gnu_cxx5__ops10_Iter_predIZN7rocksdb12_GLOBAL__N_119GetDefaultCFOptionsERKSt6vectorINS2_22ColumnFamilyDescriptorESaIS5_EEPNS2_19ColumnFamilyOptionsEE3$_0EclINS_17__normal_iteratorIPKS5_S7_EEEEbT_.exit59.i.i.i": ; preds = %land.rhs.i.i.i52.i.i.i
  %bcmp.i.i.i58.i.i.i = tail call i32 @bcmp(ptr %call2.i.i.i53.i.i.i, ptr %call3.i.i.i54.i.i.i, i64 %call4.i.i.i55.i.i.i)
  %6 = icmp eq i32 %bcmp.i.i.i58.i.i.i, 0
  br i1 %6, label %"_ZSt7find_ifIN9__gnu_cxx17__normal_iteratorIPKN7rocksdb22ColumnFamilyDescriptorESt6vectorIS3_SaIS3_EEEEZNS2_12_GLOBAL__N_119GetDefaultCFOptionsERKS8_PNS2_19ColumnFamilyOptionsEE3$_0ET_SG_SG_T0_.exit", label %if.end29.i.i.i

if.end29.i.i.i:                                   ; preds = %"_ZN9__gnu_cxx5__ops10_Iter_predIZN7rocksdb12_GLOBAL__N_119GetDefaultCFOptionsERKSt6vectorINS2_22ColumnFamilyDescriptorESaIS5_EEPNS2_19ColumnFamilyOptionsEE3$_0EclINS_17__normal_iteratorIPKS5_S7_EEEEbT_.exit59.i.i.i", %sw.bb.i.i.i
  %incdec.ptr.i60.i.i.i = getelementptr inbounds %"struct.rocksdb::ColumnFamilyDescriptor", ptr %__first.sroa.0.0.lcssa.i.i.i, i64 1
  br label %sw.bb31.i.i.i

sw.bb31.i.i.i:                                    ; preds = %if.end29.i.i.i, %for.end.i.i.i
  %__first.sroa.0.1.i.i.i = phi ptr [ %__first.sroa.0.0.lcssa.i.i.i, %for.end.i.i.i ], [ %incdec.ptr.i60.i.i.i, %if.end29.i.i.i ]
  %call.i.i.i61.i.i.i = tail call noundef i64 @_ZNKSt7__cxx1112basic_stringIcSt11char_traitsIcESaIcEE4sizeEv(ptr noundef nonnull align 8 dereferenceable(32) %__first.sroa.0.1.i.i.i) #21
  %call1.i.i.i62.i.i.i = tail call noundef i64 @_ZNKSt7__cxx1112basic_stringIcSt11char_traitsIcESaIcEE4sizeEv(ptr noundef nonnull align 8 dereferenceable(32) @_ZN7rocksdb24kDefaultColumnFamilyNameB5cxx11E) #21
  %cmp.i.i.i63.i.i.i = icmp eq i64 %call.i.i.i61.i.i.i, %call1.i.i.i62.i.i.i
  br i1 %cmp.i.i.i63.i.i.i, label %land.rhs.i.i.i64.i.i.i, label %if.end36.i.i.i

land.rhs.i.i.i64.i.i.i:                           ; preds = %sw.bb31.i.i.i
  %call2.i.i.i65.i.i.i = tail call noundef ptr @_ZNKSt7__cxx1112basic_stringIcSt11char_traitsIcESaIcEE4dataEv(ptr noundef nonnull align 8 dereferenceable(32) %__first.sroa.0.1.i.i.i) #21
  %call3.i.i.i66.i.i.i = tail call noundef ptr @_ZNKSt7__cxx1112basic_stringIcSt11char_traitsIcESaIcEE4dataEv(ptr noundef nonnull align 8 dereferenceable(32) @_ZN7rocksdb24kDefaultColumnFamilyNameB5cxx11E) #21
  %call4.i.i.i67.i.i.i = tail call noundef i64 @_ZNKSt7__cxx1112basic_stringIcSt11char_traitsIcESaIcEE4sizeEv(ptr noundef nonnull align 8 dereferenceable(32) %__first.sroa.0.1.i.i.i) #21
  %cmp.i.i.i.i68.i.i.i = icmp eq i64 %call4.i.i.i67.i.i.i, 0
  br i1 %cmp.i.i.i.i68.i.i.i, label %"_ZSt7find_ifIN9__gnu_cxx17__normal_iteratorIPKN7rocksdb22ColumnFamilyDescriptorESt6vectorIS3_SaIS3_EEEEZNS2_12_GLOBAL__N_119GetDefaultCFOptionsERKS8_PNS2_19ColumnFamilyOptionsEE3$_0ET_SG_SG_T0_.exit", label %"_ZN9__gnu_cxx5__ops10_Iter_predIZN7rocksdb12_GLOBAL__N_119GetDefaultCFOptionsERKSt6vectorINS2_22ColumnFamilyDescriptorESaIS5_EEPNS2_19ColumnFamilyOptionsEE3$_0EclINS_17__normal_iteratorIPKS5_S7_EEEEbT_.exit71.i.i.i"

"_ZN9__gnu_cxx5__ops10_Iter_predIZN7rocksdb12_GLOBAL__N_119GetDefaultCFOptionsERKSt6vectorINS2_22ColumnFamilyDescriptorESaIS5_EEPNS2_19ColumnFamilyOptionsEE3$_0EclINS_17__normal_iteratorIPKS5_S7_EEEEbT_.exit71.i.i.i": ; preds = %land.rhs.i.i.i64.i.i.i
  %bcmp.i.i.i70.i.i.i = tail call i32 @bcmp(ptr %call2.i.i.i65.i.i.i, ptr %call3.i.i.i66.i.i.i, i64 %call4.i.i.i67.i.i.i)
  %7 = icmp eq i32 %bcmp.i.i.i70.i.i.i, 0
  br i1 %7, label %"_ZSt7find_ifIN9__gnu_cxx17__normal_iteratorIPKN7rocksdb22ColumnFamilyDescriptorESt6vectorIS3_SaIS3_EEEEZNS2_12_GLOBAL__N_119GetDefaultCFOptionsERKS8_PNS2_19ColumnFamilyOptionsEE3$_0ET_SG_SG_T0_.exit", label %if.end36.i.i.i

if.end36.i.i.i:                                   ; preds = %"_ZN9__gnu_cxx5__ops10_Iter_predIZN7rocksdb12_GLOBAL__N_119GetDefaultCFOptionsERKSt6vectorINS2_22ColumnFamilyDescriptorESaIS5_EEPNS2_19ColumnFamilyOptionsEE3$_0EclINS_17__normal_iteratorIPKS5_S7_EEEEbT_.exit71.i.i.i", %sw.bb31.i.i.i
  %incdec.ptr.i72.i.i.i = getelementptr inbounds %"struct.rocksdb::ColumnFamilyDescriptor", ptr %__first.sroa.0.1.i.i.i, i64 1
  br label %sw.bb38.i.i.i

sw.bb38.i.i.i:                                    ; preds = %if.end36.i.i.i, %for.end.i.i.i
  %__first.sroa.0.2.i.i.i = phi ptr [ %__first.sroa.0.0.lcssa.i.i.i, %for.end.i.i.i ], [ %incdec.ptr.i72.i.i.i, %if.end36.i.i.i ]
  %call.i.i.i73.i.i.i = tail call noundef i64 @_ZNKSt7__cxx1112basic_stringIcSt11char_traitsIcESaIcEE4sizeEv(ptr noundef nonnull align 8 dereferenceable(32) %__first.sroa.0.2.i.i.i) #21
  %call1.i.i.i74.i.i.i = tail call noundef i64 @_ZNKSt7__cxx1112basic_stringIcSt11char_traitsIcESaIcEE4sizeEv(ptr noundef nonnull align 8 dereferenceable(32) @_ZN7rocksdb24kDefaultColumnFamilyNameB5cxx11E) #21
  %cmp.i.i.i75.i.i.i = icmp eq i64 %call.i.i.i73.i.i.i, %call1.i.i.i74.i.i.i
  br i1 %cmp.i.i.i75.i.i.i, label %land.rhs.i.i.i76.i.i.i, label %if.end43.i.i.i

land.rhs.i.i.i76.i.i.i:                           ; preds = %sw.bb38.i.i.i
  %call2.i.i.i77.i.i.i = tail call noundef ptr @_ZNKSt7__cxx1112basic_stringIcSt11char_traitsIcESaIcEE4dataEv(ptr noundef nonnull align 8 dereferenceable(32) %__first.sroa.0.2.i.i.i) #21
  %call3.i.i.i78.i.i.i = tail call noundef ptr @_ZNKSt7__cxx1112basic_stringIcSt11char_traitsIcESaIcEE4dataEv(ptr noundef nonnull align 8 dereferenceable(32) @_ZN7rocksdb24kDefaultColumnFamilyNameB5cxx11E) #21
  %call4.i.i.i79.i.i.i = tail call noundef i64 @_ZNKSt7__cxx1112basic_stringIcSt11char_traitsIcESaIcEE4sizeEv(ptr noundef nonnull align 8 dereferenceable(32) %__first.sroa.0.2.i.i.i) #21
  %cmp.i.i.i.i80.i.i.i = icmp eq i64 %call4.i.i.i79.i.i.i, 0
  br i1 %cmp.i.i.i.i80.i.i.i, label %"_ZSt7find_ifIN9__gnu_cxx17__normal_iteratorIPKN7rocksdb22ColumnFamilyDescriptorESt6vectorIS3_SaIS3_EEEEZNS2_12_GLOBAL__N_119GetDefaultCFOptionsERKS8_PNS2_19ColumnFamilyOptionsEE3$_0ET_SG_SG_T0_.exit", label %"_ZN9__gnu_cxx5__ops10_Iter_predIZN7rocksdb12_GLOBAL__N_119GetDefaultCFOptionsERKSt6vectorINS2_22ColumnFamilyDescriptorESaIS5_EEPNS2_19ColumnFamilyOptionsEE3$_0EclINS_17__normal_iteratorIPKS5_S7_EEEEbT_.exit83.i.i.i"

"_ZN9__gnu_cxx5__ops10_Iter_predIZN7rocksdb12_GLOBAL__N_119GetDefaultCFOptionsERKSt6vectorINS2_22ColumnFamilyDescriptorESaIS5_EEPNS2_19ColumnFamilyOptionsEE3$_0EclINS_17__normal_iteratorIPKS5_S7_EEEEbT_.exit83.i.i.i": ; preds = %land.rhs.i.i.i76.i.i.i
  %bcmp.i.i.i82.i.i.i = tail call i32 @bcmp(ptr %call2.i.i.i77.i.i.i, ptr %call3.i.i.i78.i.i.i, i64 %call4.i.i.i79.i.i.i)
  %8 = icmp eq i32 %bcmp.i.i.i82.i.i.i, 0
  br i1 %8, label %"_ZSt7find_ifIN9__gnu_cxx17__normal_iteratorIPKN7rocksdb22ColumnFamilyDescriptorESt6vectorIS3_SaIS3_EEEEZNS2_12_GLOBAL__N_119GetDefaultCFOptionsERKS8_PNS2_19ColumnFamilyOptionsEE3$_0ET_SG_SG_T0_.exit", label %if.end43.i.i.i

if.end43.i.i.i:                                   ; preds = %"_ZN9__gnu_cxx5__ops10_Iter_predIZN7rocksdb12_GLOBAL__N_119GetDefaultCFOptionsERKSt6vectorINS2_22ColumnFamilyDescriptorESaIS5_EEPNS2_19ColumnFamilyOptionsEE3$_0EclINS_17__normal_iteratorIPKS5_S7_EEEEbT_.exit83.i.i.i", %sw.bb38.i.i.i
  br label %"_ZSt7find_ifIN9__gnu_cxx17__normal_iteratorIPKN7rocksdb22ColumnFamilyDescriptorESt6vectorIS3_SaIS3_EEEEZNS2_12_GLOBAL__N_119GetDefaultCFOptionsERKS8_PNS2_19ColumnFamilyOptionsEE3$_0ET_SG_SG_T0_.exit"

"_ZSt7find_ifIN9__gnu_cxx17__normal_iteratorIPKN7rocksdb22ColumnFamilyDescriptorESt6vectorIS3_SaIS3_EEEEZNS2_12_GLOBAL__N_119GetDefaultCFOptionsERKS8_PNS2_19ColumnFamilyOptionsEE3$_0ET_SG_SG_T0_.exit": ; preds = %land.rhs.i.i.i.i.i.i, %"_ZN9__gnu_cxx5__ops10_Iter_predIZN7rocksdb12_GLOBAL__N_119GetDefaultCFOptionsERKSt6vectorINS2_22ColumnFamilyDescriptorESaIS5_EEPNS2_19ColumnFamilyOptionsEE3$_0EclINS_17__normal_iteratorIPKS5_S7_EEEEbT_.exit.i.i.i", %land.rhs.i.i.i12.i.i.i, %"_ZN9__gnu_cxx5__ops10_Iter_predIZN7rocksdb12_GLOBAL__N_119GetDefaultCFOptionsERKSt6vectorINS2_22ColumnFamilyDescriptorESaIS5_EEPNS2_19ColumnFamilyOptionsEE3$_0EclINS_17__normal_iteratorIPKS5_S7_EEEEbT_.exit19.i.i.i", %land.rhs.i.i.i24.i.i.i, %"_ZN9__gnu_cxx5__ops10_Iter_predIZN7rocksdb12_GLOBAL__N_119GetDefaultCFOptionsERKSt6vectorINS2_22ColumnFamilyDescriptorESaIS5_EEPNS2_19ColumnFamilyOptionsEE3$_0EclINS_17__normal_iteratorIPKS5_S7_EEEEbT_.exit31.i.i.i", %land.rhs.i.i.i36.i.i.i, %"_ZN9__gnu_cxx5__ops10_Iter_predIZN7rocksdb12_GLOBAL__N_119GetDefaultCFOptionsERKSt6vectorINS2_22ColumnFamilyDescriptorESaIS5_EEPNS2_19ColumnFamilyOptionsEE3$_0EclINS_17__normal_iteratorIPKS5_S7_EEEEbT_.exit43.i.i.i", %for.end.i.i.i, %land.rhs.i.i.i52.i.i.i, %"_ZN9__gnu_cxx5__ops10_Iter_predIZN7rocksdb12_GLOBAL__N_119GetDefaultCFOptionsERKSt6vectorINS2_22ColumnFamilyDescriptorESaIS5_EEPNS2_19ColumnFamilyOptionsEE3$_0EclINS_17__normal_iteratorIPKS5_S7_EEEEbT_.exit59.i.i.i", %land.rhs.i.i.i64.i.i.i, %"_ZN9__gnu_cxx5__ops10_Iter_predIZN7rocksdb12_GLOBAL__N_119GetDefaultCFOptionsERKSt6vectorINS2_22ColumnFamilyDescriptorESaIS5_EEPNS2_19ColumnFamilyOptionsEE3$_0EclINS_17__normal_iteratorIPKS5_S7_EEEEbT_.exit71.i.i.i", %land.rhs.i.i.i76.i.i.i, %"_ZN9__gnu_cxx5__ops10_Iter_predIZN7rocksdb12_GLOBAL__N_119GetDefaultCFOptionsERKSt6vectorINS2_22ColumnFamilyDescriptorESaIS5_EEPNS2_19ColumnFamilyOptionsEE3$_0EclINS_17__normal_iteratorIPKS5_S7_EEEEbT_.exit83.i.i.i", %if.end43.i.i.i
  %retval.sroa.0.0.in.sroa.speculated.i.i.i = phi ptr [ %__first.sroa.0.0.lcssa.i.i.i, %"_ZN9__gnu_cxx5__ops10_Iter_predIZN7rocksdb12_GLOBAL__N_119GetDefaultCFOptionsERKSt6vectorINS2_22ColumnFamilyDescriptorESaIS5_EEPNS2_19ColumnFamilyOptionsEE3$_0EclINS_17__normal_iteratorIPKS5_S7_EEEEbT_.exit59.i.i.i" ], [ %__first.sroa.0.1.i.i.i, %"_ZN9__gnu_cxx5__ops10_Iter_predIZN7rocksdb12_GLOBAL__N_119GetDefaultCFOptionsERKSt6vectorINS2_22ColumnFamilyDescriptorESaIS5_EEPNS2_19ColumnFamilyOptionsEE3$_0EclINS_17__normal_iteratorIPKS5_S7_EEEEbT_.exit71.i.i.i" ], [ %__first.sroa.0.2.i.i.i, %"_ZN9__gnu_cxx5__ops10_Iter_predIZN7rocksdb12_GLOBAL__N_119GetDefaultCFOptionsERKSt6vectorINS2_22ColumnFamilyDescriptorESaIS5_EEPNS2_19ColumnFamilyOptionsEE3$_0EclINS_17__normal_iteratorIPKS5_S7_EEEEbT_.exit83.i.i.i" ], [ %1, %if.end43.i.i.i ], [ %1, %for.end.i.i.i ], [ %__first.sroa.0.0.lcssa.i.i.i, %land.rhs.i.i.i52.i.i.i ], [ %__first.sroa.0.1.i.i.i, %land.rhs.i.i.i64.i.i.i ], [ %__first.sroa.0.2.i.i.i, %land.rhs.i.i.i76.i.i.i ], [ %__first.sroa.0.0103.i.i.i, %"_ZN9__gnu_cxx5__ops10_Iter_predIZN7rocksdb12_GLOBAL__N_119GetDefaultCFOptionsERKSt6vectorINS2_22ColumnFamilyDescriptorESaIS5_EEPNS2_19ColumnFamilyOptionsEE3$_0EclINS_17__normal_iteratorIPKS5_S7_EEEEbT_.exit.i.i.i" ], [ %incdec.ptr.i.i.i.i, %"_ZN9__gnu_cxx5__ops10_Iter_predIZN7rocksdb12_GLOBAL__N_119GetDefaultCFOptionsERKSt6vectorINS2_22ColumnFamilyDescriptorESaIS5_EEPNS2_19ColumnFamilyOptionsEE3$_0EclINS_17__normal_iteratorIPKS5_S7_EEEEbT_.exit19.i.i.i" ], [ %incdec.ptr.i20.i.i.i, %"_ZN9__gnu_cxx5__ops10_Iter_predIZN7rocksdb12_GLOBAL__N_119GetDefaultCFOptionsERKSt6vectorINS2_22ColumnFamilyDescriptorESaIS5_EEPNS2_19ColumnFamilyOptionsEE3$_0EclINS_17__normal_iteratorIPKS5_S7_EEEEbT_.exit31.i.i.i" ], [ %incdec.ptr.i32.i.i.i, %"_ZN9__gnu_cxx5__ops10_Iter_predIZN7rocksdb12_GLOBAL__N_119GetDefaultCFOptionsERKSt6vectorINS2_22ColumnFamilyDescriptorESaIS5_EEPNS2_19ColumnFamilyOptionsEE3$_0EclINS_17__normal_iteratorIPKS5_S7_EEEEbT_.exit43.i.i.i" ], [ %__first.sroa.0.0103.i.i.i, %land.rhs.i.i.i.i.i.i ], [ %incdec.ptr.i.i.i.i, %land.rhs.i.i.i12.i.i.i ], [ %incdec.ptr.i20.i.i.i, %land.rhs.i.i.i24.i.i.i ], [ %incdec.ptr.i32.i.i.i, %land.rhs.i.i.i36.i.i.i ]
  %9 = load ptr, ptr %_M_finish.i, align 8
  %cmp.i = icmp eq ptr %retval.sroa.0.0.in.sroa.speculated.i.i.i, %9
  br i1 %cmp.i, label %if.then, label %if.end

if.then:                                          ; preds = %"_ZSt7find_ifIN9__gnu_cxx17__normal_iteratorIPKN7rocksdb22ColumnFamilyDescriptorESt6vectorIS3_SaIS3_EEEEZNS2_12_GLOBAL__N_119GetDefaultCFOptionsERKS8_PNS2_19ColumnFamilyOptionsEE3$_0ET_SG_SG_T0_.exit"
  store ptr @.str, ptr %ref.tmp12, align 8
  %size_.i = getelementptr inbounds %"class.rocksdb::Slice", ptr %ref.tmp12, i64 0, i32 1
  store i64 15, ptr %size_.i, align 8
  store ptr @.str.1, ptr %ref.tmp13, align 8
  %size_.i5 = getelementptr inbounds %"class.rocksdb::Slice", ptr %ref.tmp13, i64 0, i32 1
  store i64 44, ptr %size_.i5, align 8
  call void @_ZN7rocksdb6StatusC2ENS0_4CodeENS0_7SubCodeERKNS_5SliceES5_NS0_8SeverityE(ptr noundef nonnull align 8 dereferenceable(16) %agg.result, i8 noundef zeroext 4, i8 noundef zeroext 0, ptr noundef nonnull align 8 dereferenceable(16) %ref.tmp12, ptr noundef nonnull align 8 dereferenceable(16) %ref.tmp13, i8 noundef zeroext 0)
  br label %return

if.end:                                           ; preds = %"_ZSt7find_ifIN9__gnu_cxx17__normal_iteratorIPKN7rocksdb22ColumnFamilyDescriptorESt6vectorIS3_SaIS3_EEEEZNS2_12_GLOBAL__N_119GetDefaultCFOptionsERKS8_PNS2_19ColumnFamilyOptionsEE3$_0ET_SG_SG_T0_.exit"
  %options = getelementptr inbounds %"struct.rocksdb::ColumnFamilyDescriptor", ptr %retval.sroa.0.0.in.sroa.speculated.i.i.i, i64 0, i32 1
  %call15 = tail call noundef nonnull align 8 dereferenceable(820) ptr @_ZN7rocksdb19ColumnFamilyOptionsaSERKS0_(ptr noundef nonnull align 8 dereferenceable(820) %res, ptr noundef nonnull align 8 dereferenceable(820) %options)
  %state_.i.i = getelementptr inbounds %"class.rocksdb::Status", ptr %agg.result, i64 0, i32 6
  store ptr null, ptr %state_.i.i, align 8, !alias.scope !9
  tail call void @llvm.memset.p0.i64(ptr noundef nonnull align 8 dereferenceable(6) %agg.result, i8 0, i64 6, i1 false), !alias.scope !9
  br label %return

return:                                           ; preds = %if.end, %if.then
  ret void
}

declare i32 @__gxx_personality_v0(...)

; Function Attrs: mustprogress uwtable
define internal fastcc void @_ZN7rocksdb12_GLOBAL__N_18RepairerC2ERKNSt7__cxx1112basic_stringIcSt11char_traitsIcESaIcEEERKNS_9DBOptionsERKSt6vectorINS_22ColumnFamilyDescriptorESaISE_EERKNS_19ColumnFamilyOptionsESL_b(ptr noundef nonnull align 8 dereferenceable(5249) %this, ptr noundef nonnull align 8 dereferenceable(32) %dbname, ptr noundef nonnull align 8 dereferenceable(688) %db_options, ptr nocapture noundef nonnull readonly align 8 dereferenceable(24) %column_families, ptr noundef nonnull align 8 dereferenceable(820) %default_cf_opts, ptr noundef nonnull align 8 dereferenceable(820) %unknown_cf_opts, i1 noundef zeroext %create_unknown_cfs) unnamed_addr #3 align 2 personality ptr @__gxx_personality_v0 {
entry:
  %ref.tmp.i = alloca %"struct.rocksdb::LRUCacheOptions", align 8
  %agg.tmp.i = alloca %"class.std::shared_ptr.207", align 8
  %agg.tmp = alloca %"class.std::shared_ptr.207", align 8
  %ref.tmp = alloca %"class.std::shared_ptr.128", align 8
  %agg.tmp38 = alloca %"class.std::shared_ptr.25", align 8
  %ref.tmp51 = alloca %"class.std::shared_ptr.128", align 8
  %ref.tmp52 = alloca %"class.std::__cxx11::basic_string", align 8
  %ref.tmp53 = alloca %"class.std::allocator.53", align 1
  %frombool = zext i1 %create_unknown_cfs to i8
  tail call void @_ZNSt7__cxx1112basic_stringIcSt11char_traitsIcESaIcEEC1ERKS4_(ptr noundef nonnull align 8 dereferenceable(32) %this, ptr noundef nonnull align 8 dereferenceable(32) %dbname)
  %db_session_id_ = getelementptr inbounds %"class.rocksdb::(anonymous namespace)::Repairer", ptr %this, i64 0, i32 1
  %env = getelementptr inbounds %"struct.rocksdb::DBOptions", ptr %db_options, i64 0, i32 8
  %0 = load ptr, ptr %env, align 8
  invoke void @_ZN7rocksdb6DBImpl19GenerateDbSessionIdB5cxx11EPNS_3EnvE(ptr nonnull sret(%"class.std::__cxx11::basic_string") align 8 %db_session_id_, ptr noundef %0)
          to label %invoke.cont unwind label %lpad

invoke.cont:                                      ; preds = %entry
  %env_ = getelementptr inbounds %"class.rocksdb::(anonymous namespace)::Repairer", ptr %this, i64 0, i32 2
  %1 = load ptr, ptr %env, align 8
  store ptr %1, ptr %env_, align 8
  %file_options_ = getelementptr inbounds %"class.rocksdb::(anonymous namespace)::Repairer", ptr %this, i64 0, i32 3
  invoke void @_ZN7rocksdb10EnvOptionsC2Ev(ptr noundef nonnull align 8 dereferenceable(56) %file_options_)
          to label %invoke.cont4 unwind label %lpad3

invoke.cont4:                                     ; preds = %invoke.cont
  %io_options.i = getelementptr inbounds %"class.rocksdb::(anonymous namespace)::Repairer", ptr %this, i64 0, i32 3, i32 1
  store i64 0, ptr %io_options.i, align 8
  %prio.i.i.i = getelementptr inbounds %"class.rocksdb::(anonymous namespace)::Repairer", ptr %this, i64 0, i32 3, i32 1, i32 1
  store i8 0, ptr %prio.i.i.i, align 8
  %rate_limiter_priority.i.i.i = getelementptr inbounds %"class.rocksdb::(anonymous namespace)::Repairer", ptr %this, i64 0, i32 3, i32 1, i32 3
  store i32 4, ptr %rate_limiter_priority.i.i.i, align 4
  %type.i.i.i = getelementptr inbounds %"class.rocksdb::(anonymous namespace)::Repairer", ptr %this, i64 0, i32 3, i32 1, i32 4
  store i8 7, ptr %type.i.i.i, align 8
  %property_bag.i.i.i = getelementptr inbounds %"class.rocksdb::(anonymous namespace)::Repairer", ptr %this, i64 0, i32 3, i32 1, i32 6
  %_M_single_bucket.i.i.i.i.i = getelementptr inbounds %"class.rocksdb::(anonymous namespace)::Repairer", ptr %this, i64 0, i32 3, i32 1, i32 6, i32 0, i32 5
  store ptr %_M_single_bucket.i.i.i.i.i, ptr %property_bag.i.i.i, align 8
  %_M_bucket_count.i.i.i.i.i = getelementptr inbounds %"class.rocksdb::(anonymous namespace)::Repairer", ptr %this, i64 0, i32 3, i32 1, i32 6, i32 0, i32 1
  store i64 1, ptr %_M_bucket_count.i.i.i.i.i, align 8
  %_M_before_begin.i.i.i.i.i = getelementptr inbounds %"class.rocksdb::(anonymous namespace)::Repairer", ptr %this, i64 0, i32 3, i32 1, i32 6, i32 0, i32 2
  %_M_rehash_policy.i.i.i.i.i = getelementptr inbounds %"class.rocksdb::(anonymous namespace)::Repairer", ptr %this, i64 0, i32 3, i32 1, i32 6, i32 0, i32 4
  tail call void @llvm.memset.p0.i64(ptr noundef nonnull align 8 dereferenceable(16) %_M_before_begin.i.i.i.i.i, i8 0, i64 16, i1 false)
  store float 1.000000e+00, ptr %_M_rehash_policy.i.i.i.i.i, align 8
  %_M_next_resize.i.i.i.i.i.i = getelementptr inbounds %"class.rocksdb::(anonymous namespace)::Repairer", ptr %this, i64 0, i32 3, i32 1, i32 6, i32 0, i32 4, i32 1
  %io_activity.i.i.i = getelementptr inbounds %"class.rocksdb::(anonymous namespace)::Repairer", ptr %this, i64 0, i32 3, i32 1, i32 9
  tail call void @llvm.memset.p0.i64(ptr noundef nonnull align 8 dereferenceable(18) %_M_next_resize.i.i.i.i.i.i, i8 0, i64 18, i1 false)
  store i8 10, ptr %io_activity.i.i.i, align 2
  %temperature.i = getelementptr inbounds %"class.rocksdb::(anonymous namespace)::Repairer", ptr %this, i64 0, i32 3, i32 2
  store i8 0, ptr %temperature.i, align 8
  %handoff_checksum_type.i = getelementptr inbounds %"class.rocksdb::(anonymous namespace)::Repairer", ptr %this, i64 0, i32 3, i32 3
  store i8 1, ptr %handoff_checksum_type.i, align 1
  %db_options_ = getelementptr inbounds %"class.rocksdb::(anonymous namespace)::Repairer", ptr %this, i64 0, i32 4
  invoke void @_ZN7rocksdb15SanitizeOptionsERKNSt7__cxx1112basic_stringIcSt11char_traitsIcESaIcEEERKNS_9DBOptionsEbPNS_6StatusE(ptr nonnull sret(%"struct.rocksdb::DBOptions") align 8 %db_options_, ptr noundef nonnull align 8 dereferenceable(32) %this, ptr noundef nonnull align 8 dereferenceable(688) %db_options, i1 noundef zeroext false, ptr noundef null)
          to label %invoke.cont7 unwind label %lpad6

invoke.cont7:                                     ; preds = %invoke.cont4
  %immutable_db_options_ = getelementptr inbounds %"class.rocksdb::(anonymous namespace)::Repairer", ptr %this, i64 0, i32 5
  invoke void @_ZN7rocksdb18ImmutableDBOptionsC1ERKNS_9DBOptionsE(ptr noundef nonnull align 8 dereferenceable(569) %immutable_db_options_, ptr noundef nonnull align 8 dereferenceable(688) %db_options_)
          to label %invoke.cont12 unwind label %lpad9

invoke.cont12:                                    ; preds = %invoke.cont7
  %icmp_ = getelementptr inbounds %"class.rocksdb::(anonymous namespace)::Repairer", ptr %this, i64 0, i32 6
  %comparator = getelementptr inbounds %"struct.rocksdb::ColumnFamilyOptions", ptr %default_cf_opts, i64 0, i32 1
  %2 = load ptr, ptr %comparator, align 8
  store ptr getelementptr inbounds ({ [5 x ptr] }, ptr @_ZTVN7rocksdb21InternalKeyComparatorE, i64 0, inrange i32 0, i64 2), ptr %icmp_, align 8
  %user_comparator_.i = getelementptr inbounds %"class.rocksdb::(anonymous namespace)::Repairer", ptr %this, i64 0, i32 6, i32 1
  store ptr %2, ptr %user_comparator_.i, align 8
  %default_cf_opts_ = getelementptr inbounds %"class.rocksdb::(anonymous namespace)::Repairer", ptr %this, i64 0, i32 7
  invoke void @_ZN7rocksdb15SanitizeOptionsERKNS_18ImmutableDBOptionsERKNS_19ColumnFamilyOptionsE(ptr nonnull sret(%"struct.rocksdb::ColumnFamilyOptions") align 8 %default_cf_opts_, ptr noundef nonnull align 8 dereferenceable(569) %immutable_db_options_, ptr noundef nonnull align 8 dereferenceable(820) %default_cf_opts)
          to label %invoke.cont15 unwind label %lpad14

invoke.cont15:                                    ; preds = %invoke.cont12
  %default_iopts_ = getelementptr inbounds %"class.rocksdb::(anonymous namespace)::Repairer", ptr %this, i64 0, i32 8
  invoke void @_ZN7rocksdb16ImmutableOptionsC1ERKNS_18ImmutableDBOptionsERKNS_19ColumnFamilyOptionsE(ptr noundef nonnull align 8 dereferenceable(857) %default_iopts_, ptr noundef nonnull align 8 dereferenceable(569) %immutable_db_options_, ptr noundef nonnull align 8 dereferenceable(820) %default_cf_opts_)
          to label %invoke.cont19 unwind label %lpad18

invoke.cont19:                                    ; preds = %invoke.cont15
  %unknown_cf_opts_ = getelementptr inbounds %"class.rocksdb::(anonymous namespace)::Repairer", ptr %this, i64 0, i32 9
  invoke void @_ZN7rocksdb15SanitizeOptionsERKNS_18ImmutableDBOptionsERKNS_19ColumnFamilyOptionsE(ptr nonnull sret(%"struct.rocksdb::ColumnFamilyOptions") align 8 %unknown_cf_opts_, ptr noundef nonnull align 8 dereferenceable(569) %immutable_db_options_, ptr noundef nonnull align 8 dereferenceable(820) %unknown_cf_opts)
          to label %invoke.cont.i unwind label %lpad21

invoke.cont.i:                                    ; preds = %invoke.cont19
  %create_unknown_cfs_ = getelementptr inbounds %"class.rocksdb::(anonymous namespace)::Repairer", ptr %this, i64 0, i32 10
  store i8 %frombool, ptr %create_unknown_cfs_, align 8
  %raw_table_cache_ = getelementptr inbounds %"class.rocksdb::(anonymous namespace)::Repairer", ptr %this, i64 0, i32 12
  %table_cache_numshardbits = getelementptr inbounds %"class.rocksdb::(anonymous namespace)::Repairer", ptr %this, i64 0, i32 4, i32 31
  %3 = load i32, ptr %table_cache_numshardbits, align 8
  call void @llvm.memset.p0.i64(ptr noundef nonnull align 8 dereferenceable(16) %agg.tmp, i8 0, i64 16, i1 false)
  %4 = load i8, ptr @_ZN7rocksdb23kDefaultToAdaptiveMutexE, align 1
  call void @llvm.lifetime.start.p0(i64 96, ptr nonnull %ref.tmp.i)
  call void @llvm.lifetime.start.p0(i64 16, ptr nonnull %agg.tmp.i)
  %5 = and i8 %4, 1
  %capacity.i.i.i = getelementptr inbounds %"struct.rocksdb::ShardedCacheOptions", ptr %ref.tmp.i, i64 0, i32 1
  call void @llvm.memset.p0.i64(ptr noundef nonnull align 8 dereferenceable(16) %agg.tmp.i, i8 0, i64 16, i1 false)
  store i64 10, ptr %capacity.i.i.i, align 8, !noalias !12
  %num_shard_bits.i.i.i = getelementptr inbounds %"struct.rocksdb::ShardedCacheOptions", ptr %ref.tmp.i, i64 0, i32 2
  store i32 %3, ptr %num_shard_bits.i.i.i, align 8, !noalias !12
  %strict_capacity_limit.i.i.i = getelementptr inbounds %"struct.rocksdb::ShardedCacheOptions", ptr %ref.tmp.i, i64 0, i32 3
  store i8 0, ptr %strict_capacity_limit.i.i.i, align 4, !noalias !12
  %memory_allocator.i.i.i = getelementptr inbounds %"struct.rocksdb::ShardedCacheOptions", ptr %ref.tmp.i, i64 0, i32 5
  %metadata_charge_policy.i.i.i = getelementptr inbounds %"struct.rocksdb::ShardedCacheOptions", ptr %ref.tmp.i, i64 0, i32 6
  call void @llvm.memset.p0.i64(ptr noundef nonnull align 8 dereferenceable(16) %memory_allocator.i.i.i, i8 0, i64 16, i1 false)
  store i32 1, ptr %metadata_charge_policy.i.i.i, align 8, !noalias !12
  %secondary_cache.i.i.i = getelementptr inbounds %"struct.rocksdb::ShardedCacheOptions", ptr %ref.tmp.i, i64 0, i32 8
  call void @llvm.memset.p0.i64(ptr noundef nonnull align 8 dereferenceable(16) %secondary_cache.i.i.i, i8 0, i64 16, i1 false), !noalias !12
  %hash_seed.i.i.i = getelementptr inbounds %"struct.rocksdb::ShardedCacheOptions", ptr %ref.tmp.i, i64 0, i32 9
  store i32 -2, ptr %hash_seed.i.i.i, align 8, !noalias !12
  store ptr getelementptr inbounds ({ [4 x ptr] }, ptr @_ZTVN7rocksdb15LRUCacheOptionsE, i64 0, inrange i32 0, i64 2), ptr %ref.tmp.i, align 8, !noalias !12
  %high_pri_pool_ratio.i.i = getelementptr inbounds %"struct.rocksdb::LRUCacheOptions", ptr %ref.tmp.i, i64 0, i32 2
  store <2 x double> <double 5.000000e-01, double 0.000000e+00>, ptr %high_pri_pool_ratio.i.i, align 8, !noalias !12
  %use_adaptive_mutex.i.i = getelementptr inbounds %"struct.rocksdb::LRUCacheOptions", ptr %ref.tmp.i, i64 0, i32 4
  store i8 %5, ptr %use_adaptive_mutex.i.i, align 8, !noalias !12
  invoke void @_ZNK7rocksdb15LRUCacheOptions15MakeSharedCacheEv(ptr nonnull sret(%"class.std::shared_ptr.25") align 8 %raw_table_cache_, ptr noundef nonnull align 8 dereferenceable(89) %ref.tmp.i)
          to label %_ZNSt10shared_ptrIN7rocksdb15MemoryAllocatorEED2Ev.exit unwind label %lpad3.i

lpad3.i:                                          ; preds = %invoke.cont.i
  %6 = landingpad { ptr, i32 }
          cleanup
  call void @_ZN7rocksdb19ShardedCacheOptionsD2Ev(ptr noundef nonnull align 8 dereferenceable(68) %ref.tmp.i) #21
  call void @_ZNSt10shared_ptrIN7rocksdb15MemoryAllocatorEED2Ev(ptr noundef nonnull align 8 dereferenceable(16) %agg.tmp.i) #21
  call void @_ZNSt10shared_ptrIN7rocksdb15MemoryAllocatorEED2Ev(ptr noundef nonnull align 8 dereferenceable(16) %agg.tmp) #21
  br label %ehcleanup85

_ZNSt10shared_ptrIN7rocksdb15MemoryAllocatorEED2Ev.exit: ; preds = %invoke.cont.i
  call void @_ZN7rocksdb19ShardedCacheOptionsD2Ev(ptr noundef nonnull align 8 dereferenceable(68) %ref.tmp.i) #21
  call void @llvm.lifetime.end.p0(i64 96, ptr nonnull %ref.tmp.i)
  call void @llvm.lifetime.end.p0(i64 16, ptr nonnull %agg.tmp.i)
  %table_cache_ = getelementptr inbounds %"class.rocksdb::(anonymous namespace)::Repairer", ptr %this, i64 0, i32 13
  %call = invoke noalias noundef nonnull dereferenceable(144) ptr @_Znwm(i64 noundef 144) #22
          to label %invoke.cont29 unwind label %lpad28

invoke.cont29:                                    ; preds = %_ZNSt10shared_ptrIN7rocksdb15MemoryAllocatorEED2Ev.exit
  %7 = load ptr, ptr %raw_table_cache_, align 8
  call void @llvm.memset.p0.i64(ptr noundef nonnull align 8 dereferenceable(16) %ref.tmp, i8 0, i64 16, i1 false)
  invoke void @_ZN7rocksdb10TableCacheC1ERKNS_16ImmutableOptionsEPKNS_11FileOptionsEPNS_5CacheEPNS_16BlockCacheTracerERKSt10shared_ptrINS_8IOTracerEERKNSt7__cxx1112basic_stringIcSt11char_traitsIcESaIcEEE(ptr noundef nonnull align 8 dereferenceable(144) %call, ptr noundef nonnull align 8 dereferenceable(857) %default_iopts_, ptr noundef nonnull %file_options_, ptr noundef %7, ptr noundef null, ptr noundef nonnull align 8 dereferenceable(16) %ref.tmp, ptr noundef nonnull align 8 dereferenceable(32) %db_session_id_)
          to label %invoke.cont36 unwind label %lpad35

invoke.cont36:                                    ; preds = %invoke.cont29
  store ptr %call, ptr %table_cache_, align 8
  %_M_refcount.i.i25 = getelementptr inbounds %"class.std::__shared_ptr.129", ptr %ref.tmp, i64 0, i32 1
  %8 = load ptr, ptr %_M_refcount.i.i25, align 8
  %cmp.not.i.i.i26 = icmp eq ptr %8, null
  br i1 %cmp.not.i.i.i26, label %_ZNSt10shared_ptrIN7rocksdb8IOTracerEED2Ev.exit, label %if.then.i.i.i27

if.then.i.i.i27:                                  ; preds = %invoke.cont36
  %_M_use_count.i.i.i.i28 = getelementptr inbounds %"class.std::_Sp_counted_base", ptr %8, i64 0, i32 1
  %9 = load atomic i64, ptr %_M_use_count.i.i.i.i28 acquire, align 8
  %cmp.i.i.i.i29 = icmp eq i64 %9, 4294967297
  %10 = trunc i64 %9 to i32
  br i1 %cmp.i.i.i.i29, label %if.then.i.i.i.i52, label %if.end.i.i.i.i30

if.then.i.i.i.i52:                                ; preds = %if.then.i.i.i27
  store i32 0, ptr %_M_use_count.i.i.i.i28, align 8
  %_M_weak_count.i.i.i.i53 = getelementptr inbounds %"class.std::_Sp_counted_base", ptr %8, i64 0, i32 2
  store i32 0, ptr %_M_weak_count.i.i.i.i53, align 4
  %vtable.i.i.i.i54 = load ptr, ptr %8, align 8
  %vfn.i.i.i.i55 = getelementptr inbounds ptr, ptr %vtable.i.i.i.i54, i64 2
  %11 = load ptr, ptr %vfn.i.i.i.i55, align 8
  call void %11(ptr noundef nonnull align 8 dereferenceable(16) %8) #21
  br label %if.end8.sink.split.i.i.i.i47

if.end.i.i.i.i30:                                 ; preds = %if.then.i.i.i27
  %12 = load i8, ptr @__libc_single_threaded, align 1
  %tobool.i.i.not.i.i.i.i31 = icmp eq i8 %12, 0
  br i1 %tobool.i.i.not.i.i.i.i31, label %if.else.i.i.i.i.i51, label %if.then.i.i.i.i.i32

if.then.i.i.i.i.i32:                              ; preds = %if.end.i.i.i.i30
  %add.i.i.i.i.i33 = add nsw i32 %10, -1
  store i32 %add.i.i.i.i.i33, ptr %_M_use_count.i.i.i.i28, align 4
  br label %_ZN9__gnu_cxx27__exchange_and_add_dispatchEPii.exit.i.i.i.i34

if.else.i.i.i.i.i51:                              ; preds = %if.end.i.i.i.i30
  %13 = atomicrmw volatile add ptr %_M_use_count.i.i.i.i28, i32 -1 acq_rel, align 4
  br label %_ZN9__gnu_cxx27__exchange_and_add_dispatchEPii.exit.i.i.i.i34

_ZN9__gnu_cxx27__exchange_and_add_dispatchEPii.exit.i.i.i.i34: ; preds = %if.else.i.i.i.i.i51, %if.then.i.i.i.i.i32
  %retval.i.0.i.i.i.i35 = phi i32 [ %10, %if.then.i.i.i.i.i32 ], [ %13, %if.else.i.i.i.i.i51 ]
  %cmp6.i.i.i.i36 = icmp eq i32 %retval.i.0.i.i.i.i35, 1
  br i1 %cmp6.i.i.i.i36, label %if.then7.i.i.i.i37, label %_ZNSt10shared_ptrIN7rocksdb8IOTracerEED2Ev.exit

if.then7.i.i.i.i37:                               ; preds = %_ZN9__gnu_cxx27__exchange_and_add_dispatchEPii.exit.i.i.i.i34
  %vtable.i.i.i.i.i.i38 = load ptr, ptr %8, align 8
  %vfn.i.i.i.i.i.i39 = getelementptr inbounds ptr, ptr %vtable.i.i.i.i.i.i38, i64 2
  %14 = load ptr, ptr %vfn.i.i.i.i.i.i39, align 8
  call void %14(ptr noundef nonnull align 8 dereferenceable(16) %8) #21
  %_M_weak_count.i.i.i.i.i.i40 = getelementptr inbounds %"class.std::_Sp_counted_base", ptr %8, i64 0, i32 2
  %15 = load i8, ptr @__libc_single_threaded, align 1
  %tobool.i.i.not.i.i.i.i.i.i41 = icmp eq i8 %15, 0
  br i1 %tobool.i.i.not.i.i.i.i.i.i41, label %if.else.i.i.i.i.i.i.i50, label %if.then.i.i.i.i.i.i.i42

if.then.i.i.i.i.i.i.i42:                          ; preds = %if.then7.i.i.i.i37
  %16 = load i32, ptr %_M_weak_count.i.i.i.i.i.i40, align 4
  %add.i.i.i.i.i.i.i43 = add nsw i32 %16, -1
  store i32 %add.i.i.i.i.i.i.i43, ptr %_M_weak_count.i.i.i.i.i.i40, align 4
  br label %_ZN9__gnu_cxx27__exchange_and_add_dispatchEPii.exit.i.i.i.i.i.i44

if.else.i.i.i.i.i.i.i50:                          ; preds = %if.then7.i.i.i.i37
  %17 = atomicrmw volatile add ptr %_M_weak_count.i.i.i.i.i.i40, i32 -1 acq_rel, align 4
  br label %_ZN9__gnu_cxx27__exchange_and_add_dispatchEPii.exit.i.i.i.i.i.i44

_ZN9__gnu_cxx27__exchange_and_add_dispatchEPii.exit.i.i.i.i.i.i44: ; preds = %if.else.i.i.i.i.i.i.i50, %if.then.i.i.i.i.i.i.i42
  %retval.i.0.i.i.i.i.i.i45 = phi i32 [ %16, %if.then.i.i.i.i.i.i.i42 ], [ %17, %if.else.i.i.i.i.i.i.i50 ]
  %cmp.i.i.i.i.i.i46 = icmp eq i32 %retval.i.0.i.i.i.i.i.i45, 1
  br i1 %cmp.i.i.i.i.i.i46, label %if.end8.sink.split.i.i.i.i47, label %_ZNSt10shared_ptrIN7rocksdb8IOTracerEED2Ev.exit

if.end8.sink.split.i.i.i.i47:                     ; preds = %_ZN9__gnu_cxx27__exchange_and_add_dispatchEPii.exit.i.i.i.i.i.i44, %if.then.i.i.i.i52
  %vtable2.i.i.i.i.i.i48 = load ptr, ptr %8, align 8
  %vfn3.i.i.i.i.i.i49 = getelementptr inbounds ptr, ptr %vtable2.i.i.i.i.i.i48, i64 3
  %18 = load ptr, ptr %vfn3.i.i.i.i.i.i49, align 8
  call void %18(ptr noundef nonnull align 8 dereferenceable(16) %8) #21
  br label %_ZNSt10shared_ptrIN7rocksdb8IOTracerEED2Ev.exit

_ZNSt10shared_ptrIN7rocksdb8IOTracerEED2Ev.exit:  ; preds = %invoke.cont36, %_ZN9__gnu_cxx27__exchange_and_add_dispatchEPii.exit.i.i.i.i34, %_ZN9__gnu_cxx27__exchange_and_add_dispatchEPii.exit.i.i.i.i.i.i44, %if.end8.sink.split.i.i.i.i47
  %wb_ = getelementptr inbounds %"class.rocksdb::(anonymous namespace)::Repairer", ptr %this, i64 0, i32 14
  %db_write_buffer_size = getelementptr inbounds %"class.rocksdb::(anonymous namespace)::Repairer", ptr %this, i64 0, i32 4, i32 46
  %19 = load i64, ptr %db_write_buffer_size, align 8
  call void @llvm.memset.p0.i64(ptr noundef nonnull align 8 dereferenceable(16) %agg.tmp38, i8 0, i64 16, i1 false)
  invoke void @_ZN7rocksdb18WriteBufferManagerC1EmSt10shared_ptrINS_5CacheEEb(ptr noundef nonnull align 8 dereferenceable(160) %wb_, i64 noundef %19, ptr noundef nonnull %agg.tmp38, i1 noundef zeroext false)
          to label %invoke.cont40 unwind label %lpad39

invoke.cont40:                                    ; preds = %_ZNSt10shared_ptrIN7rocksdb8IOTracerEED2Ev.exit
  %_M_refcount.i.i56 = getelementptr inbounds %"class.std::__shared_ptr.26", ptr %agg.tmp38, i64 0, i32 1
  %20 = load ptr, ptr %_M_refcount.i.i56, align 8
  %cmp.not.i.i.i57 = icmp eq ptr %20, null
  br i1 %cmp.not.i.i.i57, label %_ZNSt10shared_ptrIN7rocksdb5CacheEED2Ev.exit, label %if.then.i.i.i58

if.then.i.i.i58:                                  ; preds = %invoke.cont40
  %_M_use_count.i.i.i.i59 = getelementptr inbounds %"class.std::_Sp_counted_base", ptr %20, i64 0, i32 1
  %21 = load atomic i64, ptr %_M_use_count.i.i.i.i59 acquire, align 8
  %cmp.i.i.i.i60 = icmp eq i64 %21, 4294967297
  %22 = trunc i64 %21 to i32
  br i1 %cmp.i.i.i.i60, label %if.then.i.i.i.i83, label %if.end.i.i.i.i61

if.then.i.i.i.i83:                                ; preds = %if.then.i.i.i58
  store i32 0, ptr %_M_use_count.i.i.i.i59, align 8
  %_M_weak_count.i.i.i.i84 = getelementptr inbounds %"class.std::_Sp_counted_base", ptr %20, i64 0, i32 2
  store i32 0, ptr %_M_weak_count.i.i.i.i84, align 4
  %vtable.i.i.i.i85 = load ptr, ptr %20, align 8
  %vfn.i.i.i.i86 = getelementptr inbounds ptr, ptr %vtable.i.i.i.i85, i64 2
  %23 = load ptr, ptr %vfn.i.i.i.i86, align 8
  call void %23(ptr noundef nonnull align 8 dereferenceable(16) %20) #21
  br label %if.end8.sink.split.i.i.i.i78

if.end.i.i.i.i61:                                 ; preds = %if.then.i.i.i58
  %24 = load i8, ptr @__libc_single_threaded, align 1
  %tobool.i.i.not.i.i.i.i62 = icmp eq i8 %24, 0
  br i1 %tobool.i.i.not.i.i.i.i62, label %if.else.i.i.i.i.i82, label %if.then.i.i.i.i.i63

if.then.i.i.i.i.i63:                              ; preds = %if.end.i.i.i.i61
  %add.i.i.i.i.i64 = add nsw i32 %22, -1
  store i32 %add.i.i.i.i.i64, ptr %_M_use_count.i.i.i.i59, align 4
  br label %_ZN9__gnu_cxx27__exchange_and_add_dispatchEPii.exit.i.i.i.i65

if.else.i.i.i.i.i82:                              ; preds = %if.end.i.i.i.i61
  %25 = atomicrmw volatile add ptr %_M_use_count.i.i.i.i59, i32 -1 acq_rel, align 4
  br label %_ZN9__gnu_cxx27__exchange_and_add_dispatchEPii.exit.i.i.i.i65

_ZN9__gnu_cxx27__exchange_and_add_dispatchEPii.exit.i.i.i.i65: ; preds = %if.else.i.i.i.i.i82, %if.then.i.i.i.i.i63
  %retval.i.0.i.i.i.i66 = phi i32 [ %22, %if.then.i.i.i.i.i63 ], [ %25, %if.else.i.i.i.i.i82 ]
  %cmp6.i.i.i.i67 = icmp eq i32 %retval.i.0.i.i.i.i66, 1
  br i1 %cmp6.i.i.i.i67, label %if.then7.i.i.i.i68, label %_ZNSt10shared_ptrIN7rocksdb5CacheEED2Ev.exit

if.then7.i.i.i.i68:                               ; preds = %_ZN9__gnu_cxx27__exchange_and_add_dispatchEPii.exit.i.i.i.i65
  %vtable.i.i.i.i.i.i69 = load ptr, ptr %20, align 8
  %vfn.i.i.i.i.i.i70 = getelementptr inbounds ptr, ptr %vtable.i.i.i.i.i.i69, i64 2
  %26 = load ptr, ptr %vfn.i.i.i.i.i.i70, align 8
  call void %26(ptr noundef nonnull align 8 dereferenceable(16) %20) #21
  %_M_weak_count.i.i.i.i.i.i71 = getelementptr inbounds %"class.std::_Sp_counted_base", ptr %20, i64 0, i32 2
  %27 = load i8, ptr @__libc_single_threaded, align 1
  %tobool.i.i.not.i.i.i.i.i.i72 = icmp eq i8 %27, 0
  br i1 %tobool.i.i.not.i.i.i.i.i.i72, label %if.else.i.i.i.i.i.i.i81, label %if.then.i.i.i.i.i.i.i73

if.then.i.i.i.i.i.i.i73:                          ; preds = %if.then7.i.i.i.i68
  %28 = load i32, ptr %_M_weak_count.i.i.i.i.i.i71, align 4
  %add.i.i.i.i.i.i.i74 = add nsw i32 %28, -1
  store i32 %add.i.i.i.i.i.i.i74, ptr %_M_weak_count.i.i.i.i.i.i71, align 4
  br label %_ZN9__gnu_cxx27__exchange_and_add_dispatchEPii.exit.i.i.i.i.i.i75

if.else.i.i.i.i.i.i.i81:                          ; preds = %if.then7.i.i.i.i68
  %29 = atomicrmw volatile add ptr %_M_weak_count.i.i.i.i.i.i71, i32 -1 acq_rel, align 4
  br label %_ZN9__gnu_cxx27__exchange_and_add_dispatchEPii.exit.i.i.i.i.i.i75

_ZN9__gnu_cxx27__exchange_and_add_dispatchEPii.exit.i.i.i.i.i.i75: ; preds = %if.else.i.i.i.i.i.i.i81, %if.then.i.i.i.i.i.i.i73
  %retval.i.0.i.i.i.i.i.i76 = phi i32 [ %28, %if.then.i.i.i.i.i.i.i73 ], [ %29, %if.else.i.i.i.i.i.i.i81 ]
  %cmp.i.i.i.i.i.i77 = icmp eq i32 %retval.i.0.i.i.i.i.i.i76, 1
  br i1 %cmp.i.i.i.i.i.i77, label %if.end8.sink.split.i.i.i.i78, label %_ZNSt10shared_ptrIN7rocksdb5CacheEED2Ev.exit

if.end8.sink.split.i.i.i.i78:                     ; preds = %_ZN9__gnu_cxx27__exchange_and_add_dispatchEPii.exit.i.i.i.i.i.i75, %if.then.i.i.i.i83
  %vtable2.i.i.i.i.i.i79 = load ptr, ptr %20, align 8
  %vfn3.i.i.i.i.i.i80 = getelementptr inbounds ptr, ptr %vtable2.i.i.i.i.i.i79, i64 3
  %30 = load ptr, ptr %vfn3.i.i.i.i.i.i80, align 8
  call void %30(ptr noundef nonnull align 8 dereferenceable(16) %20) #21
  br label %_ZNSt10shared_ptrIN7rocksdb5CacheEED2Ev.exit

_ZNSt10shared_ptrIN7rocksdb5CacheEED2Ev.exit:     ; preds = %invoke.cont40, %_ZN9__gnu_cxx27__exchange_and_add_dispatchEPii.exit.i.i.i.i65, %_ZN9__gnu_cxx27__exchange_and_add_dispatchEPii.exit.i.i.i.i.i.i75, %if.end8.sink.split.i.i.i.i78
  %wc_ = getelementptr inbounds %"class.rocksdb::(anonymous namespace)::Repairer", ptr %this, i64 0, i32 15
  %delayed_write_rate = getelementptr inbounds %"class.rocksdb::(anonymous namespace)::Repairer", ptr %this, i64 0, i32 4, i32 58
  %31 = load i64, ptr %delayed_write_rate, align 8
  store i32 0, ptr %wc_, align 8
  %total_delayed_.i = getelementptr inbounds %"class.rocksdb::(anonymous namespace)::Repairer", ptr %this, i64 0, i32 15, i32 1
  store i32 0, ptr %total_delayed_.i, align 4
  %total_compaction_pressure_.i = getelementptr inbounds %"class.rocksdb::(anonymous namespace)::Repairer", ptr %this, i64 0, i32 15, i32 2
  store i32 0, ptr %total_compaction_pressure_.i, align 8
  %credit_in_bytes_.i = getelementptr inbounds %"class.rocksdb::(anonymous namespace)::Repairer", ptr %this, i64 0, i32 15, i32 3
  %low_pri_rate_limiter_.i = getelementptr inbounds %"class.rocksdb::(anonymous namespace)::Repairer", ptr %this, i64 0, i32 15, i32 7
  call void @llvm.memset.p0.i64(ptr noundef nonnull align 8 dereferenceable(16) %credit_in_bytes_.i, i8 0, i64 16, i1 false)
  %call.i87 = invoke noundef ptr @_ZN7rocksdb21NewGenericRateLimiterElliNS_11RateLimiter4ModeEb(i64 noundef 1048576, i64 noundef 100000, i32 noundef 10, i32 noundef 1, i1 noundef zeroext false)
          to label %invoke.cont43 unwind label %lpad42

invoke.cont43:                                    ; preds = %_ZNSt10shared_ptrIN7rocksdb5CacheEED2Ev.exit
  store ptr %call.i87, ptr %low_pri_rate_limiter_.i, align 8
  %spec.store.select.i.i = call i64 @llvm.umax.i64(i64 %31, i64 1)
  %max_delayed_write_rate_.i.i = getelementptr inbounds %"class.rocksdb::(anonymous namespace)::Repairer", ptr %this, i64 0, i32 15, i32 5
  store i64 %spec.store.select.i.i, ptr %max_delayed_write_rate_.i.i, align 8
  %delayed_write_rate_.i.i = getelementptr inbounds %"class.rocksdb::(anonymous namespace)::Repairer", ptr %this, i64 0, i32 15, i32 6
  store i64 %spec.store.select.i.i, ptr %delayed_write_rate_.i.i, align 8
  %vset_ = getelementptr inbounds %"class.rocksdb::(anonymous namespace)::Repairer", ptr %this, i64 0, i32 16
  %32 = load ptr, ptr %raw_table_cache_, align 8
  call void @llvm.memset.p0.i64(ptr noundef nonnull align 8 dereferenceable(16) %ref.tmp51, i8 0, i64 16, i1 false)
  call void @_ZNSaIcEC1Ev(ptr noundef nonnull align 1 dereferenceable(1) %ref.tmp53) #21
  %call.i88 = invoke noundef ptr @_ZNSt7__cxx1112basic_stringIcSt11char_traitsIcESaIcEE13_M_local_dataEv(ptr noundef nonnull align 8 dereferenceable(32) %ref.tmp52)
          to label %call.i.noexc unwind label %lpad54

call.i.noexc:                                     ; preds = %invoke.cont43
  invoke void @_ZNSt7__cxx1112basic_stringIcSt11char_traitsIcESaIcEE12_Alloc_hiderC1EPcRKS3_(ptr noundef nonnull align 8 dereferenceable(8) %ref.tmp52, ptr noundef %call.i88, ptr noundef nonnull align 1 dereferenceable(1) %ref.tmp53)
          to label %.noexc unwind label %lpad54

.noexc:                                           ; preds = %call.i.noexc
  invoke void @_ZNSt7__cxx1112basic_stringIcSt11char_traitsIcESaIcEE12_M_constructIPKcEEvT_S8_St20forward_iterator_tag(ptr noundef nonnull align 8 dereferenceable(32) %ref.tmp52, ptr noundef nonnull @.str.2, ptr noundef nonnull @.str.2)
          to label %invoke.cont55 unwind label %lpad.i

lpad.i:                                           ; preds = %.noexc
  %33 = landingpad { ptr, i32 }
          cleanup
  call void @_ZNSaIcED2Ev(ptr noundef nonnull align 1 dereferenceable(1) %ref.tmp52) #21
  br label %ehcleanup

invoke.cont55:                                    ; preds = %.noexc
  %daily_offpeak_time_utc = getelementptr inbounds %"struct.rocksdb::DBOptions", ptr %db_options, i64 0, i32 94
  invoke void @_ZN7rocksdb10VersionSetC1ERKNSt7__cxx1112basic_stringIcSt11char_traitsIcESaIcEEEPKNS_18ImmutableDBOptionsERKNS_11FileOptionsEPNS_5CacheEPNS_18WriteBufferManagerEPNS_15WriteControllerEPNS_16BlockCacheTracerERKSt10shared_ptrINS_8IOTracerEES8_S8_S8_PNS_12ErrorHandlerE(ptr noundef nonnull align 8 dereferenceable(752) %vset_, ptr noundef nonnull align 8 dereferenceable(32) %this, ptr noundef nonnull %immutable_db_options_, ptr noundef nonnull align 8 dereferenceable(146) %file_options_, ptr noundef %32, ptr noundef nonnull %wb_, ptr noundef nonnull %wc_, ptr noundef null, ptr noundef nonnull align 8 dereferenceable(16) %ref.tmp51, ptr noundef nonnull align 8 dereferenceable(32) %ref.tmp52, ptr noundef nonnull align 8 dereferenceable(32) %db_session_id_, ptr noundef nonnull align 8 dereferenceable(32) %daily_offpeak_time_utc, ptr noundef null)
          to label %invoke.cont58 unwind label %lpad57

invoke.cont58:                                    ; preds = %invoke.cont55
  call void @_ZNSt7__cxx1112basic_stringIcSt11char_traitsIcESaIcEED1Ev(ptr noundef nonnull align 8 dereferenceable(32) %ref.tmp52) #21
  call void @_ZNSaIcED1Ev(ptr noundef nonnull align 1 dereferenceable(1) %ref.tmp53) #21
  %_M_refcount.i.i90 = getelementptr inbounds %"class.std::__shared_ptr.129", ptr %ref.tmp51, i64 0, i32 1
  %34 = load ptr, ptr %_M_refcount.i.i90, align 8
  %cmp.not.i.i.i91 = icmp eq ptr %34, null
  br i1 %cmp.not.i.i.i91, label %_ZNSt10shared_ptrIN7rocksdb8IOTracerEED2Ev.exit121, label %if.then.i.i.i92

if.then.i.i.i92:                                  ; preds = %invoke.cont58
  %_M_use_count.i.i.i.i93 = getelementptr inbounds %"class.std::_Sp_counted_base", ptr %34, i64 0, i32 1
  %35 = load atomic i64, ptr %_M_use_count.i.i.i.i93 acquire, align 8
  %cmp.i.i.i.i94 = icmp eq i64 %35, 4294967297
  %36 = trunc i64 %35 to i32
  br i1 %cmp.i.i.i.i94, label %if.then.i.i.i.i117, label %if.end.i.i.i.i95

if.then.i.i.i.i117:                               ; preds = %if.then.i.i.i92
  store i32 0, ptr %_M_use_count.i.i.i.i93, align 8
  %_M_weak_count.i.i.i.i118 = getelementptr inbounds %"class.std::_Sp_counted_base", ptr %34, i64 0, i32 2
  store i32 0, ptr %_M_weak_count.i.i.i.i118, align 4
  %vtable.i.i.i.i119 = load ptr, ptr %34, align 8
  %vfn.i.i.i.i120 = getelementptr inbounds ptr, ptr %vtable.i.i.i.i119, i64 2
  %37 = load ptr, ptr %vfn.i.i.i.i120, align 8
  call void %37(ptr noundef nonnull align 8 dereferenceable(16) %34) #21
  br label %if.end8.sink.split.i.i.i.i112

if.end.i.i.i.i95:                                 ; preds = %if.then.i.i.i92
  %38 = load i8, ptr @__libc_single_threaded, align 1
  %tobool.i.i.not.i.i.i.i96 = icmp eq i8 %38, 0
  br i1 %tobool.i.i.not.i.i.i.i96, label %if.else.i.i.i.i.i116, label %if.then.i.i.i.i.i97

if.then.i.i.i.i.i97:                              ; preds = %if.end.i.i.i.i95
  %add.i.i.i.i.i98 = add nsw i32 %36, -1
  store i32 %add.i.i.i.i.i98, ptr %_M_use_count.i.i.i.i93, align 4
  br label %_ZN9__gnu_cxx27__exchange_and_add_dispatchEPii.exit.i.i.i.i99

if.else.i.i.i.i.i116:                             ; preds = %if.end.i.i.i.i95
  %39 = atomicrmw volatile add ptr %_M_use_count.i.i.i.i93, i32 -1 acq_rel, align 4
  br label %_ZN9__gnu_cxx27__exchange_and_add_dispatchEPii.exit.i.i.i.i99

_ZN9__gnu_cxx27__exchange_and_add_dispatchEPii.exit.i.i.i.i99: ; preds = %if.else.i.i.i.i.i116, %if.then.i.i.i.i.i97
  %retval.i.0.i.i.i.i100 = phi i32 [ %36, %if.then.i.i.i.i.i97 ], [ %39, %if.else.i.i.i.i.i116 ]
  %cmp6.i.i.i.i101 = icmp eq i32 %retval.i.0.i.i.i.i100, 1
  br i1 %cmp6.i.i.i.i101, label %if.then7.i.i.i.i102, label %_ZNSt10shared_ptrIN7rocksdb8IOTracerEED2Ev.exit121

if.then7.i.i.i.i102:                              ; preds = %_ZN9__gnu_cxx27__exchange_and_add_dispatchEPii.exit.i.i.i.i99
  %vtable.i.i.i.i.i.i103 = load ptr, ptr %34, align 8
  %vfn.i.i.i.i.i.i104 = getelementptr inbounds ptr, ptr %vtable.i.i.i.i.i.i103, i64 2
  %40 = load ptr, ptr %vfn.i.i.i.i.i.i104, align 8
  call void %40(ptr noundef nonnull align 8 dereferenceable(16) %34) #21
  %_M_weak_count.i.i.i.i.i.i105 = getelementptr inbounds %"class.std::_Sp_counted_base", ptr %34, i64 0, i32 2
  %41 = load i8, ptr @__libc_single_threaded, align 1
  %tobool.i.i.not.i.i.i.i.i.i106 = icmp eq i8 %41, 0
  br i1 %tobool.i.i.not.i.i.i.i.i.i106, label %if.else.i.i.i.i.i.i.i115, label %if.then.i.i.i.i.i.i.i107

if.then.i.i.i.i.i.i.i107:                         ; preds = %if.then7.i.i.i.i102
  %42 = load i32, ptr %_M_weak_count.i.i.i.i.i.i105, align 4
  %add.i.i.i.i.i.i.i108 = add nsw i32 %42, -1
  store i32 %add.i.i.i.i.i.i.i108, ptr %_M_weak_count.i.i.i.i.i.i105, align 4
  br label %_ZN9__gnu_cxx27__exchange_and_add_dispatchEPii.exit.i.i.i.i.i.i109

if.else.i.i.i.i.i.i.i115:                         ; preds = %if.then7.i.i.i.i102
  %43 = atomicrmw volatile add ptr %_M_weak_count.i.i.i.i.i.i105, i32 -1 acq_rel, align 4
  br label %_ZN9__gnu_cxx27__exchange_and_add_dispatchEPii.exit.i.i.i.i.i.i109

_ZN9__gnu_cxx27__exchange_and_add_dispatchEPii.exit.i.i.i.i.i.i109: ; preds = %if.else.i.i.i.i.i.i.i115, %if.then.i.i.i.i.i.i.i107
  %retval.i.0.i.i.i.i.i.i110 = phi i32 [ %42, %if.then.i.i.i.i.i.i.i107 ], [ %43, %if.else.i.i.i.i.i.i.i115 ]
  %cmp.i.i.i.i.i.i111 = icmp eq i32 %retval.i.0.i.i.i.i.i.i110, 1
  br i1 %cmp.i.i.i.i.i.i111, label %if.end8.sink.split.i.i.i.i112, label %_ZNSt10shared_ptrIN7rocksdb8IOTracerEED2Ev.exit121

if.end8.sink.split.i.i.i.i112:                    ; preds = %_ZN9__gnu_cxx27__exchange_and_add_dispatchEPii.exit.i.i.i.i.i.i109, %if.then.i.i.i.i117
  %vtable2.i.i.i.i.i.i113 = load ptr, ptr %34, align 8
  %vfn3.i.i.i.i.i.i114 = getelementptr inbounds ptr, ptr %vtable2.i.i.i.i.i.i113, i64 3
  %44 = load ptr, ptr %vfn3.i.i.i.i.i.i114, align 8
  call void %44(ptr noundef nonnull align 8 dereferenceable(16) %34) #21
  br label %_ZNSt10shared_ptrIN7rocksdb8IOTracerEED2Ev.exit121

_ZNSt10shared_ptrIN7rocksdb8IOTracerEED2Ev.exit121: ; preds = %invoke.cont58, %_ZN9__gnu_cxx27__exchange_and_add_dispatchEPii.exit.i.i.i.i99, %_ZN9__gnu_cxx27__exchange_and_add_dispatchEPii.exit.i.i.i.i.i.i109, %if.end8.sink.split.i.i.i.i112
  %cf_name_to_opts_ = getelementptr inbounds %"class.rocksdb::(anonymous namespace)::Repairer", ptr %this, i64 0, i32 17
  %_M_single_bucket.i.i = getelementptr inbounds %"class.rocksdb::(anonymous namespace)::Repairer", ptr %this, i64 0, i32 17, i32 0, i32 5
  store ptr %_M_single_bucket.i.i, ptr %cf_name_to_opts_, align 8
  %_M_bucket_count.i.i = getelementptr inbounds %"class.rocksdb::(anonymous namespace)::Repairer", ptr %this, i64 0, i32 17, i32 0, i32 1
  store i64 1, ptr %_M_bucket_count.i.i, align 8
  %_M_before_begin.i.i = getelementptr inbounds %"class.rocksdb::(anonymous namespace)::Repairer", ptr %this, i64 0, i32 17, i32 0, i32 2
  %_M_rehash_policy.i.i = getelementptr inbounds %"class.rocksdb::(anonymous namespace)::Repairer", ptr %this, i64 0, i32 17, i32 0, i32 4
  call void @llvm.memset.p0.i64(ptr noundef nonnull align 8 dereferenceable(16) %_M_before_begin.i.i, i8 0, i64 16, i1 false)
  store float 1.000000e+00, ptr %_M_rehash_policy.i.i, align 8
  %_M_next_resize.i.i.i = getelementptr inbounds %"class.rocksdb::(anonymous namespace)::Repairer", ptr %this, i64 0, i32 17, i32 0, i32 4, i32 1
  call void @llvm.memset.p0.i64(ptr noundef nonnull align 8 dereferenceable(16) %_M_next_resize.i.i.i, i8 0, i64 16, i1 false)
  %mutex_ = getelementptr inbounds %"class.rocksdb::(anonymous namespace)::Repairer", ptr %this, i64 0, i32 18
  invoke void @_ZN7rocksdb4port5MutexC1Eb(ptr noundef nonnull align 8 dereferenceable(40) %mutex_, i1 noundef zeroext false)
          to label %invoke.cont61 unwind label %lpad60

invoke.cont61:                                    ; preds = %_ZNSt10shared_ptrIN7rocksdb8IOTracerEED2Ev.exit121
  %stats_.i = getelementptr inbounds %"class.rocksdb::(anonymous namespace)::Repairer", ptr %this, i64 0, i32 18, i32 1
  call void @llvm.memset.p0.i64(ptr noundef nonnull align 8 dereferenceable(20) %stats_.i, i8 0, i64 20, i1 false)
  %manifests_ = getelementptr inbounds %"class.rocksdb::(anonymous namespace)::Repairer", ptr %this, i64 0, i32 19
  %table_fds_ = getelementptr inbounds %"class.rocksdb::(anonymous namespace)::Repairer", ptr %this, i64 0, i32 20
  %logs_ = getelementptr inbounds %"class.rocksdb::(anonymous namespace)::Repairer", ptr %this, i64 0, i32 21
  %tables_ = getelementptr inbounds %"class.rocksdb::(anonymous namespace)::Repairer", ptr %this, i64 0, i32 22
  %next_file_number_ = getelementptr inbounds %"class.rocksdb::(anonymous namespace)::Repairer", ptr %this, i64 0, i32 23
  call void @llvm.memset.p0.i64(ptr noundef nonnull align 8 dereferenceable(96) %manifests_, i8 0, i64 96, i1 false)
  store i64 1, ptr %next_file_number_, align 8
  %db_lock_ = getelementptr inbounds %"class.rocksdb::(anonymous namespace)::Repairer", ptr %this, i64 0, i32 24
  store ptr null, ptr %db_lock_, align 8
  %closed_ = getelementptr inbounds %"class.rocksdb::(anonymous namespace)::Repairer", ptr %this, i64 0, i32 25
  store i8 0, ptr %closed_, align 8
  %45 = load ptr, ptr %column_families, align 8
  %_M_finish.i = getelementptr inbounds %"struct.std::_Vector_base<rocksdb::ColumnFamilyDescriptor, std::allocator<rocksdb::ColumnFamilyDescriptor>>::_Vector_impl_data", ptr %column_families, i64 0, i32 1
  %46 = load ptr, ptr %_M_finish.i, align 8
  %cmp.i.not133 = icmp eq ptr %45, %46
  br i1 %cmp.i.not133, label %for.end, label %for.body

for.body:                                         ; preds = %invoke.cont61, %for.inc
  %__begin2.sroa.0.0134 = phi ptr [ %incdec.ptr.i, %for.inc ], [ %45, %invoke.cont61 ]
  %call.i124 = invoke noundef nonnull align 8 dereferenceable(820) ptr @_ZNSt8__detail9_Map_baseINSt7__cxx1112basic_stringIcSt11char_traitsIcESaIcEEESt4pairIKS6_N7rocksdb19ColumnFamilyOptionsEESaISB_ENS_10_Select1stESt8equal_toIS6_ESt4hashIS6_ENS_18_Mod_range_hashingENS_20_Default_ranged_hashENS_20_Prime_rehash_policyENS_17_Hashtable_traitsILb1ELb0ELb1EEELb1EEixERS8_(ptr noundef nonnull align 1 dereferenceable(1) %cf_name_to_opts_, ptr noundef nonnull align 8 dereferenceable(32) %__begin2.sroa.0.0134)
          to label %invoke.cont69 unwind label %lpad68

invoke.cont69:                                    ; preds = %for.body
  %options = getelementptr inbounds %"struct.rocksdb::ColumnFamilyDescriptor", ptr %__begin2.sroa.0.0134, i64 0, i32 1
  %call72 = invoke noundef nonnull align 8 dereferenceable(820) ptr @_ZN7rocksdb19ColumnFamilyOptionsaSERKS0_(ptr noundef nonnull align 8 dereferenceable(820) %call.i124, ptr noundef nonnull align 8 dereferenceable(820) %options)
          to label %for.inc unwind label %lpad68

for.inc:                                          ; preds = %invoke.cont69
  %incdec.ptr.i = getelementptr inbounds %"struct.rocksdb::ColumnFamilyDescriptor", ptr %__begin2.sroa.0.0134, i64 1
  %cmp.i.not = icmp eq ptr %incdec.ptr.i, %46
  br i1 %cmp.i.not, label %for.end, label %for.body

lpad:                                             ; preds = %entry
  %47 = landingpad { ptr, i32 }
          cleanup
  br label %ehcleanup93

lpad3:                                            ; preds = %invoke.cont
  %48 = landingpad { ptr, i32 }
          cleanup
  br label %ehcleanup92

lpad6:                                            ; preds = %invoke.cont4
  %49 = landingpad { ptr, i32 }
          cleanup
  br label %ehcleanup91

lpad9:                                            ; preds = %invoke.cont7
  %50 = landingpad { ptr, i32 }
          cleanup
  br label %ehcleanup90

lpad14:                                           ; preds = %invoke.cont12
  %51 = landingpad { ptr, i32 }
          cleanup
  br label %ehcleanup89

lpad18:                                           ; preds = %invoke.cont15
  %52 = landingpad { ptr, i32 }
          cleanup
  br label %ehcleanup87

lpad21:                                           ; preds = %invoke.cont19
  %53 = landingpad { ptr, i32 }
          cleanup
  br label %ehcleanup86

lpad28:                                           ; preds = %_ZNSt10shared_ptrIN7rocksdb15MemoryAllocatorEED2Ev.exit
  %54 = landingpad { ptr, i32 }
          cleanup
  br label %ehcleanup84

lpad35:                                           ; preds = %invoke.cont29
  %55 = landingpad { ptr, i32 }
          cleanup
  call void @_ZNSt10shared_ptrIN7rocksdb8IOTracerEED2Ev(ptr noundef nonnull align 8 dereferenceable(16) %ref.tmp) #21
  call void @_ZdlPv(ptr noundef nonnull %call) #20
  br label %ehcleanup84

lpad39:                                           ; preds = %_ZNSt10shared_ptrIN7rocksdb8IOTracerEED2Ev.exit
  %56 = landingpad { ptr, i32 }
          cleanup
  call void @_ZNSt10shared_ptrIN7rocksdb5CacheEED2Ev(ptr noundef nonnull align 8 dereferenceable(16) %agg.tmp38) #21
  br label %ehcleanup83

lpad42:                                           ; preds = %_ZNSt10shared_ptrIN7rocksdb5CacheEED2Ev.exit
  %57 = landingpad { ptr, i32 }
          cleanup
  br label %ehcleanup82

lpad54:                                           ; preds = %call.i.noexc, %invoke.cont43
  %58 = landingpad { ptr, i32 }
          cleanup
  br label %ehcleanup

lpad57:                                           ; preds = %invoke.cont55
  %59 = landingpad { ptr, i32 }
          cleanup
  call void @_ZNSt7__cxx1112basic_stringIcSt11char_traitsIcESaIcEED1Ev(ptr noundef nonnull align 8 dereferenceable(32) %ref.tmp52) #21
  br label %ehcleanup

ehcleanup:                                        ; preds = %lpad54, %lpad.i, %lpad57
  %.pn = phi { ptr, i32 } [ %59, %lpad57 ], [ %58, %lpad54 ], [ %33, %lpad.i ]
  call void @_ZNSaIcED1Ev(ptr noundef nonnull align 1 dereferenceable(1) %ref.tmp53) #21
  call void @_ZNSt10shared_ptrIN7rocksdb8IOTracerEED2Ev(ptr noundef nonnull align 8 dereferenceable(16) %ref.tmp51) #21
  br label %ehcleanup81

lpad60:                                           ; preds = %_ZNSt10shared_ptrIN7rocksdb8IOTracerEED2Ev.exit121
  %60 = landingpad { ptr, i32 }
          cleanup
  br label %ehcleanup79

lpad68:                                           ; preds = %for.body, %invoke.cont69
  %61 = landingpad { ptr, i32 }
          cleanup
  call fastcc void @_ZNSt6vectorIN7rocksdb12_GLOBAL__N_18Repairer9TableInfoESaIS3_EED2Ev(ptr noundef nonnull align 8 dereferenceable(24) %tables_) #21
  %62 = load ptr, ptr %logs_, align 8
  %tobool.not.i.i.i = icmp eq ptr %62, null
  br i1 %tobool.not.i.i.i, label %_ZNSt6vectorImSaImEED2Ev.exit, label %if.then.i.i.i126

if.then.i.i.i126:                                 ; preds = %lpad68
  call void @_ZdlPv(ptr noundef nonnull %62) #20
  br label %_ZNSt6vectorImSaImEED2Ev.exit

_ZNSt6vectorImSaImEED2Ev.exit:                    ; preds = %lpad68, %if.then.i.i.i126
  %63 = load ptr, ptr %table_fds_, align 8
  %tobool.not.i.i.i128 = icmp eq ptr %63, null
  br i1 %tobool.not.i.i.i128, label %_ZNSt6vectorIN7rocksdb14FileDescriptorESaIS1_EED2Ev.exit, label %if.then.i.i.i129

if.then.i.i.i129:                                 ; preds = %_ZNSt6vectorImSaImEED2Ev.exit
  call void @_ZdlPv(ptr noundef nonnull %63) #20
  br label %_ZNSt6vectorIN7rocksdb14FileDescriptorESaIS1_EED2Ev.exit

_ZNSt6vectorIN7rocksdb14FileDescriptorESaIS1_EED2Ev.exit: ; preds = %_ZNSt6vectorImSaImEED2Ev.exit, %if.then.i.i.i129
  call void @_ZNSt6vectorINSt7__cxx1112basic_stringIcSt11char_traitsIcESaIcEEESaIS5_EED2Ev(ptr noundef nonnull align 8 dereferenceable(24) %manifests_) #21
  call void @_ZN7rocksdb4port5MutexD1Ev(ptr noundef nonnull align 8 dereferenceable(40) %mutex_) #21
  br label %ehcleanup79

for.end:                                          ; preds = %for.inc, %invoke.cont61
  ret void

ehcleanup79:                                      ; preds = %_ZNSt6vectorIN7rocksdb14FileDescriptorESaIS1_EED2Ev.exit, %lpad60
  %.pn8 = phi { ptr, i32 } [ %61, %_ZNSt6vectorIN7rocksdb14FileDescriptorESaIS1_EED2Ev.exit ], [ %60, %lpad60 ]
  call void @_ZNSt13unordered_mapINSt7__cxx1112basic_stringIcSt11char_traitsIcESaIcEEEN7rocksdb19ColumnFamilyOptionsESt4hashIS5_ESt8equal_toIS5_ESaISt4pairIKS5_S7_EEED2Ev(ptr noundef nonnull align 8 dereferenceable(56) %cf_name_to_opts_) #21
  call void @_ZN7rocksdb10VersionSetD1Ev(ptr noundef nonnull align 8 dereferenceable(752) %vset_) #21
  br label %ehcleanup81

ehcleanup81:                                      ; preds = %ehcleanup79, %ehcleanup
  %.pn8.pn = phi { ptr, i32 } [ %.pn8, %ehcleanup79 ], [ %.pn, %ehcleanup ]
  %64 = load ptr, ptr %low_pri_rate_limiter_.i, align 8
  %cmp.not.i.i = icmp eq ptr %64, null
  br i1 %cmp.not.i.i, label %_ZN7rocksdb15WriteControllerD2Ev.exit, label %_ZNKSt14default_deleteIN7rocksdb11RateLimiterEEclEPS1_.exit.i.i

_ZNKSt14default_deleteIN7rocksdb11RateLimiterEEclEPS1_.exit.i.i: ; preds = %ehcleanup81
  %vtable.i.i.i = load ptr, ptr %64, align 8
  %vfn.i.i.i = getelementptr inbounds ptr, ptr %vtable.i.i.i, i64 1
  %65 = load ptr, ptr %vfn.i.i.i, align 8
  call void %65(ptr noundef nonnull align 8 dereferenceable(12) %64) #21
  br label %_ZN7rocksdb15WriteControllerD2Ev.exit

_ZN7rocksdb15WriteControllerD2Ev.exit:            ; preds = %ehcleanup81, %_ZNKSt14default_deleteIN7rocksdb11RateLimiterEEclEPS1_.exit.i.i
  store ptr null, ptr %low_pri_rate_limiter_.i, align 8
  br label %ehcleanup82

ehcleanup82:                                      ; preds = %_ZN7rocksdb15WriteControllerD2Ev.exit, %lpad42
  %.pn8.pn.pn = phi { ptr, i32 } [ %.pn8.pn, %_ZN7rocksdb15WriteControllerD2Ev.exit ], [ %57, %lpad42 ]
  call void @_ZN7rocksdb18WriteBufferManagerD1Ev(ptr noundef nonnull align 8 dereferenceable(160) %wb_) #21
  br label %ehcleanup83

ehcleanup83:                                      ; preds = %ehcleanup82, %lpad39
  %.pn8.pn.pn.pn = phi { ptr, i32 } [ %.pn8.pn.pn, %ehcleanup82 ], [ %56, %lpad39 ]
  call void @_ZNSt10unique_ptrIN7rocksdb10TableCacheESt14default_deleteIS1_EED2Ev(ptr noundef nonnull align 8 dereferenceable(8) %table_cache_) #21
  br label %ehcleanup84

ehcleanup84:                                      ; preds = %lpad35, %ehcleanup83, %lpad28
  %.pn8.pn.pn.pn.pn = phi { ptr, i32 } [ %.pn8.pn.pn.pn, %ehcleanup83 ], [ %55, %lpad35 ], [ %54, %lpad28 ]
  call void @_ZNSt10shared_ptrIN7rocksdb5CacheEED2Ev(ptr noundef nonnull align 8 dereferenceable(16) %raw_table_cache_) #21
  br label %ehcleanup85

ehcleanup85:                                      ; preds = %ehcleanup84, %lpad3.i
  %.pn8.pn.pn.pn.pn.pn = phi { ptr, i32 } [ %.pn8.pn.pn.pn.pn, %ehcleanup84 ], [ %6, %lpad3.i ]
  call void @_ZN7rocksdb19ColumnFamilyOptionsD2Ev(ptr noundef nonnull align 8 dereferenceable(820) %unknown_cf_opts_) #21
  br label %ehcleanup86

ehcleanup86:                                      ; preds = %ehcleanup85, %lpad21
  %.pn8.pn.pn.pn.pn.pn.pn = phi { ptr, i32 } [ %.pn8.pn.pn.pn.pn.pn, %ehcleanup85 ], [ %53, %lpad21 ]
  %66 = getelementptr inbounds %"class.rocksdb::(anonymous namespace)::Repairer", ptr %this, i64 0, i32 8, i32 2
  call void @_ZN7rocksdb18ImmutableCFOptionsD2Ev(ptr noundef nonnull align 8 dereferenceable(281) %66) #21
  call void @_ZN7rocksdb18ImmutableDBOptionsD2Ev(ptr noundef nonnull align 8 dereferenceable(569) %default_iopts_) #21
  br label %ehcleanup87

ehcleanup87:                                      ; preds = %ehcleanup86, %lpad18
  %.pn8.pn.pn.pn.pn.pn.pn.pn = phi { ptr, i32 } [ %.pn8.pn.pn.pn.pn.pn.pn, %ehcleanup86 ], [ %52, %lpad18 ]
  call void @_ZN7rocksdb19ColumnFamilyOptionsD2Ev(ptr noundef nonnull align 8 dereferenceable(820) %default_cf_opts_) #21
  br label %ehcleanup89

ehcleanup89:                                      ; preds = %lpad14, %ehcleanup87
  %.pn8.pn.pn.pn.pn.pn.pn.pn.pn.pn = phi { ptr, i32 } [ %.pn8.pn.pn.pn.pn.pn.pn.pn, %ehcleanup87 ], [ %51, %lpad14 ]
  call void @_ZN7rocksdb18ImmutableDBOptionsD2Ev(ptr noundef nonnull align 8 dereferenceable(569) %immutable_db_options_) #21
  br label %ehcleanup90

ehcleanup90:                                      ; preds = %ehcleanup89, %lpad9
  %.pn8.pn.pn.pn.pn.pn.pn.pn.pn.pn.pn = phi { ptr, i32 } [ %.pn8.pn.pn.pn.pn.pn.pn.pn.pn.pn, %ehcleanup89 ], [ %50, %lpad9 ]
  call void @_ZN7rocksdb9DBOptionsD2Ev(ptr noundef nonnull align 8 dereferenceable(688) %db_options_) #21
  br label %ehcleanup91

ehcleanup91:                                      ; preds = %ehcleanup90, %lpad6
  %.pn8.pn.pn.pn.pn.pn.pn.pn.pn.pn.pn.pn = phi { ptr, i32 } [ %.pn8.pn.pn.pn.pn.pn.pn.pn.pn.pn.pn, %ehcleanup90 ], [ %49, %lpad6 ]
  call void @_ZN7rocksdb11FileOptionsD2Ev(ptr noundef nonnull align 8 dereferenceable(146) %file_options_) #21
  br label %ehcleanup92

ehcleanup92:                                      ; preds = %ehcleanup91, %lpad3
  %.pn8.pn.pn.pn.pn.pn.pn.pn.pn.pn.pn.pn.pn = phi { ptr, i32 } [ %.pn8.pn.pn.pn.pn.pn.pn.pn.pn.pn.pn.pn, %ehcleanup91 ], [ %48, %lpad3 ]
  call void @_ZNSt7__cxx1112basic_stringIcSt11char_traitsIcESaIcEED1Ev(ptr noundef nonnull align 8 dereferenceable(32) %db_session_id_) #21
  br label %ehcleanup93

ehcleanup93:                                      ; preds = %ehcleanup92, %lpad
  %.pn8.pn.pn.pn.pn.pn.pn.pn.pn.pn.pn.pn.pn.pn = phi { ptr, i32 } [ %.pn8.pn.pn.pn.pn.pn.pn.pn.pn.pn.pn.pn.pn, %ehcleanup92 ], [ %47, %lpad ]
  call void @_ZNSt7__cxx1112basic_stringIcSt11char_traitsIcESaIcEED1Ev(ptr noundef nonnull align 8 dereferenceable(32) %this) #21
  resume { ptr, i32 } %.pn8.pn.pn.pn.pn.pn.pn.pn.pn.pn.pn.pn.pn.pn
}

; Function Attrs: mustprogress nounwind uwtable
define linkonce_odr void @_ZN7rocksdb19ColumnFamilyOptionsD2Ev(ptr noundef nonnull align 8 dereferenceable(820) %this) unnamed_addr #1 comdat align 2 personality ptr @__gxx_personality_v0 {
entry:
  %_M_refcount.i.i = getelementptr inbounds %"struct.rocksdb::ColumnFamilyOptions", ptr %this, i64 0, i32 21, i32 0, i32 1
  %0 = load ptr, ptr %_M_refcount.i.i, align 8
  %cmp.not.i.i.i = icmp eq ptr %0, null
  br i1 %cmp.not.i.i.i, label %_ZNSt10shared_ptrIN7rocksdb21SstPartitionerFactoryEED2Ev.exit, label %if.then.i.i.i

if.then.i.i.i:                                    ; preds = %entry
  %_M_use_count.i.i.i.i = getelementptr inbounds %"class.std::_Sp_counted_base", ptr %0, i64 0, i32 1
  %1 = load atomic i64, ptr %_M_use_count.i.i.i.i acquire, align 8
  %cmp.i.i.i.i = icmp eq i64 %1, 4294967297
  %2 = trunc i64 %1 to i32
  br i1 %cmp.i.i.i.i, label %if.then.i.i.i.i, label %if.end.i.i.i.i

if.then.i.i.i.i:                                  ; preds = %if.then.i.i.i
  store i32 0, ptr %_M_use_count.i.i.i.i, align 8
  %_M_weak_count.i.i.i.i = getelementptr inbounds %"class.std::_Sp_counted_base", ptr %0, i64 0, i32 2
  store i32 0, ptr %_M_weak_count.i.i.i.i, align 4
  %vtable.i.i.i.i = load ptr, ptr %0, align 8
  %vfn.i.i.i.i = getelementptr inbounds ptr, ptr %vtable.i.i.i.i, i64 2
  %3 = load ptr, ptr %vfn.i.i.i.i, align 8
  tail call void %3(ptr noundef nonnull align 8 dereferenceable(16) %0) #21
  br label %if.end8.sink.split.i.i.i.i

if.end.i.i.i.i:                                   ; preds = %if.then.i.i.i
  %4 = load i8, ptr @__libc_single_threaded, align 1
  %tobool.i.i.not.i.i.i.i = icmp eq i8 %4, 0
  br i1 %tobool.i.i.not.i.i.i.i, label %if.else.i.i.i.i.i, label %if.then.i.i.i.i.i

if.then.i.i.i.i.i:                                ; preds = %if.end.i.i.i.i
  %add.i.i.i.i.i = add nsw i32 %2, -1
  store i32 %add.i.i.i.i.i, ptr %_M_use_count.i.i.i.i, align 4
  br label %_ZN9__gnu_cxx27__exchange_and_add_dispatchEPii.exit.i.i.i.i

if.else.i.i.i.i.i:                                ; preds = %if.end.i.i.i.i
  %5 = atomicrmw volatile add ptr %_M_use_count.i.i.i.i, i32 -1 acq_rel, align 4
  br label %_ZN9__gnu_cxx27__exchange_and_add_dispatchEPii.exit.i.i.i.i

_ZN9__gnu_cxx27__exchange_and_add_dispatchEPii.exit.i.i.i.i: ; preds = %if.else.i.i.i.i.i, %if.then.i.i.i.i.i
  %retval.i.0.i.i.i.i = phi i32 [ %2, %if.then.i.i.i.i.i ], [ %5, %if.else.i.i.i.i.i ]
  %cmp6.i.i.i.i = icmp eq i32 %retval.i.0.i.i.i.i, 1
  br i1 %cmp6.i.i.i.i, label %if.then7.i.i.i.i, label %_ZNSt10shared_ptrIN7rocksdb21SstPartitionerFactoryEED2Ev.exit

if.then7.i.i.i.i:                                 ; preds = %_ZN9__gnu_cxx27__exchange_and_add_dispatchEPii.exit.i.i.i.i
  %vtable.i.i.i.i.i.i = load ptr, ptr %0, align 8
  %vfn.i.i.i.i.i.i = getelementptr inbounds ptr, ptr %vtable.i.i.i.i.i.i, i64 2
  %6 = load ptr, ptr %vfn.i.i.i.i.i.i, align 8
  tail call void %6(ptr noundef nonnull align 8 dereferenceable(16) %0) #21
  %_M_weak_count.i.i.i.i.i.i = getelementptr inbounds %"class.std::_Sp_counted_base", ptr %0, i64 0, i32 2
  %7 = load i8, ptr @__libc_single_threaded, align 1
  %tobool.i.i.not.i.i.i.i.i.i = icmp eq i8 %7, 0
  br i1 %tobool.i.i.not.i.i.i.i.i.i, label %if.else.i.i.i.i.i.i.i, label %if.then.i.i.i.i.i.i.i

if.then.i.i.i.i.i.i.i:                            ; preds = %if.then7.i.i.i.i
  %8 = load i32, ptr %_M_weak_count.i.i.i.i.i.i, align 4
  %add.i.i.i.i.i.i.i = add nsw i32 %8, -1
  store i32 %add.i.i.i.i.i.i.i, ptr %_M_weak_count.i.i.i.i.i.i, align 4
  br label %_ZN9__gnu_cxx27__exchange_and_add_dispatchEPii.exit.i.i.i.i.i.i

if.else.i.i.i.i.i.i.i:                            ; preds = %if.then7.i.i.i.i
  %9 = atomicrmw volatile add ptr %_M_weak_count.i.i.i.i.i.i, i32 -1 acq_rel, align 4
  br label %_ZN9__gnu_cxx27__exchange_and_add_dispatchEPii.exit.i.i.i.i.i.i

_ZN9__gnu_cxx27__exchange_and_add_dispatchEPii.exit.i.i.i.i.i.i: ; preds = %if.else.i.i.i.i.i.i.i, %if.then.i.i.i.i.i.i.i
  %retval.i.0.i.i.i.i.i.i = phi i32 [ %8, %if.then.i.i.i.i.i.i.i ], [ %9, %if.else.i.i.i.i.i.i.i ]
  %cmp.i.i.i.i.i.i = icmp eq i32 %retval.i.0.i.i.i.i.i.i, 1
  br i1 %cmp.i.i.i.i.i.i, label %if.end8.sink.split.i.i.i.i, label %_ZNSt10shared_ptrIN7rocksdb21SstPartitionerFactoryEED2Ev.exit

if.end8.sink.split.i.i.i.i:                       ; preds = %_ZN9__gnu_cxx27__exchange_and_add_dispatchEPii.exit.i.i.i.i.i.i, %if.then.i.i.i.i
  %vtable2.i.i.i.i.i.i = load ptr, ptr %0, align 8
  %vfn3.i.i.i.i.i.i = getelementptr inbounds ptr, ptr %vtable2.i.i.i.i.i.i, i64 3
  %10 = load ptr, ptr %vfn3.i.i.i.i.i.i, align 8
  tail call void %10(ptr noundef nonnull align 8 dereferenceable(16) %0) #21
  br label %_ZNSt10shared_ptrIN7rocksdb21SstPartitionerFactoryEED2Ev.exit

_ZNSt10shared_ptrIN7rocksdb21SstPartitionerFactoryEED2Ev.exit: ; preds = %entry, %_ZN9__gnu_cxx27__exchange_and_add_dispatchEPii.exit.i.i.i.i, %_ZN9__gnu_cxx27__exchange_and_add_dispatchEPii.exit.i.i.i.i.i.i, %if.end8.sink.split.i.i.i.i
  %_M_refcount.i.i1 = getelementptr inbounds %"struct.rocksdb::ColumnFamilyOptions", ptr %this, i64 0, i32 20, i32 0, i32 1
  %11 = load ptr, ptr %_M_refcount.i.i1, align 8
  %cmp.not.i.i.i2 = icmp eq ptr %11, null
  br i1 %cmp.not.i.i.i2, label %_ZNSt10shared_ptrIN7rocksdb21ConcurrentTaskLimiterEED2Ev.exit, label %if.then.i.i.i3

if.then.i.i.i3:                                   ; preds = %_ZNSt10shared_ptrIN7rocksdb21SstPartitionerFactoryEED2Ev.exit
  %_M_use_count.i.i.i.i4 = getelementptr inbounds %"class.std::_Sp_counted_base", ptr %11, i64 0, i32 1
  %12 = load atomic i64, ptr %_M_use_count.i.i.i.i4 acquire, align 8
  %cmp.i.i.i.i5 = icmp eq i64 %12, 4294967297
  %13 = trunc i64 %12 to i32
  br i1 %cmp.i.i.i.i5, label %if.then.i.i.i.i28, label %if.end.i.i.i.i6

if.then.i.i.i.i28:                                ; preds = %if.then.i.i.i3
  store i32 0, ptr %_M_use_count.i.i.i.i4, align 8
  %_M_weak_count.i.i.i.i29 = getelementptr inbounds %"class.std::_Sp_counted_base", ptr %11, i64 0, i32 2
  store i32 0, ptr %_M_weak_count.i.i.i.i29, align 4
  %vtable.i.i.i.i30 = load ptr, ptr %11, align 8
  %vfn.i.i.i.i31 = getelementptr inbounds ptr, ptr %vtable.i.i.i.i30, i64 2
  %14 = load ptr, ptr %vfn.i.i.i.i31, align 8
  tail call void %14(ptr noundef nonnull align 8 dereferenceable(16) %11) #21
  br label %if.end8.sink.split.i.i.i.i23

if.end.i.i.i.i6:                                  ; preds = %if.then.i.i.i3
  %15 = load i8, ptr @__libc_single_threaded, align 1
  %tobool.i.i.not.i.i.i.i7 = icmp eq i8 %15, 0
  br i1 %tobool.i.i.not.i.i.i.i7, label %if.else.i.i.i.i.i27, label %if.then.i.i.i.i.i8

if.then.i.i.i.i.i8:                               ; preds = %if.end.i.i.i.i6
  %add.i.i.i.i.i9 = add nsw i32 %13, -1
  store i32 %add.i.i.i.i.i9, ptr %_M_use_count.i.i.i.i4, align 4
  br label %_ZN9__gnu_cxx27__exchange_and_add_dispatchEPii.exit.i.i.i.i10

if.else.i.i.i.i.i27:                              ; preds = %if.end.i.i.i.i6
  %16 = atomicrmw volatile add ptr %_M_use_count.i.i.i.i4, i32 -1 acq_rel, align 4
  br label %_ZN9__gnu_cxx27__exchange_and_add_dispatchEPii.exit.i.i.i.i10

_ZN9__gnu_cxx27__exchange_and_add_dispatchEPii.exit.i.i.i.i10: ; preds = %if.else.i.i.i.i.i27, %if.then.i.i.i.i.i8
  %retval.i.0.i.i.i.i11 = phi i32 [ %13, %if.then.i.i.i.i.i8 ], [ %16, %if.else.i.i.i.i.i27 ]
  %cmp6.i.i.i.i12 = icmp eq i32 %retval.i.0.i.i.i.i11, 1
  br i1 %cmp6.i.i.i.i12, label %if.then7.i.i.i.i13, label %_ZNSt10shared_ptrIN7rocksdb21ConcurrentTaskLimiterEED2Ev.exit

if.then7.i.i.i.i13:                               ; preds = %_ZN9__gnu_cxx27__exchange_and_add_dispatchEPii.exit.i.i.i.i10
  %vtable.i.i.i.i.i.i14 = load ptr, ptr %11, align 8
  %vfn.i.i.i.i.i.i15 = getelementptr inbounds ptr, ptr %vtable.i.i.i.i.i.i14, i64 2
  %17 = load ptr, ptr %vfn.i.i.i.i.i.i15, align 8
  tail call void %17(ptr noundef nonnull align 8 dereferenceable(16) %11) #21
  %_M_weak_count.i.i.i.i.i.i16 = getelementptr inbounds %"class.std::_Sp_counted_base", ptr %11, i64 0, i32 2
  %18 = load i8, ptr @__libc_single_threaded, align 1
  %tobool.i.i.not.i.i.i.i.i.i17 = icmp eq i8 %18, 0
  br i1 %tobool.i.i.not.i.i.i.i.i.i17, label %if.else.i.i.i.i.i.i.i26, label %if.then.i.i.i.i.i.i.i18

if.then.i.i.i.i.i.i.i18:                          ; preds = %if.then7.i.i.i.i13
  %19 = load i32, ptr %_M_weak_count.i.i.i.i.i.i16, align 4
  %add.i.i.i.i.i.i.i19 = add nsw i32 %19, -1
  store i32 %add.i.i.i.i.i.i.i19, ptr %_M_weak_count.i.i.i.i.i.i16, align 4
  br label %_ZN9__gnu_cxx27__exchange_and_add_dispatchEPii.exit.i.i.i.i.i.i20

if.else.i.i.i.i.i.i.i26:                          ; preds = %if.then7.i.i.i.i13
  %20 = atomicrmw volatile add ptr %_M_weak_count.i.i.i.i.i.i16, i32 -1 acq_rel, align 4
  br label %_ZN9__gnu_cxx27__exchange_and_add_dispatchEPii.exit.i.i.i.i.i.i20

_ZN9__gnu_cxx27__exchange_and_add_dispatchEPii.exit.i.i.i.i.i.i20: ; preds = %if.else.i.i.i.i.i.i.i26, %if.then.i.i.i.i.i.i.i18
  %retval.i.0.i.i.i.i.i.i21 = phi i32 [ %19, %if.then.i.i.i.i.i.i.i18 ], [ %20, %if.else.i.i.i.i.i.i.i26 ]
  %cmp.i.i.i.i.i.i22 = icmp eq i32 %retval.i.0.i.i.i.i.i.i21, 1
  br i1 %cmp.i.i.i.i.i.i22, label %if.end8.sink.split.i.i.i.i23, label %_ZNSt10shared_ptrIN7rocksdb21ConcurrentTaskLimiterEED2Ev.exit

if.end8.sink.split.i.i.i.i23:                     ; preds = %_ZN9__gnu_cxx27__exchange_and_add_dispatchEPii.exit.i.i.i.i.i.i20, %if.then.i.i.i.i28
  %vtable2.i.i.i.i.i.i24 = load ptr, ptr %11, align 8
  %vfn3.i.i.i.i.i.i25 = getelementptr inbounds ptr, ptr %vtable2.i.i.i.i.i.i24, i64 3
  %21 = load ptr, ptr %vfn3.i.i.i.i.i.i25, align 8
  tail call void %21(ptr noundef nonnull align 8 dereferenceable(16) %11) #21
  br label %_ZNSt10shared_ptrIN7rocksdb21ConcurrentTaskLimiterEED2Ev.exit

_ZNSt10shared_ptrIN7rocksdb21ConcurrentTaskLimiterEED2Ev.exit: ; preds = %_ZNSt10shared_ptrIN7rocksdb21SstPartitionerFactoryEED2Ev.exit, %_ZN9__gnu_cxx27__exchange_and_add_dispatchEPii.exit.i.i.i.i10, %_ZN9__gnu_cxx27__exchange_and_add_dispatchEPii.exit.i.i.i.i.i.i20, %if.end8.sink.split.i.i.i.i23
  %cf_paths = getelementptr inbounds %"struct.rocksdb::ColumnFamilyOptions", ptr %this, i64 0, i32 19
  %22 = load ptr, ptr %cf_paths, align 8
  %_M_finish.i = getelementptr inbounds %"struct.rocksdb::ColumnFamilyOptions", ptr %this, i64 0, i32 19, i32 0, i32 0, i32 0, i32 1
  %23 = load ptr, ptr %_M_finish.i, align 8
  %cmp.not3.i.i.i.i = icmp eq ptr %22, %23
  br i1 %cmp.not3.i.i.i.i, label %invoke.cont.i, label %for.body.i.i.i.i

for.body.i.i.i.i:                                 ; preds = %_ZNSt10shared_ptrIN7rocksdb21ConcurrentTaskLimiterEED2Ev.exit, %for.body.i.i.i.i
  %__first.addr.04.i.i.i.i = phi ptr [ %incdec.ptr.i.i.i.i, %for.body.i.i.i.i ], [ %22, %_ZNSt10shared_ptrIN7rocksdb21ConcurrentTaskLimiterEED2Ev.exit ]
  tail call void @_ZNSt7__cxx1112basic_stringIcSt11char_traitsIcESaIcEED1Ev(ptr noundef nonnull align 8 dereferenceable(32) %__first.addr.04.i.i.i.i) #21
  %incdec.ptr.i.i.i.i = getelementptr inbounds %"struct.rocksdb::DbPath", ptr %__first.addr.04.i.i.i.i, i64 1
  %cmp.not.i.i.i.i = icmp eq ptr %incdec.ptr.i.i.i.i, %23
  br i1 %cmp.not.i.i.i.i, label %invoke.contthread-pre-split.i, label %for.body.i.i.i.i, !llvm.loop !15

invoke.contthread-pre-split.i:                    ; preds = %for.body.i.i.i.i
  %.pr.i = load ptr, ptr %cf_paths, align 8
  br label %invoke.cont.i

invoke.cont.i:                                    ; preds = %invoke.contthread-pre-split.i, %_ZNSt10shared_ptrIN7rocksdb21ConcurrentTaskLimiterEED2Ev.exit
  %24 = phi ptr [ %.pr.i, %invoke.contthread-pre-split.i ], [ %22, %_ZNSt10shared_ptrIN7rocksdb21ConcurrentTaskLimiterEED2Ev.exit ]
  %tobool.not.i.i.i = icmp eq ptr %24, null
  br i1 %tobool.not.i.i.i, label %_ZNSt6vectorIN7rocksdb6DbPathESaIS1_EED2Ev.exit, label %if.then.i.i.i32

if.then.i.i.i32:                                  ; preds = %invoke.cont.i
  tail call void @_ZdlPv(ptr noundef nonnull %24) #20
  br label %_ZNSt6vectorIN7rocksdb6DbPathESaIS1_EED2Ev.exit

_ZNSt6vectorIN7rocksdb6DbPathESaIS1_EED2Ev.exit:  ; preds = %invoke.cont.i, %if.then.i.i.i32
  %_M_refcount.i.i33 = getelementptr inbounds %"struct.rocksdb::ColumnFamilyOptions", ptr %this, i64 0, i32 18, i32 0, i32 1
  %25 = load ptr, ptr %_M_refcount.i.i33, align 8
  %cmp.not.i.i.i34 = icmp eq ptr %25, null
  br i1 %cmp.not.i.i.i34, label %_ZNSt10shared_ptrIN7rocksdb12TableFactoryEED2Ev.exit, label %if.then.i.i.i35

if.then.i.i.i35:                                  ; preds = %_ZNSt6vectorIN7rocksdb6DbPathESaIS1_EED2Ev.exit
  %_M_use_count.i.i.i.i36 = getelementptr inbounds %"class.std::_Sp_counted_base", ptr %25, i64 0, i32 1
  %26 = load atomic i64, ptr %_M_use_count.i.i.i.i36 acquire, align 8
  %cmp.i.i.i.i37 = icmp eq i64 %26, 4294967297
  %27 = trunc i64 %26 to i32
  br i1 %cmp.i.i.i.i37, label %if.then.i.i.i.i60, label %if.end.i.i.i.i38

if.then.i.i.i.i60:                                ; preds = %if.then.i.i.i35
  store i32 0, ptr %_M_use_count.i.i.i.i36, align 8
  %_M_weak_count.i.i.i.i61 = getelementptr inbounds %"class.std::_Sp_counted_base", ptr %25, i64 0, i32 2
  store i32 0, ptr %_M_weak_count.i.i.i.i61, align 4
  %vtable.i.i.i.i62 = load ptr, ptr %25, align 8
  %vfn.i.i.i.i63 = getelementptr inbounds ptr, ptr %vtable.i.i.i.i62, i64 2
  %28 = load ptr, ptr %vfn.i.i.i.i63, align 8
  tail call void %28(ptr noundef nonnull align 8 dereferenceable(16) %25) #21
  br label %if.end8.sink.split.i.i.i.i55

if.end.i.i.i.i38:                                 ; preds = %if.then.i.i.i35
  %29 = load i8, ptr @__libc_single_threaded, align 1
  %tobool.i.i.not.i.i.i.i39 = icmp eq i8 %29, 0
  br i1 %tobool.i.i.not.i.i.i.i39, label %if.else.i.i.i.i.i59, label %if.then.i.i.i.i.i40

if.then.i.i.i.i.i40:                              ; preds = %if.end.i.i.i.i38
  %add.i.i.i.i.i41 = add nsw i32 %27, -1
  store i32 %add.i.i.i.i.i41, ptr %_M_use_count.i.i.i.i36, align 4
  br label %_ZN9__gnu_cxx27__exchange_and_add_dispatchEPii.exit.i.i.i.i42

if.else.i.i.i.i.i59:                              ; preds = %if.end.i.i.i.i38
  %30 = atomicrmw volatile add ptr %_M_use_count.i.i.i.i36, i32 -1 acq_rel, align 4
  br label %_ZN9__gnu_cxx27__exchange_and_add_dispatchEPii.exit.i.i.i.i42

_ZN9__gnu_cxx27__exchange_and_add_dispatchEPii.exit.i.i.i.i42: ; preds = %if.else.i.i.i.i.i59, %if.then.i.i.i.i.i40
  %retval.i.0.i.i.i.i43 = phi i32 [ %27, %if.then.i.i.i.i.i40 ], [ %30, %if.else.i.i.i.i.i59 ]
  %cmp6.i.i.i.i44 = icmp eq i32 %retval.i.0.i.i.i.i43, 1
  br i1 %cmp6.i.i.i.i44, label %if.then7.i.i.i.i45, label %_ZNSt10shared_ptrIN7rocksdb12TableFactoryEED2Ev.exit

if.then7.i.i.i.i45:                               ; preds = %_ZN9__gnu_cxx27__exchange_and_add_dispatchEPii.exit.i.i.i.i42
  %vtable.i.i.i.i.i.i46 = load ptr, ptr %25, align 8
  %vfn.i.i.i.i.i.i47 = getelementptr inbounds ptr, ptr %vtable.i.i.i.i.i.i46, i64 2
  %31 = load ptr, ptr %vfn.i.i.i.i.i.i47, align 8
  tail call void %31(ptr noundef nonnull align 8 dereferenceable(16) %25) #21
  %_M_weak_count.i.i.i.i.i.i48 = getelementptr inbounds %"class.std::_Sp_counted_base", ptr %25, i64 0, i32 2
  %32 = load i8, ptr @__libc_single_threaded, align 1
  %tobool.i.i.not.i.i.i.i.i.i49 = icmp eq i8 %32, 0
  br i1 %tobool.i.i.not.i.i.i.i.i.i49, label %if.else.i.i.i.i.i.i.i58, label %if.then.i.i.i.i.i.i.i50

if.then.i.i.i.i.i.i.i50:                          ; preds = %if.then7.i.i.i.i45
  %33 = load i32, ptr %_M_weak_count.i.i.i.i.i.i48, align 4
  %add.i.i.i.i.i.i.i51 = add nsw i32 %33, -1
  store i32 %add.i.i.i.i.i.i.i51, ptr %_M_weak_count.i.i.i.i.i.i48, align 4
  br label %_ZN9__gnu_cxx27__exchange_and_add_dispatchEPii.exit.i.i.i.i.i.i52

if.else.i.i.i.i.i.i.i58:                          ; preds = %if.then7.i.i.i.i45
  %34 = atomicrmw volatile add ptr %_M_weak_count.i.i.i.i.i.i48, i32 -1 acq_rel, align 4
  br label %_ZN9__gnu_cxx27__exchange_and_add_dispatchEPii.exit.i.i.i.i.i.i52

_ZN9__gnu_cxx27__exchange_and_add_dispatchEPii.exit.i.i.i.i.i.i52: ; preds = %if.else.i.i.i.i.i.i.i58, %if.then.i.i.i.i.i.i.i50
  %retval.i.0.i.i.i.i.i.i53 = phi i32 [ %33, %if.then.i.i.i.i.i.i.i50 ], [ %34, %if.else.i.i.i.i.i.i.i58 ]
  %cmp.i.i.i.i.i.i54 = icmp eq i32 %retval.i.0.i.i.i.i.i.i53, 1
  br i1 %cmp.i.i.i.i.i.i54, label %if.end8.sink.split.i.i.i.i55, label %_ZNSt10shared_ptrIN7rocksdb12TableFactoryEED2Ev.exit

if.end8.sink.split.i.i.i.i55:                     ; preds = %_ZN9__gnu_cxx27__exchange_and_add_dispatchEPii.exit.i.i.i.i.i.i52, %if.then.i.i.i.i60
  %vtable2.i.i.i.i.i.i56 = load ptr, ptr %25, align 8
  %vfn3.i.i.i.i.i.i57 = getelementptr inbounds ptr, ptr %vtable2.i.i.i.i.i.i56, i64 3
  %35 = load ptr, ptr %vfn3.i.i.i.i.i.i57, align 8
  tail call void %35(ptr noundef nonnull align 8 dereferenceable(16) %25) #21
  br label %_ZNSt10shared_ptrIN7rocksdb12TableFactoryEED2Ev.exit

_ZNSt10shared_ptrIN7rocksdb12TableFactoryEED2Ev.exit: ; preds = %_ZNSt6vectorIN7rocksdb6DbPathESaIS1_EED2Ev.exit, %_ZN9__gnu_cxx27__exchange_and_add_dispatchEPii.exit.i.i.i.i42, %_ZN9__gnu_cxx27__exchange_and_add_dispatchEPii.exit.i.i.i.i.i.i52, %if.end8.sink.split.i.i.i.i55
  %_M_refcount.i.i64 = getelementptr inbounds %"struct.rocksdb::ColumnFamilyOptions", ptr %this, i64 0, i32 13, i32 0, i32 1
  %36 = load ptr, ptr %_M_refcount.i.i64, align 8
  %cmp.not.i.i.i65 = icmp eq ptr %36, null
  br i1 %cmp.not.i.i.i65, label %_ZNSt10shared_ptrIKN7rocksdb14SliceTransformEED2Ev.exit, label %if.then.i.i.i66

if.then.i.i.i66:                                  ; preds = %_ZNSt10shared_ptrIN7rocksdb12TableFactoryEED2Ev.exit
  %_M_use_count.i.i.i.i67 = getelementptr inbounds %"class.std::_Sp_counted_base", ptr %36, i64 0, i32 1
  %37 = load atomic i64, ptr %_M_use_count.i.i.i.i67 acquire, align 8
  %cmp.i.i.i.i68 = icmp eq i64 %37, 4294967297
  %38 = trunc i64 %37 to i32
  br i1 %cmp.i.i.i.i68, label %if.then.i.i.i.i91, label %if.end.i.i.i.i69

if.then.i.i.i.i91:                                ; preds = %if.then.i.i.i66
  store i32 0, ptr %_M_use_count.i.i.i.i67, align 8
  %_M_weak_count.i.i.i.i92 = getelementptr inbounds %"class.std::_Sp_counted_base", ptr %36, i64 0, i32 2
  store i32 0, ptr %_M_weak_count.i.i.i.i92, align 4
  %vtable.i.i.i.i93 = load ptr, ptr %36, align 8
  %vfn.i.i.i.i94 = getelementptr inbounds ptr, ptr %vtable.i.i.i.i93, i64 2
  %39 = load ptr, ptr %vfn.i.i.i.i94, align 8
  tail call void %39(ptr noundef nonnull align 8 dereferenceable(16) %36) #21
  br label %if.end8.sink.split.i.i.i.i86

if.end.i.i.i.i69:                                 ; preds = %if.then.i.i.i66
  %40 = load i8, ptr @__libc_single_threaded, align 1
  %tobool.i.i.not.i.i.i.i70 = icmp eq i8 %40, 0
  br i1 %tobool.i.i.not.i.i.i.i70, label %if.else.i.i.i.i.i90, label %if.then.i.i.i.i.i71

if.then.i.i.i.i.i71:                              ; preds = %if.end.i.i.i.i69
  %add.i.i.i.i.i72 = add nsw i32 %38, -1
  store i32 %add.i.i.i.i.i72, ptr %_M_use_count.i.i.i.i67, align 4
  br label %_ZN9__gnu_cxx27__exchange_and_add_dispatchEPii.exit.i.i.i.i73

if.else.i.i.i.i.i90:                              ; preds = %if.end.i.i.i.i69
  %41 = atomicrmw volatile add ptr %_M_use_count.i.i.i.i67, i32 -1 acq_rel, align 4
  br label %_ZN9__gnu_cxx27__exchange_and_add_dispatchEPii.exit.i.i.i.i73

_ZN9__gnu_cxx27__exchange_and_add_dispatchEPii.exit.i.i.i.i73: ; preds = %if.else.i.i.i.i.i90, %if.then.i.i.i.i.i71
  %retval.i.0.i.i.i.i74 = phi i32 [ %38, %if.then.i.i.i.i.i71 ], [ %41, %if.else.i.i.i.i.i90 ]
  %cmp6.i.i.i.i75 = icmp eq i32 %retval.i.0.i.i.i.i74, 1
  br i1 %cmp6.i.i.i.i75, label %if.then7.i.i.i.i76, label %_ZNSt10shared_ptrIKN7rocksdb14SliceTransformEED2Ev.exit

if.then7.i.i.i.i76:                               ; preds = %_ZN9__gnu_cxx27__exchange_and_add_dispatchEPii.exit.i.i.i.i73
  %vtable.i.i.i.i.i.i77 = load ptr, ptr %36, align 8
  %vfn.i.i.i.i.i.i78 = getelementptr inbounds ptr, ptr %vtable.i.i.i.i.i.i77, i64 2
  %42 = load ptr, ptr %vfn.i.i.i.i.i.i78, align 8
  tail call void %42(ptr noundef nonnull align 8 dereferenceable(16) %36) #21
  %_M_weak_count.i.i.i.i.i.i79 = getelementptr inbounds %"class.std::_Sp_counted_base", ptr %36, i64 0, i32 2
  %43 = load i8, ptr @__libc_single_threaded, align 1
  %tobool.i.i.not.i.i.i.i.i.i80 = icmp eq i8 %43, 0
  br i1 %tobool.i.i.not.i.i.i.i.i.i80, label %if.else.i.i.i.i.i.i.i89, label %if.then.i.i.i.i.i.i.i81

if.then.i.i.i.i.i.i.i81:                          ; preds = %if.then7.i.i.i.i76
  %44 = load i32, ptr %_M_weak_count.i.i.i.i.i.i79, align 4
  %add.i.i.i.i.i.i.i82 = add nsw i32 %44, -1
  store i32 %add.i.i.i.i.i.i.i82, ptr %_M_weak_count.i.i.i.i.i.i79, align 4
  br label %_ZN9__gnu_cxx27__exchange_and_add_dispatchEPii.exit.i.i.i.i.i.i83

if.else.i.i.i.i.i.i.i89:                          ; preds = %if.then7.i.i.i.i76
  %45 = atomicrmw volatile add ptr %_M_weak_count.i.i.i.i.i.i79, i32 -1 acq_rel, align 4
  br label %_ZN9__gnu_cxx27__exchange_and_add_dispatchEPii.exit.i.i.i.i.i.i83

_ZN9__gnu_cxx27__exchange_and_add_dispatchEPii.exit.i.i.i.i.i.i83: ; preds = %if.else.i.i.i.i.i.i.i89, %if.then.i.i.i.i.i.i.i81
  %retval.i.0.i.i.i.i.i.i84 = phi i32 [ %44, %if.then.i.i.i.i.i.i.i81 ], [ %45, %if.else.i.i.i.i.i.i.i89 ]
  %cmp.i.i.i.i.i.i85 = icmp eq i32 %retval.i.0.i.i.i.i.i.i84, 1
  br i1 %cmp.i.i.i.i.i.i85, label %if.end8.sink.split.i.i.i.i86, label %_ZNSt10shared_ptrIKN7rocksdb14SliceTransformEED2Ev.exit

if.end8.sink.split.i.i.i.i86:                     ; preds = %_ZN9__gnu_cxx27__exchange_and_add_dispatchEPii.exit.i.i.i.i.i.i83, %if.then.i.i.i.i91
  %vtable2.i.i.i.i.i.i87 = load ptr, ptr %36, align 8
  %vfn3.i.i.i.i.i.i88 = getelementptr inbounds ptr, ptr %vtable2.i.i.i.i.i.i87, i64 3
  %46 = load ptr, ptr %vfn3.i.i.i.i.i.i88, align 8
  tail call void %46(ptr noundef nonnull align 8 dereferenceable(16) %36) #21
  br label %_ZNSt10shared_ptrIKN7rocksdb14SliceTransformEED2Ev.exit

_ZNSt10shared_ptrIKN7rocksdb14SliceTransformEED2Ev.exit: ; preds = %_ZNSt10shared_ptrIN7rocksdb12TableFactoryEED2Ev.exit, %_ZN9__gnu_cxx27__exchange_and_add_dispatchEPii.exit.i.i.i.i73, %_ZN9__gnu_cxx27__exchange_and_add_dispatchEPii.exit.i.i.i.i.i.i83, %if.end8.sink.split.i.i.i.i86
  %_M_refcount.i.i95 = getelementptr inbounds %"struct.rocksdb::ColumnFamilyOptions", ptr %this, i64 0, i32 4, i32 0, i32 1
  %47 = load ptr, ptr %_M_refcount.i.i95, align 8
  %cmp.not.i.i.i96 = icmp eq ptr %47, null
  br i1 %cmp.not.i.i.i96, label %_ZNSt10shared_ptrIN7rocksdb23CompactionFilterFactoryEED2Ev.exit, label %if.then.i.i.i97

if.then.i.i.i97:                                  ; preds = %_ZNSt10shared_ptrIKN7rocksdb14SliceTransformEED2Ev.exit
  %_M_use_count.i.i.i.i98 = getelementptr inbounds %"class.std::_Sp_counted_base", ptr %47, i64 0, i32 1
  %48 = load atomic i64, ptr %_M_use_count.i.i.i.i98 acquire, align 8
  %cmp.i.i.i.i99 = icmp eq i64 %48, 4294967297
  %49 = trunc i64 %48 to i32
  br i1 %cmp.i.i.i.i99, label %if.then.i.i.i.i122, label %if.end.i.i.i.i100

if.then.i.i.i.i122:                               ; preds = %if.then.i.i.i97
  store i32 0, ptr %_M_use_count.i.i.i.i98, align 8
  %_M_weak_count.i.i.i.i123 = getelementptr inbounds %"class.std::_Sp_counted_base", ptr %47, i64 0, i32 2
  store i32 0, ptr %_M_weak_count.i.i.i.i123, align 4
  %vtable.i.i.i.i124 = load ptr, ptr %47, align 8
  %vfn.i.i.i.i125 = getelementptr inbounds ptr, ptr %vtable.i.i.i.i124, i64 2
  %50 = load ptr, ptr %vfn.i.i.i.i125, align 8
  tail call void %50(ptr noundef nonnull align 8 dereferenceable(16) %47) #21
  br label %if.end8.sink.split.i.i.i.i117

if.end.i.i.i.i100:                                ; preds = %if.then.i.i.i97
  %51 = load i8, ptr @__libc_single_threaded, align 1
  %tobool.i.i.not.i.i.i.i101 = icmp eq i8 %51, 0
  br i1 %tobool.i.i.not.i.i.i.i101, label %if.else.i.i.i.i.i121, label %if.then.i.i.i.i.i102

if.then.i.i.i.i.i102:                             ; preds = %if.end.i.i.i.i100
  %add.i.i.i.i.i103 = add nsw i32 %49, -1
  store i32 %add.i.i.i.i.i103, ptr %_M_use_count.i.i.i.i98, align 4
  br label %_ZN9__gnu_cxx27__exchange_and_add_dispatchEPii.exit.i.i.i.i104

if.else.i.i.i.i.i121:                             ; preds = %if.end.i.i.i.i100
  %52 = atomicrmw volatile add ptr %_M_use_count.i.i.i.i98, i32 -1 acq_rel, align 4
  br label %_ZN9__gnu_cxx27__exchange_and_add_dispatchEPii.exit.i.i.i.i104

_ZN9__gnu_cxx27__exchange_and_add_dispatchEPii.exit.i.i.i.i104: ; preds = %if.else.i.i.i.i.i121, %if.then.i.i.i.i.i102
  %retval.i.0.i.i.i.i105 = phi i32 [ %49, %if.then.i.i.i.i.i102 ], [ %52, %if.else.i.i.i.i.i121 ]
  %cmp6.i.i.i.i106 = icmp eq i32 %retval.i.0.i.i.i.i105, 1
  br i1 %cmp6.i.i.i.i106, label %if.then7.i.i.i.i107, label %_ZNSt10shared_ptrIN7rocksdb23CompactionFilterFactoryEED2Ev.exit

if.then7.i.i.i.i107:                              ; preds = %_ZN9__gnu_cxx27__exchange_and_add_dispatchEPii.exit.i.i.i.i104
  %vtable.i.i.i.i.i.i108 = load ptr, ptr %47, align 8
  %vfn.i.i.i.i.i.i109 = getelementptr inbounds ptr, ptr %vtable.i.i.i.i.i.i108, i64 2
  %53 = load ptr, ptr %vfn.i.i.i.i.i.i109, align 8
  tail call void %53(ptr noundef nonnull align 8 dereferenceable(16) %47) #21
  %_M_weak_count.i.i.i.i.i.i110 = getelementptr inbounds %"class.std::_Sp_counted_base", ptr %47, i64 0, i32 2
  %54 = load i8, ptr @__libc_single_threaded, align 1
  %tobool.i.i.not.i.i.i.i.i.i111 = icmp eq i8 %54, 0
  br i1 %tobool.i.i.not.i.i.i.i.i.i111, label %if.else.i.i.i.i.i.i.i120, label %if.then.i.i.i.i.i.i.i112

if.then.i.i.i.i.i.i.i112:                         ; preds = %if.then7.i.i.i.i107
  %55 = load i32, ptr %_M_weak_count.i.i.i.i.i.i110, align 4
  %add.i.i.i.i.i.i.i113 = add nsw i32 %55, -1
  store i32 %add.i.i.i.i.i.i.i113, ptr %_M_weak_count.i.i.i.i.i.i110, align 4
  br label %_ZN9__gnu_cxx27__exchange_and_add_dispatchEPii.exit.i.i.i.i.i.i114

if.else.i.i.i.i.i.i.i120:                         ; preds = %if.then7.i.i.i.i107
  %56 = atomicrmw volatile add ptr %_M_weak_count.i.i.i.i.i.i110, i32 -1 acq_rel, align 4
  br label %_ZN9__gnu_cxx27__exchange_and_add_dispatchEPii.exit.i.i.i.i.i.i114

_ZN9__gnu_cxx27__exchange_and_add_dispatchEPii.exit.i.i.i.i.i.i114: ; preds = %if.else.i.i.i.i.i.i.i120, %if.then.i.i.i.i.i.i.i112
  %retval.i.0.i.i.i.i.i.i115 = phi i32 [ %55, %if.then.i.i.i.i.i.i.i112 ], [ %56, %if.else.i.i.i.i.i.i.i120 ]
  %cmp.i.i.i.i.i.i116 = icmp eq i32 %retval.i.0.i.i.i.i.i.i115, 1
  br i1 %cmp.i.i.i.i.i.i116, label %if.end8.sink.split.i.i.i.i117, label %_ZNSt10shared_ptrIN7rocksdb23CompactionFilterFactoryEED2Ev.exit

if.end8.sink.split.i.i.i.i117:                    ; preds = %_ZN9__gnu_cxx27__exchange_and_add_dispatchEPii.exit.i.i.i.i.i.i114, %if.then.i.i.i.i122
  %vtable2.i.i.i.i.i.i118 = load ptr, ptr %47, align 8
  %vfn3.i.i.i.i.i.i119 = getelementptr inbounds ptr, ptr %vtable2.i.i.i.i.i.i118, i64 3
  %57 = load ptr, ptr %vfn3.i.i.i.i.i.i119, align 8
  tail call void %57(ptr noundef nonnull align 8 dereferenceable(16) %47) #21
  br label %_ZNSt10shared_ptrIN7rocksdb23CompactionFilterFactoryEED2Ev.exit

_ZNSt10shared_ptrIN7rocksdb23CompactionFilterFactoryEED2Ev.exit: ; preds = %_ZNSt10shared_ptrIKN7rocksdb14SliceTransformEED2Ev.exit, %_ZN9__gnu_cxx27__exchange_and_add_dispatchEPii.exit.i.i.i.i104, %_ZN9__gnu_cxx27__exchange_and_add_dispatchEPii.exit.i.i.i.i.i.i114, %if.end8.sink.split.i.i.i.i117
  %_M_refcount.i.i126 = getelementptr inbounds %"struct.rocksdb::ColumnFamilyOptions", ptr %this, i64 0, i32 2, i32 0, i32 1
  %58 = load ptr, ptr %_M_refcount.i.i126, align 8
  %cmp.not.i.i.i127 = icmp eq ptr %58, null
  br i1 %cmp.not.i.i.i127, label %_ZNSt10shared_ptrIN7rocksdb13MergeOperatorEED2Ev.exit, label %if.then.i.i.i128

if.then.i.i.i128:                                 ; preds = %_ZNSt10shared_ptrIN7rocksdb23CompactionFilterFactoryEED2Ev.exit
  %_M_use_count.i.i.i.i129 = getelementptr inbounds %"class.std::_Sp_counted_base", ptr %58, i64 0, i32 1
  %59 = load atomic i64, ptr %_M_use_count.i.i.i.i129 acquire, align 8
  %cmp.i.i.i.i130 = icmp eq i64 %59, 4294967297
  %60 = trunc i64 %59 to i32
  br i1 %cmp.i.i.i.i130, label %if.then.i.i.i.i153, label %if.end.i.i.i.i131

if.then.i.i.i.i153:                               ; preds = %if.then.i.i.i128
  store i32 0, ptr %_M_use_count.i.i.i.i129, align 8
  %_M_weak_count.i.i.i.i154 = getelementptr inbounds %"class.std::_Sp_counted_base", ptr %58, i64 0, i32 2
  store i32 0, ptr %_M_weak_count.i.i.i.i154, align 4
  %vtable.i.i.i.i155 = load ptr, ptr %58, align 8
  %vfn.i.i.i.i156 = getelementptr inbounds ptr, ptr %vtable.i.i.i.i155, i64 2
  %61 = load ptr, ptr %vfn.i.i.i.i156, align 8
  tail call void %61(ptr noundef nonnull align 8 dereferenceable(16) %58) #21
  br label %if.end8.sink.split.i.i.i.i148

if.end.i.i.i.i131:                                ; preds = %if.then.i.i.i128
  %62 = load i8, ptr @__libc_single_threaded, align 1
  %tobool.i.i.not.i.i.i.i132 = icmp eq i8 %62, 0
  br i1 %tobool.i.i.not.i.i.i.i132, label %if.else.i.i.i.i.i152, label %if.then.i.i.i.i.i133

if.then.i.i.i.i.i133:                             ; preds = %if.end.i.i.i.i131
  %add.i.i.i.i.i134 = add nsw i32 %60, -1
  store i32 %add.i.i.i.i.i134, ptr %_M_use_count.i.i.i.i129, align 4
  br label %_ZN9__gnu_cxx27__exchange_and_add_dispatchEPii.exit.i.i.i.i135

if.else.i.i.i.i.i152:                             ; preds = %if.end.i.i.i.i131
  %63 = atomicrmw volatile add ptr %_M_use_count.i.i.i.i129, i32 -1 acq_rel, align 4
  br label %_ZN9__gnu_cxx27__exchange_and_add_dispatchEPii.exit.i.i.i.i135

_ZN9__gnu_cxx27__exchange_and_add_dispatchEPii.exit.i.i.i.i135: ; preds = %if.else.i.i.i.i.i152, %if.then.i.i.i.i.i133
  %retval.i.0.i.i.i.i136 = phi i32 [ %60, %if.then.i.i.i.i.i133 ], [ %63, %if.else.i.i.i.i.i152 ]
  %cmp6.i.i.i.i137 = icmp eq i32 %retval.i.0.i.i.i.i136, 1
  br i1 %cmp6.i.i.i.i137, label %if.then7.i.i.i.i138, label %_ZNSt10shared_ptrIN7rocksdb13MergeOperatorEED2Ev.exit

if.then7.i.i.i.i138:                              ; preds = %_ZN9__gnu_cxx27__exchange_and_add_dispatchEPii.exit.i.i.i.i135
  %vtable.i.i.i.i.i.i139 = load ptr, ptr %58, align 8
  %vfn.i.i.i.i.i.i140 = getelementptr inbounds ptr, ptr %vtable.i.i.i.i.i.i139, i64 2
  %64 = load ptr, ptr %vfn.i.i.i.i.i.i140, align 8
  tail call void %64(ptr noundef nonnull align 8 dereferenceable(16) %58) #21
  %_M_weak_count.i.i.i.i.i.i141 = getelementptr inbounds %"class.std::_Sp_counted_base", ptr %58, i64 0, i32 2
  %65 = load i8, ptr @__libc_single_threaded, align 1
  %tobool.i.i.not.i.i.i.i.i.i142 = icmp eq i8 %65, 0
  br i1 %tobool.i.i.not.i.i.i.i.i.i142, label %if.else.i.i.i.i.i.i.i151, label %if.then.i.i.i.i.i.i.i143

if.then.i.i.i.i.i.i.i143:                         ; preds = %if.then7.i.i.i.i138
  %66 = load i32, ptr %_M_weak_count.i.i.i.i.i.i141, align 4
  %add.i.i.i.i.i.i.i144 = add nsw i32 %66, -1
  store i32 %add.i.i.i.i.i.i.i144, ptr %_M_weak_count.i.i.i.i.i.i141, align 4
  br label %_ZN9__gnu_cxx27__exchange_and_add_dispatchEPii.exit.i.i.i.i.i.i145

if.else.i.i.i.i.i.i.i151:                         ; preds = %if.then7.i.i.i.i138
  %67 = atomicrmw volatile add ptr %_M_weak_count.i.i.i.i.i.i141, i32 -1 acq_rel, align 4
  br label %_ZN9__gnu_cxx27__exchange_and_add_dispatchEPii.exit.i.i.i.i.i.i145

_ZN9__gnu_cxx27__exchange_and_add_dispatchEPii.exit.i.i.i.i.i.i145: ; preds = %if.else.i.i.i.i.i.i.i151, %if.then.i.i.i.i.i.i.i143
  %retval.i.0.i.i.i.i.i.i146 = phi i32 [ %66, %if.then.i.i.i.i.i.i.i143 ], [ %67, %if.else.i.i.i.i.i.i.i151 ]
  %cmp.i.i.i.i.i.i147 = icmp eq i32 %retval.i.0.i.i.i.i.i.i146, 1
  br i1 %cmp.i.i.i.i.i.i147, label %if.end8.sink.split.i.i.i.i148, label %_ZNSt10shared_ptrIN7rocksdb13MergeOperatorEED2Ev.exit

if.end8.sink.split.i.i.i.i148:                    ; preds = %_ZN9__gnu_cxx27__exchange_and_add_dispatchEPii.exit.i.i.i.i.i.i145, %if.then.i.i.i.i153
  %vtable2.i.i.i.i.i.i149 = load ptr, ptr %58, align 8
  %vfn3.i.i.i.i.i.i150 = getelementptr inbounds ptr, ptr %vtable2.i.i.i.i.i.i149, i64 3
  %68 = load ptr, ptr %vfn3.i.i.i.i.i.i150, align 8
  tail call void %68(ptr noundef nonnull align 8 dereferenceable(16) %58) #21
  br label %_ZNSt10shared_ptrIN7rocksdb13MergeOperatorEED2Ev.exit

_ZNSt10shared_ptrIN7rocksdb13MergeOperatorEED2Ev.exit: ; preds = %_ZNSt10shared_ptrIN7rocksdb23CompactionFilterFactoryEED2Ev.exit, %_ZN9__gnu_cxx27__exchange_and_add_dispatchEPii.exit.i.i.i.i135, %_ZN9__gnu_cxx27__exchange_and_add_dispatchEPii.exit.i.i.i.i.i.i145, %if.end8.sink.split.i.i.i.i148
  tail call void @_ZN7rocksdb27AdvancedColumnFamilyOptionsD2Ev(ptr noundef nonnull align 8 dereferenceable(520) %this) #21
  ret void
}

; Function Attrs: mustprogress uwtable
define internal fastcc void @_ZN7rocksdb12_GLOBAL__N_18Repairer3RunEv(ptr noalias align 8 %agg.result, ptr noundef nonnull align 8 dereferenceable(5249) %this) unnamed_addr #3 align 2 personality ptr @__gxx_personality_v0 {
entry:
  %unique_id309.sroa.0.i = alloca [2 x i64], align 8
  %level.addr.i168.i = alloca i32, align 4
  %ref.tmp.i160.i = alloca %"class.std::__cxx11::basic_string", align 8
  %level.addr.i.i = alloca i32, align 4
  %ref.tmp.i.i124 = alloca %"struct.rocksdb::FileMetaData", align 8
  %read_options.i = alloca %"struct.rocksdb::ReadOptions", align 8
  %cf_id_to_tables.i = alloca %"class.std::unordered_map.860", align 8
  %dummy_version_builder.i = alloca %"class.rocksdb::VersionBuilder", align 8
  %agg.tmp.i = alloca %"class.std::shared_ptr.98", align 16
  %dummy_vstorage.i = alloca %"class.rocksdb::VersionStorageInfo", align 16
  %agg.tmp65.i = alloca %"struct.rocksdb::OffpeakTimeOption", align 8
  %dummy_edit.i = alloca %"class.rocksdb::VersionEdit", align 8
  %ref.tmp123.i = alloca %"class.rocksdb::Status", align 8
  %ref.tmp129.i = alloca %"class.rocksdb::Status", align 8
  %edit.i = alloca %"class.rocksdb::VersionEdit", align 8
  %ref.tmp142.i = alloca %"class.rocksdb::Slice", align 8
  %db_dir.i = alloca %"class.std::unique_ptr.349", align 8
  %ref.tmp211.i = alloca %"class.rocksdb::IOStatus", align 8
  %ref.tmp216.i = alloca %"struct.rocksdb::IOOptions", align 8
  %ref.tmp226.i = alloca %"class.rocksdb::Status", align 8
  %ref.tmp231.i = alloca %"class.std::function.672", align 8
  %__guard.i.i = alloca %struct._Guard, align 8
  %ref.tmp.i.i.i = alloca %"class.std::__cxx11::basic_string", align 8
  %read_options.i.i = alloca %"struct.rocksdb::ReadOptions", align 8
  %logname.i.i = alloca %"class.std::__cxx11::basic_string", align 8
  %lfile_reader.i.i = alloca %"class.std::unique_ptr.737", align 8
  %ref.tmp.i.i = alloca %"class.rocksdb::IOStatus", align 8
  %ref.tmp4.i.i = alloca %"struct.rocksdb::FileOptions", align 8
  %reporter.i.i = alloca %struct.LogReporter, align 8
  %reader.i.i = alloca %"class.rocksdb::log::Reader", align 8
  %agg.tmp.i.i = alloca %"class.std::shared_ptr.67", align 16
  %scratch.i.i = alloca %"class.std::__cxx11::basic_string", align 8
  %record.i.i = alloca %"class.rocksdb::Slice", align 8
  %batch.i.i = alloca %"class.rocksdb::WriteBatch", align 8
  %ref.tmp53.i.i = alloca %"class.rocksdb::Status", align 8
  %ref.tmp54.i.i = alloca %"class.rocksdb::Slice", align 8
  %ref.tmp56.i.i = alloca %"class.rocksdb::Slice", align 8
  %record_status.i.i = alloca %"class.rocksdb::Status", align 8
  %ref.tmp69.i.i = alloca %"class.rocksdb::Status", align 8
  %ref.tmp75.i.i = alloca %"class.rocksdb::Status", align 8
  %ref.tmp89.i.i = alloca %"class.std::__cxx11::basic_string", align 8
  %meta.i.i = alloca %"struct.rocksdb::FileMetaData", align 8
  %ro.i.i = alloca %"struct.rocksdb::ReadOptions", align 8
  %arena.i.i = alloca %"class.rocksdb::Arena", align 16
  %_current_time.i.i = alloca i64, align 8
  %ref.tmp131.i.i = alloca %"class.rocksdb::Status", align 8
  %range_del_iters.i.i = alloca %"class.std::vector.839", align 8
  %io_s.i.i = alloca %"class.rocksdb::IOStatus", align 8
  %default_compression.i.i = alloca %"struct.rocksdb::CompressionOptions", align 16
  %tboptions.i.i = alloca %"struct.rocksdb::TableBuilderOptions", align 8
  %ref.tmp159.i.i = alloca %"class.std::__cxx11::basic_string", align 8
  %ref.tmp160.i.i = alloca %"class.std::allocator.53", align 1
  %empty_seqno_to_time_mapping.i.i = alloca %"class.rocksdb::SeqnoToTimeMapping", align 8
  %ref.tmp171.i.i = alloca %"class.rocksdb::Status", align 8
  %agg.tmp178.i.i = alloca %"class.std::vector.839", align 8
  %agg.tmp179.i.i = alloca %"class.std::vector.179", align 8
  %ref.tmp180.i.i = alloca %"class.std::shared_ptr.128", align 8
  %ref.tmp193.i.i = alloca %"class.std::__cxx11::basic_string", align 8
  %logname.i = alloca %"class.std::__cxx11::basic_string", align 8
  %status.i = alloca %"class.rocksdb::Status", align 8
  %ref.tmp.i88 = alloca %"class.std::__cxx11::basic_string", align 8
  %filenames.i = alloca %"class.std::vector.155", align 8
  %to_search_paths.i = alloca %"class.std::vector.155", align 8
  %number.i = alloca i64, align 8
  %type.i = alloca i32, align 4
  %ref.tmp.i = alloca i32, align 4
  %ref.tmp53.i = alloca i32, align 4
  %ref.tmp69.i = alloca %"class.rocksdb::Slice", align 8
  %ref.tmp72.i = alloca %"class.rocksdb::Slice", align 8
  %ref.tmp = alloca %"class.std::__cxx11::basic_string", align 8
  %ref.tmp4 = alloca %"class.rocksdb::Status", align 8
  %ref.tmp11 = alloca %"class.std::__cxx11::basic_string", align 8
  %ref.tmp12 = alloca %"class.std::__cxx11::basic_string", align 8
  %ref.tmp27 = alloca %"class.rocksdb::Status", align 8
  %ref.tmp36 = alloca %"class.rocksdb::Status", align 8
  %ref.tmp37 = alloca %"class.std::vector.48", align 8
  %ref.tmp38 = alloca [1 x %"struct.rocksdb::ColumnFamilyDescriptor"], align 8
  %env_ = getelementptr inbounds %"class.rocksdb::(anonymous namespace)::Repairer", ptr %this, i64 0, i32 2
  %0 = load ptr, ptr %env_, align 8
  call void @_ZN7rocksdb12LockFileNameERKNSt7__cxx1112basic_stringIcSt11char_traitsIcESaIcEEE(ptr nonnull sret(%"class.std::__cxx11::basic_string") align 8 %ref.tmp, ptr noundef nonnull align 8 dereferenceable(32) %this)
  %db_lock_ = getelementptr inbounds %"class.rocksdb::(anonymous namespace)::Repairer", ptr %this, i64 0, i32 24
  %vtable = load ptr, ptr %0, align 8
  %vfn = getelementptr inbounds ptr, ptr %vtable, i64 43
  %1 = load ptr, ptr %vfn, align 8
  invoke void %1(ptr sret(%"class.rocksdb::Status") align 8 %agg.result, ptr noundef nonnull align 8 dereferenceable(72) %0, ptr noundef nonnull align 8 dereferenceable(32) %ref.tmp, ptr noundef nonnull %db_lock_)
          to label %invoke.cont3 unwind label %lpad

invoke.cont3:                                     ; preds = %entry
  call void @_ZNSt7__cxx1112basic_stringIcSt11char_traitsIcESaIcEED1Ev(ptr noundef nonnull align 8 dereferenceable(32) %ref.tmp) #21
  %2 = load i8, ptr %agg.result, align 8
  %cmp.i = icmp eq i8 %2, 0
  br i1 %cmp.i, label %if.end, label %nrvo.skipdtor

lpad:                                             ; preds = %entry
  %3 = landingpad { ptr, i32 }
          cleanup
  call void @_ZNSt7__cxx1112basic_stringIcSt11char_traitsIcESaIcEED1Ev(ptr noundef nonnull align 8 dereferenceable(32) %ref.tmp) #21
  br label %eh.resume

lpad2.loopexit:                                   ; preds = %for.body.i96
  %lpad.loopexit = landingpad { ptr, i32 }
          cleanup
  br label %ehcleanup98

lpad2.loopexit.split-lp.loopexit:                 ; preds = %for.body
  %lpad.loopexit263 = landingpad { ptr, i32 }
          cleanup
  br label %ehcleanup98

lpad2.loopexit.split-lp.loopexit.split-lp:        ; preds = %_ZNSt6vectorIN7rocksdb14FileDescriptorESaIS1_EE5clearEv.exit, %for.end88, %invoke.cont68, %if.then66, %invoke.cont25, %for.end
  %lpad.loopexit.split-lp264 = landingpad { ptr, i32 }
          cleanup
  br label %ehcleanup98

if.end:                                           ; preds = %invoke.cont3
  call void @llvm.experimental.noalias.scope.decl(metadata !16)
  call void @llvm.lifetime.start.p0(i64 24, ptr nonnull %filenames.i)
  call void @llvm.lifetime.start.p0(i64 24, ptr nonnull %to_search_paths.i)
  call void @llvm.lifetime.start.p0(i64 8, ptr nonnull %number.i)
  call void @llvm.lifetime.start.p0(i64 4, ptr nonnull %type.i)
  call void @llvm.lifetime.start.p0(i64 4, ptr nonnull %ref.tmp.i)
  call void @llvm.lifetime.start.p0(i64 4, ptr nonnull %ref.tmp53.i)
  call void @llvm.lifetime.start.p0(i64 16, ptr nonnull %ref.tmp69.i)
  call void @llvm.lifetime.start.p0(i64 16, ptr nonnull %ref.tmp72.i)
  call void @llvm.memset.p0.i64(ptr noundef nonnull align 8 dereferenceable(24) %filenames.i, i8 0, i64 24, i1 false), !noalias !16
  call void @llvm.memset.p0.i64(ptr noundef nonnull align 8 dereferenceable(24) %to_search_paths.i, i8 0, i64 24, i1 false), !noalias !16
  %db_paths.i = getelementptr inbounds %"class.rocksdb::(anonymous namespace)::Repairer", ptr %this, i64 0, i32 4, i32 18
  %_M_finish.i.i = getelementptr inbounds %"class.rocksdb::(anonymous namespace)::Repairer", ptr %this, i64 0, i32 4, i32 18, i32 0, i32 0, i32 0, i32 1
  %4 = load ptr, ptr %_M_finish.i.i, align 8, !noalias !16
  %5 = load ptr, ptr %db_paths.i, align 8, !noalias !16
  %cmp105.not.i = icmp eq ptr %4, %5
  br i1 %cmp105.not.i, label %for.end.i, label %for.body.lr.ph.i

for.body.lr.ph.i:                                 ; preds = %if.end
  %_M_finish.i11.i = getelementptr inbounds %"struct.std::_Vector_base<std::__cxx11::basic_string<char>, std::allocator<std::__cxx11::basic_string<char>>>::_Vector_impl_data", ptr %to_search_paths.i, i64 0, i32 1
  %_M_end_of_storage.i.i = getelementptr inbounds %"struct.std::_Vector_base<std::__cxx11::basic_string<char>, std::allocator<std::__cxx11::basic_string<char>>>::_Vector_impl_data", ptr %to_search_paths.i, i64 0, i32 2
  br label %for.body.i

for.body.i:                                       ; preds = %for.inc.i, %for.body.lr.ph.i
  %6 = phi ptr [ %5, %for.body.lr.ph.i ], [ %11, %for.inc.i ]
  %path_id.0106.i = phi i64 [ 0, %for.body.lr.ph.i ], [ %inc.i, %for.inc.i ]
  %add.ptr.i.i = getelementptr inbounds %"struct.rocksdb::DbPath", ptr %6, i64 %path_id.0106.i
  %7 = load ptr, ptr %_M_finish.i11.i, align 8, !noalias !16
  %8 = load ptr, ptr %_M_end_of_storage.i.i, align 8, !noalias !16
  %cmp.not.i.i = icmp eq ptr %7, %8
  br i1 %cmp.not.i.i, label %if.else.i.i, label %if.then.i.i

if.then.i.i:                                      ; preds = %for.body.i
  invoke void @_ZNSt7__cxx1112basic_stringIcSt11char_traitsIcESaIcEEC1ERKS4_(ptr noundef nonnull align 8 dereferenceable(32) %7, ptr noundef nonnull align 8 dereferenceable(32) %add.ptr.i.i)
          to label %.noexc.i unwind label %lpad.loopexit.split-lp85.loopexit.i

.noexc.i:                                         ; preds = %if.then.i.i
  %9 = load ptr, ptr %_M_finish.i11.i, align 8, !noalias !16
  %incdec.ptr.i.i = getelementptr inbounds %"class.std::__cxx11::basic_string", ptr %9, i64 1
  store ptr %incdec.ptr.i.i, ptr %_M_finish.i11.i, align 8, !noalias !16
  br label %for.inc.i

if.else.i.i:                                      ; preds = %for.body.i
  invoke void @_ZNSt6vectorINSt7__cxx1112basic_stringIcSt11char_traitsIcESaIcEEESaIS5_EE17_M_realloc_insertIJRKS5_EEEvN9__gnu_cxx17__normal_iteratorIPS5_S7_EEDpOT_(ptr noundef nonnull align 8 dereferenceable(24) %to_search_paths.i, ptr %7, ptr noundef nonnull align 8 dereferenceable(32) %add.ptr.i.i)
          to label %for.inc.i unwind label %lpad.loopexit.split-lp85.loopexit.i

for.inc.i:                                        ; preds = %if.else.i.i, %.noexc.i
  %inc.i = add nuw i64 %path_id.0106.i, 1
  %10 = load ptr, ptr %_M_finish.i.i, align 8, !noalias !16
  %11 = load ptr, ptr %db_paths.i, align 8, !noalias !16
  %sub.ptr.lhs.cast.i.i = ptrtoint ptr %10 to i64
  %sub.ptr.rhs.cast.i.i = ptrtoint ptr %11 to i64
  %sub.ptr.sub.i.i = sub i64 %sub.ptr.lhs.cast.i.i, %sub.ptr.rhs.cast.i.i
  %sub.ptr.div.i.i = sdiv exact i64 %sub.ptr.sub.i.i, 40
  %cmp.i16 = icmp ult i64 %inc.i, %sub.ptr.div.i.i
  br i1 %cmp.i16, label %for.body.i, label %for.end.i, !llvm.loop !19

lpad.loopexit84.i:                                ; preds = %invoke.cont19.i, %for.body13.i
  %lpad.loopexit86.i = landingpad { ptr, i32 }
          cleanup
  br label %ehcleanup.i

lpad.loopexit.split-lp85.loopexit.i:              ; preds = %if.else.i.i, %if.then.i.i
  %lpad.loopexit89.i = landingpad { ptr, i32 }
          cleanup
  br label %ehcleanup.i

lpad.loopexit.split-lp85.loopexit.split-lp.i:     ; preds = %if.then68.i, %if.else.i18.i, %if.then.i16.i, %for.end.i
  %lpad.loopexit.split-lp90.i = landingpad { ptr, i32 }
          cleanup
  br label %ehcleanup.i

for.end.i:                                        ; preds = %for.inc.i, %if.end
  %immutable_db_options_.i = getelementptr inbounds %"class.rocksdb::(anonymous namespace)::Repairer", ptr %this, i64 0, i32 5
  %call6.i = invoke noundef zeroext i1 @_ZNK7rocksdb18ImmutableDBOptions20IsWalDirSameAsDBPathERKNSt7__cxx1112basic_stringIcSt11char_traitsIcESaIcEEE(ptr noundef nonnull align 8 dereferenceable(569) %immutable_db_options_.i, ptr noundef nonnull align 8 dereferenceable(32) %this)
          to label %invoke.cont5.i unwind label %lpad.loopexit.split-lp85.loopexit.split-lp.i

invoke.cont5.i:                                   ; preds = %for.end.i
  br i1 %call6.i, label %if.end.i, label %if.then.i

if.then.i:                                        ; preds = %invoke.cont5.i
  %wal_dir.i = getelementptr inbounds %"class.rocksdb::(anonymous namespace)::Repairer", ptr %this, i64 0, i32 5, i32 20
  %_M_finish.i13.i = getelementptr inbounds %"struct.std::_Vector_base<std::__cxx11::basic_string<char>, std::allocator<std::__cxx11::basic_string<char>>>::_Vector_impl_data", ptr %to_search_paths.i, i64 0, i32 1
  %12 = load ptr, ptr %_M_finish.i13.i, align 8, !noalias !16
  %_M_end_of_storage.i14.i = getelementptr inbounds %"struct.std::_Vector_base<std::__cxx11::basic_string<char>, std::allocator<std::__cxx11::basic_string<char>>>::_Vector_impl_data", ptr %to_search_paths.i, i64 0, i32 2
  %13 = load ptr, ptr %_M_end_of_storage.i14.i, align 8, !noalias !16
  %cmp.not.i15.i = icmp eq ptr %12, %13
  br i1 %cmp.not.i15.i, label %if.else.i18.i, label %if.then.i16.i

if.then.i16.i:                                    ; preds = %if.then.i
  invoke void @_ZNSt7__cxx1112basic_stringIcSt11char_traitsIcESaIcEEC1ERKS4_(ptr noundef nonnull align 8 dereferenceable(32) %12, ptr noundef nonnull align 8 dereferenceable(32) %wal_dir.i)
          to label %.noexc19.i unwind label %lpad.loopexit.split-lp85.loopexit.split-lp.i

.noexc19.i:                                       ; preds = %if.then.i16.i
  %14 = load ptr, ptr %_M_finish.i13.i, align 8, !noalias !16
  %incdec.ptr.i17.i = getelementptr inbounds %"class.std::__cxx11::basic_string", ptr %14, i64 1
  store ptr %incdec.ptr.i17.i, ptr %_M_finish.i13.i, align 8, !noalias !16
  br label %if.end.i

if.else.i18.i:                                    ; preds = %if.then.i
  invoke void @_ZNSt6vectorINSt7__cxx1112basic_stringIcSt11char_traitsIcESaIcEEESaIS5_EE17_M_realloc_insertIJRKS5_EEEvN9__gnu_cxx17__normal_iteratorIPS5_S7_EEDpOT_(ptr noundef nonnull align 8 dereferenceable(24) %to_search_paths.i, ptr %12, ptr noundef nonnull align 8 dereferenceable(32) %wal_dir.i)
          to label %if.end.i unwind label %lpad.loopexit.split-lp85.loopexit.split-lp.i

if.end.i:                                         ; preds = %if.else.i18.i, %.noexc19.i, %invoke.cont5.i
  %_M_finish.i22.i = getelementptr inbounds %"struct.std::_Vector_base<std::__cxx11::basic_string<char>, std::allocator<std::__cxx11::basic_string<char>>>::_Vector_impl_data", ptr %to_search_paths.i, i64 0, i32 1
  %15 = load ptr, ptr %_M_finish.i22.i, align 8, !noalias !16
  %16 = load ptr, ptr %to_search_paths.i, align 8, !noalias !16
  %cmp12118.not.i = icmp eq ptr %15, %16
  br i1 %cmp12118.not.i, label %if.then68.i, label %for.body13.lr.ph.i

for.body13.lr.ph.i:                               ; preds = %if.end.i
  %info_log.i = getelementptr inbounds %"class.rocksdb::(anonymous namespace)::Repairer", ptr %this, i64 0, i32 4, i32 11
  %_M_finish.i.i.i = getelementptr inbounds %"struct.std::_Vector_base<std::__cxx11::basic_string<char>, std::allocator<std::__cxx11::basic_string<char>>>::_Vector_impl_data", ptr %filenames.i, i64 0, i32 1
  %next_file_number_.i = getelementptr inbounds %"class.rocksdb::(anonymous namespace)::Repairer", ptr %this, i64 0, i32 23
  %_M_finish.i53.i = getelementptr inbounds %"class.rocksdb::(anonymous namespace)::Repairer", ptr %this, i64 0, i32 20, i32 0, i32 0, i32 0, i32 1
  %_M_end_of_storage.i54.i = getelementptr inbounds %"class.rocksdb::(anonymous namespace)::Repairer", ptr %this, i64 0, i32 20, i32 0, i32 0, i32 0, i32 2
  %table_fds_.i = getelementptr inbounds %"class.rocksdb::(anonymous namespace)::Repairer", ptr %this, i64 0, i32 20
  %logs_.i = getelementptr inbounds %"class.rocksdb::(anonymous namespace)::Repairer", ptr %this, i64 0, i32 21
  %_M_finish.i45.i = getelementptr inbounds %"class.rocksdb::(anonymous namespace)::Repairer", ptr %this, i64 0, i32 21, i32 0, i32 0, i32 0, i32 1
  %_M_end_of_storage.i46.i = getelementptr inbounds %"class.rocksdb::(anonymous namespace)::Repairer", ptr %this, i64 0, i32 21, i32 0, i32 0, i32 0, i32 2
  %_M_finish.i36.i = getelementptr inbounds %"class.rocksdb::(anonymous namespace)::Repairer", ptr %this, i64 0, i32 19, i32 0, i32 0, i32 0, i32 1
  %_M_end_of_storage.i37.i = getelementptr inbounds %"class.rocksdb::(anonymous namespace)::Repairer", ptr %this, i64 0, i32 19, i32 0, i32 0, i32 0, i32 2
  %manifests_.i = getelementptr inbounds %"class.rocksdb::(anonymous namespace)::Repairer", ptr %this, i64 0, i32 19
  %state_.i61.i = getelementptr inbounds %"class.rocksdb::Status", ptr %ref.tmp4, i64 0, i32 6
  br label %for.body13.i

for.body13.i:                                     ; preds = %_ZN7rocksdb6StatusD2Ev.exit64.i, %for.body13.lr.ph.i
  %17 = phi ptr [ %16, %for.body13.lr.ph.i ], [ %44, %_ZN7rocksdb6StatusD2Ev.exit64.i ]
  %path_id9.0120.i = phi i64 [ 0, %for.body13.lr.ph.i ], [ %inc65.i, %_ZN7rocksdb6StatusD2Ev.exit64.i ]
  %found_file.0119.i = phi i8 [ 0, %for.body13.lr.ph.i ], [ %spec.select.i, %_ZN7rocksdb6StatusD2Ev.exit64.i ]
  %add.ptr.i27.i = getelementptr inbounds %"class.std::__cxx11::basic_string", ptr %17, i64 %path_id9.0120.i
  %call18.i = call noundef ptr @_ZNKSt7__cxx1112basic_stringIcSt11char_traitsIcESaIcEE5c_strEv(ptr noundef nonnull align 8 dereferenceable(32) %add.ptr.i27.i) #21
  invoke void (i8, ptr, ptr, ...) @_ZN7rocksdb3LogENS_12InfoLogLevelERKSt10shared_ptrINS_6LoggerEEPKcz(i8 noundef zeroext 1, ptr noundef nonnull align 8 dereferenceable(16) %info_log.i, ptr noundef nonnull @.str.7, ptr noundef nonnull getelementptr inbounds ([106 x i8], ptr @.str.6, i64 0, i64 93), ptr noundef %call18.i)
          to label %invoke.cont19.i unwind label %lpad.loopexit84.i

invoke.cont19.i:                                  ; preds = %for.body13.i
  %18 = load ptr, ptr %env_, align 8, !noalias !16
  %19 = load ptr, ptr %to_search_paths.i, align 8, !noalias !16
  %add.ptr.i28.i = getelementptr inbounds %"class.std::__cxx11::basic_string", ptr %19, i64 %path_id9.0120.i
  %vtable.i = load ptr, ptr %18, align 8
  %vfn.i = getelementptr inbounds ptr, ptr %vtable.i, i64 30
  %20 = load ptr, ptr %vfn.i, align 8
  invoke void %20(ptr nonnull sret(%"class.rocksdb::Status") align 8 %ref.tmp4, ptr noundef nonnull align 8 dereferenceable(72) %18, ptr noundef nonnull align 8 dereferenceable(32) %add.ptr.i28.i, ptr noundef nonnull %filenames.i)
          to label %invoke.cont23.i unwind label %lpad.loopexit84.i

invoke.cont23.i:                                  ; preds = %invoke.cont19.i
  %21 = load i8, ptr %ref.tmp4, align 8, !alias.scope !16
  %cmp.i.i = icmp eq i8 %21, 0
  br i1 %cmp.i.i, label %if.end26.i, label %cleanup77.i

lpad22.loopexit.i:                                ; preds = %if.else.i58.i, %if.then.i56.i, %_ZNSt16allocator_traitsISaImEE8allocateERS0_m.exit.i.i.i.i, %if.else.i41.i, %if.then.i39.i, %for.body33.i
  %lpad.loopexit.i = landingpad { ptr, i32 }
          cleanup
  br label %lpad22.i

lpad22.loopexit.split-lp.i:                       ; preds = %if.then.i.i.i.i
  %lpad.loopexit.split-lp.i = landingpad { ptr, i32 }
          cleanup
  br label %lpad22.i

lpad22.i:                                         ; preds = %lpad22.loopexit.split-lp.i, %lpad22.loopexit.i
  %lpad.phi.i = phi { ptr, i32 } [ %lpad.loopexit.i, %lpad22.loopexit.i ], [ %lpad.loopexit.split-lp.i, %lpad22.loopexit.split-lp.i ]
  %22 = load ptr, ptr %state_.i61.i, align 8, !alias.scope !16
  %cmp.not.i.i.i = icmp eq ptr %22, null
  br i1 %cmp.not.i.i.i, label %_ZN7rocksdb6StatusD2Ev.exit.i, label %_ZNKSt14default_deleteIA_KcEclIS0_EENSt9enable_ifIXsr14is_convertibleIPA_T_PS1_EE5valueEvE4typeEPS5_.exit.i.i.i

_ZNKSt14default_deleteIA_KcEclIS0_EENSt9enable_ifIXsr14is_convertibleIPA_T_PS1_EE5valueEvE4typeEPS5_.exit.i.i.i: ; preds = %lpad22.i
  call void @_ZdaPv(ptr noundef nonnull %22) #20
  br label %_ZN7rocksdb6StatusD2Ev.exit.i

_ZN7rocksdb6StatusD2Ev.exit.i:                    ; preds = %_ZNKSt14default_deleteIA_KcEclIS0_EENSt9enable_ifIXsr14is_convertibleIPA_T_PS1_EE5valueEvE4typeEPS5_.exit.i.i.i, %lpad22.i
  store ptr null, ptr %state_.i61.i, align 8, !alias.scope !16
  br label %ehcleanup.i

if.end26.i:                                       ; preds = %invoke.cont23.i
  %23 = load ptr, ptr %filenames.i, align 8, !noalias !16
  %24 = load ptr, ptr %_M_finish.i.i.i, align 8, !noalias !16
  %cmp.i.i.i = icmp eq ptr %23, %24
  %spec.select.i = select i1 %cmp.i.i.i, i8 %found_file.0119.i, i8 1
  br i1 %cmp.i.i.i, label %cleanup.i, label %for.body33.lr.ph.i

for.body33.lr.ph.i:                               ; preds = %if.end26.i
  %conv.i = trunc i64 %path_id9.0120.i to i32
  %conv.i.i.i.i.i.i = and i64 %path_id9.0120.i, 4294967295
  br label %for.body33.i

for.body33.i:                                     ; preds = %for.inc61.i, %for.body33.lr.ph.i
  %25 = phi ptr [ %23, %for.body33.lr.ph.i ], [ %41, %for.inc61.i ]
  %i.0112.i = phi i64 [ 0, %for.body33.lr.ph.i ], [ %inc62.i, %for.inc61.i ]
  %add.ptr.i34.i = getelementptr inbounds %"class.std::__cxx11::basic_string", ptr %25, i64 %i.0112.i
  %call36.i = invoke noundef zeroext i1 @_ZN7rocksdb13ParseFileNameERKNSt7__cxx1112basic_stringIcSt11char_traitsIcESaIcEEEPmPNS_8FileTypeEPNS_11WalFileTypeE(ptr noundef nonnull align 8 dereferenceable(32) %add.ptr.i34.i, ptr noundef nonnull %number.i, ptr noundef nonnull %type.i, ptr noundef null)
          to label %invoke.cont35.i unwind label %lpad22.loopexit.i

invoke.cont35.i:                                  ; preds = %for.body33.i
  br i1 %call36.i, label %if.then37.i, label %for.inc61.i

if.then37.i:                                      ; preds = %invoke.cont35.i
  %26 = load i32, ptr %type.i, align 4, !noalias !16
  %cmp38.i = icmp eq i32 %26, 3
  br i1 %cmp38.i, label %if.then39.i, label %if.else.i

if.then39.i:                                      ; preds = %if.then37.i
  %27 = load ptr, ptr %filenames.i, align 8, !noalias !16
  %add.ptr.i35.i = getelementptr inbounds %"class.std::__cxx11::basic_string", ptr %27, i64 %i.0112.i
  %28 = load ptr, ptr %_M_finish.i36.i, align 8, !noalias !16
  %29 = load ptr, ptr %_M_end_of_storage.i37.i, align 8, !noalias !16
  %cmp.not.i38.i = icmp eq ptr %28, %29
  br i1 %cmp.not.i38.i, label %if.else.i41.i, label %if.then.i39.i

if.then.i39.i:                                    ; preds = %if.then39.i
  invoke void @_ZNSt7__cxx1112basic_stringIcSt11char_traitsIcESaIcEEC1ERKS4_(ptr noundef nonnull align 8 dereferenceable(32) %28, ptr noundef nonnull align 8 dereferenceable(32) %add.ptr.i35.i)
          to label %.noexc42.i unwind label %lpad22.loopexit.i

.noexc42.i:                                       ; preds = %if.then.i39.i
  %30 = load ptr, ptr %_M_finish.i36.i, align 8, !noalias !16
  %incdec.ptr.i40.i = getelementptr inbounds %"class.std::__cxx11::basic_string", ptr %30, i64 1
  store ptr %incdec.ptr.i40.i, ptr %_M_finish.i36.i, align 8, !noalias !16
  br label %for.inc61.i

if.else.i41.i:                                    ; preds = %if.then39.i
  invoke void @_ZNSt6vectorINSt7__cxx1112basic_stringIcSt11char_traitsIcESaIcEEESaIS5_EE17_M_realloc_insertIJRKS5_EEEvN9__gnu_cxx17__normal_iteratorIPS5_S7_EEDpOT_(ptr noundef nonnull align 8 dereferenceable(24) %manifests_.i, ptr %28, ptr noundef nonnull align 8 dereferenceable(32) %add.ptr.i35.i)
          to label %for.inc61.i unwind label %lpad22.loopexit.i

if.else.i:                                        ; preds = %if.then37.i
  %31 = load i64, ptr %number.i, align 8, !noalias !16
  %add.i = add i64 %31, 1
  %32 = load i64, ptr %next_file_number_.i, align 8, !noalias !16
  %cmp42.i = icmp ugt i64 %add.i, %32
  br i1 %cmp42.i, label %if.then43.i, label %if.end46.i

if.then43.i:                                      ; preds = %if.else.i
  store i64 %add.i, ptr %next_file_number_.i, align 8, !noalias !16
  br label %if.end46.i

