target datalayout = "e-m:e-p270:32:32-p271:32:32-p272:64:64-i64:64-i128:128-f80:128-n8:16:32:64-S128"
target triple = "x86_64-unknown-linux-gnu"

%"class.std::__cxx11::basic_string" = type { %"struct.std::__cxx11::basic_string<char>::_Alloc_hider", i64, %union.anon }
%"struct.std::__cxx11::basic_string<char>::_Alloc_hider" = type { ptr }
%union.anon = type { i64, [8 x i8] }
%"class.std::allocator" = type { i8 }
%"struct.tinyobj::texture_option_t" = type { i32, float, float, float, [3 x float], [3 x float], [3 x float], i32, i8, i8, i8, i8, float, %"class.std::__cxx11::basic_string" }
%"struct.tinyobj::material_t" = type { %"class.std::__cxx11::basic_string", [3 x float], [3 x float], [3 x float], [3 x float], [3 x float], float, float, float, i32, i32, %"class.std::__cxx11::basic_string", %"class.std::__cxx11::basic_string", %"class.std::__cxx11::basic_string", %"class.std::__cxx11::basic_string", %"class.std::__cxx11::basic_string", %"class.std::__cxx11::basic_string", %"class.std::__cxx11::basic_string", %"class.std::__cxx11::basic_string", %"struct.tinyobj::texture_option_t", %"struct.tinyobj::texture_option_t", %"struct.tinyobj::texture_option_t", %"struct.tinyobj::texture_option_t", %"struct.tinyobj::texture_option_t", %"struct.tinyobj::texture_option_t", %"struct.tinyobj::texture_option_t", %"struct.tinyobj::texture_option_t", float, float, float, float, float, float, float, float, %"class.std::__cxx11::basic_string", %"class.std::__cxx11::basic_string", %"class.std::__cxx11::basic_string", %"class.std::__cxx11::basic_string", %"class.std::__cxx11::basic_string", %"struct.tinyobj::texture_option_t", %"struct.tinyobj::texture_option_t", %"struct.tinyobj::texture_option_t", %"struct.tinyobj::texture_option_t", %"struct.tinyobj::texture_option_t", i32, %"class.std::map" }
%"class.std::map" = type { %"class.std::_Rb_tree" }
%"class.std::_Rb_tree" = type { %"struct.std::_Rb_tree<std::__cxx11::basic_string<char>, std::pair<const std::__cxx11::basic_string<char>, std::__cxx11::basic_string<char>>, std::_Select1st<std::pair<const std::__cxx11::basic_string<char>, std::__cxx11::basic_string<char>>>, std::less<std::__cxx11::basic_string<char>>>::_Rb_tree_impl" }
%"struct.std::_Rb_tree<std::__cxx11::basic_string<char>, std::pair<const std::__cxx11::basic_string<char>, std::__cxx11::basic_string<char>>, std::_Select1st<std::pair<const std::__cxx11::basic_string<char>, std::__cxx11::basic_string<char>>>, std::less<std::__cxx11::basic_string<char>>>::_Rb_tree_impl" = type { %"struct.std::_Rb_tree_key_compare", %"struct.std::_Rb_tree_header" }
%"struct.std::_Rb_tree_key_compare" = type { %"struct.std::less" }
%"struct.std::less" = type { i8 }
%"struct.std::_Rb_tree_header" = type { %"struct.std::_Rb_tree_node_base", i64 }
%"struct.std::_Rb_tree_node_base" = type { i32, ptr, ptr, ptr }
%"class.std::__cxx11::basic_stringstream" = type { %"class.std::basic_iostream.base", %"class.std::__cxx11::basic_stringbuf", %"class.std::basic_ios" }
%"class.std::basic_iostream.base" = type { %"class.std::basic_istream.base", %"class.std::basic_ostream.base" }
%"class.std::basic_istream.base" = type { ptr, i64 }
%"class.std::basic_ostream.base" = type { ptr }
%"class.std::__cxx11::basic_stringbuf" = type { %"class.std::basic_streambuf", i32, %"class.std::__cxx11::basic_string" }
%"class.std::basic_streambuf" = type { ptr, ptr, ptr, ptr, ptr, ptr, ptr, %"class.std::locale" }
%"class.std::locale" = type { ptr }
%"class.std::basic_ios" = type { %"class.std::ios_base", ptr, i8, i8, ptr, ptr, ptr, ptr }
%"class.std::ios_base" = type { ptr, i64, i64, i32, i32, i32, ptr, %"struct.std::ios_base::_Words", [8 x %"struct.std::ios_base::_Words"], i32, ptr, %"class.std::locale" }
%"struct.std::ios_base::_Words" = type { ptr, i64 }
%"struct.std::pair.8" = type <{ %"class.std::__cxx11::basic_string", i32, [4 x i8] }>
%"struct.std::pair" = type <{ %"struct.std::_Rb_tree_iterator", i8, [7 x i8] }>
%"struct.std::_Rb_tree_iterator" = type { ptr }
%"struct.std::pair.18" = type { %"class.std::__cxx11::basic_string", %"class.std::__cxx11::basic_string" }
%"struct.std::pair.14" = type <{ %"struct.std::_Rb_tree_iterator.16", i8, [7 x i8] }>
%"struct.std::_Rb_tree_iterator.16" = type { ptr }
%"class.std::basic_istream<char>::sentry" = type { i8 }
%"struct.std::_Rb_tree_const_iterator" = type { ptr }
%"struct.std::pair.95" = type <{ %"class.std::__cxx11::basic_string", i32, [4 x i8] }>
%"struct.std::_Vector_base" = type { %"struct.std::_Vector_base<tinyobj::material_t, std::allocator<tinyobj::material_t>>::_Vector_impl" }
%"struct.std::_Vector_base<tinyobj::material_t, std::allocator<tinyobj::material_t>>::_Vector_impl" = type { %"struct.std::_Vector_base<tinyobj::material_t, std::allocator<tinyobj::material_t>>::_Vector_impl_data" }
%"struct.std::_Vector_base<tinyobj::material_t, std::allocator<tinyobj::material_t>>::_Vector_impl_data" = type { ptr, ptr, ptr }
%"class.__gnu_cxx::__normal_iterator.130" = type { ptr }
%"struct.std::_Rb_tree_const_iterator.131" = type { ptr }
%"struct.std::pair.107" = type { %"class.std::__cxx11::basic_string", %"class.std::__cxx11::basic_string" }
%"class.std::vector.20" = type { %"struct.std::_Vector_base.21" }
%"struct.std::_Vector_base.21" = type { %"struct.std::_Vector_base<std::__cxx11::basic_string<char>, std::allocator<std::__cxx11::basic_string<char>>>::_Vector_impl" }
%"struct.std::_Vector_base<std::__cxx11::basic_string<char>, std::allocator<std::__cxx11::basic_string<char>>>::_Vector_impl" = type { %"struct.std::_Vector_base<std::__cxx11::basic_string<char>, std::allocator<std::__cxx11::basic_string<char>>>::_Vector_impl_data" }
%"struct.std::_Vector_base<std::__cxx11::basic_string<char>, std::allocator<std::__cxx11::basic_string<char>>>::_Vector_impl_data" = type { ptr, ptr, ptr }
%"class.std::__cxx11::basic_istringstream" = type { %"class.std::basic_istream.base", %"class.std::__cxx11::basic_stringbuf", %"class.std::basic_ios" }
%"class.std::basic_ifstream" = type { %"class.std::basic_istream.base", %"class.std::basic_filebuf", %"class.std::basic_ios" }
%"class.std::basic_filebuf" = type { %"class.std::basic_streambuf", %union.pthread_mutex_t, %"class.std::__basic_file", i32, %struct.__mbstate_t, %struct.__mbstate_t, %struct.__mbstate_t, ptr, i64, i8, i8, i8, i8, ptr, ptr, i8, ptr, ptr, i64, ptr, ptr }
%union.pthread_mutex_t = type { %struct.__pthread_mutex_s }
%struct.__pthread_mutex_s = type { i32, i32, i32, i32, i32, i16, i16, %struct.__pthread_internal_list }
%struct.__pthread_internal_list = type { ptr, ptr }
%"class.std::__basic_file" = type <{ ptr, i8, [7 x i8] }>
%struct.__mbstate_t = type { i32, %union.anon.25 }
%union.anon.25 = type { i32 }
%"class.tinyobj::MaterialFileReader" = type { %"class.tinyobj::MaterialReader", %"class.std::__cxx11::basic_string" }
%"class.tinyobj::MaterialReader" = type { ptr }
%"class.__gnu_cxx::__normal_iterator.120" = type { ptr }
%"class.std::reverse_iterator" = type { %"class.__gnu_cxx::__normal_iterator" }
%"class.__gnu_cxx::__normal_iterator" = type { ptr }
%"class.tinyobj::MaterialStreamReader" = type { %"class.tinyobj::MaterialReader", ptr }
%"struct.tinyobj::attrib_t" = type { %"class.std::vector.26", %"class.std::vector.26", %"class.std::vector.26", %"class.std::vector.26", %"class.std::vector.26", %"class.std::vector.26", %"class.std::vector.31" }
%"class.std::vector.26" = type { %"struct.std::_Vector_base.27" }
%"struct.std::_Vector_base.27" = type { %"struct.std::_Vector_base<float, std::allocator<float>>::_Vector_impl" }
%"struct.std::_Vector_base<float, std::allocator<float>>::_Vector_impl" = type { %"struct.std::_Vector_base<float, std::allocator<float>>::_Vector_impl_data" }
%"struct.std::_Vector_base<float, std::allocator<float>>::_Vector_impl_data" = type { ptr, ptr, ptr }
%"class.std::vector.31" = type { %"struct.std::_Vector_base.32" }
%"struct.std::_Vector_base.32" = type { %"struct.std::_Vector_base<tinyobj::skin_weight_t, std::allocator<tinyobj::skin_weight_t>>::_Vector_impl" }
%"struct.std::_Vector_base<tinyobj::skin_weight_t, std::allocator<tinyobj::skin_weight_t>>::_Vector_impl" = type { %"struct.std::_Vector_base<tinyobj::skin_weight_t, std::allocator<tinyobj::skin_weight_t>>::_Vector_impl_data" }
%"struct.std::_Vector_base<tinyobj::skin_weight_t, std::allocator<tinyobj::skin_weight_t>>::_Vector_impl_data" = type { ptr, ptr, ptr }
%"struct.std::_Vector_base.37" = type { %"struct.std::_Vector_base<tinyobj::shape_t, std::allocator<tinyobj::shape_t>>::_Vector_impl" }
%"struct.std::_Vector_base<tinyobj::shape_t, std::allocator<tinyobj::shape_t>>::_Vector_impl" = type { %"struct.std::_Vector_base<tinyobj::shape_t, std::allocator<tinyobj::shape_t>>::_Vector_impl_data" }
%"struct.std::_Vector_base<tinyobj::shape_t, std::allocator<tinyobj::shape_t>>::_Vector_impl_data" = type { ptr, ptr, ptr }
%"class.std::vector.41" = type { %"struct.std::_Vector_base.42" }
%"struct.std::_Vector_base.42" = type { %"struct.std::_Vector_base<tinyobj::tag_t, std::allocator<tinyobj::tag_t>>::_Vector_impl" }
%"struct.std::_Vector_base<tinyobj::tag_t, std::allocator<tinyobj::tag_t>>::_Vector_impl" = type { %"struct.std::_Vector_base<tinyobj::tag_t, std::allocator<tinyobj::tag_t>>::_Vector_impl_data" }
%"struct.std::_Vector_base<tinyobj::tag_t, std::allocator<tinyobj::tag_t>>::_Vector_impl_data" = type { ptr, ptr, ptr }
%"struct.tinyobj::PrimGroup" = type { %"class.std::vector.46", %"class.std::vector.51", %"class.std::vector.56" }
%"class.std::vector.46" = type { %"struct.std::_Vector_base.47" }
%"struct.std::_Vector_base.47" = type { %"struct.std::_Vector_base<tinyobj::face_t, std::allocator<tinyobj::face_t>>::_Vector_impl" }
%"struct.std::_Vector_base<tinyobj::face_t, std::allocator<tinyobj::face_t>>::_Vector_impl" = type { %"struct.std::_Vector_base<tinyobj::face_t, std::allocator<tinyobj::face_t>>::_Vector_impl_data" }
%"struct.std::_Vector_base<tinyobj::face_t, std::allocator<tinyobj::face_t>>::_Vector_impl_data" = type { ptr, ptr, ptr }
%"class.std::vector.51" = type { %"struct.std::_Vector_base.52" }
%"struct.std::_Vector_base.52" = type { %"struct.std::_Vector_base<tinyobj::__line_t, std::allocator<tinyobj::__line_t>>::_Vector_impl" }
%"struct.std::_Vector_base<tinyobj::__line_t, std::allocator<tinyobj::__line_t>>::_Vector_impl" = type { %"struct.std::_Vector_base<tinyobj::__line_t, std::allocator<tinyobj::__line_t>>::_Vector_impl_data" }
%"struct.std::_Vector_base<tinyobj::__line_t, std::allocator<tinyobj::__line_t>>::_Vector_impl_data" = type { ptr, ptr, ptr }
%"class.std::vector.56" = type { %"struct.std::_Vector_base.57" }
%"struct.std::_Vector_base.57" = type { %"struct.std::_Vector_base<tinyobj::__points_t, std::allocator<tinyobj::__points_t>>::_Vector_impl" }
%"struct.std::_Vector_base<tinyobj::__points_t, std::allocator<tinyobj::__points_t>>::_Vector_impl" = type { %"struct.std::_Vector_base<tinyobj::__points_t, std::allocator<tinyobj::__points_t>>::_Vector_impl_data" }
%"struct.std::_Vector_base<tinyobj::__points_t, std::allocator<tinyobj::__points_t>>::_Vector_impl_data" = type { ptr, ptr, ptr }
%"class.std::set" = type { %"class.std::_Rb_tree.61" }
%"class.std::_Rb_tree.61" = type { %"struct.std::_Rb_tree<std::__cxx11::basic_string<char>, std::__cxx11::basic_string<char>, std::_Identity<std::__cxx11::basic_string<char>>, std::less<std::__cxx11::basic_string<char>>>::_Rb_tree_impl" }
%"struct.std::_Rb_tree<std::__cxx11::basic_string<char>, std::__cxx11::basic_string<char>, std::_Identity<std::__cxx11::basic_string<char>>, std::less<std::__cxx11::basic_string<char>>>::_Rb_tree_impl" = type { %"struct.std::_Rb_tree_key_compare", %"struct.std::_Rb_tree_header" }
%"class.std::map.3" = type { %"class.std::_Rb_tree.4" }
%"class.std::_Rb_tree.4" = type { %"struct.std::_Rb_tree<std::__cxx11::basic_string<char>, std::pair<const std::__cxx11::basic_string<char>, int>, std::_Select1st<std::pair<const std::__cxx11::basic_string<char>, int>>, std::less<std::__cxx11::basic_string<char>>>::_Rb_tree_impl" }
%"struct.std::_Rb_tree<std::__cxx11::basic_string<char>, std::pair<const std::__cxx11::basic_string<char>, int>, std::_Select1st<std::pair<const std::__cxx11::basic_string<char>, int>>, std::less<std::__cxx11::basic_string<char>>>::_Rb_tree_impl" = type { %"struct.std::_Rb_tree_key_compare", %"struct.std::_Rb_tree_header" }
%"struct.tinyobj::shape_t" = type { %"class.std::__cxx11::basic_string", %"struct.tinyobj::mesh_t", %"struct.tinyobj::lines_t", %"struct.tinyobj::points_t" }
%"struct.tinyobj::mesh_t" = type { %"class.std::vector.65", %"class.std::vector.70", %"class.std::vector.75", %"class.std::vector.80", %"class.std::vector.41" }
%"class.std::vector.65" = type { %"struct.std::_Vector_base.66" }
%"struct.std::_Vector_base.66" = type { %"struct.std::_Vector_base<tinyobj::index_t, std::allocator<tinyobj::index_t>>::_Vector_impl" }
%"struct.std::_Vector_base<tinyobj::index_t, std::allocator<tinyobj::index_t>>::_Vector_impl" = type { %"struct.std::_Vector_base<tinyobj::index_t, std::allocator<tinyobj::index_t>>::_Vector_impl_data" }
%"struct.std::_Vector_base<tinyobj::index_t, std::allocator<tinyobj::index_t>>::_Vector_impl_data" = type { ptr, ptr, ptr }
%"class.std::vector.70" = type { %"struct.std::_Vector_base.71" }
%"struct.std::_Vector_base.71" = type { %"struct.std::_Vector_base<unsigned char, std::allocator<unsigned char>>::_Vector_impl" }
%"struct.std::_Vector_base<unsigned char, std::allocator<unsigned char>>::_Vector_impl" = type { %"struct.std::_Vector_base<unsigned char, std::allocator<unsigned char>>::_Vector_impl_data" }
%"struct.std::_Vector_base<unsigned char, std::allocator<unsigned char>>::_Vector_impl_data" = type { ptr, ptr, ptr }
%"class.std::vector.75" = type { %"struct.std::_Vector_base.76" }
%"struct.std::_Vector_base.76" = type { %"struct.std::_Vector_base<int, std::allocator<int>>::_Vector_impl" }
%"struct.std::_Vector_base<int, std::allocator<int>>::_Vector_impl" = type { %"struct.std::_Vector_base<int, std::allocator<int>>::_Vector_impl_data" }
%"struct.std::_Vector_base<int, std::allocator<int>>::_Vector_impl_data" = type { ptr, ptr, ptr }
%"class.std::vector.80" = type { %"struct.std::_Vector_base.81" }
%"struct.std::_Vector_base.81" = type { %"struct.std::_Vector_base<unsigned int, std::allocator<unsigned int>>::_Vector_impl" }
%"struct.std::_Vector_base<unsigned int, std::allocator<unsigned int>>::_Vector_impl" = type { %"struct.std::_Vector_base<unsigned int, std::allocator<unsigned int>>::_Vector_impl_data" }
%"struct.std::_Vector_base<unsigned int, std::allocator<unsigned int>>::_Vector_impl_data" = type { ptr, ptr, ptr }
%"struct.tinyobj::lines_t" = type { %"class.std::vector.65", %"class.std::vector.75" }
%"struct.tinyobj::points_t" = type { %"class.std::vector.65" }
%"struct.tinyobj::skin_weight_t" = type { i32, %"class.std::vector.85" }
%"class.std::vector.85" = type { %"struct.std::_Vector_base.86" }
%"struct.std::_Vector_base.86" = type { %"struct.std::_Vector_base<tinyobj::joint_and_weight_t, std::allocator<tinyobj::joint_and_weight_t>>::_Vector_impl" }
%"struct.std::_Vector_base<tinyobj::joint_and_weight_t, std::allocator<tinyobj::joint_and_weight_t>>::_Vector_impl" = type { %"struct.std::_Vector_base<tinyobj::joint_and_weight_t, std::allocator<tinyobj::joint_and_weight_t>>::_Vector_impl_data" }
%"struct.std::_Vector_base<tinyobj::joint_and_weight_t, std::allocator<tinyobj::joint_and_weight_t>>::_Vector_impl_data" = type { ptr, ptr, ptr }
%"struct.tinyobj::joint_and_weight_t" = type { i32, float }
%"struct.tinyobj::warning_context" = type { ptr, i64 }
%"struct.tinyobj::__line_t" = type { %"class.std::vector.90" }
%"class.std::vector.90" = type { %"struct.std::_Vector_base.91" }
%"struct.std::_Vector_base.91" = type { %"struct.std::_Vector_base<tinyobj::vertex_index_t, std::allocator<tinyobj::vertex_index_t>>::_Vector_impl" }
%"struct.std::_Vector_base<tinyobj::vertex_index_t, std::allocator<tinyobj::vertex_index_t>>::_Vector_impl" = type { %"struct.std::_Vector_base<tinyobj::vertex_index_t, std::allocator<tinyobj::vertex_index_t>>::_Vector_impl_data" }
%"struct.std::_Vector_base<tinyobj::vertex_index_t, std::allocator<tinyobj::vertex_index_t>>::_Vector_impl_data" = type { ptr, ptr, ptr }
%"struct.tinyobj::vertex_index_t" = type { i32, i32, i32 }
%"struct.tinyobj::__points_t" = type { %"class.std::vector.90" }
%"struct.tinyobj::face_t" = type { i32, i32, %"class.std::vector.90" }
%"struct.std::pair.98" = type <{ %"struct.std::_Rb_tree_const_iterator.100", i8, [7 x i8] }>
%"struct.std::_Rb_tree_const_iterator.100" = type { ptr }
%"struct.tinyobj::tag_t" = type { %"class.std::__cxx11::basic_string", %"class.std::vector.75", %"class.std::vector.26", %"class.std::vector.20" }
%"struct.tinyobj::tag_sizes" = type { i32, i32, i32 }
%"class.__gnu_cxx::__normal_iterator.119" = type { ptr }
%"class.__gnu_cxx::__normal_iterator.134" = type { ptr }
%"class.__gnu_cxx::__normal_iterator.135" = type { ptr }
%"class.__gnu_cxx::__normal_iterator.137" = type { ptr }
%"class.__gnu_cxx::__normal_iterator.138" = type { ptr }
%"class.__gnu_cxx::__normal_iterator.139" = type { ptr }
%"class.__gnu_cxx::__normal_iterator.140" = type { ptr }
%"struct.tinyobj::index_t" = type { i32, i32, i32 }
%"class.__gnu_cxx::__normal_iterator.118" = type { ptr }
%"struct.std::pair.142" = type <{ %"struct.std::_Rb_tree_iterator.144", i8, [7 x i8] }>
%"struct.std::_Rb_tree_iterator.144" = type { ptr }
%"class.__gnu_cxx::__normal_iterator.146" = type { ptr }
%"class.__gnu_cxx::__normal_iterator.115" = type { ptr }
%"class.std::vector" = type { %"struct.std::_Vector_base" }
%"class.std::vector.102" = type { %"struct.std::_Vector_base.103" }
%"struct.std::_Vector_base.103" = type { %"struct.std::_Vector_base<const char *, std::allocator<const char *>>::_Vector_impl" }
%"struct.std::_Vector_base<const char *, std::allocator<const char *>>::_Vector_impl" = type { %"struct.std::_Vector_base<const char *, std::allocator<const char *>>::_Vector_impl_data" }
%"struct.std::_Vector_base<const char *, std::allocator<const char *>>::_Vector_impl_data" = type { ptr, ptr, ptr }
%"struct.tinyobj::callback_t" = type { ptr, ptr, ptr, ptr, ptr, ptr, ptr, ptr, ptr }
%"class.__gnu_cxx::__normal_iterator.127" = type { ptr }
%"struct.tinyobj::ObjReaderConfig" = type { i8, %"class.std::__cxx11::basic_string", i8, %"class.std::__cxx11::basic_string" }
%"class.tinyobj::ObjReader" = type { i8, %"struct.tinyobj::attrib_t", %"class.std::vector.36", %"class.std::vector", %"class.std::__cxx11::basic_string", %"class.std::__cxx11::basic_string" }
%"class.std::vector.36" = type { %"struct.std::_Vector_base.37" }
%"class.std::basic_istream" = type { ptr, i64, %"class.std::basic_ios" }
%struct._Guard = type { ptr }
%"struct.std::_Rb_tree_node" = type { %"struct.std::_Rb_tree_node_base", %"struct.__gnu_cxx::__aligned_membuf" }
%"struct.__gnu_cxx::__aligned_membuf" = type { [64 x i8] }
%"class.__gnu_cxx::__normal_iterator.109" = type { ptr }
%"class.__gnu_cxx::__normal_iterator.111" = type { ptr }
%"class.__gnu_cxx::__normal_iterator.112" = type { ptr }
%"class.__gnu_cxx::__normal_iterator.114" = type { ptr }
%"class.__gnu_cxx::__normal_iterator.121" = type { ptr }
%"class.__gnu_cxx::__normal_iterator.122" = type { ptr }
%"class.__gnu_cxx::__normal_iterator.110" = type { ptr }
%"class.std::allocator.92" = type { i8 }
%"class.__gnu_cxx::__normal_iterator.113" = type { ptr }
%"class.std::allocator.77" = type { i8 }
%"class.__gnu_cxx::__normal_iterator.116" = type { ptr }
%"class.std::allocator.28" = type { i8 }
%"class.__gnu_cxx::__normal_iterator.117" = type { ptr }
%"class.std::allocator.22" = type { i8 }
%"class.std::allocator.67" = type { i8 }
%"class.std::allocator.72" = type { i8 }
%"class.std::allocator.82" = type { i8 }
%"class.std::allocator.43" = type { i8 }
%"struct.std::_Rb_tree_node.123" = type { %"struct.std::_Rb_tree_node_base", %"struct.__gnu_cxx::__aligned_membuf.124" }
%"struct.__gnu_cxx::__aligned_membuf.124" = type { [40 x i8] }
%"struct.std::_Rb_tree_node.125" = type { %"struct.std::_Rb_tree_node_base", %"struct.__gnu_cxx::__aligned_membuf.126" }
%"struct.__gnu_cxx::__aligned_membuf.126" = type { [32 x i8] }
%"struct.std::_Select1st" = type { i8 }
%"struct.std::_Rb_tree<std::__cxx11::basic_string<char>, std::pair<const std::__cxx11::basic_string<char>, int>, std::_Select1st<std::pair<const std::__cxx11::basic_string<char>, int>>, std::less<std::__cxx11::basic_string<char>>>::_Auto_node" = type { ptr, ptr }
%"struct.std::pair.128" = type { ptr, ptr }
%"class.std::allocator.0" = type { i8 }
%"struct.std::_Rb_tree<std::__cxx11::basic_string<char>, std::pair<const std::__cxx11::basic_string<char>, std::__cxx11::basic_string<char>>, std::_Select1st<std::pair<const std::__cxx11::basic_string<char>, std::__cxx11::basic_string<char>>>, std::less<std::__cxx11::basic_string<char>>>::_Alloc_node" = type { ptr }
%"struct.std::_Select1st.132" = type { i8 }
%"struct.std::_Rb_tree<std::__cxx11::basic_string<char>, std::pair<const std::__cxx11::basic_string<char>, std::__cxx11::basic_string<char>>, std::_Select1st<std::pair<const std::__cxx11::basic_string<char>, std::__cxx11::basic_string<char>>>, std::less<std::__cxx11::basic_string<char>>>::_Auto_node" = type { ptr, ptr }
%"class.std::allocator.87" = type { i8 }
%"class.__gnu_cxx::__normal_iterator.136" = type { ptr }
%"struct.std::_Identity" = type { i8 }
%"struct.std::_Rb_tree<std::__cxx11::basic_string<char>, std::__cxx11::basic_string<char>, std::_Identity<std::__cxx11::basic_string<char>>, std::less<std::__cxx11::basic_string<char>>>::_Alloc_node" = type { ptr }
%"class.__gnu_cxx::__normal_iterator.147" = type { ptr }
%"class.__gnu_cxx::__normal_iterator.148" = type { ptr }
%"class.__gnu_cxx::__normal_iterator.149" = type { ptr }

$_ZNSt7__cxx1112basic_stringIcSt11char_traitsIcESaIcEEC2IS3_EEPKcRKS3_ = comdat any

$_ZN7tinyobj10material_tC2Ev = comdat any

$_ZNSt3mapINSt7__cxx1112basic_stringIcSt11char_traitsIcESaIcEEEiSt4lessIS5_ESaISt4pairIKS5_iEEE6insertIS8_IS5_iEEENSt9enable_ifIXsr16is_constructibleISA_T_EE5valueES8_ISt17_Rb_tree_iteratorISA_EbEE4typeEOSG_ = comdat any

$_ZNKSt6vectorIN7tinyobj10material_tESaIS1_EE4sizeEv = comdat any

$_ZNSt4pairINSt7__cxx1112basic_stringIcSt11char_traitsIcESaIcEEEiEC2IRS5_iTnNSt9enable_ifIXaaclsr5_PCCPE22_MoveConstructiblePairIT_T0_EEclsr5_PCCPE30_ImplicitlyMoveConvertiblePairISA_SB_EEEbE4typeELb1EEEOSA_OSB_ = comdat any

$_ZNSt4pairINSt7__cxx1112basic_stringIcSt11char_traitsIcESaIcEEEiED2Ev = comdat any

$_ZNSt6vectorIN7tinyobj10material_tESaIS1_EE9push_backERKS1_ = comdat any

$_ZNSt3mapINSt7__cxx1112basic_stringIcSt11char_traitsIcESaIcEEES5_St4lessIS5_ESaISt4pairIKS5_S5_EEE6insertIS8_IS5_S5_EEENSt9enable_ifIXsr16is_constructibleISA_T_EE5valueES8_ISt17_Rb_tree_iteratorISA_EbEE4typeEOSG_ = comdat any

$_ZNSt4pairINSt7__cxx1112basic_stringIcSt11char_traitsIcESaIcEEES5_EC2IRS5_S8_TnNSt9enable_ifIXaaclsr5_PCCPE22_MoveConstructiblePairIT_T0_EEclsr5_PCCPE30_ImplicitlyMoveConvertiblePairISA_SB_EEEbE4typeELb1EEEOSA_OSB_ = comdat any

$_ZNSt4pairINSt7__cxx1112basic_stringIcSt11char_traitsIcESaIcEEES5_ED2Ev = comdat any

$_ZN7tinyobj10material_tD2Ev = comdat any

$_ZNSt6vectorINSt7__cxx1112basic_stringIcSt11char_traitsIcESaIcEEESaIS5_EEC2Ev = comdat any

$_ZNSt6vectorINSt7__cxx1112basic_stringIcSt11char_traitsIcESaIcEEESaIS5_EE9push_backERKS5_ = comdat any

$_ZNKSt6vectorINSt7__cxx1112basic_stringIcSt11char_traitsIcESaIcEEESaIS5_EE4sizeEv = comdat any

$_ZNSt6vectorINSt7__cxx1112basic_stringIcSt11char_traitsIcESaIcEEESaIS5_EEixEm = comdat any

$_ZNSt6vectorINSt7__cxx1112basic_stringIcSt11char_traitsIcESaIcEEESaIS5_EED2Ev = comdat any

$_ZNSt6vectorIfSaIfEE5clearEv = comdat any

$_ZNSt6vectorIN7tinyobj7shape_tESaIS1_EE5clearEv = comdat any

$_ZN7tinyobj18MaterialFileReaderC2ERKNSt7__cxx1112basic_stringIcSt11char_traitsIcESaIcEEE = comdat any

$_ZN7tinyobj18MaterialFileReaderD2Ev = comdat any

$_ZNSt6vectorIfSaIfEEC2Ev = comdat any

$_ZNSt6vectorIN7tinyobj13skin_weight_tESaIS1_EEC2Ev = comdat any

$_ZNSt6vectorIN7tinyobj5tag_tESaIS1_EEC2Ev = comdat any

$_ZN7tinyobj9PrimGroupC2Ev = comdat any

$_ZNSt3setINSt7__cxx1112basic_stringIcSt11char_traitsIcESaIcEEESt4lessIS5_ESaIS5_EEC2Ev = comdat any

$_ZNSt3mapINSt7__cxx1112basic_stringIcSt11char_traitsIcESaIcEEEiSt4lessIS5_ESaISt4pairIKS5_iEEEC2Ev = comdat any

$_ZN7tinyobj7shape_tC2Ev = comdat any

$_ZNSt6vectorIfSaIfEE9push_backERKf = comdat any

$_ZN7tinyobj13skin_weight_tC2Ev = comdat any

$_ZNSt6vectorIN7tinyobj18joint_and_weight_tESaIS1_EE9push_backERKS1_ = comdat any

$_ZNSt6vectorIN7tinyobj13skin_weight_tESaIS1_EE9push_backERKS1_ = comdat any

$_ZN7tinyobj13skin_weight_tD2Ev = comdat any

$_ZN7tinyobj8__line_tC2Ev = comdat any

$_ZN7tinyobj14vertex_index_tC2Ev = comdat any

$_ZNKSt6vectorIfSaIfEE4sizeEv = comdat any

$_ZStplIcSt11char_traitsIcESaIcEENSt7__cxx1112basic_stringIT_T0_T1_EEOS8_PKS5_ = comdat any

$_ZStplIcSt11char_traitsIcESaIcEENSt7__cxx1112basic_stringIT_T0_T1_EEPKS5_OS8_ = comdat any

$_ZNSt6vectorIN7tinyobj14vertex_index_tESaIS1_EE9push_backERKS1_ = comdat any

$_ZNSt6vectorIN7tinyobj8__line_tESaIS1_EE9push_backERKS1_ = comdat any

$_ZN7tinyobj8__line_tD2Ev = comdat any

$_ZN7tinyobj10__points_tC2Ev = comdat any

$_ZNSt6vectorIN7tinyobj10__points_tESaIS1_EE9push_backERKS1_ = comdat any

$_ZN7tinyobj10__points_tD2Ev = comdat any

$_ZN7tinyobj6face_tC2Ev = comdat any

$_ZNSt6vectorIN7tinyobj14vertex_index_tESaIS1_EE7reserveEm = comdat any

$_ZNSt6vectorIN7tinyobj6face_tESaIS1_EE9push_backERKS1_ = comdat any

$_ZN7tinyobj6face_tD2Ev = comdat any

$_ZNSt3mapINSt7__cxx1112basic_stringIcSt11char_traitsIcESaIcEEEiSt4lessIS5_ESaISt4pairIKS5_iEEE4findERS9_ = comdat any

$_ZNSt23_Rb_tree_const_iteratorISt4pairIKNSt7__cxx1112basic_stringIcSt11char_traitsIcESaIcEEEiEEC2ERKSt17_Rb_tree_iteratorIS8_E = comdat any

$_ZStneRKSt23_Rb_tree_const_iteratorISt4pairIKNSt7__cxx1112basic_stringIcSt11char_traitsIcESaIcEEEiEESB_ = comdat any

$_ZNSt3mapINSt7__cxx1112basic_stringIcSt11char_traitsIcESaIcEEEiSt4lessIS5_ESaISt4pairIKS5_iEEE3endEv = comdat any

$_ZNKSt23_Rb_tree_const_iteratorISt4pairIKNSt7__cxx1112basic_stringIcSt11char_traitsIcESaIcEEEiEEptEv = comdat any

$_ZStplIcSt11char_traitsIcESaIcEENSt7__cxx1112basic_stringIT_T0_T1_EEPKS5_RKS8_ = comdat any

$_ZNSt6vectorIN7tinyobj6face_tESaIS1_EE5clearEv = comdat any

$_ZNKSt6vectorINSt7__cxx1112basic_stringIcSt11char_traitsIcESaIcEEESaIS5_EE5emptyEv = comdat any

$_ZNKSt3setINSt7__cxx1112basic_stringIcSt11char_traitsIcESaIcEEESt4lessIS5_ESaIS5_EE5countERKS5_ = comdat any

$_ZNSt3setINSt7__cxx1112basic_stringIcSt11char_traitsIcESaIcEEESt4lessIS5_ESaIS5_EE6insertERKS5_ = comdat any

$_ZNKSt6vectorIN7tinyobj7index_tESaIS1_EE4sizeEv = comdat any

$_ZNSt6vectorIN7tinyobj7shape_tESaIS1_EE9push_backERKS1_ = comdat any

$_ZN7tinyobj7shape_taSEOS0_ = comdat any

$_ZN7tinyobj7shape_tD2Ev = comdat any

$_ZN7tinyobj9PrimGroup5clearEv = comdat any

$_ZN7tinyobj5tag_tC2Ev = comdat any

$_ZNSt6vectorIiSaIiEE6resizeEm = comdat any

$_ZNSt6vectorIiSaIiEEixEm = comdat any

$_ZNSt6vectorIfSaIfEE6resizeEm = comdat any

$_ZNSt6vectorIfSaIfEEixEm = comdat any

$_ZNSt6vectorINSt7__cxx1112basic_stringIcSt11char_traitsIcESaIcEEESaIS5_EE6resizeEm = comdat any

$_ZNSt6vectorIN7tinyobj5tag_tESaIS1_EE9push_backERKS1_ = comdat any

$_ZN7tinyobj5tag_tD2Ev = comdat any

$_ZNSt6vectorIfSaIfEE4swapERS1_ = comdat any

$_ZNSt6vectorIN7tinyobj13skin_weight_tESaIS1_EE4swapERS3_ = comdat any

$_ZNSt3mapINSt7__cxx1112basic_stringIcSt11char_traitsIcESaIcEEEiSt4lessIS5_ESaISt4pairIKS5_iEEED2Ev = comdat any

$_ZNSt3setINSt7__cxx1112basic_stringIcSt11char_traitsIcESaIcEEESt4lessIS5_ESaIS5_EED2Ev = comdat any

$_ZN7tinyobj9PrimGroupD2Ev = comdat any

$_ZNSt6vectorIN7tinyobj5tag_tESaIS1_EED2Ev = comdat any

$_ZNSt6vectorIN7tinyobj13skin_weight_tESaIS1_EED2Ev = comdat any

$_ZNSt6vectorIfSaIfEED2Ev = comdat any

$_ZNSt6vectorIN7tinyobj7index_tESaIS1_EEC2Ev = comdat any

$_ZNSt6vectorIN7tinyobj10material_tESaIS1_EEC2Ev = comdat any

$_ZNSt6vectorINSt7__cxx1112basic_stringIcSt11char_traitsIcESaIcEEESaIS5_EE7reserveEm = comdat any

$_ZNSt6vectorIPKcSaIS1_EEC2Ev = comdat any

$_ZNSt6vectorIN7tinyobj7index_tESaIS1_EE5clearEv = comdat any

$_ZNSt6vectorIN7tinyobj7index_tESaIS1_EE9push_backERKS1_ = comdat any

$_ZNSt6vectorIN7tinyobj7index_tESaIS1_EE2atEm = comdat any

$_ZNSt6vectorIN7tinyobj10material_tESaIS1_EE2atEm = comdat any

$_ZNSt6vectorINSt7__cxx1112basic_stringIcSt11char_traitsIcESaIcEEESaIS5_EE5clearEv = comdat any

$_ZNSt6vectorIPKcSaIS1_EE6resizeEm = comdat any

$_ZNKSt6vectorIPKcSaIS1_EE4sizeEv = comdat any

$_ZNSt6vectorIPKcSaIS1_EEixEm = comdat any

$_ZNSt6vectorIPKcSaIS1_EE2atEm = comdat any

$_ZNSt6vectorIPKcSaIS1_EED2Ev = comdat any

$_ZNSt6vectorIN7tinyobj10material_tESaIS1_EED2Ev = comdat any

$_ZNSt6vectorIN7tinyobj7index_tESaIS1_EED2Ev = comdat any

$_ZStorSt13_Ios_OpenmodeS_ = comdat any

$_ZN7tinyobj20MaterialStreamReaderC2ERSi = comdat any

$_ZN7tinyobj20MaterialStreamReaderD2Ev = comdat any

$_ZNSt7__cxx1115basic_stringbufIcSt11char_traitsIcESaIcEED2Ev = comdat any

$_ZN7tinyobj18MaterialFileReaderD0Ev = comdat any

$_ZN7tinyobj20MaterialStreamReaderD0Ev = comdat any

$_ZSt3powIdiEN9__gnu_cxx9__promoteIDTplcvNS1_IT_Xsr3std12__is_integerIS2_EE7__valueEE6__typeELi0EcvNS1_IT0_Xsr3std12__is_integerIS5_EE7__valueEE6__typeELi0EEXsr3std12__is_integerIS8_EE7__valueEE6__typeES2_S5_ = comdat any

$_ZNSt7__cxx1112basic_stringIcSt11char_traitsIcESaIcEEC2IPKcvEET_S8_RKS3_ = comdat any

$_ZNSt7__cxx1112basic_stringIcSt11char_traitsIcESaIcEE12_M_constructIPKcEEvT_S8_St20forward_iterator_tag = comdat any

$_ZSt19__iterator_categoryIPKcENSt15iterator_traitsIT_E17iterator_categoryERKS3_ = comdat any

$_ZNSt7__cxx1112basic_stringIcSt11char_traitsIcESaIcEE12_Alloc_hiderD2Ev = comdat any

$_ZSt8distanceIPKcENSt15iterator_traitsIT_E15difference_typeES3_S3_ = comdat any

$_ZZNSt7__cxx1112basic_stringIcSt11char_traitsIcESaIcEE12_M_constructIPKcEEvT_S8_St20forward_iterator_tagEN6_GuardC2EPS4_ = comdat any

$_ZZNSt7__cxx1112basic_stringIcSt11char_traitsIcESaIcEE12_M_constructIPKcEEvT_S8_St20forward_iterator_tagEN6_GuardD2Ev = comdat any

$_ZSt10__distanceIPKcENSt15iterator_traitsIT_E15difference_typeES3_S3_St26random_access_iterator_tag = comdat any

$__clang_call_terminate = comdat any

$_ZN7tinyobj16texture_option_tC2Ev = comdat any

$_ZNSt3mapINSt7__cxx1112basic_stringIcSt11char_traitsIcESaIcEEES5_St4lessIS5_ESaISt4pairIKS5_S5_EEEC2Ev = comdat any

$_ZNSt8_Rb_treeINSt7__cxx1112basic_stringIcSt11char_traitsIcESaIcEEESt4pairIKS5_S5_ESt10_Select1stIS8_ESt4lessIS5_ESaIS8_EEC2Ev = comdat any

$_ZNSt8_Rb_treeINSt7__cxx1112basic_stringIcSt11char_traitsIcESaIcEEESt4pairIKS5_S5_ESt10_Select1stIS8_ESt4lessIS5_ESaIS8_EE13_Rb_tree_implISC_Lb1EEC2Ev = comdat any

$_ZNSaISt13_Rb_tree_nodeISt4pairIKNSt7__cxx1112basic_stringIcSt11char_traitsIcESaIcEEES6_EEEC2Ev = comdat any

$_ZNSt20_Rb_tree_key_compareISt4lessINSt7__cxx1112basic_stringIcSt11char_traitsIcESaIcEEEEEC2Ev = comdat any

$_ZNSt15_Rb_tree_headerC2Ev = comdat any

$_ZNSt15__new_allocatorISt13_Rb_tree_nodeISt4pairIKNSt7__cxx1112basic_stringIcSt11char_traitsIcESaIcEEES7_EEEC2Ev = comdat any

$_ZNSt15_Rb_tree_header8_M_resetEv = comdat any

$_ZNSt3mapINSt7__cxx1112basic_stringIcSt11char_traitsIcESaIcEEES5_St4lessIS5_ESaISt4pairIKS5_S5_EEE5clearEv = comdat any

$_ZNSt8_Rb_treeINSt7__cxx1112basic_stringIcSt11char_traitsIcESaIcEEESt4pairIKS5_S5_ESt10_Select1stIS8_ESt4lessIS5_ESaIS8_EE5clearEv = comdat any

$_ZNSt8_Rb_treeINSt7__cxx1112basic_stringIcSt11char_traitsIcESaIcEEESt4pairIKS5_S5_ESt10_Select1stIS8_ESt4lessIS5_ESaIS8_EE8_M_eraseEPSt13_Rb_tree_nodeIS8_E = comdat any

$_ZNSt8_Rb_treeINSt7__cxx1112basic_stringIcSt11char_traitsIcESaIcEEESt4pairIKS5_S5_ESt10_Select1stIS8_ESt4lessIS5_ESaIS8_EE8_M_beginEv = comdat any

$_ZNSt8_Rb_treeINSt7__cxx1112basic_stringIcSt11char_traitsIcESaIcEEESt4pairIKS5_S5_ESt10_Select1stIS8_ESt4lessIS5_ESaIS8_EE8_S_rightEPSt18_Rb_tree_node_base = comdat any

$_ZNSt8_Rb_treeINSt7__cxx1112basic_stringIcSt11char_traitsIcESaIcEEESt4pairIKS5_S5_ESt10_Select1stIS8_ESt4lessIS5_ESaIS8_EE7_S_leftEPSt18_Rb_tree_node_base = comdat any

$_ZNSt8_Rb_treeINSt7__cxx1112basic_stringIcSt11char_traitsIcESaIcEEESt4pairIKS5_S5_ESt10_Select1stIS8_ESt4lessIS5_ESaIS8_EE12_M_drop_nodeEPSt13_Rb_tree_nodeIS8_E = comdat any

$_ZNSt8_Rb_treeINSt7__cxx1112basic_stringIcSt11char_traitsIcESaIcEEESt4pairIKS5_S5_ESt10_Select1stIS8_ESt4lessIS5_ESaIS8_EE15_M_destroy_nodeEPSt13_Rb_tree_nodeIS8_E = comdat any

$_ZNSt8_Rb_treeINSt7__cxx1112basic_stringIcSt11char_traitsIcESaIcEEESt4pairIKS5_S5_ESt10_Select1stIS8_ESt4lessIS5_ESaIS8_EE11_M_put_nodeEPSt13_Rb_tree_nodeIS8_E = comdat any

$_ZNSt16allocator_traitsISaISt13_Rb_tree_nodeISt4pairIKNSt7__cxx1112basic_stringIcSt11char_traitsIcESaIcEEES7_EEEE7destroyIS9_EEvRSB_PT_ = comdat any

$_ZNSt8_Rb_treeINSt7__cxx1112basic_stringIcSt11char_traitsIcESaIcEEESt4pairIKS5_S5_ESt10_Select1stIS8_ESt4lessIS5_ESaIS8_EE21_M_get_Node_allocatorEv = comdat any

$_ZNSt13_Rb_tree_nodeISt4pairIKNSt7__cxx1112basic_stringIcSt11char_traitsIcESaIcEEES6_EE9_M_valptrEv = comdat any

$_ZNSt15__new_allocatorISt13_Rb_tree_nodeISt4pairIKNSt7__cxx1112basic_stringIcSt11char_traitsIcESaIcEEES7_EEE7destroyIS9_EEvPT_ = comdat any

$_ZNSt4pairIKNSt7__cxx1112basic_stringIcSt11char_traitsIcESaIcEEES5_ED2Ev = comdat any

$_ZN9__gnu_cxx16__aligned_membufISt4pairIKNSt7__cxx1112basic_stringIcSt11char_traitsIcESaIcEEES7_EE6_M_ptrEv = comdat any

$_ZN9__gnu_cxx16__aligned_membufISt4pairIKNSt7__cxx1112basic_stringIcSt11char_traitsIcESaIcEEES7_EE7_M_addrEv = comdat any

$_ZNSt16allocator_traitsISaISt13_Rb_tree_nodeISt4pairIKNSt7__cxx1112basic_stringIcSt11char_traitsIcESaIcEEES7_EEEE10deallocateERSB_PSA_m = comdat any

$_ZNSt15__new_allocatorISt13_Rb_tree_nodeISt4pairIKNSt7__cxx1112basic_stringIcSt11char_traitsIcESaIcEEES7_EEE10deallocateEPSA_m = comdat any

$_ZNKSt8_Rb_treeINSt7__cxx1112basic_stringIcSt11char_traitsIcESaIcEEESt4pairIKS5_S5_ESt10_Select1stIS8_ESt4lessIS5_ESaIS8_EE9_M_mbeginEv = comdat any

$_ZNSt3mapINSt7__cxx1112basic_stringIcSt11char_traitsIcESaIcEEES5_St4lessIS5_ESaISt4pairIKS5_S5_EEED2Ev = comdat any

$_ZN7tinyobj16texture_option_tD2Ev = comdat any

$_ZNSt8_Rb_treeINSt7__cxx1112basic_stringIcSt11char_traitsIcESaIcEEESt4pairIKS5_S5_ESt10_Select1stIS8_ESt4lessIS5_ESaIS8_EED2Ev = comdat any

$_ZNSt8_Rb_treeINSt7__cxx1112basic_stringIcSt11char_traitsIcESaIcEEESt4pairIKS5_S5_ESt10_Select1stIS8_ESt4lessIS5_ESaIS8_EE13_Rb_tree_implISC_Lb1EED2Ev = comdat any

$_ZNSt15__new_allocatorISt13_Rb_tree_nodeISt4pairIKNSt7__cxx1112basic_stringIcSt11char_traitsIcESaIcEEES7_EEED2Ev = comdat any

$_ZNSt12_Vector_baseINSt7__cxx1112basic_stringIcSt11char_traitsIcESaIcEEESaIS5_EEC2Ev = comdat any

$_ZNSt12_Vector_baseINSt7__cxx1112basic_stringIcSt11char_traitsIcESaIcEEESaIS5_EE12_Vector_implC2Ev = comdat any

$_ZNSaINSt7__cxx1112basic_stringIcSt11char_traitsIcESaIcEEEEC2Ev = comdat any

$_ZNSt12_Vector_baseINSt7__cxx1112basic_stringIcSt11char_traitsIcESaIcEEESaIS5_EE17_Vector_impl_dataC2Ev = comdat any

$_ZNSt15__new_allocatorINSt7__cxx1112basic_stringIcSt11char_traitsIcESaIcEEEEC2Ev = comdat any

$_ZNKSt16reverse_iteratorIN9__gnu_cxx17__normal_iteratorIPKcNSt7__cxx1112basic_stringIcSt11char_traitsIcESaIcEEEEEEdeEv = comdat any

$_ZStplIcSt11char_traitsIcESaIcEENSt7__cxx1112basic_stringIT_T0_T1_EEOS8_RKS8_ = comdat any

$_ZStplIcSt11char_traitsIcESaIcEENSt7__cxx1112basic_stringIT_T0_T1_EERKS8_OS8_ = comdat any

$_ZStplIcSt11char_traitsIcESaIcEENSt7__cxx1112basic_stringIT_T0_T1_EERKS8_SA_ = comdat any

$_ZN9__gnu_cxx17__normal_iteratorIPKcNSt7__cxx1112basic_stringIcSt11char_traitsIcESaIcEEEEmmEv = comdat any

$_ZNK9__gnu_cxx17__normal_iteratorIPKcNSt7__cxx1112basic_stringIcSt11char_traitsIcESaIcEEEEdeEv = comdat any

$_ZN7tinyobj14MaterialReaderC2Ev = comdat any

$_ZNSt12_Vector_baseIfSaIfEEC2Ev = comdat any

$_ZNSt12_Vector_baseIfSaIfEE12_Vector_implC2Ev = comdat any

$_ZNSaIfEC2Ev = comdat any

$_ZNSt15__new_allocatorIfEC2Ev = comdat any

$_ZNSt12_Vector_baseIN7tinyobj13skin_weight_tESaIS1_EEC2Ev = comdat any

$_ZNSt12_Vector_baseIN7tinyobj13skin_weight_tESaIS1_EE12_Vector_implC2Ev = comdat any

$_ZNSaIN7tinyobj13skin_weight_tEEC2Ev = comdat any

$_ZNSt15__new_allocatorIN7tinyobj13skin_weight_tEEC2Ev = comdat any

$_ZNSt12_Vector_baseIN7tinyobj5tag_tESaIS1_EEC2Ev = comdat any

$_ZNSt12_Vector_baseIN7tinyobj5tag_tESaIS1_EE12_Vector_implC2Ev = comdat any

$_ZNSaIN7tinyobj5tag_tEEC2Ev = comdat any

$_ZNSt15__new_allocatorIN7tinyobj5tag_tEEC2Ev = comdat any

$_ZNSt6vectorIN7tinyobj6face_tESaIS1_EEC2Ev = comdat any

$_ZNSt6vectorIN7tinyobj8__line_tESaIS1_EEC2Ev = comdat any

$_ZNSt6vectorIN7tinyobj10__points_tESaIS1_EEC2Ev = comdat any

$_ZNSt12_Vector_baseIN7tinyobj6face_tESaIS1_EEC2Ev = comdat any

$_ZNSt12_Vector_baseIN7tinyobj6face_tESaIS1_EE12_Vector_implC2Ev = comdat any

$_ZNSaIN7tinyobj6face_tEEC2Ev = comdat any

$_ZNSt12_Vector_baseIN7tinyobj6face_tESaIS1_EE17_Vector_impl_dataC2Ev = comdat any

$_ZNSt15__new_allocatorIN7tinyobj6face_tEEC2Ev = comdat any

$_ZNSt12_Vector_baseIN7tinyobj8__line_tESaIS1_EEC2Ev = comdat any

$_ZNSt12_Vector_baseIN7tinyobj8__line_tESaIS1_EE12_Vector_implC2Ev = comdat any

$_ZNSaIN7tinyobj8__line_tEEC2Ev = comdat any

$_ZNSt12_Vector_baseIN7tinyobj8__line_tESaIS1_EE17_Vector_impl_dataC2Ev = comdat any

$_ZNSt15__new_allocatorIN7tinyobj8__line_tEEC2Ev = comdat any

$_ZNSt12_Vector_baseIN7tinyobj10__points_tESaIS1_EEC2Ev = comdat any

$_ZNSt12_Vector_baseIN7tinyobj10__points_tESaIS1_EE12_Vector_implC2Ev = comdat any

$_ZNSaIN7tinyobj10__points_tEEC2Ev = comdat any

$_ZNSt12_Vector_baseIN7tinyobj10__points_tESaIS1_EE17_Vector_impl_dataC2Ev = comdat any

$_ZNSt15__new_allocatorIN7tinyobj10__points_tEEC2Ev = comdat any

$_ZNSt8_Rb_treeINSt7__cxx1112basic_stringIcSt11char_traitsIcESaIcEEES5_St9_IdentityIS5_ESt4lessIS5_ESaIS5_EEC2Ev = comdat any

$_ZNSt8_Rb_treeINSt7__cxx1112basic_stringIcSt11char_traitsIcESaIcEEES5_St9_IdentityIS5_ESt4lessIS5_ESaIS5_EE13_Rb_tree_implIS9_Lb1EEC2Ev = comdat any

$_ZNSaISt13_Rb_tree_nodeINSt7__cxx1112basic_stringIcSt11char_traitsIcESaIcEEEEEC2Ev = comdat any

$_ZNSt15__new_allocatorISt13_Rb_tree_nodeINSt7__cxx1112basic_stringIcSt11char_traitsIcESaIcEEEEEC2Ev = comdat any

$_ZNSt8_Rb_treeINSt7__cxx1112basic_stringIcSt11char_traitsIcESaIcEEESt4pairIKS5_iESt10_Select1stIS8_ESt4lessIS5_ESaIS8_EEC2Ev = comdat any

$_ZNSt8_Rb_treeINSt7__cxx1112basic_stringIcSt11char_traitsIcESaIcEEESt4pairIKS5_iESt10_Select1stIS8_ESt4lessIS5_ESaIS8_EE13_Rb_tree_implISC_Lb1EEC2Ev = comdat any

$_ZNSaISt13_Rb_tree_nodeISt4pairIKNSt7__cxx1112basic_stringIcSt11char_traitsIcESaIcEEEiEEEC2Ev = comdat any

$_ZNSt15__new_allocatorISt13_Rb_tree_nodeISt4pairIKNSt7__cxx1112basic_stringIcSt11char_traitsIcESaIcEEEiEEEC2Ev = comdat any

$_ZN7tinyobj6mesh_tC2Ev = comdat any

$_ZN7tinyobj7lines_tC2Ev = comdat any

$_ZN7tinyobj8points_tC2Ev = comdat any

$_ZNSt6vectorIhSaIhEEC2Ev = comdat any

$_ZNSt6vectorIiSaIiEEC2Ev = comdat any

$_ZNSt6vectorIjSaIjEEC2Ev = comdat any

$_ZNSt12_Vector_baseIhSaIhEEC2Ev = comdat any

$_ZNSt12_Vector_baseIhSaIhEE12_Vector_implC2Ev = comdat any

$_ZNSaIhEC2Ev = comdat any

$_ZNSt15__new_allocatorIhEC2Ev = comdat any

$_ZNSt12_Vector_baseIiSaIiEEC2Ev = comdat any

$_ZNSt12_Vector_baseIiSaIiEE12_Vector_implC2Ev = comdat any

$_ZNSaIiEC2Ev = comdat any

$_ZNSt15__new_allocatorIiEC2Ev = comdat any

$_ZNSt12_Vector_baseIjSaIjEEC2Ev = comdat any

$_ZNSt12_Vector_baseIjSaIjEE12_Vector_implC2Ev = comdat any

$_ZNSaIjEC2Ev = comdat any

$_ZNSt15__new_allocatorIjEC2Ev = comdat any

$_ZNSt6vectorIN7tinyobj18joint_and_weight_tESaIS1_EEC2Ev = comdat any

$_ZNSt12_Vector_baseIN7tinyobj18joint_and_weight_tESaIS1_EEC2Ev = comdat any

$_ZNSt12_Vector_baseIN7tinyobj18joint_and_weight_tESaIS1_EE12_Vector_implC2Ev = comdat any

$_ZNSaIN7tinyobj18joint_and_weight_tEEC2Ev = comdat any

$_ZNSt12_Vector_baseIN7tinyobj18joint_and_weight_tESaIS1_EE17_Vector_impl_dataC2Ev = comdat any

$_ZNSt15__new_allocatorIN7tinyobj18joint_and_weight_tEEC2Ev = comdat any

$_ZNSt6vectorIN7tinyobj18joint_and_weight_tESaIS1_EED2Ev = comdat any

$_ZSt8_DestroyIPN7tinyobj18joint_and_weight_tES1_EvT_S3_RSaIT0_E = comdat any

$_ZNSt12_Vector_baseIN7tinyobj18joint_and_weight_tESaIS1_EE19_M_get_Tp_allocatorEv = comdat any

$_ZNSt12_Vector_baseIN7tinyobj18joint_and_weight_tESaIS1_EED2Ev = comdat any

$_ZSt8_DestroyIPN7tinyobj18joint_and_weight_tEEvT_S3_ = comdat any

$_ZNSt12_Destroy_auxILb1EE9__destroyIPN7tinyobj18joint_and_weight_tEEEvT_S5_ = comdat any

$_ZNSt12_Vector_baseIN7tinyobj18joint_and_weight_tESaIS1_EE13_M_deallocateEPS1_m = comdat any

$_ZNSt12_Vector_baseIN7tinyobj18joint_and_weight_tESaIS1_EE12_Vector_implD2Ev = comdat any

$_ZNSt16allocator_traitsISaIN7tinyobj18joint_and_weight_tEEE10deallocateERS2_PS1_m = comdat any

$_ZNSt15__new_allocatorIN7tinyobj18joint_and_weight_tEE10deallocateEPS1_m = comdat any

$_ZNSt15__new_allocatorIN7tinyobj18joint_and_weight_tEED2Ev = comdat any

$_ZNSt6vectorIN7tinyobj14vertex_index_tESaIS1_EEC2Ev = comdat any

$_ZNSt12_Vector_baseIN7tinyobj14vertex_index_tESaIS1_EEC2Ev = comdat any

$_ZNSt12_Vector_baseIN7tinyobj14vertex_index_tESaIS1_EE12_Vector_implC2Ev = comdat any

$_ZNSaIN7tinyobj14vertex_index_tEEC2Ev = comdat any

$_ZNSt12_Vector_baseIN7tinyobj14vertex_index_tESaIS1_EE17_Vector_impl_dataC2Ev = comdat any

$_ZNSt15__new_allocatorIN7tinyobj14vertex_index_tEEC2Ev = comdat any

$_ZN7tinyobj14vertex_index_tC2Ei = comdat any

$_ZNSt6vectorIN7tinyobj14vertex_index_tESaIS1_EED2Ev = comdat any

$_ZSt8_DestroyIPN7tinyobj14vertex_index_tES1_EvT_S3_RSaIT0_E = comdat any

$_ZNSt12_Vector_baseIN7tinyobj14vertex_index_tESaIS1_EE19_M_get_Tp_allocatorEv = comdat any

$_ZNSt12_Vector_baseIN7tinyobj14vertex_index_tESaIS1_EED2Ev = comdat any

$_ZSt8_DestroyIPN7tinyobj14vertex_index_tEEvT_S3_ = comdat any

$_ZNSt12_Destroy_auxILb1EE9__destroyIPN7tinyobj14vertex_index_tEEEvT_S5_ = comdat any

$_ZNSt12_Vector_baseIN7tinyobj14vertex_index_tESaIS1_EE13_M_deallocateEPS1_m = comdat any

$_ZNSt12_Vector_baseIN7tinyobj14vertex_index_tESaIS1_EE12_Vector_implD2Ev = comdat any

$_ZNSt16allocator_traitsISaIN7tinyobj14vertex_index_tEEE10deallocateERS2_PS1_m = comdat any

$_ZNSt15__new_allocatorIN7tinyobj14vertex_index_tEE10deallocateEPS1_m = comdat any

$_ZNSt15__new_allocatorIN7tinyobj14vertex_index_tEED2Ev = comdat any

$_ZNK7tinyobj9PrimGroup7IsEmptyEv = comdat any

$_ZNKSt6vectorIN7tinyobj6face_tESaIS1_EE5emptyEv = comdat any

$_ZNKSt6vectorIN7tinyobj6face_tESaIS1_EE4sizeEv = comdat any

$_ZNKSt6vectorIN7tinyobj6face_tESaIS1_EEixEm = comdat any

$_ZNKSt6vectorIN7tinyobj14vertex_index_tESaIS1_EE4sizeEv = comdat any

$_ZNKSt6vectorIN7tinyobj14vertex_index_tESaIS1_EEixEm = comdat any

$_ZNKSt6vectorIfSaIfEEixEm = comdat any

$_ZNSt6vectorIhSaIhEE9push_backEOh = comdat any

$_ZNSt6vectorIiSaIiEE9push_backERKi = comdat any

$_ZNSt6vectorIjSaIjEE9push_backERKj = comdat any

$_ZSt4fabsf = comdat any

$_ZNSt14numeric_limitsIfE7epsilonEv = comdat any

$_ZN7tinyobj6face_tC2ERKS0_ = comdat any

$_ZNSt6vectorIN7tinyobj14vertex_index_tESaIS1_EEixEm = comdat any

$_ZNSt6vectorIN7tinyobj14vertex_index_tESaIS1_EE8pop_backEv = comdat any

$_ZNSt6vectorIN7tinyobj5tag_tESaIS1_EEaSERKS3_ = comdat any

$_ZNKSt6vectorIN7tinyobj8__line_tESaIS1_EE5emptyEv = comdat any

$_ZNKSt6vectorIN7tinyobj8__line_tESaIS1_EE4sizeEv = comdat any

$_ZNKSt6vectorIN7tinyobj8__line_tESaIS1_EEixEm = comdat any

$_ZNSt6vectorIiSaIiEE9push_backEOi = comdat any

$_ZNKSt6vectorIN7tinyobj10__points_tESaIS1_EE5emptyEv = comdat any

$_ZNKSt6vectorIN7tinyobj10__points_tESaIS1_EE4sizeEv = comdat any

$_ZNKSt6vectorIN7tinyobj10__points_tESaIS1_EEixEm = comdat any

$_ZN9__gnu_cxxeqIPKN7tinyobj6face_tESt6vectorIS2_SaIS2_EEEEbRKNS_17__normal_iteratorIT_T0_EESD_ = comdat any

$_ZNKSt6vectorIN7tinyobj6face_tESaIS1_EE5beginEv = comdat any

$_ZNKSt6vectorIN7tinyobj6face_tESaIS1_EE3endEv = comdat any

$_ZNK9__gnu_cxx17__normal_iteratorIPKN7tinyobj6face_tESt6vectorIS2_SaIS2_EEE4baseEv = comdat any

$_ZN9__gnu_cxx17__normal_iteratorIPKN7tinyobj6face_tESt6vectorIS2_SaIS2_EEEC2ERKS4_ = comdat any

$_ZNSt6vectorIhSaIhEE12emplace_backIJhEEERhDpOT_ = comdat any

$_ZNSt16allocator_traitsISaIhEE9constructIhJhEEEvRS0_PT_DpOT0_ = comdat any

$_ZNSt6vectorIhSaIhEE17_M_realloc_insertIJhEEEvN9__gnu_cxx17__normal_iteratorIPhS1_EEDpOT_ = comdat any

$_ZNSt6vectorIhSaIhEE3endEv = comdat any

$_ZNSt6vectorIhSaIhEE4backEv = comdat any

$_ZNSt15__new_allocatorIhE9constructIhJhEEEvPT_DpOT0_ = comdat any

$_ZNKSt6vectorIhSaIhEE12_M_check_lenEmPKc = comdat any

$_ZN9__gnu_cxxmiIPhSt6vectorIhSaIhEEEENS_17__normal_iteratorIT_T0_E15difference_typeERKS8_SB_ = comdat any

$_ZNSt6vectorIhSaIhEE5beginEv = comdat any

$_ZNSt12_Vector_baseIhSaIhEE11_M_allocateEm = comdat any

$_ZNSt6vectorIhSaIhEE11_S_relocateEPhS2_S2_RS0_ = comdat any

$_ZNK9__gnu_cxx17__normal_iteratorIPhSt6vectorIhSaIhEEE4baseEv = comdat any

$_ZNSt12_Vector_baseIhSaIhEE19_M_get_Tp_allocatorEv = comdat any

$_ZNSt12_Vector_baseIhSaIhEE13_M_deallocateEPhm = comdat any

$_ZNKSt6vectorIhSaIhEE8max_sizeEv = comdat any

$_ZNKSt6vectorIhSaIhEE4sizeEv = comdat any

$_ZSt3maxImERKT_S2_S2_ = comdat any

$_ZNSt6vectorIhSaIhEE11_S_max_sizeERKS0_ = comdat any

$_ZNKSt12_Vector_baseIhSaIhEE19_M_get_Tp_allocatorEv = comdat any

$_ZNSt16allocator_traitsISaIhEE8max_sizeERKS0_ = comdat any

$_ZSt3minImERKT_S2_S2_ = comdat any

$_ZNKSt15__new_allocatorIhE8max_sizeEv = comdat any

$_ZNKSt15__new_allocatorIhE11_M_max_sizeEv = comdat any

$_ZN9__gnu_cxx17__normal_iteratorIPhSt6vectorIhSaIhEEEC2ERKS1_ = comdat any

$_ZNSt16allocator_traitsISaIhEE8allocateERS0_m = comdat any

$_ZNSt15__new_allocatorIhE8allocateEmPKv = comdat any

$_ZSt12__relocate_aIPhS0_SaIhEET0_T_S3_S2_RT1_ = comdat any

$_ZSt14__relocate_a_1IhhENSt9enable_ifIXsr3std24__is_bitwise_relocatableIT_EE5valueEPS1_E4typeES2_S2_S2_RSaIT0_E = comdat any

$_ZSt12__niter_baseIPhET_S1_ = comdat any

$_ZNSt16allocator_traitsISaIhEE10deallocateERS0_Phm = comdat any

$_ZNSt15__new_allocatorIhE10deallocateEPhm = comdat any

$_ZNK9__gnu_cxx17__normal_iteratorIPhSt6vectorIhSaIhEEEmiEl = comdat any

$_ZNK9__gnu_cxx17__normal_iteratorIPhSt6vectorIhSaIhEEEdeEv = comdat any

$_ZNSt16allocator_traitsISaIiEE9constructIiJRKiEEEvRS0_PT_DpOT0_ = comdat any

$_ZNSt6vectorIiSaIiEE17_M_realloc_insertIJRKiEEEvN9__gnu_cxx17__normal_iteratorIPiS1_EEDpOT_ = comdat any

$_ZNSt6vectorIiSaIiEE3endEv = comdat any

$_ZNSt15__new_allocatorIiE9constructIiJRKiEEEvPT_DpOT0_ = comdat any

$_ZNKSt6vectorIiSaIiEE12_M_check_lenEmPKc = comdat any

$_ZN9__gnu_cxxmiIPiSt6vectorIiSaIiEEEENS_17__normal_iteratorIT_T0_E15difference_typeERKS8_SB_ = comdat any

$_ZNSt6vectorIiSaIiEE5beginEv = comdat any

$_ZNSt12_Vector_baseIiSaIiEE11_M_allocateEm = comdat any

$_ZNSt6vectorIiSaIiEE11_S_relocateEPiS2_S2_RS0_ = comdat any

$_ZNK9__gnu_cxx17__normal_iteratorIPiSt6vectorIiSaIiEEE4baseEv = comdat any

$_ZNSt12_Vector_baseIiSaIiEE19_M_get_Tp_allocatorEv = comdat any

$_ZNSt12_Vector_baseIiSaIiEE13_M_deallocateEPim = comdat any

$_ZNKSt6vectorIiSaIiEE8max_sizeEv = comdat any

$_ZNKSt6vectorIiSaIiEE4sizeEv = comdat any

$_ZNSt6vectorIiSaIiEE11_S_max_sizeERKS0_ = comdat any

$_ZNKSt12_Vector_baseIiSaIiEE19_M_get_Tp_allocatorEv = comdat any

$_ZNSt16allocator_traitsISaIiEE8max_sizeERKS0_ = comdat any

$_ZNKSt15__new_allocatorIiE8max_sizeEv = comdat any

$_ZNKSt15__new_allocatorIiE11_M_max_sizeEv = comdat any

$_ZN9__gnu_cxx17__normal_iteratorIPiSt6vectorIiSaIiEEEC2ERKS1_ = comdat any

$_ZNSt16allocator_traitsISaIiEE8allocateERS0_m = comdat any

$_ZNSt15__new_allocatorIiE8allocateEmPKv = comdat any

$_ZSt12__relocate_aIPiS0_SaIiEET0_T_S3_S2_RT1_ = comdat any

$_ZSt14__relocate_a_1IiiENSt9enable_ifIXsr3std24__is_bitwise_relocatableIT_EE5valueEPS1_E4typeES2_S2_S2_RSaIT0_E = comdat any

$_ZSt12__niter_baseIPiET_S1_ = comdat any

$_ZNSt16allocator_traitsISaIiEE10deallocateERS0_Pim = comdat any

$_ZNSt15__new_allocatorIiE10deallocateEPim = comdat any

$_ZNSt16allocator_traitsISaIjEE9constructIjJRKjEEEvRS0_PT_DpOT0_ = comdat any

$_ZNSt6vectorIjSaIjEE17_M_realloc_insertIJRKjEEEvN9__gnu_cxx17__normal_iteratorIPjS1_EEDpOT_ = comdat any

$_ZNSt6vectorIjSaIjEE3endEv = comdat any

$_ZNSt15__new_allocatorIjE9constructIjJRKjEEEvPT_DpOT0_ = comdat any

$_ZNKSt6vectorIjSaIjEE12_M_check_lenEmPKc = comdat any

$_ZN9__gnu_cxxmiIPjSt6vectorIjSaIjEEEENS_17__normal_iteratorIT_T0_E15difference_typeERKS8_SB_ = comdat any

$_ZNSt6vectorIjSaIjEE5beginEv = comdat any

$_ZNSt12_Vector_baseIjSaIjEE11_M_allocateEm = comdat any

$_ZNSt6vectorIjSaIjEE11_S_relocateEPjS2_S2_RS0_ = comdat any

$_ZNK9__gnu_cxx17__normal_iteratorIPjSt6vectorIjSaIjEEE4baseEv = comdat any

$_ZNSt12_Vector_baseIjSaIjEE19_M_get_Tp_allocatorEv = comdat any

$_ZNSt12_Vector_baseIjSaIjEE13_M_deallocateEPjm = comdat any

$_ZNKSt6vectorIjSaIjEE8max_sizeEv = comdat any

$_ZNKSt6vectorIjSaIjEE4sizeEv = comdat any

$_ZNSt6vectorIjSaIjEE11_S_max_sizeERKS0_ = comdat any

$_ZNKSt12_Vector_baseIjSaIjEE19_M_get_Tp_allocatorEv = comdat any

$_ZNSt16allocator_traitsISaIjEE8max_sizeERKS0_ = comdat any

$_ZNKSt15__new_allocatorIjE8max_sizeEv = comdat any

$_ZNKSt15__new_allocatorIjE11_M_max_sizeEv = comdat any

$_ZN9__gnu_cxx17__normal_iteratorIPjSt6vectorIjSaIjEEEC2ERKS1_ = comdat any

$_ZNSt16allocator_traitsISaIjEE8allocateERS0_m = comdat any

$_ZNSt15__new_allocatorIjE8allocateEmPKv = comdat any

$_ZSt12__relocate_aIPjS0_SaIjEET0_T_S3_S2_RT1_ = comdat any

$_ZSt14__relocate_a_1IjjENSt9enable_ifIXsr3std24__is_bitwise_relocatableIT_EE5valueEPS1_E4typeES2_S2_S2_RSaIT0_E = comdat any

$_ZSt12__niter_baseIPjET_S1_ = comdat any

$_ZNSt16allocator_traitsISaIjEE10deallocateERS0_Pjm = comdat any

$_ZNSt15__new_allocatorIjE10deallocateEPjm = comdat any

$_ZNSt6vectorIN7tinyobj14vertex_index_tESaIS1_EEC2ERKS3_ = comdat any

$_ZN9__gnu_cxx14__alloc_traitsISaIN7tinyobj14vertex_index_tEES2_E17_S_select_on_copyERKS3_ = comdat any

$_ZNKSt12_Vector_baseIN7tinyobj14vertex_index_tESaIS1_EE19_M_get_Tp_allocatorEv = comdat any

$_ZNSt12_Vector_baseIN7tinyobj14vertex_index_tESaIS1_EEC2EmRKS2_ = comdat any

$_ZNSaIN7tinyobj14vertex_index_tEED2Ev = comdat any

$_ZSt22__uninitialized_copy_aIN9__gnu_cxx17__normal_iteratorIPKN7tinyobj14vertex_index_tESt6vectorIS3_SaIS3_EEEEPS3_S3_ET0_T_SC_SB_RSaIT1_E = comdat any

$_ZNKSt6vectorIN7tinyobj14vertex_index_tESaIS1_EE5beginEv = comdat any

$_ZNKSt6vectorIN7tinyobj14vertex_index_tESaIS1_EE3endEv = comdat any

$_ZNSt16allocator_traitsISaIN7tinyobj14vertex_index_tEEE37select_on_container_copy_constructionERKS2_ = comdat any

$_ZNSaIN7tinyobj14vertex_index_tEEC2ERKS1_ = comdat any

$_ZNSt15__new_allocatorIN7tinyobj14vertex_index_tEEC2ERKS2_ = comdat any

$_ZNSt12_Vector_baseIN7tinyobj14vertex_index_tESaIS1_EE12_Vector_implC2ERKS2_ = comdat any

$_ZNSt12_Vector_baseIN7tinyobj14vertex_index_tESaIS1_EE17_M_create_storageEm = comdat any

$_ZNSt12_Vector_baseIN7tinyobj14vertex_index_tESaIS1_EE11_M_allocateEm = comdat any

$_ZNSt16allocator_traitsISaIN7tinyobj14vertex_index_tEEE8allocateERS2_m = comdat any

$_ZNSt15__new_allocatorIN7tinyobj14vertex_index_tEE8allocateEmPKv = comdat any

$_ZNKSt15__new_allocatorIN7tinyobj14vertex_index_tEE11_M_max_sizeEv = comdat any

$_ZSt18uninitialized_copyIN9__gnu_cxx17__normal_iteratorIPKN7tinyobj14vertex_index_tESt6vectorIS3_SaIS3_EEEEPS3_ET0_T_SC_SB_ = comdat any

$_ZNSt20__uninitialized_copyILb0EE13__uninit_copyIN9__gnu_cxx17__normal_iteratorIPKN7tinyobj14vertex_index_tESt6vectorIS5_SaIS5_EEEEPS5_EET0_T_SE_SD_ = comdat any

$_ZSt16__do_uninit_copyIN9__gnu_cxx17__normal_iteratorIPKN7tinyobj14vertex_index_tESt6vectorIS3_SaIS3_EEEEPS3_ET0_T_SC_SB_ = comdat any

$_ZN9__gnu_cxxneIPKN7tinyobj14vertex_index_tESt6vectorIS2_SaIS2_EEEEbRKNS_17__normal_iteratorIT_T0_EESD_ = comdat any

$_ZSt10_ConstructIN7tinyobj14vertex_index_tEJRKS1_EEvPT_DpOT0_ = comdat any

$_ZNK9__gnu_cxx17__normal_iteratorIPKN7tinyobj14vertex_index_tESt6vectorIS2_SaIS2_EEEdeEv = comdat any

$_ZN9__gnu_cxx17__normal_iteratorIPKN7tinyobj14vertex_index_tESt6vectorIS2_SaIS2_EEEppEv = comdat any

$_ZNK9__gnu_cxx17__normal_iteratorIPKN7tinyobj14vertex_index_tESt6vectorIS2_SaIS2_EEE4baseEv = comdat any

$_ZN9__gnu_cxx17__normal_iteratorIPKN7tinyobj14vertex_index_tESt6vectorIS2_SaIS2_EEEC2ERKS4_ = comdat any

$_ZNSt16allocator_traitsISaIN7tinyobj14vertex_index_tEEE7destroyIS1_EEvRS2_PT_ = comdat any

$_ZNSt15__new_allocatorIN7tinyobj14vertex_index_tEE7destroyIS1_EEvPT_ = comdat any

$_ZNKSt6vectorIN7tinyobj5tag_tESaIS1_EE4sizeEv = comdat any

$_ZNKSt6vectorIN7tinyobj5tag_tESaIS1_EE8capacityEv = comdat any

$_ZNSt6vectorIN7tinyobj5tag_tESaIS1_EE20_M_allocate_and_copyIN9__gnu_cxx17__normal_iteratorIPKS1_S3_EEEEPS1_mT_SB_ = comdat any

$_ZNKSt6vectorIN7tinyobj5tag_tESaIS1_EE5beginEv = comdat any

$_ZNKSt6vectorIN7tinyobj5tag_tESaIS1_EE3endEv = comdat any

$_ZSt8_DestroyIPN7tinyobj5tag_tES1_EvT_S3_RSaIT0_E = comdat any

$_ZNSt12_Vector_baseIN7tinyobj5tag_tESaIS1_EE19_M_get_Tp_allocatorEv = comdat any

$_ZNSt12_Vector_baseIN7tinyobj5tag_tESaIS1_EE13_M_deallocateEPS1_m = comdat any

$_ZSt8_DestroyIN9__gnu_cxx17__normal_iteratorIPN7tinyobj5tag_tESt6vectorIS3_SaIS3_EEEES3_EvT_S9_RSaIT0_E = comdat any

$_ZSt4copyIN9__gnu_cxx17__normal_iteratorIPKN7tinyobj5tag_tESt6vectorIS3_SaIS3_EEEENS1_IPS3_S8_EEET0_T_SD_SC_ = comdat any

$_ZNSt6vectorIN7tinyobj5tag_tESaIS1_EE5beginEv = comdat any

$_ZNSt6vectorIN7tinyobj5tag_tESaIS1_EE3endEv = comdat any

$_ZSt4copyIPN7tinyobj5tag_tES2_ET0_T_S4_S3_ = comdat any

$_ZSt22__uninitialized_copy_aIPN7tinyobj5tag_tES2_S1_ET0_T_S4_S3_RSaIT1_E = comdat any

$_ZNSt12_Vector_baseIN7tinyobj5tag_tESaIS1_EE11_M_allocateEm = comdat any

$_ZSt22__uninitialized_copy_aIN9__gnu_cxx17__normal_iteratorIPKN7tinyobj5tag_tESt6vectorIS3_SaIS3_EEEEPS3_S3_ET0_T_SC_SB_RSaIT1_E = comdat any

$_ZNSt16allocator_traitsISaIN7tinyobj5tag_tEEE8allocateERS2_m = comdat any

$_ZNSt15__new_allocatorIN7tinyobj5tag_tEE8allocateEmPKv = comdat any

$_ZNKSt15__new_allocatorIN7tinyobj5tag_tEE11_M_max_sizeEv = comdat any

$_ZSt18uninitialized_copyIN9__gnu_cxx17__normal_iteratorIPKN7tinyobj5tag_tESt6vectorIS3_SaIS3_EEEEPS3_ET0_T_SC_SB_ = comdat any

$_ZNSt20__uninitialized_copyILb0EE13__uninit_copyIN9__gnu_cxx17__normal_iteratorIPKN7tinyobj5tag_tESt6vectorIS5_SaIS5_EEEEPS5_EET0_T_SE_SD_ = comdat any

$_ZSt16__do_uninit_copyIN9__gnu_cxx17__normal_iteratorIPKN7tinyobj5tag_tESt6vectorIS3_SaIS3_EEEEPS3_ET0_T_SC_SB_ = comdat any

$_ZN9__gnu_cxxneIPKN7tinyobj5tag_tESt6vectorIS2_SaIS2_EEEEbRKNS_17__normal_iteratorIT_T0_EESD_ = comdat any

$_ZSt10_ConstructIN7tinyobj5tag_tEJRKS1_EEvPT_DpOT0_ = comdat any

$_ZNK9__gnu_cxx17__normal_iteratorIPKN7tinyobj5tag_tESt6vectorIS2_SaIS2_EEEdeEv = comdat any

$_ZN9__gnu_cxx17__normal_iteratorIPKN7tinyobj5tag_tESt6vectorIS2_SaIS2_EEEppEv = comdat any

$_ZSt8_DestroyIPN7tinyobj5tag_tEEvT_S3_ = comdat any

$_ZNK9__gnu_cxx17__normal_iteratorIPKN7tinyobj5tag_tESt6vectorIS2_SaIS2_EEE4baseEv = comdat any

$_ZN7tinyobj5tag_tC2ERKS0_ = comdat any

$_ZNSt6vectorIiSaIiEEC2ERKS1_ = comdat any

$_ZNSt6vectorIfSaIfEEC2ERKS1_ = comdat any

$_ZNSt6vectorINSt7__cxx1112basic_stringIcSt11char_traitsIcESaIcEEESaIS5_EEC2ERKS7_ = comdat any

$_ZNSt6vectorIiSaIiEED2Ev = comdat any

$_ZN9__gnu_cxx14__alloc_traitsISaIiEiE17_S_select_on_copyERKS1_ = comdat any

$_ZNSt12_Vector_baseIiSaIiEEC2EmRKS0_ = comdat any

$_ZNSaIiED2Ev = comdat any

$_ZSt22__uninitialized_copy_aIN9__gnu_cxx17__normal_iteratorIPKiSt6vectorIiSaIiEEEEPiiET0_T_SA_S9_RSaIT1_E = comdat any

$_ZNKSt6vectorIiSaIiEE5beginEv = comdat any

$_ZNKSt6vectorIiSaIiEE3endEv = comdat any

$_ZNSt12_Vector_baseIiSaIiEED2Ev = comdat any

$_ZNSt16allocator_traitsISaIiEE37select_on_container_copy_constructionERKS0_ = comdat any

$_ZNSaIiEC2ERKS_ = comdat any

$_ZNSt15__new_allocatorIiEC2ERKS0_ = comdat any

$_ZNSt12_Vector_baseIiSaIiEE12_Vector_implC2ERKS0_ = comdat any

$_ZNSt12_Vector_baseIiSaIiEE17_M_create_storageEm = comdat any

$_ZNSt12_Vector_baseIiSaIiEE12_Vector_implD2Ev = comdat any

$_ZNSt15__new_allocatorIiED2Ev = comdat any

$_ZSt18uninitialized_copyIN9__gnu_cxx17__normal_iteratorIPKiSt6vectorIiSaIiEEEEPiET0_T_SA_S9_ = comdat any

$_ZNSt20__uninitialized_copyILb1EE13__uninit_copyIN9__gnu_cxx17__normal_iteratorIPKiSt6vectorIiSaIiEEEEPiEET0_T_SC_SB_ = comdat any

$_ZSt4copyIN9__gnu_cxx17__normal_iteratorIPKiSt6vectorIiSaIiEEEEPiET0_T_SA_S9_ = comdat any

$_ZSt13__copy_move_aILb0EN9__gnu_cxx17__normal_iteratorIPKiSt6vectorIiSaIiEEEEPiET1_T0_SA_S9_ = comdat any

$_ZSt12__miter_baseIN9__gnu_cxx17__normal_iteratorIPKiSt6vectorIiSaIiEEEEET_S8_ = comdat any

$_ZSt12__niter_wrapIPiET_RKS1_S1_ = comdat any

$_ZSt14__copy_move_a1ILb0EPKiPiET1_T0_S4_S3_ = comdat any

$_ZSt12__niter_baseIPKiSt6vectorIiSaIiEEET_N9__gnu_cxx17__normal_iteratorIS5_T0_EE = comdat any

$_ZSt14__copy_move_a2ILb0EPKiPiET1_T0_S4_S3_ = comdat any

$_ZNSt11__copy_moveILb0ELb1ESt26random_access_iterator_tagE8__copy_mIiEEPT_PKS3_S6_S4_ = comdat any

$_ZNK9__gnu_cxx17__normal_iteratorIPKiSt6vectorIiSaIiEEE4baseEv = comdat any

$_ZN9__gnu_cxx17__normal_iteratorIPKiSt6vectorIiSaIiEEEC2ERKS2_ = comdat any

$_ZN9__gnu_cxx14__alloc_traitsISaIfEfE17_S_select_on_copyERKS1_ = comdat any

$_ZNKSt12_Vector_baseIfSaIfEE19_M_get_Tp_allocatorEv = comdat any

$_ZNSt12_Vector_baseIfSaIfEEC2EmRKS0_ = comdat any

$_ZNSaIfED2Ev = comdat any

$_ZSt22__uninitialized_copy_aIN9__gnu_cxx17__normal_iteratorIPKfSt6vectorIfSaIfEEEEPffET0_T_SA_S9_RSaIT1_E = comdat any

$_ZNKSt6vectorIfSaIfEE5beginEv = comdat any

$_ZNKSt6vectorIfSaIfEE3endEv = comdat any

$_ZNSt12_Vector_baseIfSaIfEE19_M_get_Tp_allocatorEv = comdat any

$_ZNSt12_Vector_baseIfSaIfEED2Ev = comdat any

$_ZNSt16allocator_traitsISaIfEE37select_on_container_copy_constructionERKS0_ = comdat any

$_ZNSaIfEC2ERKS_ = comdat any

$_ZNSt15__new_allocatorIfEC2ERKS0_ = comdat any

$_ZNSt12_Vector_baseIfSaIfEE12_Vector_implC2ERKS0_ = comdat any

$_ZNSt12_Vector_baseIfSaIfEE17_M_create_storageEm = comdat any

$_ZNSt12_Vector_baseIfSaIfEE12_Vector_implD2Ev = comdat any

$_ZNSt12_Vector_baseIfSaIfEE11_M_allocateEm = comdat any

$_ZNSt16allocator_traitsISaIfEE8allocateERS0_m = comdat any

$_ZNSt15__new_allocatorIfE8allocateEmPKv = comdat any

$_ZNKSt15__new_allocatorIfE11_M_max_sizeEv = comdat any

$_ZNSt15__new_allocatorIfED2Ev = comdat any

$_ZSt18uninitialized_copyIN9__gnu_cxx17__normal_iteratorIPKfSt6vectorIfSaIfEEEEPfET0_T_SA_S9_ = comdat any

$_ZNSt20__uninitialized_copyILb1EE13__uninit_copyIN9__gnu_cxx17__normal_iteratorIPKfSt6vectorIfSaIfEEEEPfEET0_T_SC_SB_ = comdat any

$_ZSt4copyIN9__gnu_cxx17__normal_iteratorIPKfSt6vectorIfSaIfEEEEPfET0_T_SA_S9_ = comdat any

$_ZSt13__copy_move_aILb0EN9__gnu_cxx17__normal_iteratorIPKfSt6vectorIfSaIfEEEEPfET1_T0_SA_S9_ = comdat any

$_ZSt12__miter_baseIN9__gnu_cxx17__normal_iteratorIPKfSt6vectorIfSaIfEEEEET_S8_ = comdat any

$_ZSt12__niter_wrapIPfET_RKS1_S1_ = comdat any

$_ZSt14__copy_move_a1ILb0EPKfPfET1_T0_S4_S3_ = comdat any

$_ZSt12__niter_baseIPKfSt6vectorIfSaIfEEET_N9__gnu_cxx17__normal_iteratorIS5_T0_EE = comdat any

$_ZSt12__niter_baseIPfET_S1_ = comdat any

$_ZSt14__copy_move_a2ILb0EPKfPfET1_T0_S4_S3_ = comdat any

$_ZNSt11__copy_moveILb0ELb1ESt26random_access_iterator_tagE8__copy_mIfEEPT_PKS3_S6_S4_ = comdat any

$_ZNK9__gnu_cxx17__normal_iteratorIPKfSt6vectorIfSaIfEEE4baseEv = comdat any

$_ZN9__gnu_cxx17__normal_iteratorIPKfSt6vectorIfSaIfEEEC2ERKS2_ = comdat any

$_ZNSt12_Vector_baseIfSaIfEE13_M_deallocateEPfm = comdat any

$_ZNSt16allocator_traitsISaIfEE10deallocateERS0_Pfm = comdat any

$_ZNSt15__new_allocatorIfE10deallocateEPfm = comdat any

$_ZN9__gnu_cxx14__alloc_traitsISaINSt7__cxx1112basic_stringIcSt11char_traitsIcESaIcEEEES6_E17_S_select_on_copyERKS7_ = comdat any

$_ZNKSt12_Vector_baseINSt7__cxx1112basic_stringIcSt11char_traitsIcESaIcEEESaIS5_EE19_M_get_Tp_allocatorEv = comdat any

$_ZNSt12_Vector_baseINSt7__cxx1112basic_stringIcSt11char_traitsIcESaIcEEESaIS5_EEC2EmRKS6_ = comdat any

$_ZNSaINSt7__cxx1112basic_stringIcSt11char_traitsIcESaIcEEEED2Ev = comdat any

$_ZSt22__uninitialized_copy_aIN9__gnu_cxx17__normal_iteratorIPKNSt7__cxx1112basic_stringIcSt11char_traitsIcESaIcEEESt6vectorIS7_SaIS7_EEEEPS7_S7_ET0_T_SG_SF_RSaIT1_E = comdat any

$_ZNKSt6vectorINSt7__cxx1112basic_stringIcSt11char_traitsIcESaIcEEESaIS5_EE5beginEv = comdat any

$_ZNKSt6vectorINSt7__cxx1112basic_stringIcSt11char_traitsIcESaIcEEESaIS5_EE3endEv = comdat any

$_ZNSt12_Vector_baseINSt7__cxx1112basic_stringIcSt11char_traitsIcESaIcEEESaIS5_EE19_M_get_Tp_allocatorEv = comdat any

$_ZNSt12_Vector_baseINSt7__cxx1112basic_stringIcSt11char_traitsIcESaIcEEESaIS5_EED2Ev = comdat any

$_ZNSt16allocator_traitsISaINSt7__cxx1112basic_stringIcSt11char_traitsIcESaIcEEEEE37select_on_container_copy_constructionERKS6_ = comdat any

$_ZNSaINSt7__cxx1112basic_stringIcSt11char_traitsIcESaIcEEEEC2ERKS5_ = comdat any

$_ZNSt15__new_allocatorINSt7__cxx1112basic_stringIcSt11char_traitsIcESaIcEEEEC2ERKS6_ = comdat any

$_ZNSt12_Vector_baseINSt7__cxx1112basic_stringIcSt11char_traitsIcESaIcEEESaIS5_EE12_Vector_implC2ERKS6_ = comdat any

$_ZNSt12_Vector_baseINSt7__cxx1112basic_stringIcSt11char_traitsIcESaIcEEESaIS5_EE17_M_create_storageEm = comdat any

$_ZNSt12_Vector_baseINSt7__cxx1112basic_stringIcSt11char_traitsIcESaIcEEESaIS5_EE12_Vector_implD2Ev = comdat any

$_ZNSt12_Vector_baseINSt7__cxx1112basic_stringIcSt11char_traitsIcESaIcEEESaIS5_EE11_M_allocateEm = comdat any

$_ZNSt16allocator_traitsISaINSt7__cxx1112basic_stringIcSt11char_traitsIcESaIcEEEEE8allocateERS6_m = comdat any

$_ZNSt15__new_allocatorINSt7__cxx1112basic_stringIcSt11char_traitsIcESaIcEEEE8allocateEmPKv = comdat any

$_ZNKSt15__new_allocatorINSt7__cxx1112basic_stringIcSt11char_traitsIcESaIcEEEE11_M_max_sizeEv = comdat any

$_ZNSt15__new_allocatorINSt7__cxx1112basic_stringIcSt11char_traitsIcESaIcEEEED2Ev = comdat any

$_ZSt18uninitialized_copyIN9__gnu_cxx17__normal_iteratorIPKNSt7__cxx1112basic_stringIcSt11char_traitsIcESaIcEEESt6vectorIS7_SaIS7_EEEEPS7_ET0_T_SG_SF_ = comdat any

$_ZNSt20__uninitialized_copyILb0EE13__uninit_copyIN9__gnu_cxx17__normal_iteratorIPKNSt7__cxx1112basic_stringIcSt11char_traitsIcESaIcEEESt6vectorIS9_SaIS9_EEEEPS9_EET0_T_SI_SH_ = comdat any

$_ZSt16__do_uninit_copyIN9__gnu_cxx17__normal_iteratorIPKNSt7__cxx1112basic_stringIcSt11char_traitsIcESaIcEEESt6vectorIS7_SaIS7_EEEEPS7_ET0_T_SG_SF_ = comdat any

$_ZN9__gnu_cxxneIPKNSt7__cxx1112basic_stringIcSt11char_traitsIcESaIcEEESt6vectorIS6_SaIS6_EEEEbRKNS_17__normal_iteratorIT_T0_EESH_ = comdat any

$_ZSt10_ConstructINSt7__cxx1112basic_stringIcSt11char_traitsIcESaIcEEEJRKS5_EEvPT_DpOT0_ = comdat any

$_ZNK9__gnu_cxx17__normal_iteratorIPKNSt7__cxx1112basic_stringIcSt11char_traitsIcESaIcEEESt6vectorIS6_SaIS6_EEEdeEv = comdat any

$_ZN9__gnu_cxx17__normal_iteratorIPKNSt7__cxx1112basic_stringIcSt11char_traitsIcESaIcEEESt6vectorIS6_SaIS6_EEEppEv = comdat any

$_ZSt8_DestroyIPNSt7__cxx1112basic_stringIcSt11char_traitsIcESaIcEEEEvT_S7_ = comdat any

$_ZNK9__gnu_cxx17__normal_iteratorIPKNSt7__cxx1112basic_stringIcSt11char_traitsIcESaIcEEESt6vectorIS6_SaIS6_EEE4baseEv = comdat any

$_ZNSt12_Destroy_auxILb0EE9__destroyIPNSt7__cxx1112basic_stringIcSt11char_traitsIcESaIcEEEEEvT_S9_ = comdat any

$_ZSt8_DestroyINSt7__cxx1112basic_stringIcSt11char_traitsIcESaIcEEEEvPT_ = comdat any

$_ZN9__gnu_cxx17__normal_iteratorIPKNSt7__cxx1112basic_stringIcSt11char_traitsIcESaIcEEESt6vectorIS6_SaIS6_EEEC2ERKS8_ = comdat any

$_ZNSt12_Vector_baseINSt7__cxx1112basic_stringIcSt11char_traitsIcESaIcEEESaIS5_EE13_M_deallocateEPS5_m = comdat any

$_ZNSt16allocator_traitsISaINSt7__cxx1112basic_stringIcSt11char_traitsIcESaIcEEEEE10deallocateERS6_PS5_m = comdat any

$_ZNSt15__new_allocatorINSt7__cxx1112basic_stringIcSt11char_traitsIcESaIcEEEE10deallocateEPS5_m = comdat any

$_ZSt8_DestroyIPiiEvT_S1_RSaIT0_E = comdat any

$_ZSt8_DestroyIPiEvT_S1_ = comdat any

$_ZNSt12_Destroy_auxILb1EE9__destroyIPiEEvT_S3_ = comdat any

$_ZNSt12_Destroy_auxILb0EE9__destroyIPN7tinyobj5tag_tEEEvT_S5_ = comdat any

$_ZSt8_DestroyIN7tinyobj5tag_tEEvPT_ = comdat any

$_ZN9__gnu_cxx17__normal_iteratorIPKN7tinyobj5tag_tESt6vectorIS2_SaIS2_EEEC2ERKS4_ = comdat any

$_ZNSt16allocator_traitsISaIN7tinyobj5tag_tEEE10deallocateERS2_PS1_m = comdat any

$_ZNSt15__new_allocatorIN7tinyobj5tag_tEE10deallocateEPS1_m = comdat any

$_ZSt8_DestroyIN9__gnu_cxx17__normal_iteratorIPN7tinyobj5tag_tESt6vectorIS3_SaIS3_EEEEEvT_S9_ = comdat any

$_ZNSt12_Destroy_auxILb0EE9__destroyIN9__gnu_cxx17__normal_iteratorIPN7tinyobj5tag_tESt6vectorIS5_SaIS5_EEEEEEvT_SB_ = comdat any

$_ZN9__gnu_cxxneIPN7tinyobj5tag_tESt6vectorIS2_SaIS2_EEEEbRKNS_17__normal_iteratorIT_T0_EESC_ = comdat any

$_ZNK9__gnu_cxx17__normal_iteratorIPN7tinyobj5tag_tESt6vectorIS2_SaIS2_EEEdeEv = comdat any

$_ZN9__gnu_cxx17__normal_iteratorIPN7tinyobj5tag_tESt6vectorIS2_SaIS2_EEEppEv = comdat any

$_ZNK9__gnu_cxx17__normal_iteratorIPN7tinyobj5tag_tESt6vectorIS2_SaIS2_EEE4baseEv = comdat any

$_ZSt13__copy_move_aILb0EN9__gnu_cxx17__normal_iteratorIPKN7tinyobj5tag_tESt6vectorIS3_SaIS3_EEEENS1_IPS3_S8_EEET1_T0_SD_SC_ = comdat any

$_ZSt12__miter_baseIN9__gnu_cxx17__normal_iteratorIPKN7tinyobj5tag_tESt6vectorIS3_SaIS3_EEEEET_SA_ = comdat any

$_ZSt12__niter_wrapIN9__gnu_cxx17__normal_iteratorIPN7tinyobj5tag_tESt6vectorIS3_SaIS3_EEEES4_ET_S9_T0_ = comdat any

$_ZSt14__copy_move_a1ILb0EPKN7tinyobj5tag_tEPS1_ET1_T0_S6_S5_ = comdat any

$_ZSt12__niter_baseIPKN7tinyobj5tag_tESt6vectorIS1_SaIS1_EEET_N9__gnu_cxx17__normal_iteratorIS7_T0_EE = comdat any

$_ZSt12__niter_baseIPN7tinyobj5tag_tESt6vectorIS1_SaIS1_EEET_N9__gnu_cxx17__normal_iteratorIS6_T0_EE = comdat any

$_ZNK9__gnu_cxx17__normal_iteratorIPN7tinyobj5tag_tESt6vectorIS2_SaIS2_EEEplEl = comdat any

$_ZN9__gnu_cxx17__normal_iteratorIPN7tinyobj5tag_tESt6vectorIS2_SaIS2_EEEC2ERKS3_ = comdat any

$_ZSt14__copy_move_a2ILb0EPKN7tinyobj5tag_tEPS1_ET1_T0_S6_S5_ = comdat any

$_ZNSt11__copy_moveILb0ELb0ESt26random_access_iterator_tagE8__copy_mIPKN7tinyobj5tag_tEPS4_EET0_T_S9_S8_ = comdat any

$_ZN7tinyobj5tag_taSERKS0_ = comdat any

$_ZNSt6vectorIiSaIiEEaSERKS1_ = comdat any

$_ZNSt6vectorIfSaIfEEaSERKS1_ = comdat any

$_ZNSt6vectorINSt7__cxx1112basic_stringIcSt11char_traitsIcESaIcEEESaIS5_EEaSERKS7_ = comdat any

$_ZNKSt6vectorIiSaIiEE8capacityEv = comdat any

$_ZNSt6vectorIiSaIiEE20_M_allocate_and_copyIN9__gnu_cxx17__normal_iteratorIPKiS1_EEEEPimT_S9_ = comdat any

$_ZSt8_DestroyIN9__gnu_cxx17__normal_iteratorIPiSt6vectorIiSaIiEEEEiEvT_S7_RSaIT0_E = comdat any

$_ZSt4copyIN9__gnu_cxx17__normal_iteratorIPKiSt6vectorIiSaIiEEEENS1_IPiS6_EEET0_T_SB_SA_ = comdat any

$_ZSt4copyIPiS0_ET0_T_S2_S1_ = comdat any

$_ZSt22__uninitialized_copy_aIPiS0_iET0_T_S2_S1_RSaIT1_E = comdat any

$_ZSt8_DestroyIN9__gnu_cxx17__normal_iteratorIPiSt6vectorIiSaIiEEEEEvT_S7_ = comdat any

$_ZNSt12_Destroy_auxILb1EE9__destroyIN9__gnu_cxx17__normal_iteratorIPiSt6vectorIiSaIiEEEEEEvT_S9_ = comdat any

$_ZSt13__copy_move_aILb0EN9__gnu_cxx17__normal_iteratorIPKiSt6vectorIiSaIiEEEENS1_IPiS6_EEET1_T0_SB_SA_ = comdat any

$_ZSt12__niter_wrapIN9__gnu_cxx17__normal_iteratorIPiSt6vectorIiSaIiEEEES2_ET_S7_T0_ = comdat any

$_ZSt12__niter_baseIPiSt6vectorIiSaIiEEET_N9__gnu_cxx17__normal_iteratorIS4_T0_EE = comdat any

$_ZNK9__gnu_cxx17__normal_iteratorIPiSt6vectorIiSaIiEEEplEl = comdat any

$_ZSt13__copy_move_aILb0EPiS0_ET1_T0_S2_S1_ = comdat any

$_ZSt12__miter_baseIPiET_S1_ = comdat any

$_ZSt14__copy_move_a1ILb0EPiS0_ET1_T0_S2_S1_ = comdat any

$_ZSt14__copy_move_a2ILb0EPiS0_ET1_T0_S2_S1_ = comdat any

$_ZSt18uninitialized_copyIPiS0_ET0_T_S2_S1_ = comdat any

$_ZNSt20__uninitialized_copyILb1EE13__uninit_copyIPiS2_EET0_T_S4_S3_ = comdat any

$_ZNKSt6vectorIfSaIfEE8capacityEv = comdat any

$_ZNSt6vectorIfSaIfEE20_M_allocate_and_copyIN9__gnu_cxx17__normal_iteratorIPKfS1_EEEEPfmT_S9_ = comdat any

$_ZSt8_DestroyIPffEvT_S1_RSaIT0_E = comdat any

$_ZSt8_DestroyIN9__gnu_cxx17__normal_iteratorIPfSt6vectorIfSaIfEEEEfEvT_S7_RSaIT0_E = comdat any

$_ZSt4copyIN9__gnu_cxx17__normal_iteratorIPKfSt6vectorIfSaIfEEEENS1_IPfS6_EEET0_T_SB_SA_ = comdat any

$_ZNSt6vectorIfSaIfEE5beginEv = comdat any

$_ZNSt6vectorIfSaIfEE3endEv = comdat any

$_ZSt4copyIPfS0_ET0_T_S2_S1_ = comdat any

$_ZSt22__uninitialized_copy_aIPfS0_fET0_T_S2_S1_RSaIT1_E = comdat any

$_ZSt8_DestroyIPfEvT_S1_ = comdat any

$_ZNSt12_Destroy_auxILb1EE9__destroyIPfEEvT_S3_ = comdat any

$_ZSt8_DestroyIN9__gnu_cxx17__normal_iteratorIPfSt6vectorIfSaIfEEEEEvT_S7_ = comdat any

$_ZNSt12_Destroy_auxILb1EE9__destroyIN9__gnu_cxx17__normal_iteratorIPfSt6vectorIfSaIfEEEEEEvT_S9_ = comdat any

$_ZSt13__copy_move_aILb0EN9__gnu_cxx17__normal_iteratorIPKfSt6vectorIfSaIfEEEENS1_IPfS6_EEET1_T0_SB_SA_ = comdat any

$_ZSt12__niter_wrapIN9__gnu_cxx17__normal_iteratorIPfSt6vectorIfSaIfEEEES2_ET_S7_T0_ = comdat any

$_ZSt12__niter_baseIPfSt6vectorIfSaIfEEET_N9__gnu_cxx17__normal_iteratorIS4_T0_EE = comdat any

$_ZNK9__gnu_cxx17__normal_iteratorIPfSt6vectorIfSaIfEEEplEl = comdat any

$_ZN9__gnu_cxx17__normal_iteratorIPfSt6vectorIfSaIfEEEC2ERKS1_ = comdat any

$_ZNK9__gnu_cxx17__normal_iteratorIPfSt6vectorIfSaIfEEE4baseEv = comdat any

$_ZSt13__copy_move_aILb0EPfS0_ET1_T0_S2_S1_ = comdat any

$_ZSt12__miter_baseIPfET_S1_ = comdat any

$_ZSt14__copy_move_a1ILb0EPfS0_ET1_T0_S2_S1_ = comdat any

$_ZSt14__copy_move_a2ILb0EPfS0_ET1_T0_S2_S1_ = comdat any

$_ZSt18uninitialized_copyIPfS0_ET0_T_S2_S1_ = comdat any

$_ZNSt20__uninitialized_copyILb1EE13__uninit_copyIPfS2_EET0_T_S4_S3_ = comdat any

$_ZNKSt6vectorINSt7__cxx1112basic_stringIcSt11char_traitsIcESaIcEEESaIS5_EE8capacityEv = comdat any

$_ZNSt6vectorINSt7__cxx1112basic_stringIcSt11char_traitsIcESaIcEEESaIS5_EE20_M_allocate_and_copyIN9__gnu_cxx17__normal_iteratorIPKS5_S7_EEEEPS5_mT_SF_ = comdat any

$_ZSt8_DestroyIPNSt7__cxx1112basic_stringIcSt11char_traitsIcESaIcEEES5_EvT_S7_RSaIT0_E = comdat any

$_ZSt8_DestroyIN9__gnu_cxx17__normal_iteratorIPNSt7__cxx1112basic_stringIcSt11char_traitsIcESaIcEEESt6vectorIS7_SaIS7_EEEES7_EvT_SD_RSaIT0_E = comdat any

$_ZSt4copyIN9__gnu_cxx17__normal_iteratorIPKNSt7__cxx1112basic_stringIcSt11char_traitsIcESaIcEEESt6vectorIS7_SaIS7_EEEENS1_IPS7_SC_EEET0_T_SH_SG_ = comdat any

$_ZNSt6vectorINSt7__cxx1112basic_stringIcSt11char_traitsIcESaIcEEESaIS5_EE5beginEv = comdat any

$_ZNSt6vectorINSt7__cxx1112basic_stringIcSt11char_traitsIcESaIcEEESaIS5_EE3endEv = comdat any

$_ZSt4copyIPNSt7__cxx1112basic_stringIcSt11char_traitsIcESaIcEEES6_ET0_T_S8_S7_ = comdat any

$_ZSt22__uninitialized_copy_aIPNSt7__cxx1112basic_stringIcSt11char_traitsIcESaIcEEES6_S5_ET0_T_S8_S7_RSaIT1_E = comdat any

$_ZSt8_DestroyIN9__gnu_cxx17__normal_iteratorIPNSt7__cxx1112basic_stringIcSt11char_traitsIcESaIcEEESt6vectorIS7_SaIS7_EEEEEvT_SD_ = comdat any

$_ZNSt12_Destroy_auxILb0EE9__destroyIN9__gnu_cxx17__normal_iteratorIPNSt7__cxx1112basic_stringIcSt11char_traitsIcESaIcEEESt6vectorIS9_SaIS9_EEEEEEvT_SF_ = comdat any

$_ZN9__gnu_cxxneIPNSt7__cxx1112basic_stringIcSt11char_traitsIcESaIcEEESt6vectorIS6_SaIS6_EEEEbRKNS_17__normal_iteratorIT_T0_EESG_ = comdat any

$_ZNK9__gnu_cxx17__normal_iteratorIPNSt7__cxx1112basic_stringIcSt11char_traitsIcESaIcEEESt6vectorIS6_SaIS6_EEEdeEv = comdat any

$_ZN9__gnu_cxx17__normal_iteratorIPNSt7__cxx1112basic_stringIcSt11char_traitsIcESaIcEEESt6vectorIS6_SaIS6_EEEppEv = comdat any

$_ZNK9__gnu_cxx17__normal_iteratorIPNSt7__cxx1112basic_stringIcSt11char_traitsIcESaIcEEESt6vectorIS6_SaIS6_EEE4baseEv = comdat any

$_ZSt13__copy_move_aILb0EN9__gnu_cxx17__normal_iteratorIPKNSt7__cxx1112basic_stringIcSt11char_traitsIcESaIcEEESt6vectorIS7_SaIS7_EEEENS1_IPS7_SC_EEET1_T0_SH_SG_ = comdat any

$_ZSt12__miter_baseIN9__gnu_cxx17__normal_iteratorIPKNSt7__cxx1112basic_stringIcSt11char_traitsIcESaIcEEESt6vectorIS7_SaIS7_EEEEET_SE_ = comdat any

$_ZSt12__niter_wrapIN9__gnu_cxx17__normal_iteratorIPNSt7__cxx1112basic_stringIcSt11char_traitsIcESaIcEEESt6vectorIS7_SaIS7_EEEES8_ET_SD_T0_ = comdat any

$_ZSt14__copy_move_a1ILb0EPKNSt7__cxx1112basic_stringIcSt11char_traitsIcESaIcEEEPS5_ET1_T0_SA_S9_ = comdat any

$_ZSt12__niter_baseIPKNSt7__cxx1112basic_stringIcSt11char_traitsIcESaIcEEESt6vectorIS5_SaIS5_EEET_N9__gnu_cxx17__normal_iteratorISB_T0_EE = comdat any

$_ZSt12__niter_baseIPNSt7__cxx1112basic_stringIcSt11char_traitsIcESaIcEEESt6vectorIS5_SaIS5_EEET_N9__gnu_cxx17__normal_iteratorISA_T0_EE = comdat any

$_ZNK9__gnu_cxx17__normal_iteratorIPNSt7__cxx1112basic_stringIcSt11char_traitsIcESaIcEEESt6vectorIS6_SaIS6_EEEplEl = comdat any

$_ZN9__gnu_cxx17__normal_iteratorIPNSt7__cxx1112basic_stringIcSt11char_traitsIcESaIcEEESt6vectorIS6_SaIS6_EEEC2ERKS7_ = comdat any

$_ZSt14__copy_move_a2ILb0EPKNSt7__cxx1112basic_stringIcSt11char_traitsIcESaIcEEEPS5_ET1_T0_SA_S9_ = comdat any

$_ZNSt11__copy_moveILb0ELb0ESt26random_access_iterator_tagE8__copy_mIPKNSt7__cxx1112basic_stringIcSt11char_traitsIcESaIcEEEPS8_EET0_T_SD_SC_ = comdat any

$_ZSt13__copy_move_aILb0EPNSt7__cxx1112basic_stringIcSt11char_traitsIcESaIcEEES6_ET1_T0_S8_S7_ = comdat any

$_ZSt12__miter_baseIPNSt7__cxx1112basic_stringIcSt11char_traitsIcESaIcEEEET_S7_ = comdat any

$_ZSt12__niter_wrapIPNSt7__cxx1112basic_stringIcSt11char_traitsIcESaIcEEEET_RKS7_S7_ = comdat any

$_ZSt14__copy_move_a1ILb0EPNSt7__cxx1112basic_stringIcSt11char_traitsIcESaIcEEES6_ET1_T0_S8_S7_ = comdat any

$_ZSt12__niter_baseIPNSt7__cxx1112basic_stringIcSt11char_traitsIcESaIcEEEET_S7_ = comdat any

$_ZSt14__copy_move_a2ILb0EPNSt7__cxx1112basic_stringIcSt11char_traitsIcESaIcEEES6_ET1_T0_S8_S7_ = comdat any

$_ZNSt11__copy_moveILb0ELb0ESt26random_access_iterator_tagE8__copy_mIPNSt7__cxx1112basic_stringIcSt11char_traitsIcESaIcEEES9_EET0_T_SB_SA_ = comdat any

$_ZSt18uninitialized_copyIPNSt7__cxx1112basic_stringIcSt11char_traitsIcESaIcEEES6_ET0_T_S8_S7_ = comdat any

$_ZNSt20__uninitialized_copyILb0EE13__uninit_copyIPNSt7__cxx1112basic_stringIcSt11char_traitsIcESaIcEEES8_EET0_T_SA_S9_ = comdat any

$_ZSt16__do_uninit_copyIPNSt7__cxx1112basic_stringIcSt11char_traitsIcESaIcEEES6_ET0_T_S8_S7_ = comdat any

$_ZSt10_ConstructINSt7__cxx1112basic_stringIcSt11char_traitsIcESaIcEEEJRS5_EEvPT_DpOT0_ = comdat any

$_ZSt13__copy_move_aILb0EPN7tinyobj5tag_tES2_ET1_T0_S4_S3_ = comdat any

$_ZSt12__miter_baseIPN7tinyobj5tag_tEET_S3_ = comdat any

$_ZSt12__niter_wrapIPN7tinyobj5tag_tEET_RKS3_S3_ = comdat any

$_ZSt14__copy_move_a1ILb0EPN7tinyobj5tag_tES2_ET1_T0_S4_S3_ = comdat any

$_ZSt12__niter_baseIPN7tinyobj5tag_tEET_S3_ = comdat any

$_ZSt14__copy_move_a2ILb0EPN7tinyobj5tag_tES2_ET1_T0_S4_S3_ = comdat any

$_ZNSt11__copy_moveILb0ELb0ESt26random_access_iterator_tagE8__copy_mIPN7tinyobj5tag_tES5_EET0_T_S7_S6_ = comdat any

$_ZSt18uninitialized_copyIPN7tinyobj5tag_tES2_ET0_T_S4_S3_ = comdat any

$_ZNSt20__uninitialized_copyILb0EE13__uninit_copyIPN7tinyobj5tag_tES4_EET0_T_S6_S5_ = comdat any

$_ZSt16__do_uninit_copyIPN7tinyobj5tag_tES2_ET0_T_S4_S3_ = comdat any

$_ZSt10_ConstructIN7tinyobj5tag_tEJRS1_EEvPT_DpOT0_ = comdat any

$_ZN9__gnu_cxxeqIPKN7tinyobj8__line_tESt6vectorIS2_SaIS2_EEEEbRKNS_17__normal_iteratorIT_T0_EESD_ = comdat any

$_ZNKSt6vectorIN7tinyobj8__line_tESaIS1_EE5beginEv = comdat any

$_ZNKSt6vectorIN7tinyobj8__line_tESaIS1_EE3endEv = comdat any

$_ZNK9__gnu_cxx17__normal_iteratorIPKN7tinyobj8__line_tESt6vectorIS2_SaIS2_EEE4baseEv = comdat any

$_ZN9__gnu_cxx17__normal_iteratorIPKN7tinyobj8__line_tESt6vectorIS2_SaIS2_EEEC2ERKS4_ = comdat any

$_ZNSt6vectorIiSaIiEE12emplace_backIJiEEERiDpOT_ = comdat any

$_ZNSt16allocator_traitsISaIiEE9constructIiJiEEEvRS0_PT_DpOT0_ = comdat any

$_ZNSt6vectorIiSaIiEE17_M_realloc_insertIJiEEEvN9__gnu_cxx17__normal_iteratorIPiS1_EEDpOT_ = comdat any

$_ZNSt6vectorIiSaIiEE4backEv = comdat any

$_ZNSt15__new_allocatorIiE9constructIiJiEEEvPT_DpOT0_ = comdat any

$_ZNK9__gnu_cxx17__normal_iteratorIPiSt6vectorIiSaIiEEEmiEl = comdat any

$_ZNK9__gnu_cxx17__normal_iteratorIPiSt6vectorIiSaIiEEEdeEv = comdat any

$_ZN9__gnu_cxxeqIPKN7tinyobj10__points_tESt6vectorIS2_SaIS2_EEEEbRKNS_17__normal_iteratorIT_T0_EESD_ = comdat any

$_ZNKSt6vectorIN7tinyobj10__points_tESaIS1_EE5beginEv = comdat any

$_ZNKSt6vectorIN7tinyobj10__points_tESaIS1_EE3endEv = comdat any

$_ZNK9__gnu_cxx17__normal_iteratorIPKN7tinyobj10__points_tESt6vectorIS2_SaIS2_EEE4baseEv = comdat any

$_ZN9__gnu_cxx17__normal_iteratorIPKN7tinyobj10__points_tESt6vectorIS2_SaIS2_EEEC2ERKS4_ = comdat any

$_ZN7tinyobj6mesh_taSEOS0_ = comdat any

$_ZN7tinyobj7lines_taSEOS0_ = comdat any

$_ZN7tinyobj8points_taSEOS0_ = comdat any

$_ZNSt6vectorIN7tinyobj7index_tESaIS1_EEaSEOS3_ = comdat any

$_ZNSt6vectorIhSaIhEEaSEOS1_ = comdat any

$_ZNSt6vectorIiSaIiEEaSEOS1_ = comdat any

$_ZNSt6vectorIjSaIjEEaSEOS1_ = comdat any

$_ZNSt6vectorIN7tinyobj5tag_tESaIS1_EEaSEOS3_ = comdat any

$_ZNSt6vectorIN7tinyobj7index_tESaIS1_EE14_M_move_assignEOS3_St17integral_constantIbLb1EE = comdat any

$_ZNKSt12_Vector_baseIN7tinyobj7index_tESaIS1_EE13get_allocatorEv = comdat any

$_ZNSt6vectorIN7tinyobj7index_tESaIS1_EEC2ERKS2_ = comdat any

$_ZNSaIN7tinyobj7index_tEED2Ev = comdat any

$_ZNSt12_Vector_baseIN7tinyobj7index_tESaIS1_EE17_Vector_impl_data12_M_swap_dataERS4_ = comdat any

$_ZSt15__alloc_on_moveISaIN7tinyobj7index_tEEEvRT_S4_ = comdat any

$_ZNSt12_Vector_baseIN7tinyobj7index_tESaIS1_EE19_M_get_Tp_allocatorEv = comdat any

$_ZNKSt12_Vector_baseIN7tinyobj7index_tESaIS1_EE19_M_get_Tp_allocatorEv = comdat any

$_ZNSaIN7tinyobj7index_tEEC2ERKS1_ = comdat any

$_ZNSt15__new_allocatorIN7tinyobj7index_tEEC2ERKS2_ = comdat any

$_ZNSt12_Vector_baseIN7tinyobj7index_tESaIS1_EEC2ERKS2_ = comdat any

$_ZNSt12_Vector_baseIN7tinyobj7index_tESaIS1_EE12_Vector_implC2ERKS2_ = comdat any

$_ZNSt15__new_allocatorIN7tinyobj7index_tEED2Ev = comdat any

$_ZNSt12_Vector_baseIN7tinyobj7index_tESaIS1_EE17_Vector_impl_dataC2Ev = comdat any

$_ZNSt12_Vector_baseIN7tinyobj7index_tESaIS1_EE17_Vector_impl_data12_M_copy_dataERKS4_ = comdat any

$_ZNSt6vectorIhSaIhEE14_M_move_assignEOS1_St17integral_constantIbLb1EE = comdat any

$_ZNKSt12_Vector_baseIhSaIhEE13get_allocatorEv = comdat any

$_ZNSt6vectorIhSaIhEEC2ERKS0_ = comdat any

$_ZNSaIhED2Ev = comdat any

$_ZNSt12_Vector_baseIhSaIhEE17_Vector_impl_data12_M_swap_dataERS2_ = comdat any

$_ZSt15__alloc_on_moveISaIhEEvRT_S2_ = comdat any

$_ZNSt6vectorIhSaIhEED2Ev = comdat any

$_ZNSaIhEC2ERKS_ = comdat any

$_ZNSt15__new_allocatorIhEC2ERKS0_ = comdat any

$_ZNSt12_Vector_baseIhSaIhEEC2ERKS0_ = comdat any

$_ZNSt12_Vector_baseIhSaIhEE12_Vector_implC2ERKS0_ = comdat any

$_ZNSt15__new_allocatorIhED2Ev = comdat any

$_ZNSt12_Vector_baseIhSaIhEE17_Vector_impl_dataC2Ev = comdat any

$_ZNSt12_Vector_baseIhSaIhEE17_Vector_impl_data12_M_copy_dataERKS2_ = comdat any

$_ZSt8_DestroyIPhhEvT_S1_RSaIT0_E = comdat any

$_ZNSt12_Vector_baseIhSaIhEED2Ev = comdat any

$_ZSt8_DestroyIPhEvT_S1_ = comdat any

$_ZNSt12_Destroy_auxILb1EE9__destroyIPhEEvT_S3_ = comdat any

$_ZNSt12_Vector_baseIhSaIhEE12_Vector_implD2Ev = comdat any

$_ZNSt6vectorIiSaIiEE14_M_move_assignEOS1_St17integral_constantIbLb1EE = comdat any

$_ZNKSt12_Vector_baseIiSaIiEE13get_allocatorEv = comdat any

$_ZNSt6vectorIiSaIiEEC2ERKS0_ = comdat any

$_ZNSt12_Vector_baseIiSaIiEE17_Vector_impl_data12_M_swap_dataERS2_ = comdat any

$_ZSt15__alloc_on_moveISaIiEEvRT_S2_ = comdat any

$_ZNSt12_Vector_baseIiSaIiEEC2ERKS0_ = comdat any

$_ZNSt12_Vector_baseIiSaIiEE17_Vector_impl_dataC2Ev = comdat any

$_ZNSt12_Vector_baseIiSaIiEE17_Vector_impl_data12_M_copy_dataERKS2_ = comdat any

$_ZNSt6vectorIjSaIjEE14_M_move_assignEOS1_St17integral_constantIbLb1EE = comdat any

$_ZNKSt12_Vector_baseIjSaIjEE13get_allocatorEv = comdat any

$_ZNSt6vectorIjSaIjEEC2ERKS0_ = comdat any

$_ZNSaIjED2Ev = comdat any

$_ZNSt12_Vector_baseIjSaIjEE17_Vector_impl_data12_M_swap_dataERS2_ = comdat any

$_ZSt15__alloc_on_moveISaIjEEvRT_S2_ = comdat any

$_ZNSt6vectorIjSaIjEED2Ev = comdat any

$_ZNSaIjEC2ERKS_ = comdat any

$_ZNSt15__new_allocatorIjEC2ERKS0_ = comdat any

$_ZNSt12_Vector_baseIjSaIjEEC2ERKS0_ = comdat any

$_ZNSt12_Vector_baseIjSaIjEE12_Vector_implC2ERKS0_ = comdat any

$_ZNSt15__new_allocatorIjED2Ev = comdat any

$_ZNSt12_Vector_baseIjSaIjEE17_Vector_impl_dataC2Ev = comdat any

$_ZNSt12_Vector_baseIjSaIjEE17_Vector_impl_data12_M_copy_dataERKS2_ = comdat any

$_ZSt8_DestroyIPjjEvT_S1_RSaIT0_E = comdat any

$_ZNSt12_Vector_baseIjSaIjEED2Ev = comdat any

$_ZSt8_DestroyIPjEvT_S1_ = comdat any

$_ZNSt12_Destroy_auxILb1EE9__destroyIPjEEvT_S3_ = comdat any

$_ZNSt12_Vector_baseIjSaIjEE12_Vector_implD2Ev = comdat any

$_ZNSt6vectorIN7tinyobj5tag_tESaIS1_EE14_M_move_assignEOS3_St17integral_constantIbLb1EE = comdat any

$_ZNKSt12_Vector_baseIN7tinyobj5tag_tESaIS1_EE13get_allocatorEv = comdat any

$_ZNSt6vectorIN7tinyobj5tag_tESaIS1_EEC2ERKS2_ = comdat any

$_ZNSaIN7tinyobj5tag_tEED2Ev = comdat any

$_ZNSt12_Vector_baseIN7tinyobj5tag_tESaIS1_EE17_Vector_impl_data12_M_swap_dataERS4_ = comdat any

$_ZSt15__alloc_on_moveISaIN7tinyobj5tag_tEEEvRT_S4_ = comdat any

$_ZNKSt12_Vector_baseIN7tinyobj5tag_tESaIS1_EE19_M_get_Tp_allocatorEv = comdat any

$_ZNSaIN7tinyobj5tag_tEEC2ERKS1_ = comdat any

$_ZNSt15__new_allocatorIN7tinyobj5tag_tEEC2ERKS2_ = comdat any

$_ZNSt12_Vector_baseIN7tinyobj5tag_tESaIS1_EEC2ERKS2_ = comdat any

$_ZNSt12_Vector_baseIN7tinyobj5tag_tESaIS1_EE12_Vector_implC2ERKS2_ = comdat any

$_ZNSt15__new_allocatorIN7tinyobj5tag_tEED2Ev = comdat any

$_ZNSt12_Vector_baseIN7tinyobj5tag_tESaIS1_EE17_Vector_impl_dataC2Ev = comdat any

$_ZNSt12_Vector_baseIN7tinyobj5tag_tESaIS1_EE17_Vector_impl_data12_M_copy_dataERKS4_ = comdat any

$_ZN7tinyobj8points_tD2Ev = comdat any

$_ZN7tinyobj7lines_tD2Ev = comdat any

$_ZN7tinyobj6mesh_tD2Ev = comdat any

$_ZNSt6vectorIN7tinyobj8__line_tESaIS1_EE5clearEv = comdat any

$_ZNSt6vectorIN7tinyobj10__points_tESaIS1_EE5clearEv = comdat any

$_ZNSt6vectorIN7tinyobj8__line_tESaIS1_EE15_M_erase_at_endEPS1_ = comdat any

$_ZSt8_DestroyIPN7tinyobj8__line_tES1_EvT_S3_RSaIT0_E = comdat any

$_ZNSt12_Vector_baseIN7tinyobj8__line_tESaIS1_EE19_M_get_Tp_allocatorEv = comdat any

$_ZSt8_DestroyIPN7tinyobj8__line_tEEvT_S3_ = comdat any

$_ZNSt12_Destroy_auxILb0EE9__destroyIPN7tinyobj8__line_tEEEvT_S5_ = comdat any

$_ZSt8_DestroyIN7tinyobj8__line_tEEvPT_ = comdat any

$_ZNSt6vectorIN7tinyobj10__points_tESaIS1_EE15_M_erase_at_endEPS1_ = comdat any

$_ZSt8_DestroyIPN7tinyobj10__points_tES1_EvT_S3_RSaIT0_E = comdat any

$_ZNSt12_Vector_baseIN7tinyobj10__points_tESaIS1_EE19_M_get_Tp_allocatorEv = comdat any

$_ZSt8_DestroyIPN7tinyobj10__points_tEEvT_S3_ = comdat any

$_ZNSt12_Destroy_auxILb0EE9__destroyIPN7tinyobj10__points_tEEEvT_S5_ = comdat any

$_ZSt8_DestroyIN7tinyobj10__points_tEEvPT_ = comdat any

$_ZN7tinyobj9tag_sizesC2Ev = comdat any

$_ZNSt8_Rb_treeINSt7__cxx1112basic_stringIcSt11char_traitsIcESaIcEEESt4pairIKS5_iESt10_Select1stIS8_ESt4lessIS5_ESaIS8_EED2Ev = comdat any

$_ZNSt8_Rb_treeINSt7__cxx1112basic_stringIcSt11char_traitsIcESaIcEEESt4pairIKS5_iESt10_Select1stIS8_ESt4lessIS5_ESaIS8_EE8_M_eraseEPSt13_Rb_tree_nodeIS8_E = comdat any

$_ZNSt8_Rb_treeINSt7__cxx1112basic_stringIcSt11char_traitsIcESaIcEEESt4pairIKS5_iESt10_Select1stIS8_ESt4lessIS5_ESaIS8_EE8_M_beginEv = comdat any

$_ZNSt8_Rb_treeINSt7__cxx1112basic_stringIcSt11char_traitsIcESaIcEEESt4pairIKS5_iESt10_Select1stIS8_ESt4lessIS5_ESaIS8_EE13_Rb_tree_implISC_Lb1EED2Ev = comdat any

$_ZNSt8_Rb_treeINSt7__cxx1112basic_stringIcSt11char_traitsIcESaIcEEESt4pairIKS5_iESt10_Select1stIS8_ESt4lessIS5_ESaIS8_EE8_S_rightEPSt18_Rb_tree_node_base = comdat any

$_ZNSt8_Rb_treeINSt7__cxx1112basic_stringIcSt11char_traitsIcESaIcEEESt4pairIKS5_iESt10_Select1stIS8_ESt4lessIS5_ESaIS8_EE7_S_leftEPSt18_Rb_tree_node_base = comdat any

$_ZNSt8_Rb_treeINSt7__cxx1112basic_stringIcSt11char_traitsIcESaIcEEESt4pairIKS5_iESt10_Select1stIS8_ESt4lessIS5_ESaIS8_EE12_M_drop_nodeEPSt13_Rb_tree_nodeIS8_E = comdat any

$_ZNSt8_Rb_treeINSt7__cxx1112basic_stringIcSt11char_traitsIcESaIcEEESt4pairIKS5_iESt10_Select1stIS8_ESt4lessIS5_ESaIS8_EE15_M_destroy_nodeEPSt13_Rb_tree_nodeIS8_E = comdat any

$_ZNSt8_Rb_treeINSt7__cxx1112basic_stringIcSt11char_traitsIcESaIcEEESt4pairIKS5_iESt10_Select1stIS8_ESt4lessIS5_ESaIS8_EE11_M_put_nodeEPSt13_Rb_tree_nodeIS8_E = comdat any

$_ZNSt16allocator_traitsISaISt13_Rb_tree_nodeISt4pairIKNSt7__cxx1112basic_stringIcSt11char_traitsIcESaIcEEEiEEEE7destroyIS9_EEvRSB_PT_ = comdat any

$_ZNSt8_Rb_treeINSt7__cxx1112basic_stringIcSt11char_traitsIcESaIcEEESt4pairIKS5_iESt10_Select1stIS8_ESt4lessIS5_ESaIS8_EE21_M_get_Node_allocatorEv = comdat any

$_ZNSt13_Rb_tree_nodeISt4pairIKNSt7__cxx1112basic_stringIcSt11char_traitsIcESaIcEEEiEE9_M_valptrEv = comdat any

$_ZNSt15__new_allocatorISt13_Rb_tree_nodeISt4pairIKNSt7__cxx1112basic_stringIcSt11char_traitsIcESaIcEEEiEEE7destroyIS9_EEvPT_ = comdat any

$_ZNSt4pairIKNSt7__cxx1112basic_stringIcSt11char_traitsIcESaIcEEEiED2Ev = comdat any

$_ZN9__gnu_cxx16__aligned_membufISt4pairIKNSt7__cxx1112basic_stringIcSt11char_traitsIcESaIcEEEiEE6_M_ptrEv = comdat any

$_ZN9__gnu_cxx16__aligned_membufISt4pairIKNSt7__cxx1112basic_stringIcSt11char_traitsIcESaIcEEEiEE7_M_addrEv = comdat any

$_ZNSt16allocator_traitsISaISt13_Rb_tree_nodeISt4pairIKNSt7__cxx1112basic_stringIcSt11char_traitsIcESaIcEEEiEEEE10deallocateERSB_PSA_m = comdat any

$_ZNSt15__new_allocatorISt13_Rb_tree_nodeISt4pairIKNSt7__cxx1112basic_stringIcSt11char_traitsIcESaIcEEEiEEE10deallocateEPSA_m = comdat any

$_ZNKSt8_Rb_treeINSt7__cxx1112basic_stringIcSt11char_traitsIcESaIcEEESt4pairIKS5_iESt10_Select1stIS8_ESt4lessIS5_ESaIS8_EE9_M_mbeginEv = comdat any

$_ZNSaISt13_Rb_tree_nodeISt4pairIKNSt7__cxx1112basic_stringIcSt11char_traitsIcESaIcEEEiEEED2Ev = comdat any

$_ZNSt15__new_allocatorISt13_Rb_tree_nodeISt4pairIKNSt7__cxx1112basic_stringIcSt11char_traitsIcESaIcEEEiEEED2Ev = comdat any

$_ZNSt8_Rb_treeINSt7__cxx1112basic_stringIcSt11char_traitsIcESaIcEEES5_St9_IdentityIS5_ESt4lessIS5_ESaIS5_EED2Ev = comdat any

$_ZNSt8_Rb_treeINSt7__cxx1112basic_stringIcSt11char_traitsIcESaIcEEES5_St9_IdentityIS5_ESt4lessIS5_ESaIS5_EE8_M_eraseEPSt13_Rb_tree_nodeIS5_E = comdat any

$_ZNSt8_Rb_treeINSt7__cxx1112basic_stringIcSt11char_traitsIcESaIcEEES5_St9_IdentityIS5_ESt4lessIS5_ESaIS5_EE8_M_beginEv = comdat any

$_ZNSt8_Rb_treeINSt7__cxx1112basic_stringIcSt11char_traitsIcESaIcEEES5_St9_IdentityIS5_ESt4lessIS5_ESaIS5_EE13_Rb_tree_implIS9_Lb1EED2Ev = comdat any

$_ZNSt8_Rb_treeINSt7__cxx1112basic_stringIcSt11char_traitsIcESaIcEEES5_St9_IdentityIS5_ESt4lessIS5_ESaIS5_EE8_S_rightEPSt18_Rb_tree_node_base = comdat any

$_ZNSt8_Rb_treeINSt7__cxx1112basic_stringIcSt11char_traitsIcESaIcEEES5_St9_IdentityIS5_ESt4lessIS5_ESaIS5_EE7_S_leftEPSt18_Rb_tree_node_base = comdat any

$_ZNSt8_Rb_treeINSt7__cxx1112basic_stringIcSt11char_traitsIcESaIcEEES5_St9_IdentityIS5_ESt4lessIS5_ESaIS5_EE12_M_drop_nodeEPSt13_Rb_tree_nodeIS5_E = comdat any

$_ZNSt8_Rb_treeINSt7__cxx1112basic_stringIcSt11char_traitsIcESaIcEEES5_St9_IdentityIS5_ESt4lessIS5_ESaIS5_EE15_M_destroy_nodeEPSt13_Rb_tree_nodeIS5_E = comdat any

$_ZNSt8_Rb_treeINSt7__cxx1112basic_stringIcSt11char_traitsIcESaIcEEES5_St9_IdentityIS5_ESt4lessIS5_ESaIS5_EE11_M_put_nodeEPSt13_Rb_tree_nodeIS5_E = comdat any

$_ZNSt16allocator_traitsISaISt13_Rb_tree_nodeINSt7__cxx1112basic_stringIcSt11char_traitsIcESaIcEEEEEE7destroyIS6_EEvRS8_PT_ = comdat any

$_ZNSt8_Rb_treeINSt7__cxx1112basic_stringIcSt11char_traitsIcESaIcEEES5_St9_IdentityIS5_ESt4lessIS5_ESaIS5_EE21_M_get_Node_allocatorEv = comdat any

$_ZNSt13_Rb_tree_nodeINSt7__cxx1112basic_stringIcSt11char_traitsIcESaIcEEEE9_M_valptrEv = comdat any

$_ZNSt15__new_allocatorISt13_Rb_tree_nodeINSt7__cxx1112basic_stringIcSt11char_traitsIcESaIcEEEEE7destroyIS6_EEvPT_ = comdat any

$_ZN9__gnu_cxx16__aligned_membufINSt7__cxx1112basic_stringIcSt11char_traitsIcESaIcEEEE6_M_ptrEv = comdat any

$_ZN9__gnu_cxx16__aligned_membufINSt7__cxx1112basic_stringIcSt11char_traitsIcESaIcEEEE7_M_addrEv = comdat any

$_ZNSt16allocator_traitsISaISt13_Rb_tree_nodeINSt7__cxx1112basic_stringIcSt11char_traitsIcESaIcEEEEEE10deallocateERS8_PS7_m = comdat any

$_ZNSt15__new_allocatorISt13_Rb_tree_nodeINSt7__cxx1112basic_stringIcSt11char_traitsIcESaIcEEEEE10deallocateEPS7_m = comdat any

$_ZNKSt8_Rb_treeINSt7__cxx1112basic_stringIcSt11char_traitsIcESaIcEEES5_St9_IdentityIS5_ESt4lessIS5_ESaIS5_EE9_M_mbeginEv = comdat any

$_ZNSaISt13_Rb_tree_nodeINSt7__cxx1112basic_stringIcSt11char_traitsIcESaIcEEEEED2Ev = comdat any

$_ZNSt15__new_allocatorISt13_Rb_tree_nodeINSt7__cxx1112basic_stringIcSt11char_traitsIcESaIcEEEEED2Ev = comdat any

$_ZNSt6vectorIN7tinyobj10__points_tESaIS1_EED2Ev = comdat any

$_ZNSt6vectorIN7tinyobj8__line_tESaIS1_EED2Ev = comdat any

$_ZNSt6vectorIN7tinyobj6face_tESaIS1_EED2Ev = comdat any

$_ZNSt12_Vector_baseIN7tinyobj10__points_tESaIS1_EED2Ev = comdat any

$_ZNSt12_Vector_baseIN7tinyobj10__points_tESaIS1_EE13_M_deallocateEPS1_m = comdat any

$_ZNSt12_Vector_baseIN7tinyobj10__points_tESaIS1_EE12_Vector_implD2Ev = comdat any

$_ZNSt16allocator_traitsISaIN7tinyobj10__points_tEEE10deallocateERS2_PS1_m = comdat any

$_ZNSt15__new_allocatorIN7tinyobj10__points_tEE10deallocateEPS1_m = comdat any

$_ZNSaIN7tinyobj10__points_tEED2Ev = comdat any

$_ZNSt15__new_allocatorIN7tinyobj10__points_tEED2Ev = comdat any

$_ZNSt12_Vector_baseIN7tinyobj8__line_tESaIS1_EED2Ev = comdat any

$_ZNSt12_Vector_baseIN7tinyobj8__line_tESaIS1_EE13_M_deallocateEPS1_m = comdat any

$_ZNSt12_Vector_baseIN7tinyobj8__line_tESaIS1_EE12_Vector_implD2Ev = comdat any

$_ZNSt16allocator_traitsISaIN7tinyobj8__line_tEEE10deallocateERS2_PS1_m = comdat any

$_ZNSt15__new_allocatorIN7tinyobj8__line_tEE10deallocateEPS1_m = comdat any

$_ZNSaIN7tinyobj8__line_tEED2Ev = comdat any

$_ZNSt15__new_allocatorIN7tinyobj8__line_tEED2Ev = comdat any

$_ZSt8_DestroyIPN7tinyobj6face_tES1_EvT_S3_RSaIT0_E = comdat any

$_ZNSt12_Vector_baseIN7tinyobj6face_tESaIS1_EE19_M_get_Tp_allocatorEv = comdat any

$_ZNSt12_Vector_baseIN7tinyobj6face_tESaIS1_EED2Ev = comdat any

$_ZSt8_DestroyIPN7tinyobj6face_tEEvT_S3_ = comdat any

$_ZNSt12_Destroy_auxILb0EE9__destroyIPN7tinyobj6face_tEEEvT_S5_ = comdat any

$_ZSt8_DestroyIN7tinyobj6face_tEEvPT_ = comdat any

$_ZNSt12_Vector_baseIN7tinyobj6face_tESaIS1_EE13_M_deallocateEPS1_m = comdat any

$_ZNSt12_Vector_baseIN7tinyobj6face_tESaIS1_EE12_Vector_implD2Ev = comdat any

$_ZNSt16allocator_traitsISaIN7tinyobj6face_tEEE10deallocateERS2_PS1_m = comdat any

$_ZNSt15__new_allocatorIN7tinyobj6face_tEE10deallocateEPS1_m = comdat any

$_ZNSaIN7tinyobj6face_tEED2Ev = comdat any

$_ZNSt15__new_allocatorIN7tinyobj6face_tEED2Ev = comdat any

$_ZNSt12_Vector_baseIN7tinyobj7index_tESaIS1_EEC2Ev = comdat any

$_ZNSt12_Vector_baseIN7tinyobj7index_tESaIS1_EE12_Vector_implC2Ev = comdat any

$_ZNSaIN7tinyobj7index_tEEC2Ev = comdat any

$_ZNSt15__new_allocatorIN7tinyobj7index_tEEC2Ev = comdat any

$_ZNSt12_Vector_baseIN7tinyobj10material_tESaIS1_EEC2Ev = comdat any

$_ZNSt12_Vector_baseIN7tinyobj10material_tESaIS1_EE12_Vector_implC2Ev = comdat any

$_ZNSaIN7tinyobj10material_tEEC2Ev = comdat any

$_ZNSt12_Vector_baseIN7tinyobj10material_tESaIS1_EE17_Vector_impl_dataC2Ev = comdat any

$_ZNSt15__new_allocatorIN7tinyobj10material_tEEC2Ev = comdat any

$_ZNSt12_Vector_baseIPKcSaIS1_EEC2Ev = comdat any

$_ZNSt12_Vector_baseIPKcSaIS1_EE12_Vector_implC2Ev = comdat any

$_ZNSaIPKcEC2Ev = comdat any

$_ZNSt12_Vector_baseIPKcSaIS1_EE17_Vector_impl_dataC2Ev = comdat any

$_ZNSt15__new_allocatorIPKcEC2Ev = comdat any

$_ZSt8_DestroyIPN7tinyobj13skin_weight_tES1_EvT_S3_RSaIT0_E = comdat any

$_ZNSt12_Vector_baseIN7tinyobj13skin_weight_tESaIS1_EE19_M_get_Tp_allocatorEv = comdat any

$_ZNSt12_Vector_baseIN7tinyobj13skin_weight_tESaIS1_EED2Ev = comdat any

$_ZSt8_DestroyIPN7tinyobj13skin_weight_tEEvT_S3_ = comdat any

$_ZNSt12_Destroy_auxILb0EE9__destroyIPN7tinyobj13skin_weight_tEEEvT_S5_ = comdat any

$_ZSt8_DestroyIN7tinyobj13skin_weight_tEEvPT_ = comdat any

$_ZNSt12_Vector_baseIN7tinyobj13skin_weight_tESaIS1_EE13_M_deallocateEPS1_m = comdat any

$_ZNSt12_Vector_baseIN7tinyobj13skin_weight_tESaIS1_EE12_Vector_implD2Ev = comdat any

$_ZNSt16allocator_traitsISaIN7tinyobj13skin_weight_tEEE10deallocateERS2_PS1_m = comdat any

$_ZNSt15__new_allocatorIN7tinyobj13skin_weight_tEE10deallocateEPS1_m = comdat any

$_ZNSaIN7tinyobj13skin_weight_tEED2Ev = comdat any

$_ZNSt15__new_allocatorIN7tinyobj13skin_weight_tEED2Ev = comdat any

$_ZNSt11char_traitsIcE6lengthEPKc = comdat any

$_ZSt8_DestroyIPN7tinyobj10material_tES1_EvT_S3_RSaIT0_E = comdat any

$_ZNSt12_Vector_baseIN7tinyobj10material_tESaIS1_EE19_M_get_Tp_allocatorEv = comdat any

$_ZNSt12_Vector_baseIN7tinyobj10material_tESaIS1_EED2Ev = comdat any

$_ZSt8_DestroyIPN7tinyobj10material_tEEvT_S3_ = comdat any

$_ZNSt12_Destroy_auxILb0EE9__destroyIPN7tinyobj10material_tEEEvT_S5_ = comdat any

$_ZSt8_DestroyIN7tinyobj10material_tEEvPT_ = comdat any

$_ZNSt12_Vector_baseIN7tinyobj10material_tESaIS1_EE13_M_deallocateEPS1_m = comdat any

$_ZNSt12_Vector_baseIN7tinyobj10material_tESaIS1_EE12_Vector_implD2Ev = comdat any

$_ZNSt16allocator_traitsISaIN7tinyobj10material_tEEE10deallocateERS2_PS1_m = comdat any

$_ZNSt15__new_allocatorIN7tinyobj10material_tEE10deallocateEPS1_m = comdat any

$_ZNSaIN7tinyobj10material_tEED2Ev = comdat any

$_ZNSt15__new_allocatorIN7tinyobj10material_tEED2Ev = comdat any

$_ZNSt6vectorIN7tinyobj6face_tESaIS1_EE15_M_erase_at_endEPS1_ = comdat any

$_ZNSt16allocator_traitsISaIN7tinyobj7index_tEEE9constructIS1_JRKS1_EEEvRS2_PT_DpOT0_ = comdat any

$_ZNSt6vectorIN7tinyobj7index_tESaIS1_EE17_M_realloc_insertIJRKS1_EEEvN9__gnu_cxx17__normal_iteratorIPS1_S3_EEDpOT_ = comdat any

$_ZNSt6vectorIN7tinyobj7index_tESaIS1_EE3endEv = comdat any

$_ZNSt15__new_allocatorIN7tinyobj7index_tEE9constructIS1_JRKS1_EEEvPT_DpOT0_ = comdat any

$_ZNKSt6vectorIN7tinyobj7index_tESaIS1_EE12_M_check_lenEmPKc = comdat any

$_ZN9__gnu_cxxmiIPN7tinyobj7index_tESt6vectorIS2_SaIS2_EEEENS_17__normal_iteratorIT_T0_E15difference_typeERKSA_SD_ = comdat any

$_ZNSt6vectorIN7tinyobj7index_tESaIS1_EE5beginEv = comdat any

$_ZNSt12_Vector_baseIN7tinyobj7index_tESaIS1_EE11_M_allocateEm = comdat any

$_ZNSt6vectorIN7tinyobj7index_tESaIS1_EE11_S_relocateEPS1_S4_S4_RS2_ = comdat any

$_ZNK9__gnu_cxx17__normal_iteratorIPN7tinyobj7index_tESt6vectorIS2_SaIS2_EEE4baseEv = comdat any

$_ZNSt12_Vector_baseIN7tinyobj7index_tESaIS1_EE13_M_deallocateEPS1_m = comdat any

$_ZNKSt6vectorIN7tinyobj7index_tESaIS1_EE8max_sizeEv = comdat any

$_ZNSt6vectorIN7tinyobj7index_tESaIS1_EE11_S_max_sizeERKS2_ = comdat any

$_ZNSt16allocator_traitsISaIN7tinyobj7index_tEEE8max_sizeERKS2_ = comdat any

$_ZNKSt15__new_allocatorIN7tinyobj7index_tEE8max_sizeEv = comdat any

$_ZNKSt15__new_allocatorIN7tinyobj7index_tEE11_M_max_sizeEv = comdat any

$_ZN9__gnu_cxx17__normal_iteratorIPN7tinyobj7index_tESt6vectorIS2_SaIS2_EEEC2ERKS3_ = comdat any

$_ZNSt16allocator_traitsISaIN7tinyobj7index_tEEE8allocateERS2_m = comdat any

$_ZNSt15__new_allocatorIN7tinyobj7index_tEE8allocateEmPKv = comdat any

$_ZSt12__relocate_aIPN7tinyobj7index_tES2_SaIS1_EET0_T_S5_S4_RT1_ = comdat any

$_ZSt14__relocate_a_1IN7tinyobj7index_tES1_ENSt9enable_ifIXsr3std24__is_bitwise_relocatableIT_EE5valueEPS3_E4typeES4_S4_S4_RSaIT0_E = comdat any

$_ZSt12__niter_baseIPN7tinyobj7index_tEET_S3_ = comdat any

$_ZNSt16allocator_traitsISaIN7tinyobj7index_tEEE10deallocateERS2_PS1_m = comdat any

$_ZNSt15__new_allocatorIN7tinyobj7index_tEE10deallocateEPS1_m = comdat any

$_ZNSt16allocator_traitsISaINSt7__cxx1112basic_stringIcSt11char_traitsIcESaIcEEEEE9constructIS5_JRKS5_EEEvRS6_PT_DpOT0_ = comdat any

$_ZNSt6vectorINSt7__cxx1112basic_stringIcSt11char_traitsIcESaIcEEESaIS5_EE17_M_realloc_insertIJRKS5_EEEvN9__gnu_cxx17__normal_iteratorIPS5_S7_EEDpOT_ = comdat any

$_ZNSt15__new_allocatorINSt7__cxx1112basic_stringIcSt11char_traitsIcESaIcEEEE9constructIS5_JRKS5_EEEvPT_DpOT0_ = comdat any

$_ZNKSt6vectorINSt7__cxx1112basic_stringIcSt11char_traitsIcESaIcEEESaIS5_EE12_M_check_lenEmPKc = comdat any

$_ZN9__gnu_cxxmiIPNSt7__cxx1112basic_stringIcSt11char_traitsIcESaIcEEESt6vectorIS6_SaIS6_EEEENS_17__normal_iteratorIT_T0_E15difference_typeERKSE_SH_ = comdat any

$_ZNSt6vectorINSt7__cxx1112basic_stringIcSt11char_traitsIcESaIcEEESaIS5_EE11_S_relocateEPS5_S8_S8_RS6_ = comdat any

$_ZNSt16allocator_traitsISaINSt7__cxx1112basic_stringIcSt11char_traitsIcESaIcEEEEE7destroyIS5_EEvRS6_PT_ = comdat any

$_ZNKSt6vectorINSt7__cxx1112basic_stringIcSt11char_traitsIcESaIcEEESaIS5_EE8max_sizeEv = comdat any

$_ZNSt6vectorINSt7__cxx1112basic_stringIcSt11char_traitsIcESaIcEEESaIS5_EE11_S_max_sizeERKS6_ = comdat any

$_ZNSt16allocator_traitsISaINSt7__cxx1112basic_stringIcSt11char_traitsIcESaIcEEEEE8max_sizeERKS6_ = comdat any

$_ZNKSt15__new_allocatorINSt7__cxx1112basic_stringIcSt11char_traitsIcESaIcEEEE8max_sizeEv = comdat any

$_ZSt12__relocate_aIPNSt7__cxx1112basic_stringIcSt11char_traitsIcESaIcEEES6_SaIS5_EET0_T_S9_S8_RT1_ = comdat any

$_ZSt14__relocate_a_1IPNSt7__cxx1112basic_stringIcSt11char_traitsIcESaIcEEES6_SaIS5_EET0_T_S9_S8_RT1_ = comdat any

$_ZSt19__relocate_object_aINSt7__cxx1112basic_stringIcSt11char_traitsIcESaIcEEES5_SaIS5_EEvPT_PT0_RT1_ = comdat any

$_ZNSt16allocator_traitsISaINSt7__cxx1112basic_stringIcSt11char_traitsIcESaIcEEEEE9constructIS5_JS5_EEEvRS6_PT_DpOT0_ = comdat any

$_ZNSt15__new_allocatorINSt7__cxx1112basic_stringIcSt11char_traitsIcESaIcEEEE9constructIS5_JS5_EEEvPT_DpOT0_ = comdat any

$_ZNSt15__new_allocatorINSt7__cxx1112basic_stringIcSt11char_traitsIcESaIcEEEE7destroyIS5_EEvPT_ = comdat any

$_ZNSt3mapINSt7__cxx1112basic_stringIcSt11char_traitsIcESaIcEEEiSt4lessIS5_ESaISt4pairIKS5_iEEE11lower_boundERS9_ = comdat any

$_ZSteqRKSt17_Rb_tree_iteratorISt4pairIKNSt7__cxx1112basic_stringIcSt11char_traitsIcESaIcEEEiEESB_ = comdat any

$_ZNKSt3mapINSt7__cxx1112basic_stringIcSt11char_traitsIcESaIcEEEiSt4lessIS5_ESaISt4pairIKS5_iEEE8key_compEv = comdat any

$_ZNKSt4lessINSt7__cxx1112basic_stringIcSt11char_traitsIcESaIcEEEEclERKS5_S8_ = comdat any

$_ZNKSt17_Rb_tree_iteratorISt4pairIKNSt7__cxx1112basic_stringIcSt11char_traitsIcESaIcEEEiEEdeEv = comdat any

$_ZNSt3mapINSt7__cxx1112basic_stringIcSt11char_traitsIcESaIcEEEiSt4lessIS5_ESaISt4pairIKS5_iEEE12emplace_hintIJS8_IS5_iEEEESt17_Rb_tree_iteratorISA_ESt23_Rb_tree_const_iteratorISA_EDpOT_ = comdat any

$_ZNSt4pairISt17_Rb_tree_iteratorIS_IKNSt7__cxx1112basic_stringIcSt11char_traitsIcESaIcEEEiEEbEC2IRS9_bTnNSt9enable_ifIXaaclsr5_PCCPE22_MoveConstructiblePairIT_T0_EEclsr5_PCCPE30_ImplicitlyMoveConvertiblePairISE_SF_EEEbE4typeELb1EEEOSE_OSF_ = comdat any

$_ZNSt8_Rb_treeINSt7__cxx1112basic_stringIcSt11char_traitsIcESaIcEEESt4pairIKS5_iESt10_Select1stIS8_ESt4lessIS5_ESaIS8_EE11lower_boundERS7_ = comdat any

$_ZNSt8_Rb_treeINSt7__cxx1112basic_stringIcSt11char_traitsIcESaIcEEESt4pairIKS5_iESt10_Select1stIS8_ESt4lessIS5_ESaIS8_EE14_M_lower_boundEPSt13_Rb_tree_nodeIS8_EPSt18_Rb_tree_node_baseRS7_ = comdat any

$_ZNSt8_Rb_treeINSt7__cxx1112basic_stringIcSt11char_traitsIcESaIcEEESt4pairIKS5_iESt10_Select1stIS8_ESt4lessIS5_ESaIS8_EE6_M_endEv = comdat any

$_ZNSt8_Rb_treeINSt7__cxx1112basic_stringIcSt11char_traitsIcESaIcEEESt4pairIKS5_iESt10_Select1stIS8_ESt4lessIS5_ESaIS8_EE6_S_keyEPKSt13_Rb_tree_nodeIS8_E = comdat any

$_ZNSt17_Rb_tree_iteratorISt4pairIKNSt7__cxx1112basic_stringIcSt11char_traitsIcESaIcEEEiEEC2EPSt18_Rb_tree_node_base = comdat any

$_ZNKSt10_Select1stISt4pairIKNSt7__cxx1112basic_stringIcSt11char_traitsIcESaIcEEEiEEclERKS8_ = comdat any

$_ZNKSt13_Rb_tree_nodeISt4pairIKNSt7__cxx1112basic_stringIcSt11char_traitsIcESaIcEEEiEE9_M_valptrEv = comdat any

$_ZNK9__gnu_cxx16__aligned_membufISt4pairIKNSt7__cxx1112basic_stringIcSt11char_traitsIcESaIcEEEiEE6_M_ptrEv = comdat any

$_ZNK9__gnu_cxx16__aligned_membufISt4pairIKNSt7__cxx1112basic_stringIcSt11char_traitsIcESaIcEEEiEE7_M_addrEv = comdat any

$_ZNKSt8_Rb_treeINSt7__cxx1112basic_stringIcSt11char_traitsIcESaIcEEESt4pairIKS5_iESt10_Select1stIS8_ESt4lessIS5_ESaIS8_EE8key_compEv = comdat any

$_ZStltIcSt11char_traitsIcESaIcEEbRKNSt7__cxx1112basic_stringIT_T0_T1_EESA_ = comdat any

$_ZNSt8_Rb_treeINSt7__cxx1112basic_stringIcSt11char_traitsIcESaIcEEESt4pairIKS5_iESt10_Select1stIS8_ESt4lessIS5_ESaIS8_EE22_M_emplace_hint_uniqueIJS6_IS5_iEEEESt17_Rb_tree_iteratorIS8_ESt23_Rb_tree_const_iteratorIS8_EDpOT_ = comdat any

$_ZNSt8_Rb_treeINSt7__cxx1112basic_stringIcSt11char_traitsIcESaIcEEESt4pairIKS5_iESt10_Select1stIS8_ESt4lessIS5_ESaIS8_EE10_Auto_nodeC2IJS6_IS5_iEEEERSE_DpOT_ = comdat any

$_ZNSt8_Rb_treeINSt7__cxx1112basic_stringIcSt11char_traitsIcESaIcEEESt4pairIKS5_iESt10_Select1stIS8_ESt4lessIS5_ESaIS8_EE29_M_get_insert_hint_unique_posESt23_Rb_tree_const_iteratorIS8_ERS7_ = comdat any

$_ZNKSt8_Rb_treeINSt7__cxx1112basic_stringIcSt11char_traitsIcESaIcEEESt4pairIKS5_iESt10_Select1stIS8_ESt4lessIS5_ESaIS8_EE10_Auto_node6_M_keyEv = comdat any

$_ZNSt8_Rb_treeINSt7__cxx1112basic_stringIcSt11char_traitsIcESaIcEEESt4pairIKS5_iESt10_Select1stIS8_ESt4lessIS5_ESaIS8_EE10_Auto_node9_M_insertES6_IPSt18_Rb_tree_node_baseSH_E = comdat any

$_ZNSt8_Rb_treeINSt7__cxx1112basic_stringIcSt11char_traitsIcESaIcEEESt4pairIKS5_iESt10_Select1stIS8_ESt4lessIS5_ESaIS8_EE10_Auto_nodeD2Ev = comdat any

$_ZNSt8_Rb_treeINSt7__cxx1112basic_stringIcSt11char_traitsIcESaIcEEESt4pairIKS5_iESt10_Select1stIS8_ESt4lessIS5_ESaIS8_EE14_M_create_nodeIJS6_IS5_iEEEEPSt13_Rb_tree_nodeIS8_EDpOT_ = comdat any

$_ZNSt8_Rb_treeINSt7__cxx1112basic_stringIcSt11char_traitsIcESaIcEEESt4pairIKS5_iESt10_Select1stIS8_ESt4lessIS5_ESaIS8_EE11_M_get_nodeEv = comdat any

$_ZNSt8_Rb_treeINSt7__cxx1112basic_stringIcSt11char_traitsIcESaIcEEESt4pairIKS5_iESt10_Select1stIS8_ESt4lessIS5_ESaIS8_EE17_M_construct_nodeIJS6_IS5_iEEEEvPSt13_Rb_tree_nodeIS8_EDpOT_ = comdat any

$_ZNSt16allocator_traitsISaISt13_Rb_tree_nodeISt4pairIKNSt7__cxx1112basic_stringIcSt11char_traitsIcESaIcEEEiEEEE8allocateERSB_m = comdat any

$_ZNSt15__new_allocatorISt13_Rb_tree_nodeISt4pairIKNSt7__cxx1112basic_stringIcSt11char_traitsIcESaIcEEEiEEE8allocateEmPKv = comdat any

$_ZNKSt15__new_allocatorISt13_Rb_tree_nodeISt4pairIKNSt7__cxx1112basic_stringIcSt11char_traitsIcESaIcEEEiEEE11_M_max_sizeEv = comdat any

$_ZNSt16allocator_traitsISaISt13_Rb_tree_nodeISt4pairIKNSt7__cxx1112basic_stringIcSt11char_traitsIcESaIcEEEiEEEE9constructIS9_JS1_IS7_iEEEEvRSB_PT_DpOT0_ = comdat any

$_ZNSt15__new_allocatorISt13_Rb_tree_nodeISt4pairIKNSt7__cxx1112basic_stringIcSt11char_traitsIcESaIcEEEiEEE9constructIS9_JS1_IS7_iEEEEvPT_DpOT0_ = comdat any

$_ZNSt4pairIKNSt7__cxx1112basic_stringIcSt11char_traitsIcESaIcEEEiEC2IS5_iTnNSt9enable_ifIXaaclsr6_PCCFPIT_T0_EE22_MoveConstructiblePairISA_SB_EEclsr6_PCCFPISA_SB_EE30_ImplicitlyMoveConvertiblePairISA_SB_EEEbE4typeELb1EEEOS_ISA_SB_E = comdat any

$_ZNKSt23_Rb_tree_const_iteratorISt4pairIKNSt7__cxx1112basic_stringIcSt11char_traitsIcESaIcEEEiEE13_M_const_castEv = comdat any

$_ZNKSt8_Rb_treeINSt7__cxx1112basic_stringIcSt11char_traitsIcESaIcEEESt4pairIKS5_iESt10_Select1stIS8_ESt4lessIS5_ESaIS8_EE4sizeEv = comdat any

$_ZNSt8_Rb_treeINSt7__cxx1112basic_stringIcSt11char_traitsIcESaIcEEESt4pairIKS5_iESt10_Select1stIS8_ESt4lessIS5_ESaIS8_EE6_S_keyEPKSt18_Rb_tree_node_base = comdat any

$_ZNSt8_Rb_treeINSt7__cxx1112basic_stringIcSt11char_traitsIcESaIcEEESt4pairIKS5_iESt10_Select1stIS8_ESt4lessIS5_ESaIS8_EE12_M_rightmostEv = comdat any

$_ZNSt4pairIPSt18_Rb_tree_node_baseS1_EC2IS1_S1_TnNSt9enable_ifIXaaclsr5_PCCPE18_ConstructiblePairIT_T0_EEclsr5_PCCPE26_ImplicitlyConvertiblePairIS5_S6_EEEbE4typeELb1EEERKS1_SA_ = comdat any

$_ZNSt8_Rb_treeINSt7__cxx1112basic_stringIcSt11char_traitsIcESaIcEEESt4pairIKS5_iESt10_Select1stIS8_ESt4lessIS5_ESaIS8_EE24_M_get_insert_unique_posERS7_ = comdat any

$_ZNSt8_Rb_treeINSt7__cxx1112basic_stringIcSt11char_traitsIcESaIcEEESt4pairIKS5_iESt10_Select1stIS8_ESt4lessIS5_ESaIS8_EE11_M_leftmostEv = comdat any

$_ZNSt4pairIPSt18_Rb_tree_node_baseS1_EC2IRS1_S4_TnNSt9enable_ifIXaaclsr5_PCCPE22_MoveConstructiblePairIT_T0_EEclsr5_PCCPE30_ImplicitlyMoveConvertiblePairIS6_S7_EEEbE4typeELb1EEEOS6_OS7_ = comdat any

$_ZNSt17_Rb_tree_iteratorISt4pairIKNSt7__cxx1112basic_stringIcSt11char_traitsIcESaIcEEEiEEmmEv = comdat any

$_ZNSt17_Rb_tree_iteratorISt4pairIKNSt7__cxx1112basic_stringIcSt11char_traitsIcESaIcEEEiEEppEv = comdat any

$_ZNSt8_Rb_treeINSt7__cxx1112basic_stringIcSt11char_traitsIcESaIcEEESt4pairIKS5_iESt10_Select1stIS8_ESt4lessIS5_ESaIS8_EE5beginEv = comdat any

$_ZNSt4pairIPSt18_Rb_tree_node_baseS1_EC2IRPSt13_Rb_tree_nodeIS_IKNSt7__cxx1112basic_stringIcSt11char_traitsIcESaIcEEEiEERS1_TnNSt9enable_ifIXaaclsr5_PCCPE22_MoveConstructiblePairIT_T0_EEclsr5_PCCPE30_ImplicitlyMoveConvertiblePairISI_SJ_EEEbE4typeELb1EEEOSI_OSJ_ = comdat any

$_ZNSt8_Rb_treeINSt7__cxx1112basic_stringIcSt11char_traitsIcESaIcEEESt4pairIKS5_iESt10_Select1stIS8_ESt4lessIS5_ESaIS8_EE14_M_insert_nodeEPSt18_Rb_tree_node_baseSG_PSt13_Rb_tree_nodeIS8_E = comdat any

$_ZNSt16allocator_traitsISaIN7tinyobj10material_tEEE9constructIS1_JRKS1_EEEvRS2_PT_DpOT0_ = comdat any

$_ZNSt6vectorIN7tinyobj10material_tESaIS1_EE17_M_realloc_insertIJRKS1_EEEvN9__gnu_cxx17__normal_iteratorIPS1_S3_EEDpOT_ = comdat any

$_ZNSt6vectorIN7tinyobj10material_tESaIS1_EE3endEv = comdat any

$_ZNSt15__new_allocatorIN7tinyobj10material_tEE9constructIS1_JRKS1_EEEvPT_DpOT0_ = comdat any

$_ZN7tinyobj10material_tC2ERKS0_ = comdat any

$_ZN7tinyobj16texture_option_tC2ERKS0_ = comdat any

$_ZNSt3mapINSt7__cxx1112basic_stringIcSt11char_traitsIcESaIcEEES5_St4lessIS5_ESaISt4pairIKS5_S5_EEEC2ERKSC_ = comdat any

$_ZNSt8_Rb_treeINSt7__cxx1112basic_stringIcSt11char_traitsIcESaIcEEESt4pairIKS5_S5_ESt10_Select1stIS8_ESt4lessIS5_ESaIS8_EEC2ERKSE_ = comdat any

$_ZNSt8_Rb_treeINSt7__cxx1112basic_stringIcSt11char_traitsIcESaIcEEESt4pairIKS5_S5_ESt10_Select1stIS8_ESt4lessIS5_ESaIS8_EE13_Rb_tree_implISC_Lb1EEC2ERKSG_ = comdat any

$_ZNKSt8_Rb_treeINSt7__cxx1112basic_stringIcSt11char_traitsIcESaIcEEESt4pairIKS5_S5_ESt10_Select1stIS8_ESt4lessIS5_ESaIS8_EE7_M_rootEv = comdat any

$_ZNSt8_Rb_treeINSt7__cxx1112basic_stringIcSt11char_traitsIcESaIcEEESt4pairIKS5_S5_ESt10_Select1stIS8_ESt4lessIS5_ESaIS8_EE7_M_copyERKSE_ = comdat any

$_ZNSt8_Rb_treeINSt7__cxx1112basic_stringIcSt11char_traitsIcESaIcEEESt4pairIKS5_S5_ESt10_Select1stIS8_ESt4lessIS5_ESaIS8_EE7_M_rootEv = comdat any

$_ZN9__gnu_cxx14__alloc_traitsISaISt13_Rb_tree_nodeISt4pairIKNSt7__cxx1112basic_stringIcSt11char_traitsIcESaIcEEES8_EEESB_E17_S_select_on_copyERKSC_ = comdat any

$_ZNSaISt13_Rb_tree_nodeISt4pairIKNSt7__cxx1112basic_stringIcSt11char_traitsIcESaIcEEES6_EEED2Ev = comdat any

$_ZNSt20_Rb_tree_key_compareISt4lessINSt7__cxx1112basic_stringIcSt11char_traitsIcESaIcEEEEEC2ERKS7_ = comdat any

$_ZNSt16allocator_traitsISaISt13_Rb_tree_nodeISt4pairIKNSt7__cxx1112basic_stringIcSt11char_traitsIcESaIcEEES7_EEEE37select_on_container_copy_constructionERKSB_ = comdat any

$_ZNSaISt13_Rb_tree_nodeISt4pairIKNSt7__cxx1112basic_stringIcSt11char_traitsIcESaIcEEES6_EEEC2ERKSA_ = comdat any

$_ZNSt15__new_allocatorISt13_Rb_tree_nodeISt4pairIKNSt7__cxx1112basic_stringIcSt11char_traitsIcESaIcEEES7_EEEC2ERKSB_ = comdat any

$_ZNSt8_Rb_treeINSt7__cxx1112basic_stringIcSt11char_traitsIcESaIcEEESt4pairIKS5_S5_ESt10_Select1stIS8_ESt4lessIS5_ESaIS8_EE11_Alloc_nodeC2ERSE_ = comdat any

$_ZNSt8_Rb_treeINSt7__cxx1112basic_stringIcSt11char_traitsIcESaIcEEESt4pairIKS5_S5_ESt10_Select1stIS8_ESt4lessIS5_ESaIS8_EE7_M_copyILb0ENSE_11_Alloc_nodeEEEPSt13_Rb_tree_nodeIS8_ERKSE_RT0_ = comdat any

$_ZNSt8_Rb_treeINSt7__cxx1112basic_stringIcSt11char_traitsIcESaIcEEESt4pairIKS5_S5_ESt10_Select1stIS8_ESt4lessIS5_ESaIS8_EE7_M_copyILb0ENSE_11_Alloc_nodeEEEPSt13_Rb_tree_nodeIS8_ESJ_PSt18_Rb_tree_node_baseRT0_ = comdat any

$_ZNSt8_Rb_treeINSt7__cxx1112basic_stringIcSt11char_traitsIcESaIcEEESt4pairIKS5_S5_ESt10_Select1stIS8_ESt4lessIS5_ESaIS8_EE6_M_endEv = comdat any

$_ZNSt8_Rb_treeINSt7__cxx1112basic_stringIcSt11char_traitsIcESaIcEEESt4pairIKS5_S5_ESt10_Select1stIS8_ESt4lessIS5_ESaIS8_EE10_S_minimumEPSt18_Rb_tree_node_base = comdat any

$_ZNSt8_Rb_treeINSt7__cxx1112basic_stringIcSt11char_traitsIcESaIcEEESt4pairIKS5_S5_ESt10_Select1stIS8_ESt4lessIS5_ESaIS8_EE11_M_leftmostEv = comdat any

$_ZNSt8_Rb_treeINSt7__cxx1112basic_stringIcSt11char_traitsIcESaIcEEESt4pairIKS5_S5_ESt10_Select1stIS8_ESt4lessIS5_ESaIS8_EE10_S_maximumEPSt18_Rb_tree_node_base = comdat any

$_ZNSt8_Rb_treeINSt7__cxx1112basic_stringIcSt11char_traitsIcESaIcEEESt4pairIKS5_S5_ESt10_Select1stIS8_ESt4lessIS5_ESaIS8_EE12_M_rightmostEv = comdat any

$_ZNSt8_Rb_treeINSt7__cxx1112basic_stringIcSt11char_traitsIcESaIcEEESt4pairIKS5_S5_ESt10_Select1stIS8_ESt4lessIS5_ESaIS8_EE13_M_clone_nodeILb0ENSE_11_Alloc_nodeEEEPSt13_Rb_tree_nodeIS8_ESJ_RT0_ = comdat any

$_ZNKSt8_Rb_treeINSt7__cxx1112basic_stringIcSt11char_traitsIcESaIcEEESt4pairIKS5_S5_ESt10_Select1stIS8_ESt4lessIS5_ESaIS8_EE11_Alloc_nodeclIRKS8_EEPSt13_Rb_tree_nodeIS8_EOT_ = comdat any

$_ZNSt8_Rb_treeINSt7__cxx1112basic_stringIcSt11char_traitsIcESaIcEEESt4pairIKS5_S5_ESt10_Select1stIS8_ESt4lessIS5_ESaIS8_EE14_M_create_nodeIJRKS8_EEEPSt13_Rb_tree_nodeIS8_EDpOT_ = comdat any

$_ZNSt8_Rb_treeINSt7__cxx1112basic_stringIcSt11char_traitsIcESaIcEEESt4pairIKS5_S5_ESt10_Select1stIS8_ESt4lessIS5_ESaIS8_EE11_M_get_nodeEv = comdat any

$_ZNSt8_Rb_treeINSt7__cxx1112basic_stringIcSt11char_traitsIcESaIcEEESt4pairIKS5_S5_ESt10_Select1stIS8_ESt4lessIS5_ESaIS8_EE17_M_construct_nodeIJRKS8_EEEvPSt13_Rb_tree_nodeIS8_EDpOT_ = comdat any

$_ZNSt16allocator_traitsISaISt13_Rb_tree_nodeISt4pairIKNSt7__cxx1112basic_stringIcSt11char_traitsIcESaIcEEES7_EEEE8allocateERSB_m = comdat any

$_ZNSt15__new_allocatorISt13_Rb_tree_nodeISt4pairIKNSt7__cxx1112basic_stringIcSt11char_traitsIcESaIcEEES7_EEE8allocateEmPKv = comdat any

$_ZNKSt15__new_allocatorISt13_Rb_tree_nodeISt4pairIKNSt7__cxx1112basic_stringIcSt11char_traitsIcESaIcEEES7_EEE11_M_max_sizeEv = comdat any

$_ZNSt16allocator_traitsISaISt13_Rb_tree_nodeISt4pairIKNSt7__cxx1112basic_stringIcSt11char_traitsIcESaIcEEES7_EEEE9constructIS9_JRKS9_EEEvRSB_PT_DpOT0_ = comdat any

$_ZNSt15__new_allocatorISt13_Rb_tree_nodeISt4pairIKNSt7__cxx1112basic_stringIcSt11char_traitsIcESaIcEEES7_EEE9constructIS9_JRKS9_EEEvPT_DpOT0_ = comdat any

$_ZNSt4pairIKNSt7__cxx1112basic_stringIcSt11char_traitsIcESaIcEEES5_EC2ERKS7_ = comdat any

$_ZNSt18_Rb_tree_node_base10_S_minimumEPS_ = comdat any

$_ZNSt18_Rb_tree_node_base10_S_maximumEPS_ = comdat any

$_ZNKSt6vectorIN7tinyobj10material_tESaIS1_EE12_M_check_lenEmPKc = comdat any

$_ZN9__gnu_cxxmiIPN7tinyobj10material_tESt6vectorIS2_SaIS2_EEEENS_17__normal_iteratorIT_T0_E15difference_typeERKSA_SD_ = comdat any

$_ZNSt6vectorIN7tinyobj10material_tESaIS1_EE5beginEv = comdat any

$_ZNSt12_Vector_baseIN7tinyobj10material_tESaIS1_EE11_M_allocateEm = comdat any

$_ZNSt6vectorIN7tinyobj10material_tESaIS1_EE11_S_relocateEPS1_S4_S4_RS2_ = comdat any

$_ZNK9__gnu_cxx17__normal_iteratorIPN7tinyobj10material_tESt6vectorIS2_SaIS2_EEE4baseEv = comdat any

$_ZNSt16allocator_traitsISaIN7tinyobj10material_tEEE7destroyIS1_EEvRS2_PT_ = comdat any

$_ZNKSt6vectorIN7tinyobj10material_tESaIS1_EE8max_sizeEv = comdat any

$_ZNSt6vectorIN7tinyobj10material_tESaIS1_EE11_S_max_sizeERKS2_ = comdat any

$_ZNKSt12_Vector_baseIN7tinyobj10material_tESaIS1_EE19_M_get_Tp_allocatorEv = comdat any

$_ZNSt16allocator_traitsISaIN7tinyobj10material_tEEE8max_sizeERKS2_ = comdat any

$_ZNKSt15__new_allocatorIN7tinyobj10material_tEE8max_sizeEv = comdat any

$_ZNKSt15__new_allocatorIN7tinyobj10material_tEE11_M_max_sizeEv = comdat any

$_ZN9__gnu_cxx17__normal_iteratorIPN7tinyobj10material_tESt6vectorIS2_SaIS2_EEEC2ERKS3_ = comdat any

$_ZNSt16allocator_traitsISaIN7tinyobj10material_tEEE8allocateERS2_m = comdat any

$_ZNSt15__new_allocatorIN7tinyobj10material_tEE8allocateEmPKv = comdat any

$_ZSt12__relocate_aIPN7tinyobj10material_tES2_SaIS1_EET0_T_S5_S4_RT1_ = comdat any

$_ZSt14__relocate_a_1IPN7tinyobj10material_tES2_SaIS1_EET0_T_S5_S4_RT1_ = comdat any

$_ZSt12__niter_baseIPN7tinyobj10material_tEET_S3_ = comdat any

$_ZSt19__relocate_object_aIN7tinyobj10material_tES1_SaIS1_EEvPT_PT0_RT1_ = comdat any

$_ZNSt16allocator_traitsISaIN7tinyobj10material_tEEE9constructIS1_JS1_EEEvRS2_PT_DpOT0_ = comdat any

$_ZNSt15__new_allocatorIN7tinyobj10material_tEE9constructIS1_JS1_EEEvPT_DpOT0_ = comdat any

$_ZN7tinyobj10material_tC2EOS0_ = comdat any

$_ZN7tinyobj16texture_option_tC2EOS0_ = comdat any

$_ZNSt3mapINSt7__cxx1112basic_stringIcSt11char_traitsIcESaIcEEES5_St4lessIS5_ESaISt4pairIKS5_S5_EEEC2EOSC_ = comdat any

$_ZNSt8_Rb_treeINSt7__cxx1112basic_stringIcSt11char_traitsIcESaIcEEESt4pairIKS5_S5_ESt10_Select1stIS8_ESt4lessIS5_ESaIS8_EEC2EOSE_ = comdat any

$_ZNSt8_Rb_treeINSt7__cxx1112basic_stringIcSt11char_traitsIcESaIcEEESt4pairIKS5_S5_ESt10_Select1stIS8_ESt4lessIS5_ESaIS8_EE13_Rb_tree_implISC_Lb1EEC2EOSG_ = comdat any

$_ZNSt20_Rb_tree_key_compareISt4lessINSt7__cxx1112basic_stringIcSt11char_traitsIcESaIcEEEEEC2EOS8_ = comdat any

$_ZNSt15_Rb_tree_headerC2EOS_ = comdat any

$_ZNSt15_Rb_tree_header12_M_move_dataERS_ = comdat any

$_ZNSt15__new_allocatorIN7tinyobj10material_tEE7destroyIS1_EEvPT_ = comdat any

$_ZNSt3mapINSt7__cxx1112basic_stringIcSt11char_traitsIcESaIcEEES5_St4lessIS5_ESaISt4pairIKS5_S5_EEE11lower_boundERS9_ = comdat any

$_ZSteqRKSt17_Rb_tree_iteratorISt4pairIKNSt7__cxx1112basic_stringIcSt11char_traitsIcESaIcEEES6_EESB_ = comdat any

$_ZNSt3mapINSt7__cxx1112basic_stringIcSt11char_traitsIcESaIcEEES5_St4lessIS5_ESaISt4pairIKS5_S5_EEE3endEv = comdat any

$_ZNKSt3mapINSt7__cxx1112basic_stringIcSt11char_traitsIcESaIcEEES5_St4lessIS5_ESaISt4pairIKS5_S5_EEE8key_compEv = comdat any

$_ZNKSt17_Rb_tree_iteratorISt4pairIKNSt7__cxx1112basic_stringIcSt11char_traitsIcESaIcEEES6_EEdeEv = comdat any

$_ZNSt3mapINSt7__cxx1112basic_stringIcSt11char_traitsIcESaIcEEES5_St4lessIS5_ESaISt4pairIKS5_S5_EEE12emplace_hintIJS8_IS5_S5_EEEESt17_Rb_tree_iteratorISA_ESt23_Rb_tree_const_iteratorISA_EDpOT_ = comdat any

$_ZNSt23_Rb_tree_const_iteratorISt4pairIKNSt7__cxx1112basic_stringIcSt11char_traitsIcESaIcEEES6_EEC2ERKSt17_Rb_tree_iteratorIS8_E = comdat any

$_ZNSt4pairISt17_Rb_tree_iteratorIS_IKNSt7__cxx1112basic_stringIcSt11char_traitsIcESaIcEEES6_EEbEC2IRS9_bTnNSt9enable_ifIXaaclsr5_PCCPE22_MoveConstructiblePairIT_T0_EEclsr5_PCCPE30_ImplicitlyMoveConvertiblePairISE_SF_EEEbE4typeELb1EEEOSE_OSF_ = comdat any

$_ZNSt8_Rb_treeINSt7__cxx1112basic_stringIcSt11char_traitsIcESaIcEEESt4pairIKS5_S5_ESt10_Select1stIS8_ESt4lessIS5_ESaIS8_EE11lower_boundERS7_ = comdat any

$_ZNSt8_Rb_treeINSt7__cxx1112basic_stringIcSt11char_traitsIcESaIcEEESt4pairIKS5_S5_ESt10_Select1stIS8_ESt4lessIS5_ESaIS8_EE14_M_lower_boundEPSt13_Rb_tree_nodeIS8_EPSt18_Rb_tree_node_baseRS7_ = comdat any

$_ZNSt8_Rb_treeINSt7__cxx1112basic_stringIcSt11char_traitsIcESaIcEEESt4pairIKS5_S5_ESt10_Select1stIS8_ESt4lessIS5_ESaIS8_EE6_S_keyEPKSt13_Rb_tree_nodeIS8_E = comdat any

$_ZNSt17_Rb_tree_iteratorISt4pairIKNSt7__cxx1112basic_stringIcSt11char_traitsIcESaIcEEES6_EEC2EPSt18_Rb_tree_node_base = comdat any

$_ZNKSt10_Select1stISt4pairIKNSt7__cxx1112basic_stringIcSt11char_traitsIcESaIcEEES6_EEclERKS8_ = comdat any

$_ZNKSt13_Rb_tree_nodeISt4pairIKNSt7__cxx1112basic_stringIcSt11char_traitsIcESaIcEEES6_EE9_M_valptrEv = comdat any

$_ZNK9__gnu_cxx16__aligned_membufISt4pairIKNSt7__cxx1112basic_stringIcSt11char_traitsIcESaIcEEES7_EE6_M_ptrEv = comdat any

$_ZNK9__gnu_cxx16__aligned_membufISt4pairIKNSt7__cxx1112basic_stringIcSt11char_traitsIcESaIcEEES7_EE7_M_addrEv = comdat any

$_ZNSt8_Rb_treeINSt7__cxx1112basic_stringIcSt11char_traitsIcESaIcEEESt4pairIKS5_S5_ESt10_Select1stIS8_ESt4lessIS5_ESaIS8_EE3endEv = comdat any

$_ZNKSt8_Rb_treeINSt7__cxx1112basic_stringIcSt11char_traitsIcESaIcEEESt4pairIKS5_S5_ESt10_Select1stIS8_ESt4lessIS5_ESaIS8_EE8key_compEv = comdat any

$_ZNSt8_Rb_treeINSt7__cxx1112basic_stringIcSt11char_traitsIcESaIcEEESt4pairIKS5_S5_ESt10_Select1stIS8_ESt4lessIS5_ESaIS8_EE22_M_emplace_hint_uniqueIJS6_IS5_S5_EEEESt17_Rb_tree_iteratorIS8_ESt23_Rb_tree_const_iteratorIS8_EDpOT_ = comdat any

$_ZNSt8_Rb_treeINSt7__cxx1112basic_stringIcSt11char_traitsIcESaIcEEESt4pairIKS5_S5_ESt10_Select1stIS8_ESt4lessIS5_ESaIS8_EE10_Auto_nodeC2IJS6_IS5_S5_EEEERSE_DpOT_ = comdat any

$_ZNSt8_Rb_treeINSt7__cxx1112basic_stringIcSt11char_traitsIcESaIcEEESt4pairIKS5_S5_ESt10_Select1stIS8_ESt4lessIS5_ESaIS8_EE29_M_get_insert_hint_unique_posESt23_Rb_tree_const_iteratorIS8_ERS7_ = comdat any

$_ZNKSt8_Rb_treeINSt7__cxx1112basic_stringIcSt11char_traitsIcESaIcEEESt4pairIKS5_S5_ESt10_Select1stIS8_ESt4lessIS5_ESaIS8_EE10_Auto_node6_M_keyEv = comdat any

$_ZNSt8_Rb_treeINSt7__cxx1112basic_stringIcSt11char_traitsIcESaIcEEESt4pairIKS5_S5_ESt10_Select1stIS8_ESt4lessIS5_ESaIS8_EE10_Auto_node9_M_insertES6_IPSt18_Rb_tree_node_baseSH_E = comdat any

$_ZNSt8_Rb_treeINSt7__cxx1112basic_stringIcSt11char_traitsIcESaIcEEESt4pairIKS5_S5_ESt10_Select1stIS8_ESt4lessIS5_ESaIS8_EE10_Auto_nodeD2Ev = comdat any

$_ZNSt8_Rb_treeINSt7__cxx1112basic_stringIcSt11char_traitsIcESaIcEEESt4pairIKS5_S5_ESt10_Select1stIS8_ESt4lessIS5_ESaIS8_EE14_M_create_nodeIJS6_IS5_S5_EEEEPSt13_Rb_tree_nodeIS8_EDpOT_ = comdat any

$_ZNSt8_Rb_treeINSt7__cxx1112basic_stringIcSt11char_traitsIcESaIcEEESt4pairIKS5_S5_ESt10_Select1stIS8_ESt4lessIS5_ESaIS8_EE17_M_construct_nodeIJS6_IS5_S5_EEEEvPSt13_Rb_tree_nodeIS8_EDpOT_ = comdat any

$_ZNSt16allocator_traitsISaISt13_Rb_tree_nodeISt4pairIKNSt7__cxx1112basic_stringIcSt11char_traitsIcESaIcEEES7_EEEE9constructIS9_JS1_IS7_S7_EEEEvRSB_PT_DpOT0_ = comdat any

$_ZNSt15__new_allocatorISt13_Rb_tree_nodeISt4pairIKNSt7__cxx1112basic_stringIcSt11char_traitsIcESaIcEEES7_EEE9constructIS9_JS1_IS7_S7_EEEEvPT_DpOT0_ = comdat any

$_ZNSt4pairIKNSt7__cxx1112basic_stringIcSt11char_traitsIcESaIcEEES5_EC2IS5_S5_TnNSt9enable_ifIXaaclsr6_PCCFPIT_T0_EE22_MoveConstructiblePairISA_SB_EEclsr6_PCCFPISA_SB_EE30_ImplicitlyMoveConvertiblePairISA_SB_EEEbE4typeELb1EEEOS_ISA_SB_E = comdat any

$_ZNKSt23_Rb_tree_const_iteratorISt4pairIKNSt7__cxx1112basic_stringIcSt11char_traitsIcESaIcEEES6_EE13_M_const_castEv = comdat any

$_ZNKSt8_Rb_treeINSt7__cxx1112basic_stringIcSt11char_traitsIcESaIcEEESt4pairIKS5_S5_ESt10_Select1stIS8_ESt4lessIS5_ESaIS8_EE4sizeEv = comdat any

$_ZNSt8_Rb_treeINSt7__cxx1112basic_stringIcSt11char_traitsIcESaIcEEESt4pairIKS5_S5_ESt10_Select1stIS8_ESt4lessIS5_ESaIS8_EE6_S_keyEPKSt18_Rb_tree_node_base = comdat any

$_ZNSt8_Rb_treeINSt7__cxx1112basic_stringIcSt11char_traitsIcESaIcEEESt4pairIKS5_S5_ESt10_Select1stIS8_ESt4lessIS5_ESaIS8_EE24_M_get_insert_unique_posERS7_ = comdat any

$_ZNSt17_Rb_tree_iteratorISt4pairIKNSt7__cxx1112basic_stringIcSt11char_traitsIcESaIcEEES6_EEmmEv = comdat any

$_ZNSt17_Rb_tree_iteratorISt4pairIKNSt7__cxx1112basic_stringIcSt11char_traitsIcESaIcEEES6_EEppEv = comdat any

$_ZNSt8_Rb_treeINSt7__cxx1112basic_stringIcSt11char_traitsIcESaIcEEESt4pairIKS5_S5_ESt10_Select1stIS8_ESt4lessIS5_ESaIS8_EE5beginEv = comdat any

$_ZNSt4pairIPSt18_Rb_tree_node_baseS1_EC2IRPSt13_Rb_tree_nodeIS_IKNSt7__cxx1112basic_stringIcSt11char_traitsIcESaIcEEESA_EERS1_TnNSt9enable_ifIXaaclsr5_PCCPE22_MoveConstructiblePairIT_T0_EEclsr5_PCCPE30_ImplicitlyMoveConvertiblePairISI_SJ_EEEbE4typeELb1EEEOSI_OSJ_ = comdat any

$_ZNSt8_Rb_treeINSt7__cxx1112basic_stringIcSt11char_traitsIcESaIcEEESt4pairIKS5_S5_ESt10_Select1stIS8_ESt4lessIS5_ESaIS8_EE14_M_insert_nodeEPSt18_Rb_tree_node_baseSG_PSt13_Rb_tree_nodeIS8_E = comdat any

$_ZNSt6vectorIfSaIfEE15_M_erase_at_endEPf = comdat any

$_ZNSt6vectorIN7tinyobj7shape_tESaIS1_EE15_M_erase_at_endEPS1_ = comdat any

$_ZSt8_DestroyIPN7tinyobj7shape_tES1_EvT_S3_RSaIT0_E = comdat any

$_ZNSt12_Vector_baseIN7tinyobj7shape_tESaIS1_EE19_M_get_Tp_allocatorEv = comdat any

$_ZSt8_DestroyIPN7tinyobj7shape_tEEvT_S3_ = comdat any

$_ZNSt12_Destroy_auxILb0EE9__destroyIPN7tinyobj7shape_tEEEvT_S5_ = comdat any

$_ZSt8_DestroyIN7tinyobj7shape_tEEvPT_ = comdat any

$_ZNSt12_Vector_baseIN7tinyobj5tag_tESaIS1_EED2Ev = comdat any

$_ZNSt12_Vector_baseIN7tinyobj5tag_tESaIS1_EE12_Vector_implD2Ev = comdat any

$_ZSt8_DestroyIPN7tinyobj7index_tES1_EvT_S3_RSaIT0_E = comdat any

$_ZNSt12_Vector_baseIN7tinyobj7index_tESaIS1_EED2Ev = comdat any

$_ZSt8_DestroyIPN7tinyobj7index_tEEvT_S3_ = comdat any

$_ZNSt12_Destroy_auxILb1EE9__destroyIPN7tinyobj7index_tEEEvT_S5_ = comdat any

$_ZNSt12_Vector_baseIN7tinyobj7index_tESaIS1_EE12_Vector_implD2Ev = comdat any

$_ZNSt16allocator_traitsISaIfEE9constructIfJRKfEEEvRS0_PT_DpOT0_ = comdat any

$_ZNSt6vectorIfSaIfEE17_M_realloc_insertIJRKfEEEvN9__gnu_cxx17__normal_iteratorIPfS1_EEDpOT_ = comdat any

$_ZNSt15__new_allocatorIfE9constructIfJRKfEEEvPT_DpOT0_ = comdat any

$_ZNKSt6vectorIfSaIfEE12_M_check_lenEmPKc = comdat any

$_ZN9__gnu_cxxmiIPfSt6vectorIfSaIfEEEENS_17__normal_iteratorIT_T0_E15difference_typeERKS8_SB_ = comdat any

$_ZNSt6vectorIfSaIfEE11_S_relocateEPfS2_S2_RS0_ = comdat any

$_ZNKSt6vectorIfSaIfEE8max_sizeEv = comdat any

$_ZNSt6vectorIfSaIfEE11_S_max_sizeERKS0_ = comdat any

$_ZNSt16allocator_traitsISaIfEE8max_sizeERKS0_ = comdat any

$_ZNKSt15__new_allocatorIfE8max_sizeEv = comdat any

$_ZSt12__relocate_aIPfS0_SaIfEET0_T_S3_S2_RT1_ = comdat any

$_ZSt14__relocate_a_1IffENSt9enable_ifIXsr3std24__is_bitwise_relocatableIT_EE5valueEPS1_E4typeES2_S2_S2_RSaIT0_E = comdat any

$_ZNSt16allocator_traitsISaIN7tinyobj18joint_and_weight_tEEE9constructIS1_JRKS1_EEEvRS2_PT_DpOT0_ = comdat any

$_ZNSt6vectorIN7tinyobj18joint_and_weight_tESaIS1_EE17_M_realloc_insertIJRKS1_EEEvN9__gnu_cxx17__normal_iteratorIPS1_S3_EEDpOT_ = comdat any

$_ZNSt6vectorIN7tinyobj18joint_and_weight_tESaIS1_EE3endEv = comdat any

$_ZNSt15__new_allocatorIN7tinyobj18joint_and_weight_tEE9constructIS1_JRKS1_EEEvPT_DpOT0_ = comdat any

$_ZNKSt6vectorIN7tinyobj18joint_and_weight_tESaIS1_EE12_M_check_lenEmPKc = comdat any

$_ZN9__gnu_cxxmiIPN7tinyobj18joint_and_weight_tESt6vectorIS2_SaIS2_EEEENS_17__normal_iteratorIT_T0_E15difference_typeERKSA_SD_ = comdat any

$_ZNSt6vectorIN7tinyobj18joint_and_weight_tESaIS1_EE5beginEv = comdat any

$_ZNSt12_Vector_baseIN7tinyobj18joint_and_weight_tESaIS1_EE11_M_allocateEm = comdat any

$_ZNSt6vectorIN7tinyobj18joint_and_weight_tESaIS1_EE11_S_relocateEPS1_S4_S4_RS2_ = comdat any

$_ZNK9__gnu_cxx17__normal_iteratorIPN7tinyobj18joint_and_weight_tESt6vectorIS2_SaIS2_EEE4baseEv = comdat any

$_ZNKSt6vectorIN7tinyobj18joint_and_weight_tESaIS1_EE8max_sizeEv = comdat any

$_ZNKSt6vectorIN7tinyobj18joint_and_weight_tESaIS1_EE4sizeEv = comdat any

$_ZNSt6vectorIN7tinyobj18joint_and_weight_tESaIS1_EE11_S_max_sizeERKS2_ = comdat any

$_ZNKSt12_Vector_baseIN7tinyobj18joint_and_weight_tESaIS1_EE19_M_get_Tp_allocatorEv = comdat any

$_ZNSt16allocator_traitsISaIN7tinyobj18joint_and_weight_tEEE8max_sizeERKS2_ = comdat any

$_ZNKSt15__new_allocatorIN7tinyobj18joint_and_weight_tEE8max_sizeEv = comdat any

$_ZNKSt15__new_allocatorIN7tinyobj18joint_and_weight_tEE11_M_max_sizeEv = comdat any

$_ZN9__gnu_cxx17__normal_iteratorIPN7tinyobj18joint_and_weight_tESt6vectorIS2_SaIS2_EEEC2ERKS3_ = comdat any

$_ZNSt16allocator_traitsISaIN7tinyobj18joint_and_weight_tEEE8allocateERS2_m = comdat any

$_ZNSt15__new_allocatorIN7tinyobj18joint_and_weight_tEE8allocateEmPKv = comdat any

$_ZSt12__relocate_aIPN7tinyobj18joint_and_weight_tES2_SaIS1_EET0_T_S5_S4_RT1_ = comdat any

$_ZSt14__relocate_a_1IN7tinyobj18joint_and_weight_tES1_ENSt9enable_ifIXsr3std24__is_bitwise_relocatableIT_EE5valueEPS3_E4typeES4_S4_S4_RSaIT0_E = comdat any

$_ZSt12__niter_baseIPN7tinyobj18joint_and_weight_tEET_S3_ = comdat any

$_ZNSt16allocator_traitsISaIN7tinyobj13skin_weight_tEEE9constructIS1_JRKS1_EEEvRS2_PT_DpOT0_ = comdat any

$_ZNSt6vectorIN7tinyobj13skin_weight_tESaIS1_EE17_M_realloc_insertIJRKS1_EEEvN9__gnu_cxx17__normal_iteratorIPS1_S3_EEDpOT_ = comdat any

$_ZNSt6vectorIN7tinyobj13skin_weight_tESaIS1_EE3endEv = comdat any

$_ZNSt15__new_allocatorIN7tinyobj13skin_weight_tEE9constructIS1_JRKS1_EEEvPT_DpOT0_ = comdat any

$_ZN7tinyobj13skin_weight_tC2ERKS0_ = comdat any

$_ZNSt6vectorIN7tinyobj18joint_and_weight_tESaIS1_EEC2ERKS3_ = comdat any

$_ZN9__gnu_cxx14__alloc_traitsISaIN7tinyobj18joint_and_weight_tEES2_E17_S_select_on_copyERKS3_ = comdat any

$_ZNSt12_Vector_baseIN7tinyobj18joint_and_weight_tESaIS1_EEC2EmRKS2_ = comdat any

$_ZNSaIN7tinyobj18joint_and_weight_tEED2Ev = comdat any

$_ZSt22__uninitialized_copy_aIN9__gnu_cxx17__normal_iteratorIPKN7tinyobj18joint_and_weight_tESt6vectorIS3_SaIS3_EEEEPS3_S3_ET0_T_SC_SB_RSaIT1_E = comdat any

$_ZNKSt6vectorIN7tinyobj18joint_and_weight_tESaIS1_EE5beginEv = comdat any

$_ZNKSt6vectorIN7tinyobj18joint_and_weight_tESaIS1_EE3endEv = comdat any

$_ZNSt16allocator_traitsISaIN7tinyobj18joint_and_weight_tEEE37select_on_container_copy_constructionERKS2_ = comdat any

$_ZNSaIN7tinyobj18joint_and_weight_tEEC2ERKS1_ = comdat any

$_ZNSt15__new_allocatorIN7tinyobj18joint_and_weight_tEEC2ERKS2_ = comdat any

$_ZNSt12_Vector_baseIN7tinyobj18joint_and_weight_tESaIS1_EE12_Vector_implC2ERKS2_ = comdat any

$_ZNSt12_Vector_baseIN7tinyobj18joint_and_weight_tESaIS1_EE17_M_create_storageEm = comdat any

$_ZSt18uninitialized_copyIN9__gnu_cxx17__normal_iteratorIPKN7tinyobj18joint_and_weight_tESt6vectorIS3_SaIS3_EEEEPS3_ET0_T_SC_SB_ = comdat any

$_ZNSt20__uninitialized_copyILb1EE13__uninit_copyIN9__gnu_cxx17__normal_iteratorIPKN7tinyobj18joint_and_weight_tESt6vectorIS5_SaIS5_EEEEPS5_EET0_T_SE_SD_ = comdat any

$_ZSt4copyIN9__gnu_cxx17__normal_iteratorIPKN7tinyobj18joint_and_weight_tESt6vectorIS3_SaIS3_EEEEPS3_ET0_T_SC_SB_ = comdat any

$_ZSt13__copy_move_aILb0EN9__gnu_cxx17__normal_iteratorIPKN7tinyobj18joint_and_weight_tESt6vectorIS3_SaIS3_EEEEPS3_ET1_T0_SC_SB_ = comdat any

$_ZSt12__miter_baseIN9__gnu_cxx17__normal_iteratorIPKN7tinyobj18joint_and_weight_tESt6vectorIS3_SaIS3_EEEEET_SA_ = comdat any

$_ZSt12__niter_wrapIPN7tinyobj18joint_and_weight_tEET_RKS3_S3_ = comdat any

$_ZSt14__copy_move_a1ILb0EPKN7tinyobj18joint_and_weight_tEPS1_ET1_T0_S6_S5_ = comdat any

$_ZSt12__niter_baseIPKN7tinyobj18joint_and_weight_tESt6vectorIS1_SaIS1_EEET_N9__gnu_cxx17__normal_iteratorIS7_T0_EE = comdat any

$_ZSt14__copy_move_a2ILb0EPKN7tinyobj18joint_and_weight_tEPS1_ET1_T0_S6_S5_ = comdat any

$_ZNSt11__copy_moveILb0ELb1ESt26random_access_iterator_tagE8__copy_mIN7tinyobj18joint_and_weight_tEEEPT_PKS5_S8_S6_ = comdat any

$_ZNK9__gnu_cxx17__normal_iteratorIPKN7tinyobj18joint_and_weight_tESt6vectorIS2_SaIS2_EEE4baseEv = comdat any

$_ZN9__gnu_cxx17__normal_iteratorIPKN7tinyobj18joint_and_weight_tESt6vectorIS2_SaIS2_EEEC2ERKS4_ = comdat any

$_ZNKSt6vectorIN7tinyobj13skin_weight_tESaIS1_EE12_M_check_lenEmPKc = comdat any

$_ZN9__gnu_cxxmiIPN7tinyobj13skin_weight_tESt6vectorIS2_SaIS2_EEEENS_17__normal_iteratorIT_T0_E15difference_typeERKSA_SD_ = comdat any

$_ZNSt6vectorIN7tinyobj13skin_weight_tESaIS1_EE5beginEv = comdat any

$_ZNSt12_Vector_baseIN7tinyobj13skin_weight_tESaIS1_EE11_M_allocateEm = comdat any

$_ZNSt6vectorIN7tinyobj13skin_weight_tESaIS1_EE11_S_relocateEPS1_S4_S4_RS2_ = comdat any

$_ZNK9__gnu_cxx17__normal_iteratorIPN7tinyobj13skin_weight_tESt6vectorIS2_SaIS2_EEE4baseEv = comdat any

$_ZNSt16allocator_traitsISaIN7tinyobj13skin_weight_tEEE7destroyIS1_EEvRS2_PT_ = comdat any

$_ZNKSt6vectorIN7tinyobj13skin_weight_tESaIS1_EE8max_sizeEv = comdat any

$_ZNKSt6vectorIN7tinyobj13skin_weight_tESaIS1_EE4sizeEv = comdat any

$_ZNSt6vectorIN7tinyobj13skin_weight_tESaIS1_EE11_S_max_sizeERKS2_ = comdat any

$_ZNKSt12_Vector_baseIN7tinyobj13skin_weight_tESaIS1_EE19_M_get_Tp_allocatorEv = comdat any

$_ZNSt16allocator_traitsISaIN7tinyobj13skin_weight_tEEE8max_sizeERKS2_ = comdat any

$_ZNKSt15__new_allocatorIN7tinyobj13skin_weight_tEE8max_sizeEv = comdat any

$_ZNKSt15__new_allocatorIN7tinyobj13skin_weight_tEE11_M_max_sizeEv = comdat any

$_ZN9__gnu_cxx17__normal_iteratorIPN7tinyobj13skin_weight_tESt6vectorIS2_SaIS2_EEEC2ERKS3_ = comdat any

$_ZNSt16allocator_traitsISaIN7tinyobj13skin_weight_tEEE8allocateERS2_m = comdat any

$_ZNSt15__new_allocatorIN7tinyobj13skin_weight_tEE8allocateEmPKv = comdat any

$_ZSt12__relocate_aIPN7tinyobj13skin_weight_tES2_SaIS1_EET0_T_S5_S4_RT1_ = comdat any

$_ZSt14__relocate_a_1IPN7tinyobj13skin_weight_tES2_SaIS1_EET0_T_S5_S4_RT1_ = comdat any

$_ZSt12__niter_baseIPN7tinyobj13skin_weight_tEET_S3_ = comdat any

$_ZSt19__relocate_object_aIN7tinyobj13skin_weight_tES1_SaIS1_EEvPT_PT0_RT1_ = comdat any

$_ZNSt16allocator_traitsISaIN7tinyobj13skin_weight_tEEE9constructIS1_JS1_EEEvRS2_PT_DpOT0_ = comdat any

$_ZNSt15__new_allocatorIN7tinyobj13skin_weight_tEE9constructIS1_JS1_EEEvPT_DpOT0_ = comdat any

$_ZN7tinyobj13skin_weight_tC2EOS0_ = comdat any

$_ZNSt6vectorIN7tinyobj18joint_and_weight_tESaIS1_EEC2EOS3_ = comdat any

$_ZNSt12_Vector_baseIN7tinyobj18joint_and_weight_tESaIS1_EEC2EOS3_ = comdat any

$_ZNSt12_Vector_baseIN7tinyobj18joint_and_weight_tESaIS1_EE12_Vector_implC2EOS4_ = comdat any

$_ZNSt12_Vector_baseIN7tinyobj18joint_and_weight_tESaIS1_EE17_Vector_impl_dataC2EOS4_ = comdat any

$_ZNSt15__new_allocatorIN7tinyobj13skin_weight_tEE7destroyIS1_EEvPT_ = comdat any

$_ZNSt16allocator_traitsISaIN7tinyobj14vertex_index_tEEE9constructIS1_JRKS1_EEEvRS2_PT_DpOT0_ = comdat any

$_ZNSt6vectorIN7tinyobj14vertex_index_tESaIS1_EE17_M_realloc_insertIJRKS1_EEEvN9__gnu_cxx17__normal_iteratorIPS1_S3_EEDpOT_ = comdat any

$_ZNSt6vectorIN7tinyobj14vertex_index_tESaIS1_EE3endEv = comdat any

$_ZNSt15__new_allocatorIN7tinyobj14vertex_index_tEE9constructIS1_JRKS1_EEEvPT_DpOT0_ = comdat any

$_ZNKSt6vectorIN7tinyobj14vertex_index_tESaIS1_EE12_M_check_lenEmPKc = comdat any

$_ZN9__gnu_cxxmiIPN7tinyobj14vertex_index_tESt6vectorIS2_SaIS2_EEEENS_17__normal_iteratorIT_T0_E15difference_typeERKSA_SD_ = comdat any

$_ZNSt6vectorIN7tinyobj14vertex_index_tESaIS1_EE5beginEv = comdat any

$_ZNSt6vectorIN7tinyobj14vertex_index_tESaIS1_EE11_S_relocateEPS1_S4_S4_RS2_ = comdat any

$_ZNK9__gnu_cxx17__normal_iteratorIPN7tinyobj14vertex_index_tESt6vectorIS2_SaIS2_EEE4baseEv = comdat any

$_ZNKSt6vectorIN7tinyobj14vertex_index_tESaIS1_EE8max_sizeEv = comdat any

$_ZNSt6vectorIN7tinyobj14vertex_index_tESaIS1_EE11_S_max_sizeERKS2_ = comdat any

$_ZNSt16allocator_traitsISaIN7tinyobj14vertex_index_tEEE8max_sizeERKS2_ = comdat any

$_ZNKSt15__new_allocatorIN7tinyobj14vertex_index_tEE8max_sizeEv = comdat any

$_ZN9__gnu_cxx17__normal_iteratorIPN7tinyobj14vertex_index_tESt6vectorIS2_SaIS2_EEEC2ERKS3_ = comdat any

$_ZSt12__relocate_aIPN7tinyobj14vertex_index_tES2_SaIS1_EET0_T_S5_S4_RT1_ = comdat any

$_ZSt14__relocate_a_1IPN7tinyobj14vertex_index_tES2_SaIS1_EET0_T_S5_S4_RT1_ = comdat any

$_ZSt12__niter_baseIPN7tinyobj14vertex_index_tEET_S3_ = comdat any

$_ZSt19__relocate_object_aIN7tinyobj14vertex_index_tES1_SaIS1_EEvPT_PT0_RT1_ = comdat any

$_ZNSt16allocator_traitsISaIN7tinyobj14vertex_index_tEEE9constructIS1_JS1_EEEvRS2_PT_DpOT0_ = comdat any

$_ZNSt15__new_allocatorIN7tinyobj14vertex_index_tEE9constructIS1_JS1_EEEvPT_DpOT0_ = comdat any

$_ZNSt16allocator_traitsISaIN7tinyobj8__line_tEEE9constructIS1_JRKS1_EEEvRS2_PT_DpOT0_ = comdat any

$_ZNSt6vectorIN7tinyobj8__line_tESaIS1_EE17_M_realloc_insertIJRKS1_EEEvN9__gnu_cxx17__normal_iteratorIPS1_S3_EEDpOT_ = comdat any

$_ZNSt6vectorIN7tinyobj8__line_tESaIS1_EE3endEv = comdat any

$_ZNSt15__new_allocatorIN7tinyobj8__line_tEE9constructIS1_JRKS1_EEEvPT_DpOT0_ = comdat any

$_ZN7tinyobj8__line_tC2ERKS0_ = comdat any

$_ZNKSt6vectorIN7tinyobj8__line_tESaIS1_EE12_M_check_lenEmPKc = comdat any

$_ZN9__gnu_cxxmiIPN7tinyobj8__line_tESt6vectorIS2_SaIS2_EEEENS_17__normal_iteratorIT_T0_E15difference_typeERKSA_SD_ = comdat any

$_ZNSt6vectorIN7tinyobj8__line_tESaIS1_EE5beginEv = comdat any

$_ZNSt12_Vector_baseIN7tinyobj8__line_tESaIS1_EE11_M_allocateEm = comdat any

$_ZNSt6vectorIN7tinyobj8__line_tESaIS1_EE11_S_relocateEPS1_S4_S4_RS2_ = comdat any

$_ZNK9__gnu_cxx17__normal_iteratorIPN7tinyobj8__line_tESt6vectorIS2_SaIS2_EEE4baseEv = comdat any

$_ZNSt16allocator_traitsISaIN7tinyobj8__line_tEEE7destroyIS1_EEvRS2_PT_ = comdat any

$_ZNKSt6vectorIN7tinyobj8__line_tESaIS1_EE8max_sizeEv = comdat any

$_ZNSt6vectorIN7tinyobj8__line_tESaIS1_EE11_S_max_sizeERKS2_ = comdat any

$_ZNKSt12_Vector_baseIN7tinyobj8__line_tESaIS1_EE19_M_get_Tp_allocatorEv = comdat any

$_ZNSt16allocator_traitsISaIN7tinyobj8__line_tEEE8max_sizeERKS2_ = comdat any

$_ZNKSt15__new_allocatorIN7tinyobj8__line_tEE8max_sizeEv = comdat any

$_ZNKSt15__new_allocatorIN7tinyobj8__line_tEE11_M_max_sizeEv = comdat any

$_ZN9__gnu_cxx17__normal_iteratorIPN7tinyobj8__line_tESt6vectorIS2_SaIS2_EEEC2ERKS3_ = comdat any

$_ZNSt16allocator_traitsISaIN7tinyobj8__line_tEEE8allocateERS2_m = comdat any

$_ZNSt15__new_allocatorIN7tinyobj8__line_tEE8allocateEmPKv = comdat any

$_ZSt12__relocate_aIPN7tinyobj8__line_tES2_SaIS1_EET0_T_S5_S4_RT1_ = comdat any

$_ZSt14__relocate_a_1IPN7tinyobj8__line_tES2_SaIS1_EET0_T_S5_S4_RT1_ = comdat any

$_ZSt12__niter_baseIPN7tinyobj8__line_tEET_S3_ = comdat any

$_ZSt19__relocate_object_aIN7tinyobj8__line_tES1_SaIS1_EEvPT_PT0_RT1_ = comdat any

$_ZNSt16allocator_traitsISaIN7tinyobj8__line_tEEE9constructIS1_JS1_EEEvRS2_PT_DpOT0_ = comdat any

$_ZNSt15__new_allocatorIN7tinyobj8__line_tEE9constructIS1_JS1_EEEvPT_DpOT0_ = comdat any

$_ZN7tinyobj8__line_tC2EOS0_ = comdat any

$_ZNSt6vectorIN7tinyobj14vertex_index_tESaIS1_EEC2EOS3_ = comdat any

$_ZNSt12_Vector_baseIN7tinyobj14vertex_index_tESaIS1_EEC2EOS3_ = comdat any

$_ZNSt12_Vector_baseIN7tinyobj14vertex_index_tESaIS1_EE12_Vector_implC2EOS4_ = comdat any

$_ZNSt12_Vector_baseIN7tinyobj14vertex_index_tESaIS1_EE17_Vector_impl_dataC2EOS4_ = comdat any

$_ZNSt15__new_allocatorIN7tinyobj8__line_tEE7destroyIS1_EEvPT_ = comdat any

$_ZNSt16allocator_traitsISaIN7tinyobj10__points_tEEE9constructIS1_JRKS1_EEEvRS2_PT_DpOT0_ = comdat any

$_ZNSt6vectorIN7tinyobj10__points_tESaIS1_EE17_M_realloc_insertIJRKS1_EEEvN9__gnu_cxx17__normal_iteratorIPS1_S3_EEDpOT_ = comdat any

$_ZNSt6vectorIN7tinyobj10__points_tESaIS1_EE3endEv = comdat any

$_ZNSt15__new_allocatorIN7tinyobj10__points_tEE9constructIS1_JRKS1_EEEvPT_DpOT0_ = comdat any

$_ZN7tinyobj10__points_tC2ERKS0_ = comdat any

$_ZNKSt6vectorIN7tinyobj10__points_tESaIS1_EE12_M_check_lenEmPKc = comdat any

$_ZN9__gnu_cxxmiIPN7tinyobj10__points_tESt6vectorIS2_SaIS2_EEEENS_17__normal_iteratorIT_T0_E15difference_typeERKSA_SD_ = comdat any

$_ZNSt6vectorIN7tinyobj10__points_tESaIS1_EE5beginEv = comdat any

$_ZNSt12_Vector_baseIN7tinyobj10__points_tESaIS1_EE11_M_allocateEm = comdat any

$_ZNSt6vectorIN7tinyobj10__points_tESaIS1_EE11_S_relocateEPS1_S4_S4_RS2_ = comdat any

$_ZNK9__gnu_cxx17__normal_iteratorIPN7tinyobj10__points_tESt6vectorIS2_SaIS2_EEE4baseEv = comdat any

$_ZNSt16allocator_traitsISaIN7tinyobj10__points_tEEE7destroyIS1_EEvRS2_PT_ = comdat any

$_ZNKSt6vectorIN7tinyobj10__points_tESaIS1_EE8max_sizeEv = comdat any

$_ZNSt6vectorIN7tinyobj10__points_tESaIS1_EE11_S_max_sizeERKS2_ = comdat any

$_ZNKSt12_Vector_baseIN7tinyobj10__points_tESaIS1_EE19_M_get_Tp_allocatorEv = comdat any

$_ZNSt16allocator_traitsISaIN7tinyobj10__points_tEEE8max_sizeERKS2_ = comdat any

$_ZNKSt15__new_allocatorIN7tinyobj10__points_tEE8max_sizeEv = comdat any

$_ZNKSt15__new_allocatorIN7tinyobj10__points_tEE11_M_max_sizeEv = comdat any

$_ZN9__gnu_cxx17__normal_iteratorIPN7tinyobj10__points_tESt6vectorIS2_SaIS2_EEEC2ERKS3_ = comdat any

$_ZNSt16allocator_traitsISaIN7tinyobj10__points_tEEE8allocateERS2_m = comdat any

$_ZNSt15__new_allocatorIN7tinyobj10__points_tEE8allocateEmPKv = comdat any

$_ZSt12__relocate_aIPN7tinyobj10__points_tES2_SaIS1_EET0_T_S5_S4_RT1_ = comdat any

$_ZSt14__relocate_a_1IPN7tinyobj10__points_tES2_SaIS1_EET0_T_S5_S4_RT1_ = comdat any

$_ZSt12__niter_baseIPN7tinyobj10__points_tEET_S3_ = comdat any

$_ZSt19__relocate_object_aIN7tinyobj10__points_tES1_SaIS1_EEvPT_PT0_RT1_ = comdat any

$_ZNSt16allocator_traitsISaIN7tinyobj10__points_tEEE9constructIS1_JS1_EEEvRS2_PT_DpOT0_ = comdat any

$_ZNSt15__new_allocatorIN7tinyobj10__points_tEE9constructIS1_JS1_EEEvPT_DpOT0_ = comdat any

$_ZN7tinyobj10__points_tC2EOS0_ = comdat any

$_ZNSt15__new_allocatorIN7tinyobj10__points_tEE7destroyIS1_EEvPT_ = comdat any

$_ZNKSt6vectorIN7tinyobj14vertex_index_tESaIS1_EE8capacityEv = comdat any

$_ZNSt16allocator_traitsISaIN7tinyobj6face_tEEE9constructIS1_JRKS1_EEEvRS2_PT_DpOT0_ = comdat any

$_ZNSt6vectorIN7tinyobj6face_tESaIS1_EE17_M_realloc_insertIJRKS1_EEEvN9__gnu_cxx17__normal_iteratorIPS1_S3_EEDpOT_ = comdat any

$_ZNSt6vectorIN7tinyobj6face_tESaIS1_EE3endEv = comdat any

$_ZNSt15__new_allocatorIN7tinyobj6face_tEE9constructIS1_JRKS1_EEEvPT_DpOT0_ = comdat any

$_ZNKSt6vectorIN7tinyobj6face_tESaIS1_EE12_M_check_lenEmPKc = comdat any

$_ZN9__gnu_cxxmiIPN7tinyobj6face_tESt6vectorIS2_SaIS2_EEEENS_17__normal_iteratorIT_T0_E15difference_typeERKSA_SD_ = comdat any

$_ZNSt6vectorIN7tinyobj6face_tESaIS1_EE5beginEv = comdat any

$_ZNSt12_Vector_baseIN7tinyobj6face_tESaIS1_EE11_M_allocateEm = comdat any

$_ZNSt6vectorIN7tinyobj6face_tESaIS1_EE11_S_relocateEPS1_S4_S4_RS2_ = comdat any

$_ZNK9__gnu_cxx17__normal_iteratorIPN7tinyobj6face_tESt6vectorIS2_SaIS2_EEE4baseEv = comdat any

$_ZNSt16allocator_traitsISaIN7tinyobj6face_tEEE7destroyIS1_EEvRS2_PT_ = comdat any

$_ZNKSt6vectorIN7tinyobj6face_tESaIS1_EE8max_sizeEv = comdat any

$_ZNSt6vectorIN7tinyobj6face_tESaIS1_EE11_S_max_sizeERKS2_ = comdat any

$_ZNKSt12_Vector_baseIN7tinyobj6face_tESaIS1_EE19_M_get_Tp_allocatorEv = comdat any

$_ZNSt16allocator_traitsISaIN7tinyobj6face_tEEE8max_sizeERKS2_ = comdat any

$_ZNKSt15__new_allocatorIN7tinyobj6face_tEE8max_sizeEv = comdat any

$_ZNKSt15__new_allocatorIN7tinyobj6face_tEE11_M_max_sizeEv = comdat any

$_ZN9__gnu_cxx17__normal_iteratorIPN7tinyobj6face_tESt6vectorIS2_SaIS2_EEEC2ERKS3_ = comdat any

$_ZNSt16allocator_traitsISaIN7tinyobj6face_tEEE8allocateERS2_m = comdat any

$_ZNSt15__new_allocatorIN7tinyobj6face_tEE8allocateEmPKv = comdat any

$_ZSt12__relocate_aIPN7tinyobj6face_tES2_SaIS1_EET0_T_S5_S4_RT1_ = comdat any

$_ZSt14__relocate_a_1IPN7tinyobj6face_tES2_SaIS1_EET0_T_S5_S4_RT1_ = comdat any

$_ZSt12__niter_baseIPN7tinyobj6face_tEET_S3_ = comdat any

$_ZSt19__relocate_object_aIN7tinyobj6face_tES1_SaIS1_EEvPT_PT0_RT1_ = comdat any

$_ZNSt16allocator_traitsISaIN7tinyobj6face_tEEE9constructIS1_JS1_EEEvRS2_PT_DpOT0_ = comdat any

$_ZNSt15__new_allocatorIN7tinyobj6face_tEE9constructIS1_JS1_EEEvPT_DpOT0_ = comdat any

$_ZN7tinyobj6face_tC2EOS0_ = comdat any

$_ZNSt15__new_allocatorIN7tinyobj6face_tEE7destroyIS1_EEvPT_ = comdat any

$_ZNSt8_Rb_treeINSt7__cxx1112basic_stringIcSt11char_traitsIcESaIcEEESt4pairIKS5_iESt10_Select1stIS8_ESt4lessIS5_ESaIS8_EE4findERS7_ = comdat any

$_ZNSt8_Rb_treeINSt7__cxx1112basic_stringIcSt11char_traitsIcESaIcEEESt4pairIKS5_iESt10_Select1stIS8_ESt4lessIS5_ESaIS8_EE3endEv = comdat any

$_ZN9__gnu_cxx14__alloc_traitsISaIcEcE17_S_select_on_copyERKS1_ = comdat any

$_ZNSt16allocator_traitsISaIcEE37select_on_container_copy_constructionERKS0_ = comdat any

$_ZN9__gnu_cxxeqIPKNSt7__cxx1112basic_stringIcSt11char_traitsIcESaIcEEESt6vectorIS6_SaIS6_EEEEbRKNS_17__normal_iteratorIT_T0_EESH_ = comdat any

$_ZSteqRKSt23_Rb_tree_const_iteratorINSt7__cxx1112basic_stringIcSt11char_traitsIcESaIcEEEES8_ = comdat any

$_ZNKSt8_Rb_treeINSt7__cxx1112basic_stringIcSt11char_traitsIcESaIcEEES5_St9_IdentityIS5_ESt4lessIS5_ESaIS5_EE4findERKS5_ = comdat any

$_ZNKSt8_Rb_treeINSt7__cxx1112basic_stringIcSt11char_traitsIcESaIcEEES5_St9_IdentityIS5_ESt4lessIS5_ESaIS5_EE3endEv = comdat any

$_ZNKSt8_Rb_treeINSt7__cxx1112basic_stringIcSt11char_traitsIcESaIcEEES5_St9_IdentityIS5_ESt4lessIS5_ESaIS5_EE14_M_lower_boundEPKSt13_Rb_tree_nodeIS5_EPKSt18_Rb_tree_node_baseRKS5_ = comdat any

$_ZNKSt8_Rb_treeINSt7__cxx1112basic_stringIcSt11char_traitsIcESaIcEEES5_St9_IdentityIS5_ESt4lessIS5_ESaIS5_EE8_M_beginEv = comdat any

$_ZNKSt8_Rb_treeINSt7__cxx1112basic_stringIcSt11char_traitsIcESaIcEEES5_St9_IdentityIS5_ESt4lessIS5_ESaIS5_EE6_M_endEv = comdat any

$_ZNSt8_Rb_treeINSt7__cxx1112basic_stringIcSt11char_traitsIcESaIcEEES5_St9_IdentityIS5_ESt4lessIS5_ESaIS5_EE6_S_keyEPKSt18_Rb_tree_node_base = comdat any

$_ZNSt8_Rb_treeINSt7__cxx1112basic_stringIcSt11char_traitsIcESaIcEEES5_St9_IdentityIS5_ESt4lessIS5_ESaIS5_EE6_S_keyEPKSt13_Rb_tree_nodeIS5_E = comdat any

$_ZNSt8_Rb_treeINSt7__cxx1112basic_stringIcSt11char_traitsIcESaIcEEES5_St9_IdentityIS5_ESt4lessIS5_ESaIS5_EE7_S_leftEPKSt18_Rb_tree_node_base = comdat any

$_ZNSt8_Rb_treeINSt7__cxx1112basic_stringIcSt11char_traitsIcESaIcEEES5_St9_IdentityIS5_ESt4lessIS5_ESaIS5_EE8_S_rightEPKSt18_Rb_tree_node_base = comdat any

$_ZNSt23_Rb_tree_const_iteratorINSt7__cxx1112basic_stringIcSt11char_traitsIcESaIcEEEEC2EPKSt18_Rb_tree_node_base = comdat any

$_ZNKSt9_IdentityINSt7__cxx1112basic_stringIcSt11char_traitsIcESaIcEEEEclERKS5_ = comdat any

$_ZNKSt13_Rb_tree_nodeINSt7__cxx1112basic_stringIcSt11char_traitsIcESaIcEEEE9_M_valptrEv = comdat any

$_ZNK9__gnu_cxx16__aligned_membufINSt7__cxx1112basic_stringIcSt11char_traitsIcESaIcEEEE6_M_ptrEv = comdat any

$_ZNK9__gnu_cxx16__aligned_membufINSt7__cxx1112basic_stringIcSt11char_traitsIcESaIcEEEE7_M_addrEv = comdat any

$_ZNSt8_Rb_treeINSt7__cxx1112basic_stringIcSt11char_traitsIcESaIcEEES5_St9_IdentityIS5_ESt4lessIS5_ESaIS5_EE16_M_insert_uniqueIRKS5_EESt4pairISt17_Rb_tree_iteratorIS5_EbEOT_ = comdat any

$_ZNSt4pairISt23_Rb_tree_const_iteratorINSt7__cxx1112basic_stringIcSt11char_traitsIcESaIcEEEEbEC2IRSt17_Rb_tree_iteratorIS6_ERbTnNSt9enable_ifIXaaclsr5_PCCPE22_MoveConstructiblePairIT_T0_EEclsr5_PCCPE30_ImplicitlyMoveConvertiblePairISF_SG_EEEbE4typeELb1EEEOSF_OSG_ = comdat any

$_ZNSt8_Rb_treeINSt7__cxx1112basic_stringIcSt11char_traitsIcESaIcEEES5_St9_IdentityIS5_ESt4lessIS5_ESaIS5_EE24_M_get_insert_unique_posERKS5_ = comdat any

$_ZNSt8_Rb_treeINSt7__cxx1112basic_stringIcSt11char_traitsIcESaIcEEES5_St9_IdentityIS5_ESt4lessIS5_ESaIS5_EE11_Alloc_nodeC2ERSB_ = comdat any

$_ZNSt8_Rb_treeINSt7__cxx1112basic_stringIcSt11char_traitsIcESaIcEEES5_St9_IdentityIS5_ESt4lessIS5_ESaIS5_EE10_M_insert_IRKS5_NSB_11_Alloc_nodeEEESt17_Rb_tree_iteratorIS5_EPSt18_Rb_tree_node_baseSJ_OT_RT0_ = comdat any

$_ZNSt4pairISt17_Rb_tree_iteratorINSt7__cxx1112basic_stringIcSt11char_traitsIcESaIcEEEEbEC2IS7_bTnNSt9enable_ifIXaaclsr5_PCCPE22_MoveConstructiblePairIT_T0_EEclsr5_PCCPE30_ImplicitlyMoveConvertiblePairISB_SC_EEEbE4typeELb1EEEOSB_OSC_ = comdat any

$_ZNSt17_Rb_tree_iteratorINSt7__cxx1112basic_stringIcSt11char_traitsIcESaIcEEEEC2EPSt18_Rb_tree_node_base = comdat any

$_ZNSt8_Rb_treeINSt7__cxx1112basic_stringIcSt11char_traitsIcESaIcEEES5_St9_IdentityIS5_ESt4lessIS5_ESaIS5_EE6_M_endEv = comdat any

$_ZSteqRKSt17_Rb_tree_iteratorINSt7__cxx1112basic_stringIcSt11char_traitsIcESaIcEEEES8_ = comdat any

$_ZNSt8_Rb_treeINSt7__cxx1112basic_stringIcSt11char_traitsIcESaIcEEES5_St9_IdentityIS5_ESt4lessIS5_ESaIS5_EE5beginEv = comdat any

$_ZNSt4pairIPSt18_Rb_tree_node_baseS1_EC2IRPSt13_Rb_tree_nodeINSt7__cxx1112basic_stringIcSt11char_traitsIcESaIcEEEERS1_TnNSt9enable_ifIXaaclsr5_PCCPE22_MoveConstructiblePairIT_T0_EEclsr5_PCCPE30_ImplicitlyMoveConvertiblePairISG_SH_EEEbE4typeELb1EEEOSG_OSH_ = comdat any

$_ZNSt17_Rb_tree_iteratorINSt7__cxx1112basic_stringIcSt11char_traitsIcESaIcEEEEmmEv = comdat any

$_ZNKSt8_Rb_treeINSt7__cxx1112basic_stringIcSt11char_traitsIcESaIcEEES5_St9_IdentityIS5_ESt4lessIS5_ESaIS5_EE11_Alloc_nodeclIRKS5_EEPSt13_Rb_tree_nodeIS5_EOT_ = comdat any

$_ZNSt8_Rb_treeINSt7__cxx1112basic_stringIcSt11char_traitsIcESaIcEEES5_St9_IdentityIS5_ESt4lessIS5_ESaIS5_EE14_M_create_nodeIJRKS5_EEEPSt13_Rb_tree_nodeIS5_EDpOT_ = comdat any

$_ZNSt8_Rb_treeINSt7__cxx1112basic_stringIcSt11char_traitsIcESaIcEEES5_St9_IdentityIS5_ESt4lessIS5_ESaIS5_EE11_M_get_nodeEv = comdat any

$_ZNSt8_Rb_treeINSt7__cxx1112basic_stringIcSt11char_traitsIcESaIcEEES5_St9_IdentityIS5_ESt4lessIS5_ESaIS5_EE17_M_construct_nodeIJRKS5_EEEvPSt13_Rb_tree_nodeIS5_EDpOT_ = comdat any

$_ZNSt16allocator_traitsISaISt13_Rb_tree_nodeINSt7__cxx1112basic_stringIcSt11char_traitsIcESaIcEEEEEE8allocateERS8_m = comdat any

$_ZNSt15__new_allocatorISt13_Rb_tree_nodeINSt7__cxx1112basic_stringIcSt11char_traitsIcESaIcEEEEE8allocateEmPKv = comdat any

$_ZNKSt15__new_allocatorISt13_Rb_tree_nodeINSt7__cxx1112basic_stringIcSt11char_traitsIcESaIcEEEEE11_M_max_sizeEv = comdat any

$_ZNSt16allocator_traitsISaISt13_Rb_tree_nodeINSt7__cxx1112basic_stringIcSt11char_traitsIcESaIcEEEEEE9constructIS6_JRKS6_EEEvRS8_PT_DpOT0_ = comdat any

$_ZNSt15__new_allocatorISt13_Rb_tree_nodeINSt7__cxx1112basic_stringIcSt11char_traitsIcESaIcEEEEE9constructIS6_JRKS6_EEEvPT_DpOT0_ = comdat any

$_ZNSt23_Rb_tree_const_iteratorINSt7__cxx1112basic_stringIcSt11char_traitsIcESaIcEEEEC2ERKSt17_Rb_tree_iteratorIS5_E = comdat any

$_ZNSt16allocator_traitsISaIN7tinyobj7shape_tEEE9constructIS1_JRKS1_EEEvRS2_PT_DpOT0_ = comdat any

$_ZNSt6vectorIN7tinyobj7shape_tESaIS1_EE17_M_realloc_insertIJRKS1_EEEvN9__gnu_cxx17__normal_iteratorIPS1_S3_EEDpOT_ = comdat any

$_ZNSt6vectorIN7tinyobj7shape_tESaIS1_EE3endEv = comdat any

$_ZNSt15__new_allocatorIN7tinyobj7shape_tEE9constructIS1_JRKS1_EEEvPT_DpOT0_ = comdat any

$_ZN7tinyobj7shape_tC2ERKS0_ = comdat any

$_ZN7tinyobj6mesh_tC2ERKS0_ = comdat any

$_ZN7tinyobj7lines_tC2ERKS0_ = comdat any

$_ZN7tinyobj8points_tC2ERKS0_ = comdat any

$_ZNSt6vectorIN7tinyobj7index_tESaIS1_EEC2ERKS3_ = comdat any

$_ZNSt6vectorIhSaIhEEC2ERKS1_ = comdat any

$_ZNSt6vectorIjSaIjEEC2ERKS1_ = comdat any

$_ZNSt6vectorIN7tinyobj5tag_tESaIS1_EEC2ERKS3_ = comdat any

$_ZN9__gnu_cxx14__alloc_traitsISaIN7tinyobj7index_tEES2_E17_S_select_on_copyERKS3_ = comdat any

$_ZNSt12_Vector_baseIN7tinyobj7index_tESaIS1_EEC2EmRKS2_ = comdat any

$_ZSt22__uninitialized_copy_aIN9__gnu_cxx17__normal_iteratorIPKN7tinyobj7index_tESt6vectorIS3_SaIS3_EEEEPS3_S3_ET0_T_SC_SB_RSaIT1_E = comdat any

$_ZNKSt6vectorIN7tinyobj7index_tESaIS1_EE5beginEv = comdat any

$_ZNKSt6vectorIN7tinyobj7index_tESaIS1_EE3endEv = comdat any

$_ZNSt16allocator_traitsISaIN7tinyobj7index_tEEE37select_on_container_copy_constructionERKS2_ = comdat any

$_ZNSt12_Vector_baseIN7tinyobj7index_tESaIS1_EE17_M_create_storageEm = comdat any

$_ZSt18uninitialized_copyIN9__gnu_cxx17__normal_iteratorIPKN7tinyobj7index_tESt6vectorIS3_SaIS3_EEEEPS3_ET0_T_SC_SB_ = comdat any

$_ZNSt20__uninitialized_copyILb1EE13__uninit_copyIN9__gnu_cxx17__normal_iteratorIPKN7tinyobj7index_tESt6vectorIS5_SaIS5_EEEEPS5_EET0_T_SE_SD_ = comdat any

$_ZSt4copyIN9__gnu_cxx17__normal_iteratorIPKN7tinyobj7index_tESt6vectorIS3_SaIS3_EEEEPS3_ET0_T_SC_SB_ = comdat any

$_ZSt13__copy_move_aILb0EN9__gnu_cxx17__normal_iteratorIPKN7tinyobj7index_tESt6vectorIS3_SaIS3_EEEEPS3_ET1_T0_SC_SB_ = comdat any

$_ZSt12__miter_baseIN9__gnu_cxx17__normal_iteratorIPKN7tinyobj7index_tESt6vectorIS3_SaIS3_EEEEET_SA_ = comdat any

$_ZSt12__niter_wrapIPN7tinyobj7index_tEET_RKS3_S3_ = comdat any

$_ZSt14__copy_move_a1ILb0EPKN7tinyobj7index_tEPS1_ET1_T0_S6_S5_ = comdat any

$_ZSt12__niter_baseIPKN7tinyobj7index_tESt6vectorIS1_SaIS1_EEET_N9__gnu_cxx17__normal_iteratorIS7_T0_EE = comdat any

$_ZSt14__copy_move_a2ILb0EPKN7tinyobj7index_tEPS1_ET1_T0_S6_S5_ = comdat any

$_ZNSt11__copy_moveILb0ELb1ESt26random_access_iterator_tagE8__copy_mIN7tinyobj7index_tEEEPT_PKS5_S8_S6_ = comdat any

$_ZNK9__gnu_cxx17__normal_iteratorIPKN7tinyobj7index_tESt6vectorIS2_SaIS2_EEE4baseEv = comdat any

$_ZN9__gnu_cxx17__normal_iteratorIPKN7tinyobj7index_tESt6vectorIS2_SaIS2_EEEC2ERKS4_ = comdat any

$_ZN9__gnu_cxx14__alloc_traitsISaIhEhE17_S_select_on_copyERKS1_ = comdat any

$_ZNSt12_Vector_baseIhSaIhEEC2EmRKS0_ = comdat any

$_ZSt22__uninitialized_copy_aIN9__gnu_cxx17__normal_iteratorIPKhSt6vectorIhSaIhEEEEPhhET0_T_SA_S9_RSaIT1_E = comdat any

$_ZNKSt6vectorIhSaIhEE5beginEv = comdat any

$_ZNKSt6vectorIhSaIhEE3endEv = comdat any

$_ZNSt16allocator_traitsISaIhEE37select_on_container_copy_constructionERKS0_ = comdat any

$_ZNSt12_Vector_baseIhSaIhEE17_M_create_storageEm = comdat any

$_ZSt18uninitialized_copyIN9__gnu_cxx17__normal_iteratorIPKhSt6vectorIhSaIhEEEEPhET0_T_SA_S9_ = comdat any

$_ZNSt20__uninitialized_copyILb1EE13__uninit_copyIN9__gnu_cxx17__normal_iteratorIPKhSt6vectorIhSaIhEEEEPhEET0_T_SC_SB_ = comdat any

$_ZSt4copyIN9__gnu_cxx17__normal_iteratorIPKhSt6vectorIhSaIhEEEEPhET0_T_SA_S9_ = comdat any

$_ZSt13__copy_move_aILb0EN9__gnu_cxx17__normal_iteratorIPKhSt6vectorIhSaIhEEEEPhET1_T0_SA_S9_ = comdat any

$_ZSt12__miter_baseIN9__gnu_cxx17__normal_iteratorIPKhSt6vectorIhSaIhEEEEET_S8_ = comdat any

$_ZSt12__niter_wrapIPhET_RKS1_S1_ = comdat any

$_ZSt14__copy_move_a1ILb0EPKhPhET1_T0_S4_S3_ = comdat any

$_ZSt12__niter_baseIPKhSt6vectorIhSaIhEEET_N9__gnu_cxx17__normal_iteratorIS5_T0_EE = comdat any

$_ZSt14__copy_move_a2ILb0EPKhPhET1_T0_S4_S3_ = comdat any

$_ZNSt11__copy_moveILb0ELb1ESt26random_access_iterator_tagE8__copy_mIhEEPT_PKS3_S6_S4_ = comdat any

$_ZNK9__gnu_cxx17__normal_iteratorIPKhSt6vectorIhSaIhEEE4baseEv = comdat any

$_ZN9__gnu_cxx17__normal_iteratorIPKhSt6vectorIhSaIhEEEC2ERKS2_ = comdat any

$_ZN9__gnu_cxx14__alloc_traitsISaIjEjE17_S_select_on_copyERKS1_ = comdat any

$_ZNSt12_Vector_baseIjSaIjEEC2EmRKS0_ = comdat any

$_ZSt22__uninitialized_copy_aIN9__gnu_cxx17__normal_iteratorIPKjSt6vectorIjSaIjEEEEPjjET0_T_SA_S9_RSaIT1_E = comdat any

$_ZNKSt6vectorIjSaIjEE5beginEv = comdat any

$_ZNKSt6vectorIjSaIjEE3endEv = comdat any

$_ZNSt16allocator_traitsISaIjEE37select_on_container_copy_constructionERKS0_ = comdat any

$_ZNSt12_Vector_baseIjSaIjEE17_M_create_storageEm = comdat any

$_ZSt18uninitialized_copyIN9__gnu_cxx17__normal_iteratorIPKjSt6vectorIjSaIjEEEEPjET0_T_SA_S9_ = comdat any

$_ZNSt20__uninitialized_copyILb1EE13__uninit_copyIN9__gnu_cxx17__normal_iteratorIPKjSt6vectorIjSaIjEEEEPjEET0_T_SC_SB_ = comdat any

$_ZSt4copyIN9__gnu_cxx17__normal_iteratorIPKjSt6vectorIjSaIjEEEEPjET0_T_SA_S9_ = comdat any

$_ZSt13__copy_move_aILb0EN9__gnu_cxx17__normal_iteratorIPKjSt6vectorIjSaIjEEEEPjET1_T0_SA_S9_ = comdat any

$_ZSt12__miter_baseIN9__gnu_cxx17__normal_iteratorIPKjSt6vectorIjSaIjEEEEET_S8_ = comdat any

$_ZSt12__niter_wrapIPjET_RKS1_S1_ = comdat any

$_ZSt14__copy_move_a1ILb0EPKjPjET1_T0_S4_S3_ = comdat any

$_ZSt12__niter_baseIPKjSt6vectorIjSaIjEEET_N9__gnu_cxx17__normal_iteratorIS5_T0_EE = comdat any

$_ZSt14__copy_move_a2ILb0EPKjPjET1_T0_S4_S3_ = comdat any

$_ZNSt11__copy_moveILb0ELb1ESt26random_access_iterator_tagE8__copy_mIjEEPT_PKS3_S6_S4_ = comdat any

$_ZNK9__gnu_cxx17__normal_iteratorIPKjSt6vectorIjSaIjEEE4baseEv = comdat any

$_ZN9__gnu_cxx17__normal_iteratorIPKjSt6vectorIjSaIjEEEC2ERKS2_ = comdat any

$_ZN9__gnu_cxx14__alloc_traitsISaIN7tinyobj5tag_tEES2_E17_S_select_on_copyERKS3_ = comdat any

$_ZNSt12_Vector_baseIN7tinyobj5tag_tESaIS1_EEC2EmRKS2_ = comdat any

$_ZNSt16allocator_traitsISaIN7tinyobj5tag_tEEE37select_on_container_copy_constructionERKS2_ = comdat any

$_ZNSt12_Vector_baseIN7tinyobj5tag_tESaIS1_EE17_M_create_storageEm = comdat any

$_ZNKSt6vectorIN7tinyobj7shape_tESaIS1_EE12_M_check_lenEmPKc = comdat any

$_ZN9__gnu_cxxmiIPN7tinyobj7shape_tESt6vectorIS2_SaIS2_EEEENS_17__normal_iteratorIT_T0_E15difference_typeERKSA_SD_ = comdat any

$_ZNSt6vectorIN7tinyobj7shape_tESaIS1_EE5beginEv = comdat any

$_ZNSt12_Vector_baseIN7tinyobj7shape_tESaIS1_EE11_M_allocateEm = comdat any

$_ZNSt6vectorIN7tinyobj7shape_tESaIS1_EE11_S_relocateEPS1_S4_S4_RS2_ = comdat any

$_ZNK9__gnu_cxx17__normal_iteratorIPN7tinyobj7shape_tESt6vectorIS2_SaIS2_EEE4baseEv = comdat any

$_ZNSt16allocator_traitsISaIN7tinyobj7shape_tEEE7destroyIS1_EEvRS2_PT_ = comdat any

$_ZNSt12_Vector_baseIN7tinyobj7shape_tESaIS1_EE13_M_deallocateEPS1_m = comdat any

$_ZNKSt6vectorIN7tinyobj7shape_tESaIS1_EE8max_sizeEv = comdat any

$_ZNKSt6vectorIN7tinyobj7shape_tESaIS1_EE4sizeEv = comdat any

$_ZNSt6vectorIN7tinyobj7shape_tESaIS1_EE11_S_max_sizeERKS2_ = comdat any

$_ZNKSt12_Vector_baseIN7tinyobj7shape_tESaIS1_EE19_M_get_Tp_allocatorEv = comdat any

$_ZNSt16allocator_traitsISaIN7tinyobj7shape_tEEE8max_sizeERKS2_ = comdat any

$_ZNKSt15__new_allocatorIN7tinyobj7shape_tEE8max_sizeEv = comdat any

$_ZNKSt15__new_allocatorIN7tinyobj7shape_tEE11_M_max_sizeEv = comdat any

$_ZN9__gnu_cxx17__normal_iteratorIPN7tinyobj7shape_tESt6vectorIS2_SaIS2_EEEC2ERKS3_ = comdat any

$_ZNSt16allocator_traitsISaIN7tinyobj7shape_tEEE8allocateERS2_m = comdat any

$_ZNSt15__new_allocatorIN7tinyobj7shape_tEE8allocateEmPKv = comdat any

$_ZSt12__relocate_aIPN7tinyobj7shape_tES2_SaIS1_EET0_T_S5_S4_RT1_ = comdat any

$_ZSt14__relocate_a_1IPN7tinyobj7shape_tES2_SaIS1_EET0_T_S5_S4_RT1_ = comdat any

$_ZSt12__niter_baseIPN7tinyobj7shape_tEET_S3_ = comdat any

$_ZSt19__relocate_object_aIN7tinyobj7shape_tES1_SaIS1_EEvPT_PT0_RT1_ = comdat any

$_ZNSt16allocator_traitsISaIN7tinyobj7shape_tEEE9constructIS1_JS1_EEEvRS2_PT_DpOT0_ = comdat any

$_ZNSt15__new_allocatorIN7tinyobj7shape_tEE9constructIS1_JS1_EEEvPT_DpOT0_ = comdat any

$_ZN7tinyobj7shape_tC2EOS0_ = comdat any

$_ZN7tinyobj6mesh_tC2EOS0_ = comdat any

$_ZN7tinyobj7lines_tC2EOS0_ = comdat any

$_ZN7tinyobj8points_tC2EOS0_ = comdat any

$_ZNSt6vectorIN7tinyobj7index_tESaIS1_EEC2EOS3_ = comdat any

$_ZNSt6vectorIhSaIhEEC2EOS1_ = comdat any

$_ZNSt6vectorIiSaIiEEC2EOS1_ = comdat any

$_ZNSt6vectorIjSaIjEEC2EOS1_ = comdat any

$_ZNSt6vectorIN7tinyobj5tag_tESaIS1_EEC2EOS3_ = comdat any

$_ZNSt12_Vector_baseIN7tinyobj7index_tESaIS1_EEC2EOS3_ = comdat any

$_ZNSt12_Vector_baseIN7tinyobj7index_tESaIS1_EE12_Vector_implC2EOS4_ = comdat any

$_ZNSt12_Vector_baseIN7tinyobj7index_tESaIS1_EE17_Vector_impl_dataC2EOS4_ = comdat any

$_ZNSt12_Vector_baseIhSaIhEEC2EOS1_ = comdat any

$_ZNSt12_Vector_baseIhSaIhEE12_Vector_implC2EOS2_ = comdat any

$_ZNSt12_Vector_baseIhSaIhEE17_Vector_impl_dataC2EOS2_ = comdat any

$_ZNSt12_Vector_baseIiSaIiEEC2EOS1_ = comdat any

$_ZNSt12_Vector_baseIiSaIiEE12_Vector_implC2EOS2_ = comdat any

$_ZNSt12_Vector_baseIiSaIiEE17_Vector_impl_dataC2EOS2_ = comdat any

$_ZNSt12_Vector_baseIjSaIjEEC2EOS1_ = comdat any

$_ZNSt12_Vector_baseIjSaIjEE12_Vector_implC2EOS2_ = comdat any

$_ZNSt12_Vector_baseIjSaIjEE17_Vector_impl_dataC2EOS2_ = comdat any

$_ZNSt12_Vector_baseIN7tinyobj5tag_tESaIS1_EEC2EOS3_ = comdat any

$_ZNSt12_Vector_baseIN7tinyobj5tag_tESaIS1_EE12_Vector_implC2EOS4_ = comdat any

$_ZNSt12_Vector_baseIN7tinyobj5tag_tESaIS1_EE17_Vector_impl_dataC2EOS4_ = comdat any

$_ZNSt15__new_allocatorIN7tinyobj7shape_tEE7destroyIS1_EEvPT_ = comdat any

$_ZNSt16allocator_traitsISaIN7tinyobj7shape_tEEE10deallocateERS2_PS1_m = comdat any

$_ZNSt15__new_allocatorIN7tinyobj7shape_tEE10deallocateEPS1_m = comdat any

$_ZNSt6vectorIiSaIiEE17_M_default_appendEm = comdat any

$_ZNSt6vectorIiSaIiEE15_M_erase_at_endEPi = comdat any

$_ZSt27__uninitialized_default_n_aIPimiET_S1_T0_RSaIT1_E = comdat any

$_ZSt25__uninitialized_default_nIPimET_S1_T0_ = comdat any

$_ZNSt27__uninitialized_default_n_1ILb1EE18__uninit_default_nIPimEET_S3_T0_ = comdat any

$_ZSt10_ConstructIiJEEvPT_DpOT0_ = comdat any

$_ZSt6fill_nIPimiET_S1_T0_RKT1_ = comdat any

$_ZSt10__fill_n_aIPimiET_S1_T0_RKT1_St26random_access_iterator_tag = comdat any

$_ZSt17__size_to_integerm = comdat any

$_ZSt19__iterator_categoryIPiENSt15iterator_traitsIT_E17iterator_categoryERKS2_ = comdat any

$_ZSt8__fill_aIPiiEvT_S1_RKT0_ = comdat any

$_ZSt9__fill_a1IPiiEN9__gnu_cxx11__enable_ifIXsr11__is_scalarIT0_EE7__valueEvE6__typeET_S6_RKS3_ = comdat any

$_ZNSt6vectorIfSaIfEE17_M_default_appendEm = comdat any

$_ZSt27__uninitialized_default_n_aIPfmfET_S1_T0_RSaIT1_E = comdat any

$_ZSt25__uninitialized_default_nIPfmET_S1_T0_ = comdat any

$_ZNSt27__uninitialized_default_n_1ILb1EE18__uninit_default_nIPfmEET_S3_T0_ = comdat any

$_ZSt10_ConstructIfJEEvPT_DpOT0_ = comdat any

$_ZSt6fill_nIPfmfET_S1_T0_RKT1_ = comdat any

$_ZSt10__fill_n_aIPfmfET_S1_T0_RKT1_St26random_access_iterator_tag = comdat any

$_ZSt19__iterator_categoryIPfENSt15iterator_traitsIT_E17iterator_categoryERKS2_ = comdat any

$_ZSt8__fill_aIPffEvT_S1_RKT0_ = comdat any

$_ZSt9__fill_a1IPffEN9__gnu_cxx11__enable_ifIXsr11__is_scalarIT0_EE7__valueEvE6__typeET_S6_RKS3_ = comdat any

$_ZNSt6vectorINSt7__cxx1112basic_stringIcSt11char_traitsIcESaIcEEESaIS5_EE17_M_default_appendEm = comdat any

$_ZNSt6vectorINSt7__cxx1112basic_stringIcSt11char_traitsIcESaIcEEESaIS5_EE15_M_erase_at_endEPS5_ = comdat any

$_ZSt27__uninitialized_default_n_aIPNSt7__cxx1112basic_stringIcSt11char_traitsIcESaIcEEEmS5_ET_S7_T0_RSaIT1_E = comdat any

$_ZSt25__uninitialized_default_nIPNSt7__cxx1112basic_stringIcSt11char_traitsIcESaIcEEEmET_S7_T0_ = comdat any

$_ZNSt27__uninitialized_default_n_1ILb0EE18__uninit_default_nIPNSt7__cxx1112basic_stringIcSt11char_traitsIcESaIcEEEmEET_S9_T0_ = comdat any

$_ZSt10_ConstructINSt7__cxx1112basic_stringIcSt11char_traitsIcESaIcEEEJEEvPT_DpOT0_ = comdat any

$_ZNSt16allocator_traitsISaIN7tinyobj5tag_tEEE9constructIS1_JRKS1_EEEvRS2_PT_DpOT0_ = comdat any

$_ZNSt6vectorIN7tinyobj5tag_tESaIS1_EE17_M_realloc_insertIJRKS1_EEEvN9__gnu_cxx17__normal_iteratorIPS1_S3_EEDpOT_ = comdat any

$_ZNSt15__new_allocatorIN7tinyobj5tag_tEE9constructIS1_JRKS1_EEEvPT_DpOT0_ = comdat any

$_ZNKSt6vectorIN7tinyobj5tag_tESaIS1_EE12_M_check_lenEmPKc = comdat any

$_ZN9__gnu_cxxmiIPN7tinyobj5tag_tESt6vectorIS2_SaIS2_EEEENS_17__normal_iteratorIT_T0_E15difference_typeERKSA_SD_ = comdat any

$_ZNSt6vectorIN7tinyobj5tag_tESaIS1_EE11_S_relocateEPS1_S4_S4_RS2_ = comdat any

$_ZNSt16allocator_traitsISaIN7tinyobj5tag_tEEE7destroyIS1_EEvRS2_PT_ = comdat any

$_ZNKSt6vectorIN7tinyobj5tag_tESaIS1_EE8max_sizeEv = comdat any

$_ZNSt6vectorIN7tinyobj5tag_tESaIS1_EE11_S_max_sizeERKS2_ = comdat any

$_ZNSt16allocator_traitsISaIN7tinyobj5tag_tEEE8max_sizeERKS2_ = comdat any

$_ZNKSt15__new_allocatorIN7tinyobj5tag_tEE8max_sizeEv = comdat any

$_ZSt12__relocate_aIPN7tinyobj5tag_tES2_SaIS1_EET0_T_S5_S4_RT1_ = comdat any

$_ZSt14__relocate_a_1IPN7tinyobj5tag_tES2_SaIS1_EET0_T_S5_S4_RT1_ = comdat any

$_ZSt19__relocate_object_aIN7tinyobj5tag_tES1_SaIS1_EEvPT_PT0_RT1_ = comdat any

$_ZNSt16allocator_traitsISaIN7tinyobj5tag_tEEE9constructIS1_JS1_EEEvRS2_PT_DpOT0_ = comdat any

$_ZNSt15__new_allocatorIN7tinyobj5tag_tEE9constructIS1_JS1_EEEvPT_DpOT0_ = comdat any

$_ZN7tinyobj5tag_tC2EOS0_ = comdat any

$_ZNSt6vectorIfSaIfEEC2EOS1_ = comdat any

$_ZNSt6vectorINSt7__cxx1112basic_stringIcSt11char_traitsIcESaIcEEESaIS5_EEC2EOS7_ = comdat any

$_ZNSt12_Vector_baseIfSaIfEEC2EOS1_ = comdat any

$_ZNSt12_Vector_baseIfSaIfEE12_Vector_implC2EOS2_ = comdat any

$_ZNSt12_Vector_baseIfSaIfEE17_Vector_impl_dataC2EOS2_ = comdat any

$_ZNSt12_Vector_baseINSt7__cxx1112basic_stringIcSt11char_traitsIcESaIcEEESaIS5_EEC2EOS7_ = comdat any

$_ZNSt12_Vector_baseINSt7__cxx1112basic_stringIcSt11char_traitsIcESaIcEEESaIS5_EE12_Vector_implC2EOS8_ = comdat any

$_ZNSt12_Vector_baseINSt7__cxx1112basic_stringIcSt11char_traitsIcESaIcEEESaIS5_EE17_Vector_impl_dataC2EOS8_ = comdat any

$_ZNSt15__new_allocatorIN7tinyobj5tag_tEE7destroyIS1_EEvPT_ = comdat any

$_ZNSt12_Vector_baseIfSaIfEE17_Vector_impl_data12_M_swap_dataERS2_ = comdat any

$_ZN9__gnu_cxx14__alloc_traitsISaIfEfE10_S_on_swapERS1_S3_ = comdat any

$_ZNSt12_Vector_baseIfSaIfEE17_Vector_impl_dataC2Ev = comdat any

$_ZNSt12_Vector_baseIfSaIfEE17_Vector_impl_data12_M_copy_dataERKS2_ = comdat any

$_ZSt15__alloc_on_swapISaIfEEvRT_S2_ = comdat any

$_ZNSt12_Vector_baseIN7tinyobj13skin_weight_tESaIS1_EE17_Vector_impl_data12_M_swap_dataERS4_ = comdat any

$_ZN9__gnu_cxx14__alloc_traitsISaIN7tinyobj13skin_weight_tEES2_E10_S_on_swapERS3_S5_ = comdat any

$_ZNSt12_Vector_baseIN7tinyobj13skin_weight_tESaIS1_EE17_Vector_impl_dataC2Ev = comdat any

$_ZNSt12_Vector_baseIN7tinyobj13skin_weight_tESaIS1_EE17_Vector_impl_data12_M_copy_dataERKS4_ = comdat any

$_ZSt15__alloc_on_swapISaIN7tinyobj13skin_weight_tEEEvRT_S4_ = comdat any

$_ZSt8_DestroyIPPKcS1_EvT_S3_RSaIT0_E = comdat any

$_ZNSt12_Vector_baseIPKcSaIS1_EE19_M_get_Tp_allocatorEv = comdat any

$_ZNSt12_Vector_baseIPKcSaIS1_EED2Ev = comdat any

$_ZSt8_DestroyIPPKcEvT_S3_ = comdat any

$_ZNSt12_Destroy_auxILb1EE9__destroyIPPKcEEvT_S5_ = comdat any

$_ZNSt12_Vector_baseIPKcSaIS1_EE13_M_deallocateEPS1_m = comdat any

$_ZNSt12_Vector_baseIPKcSaIS1_EE12_Vector_implD2Ev = comdat any

$_ZNSt16allocator_traitsISaIPKcEE10deallocateERS2_PS1_m = comdat any

$_ZNSt15__new_allocatorIPKcE10deallocateEPS1_m = comdat any

$_ZNSaIPKcED2Ev = comdat any

$_ZNSt15__new_allocatorIPKcED2Ev = comdat any

$_ZNSt6vectorIN7tinyobj7index_tESaIS1_EE15_M_erase_at_endEPS1_ = comdat any

$_ZNKSt6vectorIN7tinyobj7index_tESaIS1_EE14_M_range_checkEm = comdat any

$_ZNSt6vectorIN7tinyobj7index_tESaIS1_EEixEm = comdat any

$_ZNKSt6vectorIN7tinyobj10material_tESaIS1_EE14_M_range_checkEm = comdat any

$_ZNSt6vectorIN7tinyobj10material_tESaIS1_EEixEm = comdat any

$_ZNSt6vectorIPKcSaIS1_EE17_M_default_appendEm = comdat any

$_ZNSt6vectorIPKcSaIS1_EE15_M_erase_at_endEPS1_ = comdat any

$_ZNKSt6vectorIPKcSaIS1_EE8max_sizeEv = comdat any

$_ZSt27__uninitialized_default_n_aIPPKcmS1_ET_S3_T0_RSaIT1_E = comdat any

$_ZNKSt6vectorIPKcSaIS1_EE12_M_check_lenEmS1_ = comdat any

$_ZNSt12_Vector_baseIPKcSaIS1_EE11_M_allocateEm = comdat any

$_ZNSt6vectorIPKcSaIS1_EE11_S_relocateEPS1_S4_S4_RS2_ = comdat any

$_ZNSt6vectorIPKcSaIS1_EE11_S_max_sizeERKS2_ = comdat any

$_ZNKSt12_Vector_baseIPKcSaIS1_EE19_M_get_Tp_allocatorEv = comdat any

$_ZNSt16allocator_traitsISaIPKcEE8max_sizeERKS2_ = comdat any

$_ZNKSt15__new_allocatorIPKcE8max_sizeEv = comdat any

$_ZNKSt15__new_allocatorIPKcE11_M_max_sizeEv = comdat any

$_ZSt25__uninitialized_default_nIPPKcmET_S3_T0_ = comdat any

$_ZNSt27__uninitialized_default_n_1ILb1EE18__uninit_default_nIPPKcmEET_S5_T0_ = comdat any

$_ZSt10_ConstructIPKcJEEvPT_DpOT0_ = comdat any

$_ZSt6fill_nIPPKcmS1_ET_S3_T0_RKT1_ = comdat any

$_ZSt10__fill_n_aIPPKcmS1_ET_S3_T0_RKT1_St26random_access_iterator_tag = comdat any

$_ZSt19__iterator_categoryIPPKcENSt15iterator_traitsIT_E17iterator_categoryERKS4_ = comdat any

$_ZSt8__fill_aIPPKcS1_EvT_S3_RKT0_ = comdat any

$_ZSt9__fill_a1IPPKcS1_EN9__gnu_cxx11__enable_ifIXsr11__is_scalarIT0_EE7__valueEvE6__typeET_S8_RKS5_ = comdat any

$_ZNSt16allocator_traitsISaIPKcEE8allocateERS2_m = comdat any

$_ZNSt15__new_allocatorIPKcE8allocateEmPKv = comdat any

$_ZSt12__relocate_aIPPKcS2_SaIS1_EET0_T_S5_S4_RT1_ = comdat any

$_ZSt14__relocate_a_1IPKcS1_ENSt9enable_ifIXsr3std24__is_bitwise_relocatableIT_EE5valueEPS3_E4typeES4_S4_S4_RSaIT0_E = comdat any

$_ZSt12__niter_baseIPPKcET_S3_ = comdat any

$_ZNKSt6vectorIPKcSaIS1_EE14_M_range_checkEm = comdat any

@.str = private unnamed_addr constant [3 x i8] c" \09\00", align 1
@.str.1 = private unnamed_addr constant [8 x i8] c"-blendu\00", align 1
@.str.2 = private unnamed_addr constant [8 x i8] c"-blendv\00", align 1
@.str.3 = private unnamed_addr constant [7 x i8] c"-clamp\00", align 1
@.str.4 = private unnamed_addr constant [7 x i8] c"-boost\00", align 1
@.str.5 = private unnamed_addr constant [4 x i8] c"-bm\00", align 1
@.str.6 = private unnamed_addr constant [3 x i8] c"-o\00", align 1
@.str.7 = private unnamed_addr constant [3 x i8] c"-s\00", align 1
@.str.8 = private unnamed_addr constant [3 x i8] c"-t\00", align 1
@.str.9 = private unnamed_addr constant [6 x i8] c"-type\00", align 1
@.str.10 = private unnamed_addr constant [8 x i8] c"-texres\00", align 1
@.str.11 = private unnamed_addr constant [9 x i8] c"-imfchan\00", align 1
@.str.12 = private unnamed_addr constant [4 x i8] c" \09\0D\00", align 1
@.str.13 = private unnamed_addr constant [4 x i8] c"-mm\00", align 1
@.str.14 = private unnamed_addr constant [12 x i8] c"-colorspace\00", align 1
@.str.15 = private unnamed_addr constant [7 x i8] c"newmtl\00", align 1
@.str.16 = private unnamed_addr constant [33 x i8] c"empty material name in `newmtl`\0A\00", align 1
@.str.17 = private unnamed_addr constant [6 x i8] c"illum\00", align 1
@.str.18 = private unnamed_addr constant [43 x i8] c"Both `d` and `Tr` parameters defined for \22\00", align 1
@.str.19 = private unnamed_addr constant [44 x i8] c"\22. Use the value of `d` for dissolve (line \00", align 1
@.str.20 = private unnamed_addr constant [12 x i8] c" in .mtl.)\0A\00", align 1
@.str.21 = private unnamed_addr constant [4 x i8] c"Pcr\00", align 1
@.str.22 = private unnamed_addr constant [6 x i8] c"aniso\00", align 1
@.str.23 = private unnamed_addr constant [7 x i8] c"anisor\00", align 1
@.str.24 = private unnamed_addr constant [7 x i8] c"map_Ka\00", align 1
@.str.25 = private unnamed_addr constant [7 x i8] c"map_Kd\00", align 1
@.str.26 = private unnamed_addr constant [7 x i8] c"map_Ks\00", align 1
@.str.27 = private unnamed_addr constant [7 x i8] c"map_Ns\00", align 1
@.str.28 = private unnamed_addr constant [9 x i8] c"map_bump\00", align 1
@.str.29 = private unnamed_addr constant [9 x i8] c"map_Bump\00", align 1
@.str.30 = private unnamed_addr constant [5 x i8] c"bump\00", align 1
@.str.31 = private unnamed_addr constant [6 x i8] c"map_d\00", align 1
@.str.32 = private unnamed_addr constant [9 x i8] c"map_disp\00", align 1
@.str.33 = private unnamed_addr constant [9 x i8] c"map_Disp\00", align 1
@.str.34 = private unnamed_addr constant [5 x i8] c"disp\00", align 1
@.str.35 = private unnamed_addr constant [5 x i8] c"refl\00", align 1
@.str.36 = private unnamed_addr constant [7 x i8] c"map_Pr\00", align 1
@.str.37 = private unnamed_addr constant [7 x i8] c"map_Pm\00", align 1
@.str.38 = private unnamed_addr constant [7 x i8] c"map_Ps\00", align 1
@.str.39 = private unnamed_addr constant [7 x i8] c"map_Ke\00", align 1
@.str.40 = private unnamed_addr constant [5 x i8] c"norm\00", align 1
@.str.41 = private unnamed_addr constant [17 x i8] c"Material file [ \00", align 1
@.str.42 = private unnamed_addr constant [26 x i8] c" ] not found in a path : \00", align 1
@.str.43 = private unnamed_addr constant [2 x i8] c"\0A\00", align 1
@.str.44 = private unnamed_addr constant [34 x i8] c"Material stream in error state. \0A\00", align 1
@.str.45 = private unnamed_addr constant [19 x i8] c"Cannot open file [\00", align 1
@.str.46 = private unnamed_addr constant [3 x i8] c"]\0A\00", align 1
@.str.47 = private unnamed_addr constant [1 x i8] zeroinitializer, align 1
@.str.48 = private unnamed_addr constant [52 x i8] c"Failed parse `vw' line. joint_id is negative. line \00", align 1
@.str.49 = private unnamed_addr constant [4 x i8] c".)\0A\00", align 1
@.str.50 = private unnamed_addr constant [68 x i8] c"Failed to parse `l' line (e.g. a zero value for vertex index. Line \00", align 1
@.str.51 = private unnamed_addr constant [4 x i8] c").\0A\00", align 1
@.str.52 = private unnamed_addr constant [68 x i8] c"Failed to parse `p' line (e.g. a zero value for vertex index. Line \00", align 1
@.str.53 = private unnamed_addr constant [102 x i8] c"Failed to parse `f' line (e.g. a zero value for vertex index or invalid relative vertex index). Line \00", align 1
@.str.54 = private unnamed_addr constant [7 x i8] c"usemtl\00", align 1
@.str.55 = private unnamed_addr constant [13 x i8] c"material [ '\00", align 1
@.str.56 = private unnamed_addr constant [23 x i8] c"' ] not found in .mtl\0A\00", align 1
@.str.57 = private unnamed_addr constant [7 x i8] c"mtllib\00", align 1
@.str.58 = private unnamed_addr constant [66 x i8] c"Looks like empty filename for mtllib. Use default material (line \00", align 1
@.str.59 = private unnamed_addr constant [56 x i8] c"Failed to load material file(s). Use default material.\0A\00", align 1
@.str.60 = private unnamed_addr constant [25 x i8] c"Empty group name. line: \00", align 1
@.str.61 = private unnamed_addr constant [2 x i8] c" \00", align 1
@.str.62 = private unnamed_addr constant [36 x i8] c"Vertex indices out of bounds (line \00", align 1
@.str.63 = private unnamed_addr constant [5 x i8] c".)\0A\0A\00", align 1
@.str.64 = private unnamed_addr constant [43 x i8] c"Vertex normal indices out of bounds (line \00", align 1
@.str.65 = private unnamed_addr constant [45 x i8] c"Vertex texcoord indices out of bounds (line \00", align 1
@.str.66 = private unnamed_addr constant [12 x i8] c"material [ \00", align 1
@.str.67 = private unnamed_addr constant [22 x i8] c" ] not found in .mtl\0A\00", align 1
@.str.68 = private unnamed_addr constant [62 x i8] c"Looks like empty filename for mtllib. Use default material. \0A\00", align 1
@.str.69 = private unnamed_addr constant [3 x i8] c"/\\\00", align 1
@_ZTVN7tinyobj14MaterialReaderE = unnamed_addr constant { [5 x ptr] } { [5 x ptr] [ptr null, ptr @_ZTIN7tinyobj14MaterialReaderE, ptr @_ZN7tinyobj14MaterialReaderD1Ev, ptr @_ZN7tinyobj14MaterialReaderD0Ev, ptr @__cxa_pure_virtual] }, align 8
@_ZTVN10__cxxabiv117__class_type_infoE = external global [0 x ptr]
@_ZTSN7tinyobj14MaterialReaderE = constant [27 x i8] c"N7tinyobj14MaterialReaderE\00", align 1
@_ZTIN7tinyobj14MaterialReaderE = constant { ptr, ptr } { ptr getelementptr inbounds (ptr, ptr @_ZTVN10__cxxabiv117__class_type_infoE, i64 2), ptr @_ZTSN7tinyobj14MaterialReaderE }, align 8
@_ZTVN7tinyobj18MaterialFileReaderE = unnamed_addr constant { [5 x ptr] } { [5 x ptr] [ptr null, ptr @_ZTIN7tinyobj18MaterialFileReaderE, ptr @_ZN7tinyobj18MaterialFileReaderD2Ev, ptr @_ZN7tinyobj18MaterialFileReaderD0Ev, ptr @_ZN7tinyobj18MaterialFileReaderclERKNSt7__cxx1112basic_stringIcSt11char_traitsIcESaIcEEEPSt6vectorINS_10material_tESaISA_EEPSt3mapIS6_iSt4lessIS6_ESaISt4pairIS7_iEEEPS6_SM_] }, align 8
@_ZTVN10__cxxabiv120__si_class_type_infoE = external global [0 x ptr]
@_ZTSN7tinyobj18MaterialFileReaderE = constant [31 x i8] c"N7tinyobj18MaterialFileReaderE\00", align 1
@_ZTIN7tinyobj18MaterialFileReaderE = constant { ptr, ptr, ptr } { ptr getelementptr inbounds (ptr, ptr @_ZTVN10__cxxabiv120__si_class_type_infoE, i64 2), ptr @_ZTSN7tinyobj18MaterialFileReaderE, ptr @_ZTIN7tinyobj14MaterialReaderE }, align 8
@_ZTVN7tinyobj20MaterialStreamReaderE = unnamed_addr constant { [5 x ptr] } { [5 x ptr] [ptr null, ptr @_ZTIN7tinyobj20MaterialStreamReaderE, ptr @_ZN7tinyobj20MaterialStreamReaderD2Ev, ptr @_ZN7tinyobj20MaterialStreamReaderD0Ev, ptr @_ZN7tinyobj20MaterialStreamReaderclERKNSt7__cxx1112basic_stringIcSt11char_traitsIcESaIcEEEPSt6vectorINS_10material_tESaISA_EEPSt3mapIS6_iSt4lessIS6_ESaISt4pairIS7_iEEEPS6_SM_] }, align 8
@_ZTSN7tinyobj20MaterialStreamReaderE = constant [33 x i8] c"N7tinyobj20MaterialStreamReaderE\00", align 1
@_ZTIN7tinyobj20MaterialStreamReaderE = constant { ptr, ptr, ptr } { ptr getelementptr inbounds (ptr, ptr @_ZTVN10__cxxabiv120__si_class_type_infoE, i64 2), ptr @_ZTSN7tinyobj20MaterialStreamReaderE, ptr @_ZTIN7tinyobj14MaterialReaderE }, align 8
@.str.70 = private unnamed_addr constant [3 x i8] c"on\00", align 1
@.str.71 = private unnamed_addr constant [4 x i8] c"off\00", align 1
@_ZZN7tinyobjL14tryParseDoubleEPKcS1_PdE7pow_lut = internal constant [8 x double] [double 1.000000e+00, double 1.000000e-01, double 1.000000e-02, double 1.000000e-03, double 1.000000e-04, double 1.000000e-05, double 0x3EB0C6F7A0B5ED8D, double 0x3E7AD7F29ABCAF48], align 16
@.str.72 = private unnamed_addr constant [9 x i8] c"cube_top\00", align 1
@.str.73 = private unnamed_addr constant [12 x i8] c"cube_bottom\00", align 1
@.str.74 = private unnamed_addr constant [10 x i8] c"cube_left\00", align 1
@.str.75 = private unnamed_addr constant [11 x i8] c"cube_right\00", align 1
@.str.76 = private unnamed_addr constant [11 x i8] c"cube_front\00", align 1
@.str.77 = private unnamed_addr constant [10 x i8] c"cube_back\00", align 1
@.str.78 = private unnamed_addr constant [7 x i8] c"sphere\00", align 1
@.str.79 = private unnamed_addr constant [2 x i8] c"/\00", align 1
@.str.80 = private unnamed_addr constant [5 x i8] c"/ \09\0D\00", align 1
@.str.81 = private unnamed_addr constant [84 x i8] c"A zero value index found (will have a value of -1 for normal and tex indices. Line \00", align 1
@.str.82 = private unnamed_addr constant [25 x i8] c"Degenerated face found\0A.\00", align 1
@.str.83 = private unnamed_addr constant [39 x i8] c"Face with invalid vertex index found.\0A\00", align 1
@__const._ZN7tinyobjL19exportGroupsToShapeEPNS_7shape_tERKNS_9PrimGroupERKSt6vectorINS_5tag_tESaIS6_EEiRKNSt7__cxx1112basic_stringIcSt11char_traitsIcESaIcEEEbRKS5_IfSaIfEEPSG_.axes = private unnamed_addr constant [2 x i64] [i64 1, i64 2], align 16
@.str.84 = private unnamed_addr constant [26 x i8] c"vector::_M_realloc_insert\00", align 1
@_ZTVNSt7__cxx1115basic_stringbufIcSt11char_traitsIcESaIcEEE = external unnamed_addr constant { [16 x ptr] }, align 8
@.str.85 = private unnamed_addr constant [50 x i8] c"basic_string: construction from null is not valid\00", align 1
@.str.86 = private unnamed_addr constant [16 x i8] c"vector::reserve\00", align 1
@.str.87 = private unnamed_addr constant [26 x i8] c"vector::_M_default_append\00", align 1
@.str.88 = private unnamed_addr constant [74 x i8] c"vector::_M_range_check: __n (which is %zu) >= this->size() (which is %zu)\00", align 1

@_ZN7tinyobj14MaterialReaderD1Ev = unnamed_addr alias void (ptr), ptr @_ZN7tinyobj14MaterialReaderD2Ev

; Function Attrs: mustprogress nounwind uwtable
define void @_ZN7tinyobj14MaterialReaderD2Ev(ptr noundef nonnull align 8 dereferenceable(8) %this) unnamed_addr #0 align 2 {
entry:
  %this.addr = alloca ptr, align 8
  store ptr %this, ptr %this.addr, align 8
  ret void
}

; Function Attrs: mustprogress nounwind uwtable
define void @_ZN7tinyobj14MaterialReaderD0Ev(ptr noundef nonnull align 8 dereferenceable(8) %this) unnamed_addr #0 align 2 {
entry:
  %this.addr = alloca ptr, align 8
  store ptr %this, ptr %this.addr, align 8
  call void @llvm.trap() #13
  unreachable
}

; Function Attrs: cold noreturn nounwind memory(inaccessiblemem: write)
declare void @llvm.trap() #1

; Function Attrs: mustprogress uwtable
define noundef zeroext i1 @_ZN7tinyobj25ParseTextureNameAndOptionEPNSt7__cxx1112basic_stringIcSt11char_traitsIcESaIcEEEPNS_16texture_option_tEPKc(ptr noundef %texname, ptr noundef %texopt, ptr noundef %linebuf) #2 personality ptr @__gxx_personality_v0 {
entry:
  %retval = alloca i1, align 1
  %texname.addr = alloca ptr, align 8
  %texopt.addr = alloca ptr, align 8
  %linebuf.addr = alloca ptr, align 8
  %found_texname = alloca i8, align 1
  %texture_name = alloca %"class.std::__cxx11::basic_string", align 8
  %token = alloca ptr, align 8
  %exn.slot = alloca ptr, align 8
  %ehselector.slot = alloca i32, align 4
  %end = alloca ptr, align 8
  %ref.tmp = alloca %"class.std::__cxx11::basic_string", align 8
  %ref.tmp212 = alloca %"class.std::__cxx11::basic_string", align 8
  %ref.tmp213 = alloca %"class.std::allocator", align 1
  %cleanup.dest.slot = alloca i32, align 4
  store ptr %texname, ptr %texname.addr, align 8
  store ptr %texopt, ptr %texopt.addr, align 8
  store ptr %linebuf, ptr %linebuf.addr, align 8
  store i8 0, ptr %found_texname, align 1
  call void @_ZNSt7__cxx1112basic_stringIcSt11char_traitsIcESaIcEEC1Ev(ptr noundef nonnull align 8 dereferenceable(32) %texture_name) #14
  %0 = load ptr, ptr %linebuf.addr, align 8
  store ptr %0, ptr %token, align 8
  br label %while.cond

while.cond:                                       ; preds = %if.end231, %entry
  %1 = load ptr, ptr %token, align 8
  %2 = load i8, ptr %1, align 1
  %conv = sext i8 %2 to i32
  %cmp = icmp eq i32 %conv, 13
  br i1 %cmp, label %lor.end, label %lor.lhs.false

lor.lhs.false:                                    ; preds = %while.cond
  %3 = load ptr, ptr %token, align 8
  %4 = load i8, ptr %3, align 1
  %conv1 = sext i8 %4 to i32
  %cmp2 = icmp eq i32 %conv1, 10
  br i1 %cmp2, label %lor.end, label %lor.rhs

lor.rhs:                                          ; preds = %lor.lhs.false
  %5 = load ptr, ptr %token, align 8
  %6 = load i8, ptr %5, align 1
  %conv3 = sext i8 %6 to i32
  %cmp4 = icmp eq i32 %conv3, 0
  br label %lor.end

lor.end:                                          ; preds = %lor.rhs, %lor.lhs.false, %while.cond
  %7 = phi i1 [ true, %lor.lhs.false ], [ true, %while.cond ], [ %cmp4, %lor.rhs ]
  %lnot = xor i1 %7, true
  br i1 %lnot, label %while.body, label %while.end

while.body:                                       ; preds = %lor.end
  %8 = load ptr, ptr %token, align 8
  %call = call i64 @strspn(ptr noundef %8, ptr noundef @.str) #15
  %9 = load ptr, ptr %token, align 8
  %add.ptr = getelementptr inbounds i8, ptr %9, i64 %call
  store ptr %add.ptr, ptr %token, align 8
  %10 = load ptr, ptr %token, align 8
  %call5 = call i32 @strncmp(ptr noundef %10, ptr noundef @.str.1, i64 noundef 7) #15
  %cmp6 = icmp eq i32 0, %call5
  br i1 %cmp6, label %land.lhs.true, label %if.else

land.lhs.true:                                    ; preds = %while.body
  %11 = load ptr, ptr %token, align 8
  %arrayidx = getelementptr inbounds i8, ptr %11, i64 7
  %12 = load i8, ptr %arrayidx, align 1
  %conv7 = sext i8 %12 to i32
  %cmp8 = icmp eq i32 %conv7, 32
  br i1 %cmp8, label %if.then, label %lor.lhs.false9

lor.lhs.false9:                                   ; preds = %land.lhs.true
  %13 = load ptr, ptr %token, align 8
  %arrayidx10 = getelementptr inbounds i8, ptr %13, i64 7
  %14 = load i8, ptr %arrayidx10, align 1
  %conv11 = sext i8 %14 to i32
  %cmp12 = icmp eq i32 %conv11, 9
  br i1 %cmp12, label %if.then, label %if.else

if.then:                                          ; preds = %lor.lhs.false9, %land.lhs.true
  %15 = load ptr, ptr %token, align 8
  %add.ptr13 = getelementptr inbounds i8, ptr %15, i64 8
  store ptr %add.ptr13, ptr %token, align 8
  %call14 = invoke noundef zeroext i1 @_ZN7tinyobjL10parseOnOffEPPKcb(ptr noundef %token, i1 noundef zeroext true)
          to label %invoke.cont unwind label %lpad

invoke.cont:                                      ; preds = %if.then
  %16 = load ptr, ptr %texopt.addr, align 8
  %blendu = getelementptr inbounds %"struct.tinyobj::texture_option_t", ptr %16, i32 0, i32 10
  %frombool = zext i1 %call14 to i8
  store i8 %frombool, ptr %blendu, align 2
  br label %if.end231

lpad:                                             ; preds = %if.then232, %if.then207, %if.then193, %if.then159, %if.then144, %if.then125, %if.then106, %if.then87, %if.then72, %if.then57, %if.then41, %if.then25, %if.then
  %17 = landingpad { ptr, i32 }
          cleanup
  %18 = extractvalue { ptr, i32 } %17, 0
  store ptr %18, ptr %exn.slot, align 8
  %19 = extractvalue { ptr, i32 } %17, 1
  store i32 %19, ptr %ehselector.slot, align 4
  br label %ehcleanup

if.else:                                          ; preds = %lor.lhs.false9, %while.body
  %20 = load ptr, ptr %token, align 8
  %call15 = call i32 @strncmp(ptr noundef %20, ptr noundef @.str.2, i64 noundef 7) #15
  %cmp16 = icmp eq i32 0, %call15
  br i1 %cmp16, label %land.lhs.true17, label %if.else30

land.lhs.true17:                                  ; preds = %if.else
  %21 = load ptr, ptr %token, align 8
  %arrayidx18 = getelementptr inbounds i8, ptr %21, i64 7
  %22 = load i8, ptr %arrayidx18, align 1
  %conv19 = sext i8 %22 to i32
  %cmp20 = icmp eq i32 %conv19, 32
  br i1 %cmp20, label %if.then25, label %lor.lhs.false21

lor.lhs.false21:                                  ; preds = %land.lhs.true17
  %23 = load ptr, ptr %token, align 8
  %arrayidx22 = getelementptr inbounds i8, ptr %23, i64 7
  %24 = load i8, ptr %arrayidx22, align 1
  %conv23 = sext i8 %24 to i32
  %cmp24 = icmp eq i32 %conv23, 9
  br i1 %cmp24, label %if.then25, label %if.else30

if.then25:                                        ; preds = %lor.lhs.false21, %land.lhs.true17
  %25 = load ptr, ptr %token, align 8
  %add.ptr26 = getelementptr inbounds i8, ptr %25, i64 8
  store ptr %add.ptr26, ptr %token, align 8
  %call28 = invoke noundef zeroext i1 @_ZN7tinyobjL10parseOnOffEPPKcb(ptr noundef %token, i1 noundef zeroext true)
          to label %invoke.cont27 unwind label %lpad

invoke.cont27:                                    ; preds = %if.then25
  %26 = load ptr, ptr %texopt.addr, align 8
  %blendv = getelementptr inbounds %"struct.tinyobj::texture_option_t", ptr %26, i32 0, i32 11
  %frombool29 = zext i1 %call28 to i8
  store i8 %frombool29, ptr %blendv, align 1
  br label %if.end230

if.else30:                                        ; preds = %lor.lhs.false21, %if.else
  %27 = load ptr, ptr %token, align 8
  %call31 = call i32 @strncmp(ptr noundef %27, ptr noundef @.str.3, i64 noundef 6) #15
  %cmp32 = icmp eq i32 0, %call31
  br i1 %cmp32, label %land.lhs.true33, label %if.else46

land.lhs.true33:                                  ; preds = %if.else30
  %28 = load ptr, ptr %token, align 8
  %arrayidx34 = getelementptr inbounds i8, ptr %28, i64 6
  %29 = load i8, ptr %arrayidx34, align 1
  %conv35 = sext i8 %29 to i32
  %cmp36 = icmp eq i32 %conv35, 32
  br i1 %cmp36, label %if.then41, label %lor.lhs.false37

lor.lhs.false37:                                  ; preds = %land.lhs.true33
  %30 = load ptr, ptr %token, align 8
  %arrayidx38 = getelementptr inbounds i8, ptr %30, i64 6
  %31 = load i8, ptr %arrayidx38, align 1
  %conv39 = sext i8 %31 to i32
  %cmp40 = icmp eq i32 %conv39, 9
  br i1 %cmp40, label %if.then41, label %if.else46

if.then41:                                        ; preds = %lor.lhs.false37, %land.lhs.true33
  %32 = load ptr, ptr %token, align 8
  %add.ptr42 = getelementptr inbounds i8, ptr %32, i64 7
  store ptr %add.ptr42, ptr %token, align 8
  %call44 = invoke noundef zeroext i1 @_ZN7tinyobjL10parseOnOffEPPKcb(ptr noundef %token, i1 noundef zeroext true)
          to label %invoke.cont43 unwind label %lpad

invoke.cont43:                                    ; preds = %if.then41
  %33 = load ptr, ptr %texopt.addr, align 8
  %clamp = getelementptr inbounds %"struct.tinyobj::texture_option_t", ptr %33, i32 0, i32 8
  %frombool45 = zext i1 %call44 to i8
  store i8 %frombool45, ptr %clamp, align 8
  br label %if.end229

if.else46:                                        ; preds = %lor.lhs.false37, %if.else30
  %34 = load ptr, ptr %token, align 8
  %call47 = call i32 @strncmp(ptr noundef %34, ptr noundef @.str.4, i64 noundef 6) #15
  %cmp48 = icmp eq i32 0, %call47
  br i1 %cmp48, label %land.lhs.true49, label %if.else61

land.lhs.true49:                                  ; preds = %if.else46
  %35 = load ptr, ptr %token, align 8
  %arrayidx50 = getelementptr inbounds i8, ptr %35, i64 6
  %36 = load i8, ptr %arrayidx50, align 1
  %conv51 = sext i8 %36 to i32
  %cmp52 = icmp eq i32 %conv51, 32
  br i1 %cmp52, label %if.then57, label %lor.lhs.false53

lor.lhs.false53:                                  ; preds = %land.lhs.true49
  %37 = load ptr, ptr %token, align 8
  %arrayidx54 = getelementptr inbounds i8, ptr %37, i64 6
  %38 = load i8, ptr %arrayidx54, align 1
  %conv55 = sext i8 %38 to i32
  %cmp56 = icmp eq i32 %conv55, 9
  br i1 %cmp56, label %if.then57, label %if.else61

if.then57:                                        ; preds = %lor.lhs.false53, %land.lhs.true49
  %39 = load ptr, ptr %token, align 8
  %add.ptr58 = getelementptr inbounds i8, ptr %39, i64 7
  store ptr %add.ptr58, ptr %token, align 8
  %call60 = invoke noundef float @_ZN7tinyobjL9parseRealEPPKcd(ptr noundef %token, double noundef 1.000000e+00)
          to label %invoke.cont59 unwind label %lpad

invoke.cont59:                                    ; preds = %if.then57
  %40 = load ptr, ptr %texopt.addr, align 8
  %sharpness = getelementptr inbounds %"struct.tinyobj::texture_option_t", ptr %40, i32 0, i32 1
  store float %call60, ptr %sharpness, align 4
  br label %if.end228

if.else61:                                        ; preds = %lor.lhs.false53, %if.else46
  %41 = load ptr, ptr %token, align 8
  %call62 = call i32 @strncmp(ptr noundef %41, ptr noundef @.str.5, i64 noundef 3) #15
  %cmp63 = icmp eq i32 0, %call62
  br i1 %cmp63, label %land.lhs.true64, label %if.else76

land.lhs.true64:                                  ; preds = %if.else61
  %42 = load ptr, ptr %token, align 8
  %arrayidx65 = getelementptr inbounds i8, ptr %42, i64 3
  %43 = load i8, ptr %arrayidx65, align 1
  %conv66 = sext i8 %43 to i32
  %cmp67 = icmp eq i32 %conv66, 32
  br i1 %cmp67, label %if.then72, label %lor.lhs.false68

lor.lhs.false68:                                  ; preds = %land.lhs.true64
  %44 = load ptr, ptr %token, align 8
  %arrayidx69 = getelementptr inbounds i8, ptr %44, i64 3
  %45 = load i8, ptr %arrayidx69, align 1
  %conv70 = sext i8 %45 to i32
  %cmp71 = icmp eq i32 %conv70, 9
  br i1 %cmp71, label %if.then72, label %if.else76

if.then72:                                        ; preds = %lor.lhs.false68, %land.lhs.true64
  %46 = load ptr, ptr %token, align 8
  %add.ptr73 = getelementptr inbounds i8, ptr %46, i64 4
  store ptr %add.ptr73, ptr %token, align 8
  %call75 = invoke noundef float @_ZN7tinyobjL9parseRealEPPKcd(ptr noundef %token, double noundef 1.000000e+00)
          to label %invoke.cont74 unwind label %lpad

invoke.cont74:                                    ; preds = %if.then72
  %47 = load ptr, ptr %texopt.addr, align 8
  %bump_multiplier = getelementptr inbounds %"struct.tinyobj::texture_option_t", ptr %47, i32 0, i32 12
  store float %call75, ptr %bump_multiplier, align 4
  br label %if.end227

if.else76:                                        ; preds = %lor.lhs.false68, %if.else61
  %48 = load ptr, ptr %token, align 8
  %call77 = call i32 @strncmp(ptr noundef %48, ptr noundef @.str.6, i64 noundef 2) #15
  %cmp78 = icmp eq i32 0, %call77
  br i1 %cmp78, label %land.lhs.true79, label %if.else95

land.lhs.true79:                                  ; preds = %if.else76
  %49 = load ptr, ptr %token, align 8
  %arrayidx80 = getelementptr inbounds i8, ptr %49, i64 2
  %50 = load i8, ptr %arrayidx80, align 1
  %conv81 = sext i8 %50 to i32
  %cmp82 = icmp eq i32 %conv81, 32
  br i1 %cmp82, label %if.then87, label %lor.lhs.false83

lor.lhs.false83:                                  ; preds = %land.lhs.true79
  %51 = load ptr, ptr %token, align 8
  %arrayidx84 = getelementptr inbounds i8, ptr %51, i64 2
  %52 = load i8, ptr %arrayidx84, align 1
  %conv85 = sext i8 %52 to i32
  %cmp86 = icmp eq i32 %conv85, 9
  br i1 %cmp86, label %if.then87, label %if.else95

if.then87:                                        ; preds = %lor.lhs.false83, %land.lhs.true79
  %53 = load ptr, ptr %token, align 8
  %add.ptr88 = getelementptr inbounds i8, ptr %53, i64 3
  store ptr %add.ptr88, ptr %token, align 8
  %54 = load ptr, ptr %texopt.addr, align 8
  %origin_offset = getelementptr inbounds %"struct.tinyobj::texture_option_t", ptr %54, i32 0, i32 4
  %arrayidx89 = getelementptr inbounds [3 x float], ptr %origin_offset, i64 0, i64 0
  %55 = load ptr, ptr %texopt.addr, align 8
  %origin_offset90 = getelementptr inbounds %"struct.tinyobj::texture_option_t", ptr %55, i32 0, i32 4
  %arrayidx91 = getelementptr inbounds [3 x float], ptr %origin_offset90, i64 0, i64 1
  %56 = load ptr, ptr %texopt.addr, align 8
  %origin_offset92 = getelementptr inbounds %"struct.tinyobj::texture_option_t", ptr %56, i32 0, i32 4
  %arrayidx93 = getelementptr inbounds [3 x float], ptr %origin_offset92, i64 0, i64 2
  invoke void @_ZN7tinyobjL10parseReal3EPfS0_S0_PPKcddd(ptr noundef %arrayidx89, ptr noundef %arrayidx91, ptr noundef %arrayidx93, ptr noundef %token, double noundef 0.000000e+00, double noundef 0.000000e+00, double noundef 0.000000e+00)
          to label %invoke.cont94 unwind label %lpad

invoke.cont94:                                    ; preds = %if.then87
  br label %if.end226

if.else95:                                        ; preds = %lor.lhs.false83, %if.else76
  %57 = load ptr, ptr %token, align 8
  %call96 = call i32 @strncmp(ptr noundef %57, ptr noundef @.str.7, i64 noundef 2) #15
  %cmp97 = icmp eq i32 0, %call96
  br i1 %cmp97, label %land.lhs.true98, label %if.else114

land.lhs.true98:                                  ; preds = %if.else95
  %58 = load ptr, ptr %token, align 8
  %arrayidx99 = getelementptr inbounds i8, ptr %58, i64 2
  %59 = load i8, ptr %arrayidx99, align 1
  %conv100 = sext i8 %59 to i32
  %cmp101 = icmp eq i32 %conv100, 32
  br i1 %cmp101, label %if.then106, label %lor.lhs.false102

lor.lhs.false102:                                 ; preds = %land.lhs.true98
  %60 = load ptr, ptr %token, align 8
  %arrayidx103 = getelementptr inbounds i8, ptr %60, i64 2
  %61 = load i8, ptr %arrayidx103, align 1
  %conv104 = sext i8 %61 to i32
  %cmp105 = icmp eq i32 %conv104, 9
  br i1 %cmp105, label %if.then106, label %if.else114

if.then106:                                       ; preds = %lor.lhs.false102, %land.lhs.true98
  %62 = load ptr, ptr %token, align 8
  %add.ptr107 = getelementptr inbounds i8, ptr %62, i64 3
  store ptr %add.ptr107, ptr %token, align 8
  %63 = load ptr, ptr %texopt.addr, align 8
  %scale = getelementptr inbounds %"struct.tinyobj::texture_option_t", ptr %63, i32 0, i32 5
  %arrayidx108 = getelementptr inbounds [3 x float], ptr %scale, i64 0, i64 0
  %64 = load ptr, ptr %texopt.addr, align 8
  %scale109 = getelementptr inbounds %"struct.tinyobj::texture_option_t", ptr %64, i32 0, i32 5
  %arrayidx110 = getelementptr inbounds [3 x float], ptr %scale109, i64 0, i64 1
  %65 = load ptr, ptr %texopt.addr, align 8
  %scale111 = getelementptr inbounds %"struct.tinyobj::texture_option_t", ptr %65, i32 0, i32 5
  %arrayidx112 = getelementptr inbounds [3 x float], ptr %scale111, i64 0, i64 2
  invoke void @_ZN7tinyobjL10parseReal3EPfS0_S0_PPKcddd(ptr noundef %arrayidx108, ptr noundef %arrayidx110, ptr noundef %arrayidx112, ptr noundef %token, double noundef 1.000000e+00, double noundef 1.000000e+00, double noundef 1.000000e+00)
          to label %invoke.cont113 unwind label %lpad

invoke.cont113:                                   ; preds = %if.then106
  br label %if.end225

if.else114:                                       ; preds = %lor.lhs.false102, %if.else95
  %66 = load ptr, ptr %token, align 8
  %call115 = call i32 @strncmp(ptr noundef %66, ptr noundef @.str.8, i64 noundef 2) #15
  %cmp116 = icmp eq i32 0, %call115
  br i1 %cmp116, label %land.lhs.true117, label %if.else133

land.lhs.true117:                                 ; preds = %if.else114
  %67 = load ptr, ptr %token, align 8
  %arrayidx118 = getelementptr inbounds i8, ptr %67, i64 2
  %68 = load i8, ptr %arrayidx118, align 1
  %conv119 = sext i8 %68 to i32
  %cmp120 = icmp eq i32 %conv119, 32
  br i1 %cmp120, label %if.then125, label %lor.lhs.false121

lor.lhs.false121:                                 ; preds = %land.lhs.true117
  %69 = load ptr, ptr %token, align 8
  %arrayidx122 = getelementptr inbounds i8, ptr %69, i64 2
  %70 = load i8, ptr %arrayidx122, align 1
  %conv123 = sext i8 %70 to i32
  %cmp124 = icmp eq i32 %conv123, 9
  br i1 %cmp124, label %if.then125, label %if.else133

if.then125:                                       ; preds = %lor.lhs.false121, %land.lhs.true117
  %71 = load ptr, ptr %token, align 8
  %add.ptr126 = getelementptr inbounds i8, ptr %71, i64 3
  store ptr %add.ptr126, ptr %token, align 8
  %72 = load ptr, ptr %texopt.addr, align 8
  %turbulence = getelementptr inbounds %"struct.tinyobj::texture_option_t", ptr %72, i32 0, i32 6
  %arrayidx127 = getelementptr inbounds [3 x float], ptr %turbulence, i64 0, i64 0
  %73 = load ptr, ptr %texopt.addr, align 8
  %turbulence128 = getelementptr inbounds %"struct.tinyobj::texture_option_t", ptr %73, i32 0, i32 6
  %arrayidx129 = getelementptr inbounds [3 x float], ptr %turbulence128, i64 0, i64 1
  %74 = load ptr, ptr %texopt.addr, align 8
  %turbulence130 = getelementptr inbounds %"struct.tinyobj::texture_option_t", ptr %74, i32 0, i32 6
  %arrayidx131 = getelementptr inbounds [3 x float], ptr %turbulence130, i64 0, i64 2
  invoke void @_ZN7tinyobjL10parseReal3EPfS0_S0_PPKcddd(ptr noundef %arrayidx127, ptr noundef %arrayidx129, ptr noundef %arrayidx131, ptr noundef %token, double noundef 0.000000e+00, double noundef 0.000000e+00, double noundef 0.000000e+00)
          to label %invoke.cont132 unwind label %lpad

invoke.cont132:                                   ; preds = %if.then125
  br label %if.end224

if.else133:                                       ; preds = %lor.lhs.false121, %if.else114
  %75 = load ptr, ptr %token, align 8
  %call134 = call i32 @strncmp(ptr noundef %75, ptr noundef @.str.9, i64 noundef 5) #15
  %cmp135 = icmp eq i32 0, %call134
  br i1 %cmp135, label %land.lhs.true136, label %if.else148

land.lhs.true136:                                 ; preds = %if.else133
  %76 = load ptr, ptr %token, align 8
  %arrayidx137 = getelementptr inbounds i8, ptr %76, i64 5
  %77 = load i8, ptr %arrayidx137, align 1
  %conv138 = sext i8 %77 to i32
  %cmp139 = icmp eq i32 %conv138, 32
  br i1 %cmp139, label %if.then144, label %lor.lhs.false140

lor.lhs.false140:                                 ; preds = %land.lhs.true136
  %78 = load ptr, ptr %token, align 8
  %arrayidx141 = getelementptr inbounds i8, ptr %78, i64 5
  %79 = load i8, ptr %arrayidx141, align 1
  %conv142 = sext i8 %79 to i32
  %cmp143 = icmp eq i32 %conv142, 9
  br i1 %cmp143, label %if.then144, label %if.else148

if.then144:                                       ; preds = %lor.lhs.false140, %land.lhs.true136
  %80 = load ptr, ptr %token, align 8
  %add.ptr145 = getelementptr inbounds i8, ptr %80, i64 5
  store ptr %add.ptr145, ptr %token, align 8
  %call147 = invoke noundef i32 @_ZN7tinyobjL16parseTextureTypeEPPKcNS_14texture_type_tE(ptr noundef %token, i32 noundef 0)
          to label %invoke.cont146 unwind label %lpad

invoke.cont146:                                   ; preds = %if.then144
  %81 = load ptr, ptr %texopt.addr, align 8
  %type = getelementptr inbounds %"struct.tinyobj::texture_option_t", ptr %81, i32 0, i32 0
  store i32 %call147, ptr %type, align 8
  br label %if.end223

if.else148:                                       ; preds = %lor.lhs.false140, %if.else133
  %82 = load ptr, ptr %token, align 8
  %call149 = call i32 @strncmp(ptr noundef %82, ptr noundef @.str.10, i64 noundef 7) #15
  %cmp150 = icmp eq i32 0, %call149
  br i1 %cmp150, label %land.lhs.true151, label %if.else163

land.lhs.true151:                                 ; preds = %if.else148
  %83 = load ptr, ptr %token, align 8
  %arrayidx152 = getelementptr inbounds i8, ptr %83, i64 7
  %84 = load i8, ptr %arrayidx152, align 1
  %conv153 = sext i8 %84 to i32
  %cmp154 = icmp eq i32 %conv153, 32
  br i1 %cmp154, label %if.then159, label %lor.lhs.false155

lor.lhs.false155:                                 ; preds = %land.lhs.true151
  %85 = load ptr, ptr %token, align 8
  %arrayidx156 = getelementptr inbounds i8, ptr %85, i64 7
  %86 = load i8, ptr %arrayidx156, align 1
  %conv157 = sext i8 %86 to i32
  %cmp158 = icmp eq i32 %conv157, 9
  br i1 %cmp158, label %if.then159, label %if.else163

if.then159:                                       ; preds = %lor.lhs.false155, %land.lhs.true151
  %87 = load ptr, ptr %token, align 8
  %add.ptr160 = getelementptr inbounds i8, ptr %87, i64 7
  store ptr %add.ptr160, ptr %token, align 8
  %call162 = invoke noundef i32 @_ZN7tinyobjL8parseIntEPPKc(ptr noundef %token)
          to label %invoke.cont161 unwind label %lpad

invoke.cont161:                                   ; preds = %if.then159
  %88 = load ptr, ptr %texopt.addr, align 8
  %texture_resolution = getelementptr inbounds %"struct.tinyobj::texture_option_t", ptr %88, i32 0, i32 7
  store i32 %call162, ptr %texture_resolution, align 4
  br label %if.end222

if.else163:                                       ; preds = %lor.lhs.false155, %if.else148
  %89 = load ptr, ptr %token, align 8
  %call164 = call i32 @strncmp(ptr noundef %89, ptr noundef @.str.11, i64 noundef 8) #15
  %cmp165 = icmp eq i32 0, %call164
  br i1 %cmp165, label %land.lhs.true166, label %if.else182

land.lhs.true166:                                 ; preds = %if.else163
  %90 = load ptr, ptr %token, align 8
  %arrayidx167 = getelementptr inbounds i8, ptr %90, i64 8
  %91 = load i8, ptr %arrayidx167, align 1
  %conv168 = sext i8 %91 to i32
  %cmp169 = icmp eq i32 %conv168, 32
  br i1 %cmp169, label %if.then174, label %lor.lhs.false170

lor.lhs.false170:                                 ; preds = %land.lhs.true166
  %92 = load ptr, ptr %token, align 8
  %arrayidx171 = getelementptr inbounds i8, ptr %92, i64 8
  %93 = load i8, ptr %arrayidx171, align 1
  %conv172 = sext i8 %93 to i32
  %cmp173 = icmp eq i32 %conv172, 9
  br i1 %cmp173, label %if.then174, label %if.else182

if.then174:                                       ; preds = %lor.lhs.false170, %land.lhs.true166
  %94 = load ptr, ptr %token, align 8
  %add.ptr175 = getelementptr inbounds i8, ptr %94, i64 9
  store ptr %add.ptr175, ptr %token, align 8
  %95 = load ptr, ptr %token, align 8
  %call176 = call i64 @strspn(ptr noundef %95, ptr noundef @.str) #15
  %96 = load ptr, ptr %token, align 8
  %add.ptr177 = getelementptr inbounds i8, ptr %96, i64 %call176
  store ptr %add.ptr177, ptr %token, align 8
  %97 = load ptr, ptr %token, align 8
  %98 = load ptr, ptr %token, align 8
  %call178 = call i64 @strcspn(ptr noundef %98, ptr noundef @.str.12) #15
  %add.ptr179 = getelementptr inbounds i8, ptr %97, i64 %call178
  store ptr %add.ptr179, ptr %end, align 8
  %99 = load ptr, ptr %end, align 8
  %100 = load ptr, ptr %token, align 8
  %sub.ptr.lhs.cast = ptrtoint ptr %99 to i64
  %sub.ptr.rhs.cast = ptrtoint ptr %100 to i64
  %sub.ptr.sub = sub i64 %sub.ptr.lhs.cast, %sub.ptr.rhs.cast
  %cmp180 = icmp eq i64 %sub.ptr.sub, 1
  br i1 %cmp180, label %if.then181, label %if.end

if.then181:                                       ; preds = %if.then174
  %101 = load ptr, ptr %token, align 8
  %102 = load i8, ptr %101, align 1
  %103 = load ptr, ptr %texopt.addr, align 8
  %imfchan = getelementptr inbounds %"struct.tinyobj::texture_option_t", ptr %103, i32 0, i32 9
  store i8 %102, ptr %imfchan, align 1
  br label %if.end

if.end:                                           ; preds = %if.then181, %if.then174
  %104 = load ptr, ptr %end, align 8
  store ptr %104, ptr %token, align 8
  br label %if.end221

if.else182:                                       ; preds = %lor.lhs.false170, %if.else163
  %105 = load ptr, ptr %token, align 8
  %call183 = call i32 @strncmp(ptr noundef %105, ptr noundef @.str.13, i64 noundef 3) #15
  %cmp184 = icmp eq i32 0, %call183
  br i1 %cmp184, label %land.lhs.true185, label %if.else196

land.lhs.true185:                                 ; preds = %if.else182
  %106 = load ptr, ptr %token, align 8
  %arrayidx186 = getelementptr inbounds i8, ptr %106, i64 3
  %107 = load i8, ptr %arrayidx186, align 1
  %conv187 = sext i8 %107 to i32
  %cmp188 = icmp eq i32 %conv187, 32
  br i1 %cmp188, label %if.then193, label %lor.lhs.false189

lor.lhs.false189:                                 ; preds = %land.lhs.true185
  %108 = load ptr, ptr %token, align 8
  %arrayidx190 = getelementptr inbounds i8, ptr %108, i64 3
  %109 = load i8, ptr %arrayidx190, align 1
  %conv191 = sext i8 %109 to i32
  %cmp192 = icmp eq i32 %conv191, 9
  br i1 %cmp192, label %if.then193, label %if.else196

if.then193:                                       ; preds = %lor.lhs.false189, %land.lhs.true185
  %110 = load ptr, ptr %token, align 8
  %add.ptr194 = getelementptr inbounds i8, ptr %110, i64 4
  store ptr %add.ptr194, ptr %token, align 8
  %111 = load ptr, ptr %texopt.addr, align 8
  %brightness = getelementptr inbounds %"struct.tinyobj::texture_option_t", ptr %111, i32 0, i32 2
  %112 = load ptr, ptr %texopt.addr, align 8
  %contrast = getelementptr inbounds %"struct.tinyobj::texture_option_t", ptr %112, i32 0, i32 3
  invoke void @_ZN7tinyobjL10parseReal2EPfS0_PPKcdd(ptr noundef %brightness, ptr noundef %contrast, ptr noundef %token, double noundef 0.000000e+00, double noundef 1.000000e+00)
          to label %invoke.cont195 unwind label %lpad

invoke.cont195:                                   ; preds = %if.then193
  br label %if.end220

if.else196:                                       ; preds = %lor.lhs.false189, %if.else182
  %113 = load ptr, ptr %token, align 8
  %call197 = call i32 @strncmp(ptr noundef %113, ptr noundef @.str.14, i64 noundef 11) #15
  %cmp198 = icmp eq i32 0, %call197
  br i1 %cmp198, label %land.lhs.true199, label %if.else211

land.lhs.true199:                                 ; preds = %if.else196
  %114 = load ptr, ptr %token, align 8
  %arrayidx200 = getelementptr inbounds i8, ptr %114, i64 11
  %115 = load i8, ptr %arrayidx200, align 1
  %conv201 = sext i8 %115 to i32
  %cmp202 = icmp eq i32 %conv201, 32
  br i1 %cmp202, label %if.then207, label %lor.lhs.false203

lor.lhs.false203:                                 ; preds = %land.lhs.true199
  %116 = load ptr, ptr %token, align 8
  %arrayidx204 = getelementptr inbounds i8, ptr %116, i64 11
  %117 = load i8, ptr %arrayidx204, align 1
  %conv205 = sext i8 %117 to i32
  %cmp206 = icmp eq i32 %conv205, 9
  br i1 %cmp206, label %if.then207, label %if.else211

if.then207:                                       ; preds = %lor.lhs.false203, %land.lhs.true199
  %118 = load ptr, ptr %token, align 8
  %add.ptr208 = getelementptr inbounds i8, ptr %118, i64 12
  store ptr %add.ptr208, ptr %token, align 8
  invoke void @_ZN7tinyobjL11parseStringB5cxx11EPPKc(ptr sret(%"class.std::__cxx11::basic_string") align 8 %ref.tmp, ptr noundef %token)
          to label %invoke.cont209 unwind label %lpad

invoke.cont209:                                   ; preds = %if.then207
  %119 = load ptr, ptr %texopt.addr, align 8
  %colorspace = getelementptr inbounds %"struct.tinyobj::texture_option_t", ptr %119, i32 0, i32 13
  %call210 = call noundef nonnull align 8 dereferenceable(32) ptr @_ZNSt7__cxx1112basic_stringIcSt11char_traitsIcESaIcEEaSEOS4_(ptr noundef nonnull align 8 dereferenceable(32) %colorspace, ptr noundef nonnull align 8 dereferenceable(32) %ref.tmp) #14
  call void @_ZNSt7__cxx1112basic_stringIcSt11char_traitsIcESaIcEED1Ev(ptr noundef nonnull align 8 dereferenceable(32) %ref.tmp) #14
  br label %if.end219

if.else211:                                       ; preds = %lor.lhs.false203, %if.else196
  %120 = load ptr, ptr %token, align 8
  call void @_ZNSaIcEC1Ev(ptr noundef nonnull align 1 dereferenceable(1) %ref.tmp213) #14
  invoke void @_ZNSt7__cxx1112basic_stringIcSt11char_traitsIcESaIcEEC2IS3_EEPKcRKS3_(ptr noundef nonnull align 8 dereferenceable(32) %ref.tmp212, ptr noundef %120, ptr noundef nonnull align 1 dereferenceable(1) %ref.tmp213)
          to label %invoke.cont215 unwind label %lpad214

invoke.cont215:                                   ; preds = %if.else211
  %call216 = call noundef nonnull align 8 dereferenceable(32) ptr @_ZNSt7__cxx1112basic_stringIcSt11char_traitsIcESaIcEEaSEOS4_(ptr noundef nonnull align 8 dereferenceable(32) %texture_name, ptr noundef nonnull align 8 dereferenceable(32) %ref.tmp212) #14
  call void @_ZNSt7__cxx1112basic_stringIcSt11char_traitsIcESaIcEED1Ev(ptr noundef nonnull align 8 dereferenceable(32) %ref.tmp212) #14
  call void @_ZNSaIcED1Ev(ptr noundef nonnull align 1 dereferenceable(1) %ref.tmp213) #14
  %call217 = call noundef i64 @_ZNKSt7__cxx1112basic_stringIcSt11char_traitsIcESaIcEE6lengthEv(ptr noundef nonnull align 8 dereferenceable(32) %texture_name) #14
  %121 = load ptr, ptr %token, align 8
  %add.ptr218 = getelementptr inbounds i8, ptr %121, i64 %call217
  store ptr %add.ptr218, ptr %token, align 8
  store i8 1, ptr %found_texname, align 1
  br label %if.end219

lpad214:                                          ; preds = %if.else211
  %122 = landingpad { ptr, i32 }
          cleanup
  %123 = extractvalue { ptr, i32 } %122, 0
  store ptr %123, ptr %exn.slot, align 8
  %124 = extractvalue { ptr, i32 } %122, 1
  store i32 %124, ptr %ehselector.slot, align 4
  call void @_ZNSaIcED1Ev(ptr noundef nonnull align 1 dereferenceable(1) %ref.tmp213) #14
  br label %ehcleanup

if.end219:                                        ; preds = %invoke.cont215, %invoke.cont209
  br label %if.end220

if.end220:                                        ; preds = %if.end219, %invoke.cont195
  br label %if.end221

if.end221:                                        ; preds = %if.end220, %if.end
  br label %if.end222

if.end222:                                        ; preds = %if.end221, %invoke.cont161
  br label %if.end223

if.end223:                                        ; preds = %if.end222, %invoke.cont146
  br label %if.end224

if.end224:                                        ; preds = %if.end223, %invoke.cont132
  br label %if.end225

if.end225:                                        ; preds = %if.end224, %invoke.cont113
  br label %if.end226

if.end226:                                        ; preds = %if.end225, %invoke.cont94
  br label %if.end227

if.end227:                                        ; preds = %if.end226, %invoke.cont74
  br label %if.end228

if.end228:                                        ; preds = %if.end227, %invoke.cont59
  br label %if.end229

if.end229:                                        ; preds = %if.end228, %invoke.cont43
  br label %if.end230

if.end230:                                        ; preds = %if.end229, %invoke.cont27
  br label %if.end231

if.end231:                                        ; preds = %if.end230, %invoke.cont
  br label %while.cond, !llvm.loop !4

while.end:                                        ; preds = %lor.end
  %125 = load i8, ptr %found_texname, align 1
  %tobool = trunc i8 %125 to i1
  br i1 %tobool, label %if.then232, label %if.else235

if.then232:                                       ; preds = %while.end
  %126 = load ptr, ptr %texname.addr, align 8
  %call234 = invoke noundef nonnull align 8 dereferenceable(32) ptr @_ZNSt7__cxx1112basic_stringIcSt11char_traitsIcESaIcEEaSERKS4_(ptr noundef nonnull align 8 dereferenceable(32) %126, ptr noundef nonnull align 8 dereferenceable(32) %texture_name)
          to label %invoke.cont233 unwind label %lpad

invoke.cont233:                                   ; preds = %if.then232
  store i1 true, ptr %retval, align 1
  store i32 1, ptr %cleanup.dest.slot, align 4
  br label %cleanup

if.else235:                                       ; preds = %while.end
  store i1 false, ptr %retval, align 1
  store i32 1, ptr %cleanup.dest.slot, align 4
  br label %cleanup

cleanup:                                          ; preds = %if.else235, %invoke.cont233
  call void @_ZNSt7__cxx1112basic_stringIcSt11char_traitsIcESaIcEED1Ev(ptr noundef nonnull align 8 dereferenceable(32) %texture_name) #14
  %127 = load i1, ptr %retval, align 1
  ret i1 %127

ehcleanup:                                        ; preds = %lpad214, %lpad
  call void @_ZNSt7__cxx1112basic_stringIcSt11char_traitsIcESaIcEED1Ev(ptr noundef nonnull align 8 dereferenceable(32) %texture_name) #14
  br label %eh.resume

eh.resume:                                        ; preds = %ehcleanup
  %exn = load ptr, ptr %exn.slot, align 8
  %sel = load i32, ptr %ehselector.slot, align 4
  %lpad.val = insertvalue { ptr, i32 } poison, ptr %exn, 0
  %lpad.val236 = insertvalue { ptr, i32 } %lpad.val, i32 %sel, 1
  resume { ptr, i32 } %lpad.val236
}

; Function Attrs: nounwind
declare void @_ZNSt7__cxx1112basic_stringIcSt11char_traitsIcESaIcEEC1Ev(ptr noundef nonnull align 8 dereferenceable(32)) unnamed_addr #3

; Function Attrs: nounwind willreturn memory(read)
declare i64 @strspn(ptr noundef, ptr noundef) #4

; Function Attrs: nounwind willreturn memory(read)
declare i32 @strncmp(ptr noundef, ptr noundef, i64 noundef) #4

; Function Attrs: mustprogress nounwind uwtable
define internal noundef zeroext i1 @_ZN7tinyobjL10parseOnOffEPPKcb(ptr noundef %token, i1 noundef zeroext %default_value) #0 {
entry:
  %token.addr = alloca ptr, align 8
  %default_value.addr = alloca i8, align 1
  %end = alloca ptr, align 8
  %ret = alloca i8, align 1
  store ptr %token, ptr %token.addr, align 8
  %frombool = zext i1 %default_value to i8
  store i8 %frombool, ptr %default_value.addr, align 1
  %0 = load ptr, ptr %token.addr, align 8
  %1 = load ptr, ptr %0, align 8
  %call = call i64 @strspn(ptr noundef %1, ptr noundef @.str) #15
  %2 = load ptr, ptr %token.addr, align 8
  %3 = load ptr, ptr %2, align 8
  %add.ptr = getelementptr inbounds i8, ptr %3, i64 %call
  store ptr %add.ptr, ptr %2, align 8
  %4 = load ptr, ptr %token.addr, align 8
  %5 = load ptr, ptr %4, align 8
  %6 = load ptr, ptr %token.addr, align 8
  %7 = load ptr, ptr %6, align 8
  %call1 = call i64 @strcspn(ptr noundef %7, ptr noundef @.str.12) #15
  %add.ptr2 = getelementptr inbounds i8, ptr %5, i64 %call1
  store ptr %add.ptr2, ptr %end, align 8
  %8 = load i8, ptr %default_value.addr, align 1
  %tobool = trunc i8 %8 to i1
  %frombool3 = zext i1 %tobool to i8
  store i8 %frombool3, ptr %ret, align 1
  %9 = load ptr, ptr %token.addr, align 8
  %10 = load ptr, ptr %9, align 8
  %call4 = call i32 @strncmp(ptr noundef %10, ptr noundef @.str.70, i64 noundef 2) #15
  %cmp = icmp eq i32 0, %call4
  br i1 %cmp, label %if.then, label %if.else

if.then:                                          ; preds = %entry
  store i8 1, ptr %ret, align 1
  br label %if.end8

if.else:                                          ; preds = %entry
  %11 = load ptr, ptr %token.addr, align 8
  %12 = load ptr, ptr %11, align 8
  %call5 = call i32 @strncmp(ptr noundef %12, ptr noundef @.str.71, i64 noundef 3) #15
  %cmp6 = icmp eq i32 0, %call5
  br i1 %cmp6, label %if.then7, label %if.end

if.then7:                                         ; preds = %if.else
  store i8 0, ptr %ret, align 1
  br label %if.end

if.end:                                           ; preds = %if.then7, %if.else
  br label %if.end8

if.end8:                                          ; preds = %if.end, %if.then
  %13 = load ptr, ptr %end, align 8
  %14 = load ptr, ptr %token.addr, align 8
  store ptr %13, ptr %14, align 8
  %15 = load i8, ptr %ret, align 1
  %tobool9 = trunc i8 %15 to i1
  ret i1 %tobool9
}

declare i32 @__gxx_personality_v0(...)

; Function Attrs: mustprogress uwtable
define internal noundef float @_ZN7tinyobjL9parseRealEPPKcd(ptr noundef %token, double noundef %default_value) #2 {
entry:
  %token.addr = alloca ptr, align 8
  %default_value.addr = alloca double, align 8
  %end = alloca ptr, align 8
  %val = alloca double, align 8
  %f = alloca float, align 4
  store ptr %token, ptr %token.addr, align 8
  store double %default_value, ptr %default_value.addr, align 8
  %0 = load ptr, ptr %token.addr, align 8
  %1 = load ptr, ptr %0, align 8
  %call = call i64 @strspn(ptr noundef %1, ptr noundef @.str) #15
  %2 = load ptr, ptr %token.addr, align 8
  %3 = load ptr, ptr %2, align 8
  %add.ptr = getelementptr inbounds i8, ptr %3, i64 %call
  store ptr %add.ptr, ptr %2, align 8
  %4 = load ptr, ptr %token.addr, align 8
  %5 = load ptr, ptr %4, align 8
  %6 = load ptr, ptr %token.addr, align 8
  %7 = load ptr, ptr %6, align 8
  %call1 = call i64 @strcspn(ptr noundef %7, ptr noundef @.str.12) #15
  %add.ptr2 = getelementptr inbounds i8, ptr %5, i64 %call1
  store ptr %add.ptr2, ptr %end, align 8
  %8 = load double, ptr %default_value.addr, align 8
  store double %8, ptr %val, align 8
  %9 = load ptr, ptr %token.addr, align 8
  %10 = load ptr, ptr %9, align 8
  %11 = load ptr, ptr %end, align 8
  %call3 = call noundef zeroext i1 @_ZN7tinyobjL14tryParseDoubleEPKcS1_Pd(ptr noundef %10, ptr noundef %11, ptr noundef %val)
  %12 = load double, ptr %val, align 8
  %conv = fptrunc double %12 to float
  store float %conv, ptr %f, align 4
  %13 = load ptr, ptr %end, align 8
  %14 = load ptr, ptr %token.addr, align 8
  store ptr %13, ptr %14, align 8
  %15 = load float, ptr %f, align 4
  ret float %15
}

; Function Attrs: mustprogress uwtable
define internal void @_ZN7tinyobjL10parseReal3EPfS0_S0_PPKcddd(ptr noundef %x, ptr noundef %y, ptr noundef %z, ptr noundef %token, double noundef %default_x, double noundef %default_y, double noundef %default_z) #2 {
entry:
  %x.addr = alloca ptr, align 8
  %y.addr = alloca ptr, align 8
  %z.addr = alloca ptr, align 8
  %token.addr = alloca ptr, align 8
  %default_x.addr = alloca double, align 8
  %default_y.addr = alloca double, align 8
  %default_z.addr = alloca double, align 8
  store ptr %x, ptr %x.addr, align 8
  store ptr %y, ptr %y.addr, align 8
  store ptr %z, ptr %z.addr, align 8
  store ptr %token, ptr %token.addr, align 8
  store double %default_x, ptr %default_x.addr, align 8
  store double %default_y, ptr %default_y.addr, align 8
  store double %default_z, ptr %default_z.addr, align 8
  %0 = load ptr, ptr %token.addr, align 8
  %1 = load double, ptr %default_x.addr, align 8
  %call = call noundef float @_ZN7tinyobjL9parseRealEPPKcd(ptr noundef %0, double noundef %1)
  %2 = load ptr, ptr %x.addr, align 8
  store float %call, ptr %2, align 4
  %3 = load ptr, ptr %token.addr, align 8
  %4 = load double, ptr %default_y.addr, align 8
  %call1 = call noundef float @_ZN7tinyobjL9parseRealEPPKcd(ptr noundef %3, double noundef %4)
  %5 = load ptr, ptr %y.addr, align 8
  store float %call1, ptr %5, align 4
  %6 = load ptr, ptr %token.addr, align 8
  %7 = load double, ptr %default_z.addr, align 8
  %call2 = call noundef float @_ZN7tinyobjL9parseRealEPPKcd(ptr noundef %6, double noundef %7)
  %8 = load ptr, ptr %z.addr, align 8
  store float %call2, ptr %8, align 4
  ret void
}

; Function Attrs: mustprogress nounwind uwtable
define internal noundef i32 @_ZN7tinyobjL16parseTextureTypeEPPKcNS_14texture_type_tE(ptr noundef %token, i32 noundef %default_value) #0 {
entry:
  %token.addr = alloca ptr, align 8
  %default_value.addr = alloca i32, align 4
  %end = alloca ptr, align 8
  %ty = alloca i32, align 4
  store ptr %token, ptr %token.addr, align 8
  store i32 %default_value, ptr %default_value.addr, align 4
  %0 = load ptr, ptr %token.addr, align 8
  %1 = load ptr, ptr %0, align 8
  %call = call i64 @strspn(ptr noundef %1, ptr noundef @.str) #15
  %2 = load ptr, ptr %token.addr, align 8
  %3 = load ptr, ptr %2, align 8
  %add.ptr = getelementptr inbounds i8, ptr %3, i64 %call
  store ptr %add.ptr, ptr %2, align 8
  %4 = load ptr, ptr %token.addr, align 8
  %5 = load ptr, ptr %4, align 8
  %6 = load ptr, ptr %token.addr, align 8
  %7 = load ptr, ptr %6, align 8
  %call1 = call i64 @strcspn(ptr noundef %7, ptr noundef @.str.12) #15
  %add.ptr2 = getelementptr inbounds i8, ptr %5, i64 %call1
  store ptr %add.ptr2, ptr %end, align 8
  %8 = load i32, ptr %default_value.addr, align 4
  store i32 %8, ptr %ty, align 4
  %9 = load ptr, ptr %token.addr, align 8
  %10 = load ptr, ptr %9, align 8
  %call3 = call i32 @strncmp(ptr noundef %10, ptr noundef @.str.72, i64 noundef 8) #15
  %cmp = icmp eq i32 0, %call3
  br i1 %cmp, label %if.then, label %if.else

if.then:                                          ; preds = %entry
  store i32 2, ptr %ty, align 4
  br label %if.end32

if.else:                                          ; preds = %entry
  %11 = load ptr, ptr %token.addr, align 8
  %12 = load ptr, ptr %11, align 8
  %call4 = call i32 @strncmp(ptr noundef %12, ptr noundef @.str.73, i64 noundef 11) #15
  %cmp5 = icmp eq i32 0, %call4
  br i1 %cmp5, label %if.then6, label %if.else7

if.then6:                                         ; preds = %if.else
  store i32 3, ptr %ty, align 4
  br label %if.end31

if.else7:                                         ; preds = %if.else
  %13 = load ptr, ptr %token.addr, align 8
  %14 = load ptr, ptr %13, align 8
  %call8 = call i32 @strncmp(ptr noundef %14, ptr noundef @.str.74, i64 noundef 9) #15
  %cmp9 = icmp eq i32 0, %call8
  br i1 %cmp9, label %if.then10, label %if.else11

if.then10:                                        ; preds = %if.else7
  store i32 6, ptr %ty, align 4
  br label %if.end30

if.else11:                                        ; preds = %if.else7
  %15 = load ptr, ptr %token.addr, align 8
  %16 = load ptr, ptr %15, align 8
  %call12 = call i32 @strncmp(ptr noundef %16, ptr noundef @.str.75, i64 noundef 10) #15
  %cmp13 = icmp eq i32 0, %call12
  br i1 %cmp13, label %if.then14, label %if.else15

if.then14:                                        ; preds = %if.else11
  store i32 7, ptr %ty, align 4
  br label %if.end29

if.else15:                                        ; preds = %if.else11
  %17 = load ptr, ptr %token.addr, align 8
  %18 = load ptr, ptr %17, align 8
  %call16 = call i32 @strncmp(ptr noundef %18, ptr noundef @.str.76, i64 noundef 10) #15
  %cmp17 = icmp eq i32 0, %call16
  br i1 %cmp17, label %if.then18, label %if.else19

if.then18:                                        ; preds = %if.else15
  store i32 4, ptr %ty, align 4
  br label %if.end28

if.else19:                                        ; preds = %if.else15
  %19 = load ptr, ptr %token.addr, align 8
  %20 = load ptr, ptr %19, align 8
  %call20 = call i32 @strncmp(ptr noundef %20, ptr noundef @.str.77, i64 noundef 9) #15
  %cmp21 = icmp eq i32 0, %call20
  br i1 %cmp21, label %if.then22, label %if.else23

if.then22:                                        ; preds = %if.else19
  store i32 5, ptr %ty, align 4
  br label %if.end27

if.else23:                                        ; preds = %if.else19
  %21 = load ptr, ptr %token.addr, align 8
  %22 = load ptr, ptr %21, align 8
  %call24 = call i32 @strncmp(ptr noundef %22, ptr noundef @.str.78, i64 noundef 6) #15
  %cmp25 = icmp eq i32 0, %call24
  br i1 %cmp25, label %if.then26, label %if.end

if.then26:                                        ; preds = %if.else23
  store i32 1, ptr %ty, align 4
  br label %if.end

if.end:                                           ; preds = %if.then26, %if.else23
  br label %if.end27

if.end27:                                         ; preds = %if.end, %if.then22
  br label %if.end28

if.end28:                                         ; preds = %if.end27, %if.then18
  br label %if.end29

if.end29:                                         ; preds = %if.end28, %if.then14
  br label %if.end30

if.end30:                                         ; preds = %if.end29, %if.then10
  br label %if.end31

if.end31:                                         ; preds = %if.end30, %if.then6
  br label %if.end32

if.end32:                                         ; preds = %if.end31, %if.then
  %23 = load ptr, ptr %end, align 8
  %24 = load ptr, ptr %token.addr, align 8
  store ptr %23, ptr %24, align 8
  %25 = load i32, ptr %ty, align 4
  ret i32 %25
}

; Function Attrs: mustprogress nounwind uwtable
define internal noundef i32 @_ZN7tinyobjL8parseIntEPPKc(ptr noundef %token) #0 {
entry:
  %token.addr = alloca ptr, align 8
  %i = alloca i32, align 4
  store ptr %token, ptr %token.addr, align 8
  %0 = load ptr, ptr %token.addr, align 8
  %1 = load ptr, ptr %0, align 8
  %call = call i64 @strspn(ptr noundef %1, ptr noundef @.str) #15
  %2 = load ptr, ptr %token.addr, align 8
  %3 = load ptr, ptr %2, align 8
  %add.ptr = getelementptr inbounds i8, ptr %3, i64 %call
  store ptr %add.ptr, ptr %2, align 8
  %4 = load ptr, ptr %token.addr, align 8
  %5 = load ptr, ptr %4, align 8
  %call1 = call i32 @atoi(ptr noundef %5) #15
  store i32 %call1, ptr %i, align 4
  %6 = load ptr, ptr %token.addr, align 8
  %7 = load ptr, ptr %6, align 8
  %call2 = call i64 @strcspn(ptr noundef %7, ptr noundef @.str.12) #15
  %8 = load ptr, ptr %token.addr, align 8
  %9 = load ptr, ptr %8, align 8
  %add.ptr3 = getelementptr inbounds i8, ptr %9, i64 %call2
  store ptr %add.ptr3, ptr %8, align 8
  %10 = load i32, ptr %i, align 4
  ret i32 %10
}

; Function Attrs: nounwind willreturn memory(read)
declare i64 @strcspn(ptr noundef, ptr noundef) #4

; Function Attrs: mustprogress uwtable
define internal void @_ZN7tinyobjL10parseReal2EPfS0_PPKcdd(ptr noundef %x, ptr noundef %y, ptr noundef %token, double noundef %default_x, double noundef %default_y) #2 {
entry:
  %x.addr = alloca ptr, align 8
  %y.addr = alloca ptr, align 8
  %token.addr = alloca ptr, align 8
  %default_x.addr = alloca double, align 8
  %default_y.addr = alloca double, align 8
  store ptr %x, ptr %x.addr, align 8
  store ptr %y, ptr %y.addr, align 8
  store ptr %token, ptr %token.addr, align 8
  store double %default_x, ptr %default_x.addr, align 8
  store double %default_y, ptr %default_y.addr, align 8
  %0 = load ptr, ptr %token.addr, align 8
  %1 = load double, ptr %default_x.addr, align 8
  %call = call noundef float @_ZN7tinyobjL9parseRealEPPKcd(ptr noundef %0, double noundef %1)
  %2 = load ptr, ptr %x.addr, align 8
  store float %call, ptr %2, align 4
  %3 = load ptr, ptr %token.addr, align 8
  %4 = load double, ptr %default_y.addr, align 8
  %call1 = call noundef float @_ZN7tinyobjL9parseRealEPPKcd(ptr noundef %3, double noundef %4)
  %5 = load ptr, ptr %y.addr, align 8
  store float %call1, ptr %5, align 4
  ret void
}

; Function Attrs: mustprogress uwtable
define internal void @_ZN7tinyobjL11parseStringB5cxx11EPPKc(ptr noalias sret(%"class.std::__cxx11::basic_string") align 8 %agg.result, ptr noundef %token) #2 personality ptr @__gxx_personality_v0 {
entry:
  %result.ptr = alloca ptr, align 8
  %token.addr = alloca ptr, align 8
  %nrvo = alloca i1, align 1
  %e = alloca i64, align 8
  %ref.tmp = alloca %"class.std::__cxx11::basic_string", align 8
  %ref.tmp2 = alloca %"class.std::allocator", align 1
  %exn.slot = alloca ptr, align 8
  %ehselector.slot = alloca i32, align 4
  store ptr %agg.result, ptr %result.ptr, align 8
  store ptr %token, ptr %token.addr, align 8
  store i1 false, ptr %nrvo, align 1
  call void @_ZNSt7__cxx1112basic_stringIcSt11char_traitsIcESaIcEEC1Ev(ptr noundef nonnull align 8 dereferenceable(32) %agg.result) #14
  %0 = load ptr, ptr %token.addr, align 8
  %1 = load ptr, ptr %0, align 8
  %call = call i64 @strspn(ptr noundef %1, ptr noundef @.str) #15
  %2 = load ptr, ptr %token.addr, align 8
  %3 = load ptr, ptr %2, align 8
  %add.ptr = getelementptr inbounds i8, ptr %3, i64 %call
  store ptr %add.ptr, ptr %2, align 8
  %4 = load ptr, ptr %token.addr, align 8
  %5 = load ptr, ptr %4, align 8
  %call1 = call i64 @strcspn(ptr noundef %5, ptr noundef @.str.12) #15
  store i64 %call1, ptr %e, align 8
  %6 = load ptr, ptr %token.addr, align 8
  %7 = load ptr, ptr %6, align 8
  %8 = load ptr, ptr %token.addr, align 8
  %9 = load ptr, ptr %8, align 8
  %10 = load i64, ptr %e, align 8
  %arrayidx = getelementptr inbounds i8, ptr %9, i64 %10
  call void @_ZNSaIcEC1Ev(ptr noundef nonnull align 1 dereferenceable(1) %ref.tmp2) #14
  invoke void @_ZNSt7__cxx1112basic_stringIcSt11char_traitsIcESaIcEEC2IPKcvEET_S8_RKS3_(ptr noundef nonnull align 8 dereferenceable(32) %ref.tmp, ptr noundef %7, ptr noundef %arrayidx, ptr noundef nonnull align 1 dereferenceable(1) %ref.tmp2)
          to label %invoke.cont unwind label %lpad

invoke.cont:                                      ; preds = %entry
  %call3 = call noundef nonnull align 8 dereferenceable(32) ptr @_ZNSt7__cxx1112basic_stringIcSt11char_traitsIcESaIcEEaSEOS4_(ptr noundef nonnull align 8 dereferenceable(32) %agg.result, ptr noundef nonnull align 8 dereferenceable(32) %ref.tmp) #14
  call void @_ZNSt7__cxx1112basic_stringIcSt11char_traitsIcESaIcEED1Ev(ptr noundef nonnull align 8 dereferenceable(32) %ref.tmp) #14
  call void @_ZNSaIcED1Ev(ptr noundef nonnull align 1 dereferenceable(1) %ref.tmp2) #14
  %11 = load i64, ptr %e, align 8
  %12 = load ptr, ptr %token.addr, align 8
  %13 = load ptr, ptr %12, align 8
  %add.ptr4 = getelementptr inbounds i8, ptr %13, i64 %11
  store ptr %add.ptr4, ptr %12, align 8
  store i1 true, ptr %nrvo, align 1
  %nrvo.val = load i1, ptr %nrvo, align 1
  br i1 %nrvo.val, label %nrvo.skipdtor, label %nrvo.unused

lpad:                                             ; preds = %entry
  %14 = landingpad { ptr, i32 }
          cleanup
  %15 = extractvalue { ptr, i32 } %14, 0
  store ptr %15, ptr %exn.slot, align 8
  %16 = extractvalue { ptr, i32 } %14, 1
  store i32 %16, ptr %ehselector.slot, align 4
  call void @_ZNSaIcED1Ev(ptr noundef nonnull align 1 dereferenceable(1) %ref.tmp2) #14
  call void @_ZNSt7__cxx1112basic_stringIcSt11char_traitsIcESaIcEED1Ev(ptr noundef nonnull align 8 dereferenceable(32) %agg.result) #14
  br label %eh.resume

nrvo.unused:                                      ; preds = %invoke.cont
  call void @_ZNSt7__cxx1112basic_stringIcSt11char_traitsIcESaIcEED1Ev(ptr noundef nonnull align 8 dereferenceable(32) %agg.result) #14
  br label %nrvo.skipdtor

nrvo.skipdtor:                                    ; preds = %nrvo.unused, %invoke.cont
  ret void

eh.resume:                                        ; preds = %lpad
  %exn = load ptr, ptr %exn.slot, align 8
  %sel = load i32, ptr %ehselector.slot, align 4
  %lpad.val = insertvalue { ptr, i32 } poison, ptr %exn, 0
  %lpad.val5 = insertvalue { ptr, i32 } %lpad.val, i32 %sel, 1
  resume { ptr, i32 } %lpad.val5
}

; Function Attrs: nounwind
declare noundef nonnull align 8 dereferenceable(32) ptr @_ZNSt7__cxx1112basic_stringIcSt11char_traitsIcESaIcEEaSEOS4_(ptr noundef nonnull align 8 dereferenceable(32), ptr noundef nonnull align 8 dereferenceable(32)) #3

; Function Attrs: nounwind
declare void @_ZNSt7__cxx1112basic_stringIcSt11char_traitsIcESaIcEED1Ev(ptr noundef nonnull align 8 dereferenceable(32)) unnamed_addr #3

; Function Attrs: nounwind
declare void @_ZNSaIcEC1Ev(ptr noundef nonnull align 1 dereferenceable(1)) unnamed_addr #3

; Function Attrs: mustprogress uwtable
define linkonce_odr void @_ZNSt7__cxx1112basic_stringIcSt11char_traitsIcESaIcEEC2IS3_EEPKcRKS3_(ptr noundef nonnull align 8 dereferenceable(32) %this, ptr noundef %__s, ptr noundef nonnull align 1 dereferenceable(1) %__a) unnamed_addr #2 comdat align 2 personality ptr @__gxx_personality_v0 {
entry:
  %this.addr = alloca ptr, align 8
  %__s.addr = alloca ptr, align 8
  %__a.addr = alloca ptr, align 8
  %exn.slot = alloca ptr, align 8
  %ehselector.slot = alloca i32, align 4
  %__end = alloca ptr, align 8
  store ptr %this, ptr %this.addr, align 8
  store ptr %__s, ptr %__s.addr, align 8
  store ptr %__a, ptr %__a.addr, align 8
  %this1 = load ptr, ptr %this.addr, align 8
  %_M_dataplus = getelementptr inbounds %"class.std::__cxx11::basic_string", ptr %this1, i32 0, i32 0
  %call = call noundef ptr @_ZNSt7__cxx1112basic_stringIcSt11char_traitsIcESaIcEE13_M_local_dataEv(ptr noundef nonnull align 8 dereferenceable(32) %this1)
  %0 = load ptr, ptr %__a.addr, align 8
  call void @_ZNSt7__cxx1112basic_stringIcSt11char_traitsIcESaIcEE12_Alloc_hiderC1EPcRKS3_(ptr noundef nonnull align 8 dereferenceable(8) %_M_dataplus, ptr noundef %call, ptr noundef nonnull align 1 dereferenceable(1) %0)
  %1 = load ptr, ptr %__s.addr, align 8
  %cmp = icmp eq ptr %1, null
  br i1 %cmp, label %if.then, label %if.end

if.then:                                          ; preds = %entry
  invoke void @_ZSt19__throw_logic_errorPKc(ptr noundef @.str.85) #16
          to label %invoke.cont unwind label %lpad

invoke.cont:                                      ; preds = %if.then
  unreachable

lpad:                                             ; preds = %invoke.cont2, %if.end, %if.then
  %2 = landingpad { ptr, i32 }
          cleanup
  %3 = extractvalue { ptr, i32 } %2, 0
  store ptr %3, ptr %exn.slot, align 8
  %4 = extractvalue { ptr, i32 } %2, 1
  store i32 %4, ptr %ehselector.slot, align 4
  call void @_ZNSt7__cxx1112basic_stringIcSt11char_traitsIcESaIcEE12_Alloc_hiderD2Ev(ptr noundef nonnull align 8 dereferenceable(8) %_M_dataplus) #14
  br label %eh.resume

if.end:                                           ; preds = %entry
  %5 = load ptr, ptr %__s.addr, align 8
  %6 = load ptr, ptr %__s.addr, align 8
  %call3 = invoke noundef i64 @_ZNSt11char_traitsIcE6lengthEPKc(ptr noundef %6)
          to label %invoke.cont2 unwind label %lpad

invoke.cont2:                                     ; preds = %if.end
  %add.ptr = getelementptr inbounds i8, ptr %5, i64 %call3
  store ptr %add.ptr, ptr %__end, align 8
  %7 = load ptr, ptr %__s.addr, align 8
  %8 = load ptr, ptr %__end, align 8
  invoke void @_ZNSt7__cxx1112basic_stringIcSt11char_traitsIcESaIcEE12_M_constructIPKcEEvT_S8_St20forward_iterator_tag(ptr noundef nonnull align 8 dereferenceable(32) %this1, ptr noundef %7, ptr noundef %8)
          to label %invoke.cont4 unwind label %lpad

invoke.cont4:                                     ; preds = %invoke.cont2
  ret void

eh.resume:                                        ; preds = %lpad
  %exn = load ptr, ptr %exn.slot, align 8
  %sel = load i32, ptr %ehselector.slot, align 4
  %lpad.val = insertvalue { ptr, i32 } poison, ptr %exn, 0
  %lpad.val5 = insertvalue { ptr, i32 } %lpad.val, i32 %sel, 1
  resume { ptr, i32 } %lpad.val5
}

; Function Attrs: nounwind
declare void @_ZNSaIcED1Ev(ptr noundef nonnull align 1 dereferenceable(1)) unnamed_addr #3

; Function Attrs: nounwind
declare noundef i64 @_ZNKSt7__cxx1112basic_stringIcSt11char_traitsIcESaIcEE6lengthEv(ptr noundef nonnull align 8 dereferenceable(32)) #3

declare noundef nonnull align 8 dereferenceable(32) ptr @_ZNSt7__cxx1112basic_stringIcSt11char_traitsIcESaIcEEaSERKS4_(ptr noundef nonnull align 8 dereferenceable(32), ptr noundef nonnull align 8 dereferenceable(32)) #5

; Function Attrs: mustprogress uwtable
define void @_ZN7tinyobj7LoadMtlEPSt3mapINSt7__cxx1112basic_stringIcSt11char_traitsIcESaIcEEEiSt4lessIS6_ESaISt4pairIKS6_iEEEPSt6vectorINS_10material_tESaISG_EEPSiPS6_SL_(ptr noundef %material_map, ptr noundef %materials, ptr noundef %inStream, ptr noundef %warning, ptr noundef %err) #2 personality ptr @__gxx_personality_v0 {
entry:
  %material_map.addr = alloca ptr, align 8
  %materials.addr = alloca ptr, align 8
  %inStream.addr = alloca ptr, align 8
  %warning.addr = alloca ptr, align 8
  %err.addr = alloca ptr, align 8
  %material = alloca %"struct.tinyobj::material_t", align 8
  %exn.slot = alloca ptr, align 8
  %ehselector.slot = alloca i32, align 4
  %has_d = alloca i8, align 1
  %has_tr = alloca i8, align 1
  %has_kd = alloca i8, align 1
  %warn_ss = alloca %"class.std::__cxx11::basic_stringstream", align 8
  %line_no = alloca i64, align 8
  %linebuf = alloca %"class.std::__cxx11::basic_string", align 8
  %ref.tmp = alloca %"class.std::__cxx11::basic_string", align 8
  %token = alloca ptr, align 8
  %ref.tmp66 = alloca %"struct.std::pair.8", align 8
  %ref.tmp68 = alloca i32, align 4
  %coerce = alloca %"struct.std::pair", align 8
  %namebuf = alloca %"class.std::__cxx11::basic_string", align 8
  %r = alloca float, align 4
  %g = alloca float, align 4
  %b = alloca float, align 4
  %r133 = alloca float, align 4
  %g134 = alloca float, align 4
  %b135 = alloca float, align 4
  %r160 = alloca float, align 4
  %g161 = alloca float, align 4
  %b162 = alloca float, align 4
  %r203 = alloca float, align 4
  %g204 = alloca float, align 4
  %b205 = alloca float, align 4
  %r250 = alloca float, align 4
  %g251 = alloca float, align 4
  %b252 = alloca float, align 4
  %_space = alloca ptr, align 8
  %len = alloca i64, align 8
  %key = alloca %"class.std::__cxx11::basic_string", align 8
  %ref.tmp742 = alloca %"class.std::allocator", align 1
  %value = alloca %"class.std::__cxx11::basic_string", align 8
  %ref.tmp746 = alloca %"class.std::allocator", align 1
  %ref.tmp749 = alloca %"struct.std::pair.18", align 8
  %coerce755 = alloca %"struct.std::pair.14", align 8
  %ref.tmp758 = alloca %"struct.std::pair.8", align 8
  %ref.tmp760 = alloca i32, align 4
  %coerce767 = alloca %"struct.std::pair", align 8
  %ref.tmp772 = alloca %"class.std::__cxx11::basic_string", align 8
  store ptr %material_map, ptr %material_map.addr, align 8
  store ptr %materials, ptr %materials.addr, align 8
  store ptr %inStream, ptr %inStream.addr, align 8
  store ptr %warning, ptr %warning.addr, align 8
  store ptr %err, ptr %err.addr, align 8
  call void @_ZN7tinyobj10material_tC2Ev(ptr noundef nonnull align 8 dereferenceable(1864) %material) #14
  invoke void @_ZN7tinyobjL12InitMaterialEPNS_10material_tE(ptr noundef %material)
          to label %invoke.cont unwind label %lpad

invoke.cont:                                      ; preds = %entry
  store i8 0, ptr %has_d, align 1
  store i8 0, ptr %has_tr, align 1
  store i8 0, ptr %has_kd, align 1
  invoke void @_ZNSt7__cxx1118basic_stringstreamIcSt11char_traitsIcESaIcEEC1Ev(ptr noundef nonnull align 8 dereferenceable(128) %warn_ss)
          to label %invoke.cont1 unwind label %lpad

invoke.cont1:                                     ; preds = %invoke.cont
  store i64 0, ptr %line_no, align 8
  call void @_ZNSt7__cxx1112basic_stringIcSt11char_traitsIcESaIcEEC1Ev(ptr noundef nonnull align 8 dereferenceable(32) %linebuf) #14
  br label %while.cond

while.cond:                                       ; preds = %if.end757, %invoke.cont732, %invoke.cont717, %invoke.cont702, %invoke.cont687, %invoke.cont672, %invoke.cont657, %invoke.cont642, %invoke.cont625, %invoke.cont607, %invoke.cont589, %invoke.cont572, %invoke.cont554, %invoke.cont539, %if.end525, %invoke.cont500, %invoke.cont485, %invoke.cont470, %invoke.cont455, %invoke.cont440, %invoke.cont420, %invoke.cont400, %invoke.cont380, %if.end361, %if.end324, %invoke.cont292, %invoke.cont277, %invoke.cont253, %invoke.cont230, %invoke.cont206, %invoke.cont163, %invoke.cont136, %invoke.cont109, %invoke.cont89, %if.then53, %if.then48, %if.then42, %invoke.cont1
  %0 = load ptr, ptr %inStream.addr, align 8
  %call = invoke noundef i32 @_ZNSi4peekEv(ptr noundef nonnull align 8 dereferenceable(16) %0)
          to label %invoke.cont3 unwind label %lpad2

invoke.cont3:                                     ; preds = %while.cond
  %cmp = icmp ne i32 %call, -1
  br i1 %cmp, label %while.body, label %while.end

while.body:                                       ; preds = %invoke.cont3
  %1 = load ptr, ptr %inStream.addr, align 8
  %call5 = invoke noundef nonnull align 8 dereferenceable(16) ptr @_ZN7tinyobjL11safeGetlineERSiRNSt7__cxx1112basic_stringIcSt11char_traitsIcESaIcEEE(ptr noundef nonnull align 8 dereferenceable(16) %1, ptr noundef nonnull align 8 dereferenceable(32) %linebuf)
          to label %invoke.cont4 unwind label %lpad2

invoke.cont4:                                     ; preds = %while.body
  %2 = load i64, ptr %line_no, align 8
  %inc = add i64 %2, 1
  store i64 %inc, ptr %line_no, align 8
  %call6 = call noundef i64 @_ZNKSt7__cxx1112basic_stringIcSt11char_traitsIcESaIcEE4sizeEv(ptr noundef nonnull align 8 dereferenceable(32) %linebuf) #14
  %cmp7 = icmp ugt i64 %call6, 0
  br i1 %cmp7, label %if.then, label %if.end

if.then:                                          ; preds = %invoke.cont4
  %call8 = call noundef i64 @_ZNKSt7__cxx1112basic_stringIcSt11char_traitsIcESaIcEE16find_last_not_ofEPKcm(ptr noundef nonnull align 8 dereferenceable(32) %linebuf, ptr noundef @.str, i64 noundef -1) #14
  %add = add i64 %call8, 1
  invoke void @_ZNKSt7__cxx1112basic_stringIcSt11char_traitsIcESaIcEE6substrEmm(ptr sret(%"class.std::__cxx11::basic_string") align 8 %ref.tmp, ptr noundef nonnull align 8 dereferenceable(32) %linebuf, i64 noundef 0, i64 noundef %add)
          to label %invoke.cont9 unwind label %lpad2

invoke.cont9:                                     ; preds = %if.then
  %call10 = call noundef nonnull align 8 dereferenceable(32) ptr @_ZNSt7__cxx1112basic_stringIcSt11char_traitsIcESaIcEEaSEOS4_(ptr noundef nonnull align 8 dereferenceable(32) %linebuf, ptr noundef nonnull align 8 dereferenceable(32) %ref.tmp) #14
  call void @_ZNSt7__cxx1112basic_stringIcSt11char_traitsIcESaIcEED1Ev(ptr noundef nonnull align 8 dereferenceable(32) %ref.tmp) #14
  br label %if.end

lpad:                                             ; preds = %invoke.cont, %entry
  %3 = landingpad { ptr, i32 }
          cleanup
  %4 = extractvalue { ptr, i32 } %3, 0
  store ptr %4, ptr %exn.slot, align 8
  %5 = extractvalue { ptr, i32 } %3, 1
  store i32 %5, ptr %ehselector.slot, align 4
  br label %ehcleanup778

lpad2:                                            ; preds = %if.then771, %invoke.cont765, %while.end, %if.then730, %if.then715, %if.then700, %if.then685, %if.then670, %if.then655, %if.then638, %if.then623, %invoke.cont604, %if.then602, %if.then585, %if.then570, %if.then552, %if.then537, %if.then513, %if.then498, %if.then483, %if.then468, %if.then453, %if.then438, %if.then418, %if.then398, %if.then378, %if.else, %invoke.cont353, %invoke.cont351, %invoke.cont349, %invoke.cont346, %if.then344, %invoke.cont320, %invoke.cont318, %invoke.cont316, %invoke.cont313, %if.then311, %if.then306, %if.then290, %if.then275, %if.then248, %if.then228, %if.then201, %if.then158, %if.then131, %if.then107, %invoke.cont77, %if.end76, %invoke.cont73, %if.then65, %if.then34, %if.then27, %if.then18, %if.then13, %if.then, %while.body, %while.cond
  %6 = landingpad { ptr, i32 }
          cleanup
  %7 = extractvalue { ptr, i32 } %6, 0
  store ptr %7, ptr %exn.slot, align 8
  %8 = extractvalue { ptr, i32 } %6, 1
  store i32 %8, ptr %ehselector.slot, align 4
  br label %ehcleanup776

if.end:                                           ; preds = %invoke.cont9, %invoke.cont4
  %call11 = call noundef i64 @_ZNKSt7__cxx1112basic_stringIcSt11char_traitsIcESaIcEE4sizeEv(ptr noundef nonnull align 8 dereferenceable(32) %linebuf) #14
  %cmp12 = icmp ugt i64 %call11, 0
  br i1 %cmp12, label %if.then13, label %if.end24

if.then13:                                        ; preds = %if.end
  %call14 = call noundef i64 @_ZNKSt7__cxx1112basic_stringIcSt11char_traitsIcESaIcEE4sizeEv(ptr noundef nonnull align 8 dereferenceable(32) %linebuf) #14
  %sub = sub i64 %call14, 1
  %call16 = invoke noundef nonnull align 1 dereferenceable(1) ptr @_ZNSt7__cxx1112basic_stringIcSt11char_traitsIcESaIcEEixEm(ptr noundef nonnull align 8 dereferenceable(32) %linebuf, i64 noundef %sub)
          to label %invoke.cont15 unwind label %lpad2

invoke.cont15:                                    ; preds = %if.then13
  %9 = load i8, ptr %call16, align 1
  %conv = sext i8 %9 to i32
  %cmp17 = icmp eq i32 %conv, 10
  br i1 %cmp17, label %if.then18, label %if.end23

if.then18:                                        ; preds = %invoke.cont15
  %call19 = call noundef i64 @_ZNKSt7__cxx1112basic_stringIcSt11char_traitsIcESaIcEE4sizeEv(ptr noundef nonnull align 8 dereferenceable(32) %linebuf) #14
  %sub20 = sub i64 %call19, 1
  %call22 = invoke noundef nonnull align 8 dereferenceable(32) ptr @_ZNSt7__cxx1112basic_stringIcSt11char_traitsIcESaIcEE5eraseEmm(ptr noundef nonnull align 8 dereferenceable(32) %linebuf, i64 noundef %sub20, i64 noundef -1)
          to label %invoke.cont21 unwind label %lpad2

invoke.cont21:                                    ; preds = %if.then18
  br label %if.end23

if.end23:                                         ; preds = %invoke.cont21, %invoke.cont15
  br label %if.end24

if.end24:                                         ; preds = %if.end23, %if.end
  %call25 = call noundef i64 @_ZNKSt7__cxx1112basic_stringIcSt11char_traitsIcESaIcEE4sizeEv(ptr noundef nonnull align 8 dereferenceable(32) %linebuf) #14
  %cmp26 = icmp ugt i64 %call25, 0
  br i1 %cmp26, label %if.then27, label %if.end40

if.then27:                                        ; preds = %if.end24
  %call28 = call noundef i64 @_ZNKSt7__cxx1112basic_stringIcSt11char_traitsIcESaIcEE4sizeEv(ptr noundef nonnull align 8 dereferenceable(32) %linebuf) #14
  %sub29 = sub i64 %call28, 1
  %call31 = invoke noundef nonnull align 1 dereferenceable(1) ptr @_ZNSt7__cxx1112basic_stringIcSt11char_traitsIcESaIcEEixEm(ptr noundef nonnull align 8 dereferenceable(32) %linebuf, i64 noundef %sub29)
          to label %invoke.cont30 unwind label %lpad2

invoke.cont30:                                    ; preds = %if.then27
  %10 = load i8, ptr %call31, align 1
  %conv32 = sext i8 %10 to i32
  %cmp33 = icmp eq i32 %conv32, 13
  br i1 %cmp33, label %if.then34, label %if.end39

if.then34:                                        ; preds = %invoke.cont30
  %call35 = call noundef i64 @_ZNKSt7__cxx1112basic_stringIcSt11char_traitsIcESaIcEE4sizeEv(ptr noundef nonnull align 8 dereferenceable(32) %linebuf) #14
  %sub36 = sub i64 %call35, 1
  %call38 = invoke noundef nonnull align 8 dereferenceable(32) ptr @_ZNSt7__cxx1112basic_stringIcSt11char_traitsIcESaIcEE5eraseEmm(ptr noundef nonnull align 8 dereferenceable(32) %linebuf, i64 noundef %sub36, i64 noundef -1)
          to label %invoke.cont37 unwind label %lpad2

invoke.cont37:                                    ; preds = %if.then34
  br label %if.end39

if.end39:                                         ; preds = %invoke.cont37, %invoke.cont30
  br label %if.end40

if.end40:                                         ; preds = %if.end39, %if.end24
  %call41 = call noundef zeroext i1 @_ZNKSt7__cxx1112basic_stringIcSt11char_traitsIcESaIcEE5emptyEv(ptr noundef nonnull align 8 dereferenceable(32) %linebuf) #14
  br i1 %call41, label %if.then42, label %if.end43

if.then42:                                        ; preds = %if.end40
  br label %while.cond, !llvm.loop !6

if.end43:                                         ; preds = %if.end40
  %call44 = call noundef ptr @_ZNKSt7__cxx1112basic_stringIcSt11char_traitsIcESaIcEE5c_strEv(ptr noundef nonnull align 8 dereferenceable(32) %linebuf) #14
  store ptr %call44, ptr %token, align 8
  %11 = load ptr, ptr %token, align 8
  %call45 = call i64 @strspn(ptr noundef %11, ptr noundef @.str) #15
  %12 = load ptr, ptr %token, align 8
  %add.ptr = getelementptr inbounds i8, ptr %12, i64 %call45
  store ptr %add.ptr, ptr %token, align 8
  %13 = load ptr, ptr %token, align 8
  %arrayidx = getelementptr inbounds i8, ptr %13, i64 0
  %14 = load i8, ptr %arrayidx, align 1
  %conv46 = sext i8 %14 to i32
  %cmp47 = icmp eq i32 %conv46, 0
  br i1 %cmp47, label %if.then48, label %if.end49

if.then48:                                        ; preds = %if.end43
  br label %while.cond, !llvm.loop !6

if.end49:                                         ; preds = %if.end43
  %15 = load ptr, ptr %token, align 8
  %arrayidx50 = getelementptr inbounds i8, ptr %15, i64 0
  %16 = load i8, ptr %arrayidx50, align 1
  %conv51 = sext i8 %16 to i32
  %cmp52 = icmp eq i32 %conv51, 35
  br i1 %cmp52, label %if.then53, label %if.end54

if.then53:                                        ; preds = %if.end49
  br label %while.cond, !llvm.loop !6

if.end54:                                         ; preds = %if.end49
  %17 = load ptr, ptr %token, align 8
  %call55 = call i32 @strncmp(ptr noundef %17, ptr noundef @.str.15, i64 noundef 6) #15
  %cmp56 = icmp eq i32 0, %call55
  br i1 %cmp56, label %land.lhs.true, label %if.end91

land.lhs.true:                                    ; preds = %if.end54
  %18 = load ptr, ptr %token, align 8
  %arrayidx57 = getelementptr inbounds i8, ptr %18, i64 6
  %19 = load i8, ptr %arrayidx57, align 1
  %conv58 = sext i8 %19 to i32
  %cmp59 = icmp eq i32 %conv58, 32
  br i1 %cmp59, label %if.then63, label %lor.lhs.false

lor.lhs.false:                                    ; preds = %land.lhs.true
  %20 = load ptr, ptr %token, align 8
  %arrayidx60 = getelementptr inbounds i8, ptr %20, i64 6
  %21 = load i8, ptr %arrayidx60, align 1
  %conv61 = sext i8 %21 to i32
  %cmp62 = icmp eq i32 %conv61, 9
  br i1 %cmp62, label %if.then63, label %if.end91

if.then63:                                        ; preds = %lor.lhs.false, %land.lhs.true
  %name = getelementptr inbounds %"struct.tinyobj::material_t", ptr %material, i32 0, i32 0
  %call64 = call noundef zeroext i1 @_ZNKSt7__cxx1112basic_stringIcSt11char_traitsIcESaIcEE5emptyEv(ptr noundef nonnull align 8 dereferenceable(32) %name) #14
  br i1 %call64, label %if.end76, label %if.then65

if.then65:                                        ; preds = %if.then63
  %22 = load ptr, ptr %material_map.addr, align 8
  %name67 = getelementptr inbounds %"struct.tinyobj::material_t", ptr %material, i32 0, i32 0
  %23 = load ptr, ptr %materials.addr, align 8
  %call69 = call noundef i64 @_ZNKSt6vectorIN7tinyobj10material_tESaIS1_EE4sizeEv(ptr noundef nonnull align 8 dereferenceable(24) %23) #14
  %conv70 = trunc i64 %call69 to i32
  store i32 %conv70, ptr %ref.tmp68, align 4
  invoke void @_ZNSt4pairINSt7__cxx1112basic_stringIcSt11char_traitsIcESaIcEEEiEC2IRS5_iTnNSt9enable_ifIXaaclsr5_PCCPE22_MoveConstructiblePairIT_T0_EEclsr5_PCCPE30_ImplicitlyMoveConvertiblePairISA_SB_EEEbE4typeELb1EEEOSA_OSB_(ptr noundef nonnull align 8 dereferenceable(36) %ref.tmp66, ptr noundef nonnull align 8 dereferenceable(32) %name67, ptr noundef nonnull align 4 dereferenceable(4) %ref.tmp68)
          to label %invoke.cont71 unwind label %lpad2

invoke.cont71:                                    ; preds = %if.then65
  %call74 = invoke { ptr, i8 } @_ZNSt3mapINSt7__cxx1112basic_stringIcSt11char_traitsIcESaIcEEEiSt4lessIS5_ESaISt4pairIKS5_iEEE6insertIS8_IS5_iEEENSt9enable_ifIXsr16is_constructibleISA_T_EE5valueES8_ISt17_Rb_tree_iteratorISA_EbEE4typeEOSG_(ptr noundef nonnull align 8 dereferenceable(48) %22, ptr noundef nonnull align 8 dereferenceable(36) %ref.tmp66)
          to label %invoke.cont73 unwind label %lpad72

invoke.cont73:                                    ; preds = %invoke.cont71
  %24 = getelementptr inbounds { ptr, i8 }, ptr %coerce, i32 0, i32 0
  %25 = extractvalue { ptr, i8 } %call74, 0
  store ptr %25, ptr %24, align 8
  %26 = getelementptr inbounds { ptr, i8 }, ptr %coerce, i32 0, i32 1
  %27 = extractvalue { ptr, i8 } %call74, 1
  store i8 %27, ptr %26, align 8
  call void @_ZNSt4pairINSt7__cxx1112basic_stringIcSt11char_traitsIcESaIcEEEiED2Ev(ptr noundef nonnull align 8 dereferenceable(36) %ref.tmp66) #14
  %28 = load ptr, ptr %materials.addr, align 8
  invoke void @_ZNSt6vectorIN7tinyobj10material_tESaIS1_EE9push_backERKS1_(ptr noundef nonnull align 8 dereferenceable(24) %28, ptr noundef nonnull align 8 dereferenceable(1864) %material)
          to label %invoke.cont75 unwind label %lpad2

invoke.cont75:                                    ; preds = %invoke.cont73
  br label %if.end76

lpad72:                                           ; preds = %invoke.cont71
  %29 = landingpad { ptr, i32 }
          cleanup
  %30 = extractvalue { ptr, i32 } %29, 0
  store ptr %30, ptr %exn.slot, align 8
  %31 = extractvalue { ptr, i32 } %29, 1
  store i32 %31, ptr %ehselector.slot, align 4
  call void @_ZNSt4pairINSt7__cxx1112basic_stringIcSt11char_traitsIcESaIcEEEiED2Ev(ptr noundef nonnull align 8 dereferenceable(36) %ref.tmp66) #14
  br label %ehcleanup776

if.end76:                                         ; preds = %invoke.cont75, %if.then63
  invoke void @_ZN7tinyobjL12InitMaterialEPNS_10material_tE(ptr noundef %material)
          to label %invoke.cont77 unwind label %lpad2

invoke.cont77:                                    ; preds = %if.end76
  store i8 0, ptr %has_d, align 1
  store i8 0, ptr %has_tr, align 1
  %32 = load ptr, ptr %token, align 8
  %add.ptr78 = getelementptr inbounds i8, ptr %32, i64 7
  store ptr %add.ptr78, ptr %token, align 8
  invoke void @_ZN7tinyobjL11parseStringB5cxx11EPPKc(ptr sret(%"class.std::__cxx11::basic_string") align 8 %namebuf, ptr noundef %token)
          to label %invoke.cont79 unwind label %lpad2

invoke.cont79:                                    ; preds = %invoke.cont77
  %call80 = call noundef zeroext i1 @_ZNKSt7__cxx1112basic_stringIcSt11char_traitsIcESaIcEE5emptyEv(ptr noundef nonnull align 8 dereferenceable(32) %namebuf) #14
  br i1 %call80, label %if.then81, label %if.end87

if.then81:                                        ; preds = %invoke.cont79
  %33 = load ptr, ptr %warning.addr, align 8
  %tobool = icmp ne ptr %33, null
  br i1 %tobool, label %if.then82, label %if.end86

if.then82:                                        ; preds = %if.then81
  %34 = load ptr, ptr %warning.addr, align 8
  %call85 = invoke noundef nonnull align 8 dereferenceable(32) ptr @_ZNSt7__cxx1112basic_stringIcSt11char_traitsIcESaIcEEpLEPKc(ptr noundef nonnull align 8 dereferenceable(32) %34, ptr noundef @.str.16)
          to label %invoke.cont84 unwind label %lpad83

invoke.cont84:                                    ; preds = %if.then82
  br label %if.end86

lpad83:                                           ; preds = %if.end87, %if.then82
  %35 = landingpad { ptr, i32 }
          cleanup
  %36 = extractvalue { ptr, i32 } %35, 0
  store ptr %36, ptr %exn.slot, align 8
  %37 = extractvalue { ptr, i32 } %35, 1
  store i32 %37, ptr %ehselector.slot, align 4
  call void @_ZNSt7__cxx1112basic_stringIcSt11char_traitsIcESaIcEED1Ev(ptr noundef nonnull align 8 dereferenceable(32) %namebuf) #14
  br label %ehcleanup776

if.end86:                                         ; preds = %invoke.cont84, %if.then81
  br label %if.end87

if.end87:                                         ; preds = %if.end86, %invoke.cont79
  %name88 = getelementptr inbounds %"struct.tinyobj::material_t", ptr %material, i32 0, i32 0
  %call90 = invoke noundef nonnull align 8 dereferenceable(32) ptr @_ZNSt7__cxx1112basic_stringIcSt11char_traitsIcESaIcEEaSERKS4_(ptr noundef nonnull align 8 dereferenceable(32) %name88, ptr noundef nonnull align 8 dereferenceable(32) %namebuf)
          to label %invoke.cont89 unwind label %lpad83

invoke.cont89:                                    ; preds = %if.end87
  call void @_ZNSt7__cxx1112basic_stringIcSt11char_traitsIcESaIcEED1Ev(ptr noundef nonnull align 8 dereferenceable(32) %namebuf) #14
  br label %while.cond, !llvm.loop !6

if.end91:                                         ; preds = %lor.lhs.false, %if.end54
  %38 = load ptr, ptr %token, align 8
  %arrayidx92 = getelementptr inbounds i8, ptr %38, i64 0
  %39 = load i8, ptr %arrayidx92, align 1
  %conv93 = sext i8 %39 to i32
  %cmp94 = icmp eq i32 %conv93, 75
  br i1 %cmp94, label %land.lhs.true95, label %if.end115

land.lhs.true95:                                  ; preds = %if.end91
  %40 = load ptr, ptr %token, align 8
  %arrayidx96 = getelementptr inbounds i8, ptr %40, i64 1
  %41 = load i8, ptr %arrayidx96, align 1
  %conv97 = sext i8 %41 to i32
  %cmp98 = icmp eq i32 %conv97, 97
  br i1 %cmp98, label %land.lhs.true99, label %if.end115

land.lhs.true99:                                  ; preds = %land.lhs.true95
  %42 = load ptr, ptr %token, align 8
  %arrayidx100 = getelementptr inbounds i8, ptr %42, i64 2
  %43 = load i8, ptr %arrayidx100, align 1
  %conv101 = sext i8 %43 to i32
  %cmp102 = icmp eq i32 %conv101, 32
  br i1 %cmp102, label %if.then107, label %lor.lhs.false103

lor.lhs.false103:                                 ; preds = %land.lhs.true99
  %44 = load ptr, ptr %token, align 8
  %arrayidx104 = getelementptr inbounds i8, ptr %44, i64 2
  %45 = load i8, ptr %arrayidx104, align 1
  %conv105 = sext i8 %45 to i32
  %cmp106 = icmp eq i32 %conv105, 9
  br i1 %cmp106, label %if.then107, label %if.end115

if.then107:                                       ; preds = %lor.lhs.false103, %land.lhs.true99
  %46 = load ptr, ptr %token, align 8
  %add.ptr108 = getelementptr inbounds i8, ptr %46, i64 2
  store ptr %add.ptr108, ptr %token, align 8
  invoke void @_ZN7tinyobjL10parseReal3EPfS0_S0_PPKcddd(ptr noundef %r, ptr noundef %g, ptr noundef %b, ptr noundef %token, double noundef 0.000000e+00, double noundef 0.000000e+00, double noundef 0.000000e+00)
          to label %invoke.cont109 unwind label %lpad2

invoke.cont109:                                   ; preds = %if.then107
  %47 = load float, ptr %r, align 4
  %ambient = getelementptr inbounds %"struct.tinyobj::material_t", ptr %material, i32 0, i32 1
  %arrayidx110 = getelementptr inbounds [3 x float], ptr %ambient, i64 0, i64 0
  store float %47, ptr %arrayidx110, align 8
  %48 = load float, ptr %g, align 4
  %ambient111 = getelementptr inbounds %"struct.tinyobj::material_t", ptr %material, i32 0, i32 1
  %arrayidx112 = getelementptr inbounds [3 x float], ptr %ambient111, i64 0, i64 1
  store float %48, ptr %arrayidx112, align 4
  %49 = load float, ptr %b, align 4
  %ambient113 = getelementptr inbounds %"struct.tinyobj::material_t", ptr %material, i32 0, i32 1
  %arrayidx114 = getelementptr inbounds [3 x float], ptr %ambient113, i64 0, i64 2
  store float %49, ptr %arrayidx114, align 8
  br label %while.cond, !llvm.loop !6

if.end115:                                        ; preds = %lor.lhs.false103, %land.lhs.true95, %if.end91
  %50 = load ptr, ptr %token, align 8
  %arrayidx116 = getelementptr inbounds i8, ptr %50, i64 0
  %51 = load i8, ptr %arrayidx116, align 1
  %conv117 = sext i8 %51 to i32
  %cmp118 = icmp eq i32 %conv117, 75
  br i1 %cmp118, label %land.lhs.true119, label %if.end142

land.lhs.true119:                                 ; preds = %if.end115
  %52 = load ptr, ptr %token, align 8
  %arrayidx120 = getelementptr inbounds i8, ptr %52, i64 1
  %53 = load i8, ptr %arrayidx120, align 1
  %conv121 = sext i8 %53 to i32
  %cmp122 = icmp eq i32 %conv121, 100
  br i1 %cmp122, label %land.lhs.true123, label %if.end142

land.lhs.true123:                                 ; preds = %land.lhs.true119
  %54 = load ptr, ptr %token, align 8
  %arrayidx124 = getelementptr inbounds i8, ptr %54, i64 2
  %55 = load i8, ptr %arrayidx124, align 1
  %conv125 = sext i8 %55 to i32
  %cmp126 = icmp eq i32 %conv125, 32
  br i1 %cmp126, label %if.then131, label %lor.lhs.false127

lor.lhs.false127:                                 ; preds = %land.lhs.true123
  %56 = load ptr, ptr %token, align 8
  %arrayidx128 = getelementptr inbounds i8, ptr %56, i64 2
  %57 = load i8, ptr %arrayidx128, align 1
  %conv129 = sext i8 %57 to i32
  %cmp130 = icmp eq i32 %conv129, 9
  br i1 %cmp130, label %if.then131, label %if.end142

if.then131:                                       ; preds = %lor.lhs.false127, %land.lhs.true123
  %58 = load ptr, ptr %token, align 8
  %add.ptr132 = getelementptr inbounds i8, ptr %58, i64 2
  store ptr %add.ptr132, ptr %token, align 8
  invoke void @_ZN7tinyobjL10parseReal3EPfS0_S0_PPKcddd(ptr noundef %r133, ptr noundef %g134, ptr noundef %b135, ptr noundef %token, double noundef 0.000000e+00, double noundef 0.000000e+00, double noundef 0.000000e+00)
          to label %invoke.cont136 unwind label %lpad2

invoke.cont136:                                   ; preds = %if.then131
  %59 = load float, ptr %r133, align 4
  %diffuse = getelementptr inbounds %"struct.tinyobj::material_t", ptr %material, i32 0, i32 2
  %arrayidx137 = getelementptr inbounds [3 x float], ptr %diffuse, i64 0, i64 0
  store float %59, ptr %arrayidx137, align 4
  %60 = load float, ptr %g134, align 4
  %diffuse138 = getelementptr inbounds %"struct.tinyobj::material_t", ptr %material, i32 0, i32 2
  %arrayidx139 = getelementptr inbounds [3 x float], ptr %diffuse138, i64 0, i64 1
  store float %60, ptr %arrayidx139, align 4
  %61 = load float, ptr %b135, align 4
  %diffuse140 = getelementptr inbounds %"struct.tinyobj::material_t", ptr %material, i32 0, i32 2
  %arrayidx141 = getelementptr inbounds [3 x float], ptr %diffuse140, i64 0, i64 2
  store float %61, ptr %arrayidx141, align 4
  store i8 1, ptr %has_kd, align 1
  br label %while.cond, !llvm.loop !6

if.end142:                                        ; preds = %lor.lhs.false127, %land.lhs.true119, %if.end115
  %62 = load ptr, ptr %token, align 8
  %arrayidx143 = getelementptr inbounds i8, ptr %62, i64 0
  %63 = load i8, ptr %arrayidx143, align 1
  %conv144 = sext i8 %63 to i32
  %cmp145 = icmp eq i32 %conv144, 75
  br i1 %cmp145, label %land.lhs.true146, label %if.end169

land.lhs.true146:                                 ; preds = %if.end142
  %64 = load ptr, ptr %token, align 8
  %arrayidx147 = getelementptr inbounds i8, ptr %64, i64 1
  %65 = load i8, ptr %arrayidx147, align 1
  %conv148 = sext i8 %65 to i32
  %cmp149 = icmp eq i32 %conv148, 115
  br i1 %cmp149, label %land.lhs.true150, label %if.end169

land.lhs.true150:                                 ; preds = %land.lhs.true146
  %66 = load ptr, ptr %token, align 8
  %arrayidx151 = getelementptr inbounds i8, ptr %66, i64 2
  %67 = load i8, ptr %arrayidx151, align 1
  %conv152 = sext i8 %67 to i32
  %cmp153 = icmp eq i32 %conv152, 32
  br i1 %cmp153, label %if.then158, label %lor.lhs.false154

lor.lhs.false154:                                 ; preds = %land.lhs.true150
  %68 = load ptr, ptr %token, align 8
  %arrayidx155 = getelementptr inbounds i8, ptr %68, i64 2
  %69 = load i8, ptr %arrayidx155, align 1
  %conv156 = sext i8 %69 to i32
  %cmp157 = icmp eq i32 %conv156, 9
  br i1 %cmp157, label %if.then158, label %if.end169

if.then158:                                       ; preds = %lor.lhs.false154, %land.lhs.true150
  %70 = load ptr, ptr %token, align 8
  %add.ptr159 = getelementptr inbounds i8, ptr %70, i64 2
  store ptr %add.ptr159, ptr %token, align 8
  invoke void @_ZN7tinyobjL10parseReal3EPfS0_S0_PPKcddd(ptr noundef %r160, ptr noundef %g161, ptr noundef %b162, ptr noundef %token, double noundef 0.000000e+00, double noundef 0.000000e+00, double noundef 0.000000e+00)
          to label %invoke.cont163 unwind label %lpad2

invoke.cont163:                                   ; preds = %if.then158
  %71 = load float, ptr %r160, align 4
  %specular = getelementptr inbounds %"struct.tinyobj::material_t", ptr %material, i32 0, i32 3
  %arrayidx164 = getelementptr inbounds [3 x float], ptr %specular, i64 0, i64 0
  store float %71, ptr %arrayidx164, align 8
  %72 = load float, ptr %g161, align 4
  %specular165 = getelementptr inbounds %"struct.tinyobj::material_t", ptr %material, i32 0, i32 3
  %arrayidx166 = getelementptr inbounds [3 x float], ptr %specular165, i64 0, i64 1
  store float %72, ptr %arrayidx166, align 4
  %73 = load float, ptr %b162, align 4
  %specular167 = getelementptr inbounds %"struct.tinyobj::material_t", ptr %material, i32 0, i32 3
  %arrayidx168 = getelementptr inbounds [3 x float], ptr %specular167, i64 0, i64 2
  store float %73, ptr %arrayidx168, align 8
  br label %while.cond, !llvm.loop !6

if.end169:                                        ; preds = %lor.lhs.false154, %land.lhs.true146, %if.end142
  %74 = load ptr, ptr %token, align 8
  %arrayidx170 = getelementptr inbounds i8, ptr %74, i64 0
  %75 = load i8, ptr %arrayidx170, align 1
  %conv171 = sext i8 %75 to i32
  %cmp172 = icmp eq i32 %conv171, 75
  br i1 %cmp172, label %land.lhs.true173, label %lor.lhs.false185

land.lhs.true173:                                 ; preds = %if.end169
  %76 = load ptr, ptr %token, align 8
  %arrayidx174 = getelementptr inbounds i8, ptr %76, i64 1
  %77 = load i8, ptr %arrayidx174, align 1
  %conv175 = sext i8 %77 to i32
  %cmp176 = icmp eq i32 %conv175, 116
  br i1 %cmp176, label %land.lhs.true177, label %lor.lhs.false185

land.lhs.true177:                                 ; preds = %land.lhs.true173
  %78 = load ptr, ptr %token, align 8
  %arrayidx178 = getelementptr inbounds i8, ptr %78, i64 2
  %79 = load i8, ptr %arrayidx178, align 1
  %conv179 = sext i8 %79 to i32
  %cmp180 = icmp eq i32 %conv179, 32
  br i1 %cmp180, label %if.then201, label %lor.lhs.false181

lor.lhs.false181:                                 ; preds = %land.lhs.true177
  %80 = load ptr, ptr %token, align 8
  %arrayidx182 = getelementptr inbounds i8, ptr %80, i64 2
  %81 = load i8, ptr %arrayidx182, align 1
  %conv183 = sext i8 %81 to i32
  %cmp184 = icmp eq i32 %conv183, 9
  br i1 %cmp184, label %if.then201, label %lor.lhs.false185

lor.lhs.false185:                                 ; preds = %lor.lhs.false181, %land.lhs.true173, %if.end169
  %82 = load ptr, ptr %token, align 8
  %arrayidx186 = getelementptr inbounds i8, ptr %82, i64 0
  %83 = load i8, ptr %arrayidx186, align 1
  %conv187 = sext i8 %83 to i32
  %cmp188 = icmp eq i32 %conv187, 84
  br i1 %cmp188, label %land.lhs.true189, label %if.end212

land.lhs.true189:                                 ; preds = %lor.lhs.false185
  %84 = load ptr, ptr %token, align 8
  %arrayidx190 = getelementptr inbounds i8, ptr %84, i64 1
  %85 = load i8, ptr %arrayidx190, align 1
  %conv191 = sext i8 %85 to i32
  %cmp192 = icmp eq i32 %conv191, 102
  br i1 %cmp192, label %land.lhs.true193, label %if.end212

land.lhs.true193:                                 ; preds = %land.lhs.true189
  %86 = load ptr, ptr %token, align 8
  %arrayidx194 = getelementptr inbounds i8, ptr %86, i64 2
  %87 = load i8, ptr %arrayidx194, align 1
  %conv195 = sext i8 %87 to i32
  %cmp196 = icmp eq i32 %conv195, 32
  br i1 %cmp196, label %if.then201, label %lor.lhs.false197

lor.lhs.false197:                                 ; preds = %land.lhs.true193
  %88 = load ptr, ptr %token, align 8
  %arrayidx198 = getelementptr inbounds i8, ptr %88, i64 2
  %89 = load i8, ptr %arrayidx198, align 1
  %conv199 = sext i8 %89 to i32
  %cmp200 = icmp eq i32 %conv199, 9
  br i1 %cmp200, label %if.then201, label %if.end212

if.then201:                                       ; preds = %lor.lhs.false197, %land.lhs.true193, %lor.lhs.false181, %land.lhs.true177
  %90 = load ptr, ptr %token, align 8
  %add.ptr202 = getelementptr inbounds i8, ptr %90, i64 2
  store ptr %add.ptr202, ptr %token, align 8
  invoke void @_ZN7tinyobjL10parseReal3EPfS0_S0_PPKcddd(ptr noundef %r203, ptr noundef %g204, ptr noundef %b205, ptr noundef %token, double noundef 0.000000e+00, double noundef 0.000000e+00, double noundef 0.000000e+00)
          to label %invoke.cont206 unwind label %lpad2

invoke.cont206:                                   ; preds = %if.then201
  %91 = load float, ptr %r203, align 4
  %transmittance = getelementptr inbounds %"struct.tinyobj::material_t", ptr %material, i32 0, i32 4
  %arrayidx207 = getelementptr inbounds [3 x float], ptr %transmittance, i64 0, i64 0
  store float %91, ptr %arrayidx207, align 4
  %92 = load float, ptr %g204, align 4
  %transmittance208 = getelementptr inbounds %"struct.tinyobj::material_t", ptr %material, i32 0, i32 4
  %arrayidx209 = getelementptr inbounds [3 x float], ptr %transmittance208, i64 0, i64 1
  store float %92, ptr %arrayidx209, align 4
  %93 = load float, ptr %b205, align 4
  %transmittance210 = getelementptr inbounds %"struct.tinyobj::material_t", ptr %material, i32 0, i32 4
  %arrayidx211 = getelementptr inbounds [3 x float], ptr %transmittance210, i64 0, i64 2
  store float %93, ptr %arrayidx211, align 4
  br label %while.cond, !llvm.loop !6

if.end212:                                        ; preds = %lor.lhs.false197, %land.lhs.true189, %lor.lhs.false185
  %94 = load ptr, ptr %token, align 8
  %arrayidx213 = getelementptr inbounds i8, ptr %94, i64 0
  %95 = load i8, ptr %arrayidx213, align 1
  %conv214 = sext i8 %95 to i32
  %cmp215 = icmp eq i32 %conv214, 78
  br i1 %cmp215, label %land.lhs.true216, label %if.end232

land.lhs.true216:                                 ; preds = %if.end212
  %96 = load ptr, ptr %token, align 8
  %arrayidx217 = getelementptr inbounds i8, ptr %96, i64 1
  %97 = load i8, ptr %arrayidx217, align 1
  %conv218 = sext i8 %97 to i32
  %cmp219 = icmp eq i32 %conv218, 105
  br i1 %cmp219, label %land.lhs.true220, label %if.end232

land.lhs.true220:                                 ; preds = %land.lhs.true216
  %98 = load ptr, ptr %token, align 8
  %arrayidx221 = getelementptr inbounds i8, ptr %98, i64 2
  %99 = load i8, ptr %arrayidx221, align 1
  %conv222 = sext i8 %99 to i32
  %cmp223 = icmp eq i32 %conv222, 32
  br i1 %cmp223, label %if.then228, label %lor.lhs.false224

lor.lhs.false224:                                 ; preds = %land.lhs.true220
  %100 = load ptr, ptr %token, align 8
  %arrayidx225 = getelementptr inbounds i8, ptr %100, i64 2
  %101 = load i8, ptr %arrayidx225, align 1
  %conv226 = sext i8 %101 to i32
  %cmp227 = icmp eq i32 %conv226, 9
  br i1 %cmp227, label %if.then228, label %if.end232

if.then228:                                       ; preds = %lor.lhs.false224, %land.lhs.true220
  %102 = load ptr, ptr %token, align 8
  %add.ptr229 = getelementptr inbounds i8, ptr %102, i64 2
  store ptr %add.ptr229, ptr %token, align 8
  %call231 = invoke noundef float @_ZN7tinyobjL9parseRealEPPKcd(ptr noundef %token, double noundef 0.000000e+00)
          to label %invoke.cont230 unwind label %lpad2

invoke.cont230:                                   ; preds = %if.then228
  %ior = getelementptr inbounds %"struct.tinyobj::material_t", ptr %material, i32 0, i32 7
  store float %call231, ptr %ior, align 8
  br label %while.cond, !llvm.loop !6

if.end232:                                        ; preds = %lor.lhs.false224, %land.lhs.true216, %if.end212
  %103 = load ptr, ptr %token, align 8
  %arrayidx233 = getelementptr inbounds i8, ptr %103, i64 0
  %104 = load i8, ptr %arrayidx233, align 1
  %conv234 = sext i8 %104 to i32
  %cmp235 = icmp eq i32 %conv234, 75
  br i1 %cmp235, label %land.lhs.true236, label %if.end259

land.lhs.true236:                                 ; preds = %if.end232
  %105 = load ptr, ptr %token, align 8
  %arrayidx237 = getelementptr inbounds i8, ptr %105, i64 1
  %106 = load i8, ptr %arrayidx237, align 1
  %conv238 = sext i8 %106 to i32
  %cmp239 = icmp eq i32 %conv238, 101
  br i1 %cmp239, label %land.lhs.true240, label %if.end259

land.lhs.true240:                                 ; preds = %land.lhs.true236
  %107 = load ptr, ptr %token, align 8
  %arrayidx241 = getelementptr inbounds i8, ptr %107, i64 2
  %108 = load i8, ptr %arrayidx241, align 1
  %conv242 = sext i8 %108 to i32
  %cmp243 = icmp eq i32 %conv242, 32
  br i1 %cmp243, label %if.then248, label %lor.lhs.false244

lor.lhs.false244:                                 ; preds = %land.lhs.true240
  %109 = load ptr, ptr %token, align 8
  %arrayidx245 = getelementptr inbounds i8, ptr %109, i64 2
  %110 = load i8, ptr %arrayidx245, align 1
  %conv246 = sext i8 %110 to i32
  %cmp247 = icmp eq i32 %conv246, 9
  br i1 %cmp247, label %if.then248, label %if.end259

if.then248:                                       ; preds = %lor.lhs.false244, %land.lhs.true240
  %111 = load ptr, ptr %token, align 8
  %add.ptr249 = getelementptr inbounds i8, ptr %111, i64 2
  store ptr %add.ptr249, ptr %token, align 8
  invoke void @_ZN7tinyobjL10parseReal3EPfS0_S0_PPKcddd(ptr noundef %r250, ptr noundef %g251, ptr noundef %b252, ptr noundef %token, double noundef 0.000000e+00, double noundef 0.000000e+00, double noundef 0.000000e+00)
          to label %invoke.cont253 unwind label %lpad2

invoke.cont253:                                   ; preds = %if.then248
  %112 = load float, ptr %r250, align 4
  %emission = getelementptr inbounds %"struct.tinyobj::material_t", ptr %material, i32 0, i32 5
  %arrayidx254 = getelementptr inbounds [3 x float], ptr %emission, i64 0, i64 0
  store float %112, ptr %arrayidx254, align 8
  %113 = load float, ptr %g251, align 4
  %emission255 = getelementptr inbounds %"struct.tinyobj::material_t", ptr %material, i32 0, i32 5
  %arrayidx256 = getelementptr inbounds [3 x float], ptr %emission255, i64 0, i64 1
  store float %113, ptr %arrayidx256, align 4
  %114 = load float, ptr %b252, align 4
  %emission257 = getelementptr inbounds %"struct.tinyobj::material_t", ptr %material, i32 0, i32 5
  %arrayidx258 = getelementptr inbounds [3 x float], ptr %emission257, i64 0, i64 2
  store float %114, ptr %arrayidx258, align 8
  br label %while.cond, !llvm.loop !6

if.end259:                                        ; preds = %lor.lhs.false244, %land.lhs.true236, %if.end232
  %115 = load ptr, ptr %token, align 8
  %arrayidx260 = getelementptr inbounds i8, ptr %115, i64 0
  %116 = load i8, ptr %arrayidx260, align 1
  %conv261 = sext i8 %116 to i32
  %cmp262 = icmp eq i32 %conv261, 78
  br i1 %cmp262, label %land.lhs.true263, label %if.end279

land.lhs.true263:                                 ; preds = %if.end259
  %117 = load ptr, ptr %token, align 8
  %arrayidx264 = getelementptr inbounds i8, ptr %117, i64 1
  %118 = load i8, ptr %arrayidx264, align 1
  %conv265 = sext i8 %118 to i32
  %cmp266 = icmp eq i32 %conv265, 115
  br i1 %cmp266, label %land.lhs.true267, label %if.end279

land.lhs.true267:                                 ; preds = %land.lhs.true263
  %119 = load ptr, ptr %token, align 8
  %arrayidx268 = getelementptr inbounds i8, ptr %119, i64 2
  %120 = load i8, ptr %arrayidx268, align 1
  %conv269 = sext i8 %120 to i32
  %cmp270 = icmp eq i32 %conv269, 32
  br i1 %cmp270, label %if.then275, label %lor.lhs.false271

lor.lhs.false271:                                 ; preds = %land.lhs.true267
  %121 = load ptr, ptr %token, align 8
  %arrayidx272 = getelementptr inbounds i8, ptr %121, i64 2
  %122 = load i8, ptr %arrayidx272, align 1
  %conv273 = sext i8 %122 to i32
  %cmp274 = icmp eq i32 %conv273, 9
  br i1 %cmp274, label %if.then275, label %if.end279

if.then275:                                       ; preds = %lor.lhs.false271, %land.lhs.true267
  %123 = load ptr, ptr %token, align 8
  %add.ptr276 = getelementptr inbounds i8, ptr %123, i64 2
  store ptr %add.ptr276, ptr %token, align 8
  %call278 = invoke noundef float @_ZN7tinyobjL9parseRealEPPKcd(ptr noundef %token, double noundef 0.000000e+00)
          to label %invoke.cont277 unwind label %lpad2

invoke.cont277:                                   ; preds = %if.then275
  %shininess = getelementptr inbounds %"struct.tinyobj::material_t", ptr %material, i32 0, i32 6
  store float %call278, ptr %shininess, align 4
  br label %while.cond, !llvm.loop !6

if.end279:                                        ; preds = %lor.lhs.false271, %land.lhs.true263, %if.end259
  %124 = load ptr, ptr %token, align 8
  %call280 = call i32 @strncmp(ptr noundef %124, ptr noundef @.str.17, i64 noundef 5) #15
  %cmp281 = icmp eq i32 0, %call280
  br i1 %cmp281, label %land.lhs.true282, label %if.end294

land.lhs.true282:                                 ; preds = %if.end279
  %125 = load ptr, ptr %token, align 8
  %arrayidx283 = getelementptr inbounds i8, ptr %125, i64 5
  %126 = load i8, ptr %arrayidx283, align 1
  %conv284 = sext i8 %126 to i32
  %cmp285 = icmp eq i32 %conv284, 32
  br i1 %cmp285, label %if.then290, label %lor.lhs.false286

lor.lhs.false286:                                 ; preds = %land.lhs.true282
  %127 = load ptr, ptr %token, align 8
  %arrayidx287 = getelementptr inbounds i8, ptr %127, i64 5
  %128 = load i8, ptr %arrayidx287, align 1
  %conv288 = sext i8 %128 to i32
  %cmp289 = icmp eq i32 %conv288, 9
  br i1 %cmp289, label %if.then290, label %if.end294

if.then290:                                       ; preds = %lor.lhs.false286, %land.lhs.true282
  %129 = load ptr, ptr %token, align 8
  %add.ptr291 = getelementptr inbounds i8, ptr %129, i64 6
  store ptr %add.ptr291, ptr %token, align 8
  %call293 = invoke noundef i32 @_ZN7tinyobjL8parseIntEPPKc(ptr noundef %token)
          to label %invoke.cont292 unwind label %lpad2

invoke.cont292:                                   ; preds = %if.then290
  %illum = getelementptr inbounds %"struct.tinyobj::material_t", ptr %material, i32 0, i32 9
  store i32 %call293, ptr %illum, align 8
  br label %while.cond, !llvm.loop !6

if.end294:                                        ; preds = %lor.lhs.false286, %if.end279
  %130 = load ptr, ptr %token, align 8
  %arrayidx295 = getelementptr inbounds i8, ptr %130, i64 0
  %131 = load i8, ptr %arrayidx295, align 1
  %conv296 = sext i8 %131 to i32
  %cmp297 = icmp eq i32 %conv296, 100
  br i1 %cmp297, label %land.lhs.true298, label %if.end325

land.lhs.true298:                                 ; preds = %if.end294
  %132 = load ptr, ptr %token, align 8
  %arrayidx299 = getelementptr inbounds i8, ptr %132, i64 1
  %133 = load i8, ptr %arrayidx299, align 1
  %conv300 = sext i8 %133 to i32
  %cmp301 = icmp eq i32 %conv300, 32
  br i1 %cmp301, label %if.then306, label %lor.lhs.false302

lor.lhs.false302:                                 ; preds = %land.lhs.true298
  %134 = load ptr, ptr %token, align 8
  %arrayidx303 = getelementptr inbounds i8, ptr %134, i64 1
  %135 = load i8, ptr %arrayidx303, align 1
  %conv304 = sext i8 %135 to i32
  %cmp305 = icmp eq i32 %conv304, 9
  br i1 %cmp305, label %if.then306, label %if.end325

if.then306:                                       ; preds = %lor.lhs.false302, %land.lhs.true298
  %136 = load ptr, ptr %token, align 8
  %add.ptr307 = getelementptr inbounds i8, ptr %136, i64 1
  store ptr %add.ptr307, ptr %token, align 8
  %call309 = invoke noundef float @_ZN7tinyobjL9parseRealEPPKcd(ptr noundef %token, double noundef 0.000000e+00)
          to label %invoke.cont308 unwind label %lpad2

invoke.cont308:                                   ; preds = %if.then306
  %dissolve = getelementptr inbounds %"struct.tinyobj::material_t", ptr %material, i32 0, i32 8
  store float %call309, ptr %dissolve, align 4
  %137 = load i8, ptr %has_tr, align 1
  %tobool310 = trunc i8 %137 to i1
  br i1 %tobool310, label %if.then311, label %if.end324

if.then311:                                       ; preds = %invoke.cont308
  %add.ptr312 = getelementptr inbounds i8, ptr %warn_ss, i64 16
  %call314 = invoke noundef nonnull align 8 dereferenceable(8) ptr @_ZStlsISt11char_traitsIcEERSt13basic_ostreamIcT_ES5_PKc(ptr noundef nonnull align 8 dereferenceable(8) %add.ptr312, ptr noundef @.str.18)
          to label %invoke.cont313 unwind label %lpad2

invoke.cont313:                                   ; preds = %if.then311
  %name315 = getelementptr inbounds %"struct.tinyobj::material_t", ptr %material, i32 0, i32 0
  %call317 = invoke noundef nonnull align 8 dereferenceable(8) ptr @_ZStlsIcSt11char_traitsIcESaIcEERSt13basic_ostreamIT_T0_ES7_RKNSt7__cxx1112basic_stringIS4_S5_T1_EE(ptr noundef nonnull align 8 dereferenceable(8) %call314, ptr noundef nonnull align 8 dereferenceable(32) %name315)
          to label %invoke.cont316 unwind label %lpad2

invoke.cont316:                                   ; preds = %invoke.cont313
  %call319 = invoke noundef nonnull align 8 dereferenceable(8) ptr @_ZStlsISt11char_traitsIcEERSt13basic_ostreamIcT_ES5_PKc(ptr noundef nonnull align 8 dereferenceable(8) %call317, ptr noundef @.str.19)
          to label %invoke.cont318 unwind label %lpad2

invoke.cont318:                                   ; preds = %invoke.cont316
  %138 = load i64, ptr %line_no, align 8
  %call321 = invoke noundef nonnull align 8 dereferenceable(8) ptr @_ZNSolsEm(ptr noundef nonnull align 8 dereferenceable(8) %call319, i64 noundef %138)
          to label %invoke.cont320 unwind label %lpad2

invoke.cont320:                                   ; preds = %invoke.cont318
  %call323 = invoke noundef nonnull align 8 dereferenceable(8) ptr @_ZStlsISt11char_traitsIcEERSt13basic_ostreamIcT_ES5_PKc(ptr noundef nonnull align 8 dereferenceable(8) %call321, ptr noundef @.str.20)
          to label %invoke.cont322 unwind label %lpad2

invoke.cont322:                                   ; preds = %invoke.cont320
  br label %if.end324

if.end324:                                        ; preds = %invoke.cont322, %invoke.cont308
  store i8 1, ptr %has_d, align 1
  br label %while.cond, !llvm.loop !6

if.end325:                                        ; preds = %lor.lhs.false302, %if.end294
  %139 = load ptr, ptr %token, align 8
  %arrayidx326 = getelementptr inbounds i8, ptr %139, i64 0
  %140 = load i8, ptr %arrayidx326, align 1
  %conv327 = sext i8 %140 to i32
  %cmp328 = icmp eq i32 %conv327, 84
  br i1 %cmp328, label %land.lhs.true329, label %if.end362

land.lhs.true329:                                 ; preds = %if.end325
  %141 = load ptr, ptr %token, align 8
  %arrayidx330 = getelementptr inbounds i8, ptr %141, i64 1
  %142 = load i8, ptr %arrayidx330, align 1
  %conv331 = sext i8 %142 to i32
  %cmp332 = icmp eq i32 %conv331, 114
  br i1 %cmp332, label %land.lhs.true333, label %if.end362

land.lhs.true333:                                 ; preds = %land.lhs.true329
  %143 = load ptr, ptr %token, align 8
  %arrayidx334 = getelementptr inbounds i8, ptr %143, i64 2
  %144 = load i8, ptr %arrayidx334, align 1
  %conv335 = sext i8 %144 to i32
  %cmp336 = icmp eq i32 %conv335, 32
  br i1 %cmp336, label %if.then341, label %lor.lhs.false337

lor.lhs.false337:                                 ; preds = %land.lhs.true333
  %145 = load ptr, ptr %token, align 8
  %arrayidx338 = getelementptr inbounds i8, ptr %145, i64 2
  %146 = load i8, ptr %arrayidx338, align 1
  %conv339 = sext i8 %146 to i32
  %cmp340 = icmp eq i32 %conv339, 9
  br i1 %cmp340, label %if.then341, label %if.end362

if.then341:                                       ; preds = %lor.lhs.false337, %land.lhs.true333
  %147 = load ptr, ptr %token, align 8
  %add.ptr342 = getelementptr inbounds i8, ptr %147, i64 2
  store ptr %add.ptr342, ptr %token, align 8
  %148 = load i8, ptr %has_d, align 1
  %tobool343 = trunc i8 %148 to i1
  br i1 %tobool343, label %if.then344, label %if.else

if.then344:                                       ; preds = %if.then341
  %add.ptr345 = getelementptr inbounds i8, ptr %warn_ss, i64 16
  %call347 = invoke noundef nonnull align 8 dereferenceable(8) ptr @_ZStlsISt11char_traitsIcEERSt13basic_ostreamIcT_ES5_PKc(ptr noundef nonnull align 8 dereferenceable(8) %add.ptr345, ptr noundef @.str.18)
          to label %invoke.cont346 unwind label %lpad2

invoke.cont346:                                   ; preds = %if.then344
  %name348 = getelementptr inbounds %"struct.tinyobj::material_t", ptr %material, i32 0, i32 0
  %call350 = invoke noundef nonnull align 8 dereferenceable(8) ptr @_ZStlsIcSt11char_traitsIcESaIcEERSt13basic_ostreamIT_T0_ES7_RKNSt7__cxx1112basic_stringIS4_S5_T1_EE(ptr noundef nonnull align 8 dereferenceable(8) %call347, ptr noundef nonnull align 8 dereferenceable(32) %name348)
          to label %invoke.cont349 unwind label %lpad2

invoke.cont349:                                   ; preds = %invoke.cont346
  %call352 = invoke noundef nonnull align 8 dereferenceable(8) ptr @_ZStlsISt11char_traitsIcEERSt13basic_ostreamIcT_ES5_PKc(ptr noundef nonnull align 8 dereferenceable(8) %call350, ptr noundef @.str.19)
          to label %invoke.cont351 unwind label %lpad2

invoke.cont351:                                   ; preds = %invoke.cont349
  %149 = load i64, ptr %line_no, align 8
  %call354 = invoke noundef nonnull align 8 dereferenceable(8) ptr @_ZNSolsEm(ptr noundef nonnull align 8 dereferenceable(8) %call352, i64 noundef %149)
          to label %invoke.cont353 unwind label %lpad2

invoke.cont353:                                   ; preds = %invoke.cont351
  %call356 = invoke noundef nonnull align 8 dereferenceable(8) ptr @_ZStlsISt11char_traitsIcEERSt13basic_ostreamIcT_ES5_PKc(ptr noundef nonnull align 8 dereferenceable(8) %call354, ptr noundef @.str.20)
          to label %invoke.cont355 unwind label %lpad2

invoke.cont355:                                   ; preds = %invoke.cont353
  br label %if.end361

if.else:                                          ; preds = %if.then341
  %call358 = invoke noundef float @_ZN7tinyobjL9parseRealEPPKcd(ptr noundef %token, double noundef 0.000000e+00)
          to label %invoke.cont357 unwind label %lpad2

invoke.cont357:                                   ; preds = %if.else
  %sub359 = fsub float 1.000000e+00, %call358
  %dissolve360 = getelementptr inbounds %"struct.tinyobj::material_t", ptr %material, i32 0, i32 8
  store float %sub359, ptr %dissolve360, align 4
  br label %if.end361

if.end361:                                        ; preds = %invoke.cont357, %invoke.cont355
  store i8 1, ptr %has_tr, align 1
  br label %while.cond, !llvm.loop !6

if.end362:                                        ; preds = %lor.lhs.false337, %land.lhs.true329, %if.end325
  %150 = load ptr, ptr %token, align 8
  %arrayidx363 = getelementptr inbounds i8, ptr %150, i64 0
  %151 = load i8, ptr %arrayidx363, align 1
  %conv364 = sext i8 %151 to i32
  %cmp365 = icmp eq i32 %conv364, 80
  br i1 %cmp365, label %land.lhs.true366, label %if.end382

land.lhs.true366:                                 ; preds = %if.end362
  %152 = load ptr, ptr %token, align 8
  %arrayidx367 = getelementptr inbounds i8, ptr %152, i64 1
  %153 = load i8, ptr %arrayidx367, align 1
  %conv368 = sext i8 %153 to i32
  %cmp369 = icmp eq i32 %conv368, 114
  br i1 %cmp369, label %land.lhs.true370, label %if.end382

land.lhs.true370:                                 ; preds = %land.lhs.true366
  %154 = load ptr, ptr %token, align 8
  %arrayidx371 = getelementptr inbounds i8, ptr %154, i64 2
  %155 = load i8, ptr %arrayidx371, align 1
  %conv372 = sext i8 %155 to i32
  %cmp373 = icmp eq i32 %conv372, 32
  br i1 %cmp373, label %if.then378, label %lor.lhs.false374

lor.lhs.false374:                                 ; preds = %land.lhs.true370
  %156 = load ptr, ptr %token, align 8
  %arrayidx375 = getelementptr inbounds i8, ptr %156, i64 2
  %157 = load i8, ptr %arrayidx375, align 1
  %conv376 = sext i8 %157 to i32
  %cmp377 = icmp eq i32 %conv376, 9
  br i1 %cmp377, label %if.then378, label %if.end382

if.then378:                                       ; preds = %lor.lhs.false374, %land.lhs.true370
  %158 = load ptr, ptr %token, align 8
  %add.ptr379 = getelementptr inbounds i8, ptr %158, i64 2
  store ptr %add.ptr379, ptr %token, align 8
  %call381 = invoke noundef float @_ZN7tinyobjL9parseRealEPPKcd(ptr noundef %token, double noundef 0.000000e+00)
          to label %invoke.cont380 unwind label %lpad2

invoke.cont380:                                   ; preds = %if.then378
  %roughness = getelementptr inbounds %"struct.tinyobj::material_t", ptr %material, i32 0, i32 27
  store float %call381, ptr %roughness, align 8
  br label %while.cond, !llvm.loop !6

if.end382:                                        ; preds = %lor.lhs.false374, %land.lhs.true366, %if.end362
  %159 = load ptr, ptr %token, align 8
  %arrayidx383 = getelementptr inbounds i8, ptr %159, i64 0
  %160 = load i8, ptr %arrayidx383, align 1
  %conv384 = sext i8 %160 to i32
  %cmp385 = icmp eq i32 %conv384, 80
  br i1 %cmp385, label %land.lhs.true386, label %if.end402

land.lhs.true386:                                 ; preds = %if.end382
  %161 = load ptr, ptr %token, align 8
  %arrayidx387 = getelementptr inbounds i8, ptr %161, i64 1
  %162 = load i8, ptr %arrayidx387, align 1
  %conv388 = sext i8 %162 to i32
  %cmp389 = icmp eq i32 %conv388, 109
  br i1 %cmp389, label %land.lhs.true390, label %if.end402

land.lhs.true390:                                 ; preds = %land.lhs.true386
  %163 = load ptr, ptr %token, align 8
  %arrayidx391 = getelementptr inbounds i8, ptr %163, i64 2
  %164 = load i8, ptr %arrayidx391, align 1
  %conv392 = sext i8 %164 to i32
  %cmp393 = icmp eq i32 %conv392, 32
  br i1 %cmp393, label %if.then398, label %lor.lhs.false394

lor.lhs.false394:                                 ; preds = %land.lhs.true390
  %165 = load ptr, ptr %token, align 8
  %arrayidx395 = getelementptr inbounds i8, ptr %165, i64 2
  %166 = load i8, ptr %arrayidx395, align 1
  %conv396 = sext i8 %166 to i32
  %cmp397 = icmp eq i32 %conv396, 9
  br i1 %cmp397, label %if.then398, label %if.end402

if.then398:                                       ; preds = %lor.lhs.false394, %land.lhs.true390
  %167 = load ptr, ptr %token, align 8
  %add.ptr399 = getelementptr inbounds i8, ptr %167, i64 2
  store ptr %add.ptr399, ptr %token, align 8
  %call401 = invoke noundef float @_ZN7tinyobjL9parseRealEPPKcd(ptr noundef %token, double noundef 0.000000e+00)
          to label %invoke.cont400 unwind label %lpad2

invoke.cont400:                                   ; preds = %if.then398
  %metallic = getelementptr inbounds %"struct.tinyobj::material_t", ptr %material, i32 0, i32 28
  store float %call401, ptr %metallic, align 4
  br label %while.cond, !llvm.loop !6

if.end402:                                        ; preds = %lor.lhs.false394, %land.lhs.true386, %if.end382
  %168 = load ptr, ptr %token, align 8
  %arrayidx403 = getelementptr inbounds i8, ptr %168, i64 0
  %169 = load i8, ptr %arrayidx403, align 1
  %conv404 = sext i8 %169 to i32
  %cmp405 = icmp eq i32 %conv404, 80
  br i1 %cmp405, label %land.lhs.true406, label %if.end422

land.lhs.true406:                                 ; preds = %if.end402
  %170 = load ptr, ptr %token, align 8
  %arrayidx407 = getelementptr inbounds i8, ptr %170, i64 1
  %171 = load i8, ptr %arrayidx407, align 1
  %conv408 = sext i8 %171 to i32
  %cmp409 = icmp eq i32 %conv408, 115
  br i1 %cmp409, label %land.lhs.true410, label %if.end422

land.lhs.true410:                                 ; preds = %land.lhs.true406
  %172 = load ptr, ptr %token, align 8
  %arrayidx411 = getelementptr inbounds i8, ptr %172, i64 2
  %173 = load i8, ptr %arrayidx411, align 1
  %conv412 = sext i8 %173 to i32
  %cmp413 = icmp eq i32 %conv412, 32
  br i1 %cmp413, label %if.then418, label %lor.lhs.false414

lor.lhs.false414:                                 ; preds = %land.lhs.true410
  %174 = load ptr, ptr %token, align 8
  %arrayidx415 = getelementptr inbounds i8, ptr %174, i64 2
  %175 = load i8, ptr %arrayidx415, align 1
  %conv416 = sext i8 %175 to i32
  %cmp417 = icmp eq i32 %conv416, 9
  br i1 %cmp417, label %if.then418, label %if.end422

if.then418:                                       ; preds = %lor.lhs.false414, %land.lhs.true410
  %176 = load ptr, ptr %token, align 8
  %add.ptr419 = getelementptr inbounds i8, ptr %176, i64 2
  store ptr %add.ptr419, ptr %token, align 8
  %call421 = invoke noundef float @_ZN7tinyobjL9parseRealEPPKcd(ptr noundef %token, double noundef 0.000000e+00)
          to label %invoke.cont420 unwind label %lpad2

invoke.cont420:                                   ; preds = %if.then418
  %sheen = getelementptr inbounds %"struct.tinyobj::material_t", ptr %material, i32 0, i32 29
  store float %call421, ptr %sheen, align 8
  br label %while.cond, !llvm.loop !6

if.end422:                                        ; preds = %lor.lhs.false414, %land.lhs.true406, %if.end402
  %177 = load ptr, ptr %token, align 8
  %arrayidx423 = getelementptr inbounds i8, ptr %177, i64 0
  %178 = load i8, ptr %arrayidx423, align 1
  %conv424 = sext i8 %178 to i32
  %cmp425 = icmp eq i32 %conv424, 80
  br i1 %cmp425, label %land.lhs.true426, label %if.end442

land.lhs.true426:                                 ; preds = %if.end422
  %179 = load ptr, ptr %token, align 8
  %arrayidx427 = getelementptr inbounds i8, ptr %179, i64 1
  %180 = load i8, ptr %arrayidx427, align 1
  %conv428 = sext i8 %180 to i32
  %cmp429 = icmp eq i32 %conv428, 99
  br i1 %cmp429, label %land.lhs.true430, label %if.end442

land.lhs.true430:                                 ; preds = %land.lhs.true426
  %181 = load ptr, ptr %token, align 8
  %arrayidx431 = getelementptr inbounds i8, ptr %181, i64 2
  %182 = load i8, ptr %arrayidx431, align 1
  %conv432 = sext i8 %182 to i32
  %cmp433 = icmp eq i32 %conv432, 32
  br i1 %cmp433, label %if.then438, label %lor.lhs.false434

lor.lhs.false434:                                 ; preds = %land.lhs.true430
  %183 = load ptr, ptr %token, align 8
  %arrayidx435 = getelementptr inbounds i8, ptr %183, i64 2
  %184 = load i8, ptr %arrayidx435, align 1
  %conv436 = sext i8 %184 to i32
  %cmp437 = icmp eq i32 %conv436, 9
  br i1 %cmp437, label %if.then438, label %if.end442

if.then438:                                       ; preds = %lor.lhs.false434, %land.lhs.true430
  %185 = load ptr, ptr %token, align 8
  %add.ptr439 = getelementptr inbounds i8, ptr %185, i64 2
  store ptr %add.ptr439, ptr %token, align 8
  %call441 = invoke noundef float @_ZN7tinyobjL9parseRealEPPKcd(ptr noundef %token, double noundef 0.000000e+00)
          to label %invoke.cont440 unwind label %lpad2

invoke.cont440:                                   ; preds = %if.then438
  %clearcoat_thickness = getelementptr inbounds %"struct.tinyobj::material_t", ptr %material, i32 0, i32 30
  store float %call441, ptr %clearcoat_thickness, align 4
  br label %while.cond, !llvm.loop !6

if.end442:                                        ; preds = %lor.lhs.false434, %land.lhs.true426, %if.end422
  %186 = load ptr, ptr %token, align 8
  %call443 = call i32 @strncmp(ptr noundef %186, ptr noundef @.str.21, i64 noundef 3) #15
  %cmp444 = icmp eq i32 0, %call443
  br i1 %cmp444, label %land.lhs.true445, label %if.end457

land.lhs.true445:                                 ; preds = %if.end442
  %187 = load ptr, ptr %token, align 8
  %arrayidx446 = getelementptr inbounds i8, ptr %187, i64 3
  %188 = load i8, ptr %arrayidx446, align 1
  %conv447 = sext i8 %188 to i32
  %cmp448 = icmp eq i32 %conv447, 32
  br i1 %cmp448, label %if.then453, label %lor.lhs.false449

lor.lhs.false449:                                 ; preds = %land.lhs.true445
  %189 = load ptr, ptr %token, align 8
  %arrayidx450 = getelementptr inbounds i8, ptr %189, i64 3
  %190 = load i8, ptr %arrayidx450, align 1
  %conv451 = sext i8 %190 to i32
  %cmp452 = icmp eq i32 %conv451, 9
  br i1 %cmp452, label %if.then453, label %if.end457

if.then453:                                       ; preds = %lor.lhs.false449, %land.lhs.true445
  %191 = load ptr, ptr %token, align 8
  %add.ptr454 = getelementptr inbounds i8, ptr %191, i64 4
  store ptr %add.ptr454, ptr %token, align 8
  %call456 = invoke noundef float @_ZN7tinyobjL9parseRealEPPKcd(ptr noundef %token, double noundef 0.000000e+00)
          to label %invoke.cont455 unwind label %lpad2

invoke.cont455:                                   ; preds = %if.then453
  %clearcoat_roughness = getelementptr inbounds %"struct.tinyobj::material_t", ptr %material, i32 0, i32 31
  store float %call456, ptr %clearcoat_roughness, align 8
  br label %while.cond, !llvm.loop !6

if.end457:                                        ; preds = %lor.lhs.false449, %if.end442
  %192 = load ptr, ptr %token, align 8
  %call458 = call i32 @strncmp(ptr noundef %192, ptr noundef @.str.22, i64 noundef 5) #15
  %cmp459 = icmp eq i32 0, %call458
  br i1 %cmp459, label %land.lhs.true460, label %if.end472

land.lhs.true460:                                 ; preds = %if.end457
  %193 = load ptr, ptr %token, align 8
  %arrayidx461 = getelementptr inbounds i8, ptr %193, i64 5
  %194 = load i8, ptr %arrayidx461, align 1
  %conv462 = sext i8 %194 to i32
  %cmp463 = icmp eq i32 %conv462, 32
  br i1 %cmp463, label %if.then468, label %lor.lhs.false464

lor.lhs.false464:                                 ; preds = %land.lhs.true460
  %195 = load ptr, ptr %token, align 8
  %arrayidx465 = getelementptr inbounds i8, ptr %195, i64 5
  %196 = load i8, ptr %arrayidx465, align 1
  %conv466 = sext i8 %196 to i32
  %cmp467 = icmp eq i32 %conv466, 9
  br i1 %cmp467, label %if.then468, label %if.end472

if.then468:                                       ; preds = %lor.lhs.false464, %land.lhs.true460
  %197 = load ptr, ptr %token, align 8
  %add.ptr469 = getelementptr inbounds i8, ptr %197, i64 6
  store ptr %add.ptr469, ptr %token, align 8
  %call471 = invoke noundef float @_ZN7tinyobjL9parseRealEPPKcd(ptr noundef %token, double noundef 0.000000e+00)
          to label %invoke.cont470 unwind label %lpad2

invoke.cont470:                                   ; preds = %if.then468
  %anisotropy = getelementptr inbounds %"struct.tinyobj::material_t", ptr %material, i32 0, i32 32
  store float %call471, ptr %anisotropy, align 4
  br label %while.cond, !llvm.loop !6

if.end472:                                        ; preds = %lor.lhs.false464, %if.end457
  %198 = load ptr, ptr %token, align 8
  %call473 = call i32 @strncmp(ptr noundef %198, ptr noundef @.str.23, i64 noundef 6) #15
  %cmp474 = icmp eq i32 0, %call473
  br i1 %cmp474, label %land.lhs.true475, label %if.end487

land.lhs.true475:                                 ; preds = %if.end472
  %199 = load ptr, ptr %token, align 8
  %arrayidx476 = getelementptr inbounds i8, ptr %199, i64 6
  %200 = load i8, ptr %arrayidx476, align 1
  %conv477 = sext i8 %200 to i32
  %cmp478 = icmp eq i32 %conv477, 32
  br i1 %cmp478, label %if.then483, label %lor.lhs.false479

lor.lhs.false479:                                 ; preds = %land.lhs.true475
  %201 = load ptr, ptr %token, align 8
  %arrayidx480 = getelementptr inbounds i8, ptr %201, i64 6
  %202 = load i8, ptr %arrayidx480, align 1
  %conv481 = sext i8 %202 to i32
  %cmp482 = icmp eq i32 %conv481, 9
  br i1 %cmp482, label %if.then483, label %if.end487

if.then483:                                       ; preds = %lor.lhs.false479, %land.lhs.true475
  %203 = load ptr, ptr %token, align 8
  %add.ptr484 = getelementptr inbounds i8, ptr %203, i64 7
  store ptr %add.ptr484, ptr %token, align 8
  %call486 = invoke noundef float @_ZN7tinyobjL9parseRealEPPKcd(ptr noundef %token, double noundef 0.000000e+00)
          to label %invoke.cont485 unwind label %lpad2

invoke.cont485:                                   ; preds = %if.then483
  %anisotropy_rotation = getelementptr inbounds %"struct.tinyobj::material_t", ptr %material, i32 0, i32 33
  store float %call486, ptr %anisotropy_rotation, align 8
  br label %while.cond, !llvm.loop !6

if.end487:                                        ; preds = %lor.lhs.false479, %if.end472
  %204 = load ptr, ptr %token, align 8
  %call488 = call i32 @strncmp(ptr noundef %204, ptr noundef @.str.24, i64 noundef 6) #15
  %cmp489 = icmp eq i32 0, %call488
  br i1 %cmp489, label %land.lhs.true490, label %if.end502

land.lhs.true490:                                 ; preds = %if.end487
  %205 = load ptr, ptr %token, align 8
  %arrayidx491 = getelementptr inbounds i8, ptr %205, i64 6
  %206 = load i8, ptr %arrayidx491, align 1
  %conv492 = sext i8 %206 to i32
  %cmp493 = icmp eq i32 %conv492, 32
  br i1 %cmp493, label %if.then498, label %lor.lhs.false494

lor.lhs.false494:                                 ; preds = %land.lhs.true490
  %207 = load ptr, ptr %token, align 8
  %arrayidx495 = getelementptr inbounds i8, ptr %207, i64 6
  %208 = load i8, ptr %arrayidx495, align 1
  %conv496 = sext i8 %208 to i32
  %cmp497 = icmp eq i32 %conv496, 9
  br i1 %cmp497, label %if.then498, label %if.end502

if.then498:                                       ; preds = %lor.lhs.false494, %land.lhs.true490
  %209 = load ptr, ptr %token, align 8
  %add.ptr499 = getelementptr inbounds i8, ptr %209, i64 7
  store ptr %add.ptr499, ptr %token, align 8
  %ambient_texname = getelementptr inbounds %"struct.tinyobj::material_t", ptr %material, i32 0, i32 11
  %ambient_texopt = getelementptr inbounds %"struct.tinyobj::material_t", ptr %material, i32 0, i32 19
  %210 = load ptr, ptr %token, align 8
  %call501 = invoke noundef zeroext i1 @_ZN7tinyobj25ParseTextureNameAndOptionEPNSt7__cxx1112basic_stringIcSt11char_traitsIcESaIcEEEPNS_16texture_option_tEPKc(ptr noundef %ambient_texname, ptr noundef %ambient_texopt, ptr noundef %210)
          to label %invoke.cont500 unwind label %lpad2

invoke.cont500:                                   ; preds = %if.then498
  br label %while.cond, !llvm.loop !6

if.end502:                                        ; preds = %lor.lhs.false494, %if.end487
  %211 = load ptr, ptr %token, align 8
  %call503 = call i32 @strncmp(ptr noundef %211, ptr noundef @.str.25, i64 noundef 6) #15
  %cmp504 = icmp eq i32 0, %call503
  br i1 %cmp504, label %land.lhs.true505, label %if.end526

land.lhs.true505:                                 ; preds = %if.end502
  %212 = load ptr, ptr %token, align 8
  %arrayidx506 = getelementptr inbounds i8, ptr %212, i64 6
  %213 = load i8, ptr %arrayidx506, align 1
  %conv507 = sext i8 %213 to i32
  %cmp508 = icmp eq i32 %conv507, 32
  br i1 %cmp508, label %if.then513, label %lor.lhs.false509

lor.lhs.false509:                                 ; preds = %land.lhs.true505
  %214 = load ptr, ptr %token, align 8
  %arrayidx510 = getelementptr inbounds i8, ptr %214, i64 6
  %215 = load i8, ptr %arrayidx510, align 1
  %conv511 = sext i8 %215 to i32
  %cmp512 = icmp eq i32 %conv511, 9
  br i1 %cmp512, label %if.then513, label %if.end526

if.then513:                                       ; preds = %lor.lhs.false509, %land.lhs.true505
  %216 = load ptr, ptr %token, align 8
  %add.ptr514 = getelementptr inbounds i8, ptr %216, i64 7
  store ptr %add.ptr514, ptr %token, align 8
  %diffuse_texname = getelementptr inbounds %"struct.tinyobj::material_t", ptr %material, i32 0, i32 12
  %diffuse_texopt = getelementptr inbounds %"struct.tinyobj::material_t", ptr %material, i32 0, i32 20
  %217 = load ptr, ptr %token, align 8
  %call516 = invoke noundef zeroext i1 @_ZN7tinyobj25ParseTextureNameAndOptionEPNSt7__cxx1112basic_stringIcSt11char_traitsIcESaIcEEEPNS_16texture_option_tEPKc(ptr noundef %diffuse_texname, ptr noundef %diffuse_texopt, ptr noundef %217)
          to label %invoke.cont515 unwind label %lpad2

invoke.cont515:                                   ; preds = %if.then513
  %218 = load i8, ptr %has_kd, align 1
  %tobool517 = trunc i8 %218 to i1
  br i1 %tobool517, label %if.end525, label %if.then518

if.then518:                                       ; preds = %invoke.cont515
  %diffuse519 = getelementptr inbounds %"struct.tinyobj::material_t", ptr %material, i32 0, i32 2
  %arrayidx520 = getelementptr inbounds [3 x float], ptr %diffuse519, i64 0, i64 0
  store float 0x3FE3333340000000, ptr %arrayidx520, align 4
  %diffuse521 = getelementptr inbounds %"struct.tinyobj::material_t", ptr %material, i32 0, i32 2
  %arrayidx522 = getelementptr inbounds [3 x float], ptr %diffuse521, i64 0, i64 1
  store float 0x3FE3333340000000, ptr %arrayidx522, align 4
  %diffuse523 = getelementptr inbounds %"struct.tinyobj::material_t", ptr %material, i32 0, i32 2
  %arrayidx524 = getelementptr inbounds [3 x float], ptr %diffuse523, i64 0, i64 2
  store float 0x3FE3333340000000, ptr %arrayidx524, align 4
  br label %if.end525

if.end525:                                        ; preds = %if.then518, %invoke.cont515
  br label %while.cond, !llvm.loop !6

if.end526:                                        ; preds = %lor.lhs.false509, %if.end502
  %219 = load ptr, ptr %token, align 8
  %call527 = call i32 @strncmp(ptr noundef %219, ptr noundef @.str.26, i64 noundef 6) #15
  %cmp528 = icmp eq i32 0, %call527
  br i1 %cmp528, label %land.lhs.true529, label %if.end541

land.lhs.true529:                                 ; preds = %if.end526
  %220 = load ptr, ptr %token, align 8
  %arrayidx530 = getelementptr inbounds i8, ptr %220, i64 6
  %221 = load i8, ptr %arrayidx530, align 1
  %conv531 = sext i8 %221 to i32
  %cmp532 = icmp eq i32 %conv531, 32
  br i1 %cmp532, label %if.then537, label %lor.lhs.false533

lor.lhs.false533:                                 ; preds = %land.lhs.true529
  %222 = load ptr, ptr %token, align 8
  %arrayidx534 = getelementptr inbounds i8, ptr %222, i64 6
  %223 = load i8, ptr %arrayidx534, align 1
  %conv535 = sext i8 %223 to i32
  %cmp536 = icmp eq i32 %conv535, 9
  br i1 %cmp536, label %if.then537, label %if.end541

if.then537:                                       ; preds = %lor.lhs.false533, %land.lhs.true529
  %224 = load ptr, ptr %token, align 8
  %add.ptr538 = getelementptr inbounds i8, ptr %224, i64 7
  store ptr %add.ptr538, ptr %token, align 8
  %specular_texname = getelementptr inbounds %"struct.tinyobj::material_t", ptr %material, i32 0, i32 13
  %specular_texopt = getelementptr inbounds %"struct.tinyobj::material_t", ptr %material, i32 0, i32 21
  %225 = load ptr, ptr %token, align 8
  %call540 = invoke noundef zeroext i1 @_ZN7tinyobj25ParseTextureNameAndOptionEPNSt7__cxx1112basic_stringIcSt11char_traitsIcESaIcEEEPNS_16texture_option_tEPKc(ptr noundef %specular_texname, ptr noundef %specular_texopt, ptr noundef %225)
          to label %invoke.cont539 unwind label %lpad2

invoke.cont539:                                   ; preds = %if.then537
  br label %while.cond, !llvm.loop !6

if.end541:                                        ; preds = %lor.lhs.false533, %if.end526
  %226 = load ptr, ptr %token, align 8
  %call542 = call i32 @strncmp(ptr noundef %226, ptr noundef @.str.27, i64 noundef 6) #15
  %cmp543 = icmp eq i32 0, %call542
  br i1 %cmp543, label %land.lhs.true544, label %if.end556

land.lhs.true544:                                 ; preds = %if.end541
  %227 = load ptr, ptr %token, align 8
  %arrayidx545 = getelementptr inbounds i8, ptr %227, i64 6
  %228 = load i8, ptr %arrayidx545, align 1
  %conv546 = sext i8 %228 to i32
  %cmp547 = icmp eq i32 %conv546, 32
  br i1 %cmp547, label %if.then552, label %lor.lhs.false548

lor.lhs.false548:                                 ; preds = %land.lhs.true544
  %229 = load ptr, ptr %token, align 8
  %arrayidx549 = getelementptr inbounds i8, ptr %229, i64 6
  %230 = load i8, ptr %arrayidx549, align 1
  %conv550 = sext i8 %230 to i32
  %cmp551 = icmp eq i32 %conv550, 9
  br i1 %cmp551, label %if.then552, label %if.end556

if.then552:                                       ; preds = %lor.lhs.false548, %land.lhs.true544
  %231 = load ptr, ptr %token, align 8
  %add.ptr553 = getelementptr inbounds i8, ptr %231, i64 7
  store ptr %add.ptr553, ptr %token, align 8
  %specular_highlight_texname = getelementptr inbounds %"struct.tinyobj::material_t", ptr %material, i32 0, i32 14
  %specular_highlight_texopt = getelementptr inbounds %"struct.tinyobj::material_t", ptr %material, i32 0, i32 22
  %232 = load ptr, ptr %token, align 8
  %call555 = invoke noundef zeroext i1 @_ZN7tinyobj25ParseTextureNameAndOptionEPNSt7__cxx1112basic_stringIcSt11char_traitsIcESaIcEEEPNS_16texture_option_tEPKc(ptr noundef %specular_highlight_texname, ptr noundef %specular_highlight_texopt, ptr noundef %232)
          to label %invoke.cont554 unwind label %lpad2

invoke.cont554:                                   ; preds = %if.then552
  br label %while.cond, !llvm.loop !6

if.end556:                                        ; preds = %lor.lhs.false548, %if.end541
  %233 = load ptr, ptr %token, align 8
  %call557 = call i32 @strncmp(ptr noundef %233, ptr noundef @.str.28, i64 noundef 8) #15
  %cmp558 = icmp eq i32 0, %call557
  br i1 %cmp558, label %land.lhs.true562, label %lor.lhs.false559

lor.lhs.false559:                                 ; preds = %if.end556
  %234 = load ptr, ptr %token, align 8
  %call560 = call i32 @strncmp(ptr noundef %234, ptr noundef @.str.29, i64 noundef 8) #15
  %cmp561 = icmp eq i32 0, %call560
  br i1 %cmp561, label %land.lhs.true562, label %if.end574

land.lhs.true562:                                 ; preds = %lor.lhs.false559, %if.end556
  %235 = load ptr, ptr %token, align 8
  %arrayidx563 = getelementptr inbounds i8, ptr %235, i64 8
  %236 = load i8, ptr %arrayidx563, align 1
  %conv564 = sext i8 %236 to i32
  %cmp565 = icmp eq i32 %conv564, 32
  br i1 %cmp565, label %if.then570, label %lor.lhs.false566

lor.lhs.false566:                                 ; preds = %land.lhs.true562
  %237 = load ptr, ptr %token, align 8
  %arrayidx567 = getelementptr inbounds i8, ptr %237, i64 8
  %238 = load i8, ptr %arrayidx567, align 1
  %conv568 = sext i8 %238 to i32
  %cmp569 = icmp eq i32 %conv568, 9
  br i1 %cmp569, label %if.then570, label %if.end574

if.then570:                                       ; preds = %lor.lhs.false566, %land.lhs.true562
  %239 = load ptr, ptr %token, align 8
  %add.ptr571 = getelementptr inbounds i8, ptr %239, i64 9
  store ptr %add.ptr571, ptr %token, align 8
  %bump_texname = getelementptr inbounds %"struct.tinyobj::material_t", ptr %material, i32 0, i32 15
  %bump_texopt = getelementptr inbounds %"struct.tinyobj::material_t", ptr %material, i32 0, i32 23
  %240 = load ptr, ptr %token, align 8
  %call573 = invoke noundef zeroext i1 @_ZN7tinyobj25ParseTextureNameAndOptionEPNSt7__cxx1112basic_stringIcSt11char_traitsIcESaIcEEEPNS_16texture_option_tEPKc(ptr noundef %bump_texname, ptr noundef %bump_texopt, ptr noundef %240)
          to label %invoke.cont572 unwind label %lpad2

invoke.cont572:                                   ; preds = %if.then570
  br label %while.cond, !llvm.loop !6

if.end574:                                        ; preds = %lor.lhs.false566, %lor.lhs.false559
  %241 = load ptr, ptr %token, align 8
  %call575 = call i32 @strncmp(ptr noundef %241, ptr noundef @.str.30, i64 noundef 4) #15
  %cmp576 = icmp eq i32 0, %call575
  br i1 %cmp576, label %land.lhs.true577, label %if.end591

land.lhs.true577:                                 ; preds = %if.end574
  %242 = load ptr, ptr %token, align 8
  %arrayidx578 = getelementptr inbounds i8, ptr %242, i64 4
  %243 = load i8, ptr %arrayidx578, align 1
  %conv579 = sext i8 %243 to i32
  %cmp580 = icmp eq i32 %conv579, 32
  br i1 %cmp580, label %if.then585, label %lor.lhs.false581

lor.lhs.false581:                                 ; preds = %land.lhs.true577
  %244 = load ptr, ptr %token, align 8
  %arrayidx582 = getelementptr inbounds i8, ptr %244, i64 4
  %245 = load i8, ptr %arrayidx582, align 1
  %conv583 = sext i8 %245 to i32
  %cmp584 = icmp eq i32 %conv583, 9
  br i1 %cmp584, label %if.then585, label %if.end591

if.then585:                                       ; preds = %lor.lhs.false581, %land.lhs.true577
  %246 = load ptr, ptr %token, align 8
  %add.ptr586 = getelementptr inbounds i8, ptr %246, i64 5
  store ptr %add.ptr586, ptr %token, align 8
  %bump_texname587 = getelementptr inbounds %"struct.tinyobj::material_t", ptr %material, i32 0, i32 15
  %bump_texopt588 = getelementptr inbounds %"struct.tinyobj::material_t", ptr %material, i32 0, i32 23
  %247 = load ptr, ptr %token, align 8
  %call590 = invoke noundef zeroext i1 @_ZN7tinyobj25ParseTextureNameAndOptionEPNSt7__cxx1112basic_stringIcSt11char_traitsIcESaIcEEEPNS_16texture_option_tEPKc(ptr noundef %bump_texname587, ptr noundef %bump_texopt588, ptr noundef %247)
          to label %invoke.cont589 unwind label %lpad2

invoke.cont589:                                   ; preds = %if.then585
  br label %while.cond, !llvm.loop !6

if.end591:                                        ; preds = %lor.lhs.false581, %if.end574
  %248 = load ptr, ptr %token, align 8
  %call592 = call i32 @strncmp(ptr noundef %248, ptr noundef @.str.31, i64 noundef 5) #15
  %cmp593 = icmp eq i32 0, %call592
  br i1 %cmp593, label %land.lhs.true594, label %if.end609

land.lhs.true594:                                 ; preds = %if.end591
  %249 = load ptr, ptr %token, align 8
  %arrayidx595 = getelementptr inbounds i8, ptr %249, i64 5
  %250 = load i8, ptr %arrayidx595, align 1
  %conv596 = sext i8 %250 to i32
  %cmp597 = icmp eq i32 %conv596, 32
  br i1 %cmp597, label %if.then602, label %lor.lhs.false598

lor.lhs.false598:                                 ; preds = %land.lhs.true594
  %251 = load ptr, ptr %token, align 8
  %arrayidx599 = getelementptr inbounds i8, ptr %251, i64 5
  %252 = load i8, ptr %arrayidx599, align 1
  %conv600 = sext i8 %252 to i32
  %cmp601 = icmp eq i32 %conv600, 9
  br i1 %cmp601, label %if.then602, label %if.end609

if.then602:                                       ; preds = %lor.lhs.false598, %land.lhs.true594
  %253 = load ptr, ptr %token, align 8
  %add.ptr603 = getelementptr inbounds i8, ptr %253, i64 6
  store ptr %add.ptr603, ptr %token, align 8
  %254 = load ptr, ptr %token, align 8
  %alpha_texname = getelementptr inbounds %"struct.tinyobj::material_t", ptr %material, i32 0, i32 17
  %call605 = invoke noundef nonnull align 8 dereferenceable(32) ptr @_ZNSt7__cxx1112basic_stringIcSt11char_traitsIcESaIcEEaSEPKc(ptr noundef nonnull align 8 dereferenceable(32) %alpha_texname, ptr noundef %254)
          to label %invoke.cont604 unwind label %lpad2

invoke.cont604:                                   ; preds = %if.then602
  %alpha_texname606 = getelementptr inbounds %"struct.tinyobj::material_t", ptr %material, i32 0, i32 17
  %alpha_texopt = getelementptr inbounds %"struct.tinyobj::material_t", ptr %material, i32 0, i32 25
  %255 = load ptr, ptr %token, align 8
  %call608 = invoke noundef zeroext i1 @_ZN7tinyobj25ParseTextureNameAndOptionEPNSt7__cxx1112basic_stringIcSt11char_traitsIcESaIcEEEPNS_16texture_option_tEPKc(ptr noundef %alpha_texname606, ptr noundef %alpha_texopt, ptr noundef %255)
          to label %invoke.cont607 unwind label %lpad2

invoke.cont607:                                   ; preds = %invoke.cont604
  br label %while.cond, !llvm.loop !6

if.end609:                                        ; preds = %lor.lhs.false598, %if.end591
  %256 = load ptr, ptr %token, align 8
  %call610 = call i32 @strncmp(ptr noundef %256, ptr noundef @.str.32, i64 noundef 8) #15
  %cmp611 = icmp eq i32 0, %call610
  br i1 %cmp611, label %land.lhs.true615, label %lor.lhs.false612

lor.lhs.false612:                                 ; preds = %if.end609
  %257 = load ptr, ptr %token, align 8
  %call613 = call i32 @strncmp(ptr noundef %257, ptr noundef @.str.33, i64 noundef 8) #15
  %cmp614 = icmp eq i32 0, %call613
  br i1 %cmp614, label %land.lhs.true615, label %if.end627

land.lhs.true615:                                 ; preds = %lor.lhs.false612, %if.end609
  %258 = load ptr, ptr %token, align 8
  %arrayidx616 = getelementptr inbounds i8, ptr %258, i64 8
  %259 = load i8, ptr %arrayidx616, align 1
  %conv617 = sext i8 %259 to i32
  %cmp618 = icmp eq i32 %conv617, 32
  br i1 %cmp618, label %if.then623, label %lor.lhs.false619

lor.lhs.false619:                                 ; preds = %land.lhs.true615
  %260 = load ptr, ptr %token, align 8
  %arrayidx620 = getelementptr inbounds i8, ptr %260, i64 8
  %261 = load i8, ptr %arrayidx620, align 1
  %conv621 = sext i8 %261 to i32
  %cmp622 = icmp eq i32 %conv621, 9
  br i1 %cmp622, label %if.then623, label %if.end627

if.then623:                                       ; preds = %lor.lhs.false619, %land.lhs.true615
  %262 = load ptr, ptr %token, align 8
  %add.ptr624 = getelementptr inbounds i8, ptr %262, i64 9
  store ptr %add.ptr624, ptr %token, align 8
  %displacement_texname = getelementptr inbounds %"struct.tinyobj::material_t", ptr %material, i32 0, i32 16
  %displacement_texopt = getelementptr inbounds %"struct.tinyobj::material_t", ptr %material, i32 0, i32 24
  %263 = load ptr, ptr %token, align 8
  %call626 = invoke noundef zeroext i1 @_ZN7tinyobj25ParseTextureNameAndOptionEPNSt7__cxx1112basic_stringIcSt11char_traitsIcESaIcEEEPNS_16texture_option_tEPKc(ptr noundef %displacement_texname, ptr noundef %displacement_texopt, ptr noundef %263)
          to label %invoke.cont625 unwind label %lpad2

invoke.cont625:                                   ; preds = %if.then623
  br label %while.cond, !llvm.loop !6

if.end627:                                        ; preds = %lor.lhs.false619, %lor.lhs.false612
  %264 = load ptr, ptr %token, align 8
  %call628 = call i32 @strncmp(ptr noundef %264, ptr noundef @.str.34, i64 noundef 4) #15
  %cmp629 = icmp eq i32 0, %call628
  br i1 %cmp629, label %land.lhs.true630, label %if.end644

land.lhs.true630:                                 ; preds = %if.end627
  %265 = load ptr, ptr %token, align 8
  %arrayidx631 = getelementptr inbounds i8, ptr %265, i64 4
  %266 = load i8, ptr %arrayidx631, align 1
  %conv632 = sext i8 %266 to i32
  %cmp633 = icmp eq i32 %conv632, 32
  br i1 %cmp633, label %if.then638, label %lor.lhs.false634

lor.lhs.false634:                                 ; preds = %land.lhs.true630
  %267 = load ptr, ptr %token, align 8
  %arrayidx635 = getelementptr inbounds i8, ptr %267, i64 4
  %268 = load i8, ptr %arrayidx635, align 1
  %conv636 = sext i8 %268 to i32
  %cmp637 = icmp eq i32 %conv636, 9
  br i1 %cmp637, label %if.then638, label %if.end644

if.then638:                                       ; preds = %lor.lhs.false634, %land.lhs.true630
  %269 = load ptr, ptr %token, align 8
  %add.ptr639 = getelementptr inbounds i8, ptr %269, i64 5
  store ptr %add.ptr639, ptr %token, align 8
  %displacement_texname640 = getelementptr inbounds %"struct.tinyobj::material_t", ptr %material, i32 0, i32 16
  %displacement_texopt641 = getelementptr inbounds %"struct.tinyobj::material_t", ptr %material, i32 0, i32 24
  %270 = load ptr, ptr %token, align 8
  %call643 = invoke noundef zeroext i1 @_ZN7tinyobj25ParseTextureNameAndOptionEPNSt7__cxx1112basic_stringIcSt11char_traitsIcESaIcEEEPNS_16texture_option_tEPKc(ptr noundef %displacement_texname640, ptr noundef %displacement_texopt641, ptr noundef %270)
          to label %invoke.cont642 unwind label %lpad2

invoke.cont642:                                   ; preds = %if.then638
  br label %while.cond, !llvm.loop !6

if.end644:                                        ; preds = %lor.lhs.false634, %if.end627
  %271 = load ptr, ptr %token, align 8
  %call645 = call i32 @strncmp(ptr noundef %271, ptr noundef @.str.35, i64 noundef 4) #15
  %cmp646 = icmp eq i32 0, %call645
  br i1 %cmp646, label %land.lhs.true647, label %if.end659

land.lhs.true647:                                 ; preds = %if.end644
  %272 = load ptr, ptr %token, align 8
  %arrayidx648 = getelementptr inbounds i8, ptr %272, i64 4
  %273 = load i8, ptr %arrayidx648, align 1
  %conv649 = sext i8 %273 to i32
  %cmp650 = icmp eq i32 %conv649, 32
  br i1 %cmp650, label %if.then655, label %lor.lhs.false651

lor.lhs.false651:                                 ; preds = %land.lhs.true647
  %274 = load ptr, ptr %token, align 8
  %arrayidx652 = getelementptr inbounds i8, ptr %274, i64 4
  %275 = load i8, ptr %arrayidx652, align 1
  %conv653 = sext i8 %275 to i32
  %cmp654 = icmp eq i32 %conv653, 9
  br i1 %cmp654, label %if.then655, label %if.end659

if.then655:                                       ; preds = %lor.lhs.false651, %land.lhs.true647
  %276 = load ptr, ptr %token, align 8
  %add.ptr656 = getelementptr inbounds i8, ptr %276, i64 5
  store ptr %add.ptr656, ptr %token, align 8
  %reflection_texname = getelementptr inbounds %"struct.tinyobj::material_t", ptr %material, i32 0, i32 18
  %reflection_texopt = getelementptr inbounds %"struct.tinyobj::material_t", ptr %material, i32 0, i32 26
  %277 = load ptr, ptr %token, align 8
  %call658 = invoke noundef zeroext i1 @_ZN7tinyobj25ParseTextureNameAndOptionEPNSt7__cxx1112basic_stringIcSt11char_traitsIcESaIcEEEPNS_16texture_option_tEPKc(ptr noundef %reflection_texname, ptr noundef %reflection_texopt, ptr noundef %277)
          to label %invoke.cont657 unwind label %lpad2

invoke.cont657:                                   ; preds = %if.then655
  br label %while.cond, !llvm.loop !6

if.end659:                                        ; preds = %lor.lhs.false651, %if.end644
  %278 = load ptr, ptr %token, align 8
  %call660 = call i32 @strncmp(ptr noundef %278, ptr noundef @.str.36, i64 noundef 6) #15
  %cmp661 = icmp eq i32 0, %call660
  br i1 %cmp661, label %land.lhs.true662, label %if.end674

land.lhs.true662:                                 ; preds = %if.end659
  %279 = load ptr, ptr %token, align 8
  %arrayidx663 = getelementptr inbounds i8, ptr %279, i64 6
  %280 = load i8, ptr %arrayidx663, align 1
  %conv664 = sext i8 %280 to i32
  %cmp665 = icmp eq i32 %conv664, 32
  br i1 %cmp665, label %if.then670, label %lor.lhs.false666

lor.lhs.false666:                                 ; preds = %land.lhs.true662
  %281 = load ptr, ptr %token, align 8
  %arrayidx667 = getelementptr inbounds i8, ptr %281, i64 6
  %282 = load i8, ptr %arrayidx667, align 1
  %conv668 = sext i8 %282 to i32
  %cmp669 = icmp eq i32 %conv668, 9
  br i1 %cmp669, label %if.then670, label %if.end674

if.then670:                                       ; preds = %lor.lhs.false666, %land.lhs.true662
  %283 = load ptr, ptr %token, align 8
  %add.ptr671 = getelementptr inbounds i8, ptr %283, i64 7
  store ptr %add.ptr671, ptr %token, align 8
  %roughness_texname = getelementptr inbounds %"struct.tinyobj::material_t", ptr %material, i32 0, i32 35
  %roughness_texopt = getelementptr inbounds %"struct.tinyobj::material_t", ptr %material, i32 0, i32 40
  %284 = load ptr, ptr %token, align 8
  %call673 = invoke noundef zeroext i1 @_ZN7tinyobj25ParseTextureNameAndOptionEPNSt7__cxx1112basic_stringIcSt11char_traitsIcESaIcEEEPNS_16texture_option_tEPKc(ptr noundef %roughness_texname, ptr noundef %roughness_texopt, ptr noundef %284)
          to label %invoke.cont672 unwind label %lpad2

invoke.cont672:                                   ; preds = %if.then670
  br label %while.cond, !llvm.loop !6

if.end674:                                        ; preds = %lor.lhs.false666, %if.end659
  %285 = load ptr, ptr %token, align 8
  %call675 = call i32 @strncmp(ptr noundef %285, ptr noundef @.str.37, i64 noundef 6) #15
  %cmp676 = icmp eq i32 0, %call675
  br i1 %cmp676, label %land.lhs.true677, label %if.end689

land.lhs.true677:                                 ; preds = %if.end674
  %286 = load ptr, ptr %token, align 8
  %arrayidx678 = getelementptr inbounds i8, ptr %286, i64 6
  %287 = load i8, ptr %arrayidx678, align 1
  %conv679 = sext i8 %287 to i32
  %cmp680 = icmp eq i32 %conv679, 32
  br i1 %cmp680, label %if.then685, label %lor.lhs.false681

lor.lhs.false681:                                 ; preds = %land.lhs.true677
  %288 = load ptr, ptr %token, align 8
  %arrayidx682 = getelementptr inbounds i8, ptr %288, i64 6
  %289 = load i8, ptr %arrayidx682, align 1
  %conv683 = sext i8 %289 to i32
  %cmp684 = icmp eq i32 %conv683, 9
  br i1 %cmp684, label %if.then685, label %if.end689

if.then685:                                       ; preds = %lor.lhs.false681, %land.lhs.true677
  %290 = load ptr, ptr %token, align 8
  %add.ptr686 = getelementptr inbounds i8, ptr %290, i64 7
  store ptr %add.ptr686, ptr %token, align 8
  %metallic_texname = getelementptr inbounds %"struct.tinyobj::material_t", ptr %material, i32 0, i32 36
  %metallic_texopt = getelementptr inbounds %"struct.tinyobj::material_t", ptr %material, i32 0, i32 41
  %291 = load ptr, ptr %token, align 8
  %call688 = invoke noundef zeroext i1 @_ZN7tinyobj25ParseTextureNameAndOptionEPNSt7__cxx1112basic_stringIcSt11char_traitsIcESaIcEEEPNS_16texture_option_tEPKc(ptr noundef %metallic_texname, ptr noundef %metallic_texopt, ptr noundef %291)
          to label %invoke.cont687 unwind label %lpad2

invoke.cont687:                                   ; preds = %if.then685
  br label %while.cond, !llvm.loop !6

if.end689:                                        ; preds = %lor.lhs.false681, %if.end674
  %292 = load ptr, ptr %token, align 8
  %call690 = call i32 @strncmp(ptr noundef %292, ptr noundef @.str.38, i64 noundef 6) #15
  %cmp691 = icmp eq i32 0, %call690
  br i1 %cmp691, label %land.lhs.true692, label %if.end704

land.lhs.true692:                                 ; preds = %if.end689
  %293 = load ptr, ptr %token, align 8
  %arrayidx693 = getelementptr inbounds i8, ptr %293, i64 6
  %294 = load i8, ptr %arrayidx693, align 1
  %conv694 = sext i8 %294 to i32
  %cmp695 = icmp eq i32 %conv694, 32
  br i1 %cmp695, label %if.then700, label %lor.lhs.false696

lor.lhs.false696:                                 ; preds = %land.lhs.true692
  %295 = load ptr, ptr %token, align 8
  %arrayidx697 = getelementptr inbounds i8, ptr %295, i64 6
  %296 = load i8, ptr %arrayidx697, align 1
  %conv698 = sext i8 %296 to i32
  %cmp699 = icmp eq i32 %conv698, 9
  br i1 %cmp699, label %if.then700, label %if.end704

if.then700:                                       ; preds = %lor.lhs.false696, %land.lhs.true692
  %297 = load ptr, ptr %token, align 8
  %add.ptr701 = getelementptr inbounds i8, ptr %297, i64 7
  store ptr %add.ptr701, ptr %token, align 8
  %sheen_texname = getelementptr inbounds %"struct.tinyobj::material_t", ptr %material, i32 0, i32 37
  %sheen_texopt = getelementptr inbounds %"struct.tinyobj::material_t", ptr %material, i32 0, i32 42
  %298 = load ptr, ptr %token, align 8
  %call703 = invoke noundef zeroext i1 @_ZN7tinyobj25ParseTextureNameAndOptionEPNSt7__cxx1112basic_stringIcSt11char_traitsIcESaIcEEEPNS_16texture_option_tEPKc(ptr noundef %sheen_texname, ptr noundef %sheen_texopt, ptr noundef %298)
          to label %invoke.cont702 unwind label %lpad2

invoke.cont702:                                   ; preds = %if.then700
  br label %while.cond, !llvm.loop !6

if.end704:                                        ; preds = %lor.lhs.false696, %if.end689
  %299 = load ptr, ptr %token, align 8
  %call705 = call i32 @strncmp(ptr noundef %299, ptr noundef @.str.39, i64 noundef 6) #15
  %cmp706 = icmp eq i32 0, %call705
  br i1 %cmp706, label %land.lhs.true707, label %if.end719

land.lhs.true707:                                 ; preds = %if.end704
  %300 = load ptr, ptr %token, align 8
  %arrayidx708 = getelementptr inbounds i8, ptr %300, i64 6
  %301 = load i8, ptr %arrayidx708, align 1
  %conv709 = sext i8 %301 to i32
  %cmp710 = icmp eq i32 %conv709, 32
  br i1 %cmp710, label %if.then715, label %lor.lhs.false711

lor.lhs.false711:                                 ; preds = %land.lhs.true707
  %302 = load ptr, ptr %token, align 8
  %arrayidx712 = getelementptr inbounds i8, ptr %302, i64 6
  %303 = load i8, ptr %arrayidx712, align 1
  %conv713 = sext i8 %303 to i32
  %cmp714 = icmp eq i32 %conv713, 9
  br i1 %cmp714, label %if.then715, label %if.end719

if.then715:                                       ; preds = %lor.lhs.false711, %land.lhs.true707
  %304 = load ptr, ptr %token, align 8
  %add.ptr716 = getelementptr inbounds i8, ptr %304, i64 7
  store ptr %add.ptr716, ptr %token, align 8
  %emissive_texname = getelementptr inbounds %"struct.tinyobj::material_t", ptr %material, i32 0, i32 38
  %emissive_texopt = getelementptr inbounds %"struct.tinyobj::material_t", ptr %material, i32 0, i32 43
  %305 = load ptr, ptr %token, align 8
  %call718 = invoke noundef zeroext i1 @_ZN7tinyobj25ParseTextureNameAndOptionEPNSt7__cxx1112basic_stringIcSt11char_traitsIcESaIcEEEPNS_16texture_option_tEPKc(ptr noundef %emissive_texname, ptr noundef %emissive_texopt, ptr noundef %305)
          to label %invoke.cont717 unwind label %lpad2

invoke.cont717:                                   ; preds = %if.then715
  br label %while.cond, !llvm.loop !6

if.end719:                                        ; preds = %lor.lhs.false711, %if.end704
  %306 = load ptr, ptr %token, align 8
  %call720 = call i32 @strncmp(ptr noundef %306, ptr noundef @.str.40, i64 noundef 4) #15
  %cmp721 = icmp eq i32 0, %call720
  br i1 %cmp721, label %land.lhs.true722, label %if.end734

land.lhs.true722:                                 ; preds = %if.end719
  %307 = load ptr, ptr %token, align 8
  %arrayidx723 = getelementptr inbounds i8, ptr %307, i64 4
  %308 = load i8, ptr %arrayidx723, align 1
  %conv724 = sext i8 %308 to i32
  %cmp725 = icmp eq i32 %conv724, 32
  br i1 %cmp725, label %if.then730, label %lor.lhs.false726

lor.lhs.false726:                                 ; preds = %land.lhs.true722
  %309 = load ptr, ptr %token, align 8
  %arrayidx727 = getelementptr inbounds i8, ptr %309, i64 4
  %310 = load i8, ptr %arrayidx727, align 1
  %conv728 = sext i8 %310 to i32
  %cmp729 = icmp eq i32 %conv728, 9
  br i1 %cmp729, label %if.then730, label %if.end734

if.then730:                                       ; preds = %lor.lhs.false726, %land.lhs.true722
  %311 = load ptr, ptr %token, align 8
  %add.ptr731 = getelementptr inbounds i8, ptr %311, i64 5
  store ptr %add.ptr731, ptr %token, align 8
  %normal_texname = getelementptr inbounds %"struct.tinyobj::material_t", ptr %material, i32 0, i32 39
  %normal_texopt = getelementptr inbounds %"struct.tinyobj::material_t", ptr %material, i32 0, i32 44
  %312 = load ptr, ptr %token, align 8
  %call733 = invoke noundef zeroext i1 @_ZN7tinyobj25ParseTextureNameAndOptionEPNSt7__cxx1112basic_stringIcSt11char_traitsIcESaIcEEEPNS_16texture_option_tEPKc(ptr noundef %normal_texname, ptr noundef %normal_texopt, ptr noundef %312)
          to label %invoke.cont732 unwind label %lpad2

invoke.cont732:                                   ; preds = %if.then730
  br label %while.cond, !llvm.loop !6

if.end734:                                        ; preds = %lor.lhs.false726, %if.end719
  %313 = load ptr, ptr %token, align 8
  %call735 = call noundef ptr @strchr(ptr noundef %313, i32 noundef 32) #15
  store ptr %call735, ptr %_space, align 8
  %314 = load ptr, ptr %_space, align 8
  %tobool736 = icmp ne ptr %314, null
  br i1 %tobool736, label %if.end739, label %if.then737

if.then737:                                       ; preds = %if.end734
  %315 = load ptr, ptr %token, align 8
  %call738 = call noundef ptr @strchr(ptr noundef %315, i32 noundef 9) #15
  store ptr %call738, ptr %_space, align 8
  br label %if.end739

if.end739:                                        ; preds = %if.then737, %if.end734
  %316 = load ptr, ptr %_space, align 8
  %tobool740 = icmp ne ptr %316, null
  br i1 %tobool740, label %if.then741, label %if.end757

if.then741:                                       ; preds = %if.end739
  %317 = load ptr, ptr %_space, align 8
  %318 = load ptr, ptr %token, align 8
  %sub.ptr.lhs.cast = ptrtoint ptr %317 to i64
  %sub.ptr.rhs.cast = ptrtoint ptr %318 to i64
  %sub.ptr.sub = sub i64 %sub.ptr.lhs.cast, %sub.ptr.rhs.cast
  store i64 %sub.ptr.sub, ptr %len, align 8
  %319 = load ptr, ptr %token, align 8
  %320 = load i64, ptr %len, align 8
  call void @_ZNSaIcEC1Ev(ptr noundef nonnull align 1 dereferenceable(1) %ref.tmp742) #14
  invoke void @_ZNSt7__cxx1112basic_stringIcSt11char_traitsIcESaIcEEC1EPKcmRKS3_(ptr noundef nonnull align 8 dereferenceable(32) %key, ptr noundef %319, i64 noundef %320, ptr noundef nonnull align 1 dereferenceable(1) %ref.tmp742)
          to label %invoke.cont744 unwind label %lpad743

invoke.cont744:                                   ; preds = %if.then741
  call void @_ZNSaIcED1Ev(ptr noundef nonnull align 1 dereferenceable(1) %ref.tmp742) #14
  %321 = load ptr, ptr %_space, align 8
  %add.ptr745 = getelementptr inbounds i8, ptr %321, i64 1
  call void @_ZNSaIcEC1Ev(ptr noundef nonnull align 1 dereferenceable(1) %ref.tmp746) #14
  invoke void @_ZNSt7__cxx1112basic_stringIcSt11char_traitsIcESaIcEEC2IS3_EEPKcRKS3_(ptr noundef nonnull align 8 dereferenceable(32) %value, ptr noundef %add.ptr745, ptr noundef nonnull align 1 dereferenceable(1) %ref.tmp746)
          to label %invoke.cont748 unwind label %lpad747

invoke.cont748:                                   ; preds = %invoke.cont744
  call void @_ZNSaIcED1Ev(ptr noundef nonnull align 1 dereferenceable(1) %ref.tmp746) #14
  %unknown_parameter = getelementptr inbounds %"struct.tinyobj::material_t", ptr %material, i32 0, i32 46
  invoke void @_ZNSt4pairINSt7__cxx1112basic_stringIcSt11char_traitsIcESaIcEEES5_EC2IRS5_S8_TnNSt9enable_ifIXaaclsr5_PCCPE22_MoveConstructiblePairIT_T0_EEclsr5_PCCPE30_ImplicitlyMoveConvertiblePairISA_SB_EEEbE4typeELb1EEEOSA_OSB_(ptr noundef nonnull align 8 dereferenceable(64) %ref.tmp749, ptr noundef nonnull align 8 dereferenceable(32) %key, ptr noundef nonnull align 8 dereferenceable(32) %value)
          to label %invoke.cont751 unwind label %lpad750

invoke.cont751:                                   ; preds = %invoke.cont748
  %call754 = invoke { ptr, i8 } @_ZNSt3mapINSt7__cxx1112basic_stringIcSt11char_traitsIcESaIcEEES5_St4lessIS5_ESaISt4pairIKS5_S5_EEE6insertIS8_IS5_S5_EEENSt9enable_ifIXsr16is_constructibleISA_T_EE5valueES8_ISt17_Rb_tree_iteratorISA_EbEE4typeEOSG_(ptr noundef nonnull align 8 dereferenceable(48) %unknown_parameter, ptr noundef nonnull align 8 dereferenceable(64) %ref.tmp749)
          to label %invoke.cont753 unwind label %lpad752

invoke.cont753:                                   ; preds = %invoke.cont751
  %322 = getelementptr inbounds { ptr, i8 }, ptr %coerce755, i32 0, i32 0
  %323 = extractvalue { ptr, i8 } %call754, 0
  store ptr %323, ptr %322, align 8
  %324 = getelementptr inbounds { ptr, i8 }, ptr %coerce755, i32 0, i32 1
  %325 = extractvalue { ptr, i8 } %call754, 1
  store i8 %325, ptr %324, align 8
  call void @_ZNSt4pairINSt7__cxx1112basic_stringIcSt11char_traitsIcESaIcEEES5_ED2Ev(ptr noundef nonnull align 8 dereferenceable(64) %ref.tmp749) #14
  call void @_ZNSt7__cxx1112basic_stringIcSt11char_traitsIcESaIcEED1Ev(ptr noundef nonnull align 8 dereferenceable(32) %value) #14
  call void @_ZNSt7__cxx1112basic_stringIcSt11char_traitsIcESaIcEED1Ev(ptr noundef nonnull align 8 dereferenceable(32) %key) #14
  br label %if.end757

lpad743:                                          ; preds = %if.then741
  %326 = landingpad { ptr, i32 }
          cleanup
  %327 = extractvalue { ptr, i32 } %326, 0
  store ptr %327, ptr %exn.slot, align 8
  %328 = extractvalue { ptr, i32 } %326, 1
  store i32 %328, ptr %ehselector.slot, align 4
  call void @_ZNSaIcED1Ev(ptr noundef nonnull align 1 dereferenceable(1) %ref.tmp742) #14
  br label %ehcleanup776

lpad747:                                          ; preds = %invoke.cont744
  %329 = landingpad { ptr, i32 }
          cleanup
  %330 = extractvalue { ptr, i32 } %329, 0
  store ptr %330, ptr %exn.slot, align 8
  %331 = extractvalue { ptr, i32 } %329, 1
  store i32 %331, ptr %ehselector.slot, align 4
  call void @_ZNSaIcED1Ev(ptr noundef nonnull align 1 dereferenceable(1) %ref.tmp746) #14
  br label %ehcleanup756

lpad750:                                          ; preds = %invoke.cont748
  %332 = landingpad { ptr, i32 }
          cleanup
  %333 = extractvalue { ptr, i32 } %332, 0
  store ptr %333, ptr %exn.slot, align 8
  %334 = extractvalue { ptr, i32 } %332, 1
  store i32 %334, ptr %ehselector.slot, align 4
  br label %ehcleanup

lpad752:                                          ; preds = %invoke.cont751
  %335 = landingpad { ptr, i32 }
          cleanup
  %336 = extractvalue { ptr, i32 } %335, 0
  store ptr %336, ptr %exn.slot, align 8
  %337 = extractvalue { ptr, i32 } %335, 1
  store i32 %337, ptr %ehselector.slot, align 4
  call void @_ZNSt4pairINSt7__cxx1112basic_stringIcSt11char_traitsIcESaIcEEES5_ED2Ev(ptr noundef nonnull align 8 dereferenceable(64) %ref.tmp749) #14
  br label %ehcleanup

ehcleanup:                                        ; preds = %lpad752, %lpad750
  call void @_ZNSt7__cxx1112basic_stringIcSt11char_traitsIcESaIcEED1Ev(ptr noundef nonnull align 8 dereferenceable(32) %value) #14
  br label %ehcleanup756

ehcleanup756:                                     ; preds = %ehcleanup, %lpad747
  call void @_ZNSt7__cxx1112basic_stringIcSt11char_traitsIcESaIcEED1Ev(ptr noundef nonnull align 8 dereferenceable(32) %key) #14
  br label %ehcleanup776

if.end757:                                        ; preds = %invoke.cont753, %if.end739
  br label %while.cond, !llvm.loop !6

while.end:                                        ; preds = %invoke.cont3
  %338 = load ptr, ptr %material_map.addr, align 8
  %name759 = getelementptr inbounds %"struct.tinyobj::material_t", ptr %material, i32 0, i32 0
  %339 = load ptr, ptr %materials.addr, align 8
  %call761 = call noundef i64 @_ZNKSt6vectorIN7tinyobj10material_tESaIS1_EE4sizeEv(ptr noundef nonnull align 8 dereferenceable(24) %339) #14
  %conv762 = trunc i64 %call761 to i32
  store i32 %conv762, ptr %ref.tmp760, align 4
  invoke void @_ZNSt4pairINSt7__cxx1112basic_stringIcSt11char_traitsIcESaIcEEEiEC2IRS5_iTnNSt9enable_ifIXaaclsr5_PCCPE22_MoveConstructiblePairIT_T0_EEclsr5_PCCPE30_ImplicitlyMoveConvertiblePairISA_SB_EEEbE4typeELb1EEEOSA_OSB_(ptr noundef nonnull align 8 dereferenceable(36) %ref.tmp758, ptr noundef nonnull align 8 dereferenceable(32) %name759, ptr noundef nonnull align 4 dereferenceable(4) %ref.tmp760)
          to label %invoke.cont763 unwind label %lpad2

invoke.cont763:                                   ; preds = %while.end
  %call766 = invoke { ptr, i8 } @_ZNSt3mapINSt7__cxx1112basic_stringIcSt11char_traitsIcESaIcEEEiSt4lessIS5_ESaISt4pairIKS5_iEEE6insertIS8_IS5_iEEENSt9enable_ifIXsr16is_constructibleISA_T_EE5valueES8_ISt17_Rb_tree_iteratorISA_EbEE4typeEOSG_(ptr noundef nonnull align 8 dereferenceable(48) %338, ptr noundef nonnull align 8 dereferenceable(36) %ref.tmp758)
          to label %invoke.cont765 unwind label %lpad764

invoke.cont765:                                   ; preds = %invoke.cont763
  %340 = getelementptr inbounds { ptr, i8 }, ptr %coerce767, i32 0, i32 0
  %341 = extractvalue { ptr, i8 } %call766, 0
  store ptr %341, ptr %340, align 8
  %342 = getelementptr inbounds { ptr, i8 }, ptr %coerce767, i32 0, i32 1
  %343 = extractvalue { ptr, i8 } %call766, 1
  store i8 %343, ptr %342, align 8
  call void @_ZNSt4pairINSt7__cxx1112basic_stringIcSt11char_traitsIcESaIcEEEiED2Ev(ptr noundef nonnull align 8 dereferenceable(36) %ref.tmp758) #14
  %344 = load ptr, ptr %materials.addr, align 8
  invoke void @_ZNSt6vectorIN7tinyobj10material_tESaIS1_EE9push_backERKS1_(ptr noundef nonnull align 8 dereferenceable(24) %344, ptr noundef nonnull align 8 dereferenceable(1864) %material)
          to label %invoke.cont769 unwind label %lpad2

invoke.cont769:                                   ; preds = %invoke.cont765
  %345 = load ptr, ptr %warning.addr, align 8
  %tobool770 = icmp ne ptr %345, null
  br i1 %tobool770, label %if.then771, label %if.end775

if.then771:                                       ; preds = %invoke.cont769
  invoke void @_ZNKSt7__cxx1118basic_stringstreamIcSt11char_traitsIcESaIcEE3strEv(ptr sret(%"class.std::__cxx11::basic_string") align 8 %ref.tmp772, ptr noundef nonnull align 8 dereferenceable(128) %warn_ss)
          to label %invoke.cont773 unwind label %lpad2

invoke.cont773:                                   ; preds = %if.then771
  %346 = load ptr, ptr %warning.addr, align 8
  %call774 = call noundef nonnull align 8 dereferenceable(32) ptr @_ZNSt7__cxx1112basic_stringIcSt11char_traitsIcESaIcEEaSEOS4_(ptr noundef nonnull align 8 dereferenceable(32) %346, ptr noundef nonnull align 8 dereferenceable(32) %ref.tmp772) #14
  call void @_ZNSt7__cxx1112basic_stringIcSt11char_traitsIcESaIcEED1Ev(ptr noundef nonnull align 8 dereferenceable(32) %ref.tmp772) #14
  br label %if.end775

lpad764:                                          ; preds = %invoke.cont763
  %347 = landingpad { ptr, i32 }
          cleanup
  %348 = extractvalue { ptr, i32 } %347, 0
  store ptr %348, ptr %exn.slot, align 8
  %349 = extractvalue { ptr, i32 } %347, 1
  store i32 %349, ptr %ehselector.slot, align 4
  call void @_ZNSt4pairINSt7__cxx1112basic_stringIcSt11char_traitsIcESaIcEEEiED2Ev(ptr noundef nonnull align 8 dereferenceable(36) %ref.tmp758) #14
  br label %ehcleanup776

if.end775:                                        ; preds = %invoke.cont773, %invoke.cont769
  call void @_ZNSt7__cxx1112basic_stringIcSt11char_traitsIcESaIcEED1Ev(ptr noundef nonnull align 8 dereferenceable(32) %linebuf) #14
  call void @_ZNSt7__cxx1118basic_stringstreamIcSt11char_traitsIcESaIcEED1Ev(ptr noundef nonnull align 8 dereferenceable(128) %warn_ss) #14
  call void @_ZN7tinyobj10material_tD2Ev(ptr noundef nonnull align 8 dereferenceable(1864) %material) #14
  ret void

ehcleanup776:                                     ; preds = %lpad764, %ehcleanup756, %lpad743, %lpad83, %lpad72, %lpad2
  call void @_ZNSt7__cxx1112basic_stringIcSt11char_traitsIcESaIcEED1Ev(ptr noundef nonnull align 8 dereferenceable(32) %linebuf) #14
  call void @_ZNSt7__cxx1118basic_stringstreamIcSt11char_traitsIcESaIcEED1Ev(ptr noundef nonnull align 8 dereferenceable(128) %warn_ss) #14
  br label %ehcleanup778

ehcleanup778:                                     ; preds = %ehcleanup776, %lpad
  call void @_ZN7tinyobj10material_tD2Ev(ptr noundef nonnull align 8 dereferenceable(1864) %material) #14
  br label %eh.resume

eh.resume:                                        ; preds = %ehcleanup778
  %exn = load ptr, ptr %exn.slot, align 8
  %sel = load i32, ptr %ehselector.slot, align 4
  %lpad.val = insertvalue { ptr, i32 } poison, ptr %exn, 0
  %lpad.val779 = insertvalue { ptr, i32 } %lpad.val, i32 %sel, 1
  resume { ptr, i32 } %lpad.val779
}

; Function Attrs: mustprogress nounwind uwtable
define linkonce_odr void @_ZN7tinyobj10material_tC2Ev(ptr noundef nonnull align 8 dereferenceable(1864) %this) unnamed_addr #0 comdat align 2 {
entry:
  %this.addr = alloca ptr, align 8
  store ptr %this, ptr %this.addr, align 8
  %this1 = load ptr, ptr %this.addr, align 8
  %name = getelementptr inbounds %"struct.tinyobj::material_t", ptr %this1, i32 0, i32 0
  call void @_ZNSt7__cxx1112basic_stringIcSt11char_traitsIcESaIcEEC1Ev(ptr noundef nonnull align 8 dereferenceable(32) %name) #14
  %ambient_texname = getelementptr inbounds %"struct.tinyobj::material_t", ptr %this1, i32 0, i32 11
  call void @_ZNSt7__cxx1112basic_stringIcSt11char_traitsIcESaIcEEC1Ev(ptr noundef nonnull align 8 dereferenceable(32) %ambient_texname) #14
  %diffuse_texname = getelementptr inbounds %"struct.tinyobj::material_t", ptr %this1, i32 0, i32 12
  call void @_ZNSt7__cxx1112basic_stringIcSt11char_traitsIcESaIcEEC1Ev(ptr noundef nonnull align 8 dereferenceable(32) %diffuse_texname) #14
  %specular_texname = getelementptr inbounds %"struct.tinyobj::material_t", ptr %this1, i32 0, i32 13
  call void @_ZNSt7__cxx1112basic_stringIcSt11char_traitsIcESaIcEEC1Ev(ptr noundef nonnull align 8 dereferenceable(32) %specular_texname) #14
  %specular_highlight_texname = getelementptr inbounds %"struct.tinyobj::material_t", ptr %this1, i32 0, i32 14
  call void @_ZNSt7__cxx1112basic_stringIcSt11char_traitsIcESaIcEEC1Ev(ptr noundef nonnull align 8 dereferenceable(32) %specular_highlight_texname) #14
  %bump_texname = getelementptr inbounds %"struct.tinyobj::material_t", ptr %this1, i32 0, i32 15
  call void @_ZNSt7__cxx1112basic_stringIcSt11char_traitsIcESaIcEEC1Ev(ptr noundef nonnull align 8 dereferenceable(32) %bump_texname) #14
  %displacement_texname = getelementptr inbounds %"struct.tinyobj::material_t", ptr %this1, i32 0, i32 16
  call void @_ZNSt7__cxx1112basic_stringIcSt11char_traitsIcESaIcEEC1Ev(ptr noundef nonnull align 8 dereferenceable(32) %displacement_texname) #14
  %alpha_texname = getelementptr inbounds %"struct.tinyobj::material_t", ptr %this1, i32 0, i32 17
  call void @_ZNSt7__cxx1112basic_stringIcSt11char_traitsIcESaIcEEC1Ev(ptr noundef nonnull align 8 dereferenceable(32) %alpha_texname) #14
  %reflection_texname = getelementptr inbounds %"struct.tinyobj::material_t", ptr %this1, i32 0, i32 18
  call void @_ZNSt7__cxx1112basic_stringIcSt11char_traitsIcESaIcEEC1Ev(ptr noundef nonnull align 8 dereferenceable(32) %reflection_texname) #14
  %ambient_texopt = getelementptr inbounds %"struct.tinyobj::material_t", ptr %this1, i32 0, i32 19
  call void @_ZN7tinyobj16texture_option_tC2Ev(ptr noundef nonnull align 8 dereferenceable(96) %ambient_texopt) #14
  %diffuse_texopt = getelementptr inbounds %"struct.tinyobj::material_t", ptr %this1, i32 0, i32 20
  call void @_ZN7tinyobj16texture_option_tC2Ev(ptr noundef nonnull align 8 dereferenceable(96) %diffuse_texopt) #14
  %specular_texopt = getelementptr inbounds %"struct.tinyobj::material_t", ptr %this1, i32 0, i32 21
  call void @_ZN7tinyobj16texture_option_tC2Ev(ptr noundef nonnull align 8 dereferenceable(96) %specular_texopt) #14
  %specular_highlight_texopt = getelementptr inbounds %"struct.tinyobj::material_t", ptr %this1, i32 0, i32 22
  call void @_ZN7tinyobj16texture_option_tC2Ev(ptr noundef nonnull align 8 dereferenceable(96) %specular_highlight_texopt) #14
  %bump_texopt = getelementptr inbounds %"struct.tinyobj::material_t", ptr %this1, i32 0, i32 23
  call void @_ZN7tinyobj16texture_option_tC2Ev(ptr noundef nonnull align 8 dereferenceable(96) %bump_texopt) #14
  %displacement_texopt = getelementptr inbounds %"struct.tinyobj::material_t", ptr %this1, i32 0, i32 24
  call void @_ZN7tinyobj16texture_option_tC2Ev(ptr noundef nonnull align 8 dereferenceable(96) %displacement_texopt) #14
  %alpha_texopt = getelementptr inbounds %"struct.tinyobj::material_t", ptr %this1, i32 0, i32 25
  call void @_ZN7tinyobj16texture_option_tC2Ev(ptr noundef nonnull align 8 dereferenceable(96) %alpha_texopt) #14
  %reflection_texopt = getelementptr inbounds %"struct.tinyobj::material_t", ptr %this1, i32 0, i32 26
  call void @_ZN7tinyobj16texture_option_tC2Ev(ptr noundef nonnull align 8 dereferenceable(96) %reflection_texopt) #14
  %roughness_texname = getelementptr inbounds %"struct.tinyobj::material_t", ptr %this1, i32 0, i32 35
  call void @_ZNSt7__cxx1112basic_stringIcSt11char_traitsIcESaIcEEC1Ev(ptr noundef nonnull align 8 dereferenceable(32) %roughness_texname) #14
  %metallic_texname = getelementptr inbounds %"struct.tinyobj::material_t", ptr %this1, i32 0, i32 36
  call void @_ZNSt7__cxx1112basic_stringIcSt11char_traitsIcESaIcEEC1Ev(ptr noundef nonnull align 8 dereferenceable(32) %metallic_texname) #14
  %sheen_texname = getelementptr inbounds %"struct.tinyobj::material_t", ptr %this1, i32 0, i32 37
  call void @_ZNSt7__cxx1112basic_stringIcSt11char_traitsIcESaIcEEC1Ev(ptr noundef nonnull align 8 dereferenceable(32) %sheen_texname) #14
  %emissive_texname = getelementptr inbounds %"struct.tinyobj::material_t", ptr %this1, i32 0, i32 38
  call void @_ZNSt7__cxx1112basic_stringIcSt11char_traitsIcESaIcEEC1Ev(ptr noundef nonnull align 8 dereferenceable(32) %emissive_texname) #14
  %normal_texname = getelementptr inbounds %"struct.tinyobj::material_t", ptr %this1, i32 0, i32 39
  call void @_ZNSt7__cxx1112basic_stringIcSt11char_traitsIcESaIcEEC1Ev(ptr noundef nonnull align 8 dereferenceable(32) %normal_texname) #14
  %roughness_texopt = getelementptr inbounds %"struct.tinyobj::material_t", ptr %this1, i32 0, i32 40
  call void @_ZN7tinyobj16texture_option_tC2Ev(ptr noundef nonnull align 8 dereferenceable(96) %roughness_texopt) #14
  %metallic_texopt = getelementptr inbounds %"struct.tinyobj::material_t", ptr %this1, i32 0, i32 41
  call void @_ZN7tinyobj16texture_option_tC2Ev(ptr noundef nonnull align 8 dereferenceable(96) %metallic_texopt) #14
  %sheen_texopt = getelementptr inbounds %"struct.tinyobj::material_t", ptr %this1, i32 0, i32 42
  call void @_ZN7tinyobj16texture_option_tC2Ev(ptr noundef nonnull align 8 dereferenceable(96) %sheen_texopt) #14
  %emissive_texopt = getelementptr inbounds %"struct.tinyobj::material_t", ptr %this1, i32 0, i32 43
  call void @_ZN7tinyobj16texture_option_tC2Ev(ptr noundef nonnull align 8 dereferenceable(96) %emissive_texopt) #14
  %normal_texopt = getelementptr inbounds %"struct.tinyobj::material_t", ptr %this1, i32 0, i32 44
  call void @_ZN7tinyobj16texture_option_tC2Ev(ptr noundef nonnull align 8 dereferenceable(96) %normal_texopt) #14
  %unknown_parameter = getelementptr inbounds %"struct.tinyobj::material_t", ptr %this1, i32 0, i32 46
  call void @_ZNSt3mapINSt7__cxx1112basic_stringIcSt11char_traitsIcESaIcEEES5_St4lessIS5_ESaISt4pairIKS5_S5_EEEC2Ev(ptr noundef nonnull align 8 dereferenceable(48) %unknown_parameter) #14
  ret void
}

; Function Attrs: mustprogress uwtable
define internal void @_ZN7tinyobjL12InitMaterialEPNS_10material_tE(ptr noundef %material) #2 {
entry:
  %material.addr = alloca ptr, align 8
  %i = alloca i32, align 4
  store ptr %material, ptr %material.addr, align 8
  %0 = load ptr, ptr %material.addr, align 8
  %ambient_texopt = getelementptr inbounds %"struct.tinyobj::material_t", ptr %0, i32 0, i32 19
  call void @_ZN7tinyobjL10InitTexOptEPNS_16texture_option_tEb(ptr noundef %ambient_texopt, i1 noundef zeroext false)
  %1 = load ptr, ptr %material.addr, align 8
  %diffuse_texopt = getelementptr inbounds %"struct.tinyobj::material_t", ptr %1, i32 0, i32 20
  call void @_ZN7tinyobjL10InitTexOptEPNS_16texture_option_tEb(ptr noundef %diffuse_texopt, i1 noundef zeroext false)
  %2 = load ptr, ptr %material.addr, align 8
  %specular_texopt = getelementptr inbounds %"struct.tinyobj::material_t", ptr %2, i32 0, i32 21
  call void @_ZN7tinyobjL10InitTexOptEPNS_16texture_option_tEb(ptr noundef %specular_texopt, i1 noundef zeroext false)
  %3 = load ptr, ptr %material.addr, align 8
  %specular_highlight_texopt = getelementptr inbounds %"struct.tinyobj::material_t", ptr %3, i32 0, i32 22
  call void @_ZN7tinyobjL10InitTexOptEPNS_16texture_option_tEb(ptr noundef %specular_highlight_texopt, i1 noundef zeroext false)
  %4 = load ptr, ptr %material.addr, align 8
  %bump_texopt = getelementptr inbounds %"struct.tinyobj::material_t", ptr %4, i32 0, i32 23
  call void @_ZN7tinyobjL10InitTexOptEPNS_16texture_option_tEb(ptr noundef %bump_texopt, i1 noundef zeroext true)
  %5 = load ptr, ptr %material.addr, align 8
  %displacement_texopt = getelementptr inbounds %"struct.tinyobj::material_t", ptr %5, i32 0, i32 24
  call void @_ZN7tinyobjL10InitTexOptEPNS_16texture_option_tEb(ptr noundef %displacement_texopt, i1 noundef zeroext false)
  %6 = load ptr, ptr %material.addr, align 8
  %alpha_texopt = getelementptr inbounds %"struct.tinyobj::material_t", ptr %6, i32 0, i32 25
  call void @_ZN7tinyobjL10InitTexOptEPNS_16texture_option_tEb(ptr noundef %alpha_texopt, i1 noundef zeroext false)
  %7 = load ptr, ptr %material.addr, align 8
  %reflection_texopt = getelementptr inbounds %"struct.tinyobj::material_t", ptr %7, i32 0, i32 26
  call void @_ZN7tinyobjL10InitTexOptEPNS_16texture_option_tEb(ptr noundef %reflection_texopt, i1 noundef zeroext false)
  %8 = load ptr, ptr %material.addr, align 8
  %roughness_texopt = getelementptr inbounds %"struct.tinyobj::material_t", ptr %8, i32 0, i32 40
  call void @_ZN7tinyobjL10InitTexOptEPNS_16texture_option_tEb(ptr noundef %roughness_texopt, i1 noundef zeroext false)
  %9 = load ptr, ptr %material.addr, align 8
  %metallic_texopt = getelementptr inbounds %"struct.tinyobj::material_t", ptr %9, i32 0, i32 41
  call void @_ZN7tinyobjL10InitTexOptEPNS_16texture_option_tEb(ptr noundef %metallic_texopt, i1 noundef zeroext false)
  %10 = load ptr, ptr %material.addr, align 8
  %sheen_texopt = getelementptr inbounds %"struct.tinyobj::material_t", ptr %10, i32 0, i32 42
  call void @_ZN7tinyobjL10InitTexOptEPNS_16texture_option_tEb(ptr noundef %sheen_texopt, i1 noundef zeroext false)
  %11 = load ptr, ptr %material.addr, align 8
  %emissive_texopt = getelementptr inbounds %"struct.tinyobj::material_t", ptr %11, i32 0, i32 43
  call void @_ZN7tinyobjL10InitTexOptEPNS_16texture_option_tEb(ptr noundef %emissive_texopt, i1 noundef zeroext false)
  %12 = load ptr, ptr %material.addr, align 8
  %normal_texopt = getelementptr inbounds %"struct.tinyobj::material_t", ptr %12, i32 0, i32 44
  call void @_ZN7tinyobjL10InitTexOptEPNS_16texture_option_tEb(ptr noundef %normal_texopt, i1 noundef zeroext false)
  %13 = load ptr, ptr %material.addr, align 8
  %name = getelementptr inbounds %"struct.tinyobj::material_t", ptr %13, i32 0, i32 0
  %call = call noundef nonnull align 8 dereferenceable(32) ptr @_ZNSt7__cxx1112basic_stringIcSt11char_traitsIcESaIcEEaSEPKc(ptr noundef nonnull align 8 dereferenceable(32) %name, ptr noundef @.str.47)
  %14 = load ptr, ptr %material.addr, align 8
  %ambient_texname = getelementptr inbounds %"struct.tinyobj::material_t", ptr %14, i32 0, i32 11
  %call1 = call noundef nonnull align 8 dereferenceable(32) ptr @_ZNSt7__cxx1112basic_stringIcSt11char_traitsIcESaIcEEaSEPKc(ptr noundef nonnull align 8 dereferenceable(32) %ambient_texname, ptr noundef @.str.47)
  %15 = load ptr, ptr %material.addr, align 8
  %diffuse_texname = getelementptr inbounds %"struct.tinyobj::material_t", ptr %15, i32 0, i32 12
  %call2 = call noundef nonnull align 8 dereferenceable(32) ptr @_ZNSt7__cxx1112basic_stringIcSt11char_traitsIcESaIcEEaSEPKc(ptr noundef nonnull align 8 dereferenceable(32) %diffuse_texname, ptr noundef @.str.47)
  %16 = load ptr, ptr %material.addr, align 8
  %specular_texname = getelementptr inbounds %"struct.tinyobj::material_t", ptr %16, i32 0, i32 13
  %call3 = call noundef nonnull align 8 dereferenceable(32) ptr @_ZNSt7__cxx1112basic_stringIcSt11char_traitsIcESaIcEEaSEPKc(ptr noundef nonnull align 8 dereferenceable(32) %specular_texname, ptr noundef @.str.47)
  %17 = load ptr, ptr %material.addr, align 8
  %specular_highlight_texname = getelementptr inbounds %"struct.tinyobj::material_t", ptr %17, i32 0, i32 14
  %call4 = call noundef nonnull align 8 dereferenceable(32) ptr @_ZNSt7__cxx1112basic_stringIcSt11char_traitsIcESaIcEEaSEPKc(ptr noundef nonnull align 8 dereferenceable(32) %specular_highlight_texname, ptr noundef @.str.47)
  %18 = load ptr, ptr %material.addr, align 8
  %bump_texname = getelementptr inbounds %"struct.tinyobj::material_t", ptr %18, i32 0, i32 15
  %call5 = call noundef nonnull align 8 dereferenceable(32) ptr @_ZNSt7__cxx1112basic_stringIcSt11char_traitsIcESaIcEEaSEPKc(ptr noundef nonnull align 8 dereferenceable(32) %bump_texname, ptr noundef @.str.47)
  %19 = load ptr, ptr %material.addr, align 8
  %displacement_texname = getelementptr inbounds %"struct.tinyobj::material_t", ptr %19, i32 0, i32 16
  %call6 = call noundef nonnull align 8 dereferenceable(32) ptr @_ZNSt7__cxx1112basic_stringIcSt11char_traitsIcESaIcEEaSEPKc(ptr noundef nonnull align 8 dereferenceable(32) %displacement_texname, ptr noundef @.str.47)
  %20 = load ptr, ptr %material.addr, align 8
  %reflection_texname = getelementptr inbounds %"struct.tinyobj::material_t", ptr %20, i32 0, i32 18
  %call7 = call noundef nonnull align 8 dereferenceable(32) ptr @_ZNSt7__cxx1112basic_stringIcSt11char_traitsIcESaIcEEaSEPKc(ptr noundef nonnull align 8 dereferenceable(32) %reflection_texname, ptr noundef @.str.47)
  %21 = load ptr, ptr %material.addr, align 8
  %alpha_texname = getelementptr inbounds %"struct.tinyobj::material_t", ptr %21, i32 0, i32 17
  %call8 = call noundef nonnull align 8 dereferenceable(32) ptr @_ZNSt7__cxx1112basic_stringIcSt11char_traitsIcESaIcEEaSEPKc(ptr noundef nonnull align 8 dereferenceable(32) %alpha_texname, ptr noundef @.str.47)
  store i32 0, ptr %i, align 4
  br label %for.cond

for.cond:                                         ; preds = %for.inc, %entry
  %22 = load i32, ptr %i, align 4
  %cmp = icmp slt i32 %22, 3
  br i1 %cmp, label %for.body, label %for.end

for.body:                                         ; preds = %for.cond
  %23 = load ptr, ptr %material.addr, align 8
  %ambient = getelementptr inbounds %"struct.tinyobj::material_t", ptr %23, i32 0, i32 1
  %24 = load i32, ptr %i, align 4
  %idxprom = sext i32 %24 to i64
  %arrayidx = getelementptr inbounds [3 x float], ptr %ambient, i64 0, i64 %idxprom
  store float 0.000000e+00, ptr %arrayidx, align 4
  %25 = load ptr, ptr %material.addr, align 8
  %diffuse = getelementptr inbounds %"struct.tinyobj::material_t", ptr %25, i32 0, i32 2
  %26 = load i32, ptr %i, align 4
  %idxprom9 = sext i32 %26 to i64
  %arrayidx10 = getelementptr inbounds [3 x float], ptr %diffuse, i64 0, i64 %idxprom9
  store float 0.000000e+00, ptr %arrayidx10, align 4
  %27 = load ptr, ptr %material.addr, align 8
  %specular = getelementptr inbounds %"struct.tinyobj::material_t", ptr %27, i32 0, i32 3
  %28 = load i32, ptr %i, align 4
  %idxprom11 = sext i32 %28 to i64
  %arrayidx12 = getelementptr inbounds [3 x float], ptr %specular, i64 0, i64 %idxprom11
  store float 0.000000e+00, ptr %arrayidx12, align 4
  %29 = load ptr, ptr %material.addr, align 8
  %transmittance = getelementptr inbounds %"struct.tinyobj::material_t", ptr %29, i32 0, i32 4
  %30 = load i32, ptr %i, align 4
  %idxprom13 = sext i32 %30 to i64
  %arrayidx14 = getelementptr inbounds [3 x float], ptr %transmittance, i64 0, i64 %idxprom13
  store float 0.000000e+00, ptr %arrayidx14, align 4
  %31 = load ptr, ptr %material.addr, align 8
  %emission = getelementptr inbounds %"struct.tinyobj::material_t", ptr %31, i32 0, i32 5
  %32 = load i32, ptr %i, align 4
  %idxprom15 = sext i32 %32 to i64
  %arrayidx16 = getelementptr inbounds [3 x float], ptr %emission, i64 0, i64 %idxprom15
  store float 0.000000e+00, ptr %arrayidx16, align 4
  br label %for.inc

for.inc:                                          ; preds = %for.body
  %33 = load i32, ptr %i, align 4
  %inc = add nsw i32 %33, 1
  store i32 %inc, ptr %i, align 4
  br label %for.cond, !llvm.loop !7

for.end:                                          ; preds = %for.cond
  %34 = load ptr, ptr %material.addr, align 8
  %illum = getelementptr inbounds %"struct.tinyobj::material_t", ptr %34, i32 0, i32 9
  store i32 0, ptr %illum, align 8
  %35 = load ptr, ptr %material.addr, align 8
  %dissolve = getelementptr inbounds %"struct.tinyobj::material_t", ptr %35, i32 0, i32 8
  store float 1.000000e+00, ptr %dissolve, align 4
  %36 = load ptr, ptr %material.addr, align 8
  %shininess = getelementptr inbounds %"struct.tinyobj::material_t", ptr %36, i32 0, i32 6
  store float 1.000000e+00, ptr %shininess, align 4
  %37 = load ptr, ptr %material.addr, align 8
  %ior = getelementptr inbounds %"struct.tinyobj::material_t", ptr %37, i32 0, i32 7
  store float 1.000000e+00, ptr %ior, align 8
  %38 = load ptr, ptr %material.addr, align 8
  %roughness = getelementptr inbounds %"struct.tinyobj::material_t", ptr %38, i32 0, i32 27
  store float 0.000000e+00, ptr %roughness, align 8
  %39 = load ptr, ptr %material.addr, align 8
  %metallic = getelementptr inbounds %"struct.tinyobj::material_t", ptr %39, i32 0, i32 28
  store float 0.000000e+00, ptr %metallic, align 4
  %40 = load ptr, ptr %material.addr, align 8
  %sheen = getelementptr inbounds %"struct.tinyobj::material_t", ptr %40, i32 0, i32 29
  store float 0.000000e+00, ptr %sheen, align 8
  %41 = load ptr, ptr %material.addr, align 8
  %clearcoat_thickness = getelementptr inbounds %"struct.tinyobj::material_t", ptr %41, i32 0, i32 30
  store float 0.000000e+00, ptr %clearcoat_thickness, align 4
  %42 = load ptr, ptr %material.addr, align 8
  %clearcoat_roughness = getelementptr inbounds %"struct.tinyobj::material_t", ptr %42, i32 0, i32 31
  store float 0.000000e+00, ptr %clearcoat_roughness, align 8
  %43 = load ptr, ptr %material.addr, align 8
  %anisotropy_rotation = getelementptr inbounds %"struct.tinyobj::material_t", ptr %43, i32 0, i32 33
  store float 0.000000e+00, ptr %anisotropy_rotation, align 8
  %44 = load ptr, ptr %material.addr, align 8
  %anisotropy = getelementptr inbounds %"struct.tinyobj::material_t", ptr %44, i32 0, i32 32
  store float 0.000000e+00, ptr %anisotropy, align 4
  %45 = load ptr, ptr %material.addr, align 8
  %roughness_texname = getelementptr inbounds %"struct.tinyobj::material_t", ptr %45, i32 0, i32 35
  %call17 = call noundef nonnull align 8 dereferenceable(32) ptr @_ZNSt7__cxx1112basic_stringIcSt11char_traitsIcESaIcEEaSEPKc(ptr noundef nonnull align 8 dereferenceable(32) %roughness_texname, ptr noundef @.str.47)
  %46 = load ptr, ptr %material.addr, align 8
  %metallic_texname = getelementptr inbounds %"struct.tinyobj::material_t", ptr %46, i32 0, i32 36
  %call18 = call noundef nonnull align 8 dereferenceable(32) ptr @_ZNSt7__cxx1112basic_stringIcSt11char_traitsIcESaIcEEaSEPKc(ptr noundef nonnull align 8 dereferenceable(32) %metallic_texname, ptr noundef @.str.47)
  %47 = load ptr, ptr %material.addr, align 8
  %sheen_texname = getelementptr inbounds %"struct.tinyobj::material_t", ptr %47, i32 0, i32 37
  %call19 = call noundef nonnull align 8 dereferenceable(32) ptr @_ZNSt7__cxx1112basic_stringIcSt11char_traitsIcESaIcEEaSEPKc(ptr noundef nonnull align 8 dereferenceable(32) %sheen_texname, ptr noundef @.str.47)
  %48 = load ptr, ptr %material.addr, align 8
  %emissive_texname = getelementptr inbounds %"struct.tinyobj::material_t", ptr %48, i32 0, i32 38
  %call20 = call noundef nonnull align 8 dereferenceable(32) ptr @_ZNSt7__cxx1112basic_stringIcSt11char_traitsIcESaIcEEaSEPKc(ptr noundef nonnull align 8 dereferenceable(32) %emissive_texname, ptr noundef @.str.47)
  %49 = load ptr, ptr %material.addr, align 8
  %normal_texname = getelementptr inbounds %"struct.tinyobj::material_t", ptr %49, i32 0, i32 39
  %call21 = call noundef nonnull align 8 dereferenceable(32) ptr @_ZNSt7__cxx1112basic_stringIcSt11char_traitsIcESaIcEEaSEPKc(ptr noundef nonnull align 8 dereferenceable(32) %normal_texname, ptr noundef @.str.47)
  %50 = load ptr, ptr %material.addr, align 8
  %unknown_parameter = getelementptr inbounds %"struct.tinyobj::material_t", ptr %50, i32 0, i32 46
  call void @_ZNSt3mapINSt7__cxx1112basic_stringIcSt11char_traitsIcESaIcEEES5_St4lessIS5_ESaISt4pairIKS5_S5_EEE5clearEv(ptr noundef nonnull align 8 dereferenceable(48) %unknown_parameter) #14
  ret void
}

declare void @_ZNSt7__cxx1118basic_stringstreamIcSt11char_traitsIcESaIcEEC1Ev(ptr noundef nonnull align 8 dereferenceable(128)) unnamed_addr #5

declare noundef i32 @_ZNSi4peekEv(ptr noundef nonnull align 8 dereferenceable(16)) #5

; Function Attrs: mustprogress uwtable
define internal noundef nonnull align 8 dereferenceable(16) ptr @_ZN7tinyobjL11safeGetlineERSiRNSt7__cxx1112basic_stringIcSt11char_traitsIcESaIcEEE(ptr noundef nonnull align 8 dereferenceable(16) %is, ptr noundef nonnull align 8 dereferenceable(32) %t) #2 {
entry:
  %retval = alloca ptr, align 8
  %is.addr = alloca ptr, align 8
  %t.addr = alloca ptr, align 8
  %se = alloca %"class.std::basic_istream<char>::sentry", align 1
  %sb = alloca ptr, align 8
  %c = alloca i32, align 4
  store ptr %is, ptr %is.addr, align 8
  store ptr %t, ptr %t.addr, align 8
  %0 = load ptr, ptr %t.addr, align 8
  call void @_ZNSt7__cxx1112basic_stringIcSt11char_traitsIcESaIcEE5clearEv(ptr noundef nonnull align 8 dereferenceable(32) %0) #14
  %1 = load ptr, ptr %is.addr, align 8
  call void @_ZNSi6sentryC1ERSib(ptr noundef nonnull align 1 dereferenceable(1) %se, ptr noundef nonnull align 8 dereferenceable(16) %1, i1 noundef zeroext true)
  %2 = load ptr, ptr %is.addr, align 8
  %vtable = load ptr, ptr %2, align 8
  %vbase.offset.ptr = getelementptr i8, ptr %vtable, i64 -24
  %vbase.offset = load i64, ptr %vbase.offset.ptr, align 8
  %add.ptr = getelementptr inbounds i8, ptr %2, i64 %vbase.offset
  %call = call noundef ptr @_ZNKSt9basic_iosIcSt11char_traitsIcEE5rdbufEv(ptr noundef nonnull align 8 dereferenceable(264) %add.ptr)
  store ptr %call, ptr %sb, align 8
  %call1 = call noundef zeroext i1 @_ZNKSi6sentrycvbEv(ptr noundef nonnull align 1 dereferenceable(1) %se)
  br i1 %call1, label %if.then, label %if.end16

if.then:                                          ; preds = %entry
  br label %for.cond

for.cond:                                         ; preds = %sw.epilog, %if.then
  %3 = load ptr, ptr %sb, align 8
  %call2 = call noundef i32 @_ZNSt15basic_streambufIcSt11char_traitsIcEE6sbumpcEv(ptr noundef nonnull align 8 dereferenceable(64) %3)
  store i32 %call2, ptr %c, align 4
  %4 = load i32, ptr %c, align 4
  switch i32 %4, label %sw.default [
    i32 10, label %sw.bb
    i32 13, label %sw.bb3
    i32 -1, label %sw.bb7
  ]

sw.bb:                                            ; preds = %for.cond
  %5 = load ptr, ptr %is.addr, align 8
  store ptr %5, ptr %retval, align 8
  br label %return

sw.bb3:                                           ; preds = %for.cond
  %6 = load ptr, ptr %sb, align 8
  %call4 = call noundef i32 @_ZNSt15basic_streambufIcSt11char_traitsIcEE5sgetcEv(ptr noundef nonnull align 8 dereferenceable(64) %6)
  %cmp = icmp eq i32 %call4, 10
  br i1 %cmp, label %if.then5, label %if.end

if.then5:                                         ; preds = %sw.bb3
  %7 = load ptr, ptr %sb, align 8
  %call6 = call noundef i32 @_ZNSt15basic_streambufIcSt11char_traitsIcEE6sbumpcEv(ptr noundef nonnull align 8 dereferenceable(64) %7)
  br label %if.end

if.end:                                           ; preds = %if.then5, %sw.bb3
  %8 = load ptr, ptr %is.addr, align 8
  store ptr %8, ptr %retval, align 8
  br label %return

sw.bb7:                                           ; preds = %for.cond
  %9 = load ptr, ptr %t.addr, align 8
  %call8 = call noundef zeroext i1 @_ZNKSt7__cxx1112basic_stringIcSt11char_traitsIcESaIcEE5emptyEv(ptr noundef nonnull align 8 dereferenceable(32) %9) #14
  br i1 %call8, label %if.then9, label %if.end14

if.then9:                                         ; preds = %sw.bb7
  %10 = load ptr, ptr %is.addr, align 8
  %vtable10 = load ptr, ptr %10, align 8
  %vbase.offset.ptr11 = getelementptr i8, ptr %vtable10, i64 -24
  %vbase.offset12 = load i64, ptr %vbase.offset.ptr11, align 8
  %add.ptr13 = getelementptr inbounds i8, ptr %10, i64 %vbase.offset12
  call void @_ZNSt9basic_iosIcSt11char_traitsIcEE8setstateESt12_Ios_Iostate(ptr noundef nonnull align 8 dereferenceable(264) %add.ptr13, i32 noundef 2)
  br label %if.end14

if.end14:                                         ; preds = %if.then9, %sw.bb7
  %11 = load ptr, ptr %is.addr, align 8
  store ptr %11, ptr %retval, align 8
  br label %return

sw.default:                                       ; preds = %for.cond
  %12 = load i32, ptr %c, align 4
  %conv = trunc i32 %12 to i8
  %13 = load ptr, ptr %t.addr, align 8
  %call15 = call noundef nonnull align 8 dereferenceable(32) ptr @_ZNSt7__cxx1112basic_stringIcSt11char_traitsIcESaIcEEpLEc(ptr noundef nonnull align 8 dereferenceable(32) %13, i8 noundef signext %conv)
  br label %sw.epilog

sw.epilog:                                        ; preds = %sw.default
  br label %for.cond, !llvm.loop !8

if.end16:                                         ; preds = %entry
  %14 = load ptr, ptr %is.addr, align 8
  store ptr %14, ptr %retval, align 8
  br label %return

return:                                           ; preds = %if.end16, %if.end14, %if.end, %sw.bb
  %15 = load ptr, ptr %retval, align 8
  ret ptr %15
}

; Function Attrs: nounwind
declare noundef i64 @_ZNKSt7__cxx1112basic_stringIcSt11char_traitsIcESaIcEE4sizeEv(ptr noundef nonnull align 8 dereferenceable(32)) #3

declare void @_ZNKSt7__cxx1112basic_stringIcSt11char_traitsIcESaIcEE6substrEmm(ptr sret(%"class.std::__cxx11::basic_string") align 8, ptr noundef nonnull align 8 dereferenceable(32), i64 noundef, i64 noundef) #5

; Function Attrs: nounwind
declare noundef i64 @_ZNKSt7__cxx1112basic_stringIcSt11char_traitsIcESaIcEE16find_last_not_ofEPKcm(ptr noundef nonnull align 8 dereferenceable(32), ptr noundef, i64 noundef) #3

declare noundef nonnull align 1 dereferenceable(1) ptr @_ZNSt7__cxx1112basic_stringIcSt11char_traitsIcESaIcEEixEm(ptr noundef nonnull align 8 dereferenceable(32), i64 noundef) #5

declare noundef nonnull align 8 dereferenceable(32) ptr @_ZNSt7__cxx1112basic_stringIcSt11char_traitsIcESaIcEE5eraseEmm(ptr noundef nonnull align 8 dereferenceable(32), i64 noundef, i64 noundef) #5

; Function Attrs: nounwind
declare noundef zeroext i1 @_ZNKSt7__cxx1112basic_stringIcSt11char_traitsIcESaIcEE5emptyEv(ptr noundef nonnull align 8 dereferenceable(32)) #3

; Function Attrs: nounwind
declare noundef ptr @_ZNKSt7__cxx1112basic_stringIcSt11char_traitsIcESaIcEE5c_strEv(ptr noundef nonnull align 8 dereferenceable(32)) #3

; Function Attrs: mustprogress uwtable
define linkonce_odr { ptr, i8 } @_ZNSt3mapINSt7__cxx1112basic_stringIcSt11char_traitsIcESaIcEEEiSt4lessIS5_ESaISt4pairIKS5_iEEE6insertIS8_IS5_iEEENSt9enable_ifIXsr16is_constructibleISA_T_EE5valueES8_ISt17_Rb_tree_iteratorISA_EbEE4typeEOSG_(ptr noundef nonnull align 8 dereferenceable(48) %this, ptr noundef nonnull align 8 dereferenceable(36) %__x) #2 comdat align 2 {
entry:
  %retval = alloca %"struct.std::pair", align 8
  %this.addr = alloca ptr, align 8
  %__x.addr = alloca ptr, align 8
  %__k = alloca ptr, align 8
  %__i = alloca %"struct.std::_Rb_tree_iterator", align 8
  %ref.tmp = alloca %"struct.std::_Rb_tree_iterator", align 8
  %ref.tmp5 = alloca %"struct.std::less", align 1
  %ref.tmp9 = alloca %"struct.std::_Rb_tree_iterator", align 8
  %agg.tmp = alloca %"struct.std::_Rb_tree_const_iterator", align 8
  %ref.tmp13 = alloca i8, align 1
  %ref.tmp14 = alloca i8, align 1
  store ptr %this, ptr %this.addr, align 8
  store ptr %__x, ptr %__x.addr, align 8
  %this1 = load ptr, ptr %this.addr, align 8
  %0 = load ptr, ptr %__x.addr, align 8
  %first = getelementptr inbounds %"struct.std::pair.8", ptr %0, i32 0, i32 0
  store ptr %first, ptr %__k, align 8
  %1 = load ptr, ptr %__k, align 8
  %call = call ptr @_ZNSt3mapINSt7__cxx1112basic_stringIcSt11char_traitsIcESaIcEEEiSt4lessIS5_ESaISt4pairIKS5_iEEE11lower_boundERS9_(ptr noundef nonnull align 8 dereferenceable(48) %this1, ptr noundef nonnull align 8 dereferenceable(32) %1)
  %coerce.dive = getelementptr inbounds %"struct.std::_Rb_tree_iterator", ptr %__i, i32 0, i32 0
  store ptr %call, ptr %coerce.dive, align 8
  %call2 = call ptr @_ZNSt3mapINSt7__cxx1112basic_stringIcSt11char_traitsIcESaIcEEEiSt4lessIS5_ESaISt4pairIKS5_iEEE3endEv(ptr noundef nonnull align 8 dereferenceable(48) %this1) #14
  %coerce.dive3 = getelementptr inbounds %"struct.std::_Rb_tree_iterator", ptr %ref.tmp, i32 0, i32 0
  store ptr %call2, ptr %coerce.dive3, align 8
  %call4 = call noundef zeroext i1 @_ZSteqRKSt17_Rb_tree_iteratorISt4pairIKNSt7__cxx1112basic_stringIcSt11char_traitsIcESaIcEEEiEESB_(ptr noundef nonnull align 8 dereferenceable(8) %__i, ptr noundef nonnull align 8 dereferenceable(8) %ref.tmp) #14
  br i1 %call4, label %lor.end, label %lor.rhs

lor.rhs:                                          ; preds = %entry
  call void @_ZNKSt3mapINSt7__cxx1112basic_stringIcSt11char_traitsIcESaIcEEEiSt4lessIS5_ESaISt4pairIKS5_iEEE8key_compEv(ptr noundef nonnull align 8 dereferenceable(48) %this1)
  %2 = load ptr, ptr %__k, align 8
  %call6 = call noundef nonnull align 8 dereferenceable(36) ptr @_ZNKSt17_Rb_tree_iteratorISt4pairIKNSt7__cxx1112basic_stringIcSt11char_traitsIcESaIcEEEiEEdeEv(ptr noundef nonnull align 8 dereferenceable(8) %__i) #14
  %first7 = getelementptr inbounds %"struct.std::pair.95", ptr %call6, i32 0, i32 0
  %call8 = call noundef zeroext i1 @_ZNKSt4lessINSt7__cxx1112basic_stringIcSt11char_traitsIcESaIcEEEEclERKS5_S8_(ptr noundef nonnull align 1 dereferenceable(1) %ref.tmp5, ptr noundef nonnull align 8 dereferenceable(32) %2, ptr noundef nonnull align 8 dereferenceable(32) %first7)
  br label %lor.end

lor.end:                                          ; preds = %lor.rhs, %entry
  %3 = phi i1 [ true, %entry ], [ %call8, %lor.rhs ]
  br i1 %3, label %if.then, label %if.end

if.then:                                          ; preds = %lor.end
  call void @_ZNSt23_Rb_tree_const_iteratorISt4pairIKNSt7__cxx1112basic_stringIcSt11char_traitsIcESaIcEEEiEEC2ERKSt17_Rb_tree_iteratorIS8_E(ptr noundef nonnull align 8 dereferenceable(8) %agg.tmp, ptr noundef nonnull align 8 dereferenceable(8) %__i) #14
  %4 = load ptr, ptr %__x.addr, align 8
  %coerce.dive10 = getelementptr inbounds %"struct.std::_Rb_tree_const_iterator", ptr %agg.tmp, i32 0, i32 0
  %5 = load ptr, ptr %coerce.dive10, align 8
  %call11 = call ptr @_ZNSt3mapINSt7__cxx1112basic_stringIcSt11char_traitsIcESaIcEEEiSt4lessIS5_ESaISt4pairIKS5_iEEE12emplace_hintIJS8_IS5_iEEEESt17_Rb_tree_iteratorISA_ESt23_Rb_tree_const_iteratorISA_EDpOT_(ptr noundef nonnull align 8 dereferenceable(48) %this1, ptr %5, ptr noundef nonnull align 8 dereferenceable(36) %4)
  %coerce.dive12 = getelementptr inbounds %"struct.std::_Rb_tree_iterator", ptr %ref.tmp9, i32 0, i32 0
  store ptr %call11, ptr %coerce.dive12, align 8
  call void @llvm.memcpy.p0.p0.i64(ptr align 8 %__i, ptr align 8 %ref.tmp9, i64 8, i1 false)
  store i8 1, ptr %ref.tmp13, align 1
  call void @_ZNSt4pairISt17_Rb_tree_iteratorIS_IKNSt7__cxx1112basic_stringIcSt11char_traitsIcESaIcEEEiEEbEC2IRS9_bTnNSt9enable_ifIXaaclsr5_PCCPE22_MoveConstructiblePairIT_T0_EEclsr5_PCCPE30_ImplicitlyMoveConvertiblePairISE_SF_EEEbE4typeELb1EEEOSE_OSF_(ptr noundef nonnull align 8 dereferenceable(9) %retval, ptr noundef nonnull align 8 dereferenceable(8) %__i, ptr noundef nonnull align 1 dereferenceable(1) %ref.tmp13)
  br label %return

if.end:                                           ; preds = %lor.end
  store i8 0, ptr %ref.tmp14, align 1
  call void @_ZNSt4pairISt17_Rb_tree_iteratorIS_IKNSt7__cxx1112basic_stringIcSt11char_traitsIcESaIcEEEiEEbEC2IRS9_bTnNSt9enable_ifIXaaclsr5_PCCPE22_MoveConstructiblePairIT_T0_EEclsr5_PCCPE30_ImplicitlyMoveConvertiblePairISE_SF_EEEbE4typeELb1EEEOSE_OSF_(ptr noundef nonnull align 8 dereferenceable(9) %retval, ptr noundef nonnull align 8 dereferenceable(8) %__i, ptr noundef nonnull align 1 dereferenceable(1) %ref.tmp14)
  br label %return

return:                                           ; preds = %if.end, %if.then
  %6 = load { ptr, i8 }, ptr %retval, align 8
  ret { ptr, i8 } %6
}

; Function Attrs: mustprogress nounwind uwtable
define linkonce_odr noundef i64 @_ZNKSt6vectorIN7tinyobj10material_tESaIS1_EE4sizeEv(ptr noundef nonnull align 8 dereferenceable(24) %this) #0 comdat align 2 {
entry:
  %this.addr = alloca ptr, align 8
  store ptr %this, ptr %this.addr, align 8
  %this1 = load ptr, ptr %this.addr, align 8
  %_M_impl = getelementptr inbounds %"struct.std::_Vector_base", ptr %this1, i32 0, i32 0
  %_M_finish = getelementptr inbounds %"struct.std::_Vector_base<tinyobj::material_t, std::allocator<tinyobj::material_t>>::_Vector_impl_data", ptr %_M_impl, i32 0, i32 1
  %0 = load ptr, ptr %_M_finish, align 8
  %_M_impl2 = getelementptr inbounds %"struct.std::_Vector_base", ptr %this1, i32 0, i32 0
  %_M_start = getelementptr inbounds %"struct.std::_Vector_base<tinyobj::material_t, std::allocator<tinyobj::material_t>>::_Vector_impl_data", ptr %_M_impl2, i32 0, i32 0
  %1 = load ptr, ptr %_M_start, align 8
  %sub.ptr.lhs.cast = ptrtoint ptr %0 to i64
  %sub.ptr.rhs.cast = ptrtoint ptr %1 to i64
  %sub.ptr.sub = sub i64 %sub.ptr.lhs.cast, %sub.ptr.rhs.cast
  %sub.ptr.div = sdiv exact i64 %sub.ptr.sub, 1864
  ret i64 %sub.ptr.div
}

; Function Attrs: mustprogress uwtable
define linkonce_odr void @_ZNSt4pairINSt7__cxx1112basic_stringIcSt11char_traitsIcESaIcEEEiEC2IRS5_iTnNSt9enable_ifIXaaclsr5_PCCPE22_MoveConstructiblePairIT_T0_EEclsr5_PCCPE30_ImplicitlyMoveConvertiblePairISA_SB_EEEbE4typeELb1EEEOSA_OSB_(ptr noundef nonnull align 8 dereferenceable(36) %this, ptr noundef nonnull align 8 dereferenceable(32) %__x, ptr noundef nonnull align 4 dereferenceable(4) %__y) unnamed_addr #2 comdat align 2 {
entry:
  %this.addr = alloca ptr, align 8
  %__x.addr = alloca ptr, align 8
  %__y.addr = alloca ptr, align 8
  store ptr %this, ptr %this.addr, align 8
  store ptr %__x, ptr %__x.addr, align 8
  store ptr %__y, ptr %__y.addr, align 8
  %this1 = load ptr, ptr %this.addr, align 8
  %first = getelementptr inbounds %"struct.std::pair.8", ptr %this1, i32 0, i32 0
  %0 = load ptr, ptr %__x.addr, align 8
  call void @_ZNSt7__cxx1112basic_stringIcSt11char_traitsIcESaIcEEC1ERKS4_(ptr noundef nonnull align 8 dereferenceable(32) %first, ptr noundef nonnull align 8 dereferenceable(32) %0)
  %second = getelementptr inbounds %"struct.std::pair.8", ptr %this1, i32 0, i32 1
  %1 = load ptr, ptr %__y.addr, align 8
  %2 = load i32, ptr %1, align 4
  store i32 %2, ptr %second, align 8
  ret void
}

; Function Attrs: mustprogress nounwind uwtable
define linkonce_odr void @_ZNSt4pairINSt7__cxx1112basic_stringIcSt11char_traitsIcESaIcEEEiED2Ev(ptr noundef nonnull align 8 dereferenceable(36) %this) unnamed_addr #0 comdat align 2 {
entry:
  %this.addr = alloca ptr, align 8
  store ptr %this, ptr %this.addr, align 8
  %this1 = load ptr, ptr %this.addr, align 8
  %first = getelementptr inbounds %"struct.std::pair.8", ptr %this1, i32 0, i32 0
  call void @_ZNSt7__cxx1112basic_stringIcSt11char_traitsIcESaIcEED1Ev(ptr noundef nonnull align 8 dereferenceable(32) %first) #14
  ret void
}

; Function Attrs: mustprogress uwtable
define linkonce_odr void @_ZNSt6vectorIN7tinyobj10material_tESaIS1_EE9push_backERKS1_(ptr noundef nonnull align 8 dereferenceable(24) %this, ptr noundef nonnull align 8 dereferenceable(1864) %__x) #2 comdat align 2 {
entry:
  %this.addr = alloca ptr, align 8
  %__x.addr = alloca ptr, align 8
  %agg.tmp = alloca %"class.__gnu_cxx::__normal_iterator.130", align 8
  store ptr %this, ptr %this.addr, align 8
  store ptr %__x, ptr %__x.addr, align 8
  %this1 = load ptr, ptr %this.addr, align 8
  %_M_impl = getelementptr inbounds %"struct.std::_Vector_base", ptr %this1, i32 0, i32 0
  %_M_finish = getelementptr inbounds %"struct.std::_Vector_base<tinyobj::material_t, std::allocator<tinyobj::material_t>>::_Vector_impl_data", ptr %_M_impl, i32 0, i32 1
  %0 = load ptr, ptr %_M_finish, align 8
  %_M_impl2 = getelementptr inbounds %"struct.std::_Vector_base", ptr %this1, i32 0, i32 0
  %_M_end_of_storage = getelementptr inbounds %"struct.std::_Vector_base<tinyobj::material_t, std::allocator<tinyobj::material_t>>::_Vector_impl_data", ptr %_M_impl2, i32 0, i32 2
  %1 = load ptr, ptr %_M_end_of_storage, align 8
  %cmp = icmp ne ptr %0, %1
  br i1 %cmp, label %if.then, label %if.else

if.then:                                          ; preds = %entry
  %_M_impl3 = getelementptr inbounds %"struct.std::_Vector_base", ptr %this1, i32 0, i32 0
  %_M_impl4 = getelementptr inbounds %"struct.std::_Vector_base", ptr %this1, i32 0, i32 0
  %_M_finish5 = getelementptr inbounds %"struct.std::_Vector_base<tinyobj::material_t, std::allocator<tinyobj::material_t>>::_Vector_impl_data", ptr %_M_impl4, i32 0, i32 1
  %2 = load ptr, ptr %_M_finish5, align 8
  %3 = load ptr, ptr %__x.addr, align 8
  call void @_ZNSt16allocator_traitsISaIN7tinyobj10material_tEEE9constructIS1_JRKS1_EEEvRS2_PT_DpOT0_(ptr noundef nonnull align 1 dereferenceable(1) %_M_impl3, ptr noundef %2, ptr noundef nonnull align 8 dereferenceable(1864) %3)
  %_M_impl6 = getelementptr inbounds %"struct.std::_Vector_base", ptr %this1, i32 0, i32 0
  %_M_finish7 = getelementptr inbounds %"struct.std::_Vector_base<tinyobj::material_t, std::allocator<tinyobj::material_t>>::_Vector_impl_data", ptr %_M_impl6, i32 0, i32 1
  %4 = load ptr, ptr %_M_finish7, align 8
  %incdec.ptr = getelementptr inbounds %"struct.tinyobj::material_t", ptr %4, i32 1
  store ptr %incdec.ptr, ptr %_M_finish7, align 8
  br label %if.end

if.else:                                          ; preds = %entry
  %call = call ptr @_ZNSt6vectorIN7tinyobj10material_tESaIS1_EE3endEv(ptr noundef nonnull align 8 dereferenceable(24) %this1) #14
  %coerce.dive = getelementptr inbounds %"class.__gnu_cxx::__normal_iterator.130", ptr %agg.tmp, i32 0, i32 0
  store ptr %call, ptr %coerce.dive, align 8
  %5 = load ptr, ptr %__x.addr, align 8
  %coerce.dive8 = getelementptr inbounds %"class.__gnu_cxx::__normal_iterator.130", ptr %agg.tmp, i32 0, i32 0
  %6 = load ptr, ptr %coerce.dive8, align 8
  call void @_ZNSt6vectorIN7tinyobj10material_tESaIS1_EE17_M_realloc_insertIJRKS1_EEEvN9__gnu_cxx17__normal_iteratorIPS1_S3_EEDpOT_(ptr noundef nonnull align 8 dereferenceable(24) %this1, ptr %6, ptr noundef nonnull align 8 dereferenceable(1864) %5)
  br label %if.end

if.end:                                           ; preds = %if.else, %if.then
  ret void
}

declare noundef nonnull align 8 dereferenceable(32) ptr @_ZNSt7__cxx1112basic_stringIcSt11char_traitsIcESaIcEEpLEPKc(ptr noundef nonnull align 8 dereferenceable(32), ptr noundef) #5

declare noundef nonnull align 8 dereferenceable(8) ptr @_ZStlsISt11char_traitsIcEERSt13basic_ostreamIcT_ES5_PKc(ptr noundef nonnull align 8 dereferenceable(8), ptr noundef) #5

declare noundef nonnull align 8 dereferenceable(8) ptr @_ZStlsIcSt11char_traitsIcESaIcEERSt13basic_ostreamIT_T0_ES7_RKNSt7__cxx1112basic_stringIS4_S5_T1_EE(ptr noundef nonnull align 8 dereferenceable(8), ptr noundef nonnull align 8 dereferenceable(32)) #5

declare noundef nonnull align 8 dereferenceable(8) ptr @_ZNSolsEm(ptr noundef nonnull align 8 dereferenceable(8), i64 noundef) #5

declare noundef nonnull align 8 dereferenceable(32) ptr @_ZNSt7__cxx1112basic_stringIcSt11char_traitsIcESaIcEEaSEPKc(ptr noundef nonnull align 8 dereferenceable(32), ptr noundef) #5

; Function Attrs: nounwind willreturn memory(read)
declare noundef ptr @strchr(ptr noundef, i32 noundef) #4

declare void @_ZNSt7__cxx1112basic_stringIcSt11char_traitsIcESaIcEEC1EPKcmRKS3_(ptr noundef nonnull align 8 dereferenceable(32), ptr noundef, i64 noundef, ptr noundef nonnull align 1 dereferenceable(1)) unnamed_addr #5

; Function Attrs: mustprogress uwtable
define linkonce_odr { ptr, i8 } @_ZNSt3mapINSt7__cxx1112basic_stringIcSt11char_traitsIcESaIcEEES5_St4lessIS5_ESaISt4pairIKS5_S5_EEE6insertIS8_IS5_S5_EEENSt9enable_ifIXsr16is_constructibleISA_T_EE5valueES8_ISt17_Rb_tree_iteratorISA_EbEE4typeEOSG_(ptr noundef nonnull align 8 dereferenceable(48) %this, ptr noundef nonnull align 8 dereferenceable(64) %__x) #2 comdat align 2 {
entry:
  %retval = alloca %"struct.std::pair.14", align 8
  %this.addr = alloca ptr, align 8
  %__x.addr = alloca ptr, align 8
  %__k = alloca ptr, align 8
  %__i = alloca %"struct.std::_Rb_tree_iterator.16", align 8
  %ref.tmp = alloca %"struct.std::_Rb_tree_iterator.16", align 8
  %ref.tmp5 = alloca %"struct.std::less", align 1
  %ref.tmp9 = alloca %"struct.std::_Rb_tree_iterator.16", align 8
  %agg.tmp = alloca %"struct.std::_Rb_tree_const_iterator.131", align 8
  %ref.tmp13 = alloca i8, align 1
  %ref.tmp14 = alloca i8, align 1
  store ptr %this, ptr %this.addr, align 8
  store ptr %__x, ptr %__x.addr, align 8
  %this1 = load ptr, ptr %this.addr, align 8
  %0 = load ptr, ptr %__x.addr, align 8
  %first = getelementptr inbounds %"struct.std::pair.18", ptr %0, i32 0, i32 0
  store ptr %first, ptr %__k, align 8
  %1 = load ptr, ptr %__k, align 8
  %call = call ptr @_ZNSt3mapINSt7__cxx1112basic_stringIcSt11char_traitsIcESaIcEEES5_St4lessIS5_ESaISt4pairIKS5_S5_EEE11lower_boundERS9_(ptr noundef nonnull align 8 dereferenceable(48) %this1, ptr noundef nonnull align 8 dereferenceable(32) %1)
  %coerce.dive = getelementptr inbounds %"struct.std::_Rb_tree_iterator.16", ptr %__i, i32 0, i32 0
  store ptr %call, ptr %coerce.dive, align 8
  %call2 = call ptr @_ZNSt3mapINSt7__cxx1112basic_stringIcSt11char_traitsIcESaIcEEES5_St4lessIS5_ESaISt4pairIKS5_S5_EEE3endEv(ptr noundef nonnull align 8 dereferenceable(48) %this1) #14
  %coerce.dive3 = getelementptr inbounds %"struct.std::_Rb_tree_iterator.16", ptr %ref.tmp, i32 0, i32 0
  store ptr %call2, ptr %coerce.dive3, align 8
  %call4 = call noundef zeroext i1 @_ZSteqRKSt17_Rb_tree_iteratorISt4pairIKNSt7__cxx1112basic_stringIcSt11char_traitsIcESaIcEEES6_EESB_(ptr noundef nonnull align 8 dereferenceable(8) %__i, ptr noundef nonnull align 8 dereferenceable(8) %ref.tmp) #14
  br i1 %call4, label %lor.end, label %lor.rhs

lor.rhs:                                          ; preds = %entry
  call void @_ZNKSt3mapINSt7__cxx1112basic_stringIcSt11char_traitsIcESaIcEEES5_St4lessIS5_ESaISt4pairIKS5_S5_EEE8key_compEv(ptr noundef nonnull align 8 dereferenceable(48) %this1)
  %2 = load ptr, ptr %__k, align 8
  %call6 = call noundef nonnull align 8 dereferenceable(64) ptr @_ZNKSt17_Rb_tree_iteratorISt4pairIKNSt7__cxx1112basic_stringIcSt11char_traitsIcESaIcEEES6_EEdeEv(ptr noundef nonnull align 8 dereferenceable(8) %__i) #14
  %first7 = getelementptr inbounds %"struct.std::pair.107", ptr %call6, i32 0, i32 0
  %call8 = call noundef zeroext i1 @_ZNKSt4lessINSt7__cxx1112basic_stringIcSt11char_traitsIcESaIcEEEEclERKS5_S8_(ptr noundef nonnull align 1 dereferenceable(1) %ref.tmp5, ptr noundef nonnull align 8 dereferenceable(32) %2, ptr noundef nonnull align 8 dereferenceable(32) %first7)
  br label %lor.end

lor.end:                                          ; preds = %lor.rhs, %entry
  %3 = phi i1 [ true, %entry ], [ %call8, %lor.rhs ]
  br i1 %3, label %if.then, label %if.end

if.then:                                          ; preds = %lor.end
  call void @_ZNSt23_Rb_tree_const_iteratorISt4pairIKNSt7__cxx1112basic_stringIcSt11char_traitsIcESaIcEEES6_EEC2ERKSt17_Rb_tree_iteratorIS8_E(ptr noundef nonnull align 8 dereferenceable(8) %agg.tmp, ptr noundef nonnull align 8 dereferenceable(8) %__i) #14
  %4 = load ptr, ptr %__x.addr, align 8
  %coerce.dive10 = getelementptr inbounds %"struct.std::_Rb_tree_const_iterator.131", ptr %agg.tmp, i32 0, i32 0
  %5 = load ptr, ptr %coerce.dive10, align 8
  %call11 = call ptr @_ZNSt3mapINSt7__cxx1112basic_stringIcSt11char_traitsIcESaIcEEES5_St4lessIS5_ESaISt4pairIKS5_S5_EEE12emplace_hintIJS8_IS5_S5_EEEESt17_Rb_tree_iteratorISA_ESt23_Rb_tree_const_iteratorISA_EDpOT_(ptr noundef nonnull align 8 dereferenceable(48) %this1, ptr %5, ptr noundef nonnull align 8 dereferenceable(64) %4)
  %coerce.dive12 = getelementptr inbounds %"struct.std::_Rb_tree_iterator.16", ptr %ref.tmp9, i32 0, i32 0
  store ptr %call11, ptr %coerce.dive12, align 8
  call void @llvm.memcpy.p0.p0.i64(ptr align 8 %__i, ptr align 8 %ref.tmp9, i64 8, i1 false)
  store i8 1, ptr %ref.tmp13, align 1
  call void @_ZNSt4pairISt17_Rb_tree_iteratorIS_IKNSt7__cxx1112basic_stringIcSt11char_traitsIcESaIcEEES6_EEbEC2IRS9_bTnNSt9enable_ifIXaaclsr5_PCCPE22_MoveConstructiblePairIT_T0_EEclsr5_PCCPE30_ImplicitlyMoveConvertiblePairISE_SF_EEEbE4typeELb1EEEOSE_OSF_(ptr noundef nonnull align 8 dereferenceable(9) %retval, ptr noundef nonnull align 8 dereferenceable(8) %__i, ptr noundef nonnull align 1 dereferenceable(1) %ref.tmp13)
  br label %return

if.end:                                           ; preds = %lor.end
  store i8 0, ptr %ref.tmp14, align 1
  call void @_ZNSt4pairISt17_Rb_tree_iteratorIS_IKNSt7__cxx1112basic_stringIcSt11char_traitsIcESaIcEEES6_EEbEC2IRS9_bTnNSt9enable_ifIXaaclsr5_PCCPE22_MoveConstructiblePairIT_T0_EEclsr5_PCCPE30_ImplicitlyMoveConvertiblePairISE_SF_EEEbE4typeELb1EEEOSE_OSF_(ptr noundef nonnull align 8 dereferenceable(9) %retval, ptr noundef nonnull align 8 dereferenceable(8) %__i, ptr noundef nonnull align 1 dereferenceable(1) %ref.tmp14)
  br label %return

return:                                           ; preds = %if.end, %if.then
  %6 = load { ptr, i8 }, ptr %retval, align 8
  ret { ptr, i8 } %6
}

; Function Attrs: mustprogress uwtable
define linkonce_odr void @_ZNSt4pairINSt7__cxx1112basic_stringIcSt11char_traitsIcESaIcEEES5_EC2IRS5_S8_TnNSt9enable_ifIXaaclsr5_PCCPE22_MoveConstructiblePairIT_T0_EEclsr5_PCCPE30_ImplicitlyMoveConvertiblePairISA_SB_EEEbE4typeELb1EEEOSA_OSB_(ptr noundef nonnull align 8 dereferenceable(64) %this, ptr noundef nonnull align 8 dereferenceable(32) %__x, ptr noundef nonnull align 8 dereferenceable(32) %__y) unnamed_addr #2 comdat align 2 personality ptr @__gxx_personality_v0 {
entry:
  %this.addr = alloca ptr, align 8
  %__x.addr = alloca ptr, align 8
  %__y.addr = alloca ptr, align 8
  %exn.slot = alloca ptr, align 8
  %ehselector.slot = alloca i32, align 4
  store ptr %this, ptr %this.addr, align 8
  store ptr %__x, ptr %__x.addr, align 8
  store ptr %__y, ptr %__y.addr, align 8
  %this1 = load ptr, ptr %this.addr, align 8
  %first = getelementptr inbounds %"struct.std::pair.18", ptr %this1, i32 0, i32 0
  %0 = load ptr, ptr %__x.addr, align 8
  call void @_ZNSt7__cxx1112basic_stringIcSt11char_traitsIcESaIcEEC1ERKS4_(ptr noundef nonnull align 8 dereferenceable(32) %first, ptr noundef nonnull align 8 dereferenceable(32) %0)
  %second = getelementptr inbounds %"struct.std::pair.18", ptr %this1, i32 0, i32 1
  %1 = load ptr, ptr %__y.addr, align 8
  invoke void @_ZNSt7__cxx1112basic_stringIcSt11char_traitsIcESaIcEEC1ERKS4_(ptr noundef nonnull align 8 dereferenceable(32) %second, ptr noundef nonnull align 8 dereferenceable(32) %1)
          to label %invoke.cont unwind label %lpad

invoke.cont:                                      ; preds = %entry
  ret void

lpad:                                             ; preds = %entry
  %2 = landingpad { ptr, i32 }
          cleanup
  %3 = extractvalue { ptr, i32 } %2, 0
  store ptr %3, ptr %exn.slot, align 8
  %4 = extractvalue { ptr, i32 } %2, 1
  store i32 %4, ptr %ehselector.slot, align 4
  call void @_ZNSt7__cxx1112basic_stringIcSt11char_traitsIcESaIcEED1Ev(ptr noundef nonnull align 8 dereferenceable(32) %first) #14
  br label %eh.resume

eh.resume:                                        ; preds = %lpad
  %exn = load ptr, ptr %exn.slot, align 8
  %sel = load i32, ptr %ehselector.slot, align 4
  %lpad.val = insertvalue { ptr, i32 } poison, ptr %exn, 0
  %lpad.val2 = insertvalue { ptr, i32 } %lpad.val, i32 %sel, 1
  resume { ptr, i32 } %lpad.val2
}

; Function Attrs: mustprogress nounwind uwtable
define linkonce_odr void @_ZNSt4pairINSt7__cxx1112basic_stringIcSt11char_traitsIcESaIcEEES5_ED2Ev(ptr noundef nonnull align 8 dereferenceable(64) %this) unnamed_addr #0 comdat align 2 {
entry:
  %this.addr = alloca ptr, align 8
  store ptr %this, ptr %this.addr, align 8
  %this1 = load ptr, ptr %this.addr, align 8
  %second = getelementptr inbounds %"struct.std::pair.18", ptr %this1, i32 0, i32 1
  call void @_ZNSt7__cxx1112basic_stringIcSt11char_traitsIcESaIcEED1Ev(ptr noundef nonnull align 8 dereferenceable(32) %second) #14
  %first = getelementptr inbounds %"struct.std::pair.18", ptr %this1, i32 0, i32 0
  call void @_ZNSt7__cxx1112basic_stringIcSt11char_traitsIcESaIcEED1Ev(ptr noundef nonnull align 8 dereferenceable(32) %first) #14
  ret void
}

declare void @_ZNKSt7__cxx1118basic_stringstreamIcSt11char_traitsIcESaIcEE3strEv(ptr sret(%"class.std::__cxx11::basic_string") align 8, ptr noundef nonnull align 8 dereferenceable(128)) #5

; Function Attrs: nounwind
declare void @_ZNSt7__cxx1118basic_stringstreamIcSt11char_traitsIcESaIcEED1Ev(ptr noundef nonnull align 8 dereferenceable(128)) unnamed_addr #3

; Function Attrs: mustprogress nounwind uwtable
define linkonce_odr void @_ZN7tinyobj10material_tD2Ev(ptr noundef nonnull align 8 dereferenceable(1864) %this) unnamed_addr #0 comdat align 2 {
entry:
  %this.addr = alloca ptr, align 8
  store ptr %this, ptr %this.addr, align 8
  %this1 = load ptr, ptr %this.addr, align 8
  %unknown_parameter = getelementptr inbounds %"struct.tinyobj::material_t", ptr %this1, i32 0, i32 46
  call void @_ZNSt3mapINSt7__cxx1112basic_stringIcSt11char_traitsIcESaIcEEES5_St4lessIS5_ESaISt4pairIKS5_S5_EEED2Ev(ptr noundef nonnull align 8 dereferenceable(48) %unknown_parameter) #14
  %normal_texopt = getelementptr inbounds %"struct.tinyobj::material_t", ptr %this1, i32 0, i32 44
  call void @_ZN7tinyobj16texture_option_tD2Ev(ptr noundef nonnull align 8 dereferenceable(96) %normal_texopt) #14
  %emissive_texopt = getelementptr inbounds %"struct.tinyobj::material_t", ptr %this1, i32 0, i32 43
  call void @_ZN7tinyobj16texture_option_tD2Ev(ptr noundef nonnull align 8 dereferenceable(96) %emissive_texopt) #14
  %sheen_texopt = getelementptr inbounds %"struct.tinyobj::material_t", ptr %this1, i32 0, i32 42
  call void @_ZN7tinyobj16texture_option_tD2Ev(ptr noundef nonnull align 8 dereferenceable(96) %sheen_texopt) #14
  %metallic_texopt = getelementptr inbounds %"struct.tinyobj::material_t", ptr %this1, i32 0, i32 41
  call void @_ZN7tinyobj16texture_option_tD2Ev(ptr noundef nonnull align 8 dereferenceable(96) %metallic_texopt) #14
  %roughness_texopt = getelementptr inbounds %"struct.tinyobj::material_t", ptr %this1, i32 0, i32 40
  call void @_ZN7tinyobj16texture_option_tD2Ev(ptr noundef nonnull align 8 dereferenceable(96) %roughness_texopt) #14
  %normal_texname = getelementptr inbounds %"struct.tinyobj::material_t", ptr %this1, i32 0, i32 39
  call void @_ZNSt7__cxx1112basic_stringIcSt11char_traitsIcESaIcEED1Ev(ptr noundef nonnull align 8 dereferenceable(32) %normal_texname) #14
  %emissive_texname = getelementptr inbounds %"struct.tinyobj::material_t", ptr %this1, i32 0, i32 38
  call void @_ZNSt7__cxx1112basic_stringIcSt11char_traitsIcESaIcEED1Ev(ptr noundef nonnull align 8 dereferenceable(32) %emissive_texname) #14
  %sheen_texname = getelementptr inbounds %"struct.tinyobj::material_t", ptr %this1, i32 0, i32 37
  call void @_ZNSt7__cxx1112basic_stringIcSt11char_traitsIcESaIcEED1Ev(ptr noundef nonnull align 8 dereferenceable(32) %sheen_texname) #14
  %metallic_texname = getelementptr inbounds %"struct.tinyobj::material_t", ptr %this1, i32 0, i32 36
  call void @_ZNSt7__cxx1112basic_stringIcSt11char_traitsIcESaIcEED1Ev(ptr noundef nonnull align 8 dereferenceable(32) %metallic_texname) #14
  %roughness_texname = getelementptr inbounds %"struct.tinyobj::material_t", ptr %this1, i32 0, i32 35
  call void @_ZNSt7__cxx1112basic_stringIcSt11char_traitsIcESaIcEED1Ev(ptr noundef nonnull align 8 dereferenceable(32) %roughness_texname) #14
  %reflection_texopt = getelementptr inbounds %"struct.tinyobj::material_t", ptr %this1, i32 0, i32 26
  call void @_ZN7tinyobj16texture_option_tD2Ev(ptr noundef nonnull align 8 dereferenceable(96) %reflection_texopt) #14
  %alpha_texopt = getelementptr inbounds %"struct.tinyobj::material_t", ptr %this1, i32 0, i32 25
  call void @_ZN7tinyobj16texture_option_tD2Ev(ptr noundef nonnull align 8 dereferenceable(96) %alpha_texopt) #14
  %displacement_texopt = getelementptr inbounds %"struct.tinyobj::material_t", ptr %this1, i32 0, i32 24
  call void @_ZN7tinyobj16texture_option_tD2Ev(ptr noundef nonnull align 8 dereferenceable(96) %displacement_texopt) #14
  %bump_texopt = getelementptr inbounds %"struct.tinyobj::material_t", ptr %this1, i32 0, i32 23
  call void @_ZN7tinyobj16texture_option_tD2Ev(ptr noundef nonnull align 8 dereferenceable(96) %bump_texopt) #14
  %specular_highlight_texopt = getelementptr inbounds %"struct.tinyobj::material_t", ptr %this1, i32 0, i32 22
  call void @_ZN7tinyobj16texture_option_tD2Ev(ptr noundef nonnull align 8 dereferenceable(96) %specular_highlight_texopt) #14
  %specular_texopt = getelementptr inbounds %"struct.tinyobj::material_t", ptr %this1, i32 0, i32 21
  call void @_ZN7tinyobj16texture_option_tD2Ev(ptr noundef nonnull align 8 dereferenceable(96) %specular_texopt) #14
  %diffuse_texopt = getelementptr inbounds %"struct.tinyobj::material_t", ptr %this1, i32 0, i32 20
  call void @_ZN7tinyobj16texture_option_tD2Ev(ptr noundef nonnull align 8 dereferenceable(96) %diffuse_texopt) #14
  %ambient_texopt = getelementptr inbounds %"struct.tinyobj::material_t", ptr %this1, i32 0, i32 19
  call void @_ZN7tinyobj16texture_option_tD2Ev(ptr noundef nonnull align 8 dereferenceable(96) %ambient_texopt) #14
  %reflection_texname = getelementptr inbounds %"struct.tinyobj::material_t", ptr %this1, i32 0, i32 18
  call void @_ZNSt7__cxx1112basic_stringIcSt11char_traitsIcESaIcEED1Ev(ptr noundef nonnull align 8 dereferenceable(32) %reflection_texname) #14
  %alpha_texname = getelementptr inbounds %"struct.tinyobj::material_t", ptr %this1, i32 0, i32 17
  call void @_ZNSt7__cxx1112basic_stringIcSt11char_traitsIcESaIcEED1Ev(ptr noundef nonnull align 8 dereferenceable(32) %alpha_texname) #14
  %displacement_texname = getelementptr inbounds %"struct.tinyobj::material_t", ptr %this1, i32 0, i32 16
  call void @_ZNSt7__cxx1112basic_stringIcSt11char_traitsIcESaIcEED1Ev(ptr noundef nonnull align 8 dereferenceable(32) %displacement_texname) #14
  %bump_texname = getelementptr inbounds %"struct.tinyobj::material_t", ptr %this1, i32 0, i32 15
  call void @_ZNSt7__cxx1112basic_stringIcSt11char_traitsIcESaIcEED1Ev(ptr noundef nonnull align 8 dereferenceable(32) %bump_texname) #14
  %specular_highlight_texname = getelementptr inbounds %"struct.tinyobj::material_t", ptr %this1, i32 0, i32 14
  call void @_ZNSt7__cxx1112basic_stringIcSt11char_traitsIcESaIcEED1Ev(ptr noundef nonnull align 8 dereferenceable(32) %specular_highlight_texname) #14
  %specular_texname = getelementptr inbounds %"struct.tinyobj::material_t", ptr %this1, i32 0, i32 13
  call void @_ZNSt7__cxx1112basic_stringIcSt11char_traitsIcESaIcEED1Ev(ptr noundef nonnull align 8 dereferenceable(32) %specular_texname) #14
  %diffuse_texname = getelementptr inbounds %"struct.tinyobj::material_t", ptr %this1, i32 0, i32 12
  call void @_ZNSt7__cxx1112basic_stringIcSt11char_traitsIcESaIcEED1Ev(ptr noundef nonnull align 8 dereferenceable(32) %diffuse_texname) #14
  %ambient_texname = getelementptr inbounds %"struct.tinyobj::material_t", ptr %this1, i32 0, i32 11
  call void @_ZNSt7__cxx1112basic_stringIcSt11char_traitsIcESaIcEED1Ev(ptr noundef nonnull align 8 dereferenceable(32) %ambient_texname) #14
  %name = getelementptr inbounds %"struct.tinyobj::material_t", ptr %this1, i32 0, i32 0
  call void @_ZNSt7__cxx1112basic_stringIcSt11char_traitsIcESaIcEED1Ev(ptr noundef nonnull align 8 dereferenceable(32) %name) #14
  ret void
}

; Function Attrs: mustprogress uwtable
define noundef zeroext i1 @_ZN7tinyobj18MaterialFileReaderclERKNSt7__cxx1112basic_stringIcSt11char_traitsIcESaIcEEEPSt6vectorINS_10material_tESaISA_EEPSt3mapIS6_iSt4lessIS6_ESaISt4pairIS7_iEEEPS6_SM_(ptr noundef nonnull align 8 dereferenceable(40) %this, ptr noundef nonnull align 8 dereferenceable(32) %matId, ptr noundef %materials, ptr noundef %matMap, ptr noundef %warn, ptr noundef %err) unnamed_addr #2 align 2 personality ptr @__gxx_personality_v0 {
entry:
  %retval = alloca i1, align 1
  %this.addr = alloca ptr, align 8
  %matId.addr = alloca ptr, align 8
  %materials.addr = alloca ptr, align 8
  %matMap.addr = alloca ptr, align 8
  %warn.addr = alloca ptr, align 8
  %err.addr = alloca ptr, align 8
  %sep = alloca i8, align 1
  %paths = alloca %"class.std::vector.20", align 8
  %f = alloca %"class.std::__cxx11::basic_istringstream", align 8
  %exn.slot = alloca ptr, align 8
  %ehselector.slot = alloca i32, align 4
  %s = alloca %"class.std::__cxx11::basic_string", align 8
  %i = alloca i64, align 8
  %filepath = alloca %"class.std::__cxx11::basic_string", align 8
  %matIStream = alloca %"class.std::basic_ifstream", align 8
  %cleanup.dest.slot = alloca i32, align 4
  %ss = alloca %"class.std::__cxx11::basic_stringstream", align 8
  %ref.tmp = alloca %"class.std::__cxx11::basic_string", align 8
  %filepath54 = alloca %"class.std::__cxx11::basic_string", align 8
  %matIStream55 = alloca %"class.std::basic_ifstream", align 8
  %ss69 = alloca %"class.std::__cxx11::basic_stringstream", align 8
  %ref.tmp86 = alloca %"class.std::__cxx11::basic_string", align 8
  store ptr %this, ptr %this.addr, align 8
  store ptr %matId, ptr %matId.addr, align 8
  store ptr %materials, ptr %materials.addr, align 8
  store ptr %matMap, ptr %matMap.addr, align 8
  store ptr %warn, ptr %warn.addr, align 8
  store ptr %err, ptr %err.addr, align 8
  %this1 = load ptr, ptr %this.addr, align 8
  %m_mtlBaseDir = getelementptr inbounds %"class.tinyobj::MaterialFileReader", ptr %this1, i32 0, i32 1
  %call = call noundef zeroext i1 @_ZNKSt7__cxx1112basic_stringIcSt11char_traitsIcESaIcEE5emptyEv(ptr noundef nonnull align 8 dereferenceable(32) %m_mtlBaseDir) #14
  br i1 %call, label %if.else, label %if.then

if.then:                                          ; preds = %entry
  store i8 58, ptr %sep, align 1
  call void @_ZNSt6vectorINSt7__cxx1112basic_stringIcSt11char_traitsIcESaIcEEESaIS5_EEC2Ev(ptr noundef nonnull align 8 dereferenceable(24) %paths) #14
  %m_mtlBaseDir2 = getelementptr inbounds %"class.tinyobj::MaterialFileReader", ptr %this1, i32 0, i32 1
  invoke void @_ZNSt7__cxx1119basic_istringstreamIcSt11char_traitsIcESaIcEEC1ERKNS_12basic_stringIcS2_S3_EESt13_Ios_Openmode(ptr noundef nonnull align 8 dereferenceable(120) %f, ptr noundef nonnull align 8 dereferenceable(32) %m_mtlBaseDir2, i32 noundef 8)
          to label %invoke.cont unwind label %lpad

invoke.cont:                                      ; preds = %if.then
  call void @_ZNSt7__cxx1112basic_stringIcSt11char_traitsIcESaIcEEC1Ev(ptr noundef nonnull align 8 dereferenceable(32) %s) #14
  br label %while.cond

while.cond:                                       ; preds = %invoke.cont8, %invoke.cont
  %0 = load i8, ptr %sep, align 1
  %call5 = invoke noundef nonnull align 8 dereferenceable(16) ptr @_ZSt7getlineIcSt11char_traitsIcESaIcEERSt13basic_istreamIT_T0_ES7_RNSt7__cxx1112basic_stringIS4_S5_T1_EES4_(ptr noundef nonnull align 8 dereferenceable(16) %f, ptr noundef nonnull align 8 dereferenceable(32) %s, i8 noundef signext %0)
          to label %invoke.cont4 unwind label %lpad3

invoke.cont4:                                     ; preds = %while.cond
  %vtable = load ptr, ptr %call5, align 8
  %vbase.offset.ptr = getelementptr i8, ptr %vtable, i64 -24
  %vbase.offset = load i64, ptr %vbase.offset.ptr, align 8
  %add.ptr = getelementptr inbounds i8, ptr %call5, i64 %vbase.offset
  %call7 = invoke noundef zeroext i1 @_ZNKSt9basic_iosIcSt11char_traitsIcEEcvbEv(ptr noundef nonnull align 8 dereferenceable(264) %add.ptr)
          to label %invoke.cont6 unwind label %lpad3

invoke.cont6:                                     ; preds = %invoke.cont4
  br i1 %call7, label %while.body, label %while.end

while.body:                                       ; preds = %invoke.cont6
  invoke void @_ZNSt6vectorINSt7__cxx1112basic_stringIcSt11char_traitsIcESaIcEEESaIS5_EE9push_backERKS5_(ptr noundef nonnull align 8 dereferenceable(24) %paths, ptr noundef nonnull align 8 dereferenceable(32) %s)
          to label %invoke.cont8 unwind label %lpad3

invoke.cont8:                                     ; preds = %while.body
  br label %while.cond, !llvm.loop !9

lpad:                                             ; preds = %if.then
  %1 = landingpad { ptr, i32 }
          cleanup
  %2 = extractvalue { ptr, i32 } %1, 0
  store ptr %2, ptr %exn.slot, align 8
  %3 = extractvalue { ptr, i32 } %1, 1
  store i32 %3, ptr %ehselector.slot, align 4
  br label %ehcleanup53

lpad3:                                            ; preds = %for.end, %for.body, %while.body, %invoke.cont4, %while.cond
  %4 = landingpad { ptr, i32 }
          cleanup
  %5 = extractvalue { ptr, i32 } %4, 0
  store ptr %5, ptr %exn.slot, align 8
  %6 = extractvalue { ptr, i32 } %4, 1
  store i32 %6, ptr %ehselector.slot, align 4
  br label %ehcleanup49

while.end:                                        ; preds = %invoke.cont6
  store i64 0, ptr %i, align 8
  br label %for.cond

for.cond:                                         ; preds = %for.inc, %while.end
  %7 = load i64, ptr %i, align 8
  %call9 = call noundef i64 @_ZNKSt6vectorINSt7__cxx1112basic_stringIcSt11char_traitsIcESaIcEEESaIS5_EE4sizeEv(ptr noundef nonnull align 8 dereferenceable(24) %paths) #14
  %cmp = icmp ult i64 %7, %call9
  br i1 %cmp, label %for.body, label %for.end

for.body:                                         ; preds = %for.cond
  %8 = load i64, ptr %i, align 8
  %call10 = call noundef nonnull align 8 dereferenceable(32) ptr @_ZNSt6vectorINSt7__cxx1112basic_stringIcSt11char_traitsIcESaIcEEESaIS5_EEixEm(ptr noundef nonnull align 8 dereferenceable(24) %paths, i64 noundef %8) #14
  %9 = load ptr, ptr %matId.addr, align 8
  invoke void @_ZN7tinyobjL8JoinPathERKNSt7__cxx1112basic_stringIcSt11char_traitsIcESaIcEEES7_(ptr sret(%"class.std::__cxx11::basic_string") align 8 %filepath, ptr noundef nonnull align 8 dereferenceable(32) %call10, ptr noundef nonnull align 8 dereferenceable(32) %9)
          to label %invoke.cont11 unwind label %lpad3

invoke.cont11:                                    ; preds = %for.body
  %call12 = call noundef ptr @_ZNKSt7__cxx1112basic_stringIcSt11char_traitsIcESaIcEE5c_strEv(ptr noundef nonnull align 8 dereferenceable(32) %filepath) #14
  invoke void @_ZNSt14basic_ifstreamIcSt11char_traitsIcEEC1EPKcSt13_Ios_Openmode(ptr noundef nonnull align 8 dereferenceable(256) %matIStream, ptr noundef %call12, i32 noundef 8)
          to label %invoke.cont14 unwind label %lpad13

invoke.cont14:                                    ; preds = %invoke.cont11
  %vtable15 = load ptr, ptr %matIStream, align 8
  %vbase.offset.ptr16 = getelementptr i8, ptr %vtable15, i64 -24
  %vbase.offset17 = load i64, ptr %vbase.offset.ptr16, align 8
  %add.ptr18 = getelementptr inbounds i8, ptr %matIStream, i64 %vbase.offset17
  %call21 = invoke noundef zeroext i1 @_ZNKSt9basic_iosIcSt11char_traitsIcEEcvbEv(ptr noundef nonnull align 8 dereferenceable(264) %add.ptr18)
          to label %invoke.cont20 unwind label %lpad19

invoke.cont20:                                    ; preds = %invoke.cont14
  br i1 %call21, label %if.then22, label %if.end

if.then22:                                        ; preds = %invoke.cont20
  %10 = load ptr, ptr %matMap.addr, align 8
  %11 = load ptr, ptr %materials.addr, align 8
  %12 = load ptr, ptr %warn.addr, align 8
  %13 = load ptr, ptr %err.addr, align 8
  invoke void @_ZN7tinyobj7LoadMtlEPSt3mapINSt7__cxx1112basic_stringIcSt11char_traitsIcESaIcEEEiSt4lessIS6_ESaISt4pairIKS6_iEEEPSt6vectorINS_10material_tESaISG_EEPSiPS6_SL_(ptr noundef %10, ptr noundef %11, ptr noundef %matIStream, ptr noundef %12, ptr noundef %13)
          to label %invoke.cont23 unwind label %lpad19

invoke.cont23:                                    ; preds = %if.then22
  store i1 true, ptr %retval, align 1
  store i32 1, ptr %cleanup.dest.slot, align 4
  br label %cleanup

lpad13:                                           ; preds = %invoke.cont11
  %14 = landingpad { ptr, i32 }
          cleanup
  %15 = extractvalue { ptr, i32 } %14, 0
  store ptr %15, ptr %exn.slot, align 8
  %16 = extractvalue { ptr, i32 } %14, 1
  store i32 %16, ptr %ehselector.slot, align 4
  br label %ehcleanup

lpad19:                                           ; preds = %if.then22, %invoke.cont14
  %17 = landingpad { ptr, i32 }
          cleanup
  %18 = extractvalue { ptr, i32 } %17, 0
  store ptr %18, ptr %exn.slot, align 8
  %19 = extractvalue { ptr, i32 } %17, 1
  store i32 %19, ptr %ehselector.slot, align 4
  call void @_ZNSt14basic_ifstreamIcSt11char_traitsIcEED1Ev(ptr noundef nonnull align 8 dereferenceable(256) %matIStream) #14
  br label %ehcleanup

if.end:                                           ; preds = %invoke.cont20
  store i32 0, ptr %cleanup.dest.slot, align 4
  br label %cleanup

cleanup:                                          ; preds = %if.end, %invoke.cont23
  call void @_ZNSt14basic_ifstreamIcSt11char_traitsIcEED1Ev(ptr noundef nonnull align 8 dereferenceable(256) %matIStream) #14
  call void @_ZNSt7__cxx1112basic_stringIcSt11char_traitsIcESaIcEED1Ev(ptr noundef nonnull align 8 dereferenceable(32) %filepath) #14
  %cleanup.dest = load i32, ptr %cleanup.dest.slot, align 4
  switch i32 %cleanup.dest, label %cleanup48 [
    i32 0, label %cleanup.cont
  ]

cleanup.cont:                                     ; preds = %cleanup
  br label %for.inc

for.inc:                                          ; preds = %cleanup.cont
  %20 = load i64, ptr %i, align 8
  %inc = add i64 %20, 1
  store i64 %inc, ptr %i, align 8
  br label %for.cond, !llvm.loop !10

ehcleanup:                                        ; preds = %lpad19, %lpad13
  call void @_ZNSt7__cxx1112basic_stringIcSt11char_traitsIcESaIcEED1Ev(ptr noundef nonnull align 8 dereferenceable(32) %filepath) #14
  br label %ehcleanup49

for.end:                                          ; preds = %for.cond
  invoke void @_ZNSt7__cxx1118basic_stringstreamIcSt11char_traitsIcESaIcEEC1Ev(ptr noundef nonnull align 8 dereferenceable(128) %ss)
          to label %invoke.cont25 unwind label %lpad3

invoke.cont25:                                    ; preds = %for.end
  %add.ptr26 = getelementptr inbounds i8, ptr %ss, i64 16
  %call29 = invoke noundef nonnull align 8 dereferenceable(8) ptr @_ZStlsISt11char_traitsIcEERSt13basic_ostreamIcT_ES5_PKc(ptr noundef nonnull align 8 dereferenceable(8) %add.ptr26, ptr noundef @.str.41)
          to label %invoke.cont28 unwind label %lpad27

invoke.cont28:                                    ; preds = %invoke.cont25
  %21 = load ptr, ptr %matId.addr, align 8
  %call31 = invoke noundef nonnull align 8 dereferenceable(8) ptr @_ZStlsIcSt11char_traitsIcESaIcEERSt13basic_ostreamIT_T0_ES7_RKNSt7__cxx1112basic_stringIS4_S5_T1_EE(ptr noundef nonnull align 8 dereferenceable(8) %call29, ptr noundef nonnull align 8 dereferenceable(32) %21)
          to label %invoke.cont30 unwind label %lpad27

invoke.cont30:                                    ; preds = %invoke.cont28
  %call33 = invoke noundef nonnull align 8 dereferenceable(8) ptr @_ZStlsISt11char_traitsIcEERSt13basic_ostreamIcT_ES5_PKc(ptr noundef nonnull align 8 dereferenceable(8) %call31, ptr noundef @.str.42)
          to label %invoke.cont32 unwind label %lpad27

invoke.cont32:                                    ; preds = %invoke.cont30
  %m_mtlBaseDir34 = getelementptr inbounds %"class.tinyobj::MaterialFileReader", ptr %this1, i32 0, i32 1
  %call36 = invoke noundef nonnull align 8 dereferenceable(8) ptr @_ZStlsIcSt11char_traitsIcESaIcEERSt13basic_ostreamIT_T0_ES7_RKNSt7__cxx1112basic_stringIS4_S5_T1_EE(ptr noundef nonnull align 8 dereferenceable(8) %call33, ptr noundef nonnull align 8 dereferenceable(32) %m_mtlBaseDir34)
          to label %invoke.cont35 unwind label %lpad27

invoke.cont35:                                    ; preds = %invoke.cont32
  %call38 = invoke noundef nonnull align 8 dereferenceable(8) ptr @_ZStlsISt11char_traitsIcEERSt13basic_ostreamIcT_ES5_PKc(ptr noundef nonnull align 8 dereferenceable(8) %call36, ptr noundef @.str.43)
          to label %invoke.cont37 unwind label %lpad27

invoke.cont37:                                    ; preds = %invoke.cont35
  %22 = load ptr, ptr %warn.addr, align 8
  %tobool = icmp ne ptr %22, null
  br i1 %tobool, label %if.then39, label %if.end45

if.then39:                                        ; preds = %invoke.cont37
  invoke void @_ZNKSt7__cxx1118basic_stringstreamIcSt11char_traitsIcESaIcEE3strEv(ptr sret(%"class.std::__cxx11::basic_string") align 8 %ref.tmp, ptr noundef nonnull align 8 dereferenceable(128) %ss)
          to label %invoke.cont40 unwind label %lpad27

invoke.cont40:                                    ; preds = %if.then39
  %23 = load ptr, ptr %warn.addr, align 8
  %call43 = invoke noundef nonnull align 8 dereferenceable(32) ptr @_ZNSt7__cxx1112basic_stringIcSt11char_traitsIcESaIcEEpLERKS4_(ptr noundef nonnull align 8 dereferenceable(32) %23, ptr noundef nonnull align 8 dereferenceable(32) %ref.tmp)
          to label %invoke.cont42 unwind label %lpad41

invoke.cont42:                                    ; preds = %invoke.cont40
  call void @_ZNSt7__cxx1112basic_stringIcSt11char_traitsIcESaIcEED1Ev(ptr noundef nonnull align 8 dereferenceable(32) %ref.tmp) #14
  br label %if.end45

lpad27:                                           ; preds = %if.then39, %invoke.cont35, %invoke.cont32, %invoke.cont30, %invoke.cont28, %invoke.cont25
  %24 = landingpad { ptr, i32 }
          cleanup
  %25 = extractvalue { ptr, i32 } %24, 0
  store ptr %25, ptr %exn.slot, align 8
  %26 = extractvalue { ptr, i32 } %24, 1
  store i32 %26, ptr %ehselector.slot, align 4
  br label %ehcleanup47

lpad41:                                           ; preds = %invoke.cont40
  %27 = landingpad { ptr, i32 }
          cleanup
  %28 = extractvalue { ptr, i32 } %27, 0
  store ptr %28, ptr %exn.slot, align 8
  %29 = extractvalue { ptr, i32 } %27, 1
  store i32 %29, ptr %ehselector.slot, align 4
  call void @_ZNSt7__cxx1112basic_stringIcSt11char_traitsIcESaIcEED1Ev(ptr noundef nonnull align 8 dereferenceable(32) %ref.tmp) #14
  br label %ehcleanup47

if.end45:                                         ; preds = %invoke.cont42, %invoke.cont37
  store i1 false, ptr %retval, align 1
  store i32 1, ptr %cleanup.dest.slot, align 4
  call void @_ZNSt7__cxx1118basic_stringstreamIcSt11char_traitsIcESaIcEED1Ev(ptr noundef nonnull align 8 dereferenceable(128) %ss) #14
  br label %cleanup48

ehcleanup47:                                      ; preds = %lpad41, %lpad27
  call void @_ZNSt7__cxx1118basic_stringstreamIcSt11char_traitsIcESaIcEED1Ev(ptr noundef nonnull align 8 dereferenceable(128) %ss) #14
  br label %ehcleanup49

cleanup48:                                        ; preds = %if.end45, %cleanup
  call void @_ZNSt7__cxx1112basic_stringIcSt11char_traitsIcESaIcEED1Ev(ptr noundef nonnull align 8 dereferenceable(32) %s) #14
  call void @_ZNSt7__cxx1119basic_istringstreamIcSt11char_traitsIcESaIcEED1Ev(ptr noundef nonnull align 8 dereferenceable(120) %f) #14
  call void @_ZNSt6vectorINSt7__cxx1112basic_stringIcSt11char_traitsIcESaIcEEESaIS5_EED2Ev(ptr noundef nonnull align 8 dereferenceable(24) %paths) #14
  br label %return

ehcleanup49:                                      ; preds = %ehcleanup47, %ehcleanup, %lpad3
  call void @_ZNSt7__cxx1112basic_stringIcSt11char_traitsIcESaIcEED1Ev(ptr noundef nonnull align 8 dereferenceable(32) %s) #14
  call void @_ZNSt7__cxx1119basic_istringstreamIcSt11char_traitsIcESaIcEED1Ev(ptr noundef nonnull align 8 dereferenceable(120) %f) #14
  br label %ehcleanup53

ehcleanup53:                                      ; preds = %ehcleanup49, %lpad
  call void @_ZNSt6vectorINSt7__cxx1112basic_stringIcSt11char_traitsIcESaIcEEESaIS5_EED2Ev(ptr noundef nonnull align 8 dereferenceable(24) %paths) #14
  br label %eh.resume

if.else:                                          ; preds = %entry
  %30 = load ptr, ptr %matId.addr, align 8
  call void @_ZNSt7__cxx1112basic_stringIcSt11char_traitsIcESaIcEEC1ERKS4_(ptr noundef nonnull align 8 dereferenceable(32) %filepath54, ptr noundef nonnull align 8 dereferenceable(32) %30)
  %call56 = call noundef ptr @_ZNKSt7__cxx1112basic_stringIcSt11char_traitsIcESaIcEE5c_strEv(ptr noundef nonnull align 8 dereferenceable(32) %filepath54) #14
  invoke void @_ZNSt14basic_ifstreamIcSt11char_traitsIcEEC1EPKcSt13_Ios_Openmode(ptr noundef nonnull align 8 dereferenceable(256) %matIStream55, ptr noundef %call56, i32 noundef 8)
          to label %invoke.cont58 unwind label %lpad57

invoke.cont58:                                    ; preds = %if.else
  %vtable59 = load ptr, ptr %matIStream55, align 8
  %vbase.offset.ptr60 = getelementptr i8, ptr %vtable59, i64 -24
  %vbase.offset61 = load i64, ptr %vbase.offset.ptr60, align 8
  %add.ptr62 = getelementptr inbounds i8, ptr %matIStream55, i64 %vbase.offset61
  %call65 = invoke noundef zeroext i1 @_ZNKSt9basic_iosIcSt11char_traitsIcEEcvbEv(ptr noundef nonnull align 8 dereferenceable(264) %add.ptr62)
          to label %invoke.cont64 unwind label %lpad63

invoke.cont64:                                    ; preds = %invoke.cont58
  br i1 %call65, label %if.then66, label %if.end68

if.then66:                                        ; preds = %invoke.cont64
  %31 = load ptr, ptr %matMap.addr, align 8
  %32 = load ptr, ptr %materials.addr, align 8
  %33 = load ptr, ptr %warn.addr, align 8
  %34 = load ptr, ptr %err.addr, align 8
  invoke void @_ZN7tinyobj7LoadMtlEPSt3mapINSt7__cxx1112basic_stringIcSt11char_traitsIcESaIcEEEiSt4lessIS6_ESaISt4pairIKS6_iEEEPSt6vectorINS_10material_tESaISG_EEPSiPS6_SL_(ptr noundef %31, ptr noundef %32, ptr noundef %matIStream55, ptr noundef %33, ptr noundef %34)
          to label %invoke.cont67 unwind label %lpad63

invoke.cont67:                                    ; preds = %if.then66
  store i1 true, ptr %retval, align 1
  store i32 1, ptr %cleanup.dest.slot, align 4
  br label %cleanup95

lpad57:                                           ; preds = %if.else
  %35 = landingpad { ptr, i32 }
          cleanup
  %36 = extractvalue { ptr, i32 } %35, 0
  store ptr %36, ptr %exn.slot, align 8
  %37 = extractvalue { ptr, i32 } %35, 1
  store i32 %37, ptr %ehselector.slot, align 4
  br label %ehcleanup98

lpad63:                                           ; preds = %if.end68, %if.then66, %invoke.cont58
  %38 = landingpad { ptr, i32 }
          cleanup
  %39 = extractvalue { ptr, i32 } %38, 0
  store ptr %39, ptr %exn.slot, align 8
  %40 = extractvalue { ptr, i32 } %38, 1
  store i32 %40, ptr %ehselector.slot, align 4
  br label %ehcleanup96

if.end68:                                         ; preds = %invoke.cont64
  invoke void @_ZNSt7__cxx1118basic_stringstreamIcSt11char_traitsIcESaIcEEC1Ev(ptr noundef nonnull align 8 dereferenceable(128) %ss69)
          to label %invoke.cont70 unwind label %lpad63

invoke.cont70:                                    ; preds = %if.end68
  %add.ptr71 = getelementptr inbounds i8, ptr %ss69, i64 16
  %call74 = invoke noundef nonnull align 8 dereferenceable(8) ptr @_ZStlsISt11char_traitsIcEERSt13basic_ostreamIcT_ES5_PKc(ptr noundef nonnull align 8 dereferenceable(8) %add.ptr71, ptr noundef @.str.41)
          to label %invoke.cont73 unwind label %lpad72

invoke.cont73:                                    ; preds = %invoke.cont70
  %call76 = invoke noundef nonnull align 8 dereferenceable(8) ptr @_ZStlsIcSt11char_traitsIcESaIcEERSt13basic_ostreamIT_T0_ES7_RKNSt7__cxx1112basic_stringIS4_S5_T1_EE(ptr noundef nonnull align 8 dereferenceable(8) %call74, ptr noundef nonnull align 8 dereferenceable(32) %filepath54)
          to label %invoke.cont75 unwind label %lpad72

invoke.cont75:                                    ; preds = %invoke.cont73
  %call78 = invoke noundef nonnull align 8 dereferenceable(8) ptr @_ZStlsISt11char_traitsIcEERSt13basic_ostreamIcT_ES5_PKc(ptr noundef nonnull align 8 dereferenceable(8) %call76, ptr noundef @.str.42)
          to label %invoke.cont77 unwind label %lpad72

invoke.cont77:                                    ; preds = %invoke.cont75
  %m_mtlBaseDir79 = getelementptr inbounds %"class.tinyobj::MaterialFileReader", ptr %this1, i32 0, i32 1
  %call81 = invoke noundef nonnull align 8 dereferenceable(8) ptr @_ZStlsIcSt11char_traitsIcESaIcEERSt13basic_ostreamIT_T0_ES7_RKNSt7__cxx1112basic_stringIS4_S5_T1_EE(ptr noundef nonnull align 8 dereferenceable(8) %call78, ptr noundef nonnull align 8 dereferenceable(32) %m_mtlBaseDir79)
          to label %invoke.cont80 unwind label %lpad72

invoke.cont80:                                    ; preds = %invoke.cont77
  %call83 = invoke noundef nonnull align 8 dereferenceable(8) ptr @_ZStlsISt11char_traitsIcEERSt13basic_ostreamIcT_ES5_PKc(ptr noundef nonnull align 8 dereferenceable(8) %call81, ptr noundef @.str.43)
          to label %invoke.cont82 unwind label %lpad72

invoke.cont82:                                    ; preds = %invoke.cont80
  %41 = load ptr, ptr %warn.addr, align 8
  %tobool84 = icmp ne ptr %41, null
  br i1 %tobool84, label %if.then85, label %if.end92

if.then85:                                        ; preds = %invoke.cont82
  invoke void @_ZNKSt7__cxx1118basic_stringstreamIcSt11char_traitsIcESaIcEE3strEv(ptr sret(%"class.std::__cxx11::basic_string") align 8 %ref.tmp86, ptr noundef nonnull align 8 dereferenceable(128) %ss69)
          to label %invoke.cont87 unwind label %lpad72

invoke.cont87:                                    ; preds = %if.then85
  %42 = load ptr, ptr %warn.addr, align 8
  %call90 = invoke noundef nonnull align 8 dereferenceable(32) ptr @_ZNSt7__cxx1112basic_stringIcSt11char_traitsIcESaIcEEpLERKS4_(ptr noundef nonnull align 8 dereferenceable(32) %42, ptr noundef nonnull align 8 dereferenceable(32) %ref.tmp86)
          to label %invoke.cont89 unwind label %lpad88

invoke.cont89:                                    ; preds = %invoke.cont87
  call void @_ZNSt7__cxx1112basic_stringIcSt11char_traitsIcESaIcEED1Ev(ptr noundef nonnull align 8 dereferenceable(32) %ref.tmp86) #14
  br label %if.end92

lpad72:                                           ; preds = %if.then85, %invoke.cont80, %invoke.cont77, %invoke.cont75, %invoke.cont73, %invoke.cont70
  %43 = landingpad { ptr, i32 }
          cleanup
  %44 = extractvalue { ptr, i32 } %43, 0
  store ptr %44, ptr %exn.slot, align 8
  %45 = extractvalue { ptr, i32 } %43, 1
  store i32 %45, ptr %ehselector.slot, align 4
  br label %ehcleanup94

lpad88:                                           ; preds = %invoke.cont87
  %46 = landingpad { ptr, i32 }
          cleanup
  %47 = extractvalue { ptr, i32 } %46, 0
  store ptr %47, ptr %exn.slot, align 8
  %48 = extractvalue { ptr, i32 } %46, 1
  store i32 %48, ptr %ehselector.slot, align 4
  call void @_ZNSt7__cxx1112basic_stringIcSt11char_traitsIcESaIcEED1Ev(ptr noundef nonnull align 8 dereferenceable(32) %ref.tmp86) #14
  br label %ehcleanup94

if.end92:                                         ; preds = %invoke.cont89, %invoke.cont82
  store i1 false, ptr %retval, align 1
  store i32 1, ptr %cleanup.dest.slot, align 4
  call void @_ZNSt7__cxx1118basic_stringstreamIcSt11char_traitsIcESaIcEED1Ev(ptr noundef nonnull align 8 dereferenceable(128) %ss69) #14
  br label %cleanup95

ehcleanup94:                                      ; preds = %lpad88, %lpad72
  call void @_ZNSt7__cxx1118basic_stringstreamIcSt11char_traitsIcESaIcEED1Ev(ptr noundef nonnull align 8 dereferenceable(128) %ss69) #14
  br label %ehcleanup96

cleanup95:                                        ; preds = %if.end92, %invoke.cont67
  call void @_ZNSt14basic_ifstreamIcSt11char_traitsIcEED1Ev(ptr noundef nonnull align 8 dereferenceable(256) %matIStream55) #14
  call void @_ZNSt7__cxx1112basic_stringIcSt11char_traitsIcESaIcEED1Ev(ptr noundef nonnull align 8 dereferenceable(32) %filepath54) #14
  br label %return

ehcleanup96:                                      ; preds = %ehcleanup94, %lpad63
  call void @_ZNSt14basic_ifstreamIcSt11char_traitsIcEED1Ev(ptr noundef nonnull align 8 dereferenceable(256) %matIStream55) #14
  br label %ehcleanup98

ehcleanup98:                                      ; preds = %ehcleanup96, %lpad57
  call void @_ZNSt7__cxx1112basic_stringIcSt11char_traitsIcESaIcEED1Ev(ptr noundef nonnull align 8 dereferenceable(32) %filepath54) #14
  br label %eh.resume

return:                                           ; preds = %cleanup95, %cleanup48
  %49 = load i1, ptr %retval, align 1
  ret i1 %49

eh.resume:                                        ; preds = %ehcleanup98, %ehcleanup53
  %exn = load ptr, ptr %exn.slot, align 8
  %sel = load i32, ptr %ehselector.slot, align 4
  %lpad.val = insertvalue { ptr, i32 } poison, ptr %exn, 0
  %lpad.val99 = insertvalue { ptr, i32 } %lpad.val, i32 %sel, 1
  resume { ptr, i32 } %lpad.val99
}

; Function Attrs: mustprogress nounwind uwtable
define linkonce_odr void @_ZNSt6vectorINSt7__cxx1112basic_stringIcSt11char_traitsIcESaIcEEESaIS5_EEC2Ev(ptr noundef nonnull align 8 dereferenceable(24) %this) unnamed_addr #0 comdat align 2 {
entry:
  %this.addr = alloca ptr, align 8
  store ptr %this, ptr %this.addr, align 8
  %this1 = load ptr, ptr %this.addr, align 8
  call void @_ZNSt12_Vector_baseINSt7__cxx1112basic_stringIcSt11char_traitsIcESaIcEEESaIS5_EEC2Ev(ptr noundef nonnull align 8 dereferenceable(24) %this1) #14
  ret void
}

declare void @_ZNSt7__cxx1119basic_istringstreamIcSt11char_traitsIcESaIcEEC1ERKNS_12basic_stringIcS2_S3_EESt13_Ios_Openmode(ptr noundef nonnull align 8 dereferenceable(120), ptr noundef nonnull align 8 dereferenceable(32), i32 noundef) unnamed_addr #5

declare noundef nonnull align 8 dereferenceable(16) ptr @_ZSt7getlineIcSt11char_traitsIcESaIcEERSt13basic_istreamIT_T0_ES7_RNSt7__cxx1112basic_stringIS4_S5_T1_EES4_(ptr noundef nonnull align 8 dereferenceable(16), ptr noundef nonnull align 8 dereferenceable(32), i8 noundef signext) #5

declare noundef zeroext i1 @_ZNKSt9basic_iosIcSt11char_traitsIcEEcvbEv(ptr noundef nonnull align 8 dereferenceable(264)) #5

; Function Attrs: mustprogress uwtable
define linkonce_odr void @_ZNSt6vectorINSt7__cxx1112basic_stringIcSt11char_traitsIcESaIcEEESaIS5_EE9push_backERKS5_(ptr noundef nonnull align 8 dereferenceable(24) %this, ptr noundef nonnull align 8 dereferenceable(32) %__x) #2 comdat align 2 {
entry:
  %this.addr = alloca ptr, align 8
  %__x.addr = alloca ptr, align 8
  %agg.tmp = alloca %"class.__gnu_cxx::__normal_iterator.120", align 8
  store ptr %this, ptr %this.addr, align 8
  store ptr %__x, ptr %__x.addr, align 8
  %this1 = load ptr, ptr %this.addr, align 8
  %_M_impl = getelementptr inbounds %"struct.std::_Vector_base.21", ptr %this1, i32 0, i32 0
  %_M_finish = getelementptr inbounds %"struct.std::_Vector_base<std::__cxx11::basic_string<char>, std::allocator<std::__cxx11::basic_string<char>>>::_Vector_impl_data", ptr %_M_impl, i32 0, i32 1
  %0 = load ptr, ptr %_M_finish, align 8
  %_M_impl2 = getelementptr inbounds %"struct.std::_Vector_base.21", ptr %this1, i32 0, i32 0
  %_M_end_of_storage = getelementptr inbounds %"struct.std::_Vector_base<std::__cxx11::basic_string<char>, std::allocator<std::__cxx11::basic_string<char>>>::_Vector_impl_data", ptr %_M_impl2, i32 0, i32 2
  %1 = load ptr, ptr %_M_end_of_storage, align 8
  %cmp = icmp ne ptr %0, %1
  br i1 %cmp, label %if.then, label %if.else

if.then:                                          ; preds = %entry
  %_M_impl3 = getelementptr inbounds %"struct.std::_Vector_base.21", ptr %this1, i32 0, i32 0
  %_M_impl4 = getelementptr inbounds %"struct.std::_Vector_base.21", ptr %this1, i32 0, i32 0
  %_M_finish5 = getelementptr inbounds %"struct.std::_Vector_base<std::__cxx11::basic_string<char>, std::allocator<std::__cxx11::basic_string<char>>>::_Vector_impl_data", ptr %_M_impl4, i32 0, i32 1
  %2 = load ptr, ptr %_M_finish5, align 8
  %3 = load ptr, ptr %__x.addr, align 8
  call void @_ZNSt16allocator_traitsISaINSt7__cxx1112basic_stringIcSt11char_traitsIcESaIcEEEEE9constructIS5_JRKS5_EEEvRS6_PT_DpOT0_(ptr noundef nonnull align 1 dereferenceable(1) %_M_impl3, ptr noundef %2, ptr noundef nonnull align 8 dereferenceable(32) %3)
  %_M_impl6 = getelementptr inbounds %"struct.std::_Vector_base.21", ptr %this1, i32 0, i32 0
  %_M_finish7 = getelementptr inbounds %"struct.std::_Vector_base<std::__cxx11::basic_string<char>, std::allocator<std::__cxx11::basic_string<char>>>::_Vector_impl_data", ptr %_M_impl6, i32 0, i32 1
  %4 = load ptr, ptr %_M_finish7, align 8
  %incdec.ptr = getelementptr inbounds %"class.std::__cxx11::basic_string", ptr %4, i32 1
  store ptr %incdec.ptr, ptr %_M_finish7, align 8
  br label %if.end

if.else:                                          ; preds = %entry
  %call = call ptr @_ZNSt6vectorINSt7__cxx1112basic_stringIcSt11char_traitsIcESaIcEEESaIS5_EE3endEv(ptr noundef nonnull align 8 dereferenceable(24) %this1) #14
  %coerce.dive = getelementptr inbounds %"class.__gnu_cxx::__normal_iterator.120", ptr %agg.tmp, i32 0, i32 0
  store ptr %call, ptr %coerce.dive, align 8
  %5 = load ptr, ptr %__x.addr, align 8
  %coerce.dive8 = getelementptr inbounds %"class.__gnu_cxx::__normal_iterator.120", ptr %agg.tmp, i32 0, i32 0
  %6 = load ptr, ptr %coerce.dive8, align 8
  call void @_ZNSt6vectorINSt7__cxx1112basic_stringIcSt11char_traitsIcESaIcEEESaIS5_EE17_M_realloc_insertIJRKS5_EEEvN9__gnu_cxx17__normal_iteratorIPS5_S7_EEDpOT_(ptr noundef nonnull align 8 dereferenceable(24) %this1, ptr %6, ptr noundef nonnull align 8 dereferenceable(32) %5)
  br label %if.end

if.end:                                           ; preds = %if.else, %if.then
  ret void
}

; Function Attrs: mustprogress nounwind uwtable
define linkonce_odr noundef i64 @_ZNKSt6vectorINSt7__cxx1112basic_stringIcSt11char_traitsIcESaIcEEESaIS5_EE4sizeEv(ptr noundef nonnull align 8 dereferenceable(24) %this) #0 comdat align 2 {
entry:
  %this.addr = alloca ptr, align 8
  store ptr %this, ptr %this.addr, align 8
  %this1 = load ptr, ptr %this.addr, align 8
  %_M_impl = getelementptr inbounds %"struct.std::_Vector_base.21", ptr %this1, i32 0, i32 0
  %_M_finish = getelementptr inbounds %"struct.std::_Vector_base<std::__cxx11::basic_string<char>, std::allocator<std::__cxx11::basic_string<char>>>::_Vector_impl_data", ptr %_M_impl, i32 0, i32 1
  %0 = load ptr, ptr %_M_finish, align 8
  %_M_impl2 = getelementptr inbounds %"struct.std::_Vector_base.21", ptr %this1, i32 0, i32 0
  %_M_start = getelementptr inbounds %"struct.std::_Vector_base<std::__cxx11::basic_string<char>, std::allocator<std::__cxx11::basic_string<char>>>::_Vector_impl_data", ptr %_M_impl2, i32 0, i32 0
  %1 = load ptr, ptr %_M_start, align 8
  %sub.ptr.lhs.cast = ptrtoint ptr %0 to i64
  %sub.ptr.rhs.cast = ptrtoint ptr %1 to i64
  %sub.ptr.sub = sub i64 %sub.ptr.lhs.cast, %sub.ptr.rhs.cast
  %sub.ptr.div = sdiv exact i64 %sub.ptr.sub, 32
  ret i64 %sub.ptr.div
}

; Function Attrs: mustprogress uwtable
define internal void @_ZN7tinyobjL8JoinPathERKNSt7__cxx1112basic_stringIcSt11char_traitsIcESaIcEEES7_(ptr noalias sret(%"class.std::__cxx11::basic_string") align 8 %agg.result, ptr noundef nonnull align 8 dereferenceable(32) %dir, ptr noundef nonnull align 8 dereferenceable(32) %filename) #2 personality ptr @__gxx_personality_v0 {
entry:
  %result.ptr = alloca ptr, align 8
  %dir.addr = alloca ptr, align 8
  %filename.addr = alloca ptr, align 8
  %lastChar = alloca i8, align 1
  %ref.tmp = alloca %"class.std::reverse_iterator", align 8
  %ref.tmp3 = alloca %"class.std::__cxx11::basic_string", align 8
  %ref.tmp4 = alloca %"class.std::__cxx11::basic_string", align 8
  %ref.tmp5 = alloca %"class.std::allocator", align 1
  %exn.slot = alloca ptr, align 8
  %ehselector.slot = alloca i32, align 4
  store ptr %agg.result, ptr %result.ptr, align 8
  store ptr %dir, ptr %dir.addr, align 8
  store ptr %filename, ptr %filename.addr, align 8
  %0 = load ptr, ptr %dir.addr, align 8
  %call = call noundef zeroext i1 @_ZNKSt7__cxx1112basic_stringIcSt11char_traitsIcESaIcEE5emptyEv(ptr noundef nonnull align 8 dereferenceable(32) %0) #14
  br i1 %call, label %if.then, label %if.else

if.then:                                          ; preds = %entry
  %1 = load ptr, ptr %filename.addr, align 8
  call void @_ZNSt7__cxx1112basic_stringIcSt11char_traitsIcESaIcEEC1ERKS4_(ptr noundef nonnull align 8 dereferenceable(32) %agg.result, ptr noundef nonnull align 8 dereferenceable(32) %1)
  br label %return

if.else:                                          ; preds = %entry
  %2 = load ptr, ptr %dir.addr, align 8
  call void @_ZNKSt7__cxx1112basic_stringIcSt11char_traitsIcESaIcEE6rbeginEv(ptr sret(%"class.std::reverse_iterator") align 8 %ref.tmp, ptr noundef nonnull align 8 dereferenceable(32) %2) #14
  %call1 = call noundef nonnull align 1 dereferenceable(1) ptr @_ZNKSt16reverse_iteratorIN9__gnu_cxx17__normal_iteratorIPKcNSt7__cxx1112basic_stringIcSt11char_traitsIcESaIcEEEEEEdeEv(ptr noundef nonnull align 8 dereferenceable(8) %ref.tmp)
  %3 = load i8, ptr %call1, align 1
  store i8 %3, ptr %lastChar, align 1
  %4 = load i8, ptr %lastChar, align 1
  %conv = sext i8 %4 to i32
  %cmp = icmp ne i32 %conv, 47
  br i1 %cmp, label %if.then2, label %if.else11

if.then2:                                         ; preds = %if.else
  %5 = load ptr, ptr %dir.addr, align 8
  call void @_ZNSaIcEC1Ev(ptr noundef nonnull align 1 dereferenceable(1) %ref.tmp5) #14
  invoke void @_ZNSt7__cxx1112basic_stringIcSt11char_traitsIcESaIcEEC2IS3_EEPKcRKS3_(ptr noundef nonnull align 8 dereferenceable(32) %ref.tmp4, ptr noundef @.str.79, ptr noundef nonnull align 1 dereferenceable(1) %ref.tmp5)
          to label %invoke.cont unwind label %lpad

invoke.cont:                                      ; preds = %if.then2
  invoke void @_ZStplIcSt11char_traitsIcESaIcEENSt7__cxx1112basic_stringIT_T0_T1_EERKS8_OS8_(ptr sret(%"class.std::__cxx11::basic_string") align 8 %ref.tmp3, ptr noundef nonnull align 8 dereferenceable(32) %5, ptr noundef nonnull align 8 dereferenceable(32) %ref.tmp4)
          to label %invoke.cont7 unwind label %lpad6

invoke.cont7:                                     ; preds = %invoke.cont
  %6 = load ptr, ptr %filename.addr, align 8
  invoke void @_ZStplIcSt11char_traitsIcESaIcEENSt7__cxx1112basic_stringIT_T0_T1_EEOS8_RKS8_(ptr sret(%"class.std::__cxx11::basic_string") align 8 %agg.result, ptr noundef nonnull align 8 dereferenceable(32) %ref.tmp3, ptr noundef nonnull align 8 dereferenceable(32) %6)
          to label %invoke.cont9 unwind label %lpad8

invoke.cont9:                                     ; preds = %invoke.cont7
  call void @_ZNSt7__cxx1112basic_stringIcSt11char_traitsIcESaIcEED1Ev(ptr noundef nonnull align 8 dereferenceable(32) %ref.tmp3) #14
  call void @_ZNSt7__cxx1112basic_stringIcSt11char_traitsIcESaIcEED1Ev(ptr noundef nonnull align 8 dereferenceable(32) %ref.tmp4) #14
  call void @_ZNSaIcED1Ev(ptr noundef nonnull align 1 dereferenceable(1) %ref.tmp5) #14
  br label %return

lpad:                                             ; preds = %if.then2
  %7 = landingpad { ptr, i32 }
          cleanup
  %8 = extractvalue { ptr, i32 } %7, 0
  store ptr %8, ptr %exn.slot, align 8
  %9 = extractvalue { ptr, i32 } %7, 1
  store i32 %9, ptr %ehselector.slot, align 4
  br label %ehcleanup10

lpad6:                                            ; preds = %invoke.cont
  %10 = landingpad { ptr, i32 }
          cleanup
  %11 = extractvalue { ptr, i32 } %10, 0
  store ptr %11, ptr %exn.slot, align 8
  %12 = extractvalue { ptr, i32 } %10, 1
  store i32 %12, ptr %ehselector.slot, align 4
  br label %ehcleanup

lpad8:                                            ; preds = %invoke.cont7
  %13 = landingpad { ptr, i32 }
          cleanup
  %14 = extractvalue { ptr, i32 } %13, 0
  store ptr %14, ptr %exn.slot, align 8
  %15 = extractvalue { ptr, i32 } %13, 1
  store i32 %15, ptr %ehselector.slot, align 4
  call void @_ZNSt7__cxx1112basic_stringIcSt11char_traitsIcESaIcEED1Ev(ptr noundef nonnull align 8 dereferenceable(32) %ref.tmp3) #14
  br label %ehcleanup

ehcleanup:                                        ; preds = %lpad8, %lpad6
  call void @_ZNSt7__cxx1112basic_stringIcSt11char_traitsIcESaIcEED1Ev(ptr noundef nonnull align 8 dereferenceable(32) %ref.tmp4) #14
  br label %ehcleanup10

ehcleanup10:                                      ; preds = %ehcleanup, %lpad
  call void @_ZNSaIcED1Ev(ptr noundef nonnull align 1 dereferenceable(1) %ref.tmp5) #14
  br label %eh.resume

if.else11:                                        ; preds = %if.else
  %16 = load ptr, ptr %dir.addr, align 8
  %17 = load ptr, ptr %filename.addr, align 8
  call void @_ZStplIcSt11char_traitsIcESaIcEENSt7__cxx1112basic_stringIT_T0_T1_EERKS8_SA_(ptr sret(%"class.std::__cxx11::basic_string") align 8 %agg.result, ptr noundef nonnull align 8 dereferenceable(32) %16, ptr noundef nonnull align 8 dereferenceable(32) %17)
  br label %return

return:                                           ; preds = %if.else11, %invoke.cont9, %if.then
  ret void

eh.resume:                                        ; preds = %ehcleanup10
  %exn = load ptr, ptr %exn.slot, align 8
  %sel = load i32, ptr %ehselector.slot, align 4
  %lpad.val = insertvalue { ptr, i32 } poison, ptr %exn, 0
  %lpad.val12 = insertvalue { ptr, i32 } %lpad.val, i32 %sel, 1
  resume { ptr, i32 } %lpad.val12
}

; Function Attrs: mustprogress nounwind uwtable
define linkonce_odr noundef nonnull align 8 dereferenceable(32) ptr @_ZNSt6vectorINSt7__cxx1112basic_stringIcSt11char_traitsIcESaIcEEESaIS5_EEixEm(ptr noundef nonnull align 8 dereferenceable(24) %this, i64 noundef %__n) #0 comdat align 2 {
entry:
  %this.addr = alloca ptr, align 8
  %__n.addr = alloca i64, align 8
  store ptr %this, ptr %this.addr, align 8
  store i64 %__n, ptr %__n.addr, align 8
  %this1 = load ptr, ptr %this.addr, align 8
  %_M_impl = getelementptr inbounds %"struct.std::_Vector_base.21", ptr %this1, i32 0, i32 0
  %_M_start = getelementptr inbounds %"struct.std::_Vector_base<std::__cxx11::basic_string<char>, std::allocator<std::__cxx11::basic_string<char>>>::_Vector_impl_data", ptr %_M_impl, i32 0, i32 0
  %0 = load ptr, ptr %_M_start, align 8
  %1 = load i64, ptr %__n.addr, align 8
  %add.ptr = getelementptr inbounds %"class.std::__cxx11::basic_string", ptr %0, i64 %1
  ret ptr %add.ptr
}

declare void @_ZNSt14basic_ifstreamIcSt11char_traitsIcEEC1EPKcSt13_Ios_Openmode(ptr noundef nonnull align 8 dereferenceable(256), ptr noundef, i32 noundef) unnamed_addr #5

; Function Attrs: nounwind
declare void @_ZNSt14basic_ifstreamIcSt11char_traitsIcEED1Ev(ptr noundef nonnull align 8 dereferenceable(256)) unnamed_addr #3

declare noundef nonnull align 8 dereferenceable(32) ptr @_ZNSt7__cxx1112basic_stringIcSt11char_traitsIcESaIcEEpLERKS4_(ptr noundef nonnull align 8 dereferenceable(32), ptr noundef nonnull align 8 dereferenceable(32)) #5

; Function Attrs: nounwind
declare void @_ZNSt7__cxx1119basic_istringstreamIcSt11char_traitsIcESaIcEED1Ev(ptr noundef nonnull align 8 dereferenceable(120)) unnamed_addr #3

; Function Attrs: mustprogress nounwind uwtable
define linkonce_odr void @_ZNSt6vectorINSt7__cxx1112basic_stringIcSt11char_traitsIcESaIcEEESaIS5_EED2Ev(ptr noundef nonnull align 8 dereferenceable(24) %this) unnamed_addr #0 comdat align 2 personality ptr @__gxx_personality_v0 {
entry:
  %this.addr = alloca ptr, align 8
  store ptr %this, ptr %this.addr, align 8
  %this1 = load ptr, ptr %this.addr, align 8
  %_M_impl = getelementptr inbounds %"struct.std::_Vector_base.21", ptr %this1, i32 0, i32 0
  %_M_start = getelementptr inbounds %"struct.std::_Vector_base<std::__cxx11::basic_string<char>, std::allocator<std::__cxx11::basic_string<char>>>::_Vector_impl_data", ptr %_M_impl, i32 0, i32 0
  %0 = load ptr, ptr %_M_start, align 8
  %_M_impl2 = getelementptr inbounds %"struct.std::_Vector_base.21", ptr %this1, i32 0, i32 0
  %_M_finish = getelementptr inbounds %"struct.std::_Vector_base<std::__cxx11::basic_string<char>, std::allocator<std::__cxx11::basic_string<char>>>::_Vector_impl_data", ptr %_M_impl2, i32 0, i32 1
  %1 = load ptr, ptr %_M_finish, align 8
  %call = call noundef nonnull align 1 dereferenceable(1) ptr @_ZNSt12_Vector_baseINSt7__cxx1112basic_stringIcSt11char_traitsIcESaIcEEESaIS5_EE19_M_get_Tp_allocatorEv(ptr noundef nonnull align 8 dereferenceable(24) %this1) #14
  invoke void @_ZSt8_DestroyIPNSt7__cxx1112basic_stringIcSt11char_traitsIcESaIcEEES5_EvT_S7_RSaIT0_E(ptr noundef %0, ptr noundef %1, ptr noundef nonnull align 1 dereferenceable(1) %call)
          to label %invoke.cont unwind label %terminate.lpad

invoke.cont:                                      ; preds = %entry
  call void @_ZNSt12_Vector_baseINSt7__cxx1112basic_stringIcSt11char_traitsIcESaIcEEESaIS5_EED2Ev(ptr noundef nonnull align 8 dereferenceable(24) %this1) #14
  ret void

terminate.lpad:                                   ; preds = %entry
  %2 = landingpad { ptr, i32 }
          catch ptr null
  %3 = extractvalue { ptr, i32 } %2, 0
  call void @__clang_call_terminate(ptr %3) #13
  unreachable
}

declare void @_ZNSt7__cxx1112basic_stringIcSt11char_traitsIcESaIcEEC1ERKS4_(ptr noundef nonnull align 8 dereferenceable(32), ptr noundef nonnull align 8 dereferenceable(32)) unnamed_addr #5

; Function Attrs: mustprogress uwtable
define noundef zeroext i1 @_ZN7tinyobj20MaterialStreamReaderclERKNSt7__cxx1112basic_stringIcSt11char_traitsIcESaIcEEEPSt6vectorINS_10material_tESaISA_EEPSt3mapIS6_iSt4lessIS6_ESaISt4pairIS7_iEEEPS6_SM_(ptr noundef nonnull align 8 dereferenceable(16) %this, ptr noundef nonnull align 8 dereferenceable(32) %matId, ptr noundef %materials, ptr noundef %matMap, ptr noundef %warn, ptr noundef %err) unnamed_addr #2 align 2 personality ptr @__gxx_personality_v0 {
entry:
  %retval = alloca i1, align 1
  %this.addr = alloca ptr, align 8
  %matId.addr = alloca ptr, align 8
  %materials.addr = alloca ptr, align 8
  %matMap.addr = alloca ptr, align 8
  %warn.addr = alloca ptr, align 8
  %err.addr = alloca ptr, align 8
  %ss = alloca %"class.std::__cxx11::basic_stringstream", align 8
  %exn.slot = alloca ptr, align 8
  %ehselector.slot = alloca i32, align 4
  %ref.tmp = alloca %"class.std::__cxx11::basic_string", align 8
  store ptr %this, ptr %this.addr, align 8
  store ptr %matId, ptr %matId.addr, align 8
  store ptr %materials, ptr %materials.addr, align 8
  store ptr %matMap, ptr %matMap.addr, align 8
  store ptr %warn, ptr %warn.addr, align 8
  store ptr %err, ptr %err.addr, align 8
  %this1 = load ptr, ptr %this.addr, align 8
  %m_inStream = getelementptr inbounds %"class.tinyobj::MaterialStreamReader", ptr %this1, i32 0, i32 1
  %0 = load ptr, ptr %m_inStream, align 8
  %vtable = load ptr, ptr %0, align 8
  %vbase.offset.ptr = getelementptr i8, ptr %vtable, i64 -24
  %vbase.offset = load i64, ptr %vbase.offset.ptr, align 8
  %add.ptr = getelementptr inbounds i8, ptr %0, i64 %vbase.offset
  %call = call noundef zeroext i1 @_ZNKSt9basic_iosIcSt11char_traitsIcEEntEv(ptr noundef nonnull align 8 dereferenceable(264) %add.ptr)
  br i1 %call, label %if.then, label %if.end9

if.then:                                          ; preds = %entry
  call void @_ZNSt7__cxx1118basic_stringstreamIcSt11char_traitsIcESaIcEEC1Ev(ptr noundef nonnull align 8 dereferenceable(128) %ss)
  %add.ptr2 = getelementptr inbounds i8, ptr %ss, i64 16
  %call3 = invoke noundef nonnull align 8 dereferenceable(8) ptr @_ZStlsISt11char_traitsIcEERSt13basic_ostreamIcT_ES5_PKc(ptr noundef nonnull align 8 dereferenceable(8) %add.ptr2, ptr noundef @.str.44)
          to label %invoke.cont unwind label %lpad

invoke.cont:                                      ; preds = %if.then
  %1 = load ptr, ptr %warn.addr, align 8
  %tobool = icmp ne ptr %1, null
  br i1 %tobool, label %if.then4, label %if.end

if.then4:                                         ; preds = %invoke.cont
  invoke void @_ZNKSt7__cxx1118basic_stringstreamIcSt11char_traitsIcESaIcEE3strEv(ptr sret(%"class.std::__cxx11::basic_string") align 8 %ref.tmp, ptr noundef nonnull align 8 dereferenceable(128) %ss)
          to label %invoke.cont5 unwind label %lpad

invoke.cont5:                                     ; preds = %if.then4
  %2 = load ptr, ptr %warn.addr, align 8
  %call8 = invoke noundef nonnull align 8 dereferenceable(32) ptr @_ZNSt7__cxx1112basic_stringIcSt11char_traitsIcESaIcEEpLERKS4_(ptr noundef nonnull align 8 dereferenceable(32) %2, ptr noundef nonnull align 8 dereferenceable(32) %ref.tmp)
          to label %invoke.cont7 unwind label %lpad6

invoke.cont7:                                     ; preds = %invoke.cont5
  call void @_ZNSt7__cxx1112basic_stringIcSt11char_traitsIcESaIcEED1Ev(ptr noundef nonnull align 8 dereferenceable(32) %ref.tmp) #14
  br label %if.end

lpad:                                             ; preds = %if.then4, %if.then
  %3 = landingpad { ptr, i32 }
          cleanup
  %4 = extractvalue { ptr, i32 } %3, 0
  store ptr %4, ptr %exn.slot, align 8
  %5 = extractvalue { ptr, i32 } %3, 1
  store i32 %5, ptr %ehselector.slot, align 4
  br label %ehcleanup

lpad6:                                            ; preds = %invoke.cont5
  %6 = landingpad { ptr, i32 }
          cleanup
  %7 = extractvalue { ptr, i32 } %6, 0
  store ptr %7, ptr %exn.slot, align 8
  %8 = extractvalue { ptr, i32 } %6, 1
  store i32 %8, ptr %ehselector.slot, align 4
  call void @_ZNSt7__cxx1112basic_stringIcSt11char_traitsIcESaIcEED1Ev(ptr noundef nonnull align 8 dereferenceable(32) %ref.tmp) #14
  br label %ehcleanup

if.end:                                           ; preds = %invoke.cont7, %invoke.cont
  store i1 false, ptr %retval, align 1
  call void @_ZNSt7__cxx1118basic_stringstreamIcSt11char_traitsIcESaIcEED1Ev(ptr noundef nonnull align 8 dereferenceable(128) %ss) #14
  br label %return

ehcleanup:                                        ; preds = %lpad6, %lpad
  call void @_ZNSt7__cxx1118basic_stringstreamIcSt11char_traitsIcESaIcEED1Ev(ptr noundef nonnull align 8 dereferenceable(128) %ss) #14
  br label %eh.resume

if.end9:                                          ; preds = %entry
  %9 = load ptr, ptr %matMap.addr, align 8
  %10 = load ptr, ptr %materials.addr, align 8
  %m_inStream10 = getelementptr inbounds %"class.tinyobj::MaterialStreamReader", ptr %this1, i32 0, i32 1
  %11 = load ptr, ptr %m_inStream10, align 8
  %12 = load ptr, ptr %warn.addr, align 8
  %13 = load ptr, ptr %err.addr, align 8
  call void @_ZN7tinyobj7LoadMtlEPSt3mapINSt7__cxx1112basic_stringIcSt11char_traitsIcESaIcEEEiSt4lessIS6_ESaISt4pairIKS6_iEEEPSt6vectorINS_10material_tESaISG_EEPSiPS6_SL_(ptr noundef %9, ptr noundef %10, ptr noundef %11, ptr noundef %12, ptr noundef %13)
  store i1 true, ptr %retval, align 1
  br label %return

return:                                           ; preds = %if.end9, %if.end
  %14 = load i1, ptr %retval, align 1
  ret i1 %14

eh.resume:                                        ; preds = %ehcleanup
  %exn = load ptr, ptr %exn.slot, align 8
  %sel = load i32, ptr %ehselector.slot, align 4
  %lpad.val = insertvalue { ptr, i32 } poison, ptr %exn, 0
  %lpad.val11 = insertvalue { ptr, i32 } %lpad.val, i32 %sel, 1
  resume { ptr, i32 } %lpad.val11
}

declare noundef zeroext i1 @_ZNKSt9basic_iosIcSt11char_traitsIcEEntEv(ptr noundef nonnull align 8 dereferenceable(264)) #5

; Function Attrs: mustprogress uwtable
define noundef zeroext i1 @_ZN7tinyobj7LoadObjEPNS_8attrib_tEPSt6vectorINS_7shape_tESaIS3_EEPS2_INS_10material_tESaIS7_EEPNSt7__cxx1112basic_stringIcSt11char_traitsIcESaIcEEESH_PKcSJ_bb(ptr noundef %attrib, ptr noundef %shapes, ptr noundef %materials, ptr noundef %warn, ptr noundef %err, ptr noundef %filename, ptr noundef %mtl_basedir, i1 noundef zeroext %triangulate, i1 noundef zeroext %default_vcols_fallback) #2 personality ptr @__gxx_personality_v0 {
entry:
  %retval = alloca i1, align 1
  %attrib.addr = alloca ptr, align 8
  %shapes.addr = alloca ptr, align 8
  %materials.addr = alloca ptr, align 8
  %warn.addr = alloca ptr, align 8
  %err.addr = alloca ptr, align 8
  %filename.addr = alloca ptr, align 8
  %mtl_basedir.addr = alloca ptr, align 8
  %triangulate.addr = alloca i8, align 1
  %default_vcols_fallback.addr = alloca i8, align 1
  %errss = alloca %"class.std::__cxx11::basic_stringstream", align 8
  %ifs = alloca %"class.std::basic_ifstream", align 8
  %exn.slot = alloca ptr, align 8
  %ehselector.slot = alloca i32, align 4
  %ref.tmp = alloca %"class.std::__cxx11::basic_string", align 8
  %cleanup.dest.slot = alloca i32, align 4
  %baseDir = alloca %"class.std::__cxx11::basic_string", align 8
  %ref.tmp16 = alloca %"class.std::allocator", align 1
  %dirsep = alloca i8, align 1
  %matFileReader = alloca %"class.tinyobj::MaterialFileReader", align 8
  store ptr %attrib, ptr %attrib.addr, align 8
  store ptr %shapes, ptr %shapes.addr, align 8
  store ptr %materials, ptr %materials.addr, align 8
  store ptr %warn, ptr %warn.addr, align 8
  store ptr %err, ptr %err.addr, align 8
  store ptr %filename, ptr %filename.addr, align 8
  store ptr %mtl_basedir, ptr %mtl_basedir.addr, align 8
  %frombool = zext i1 %triangulate to i8
  store i8 %frombool, ptr %triangulate.addr, align 1
  %frombool1 = zext i1 %default_vcols_fallback to i8
  store i8 %frombool1, ptr %default_vcols_fallback.addr, align 1
  %0 = load ptr, ptr %attrib.addr, align 8
  %vertices = getelementptr inbounds %"struct.tinyobj::attrib_t", ptr %0, i32 0, i32 0
  call void @_ZNSt6vectorIfSaIfEE5clearEv(ptr noundef nonnull align 8 dereferenceable(24) %vertices) #14
  %1 = load ptr, ptr %attrib.addr, align 8
  %normals = getelementptr inbounds %"struct.tinyobj::attrib_t", ptr %1, i32 0, i32 2
  call void @_ZNSt6vectorIfSaIfEE5clearEv(ptr noundef nonnull align 8 dereferenceable(24) %normals) #14
  %2 = load ptr, ptr %attrib.addr, align 8
  %texcoords = getelementptr inbounds %"struct.tinyobj::attrib_t", ptr %2, i32 0, i32 3
  call void @_ZNSt6vectorIfSaIfEE5clearEv(ptr noundef nonnull align 8 dereferenceable(24) %texcoords) #14
  %3 = load ptr, ptr %attrib.addr, align 8
  %colors = getelementptr inbounds %"struct.tinyobj::attrib_t", ptr %3, i32 0, i32 5
  call void @_ZNSt6vectorIfSaIfEE5clearEv(ptr noundef nonnull align 8 dereferenceable(24) %colors) #14
  %4 = load ptr, ptr %shapes.addr, align 8
  call void @_ZNSt6vectorIN7tinyobj7shape_tESaIS1_EE5clearEv(ptr noundef nonnull align 8 dereferenceable(24) %4) #14
  call void @_ZNSt7__cxx1118basic_stringstreamIcSt11char_traitsIcESaIcEEC1Ev(ptr noundef nonnull align 8 dereferenceable(128) %errss)
  %5 = load ptr, ptr %filename.addr, align 8
  invoke void @_ZNSt14basic_ifstreamIcSt11char_traitsIcEEC1EPKcSt13_Ios_Openmode(ptr noundef nonnull align 8 dereferenceable(256) %ifs, ptr noundef %5, i32 noundef 8)
          to label %invoke.cont unwind label %lpad

invoke.cont:                                      ; preds = %entry
  %vtable = load ptr, ptr %ifs, align 8
  %vbase.offset.ptr = getelementptr i8, ptr %vtable, i64 -24
  %vbase.offset = load i64, ptr %vbase.offset.ptr, align 8
  %add.ptr = getelementptr inbounds i8, ptr %ifs, i64 %vbase.offset
  %call = invoke noundef zeroext i1 @_ZNKSt9basic_iosIcSt11char_traitsIcEEntEv(ptr noundef nonnull align 8 dereferenceable(264) %add.ptr)
          to label %invoke.cont3 unwind label %lpad2

invoke.cont3:                                     ; preds = %invoke.cont
  br i1 %call, label %if.then, label %if.end14

if.then:                                          ; preds = %invoke.cont3
  %add.ptr4 = getelementptr inbounds i8, ptr %errss, i64 16
  %call6 = invoke noundef nonnull align 8 dereferenceable(8) ptr @_ZStlsISt11char_traitsIcEERSt13basic_ostreamIcT_ES5_PKc(ptr noundef nonnull align 8 dereferenceable(8) %add.ptr4, ptr noundef @.str.45)
          to label %invoke.cont5 unwind label %lpad2

invoke.cont5:                                     ; preds = %if.then
  %6 = load ptr, ptr %filename.addr, align 8
  %call8 = invoke noundef nonnull align 8 dereferenceable(8) ptr @_ZStlsISt11char_traitsIcEERSt13basic_ostreamIcT_ES5_PKc(ptr noundef nonnull align 8 dereferenceable(8) %call6, ptr noundef %6)
          to label %invoke.cont7 unwind label %lpad2

invoke.cont7:                                     ; preds = %invoke.cont5
  %call10 = invoke noundef nonnull align 8 dereferenceable(8) ptr @_ZStlsISt11char_traitsIcEERSt13basic_ostreamIcT_ES5_PKc(ptr noundef nonnull align 8 dereferenceable(8) %call8, ptr noundef @.str.46)
          to label %invoke.cont9 unwind label %lpad2

invoke.cont9:                                     ; preds = %invoke.cont7
  %7 = load ptr, ptr %err.addr, align 8
  %tobool = icmp ne ptr %7, null
  br i1 %tobool, label %if.then11, label %if.end

if.then11:                                        ; preds = %invoke.cont9
  invoke void @_ZNKSt7__cxx1118basic_stringstreamIcSt11char_traitsIcESaIcEE3strEv(ptr sret(%"class.std::__cxx11::basic_string") align 8 %ref.tmp, ptr noundef nonnull align 8 dereferenceable(128) %errss)
          to label %invoke.cont12 unwind label %lpad2

invoke.cont12:                                    ; preds = %if.then11
  %8 = load ptr, ptr %err.addr, align 8
  %call13 = call noundef nonnull align 8 dereferenceable(32) ptr @_ZNSt7__cxx1112basic_stringIcSt11char_traitsIcESaIcEEaSEOS4_(ptr noundef nonnull align 8 dereferenceable(32) %8, ptr noundef nonnull align 8 dereferenceable(32) %ref.tmp) #14
  call void @_ZNSt7__cxx1112basic_stringIcSt11char_traitsIcESaIcEED1Ev(ptr noundef nonnull align 8 dereferenceable(32) %ref.tmp) #14
  br label %if.end

lpad:                                             ; preds = %entry
  %9 = landingpad { ptr, i32 }
          cleanup
  %10 = extractvalue { ptr, i32 } %9, 0
  store ptr %10, ptr %exn.slot, align 8
  %11 = extractvalue { ptr, i32 } %9, 1
  store i32 %11, ptr %ehselector.slot, align 4
  br label %ehcleanup38

lpad2:                                            ; preds = %if.then11, %invoke.cont7, %invoke.cont5, %if.then, %invoke.cont
  %12 = landingpad { ptr, i32 }
          cleanup
  %13 = extractvalue { ptr, i32 } %12, 0
  store ptr %13, ptr %exn.slot, align 8
  %14 = extractvalue { ptr, i32 } %12, 1
  store i32 %14, ptr %ehselector.slot, align 4
  br label %ehcleanup36

if.end:                                           ; preds = %invoke.cont12, %invoke.cont9
  store i1 false, ptr %retval, align 1
  store i32 1, ptr %cleanup.dest.slot, align 4
  br label %cleanup

if.end14:                                         ; preds = %invoke.cont3
  %15 = load ptr, ptr %mtl_basedir.addr, align 8
  %tobool15 = icmp ne ptr %15, null
  br i1 %tobool15, label %cond.true, label %cond.false

cond.true:                                        ; preds = %if.end14
  %16 = load ptr, ptr %mtl_basedir.addr, align 8
  br label %cond.end

cond.false:                                       ; preds = %if.end14
  br label %cond.end

cond.end:                                         ; preds = %cond.false, %cond.true
  %cond = phi ptr [ %16, %cond.true ], [ @.str.47, %cond.false ]
  call void @_ZNSaIcEC1Ev(ptr noundef nonnull align 1 dereferenceable(1) %ref.tmp16) #14
  invoke void @_ZNSt7__cxx1112basic_stringIcSt11char_traitsIcESaIcEEC2IS3_EEPKcRKS3_(ptr noundef nonnull align 8 dereferenceable(32) %baseDir, ptr noundef %cond, ptr noundef nonnull align 1 dereferenceable(1) %ref.tmp16)
          to label %invoke.cont18 unwind label %lpad17

invoke.cont18:                                    ; preds = %cond.end
  call void @_ZNSaIcED1Ev(ptr noundef nonnull align 1 dereferenceable(1) %ref.tmp16) #14
  %call19 = call noundef zeroext i1 @_ZNKSt7__cxx1112basic_stringIcSt11char_traitsIcESaIcEE5emptyEv(ptr noundef nonnull align 8 dereferenceable(32) %baseDir) #14
  br i1 %call19, label %if.end29, label %if.then20

if.then20:                                        ; preds = %invoke.cont18
  store i8 47, ptr %dirsep, align 1
  %call21 = call noundef i64 @_ZNKSt7__cxx1112basic_stringIcSt11char_traitsIcESaIcEE6lengthEv(ptr noundef nonnull align 8 dereferenceable(32) %baseDir) #14
  %sub = sub i64 %call21, 1
  %call24 = invoke noundef nonnull align 1 dereferenceable(1) ptr @_ZNSt7__cxx1112basic_stringIcSt11char_traitsIcESaIcEEixEm(ptr noundef nonnull align 8 dereferenceable(32) %baseDir, i64 noundef %sub)
          to label %invoke.cont23 unwind label %lpad22

invoke.cont23:                                    ; preds = %if.then20
  %17 = load i8, ptr %call24, align 1
  %conv = sext i8 %17 to i32
  %cmp = icmp ne i32 %conv, 47
  br i1 %cmp, label %if.then25, label %if.end28

if.then25:                                        ; preds = %invoke.cont23
  %call27 = invoke noundef nonnull align 8 dereferenceable(32) ptr @_ZNSt7__cxx1112basic_stringIcSt11char_traitsIcESaIcEEpLEc(ptr noundef nonnull align 8 dereferenceable(32) %baseDir, i8 noundef signext 47)
          to label %invoke.cont26 unwind label %lpad22

invoke.cont26:                                    ; preds = %if.then25
  br label %if.end28

lpad17:                                           ; preds = %cond.end
  %18 = landingpad { ptr, i32 }
          cleanup
  %19 = extractvalue { ptr, i32 } %18, 0
  store ptr %19, ptr %exn.slot, align 8
  %20 = extractvalue { ptr, i32 } %18, 1
  store i32 %20, ptr %ehselector.slot, align 4
  call void @_ZNSaIcED1Ev(ptr noundef nonnull align 1 dereferenceable(1) %ref.tmp16) #14
  br label %ehcleanup36

lpad22:                                           ; preds = %if.end29, %if.then25, %if.then20
  %21 = landingpad { ptr, i32 }
          cleanup
  %22 = extractvalue { ptr, i32 } %21, 0
  store ptr %22, ptr %exn.slot, align 8
  %23 = extractvalue { ptr, i32 } %21, 1
  store i32 %23, ptr %ehselector.slot, align 4
  br label %ehcleanup

if.end28:                                         ; preds = %invoke.cont26, %invoke.cont23
  br label %if.end29

if.end29:                                         ; preds = %if.end28, %invoke.cont18
  invoke void @_ZN7tinyobj18MaterialFileReaderC2ERKNSt7__cxx1112basic_stringIcSt11char_traitsIcESaIcEEE(ptr noundef nonnull align 8 dereferenceable(40) %matFileReader, ptr noundef nonnull align 8 dereferenceable(32) %baseDir)
          to label %invoke.cont30 unwind label %lpad22

invoke.cont30:                                    ; preds = %if.end29
  %24 = load ptr, ptr %attrib.addr, align 8
  %25 = load ptr, ptr %shapes.addr, align 8
  %26 = load ptr, ptr %materials.addr, align 8
  %27 = load ptr, ptr %warn.addr, align 8
  %28 = load ptr, ptr %err.addr, align 8
  %29 = load i8, ptr %triangulate.addr, align 1
  %tobool31 = trunc i8 %29 to i1
  %30 = load i8, ptr %default_vcols_fallback.addr, align 1
  %tobool32 = trunc i8 %30 to i1
  %call35 = invoke noundef zeroext i1 @_ZN7tinyobj7LoadObjEPNS_8attrib_tEPSt6vectorINS_7shape_tESaIS3_EEPS2_INS_10material_tESaIS7_EEPNSt7__cxx1112basic_stringIcSt11char_traitsIcESaIcEEESH_PSiPNS_14MaterialReaderEbb(ptr noundef %24, ptr noundef %25, ptr noundef %26, ptr noundef %27, ptr noundef %28, ptr noundef %ifs, ptr noundef %matFileReader, i1 noundef zeroext %tobool31, i1 noundef zeroext %tobool32)
          to label %invoke.cont34 unwind label %lpad33

invoke.cont34:                                    ; preds = %invoke.cont30
  store i1 %call35, ptr %retval, align 1
  store i32 1, ptr %cleanup.dest.slot, align 4
  call void @_ZN7tinyobj18MaterialFileReaderD2Ev(ptr noundef nonnull align 8 dereferenceable(40) %matFileReader) #14
  call void @_ZNSt7__cxx1112basic_stringIcSt11char_traitsIcESaIcEED1Ev(ptr noundef nonnull align 8 dereferenceable(32) %baseDir) #14
  br label %cleanup

lpad33:                                           ; preds = %invoke.cont30
  %31 = landingpad { ptr, i32 }
          cleanup
  %32 = extractvalue { ptr, i32 } %31, 0
  store ptr %32, ptr %exn.slot, align 8
  %33 = extractvalue { ptr, i32 } %31, 1
  store i32 %33, ptr %ehselector.slot, align 4
  call void @_ZN7tinyobj18MaterialFileReaderD2Ev(ptr noundef nonnull align 8 dereferenceable(40) %matFileReader) #14
  br label %ehcleanup

ehcleanup:                                        ; preds = %lpad33, %lpad22
  call void @_ZNSt7__cxx1112basic_stringIcSt11char_traitsIcESaIcEED1Ev(ptr noundef nonnull align 8 dereferenceable(32) %baseDir) #14
  br label %ehcleanup36

cleanup:                                          ; preds = %invoke.cont34, %if.end
  call void @_ZNSt14basic_ifstreamIcSt11char_traitsIcEED1Ev(ptr noundef nonnull align 8 dereferenceable(256) %ifs) #14
  call void @_ZNSt7__cxx1118basic_stringstreamIcSt11char_traitsIcESaIcEED1Ev(ptr noundef nonnull align 8 dereferenceable(128) %errss) #14
  %34 = load i1, ptr %retval, align 1
  ret i1 %34

ehcleanup36:                                      ; preds = %ehcleanup, %lpad17, %lpad2
  call void @_ZNSt14basic_ifstreamIcSt11char_traitsIcEED1Ev(ptr noundef nonnull align 8 dereferenceable(256) %ifs) #14
  br label %ehcleanup38

ehcleanup38:                                      ; preds = %ehcleanup36, %lpad
  call void @_ZNSt7__cxx1118basic_stringstreamIcSt11char_traitsIcESaIcEED1Ev(ptr noundef nonnull align 8 dereferenceable(128) %errss) #14
  br label %eh.resume

eh.resume:                                        ; preds = %ehcleanup38
  %exn = load ptr, ptr %exn.slot, align 8
  %sel = load i32, ptr %ehselector.slot, align 4
  %lpad.val = insertvalue { ptr, i32 } poison, ptr %exn, 0
  %lpad.val39 = insertvalue { ptr, i32 } %lpad.val, i32 %sel, 1
  resume { ptr, i32 } %lpad.val39
}

; Function Attrs: mustprogress nounwind uwtable
define linkonce_odr void @_ZNSt6vectorIfSaIfEE5clearEv(ptr noundef nonnull align 8 dereferenceable(24) %this) #0 comdat align 2 {
entry:
  %this.addr = alloca ptr, align 8
  store ptr %this, ptr %this.addr, align 8
  %this1 = load ptr, ptr %this.addr, align 8
  %_M_impl = getelementptr inbounds %"struct.std::_Vector_base.27", ptr %this1, i32 0, i32 0
  %_M_start = getelementptr inbounds %"struct.std::_Vector_base<float, std::allocator<float>>::_Vector_impl_data", ptr %_M_impl, i32 0, i32 0
  %0 = load ptr, ptr %_M_start, align 8
  call void @_ZNSt6vectorIfSaIfEE15_M_erase_at_endEPf(ptr noundef nonnull align 8 dereferenceable(24) %this1, ptr noundef %0) #14
  ret void
}

; Function Attrs: mustprogress nounwind uwtable
define linkonce_odr void @_ZNSt6vectorIN7tinyobj7shape_tESaIS1_EE5clearEv(ptr noundef nonnull align 8 dereferenceable(24) %this) #0 comdat align 2 {
entry:
  %this.addr = alloca ptr, align 8
  store ptr %this, ptr %this.addr, align 8
  %this1 = load ptr, ptr %this.addr, align 8
  %_M_impl = getelementptr inbounds %"struct.std::_Vector_base.37", ptr %this1, i32 0, i32 0
  %_M_start = getelementptr inbounds %"struct.std::_Vector_base<tinyobj::shape_t, std::allocator<tinyobj::shape_t>>::_Vector_impl_data", ptr %_M_impl, i32 0, i32 0
  %0 = load ptr, ptr %_M_start, align 8
  call void @_ZNSt6vectorIN7tinyobj7shape_tESaIS1_EE15_M_erase_at_endEPS1_(ptr noundef nonnull align 8 dereferenceable(24) %this1, ptr noundef %0) #14
  ret void
}

declare noundef nonnull align 8 dereferenceable(32) ptr @_ZNSt7__cxx1112basic_stringIcSt11char_traitsIcESaIcEEpLEc(ptr noundef nonnull align 8 dereferenceable(32), i8 noundef signext) #5

; Function Attrs: mustprogress uwtable
define linkonce_odr void @_ZN7tinyobj18MaterialFileReaderC2ERKNSt7__cxx1112basic_stringIcSt11char_traitsIcESaIcEEE(ptr noundef nonnull align 8 dereferenceable(40) %this, ptr noundef nonnull align 8 dereferenceable(32) %mtl_basedir) unnamed_addr #2 comdat align 2 personality ptr @__gxx_personality_v0 {
entry:
  %this.addr = alloca ptr, align 8
  %mtl_basedir.addr = alloca ptr, align 8
  %exn.slot = alloca ptr, align 8
  %ehselector.slot = alloca i32, align 4
  store ptr %this, ptr %this.addr, align 8
  store ptr %mtl_basedir, ptr %mtl_basedir.addr, align 8
  %this1 = load ptr, ptr %this.addr, align 8
  call void @_ZN7tinyobj14MaterialReaderC2Ev(ptr noundef nonnull align 8 dereferenceable(8) %this1)
  store ptr getelementptr inbounds ({ [5 x ptr] }, ptr @_ZTVN7tinyobj18MaterialFileReaderE, i32 0, inrange i32 0, i32 2), ptr %this1, align 8
  %m_mtlBaseDir = getelementptr inbounds %"class.tinyobj::MaterialFileReader", ptr %this1, i32 0, i32 1
  %0 = load ptr, ptr %mtl_basedir.addr, align 8
  invoke void @_ZNSt7__cxx1112basic_stringIcSt11char_traitsIcESaIcEEC1ERKS4_(ptr noundef nonnull align 8 dereferenceable(32) %m_mtlBaseDir, ptr noundef nonnull align 8 dereferenceable(32) %0)
          to label %invoke.cont unwind label %lpad

invoke.cont:                                      ; preds = %entry
  ret void

lpad:                                             ; preds = %entry
  %1 = landingpad { ptr, i32 }
          cleanup
  %2 = extractvalue { ptr, i32 } %1, 0
  store ptr %2, ptr %exn.slot, align 8
  %3 = extractvalue { ptr, i32 } %1, 1
  store i32 %3, ptr %ehselector.slot, align 4
  call void @_ZN7tinyobj14MaterialReaderD2Ev(ptr noundef nonnull align 8 dereferenceable(8) %this1) #14
  br label %eh.resume

eh.resume:                                        ; preds = %lpad
  %exn = load ptr, ptr %exn.slot, align 8
  %sel = load i32, ptr %ehselector.slot, align 4
  %lpad.val = insertvalue { ptr, i32 } poison, ptr %exn, 0
  %lpad.val2 = insertvalue { ptr, i32 } %lpad.val, i32 %sel, 1
  resume { ptr, i32 } %lpad.val2
}

; Function Attrs: mustprogress uwtable
define noundef zeroext i1 @_ZN7tinyobj7LoadObjEPNS_8attrib_tEPSt6vectorINS_7shape_tESaIS3_EEPS2_INS_10material_tESaIS7_EEPNSt7__cxx1112basic_stringIcSt11char_traitsIcESaIcEEESH_PSiPNS_14MaterialReaderEbb(ptr noundef %attrib, ptr noundef %shapes, ptr noundef %materials, ptr noundef %warn, ptr noundef %err, ptr noundef %inStream, ptr noundef %readMatFn, i1 noundef zeroext %triangulate, i1 noundef zeroext %default_vcols_fallback) #2 personality ptr @__gxx_personality_v0 {
entry:
  %retval = alloca i1, align 1
  %attrib.addr = alloca ptr, align 8
  %shapes.addr = alloca ptr, align 8
  %materials.addr = alloca ptr, align 8
  %warn.addr = alloca ptr, align 8
  %err.addr = alloca ptr, align 8
  %inStream.addr = alloca ptr, align 8
  %readMatFn.addr = alloca ptr, align 8
  %triangulate.addr = alloca i8, align 1
  %default_vcols_fallback.addr = alloca i8, align 1
  %errss = alloca %"class.std::__cxx11::basic_stringstream", align 8
  %v = alloca %"class.std::vector.26", align 8
  %vn = alloca %"class.std::vector.26", align 8
  %vt = alloca %"class.std::vector.26", align 8
  %vc = alloca %"class.std::vector.26", align 8
  %vw = alloca %"class.std::vector.31", align 8
  %tags = alloca %"class.std::vector.41", align 8
  %prim_group = alloca %"struct.tinyobj::PrimGroup", align 8
  %name = alloca %"class.std::__cxx11::basic_string", align 8
  %material_filenames = alloca %"class.std::set", align 8
  %material_map = alloca %"class.std::map.3", align 8
  %material = alloca i32, align 4
  %current_smoothing_id = alloca i32, align 4
  %greatest_v_idx = alloca i32, align 4
  %greatest_vn_idx = alloca i32, align 4
  %greatest_vt_idx = alloca i32, align 4
  %shape = alloca %"struct.tinyobj::shape_t", align 8
  %found_all_colors = alloca i8, align 1
  %line_num = alloca i64, align 8
  %linebuf = alloca %"class.std::__cxx11::basic_string", align 8
  %exn.slot = alloca ptr, align 8
  %ehselector.slot = alloca i32, align 4
  %token = alloca ptr, align 8
  %x = alloca float, align 4
  %y = alloca float, align 4
  %z = alloca float, align 4
  %r = alloca float, align 4
  %g = alloca float, align 4
  %b = alloca float, align 4
  %x92 = alloca float, align 4
  %y93 = alloca float, align 4
  %z94 = alloca float, align 4
  %x117 = alloca float, align 4
  %y118 = alloca float, align 4
  %vid = alloca i32, align 4
  %sw = alloca %"struct.tinyobj::skin_weight_t", align 8
  %j = alloca float, align 4
  %w = alloca float, align 4
  %ss = alloca %"class.std::__cxx11::basic_stringstream", align 8
  %ref.tmp = alloca %"class.std::__cxx11::basic_string", align 8
  %cleanup.dest.slot = alloca i32, align 4
  %jw = alloca %"struct.tinyobj::joint_and_weight_t", align 4
  %n = alloca i64, align 8
  %context = alloca %"struct.tinyobj::warning_context", align 8
  %line = alloca %"struct.tinyobj::__line_t", align 8
  %vi = alloca %"struct.tinyobj::vertex_index_t", align 4
  %ref.tmp226 = alloca %"class.std::__cxx11::basic_string", align 8
  %ref.tmp227 = alloca %"class.std::__cxx11::basic_string", align 8
  %ref.tmp228 = alloca %"class.std::__cxx11::basic_string", align 8
  %n243 = alloca i64, align 8
  %pts = alloca %"struct.tinyobj::__points_t", align 8
  %vi280 = alloca %"struct.tinyobj::vertex_index_t", align 4
  %ref.tmp297 = alloca %"class.std::__cxx11::basic_string", align 8
  %ref.tmp298 = alloca %"class.std::__cxx11::basic_string", align 8
  %ref.tmp299 = alloca %"class.std::__cxx11::basic_string", align 8
  %n315 = alloca i64, align 8
  %face = alloca %"struct.tinyobj::face_t", align 8
  %vi358 = alloca %"struct.tinyobj::vertex_index_t", align 4
  %ref.tmp374 = alloca %"class.std::__cxx11::basic_string", align 8
  %ref.tmp375 = alloca %"class.std::__cxx11::basic_string", align 8
  %ref.tmp376 = alloca %"class.std::__cxx11::basic_string", align 8
  %n406 = alloca i64, align 8
  %namebuf = alloca %"class.std::__cxx11::basic_string", align 8
  %newMaterialId = alloca i32, align 4
  %it = alloca %"struct.std::_Rb_tree_const_iterator", align 8
  %ref.tmp420 = alloca %"struct.std::_Rb_tree_iterator", align 8
  %ref.tmp424 = alloca %"struct.std::_Rb_tree_const_iterator", align 8
  %ref.tmp425 = alloca %"struct.std::_Rb_tree_iterator", align 8
  %ref.tmp433 = alloca %"class.std::__cxx11::basic_string", align 8
  %ref.tmp434 = alloca %"class.std::__cxx11::basic_string", align 8
  %filenames = alloca %"class.std::vector.20", align 8
  %ref.tmp469 = alloca %"class.std::__cxx11::basic_string", align 8
  %ref.tmp470 = alloca %"class.std::allocator", align 1
  %ss481 = alloca %"class.std::__cxx11::basic_stringstream", align 8
  %ref.tmp492 = alloca %"class.std::__cxx11::basic_string", align 8
  %found = alloca i8, align 1
  %s = alloca i64, align 8
  %warn_mtl = alloca %"class.std::__cxx11::basic_string", align 8
  %err_mtl = alloca %"class.std::__cxx11::basic_string", align 8
  %ok = alloca i8, align 1
  %ref.tmp509 = alloca %"class.std::__cxx11::basic_string", align 8
  %ref.tmp512 = alloca %"class.std::allocator", align 1
  %coerce = alloca %"struct.std::pair.98", align 8
  %ret = alloca i8, align 1
  %ref.tmp582 = alloca %"struct.tinyobj::shape_t", align 8
  %names = alloca %"class.std::vector.20", align 8
  %str = alloca %"class.std::__cxx11::basic_string", align 8
  %ss613 = alloca %"class.std::__cxx11::basic_stringstream", align 8
  %ref.tmp623 = alloca %"class.std::__cxx11::basic_string", align 8
  %ss634 = alloca %"class.std::__cxx11::basic_stringstream", align 8
  %i = alloca i64, align 8
  %ref.tmp654 = alloca %"class.std::__cxx11::basic_string", align 8
  %ret674 = alloca i8, align 1
  %ref.tmp695 = alloca %"struct.tinyobj::shape_t", align 8
  %ss698 = alloca %"class.std::__cxx11::basic_stringstream", align 8
  %ref.tmp704 = alloca %"class.std::__cxx11::basic_string", align 8
  %max_tag_nums = alloca i32, align 4
  %tag = alloca %"struct.tinyobj::tag_t", align 8
  %ref.tmp723 = alloca %"class.std::__cxx11::basic_string", align 8
  %ts = alloca %"struct.tinyobj::tag_sizes", align 4
  %tmp.coerce = alloca { i64, i32 }, align 8
  %i760 = alloca i64, align 8
  %i776 = alloca i64, align 8
  %i792 = alloca i64, align 8
  %ref.tmp798 = alloca %"class.std::__cxx11::basic_string", align 8
  %smGroupId = alloca i32, align 4
  %ss876 = alloca %"class.std::__cxx11::basic_stringstream", align 8
  %ref.tmp886 = alloca %"class.std::__cxx11::basic_string", align 8
  %ss902 = alloca %"class.std::__cxx11::basic_stringstream", align 8
  %ref.tmp912 = alloca %"class.std::__cxx11::basic_string", align 8
  %ss928 = alloca %"class.std::__cxx11::basic_stringstream", align 8
  %ref.tmp938 = alloca %"class.std::__cxx11::basic_string", align 8
  %ret947 = alloca i8, align 1
  %ref.tmp964 = alloca %"class.std::__cxx11::basic_string", align 8
  store ptr %attrib, ptr %attrib.addr, align 8
  store ptr %shapes, ptr %shapes.addr, align 8
  store ptr %materials, ptr %materials.addr, align 8
  store ptr %warn, ptr %warn.addr, align 8
  store ptr %err, ptr %err.addr, align 8
  store ptr %inStream, ptr %inStream.addr, align 8
  store ptr %readMatFn, ptr %readMatFn.addr, align 8
  %frombool = zext i1 %triangulate to i8
  store i8 %frombool, ptr %triangulate.addr, align 1
  %frombool1 = zext i1 %default_vcols_fallback to i8
  store i8 %frombool1, ptr %default_vcols_fallback.addr, align 1
  call void @_ZNSt7__cxx1118basic_stringstreamIcSt11char_traitsIcESaIcEEC1Ev(ptr noundef nonnull align 8 dereferenceable(128) %errss)
  call void @_ZNSt6vectorIfSaIfEEC2Ev(ptr noundef nonnull align 8 dereferenceable(24) %v) #14
  call void @_ZNSt6vectorIfSaIfEEC2Ev(ptr noundef nonnull align 8 dereferenceable(24) %vn) #14
  call void @_ZNSt6vectorIfSaIfEEC2Ev(ptr noundef nonnull align 8 dereferenceable(24) %vt) #14
  call void @_ZNSt6vectorIfSaIfEEC2Ev(ptr noundef nonnull align 8 dereferenceable(24) %vc) #14
  call void @_ZNSt6vectorIN7tinyobj13skin_weight_tESaIS1_EEC2Ev(ptr noundef nonnull align 8 dereferenceable(24) %vw) #14
  call void @_ZNSt6vectorIN7tinyobj5tag_tESaIS1_EEC2Ev(ptr noundef nonnull align 8 dereferenceable(24) %tags) #14
  call void @_ZN7tinyobj9PrimGroupC2Ev(ptr noundef nonnull align 8 dereferenceable(72) %prim_group) #14
  call void @_ZNSt7__cxx1112basic_stringIcSt11char_traitsIcESaIcEEC1Ev(ptr noundef nonnull align 8 dereferenceable(32) %name) #14
  call void @_ZNSt3setINSt7__cxx1112basic_stringIcSt11char_traitsIcESaIcEEESt4lessIS5_ESaIS5_EEC2Ev(ptr noundef nonnull align 8 dereferenceable(48) %material_filenames) #14
  call void @_ZNSt3mapINSt7__cxx1112basic_stringIcSt11char_traitsIcESaIcEEEiSt4lessIS5_ESaISt4pairIKS5_iEEEC2Ev(ptr noundef nonnull align 8 dereferenceable(48) %material_map) #14
  store i32 -1, ptr %material, align 4
  store i32 0, ptr %current_smoothing_id, align 4
  store i32 -1, ptr %greatest_v_idx, align 4
  store i32 -1, ptr %greatest_vn_idx, align 4
  store i32 -1, ptr %greatest_vt_idx, align 4
  call void @_ZN7tinyobj7shape_tC2Ev(ptr noundef nonnull align 8 dereferenceable(224) %shape) #14
  store i8 1, ptr %found_all_colors, align 1
  store i64 0, ptr %line_num, align 8
  call void @_ZNSt7__cxx1112basic_stringIcSt11char_traitsIcESaIcEEC1Ev(ptr noundef nonnull align 8 dereferenceable(32) %linebuf) #14
  br label %while.cond

while.cond:                                       ; preds = %if.end862, %if.end861, %if.then837, %if.then828, %invoke.cont806, %invoke.cont705, %if.end658, %if.end559, %if.end451, %cleanup411, %cleanup320, %cleanup248, %invoke.cont121, %invoke.cont98, %if.end73, %if.then44, %if.then39, %if.then33, %entry
  %0 = load ptr, ptr %inStream.addr, align 8
  %call = invoke noundef i32 @_ZNSi4peekEv(ptr noundef nonnull align 8 dereferenceable(16) %0)
          to label %invoke.cont unwind label %lpad

invoke.cont:                                      ; preds = %while.cond
  %cmp = icmp ne i32 %call, -1
  br i1 %cmp, label %while.body, label %while.end863

while.body:                                       ; preds = %invoke.cont
  %1 = load ptr, ptr %inStream.addr, align 8
  %call3 = invoke noundef nonnull align 8 dereferenceable(16) ptr @_ZN7tinyobjL11safeGetlineERSiRNSt7__cxx1112basic_stringIcSt11char_traitsIcESaIcEEE(ptr noundef nonnull align 8 dereferenceable(16) %1, ptr noundef nonnull align 8 dereferenceable(32) %linebuf)
          to label %invoke.cont2 unwind label %lpad

invoke.cont2:                                     ; preds = %while.body
  %2 = load i64, ptr %line_num, align 8
  %inc = add i64 %2, 1
  store i64 %inc, ptr %line_num, align 8
  %call4 = call noundef i64 @_ZNKSt7__cxx1112basic_stringIcSt11char_traitsIcESaIcEE4sizeEv(ptr noundef nonnull align 8 dereferenceable(32) %linebuf) #14
  %cmp5 = icmp ugt i64 %call4, 0
  br i1 %cmp5, label %if.then, label %if.end15

if.then:                                          ; preds = %invoke.cont2
  %call6 = call noundef i64 @_ZNKSt7__cxx1112basic_stringIcSt11char_traitsIcESaIcEE4sizeEv(ptr noundef nonnull align 8 dereferenceable(32) %linebuf) #14
  %sub = sub i64 %call6, 1
  %call8 = invoke noundef nonnull align 1 dereferenceable(1) ptr @_ZNSt7__cxx1112basic_stringIcSt11char_traitsIcESaIcEEixEm(ptr noundef nonnull align 8 dereferenceable(32) %linebuf, i64 noundef %sub)
          to label %invoke.cont7 unwind label %lpad

invoke.cont7:                                     ; preds = %if.then
  %3 = load i8, ptr %call8, align 1
  %conv = sext i8 %3 to i32
  %cmp9 = icmp eq i32 %conv, 10
  br i1 %cmp9, label %if.then10, label %if.end

if.then10:                                        ; preds = %invoke.cont7
  %call11 = call noundef i64 @_ZNKSt7__cxx1112basic_stringIcSt11char_traitsIcESaIcEE4sizeEv(ptr noundef nonnull align 8 dereferenceable(32) %linebuf) #14
  %sub12 = sub i64 %call11, 1
  %call14 = invoke noundef nonnull align 8 dereferenceable(32) ptr @_ZNSt7__cxx1112basic_stringIcSt11char_traitsIcESaIcEE5eraseEmm(ptr noundef nonnull align 8 dereferenceable(32) %linebuf, i64 noundef %sub12, i64 noundef -1)
          to label %invoke.cont13 unwind label %lpad

invoke.cont13:                                    ; preds = %if.then10
  br label %if.end

lpad:                                             ; preds = %if.then963, %if.end960, %if.then958, %if.end946, %if.then927, %if.then901, %if.then875, %if.else854, %invoke.cont694, %if.end693, %if.then691, %if.then673, %if.end581, %if.then579, %if.then572, %if.then417, %if.then335, %if.then138, %invoke.cont120, %invoke.cont119, %if.then115, %invoke.cont97, %invoke.cont96, %invoke.cont95, %if.then90, %invoke.cont71, %invoke.cont70, %if.then69, %invoke.cont64, %invoke.cont63, %invoke.cont57, %if.then55, %if.then25, %if.then18, %if.then10, %if.then, %while.body, %while.cond
  %4 = landingpad { ptr, i32 }
          cleanup
  %5 = extractvalue { ptr, i32 } %4, 0
  store ptr %5, ptr %exn.slot, align 8
  %6 = extractvalue { ptr, i32 } %4, 1
  store i32 %6, ptr %ehselector.slot, align 4
  br label %ehcleanup972

if.end:                                           ; preds = %invoke.cont13, %invoke.cont7
  br label %if.end15

if.end15:                                         ; preds = %if.end, %invoke.cont2
  %call16 = call noundef i64 @_ZNKSt7__cxx1112basic_stringIcSt11char_traitsIcESaIcEE4sizeEv(ptr noundef nonnull align 8 dereferenceable(32) %linebuf) #14
  %cmp17 = icmp ugt i64 %call16, 0
  br i1 %cmp17, label %if.then18, label %if.end31

if.then18:                                        ; preds = %if.end15
  %call19 = call noundef i64 @_ZNKSt7__cxx1112basic_stringIcSt11char_traitsIcESaIcEE4sizeEv(ptr noundef nonnull align 8 dereferenceable(32) %linebuf) #14
  %sub20 = sub i64 %call19, 1
  %call22 = invoke noundef nonnull align 1 dereferenceable(1) ptr @_ZNSt7__cxx1112basic_stringIcSt11char_traitsIcESaIcEEixEm(ptr noundef nonnull align 8 dereferenceable(32) %linebuf, i64 noundef %sub20)
          to label %invoke.cont21 unwind label %lpad

invoke.cont21:                                    ; preds = %if.then18
  %7 = load i8, ptr %call22, align 1
  %conv23 = sext i8 %7 to i32
  %cmp24 = icmp eq i32 %conv23, 13
  br i1 %cmp24, label %if.then25, label %if.end30

if.then25:                                        ; preds = %invoke.cont21
  %call26 = call noundef i64 @_ZNKSt7__cxx1112basic_stringIcSt11char_traitsIcESaIcEE4sizeEv(ptr noundef nonnull align 8 dereferenceable(32) %linebuf) #14
  %sub27 = sub i64 %call26, 1
  %call29 = invoke noundef nonnull align 8 dereferenceable(32) ptr @_ZNSt7__cxx1112basic_stringIcSt11char_traitsIcESaIcEE5eraseEmm(ptr noundef nonnull align 8 dereferenceable(32) %linebuf, i64 noundef %sub27, i64 noundef -1)
          to label %invoke.cont28 unwind label %lpad

invoke.cont28:                                    ; preds = %if.then25
  br label %if.end30

if.end30:                                         ; preds = %invoke.cont28, %invoke.cont21
  br label %if.end31

if.end31:                                         ; preds = %if.end30, %if.end15
  %call32 = call noundef zeroext i1 @_ZNKSt7__cxx1112basic_stringIcSt11char_traitsIcESaIcEE5emptyEv(ptr noundef nonnull align 8 dereferenceable(32) %linebuf) #14
  br i1 %call32, label %if.then33, label %if.end34

if.then33:                                        ; preds = %if.end31
  br label %while.cond, !llvm.loop !11

if.end34:                                         ; preds = %if.end31
  %call35 = call noundef ptr @_ZNKSt7__cxx1112basic_stringIcSt11char_traitsIcESaIcEE5c_strEv(ptr noundef nonnull align 8 dereferenceable(32) %linebuf) #14
  store ptr %call35, ptr %token, align 8
  %8 = load ptr, ptr %token, align 8
  %call36 = call i64 @strspn(ptr noundef %8, ptr noundef @.str) #15
  %9 = load ptr, ptr %token, align 8
  %add.ptr = getelementptr inbounds i8, ptr %9, i64 %call36
  store ptr %add.ptr, ptr %token, align 8
  %10 = load ptr, ptr %token, align 8
  %arrayidx = getelementptr inbounds i8, ptr %10, i64 0
  %11 = load i8, ptr %arrayidx, align 1
  %conv37 = sext i8 %11 to i32
  %cmp38 = icmp eq i32 %conv37, 0
  br i1 %cmp38, label %if.then39, label %if.end40

if.then39:                                        ; preds = %if.end34
  br label %while.cond, !llvm.loop !11

if.end40:                                         ; preds = %if.end34
  %12 = load ptr, ptr %token, align 8
  %arrayidx41 = getelementptr inbounds i8, ptr %12, i64 0
  %13 = load i8, ptr %arrayidx41, align 1
  %conv42 = sext i8 %13 to i32
  %cmp43 = icmp eq i32 %conv42, 35
  br i1 %cmp43, label %if.then44, label %if.end45

if.then44:                                        ; preds = %if.end40
  br label %while.cond, !llvm.loop !11

if.end45:                                         ; preds = %if.end40
  %14 = load ptr, ptr %token, align 8
  %arrayidx46 = getelementptr inbounds i8, ptr %14, i64 0
  %15 = load i8, ptr %arrayidx46, align 1
  %conv47 = sext i8 %15 to i32
  %cmp48 = icmp eq i32 %conv47, 118
  br i1 %cmp48, label %land.lhs.true, label %if.end74

land.lhs.true:                                    ; preds = %if.end45
  %16 = load ptr, ptr %token, align 8
  %arrayidx49 = getelementptr inbounds i8, ptr %16, i64 1
  %17 = load i8, ptr %arrayidx49, align 1
  %conv50 = sext i8 %17 to i32
  %cmp51 = icmp eq i32 %conv50, 32
  br i1 %cmp51, label %if.then55, label %lor.lhs.false

lor.lhs.false:                                    ; preds = %land.lhs.true
  %18 = load ptr, ptr %token, align 8
  %arrayidx52 = getelementptr inbounds i8, ptr %18, i64 1
  %19 = load i8, ptr %arrayidx52, align 1
  %conv53 = sext i8 %19 to i32
  %cmp54 = icmp eq i32 %conv53, 9
  br i1 %cmp54, label %if.then55, label %if.end74

if.then55:                                        ; preds = %lor.lhs.false, %land.lhs.true
  %20 = load ptr, ptr %token, align 8
  %add.ptr56 = getelementptr inbounds i8, ptr %20, i64 2
  store ptr %add.ptr56, ptr %token, align 8
  %call58 = invoke noundef zeroext i1 @_ZN7tinyobjL20parseVertexWithColorEPfS0_S0_S0_S0_S0_PPKcddd(ptr noundef %x, ptr noundef %y, ptr noundef %z, ptr noundef %r, ptr noundef %g, ptr noundef %b, ptr noundef %token, double noundef 0.000000e+00, double noundef 0.000000e+00, double noundef 0.000000e+00)
          to label %invoke.cont57 unwind label %lpad

invoke.cont57:                                    ; preds = %if.then55
  %conv59 = zext i1 %call58 to i32
  %21 = load i8, ptr %found_all_colors, align 1
  %tobool = trunc i8 %21 to i1
  %conv60 = zext i1 %tobool to i32
  %and = and i32 %conv60, %conv59
  %tobool61 = icmp ne i32 %and, 0
  %frombool62 = zext i1 %tobool61 to i8
  store i8 %frombool62, ptr %found_all_colors, align 1
  invoke void @_ZNSt6vectorIfSaIfEE9push_backERKf(ptr noundef nonnull align 8 dereferenceable(24) %v, ptr noundef nonnull align 4 dereferenceable(4) %x)
          to label %invoke.cont63 unwind label %lpad

invoke.cont63:                                    ; preds = %invoke.cont57
  invoke void @_ZNSt6vectorIfSaIfEE9push_backERKf(ptr noundef nonnull align 8 dereferenceable(24) %v, ptr noundef nonnull align 4 dereferenceable(4) %y)
          to label %invoke.cont64 unwind label %lpad

invoke.cont64:                                    ; preds = %invoke.cont63
  invoke void @_ZNSt6vectorIfSaIfEE9push_backERKf(ptr noundef nonnull align 8 dereferenceable(24) %v, ptr noundef nonnull align 4 dereferenceable(4) %z)
          to label %invoke.cont65 unwind label %lpad

invoke.cont65:                                    ; preds = %invoke.cont64
  %22 = load i8, ptr %found_all_colors, align 1
  %tobool66 = trunc i8 %22 to i1
  br i1 %tobool66, label %if.then69, label %lor.lhs.false67

lor.lhs.false67:                                  ; preds = %invoke.cont65
  %23 = load i8, ptr %default_vcols_fallback.addr, align 1
  %tobool68 = trunc i8 %23 to i1
  br i1 %tobool68, label %if.then69, label %if.end73

if.then69:                                        ; preds = %lor.lhs.false67, %invoke.cont65
  invoke void @_ZNSt6vectorIfSaIfEE9push_backERKf(ptr noundef nonnull align 8 dereferenceable(24) %vc, ptr noundef nonnull align 4 dereferenceable(4) %r)
          to label %invoke.cont70 unwind label %lpad

invoke.cont70:                                    ; preds = %if.then69
  invoke void @_ZNSt6vectorIfSaIfEE9push_backERKf(ptr noundef nonnull align 8 dereferenceable(24) %vc, ptr noundef nonnull align 4 dereferenceable(4) %g)
          to label %invoke.cont71 unwind label %lpad

invoke.cont71:                                    ; preds = %invoke.cont70
  invoke void @_ZNSt6vectorIfSaIfEE9push_backERKf(ptr noundef nonnull align 8 dereferenceable(24) %vc, ptr noundef nonnull align 4 dereferenceable(4) %b)
          to label %invoke.cont72 unwind label %lpad

invoke.cont72:                                    ; preds = %invoke.cont71
  br label %if.end73

if.end73:                                         ; preds = %invoke.cont72, %lor.lhs.false67
  br label %while.cond, !llvm.loop !11

if.end74:                                         ; preds = %lor.lhs.false, %if.end45
  %24 = load ptr, ptr %token, align 8
  %arrayidx75 = getelementptr inbounds i8, ptr %24, i64 0
  %25 = load i8, ptr %arrayidx75, align 1
  %conv76 = sext i8 %25 to i32
  %cmp77 = icmp eq i32 %conv76, 118
  br i1 %cmp77, label %land.lhs.true78, label %if.end99

land.lhs.true78:                                  ; preds = %if.end74
  %26 = load ptr, ptr %token, align 8
  %arrayidx79 = getelementptr inbounds i8, ptr %26, i64 1
  %27 = load i8, ptr %arrayidx79, align 1
  %conv80 = sext i8 %27 to i32
  %cmp81 = icmp eq i32 %conv80, 110
  br i1 %cmp81, label %land.lhs.true82, label %if.end99

land.lhs.true82:                                  ; preds = %land.lhs.true78
  %28 = load ptr, ptr %token, align 8
  %arrayidx83 = getelementptr inbounds i8, ptr %28, i64 2
  %29 = load i8, ptr %arrayidx83, align 1
  %conv84 = sext i8 %29 to i32
  %cmp85 = icmp eq i32 %conv84, 32
  br i1 %cmp85, label %if.then90, label %lor.lhs.false86

lor.lhs.false86:                                  ; preds = %land.lhs.true82
  %30 = load ptr, ptr %token, align 8
  %arrayidx87 = getelementptr inbounds i8, ptr %30, i64 2
  %31 = load i8, ptr %arrayidx87, align 1
  %conv88 = sext i8 %31 to i32
  %cmp89 = icmp eq i32 %conv88, 9
  br i1 %cmp89, label %if.then90, label %if.end99

if.then90:                                        ; preds = %lor.lhs.false86, %land.lhs.true82
  %32 = load ptr, ptr %token, align 8
  %add.ptr91 = getelementptr inbounds i8, ptr %32, i64 3
  store ptr %add.ptr91, ptr %token, align 8
  invoke void @_ZN7tinyobjL10parseReal3EPfS0_S0_PPKcddd(ptr noundef %x92, ptr noundef %y93, ptr noundef %z94, ptr noundef %token, double noundef 0.000000e+00, double noundef 0.000000e+00, double noundef 0.000000e+00)
          to label %invoke.cont95 unwind label %lpad

invoke.cont95:                                    ; preds = %if.then90
  invoke void @_ZNSt6vectorIfSaIfEE9push_backERKf(ptr noundef nonnull align 8 dereferenceable(24) %vn, ptr noundef nonnull align 4 dereferenceable(4) %x92)
          to label %invoke.cont96 unwind label %lpad

invoke.cont96:                                    ; preds = %invoke.cont95
  invoke void @_ZNSt6vectorIfSaIfEE9push_backERKf(ptr noundef nonnull align 8 dereferenceable(24) %vn, ptr noundef nonnull align 4 dereferenceable(4) %y93)
          to label %invoke.cont97 unwind label %lpad

invoke.cont97:                                    ; preds = %invoke.cont96
  invoke void @_ZNSt6vectorIfSaIfEE9push_backERKf(ptr noundef nonnull align 8 dereferenceable(24) %vn, ptr noundef nonnull align 4 dereferenceable(4) %z94)
          to label %invoke.cont98 unwind label %lpad

invoke.cont98:                                    ; preds = %invoke.cont97
  br label %while.cond, !llvm.loop !11

if.end99:                                         ; preds = %lor.lhs.false86, %land.lhs.true78, %if.end74
  %33 = load ptr, ptr %token, align 8
  %arrayidx100 = getelementptr inbounds i8, ptr %33, i64 0
  %34 = load i8, ptr %arrayidx100, align 1
  %conv101 = sext i8 %34 to i32
  %cmp102 = icmp eq i32 %conv101, 118
  br i1 %cmp102, label %land.lhs.true103, label %if.end122

land.lhs.true103:                                 ; preds = %if.end99
  %35 = load ptr, ptr %token, align 8
  %arrayidx104 = getelementptr inbounds i8, ptr %35, i64 1
  %36 = load i8, ptr %arrayidx104, align 1
  %conv105 = sext i8 %36 to i32
  %cmp106 = icmp eq i32 %conv105, 116
  br i1 %cmp106, label %land.lhs.true107, label %if.end122

land.lhs.true107:                                 ; preds = %land.lhs.true103
  %37 = load ptr, ptr %token, align 8
  %arrayidx108 = getelementptr inbounds i8, ptr %37, i64 2
  %38 = load i8, ptr %arrayidx108, align 1
  %conv109 = sext i8 %38 to i32
  %cmp110 = icmp eq i32 %conv109, 32
  br i1 %cmp110, label %if.then115, label %lor.lhs.false111

lor.lhs.false111:                                 ; preds = %land.lhs.true107
  %39 = load ptr, ptr %token, align 8
  %arrayidx112 = getelementptr inbounds i8, ptr %39, i64 2
  %40 = load i8, ptr %arrayidx112, align 1
  %conv113 = sext i8 %40 to i32
  %cmp114 = icmp eq i32 %conv113, 9
  br i1 %cmp114, label %if.then115, label %if.end122

if.then115:                                       ; preds = %lor.lhs.false111, %land.lhs.true107
  %41 = load ptr, ptr %token, align 8
  %add.ptr116 = getelementptr inbounds i8, ptr %41, i64 3
  store ptr %add.ptr116, ptr %token, align 8
  invoke void @_ZN7tinyobjL10parseReal2EPfS0_PPKcdd(ptr noundef %x117, ptr noundef %y118, ptr noundef %token, double noundef 0.000000e+00, double noundef 0.000000e+00)
          to label %invoke.cont119 unwind label %lpad

invoke.cont119:                                   ; preds = %if.then115
  invoke void @_ZNSt6vectorIfSaIfEE9push_backERKf(ptr noundef nonnull align 8 dereferenceable(24) %vt, ptr noundef nonnull align 4 dereferenceable(4) %x117)
          to label %invoke.cont120 unwind label %lpad

invoke.cont120:                                   ; preds = %invoke.cont119
  invoke void @_ZNSt6vectorIfSaIfEE9push_backERKf(ptr noundef nonnull align 8 dereferenceable(24) %vt, ptr noundef nonnull align 4 dereferenceable(4) %y118)
          to label %invoke.cont121 unwind label %lpad

invoke.cont121:                                   ; preds = %invoke.cont120
  br label %while.cond, !llvm.loop !11

if.end122:                                        ; preds = %lor.lhs.false111, %land.lhs.true103, %if.end99
  %42 = load ptr, ptr %token, align 8
  %arrayidx123 = getelementptr inbounds i8, ptr %42, i64 0
  %43 = load i8, ptr %arrayidx123, align 1
  %conv124 = sext i8 %43 to i32
  %cmp125 = icmp eq i32 %conv124, 118
  br i1 %cmp125, label %land.lhs.true126, label %if.end181

land.lhs.true126:                                 ; preds = %if.end122
  %44 = load ptr, ptr %token, align 8
  %arrayidx127 = getelementptr inbounds i8, ptr %44, i64 1
  %45 = load i8, ptr %arrayidx127, align 1
  %conv128 = sext i8 %45 to i32
  %cmp129 = icmp eq i32 %conv128, 119
  br i1 %cmp129, label %land.lhs.true130, label %if.end181

land.lhs.true130:                                 ; preds = %land.lhs.true126
  %46 = load ptr, ptr %token, align 8
  %arrayidx131 = getelementptr inbounds i8, ptr %46, i64 2
  %47 = load i8, ptr %arrayidx131, align 1
  %conv132 = sext i8 %47 to i32
  %cmp133 = icmp eq i32 %conv132, 32
  br i1 %cmp133, label %if.then138, label %lor.lhs.false134

lor.lhs.false134:                                 ; preds = %land.lhs.true130
  %48 = load ptr, ptr %token, align 8
  %arrayidx135 = getelementptr inbounds i8, ptr %48, i64 2
  %49 = load i8, ptr %arrayidx135, align 1
  %conv136 = sext i8 %49 to i32
  %cmp137 = icmp eq i32 %conv136, 9
  br i1 %cmp137, label %if.then138, label %if.end181

if.then138:                                       ; preds = %lor.lhs.false134, %land.lhs.true130
  %50 = load ptr, ptr %token, align 8
  %add.ptr139 = getelementptr inbounds i8, ptr %50, i64 3
  store ptr %add.ptr139, ptr %token, align 8
  store i32 0, ptr %vid, align 4
  %call141 = invoke noundef i32 @_ZN7tinyobjL8parseIntEPPKc(ptr noundef %token)
          to label %invoke.cont140 unwind label %lpad

invoke.cont140:                                   ; preds = %if.then138
  store i32 %call141, ptr %vid, align 4
  call void @_ZN7tinyobj13skin_weight_tC2Ev(ptr noundef nonnull align 8 dereferenceable(32) %sw) #14
  %51 = load i32, ptr %vid, align 4
  %vertex_id = getelementptr inbounds %"struct.tinyobj::skin_weight_t", ptr %sw, i32 0, i32 0
  store i32 %51, ptr %vertex_id, align 8
  br label %while.cond142

while.cond142:                                    ; preds = %invoke.cont176, %invoke.cont140
  %52 = load ptr, ptr %token, align 8
  %arrayidx143 = getelementptr inbounds i8, ptr %52, i64 0
  %53 = load i8, ptr %arrayidx143, align 1
  %conv144 = sext i8 %53 to i32
  %cmp145 = icmp eq i32 %conv144, 13
  br i1 %cmp145, label %lor.end, label %lor.lhs.false146

lor.lhs.false146:                                 ; preds = %while.cond142
  %54 = load ptr, ptr %token, align 8
  %arrayidx147 = getelementptr inbounds i8, ptr %54, i64 0
  %55 = load i8, ptr %arrayidx147, align 1
  %conv148 = sext i8 %55 to i32
  %cmp149 = icmp eq i32 %conv148, 10
  br i1 %cmp149, label %lor.end, label %lor.rhs

lor.rhs:                                          ; preds = %lor.lhs.false146
  %56 = load ptr, ptr %token, align 8
  %arrayidx150 = getelementptr inbounds i8, ptr %56, i64 0
  %57 = load i8, ptr %arrayidx150, align 1
  %conv151 = sext i8 %57 to i32
  %cmp152 = icmp eq i32 %conv151, 0
  br label %lor.end

lor.end:                                          ; preds = %lor.rhs, %lor.lhs.false146, %while.cond142
  %58 = phi i1 [ true, %lor.lhs.false146 ], [ true, %while.cond142 ], [ %cmp152, %lor.rhs ]
  %lnot = xor i1 %58, true
  br i1 %lnot, label %while.body153, label %while.end

while.body153:                                    ; preds = %lor.end
  invoke void @_ZN7tinyobjL10parseReal2EPfS0_PPKcdd(ptr noundef %j, ptr noundef %w, ptr noundef %token, double noundef -1.000000e+00, double noundef 0.000000e+00)
          to label %invoke.cont155 unwind label %lpad154

invoke.cont155:                                   ; preds = %while.body153
  %59 = load float, ptr %j, align 4
  %cmp156 = fcmp olt float %59, 0.000000e+00
  br i1 %cmp156, label %if.then157, label %if.end174

if.then157:                                       ; preds = %invoke.cont155
  %60 = load ptr, ptr %err.addr, align 8
  %tobool158 = icmp ne ptr %60, null
  br i1 %tobool158, label %if.then159, label %if.end173

if.then159:                                       ; preds = %if.then157
  invoke void @_ZNSt7__cxx1118basic_stringstreamIcSt11char_traitsIcESaIcEEC1Ev(ptr noundef nonnull align 8 dereferenceable(128) %ss)
          to label %invoke.cont160 unwind label %lpad154

invoke.cont160:                                   ; preds = %if.then159
  %add.ptr161 = getelementptr inbounds i8, ptr %ss, i64 16
  %call164 = invoke noundef nonnull align 8 dereferenceable(8) ptr @_ZStlsISt11char_traitsIcEERSt13basic_ostreamIcT_ES5_PKc(ptr noundef nonnull align 8 dereferenceable(8) %add.ptr161, ptr noundef @.str.48)
          to label %invoke.cont163 unwind label %lpad162

invoke.cont163:                                   ; preds = %invoke.cont160
  %61 = load i64, ptr %line_num, align 8
  %call166 = invoke noundef nonnull align 8 dereferenceable(8) ptr @_ZNSolsEm(ptr noundef nonnull align 8 dereferenceable(8) %call164, i64 noundef %61)
          to label %invoke.cont165 unwind label %lpad162

invoke.cont165:                                   ; preds = %invoke.cont163
  %call168 = invoke noundef nonnull align 8 dereferenceable(8) ptr @_ZStlsISt11char_traitsIcEERSt13basic_ostreamIcT_ES5_PKc(ptr noundef nonnull align 8 dereferenceable(8) %call166, ptr noundef @.str.49)
          to label %invoke.cont167 unwind label %lpad162

invoke.cont167:                                   ; preds = %invoke.cont165
  invoke void @_ZNKSt7__cxx1118basic_stringstreamIcSt11char_traitsIcESaIcEE3strEv(ptr sret(%"class.std::__cxx11::basic_string") align 8 %ref.tmp, ptr noundef nonnull align 8 dereferenceable(128) %ss)
          to label %invoke.cont169 unwind label %lpad162

invoke.cont169:                                   ; preds = %invoke.cont167
  %62 = load ptr, ptr %err.addr, align 8
  %call172 = invoke noundef nonnull align 8 dereferenceable(32) ptr @_ZNSt7__cxx1112basic_stringIcSt11char_traitsIcESaIcEEpLERKS4_(ptr noundef nonnull align 8 dereferenceable(32) %62, ptr noundef nonnull align 8 dereferenceable(32) %ref.tmp)
          to label %invoke.cont171 unwind label %lpad170

invoke.cont171:                                   ; preds = %invoke.cont169
  call void @_ZNSt7__cxx1112basic_stringIcSt11char_traitsIcESaIcEED1Ev(ptr noundef nonnull align 8 dereferenceable(32) %ref.tmp) #14
  call void @_ZNSt7__cxx1118basic_stringstreamIcSt11char_traitsIcESaIcEED1Ev(ptr noundef nonnull align 8 dereferenceable(128) %ss) #14
  br label %if.end173

lpad154:                                          ; preds = %while.end, %if.end174, %if.then159, %while.body153
  %63 = landingpad { ptr, i32 }
          cleanup
  %64 = extractvalue { ptr, i32 } %63, 0
  store ptr %64, ptr %exn.slot, align 8
  %65 = extractvalue { ptr, i32 } %63, 1
  store i32 %65, ptr %ehselector.slot, align 4
  br label %ehcleanup180

lpad162:                                          ; preds = %invoke.cont167, %invoke.cont165, %invoke.cont163, %invoke.cont160
  %66 = landingpad { ptr, i32 }
          cleanup
  %67 = extractvalue { ptr, i32 } %66, 0
  store ptr %67, ptr %exn.slot, align 8
  %68 = extractvalue { ptr, i32 } %66, 1
  store i32 %68, ptr %ehselector.slot, align 4
  br label %ehcleanup

lpad170:                                          ; preds = %invoke.cont169
  %69 = landingpad { ptr, i32 }
          cleanup
  %70 = extractvalue { ptr, i32 } %69, 0
  store ptr %70, ptr %exn.slot, align 8
  %71 = extractvalue { ptr, i32 } %69, 1
  store i32 %71, ptr %ehselector.slot, align 4
  call void @_ZNSt7__cxx1112basic_stringIcSt11char_traitsIcESaIcEED1Ev(ptr noundef nonnull align 8 dereferenceable(32) %ref.tmp) #14
  br label %ehcleanup

ehcleanup:                                        ; preds = %lpad170, %lpad162
  call void @_ZNSt7__cxx1118basic_stringstreamIcSt11char_traitsIcESaIcEED1Ev(ptr noundef nonnull align 8 dereferenceable(128) %ss) #14
  br label %ehcleanup180

if.end173:                                        ; preds = %invoke.cont171, %if.then157
  store i1 false, ptr %retval, align 1
  store i32 1, ptr %cleanup.dest.slot, align 4
  br label %cleanup

if.end174:                                        ; preds = %invoke.cont155
  %72 = load float, ptr %j, align 4
  %conv175 = fptosi float %72 to i32
  %joint_id = getelementptr inbounds %"struct.tinyobj::joint_and_weight_t", ptr %jw, i32 0, i32 0
  store i32 %conv175, ptr %joint_id, align 4
  %73 = load float, ptr %w, align 4
  %weight = getelementptr inbounds %"struct.tinyobj::joint_and_weight_t", ptr %jw, i32 0, i32 1
  store float %73, ptr %weight, align 4
  %weightValues = getelementptr inbounds %"struct.tinyobj::skin_weight_t", ptr %sw, i32 0, i32 1
  invoke void @_ZNSt6vectorIN7tinyobj18joint_and_weight_tESaIS1_EE9push_backERKS1_(ptr noundef nonnull align 8 dereferenceable(24) %weightValues, ptr noundef nonnull align 4 dereferenceable(8) %jw)
          to label %invoke.cont176 unwind label %lpad154

invoke.cont176:                                   ; preds = %if.end174
  %74 = load ptr, ptr %token, align 8
  %call177 = call i64 @strspn(ptr noundef %74, ptr noundef @.str.12) #15
  store i64 %call177, ptr %n, align 8
  %75 = load i64, ptr %n, align 8
  %76 = load ptr, ptr %token, align 8
  %add.ptr178 = getelementptr inbounds i8, ptr %76, i64 %75
  store ptr %add.ptr178, ptr %token, align 8
  br label %while.cond142, !llvm.loop !12

while.end:                                        ; preds = %lor.end
  invoke void @_ZNSt6vectorIN7tinyobj13skin_weight_tESaIS1_EE9push_backERKS1_(ptr noundef nonnull align 8 dereferenceable(24) %vw, ptr noundef nonnull align 8 dereferenceable(32) %sw)
          to label %invoke.cont179 unwind label %lpad154

invoke.cont179:                                   ; preds = %while.end
  store i32 0, ptr %cleanup.dest.slot, align 4
  br label %cleanup

cleanup:                                          ; preds = %invoke.cont179, %if.end173
  call void @_ZN7tinyobj13skin_weight_tD2Ev(ptr noundef nonnull align 8 dereferenceable(32) %sw) #14
  %cleanup.dest = load i32, ptr %cleanup.dest.slot, align 4
  switch i32 %cleanup.dest, label %cleanup971 [
    i32 0, label %cleanup.cont
  ]

cleanup.cont:                                     ; preds = %cleanup
  br label %if.end181

ehcleanup180:                                     ; preds = %ehcleanup, %lpad154
  call void @_ZN7tinyobj13skin_weight_tD2Ev(ptr noundef nonnull align 8 dereferenceable(32) %sw) #14
  br label %ehcleanup972

if.end181:                                        ; preds = %cleanup.cont, %lor.lhs.false134, %land.lhs.true126, %if.end122
  %77 = load ptr, ptr %warn.addr, align 8
  %warn182 = getelementptr inbounds %"struct.tinyobj::warning_context", ptr %context, i32 0, i32 0
  store ptr %77, ptr %warn182, align 8
  %78 = load i64, ptr %line_num, align 8
  %line_number = getelementptr inbounds %"struct.tinyobj::warning_context", ptr %context, i32 0, i32 1
  store i64 %78, ptr %line_number, align 8
  %79 = load ptr, ptr %token, align 8
  %arrayidx183 = getelementptr inbounds i8, ptr %79, i64 0
  %80 = load i8, ptr %arrayidx183, align 1
  %conv184 = sext i8 %80 to i32
  %cmp185 = icmp eq i32 %conv184, 108
  br i1 %cmp185, label %land.lhs.true186, label %if.end251

land.lhs.true186:                                 ; preds = %if.end181
  %81 = load ptr, ptr %token, align 8
  %arrayidx187 = getelementptr inbounds i8, ptr %81, i64 1
  %82 = load i8, ptr %arrayidx187, align 1
  %conv188 = sext i8 %82 to i32
  %cmp189 = icmp eq i32 %conv188, 32
  br i1 %cmp189, label %if.then194, label %lor.lhs.false190

lor.lhs.false190:                                 ; preds = %land.lhs.true186
  %83 = load ptr, ptr %token, align 8
  %arrayidx191 = getelementptr inbounds i8, ptr %83, i64 1
  %84 = load i8, ptr %arrayidx191, align 1
  %conv192 = sext i8 %84 to i32
  %cmp193 = icmp eq i32 %conv192, 9
  br i1 %cmp193, label %if.then194, label %if.end251

if.then194:                                       ; preds = %lor.lhs.false190, %land.lhs.true186
  %85 = load ptr, ptr %token, align 8
  %add.ptr195 = getelementptr inbounds i8, ptr %85, i64 2
  store ptr %add.ptr195, ptr %token, align 8
  call void @_ZN7tinyobj8__line_tC2Ev(ptr noundef nonnull align 8 dereferenceable(24) %line) #14
  br label %while.cond196

while.cond196:                                    ; preds = %invoke.cont242, %if.then194
  %86 = load ptr, ptr %token, align 8
  %arrayidx197 = getelementptr inbounds i8, ptr %86, i64 0
  %87 = load i8, ptr %arrayidx197, align 1
  %conv198 = sext i8 %87 to i32
  %cmp199 = icmp eq i32 %conv198, 13
  br i1 %cmp199, label %lor.end208, label %lor.lhs.false200

lor.lhs.false200:                                 ; preds = %while.cond196
  %88 = load ptr, ptr %token, align 8
  %arrayidx201 = getelementptr inbounds i8, ptr %88, i64 0
  %89 = load i8, ptr %arrayidx201, align 1
  %conv202 = sext i8 %89 to i32
  %cmp203 = icmp eq i32 %conv202, 10
  br i1 %cmp203, label %lor.end208, label %lor.rhs204

lor.rhs204:                                       ; preds = %lor.lhs.false200
  %90 = load ptr, ptr %token, align 8
  %arrayidx205 = getelementptr inbounds i8, ptr %90, i64 0
  %91 = load i8, ptr %arrayidx205, align 1
  %conv206 = sext i8 %91 to i32
  %cmp207 = icmp eq i32 %conv206, 0
  br label %lor.end208

lor.end208:                                       ; preds = %lor.rhs204, %lor.lhs.false200, %while.cond196
  %92 = phi i1 [ true, %lor.lhs.false200 ], [ true, %while.cond196 ], [ %cmp207, %lor.rhs204 ]
  %lnot209 = xor i1 %92, true
  br i1 %lnot209, label %while.body210, label %while.end246

while.body210:                                    ; preds = %lor.end208
  invoke void @_ZN7tinyobj14vertex_index_tC2Ev(ptr noundef nonnull align 4 dereferenceable(12) %vi)
          to label %invoke.cont212 unwind label %lpad211

invoke.cont212:                                   ; preds = %while.body210
  %call213 = call noundef i64 @_ZNKSt6vectorIfSaIfEE4sizeEv(ptr noundef nonnull align 8 dereferenceable(24) %v) #14
  %div = udiv i64 %call213, 3
  %conv214 = trunc i64 %div to i32
  %call215 = call noundef i64 @_ZNKSt6vectorIfSaIfEE4sizeEv(ptr noundef nonnull align 8 dereferenceable(24) %vn) #14
  %div216 = udiv i64 %call215, 3
  %conv217 = trunc i64 %div216 to i32
  %call218 = call noundef i64 @_ZNKSt6vectorIfSaIfEE4sizeEv(ptr noundef nonnull align 8 dereferenceable(24) %vt) #14
  %div219 = udiv i64 %call218, 2
  %conv220 = trunc i64 %div219 to i32
  %call222 = invoke noundef zeroext i1 @_ZN7tinyobjL11parseTripleEPPKciiiPNS_14vertex_index_tERKNS_15warning_contextE(ptr noundef %token, i32 noundef %conv214, i32 noundef %conv217, i32 noundef %conv220, ptr noundef %vi, ptr noundef nonnull align 8 dereferenceable(16) %context)
          to label %invoke.cont221 unwind label %lpad211

invoke.cont221:                                   ; preds = %invoke.cont212
  br i1 %call222, label %if.end241, label %if.then223

if.then223:                                       ; preds = %invoke.cont221
  %93 = load ptr, ptr %err.addr, align 8
  %tobool224 = icmp ne ptr %93, null
  br i1 %tobool224, label %if.then225, label %if.end240

if.then225:                                       ; preds = %if.then223
  invoke void @_ZN7tinyobjL8toStringImEENSt7__cxx1112basic_stringIcSt11char_traitsIcESaIcEEERKT_(ptr sret(%"class.std::__cxx11::basic_string") align 8 %ref.tmp228, ptr noundef nonnull align 8 dereferenceable(8) %line_num)
          to label %invoke.cont229 unwind label %lpad211

invoke.cont229:                                   ; preds = %if.then225
  invoke void @_ZStplIcSt11char_traitsIcESaIcEENSt7__cxx1112basic_stringIT_T0_T1_EEPKS5_OS8_(ptr sret(%"class.std::__cxx11::basic_string") align 8 %ref.tmp227, ptr noundef @.str.50, ptr noundef nonnull align 8 dereferenceable(32) %ref.tmp228)
          to label %invoke.cont231 unwind label %lpad230

invoke.cont231:                                   ; preds = %invoke.cont229
  invoke void @_ZStplIcSt11char_traitsIcESaIcEENSt7__cxx1112basic_stringIT_T0_T1_EEOS8_PKS5_(ptr sret(%"class.std::__cxx11::basic_string") align 8 %ref.tmp226, ptr noundef nonnull align 8 dereferenceable(32) %ref.tmp227, ptr noundef @.str.51)
          to label %invoke.cont233 unwind label %lpad232

invoke.cont233:                                   ; preds = %invoke.cont231
  %94 = load ptr, ptr %err.addr, align 8
  %call236 = invoke noundef nonnull align 8 dereferenceable(32) ptr @_ZNSt7__cxx1112basic_stringIcSt11char_traitsIcESaIcEEpLERKS4_(ptr noundef nonnull align 8 dereferenceable(32) %94, ptr noundef nonnull align 8 dereferenceable(32) %ref.tmp226)
          to label %invoke.cont235 unwind label %lpad234

invoke.cont235:                                   ; preds = %invoke.cont233
  call void @_ZNSt7__cxx1112basic_stringIcSt11char_traitsIcESaIcEED1Ev(ptr noundef nonnull align 8 dereferenceable(32) %ref.tmp226) #14
  call void @_ZNSt7__cxx1112basic_stringIcSt11char_traitsIcESaIcEED1Ev(ptr noundef nonnull align 8 dereferenceable(32) %ref.tmp227) #14
  call void @_ZNSt7__cxx1112basic_stringIcSt11char_traitsIcESaIcEED1Ev(ptr noundef nonnull align 8 dereferenceable(32) %ref.tmp228) #14
  br label %if.end240

lpad211:                                          ; preds = %while.end246, %if.end241, %if.then225, %invoke.cont212, %while.body210
  %95 = landingpad { ptr, i32 }
          cleanup
  %96 = extractvalue { ptr, i32 } %95, 0
  store ptr %96, ptr %exn.slot, align 8
  %97 = extractvalue { ptr, i32 } %95, 1
  store i32 %97, ptr %ehselector.slot, align 4
  br label %ehcleanup250

lpad230:                                          ; preds = %invoke.cont229
  %98 = landingpad { ptr, i32 }
          cleanup
  %99 = extractvalue { ptr, i32 } %98, 0
  store ptr %99, ptr %exn.slot, align 8
  %100 = extractvalue { ptr, i32 } %98, 1
  store i32 %100, ptr %ehselector.slot, align 4
  br label %ehcleanup239

lpad232:                                          ; preds = %invoke.cont231
  %101 = landingpad { ptr, i32 }
          cleanup
  %102 = extractvalue { ptr, i32 } %101, 0
  store ptr %102, ptr %exn.slot, align 8
  %103 = extractvalue { ptr, i32 } %101, 1
  store i32 %103, ptr %ehselector.slot, align 4
  br label %ehcleanup238

lpad234:                                          ; preds = %invoke.cont233
  %104 = landingpad { ptr, i32 }
          cleanup
  %105 = extractvalue { ptr, i32 } %104, 0
  store ptr %105, ptr %exn.slot, align 8
  %106 = extractvalue { ptr, i32 } %104, 1
