; ModuleID = 'bench/eastl/original/TestVector.cpp.ll'
source_filename = "bench/eastl/original/TestVector.cpp.ll"
target datalayout = "e-m:e-p270:32:32-p271:32:32-p272:64:64-i64:64-i128:128-f80:128-n8:16:32:64-S128"
target triple = "x86_64-unknown-linux-gnu"

%"struct.eastl::VectorBase" = type { ptr, ptr, %"class.eastl::compressed_pair" }
%"class.eastl::compressed_pair" = type { %"class.eastl::compressed_pair_imp" }
%"class.eastl::compressed_pair_imp" = type { ptr }
%"class.eastl::reverse_iterator" = type { ptr }
%"class.eastl::reverse_iterator.0" = type { ptr }
%"struct.eastl::VectorBase.2" = type { ptr, ptr, %"class.eastl::compressed_pair.3" }
%"class.eastl::compressed_pair.3" = type { %"class.eastl::compressed_pair_imp.4" }
%"class.eastl::compressed_pair_imp.4" = type { ptr }
%"class.eastl::reverse_iterator.6" = type { ptr }
%"class.eastl::reverse_iterator.7" = type { ptr }
%struct.Align64 = type { i32, [60 x i8] }
%"struct.eastl::VectorBase.10" = type { ptr, ptr, %"class.eastl::compressed_pair.11" }
%"class.eastl::compressed_pair.11" = type { %"class.eastl::compressed_pair_imp.12" }
%"class.eastl::compressed_pair_imp.12" = type { ptr }
%"class.eastl::reverse_iterator.14" = type { ptr }
%"class.eastl::reverse_iterator.15" = type { ptr }
%struct.TestObject = type <{ i32, i8, [3 x i8], i64, i32, [4 x i8] }>
%"struct.eastl::VectorBase.18" = type { ptr, ptr, %"class.eastl::compressed_pair.19" }
%"class.eastl::compressed_pair.19" = type { %"class.eastl::compressed_pair_imp.20" }
%"class.eastl::compressed_pair_imp.20" = type { ptr }
%"class.eastl::reverse_iterator.22" = type { ptr }
%"class.eastl::reverse_iterator.23" = type { ptr }
%"struct.eastl::VectorBase.26" = type { ptr, ptr, %"class.eastl::compressed_pair.27" }
%"class.eastl::compressed_pair.27" = type { %"class.eastl::compressed_pair_imp.28" }
%"class.eastl::compressed_pair_imp.28" = type { ptr }
%struct.HasAddressOfOperator = type { i8 }
%"class.eastl::reverse_iterator.30" = type { ptr }
%"class.eastl::reverse_iterator.31" = type { ptr }
%"struct.eastl::DequeIterator.61" = type { ptr, ptr, ptr, ptr }
%"struct.eastl::ListIterator" = type { ptr }
%"struct.eastl::SListIterator" = type { ptr }
%class.demoted_iterator = type { ptr }
%"struct.eastl::DequeIterator.66" = type { ptr, ptr, ptr, ptr }
%"class.eastl::vector.33" = type { %"struct.eastl::VectorBase.34" }
%"struct.eastl::VectorBase.34" = type { ptr, ptr, %"class.eastl::compressed_pair.35" }
%"class.eastl::compressed_pair.35" = type { %"class.eastl::compressed_pair_imp.36" }
%"class.eastl::compressed_pair_imp.36" = type { ptr }
%"struct.(anonymous namespace)::AntMetaDataRecord" = type { %"class.eastl::vector.37" }
%"class.eastl::vector.37" = type { %"struct.eastl::VectorBase.38" }
%"struct.eastl::VectorBase.38" = type { ptr, ptr, %"class.eastl::compressed_pair.39" }
%"class.eastl::compressed_pair.39" = type { %"class.eastl::compressed_pair_imp.40" }
%"class.eastl::compressed_pair_imp.40" = type { ptr }
%"class.eastl::vector.17" = type { %"struct.eastl::VectorBase.18" }
%"class.eastl::vector.41" = type { %"struct.eastl::VectorBase.42" }
%"struct.eastl::VectorBase.42" = type { ptr, ptr, %"class.eastl::compressed_pair.43" }
%"class.eastl::compressed_pair.43" = type { %"class.eastl::compressed_pair_imp.44" }
%"class.eastl::compressed_pair_imp.44" = type { ptr }
%"class.eastl::vector.45" = type { %"struct.eastl::VectorBase.46" }
%"struct.eastl::VectorBase.46" = type { ptr, ptr, %"class.eastl::compressed_pair.47" }
%"class.eastl::compressed_pair.47" = type { %"class.eastl::compressed_pair_imp.48" }
%"class.eastl::compressed_pair_imp.48" = type { ptr, %class.MallocAllocator }
%class.MallocAllocator = type { i32, i32, i64 }
%"class.eastl::vector.49" = type { %"struct.eastl::VectorBase.50" }
%"struct.eastl::VectorBase.50" = type { ptr, ptr, %"class.eastl::compressed_pair.51" }
%"class.eastl::compressed_pair.51" = type { %"class.eastl::compressed_pair_imp.52" }
%"class.eastl::compressed_pair_imp.52" = type { ptr, %class.MallocAllocator }
%"class.eastl::vector.53" = type { %"struct.eastl::VectorBase.54" }
%"struct.eastl::VectorBase.54" = type { ptr, ptr, %"class.eastl::compressed_pair.55" }
%"class.eastl::compressed_pair.55" = type { %"class.eastl::compressed_pair_imp.56" }
%"class.eastl::compressed_pair_imp.56" = type { ptr, %class.MallocAllocator }
%"class.eastl::list" = type { %"class.eastl::ListBase" }
%"class.eastl::ListBase" = type { %"class.eastl::compressed_pair.57", i64 }
%"class.eastl::compressed_pair.57" = type { %"class.eastl::compressed_pair_imp.58" }
%"class.eastl::compressed_pair_imp.58" = type { %"struct.eastl::ListNodeBase" }
%"struct.eastl::ListNodeBase" = type { ptr, ptr }
%"class.eastl::allocator" = type { i8 }
%"class.eastl::deque" = type { %"struct.eastl::DequeBase.base", [7 x i8] }
%"struct.eastl::DequeBase.base" = type <{ ptr, i64, %"struct.eastl::DequeIterator", %"struct.eastl::DequeIterator", %"class.eastl::allocator" }>
%"struct.eastl::DequeIterator" = type { ptr, ptr, ptr, ptr }
%"class.eastl::deque.59" = type { %"struct.eastl::DequeBase.base.62", [7 x i8] }
%"struct.eastl::DequeBase.base.62" = type <{ ptr, i64, %"struct.eastl::DequeIterator.61", %"struct.eastl::DequeIterator.61", %"class.eastl::allocator" }>
%"class.eastl::deque.64" = type { %"struct.eastl::DequeBase.base.67", [7 x i8] }
%"struct.eastl::DequeBase.base.67" = type <{ ptr, i64, %"struct.eastl::DequeIterator.66", %"struct.eastl::DequeIterator.66", %"class.eastl::allocator" }>
%"class.eastl::vector.1" = type { %"struct.eastl::VectorBase.2" }
%"class.eastl::vector.78" = type { %"struct.eastl::VectorBase.79" }
%"struct.eastl::VectorBase.79" = type { ptr, ptr, %"class.eastl::compressed_pair.80" }
%"class.eastl::compressed_pair.80" = type { %"class.eastl::compressed_pair_imp.81" }
%"class.eastl::compressed_pair_imp.81" = type { ptr }
%"class.eastl::vector.69" = type { %"struct.eastl::VectorBase.70" }
%"struct.eastl::VectorBase.70" = type { ptr, ptr, %"class.eastl::compressed_pair.71" }
%"class.eastl::compressed_pair.71" = type { %"class.eastl::compressed_pair_imp.72" }
%"class.eastl::compressed_pair_imp.72" = type { ptr }
%"class.eastl::vector.87" = type { %"struct.eastl::VectorBase.88" }
%"struct.eastl::VectorBase.88" = type { ptr, ptr, %"class.eastl::compressed_pair.89" }
%"class.eastl::compressed_pair.89" = type { %"class.eastl::compressed_pair_imp.90" }
%"class.eastl::compressed_pair_imp.90" = type { ptr }
%"class.eastl::slist" = type { %"struct.eastl::SListBase" }
%"struct.eastl::SListBase" = type { %"class.eastl::compressed_pair.91", i64 }
%"class.eastl::compressed_pair.91" = type { %"class.eastl::compressed_pair_imp.92" }
%"class.eastl::compressed_pair_imp.92" = type { %"struct.eastl::SListNodeBase" }
%"struct.eastl::SListNodeBase" = type { ptr }
%"class.eastl::basic_string" = type { %"class.eastl::compressed_pair.94" }
%"class.eastl::compressed_pair.94" = type { %"class.eastl::compressed_pair_imp.95" }
%"class.eastl::compressed_pair_imp.95" = type { %"struct.eastl::basic_string<char>::Layout" }
%"struct.eastl::basic_string<char>::Layout" = type { %union.anon }
%union.anon = type { %"struct.eastl::basic_string<char>::HeapLayout" }
%"struct.eastl::basic_string<char>::HeapLayout" = type { ptr, i64, i64 }
%"class.eastl::vector.96" = type { %"struct.eastl::VectorBase.97" }
%"struct.eastl::VectorBase.97" = type { ptr, ptr, %"class.eastl::compressed_pair.98" }
%"class.eastl::compressed_pair.98" = type { %"class.eastl::compressed_pair_imp.99" }
%"class.eastl::compressed_pair_imp.99" = type { ptr }
%"class.eastl::vector.100" = type { %"struct.eastl::VectorBase.101" }
%"struct.eastl::VectorBase.101" = type { ptr, ptr, %"class.eastl::compressed_pair.102" }
%"class.eastl::compressed_pair.102" = type { %"class.eastl::compressed_pair_imp.base", [7 x i8] }
%"class.eastl::compressed_pair_imp.base" = type <{ ptr, %class.InstanceAllocator }>
%class.InstanceAllocator = type { i8, [32 x i8] }
%"class.eastl::vector.149" = type { %"struct.eastl::VectorBase.150" }
%"struct.eastl::VectorBase.150" = type { ptr, ptr, %"class.eastl::compressed_pair.151" }
%"class.eastl::compressed_pair.151" = type { %"class.eastl::compressed_pair_imp.base.153", [7 x i8] }
%"class.eastl::compressed_pair_imp.base.153" = type <{ ptr, %class.InstanceAllocator }>
%"class.eastl::unique_ptr" = type { %"class.eastl::compressed_pair.82" }
%"class.eastl::compressed_pair.82" = type { %"class.eastl::compressed_pair_imp.83" }
%"class.eastl::compressed_pair_imp.83" = type { ptr }
%"struct.(anonymous namespace)::ScenarioRefEntry" = type { ptr, %"class.eastl::vector.157" }
%"class.eastl::vector.157" = type { %"struct.eastl::VectorBase.158" }
%"struct.eastl::VectorBase.158" = type { ptr, ptr, %"class.eastl::compressed_pair.159" }
%"class.eastl::compressed_pair.159" = type { %"class.eastl::compressed_pair_imp.160" }
%"class.eastl::compressed_pair_imp.160" = type { ptr }
%"struct.eastl::ListNode" = type { %"struct.eastl::ListNodeBase", %struct.TestObject }
%"struct.eastl::DequeBase" = type <{ ptr, i64, %"struct.eastl::DequeIterator", %"struct.eastl::DequeIterator", %"class.eastl::allocator", [7 x i8] }>
%"struct.eastl::DequeBase.60" = type <{ ptr, i64, %"struct.eastl::DequeIterator.61", %"struct.eastl::DequeIterator.61", %"class.eastl::allocator", [7 x i8] }>
%"struct.eastl::DequeBase.65" = type <{ ptr, i64, %"struct.eastl::DequeIterator.66", %"struct.eastl::DequeIterator.66", %"class.eastl::allocator", [7 x i8] }>
%"struct.eastl::basic_string<char>::SSOLayout" = type { [23 x i8], %"struct.eastl::basic_string<char>::SSOLayout::SSOSize" }
%"struct.eastl::basic_string<char>::SSOLayout::SSOSize" = type { i8 }
%class.DefaultConstructible = type { i32 }
%class.CopyConstructible = type { i32 }
%class.MoveConstructible = type { i32 }
%struct.MoveAndDefaultConstructible = type { i32 }
%struct.__va_list_tag = type { i32, i32, ptr, ptr }
%"struct.eastl::SListNode" = type { %"struct.eastl::SListNodeBase", %struct.TestObject }
%"struct.(anonymous namespace)::ScenarioRefEntry::RowEntry" = type { i32, i32, i32, i32, ptr }

$_ZN5eastl6vectorIbNS_9allocatorEEC5Ev = comdat any

$_ZN5eastl6vectorIbNS_9allocatorEEC5ERKS1_ = comdat any

$__clang_call_terminate = comdat any

$_ZN5eastl6vectorIbNS_9allocatorEEC5EmRKS1_ = comdat any

$_ZN5eastl6vectorIbNS_9allocatorEEC5EmRKbRKS1_ = comdat any

$_ZN5eastl6vectorIbNS_9allocatorEEC5ERKS2_ = comdat any

$_ZNK5eastl6vectorIbNS_9allocatorEE4sizeEv = comdat any

$_ZN5eastl6vectorIbNS_9allocatorEEC5ERKS2_RKS1_ = comdat any

$_ZN5eastl6vectorIbNS_9allocatorEEC5EOS2_ = comdat any

$_ZN5eastl6vectorIbNS_9allocatorEE6DoSwapERS2_ = comdat any

$_ZN5eastl6vectorIbNS_9allocatorEEC5EOS2_RKS1_ = comdat any

$_ZN5eastl6vectorIbNS_9allocatorEE4swapERS2_ = comdat any

$_ZN5eastl6vectorIbNS_9allocatorEEC5ESt16initializer_listIbERKS1_ = comdat any

$_ZN5eastl6vectorIbNS_9allocatorEED5Ev = comdat any

$_ZN5eastl6vectorIbNS_9allocatorEEaSERKS2_ = comdat any

$_ZN5eastl6vectorIbNS_9allocatorEE15DoClearCapacityEv = comdat any

$_ZNK5eastl6vectorIbNS_9allocatorEE5beginEv = comdat any

$_ZNK5eastl6vectorIbNS_9allocatorEE3endEv = comdat any

$_ZN5eastl6vectorIbNS_9allocatorEEaSESt16initializer_listIbE = comdat any

$_ZN5eastl6vectorIbNS_9allocatorEEaSEOS2_ = comdat any

$_ZN5eastl6vectorIbNS_9allocatorEE6assignEmRKb = comdat any

$_ZN5eastl6vectorIbNS_9allocatorEE14DoAssignValuesEmRKb = comdat any

$_ZN5eastl6vectorIbNS_9allocatorEE6assignESt16initializer_listIbE = comdat any

$_ZN5eastl6vectorIbNS_9allocatorEE5beginEv = comdat any

$_ZNK5eastl6vectorIbNS_9allocatorEE6cbeginEv = comdat any

$_ZN5eastl6vectorIbNS_9allocatorEE3endEv = comdat any

$_ZNK5eastl6vectorIbNS_9allocatorEE4cendEv = comdat any

$_ZN5eastl6vectorIbNS_9allocatorEE6rbeginEv = comdat any

$_ZNK5eastl6vectorIbNS_9allocatorEE6rbeginEv = comdat any

$_ZNK5eastl6vectorIbNS_9allocatorEE7crbeginEv = comdat any

$_ZN5eastl6vectorIbNS_9allocatorEE4rendEv = comdat any

$_ZNK5eastl6vectorIbNS_9allocatorEE4rendEv = comdat any

$_ZNK5eastl6vectorIbNS_9allocatorEE5crendEv = comdat any

$_ZNK5eastl6vectorIbNS_9allocatorEE5emptyEv = comdat any

$_ZNK5eastl6vectorIbNS_9allocatorEE8capacityEv = comdat any

$_ZN5eastl6vectorIbNS_9allocatorEE6resizeEmRKb = comdat any

$_ZN5eastl6vectorIbNS_9allocatorEE17DoInsertValuesEndEmRKb = comdat any

$_ZN5eastl6vectorIbNS_9allocatorEE6resizeEm = comdat any

$_ZN5eastl6vectorIbNS_9allocatorEE17DoInsertValuesEndEm = comdat any

$_ZN5eastl6vectorIbNS_9allocatorEE7reserveEm = comdat any

$_ZN5eastl6vectorIbNS_9allocatorEE6DoGrowEm = comdat any

$_ZN5eastl6vectorIbNS_9allocatorEE12set_capacityEm = comdat any

$_ZN5eastl6vectorIbNS_9allocatorEE5clearEv = comdat any

$_ZN5eastl6vectorIbNS_9allocatorEE13shrink_to_fitEv = comdat any

$_ZN5eastl6vectorIbNS_9allocatorEE4dataEv = comdat any

$_ZNK5eastl6vectorIbNS_9allocatorEE4dataEv = comdat any

$_ZN5eastl6vectorIbNS_9allocatorEEixEm = comdat any

$_ZNK5eastl6vectorIbNS_9allocatorEEixEm = comdat any

$_ZN5eastl6vectorIbNS_9allocatorEE2atEm = comdat any

$_ZNK5eastl6vectorIbNS_9allocatorEE2atEm = comdat any

$_ZN5eastl6vectorIbNS_9allocatorEE5frontEv = comdat any

$_ZNK5eastl6vectorIbNS_9allocatorEE5frontEv = comdat any

$_ZN5eastl6vectorIbNS_9allocatorEE4backEv = comdat any

$_ZNK5eastl6vectorIbNS_9allocatorEE4backEv = comdat any

$_ZN5eastl6vectorIbNS_9allocatorEE9push_backERKb = comdat any

$_ZN5eastl6vectorIbNS_9allocatorEE9push_backEv = comdat any

$_ZN5eastl6vectorIbNS_9allocatorEE23push_back_uninitializedEv = comdat any

$_ZN5eastl6vectorIbNS_9allocatorEE9push_backEOb = comdat any

$_ZN5eastl6vectorIbNS_9allocatorEE8pop_backEv = comdat any

$_ZN5eastl6vectorIbNS_9allocatorEE6insertEPKbRS3_ = comdat any

$_ZN5eastl6vectorIbNS_9allocatorEE13DoInsertValueIJRKbEEEvPS4_DpOT_ = comdat any

$_ZN5eastl6vectorIbNS_9allocatorEE6insertEPKbmRS3_ = comdat any

$_ZN5eastl6vectorIbNS_9allocatorEE14DoInsertValuesEPKbmRS3_ = comdat any

$_ZN5eastl6vectorIbNS_9allocatorEE6insertEPKbOb = comdat any

$_ZN5eastl6vectorIbNS_9allocatorEE6insertEPKbSt16initializer_listIbE = comdat any

$_ZN5eastl6vectorIbNS_9allocatorEE11erase_firstERKb = comdat any

$_ZN5eastl6vectorIbNS_9allocatorEE5eraseEPKb = comdat any

$_ZN5eastl6vectorIbNS_9allocatorEE20erase_first_unsortedERKb = comdat any

$_ZN5eastl6vectorIbNS_9allocatorEE14erase_unsortedEPKb = comdat any

$_ZN5eastl6vectorIbNS_9allocatorEE10erase_lastERKb = comdat any

$_ZN5eastl6vectorIbNS_9allocatorEE5eraseENS_16reverse_iteratorIPKbEE = comdat any

$_ZN5eastl6vectorIbNS_9allocatorEE19erase_last_unsortedERKb = comdat any

$_ZN5eastl6vectorIbNS_9allocatorEE14erase_unsortedENS_16reverse_iteratorIPKbEE = comdat any

$_ZN5eastl6vectorIbNS_9allocatorEE5eraseEPKbS4_ = comdat any

$_ZN5eastl6vectorIbNS_9allocatorEE5eraseENS_16reverse_iteratorIPKbEES6_ = comdat any

$_ZN5eastl6vectorIbNS_9allocatorEE17reset_lose_memoryEv = comdat any

$_ZNK5eastl6vectorIbNS_9allocatorEE8validateEv = comdat any

$_ZNK5eastl6vectorIbNS_9allocatorEE17validate_iteratorEPKb = comdat any

$_ZN5eastl6vectorIiNS_9allocatorEEC5Ev = comdat any

$_ZN5eastl6vectorIiNS_9allocatorEEC5ERKS1_ = comdat any

$_ZN5eastl6vectorIiNS_9allocatorEEC5EmRKS1_ = comdat any

$_ZN5eastl6vectorIiNS_9allocatorEEC5EmRKiRKS1_ = comdat any

$_ZN5eastl6vectorIiNS_9allocatorEEC5ERKS2_ = comdat any

$_ZNK5eastl6vectorIiNS_9allocatorEE4sizeEv = comdat any

$_ZN5eastl6vectorIiNS_9allocatorEEC5ERKS2_RKS1_ = comdat any

$_ZN5eastl6vectorIiNS_9allocatorEEC5EOS2_ = comdat any

$_ZN5eastl6vectorIiNS_9allocatorEE6DoSwapERS2_ = comdat any

$_ZN5eastl6vectorIiNS_9allocatorEEC5EOS2_RKS1_ = comdat any

$_ZN5eastl6vectorIiNS_9allocatorEE4swapERS2_ = comdat any

$_ZN5eastl6vectorIiNS_9allocatorEEC5ESt16initializer_listIiERKS1_ = comdat any

$_ZN5eastl6vectorIiNS_9allocatorEED5Ev = comdat any

$_ZN5eastl6vectorIiNS_9allocatorEEaSERKS2_ = comdat any

$_ZN5eastl6vectorIiNS_9allocatorEE15DoClearCapacityEv = comdat any

$_ZNK5eastl6vectorIiNS_9allocatorEE5beginEv = comdat any

$_ZNK5eastl6vectorIiNS_9allocatorEE3endEv = comdat any

$_ZN5eastl6vectorIiNS_9allocatorEEaSESt16initializer_listIiE = comdat any

$_ZN5eastl6vectorIiNS_9allocatorEEaSEOS2_ = comdat any

$_ZN5eastl6vectorIiNS_9allocatorEE6assignEmRKi = comdat any

$_ZN5eastl6vectorIiNS_9allocatorEE14DoAssignValuesEmRKi = comdat any

$_ZN5eastl6vectorIiNS_9allocatorEE6assignESt16initializer_listIiE = comdat any

$_ZN5eastl6vectorIiNS_9allocatorEE5beginEv = comdat any

$_ZNK5eastl6vectorIiNS_9allocatorEE6cbeginEv = comdat any

$_ZN5eastl6vectorIiNS_9allocatorEE3endEv = comdat any

$_ZNK5eastl6vectorIiNS_9allocatorEE4cendEv = comdat any

$_ZN5eastl6vectorIiNS_9allocatorEE6rbeginEv = comdat any

$_ZNK5eastl6vectorIiNS_9allocatorEE6rbeginEv = comdat any

$_ZNK5eastl6vectorIiNS_9allocatorEE7crbeginEv = comdat any

$_ZN5eastl6vectorIiNS_9allocatorEE4rendEv = comdat any

$_ZNK5eastl6vectorIiNS_9allocatorEE4rendEv = comdat any

$_ZNK5eastl6vectorIiNS_9allocatorEE5crendEv = comdat any

$_ZNK5eastl6vectorIiNS_9allocatorEE5emptyEv = comdat any

$_ZNK5eastl6vectorIiNS_9allocatorEE8capacityEv = comdat any

$_ZN5eastl6vectorIiNS_9allocatorEE6resizeEmRKi = comdat any

$_ZN5eastl6vectorIiNS_9allocatorEE17DoInsertValuesEndEmRKi = comdat any

$_ZN5eastl6vectorIiNS_9allocatorEE6resizeEm = comdat any

$_ZN5eastl6vectorIiNS_9allocatorEE17DoInsertValuesEndEm = comdat any

$_ZN5eastl6vectorIiNS_9allocatorEE7reserveEm = comdat any

$_ZN5eastl6vectorIiNS_9allocatorEE6DoGrowEm = comdat any

$_ZN5eastl6vectorIiNS_9allocatorEE12set_capacityEm = comdat any

$_ZN5eastl6vectorIiNS_9allocatorEE5clearEv = comdat any

$_ZN5eastl6vectorIiNS_9allocatorEE13shrink_to_fitEv = comdat any

$_ZN5eastl6vectorIiNS_9allocatorEE4dataEv = comdat any

$_ZNK5eastl6vectorIiNS_9allocatorEE4dataEv = comdat any

$_ZN5eastl6vectorIiNS_9allocatorEEixEm = comdat any

$_ZNK5eastl6vectorIiNS_9allocatorEEixEm = comdat any

$_ZN5eastl6vectorIiNS_9allocatorEE2atEm = comdat any

$_ZNK5eastl6vectorIiNS_9allocatorEE2atEm = comdat any

$_ZN5eastl6vectorIiNS_9allocatorEE5frontEv = comdat any

$_ZNK5eastl6vectorIiNS_9allocatorEE5frontEv = comdat any

$_ZN5eastl6vectorIiNS_9allocatorEE4backEv = comdat any

$_ZNK5eastl6vectorIiNS_9allocatorEE4backEv = comdat any

$_ZN5eastl6vectorIiNS_9allocatorEE9push_backERKi = comdat any

$_ZN5eastl6vectorIiNS_9allocatorEE9push_backEv = comdat any

$_ZN5eastl6vectorIiNS_9allocatorEE23push_back_uninitializedEv = comdat any

$_ZN5eastl6vectorIiNS_9allocatorEE9push_backEOi = comdat any

$_ZN5eastl6vectorIiNS_9allocatorEE8pop_backEv = comdat any

$_ZN5eastl6vectorIiNS_9allocatorEE6insertEPKiRS3_ = comdat any

$_ZN5eastl6vectorIiNS_9allocatorEE13DoInsertValueIJRKiEEEvPS4_DpOT_ = comdat any

$_ZN5eastl6vectorIiNS_9allocatorEE6insertEPKimRS3_ = comdat any

$_ZN5eastl6vectorIiNS_9allocatorEE14DoInsertValuesEPKimRS3_ = comdat any

$_ZN5eastl6vectorIiNS_9allocatorEE6insertEPKiOi = comdat any

$_ZN5eastl6vectorIiNS_9allocatorEE6insertEPKiSt16initializer_listIiE = comdat any

$_ZN5eastl6vectorIiNS_9allocatorEE11erase_firstERKi = comdat any

$_ZN5eastl6vectorIiNS_9allocatorEE5eraseEPKi = comdat any

$_ZN5eastl6vectorIiNS_9allocatorEE20erase_first_unsortedERKi = comdat any

$_ZN5eastl6vectorIiNS_9allocatorEE14erase_unsortedEPKi = comdat any

$_ZN5eastl6vectorIiNS_9allocatorEE10erase_lastERKi = comdat any

$_ZN5eastl6vectorIiNS_9allocatorEE5eraseENS_16reverse_iteratorIPKiEE = comdat any

$_ZN5eastl6vectorIiNS_9allocatorEE19erase_last_unsortedERKi = comdat any

$_ZN5eastl6vectorIiNS_9allocatorEE14erase_unsortedENS_16reverse_iteratorIPKiEE = comdat any

$_ZN5eastl6vectorIiNS_9allocatorEE5eraseEPKiS4_ = comdat any

$_ZN5eastl6vectorIiNS_9allocatorEE5eraseENS_16reverse_iteratorIPKiEES6_ = comdat any

$_ZN5eastl6vectorIiNS_9allocatorEE17reset_lose_memoryEv = comdat any

$_ZNK5eastl6vectorIiNS_9allocatorEE8validateEv = comdat any

$_ZNK5eastl6vectorIiNS_9allocatorEE17validate_iteratorEPKi = comdat any

$_ZN5eastl6vectorI7Align64NS_9allocatorEEC5Ev = comdat any

$_ZN5eastl6vectorI7Align64NS_9allocatorEEC5ERKS2_ = comdat any

$_ZN5eastl6vectorI7Align64NS_9allocatorEEC5EmRKS2_ = comdat any

$_ZN5eastl6vectorI7Align64NS_9allocatorEEC5EmRKS1_RKS2_ = comdat any

$_ZN5eastl6vectorI7Align64NS_9allocatorEEC5ERKS3_ = comdat any

$_ZNK5eastl6vectorI7Align64NS_9allocatorEE4sizeEv = comdat any

$_ZN5eastl6vectorI7Align64NS_9allocatorEEC5ERKS3_RKS2_ = comdat any

$_ZN5eastl6vectorI7Align64NS_9allocatorEEC5EOS3_ = comdat any

$_ZN5eastl6vectorI7Align64NS_9allocatorEE6DoSwapERS3_ = comdat any

$_ZN5eastl6vectorI7Align64NS_9allocatorEEC5EOS3_RKS2_ = comdat any

$_ZN5eastl6vectorI7Align64NS_9allocatorEE4swapERS3_ = comdat any

$_ZN5eastl6vectorI7Align64NS_9allocatorEEC5ESt16initializer_listIS1_ERKS2_ = comdat any

$_ZN5eastl6vectorI7Align64NS_9allocatorEED5Ev = comdat any

$_ZN5eastl6vectorI7Align64NS_9allocatorEEaSERKS3_ = comdat any

$_ZN5eastl6vectorI7Align64NS_9allocatorEE15DoClearCapacityEv = comdat any

$_ZNK5eastl6vectorI7Align64NS_9allocatorEE5beginEv = comdat any

$_ZNK5eastl6vectorI7Align64NS_9allocatorEE3endEv = comdat any

$_ZN5eastl6vectorI7Align64NS_9allocatorEEaSESt16initializer_listIS1_E = comdat any

$_ZN5eastl6vectorI7Align64NS_9allocatorEE20DoAssignFromIteratorIPKS1_Lb0EEEvT_S7_NS_26random_access_iterator_tagE = comdat any

$_ZN5eastl6vectorI7Align64NS_9allocatorEEaSEOS3_ = comdat any

$_ZN5eastl6vectorI7Align64NS_9allocatorEE6assignEmRKS1_ = comdat any

$_ZN5eastl6vectorI7Align64NS_9allocatorEE14DoAssignValuesEmRKS1_ = comdat any

$_ZN5eastl6vectorI7Align64NS_9allocatorEE6assignESt16initializer_listIS1_E = comdat any

$_ZN5eastl6vectorI7Align64NS_9allocatorEE5beginEv = comdat any

$_ZNK5eastl6vectorI7Align64NS_9allocatorEE6cbeginEv = comdat any

$_ZN5eastl6vectorI7Align64NS_9allocatorEE3endEv = comdat any

$_ZNK5eastl6vectorI7Align64NS_9allocatorEE4cendEv = comdat any

$_ZN5eastl6vectorI7Align64NS_9allocatorEE6rbeginEv = comdat any

$_ZNK5eastl6vectorI7Align64NS_9allocatorEE6rbeginEv = comdat any

$_ZNK5eastl6vectorI7Align64NS_9allocatorEE7crbeginEv = comdat any

$_ZN5eastl6vectorI7Align64NS_9allocatorEE4rendEv = comdat any

$_ZNK5eastl6vectorI7Align64NS_9allocatorEE4rendEv = comdat any

$_ZNK5eastl6vectorI7Align64NS_9allocatorEE5crendEv = comdat any

$_ZNK5eastl6vectorI7Align64NS_9allocatorEE5emptyEv = comdat any

$_ZNK5eastl6vectorI7Align64NS_9allocatorEE8capacityEv = comdat any

$_ZN5eastl6vectorI7Align64NS_9allocatorEE6resizeEmRKS1_ = comdat any

$_ZN5eastl6vectorI7Align64NS_9allocatorEE17DoInsertValuesEndEmRKS1_ = comdat any

$_ZN5eastl6vectorI7Align64NS_9allocatorEE6resizeEm = comdat any

$_ZN5eastl6vectorI7Align64NS_9allocatorEE17DoInsertValuesEndEm = comdat any

$_ZN5eastl6vectorI7Align64NS_9allocatorEE7reserveEm = comdat any

$_ZN5eastl6vectorI7Align64NS_9allocatorEE6DoGrowEm = comdat any

$_ZN5eastl6vectorI7Align64NS_9allocatorEE12set_capacityEm = comdat any

$_ZN5eastl6vectorI7Align64NS_9allocatorEE5clearEv = comdat any

$_ZN5eastl6vectorI7Align64NS_9allocatorEE13shrink_to_fitEv = comdat any

$_ZN5eastl6vectorI7Align64NS_9allocatorEE4dataEv = comdat any

$_ZNK5eastl6vectorI7Align64NS_9allocatorEE4dataEv = comdat any

$_ZN5eastl6vectorI7Align64NS_9allocatorEEixEm = comdat any

$_ZNK5eastl6vectorI7Align64NS_9allocatorEEixEm = comdat any

$_ZN5eastl6vectorI7Align64NS_9allocatorEE2atEm = comdat any

$_ZNK5eastl6vectorI7Align64NS_9allocatorEE2atEm = comdat any

$_ZN5eastl6vectorI7Align64NS_9allocatorEE5frontEv = comdat any

$_ZNK5eastl6vectorI7Align64NS_9allocatorEE5frontEv = comdat any

$_ZN5eastl6vectorI7Align64NS_9allocatorEE4backEv = comdat any

$_ZNK5eastl6vectorI7Align64NS_9allocatorEE4backEv = comdat any

$_ZN5eastl6vectorI7Align64NS_9allocatorEE9push_backERKS1_ = comdat any

$_ZN5eastl6vectorI7Align64NS_9allocatorEE9push_backEv = comdat any

$_ZN5eastl6vectorI7Align64NS_9allocatorEE23push_back_uninitializedEv = comdat any

$_ZN5eastl6vectorI7Align64NS_9allocatorEE9push_backEOS1_ = comdat any

$_ZN5eastl6vectorI7Align64NS_9allocatorEE8pop_backEv = comdat any

$_ZN5eastl6vectorI7Align64NS_9allocatorEE6insertEPKS1_RS4_ = comdat any

$_ZN5eastl6vectorI7Align64NS_9allocatorEE13DoInsertValueIJRKS1_EEEvPS5_DpOT_ = comdat any

$_ZN5eastl6vectorI7Align64NS_9allocatorEE6insertEPKS1_mRS4_ = comdat any

$_ZN5eastl6vectorI7Align64NS_9allocatorEE14DoInsertValuesEPKS1_mRS4_ = comdat any

$_ZN5eastl6vectorI7Align64NS_9allocatorEE6insertEPKS1_OS1_ = comdat any

$_ZN5eastl6vectorI7Align64NS_9allocatorEE6insertEPKS1_St16initializer_listIS1_E = comdat any

$_ZN5eastl6vectorI7Align64NS_9allocatorEE11erase_firstERKS1_ = comdat any

$_ZN5eastl6vectorI7Align64NS_9allocatorEE5eraseEPKS1_ = comdat any

$_ZN5eastl6vectorI7Align64NS_9allocatorEE20erase_first_unsortedERKS1_ = comdat any

$_ZN5eastl6vectorI7Align64NS_9allocatorEE14erase_unsortedEPKS1_ = comdat any

$_ZN5eastl6vectorI7Align64NS_9allocatorEE10erase_lastERKS1_ = comdat any

$_ZN5eastl6vectorI7Align64NS_9allocatorEE5eraseENS_16reverse_iteratorIPKS1_EE = comdat any

$_ZN5eastl6vectorI7Align64NS_9allocatorEE19erase_last_unsortedERKS1_ = comdat any

$_ZN5eastl6vectorI7Align64NS_9allocatorEE14erase_unsortedENS_16reverse_iteratorIPKS1_EE = comdat any

$_ZN5eastl6vectorI7Align64NS_9allocatorEE5eraseEPKS1_S5_ = comdat any

$_ZN5eastl6vectorI7Align64NS_9allocatorEE5eraseENS_16reverse_iteratorIPKS1_EES7_ = comdat any

$_ZN5eastl6vectorI7Align64NS_9allocatorEE17reset_lose_memoryEv = comdat any

$_ZNK5eastl6vectorI7Align64NS_9allocatorEE8validateEv = comdat any

$_ZNK5eastl6vectorI7Align64NS_9allocatorEE17validate_iteratorEPKS1_ = comdat any

$_ZN5eastl6vectorI10TestObjectNS_9allocatorEEC5Ev = comdat any

$_ZN5eastl6vectorI10TestObjectNS_9allocatorEEC5ERKS2_ = comdat any

$_ZN5eastl6vectorI10TestObjectNS_9allocatorEEC5EmRKS2_ = comdat any

$_ZN5eastl6vectorI10TestObjectNS_9allocatorEEC5EmRKS1_RKS2_ = comdat any

$_ZN5eastl6vectorI10TestObjectNS_9allocatorEEC5ERKS3_ = comdat any

$_ZNK5eastl6vectorI10TestObjectNS_9allocatorEE4sizeEv = comdat any

$_ZN5eastl6vectorI10TestObjectNS_9allocatorEEC5ERKS3_RKS2_ = comdat any

$_ZN5eastl6vectorI10TestObjectNS_9allocatorEEC5EOS3_ = comdat any

$_ZN5eastl6vectorI10TestObjectNS_9allocatorEE6DoSwapERS3_ = comdat any

$_ZN5eastl6vectorI10TestObjectNS_9allocatorEEC5EOS3_RKS2_ = comdat any

$_ZN5eastl6vectorI10TestObjectNS_9allocatorEE4swapERS3_ = comdat any

$_ZN5eastl6vectorI10TestObjectNS_9allocatorEEC5ESt16initializer_listIS1_ERKS2_ = comdat any

$_ZN5eastl6vectorI10TestObjectNS_9allocatorEED5Ev = comdat any

$_ZN5eastl6vectorI10TestObjectNS_9allocatorEEaSERKS3_ = comdat any

$_ZN5eastl6vectorI10TestObjectNS_9allocatorEE15DoClearCapacityEv = comdat any

$_ZNK5eastl6vectorI10TestObjectNS_9allocatorEE5beginEv = comdat any

$_ZNK5eastl6vectorI10TestObjectNS_9allocatorEE3endEv = comdat any

$_ZN5eastl6vectorI10TestObjectNS_9allocatorEEaSESt16initializer_listIS1_E = comdat any

$_ZN5eastl6vectorI10TestObjectNS_9allocatorEE20DoAssignFromIteratorIPKS1_Lb0EEEvT_S7_NS_26random_access_iterator_tagE = comdat any

$_ZN5eastl6vectorI10TestObjectNS_9allocatorEEaSEOS3_ = comdat any

$_ZN5eastl6vectorI10TestObjectNS_9allocatorEE6assignEmRKS1_ = comdat any

$_ZN5eastl6vectorI10TestObjectNS_9allocatorEE14DoAssignValuesEmRKS1_ = comdat any

$_ZN5eastl6vectorI10TestObjectNS_9allocatorEE6assignESt16initializer_listIS1_E = comdat any

$_ZN5eastl6vectorI10TestObjectNS_9allocatorEE5beginEv = comdat any

$_ZNK5eastl6vectorI10TestObjectNS_9allocatorEE6cbeginEv = comdat any

$_ZN5eastl6vectorI10TestObjectNS_9allocatorEE3endEv = comdat any

$_ZNK5eastl6vectorI10TestObjectNS_9allocatorEE4cendEv = comdat any

$_ZN5eastl6vectorI10TestObjectNS_9allocatorEE6rbeginEv = comdat any

$_ZNK5eastl6vectorI10TestObjectNS_9allocatorEE6rbeginEv = comdat any

$_ZNK5eastl6vectorI10TestObjectNS_9allocatorEE7crbeginEv = comdat any

$_ZN5eastl6vectorI10TestObjectNS_9allocatorEE4rendEv = comdat any

$_ZNK5eastl6vectorI10TestObjectNS_9allocatorEE4rendEv = comdat any

$_ZNK5eastl6vectorI10TestObjectNS_9allocatorEE5crendEv = comdat any

$_ZNK5eastl6vectorI10TestObjectNS_9allocatorEE5emptyEv = comdat any

$_ZNK5eastl6vectorI10TestObjectNS_9allocatorEE8capacityEv = comdat any

$_ZN5eastl6vectorI10TestObjectNS_9allocatorEE6resizeEmRKS1_ = comdat any

$_ZN5eastl6vectorI10TestObjectNS_9allocatorEE17DoInsertValuesEndEmRKS1_ = comdat any

$_ZN5eastl6vectorI10TestObjectNS_9allocatorEE6resizeEm = comdat any

$_ZN5eastl6vectorI10TestObjectNS_9allocatorEE17DoInsertValuesEndEm = comdat any

$_ZN5eastl6vectorI10TestObjectNS_9allocatorEE7reserveEm = comdat any

$_ZN5eastl6vectorI10TestObjectNS_9allocatorEE6DoGrowEm = comdat any

$_ZN5eastl6vectorI10TestObjectNS_9allocatorEE12set_capacityEm = comdat any

$_ZN5eastl6vectorI10TestObjectNS_9allocatorEE5clearEv = comdat any

$_ZN5eastl6vectorI10TestObjectNS_9allocatorEE13shrink_to_fitEv = comdat any

$_ZN5eastl6vectorI10TestObjectNS_9allocatorEE4dataEv = comdat any

$_ZNK5eastl6vectorI10TestObjectNS_9allocatorEE4dataEv = comdat any

$_ZN5eastl6vectorI10TestObjectNS_9allocatorEEixEm = comdat any

$_ZNK5eastl6vectorI10TestObjectNS_9allocatorEEixEm = comdat any

$_ZN5eastl6vectorI10TestObjectNS_9allocatorEE2atEm = comdat any

$_ZNK5eastl6vectorI10TestObjectNS_9allocatorEE2atEm = comdat any

$_ZN5eastl6vectorI10TestObjectNS_9allocatorEE5frontEv = comdat any

$_ZNK5eastl6vectorI10TestObjectNS_9allocatorEE5frontEv = comdat any

$_ZN5eastl6vectorI10TestObjectNS_9allocatorEE4backEv = comdat any

$_ZNK5eastl6vectorI10TestObjectNS_9allocatorEE4backEv = comdat any

$_ZN5eastl6vectorI10TestObjectNS_9allocatorEE9push_backERKS1_ = comdat any

$_ZN5eastl6vectorI10TestObjectNS_9allocatorEE16DoInsertValueEndIJRKS1_EEEvDpOT_ = comdat any

$_ZN5eastl6vectorI10TestObjectNS_9allocatorEE9push_backEv = comdat any

$_ZN5eastl6vectorI10TestObjectNS_9allocatorEE16DoInsertValueEndIJS1_EEEvDpOT_ = comdat any

$_ZN5eastl6vectorI10TestObjectNS_9allocatorEE23push_back_uninitializedEv = comdat any

$_ZN5eastl6vectorI10TestObjectNS_9allocatorEE9push_backEOS1_ = comdat any

$_ZN5eastl6vectorI10TestObjectNS_9allocatorEE8pop_backEv = comdat any

$_ZN5eastl6vectorI10TestObjectNS_9allocatorEE6insertEPKS1_RS4_ = comdat any

$_ZN5eastl6vectorI10TestObjectNS_9allocatorEE13DoInsertValueIJRKS1_EEEvPS5_DpOT_ = comdat any

$_ZN5eastl6vectorI10TestObjectNS_9allocatorEE6insertEPKS1_mRS4_ = comdat any

$_ZN5eastl6vectorI10TestObjectNS_9allocatorEE14DoInsertValuesEPKS1_mRS4_ = comdat any

$_ZN5eastl6vectorI10TestObjectNS_9allocatorEE6insertEPKS1_OS1_ = comdat any

$_ZN5eastl6vectorI10TestObjectNS_9allocatorEE6insertEPKS1_St16initializer_listIS1_E = comdat any

$_ZN5eastl6vectorI10TestObjectNS_9allocatorEE11erase_firstERKS1_ = comdat any

$_ZN5eastl6vectorI10TestObjectNS_9allocatorEE5eraseEPKS1_ = comdat any

$_ZN5eastl6vectorI10TestObjectNS_9allocatorEE20erase_first_unsortedERKS1_ = comdat any

$_ZN5eastl6vectorI10TestObjectNS_9allocatorEE14erase_unsortedEPKS1_ = comdat any

$_ZN5eastl6vectorI10TestObjectNS_9allocatorEE10erase_lastERKS1_ = comdat any

$_ZN5eastl6vectorI10TestObjectNS_9allocatorEE5eraseENS_16reverse_iteratorIPKS1_EE = comdat any

$_ZN5eastl6vectorI10TestObjectNS_9allocatorEE19erase_last_unsortedERKS1_ = comdat any

$_ZN5eastl6vectorI10TestObjectNS_9allocatorEE14erase_unsortedENS_16reverse_iteratorIPKS1_EE = comdat any

$_ZN5eastl6vectorI10TestObjectNS_9allocatorEE5eraseEPKS1_S5_ = comdat any

$_ZN5eastl6vectorI10TestObjectNS_9allocatorEE5eraseENS_16reverse_iteratorIPKS1_EES7_ = comdat any

$_ZN5eastl6vectorI10TestObjectNS_9allocatorEE17reset_lose_memoryEv = comdat any

$_ZNK5eastl6vectorI10TestObjectNS_9allocatorEE8validateEv = comdat any

$_ZNK5eastl6vectorI10TestObjectNS_9allocatorEE17validate_iteratorEPKS1_ = comdat any

$_ZN5eastl6vectorI20HasAddressOfOperatorNS_9allocatorEEC5Ev = comdat any

$_ZN5eastl6vectorI20HasAddressOfOperatorNS_9allocatorEEC5ERKS2_ = comdat any

$_ZN5eastl6vectorI20HasAddressOfOperatorNS_9allocatorEEC5EmRKS2_ = comdat any

$_ZN5eastl6vectorI20HasAddressOfOperatorNS_9allocatorEEC5EmRKS1_RKS2_ = comdat any

$_ZN5eastl6vectorI20HasAddressOfOperatorNS_9allocatorEEC5ERKS3_ = comdat any

$_ZNK5eastl6vectorI20HasAddressOfOperatorNS_9allocatorEE4sizeEv = comdat any

$_ZN5eastl6vectorI20HasAddressOfOperatorNS_9allocatorEEC5ERKS3_RKS2_ = comdat any

$_ZN5eastl6vectorI20HasAddressOfOperatorNS_9allocatorEEC5EOS3_ = comdat any

$_ZN5eastl6vectorI20HasAddressOfOperatorNS_9allocatorEE6DoSwapERS3_ = comdat any

$_ZN5eastl6vectorI20HasAddressOfOperatorNS_9allocatorEEC5EOS3_RKS2_ = comdat any

$_ZN5eastl6vectorI20HasAddressOfOperatorNS_9allocatorEE4swapERS3_ = comdat any

$_ZN5eastl6vectorI20HasAddressOfOperatorNS_9allocatorEEC5ESt16initializer_listIS1_ERKS2_ = comdat any

$_ZN5eastl6vectorI20HasAddressOfOperatorNS_9allocatorEED5Ev = comdat any

$_ZN5eastl6vectorI20HasAddressOfOperatorNS_9allocatorEEaSERKS3_ = comdat any

$_ZN5eastl6vectorI20HasAddressOfOperatorNS_9allocatorEE15DoClearCapacityEv = comdat any

$_ZNK5eastl6vectorI20HasAddressOfOperatorNS_9allocatorEE5beginEv = comdat any

$_ZNK5eastl6vectorI20HasAddressOfOperatorNS_9allocatorEE3endEv = comdat any

$_ZN5eastl6vectorI20HasAddressOfOperatorNS_9allocatorEEaSESt16initializer_listIS1_E = comdat any

$_ZN5eastl6vectorI20HasAddressOfOperatorNS_9allocatorEEaSEOS3_ = comdat any

$_ZN5eastl6vectorI20HasAddressOfOperatorNS_9allocatorEE6assignEmRKS1_ = comdat any

$_ZN5eastl6vectorI20HasAddressOfOperatorNS_9allocatorEE14DoAssignValuesEmRKS1_ = comdat any

$_ZN5eastl6vectorI20HasAddressOfOperatorNS_9allocatorEE6assignESt16initializer_listIS1_E = comdat any

$_ZN5eastl6vectorI20HasAddressOfOperatorNS_9allocatorEE5beginEv = comdat any

$_ZNK5eastl6vectorI20HasAddressOfOperatorNS_9allocatorEE6cbeginEv = comdat any

$_ZN5eastl6vectorI20HasAddressOfOperatorNS_9allocatorEE3endEv = comdat any

$_ZNK5eastl6vectorI20HasAddressOfOperatorNS_9allocatorEE4cendEv = comdat any

$_ZN5eastl6vectorI20HasAddressOfOperatorNS_9allocatorEE6rbeginEv = comdat any

$_ZNK5eastl6vectorI20HasAddressOfOperatorNS_9allocatorEE6rbeginEv = comdat any

$_ZNK5eastl6vectorI20HasAddressOfOperatorNS_9allocatorEE7crbeginEv = comdat any

$_ZN5eastl6vectorI20HasAddressOfOperatorNS_9allocatorEE4rendEv = comdat any

$_ZNK5eastl6vectorI20HasAddressOfOperatorNS_9allocatorEE4rendEv = comdat any

$_ZNK5eastl6vectorI20HasAddressOfOperatorNS_9allocatorEE5crendEv = comdat any

$_ZNK5eastl6vectorI20HasAddressOfOperatorNS_9allocatorEE5emptyEv = comdat any

$_ZNK5eastl6vectorI20HasAddressOfOperatorNS_9allocatorEE8capacityEv = comdat any

$_ZN5eastl6vectorI20HasAddressOfOperatorNS_9allocatorEE6resizeEmRKS1_ = comdat any

$_ZN5eastl6vectorI20HasAddressOfOperatorNS_9allocatorEE17DoInsertValuesEndEmRKS1_ = comdat any

$_ZN5eastl6vectorI20HasAddressOfOperatorNS_9allocatorEE6resizeEm = comdat any

$_ZN5eastl6vectorI20HasAddressOfOperatorNS_9allocatorEE17DoInsertValuesEndEm = comdat any

$_ZN5eastl6vectorI20HasAddressOfOperatorNS_9allocatorEE7reserveEm = comdat any

$_ZN5eastl6vectorI20HasAddressOfOperatorNS_9allocatorEE6DoGrowEm = comdat any

$_ZN5eastl6vectorI20HasAddressOfOperatorNS_9allocatorEE12set_capacityEm = comdat any

$_ZN5eastl6vectorI20HasAddressOfOperatorNS_9allocatorEE5clearEv = comdat any

$_ZN5eastl6vectorI20HasAddressOfOperatorNS_9allocatorEE13shrink_to_fitEv = comdat any

$_ZN5eastl6vectorI20HasAddressOfOperatorNS_9allocatorEE4dataEv = comdat any

$_ZNK5eastl6vectorI20HasAddressOfOperatorNS_9allocatorEE4dataEv = comdat any

$_ZN5eastl6vectorI20HasAddressOfOperatorNS_9allocatorEEixEm = comdat any

$_ZNK5eastl6vectorI20HasAddressOfOperatorNS_9allocatorEEixEm = comdat any

$_ZN5eastl6vectorI20HasAddressOfOperatorNS_9allocatorEE2atEm = comdat any

$_ZNK5eastl6vectorI20HasAddressOfOperatorNS_9allocatorEE2atEm = comdat any

$_ZN5eastl6vectorI20HasAddressOfOperatorNS_9allocatorEE5frontEv = comdat any

$_ZNK5eastl6vectorI20HasAddressOfOperatorNS_9allocatorEE5frontEv = comdat any

$_ZN5eastl6vectorI20HasAddressOfOperatorNS_9allocatorEE4backEv = comdat any

$_ZNK5eastl6vectorI20HasAddressOfOperatorNS_9allocatorEE4backEv = comdat any

$_ZN5eastl6vectorI20HasAddressOfOperatorNS_9allocatorEE9push_backERKS1_ = comdat any

$_ZN5eastl6vectorI20HasAddressOfOperatorNS_9allocatorEE9push_backEv = comdat any

$_ZN5eastl6vectorI20HasAddressOfOperatorNS_9allocatorEE23push_back_uninitializedEv = comdat any

$_ZN5eastl6vectorI20HasAddressOfOperatorNS_9allocatorEE9push_backEOS1_ = comdat any

$_ZN5eastl6vectorI20HasAddressOfOperatorNS_9allocatorEE8pop_backEv = comdat any

$_ZN5eastl6vectorI20HasAddressOfOperatorNS_9allocatorEE6insertEPKS1_RS4_ = comdat any

$_ZN5eastl6vectorI20HasAddressOfOperatorNS_9allocatorEE6insertEPKS1_mRS4_ = comdat any

$_ZN5eastl6vectorI20HasAddressOfOperatorNS_9allocatorEE14DoInsertValuesEPKS1_mRS4_ = comdat any

$_ZN5eastl6vectorI20HasAddressOfOperatorNS_9allocatorEE6insertEPKS1_OS1_ = comdat any

$_ZN5eastl6vectorI20HasAddressOfOperatorNS_9allocatorEE7emplaceIJS1_EEEPS1_PKS1_DpOT_ = comdat any

$_ZN5eastl6vectorI20HasAddressOfOperatorNS_9allocatorEE6insertEPKS1_St16initializer_listIS1_E = comdat any

$_ZN5eastl6vectorI20HasAddressOfOperatorNS_9allocatorEE11erase_firstERKS1_ = comdat any

$_ZN5eastl6vectorI20HasAddressOfOperatorNS_9allocatorEE5eraseEPKS1_ = comdat any

$_ZN5eastl6vectorI20HasAddressOfOperatorNS_9allocatorEE20erase_first_unsortedERKS1_ = comdat any

$_ZN5eastl6vectorI20HasAddressOfOperatorNS_9allocatorEE14erase_unsortedEPKS1_ = comdat any

$_ZN5eastl6vectorI20HasAddressOfOperatorNS_9allocatorEE10erase_lastERKS1_ = comdat any

$_ZN5eastl6vectorI20HasAddressOfOperatorNS_9allocatorEE5eraseENS_16reverse_iteratorIPKS1_EE = comdat any

$_ZN5eastl6vectorI20HasAddressOfOperatorNS_9allocatorEE19erase_last_unsortedERKS1_ = comdat any

$_ZN5eastl6vectorI20HasAddressOfOperatorNS_9allocatorEE14erase_unsortedENS_16reverse_iteratorIPKS1_EE = comdat any

$_ZN5eastl6vectorI20HasAddressOfOperatorNS_9allocatorEE5eraseEPKS1_S5_ = comdat any

$_ZN5eastl6vectorI20HasAddressOfOperatorNS_9allocatorEE5eraseENS_16reverse_iteratorIPKS1_EES7_ = comdat any

$_ZN5eastl6vectorI20HasAddressOfOperatorNS_9allocatorEE17reset_lose_memoryEv = comdat any

$_ZNK5eastl6vectorI20HasAddressOfOperatorNS_9allocatorEE8validateEv = comdat any

$_ZNK5eastl6vectorI20HasAddressOfOperatorNS_9allocatorEE17validate_iteratorEPKS1_ = comdat any

$_ZN5eastl4listI10TestObjectNS_9allocatorEEC2EmRKS2_ = comdat any

$_ZN5eastl4listI10TestObjectNS_9allocatorEED2Ev = comdat any

$_ZN5eastl5dequeI10TestObjectNS_9allocatorELj8EEC2EmRKS2_ = comdat any

$_ZN5eastl5dequeINS_4listI10TestObjectNS_9allocatorEEES3_Lj8EEC2EmRKS3_ = comdat any

$_ZN5eastl6vectorI10TestObjectNS_9allocatorEEC2INS_13DequeIteratorIS1_PS1_RS1_Lj8EEEEET_S9_RKS2_ = comdat any

$_ZN5eastl6vectorINS_4listI10TestObjectNS_9allocatorEEES3_ED2Ev = comdat any

$_ZN5eastl5dequeINS_4listI10TestObjectNS_9allocatorEEES3_Lj8EED2Ev = comdat any

$_ZN5eastl5dequeI10TestObjectNS_9allocatorELj8EED2Ev = comdat any

$_ZN5eastl5dequeIiNS_9allocatorELj64EED2Ev = comdat any

$_ZN5eastl6vectorINS_4listI10TestObjectNS_9allocatorEEE15MallocAllocatorED2Ev = comdat any

$_ZN5eastl6vectorI10TestObject15MallocAllocatorED2Ev = comdat any

$_ZN5eastl6vectorIi15MallocAllocatorED2Ev = comdat any

$_ZN5eastl6vectorINS_10unique_ptrIiNS_14default_deleteIiEEEENS_9allocatorEED2Ev = comdat any

$_Z14VerifySequenceIPiiEbT_S1_T0_PKcz = comdat any

$_Z14VerifySequenceIP10TestObjectiEbT_S2_T0_PKcz = comdat any

$_ZN5eastl6vectorI7Align6415CustomAllocatorED2Ev = comdat any

$_ZN5eastl5slistI10TestObjectNS_9allocatorEED2Ev = comdat any

$_ZN5eastl6vectorINS_12basic_stringIcNS_9allocatorEEES2_EC2EmRKS3_RKS2_ = comdat any

$_ZN5eastl6vectorINS_12basic_stringIcNS_9allocatorEEES2_ED2Ev = comdat any

$_ZN5eastl6vectorIi17InstanceAllocatorED2Ev = comdat any

$_ZN5eastl6vectorINS_10unique_ptrIiNS_14default_deleteIiEEEE17InstanceAllocatorED2Ev = comdat any

$_ZN5eastl8ListBaseI10TestObjectNS_9allocatorEED2Ev = comdat any

$_ZN5eastl6vectorIbNS_9allocatorEE13DoInsertValueIJbEEEvPKbDpOT_ = comdat any

$_ZN5eastl6vectorIbNS_9allocatorEE20DoInsertFromIteratorIPKbEEvS5_T_S6_NS_26bidirectional_iterator_tagE = comdat any

$_ZN5eastl6vectorIiNS_9allocatorEE13DoInsertValueIJiEEEvPKiDpOT_ = comdat any

$_ZN5eastl6vectorIiNS_9allocatorEE20DoInsertFromIteratorIPKiEEvS5_T_S6_NS_26bidirectional_iterator_tagE = comdat any

$_ZN5eastl6vectorI7Align64NS_9allocatorEE13DoInsertValueIJS1_EEEvPKS1_DpOT_ = comdat any

$_ZN5eastl6vectorI7Align64NS_9allocatorEE20DoInsertFromIteratorIPKS1_EEvS6_T_S7_NS_26bidirectional_iterator_tagE = comdat any

$_ZN5eastl6vectorI10TestObjectNS_9allocatorEE13DoInsertValueIJS1_EEEvPKS1_DpOT_ = comdat any

$_ZN5eastl6vectorI10TestObjectNS_9allocatorEE20DoInsertFromIteratorIPKS1_EEvS6_T_S7_NS_26bidirectional_iterator_tagE = comdat any

$_ZN5eastl6vectorI20HasAddressOfOperatorNS_9allocatorEE20DoInsertFromIteratorIPKS1_EEvS6_T_S7_NS_26bidirectional_iterator_tagE = comdat any

$_ZN5eastl10VectorBaseIi15MallocAllocatorED2Ev = comdat any

$_ZN5eastl10VectorBaseINS_4listI10TestObjectNS_9allocatorEEE15MallocAllocatorED2Ev = comdat any

$_ZN5eastl6vectorIi15MallocAllocatorE17DoInsertValuesEndEm = comdat any

$_ZN5eastl6vectorI10TestObject15MallocAllocatorE17DoInsertValuesEndEm = comdat any

$_ZN5eastl6vectorINS_4listI10TestObjectNS_9allocatorEEE15MallocAllocatorE17DoInsertValuesEndEm = comdat any

$_ZN5eastl4listI10TestObjectNS_9allocatorEE8DoAssignINS_12ListIteratorIS1_PKS1_RS6_EEEEvT_SA_NS_17integral_constantIbLb0EEE = comdat any

$_ZN5eastl8Internal25uninitialized_fill_n_implINS_16generic_iteratorIPNS_4listI10TestObjectNS_9allocatorEEEvEEmS6_EEvT_T0_RKT1_NS_17integral_constantIbLb0EEE = comdat any

$_ZN5eastl8Internal23uninitialized_copy_implILb0ELb1ELb1EE4implIPNS_4listI10TestObjectNS_9allocatorEEES8_EET0_T_SA_S9_ = comdat any

$_ZN5eastl5dequeINS_4listI10TestObjectNS_9allocatorEEES3_Lj8EE10DoFillInitERKS4_ = comdat any

$_ZN5eastl9DequeBaseINS_4listI10TestObjectNS_9allocatorEEES3_Lj8EED2Ev = comdat any

$_ZN5eastl8Internal23uninitialized_fill_implIPNS_4listI10TestObjectNS_9allocatorEEES5_EEvT_S7_RKT0_NS_17integral_constantIbLb0EEE = comdat any

$_ZN5eastl8Internal23uninitialized_copy_implILb0ELb1ELb0EE4implINS_13DequeIteratorINS_4listI10TestObjectNS_9allocatorEEEPS8_RS8_Lj8EEES9_EET0_T_SD_SC_ = comdat any

$_ZN5eastl6vectorINS_4listI10TestObjectNS_9allocatorEEES3_E20DoAssignFromIteratorIPKS4_Lb0EEEvT_S9_NS_26random_access_iterator_tagE = comdat any

$_ZN5eastl8Internal23uninitialized_copy_implILb0ELb1ELb1EE4implIPKNS_4listI10TestObjectNS_9allocatorEEEPS7_EET0_T_SC_SB_ = comdat any

$_ZN5eastl6vectorI10TestObjectNS_9allocatorEE16DoInsertValueEndIJiiiEEEvDpOT_ = comdat any

$_ZN5eastl6vectorI10TestObjectNS_9allocatorEE13DoInsertValueIJiiiEEEvPKS1_DpOT_ = comdat any

$_ZN5eastl6vectorIiNS_9allocatorEE20DoInsertFromIteratorIPiEEvPKiT_S7_NS_26bidirectional_iterator_tagE = comdat any

$_ZN5eastl6vectorIfNS_9allocatorEE20DoInsertFromIteratorIPKfEEvS5_T_S6_NS_26bidirectional_iterator_tagE = comdat any

$_ZN5eastl6vectorI10TestObjectNS_9allocatorEE20DoInsertFromIteratorIPS1_EEvPKS1_T_S8_NS_26bidirectional_iterator_tagE = comdat any

$_ZN5eastl6vectorIi15MallocAllocatorE13shrink_to_fitEv = comdat any

$_ZN5eastl6vectorI7Align6415CustomAllocatorE17DoInsertValuesEndEm = comdat any

$_ZN5eastl6vectorI7Align6415CustomAllocatorE13DoInsertValueIJS1_EEEvPKS1_DpOT_ = comdat any

$_ZN5eastl6vectorI10TestObjectNS_9allocatorEE20DoAssignFromIteratorI16demoted_iteratorIPS1_NS_20forward_iterator_tagEELb0EEEvT_S9_NS_18input_iterator_tagE = comdat any

$_ZN5eastl6vectorI10TestObjectNS_9allocatorEE20DoAssignFromIteratorINS_13SListIteratorIS1_PS1_RS1_EELb0EEEvT_S9_NS_18input_iterator_tagE = comdat any

$_ZN5eastl6vectorI10TestObjectNS_9allocatorEE20DoAssignFromIteratorINS_12ListIteratorIS1_PS1_RS1_EELb0EEEvT_S9_NS_18input_iterator_tagE = comdat any

$_ZN5eastl6vectorI10TestObjectNS_9allocatorEE20DoInsertFromIteratorINS_12ListIteratorIS1_PS1_RS1_EEEEvPKS1_T_SB_NS_26bidirectional_iterator_tagE = comdat any

$_ZN5eastl6vectorI10TestObjectNS_9allocatorEE20DoAssignFromIteratorINS_13DequeIteratorIS1_PS1_RS1_Lj8EEELb0EEEvT_S9_NS_26random_access_iterator_tagE = comdat any

$_ZN5eastl6vectorI10TestObjectNS_9allocatorEE20DoAssignFromIteratorIPS1_Lb0EEEvT_S6_NS_26random_access_iterator_tagE = comdat any

$_ZN5eastl6vectorINS_12basic_stringIcNS_9allocatorEEES2_E20DoAssignFromIteratorIPKS3_Lb0EEEvT_S8_NS_26random_access_iterator_tagE = comdat any

$_ZN5eastl12basic_stringIcNS_9allocatorEEaSERKS2_ = comdat any

$_ZN5eastl12basic_stringIcNS_9allocatorEE6appendEPKcS4_ = comdat any

$_ZN5eastl6vectorINS_12basic_stringIcNS_9allocatorEEES2_E16DoInsertValueEndIJRKS3_EEEvDpOT_ = comdat any

$_ZN5eastl6vectorINS_12basic_stringIcNS_9allocatorEEES2_E20DoAssignFromIteratorIPS3_Lb0EEEvT_S7_NS_26random_access_iterator_tagE = comdat any

$_ZN5eastl6vectorINS_10unique_ptrIiNS_14default_deleteIiEEEE17InstanceAllocatorE16DoInsertValueEndIJS4_EEEvDpOT_ = comdat any

@.str = private unnamed_addr constant [116 x i8] c"generated/home/dtcxzyw/WorkSpace/Projects/compilers/llvm-opt-benchmark/bench/eastl/EASTL/test/source/TestVector.cpp\00", align 1
@.str.1 = private unnamed_addr constant [21 x i8] c"intArray1.validate()\00", align 1
@.str.2 = private unnamed_addr constant [18 x i8] c"intArray1.empty()\00", align 1
@.str.3 = private unnamed_addr constant [20 x i8] c"toArray1.validate()\00", align 1
@.str.4 = private unnamed_addr constant [17 x i8] c"toArray1.empty()\00", align 1
@.str.5 = private unnamed_addr constant [24 x i8] c"toListArray1.validate()\00", align 1
@.str.6 = private unnamed_addr constant [21 x i8] c"toListArray1.empty()\00", align 1
@_ZN15MallocAllocator14mAllocCountAllE = external local_unnamed_addr global i32, align 4
@.str.7 = private unnamed_addr constant [37 x i8] c"MallocAllocator::mAllocCountAll == 3\00", align 1
@.str.9 = private unnamed_addr constant [21 x i8] c"intArray2.validate()\00", align 1
@.str.10 = private unnamed_addr constant [23 x i8] c"intArray2.size() == 10\00", align 1
@.str.11 = private unnamed_addr constant [20 x i8] c"toArray2.validate()\00", align 1
@.str.12 = private unnamed_addr constant [22 x i8] c"toArray2.size() == 10\00", align 1
@.str.13 = private unnamed_addr constant [24 x i8] c"toListArray2.validate()\00", align 1
@.str.14 = private unnamed_addr constant [26 x i8] c"toListArray2.size() == 10\00", align 1
@.str.16 = private unnamed_addr constant [21 x i8] c"intArray3.validate()\00", align 1
@.str.17 = private unnamed_addr constant [23 x i8] c"intArray3.size() == 10\00", align 1
@.str.18 = private unnamed_addr constant [18 x i8] c"intArray3[5] == 7\00", align 1
@.str.19 = private unnamed_addr constant [20 x i8] c"toArray3.validate()\00", align 1
@.str.20 = private unnamed_addr constant [29 x i8] c"toArray3[5] == TestObject(7)\00", align 1
@.str.21 = private unnamed_addr constant [24 x i8] c"toListArray3.validate()\00", align 1
@.str.22 = private unnamed_addr constant [39 x i8] c"toListArray3[5] == list<TestObject>(7)\00", align 1
@.str.23 = private unnamed_addr constant [21 x i8] c"intArray4.validate()\00", align 1
@.str.24 = private unnamed_addr constant [23 x i8] c"intArray4 == intArray2\00", align 1
@.str.25 = private unnamed_addr constant [20 x i8] c"toArray4.validate()\00", align 1
@.str.26 = private unnamed_addr constant [21 x i8] c"toArray4 == toArray2\00", align 1
@.str.27 = private unnamed_addr constant [29 x i8] c"toListArray4 == toListArray2\00", align 1
@.str.29 = private unnamed_addr constant [24 x i8] c"floatVector.size() == 4\00", align 1
@.str.30 = private unnamed_addr constant [47 x i8] c"(floatVector[0] == 0) && (floatVector[3] == 3)\00", align 1
@.str.31 = private unnamed_addr constant [23 x i8] c"intArray3 == intArray4\00", align 1
@.str.32 = private unnamed_addr constant [21 x i8] c"toArray3 == toArray4\00", align 1
@.str.33 = private unnamed_addr constant [29 x i8] c"toListArray3 == toListArray4\00", align 1
@.str.34 = private unnamed_addr constant [70 x i8] c"(intArray3.size() == 4) && (intArray3[0] == 0) && (intArray3[3] == 3)\00", align 1
@.str.35 = private unnamed_addr constant [22 x i8] c"TestObject::IsClear()\00", align 1
@.str.36 = private unnamed_addr constant [85 x i8] c"(toVectorA.size() == 3) && (toVectorA.front().mX == 33) && (vector3TO33.size() == 0)\00", align 1
@.str.37 = private unnamed_addr constant [85 x i8] c"(toVectorB.size() == 4) && (toVectorB.front().mX == 44) && (vector4TO44.size() == 0)\00", align 1
@.str.38 = private unnamed_addr constant [85 x i8] c"(toVectorB.size() == 5) && (toVectorB.front().mX == 55) && (vector5TO55.size() == 0)\00", align 1
@.str.39 = private unnamed_addr constant [22 x i8] c"myVec2.back().i == 42\00", align 1
@.str.40 = private unnamed_addr constant [12 x i8] c"ref.i == 42\00", align 1
@.str.41 = private unnamed_addr constant [32 x i8] c"intArray.data() == &intArray[0]\00", align 1
@.str.42 = private unnamed_addr constant [23 x i8] c"*intArray.data() == 10\00", align 1
@.str.43 = private unnamed_addr constant [23 x i8] c"intArray.front() == 10\00", align 1
@.str.44 = private unnamed_addr constant [21 x i8] c"intArray.back() == 7\00", align 1
@.str.45 = private unnamed_addr constant [32 x i8] c"toArrayC.data() == &toArrayC[0]\00", align 1
@.str.46 = private unnamed_addr constant [34 x i8] c"*toArrayC.data() == TestObject(7)\00", align 1
@.str.47 = private unnamed_addr constant [34 x i8] c"toArrayC.front() == TestObject(7)\00", align 1
@.str.48 = private unnamed_addr constant [33 x i8] c"toArrayC.back() == TestObject(7)\00", align 1
@.str.49 = private unnamed_addr constant [14 x i8] c"*it == (int)i\00", align 1
@.str.50 = private unnamed_addr constant [15 x i8] c"*itr == (int)i\00", align 1
@__const._Z10TestVectorv.B = private unnamed_addr constant [5 x i32] [i32 99, i32 99, i32 99, i32 99, i32 99], align 16
@.str.51 = private unnamed_addr constant [31 x i8] c"equal(v3.begin(), v3.end(), A)\00", align 1
@.str.52 = private unnamed_addr constant [15 x i8] c"v3.size() == N\00", align 1
@.str.53 = private unnamed_addr constant [31 x i8] c"equal(v4.begin(), v4.end(), A)\00", align 1
@.str.54 = private unnamed_addr constant [28 x i8] c"equal(A, A + N, v4.begin())\00", align 1
@.str.55 = private unnamed_addr constant [31 x i8] c"equal(v4.begin(), v4.end(), B)\00", align 1
@.str.56 = private unnamed_addr constant [28 x i8] c"equal(B, B + M, v4.begin())\00", align 1
@.str.57 = private unnamed_addr constant [29 x i8] c"(v4.size() == M) && (M != N)\00", align 1
@.str.58 = private unnamed_addr constant [15 x i8] c"v4.size() == 4\00", align 1
@.str.59 = private unnamed_addr constant [29 x i8] c"(v4[0] == 0) && (v4[3] == 3)\00", align 1
@.str.60 = private unnamed_addr constant [17 x i8] c"intArray[3] == 0\00", align 1
@.str.61 = private unnamed_addr constant [20 x i8] c"intArray.at(3) == 0\00", align 1
@.str.62 = private unnamed_addr constant [28 x i8] c"toArray[3] == TestObject(0)\00", align 1
@.str.63 = private unnamed_addr constant [31 x i8] c"toArray.at(3) == TestObject(0)\00", align 1
@.str.64 = private unnamed_addr constant [20 x i8] c"intArray.validate()\00", align 1
@.str.65 = private unnamed_addr constant [21 x i8] c"intArray.size() == 6\00", align 1
@.str.66 = private unnamed_addr constant [17 x i8] c"intArray[5] == 5\00", align 1
@.str.67 = private unnamed_addr constant [25 x i8] c"&ref == &intArray.back()\00", align 1
@.str.68 = private unnamed_addr constant [22 x i8] c"intArray.size() == 46\00", align 1
@.str.69 = private unnamed_addr constant [19 x i8] c"intArray[45] == 98\00", align 1
@.str.70 = private unnamed_addr constant [22 x i8] c"intArray.size() == 86\00", align 1
@.str.71 = private unnamed_addr constant [19 x i8] c"intArray[85] == 99\00", align 1
@.str.72 = private unnamed_addr constant [22 x i8] c"intArray.size() == 56\00", align 1
@_ZN10TestObject8sTOCountE = external local_unnamed_addr global i64, align 8
@.str.73 = private unnamed_addr constant [33 x i8] c"TestObject::sTOCount == toCount0\00", align 1
@.str.74 = private unnamed_addr constant [61 x i8] c"TestObject::sTOCount == (toCount0 + static_cast<int64_t>(i))\00", align 1
@.str.75 = private unnamed_addr constant [65 x i8] c"TestObject::sTOCount == (toCount0 + static_cast<int64_t>(i) + 1)\00", align 1
@.str.76 = private unnamed_addr constant [24 x i8] c"vTO.back().mX == (int)i\00", align 1
@.str.77 = private unnamed_addr constant [15 x i8] c"vTO.validate()\00", align 1
@_ZN10TestObject12sTOCtorCountE = external local_unnamed_addr global i64, align 8
@.str.78 = private unnamed_addr constant [99 x i8] c"(toVectorA.size() == 1) && (toVectorA.back().mX == (2 + 3 + 4)) && (TestObject::sTOCtorCount == 1)\00", align 1
@.str.79 = private unnamed_addr constant [22 x i8] c"ref.mX == (2 + 3 + 4)\00", align 1
@.str.80 = private unnamed_addr constant [100 x i8] c"(toVectorA.size() == 2) && (toVectorA.front().mX == (3 + 4 + 5)) && (TestObject::sTOCtorCount == 3)\00", align 1
@_ZN10TestObject16sTOMoveCtorCountE = external local_unnamed_addr global i64, align 8
@.str.81 = private unnamed_addr constant [103 x i8] c"(toVectorC.size() == 1) && (toVectorC.back().mX == (2 + 3 + 4)) && (TestObject::sTOMoveCtorCount == 1)\00", align 1
@.str.82 = private unnamed_addr constant [104 x i8] c"(toVectorC.size() == 2) && (toVectorC.front().mX == (3 + 4 + 5)) && (TestObject::sTOMoveCtorCount == 3)\00", align 1
@.str.83 = private unnamed_addr constant [22 x i8] c"intArray.size() == 19\00", align 1
@.str.84 = private unnamed_addr constant [17 x i8] c"intArray[0] == 0\00", align 1
@.str.85 = private unnamed_addr constant [19 x i8] c"intArray[10] == 11\00", align 1
@.str.86 = private unnamed_addr constant [19 x i8] c"intArray[18] == 19\00", align 1
@.str.87 = private unnamed_addr constant [22 x i8] c"intArray.size() == 14\00", align 1
@.str.88 = private unnamed_addr constant [17 x i8] c"intArray[9] == 9\00", align 1
@.str.89 = private unnamed_addr constant [19 x i8] c"intArray[13] == 19\00", align 1
@.str.90 = private unnamed_addr constant [22 x i8] c"intArray.size() == 10\00", align 1
@.str.91 = private unnamed_addr constant [17 x i8] c"intArray[1] == 5\00", align 1
@.str.92 = private unnamed_addr constant [18 x i8] c"intArray[9] == 19\00", align 1
@.str.93 = private unnamed_addr constant [21 x i8] c"intArray.size() == 7\00", align 1
@.str.94 = private unnamed_addr constant [18 x i8] c"intArray[6] == 16\00", align 1
@.str.95 = private unnamed_addr constant [17 x i8] c"intArray.empty()\00", align 1
@.str.96 = private unnamed_addr constant [21 x i8] c"intArray.size() == 0\00", align 1
@.str.97 = private unnamed_addr constant [19 x i8] c"toArray.validate()\00", align 1
@.str.98 = private unnamed_addr constant [21 x i8] c"toArray.size() == 19\00", align 1
@.str.99 = private unnamed_addr constant [30 x i8] c"toArray[10] == TestObject(11)\00", align 1
@.str.100 = private unnamed_addr constant [21 x i8] c"toArray.size() == 14\00", align 1
@.str.101 = private unnamed_addr constant [30 x i8] c"toArray[10] == TestObject(16)\00", align 1
@.str.102 = private unnamed_addr constant [16 x i8] c"toArray.empty()\00", align 1
@.str.103 = private unnamed_addr constant [20 x i8] c"toArray.size() == 0\00", align 1
@.str.104 = private unnamed_addr constant [18 x i8] c"intArray[0] == 19\00", align 1
@.str.105 = private unnamed_addr constant [17 x i8] c"intArray[1] == 1\00", align 1
@.str.106 = private unnamed_addr constant [19 x i8] c"intArray[18] == 18\00", align 1
@.str.107 = private unnamed_addr constant [22 x i8] c"intArray.size() == 18\00", align 1
@.str.108 = private unnamed_addr constant [19 x i8] c"intArray[10] == 18\00", align 1
@.str.109 = private unnamed_addr constant [19 x i8] c"intArray[17] == 17\00", align 1
@.str.110 = private unnamed_addr constant [22 x i8] c"intArray.size() == 17\00", align 1
@.str.111 = private unnamed_addr constant [19 x i8] c"intArray[16] == 16\00", align 1
@.str.112 = private unnamed_addr constant [17 x i8] c"intArray[1] == 2\00", align 1
@.str.113 = private unnamed_addr constant [17 x i8] c"intArray[2] == 0\00", align 1
@.str.114 = private unnamed_addr constant [17 x i8] c"intArray[3] == 1\00", align 1
@.str.115 = private unnamed_addr constant [18 x i8] c"intArray[18] == 1\00", align 1
@.str.116 = private unnamed_addr constant [17 x i8] c"intArray[3] == 2\00", align 1
@.str.117 = private unnamed_addr constant [18 x i8] c"intArray[17] == 1\00", align 1
@.str.118 = private unnamed_addr constant [17 x i8] c"intArray[0] == 2\00", align 1
@.str.119 = private unnamed_addr constant [17 x i8] c"intArray[1] == 0\00", align 1
@.str.120 = private unnamed_addr constant [17 x i8] c"intArray[2] == 2\00", align 1
@.str.121 = private unnamed_addr constant [18 x i8] c"intArray[16] == 1\00", align 1
@.str.122 = private unnamed_addr constant [17 x i8] c"intArray[2] == 9\00", align 1
@.str.123 = private unnamed_addr constant [18 x i8] c"intArray[18] == 9\00", align 1
@.str.124 = private unnamed_addr constant [17 x i8] c"intArray[3] == 9\00", align 1
@.str.125 = private unnamed_addr constant [18 x i8] c"intArray[17] == 8\00", align 1
@.str.126 = private unnamed_addr constant [17 x i8] c"intArray[0] == 8\00", align 1
@.str.127 = private unnamed_addr constant [18 x i8] c"intArray[16] == 8\00", align 1
@.str.128 = private unnamed_addr constant [18 x i8] c"intArray[15] == 0\00", align 1
@.str.129 = private unnamed_addr constant [18 x i8] c"intArray[17] == 2\00", align 1
@.str.130 = private unnamed_addr constant [18 x i8] c"intArray[18] == 0\00", align 1
@.str.131 = private unnamed_addr constant [18 x i8] c"intArray[14] == 2\00", align 1
@.str.132 = private unnamed_addr constant [18 x i8] c"intArray[16] == 2\00", align 1
@.str.133 = private unnamed_addr constant [18 x i8] c"intArray[17] == 0\00", align 1
@.str.134 = private unnamed_addr constant [18 x i8] c"intArray[13] == 1\00", align 1
@.str.135 = private unnamed_addr constant [17 x i8] c"intArray[2] == 1\00", align 1
@.str.136 = private unnamed_addr constant [17 x i8] c"intArray[1] == 8\00", align 1
@.str.137 = private unnamed_addr constant [73 x i8] c"(intVector.size() == 20) && (intVector[0] == 0) && (intVector[19] == 19)\00", align 1
@.str.138 = private unnamed_addr constant [25 x i8] c"(intVector.size() == 17)\00", align 1
@.str.139 = private unnamed_addr constant [20 x i8] c"(intVector[0] == 0)\00", align 1
@.str.140 = private unnamed_addr constant [22 x i8] c"(intVector[16] == 16)\00", align 1
@.str.141 = private unnamed_addr constant [25 x i8] c"(intVector.size() == 14)\00", align 1
@.str.142 = private unnamed_addr constant [20 x i8] c"(intVector[0] == 3)\00", align 1
@.str.143 = private unnamed_addr constant [22 x i8] c"(intVector[13] == 16)\00", align 1
@.str.144 = private unnamed_addr constant [25 x i8] c"(intVector.size() == 13)\00", align 1
@.str.145 = private unnamed_addr constant [20 x i8] c"(intVector[0] == 4)\00", align 1
@.str.146 = private unnamed_addr constant [22 x i8] c"(intVector[12] == 16)\00", align 1
@.str.147 = private unnamed_addr constant [25 x i8] c"(intVector.size() == 12)\00", align 1
@.str.148 = private unnamed_addr constant [22 x i8] c"(intVector[11] == 15)\00", align 1
@.str.149 = private unnamed_addr constant [22 x i8] c"intVector.size() == 0\00", align 1
@.str.150 = private unnamed_addr constant [21 x i8] c"intVector.validate()\00", align 1
@.str.151 = private unnamed_addr constant [23 x i8] c"intVector.size() == 19\00", align 1
@.str.152 = private unnamed_addr constant [18 x i8] c"intVector[0] == 0\00", align 1
@.str.153 = private unnamed_addr constant [20 x i8] c"intVector[10] == 10\00", align 1
@.str.154 = private unnamed_addr constant [20 x i8] c"intVector[18] == 18\00", align 1
@.str.155 = private unnamed_addr constant [23 x i8] c"intVector.size() == 18\00", align 1
@.str.156 = private unnamed_addr constant [19 x i8] c"intVector[8] == 18\00", align 1
@.str.157 = private unnamed_addr constant [20 x i8] c"intVector[17] == 17\00", align 1
@.str.158 = private unnamed_addr constant [23 x i8] c"intVector.size() == 17\00", align 1
@.str.159 = private unnamed_addr constant [19 x i8] c"intVector[0] == 17\00", align 1
@.str.160 = private unnamed_addr constant [20 x i8] c"intVector[16] == 16\00", align 1
@__const._Z10TestVectorv.testValues = private unnamed_addr constant [6 x i32] [i32 42, i32 43, i32 44, i32 45, i32 46, i32 47], align 16
@.str.161 = private unnamed_addr constant [14 x i8] c"v.size() == 5\00", align 1
@.str.162 = private unnamed_addr constant [110 x i8] c"eastl::find_if(v.begin(), v.end(), [&](eastl::unique_ptr<int>& e) { return *e == valueToRemove; }) == v.end()\00", align 1
@.str.163 = private unnamed_addr constant [99 x i8] c"eastl::find_if(v.begin(), v.end(), [&](eastl::unique_ptr<int>& e) { return *e == te; }) != v.end()\00", align 1
@.str.164 = private unnamed_addr constant [7 x i8] c"vector\00", align 1
@.str.165 = private unnamed_addr constant [84 x i8] c"VerifySequence(v.begin(), v.end(), int(), \22vector\22, 13, 13, 13, 13, 13, 13, 13, -1)\00", align 1
@.str.166 = private unnamed_addr constant [13 x i8] c"v.validate()\00", align 1
@.str.167 = private unnamed_addr constant [14 x i8] c"vector.insert\00", align 1
@.str.168 = private unnamed_addr constant [95 x i8] c"VerifySequence(v.begin(), v.end(), int(), \22vector.insert\22, 13, 13, 13, 13, 13, 13, 13, 99, -1)\00", align 1
@.str.169 = private unnamed_addr constant [100 x i8] c"VerifySequence(v.begin(), v.end(), int(), \22vector.insert\22, 13, 13, 13, 13, 13, 13, 13, 99, 999, -1)\00", align 1
@.str.170 = private unnamed_addr constant [104 x i8] c"VerifySequence(v.begin(), v.end(), int(), \22vector.insert\22, 13, 13, 13, 13, 13, 13, 13, 49, 99, 999, -1)\00", align 1
@.str.171 = private unnamed_addr constant [20 x i8] c"it == v.begin() + 5\00", align 1
@.str.172 = private unnamed_addr constant [116 x i8] c"VerifySequence(v.begin(), v.end(), int(), \22vector.insert\22, 13, 13, 13, 13, 13, 42, 42, 42, 13, 13, 49, 99, 999, -1)\00", align 1
@.str.173 = private unnamed_addr constant [9 x i8] c"it == at\00", align 1
@__const._Z10TestVectorv.data = private unnamed_addr constant [4 x i32] [i32 2, i32 3, i32 4, i32 5], align 16
@.str.174 = private unnamed_addr constant [20 x i8] c"it == v.begin() + 1\00", align 1
@.str.175 = private unnamed_addr constant [128 x i8] c"VerifySequence(v.begin(), v.end(), int(), \22vector.insert\22, 13, 2, 3, 4, 5, 13, 13, 13, 13, 42, 42, 42, 13, 13, 49, 99, 999, -1)\00", align 1
@.str.176 = private unnamed_addr constant [24 x i8] c"it == v.end() - (3 + 6)\00", align 1
@.str.177 = private unnamed_addr constant [152 x i8] c"VerifySequence(v.begin(), v.end(), int(), \22vector.insert\22, 13, 2, 3, 4, 5, 13, 13, 13, 13, 42, 42, 42, 13, 13, 17, 17, 17, 17, 17, 17, 49, 99, 999, -1)\00", align 1
@.str.178 = private unnamed_addr constant [17 x i8] c"v2.size() == 100\00", align 1
@.str.179 = private unnamed_addr constant [12 x i8] c"v2[0] == 17\00", align 1
@.str.180 = private unnamed_addr constant [17 x i8] c"v2.size() == 101\00", align 1
@.str.181 = private unnamed_addr constant [13 x i8] c"v2[50] == 42\00", align 1
@.str.182 = private unnamed_addr constant [173 x i8] c"VerifySequence(v.begin(), v.end(), int(), \22vector.insert\22, 13, 2, 3, 4, 5, 13, 13, 13, 13, 42, 42, 42, 13, 13, 17, 17, 17, 17, 17, 17, 17, 17, 49, 99, 999, 49, 99, 999, -1)\00", align 1
@.str.183 = private unnamed_addr constant [178 x i8] c"VerifySequence(v.begin(), v.end(), int(), \22vector.insert\22, 13, 2, 3, 4, 5, 13, 13, 13, 13, 42, 42, 42, 13, 13, 17, 17, 17, 17, 17, 17, 17, 17, 49, 99, 999, 999, 49, 99, 999, -1)\00", align 1
@.str.184 = private unnamed_addr constant [186 x i8] c"VerifySequence(v.begin(), v.end(), int(), \22vector.insert\22, 13, 2, 3, 4, 5, 13, 13, 13, 13, 42, 42, 42, 13, 13, 17, 17, 17, 17, 17, 17, 17, 17, 49, 99, 999, 999, 49, 49, 49, 99, 999, -1)\00", align 1
@.str.185 = private unnamed_addr constant [24 x i8] c"it == toVector1.begin()\00", align 1
@.str.186 = private unnamed_addr constant [97 x i8] c"VerifySequence(toVector1.begin(), toVector1.end(), int(), \22vector.insert\22, 10, 11, 12, 0, 1, -1)\00", align 1
@_ZN10TestObject18sTOMoveAssignCountE = external local_unnamed_addr global i64, align 8
@_ZN10TestObject16sTOCopyCtorCountE = external local_unnamed_addr global i64, align 8
@_ZN10TestObject18sTOCopyAssignCountE = external local_unnamed_addr global i64, align 8
@.str.187 = private unnamed_addr constant [137 x i8] c"TestObject::sTOMoveCtorCount + TestObject::sTOMoveAssignCount == 2 && TestObject::sTOCopyCtorCount + TestObject::sTOCopyAssignCount == 3\00", align 1
@.str.188 = private unnamed_addr constant [101 x i8] c"VerifySequence(toVector1.begin(), toVector1.end(), int(), \22vector.insert\22, 20, 10, 11, 12, 0, 1, -1)\00", align 1
@.str.189 = private unnamed_addr constant [137 x i8] c"TestObject::sTOMoveCtorCount + TestObject::sTOMoveAssignCount == 5 && TestObject::sTOCopyCtorCount + TestObject::sTOCopyAssignCount == 1\00", align 1
@.str.190 = private unnamed_addr constant [105 x i8] c"VerifySequence(toVector1.begin(), toVector1.end(), int(), \22vector.insert\22, 17, 20, 10, 11, 12, 0, 1, -1)\00", align 1
@.str.191 = private unnamed_addr constant [137 x i8] c"TestObject::sTOMoveCtorCount + TestObject::sTOMoveAssignCount == 6 && TestObject::sTOCopyCtorCount + TestObject::sTOCopyAssignCount == 2\00", align 1
@.str.192 = private unnamed_addr constant [145 x i8] c"VerifySequence(toVector1.begin(), toVector1.end(), int(), \22vector.insert\22, 18, 18, 18, 18, 18, 18, 18, 18, 18, 18, 17, 20, 10, 11, 12, 0, 1, -1)\00", align 1
@.str.193 = private unnamed_addr constant [138 x i8] c"TestObject::sTOMoveCtorCount + TestObject::sTOMoveAssignCount == 7 && TestObject::sTOCopyCtorCount + TestObject::sTOCopyAssignCount == 11\00", align 1
@.str.194 = private unnamed_addr constant [15 x i8] c"v.size() == 10\00", align 1
@.str.195 = private unnamed_addr constant [19 x i8] c"v.capacity() == 20\00", align 1
@.str.196 = private unnamed_addr constant [11 x i8] c"v[41] == 0\00", align 1
@.str.197 = private unnamed_addr constant [8 x i8] c"c >= 42\00", align 1
@.str.198 = private unnamed_addr constant [12 x i8] c"v[43] == 19\00", align 1
@.str.199 = private unnamed_addr constant [10 x i8] c"v.empty()\00", align 1
@.str.200 = private unnamed_addr constant [18 x i8] c"v.capacity() == c\00", align 1
@.str.201 = private unnamed_addr constant [25 x i8] c"v.capacity() == v.size()\00", align 1
@.str.202 = private unnamed_addr constant [18 x i8] c"v.capacity() == 0\00", align 1
@__const._Z10TestVectorv.intArray = private unnamed_addr constant [17 x i32] [i32 1, i32 2, i32 3, i32 4, i32 5, i32 6, i32 7, i32 8, i32 9, i32 10, i32 11, i32 12, i32 13, i32 14, i32 15, i32 16, i32 17], align 16
@.str.203 = private unnamed_addr constant [19 x i8] c"v.capacity() >= 30\00", align 1
@.str.204 = private unnamed_addr constant [14 x i8] c"vector.assign\00", align 1
@.str.205 = private unnamed_addr constant [122 x i8] c"VerifySequence(v.begin(), v.end(), int(), \22vector.assign\22, 1, 2, 3, 4, 5, 6, 7, 8, 9, 10, 11, 12, 13, 14, 15, 16, 17, -1)\00", align 1
@.str.206 = private unnamed_addr constant [20 x i8] c"vector.set_capacity\00", align 1
@.str.207 = private unnamed_addr constant [128 x i8] c"VerifySequence(v.begin(), v.end(), int(), \22vector.set_capacity\22, 1, 2, 3, 4, 5, 6, 7, 8, 9, 10, 11, 12, 13, 14, 15, 16, 17, -1)\00", align 1
@.str.208 = private unnamed_addr constant [14 x i8] c"v.size() == 0\00", align 1
@.str.209 = private unnamed_addr constant [17 x i8] c"v.data() == NULL\00", align 1
@.str.210 = private unnamed_addr constant [13 x i8] c"vector.reset\00", align 1
@.str.211 = private unnamed_addr constant [62 x i8] c"VerifySequence(v.begin(), v.end(), int(), \22vector.reset\22, -1)\00", align 1
@.str.212 = private unnamed_addr constant [104 x i8] c"TestObject::sTOMoveCtorCount == 5 && TestObject::sTOCopyCtorCount + TestObject::sTOCopyAssignCount == 0\00", align 1
@.str.213 = private unnamed_addr constant [98 x i8] c"VerifySequence(toArray2.begin(), toArray2.end(), int(), \22vector.set_capacity\22, 7, 7, 7, 7, 7, -1)\00", align 1
@_ZN15MallocAllocator13mFreeCountAllE = external local_unnamed_addr global i32, align 4
@.str.214 = private unnamed_addr constant [109 x i8] c"(MallocAllocator::mAllocCountAll > 0) && (MallocAllocator::mAllocCountAll == MallocAllocator::mFreeCountAll)\00", align 1
@.str.215 = private unnamed_addr constant [88 x i8] c"(intArray.validate_iterator(intArray.begin()) & (isf_valid | isf_can_dereference)) != 0\00", align 1
@.str.216 = private unnamed_addr constant [45 x i8] c"intArray.validate_iterator(NULL) == isf_none\00", align 1
@.str.217 = private unnamed_addr constant [25 x i8] c"(intArray1 == intArray2)\00", align 1
@.str.218 = private unnamed_addr constant [26 x i8] c"!(intArray1 != intArray2)\00", align 1
@.str.219 = private unnamed_addr constant [25 x i8] c"(intArray1 <= intArray2)\00", align 1
@.str.220 = private unnamed_addr constant [25 x i8] c"(intArray1 >= intArray2)\00", align 1
@.str.221 = private unnamed_addr constant [25 x i8] c"!(intArray1 < intArray2)\00", align 1
@.str.222 = private unnamed_addr constant [25 x i8] c"!(intArray1 > intArray2)\00", align 1
@.str.223 = private unnamed_addr constant [26 x i8] c"!(intArray1 == intArray2)\00", align 1
@.str.224 = private unnamed_addr constant [25 x i8] c"(intArray1 != intArray2)\00", align 1
@.str.225 = private unnamed_addr constant [26 x i8] c"!(intArray1 >= intArray2)\00", align 1
@.str.226 = private unnamed_addr constant [24 x i8] c"(intArray1 < intArray2)\00", align 1
@.str.227 = private unnamed_addr constant [17 x i8] c"vA64.size() == 2\00", align 1
@.str.228 = private unnamed_addr constant [17 x i8] c"vA64.size() == 3\00", align 1
@.str.229 = private unnamed_addr constant [17 x i8] c"vA64.size() == 0\00", align 1
@.str.230 = private unnamed_addr constant [17 x i8] c"vA64.size() == 1\00", align 1
@.str.231 = private unnamed_addr constant [18 x i8] c"vA64.size() == 20\00", align 1
@.str.232 = private unnamed_addr constant [22 x i8] c"empty1.data() == NULL\00", align 1
@.str.233 = private unnamed_addr constant [19 x i8] c"empty1.size() == 0\00", align 1
@.str.234 = private unnamed_addr constant [23 x i8] c"empty1.capacity() == 0\00", align 1
@.str.235 = private unnamed_addr constant [22 x i8] c"empty2.data() == NULL\00", align 1
@.str.236 = private unnamed_addr constant [19 x i8] c"empty2.size() == 0\00", align 1
@.str.237 = private unnamed_addr constant [23 x i8] c"empty2.capacity() == 0\00", align 1
@.str.238 = private unnamed_addr constant [24 x i8] c"constIntVector1.empty()\00", align 1
@__const._Z10TestVectorv.intArray.239 = private unnamed_addr constant [3 x i32] [i32 37, i32 38, i32 39], align 4
@.str.240 = private unnamed_addr constant [28 x i8] c"constIntVector2.size() == 3\00", align 1
@.str.241 = private unnamed_addr constant [28 x i8] c"constIntVector3.size() == 4\00", align 1
@.str.242 = private unnamed_addr constant [24 x i8] c"intVector1.back() == 37\00", align 1
@.str.243 = private unnamed_addr constant [24 x i8] c"intVector2.back() == 37\00", align 1
@.str.244 = private unnamed_addr constant [26 x i8] c"floatVector.back() == 2.0\00", align 1
@.str.245 = private unnamed_addr constant [29 x i8] c"eastl::distance(cb, ce) == 0\00", align 1
@.str.246 = private unnamed_addr constant [31 x i8] c"eastl::distance(crb, cre) == 0\00", align 1
@.str.247 = private unnamed_addr constant [31 x i8] c"eastl::distance(ccb, cce) == 0\00", align 1
@.str.248 = private unnamed_addr constant [33 x i8] c"eastl::distance(ccrb, ccre) == 0\00", align 1
@.str.249 = private unnamed_addr constant [12 x i8] c"TestString0\00", align 1
@.str.251 = private unnamed_addr constant [25 x i8] c"vector string8 copy size\00", align 1
@.str.252 = private unnamed_addr constant [20 x i8] c"vector copy string8\00", align 1
@.str.253 = private unnamed_addr constant [39 x i8] c"(v0.front() == 0) && (v1.front() == 1)\00", align 1
@.str.254 = private unnamed_addr constant [39 x i8] c"(v0.front() == 1) && (v1.front() == 1)\00", align 1
@_ZN17InstanceAllocator14mMismatchCountE = external local_unnamed_addr global i32, align 4
@.str.255 = private unnamed_addr constant [39 x i8] c"InstanceAllocator::mMismatchCount == 0\00", align 1
@.str.256 = private unnamed_addr constant [14 x i8] c"v0.validate()\00", align 1
@.str.257 = private unnamed_addr constant [14 x i8] c"v1.validate()\00", align 1
@.str.258 = private unnamed_addr constant [20 x i8] c"v.capacity() == 100\00", align 1
@.str.259 = private unnamed_addr constant [20 x i8] c"!v1[0].mMovedToSelf\00", align 1
@.str.260 = private unnamed_addr constant [11 x i8] c"v1.empty()\00", align 1
@.str.261 = private unnamed_addr constant [15 x i8] c"v1.size() == 0\00", align 1
@.str.262 = private unnamed_addr constant [19 x i8] c"v1.capacity() == 0\00", align 1
@.str.263 = private unnamed_addr constant [55 x i8] c"eastl::distance(v1.data(), v1.data() + v1.size()) == 0\00", align 1
@.str.264 = private unnamed_addr constant [98 x i8] c"v2.size() == 2 && v2[0].value == v2[1].value && v2[0].value == DefaultConstructible::defaultValue\00", align 1
@.str.265 = private unnamed_addr constant [95 x i8] c"v3.size() == 2 && v3[0].value == v3[1].value && v3[0].value == CopyConstructible::defaultValue\00", align 1
@.str.266 = private unnamed_addr constant [95 x i8] c"v4.size() == 2 && v4[0].value == v4[1].value && v4[0].value == CopyConstructible::defaultValue\00", align 1
@.str.267 = private unnamed_addr constant [95 x i8] c"v5.size() == 2 && v5[0].value == v5[1].value && v5[0].value == MoveConstructible::defaultValue\00", align 1
@.str.268 = private unnamed_addr constant [87 x i8] c"v5.size() == 1 && v5.capacity() == 1 && v5[0].value == MoveConstructible::defaultValue\00", align 1
@.str.269 = private unnamed_addr constant [65 x i8] c"v7.size() == 1 && v7[0].value == MoveConstructible::defaultValue\00", align 1
@.str.270 = private unnamed_addr constant [25 x i8] c"v4.empty() && v5.empty()\00", align 1
@.str.271 = private unnamed_addr constant [33 x i8] c"v6.size() == 2 && v7.size() == 1\00", align 1
@.str.272 = private unnamed_addr constant [105 x i8] c"v8.size() == 2 && v8[0].value == v8[1].value && v8[0].value == MoveAndDefaultConstructible::defaultValue\00", align 1
@.str.273 = private unnamed_addr constant [67 x i8] c"v1.size() == 1 && v1.front().value == MoveAssignable::defaultValue\00", align 1
@.str.274 = private unnamed_addr constant [41 x i8] c"v1.get_allocator() != v2.get_allocator()\00", align 1
@.str.275 = private unnamed_addr constant [26 x i8] c"!v1.empty() && v2.empty()\00", align 1
@.str.276 = private unnamed_addr constant [26 x i8] c"v1.empty() && !v2.empty()\00", align 1
@constinit.277 = private unnamed_addr constant [8 x i32] [i32 1, i32 2, i32 3, i32 4, i32 6, i32 7, i32 8, i32 9], align 4
@.str.278 = private unnamed_addr constant [51 x i8] c"(v == eastl::vector<int> {1, 2, 3, 4, 6, 7, 8, 9})\00", align 1
@.str.279 = private unnamed_addr constant [15 x i8] c"numErased == 1\00", align 1
@constinit.280 = private unnamed_addr constant [7 x i32] [i32 1, i32 3, i32 4, i32 6, i32 7, i32 8, i32 9], align 4
@.str.281 = private unnamed_addr constant [48 x i8] c"(v == eastl::vector<int> {1, 3, 4, 6, 7, 8, 9})\00", align 1
@constinit.282 = private unnamed_addr constant [6 x i32] [i32 1, i32 3, i32 4, i32 6, i32 7, i32 8], align 4
@.str.283 = private unnamed_addr constant [45 x i8] c"(v == eastl::vector<int> {1, 3, 4, 6, 7, 8})\00", align 1
@constinit.284 = private unnamed_addr constant [9 x i32] [i32 1, i32 2, i32 3, i32 4, i32 5, i32 6, i32 7, i32 8, i32 9], align 4
@constinit.285 = private unnamed_addr constant [5 x i32] [i32 1, i32 3, i32 5, i32 7, i32 9], align 4
@.str.286 = private unnamed_addr constant [41 x i8] c"(v == eastl::vector<int>{1, 3, 5, 7, 9})\00", align 1
@.str.287 = private unnamed_addr constant [15 x i8] c"numErased == 4\00", align 1
@_ZN10TestObject19sTODefaultCtorCountE = external local_unnamed_addr global i64, align 8
@_ZN10TestObject16sMagicErrorCountE = external local_unnamed_addr global i32, align 4
@_ZN10TestObject12sTODtorCountE = external local_unnamed_addr global i64, align 8
@_ZN10TestObject15sTOArgCtorCountE = external local_unnamed_addr global i64, align 8
@_ZN15MallocAllocator15mAllocVolumeAllE = external local_unnamed_addr global i64, align 8
@_ZN15MallocAllocator16mpLastAllocationE = external local_unnamed_addr global ptr, align 8
@.str.288 = private unnamed_addr constant [27 x i8] c"[%s] Mismatch at index %d\0A\00", align 1
@.str.289 = private unnamed_addr constant [22 x i8] c"Mismatch at index %d\0A\00", align 1
@.str.290 = private unnamed_addr constant [47 x i8] c"[%s] Too many elements: expected %d, found %d\0A\00", align 1
@.str.291 = private unnamed_addr constant [42 x i8] c"Too many elements: expected %d, found %d\0A\00", align 1

@_ZN5eastl6vectorIbNS_9allocatorEEC1Ev = weak_odr dso_local unnamed_addr alias void (ptr), ptr @_ZN5eastl6vectorIbNS_9allocatorEEC2Ev
@_ZN5eastl6vectorIbNS_9allocatorEEC1ERKS1_ = weak_odr dso_local unnamed_addr alias void (ptr, ptr), ptr @_ZN5eastl6vectorIbNS_9allocatorEEC2ERKS1_
@_ZN5eastl6vectorIbNS_9allocatorEEC1EmRKS1_ = weak_odr dso_local unnamed_addr alias void (ptr, i64, ptr), ptr @_ZN5eastl6vectorIbNS_9allocatorEEC2EmRKS1_
@_ZN5eastl6vectorIbNS_9allocatorEEC1EmRKbRKS1_ = weak_odr dso_local unnamed_addr alias void (ptr, i64, ptr, ptr), ptr @_ZN5eastl6vectorIbNS_9allocatorEEC2EmRKbRKS1_
@_ZN5eastl6vectorIbNS_9allocatorEEC1ERKS2_ = weak_odr dso_local unnamed_addr alias void (ptr, ptr), ptr @_ZN5eastl6vectorIbNS_9allocatorEEC2ERKS2_
@_ZN5eastl6vectorIbNS_9allocatorEEC1ERKS2_RKS1_ = weak_odr dso_local unnamed_addr alias void (ptr, ptr, ptr), ptr @_ZN5eastl6vectorIbNS_9allocatorEEC2ERKS2_RKS1_
@_ZN5eastl6vectorIbNS_9allocatorEEC1EOS2_ = weak_odr dso_local unnamed_addr alias void (ptr, ptr), ptr @_ZN5eastl6vectorIbNS_9allocatorEEC2EOS2_
@_ZN5eastl6vectorIbNS_9allocatorEEC1EOS2_RKS1_ = weak_odr dso_local unnamed_addr alias void (ptr, ptr, ptr), ptr @_ZN5eastl6vectorIbNS_9allocatorEEC2EOS2_RKS1_
@_ZN5eastl6vectorIbNS_9allocatorEEC1ESt16initializer_listIbERKS1_ = weak_odr dso_local unnamed_addr alias void (ptr, ptr, i64, ptr), ptr @_ZN5eastl6vectorIbNS_9allocatorEEC2ESt16initializer_listIbERKS1_
@_ZN5eastl6vectorIbNS_9allocatorEED1Ev = weak_odr dso_local unnamed_addr alias void (ptr), ptr @_ZN5eastl6vectorIbNS_9allocatorEED2Ev
@_ZN5eastl6vectorIiNS_9allocatorEEC1Ev = weak_odr dso_local unnamed_addr alias void (ptr), ptr @_ZN5eastl6vectorIiNS_9allocatorEEC2Ev
@_ZN5eastl6vectorIiNS_9allocatorEEC1ERKS1_ = weak_odr dso_local unnamed_addr alias void (ptr, ptr), ptr @_ZN5eastl6vectorIiNS_9allocatorEEC2ERKS1_
@_ZN5eastl6vectorIiNS_9allocatorEEC1EmRKS1_ = weak_odr dso_local unnamed_addr alias void (ptr, i64, ptr), ptr @_ZN5eastl6vectorIiNS_9allocatorEEC2EmRKS1_
@_ZN5eastl6vectorIiNS_9allocatorEEC1EmRKiRKS1_ = weak_odr dso_local unnamed_addr alias void (ptr, i64, ptr, ptr), ptr @_ZN5eastl6vectorIiNS_9allocatorEEC2EmRKiRKS1_
@_ZN5eastl6vectorIiNS_9allocatorEEC1ERKS2_ = weak_odr dso_local unnamed_addr alias void (ptr, ptr), ptr @_ZN5eastl6vectorIiNS_9allocatorEEC2ERKS2_
@_ZN5eastl6vectorIiNS_9allocatorEEC1ERKS2_RKS1_ = weak_odr dso_local unnamed_addr alias void (ptr, ptr, ptr), ptr @_ZN5eastl6vectorIiNS_9allocatorEEC2ERKS2_RKS1_
@_ZN5eastl6vectorIiNS_9allocatorEEC1EOS2_ = weak_odr dso_local unnamed_addr alias void (ptr, ptr), ptr @_ZN5eastl6vectorIiNS_9allocatorEEC2EOS2_
@_ZN5eastl6vectorIiNS_9allocatorEEC1EOS2_RKS1_ = weak_odr dso_local unnamed_addr alias void (ptr, ptr, ptr), ptr @_ZN5eastl6vectorIiNS_9allocatorEEC2EOS2_RKS1_
@_ZN5eastl6vectorIiNS_9allocatorEEC1ESt16initializer_listIiERKS1_ = weak_odr dso_local unnamed_addr alias void (ptr, ptr, i64, ptr), ptr @_ZN5eastl6vectorIiNS_9allocatorEEC2ESt16initializer_listIiERKS1_
@_ZN5eastl6vectorIiNS_9allocatorEED1Ev = weak_odr dso_local unnamed_addr alias void (ptr), ptr @_ZN5eastl6vectorIiNS_9allocatorEED2Ev
@_ZN5eastl6vectorI7Align64NS_9allocatorEEC1Ev = weak_odr dso_local unnamed_addr alias void (ptr), ptr @_ZN5eastl6vectorI7Align64NS_9allocatorEEC2Ev
@_ZN5eastl6vectorI7Align64NS_9allocatorEEC1ERKS2_ = weak_odr dso_local unnamed_addr alias void (ptr, ptr), ptr @_ZN5eastl6vectorI7Align64NS_9allocatorEEC2ERKS2_
@_ZN5eastl6vectorI7Align64NS_9allocatorEEC1EmRKS2_ = weak_odr dso_local unnamed_addr alias void (ptr, i64, ptr), ptr @_ZN5eastl6vectorI7Align64NS_9allocatorEEC2EmRKS2_
@_ZN5eastl6vectorI7Align64NS_9allocatorEEC1EmRKS1_RKS2_ = weak_odr dso_local unnamed_addr alias void (ptr, i64, ptr, ptr), ptr @_ZN5eastl6vectorI7Align64NS_9allocatorEEC2EmRKS1_RKS2_
@_ZN5eastl6vectorI7Align64NS_9allocatorEEC1ERKS3_ = weak_odr dso_local unnamed_addr alias void (ptr, ptr), ptr @_ZN5eastl6vectorI7Align64NS_9allocatorEEC2ERKS3_
@_ZN5eastl6vectorI7Align64NS_9allocatorEEC1ERKS3_RKS2_ = weak_odr dso_local unnamed_addr alias void (ptr, ptr, ptr), ptr @_ZN5eastl6vectorI7Align64NS_9allocatorEEC2ERKS3_RKS2_
@_ZN5eastl6vectorI7Align64NS_9allocatorEEC1EOS3_ = weak_odr dso_local unnamed_addr alias void (ptr, ptr), ptr @_ZN5eastl6vectorI7Align64NS_9allocatorEEC2EOS3_
@_ZN5eastl6vectorI7Align64NS_9allocatorEEC1EOS3_RKS2_ = weak_odr dso_local unnamed_addr alias void (ptr, ptr, ptr), ptr @_ZN5eastl6vectorI7Align64NS_9allocatorEEC2EOS3_RKS2_
@_ZN5eastl6vectorI7Align64NS_9allocatorEEC1ESt16initializer_listIS1_ERKS2_ = weak_odr dso_local unnamed_addr alias void (ptr, ptr, i64, ptr), ptr @_ZN5eastl6vectorI7Align64NS_9allocatorEEC2ESt16initializer_listIS1_ERKS2_
@_ZN5eastl6vectorI7Align64NS_9allocatorEED1Ev = weak_odr dso_local unnamed_addr alias void (ptr), ptr @_ZN5eastl6vectorI7Align64NS_9allocatorEED2Ev
@_ZN5eastl6vectorI10TestObjectNS_9allocatorEEC1Ev = weak_odr dso_local unnamed_addr alias void (ptr), ptr @_ZN5eastl6vectorI10TestObjectNS_9allocatorEEC2Ev
@_ZN5eastl6vectorI10TestObjectNS_9allocatorEEC1ERKS2_ = weak_odr dso_local unnamed_addr alias void (ptr, ptr), ptr @_ZN5eastl6vectorI10TestObjectNS_9allocatorEEC2ERKS2_
@_ZN5eastl6vectorI10TestObjectNS_9allocatorEEC1EmRKS2_ = weak_odr dso_local unnamed_addr alias void (ptr, i64, ptr), ptr @_ZN5eastl6vectorI10TestObjectNS_9allocatorEEC2EmRKS2_
@_ZN5eastl6vectorI10TestObjectNS_9allocatorEEC1EmRKS1_RKS2_ = weak_odr dso_local unnamed_addr alias void (ptr, i64, ptr, ptr), ptr @_ZN5eastl6vectorI10TestObjectNS_9allocatorEEC2EmRKS1_RKS2_
@_ZN5eastl6vectorI10TestObjectNS_9allocatorEEC1ERKS3_ = weak_odr dso_local unnamed_addr alias void (ptr, ptr), ptr @_ZN5eastl6vectorI10TestObjectNS_9allocatorEEC2ERKS3_
@_ZN5eastl6vectorI10TestObjectNS_9allocatorEEC1ERKS3_RKS2_ = weak_odr dso_local unnamed_addr alias void (ptr, ptr, ptr), ptr @_ZN5eastl6vectorI10TestObjectNS_9allocatorEEC2ERKS3_RKS2_
@_ZN5eastl6vectorI10TestObjectNS_9allocatorEEC1EOS3_ = weak_odr dso_local unnamed_addr alias void (ptr, ptr), ptr @_ZN5eastl6vectorI10TestObjectNS_9allocatorEEC2EOS3_
@_ZN5eastl6vectorI10TestObjectNS_9allocatorEEC1EOS3_RKS2_ = weak_odr dso_local unnamed_addr alias void (ptr, ptr, ptr), ptr @_ZN5eastl6vectorI10TestObjectNS_9allocatorEEC2EOS3_RKS2_
@_ZN5eastl6vectorI10TestObjectNS_9allocatorEEC1ESt16initializer_listIS1_ERKS2_ = weak_odr dso_local unnamed_addr alias void (ptr, ptr, i64, ptr), ptr @_ZN5eastl6vectorI10TestObjectNS_9allocatorEEC2ESt16initializer_listIS1_ERKS2_
@_ZN5eastl6vectorI10TestObjectNS_9allocatorEED1Ev = weak_odr dso_local unnamed_addr alias void (ptr), ptr @_ZN5eastl6vectorI10TestObjectNS_9allocatorEED2Ev
@_ZN5eastl6vectorI20HasAddressOfOperatorNS_9allocatorEEC1Ev = weak_odr dso_local unnamed_addr alias void (ptr), ptr @_ZN5eastl6vectorI20HasAddressOfOperatorNS_9allocatorEEC2Ev
@_ZN5eastl6vectorI20HasAddressOfOperatorNS_9allocatorEEC1ERKS2_ = weak_odr dso_local unnamed_addr alias void (ptr, ptr), ptr @_ZN5eastl6vectorI20HasAddressOfOperatorNS_9allocatorEEC2ERKS2_
@_ZN5eastl6vectorI20HasAddressOfOperatorNS_9allocatorEEC1EmRKS2_ = weak_odr dso_local unnamed_addr alias void (ptr, i64, ptr), ptr @_ZN5eastl6vectorI20HasAddressOfOperatorNS_9allocatorEEC2EmRKS2_
@_ZN5eastl6vectorI20HasAddressOfOperatorNS_9allocatorEEC1EmRKS1_RKS2_ = weak_odr dso_local unnamed_addr alias void (ptr, i64, ptr, ptr), ptr @_ZN5eastl6vectorI20HasAddressOfOperatorNS_9allocatorEEC2EmRKS1_RKS2_
@_ZN5eastl6vectorI20HasAddressOfOperatorNS_9allocatorEEC1ERKS3_ = weak_odr dso_local unnamed_addr alias void (ptr, ptr), ptr @_ZN5eastl6vectorI20HasAddressOfOperatorNS_9allocatorEEC2ERKS3_
@_ZN5eastl6vectorI20HasAddressOfOperatorNS_9allocatorEEC1ERKS3_RKS2_ = weak_odr dso_local unnamed_addr alias void (ptr, ptr, ptr), ptr @_ZN5eastl6vectorI20HasAddressOfOperatorNS_9allocatorEEC2ERKS3_RKS2_
@_ZN5eastl6vectorI20HasAddressOfOperatorNS_9allocatorEEC1EOS3_ = weak_odr dso_local unnamed_addr alias void (ptr, ptr), ptr @_ZN5eastl6vectorI20HasAddressOfOperatorNS_9allocatorEEC2EOS3_
@_ZN5eastl6vectorI20HasAddressOfOperatorNS_9allocatorEEC1EOS3_RKS2_ = weak_odr dso_local unnamed_addr alias void (ptr, ptr, ptr), ptr @_ZN5eastl6vectorI20HasAddressOfOperatorNS_9allocatorEEC2EOS3_RKS2_
@_ZN5eastl6vectorI20HasAddressOfOperatorNS_9allocatorEEC1ESt16initializer_listIS1_ERKS2_ = weak_odr dso_local unnamed_addr alias void (ptr, ptr, i64, ptr), ptr @_ZN5eastl6vectorI20HasAddressOfOperatorNS_9allocatorEEC2ESt16initializer_listIS1_ERKS2_
@_ZN5eastl6vectorI20HasAddressOfOperatorNS_9allocatorEED1Ev = weak_odr dso_local unnamed_addr alias void (ptr), ptr @_ZN5eastl6vectorI20HasAddressOfOperatorNS_9allocatorEED2Ev

; Function Attrs: mustprogress uwtable
define weak_odr dso_local void @_ZN5eastl6vectorIbNS_9allocatorEEC2Ev(ptr noundef nonnull align 8 dereferenceable(24) %this) unnamed_addr #0 comdat($_ZN5eastl6vectorIbNS_9allocatorEEC5Ev) align 2 {
entry:
  tail call void @llvm.memset.p0.i64(ptr noundef nonnull align 8 dereferenceable(24) %this, i8 0, i64 24, i1 false)
  ret void
}

; Function Attrs: mustprogress nounwind uwtable
define weak_odr dso_local void @_ZN5eastl6vectorIbNS_9allocatorEEC2ERKS1_(ptr noundef nonnull align 8 dereferenceable(24) %this, ptr noundef nonnull align 1 dereferenceable(1) %allocator) unnamed_addr #1 comdat($_ZN5eastl6vectorIbNS_9allocatorEEC5ERKS1_) align 2 personality ptr @__gxx_personality_v0 {
invoke.cont:
  tail call void @llvm.memset.p0.i64(ptr noundef nonnull align 8 dereferenceable(24) %this, i8 0, i64 24, i1 false)
  ret void
}

declare i32 @__gxx_personality_v0(...)

; Function Attrs: noreturn nounwind uwtable
define linkonce_odr hidden void @__clang_call_terminate(ptr noundef %0) local_unnamed_addr #2 comdat {
  %2 = tail call ptr @__cxa_begin_catch(ptr %0) #16
  tail call void @_ZSt9terminatev() #17
  unreachable
}

declare ptr @__cxa_begin_catch(ptr) local_unnamed_addr

declare void @_ZSt9terminatev() local_unnamed_addr

; Function Attrs: mustprogress uwtable
define weak_odr dso_local void @_ZN5eastl6vectorIbNS_9allocatorEEC2EmRKS1_(ptr noundef nonnull align 8 dereferenceable(24) %this, i64 noundef %n, ptr noundef nonnull align 1 dereferenceable(1) %allocator) unnamed_addr #0 comdat($_ZN5eastl6vectorIbNS_9allocatorEEC5EmRKS1_) align 2 personality ptr @__gxx_personality_v0 {
entry:
  %tobool.not.i.i = icmp eq i64 %n, 0
  br i1 %tobool.not.i.i, label %_ZN5eastl10VectorBaseIbNS_9allocatorEEC2EmRKS1_.exit.thread, label %for.body.preheader.i

_ZN5eastl10VectorBaseIbNS_9allocatorEEC2EmRKS1_.exit.thread: ; preds = %entry
  tail call void @llvm.memset.p0.i64(ptr noundef nonnull align 8 dereferenceable(24) %this, i8 0, i64 24, i1 false)
  br label %_ZN5eastl31uninitialized_value_construct_nIPbmEET_S2_T0_.exit

for.body.preheader.i:                             ; preds = %entry
  %call.i.i.i.i = tail call noundef ptr @_ZnamPKcijS0_i(i64 noundef %n, ptr noundef null, i32 noundef 0, i32 noundef 0, ptr noundef null, i32 noundef 0)
  store ptr %call.i.i.i.i, ptr %this, align 8
  %add.ptr.i = getelementptr inbounds i8, ptr %call.i.i.i.i, i64 %n
  %mCapacityAllocator.i.i = getelementptr inbounds %"struct.eastl::VectorBase", ptr %this, i64 0, i32 2
  store ptr %add.ptr.i, ptr %mCapacityAllocator.i.i, align 8
  tail call void @llvm.memset.p0.i64(ptr align 1 %call.i.i.i.i, i8 0, i64 %n, i1 false)
  %.pre = load ptr, ptr %this, align 8
  br label %_ZN5eastl31uninitialized_value_construct_nIPbmEET_S2_T0_.exit

_ZN5eastl31uninitialized_value_construct_nIPbmEET_S2_T0_.exit: ; preds = %_ZN5eastl10VectorBaseIbNS_9allocatorEEC2EmRKS1_.exit.thread, %for.body.preheader.i
  %0 = phi ptr [ null, %_ZN5eastl10VectorBaseIbNS_9allocatorEEC2EmRKS1_.exit.thread ], [ %.pre, %for.body.preheader.i ]
  %mpEnd.i7 = getelementptr inbounds %"struct.eastl::VectorBase", ptr %this, i64 0, i32 1
  %add.ptr = getelementptr inbounds i8, ptr %0, i64 %n
  store ptr %add.ptr, ptr %mpEnd.i7, align 8
  ret void
}

; Function Attrs: mustprogress uwtable
define weak_odr dso_local void @_ZN5eastl6vectorIbNS_9allocatorEEC2EmRKbRKS1_(ptr noundef nonnull align 8 dereferenceable(24) %this, i64 noundef %n, ptr noundef nonnull align 1 dereferenceable(1) %value, ptr noundef nonnull align 1 dereferenceable(1) %allocator) unnamed_addr #0 comdat($_ZN5eastl6vectorIbNS_9allocatorEEC5EmRKbRKS1_) align 2 personality ptr @__gxx_personality_v0 {
entry:
  %tobool.not.i.i = icmp eq i64 %n, 0
  br i1 %tobool.not.i.i, label %_ZN5eastl10VectorBaseIbNS_9allocatorEEC2EmRKS1_.exit.thread, label %for.body.preheader.i.i.i.i

_ZN5eastl10VectorBaseIbNS_9allocatorEEC2EmRKS1_.exit.thread: ; preds = %entry
  %mpEnd.i4 = getelementptr inbounds %"struct.eastl::VectorBase", ptr %this, i64 0, i32 1
  tail call void @llvm.memset.p0.i64(ptr noundef nonnull align 8 dereferenceable(24) %this, i8 0, i64 24, i1 false)
  br label %invoke.cont

for.body.preheader.i.i.i.i:                       ; preds = %entry
  %call.i.i.i.i = tail call noundef ptr @_ZnamPKcijS0_i(i64 noundef %n, ptr noundef null, i32 noundef 0, i32 noundef 0, ptr noundef null, i32 noundef 0)
  store ptr %call.i.i.i.i, ptr %this, align 8
  %mpEnd.i = getelementptr inbounds %"struct.eastl::VectorBase", ptr %this, i64 0, i32 1
  store ptr %call.i.i.i.i, ptr %mpEnd.i, align 8
  %add.ptr.i = getelementptr inbounds i8, ptr %call.i.i.i.i, i64 %n
  %mCapacityAllocator.i.i = getelementptr inbounds %"struct.eastl::VectorBase", ptr %this, i64 0, i32 2
  store ptr %add.ptr.i, ptr %mCapacityAllocator.i.i, align 8
  %0 = load i8, ptr %value, align 1
  %1 = and i8 %0, 1
  tail call void @llvm.memset.p0.i64(ptr align 1 %call.i.i.i.i, i8 %1, i64 %n, i1 false)
  %.pre = load ptr, ptr %this, align 8
  br label %invoke.cont

invoke.cont:                                      ; preds = %for.body.preheader.i.i.i.i, %_ZN5eastl10VectorBaseIbNS_9allocatorEEC2EmRKS1_.exit.thread
  %2 = phi ptr [ null, %_ZN5eastl10VectorBaseIbNS_9allocatorEEC2EmRKS1_.exit.thread ], [ %.pre, %for.body.preheader.i.i.i.i ]
  %mpEnd.i7 = phi ptr [ %mpEnd.i4, %_ZN5eastl10VectorBaseIbNS_9allocatorEEC2EmRKS1_.exit.thread ], [ %mpEnd.i, %for.body.preheader.i.i.i.i ]
  %add.ptr = getelementptr inbounds i8, ptr %2, i64 %n
  store ptr %add.ptr, ptr %mpEnd.i7, align 8
  ret void
}

; Function Attrs: mustprogress uwtable
define weak_odr dso_local void @_ZN5eastl6vectorIbNS_9allocatorEEC2ERKS2_(ptr noundef nonnull align 8 dereferenceable(24) %this, ptr noundef nonnull align 8 dereferenceable(24) %x) unnamed_addr #0 comdat($_ZN5eastl6vectorIbNS_9allocatorEEC5ERKS2_) align 2 personality ptr @__gxx_personality_v0 {
entry:
  %mpEnd.i = getelementptr inbounds %"struct.eastl::VectorBase", ptr %x, i64 0, i32 1
  %0 = load ptr, ptr %mpEnd.i, align 8
  %1 = load ptr, ptr %x, align 8
  %sub.ptr.lhs.cast.i = ptrtoint ptr %0 to i64
  %sub.ptr.rhs.cast.i = ptrtoint ptr %1 to i64
  %sub.ptr.sub.i = sub i64 %sub.ptr.lhs.cast.i, %sub.ptr.rhs.cast.i
  %tobool.not.i.i = icmp eq ptr %0, %1
  br i1 %tobool.not.i.i, label %_ZN5eastl10VectorBaseIbNS_9allocatorEEC2EmRKS1_.exit, label %if.then.i.i

if.then.i.i:                                      ; preds = %entry
  %call.i.i.i.i = tail call noundef ptr @_ZnamPKcijS0_i(i64 noundef %sub.ptr.sub.i, ptr noundef null, i32 noundef 0, i32 noundef 0, ptr noundef null, i32 noundef 0)
  br label %_ZN5eastl10VectorBaseIbNS_9allocatorEEC2EmRKS1_.exit

_ZN5eastl10VectorBaseIbNS_9allocatorEEC2EmRKS1_.exit: ; preds = %entry, %if.then.i.i
  %retval.0.i.i = phi ptr [ %call.i.i.i.i, %if.then.i.i ], [ null, %entry ]
  store ptr %retval.0.i.i, ptr %this, align 8
  %mpEnd.i4 = getelementptr inbounds %"struct.eastl::VectorBase", ptr %this, i64 0, i32 1
  store ptr %retval.0.i.i, ptr %mpEnd.i4, align 8
  %add.ptr.i = getelementptr inbounds i8, ptr %retval.0.i.i, i64 %sub.ptr.sub.i
  %mCapacityAllocator.i.i = getelementptr inbounds %"struct.eastl::VectorBase", ptr %this, i64 0, i32 2
  store ptr %add.ptr.i, ptr %mCapacityAllocator.i.i, align 8
  %2 = load ptr, ptr %x, align 8
  %3 = load ptr, ptr %mpEnd.i, align 8
  %cmp.i.i.i = icmp eq ptr %2, %3
  br i1 %cmp.i.i.i, label %invoke.cont, label %if.end.i.i.i

if.end.i.i.i:                                     ; preds = %_ZN5eastl10VectorBaseIbNS_9allocatorEEC2EmRKS1_.exit
  %sub.ptr.lhs.cast.i.i.i = ptrtoint ptr %3 to i64
  %sub.ptr.rhs.cast.i.i.i = ptrtoint ptr %2 to i64
  %sub.ptr.sub.i.i.i = sub i64 %sub.ptr.lhs.cast.i.i.i, %sub.ptr.rhs.cast.i.i.i
  tail call void @llvm.memmove.p0.p0.i64(ptr align 1 %retval.0.i.i, ptr align 1 %2, i64 %sub.ptr.sub.i.i.i, i1 false)
  %add.ptr.i.i.i = getelementptr inbounds i8, ptr %retval.0.i.i, i64 %sub.ptr.sub.i.i.i
  br label %invoke.cont

invoke.cont:                                      ; preds = %if.end.i.i.i, %_ZN5eastl10VectorBaseIbNS_9allocatorEEC2EmRKS1_.exit
  %retval.0.i.i.i = phi ptr [ %add.ptr.i.i.i, %if.end.i.i.i ], [ %retval.0.i.i, %_ZN5eastl10VectorBaseIbNS_9allocatorEEC2EmRKS1_.exit ]
  store ptr %retval.0.i.i.i, ptr %mpEnd.i4, align 8
  ret void
}

; Function Attrs: mustprogress nounwind uwtable
define weak_odr dso_local noundef i64 @_ZNK5eastl6vectorIbNS_9allocatorEE4sizeEv(ptr noundef nonnull align 8 dereferenceable(24) %this) local_unnamed_addr #1 comdat align 2 {
entry:
  %mpEnd = getelementptr inbounds %"struct.eastl::VectorBase", ptr %this, i64 0, i32 1
  %0 = load ptr, ptr %mpEnd, align 8
  %1 = load ptr, ptr %this, align 8
  %sub.ptr.lhs.cast = ptrtoint ptr %0 to i64
  %sub.ptr.rhs.cast = ptrtoint ptr %1 to i64
  %sub.ptr.sub = sub i64 %sub.ptr.lhs.cast, %sub.ptr.rhs.cast
  ret i64 %sub.ptr.sub
}

; Function Attrs: mustprogress uwtable
define weak_odr dso_local void @_ZN5eastl6vectorIbNS_9allocatorEEC2ERKS2_RKS1_(ptr noundef nonnull align 8 dereferenceable(24) %this, ptr noundef nonnull align 8 dereferenceable(24) %x, ptr noundef nonnull align 1 dereferenceable(1) %allocator) unnamed_addr #0 comdat($_ZN5eastl6vectorIbNS_9allocatorEEC5ERKS2_RKS1_) align 2 personality ptr @__gxx_personality_v0 {
entry:
  %mpEnd.i = getelementptr inbounds %"struct.eastl::VectorBase", ptr %x, i64 0, i32 1
  %0 = load ptr, ptr %mpEnd.i, align 8
  %1 = load ptr, ptr %x, align 8
  %sub.ptr.lhs.cast.i = ptrtoint ptr %0 to i64
  %sub.ptr.rhs.cast.i = ptrtoint ptr %1 to i64
  %sub.ptr.sub.i = sub i64 %sub.ptr.lhs.cast.i, %sub.ptr.rhs.cast.i
  %tobool.not.i.i = icmp eq ptr %0, %1
  br i1 %tobool.not.i.i, label %_ZN5eastl10VectorBaseIbNS_9allocatorEEC2EmRKS1_.exit, label %if.then.i.i

if.then.i.i:                                      ; preds = %entry
  %call.i.i.i.i = tail call noundef ptr @_ZnamPKcijS0_i(i64 noundef %sub.ptr.sub.i, ptr noundef null, i32 noundef 0, i32 noundef 0, ptr noundef null, i32 noundef 0)
  br label %_ZN5eastl10VectorBaseIbNS_9allocatorEEC2EmRKS1_.exit

_ZN5eastl10VectorBaseIbNS_9allocatorEEC2EmRKS1_.exit: ; preds = %entry, %if.then.i.i
  %retval.0.i.i = phi ptr [ %call.i.i.i.i, %if.then.i.i ], [ null, %entry ]
  store ptr %retval.0.i.i, ptr %this, align 8
  %mpEnd.i3 = getelementptr inbounds %"struct.eastl::VectorBase", ptr %this, i64 0, i32 1
  store ptr %retval.0.i.i, ptr %mpEnd.i3, align 8
  %add.ptr.i = getelementptr inbounds i8, ptr %retval.0.i.i, i64 %sub.ptr.sub.i
  %mCapacityAllocator.i.i = getelementptr inbounds %"struct.eastl::VectorBase", ptr %this, i64 0, i32 2
  store ptr %add.ptr.i, ptr %mCapacityAllocator.i.i, align 8
  %2 = load ptr, ptr %x, align 8
  %3 = load ptr, ptr %mpEnd.i, align 8
  %cmp.i.i.i = icmp eq ptr %2, %3
  br i1 %cmp.i.i.i, label %invoke.cont, label %if.end.i.i.i

if.end.i.i.i:                                     ; preds = %_ZN5eastl10VectorBaseIbNS_9allocatorEEC2EmRKS1_.exit
  %sub.ptr.lhs.cast.i.i.i = ptrtoint ptr %3 to i64
  %sub.ptr.rhs.cast.i.i.i = ptrtoint ptr %2 to i64
  %sub.ptr.sub.i.i.i = sub i64 %sub.ptr.lhs.cast.i.i.i, %sub.ptr.rhs.cast.i.i.i
  tail call void @llvm.memmove.p0.p0.i64(ptr align 1 %retval.0.i.i, ptr align 1 %2, i64 %sub.ptr.sub.i.i.i, i1 false)
  %add.ptr.i.i.i = getelementptr inbounds i8, ptr %retval.0.i.i, i64 %sub.ptr.sub.i.i.i
  br label %invoke.cont

invoke.cont:                                      ; preds = %if.end.i.i.i, %_ZN5eastl10VectorBaseIbNS_9allocatorEEC2EmRKS1_.exit
  %retval.0.i.i.i = phi ptr [ %add.ptr.i.i.i, %if.end.i.i.i ], [ %retval.0.i.i, %_ZN5eastl10VectorBaseIbNS_9allocatorEEC2EmRKS1_.exit ]
  store ptr %retval.0.i.i.i, ptr %mpEnd.i3, align 8
  ret void
}

; Function Attrs: mustprogress nounwind uwtable
define weak_odr dso_local void @_ZN5eastl6vectorIbNS_9allocatorEEC2EOS2_(ptr noundef nonnull align 8 dereferenceable(24) %this, ptr noundef nonnull align 8 dereferenceable(24) %x) unnamed_addr #1 comdat($_ZN5eastl6vectorIbNS_9allocatorEEC5EOS2_) align 2 personality ptr @__gxx_personality_v0 {
invoke.cont3:
  tail call void @llvm.memset.p0.i64(ptr noundef nonnull align 8 dereferenceable(24) %this, i8 0, i64 24, i1 false)
  %0 = load ptr, ptr %x, align 8
  store ptr %0, ptr %this, align 8
  store ptr null, ptr %x, align 8
  %mpEnd.i = getelementptr inbounds %"struct.eastl::VectorBase", ptr %this, i64 0, i32 1
  %mpEnd3.i = getelementptr inbounds %"struct.eastl::VectorBase", ptr %x, i64 0, i32 1
  %1 = load ptr, ptr %mpEnd.i, align 8
  %2 = load ptr, ptr %mpEnd3.i, align 8
  store ptr %2, ptr %mpEnd.i, align 8
  store ptr %1, ptr %mpEnd3.i, align 8
  %mCapacityAllocator.i2 = getelementptr inbounds %"struct.eastl::VectorBase", ptr %this, i64 0, i32 2
  %mCapacityAllocator4.i = getelementptr inbounds %"struct.eastl::VectorBase", ptr %x, i64 0, i32 2
  %3 = load ptr, ptr %mCapacityAllocator.i2, align 8
  %4 = load ptr, ptr %mCapacityAllocator4.i, align 8
  store ptr %4, ptr %mCapacityAllocator.i2, align 8
  store ptr %3, ptr %mCapacityAllocator4.i, align 8
  ret void
}

; Function Attrs: mustprogress uwtable
define weak_odr dso_local void @_ZN5eastl6vectorIbNS_9allocatorEE6DoSwapERS2_(ptr noundef nonnull align 8 dereferenceable(24) %this, ptr noundef nonnull align 8 dereferenceable(24) %x) local_unnamed_addr #0 comdat align 2 {
entry:
  %0 = load ptr, ptr %this, align 8
  %1 = load ptr, ptr %x, align 8
  store ptr %1, ptr %this, align 8
  store ptr %0, ptr %x, align 8
  %mpEnd = getelementptr inbounds %"struct.eastl::VectorBase", ptr %this, i64 0, i32 1
  %mpEnd3 = getelementptr inbounds %"struct.eastl::VectorBase", ptr %x, i64 0, i32 1
  %2 = load ptr, ptr %mpEnd, align 8
  %3 = load ptr, ptr %mpEnd3, align 8
  store ptr %3, ptr %mpEnd, align 8
  store ptr %2, ptr %mpEnd3, align 8
  %mCapacityAllocator = getelementptr inbounds %"struct.eastl::VectorBase", ptr %this, i64 0, i32 2
  %mCapacityAllocator4 = getelementptr inbounds %"struct.eastl::VectorBase", ptr %x, i64 0, i32 2
  %4 = load ptr, ptr %mCapacityAllocator, align 8
  %5 = load ptr, ptr %mCapacityAllocator4, align 8
  store ptr %5, ptr %mCapacityAllocator, align 8
  store ptr %4, ptr %mCapacityAllocator4, align 8
  ret void
}

; Function Attrs: mustprogress uwtable
define weak_odr dso_local void @_ZN5eastl6vectorIbNS_9allocatorEEC2EOS2_RKS1_(ptr noundef nonnull align 8 dereferenceable(24) %this, ptr noundef nonnull align 8 dereferenceable(24) %x, ptr noundef nonnull align 1 dereferenceable(1) %allocator) unnamed_addr #0 comdat($_ZN5eastl6vectorIbNS_9allocatorEEC5EOS2_RKS1_) align 2 personality ptr @__gxx_personality_v0 {
if.end:
  tail call void @llvm.memset.p0.i64(ptr noundef nonnull align 8 dereferenceable(24) %this, i8 0, i64 24, i1 false)
  %0 = load ptr, ptr %x, align 8
  store ptr %0, ptr %this, align 8
  store ptr null, ptr %x, align 8
  %mpEnd.i = getelementptr inbounds %"struct.eastl::VectorBase", ptr %this, i64 0, i32 1
  %mpEnd3.i = getelementptr inbounds %"struct.eastl::VectorBase", ptr %x, i64 0, i32 1
  %1 = load ptr, ptr %mpEnd.i, align 8
  %2 = load ptr, ptr %mpEnd3.i, align 8
  store ptr %2, ptr %mpEnd.i, align 8
  store ptr %1, ptr %mpEnd3.i, align 8
  %mCapacityAllocator.i5 = getelementptr inbounds %"struct.eastl::VectorBase", ptr %this, i64 0, i32 2
  %mCapacityAllocator4.i = getelementptr inbounds %"struct.eastl::VectorBase", ptr %x, i64 0, i32 2
  %3 = load ptr, ptr %mCapacityAllocator.i5, align 8
  %4 = load ptr, ptr %mCapacityAllocator4.i, align 8
  store ptr %4, ptr %mCapacityAllocator.i5, align 8
  store ptr %3, ptr %mCapacityAllocator4.i, align 8
  ret void
}

; Function Attrs: mustprogress uwtable
define weak_odr dso_local void @_ZN5eastl6vectorIbNS_9allocatorEE4swapERS2_(ptr noundef nonnull align 8 dereferenceable(24) %this, ptr noundef nonnull align 8 dereferenceable(24) %x) local_unnamed_addr #0 comdat align 2 {
entry:
  %0 = load ptr, ptr %this, align 8
  %1 = load ptr, ptr %x, align 8
  store ptr %1, ptr %this, align 8
  store ptr %0, ptr %x, align 8
  %mpEnd.i = getelementptr inbounds %"struct.eastl::VectorBase", ptr %this, i64 0, i32 1
  %mpEnd3.i = getelementptr inbounds %"struct.eastl::VectorBase", ptr %x, i64 0, i32 1
  %2 = load ptr, ptr %mpEnd.i, align 8
  %3 = load ptr, ptr %mpEnd3.i, align 8
  store ptr %3, ptr %mpEnd.i, align 8
  store ptr %2, ptr %mpEnd3.i, align 8
  %mCapacityAllocator.i = getelementptr inbounds %"struct.eastl::VectorBase", ptr %this, i64 0, i32 2
  %mCapacityAllocator4.i = getelementptr inbounds %"struct.eastl::VectorBase", ptr %x, i64 0, i32 2
  %4 = load ptr, ptr %mCapacityAllocator.i, align 8
  %5 = load ptr, ptr %mCapacityAllocator4.i, align 8
  store ptr %5, ptr %mCapacityAllocator.i, align 8
  store ptr %4, ptr %mCapacityAllocator4.i, align 8
  ret void
}

; Function Attrs: mustprogress uwtable
define weak_odr dso_local void @_ZN5eastl6vectorIbNS_9allocatorEEC2ESt16initializer_listIbERKS1_(ptr noundef nonnull align 8 dereferenceable(24) %this, ptr %ilist.coerce0, i64 %ilist.coerce1, ptr noundef nonnull align 1 dereferenceable(1) %allocator) unnamed_addr #0 comdat($_ZN5eastl6vectorIbNS_9allocatorEEC5ESt16initializer_listIbERKS1_) align 2 personality ptr @__gxx_personality_v0 {
entry:
  tail call void @llvm.memset.p0.i64(ptr noundef nonnull align 8 dereferenceable(24) %this, i8 0, i64 24, i1 false)
  %tobool.not.i.i.i = icmp eq i64 %ilist.coerce1, 0
  br i1 %tobool.not.i.i.i, label %_ZN5eastl10VectorBaseIbNS_9allocatorEE10DoAllocateEm.exit.thread.i.i, label %if.end.i.i.i.i.i

_ZN5eastl10VectorBaseIbNS_9allocatorEE10DoAllocateEm.exit.thread.i.i: ; preds = %entry
  tail call void @llvm.memset.p0.i64(ptr noundef nonnull align 8 dereferenceable(24) %this, i8 0, i64 24, i1 false)
  br label %invoke.cont

if.end.i.i.i.i.i:                                 ; preds = %entry
  %call.i.i.i.i.i1 = invoke noundef ptr @_ZnamPKcijS0_i(i64 noundef %ilist.coerce1, ptr noundef null, i32 noundef 0, i32 noundef 0, ptr noundef null, i32 noundef 0)
          to label %call.i.i.i.i.i.noexc unwind label %lpad

call.i.i.i.i.i.noexc:                             ; preds = %if.end.i.i.i.i.i
  store ptr %call.i.i.i.i.i1, ptr %this, align 8
  %add.ptr.i.i = getelementptr inbounds i8, ptr %call.i.i.i.i.i1, i64 %ilist.coerce1
  %mCapacityAllocator.i.i.i = getelementptr inbounds %"struct.eastl::VectorBase", ptr %this, i64 0, i32 2
  store ptr %add.ptr.i.i, ptr %mCapacityAllocator.i.i.i, align 8
  %mpEnd.i.i = getelementptr inbounds %"struct.eastl::VectorBase", ptr %this, i64 0, i32 1
  store ptr %add.ptr.i.i, ptr %mpEnd.i.i, align 8
  tail call void @llvm.memmove.p0.p0.i64(ptr align 1 %call.i.i.i.i.i1, ptr align 1 %ilist.coerce0, i64 %ilist.coerce1, i1 false)
  br label %invoke.cont

invoke.cont:                                      ; preds = %call.i.i.i.i.i.noexc, %_ZN5eastl10VectorBaseIbNS_9allocatorEE10DoAllocateEm.exit.thread.i.i
  ret void

lpad:                                             ; preds = %if.end.i.i.i.i.i
  %0 = landingpad { ptr, i32 }
          cleanup
  %1 = load ptr, ptr %this, align 8
  %tobool.not.i = icmp eq ptr %1, null
  br i1 %tobool.not.i, label %_ZN5eastl10VectorBaseIbNS_9allocatorEED2Ev.exit, label %_ZN5eastl9allocator10deallocateEPvm.exit.i

_ZN5eastl9allocator10deallocateEPvm.exit.i:       ; preds = %lpad
  tail call void @_ZdaPv(ptr noundef nonnull %1) #18
  br label %_ZN5eastl10VectorBaseIbNS_9allocatorEED2Ev.exit

_ZN5eastl10VectorBaseIbNS_9allocatorEED2Ev.exit:  ; preds = %lpad, %_ZN5eastl9allocator10deallocateEPvm.exit.i
  resume { ptr, i32 } %0
}

; Function Attrs: mustprogress nounwind uwtable
define weak_odr dso_local void @_ZN5eastl6vectorIbNS_9allocatorEED2Ev(ptr noundef nonnull align 8 dereferenceable(24) %this) unnamed_addr #1 comdat($_ZN5eastl6vectorIbNS_9allocatorEED5Ev) align 2 personality ptr @__gxx_personality_v0 {
invoke.cont:
  %0 = load ptr, ptr %this, align 8
  %tobool.not.i = icmp eq ptr %0, null
  br i1 %tobool.not.i, label %_ZN5eastl10VectorBaseIbNS_9allocatorEED2Ev.exit, label %_ZN5eastl9allocator10deallocateEPvm.exit.i

_ZN5eastl9allocator10deallocateEPvm.exit.i:       ; preds = %invoke.cont
  tail call void @_ZdaPv(ptr noundef nonnull %0) #18
  br label %_ZN5eastl10VectorBaseIbNS_9allocatorEED2Ev.exit

_ZN5eastl10VectorBaseIbNS_9allocatorEED2Ev.exit:  ; preds = %invoke.cont, %_ZN5eastl9allocator10deallocateEPvm.exit.i
  ret void
}

; Function Attrs: mustprogress uwtable
define weak_odr dso_local noundef nonnull align 8 dereferenceable(24) ptr @_ZN5eastl6vectorIbNS_9allocatorEEaSERKS2_(ptr noundef nonnull align 8 dereferenceable(24) %this, ptr noundef nonnull align 8 dereferenceable(24) %x) local_unnamed_addr #0 comdat align 2 personality ptr @__gxx_personality_v0 {
entry:
  %cmp.not = icmp eq ptr %this, %x
  br i1 %cmp.not, label %if.end4, label %if.end

if.end:                                           ; preds = %entry
  %0 = load ptr, ptr %x, align 8
  %mpEnd.i = getelementptr inbounds %"struct.eastl::VectorBase", ptr %x, i64 0, i32 1
  %1 = load ptr, ptr %mpEnd.i, align 8
  %sub.ptr.lhs.cast.i.i.i.i = ptrtoint ptr %1 to i64
  %sub.ptr.rhs.cast.i.i.i.i = ptrtoint ptr %0 to i64
  %sub.ptr.sub.i.i.i.i = sub i64 %sub.ptr.lhs.cast.i.i.i.i, %sub.ptr.rhs.cast.i.i.i.i
  %mCapacityAllocator.i.i.i = getelementptr inbounds %"struct.eastl::VectorBase", ptr %this, i64 0, i32 2
  %2 = load ptr, ptr %mCapacityAllocator.i.i.i, align 8
  %3 = load ptr, ptr %this, align 8
  %sub.ptr.lhs.cast.i.i = ptrtoint ptr %2 to i64
  %sub.ptr.rhs.cast.i.i = ptrtoint ptr %3 to i64
  %sub.ptr.sub.i.i = sub i64 %sub.ptr.lhs.cast.i.i, %sub.ptr.rhs.cast.i.i
  %cmp.i.i = icmp ugt i64 %sub.ptr.sub.i.i.i.i, %sub.ptr.sub.i.i
  br i1 %cmp.i.i, label %_ZN5eastl10VectorBaseIbNS_9allocatorEE10DoAllocateEm.exit.i.i.i, label %if.else.i.i

_ZN5eastl10VectorBaseIbNS_9allocatorEE10DoAllocateEm.exit.i.i.i: ; preds = %if.end
  %call.i.i.i.i.i.i = tail call noundef ptr @_ZnamPKcijS0_i(i64 noundef %sub.ptr.sub.i.i.i.i, ptr noundef null, i32 noundef 0, i32 noundef 0, ptr noundef null, i32 noundef 0)
  %cmp.i.i.i.i.i.i = icmp eq ptr %0, %1
  br i1 %cmp.i.i.i.i.i.i, label %_ZN5eastl6vectorIbNS_9allocatorEE9DoReallocIPKbEEPbmT_S7_NS2_23should_move_or_copy_tagILb0EEE.exit.i.i, label %if.end.i.i.i.i.i.i

if.end.i.i.i.i.i.i:                               ; preds = %_ZN5eastl10VectorBaseIbNS_9allocatorEE10DoAllocateEm.exit.i.i.i
  tail call void @llvm.memmove.p0.p0.i64(ptr align 1 %call.i.i.i.i.i.i, ptr align 1 %0, i64 %sub.ptr.sub.i.i.i.i, i1 false)
  br label %_ZN5eastl6vectorIbNS_9allocatorEE9DoReallocIPKbEEPbmT_S7_NS2_23should_move_or_copy_tagILb0EEE.exit.i.i

_ZN5eastl6vectorIbNS_9allocatorEE9DoReallocIPKbEEPbmT_S7_NS2_23should_move_or_copy_tagILb0EEE.exit.i.i: ; preds = %if.end.i.i.i.i.i.i, %_ZN5eastl10VectorBaseIbNS_9allocatorEE10DoAllocateEm.exit.i.i.i
  %mpEnd.i.i = getelementptr inbounds %"struct.eastl::VectorBase", ptr %this, i64 0, i32 1
  %4 = load ptr, ptr %this, align 8
  %tobool.not.i.i.i = icmp eq ptr %4, null
  br i1 %tobool.not.i.i.i, label %_ZN5eastl10VectorBaseIbNS_9allocatorEE6DoFreeEPbm.exit.i.i, label %_ZN5eastl9allocator10deallocateEPvm.exit.i.i.i

_ZN5eastl9allocator10deallocateEPvm.exit.i.i.i:   ; preds = %_ZN5eastl6vectorIbNS_9allocatorEE9DoReallocIPKbEEPbmT_S7_NS2_23should_move_or_copy_tagILb0EEE.exit.i.i
  tail call void @_ZdaPv(ptr noundef nonnull %4) #18
  br label %_ZN5eastl10VectorBaseIbNS_9allocatorEE6DoFreeEPbm.exit.i.i

_ZN5eastl10VectorBaseIbNS_9allocatorEE6DoFreeEPbm.exit.i.i: ; preds = %_ZN5eastl9allocator10deallocateEPvm.exit.i.i.i, %_ZN5eastl6vectorIbNS_9allocatorEE9DoReallocIPKbEEPbmT_S7_NS2_23should_move_or_copy_tagILb0EEE.exit.i.i
  store ptr %call.i.i.i.i.i.i, ptr %this, align 8
  %add.ptr.i.i = getelementptr inbounds i8, ptr %call.i.i.i.i.i.i, i64 %sub.ptr.sub.i.i.i.i
  store ptr %add.ptr.i.i, ptr %mpEnd.i.i, align 8
  store ptr %add.ptr.i.i, ptr %mCapacityAllocator.i.i.i, align 8
  br label %if.end4

if.else.i.i:                                      ; preds = %if.end
  %mpEnd16.i.i = getelementptr inbounds %"struct.eastl::VectorBase", ptr %this, i64 0, i32 1
  %5 = load ptr, ptr %mpEnd16.i.i, align 8
  %sub.ptr.lhs.cast18.i.i = ptrtoint ptr %5 to i64
  %sub.ptr.sub20.i.i = sub i64 %sub.ptr.lhs.cast18.i.i, %sub.ptr.rhs.cast.i.i
  %cmp21.not.i.i = icmp ugt i64 %sub.ptr.sub.i.i.i.i, %sub.ptr.sub20.i.i
  br i1 %cmp21.not.i.i, label %if.else27.i.i, label %if.then22.i.i

if.then22.i.i:                                    ; preds = %if.else.i.i
  %cmp.i.i.i.i15.i.i = icmp eq ptr %0, %1
  br i1 %cmp.i.i.i.i15.i.i, label %_ZN5eastl4copyIPKbPbEET0_T_S5_S4_.exit.i.i, label %if.end.i.i.i.i16.i.i

if.end.i.i.i.i16.i.i:                             ; preds = %if.then22.i.i
  tail call void @llvm.memmove.p0.p0.i64(ptr align 1 %3, ptr align 1 %0, i64 %sub.ptr.sub.i.i.i.i, i1 false)
  %add.ptr.i.i.i.i.i.i = getelementptr inbounds i8, ptr %3, i64 %sub.ptr.sub.i.i.i.i
  br label %_ZN5eastl4copyIPKbPbEET0_T_S5_S4_.exit.i.i

_ZN5eastl4copyIPKbPbEET0_T_S5_S4_.exit.i.i:       ; preds = %if.end.i.i.i.i16.i.i, %if.then22.i.i
  %retval.0.i.i.i.i.i.i = phi ptr [ %add.ptr.i.i.i.i.i.i, %if.end.i.i.i.i16.i.i ], [ %3, %if.then22.i.i ]
  store ptr %retval.0.i.i.i.i.i.i, ptr %mpEnd16.i.i, align 8
  br label %if.end4

if.else27.i.i:                                    ; preds = %if.else.i.i
  %add.ptr33.i.i = getelementptr inbounds i8, ptr %0, i64 %sub.ptr.sub20.i.i
  %cmp.i.i.i.i17.i.i = icmp eq ptr %5, %3
  br i1 %cmp.i.i.i.i17.i.i, label %_ZN5eastl4copyIPKbPbEET0_T_S5_S4_.exit22.i.i, label %if.end.i.i.i.i18.i.i

if.end.i.i.i.i18.i.i:                             ; preds = %if.else27.i.i
  tail call void @llvm.memmove.p0.p0.i64(ptr align 1 %3, ptr align 1 %0, i64 %sub.ptr.sub20.i.i, i1 false)
  %.pre.i.i = load ptr, ptr %mpEnd16.i.i, align 8
  br label %_ZN5eastl4copyIPKbPbEET0_T_S5_S4_.exit22.i.i

_ZN5eastl4copyIPKbPbEET0_T_S5_S4_.exit22.i.i:     ; preds = %if.end.i.i.i.i18.i.i, %if.else27.i.i
  %6 = phi ptr [ %3, %if.else27.i.i ], [ %.pre.i.i, %if.end.i.i.i.i18.i.i ]
  %cmp.i.i.i.i.i = icmp eq ptr %add.ptr33.i.i, %1
  br i1 %cmp.i.i.i.i.i, label %_ZN5eastl22uninitialized_copy_ptrIPKbS2_PbEET1_T_T0_S4_.exit.i.i, label %if.end.i.i.i.i.i

if.end.i.i.i.i.i:                                 ; preds = %_ZN5eastl4copyIPKbPbEET0_T_S5_S4_.exit22.i.i
  %sub.ptr.rhs.cast.i.i.i.i.i = ptrtoint ptr %add.ptr33.i.i to i64
  %sub.ptr.sub.i.i.i.i.i = sub i64 %sub.ptr.lhs.cast.i.i.i.i, %sub.ptr.rhs.cast.i.i.i.i.i
  tail call void @llvm.memmove.p0.p0.i64(ptr align 1 %6, ptr align 1 %add.ptr33.i.i, i64 %sub.ptr.sub.i.i.i.i.i, i1 false)
  %add.ptr.i.i.i.i.i = getelementptr inbounds i8, ptr %6, i64 %sub.ptr.sub.i.i.i.i.i
  br label %_ZN5eastl22uninitialized_copy_ptrIPKbS2_PbEET1_T_T0_S4_.exit.i.i

_ZN5eastl22uninitialized_copy_ptrIPKbS2_PbEET1_T_T0_S4_.exit.i.i: ; preds = %if.end.i.i.i.i.i, %_ZN5eastl4copyIPKbPbEET0_T_S5_S4_.exit22.i.i
  %retval.0.i.i.i.i.i = phi ptr [ %add.ptr.i.i.i.i.i, %if.end.i.i.i.i.i ], [ %6, %_ZN5eastl4copyIPKbPbEET0_T_S5_S4_.exit22.i.i ]
  store ptr %retval.0.i.i.i.i.i, ptr %mpEnd16.i.i, align 8
  br label %if.end4

if.end4:                                          ; preds = %_ZN5eastl22uninitialized_copy_ptrIPKbS2_PbEET1_T_T0_S4_.exit.i.i, %_ZN5eastl4copyIPKbPbEET0_T_S5_S4_.exit.i.i, %_ZN5eastl10VectorBaseIbNS_9allocatorEE6DoFreeEPbm.exit.i.i, %entry
  ret ptr %this
}

; Function Attrs: mustprogress uwtable
define weak_odr dso_local void @_ZN5eastl6vectorIbNS_9allocatorEE15DoClearCapacityEv(ptr noundef nonnull align 8 dereferenceable(24) %this) local_unnamed_addr #0 comdat align 2 personality ptr @__gxx_personality_v0 {
_ZN5eastl6vectorIbNS_9allocatorEED2Ev.exit:
  %mpEnd.i = getelementptr inbounds %"struct.eastl::VectorBase", ptr %this, i64 0, i32 1
  %0 = load ptr, ptr %this, align 8
  store ptr %0, ptr %mpEnd.i, align 8
  ret void
}

; Function Attrs: mustprogress nounwind uwtable
define weak_odr dso_local noundef ptr @_ZNK5eastl6vectorIbNS_9allocatorEE5beginEv(ptr noundef nonnull align 8 dereferenceable(24) %this) local_unnamed_addr #1 comdat align 2 {
entry:
  %0 = load ptr, ptr %this, align 8
  ret ptr %0
}

; Function Attrs: mustprogress nounwind uwtable
define weak_odr dso_local noundef ptr @_ZNK5eastl6vectorIbNS_9allocatorEE3endEv(ptr noundef nonnull align 8 dereferenceable(24) %this) local_unnamed_addr #1 comdat align 2 {
entry:
  %mpEnd = getelementptr inbounds %"struct.eastl::VectorBase", ptr %this, i64 0, i32 1
  %0 = load ptr, ptr %mpEnd, align 8
  ret ptr %0
}

; Function Attrs: mustprogress uwtable
define weak_odr dso_local noundef nonnull align 8 dereferenceable(24) ptr @_ZN5eastl6vectorIbNS_9allocatorEEaSESt16initializer_listIbE(ptr noundef nonnull align 8 dereferenceable(24) %this, ptr %ilist.coerce0, i64 %ilist.coerce1) local_unnamed_addr #0 comdat align 2 personality ptr @__gxx_personality_v0 {
entry:
  %add.ptr.i = getelementptr inbounds i8, ptr %ilist.coerce0, i64 %ilist.coerce1
  %sub.ptr.lhs.cast.i.i.i = ptrtoint ptr %add.ptr.i to i64
  %mCapacityAllocator.i.i = getelementptr inbounds %"struct.eastl::VectorBase", ptr %this, i64 0, i32 2
  %0 = load ptr, ptr %mCapacityAllocator.i.i, align 8
  %1 = load ptr, ptr %this, align 8
  %sub.ptr.lhs.cast.i = ptrtoint ptr %0 to i64
  %sub.ptr.rhs.cast.i = ptrtoint ptr %1 to i64
  %sub.ptr.sub.i = sub i64 %sub.ptr.lhs.cast.i, %sub.ptr.rhs.cast.i
  %cmp.i = icmp ult i64 %sub.ptr.sub.i, %ilist.coerce1
  br i1 %cmp.i, label %_ZN5eastl10VectorBaseIbNS_9allocatorEE10DoAllocateEm.exit.i.i, label %if.else.i

_ZN5eastl10VectorBaseIbNS_9allocatorEE10DoAllocateEm.exit.i.i: ; preds = %entry
  %call.i.i.i.i.i = tail call noundef ptr @_ZnamPKcijS0_i(i64 noundef %ilist.coerce1, ptr noundef null, i32 noundef 0, i32 noundef 0, ptr noundef null, i32 noundef 0)
  tail call void @llvm.memmove.p0.p0.i64(ptr align 1 %call.i.i.i.i.i, ptr align 1 %ilist.coerce0, i64 %ilist.coerce1, i1 false)
  %mpEnd.i = getelementptr inbounds %"struct.eastl::VectorBase", ptr %this, i64 0, i32 1
  %2 = load ptr, ptr %this, align 8
  %tobool.not.i.i = icmp eq ptr %2, null
  br i1 %tobool.not.i.i, label %_ZN5eastl10VectorBaseIbNS_9allocatorEE6DoFreeEPbm.exit.i, label %_ZN5eastl9allocator10deallocateEPvm.exit.i.i

_ZN5eastl9allocator10deallocateEPvm.exit.i.i:     ; preds = %_ZN5eastl10VectorBaseIbNS_9allocatorEE10DoAllocateEm.exit.i.i
  tail call void @_ZdaPv(ptr noundef nonnull %2) #18
  br label %_ZN5eastl10VectorBaseIbNS_9allocatorEE6DoFreeEPbm.exit.i

_ZN5eastl10VectorBaseIbNS_9allocatorEE6DoFreeEPbm.exit.i: ; preds = %_ZN5eastl9allocator10deallocateEPvm.exit.i.i, %_ZN5eastl10VectorBaseIbNS_9allocatorEE10DoAllocateEm.exit.i.i
  store ptr %call.i.i.i.i.i, ptr %this, align 8
  %add.ptr.i1 = getelementptr inbounds i8, ptr %call.i.i.i.i.i, i64 %ilist.coerce1
  store ptr %add.ptr.i1, ptr %mpEnd.i, align 8
  store ptr %add.ptr.i1, ptr %mCapacityAllocator.i.i, align 8
  br label %_ZN5eastl6vectorIbNS_9allocatorEE20DoAssignFromIteratorIPKbLb0EEEvT_S6_NS_26random_access_iterator_tagE.exit

if.else.i:                                        ; preds = %entry
  %mpEnd16.i = getelementptr inbounds %"struct.eastl::VectorBase", ptr %this, i64 0, i32 1
  %3 = load ptr, ptr %mpEnd16.i, align 8
  %sub.ptr.lhs.cast18.i = ptrtoint ptr %3 to i64
  %sub.ptr.sub20.i = sub i64 %sub.ptr.lhs.cast18.i, %sub.ptr.rhs.cast.i
  %cmp21.not.i = icmp ult i64 %sub.ptr.sub20.i, %ilist.coerce1
  br i1 %cmp21.not.i, label %if.else27.i, label %if.then22.i

if.then22.i:                                      ; preds = %if.else.i
  %cmp.i.i.i.i15.i = icmp eq i64 %ilist.coerce1, 0
  br i1 %cmp.i.i.i.i15.i, label %_ZN5eastl4copyIPKbPbEET0_T_S5_S4_.exit.i, label %if.end.i.i.i.i16.i

if.end.i.i.i.i16.i:                               ; preds = %if.then22.i
  tail call void @llvm.memmove.p0.p0.i64(ptr align 1 %1, ptr align 1 %ilist.coerce0, i64 %ilist.coerce1, i1 false)
  %add.ptr.i.i.i.i.i = getelementptr inbounds i8, ptr %1, i64 %ilist.coerce1
  br label %_ZN5eastl4copyIPKbPbEET0_T_S5_S4_.exit.i

_ZN5eastl4copyIPKbPbEET0_T_S5_S4_.exit.i:         ; preds = %if.end.i.i.i.i16.i, %if.then22.i
  %retval.0.i.i.i.i.i = phi ptr [ %add.ptr.i.i.i.i.i, %if.end.i.i.i.i16.i ], [ %1, %if.then22.i ]
  store ptr %retval.0.i.i.i.i.i, ptr %mpEnd16.i, align 8
  br label %_ZN5eastl6vectorIbNS_9allocatorEE20DoAssignFromIteratorIPKbLb0EEEvT_S6_NS_26random_access_iterator_tagE.exit

if.else27.i:                                      ; preds = %if.else.i
  %add.ptr33.i = getelementptr inbounds i8, ptr %ilist.coerce0, i64 %sub.ptr.sub20.i
  %cmp.i.i.i.i17.i = icmp eq ptr %3, %1
  br i1 %cmp.i.i.i.i17.i, label %if.end.i.i.i.i, label %if.end.i.i.i.i18.i

if.end.i.i.i.i18.i:                               ; preds = %if.else27.i
  tail call void @llvm.memmove.p0.p0.i64(ptr align 1 %1, ptr align 1 %ilist.coerce0, i64 %sub.ptr.sub20.i, i1 false)
  %.pre.i = load ptr, ptr %mpEnd16.i, align 8
  br label %if.end.i.i.i.i

if.end.i.i.i.i:                                   ; preds = %if.else27.i, %if.end.i.i.i.i18.i
  %4 = phi ptr [ %1, %if.else27.i ], [ %.pre.i, %if.end.i.i.i.i18.i ]
  %sub.ptr.rhs.cast.i.i.i.i = ptrtoint ptr %add.ptr33.i to i64
  %sub.ptr.sub.i.i.i.i = sub i64 %sub.ptr.lhs.cast.i.i.i, %sub.ptr.rhs.cast.i.i.i.i
  tail call void @llvm.memmove.p0.p0.i64(ptr align 1 %4, ptr align 1 %add.ptr33.i, i64 %sub.ptr.sub.i.i.i.i, i1 false)
  %add.ptr.i.i.i.i = getelementptr inbounds i8, ptr %4, i64 %sub.ptr.sub.i.i.i.i
  store ptr %add.ptr.i.i.i.i, ptr %mpEnd16.i, align 8
  br label %_ZN5eastl6vectorIbNS_9allocatorEE20DoAssignFromIteratorIPKbLb0EEEvT_S6_NS_26random_access_iterator_tagE.exit

_ZN5eastl6vectorIbNS_9allocatorEE20DoAssignFromIteratorIPKbLb0EEEvT_S6_NS_26random_access_iterator_tagE.exit: ; preds = %_ZN5eastl10VectorBaseIbNS_9allocatorEE6DoFreeEPbm.exit.i, %_ZN5eastl4copyIPKbPbEET0_T_S5_S4_.exit.i, %if.end.i.i.i.i
  ret ptr %this
}

; Function Attrs: mustprogress uwtable
define weak_odr dso_local noundef nonnull align 8 dereferenceable(24) ptr @_ZN5eastl6vectorIbNS_9allocatorEEaSEOS2_(ptr noundef nonnull align 8 dereferenceable(24) %this, ptr noundef nonnull align 8 dereferenceable(24) %x) local_unnamed_addr #0 comdat align 2 personality ptr @__gxx_personality_v0 {
entry:
  %cmp.not = icmp eq ptr %this, %x
  br i1 %cmp.not, label %if.end, label %if.then

if.then:                                          ; preds = %entry
  %mpEnd.i.i = getelementptr inbounds %"struct.eastl::VectorBase", ptr %this, i64 0, i32 1
  %0 = load ptr, ptr %this, align 8
  store ptr %0, ptr %mpEnd.i.i, align 8
  %1 = load ptr, ptr %x, align 8
  store ptr %1, ptr %this, align 8
  store ptr %0, ptr %x, align 8
  %mpEnd3.i.i = getelementptr inbounds %"struct.eastl::VectorBase", ptr %x, i64 0, i32 1
  %2 = load ptr, ptr %mpEnd.i.i, align 8
  %3 = load ptr, ptr %mpEnd3.i.i, align 8
  store ptr %3, ptr %mpEnd.i.i, align 8
  store ptr %2, ptr %mpEnd3.i.i, align 8
  %mCapacityAllocator.i.i = getelementptr inbounds %"struct.eastl::VectorBase", ptr %this, i64 0, i32 2
  %mCapacityAllocator4.i.i = getelementptr inbounds %"struct.eastl::VectorBase", ptr %x, i64 0, i32 2
  %4 = load ptr, ptr %mCapacityAllocator.i.i, align 8
  %5 = load ptr, ptr %mCapacityAllocator4.i.i, align 8
  store ptr %5, ptr %mCapacityAllocator.i.i, align 8
  store ptr %4, ptr %mCapacityAllocator4.i.i, align 8
  br label %if.end

if.end:                                           ; preds = %if.then, %entry
  ret ptr %this
}

; Function Attrs: mustprogress uwtable
define weak_odr dso_local void @_ZN5eastl6vectorIbNS_9allocatorEE6assignEmRKb(ptr noundef nonnull align 8 dereferenceable(24) %this, i64 noundef %n, ptr noundef nonnull align 1 dereferenceable(1) %value) local_unnamed_addr #0 comdat align 2 {
entry:
  tail call void @_ZN5eastl6vectorIbNS_9allocatorEE14DoAssignValuesEmRKb(ptr noundef nonnull align 8 dereferenceable(24) %this, i64 noundef %n, ptr noundef nonnull align 1 dereferenceable(1) %value)
  ret void
}

; Function Attrs: mustprogress uwtable
define weak_odr dso_local void @_ZN5eastl6vectorIbNS_9allocatorEE14DoAssignValuesEmRKb(ptr noundef nonnull align 8 dereferenceable(24) %this, i64 noundef %n, ptr noundef nonnull align 1 dereferenceable(1) %value) local_unnamed_addr #0 comdat align 2 personality ptr @__gxx_personality_v0 {
entry:
  %mCapacityAllocator.i = getelementptr inbounds %"struct.eastl::VectorBase", ptr %this, i64 0, i32 2
  %0 = load ptr, ptr %mCapacityAllocator.i, align 8
  %1 = load ptr, ptr %this, align 8
  %sub.ptr.lhs.cast = ptrtoint ptr %0 to i64
  %sub.ptr.rhs.cast = ptrtoint ptr %1 to i64
  %sub.ptr.sub = sub i64 %sub.ptr.lhs.cast, %sub.ptr.rhs.cast
  %cmp = icmp ult i64 %sub.ptr.sub, %n
  br i1 %cmp, label %invoke.cont, label %if.else

invoke.cont:                                      ; preds = %entry
  %call.i.i.i.i.i = tail call noundef ptr @_ZnamPKcijS0_i(i64 noundef %n, ptr noundef null, i32 noundef 0, i32 noundef 0, ptr noundef null, i32 noundef 0)
  %add.ptr.i.i = getelementptr inbounds i8, ptr %call.i.i.i.i.i, i64 %n
  %2 = load i8, ptr %value, align 1
  %3 = and i8 %2, 1
  tail call void @llvm.memset.p0.i64(ptr align 1 %call.i.i.i.i.i, i8 %3, i64 %n, i1 false)
  %4 = load ptr, ptr %this, align 8
  store ptr %call.i.i.i.i.i, ptr %this, align 8
  %mpEnd.i.i11 = getelementptr inbounds %"struct.eastl::VectorBase", ptr %this, i64 0, i32 1
  store ptr %add.ptr.i.i, ptr %mpEnd.i.i11, align 8
  store ptr %add.ptr.i.i, ptr %mCapacityAllocator.i, align 8
  %tobool.not.i.i = icmp eq ptr %4, null
  br i1 %tobool.not.i.i, label %if.end31, label %_ZN5eastl9allocator10deallocateEPvm.exit.i.i

_ZN5eastl9allocator10deallocateEPvm.exit.i.i:     ; preds = %invoke.cont
  tail call void @_ZdaPv(ptr noundef nonnull %4) #18
  br label %if.end31

if.else:                                          ; preds = %entry
  %mpEnd = getelementptr inbounds %"struct.eastl::VectorBase", ptr %this, i64 0, i32 1
  %5 = load ptr, ptr %mpEnd, align 8
  %sub.ptr.lhs.cast4 = ptrtoint ptr %5 to i64
  %sub.ptr.sub6 = sub i64 %sub.ptr.lhs.cast4, %sub.ptr.rhs.cast
  %cmp7 = icmp ult i64 %sub.ptr.sub6, %n
  br i1 %cmp7, label %if.then8, label %if.else24

if.then8:                                         ; preds = %if.else
  %cmp.not3.i.i = icmp eq ptr %1, %5
  br i1 %cmp.not3.i.i, label %_ZN5eastl4fillIPbbEEvT_S2_RKT0_.exit, label %for.body.preheader.i.i

for.body.preheader.i.i:                           ; preds = %if.then8
  %6 = load i8, ptr %value, align 1
  %7 = and i8 %6, 1
  tail call void @llvm.memset.p0.i64(ptr align 1 %1, i8 %7, i64 %sub.ptr.sub6, i1 false)
  %.pre22 = load ptr, ptr %mpEnd, align 8
  %.pre23 = load ptr, ptr %this, align 8
  %.pre26 = ptrtoint ptr %.pre22 to i64
  %.pre27 = ptrtoint ptr %.pre23 to i64
  br label %_ZN5eastl4fillIPbbEEvT_S2_RKT0_.exit

_ZN5eastl4fillIPbbEEvT_S2_RKT0_.exit:             ; preds = %if.then8, %for.body.preheader.i.i
  %sub.ptr.rhs.cast15.pre-phi = phi i64 [ %sub.ptr.rhs.cast, %if.then8 ], [ %.pre27, %for.body.preheader.i.i ]
  %sub.ptr.lhs.cast14.pre-phi = phi i64 [ %sub.ptr.rhs.cast, %if.then8 ], [ %.pre26, %for.body.preheader.i.i ]
  %8 = phi ptr [ %1, %if.then8 ], [ %.pre22, %for.body.preheader.i.i ]
  %sub.ptr.sub16.neg = sub i64 %sub.ptr.rhs.cast15.pre-phi, %sub.ptr.lhs.cast14.pre-phi
  %sub = add i64 %sub.ptr.sub16.neg, %n
  %cmp.not2.i.i.i.i = icmp eq i64 %sub, 0
  br i1 %cmp.not2.i.i.i.i, label %_ZN5eastl24uninitialized_fill_n_ptrIbmEEvPT_T0_RKS1_.exit, label %for.body.preheader.i.i.i.i

for.body.preheader.i.i.i.i:                       ; preds = %_ZN5eastl4fillIPbbEEvT_S2_RKT0_.exit
  %9 = load i8, ptr %value, align 1
  %10 = and i8 %9, 1
  tail call void @llvm.memset.p0.i64(ptr align 1 %8, i8 %10, i64 %sub, i1 false)
  %.pre24 = load ptr, ptr %mpEnd, align 8
  %.pre25 = load ptr, ptr %this, align 8
  %.pre28 = ptrtoint ptr %.pre24 to i64
  %.pre29 = ptrtoint ptr %.pre25 to i64
  %.pre30 = sub i64 %.pre29, %.pre28
  br label %_ZN5eastl24uninitialized_fill_n_ptrIbmEEvPT_T0_RKS1_.exit

_ZN5eastl24uninitialized_fill_n_ptrIbmEEvPT_T0_RKS1_.exit: ; preds = %_ZN5eastl4fillIPbbEEvT_S2_RKT0_.exit, %for.body.preheader.i.i.i.i
  %sub.ptr.sub21.neg.pre-phi = phi i64 [ %sub.ptr.sub16.neg, %_ZN5eastl4fillIPbbEEvT_S2_RKT0_.exit ], [ %.pre30, %for.body.preheader.i.i.i.i ]
  %11 = phi ptr [ %8, %_ZN5eastl4fillIPbbEEvT_S2_RKT0_.exit ], [ %.pre24, %for.body.preheader.i.i.i.i ]
  %12 = getelementptr i8, ptr %11, i64 %sub.ptr.sub21.neg.pre-phi
  %add.ptr = getelementptr i8, ptr %12, i64 %n
  store ptr %add.ptr, ptr %mpEnd, align 8
  br label %if.end31

if.else24:                                        ; preds = %if.else
  %cmp.not3.i.i15 = icmp eq i64 %n, 0
  br i1 %cmp.not3.i.i15, label %_ZN5eastl6fill_nIPbmbEET_S2_T0_RKT1_.exit, label %for.body.preheader.i.i16

for.body.preheader.i.i16:                         ; preds = %if.else24
  %13 = load i8, ptr %value, align 1
  %14 = and i8 %13, 1
  tail call void @llvm.memset.p0.i64(ptr align 1 %1, i8 %14, i64 %n, i1 false)
  %.pre = load ptr, ptr %this, align 8
  %.pre21 = load ptr, ptr %mpEnd, align 8
  br label %_ZN5eastl6fill_nIPbmbEET_S2_T0_RKT1_.exit

_ZN5eastl6fill_nIPbmbEET_S2_T0_RKT1_.exit:        ; preds = %if.else24, %for.body.preheader.i.i16
  %15 = phi ptr [ %5, %if.else24 ], [ %.pre21, %for.body.preheader.i.i16 ]
  %16 = phi ptr [ %1, %if.else24 ], [ %.pre, %for.body.preheader.i.i16 ]
  %add.ptr28 = getelementptr inbounds i8, ptr %16, i64 %n
  %cmp.not.i = icmp eq ptr %add.ptr28, %15
  br i1 %cmp.not.i, label %if.end31, label %_ZN5eastl4moveIPbS1_EET0_T_S3_S2_.exit.i

_ZN5eastl4moveIPbS1_EET0_T_S3_S2_.exit.i:         ; preds = %_ZN5eastl6fill_nIPbmbEET_S2_T0_RKT1_.exit
  %.pre6.i = ptrtoint ptr %15 to i64
  %sub.ptr.rhs.cast.i = ptrtoint ptr %add.ptr28 to i64
  %sub.ptr.sub.neg.i = sub i64 %sub.ptr.rhs.cast.i, %.pre6.i
  %add.ptr.i18 = getelementptr inbounds i8, ptr %15, i64 %sub.ptr.sub.neg.i
  store ptr %add.ptr.i18, ptr %mpEnd, align 8
  br label %if.end31

if.end31:                                         ; preds = %_ZN5eastl4moveIPbS1_EET0_T_S3_S2_.exit.i, %_ZN5eastl6fill_nIPbmbEET_S2_T0_RKT1_.exit, %_ZN5eastl9allocator10deallocateEPvm.exit.i.i, %invoke.cont, %_ZN5eastl24uninitialized_fill_n_ptrIbmEEvPT_T0_RKS1_.exit
  ret void
}

; Function Attrs: mustprogress uwtable
define weak_odr dso_local void @_ZN5eastl6vectorIbNS_9allocatorEE6assignESt16initializer_listIbE(ptr noundef nonnull align 8 dereferenceable(24) %this, ptr %ilist.coerce0, i64 %ilist.coerce1) local_unnamed_addr #0 comdat align 2 personality ptr @__gxx_personality_v0 {
entry:
  %add.ptr.i = getelementptr inbounds i8, ptr %ilist.coerce0, i64 %ilist.coerce1
  %sub.ptr.lhs.cast.i.i.i = ptrtoint ptr %add.ptr.i to i64
  %mCapacityAllocator.i.i = getelementptr inbounds %"struct.eastl::VectorBase", ptr %this, i64 0, i32 2
  %0 = load ptr, ptr %mCapacityAllocator.i.i, align 8
  %1 = load ptr, ptr %this, align 8
  %sub.ptr.lhs.cast.i = ptrtoint ptr %0 to i64
  %sub.ptr.rhs.cast.i = ptrtoint ptr %1 to i64
  %sub.ptr.sub.i = sub i64 %sub.ptr.lhs.cast.i, %sub.ptr.rhs.cast.i
  %cmp.i = icmp ult i64 %sub.ptr.sub.i, %ilist.coerce1
  br i1 %cmp.i, label %_ZN5eastl10VectorBaseIbNS_9allocatorEE10DoAllocateEm.exit.i.i, label %if.else.i

_ZN5eastl10VectorBaseIbNS_9allocatorEE10DoAllocateEm.exit.i.i: ; preds = %entry
  %call.i.i.i.i.i = tail call noundef ptr @_ZnamPKcijS0_i(i64 noundef %ilist.coerce1, ptr noundef null, i32 noundef 0, i32 noundef 0, ptr noundef null, i32 noundef 0)
  tail call void @llvm.memmove.p0.p0.i64(ptr align 1 %call.i.i.i.i.i, ptr align 1 %ilist.coerce0, i64 %ilist.coerce1, i1 false)
  %mpEnd.i = getelementptr inbounds %"struct.eastl::VectorBase", ptr %this, i64 0, i32 1
  %2 = load ptr, ptr %this, align 8
  %tobool.not.i.i = icmp eq ptr %2, null
  br i1 %tobool.not.i.i, label %_ZN5eastl10VectorBaseIbNS_9allocatorEE6DoFreeEPbm.exit.i, label %_ZN5eastl9allocator10deallocateEPvm.exit.i.i

_ZN5eastl9allocator10deallocateEPvm.exit.i.i:     ; preds = %_ZN5eastl10VectorBaseIbNS_9allocatorEE10DoAllocateEm.exit.i.i
  tail call void @_ZdaPv(ptr noundef nonnull %2) #18
  br label %_ZN5eastl10VectorBaseIbNS_9allocatorEE6DoFreeEPbm.exit.i

_ZN5eastl10VectorBaseIbNS_9allocatorEE6DoFreeEPbm.exit.i: ; preds = %_ZN5eastl9allocator10deallocateEPvm.exit.i.i, %_ZN5eastl10VectorBaseIbNS_9allocatorEE10DoAllocateEm.exit.i.i
  store ptr %call.i.i.i.i.i, ptr %this, align 8
  %add.ptr.i1 = getelementptr inbounds i8, ptr %call.i.i.i.i.i, i64 %ilist.coerce1
  store ptr %add.ptr.i1, ptr %mpEnd.i, align 8
  store ptr %add.ptr.i1, ptr %mCapacityAllocator.i.i, align 8
  br label %_ZN5eastl6vectorIbNS_9allocatorEE20DoAssignFromIteratorIPKbLb0EEEvT_S6_NS_26random_access_iterator_tagE.exit

if.else.i:                                        ; preds = %entry
  %mpEnd16.i = getelementptr inbounds %"struct.eastl::VectorBase", ptr %this, i64 0, i32 1
  %3 = load ptr, ptr %mpEnd16.i, align 8
  %sub.ptr.lhs.cast18.i = ptrtoint ptr %3 to i64
  %sub.ptr.sub20.i = sub i64 %sub.ptr.lhs.cast18.i, %sub.ptr.rhs.cast.i
  %cmp21.not.i = icmp ult i64 %sub.ptr.sub20.i, %ilist.coerce1
  br i1 %cmp21.not.i, label %if.else27.i, label %if.then22.i

if.then22.i:                                      ; preds = %if.else.i
  %cmp.i.i.i.i15.i = icmp eq i64 %ilist.coerce1, 0
  br i1 %cmp.i.i.i.i15.i, label %_ZN5eastl4copyIPKbPbEET0_T_S5_S4_.exit.i, label %if.end.i.i.i.i16.i

if.end.i.i.i.i16.i:                               ; preds = %if.then22.i
  tail call void @llvm.memmove.p0.p0.i64(ptr align 1 %1, ptr align 1 %ilist.coerce0, i64 %ilist.coerce1, i1 false)
  %add.ptr.i.i.i.i.i = getelementptr inbounds i8, ptr %1, i64 %ilist.coerce1
  br label %_ZN5eastl4copyIPKbPbEET0_T_S5_S4_.exit.i

_ZN5eastl4copyIPKbPbEET0_T_S5_S4_.exit.i:         ; preds = %if.end.i.i.i.i16.i, %if.then22.i
  %retval.0.i.i.i.i.i = phi ptr [ %add.ptr.i.i.i.i.i, %if.end.i.i.i.i16.i ], [ %1, %if.then22.i ]
  store ptr %retval.0.i.i.i.i.i, ptr %mpEnd16.i, align 8
  br label %_ZN5eastl6vectorIbNS_9allocatorEE20DoAssignFromIteratorIPKbLb0EEEvT_S6_NS_26random_access_iterator_tagE.exit

if.else27.i:                                      ; preds = %if.else.i
  %add.ptr33.i = getelementptr inbounds i8, ptr %ilist.coerce0, i64 %sub.ptr.sub20.i
  %cmp.i.i.i.i17.i = icmp eq ptr %3, %1
  br i1 %cmp.i.i.i.i17.i, label %if.end.i.i.i.i, label %if.end.i.i.i.i18.i

if.end.i.i.i.i18.i:                               ; preds = %if.else27.i
  tail call void @llvm.memmove.p0.p0.i64(ptr align 1 %1, ptr align 1 %ilist.coerce0, i64 %sub.ptr.sub20.i, i1 false)
  %.pre.i = load ptr, ptr %mpEnd16.i, align 8
  br label %if.end.i.i.i.i

if.end.i.i.i.i:                                   ; preds = %if.else27.i, %if.end.i.i.i.i18.i
  %4 = phi ptr [ %1, %if.else27.i ], [ %.pre.i, %if.end.i.i.i.i18.i ]
  %sub.ptr.rhs.cast.i.i.i.i = ptrtoint ptr %add.ptr33.i to i64
  %sub.ptr.sub.i.i.i.i = sub i64 %sub.ptr.lhs.cast.i.i.i, %sub.ptr.rhs.cast.i.i.i.i
  tail call void @llvm.memmove.p0.p0.i64(ptr align 1 %4, ptr align 1 %add.ptr33.i, i64 %sub.ptr.sub.i.i.i.i, i1 false)
  %add.ptr.i.i.i.i = getelementptr inbounds i8, ptr %4, i64 %sub.ptr.sub.i.i.i.i
  store ptr %add.ptr.i.i.i.i, ptr %mpEnd16.i, align 8
  br label %_ZN5eastl6vectorIbNS_9allocatorEE20DoAssignFromIteratorIPKbLb0EEEvT_S6_NS_26random_access_iterator_tagE.exit

_ZN5eastl6vectorIbNS_9allocatorEE20DoAssignFromIteratorIPKbLb0EEEvT_S6_NS_26random_access_iterator_tagE.exit: ; preds = %_ZN5eastl10VectorBaseIbNS_9allocatorEE6DoFreeEPbm.exit.i, %_ZN5eastl4copyIPKbPbEET0_T_S5_S4_.exit.i, %if.end.i.i.i.i
  ret void
}

; Function Attrs: mustprogress nounwind uwtable
define weak_odr dso_local noundef ptr @_ZN5eastl6vectorIbNS_9allocatorEE5beginEv(ptr noundef nonnull align 8 dereferenceable(24) %this) local_unnamed_addr #1 comdat align 2 {
entry:
  %0 = load ptr, ptr %this, align 8
  ret ptr %0
}

; Function Attrs: mustprogress nounwind uwtable
define weak_odr dso_local noundef ptr @_ZNK5eastl6vectorIbNS_9allocatorEE6cbeginEv(ptr noundef nonnull align 8 dereferenceable(24) %this) local_unnamed_addr #1 comdat align 2 {
entry:
  %0 = load ptr, ptr %this, align 8
  ret ptr %0
}

; Function Attrs: mustprogress nounwind uwtable
define weak_odr dso_local noundef ptr @_ZN5eastl6vectorIbNS_9allocatorEE3endEv(ptr noundef nonnull align 8 dereferenceable(24) %this) local_unnamed_addr #1 comdat align 2 {
entry:
  %mpEnd = getelementptr inbounds %"struct.eastl::VectorBase", ptr %this, i64 0, i32 1
  %0 = load ptr, ptr %mpEnd, align 8
  ret ptr %0
}

; Function Attrs: mustprogress nounwind uwtable
define weak_odr dso_local noundef ptr @_ZNK5eastl6vectorIbNS_9allocatorEE4cendEv(ptr noundef nonnull align 8 dereferenceable(24) %this) local_unnamed_addr #1 comdat align 2 {
entry:
  %mpEnd = getelementptr inbounds %"struct.eastl::VectorBase", ptr %this, i64 0, i32 1
  %0 = load ptr, ptr %mpEnd, align 8
  ret ptr %0
}

; Function Attrs: mustprogress nounwind uwtable
define weak_odr dso_local void @_ZN5eastl6vectorIbNS_9allocatorEE6rbeginEv(ptr noalias sret(%"class.eastl::reverse_iterator") align 8 %agg.result, ptr noundef nonnull align 8 dereferenceable(24) %this) local_unnamed_addr #1 comdat align 2 personality ptr @__gxx_personality_v0 {
entry:
  %mpEnd = getelementptr inbounds %"struct.eastl::VectorBase", ptr %this, i64 0, i32 1
  %0 = load ptr, ptr %mpEnd, align 8
  store ptr %0, ptr %agg.result, align 8
  ret void
}

; Function Attrs: mustprogress nounwind uwtable
define weak_odr dso_local void @_ZNK5eastl6vectorIbNS_9allocatorEE6rbeginEv(ptr noalias sret(%"class.eastl::reverse_iterator.0") align 8 %agg.result, ptr noundef nonnull align 8 dereferenceable(24) %this) local_unnamed_addr #1 comdat align 2 personality ptr @__gxx_personality_v0 {
entry:
  %mpEnd = getelementptr inbounds %"struct.eastl::VectorBase", ptr %this, i64 0, i32 1
  %0 = load ptr, ptr %mpEnd, align 8
  store ptr %0, ptr %agg.result, align 8
  ret void
}

; Function Attrs: mustprogress nounwind uwtable
define weak_odr dso_local void @_ZNK5eastl6vectorIbNS_9allocatorEE7crbeginEv(ptr noalias sret(%"class.eastl::reverse_iterator.0") align 8 %agg.result, ptr noundef nonnull align 8 dereferenceable(24) %this) local_unnamed_addr #1 comdat align 2 personality ptr @__gxx_personality_v0 {
entry:
  %mpEnd = getelementptr inbounds %"struct.eastl::VectorBase", ptr %this, i64 0, i32 1
  %0 = load ptr, ptr %mpEnd, align 8
  store ptr %0, ptr %agg.result, align 8
  ret void
}

; Function Attrs: mustprogress nounwind uwtable
define weak_odr dso_local void @_ZN5eastl6vectorIbNS_9allocatorEE4rendEv(ptr noalias sret(%"class.eastl::reverse_iterator") align 8 %agg.result, ptr noundef nonnull align 8 dereferenceable(24) %this) local_unnamed_addr #1 comdat align 2 personality ptr @__gxx_personality_v0 {
entry:
  %0 = load ptr, ptr %this, align 8
  store ptr %0, ptr %agg.result, align 8
  ret void
}

; Function Attrs: mustprogress nounwind uwtable
define weak_odr dso_local void @_ZNK5eastl6vectorIbNS_9allocatorEE4rendEv(ptr noalias sret(%"class.eastl::reverse_iterator.0") align 8 %agg.result, ptr noundef nonnull align 8 dereferenceable(24) %this) local_unnamed_addr #1 comdat align 2 personality ptr @__gxx_personality_v0 {
entry:
  %0 = load ptr, ptr %this, align 8
  store ptr %0, ptr %agg.result, align 8
  ret void
}

; Function Attrs: mustprogress nounwind uwtable
define weak_odr dso_local void @_ZNK5eastl6vectorIbNS_9allocatorEE5crendEv(ptr noalias sret(%"class.eastl::reverse_iterator.0") align 8 %agg.result, ptr noundef nonnull align 8 dereferenceable(24) %this) local_unnamed_addr #1 comdat align 2 personality ptr @__gxx_personality_v0 {
entry:
  %0 = load ptr, ptr %this, align 8
  store ptr %0, ptr %agg.result, align 8
  ret void
}

; Function Attrs: mustprogress nounwind uwtable
define weak_odr dso_local noundef zeroext i1 @_ZNK5eastl6vectorIbNS_9allocatorEE5emptyEv(ptr noundef nonnull align 8 dereferenceable(24) %this) local_unnamed_addr #1 comdat align 2 {
entry:
  %0 = load ptr, ptr %this, align 8
  %mpEnd = getelementptr inbounds %"struct.eastl::VectorBase", ptr %this, i64 0, i32 1
  %1 = load ptr, ptr %mpEnd, align 8
  %cmp = icmp eq ptr %0, %1
  ret i1 %cmp
}

; Function Attrs: mustprogress nounwind uwtable
define weak_odr dso_local noundef i64 @_ZNK5eastl6vectorIbNS_9allocatorEE8capacityEv(ptr noundef nonnull align 8 dereferenceable(24) %this) local_unnamed_addr #1 comdat align 2 personality ptr @__gxx_personality_v0 {
entry:
  %mCapacityAllocator.i = getelementptr inbounds %"struct.eastl::VectorBase", ptr %this, i64 0, i32 2
  %0 = load ptr, ptr %mCapacityAllocator.i, align 8
  %1 = load ptr, ptr %this, align 8
  %sub.ptr.lhs.cast = ptrtoint ptr %0 to i64
  %sub.ptr.rhs.cast = ptrtoint ptr %1 to i64
  %sub.ptr.sub = sub i64 %sub.ptr.lhs.cast, %sub.ptr.rhs.cast
  ret i64 %sub.ptr.sub
}

; Function Attrs: mustprogress uwtable
define weak_odr dso_local void @_ZN5eastl6vectorIbNS_9allocatorEE6resizeEmRKb(ptr noundef nonnull align 8 dereferenceable(24) %this, i64 noundef %n, ptr noundef nonnull align 1 dereferenceable(1) %value) local_unnamed_addr #0 comdat align 2 personality ptr @__gxx_personality_v0 {
entry:
  %mpEnd = getelementptr inbounds %"struct.eastl::VectorBase", ptr %this, i64 0, i32 1
  %0 = load ptr, ptr %mpEnd, align 8
  %1 = load ptr, ptr %this, align 8
  %sub.ptr.lhs.cast = ptrtoint ptr %0 to i64
  %sub.ptr.rhs.cast = ptrtoint ptr %1 to i64
  %sub.ptr.sub = sub i64 %sub.ptr.lhs.cast, %sub.ptr.rhs.cast
  %cmp = icmp ult i64 %sub.ptr.sub, %n
  br i1 %cmp, label %if.then, label %if.else

if.then:                                          ; preds = %entry
  %sub = sub i64 %n, %sub.ptr.sub
  %mCapacityAllocator.i.i = getelementptr inbounds %"struct.eastl::VectorBase", ptr %this, i64 0, i32 2
  %2 = load ptr, ptr %mCapacityAllocator.i.i, align 8
  %sub.ptr.lhs.cast.i = ptrtoint ptr %2 to i64
  %sub.ptr.sub.i = sub i64 %sub.ptr.lhs.cast.i, %sub.ptr.lhs.cast
  %cmp.i = icmp ult i64 %sub.ptr.sub.i, %sub
  br i1 %cmp.i, label %_ZN5eastl10VectorBaseIbNS_9allocatorEE10DoAllocateEm.exit.i, label %for.body.preheader.i.i.i.i18.i

_ZN5eastl10VectorBaseIbNS_9allocatorEE10DoAllocateEm.exit.i: ; preds = %if.then
  %cmp.not.i.i = icmp eq ptr %0, %1
  %mul.i.i = shl i64 %sub.ptr.sub, 1
  %cond.i.i = select i1 %cmp.not.i.i, i64 1, i64 %mul.i.i
  %cond.i13.i = tail call noundef i64 @llvm.umax.i64(i64 %cond.i.i, i64 %n)
  %call.i.i.i.i = tail call noundef ptr @_ZnamPKcijS0_i(i64 noundef %cond.i13.i, ptr noundef null, i32 noundef 0, i32 noundef 0, ptr noundef null, i32 noundef 0)
  %.pre20.i = load ptr, ptr %this, align 8
  %.pre21.i = load ptr, ptr %mpEnd, align 8
  %cmp.i.i.i.i.i.i.i.i = icmp eq ptr %.pre20.i, %.pre21.i
  br i1 %cmp.i.i.i.i.i.i.i.i, label %_ZN5eastl24uninitialized_fill_n_ptrIbmEEvPT_T0_RKS1_.exit.i, label %if.end.i.i.i.i.i.i.i.i

if.end.i.i.i.i.i.i.i.i:                           ; preds = %_ZN5eastl10VectorBaseIbNS_9allocatorEE10DoAllocateEm.exit.i
  %3 = ptrtoint ptr %.pre21.i to i64
  %4 = ptrtoint ptr %.pre20.i to i64
  %sub.i.i.i.i.i.i.i.i = sub i64 %3, %4
  tail call void @llvm.memmove.p0.p0.i64(ptr align 1 %call.i.i.i.i, ptr align 1 %.pre20.i, i64 %sub.i.i.i.i.i.i.i.i, i1 false)
  %add.ptr.i.i.i.i.i.i.i.i = getelementptr inbounds i8, ptr %call.i.i.i.i, i64 %sub.i.i.i.i.i.i.i.i
  br label %_ZN5eastl24uninitialized_fill_n_ptrIbmEEvPT_T0_RKS1_.exit.i

_ZN5eastl24uninitialized_fill_n_ptrIbmEEvPT_T0_RKS1_.exit.i: ; preds = %if.end.i.i.i.i.i.i.i.i, %_ZN5eastl10VectorBaseIbNS_9allocatorEE10DoAllocateEm.exit.i
  %retval.0.i.i.i.i.i.i.i.i = phi ptr [ %add.ptr.i.i.i.i.i.i.i.i, %if.end.i.i.i.i.i.i.i.i ], [ %call.i.i.i.i, %_ZN5eastl10VectorBaseIbNS_9allocatorEE10DoAllocateEm.exit.i ]
  %5 = load i8, ptr %value, align 1
  %6 = and i8 %5, 1
  tail call void @llvm.memset.p0.i64(ptr align 1 %retval.0.i.i.i.i.i.i.i.i, i8 %6, i64 %sub, i1 false)
  %add.ptr.i = getelementptr inbounds i8, ptr %retval.0.i.i.i.i.i.i.i.i, i64 %sub
  %7 = load ptr, ptr %this, align 8
  %tobool.not.i15.i = icmp eq ptr %7, null
  br i1 %tobool.not.i15.i, label %_ZN5eastl10VectorBaseIbNS_9allocatorEE6DoFreeEPbm.exit.i, label %_ZN5eastl9allocator10deallocateEPvm.exit.i.i

_ZN5eastl9allocator10deallocateEPvm.exit.i.i:     ; preds = %_ZN5eastl24uninitialized_fill_n_ptrIbmEEvPT_T0_RKS1_.exit.i
  tail call void @_ZdaPv(ptr noundef nonnull %7) #18
  br label %_ZN5eastl10VectorBaseIbNS_9allocatorEE6DoFreeEPbm.exit.i

_ZN5eastl10VectorBaseIbNS_9allocatorEE6DoFreeEPbm.exit.i: ; preds = %_ZN5eastl9allocator10deallocateEPvm.exit.i.i, %_ZN5eastl24uninitialized_fill_n_ptrIbmEEvPT_T0_RKS1_.exit.i
  store ptr %call.i.i.i.i, ptr %this, align 8
  store ptr %add.ptr.i, ptr %mpEnd, align 8
  %add.ptr22.i = getelementptr inbounds i8, ptr %call.i.i.i.i, i64 %cond.i13.i
  store ptr %add.ptr22.i, ptr %mCapacityAllocator.i.i, align 8
  br label %if.end

for.body.preheader.i.i.i.i18.i:                   ; preds = %if.then
  %8 = load i8, ptr %value, align 1
  %9 = and i8 %8, 1
  tail call void @llvm.memset.p0.i64(ptr align 1 %0, i8 %9, i64 %sub, i1 false)
  %.pre.i = load ptr, ptr %mpEnd, align 8
  %add.ptr26.i = getelementptr inbounds i8, ptr %.pre.i, i64 %sub
  store ptr %add.ptr26.i, ptr %mpEnd, align 8
  br label %if.end

if.else:                                          ; preds = %entry
  %add.ptr10 = getelementptr inbounds i8, ptr %1, i64 %n
  store ptr %add.ptr10, ptr %mpEnd, align 8
  br label %if.end

if.end:                                           ; preds = %for.body.preheader.i.i.i.i18.i, %_ZN5eastl10VectorBaseIbNS_9allocatorEE6DoFreeEPbm.exit.i, %if.else
  ret void
}

; Function Attrs: mustprogress uwtable
define weak_odr dso_local void @_ZN5eastl6vectorIbNS_9allocatorEE17DoInsertValuesEndEmRKb(ptr noundef nonnull align 8 dereferenceable(24) %this, i64 noundef %n, ptr noundef nonnull align 1 dereferenceable(1) %value) local_unnamed_addr #0 comdat align 2 personality ptr @__gxx_personality_v0 {
entry:
  %mCapacityAllocator.i = getelementptr inbounds %"struct.eastl::VectorBase", ptr %this, i64 0, i32 2
  %0 = load ptr, ptr %mCapacityAllocator.i, align 8
  %mpEnd = getelementptr inbounds %"struct.eastl::VectorBase", ptr %this, i64 0, i32 1
  %1 = load ptr, ptr %mpEnd, align 8
  %sub.ptr.lhs.cast = ptrtoint ptr %0 to i64
  %sub.ptr.rhs.cast = ptrtoint ptr %1 to i64
  %sub.ptr.sub = sub i64 %sub.ptr.lhs.cast, %sub.ptr.rhs.cast
  %cmp = icmp ult i64 %sub.ptr.sub, %n
  br i1 %cmp, label %if.then, label %if.else

if.then:                                          ; preds = %entry
  %2 = load ptr, ptr %this, align 8
  %sub.ptr.rhs.cast4 = ptrtoint ptr %2 to i64
  %sub.ptr.sub5 = sub i64 %sub.ptr.rhs.cast, %sub.ptr.rhs.cast4
  %cmp.not.i = icmp eq ptr %1, %2
  %mul.i = shl i64 %sub.ptr.sub5, 1
  %cond.i = select i1 %cmp.not.i, i64 1, i64 %mul.i
  %add = add i64 %sub.ptr.sub5, %n
  %cond.i13 = tail call noundef i64 @llvm.umax.i64(i64 %cond.i, i64 %add)
  %tobool.not.i = icmp eq i64 %cond.i13, 0
  br i1 %tobool.not.i, label %_ZN5eastl10VectorBaseIbNS_9allocatorEE10DoAllocateEm.exit, label %if.then.i

if.then.i:                                        ; preds = %if.then
  %call.i.i.i = tail call noundef ptr @_ZnamPKcijS0_i(i64 noundef %cond.i13, ptr noundef null, i32 noundef 0, i32 noundef 0, ptr noundef null, i32 noundef 0)
  %.pre20 = load ptr, ptr %this, align 8
  %.pre21 = load ptr, ptr %mpEnd, align 8
  br label %_ZN5eastl10VectorBaseIbNS_9allocatorEE10DoAllocateEm.exit

_ZN5eastl10VectorBaseIbNS_9allocatorEE10DoAllocateEm.exit: ; preds = %if.then, %if.then.i
  %3 = phi ptr [ %.pre21, %if.then.i ], [ %1, %if.then ]
  %4 = phi ptr [ %.pre20, %if.then.i ], [ %2, %if.then ]
  %retval.0.i = phi ptr [ %call.i.i.i, %if.then.i ], [ null, %if.then ]
  %cmp.i.i.i.i.i.i.i = icmp eq ptr %4, %3
  br i1 %cmp.i.i.i.i.i.i.i, label %_ZN5eastl24uninitialized_fill_n_ptrIbmEEvPT_T0_RKS1_.exit, label %if.end.i.i.i.i.i.i.i

if.end.i.i.i.i.i.i.i:                             ; preds = %_ZN5eastl10VectorBaseIbNS_9allocatorEE10DoAllocateEm.exit
  %5 = ptrtoint ptr %3 to i64
  %6 = ptrtoint ptr %4 to i64
  %sub.i.i.i.i.i.i.i = sub i64 %5, %6
  tail call void @llvm.memmove.p0.p0.i64(ptr align 1 %retval.0.i, ptr align 1 %4, i64 %sub.i.i.i.i.i.i.i, i1 false)
  %add.ptr.i.i.i.i.i.i.i = getelementptr inbounds i8, ptr %retval.0.i, i64 %sub.i.i.i.i.i.i.i
  br label %_ZN5eastl24uninitialized_fill_n_ptrIbmEEvPT_T0_RKS1_.exit

_ZN5eastl24uninitialized_fill_n_ptrIbmEEvPT_T0_RKS1_.exit: ; preds = %_ZN5eastl10VectorBaseIbNS_9allocatorEE10DoAllocateEm.exit, %if.end.i.i.i.i.i.i.i
  %retval.0.i.i.i.i.i.i.i = phi ptr [ %add.ptr.i.i.i.i.i.i.i, %if.end.i.i.i.i.i.i.i ], [ %retval.0.i, %_ZN5eastl10VectorBaseIbNS_9allocatorEE10DoAllocateEm.exit ]
  %7 = load i8, ptr %value, align 1
  %8 = and i8 %7, 1
  tail call void @llvm.memset.p0.i64(ptr align 1 %retval.0.i.i.i.i.i.i.i, i8 %8, i64 %n, i1 false)
  %add.ptr = getelementptr inbounds i8, ptr %retval.0.i.i.i.i.i.i.i, i64 %n
  %9 = load ptr, ptr %this, align 8
  %tobool.not.i15 = icmp eq ptr %9, null
  br i1 %tobool.not.i15, label %_ZN5eastl10VectorBaseIbNS_9allocatorEE6DoFreeEPbm.exit, label %_ZN5eastl9allocator10deallocateEPvm.exit.i

_ZN5eastl9allocator10deallocateEPvm.exit.i:       ; preds = %_ZN5eastl24uninitialized_fill_n_ptrIbmEEvPT_T0_RKS1_.exit
  tail call void @_ZdaPv(ptr noundef nonnull %9) #18
  br label %_ZN5eastl10VectorBaseIbNS_9allocatorEE6DoFreeEPbm.exit

_ZN5eastl10VectorBaseIbNS_9allocatorEE6DoFreeEPbm.exit: ; preds = %_ZN5eastl24uninitialized_fill_n_ptrIbmEEvPT_T0_RKS1_.exit, %_ZN5eastl9allocator10deallocateEPvm.exit.i
  store ptr %retval.0.i, ptr %this, align 8
  store ptr %add.ptr, ptr %mpEnd, align 8
  %add.ptr22 = getelementptr inbounds i8, ptr %retval.0.i, i64 %cond.i13
  store ptr %add.ptr22, ptr %mCapacityAllocator.i, align 8
  br label %if.end

if.else:                                          ; preds = %entry
  %cmp.not2.i.i.i.i17 = icmp eq i64 %n, 0
  br i1 %cmp.not2.i.i.i.i17, label %_ZN5eastl24uninitialized_fill_n_ptrIbmEEvPT_T0_RKS1_.exit19, label %for.body.preheader.i.i.i.i18

for.body.preheader.i.i.i.i18:                     ; preds = %if.else
  %10 = load i8, ptr %value, align 1
  %11 = and i8 %10, 1
  tail call void @llvm.memset.p0.i64(ptr align 1 %1, i8 %11, i64 %n, i1 false)
  %.pre = load ptr, ptr %mpEnd, align 8
  br label %_ZN5eastl24uninitialized_fill_n_ptrIbmEEvPT_T0_RKS1_.exit19

_ZN5eastl24uninitialized_fill_n_ptrIbmEEvPT_T0_RKS1_.exit19: ; preds = %if.else, %for.body.preheader.i.i.i.i18
  %12 = phi ptr [ %1, %if.else ], [ %.pre, %for.body.preheader.i.i.i.i18 ]
  %add.ptr26 = getelementptr inbounds i8, ptr %12, i64 %n
  store ptr %add.ptr26, ptr %mpEnd, align 8
  br label %if.end

if.end:                                           ; preds = %_ZN5eastl24uninitialized_fill_n_ptrIbmEEvPT_T0_RKS1_.exit19, %_ZN5eastl10VectorBaseIbNS_9allocatorEE6DoFreeEPbm.exit
  ret void
}

; Function Attrs: mustprogress uwtable
define weak_odr dso_local void @_ZN5eastl6vectorIbNS_9allocatorEE6resizeEm(ptr noundef nonnull align 8 dereferenceable(24) %this, i64 noundef %n) local_unnamed_addr #0 comdat align 2 personality ptr @__gxx_personality_v0 {
entry:
  %mpEnd = getelementptr inbounds %"struct.eastl::VectorBase", ptr %this, i64 0, i32 1
  %0 = load ptr, ptr %mpEnd, align 8
  %1 = load ptr, ptr %this, align 8
  %sub.ptr.lhs.cast = ptrtoint ptr %0 to i64
  %sub.ptr.rhs.cast = ptrtoint ptr %1 to i64
  %sub.ptr.sub = sub i64 %sub.ptr.lhs.cast, %sub.ptr.rhs.cast
  %cmp = icmp ult i64 %sub.ptr.sub, %n
  br i1 %cmp, label %if.then, label %if.else

if.then:                                          ; preds = %entry
  %sub = sub i64 %n, %sub.ptr.sub
  %mCapacityAllocator.i.i = getelementptr inbounds %"struct.eastl::VectorBase", ptr %this, i64 0, i32 2
  %2 = load ptr, ptr %mCapacityAllocator.i.i, align 8
  %sub.ptr.lhs.cast.i = ptrtoint ptr %2 to i64
  %sub.ptr.sub.i = sub i64 %sub.ptr.lhs.cast.i, %sub.ptr.lhs.cast
  %cmp.i = icmp ult i64 %sub.ptr.sub.i, %sub
  br i1 %cmp.i, label %_ZN5eastl10VectorBaseIbNS_9allocatorEE10DoAllocateEm.exit.i, label %for.body.preheader.i17.i

_ZN5eastl10VectorBaseIbNS_9allocatorEE10DoAllocateEm.exit.i: ; preds = %if.then
  %cmp.not.i.i = icmp eq ptr %0, %1
  %mul.i.i = shl i64 %sub.ptr.sub, 1
  %cond.i.i = select i1 %cmp.not.i.i, i64 1, i64 %mul.i.i
  %cond.i12.i = tail call noundef i64 @llvm.umax.i64(i64 %cond.i.i, i64 %n)
  %call.i.i.i.i = tail call noundef ptr @_ZnamPKcijS0_i(i64 noundef %cond.i12.i, ptr noundef null, i32 noundef 0, i32 noundef 0, ptr noundef null, i32 noundef 0)
  %.pre21.i = load ptr, ptr %this, align 8
  %.pre22.i = load ptr, ptr %mpEnd, align 8
  %cmp.i.i.i.i.i.i.i.i = icmp eq ptr %.pre21.i, %.pre22.i
  br i1 %cmp.i.i.i.i.i.i.i.i, label %_ZN5eastl31uninitialized_value_construct_nIPbmEET_S2_T0_.exit.i, label %if.end.i.i.i.i.i.i.i.i

if.end.i.i.i.i.i.i.i.i:                           ; preds = %_ZN5eastl10VectorBaseIbNS_9allocatorEE10DoAllocateEm.exit.i
  %3 = ptrtoint ptr %.pre22.i to i64
  %4 = ptrtoint ptr %.pre21.i to i64
  %sub.i.i.i.i.i.i.i.i = sub i64 %3, %4
  tail call void @llvm.memmove.p0.p0.i64(ptr align 1 %call.i.i.i.i, ptr align 1 %.pre21.i, i64 %sub.i.i.i.i.i.i.i.i, i1 false)
  %add.ptr.i.i.i.i.i.i.i.i = getelementptr inbounds i8, ptr %call.i.i.i.i, i64 %sub.i.i.i.i.i.i.i.i
  br label %_ZN5eastl31uninitialized_value_construct_nIPbmEET_S2_T0_.exit.i

_ZN5eastl31uninitialized_value_construct_nIPbmEET_S2_T0_.exit.i: ; preds = %if.end.i.i.i.i.i.i.i.i, %_ZN5eastl10VectorBaseIbNS_9allocatorEE10DoAllocateEm.exit.i
  %retval.0.i.i.i.i.i.i.i.i = phi ptr [ %add.ptr.i.i.i.i.i.i.i.i, %if.end.i.i.i.i.i.i.i.i ], [ %call.i.i.i.i, %_ZN5eastl10VectorBaseIbNS_9allocatorEE10DoAllocateEm.exit.i ]
  tail call void @llvm.memset.p0.i64(ptr align 1 %retval.0.i.i.i.i.i.i.i.i, i8 0, i64 %sub, i1 false)
  %add.ptr.i = getelementptr inbounds i8, ptr %retval.0.i.i.i.i.i.i.i.i, i64 %sub
  %5 = load ptr, ptr %this, align 8
  %tobool.not.i14.i = icmp eq ptr %5, null
  br i1 %tobool.not.i14.i, label %_ZN5eastl10VectorBaseIbNS_9allocatorEE6DoFreeEPbm.exit.i, label %_ZN5eastl9allocator10deallocateEPvm.exit.i.i

_ZN5eastl9allocator10deallocateEPvm.exit.i.i:     ; preds = %_ZN5eastl31uninitialized_value_construct_nIPbmEET_S2_T0_.exit.i
  tail call void @_ZdaPv(ptr noundef nonnull %5) #18
  br label %_ZN5eastl10VectorBaseIbNS_9allocatorEE6DoFreeEPbm.exit.i

_ZN5eastl10VectorBaseIbNS_9allocatorEE6DoFreeEPbm.exit.i: ; preds = %_ZN5eastl9allocator10deallocateEPvm.exit.i.i, %_ZN5eastl31uninitialized_value_construct_nIPbmEET_S2_T0_.exit.i
  store ptr %call.i.i.i.i, ptr %this, align 8
  store ptr %add.ptr.i, ptr %mpEnd, align 8
  %add.ptr23.i = getelementptr inbounds i8, ptr %call.i.i.i.i, i64 %cond.i12.i
  store ptr %add.ptr23.i, ptr %mCapacityAllocator.i.i, align 8
  br label %if.end

for.body.preheader.i17.i:                         ; preds = %if.then
  tail call void @llvm.memset.p0.i64(ptr align 1 %0, i8 0, i64 %sub, i1 false)
  %.pre.i = load ptr, ptr %mpEnd, align 8
  %add.ptr28.i = getelementptr inbounds i8, ptr %.pre.i, i64 %sub
  store ptr %add.ptr28.i, ptr %mpEnd, align 8
  br label %if.end

if.else:                                          ; preds = %entry
  %add.ptr10 = getelementptr inbounds i8, ptr %1, i64 %n
  store ptr %add.ptr10, ptr %mpEnd, align 8
  br label %if.end

if.end:                                           ; preds = %for.body.preheader.i17.i, %_ZN5eastl10VectorBaseIbNS_9allocatorEE6DoFreeEPbm.exit.i, %if.else
  ret void
}

; Function Attrs: mustprogress uwtable
define weak_odr dso_local void @_ZN5eastl6vectorIbNS_9allocatorEE17DoInsertValuesEndEm(ptr noundef nonnull align 8 dereferenceable(24) %this, i64 noundef %n) local_unnamed_addr #0 comdat align 2 personality ptr @__gxx_personality_v0 {
entry:
  %mCapacityAllocator.i = getelementptr inbounds %"struct.eastl::VectorBase", ptr %this, i64 0, i32 2
  %0 = load ptr, ptr %mCapacityAllocator.i, align 8
  %mpEnd = getelementptr inbounds %"struct.eastl::VectorBase", ptr %this, i64 0, i32 1
  %1 = load ptr, ptr %mpEnd, align 8
  %sub.ptr.lhs.cast = ptrtoint ptr %0 to i64
  %sub.ptr.rhs.cast = ptrtoint ptr %1 to i64
  %sub.ptr.sub = sub i64 %sub.ptr.lhs.cast, %sub.ptr.rhs.cast
  %cmp = icmp ult i64 %sub.ptr.sub, %n
  br i1 %cmp, label %if.then, label %if.else

if.then:                                          ; preds = %entry
  %2 = load ptr, ptr %this, align 8
  %sub.ptr.rhs.cast4 = ptrtoint ptr %2 to i64
  %sub.ptr.sub5 = sub i64 %sub.ptr.rhs.cast, %sub.ptr.rhs.cast4
  %cmp.not.i = icmp eq ptr %1, %2
  %mul.i = shl i64 %sub.ptr.sub5, 1
  %cond.i = select i1 %cmp.not.i, i64 1, i64 %mul.i
  %add = add i64 %sub.ptr.sub5, %n
  %cond.i12 = tail call noundef i64 @llvm.umax.i64(i64 %cond.i, i64 %add)
  %tobool.not.i = icmp eq i64 %cond.i12, 0
  br i1 %tobool.not.i, label %_ZN5eastl10VectorBaseIbNS_9allocatorEE10DoAllocateEm.exit, label %if.then.i

if.then.i:                                        ; preds = %if.then
  %call.i.i.i = tail call noundef ptr @_ZnamPKcijS0_i(i64 noundef %cond.i12, ptr noundef null, i32 noundef 0, i32 noundef 0, ptr noundef null, i32 noundef 0)
  %.pre21 = load ptr, ptr %this, align 8
  %.pre22 = load ptr, ptr %mpEnd, align 8
  br label %_ZN5eastl10VectorBaseIbNS_9allocatorEE10DoAllocateEm.exit

_ZN5eastl10VectorBaseIbNS_9allocatorEE10DoAllocateEm.exit: ; preds = %if.then, %if.then.i
  %3 = phi ptr [ %.pre22, %if.then.i ], [ %1, %if.then ]
  %4 = phi ptr [ %.pre21, %if.then.i ], [ %2, %if.then ]
  %retval.0.i = phi ptr [ %call.i.i.i, %if.then.i ], [ null, %if.then ]
  %cmp.i.i.i.i.i.i.i = icmp eq ptr %4, %3
  br i1 %cmp.i.i.i.i.i.i.i, label %_ZN5eastl31uninitialized_value_construct_nIPbmEET_S2_T0_.exit, label %if.end.i.i.i.i.i.i.i

if.end.i.i.i.i.i.i.i:                             ; preds = %_ZN5eastl10VectorBaseIbNS_9allocatorEE10DoAllocateEm.exit
  %5 = ptrtoint ptr %3 to i64
  %6 = ptrtoint ptr %4 to i64
  %sub.i.i.i.i.i.i.i = sub i64 %5, %6
  tail call void @llvm.memmove.p0.p0.i64(ptr align 1 %retval.0.i, ptr align 1 %4, i64 %sub.i.i.i.i.i.i.i, i1 false)
  %add.ptr.i.i.i.i.i.i.i = getelementptr inbounds i8, ptr %retval.0.i, i64 %sub.i.i.i.i.i.i.i
  br label %_ZN5eastl31uninitialized_value_construct_nIPbmEET_S2_T0_.exit

_ZN5eastl31uninitialized_value_construct_nIPbmEET_S2_T0_.exit: ; preds = %_ZN5eastl10VectorBaseIbNS_9allocatorEE10DoAllocateEm.exit, %if.end.i.i.i.i.i.i.i
  %retval.0.i.i.i.i.i.i.i = phi ptr [ %add.ptr.i.i.i.i.i.i.i, %if.end.i.i.i.i.i.i.i ], [ %retval.0.i, %_ZN5eastl10VectorBaseIbNS_9allocatorEE10DoAllocateEm.exit ]
  tail call void @llvm.memset.p0.i64(ptr align 1 %retval.0.i.i.i.i.i.i.i, i8 0, i64 %n, i1 false)
  %add.ptr = getelementptr inbounds i8, ptr %retval.0.i.i.i.i.i.i.i, i64 %n
  %7 = load ptr, ptr %this, align 8
  %tobool.not.i14 = icmp eq ptr %7, null
  br i1 %tobool.not.i14, label %_ZN5eastl10VectorBaseIbNS_9allocatorEE6DoFreeEPbm.exit, label %_ZN5eastl9allocator10deallocateEPvm.exit.i

_ZN5eastl9allocator10deallocateEPvm.exit.i:       ; preds = %_ZN5eastl31uninitialized_value_construct_nIPbmEET_S2_T0_.exit
  tail call void @_ZdaPv(ptr noundef nonnull %7) #18
  br label %_ZN5eastl10VectorBaseIbNS_9allocatorEE6DoFreeEPbm.exit

_ZN5eastl10VectorBaseIbNS_9allocatorEE6DoFreeEPbm.exit: ; preds = %_ZN5eastl31uninitialized_value_construct_nIPbmEET_S2_T0_.exit, %_ZN5eastl9allocator10deallocateEPvm.exit.i
  store ptr %retval.0.i, ptr %this, align 8
  store ptr %add.ptr, ptr %mpEnd, align 8
  %add.ptr23 = getelementptr inbounds i8, ptr %retval.0.i, i64 %cond.i12
  store ptr %add.ptr23, ptr %mCapacityAllocator.i, align 8
  br label %if.end

if.else:                                          ; preds = %entry
  %cmp.not4.i16 = icmp eq i64 %n, 0
  br i1 %cmp.not4.i16, label %_ZN5eastl31uninitialized_value_construct_nIPbmEET_S2_T0_.exit20, label %for.body.preheader.i17

for.body.preheader.i17:                           ; preds = %if.else
  tail call void @llvm.memset.p0.i64(ptr align 1 %1, i8 0, i64 %n, i1 false)
  %.pre = load ptr, ptr %mpEnd, align 8
  br label %_ZN5eastl31uninitialized_value_construct_nIPbmEET_S2_T0_.exit20

_ZN5eastl31uninitialized_value_construct_nIPbmEET_S2_T0_.exit20: ; preds = %if.else, %for.body.preheader.i17
  %8 = phi ptr [ %1, %if.else ], [ %.pre, %for.body.preheader.i17 ]
  %add.ptr28 = getelementptr inbounds i8, ptr %8, i64 %n
  store ptr %add.ptr28, ptr %mpEnd, align 8
  br label %if.end

if.end:                                           ; preds = %_ZN5eastl31uninitialized_value_construct_nIPbmEET_S2_T0_.exit20, %_ZN5eastl10VectorBaseIbNS_9allocatorEE6DoFreeEPbm.exit
  ret void
}

; Function Attrs: mustprogress uwtable
define weak_odr dso_local void @_ZN5eastl6vectorIbNS_9allocatorEE7reserveEm(ptr noundef nonnull align 8 dereferenceable(24) %this, i64 noundef %n) local_unnamed_addr #0 comdat align 2 personality ptr @__gxx_personality_v0 {
entry:
  %mCapacityAllocator.i = getelementptr inbounds %"struct.eastl::VectorBase", ptr %this, i64 0, i32 2
  %0 = load ptr, ptr %mCapacityAllocator.i, align 8
  %1 = load ptr, ptr %this, align 8
  %sub.ptr.lhs.cast = ptrtoint ptr %0 to i64
  %sub.ptr.rhs.cast = ptrtoint ptr %1 to i64
  %sub.ptr.sub = sub i64 %sub.ptr.lhs.cast, %sub.ptr.rhs.cast
  %cmp = icmp ult i64 %sub.ptr.sub, %n
  br i1 %cmp, label %_ZN5eastl10VectorBaseIbNS_9allocatorEE10DoAllocateEm.exit.i, label %if.end

_ZN5eastl10VectorBaseIbNS_9allocatorEE10DoAllocateEm.exit.i: ; preds = %entry
  %call.i.i.i.i = tail call noundef ptr @_ZnamPKcijS0_i(i64 noundef %n, ptr noundef null, i32 noundef 0, i32 noundef 0, ptr noundef null, i32 noundef 0)
  %2 = load ptr, ptr %this, align 8
  %mpEnd.i = getelementptr inbounds %"struct.eastl::VectorBase", ptr %this, i64 0, i32 1
  %3 = load ptr, ptr %mpEnd.i, align 8
  %cmp.i.i.i.i.i.i.i.i = icmp eq ptr %2, %3
  br i1 %cmp.i.i.i.i.i.i.i.i, label %_ZN5eastl34uninitialized_move_ptr_if_noexceptIPbS1_S1_EET1_T_T0_S2_.exit.i, label %if.end.i.i.i.i.i.i.i.i

if.end.i.i.i.i.i.i.i.i:                           ; preds = %_ZN5eastl10VectorBaseIbNS_9allocatorEE10DoAllocateEm.exit.i
  %4 = ptrtoint ptr %3 to i64
  %5 = ptrtoint ptr %2 to i64
  %sub.i.i.i.i.i.i.i.i = sub i64 %4, %5
  tail call void @llvm.memmove.p0.p0.i64(ptr align 1 %call.i.i.i.i, ptr align 1 %2, i64 %sub.i.i.i.i.i.i.i.i, i1 false)
  %add.ptr.i.i.i.i.i.i.i.i = getelementptr inbounds i8, ptr %call.i.i.i.i, i64 %sub.i.i.i.i.i.i.i.i
  %.pr.i = load ptr, ptr %this, align 8
  br label %_ZN5eastl34uninitialized_move_ptr_if_noexceptIPbS1_S1_EET1_T_T0_S2_.exit.i

_ZN5eastl34uninitialized_move_ptr_if_noexceptIPbS1_S1_EET1_T_T0_S2_.exit.i: ; preds = %if.end.i.i.i.i.i.i.i.i, %_ZN5eastl10VectorBaseIbNS_9allocatorEE10DoAllocateEm.exit.i
  %6 = phi ptr [ %2, %_ZN5eastl10VectorBaseIbNS_9allocatorEE10DoAllocateEm.exit.i ], [ %.pr.i, %if.end.i.i.i.i.i.i.i.i ]
  %retval.0.i.i.i.i.i.i.i.i = phi ptr [ %call.i.i.i.i, %_ZN5eastl10VectorBaseIbNS_9allocatorEE10DoAllocateEm.exit.i ], [ %add.ptr.i.i.i.i.i.i.i.i, %if.end.i.i.i.i.i.i.i.i ]
  %tobool.not.i4.i = icmp eq ptr %6, null
  br i1 %tobool.not.i4.i, label %_ZN5eastl6vectorIbNS_9allocatorEE6DoGrowEm.exit, label %_ZN5eastl9allocator10deallocateEPvm.exit.i.i

_ZN5eastl9allocator10deallocateEPvm.exit.i.i:     ; preds = %_ZN5eastl34uninitialized_move_ptr_if_noexceptIPbS1_S1_EET1_T_T0_S2_.exit.i
  tail call void @_ZdaPv(ptr noundef nonnull %6) #18
  br label %_ZN5eastl6vectorIbNS_9allocatorEE6DoGrowEm.exit

_ZN5eastl6vectorIbNS_9allocatorEE6DoGrowEm.exit:  ; preds = %_ZN5eastl34uninitialized_move_ptr_if_noexceptIPbS1_S1_EET1_T_T0_S2_.exit.i, %_ZN5eastl9allocator10deallocateEPvm.exit.i.i
  store ptr %call.i.i.i.i, ptr %this, align 8
  store ptr %retval.0.i.i.i.i.i.i.i.i, ptr %mpEnd.i, align 8
  %add.ptr.i = getelementptr inbounds i8, ptr %call.i.i.i.i, i64 %n
  store ptr %add.ptr.i, ptr %mCapacityAllocator.i, align 8
  br label %if.end

if.end:                                           ; preds = %_ZN5eastl6vectorIbNS_9allocatorEE6DoGrowEm.exit, %entry
  ret void
}

; Function Attrs: mustprogress uwtable
define weak_odr dso_local void @_ZN5eastl6vectorIbNS_9allocatorEE6DoGrowEm(ptr noundef nonnull align 8 dereferenceable(24) %this, i64 noundef %n) local_unnamed_addr #0 comdat align 2 personality ptr @__gxx_personality_v0 {
entry:
  %tobool.not.i = icmp eq i64 %n, 0
  br i1 %tobool.not.i, label %_ZN5eastl10VectorBaseIbNS_9allocatorEE10DoAllocateEm.exit, label %if.then.i

if.then.i:                                        ; preds = %entry
  %call.i.i.i = tail call noundef ptr @_ZnamPKcijS0_i(i64 noundef %n, ptr noundef null, i32 noundef 0, i32 noundef 0, ptr noundef null, i32 noundef 0)
  br label %_ZN5eastl10VectorBaseIbNS_9allocatorEE10DoAllocateEm.exit

_ZN5eastl10VectorBaseIbNS_9allocatorEE10DoAllocateEm.exit: ; preds = %entry, %if.then.i
  %retval.0.i = phi ptr [ %call.i.i.i, %if.then.i ], [ null, %entry ]
  %0 = load ptr, ptr %this, align 8
  %mpEnd = getelementptr inbounds %"struct.eastl::VectorBase", ptr %this, i64 0, i32 1
  %1 = load ptr, ptr %mpEnd, align 8
  %cmp.i.i.i.i.i.i.i = icmp eq ptr %0, %1
  br i1 %cmp.i.i.i.i.i.i.i, label %_ZN5eastl34uninitialized_move_ptr_if_noexceptIPbS1_S1_EET1_T_T0_S2_.exit, label %if.end.i.i.i.i.i.i.i

if.end.i.i.i.i.i.i.i:                             ; preds = %_ZN5eastl10VectorBaseIbNS_9allocatorEE10DoAllocateEm.exit
  %2 = ptrtoint ptr %1 to i64
  %3 = ptrtoint ptr %0 to i64
  %sub.i.i.i.i.i.i.i = sub i64 %2, %3
  tail call void @llvm.memmove.p0.p0.i64(ptr align 1 %retval.0.i, ptr align 1 %0, i64 %sub.i.i.i.i.i.i.i, i1 false)
  %add.ptr.i.i.i.i.i.i.i = getelementptr inbounds i8, ptr %retval.0.i, i64 %sub.i.i.i.i.i.i.i
  %.pr = load ptr, ptr %this, align 8
  br label %_ZN5eastl34uninitialized_move_ptr_if_noexceptIPbS1_S1_EET1_T_T0_S2_.exit

_ZN5eastl34uninitialized_move_ptr_if_noexceptIPbS1_S1_EET1_T_T0_S2_.exit: ; preds = %_ZN5eastl10VectorBaseIbNS_9allocatorEE10DoAllocateEm.exit, %if.end.i.i.i.i.i.i.i
  %4 = phi ptr [ %0, %_ZN5eastl10VectorBaseIbNS_9allocatorEE10DoAllocateEm.exit ], [ %.pr, %if.end.i.i.i.i.i.i.i ]
  %retval.0.i.i.i.i.i.i.i = phi ptr [ %retval.0.i, %_ZN5eastl10VectorBaseIbNS_9allocatorEE10DoAllocateEm.exit ], [ %add.ptr.i.i.i.i.i.i.i, %if.end.i.i.i.i.i.i.i ]
  %tobool.not.i4 = icmp eq ptr %4, null
  br i1 %tobool.not.i4, label %_ZN5eastl10VectorBaseIbNS_9allocatorEE6DoFreeEPbm.exit, label %_ZN5eastl9allocator10deallocateEPvm.exit.i

_ZN5eastl9allocator10deallocateEPvm.exit.i:       ; preds = %_ZN5eastl34uninitialized_move_ptr_if_noexceptIPbS1_S1_EET1_T_T0_S2_.exit
  tail call void @_ZdaPv(ptr noundef nonnull %4) #18
  br label %_ZN5eastl10VectorBaseIbNS_9allocatorEE6DoFreeEPbm.exit

_ZN5eastl10VectorBaseIbNS_9allocatorEE6DoFreeEPbm.exit: ; preds = %_ZN5eastl34uninitialized_move_ptr_if_noexceptIPbS1_S1_EET1_T_T0_S2_.exit, %_ZN5eastl9allocator10deallocateEPvm.exit.i
  %mCapacityAllocator.i = getelementptr inbounds %"struct.eastl::VectorBase", ptr %this, i64 0, i32 2
  store ptr %retval.0.i, ptr %this, align 8
  store ptr %retval.0.i.i.i.i.i.i.i, ptr %mpEnd, align 8
  %add.ptr = getelementptr inbounds i8, ptr %retval.0.i, i64 %n
  store ptr %add.ptr, ptr %mCapacityAllocator.i, align 8
  ret void
}

; Function Attrs: mustprogress uwtable
define weak_odr dso_local void @_ZN5eastl6vectorIbNS_9allocatorEE12set_capacityEm(ptr noundef nonnull align 8 dereferenceable(24) %this, i64 noundef %n) local_unnamed_addr #0 comdat align 2 personality ptr @__gxx_personality_v0 {
entry:
  %cond = icmp eq i64 %n, -1
  %mpEnd5.phi.trans.insert = getelementptr inbounds %"struct.eastl::VectorBase", ptr %this, i64 0, i32 1
  %.pre12 = load ptr, ptr %mpEnd5.phi.trans.insert, align 8
  %.pre13 = load ptr, ptr %this, align 8
  %.pre14 = ptrtoint ptr %.pre12 to i64
  %.pre15 = ptrtoint ptr %.pre13 to i64
  %.pre16 = sub i64 %.pre14, %.pre15
  br i1 %cond, label %if.else, label %lor.lhs.false

lor.lhs.false:                                    ; preds = %entry
  %cmp2.not = icmp ult i64 %.pre16, %n
  br i1 %cmp2.not, label %_ZN5eastl10VectorBaseIbNS_9allocatorEE10DoAllocateEm.exit.i, label %if.then

if.then:                                          ; preds = %lor.lhs.false
  %cmp3 = icmp eq i64 %n, 0
  br i1 %cmp3, label %invoke.cont.i, label %if.else

if.else:                                          ; preds = %entry, %if.then
  %cmp10 = icmp ugt i64 %.pre16, %n
  br i1 %cmp10, label %_ZN5eastl6vectorIbNS_9allocatorEE6resizeEm.exit, label %if.end12

_ZN5eastl6vectorIbNS_9allocatorEE6resizeEm.exit:  ; preds = %if.else
  %mpEnd5 = getelementptr inbounds %"struct.eastl::VectorBase", ptr %this, i64 0, i32 1
  %add.ptr10.i = getelementptr inbounds i8, ptr %.pre13, i64 %n
  store ptr %add.ptr10.i, ptr %mpEnd5, align 8
  %.pre17 = ptrtoint ptr %add.ptr10.i to i64
  br label %if.end12

if.end12:                                         ; preds = %if.else, %_ZN5eastl6vectorIbNS_9allocatorEE6resizeEm.exit
  %sub.ptr.lhs.cast.i.i.i.i.i.i.i.pre-phi = phi i64 [ %.pre14, %if.else ], [ %.pre17, %_ZN5eastl6vectorIbNS_9allocatorEE6resizeEm.exit ]
  %0 = phi ptr [ %.pre12, %if.else ], [ %add.ptr10.i, %_ZN5eastl6vectorIbNS_9allocatorEE6resizeEm.exit ]
  %sub.ptr.sub.i.i.i.i.i.i.i = sub i64 %sub.ptr.lhs.cast.i.i.i.i.i.i.i.pre-phi, %.pre15
  %tobool.not.i.i.i.i.i = icmp eq ptr %0, %.pre13
  br i1 %tobool.not.i.i.i.i.i, label %invoke.cont.i, label %for.body.i.i.i.preheader.i.i.i.i

for.body.i.i.i.preheader.i.i.i.i:                 ; preds = %if.end12
  %call.i.i.i.i.i1.i.i = tail call noundef ptr @_ZnamPKcijS0_i(i64 noundef %sub.ptr.sub.i.i.i.i.i.i.i, ptr noundef null, i32 noundef 0, i32 noundef 0, ptr noundef null, i32 noundef 0)
  br label %for.body.i.i.i.i.i.i.i

for.body.i.i.i.i.i.i.i:                           ; preds = %for.body.i.i.i.i.i.i.i, %for.body.i.i.i.preheader.i.i.i.i
  %currentDest.07.i.i.i.i.i.i.i = phi ptr [ %incdec.ptr.i.i.i.i.i.i.i, %for.body.i.i.i.i.i.i.i ], [ %call.i.i.i.i.i1.i.i, %for.body.i.i.i.preheader.i.i.i.i ]
  %first.sroa.0.06.i.i.i.i.i.i.i = phi ptr [ %incdec.ptr.i.i.i.i.i.i.i.i, %for.body.i.i.i.i.i.i.i ], [ %.pre13, %for.body.i.i.i.preheader.i.i.i.i ]
  %1 = load i8, ptr %first.sroa.0.06.i.i.i.i.i.i.i, align 1
  %2 = and i8 %1, 1
  store i8 %2, ptr %currentDest.07.i.i.i.i.i.i.i, align 1
  %incdec.ptr.i.i.i.i.i.i.i.i = getelementptr inbounds i8, ptr %first.sroa.0.06.i.i.i.i.i.i.i, i64 1
  %incdec.ptr.i.i.i.i.i.i.i = getelementptr inbounds i8, ptr %currentDest.07.i.i.i.i.i.i.i, i64 1
  %cmp.i.i.not.i.i.i.i.i.i.i = icmp eq ptr %incdec.ptr.i.i.i.i.i.i.i.i, %0
  br i1 %cmp.i.i.not.i.i.i.i.i.i.i, label %invoke.cont.loopexit.i, label %for.body.i.i.i.i.i.i.i, !llvm.loop !5

invoke.cont.loopexit.i:                           ; preds = %for.body.i.i.i.i.i.i.i
  %.pre.i = load ptr, ptr %this, align 8
  br label %invoke.cont.i

invoke.cont.i:                                    ; preds = %if.then, %invoke.cont.loopexit.i, %if.end12
  %sub.ptr.sub.i.i.i.i.i.i.i24 = phi i64 [ %sub.ptr.sub.i.i.i.i.i.i.i, %if.end12 ], [ %sub.ptr.sub.i.i.i.i.i.i.i, %invoke.cont.loopexit.i ], [ 0, %if.then ]
  %3 = phi ptr [ %0, %if.end12 ], [ %.pre.i, %invoke.cont.loopexit.i ], [ %.pre13, %if.then ]
  %temp.sroa.0.0.i = phi ptr [ null, %if.end12 ], [ %call.i.i.i.i.i1.i.i, %invoke.cont.loopexit.i ], [ null, %if.then ]
  %mpEnd.i.i23 = getelementptr inbounds %"struct.eastl::VectorBase", ptr %this, i64 0, i32 1
  %temp.sroa.11.0.i = getelementptr inbounds i8, ptr %temp.sroa.0.0.i, i64 %sub.ptr.sub.i.i.i.i.i.i.i24
  store ptr %temp.sroa.0.0.i, ptr %this, align 8
  store ptr %temp.sroa.11.0.i, ptr %mpEnd.i.i23, align 8
  %mCapacityAllocator.i2.i = getelementptr inbounds %"struct.eastl::VectorBase", ptr %this, i64 0, i32 2
  store ptr %temp.sroa.11.0.i, ptr %mCapacityAllocator.i2.i, align 8
  %tobool.not.i.i3.i = icmp eq ptr %3, null
  br i1 %tobool.not.i.i3.i, label %if.end34, label %_ZN5eastl9allocator10deallocateEPvm.exit.i.i4.i

_ZN5eastl9allocator10deallocateEPvm.exit.i.i4.i:  ; preds = %invoke.cont.i
  tail call void @_ZdaPv(ptr noundef nonnull %3) #18
  br label %if.end34

_ZN5eastl10VectorBaseIbNS_9allocatorEE10DoAllocateEm.exit.i: ; preds = %lor.lhs.false
  %call.i.i.i.i = tail call noundef ptr @_ZnamPKcijS0_i(i64 noundef %n, ptr noundef null, i32 noundef 0, i32 noundef 0, ptr noundef null, i32 noundef 0)
  %cmp.i.i.i.i.i.i.i.i = icmp eq ptr %.pre13, %.pre12
  br i1 %cmp.i.i.i.i.i.i.i.i, label %_ZN5eastl6vectorIbNS_9allocatorEE9DoReallocIPbEES4_mT_S5_NS2_23should_move_or_copy_tagILb1EEE.exit, label %if.end.i.i.i.i.i.i.i.i

if.end.i.i.i.i.i.i.i.i:                           ; preds = %_ZN5eastl10VectorBaseIbNS_9allocatorEE10DoAllocateEm.exit.i
  tail call void @llvm.memmove.p0.p0.i64(ptr align 1 %call.i.i.i.i, ptr align 1 %.pre13, i64 %.pre16, i1 false)
  br label %_ZN5eastl6vectorIbNS_9allocatorEE9DoReallocIPbEES4_mT_S5_NS2_23should_move_or_copy_tagILb1EEE.exit

_ZN5eastl6vectorIbNS_9allocatorEE9DoReallocIPbEES4_mT_S5_NS2_23should_move_or_copy_tagILb1EEE.exit: ; preds = %_ZN5eastl10VectorBaseIbNS_9allocatorEE10DoAllocateEm.exit.i, %if.end.i.i.i.i.i.i.i.i
  %4 = load ptr, ptr %this, align 8
  %mCapacityAllocator.i = getelementptr inbounds %"struct.eastl::VectorBase", ptr %this, i64 0, i32 2
  %tobool.not.i = icmp eq ptr %4, null
  br i1 %tobool.not.i, label %_ZN5eastl10VectorBaseIbNS_9allocatorEE6DoFreeEPbm.exit, label %_ZN5eastl9allocator10deallocateEPvm.exit.i

_ZN5eastl9allocator10deallocateEPvm.exit.i:       ; preds = %_ZN5eastl6vectorIbNS_9allocatorEE9DoReallocIPbEES4_mT_S5_NS2_23should_move_or_copy_tagILb1EEE.exit
  tail call void @_ZdaPv(ptr noundef nonnull %4) #18
  %.pre = load ptr, ptr %this, align 8
  %5 = ptrtoint ptr %.pre to i64
  br label %_ZN5eastl10VectorBaseIbNS_9allocatorEE6DoFreeEPbm.exit

_ZN5eastl10VectorBaseIbNS_9allocatorEE6DoFreeEPbm.exit: ; preds = %_ZN5eastl6vectorIbNS_9allocatorEE9DoReallocIPbEES4_mT_S5_NS2_23should_move_or_copy_tagILb1EEE.exit, %_ZN5eastl9allocator10deallocateEPvm.exit.i
  %sub.ptr.rhs.cast27 = phi i64 [ 0, %_ZN5eastl6vectorIbNS_9allocatorEE9DoReallocIPbEES4_mT_S5_NS2_23should_move_or_copy_tagILb1EEE.exit ], [ %5, %_ZN5eastl9allocator10deallocateEPvm.exit.i ]
  %6 = load ptr, ptr %mpEnd5.phi.trans.insert, align 8
  %sub.ptr.lhs.cast26 = ptrtoint ptr %6 to i64
  %sub.ptr.sub28 = sub i64 %sub.ptr.lhs.cast26, %sub.ptr.rhs.cast27
  store ptr %call.i.i.i.i, ptr %this, align 8
  %add.ptr = getelementptr inbounds i8, ptr %call.i.i.i.i, i64 %sub.ptr.sub28
  store ptr %add.ptr, ptr %mpEnd5.phi.trans.insert, align 8
  %add.ptr32 = getelementptr inbounds i8, ptr %call.i.i.i.i, i64 %n
  store ptr %add.ptr32, ptr %mCapacityAllocator.i, align 8
  br label %if.end34

if.end34:                                         ; preds = %_ZN5eastl9allocator10deallocateEPvm.exit.i.i4.i, %invoke.cont.i, %_ZN5eastl10VectorBaseIbNS_9allocatorEE6DoFreeEPbm.exit
  ret void
}

; Function Attrs: mustprogress nounwind uwtable
define weak_odr dso_local void @_ZN5eastl6vectorIbNS_9allocatorEE5clearEv(ptr noundef nonnull align 8 dereferenceable(24) %this) local_unnamed_addr #1 comdat align 2 personality ptr @__gxx_personality_v0 {
invoke.cont:
  %mpEnd = getelementptr inbounds %"struct.eastl::VectorBase", ptr %this, i64 0, i32 1
  %0 = load ptr, ptr %this, align 8
  store ptr %0, ptr %mpEnd, align 8
  ret void
}

; Function Attrs: mustprogress uwtable
define weak_odr dso_local void @_ZN5eastl6vectorIbNS_9allocatorEE13shrink_to_fitEv(ptr noundef nonnull align 8 dereferenceable(24) %this) local_unnamed_addr #0 comdat align 2 personality ptr @__gxx_personality_v0 {
entry:
  %0 = load ptr, ptr %this, align 8
  %mpEnd.i = getelementptr inbounds %"struct.eastl::VectorBase", ptr %this, i64 0, i32 1
  %1 = load ptr, ptr %mpEnd.i, align 8
  %sub.ptr.lhs.cast.i.i.i.i.i.i = ptrtoint ptr %1 to i64
  %sub.ptr.rhs.cast.i.i.i.i.i.i = ptrtoint ptr %0 to i64
  %sub.ptr.sub.i.i.i.i.i.i = sub i64 %sub.ptr.lhs.cast.i.i.i.i.i.i, %sub.ptr.rhs.cast.i.i.i.i.i.i
  %tobool.not.i.i.i.i = icmp eq ptr %1, %0
  br i1 %tobool.not.i.i.i.i, label %invoke.cont, label %for.body.i.i.i.preheader.i.i.i

for.body.i.i.i.preheader.i.i.i:                   ; preds = %entry
  %call.i.i.i.i.i1.i = tail call noundef ptr @_ZnamPKcijS0_i(i64 noundef %sub.ptr.sub.i.i.i.i.i.i, ptr noundef null, i32 noundef 0, i32 noundef 0, ptr noundef null, i32 noundef 0)
  br label %for.body.i.i.i.i.i.i

for.body.i.i.i.i.i.i:                             ; preds = %for.body.i.i.i.i.i.i, %for.body.i.i.i.preheader.i.i.i
  %currentDest.07.i.i.i.i.i.i = phi ptr [ %incdec.ptr.i.i.i.i.i.i, %for.body.i.i.i.i.i.i ], [ %call.i.i.i.i.i1.i, %for.body.i.i.i.preheader.i.i.i ]
  %first.sroa.0.06.i.i.i.i.i.i = phi ptr [ %incdec.ptr.i.i.i.i.i.i.i, %for.body.i.i.i.i.i.i ], [ %0, %for.body.i.i.i.preheader.i.i.i ]
  %2 = load i8, ptr %first.sroa.0.06.i.i.i.i.i.i, align 1
  %3 = and i8 %2, 1
  store i8 %3, ptr %currentDest.07.i.i.i.i.i.i, align 1
  %incdec.ptr.i.i.i.i.i.i.i = getelementptr inbounds i8, ptr %first.sroa.0.06.i.i.i.i.i.i, i64 1
  %incdec.ptr.i.i.i.i.i.i = getelementptr inbounds i8, ptr %currentDest.07.i.i.i.i.i.i, i64 1
  %cmp.i.i.not.i.i.i.i.i.i = icmp eq ptr %incdec.ptr.i.i.i.i.i.i.i, %1
  br i1 %cmp.i.i.not.i.i.i.i.i.i, label %invoke.cont.loopexit, label %for.body.i.i.i.i.i.i, !llvm.loop !5

invoke.cont.loopexit:                             ; preds = %for.body.i.i.i.i.i.i
  %.pre = load ptr, ptr %this, align 8
  br label %invoke.cont

invoke.cont:                                      ; preds = %invoke.cont.loopexit, %entry
  %4 = phi ptr [ %0, %entry ], [ %.pre, %invoke.cont.loopexit ]
  %temp.sroa.0.0 = phi ptr [ null, %entry ], [ %call.i.i.i.i.i1.i, %invoke.cont.loopexit ]
  %temp.sroa.11.0 = getelementptr inbounds i8, ptr %temp.sroa.0.0, i64 %sub.ptr.sub.i.i.i.i.i.i
  store ptr %temp.sroa.0.0, ptr %this, align 8
  store ptr %temp.sroa.11.0, ptr %mpEnd.i, align 8
  %mCapacityAllocator.i2 = getelementptr inbounds %"struct.eastl::VectorBase", ptr %this, i64 0, i32 2
  store ptr %temp.sroa.11.0, ptr %mCapacityAllocator.i2, align 8
  %tobool.not.i.i3 = icmp eq ptr %4, null
  br i1 %tobool.not.i.i3, label %_ZN5eastl6vectorIbNS_9allocatorEED2Ev.exit, label %_ZN5eastl9allocator10deallocateEPvm.exit.i.i4

_ZN5eastl9allocator10deallocateEPvm.exit.i.i4:    ; preds = %invoke.cont
  tail call void @_ZdaPv(ptr noundef nonnull %4) #18
  br label %_ZN5eastl6vectorIbNS_9allocatorEED2Ev.exit

_ZN5eastl6vectorIbNS_9allocatorEED2Ev.exit:       ; preds = %invoke.cont, %_ZN5eastl9allocator10deallocateEPvm.exit.i.i4
  ret void
}

; Function Attrs: mustprogress nounwind uwtable
define weak_odr dso_local noundef ptr @_ZN5eastl6vectorIbNS_9allocatorEE4dataEv(ptr noundef nonnull align 8 dereferenceable(24) %this) local_unnamed_addr #1 comdat align 2 {
entry:
  %0 = load ptr, ptr %this, align 8
  ret ptr %0
}

; Function Attrs: mustprogress nounwind uwtable
define weak_odr dso_local noundef ptr @_ZNK5eastl6vectorIbNS_9allocatorEE4dataEv(ptr noundef nonnull align 8 dereferenceable(24) %this) local_unnamed_addr #1 comdat align 2 {
entry:
  %0 = load ptr, ptr %this, align 8
  ret ptr %0
}

; Function Attrs: mustprogress nounwind uwtable
define weak_odr dso_local noundef nonnull align 1 dereferenceable(1) ptr @_ZN5eastl6vectorIbNS_9allocatorEEixEm(ptr noundef nonnull align 8 dereferenceable(24) %this, i64 noundef %n) local_unnamed_addr #1 comdat align 2 {
entry:
  %0 = load ptr, ptr %this, align 8
  %add.ptr = getelementptr inbounds i8, ptr %0, i64 %n
  ret ptr %add.ptr
}

; Function Attrs: mustprogress nounwind uwtable
define weak_odr dso_local noundef nonnull align 1 dereferenceable(1) ptr @_ZNK5eastl6vectorIbNS_9allocatorEEixEm(ptr noundef nonnull align 8 dereferenceable(24) %this, i64 noundef %n) local_unnamed_addr #1 comdat align 2 {
entry:
  %0 = load ptr, ptr %this, align 8
  %add.ptr = getelementptr inbounds i8, ptr %0, i64 %n
  ret ptr %add.ptr
}

; Function Attrs: mustprogress nounwind uwtable
define weak_odr dso_local noundef nonnull align 1 dereferenceable(1) ptr @_ZN5eastl6vectorIbNS_9allocatorEE2atEm(ptr noundef nonnull align 8 dereferenceable(24) %this, i64 noundef %n) local_unnamed_addr #1 comdat align 2 {
entry:
  %0 = load ptr, ptr %this, align 8
  %add.ptr = getelementptr inbounds i8, ptr %0, i64 %n
  ret ptr %add.ptr
}

; Function Attrs: mustprogress nounwind uwtable
define weak_odr dso_local noundef nonnull align 1 dereferenceable(1) ptr @_ZNK5eastl6vectorIbNS_9allocatorEE2atEm(ptr noundef nonnull align 8 dereferenceable(24) %this, i64 noundef %n) local_unnamed_addr #1 comdat align 2 {
entry:
  %0 = load ptr, ptr %this, align 8
  %add.ptr = getelementptr inbounds i8, ptr %0, i64 %n
  ret ptr %add.ptr
}

; Function Attrs: mustprogress nounwind uwtable
define weak_odr dso_local noundef nonnull align 1 dereferenceable(1) ptr @_ZN5eastl6vectorIbNS_9allocatorEE5frontEv(ptr noundef nonnull align 8 dereferenceable(24) %this) local_unnamed_addr #1 comdat align 2 {
entry:
  %0 = load ptr, ptr %this, align 8
  ret ptr %0
}

; Function Attrs: mustprogress nounwind uwtable
define weak_odr dso_local noundef nonnull align 1 dereferenceable(1) ptr @_ZNK5eastl6vectorIbNS_9allocatorEE5frontEv(ptr noundef nonnull align 8 dereferenceable(24) %this) local_unnamed_addr #1 comdat align 2 {
entry:
  %0 = load ptr, ptr %this, align 8
  ret ptr %0
}

; Function Attrs: mustprogress nounwind uwtable
define weak_odr dso_local noundef nonnull align 1 dereferenceable(1) ptr @_ZN5eastl6vectorIbNS_9allocatorEE4backEv(ptr noundef nonnull align 8 dereferenceable(24) %this) local_unnamed_addr #1 comdat align 2 {
entry:
  %mpEnd = getelementptr inbounds %"struct.eastl::VectorBase", ptr %this, i64 0, i32 1
  %0 = load ptr, ptr %mpEnd, align 8
  %add.ptr = getelementptr inbounds i8, ptr %0, i64 -1
  ret ptr %add.ptr
}

; Function Attrs: mustprogress nounwind uwtable
define weak_odr dso_local noundef nonnull align 1 dereferenceable(1) ptr @_ZNK5eastl6vectorIbNS_9allocatorEE4backEv(ptr noundef nonnull align 8 dereferenceable(24) %this) local_unnamed_addr #1 comdat align 2 {
entry:
  %mpEnd = getelementptr inbounds %"struct.eastl::VectorBase", ptr %this, i64 0, i32 1
  %0 = load ptr, ptr %mpEnd, align 8
  %add.ptr = getelementptr inbounds i8, ptr %0, i64 -1
  ret ptr %add.ptr
}

; Function Attrs: mustprogress uwtable
define weak_odr dso_local void @_ZN5eastl6vectorIbNS_9allocatorEE9push_backERKb(ptr noundef nonnull align 8 dereferenceable(24) %this, ptr noundef nonnull align 1 dereferenceable(1) %value) local_unnamed_addr #0 comdat align 2 personality ptr @__gxx_personality_v0 {
entry:
  %mpEnd = getelementptr inbounds %"struct.eastl::VectorBase", ptr %this, i64 0, i32 1
  %0 = load ptr, ptr %mpEnd, align 8
  %mCapacityAllocator.i = getelementptr inbounds %"struct.eastl::VectorBase", ptr %this, i64 0, i32 2
  %1 = load ptr, ptr %mCapacityAllocator.i, align 8
  %cmp = icmp ult ptr %0, %1
  br i1 %cmp, label %if.then, label %if.else

if.then:                                          ; preds = %entry
  %incdec.ptr = getelementptr inbounds i8, ptr %0, i64 1
  store ptr %incdec.ptr, ptr %mpEnd, align 8
  %2 = load i8, ptr %value, align 1
  %3 = and i8 %2, 1
  store i8 %3, ptr %0, align 1
  br label %if.end

if.else:                                          ; preds = %entry
  %4 = load ptr, ptr %this, align 8
  %sub.ptr.lhs.cast.i = ptrtoint ptr %0 to i64
  %sub.ptr.rhs.cast.i = ptrtoint ptr %4 to i64
  %sub.ptr.sub.i = sub i64 %sub.ptr.lhs.cast.i, %sub.ptr.rhs.cast.i
  %cmp.not.i.i = icmp eq ptr %0, %4
  %mul.i.i = shl i64 %sub.ptr.sub.i, 1
  %cond.i.i = select i1 %cmp.not.i.i, i64 1, i64 %mul.i.i
  %tobool.not.i.i = icmp eq i64 %cond.i.i, 0
  br i1 %tobool.not.i.i, label %_ZN5eastl10VectorBaseIbNS_9allocatorEE10DoAllocateEm.exit.i, label %if.then.i.i

if.then.i.i:                                      ; preds = %if.else
  %call.i.i.i.i = tail call noundef ptr @_ZnamPKcijS0_i(i64 noundef %cond.i.i, ptr noundef null, i32 noundef 0, i32 noundef 0, ptr noundef null, i32 noundef 0)
  %.pre.i = load ptr, ptr %this, align 8
  %.pre8.i = load ptr, ptr %mpEnd, align 8
  br label %_ZN5eastl10VectorBaseIbNS_9allocatorEE10DoAllocateEm.exit.i

_ZN5eastl10VectorBaseIbNS_9allocatorEE10DoAllocateEm.exit.i: ; preds = %if.then.i.i, %if.else
  %5 = phi ptr [ %.pre8.i, %if.then.i.i ], [ %0, %if.else ]
  %6 = phi ptr [ %.pre.i, %if.then.i.i ], [ %4, %if.else ]
  %retval.0.i.i = phi ptr [ %call.i.i.i.i, %if.then.i.i ], [ null, %if.else ]
  %cmp.i.i.i.i.i.i.i.i = icmp eq ptr %6, %5
  br i1 %cmp.i.i.i.i.i.i.i.i, label %_ZN5eastl34uninitialized_move_ptr_if_noexceptIPbS1_S1_EET1_T_T0_S2_.exit.i, label %if.end.i.i.i.i.i.i.i.i

if.end.i.i.i.i.i.i.i.i:                           ; preds = %_ZN5eastl10VectorBaseIbNS_9allocatorEE10DoAllocateEm.exit.i
  %7 = ptrtoint ptr %5 to i64
  %8 = ptrtoint ptr %6 to i64
  %sub.i.i.i.i.i.i.i.i = sub i64 %7, %8
  tail call void @llvm.memmove.p0.p0.i64(ptr align 1 %retval.0.i.i, ptr align 1 %6, i64 %sub.i.i.i.i.i.i.i.i, i1 false)
  %add.ptr.i.i.i.i.i.i.i.i = getelementptr inbounds i8, ptr %retval.0.i.i, i64 %sub.i.i.i.i.i.i.i.i
  br label %_ZN5eastl34uninitialized_move_ptr_if_noexceptIPbS1_S1_EET1_T_T0_S2_.exit.i

_ZN5eastl34uninitialized_move_ptr_if_noexceptIPbS1_S1_EET1_T_T0_S2_.exit.i: ; preds = %if.end.i.i.i.i.i.i.i.i, %_ZN5eastl10VectorBaseIbNS_9allocatorEE10DoAllocateEm.exit.i
  %retval.0.i.i.i.i.i.i.i.i = phi ptr [ %add.ptr.i.i.i.i.i.i.i.i, %if.end.i.i.i.i.i.i.i.i ], [ %retval.0.i.i, %_ZN5eastl10VectorBaseIbNS_9allocatorEE10DoAllocateEm.exit.i ]
  %9 = load i8, ptr %value, align 1
  %10 = and i8 %9, 1
  store i8 %10, ptr %retval.0.i.i.i.i.i.i.i.i, align 1
  %11 = load ptr, ptr %this, align 8
  %tobool.not.i6.i = icmp eq ptr %11, null
  br i1 %tobool.not.i6.i, label %_ZN5eastl6vectorIbNS_9allocatorEE16DoInsertValueEndIJRKbEEEvDpOT_.exit, label %_ZN5eastl9allocator10deallocateEPvm.exit.i.i

_ZN5eastl9allocator10deallocateEPvm.exit.i.i:     ; preds = %_ZN5eastl34uninitialized_move_ptr_if_noexceptIPbS1_S1_EET1_T_T0_S2_.exit.i
  tail call void @_ZdaPv(ptr noundef nonnull %11) #18
  br label %_ZN5eastl6vectorIbNS_9allocatorEE16DoInsertValueEndIJRKbEEEvDpOT_.exit

_ZN5eastl6vectorIbNS_9allocatorEE16DoInsertValueEndIJRKbEEEvDpOT_.exit: ; preds = %_ZN5eastl34uninitialized_move_ptr_if_noexceptIPbS1_S1_EET1_T_T0_S2_.exit.i, %_ZN5eastl9allocator10deallocateEPvm.exit.i.i
  %incdec.ptr.i = getelementptr inbounds i8, ptr %retval.0.i.i.i.i.i.i.i.i, i64 1
  store ptr %retval.0.i.i, ptr %this, align 8
  store ptr %incdec.ptr.i, ptr %mpEnd, align 8
  %add.ptr.i = getelementptr inbounds i8, ptr %retval.0.i.i, i64 %cond.i.i
  store ptr %add.ptr.i, ptr %mCapacityAllocator.i, align 8
  br label %if.end

if.end:                                           ; preds = %_ZN5eastl6vectorIbNS_9allocatorEE16DoInsertValueEndIJRKbEEEvDpOT_.exit, %if.then
  ret void
}

; Function Attrs: mustprogress uwtable
define weak_odr dso_local noundef nonnull align 1 dereferenceable(1) ptr @_ZN5eastl6vectorIbNS_9allocatorEE9push_backEv(ptr noundef nonnull align 8 dereferenceable(24) %this) local_unnamed_addr #0 comdat align 2 personality ptr @__gxx_personality_v0 {
entry:
  %mpEnd = getelementptr inbounds %"struct.eastl::VectorBase", ptr %this, i64 0, i32 1
  %0 = load ptr, ptr %mpEnd, align 8
  %mCapacityAllocator.i = getelementptr inbounds %"struct.eastl::VectorBase", ptr %this, i64 0, i32 2
  %1 = load ptr, ptr %mCapacityAllocator.i, align 8
  %cmp = icmp ult ptr %0, %1
  br i1 %cmp, label %if.then, label %if.else

if.then:                                          ; preds = %entry
  %incdec.ptr = getelementptr inbounds i8, ptr %0, i64 1
  store ptr %incdec.ptr, ptr %mpEnd, align 8
  store i8 0, ptr %0, align 1
  %.pre = load ptr, ptr %mpEnd, align 8
  br label %if.end

if.else:                                          ; preds = %entry
  %2 = load ptr, ptr %this, align 8
  %sub.ptr.lhs.cast.i = ptrtoint ptr %0 to i64
  %sub.ptr.rhs.cast.i = ptrtoint ptr %2 to i64
  %sub.ptr.sub.i = sub i64 %sub.ptr.lhs.cast.i, %sub.ptr.rhs.cast.i
  %cmp.not.i.i = icmp eq ptr %0, %2
  %mul.i.i = shl i64 %sub.ptr.sub.i, 1
  %cond.i.i = select i1 %cmp.not.i.i, i64 1, i64 %mul.i.i
  %tobool.not.i.i = icmp eq i64 %cond.i.i, 0
  br i1 %tobool.not.i.i, label %_ZN5eastl10VectorBaseIbNS_9allocatorEE10DoAllocateEm.exit.i, label %if.then.i.i

if.then.i.i:                                      ; preds = %if.else
  %call.i.i.i.i = tail call noundef ptr @_ZnamPKcijS0_i(i64 noundef %cond.i.i, ptr noundef null, i32 noundef 0, i32 noundef 0, ptr noundef null, i32 noundef 0)
  %.pre.i = load ptr, ptr %this, align 8
  %.pre8.i = load ptr, ptr %mpEnd, align 8
  br label %_ZN5eastl10VectorBaseIbNS_9allocatorEE10DoAllocateEm.exit.i

_ZN5eastl10VectorBaseIbNS_9allocatorEE10DoAllocateEm.exit.i: ; preds = %if.then.i.i, %if.else
  %3 = phi ptr [ %.pre8.i, %if.then.i.i ], [ %0, %if.else ]
  %4 = phi ptr [ %.pre.i, %if.then.i.i ], [ %2, %if.else ]
  %retval.0.i.i = phi ptr [ %call.i.i.i.i, %if.then.i.i ], [ null, %if.else ]
  %cmp.i.i.i.i.i.i.i.i = icmp eq ptr %4, %3
  br i1 %cmp.i.i.i.i.i.i.i.i, label %_ZN5eastl34uninitialized_move_ptr_if_noexceptIPbS1_S1_EET1_T_T0_S2_.exit.i, label %if.end.i.i.i.i.i.i.i.i

if.end.i.i.i.i.i.i.i.i:                           ; preds = %_ZN5eastl10VectorBaseIbNS_9allocatorEE10DoAllocateEm.exit.i
  %5 = ptrtoint ptr %3 to i64
  %6 = ptrtoint ptr %4 to i64
  %sub.i.i.i.i.i.i.i.i = sub i64 %5, %6
  tail call void @llvm.memmove.p0.p0.i64(ptr align 1 %retval.0.i.i, ptr align 1 %4, i64 %sub.i.i.i.i.i.i.i.i, i1 false)
  %add.ptr.i.i.i.i.i.i.i.i = getelementptr inbounds i8, ptr %retval.0.i.i, i64 %sub.i.i.i.i.i.i.i.i
  br label %_ZN5eastl34uninitialized_move_ptr_if_noexceptIPbS1_S1_EET1_T_T0_S2_.exit.i

_ZN5eastl34uninitialized_move_ptr_if_noexceptIPbS1_S1_EET1_T_T0_S2_.exit.i: ; preds = %if.end.i.i.i.i.i.i.i.i, %_ZN5eastl10VectorBaseIbNS_9allocatorEE10DoAllocateEm.exit.i
  %retval.0.i.i.i.i.i.i.i.i = phi ptr [ %add.ptr.i.i.i.i.i.i.i.i, %if.end.i.i.i.i.i.i.i.i ], [ %retval.0.i.i, %_ZN5eastl10VectorBaseIbNS_9allocatorEE10DoAllocateEm.exit.i ]
  store i8 0, ptr %retval.0.i.i.i.i.i.i.i.i, align 1
  %7 = load ptr, ptr %this, align 8
  %tobool.not.i6.i = icmp eq ptr %7, null
  br i1 %tobool.not.i6.i, label %_ZN5eastl6vectorIbNS_9allocatorEE16DoInsertValueEndIJbEEEvDpOT_.exit, label %_ZN5eastl9allocator10deallocateEPvm.exit.i.i

_ZN5eastl9allocator10deallocateEPvm.exit.i.i:     ; preds = %_ZN5eastl34uninitialized_move_ptr_if_noexceptIPbS1_S1_EET1_T_T0_S2_.exit.i
  tail call void @_ZdaPv(ptr noundef nonnull %7) #18
  br label %_ZN5eastl6vectorIbNS_9allocatorEE16DoInsertValueEndIJbEEEvDpOT_.exit

_ZN5eastl6vectorIbNS_9allocatorEE16DoInsertValueEndIJbEEEvDpOT_.exit: ; preds = %_ZN5eastl34uninitialized_move_ptr_if_noexceptIPbS1_S1_EET1_T_T0_S2_.exit.i, %_ZN5eastl9allocator10deallocateEPvm.exit.i.i
  %incdec.ptr.i = getelementptr inbounds i8, ptr %retval.0.i.i.i.i.i.i.i.i, i64 1
  store ptr %retval.0.i.i, ptr %this, align 8
  store ptr %incdec.ptr.i, ptr %mpEnd, align 8
  %add.ptr.i = getelementptr inbounds i8, ptr %retval.0.i.i, i64 %cond.i.i
  store ptr %add.ptr.i, ptr %mCapacityAllocator.i, align 8
  br label %if.end

if.end:                                           ; preds = %_ZN5eastl6vectorIbNS_9allocatorEE16DoInsertValueEndIJbEEEvDpOT_.exit, %if.then
  %8 = phi ptr [ %incdec.ptr.i, %_ZN5eastl6vectorIbNS_9allocatorEE16DoInsertValueEndIJbEEEvDpOT_.exit ], [ %.pre, %if.then ]
  %add.ptr = getelementptr inbounds i8, ptr %8, i64 -1
  ret ptr %add.ptr
}

; Function Attrs: mustprogress uwtable
define weak_odr dso_local noundef ptr @_ZN5eastl6vectorIbNS_9allocatorEE23push_back_uninitializedEv(ptr noundef nonnull align 8 dereferenceable(24) %this) local_unnamed_addr #0 comdat align 2 personality ptr @__gxx_personality_v0 {
entry:
  %mpEnd = getelementptr inbounds %"struct.eastl::VectorBase", ptr %this, i64 0, i32 1
  %0 = load ptr, ptr %mpEnd, align 8
  %mCapacityAllocator.i = getelementptr inbounds %"struct.eastl::VectorBase", ptr %this, i64 0, i32 2
  %1 = load ptr, ptr %mCapacityAllocator.i, align 8
  %cmp = icmp eq ptr %0, %1
  br i1 %cmp, label %if.then, label %if.end

if.then:                                          ; preds = %entry
  %2 = load ptr, ptr %this, align 8
  %sub.ptr.lhs.cast = ptrtoint ptr %0 to i64
  %sub.ptr.rhs.cast = ptrtoint ptr %2 to i64
  %sub.ptr.sub = sub i64 %sub.ptr.lhs.cast, %sub.ptr.rhs.cast
  %cmp.not.i = icmp eq ptr %0, %2
  %mul.i = shl i64 %sub.ptr.sub, 1
  %cond.i = select i1 %cmp.not.i, i64 1, i64 %mul.i
  %tobool.not.i.i = icmp eq i64 %cond.i, 0
  br i1 %tobool.not.i.i, label %_ZN5eastl10VectorBaseIbNS_9allocatorEE10DoAllocateEm.exit.i, label %if.then.i.i

if.then.i.i:                                      ; preds = %if.then
  %call.i.i.i.i = tail call noundef ptr @_ZnamPKcijS0_i(i64 noundef %cond.i, ptr noundef null, i32 noundef 0, i32 noundef 0, ptr noundef null, i32 noundef 0)
  %.pre = load ptr, ptr %this, align 8
  %.pre1 = load ptr, ptr %mpEnd, align 8
  br label %_ZN5eastl10VectorBaseIbNS_9allocatorEE10DoAllocateEm.exit.i

_ZN5eastl10VectorBaseIbNS_9allocatorEE10DoAllocateEm.exit.i: ; preds = %if.then.i.i, %if.then
  %3 = phi ptr [ %.pre1, %if.then.i.i ], [ %0, %if.then ]
  %4 = phi ptr [ %.pre, %if.then.i.i ], [ %2, %if.then ]
  %retval.0.i.i = phi ptr [ %call.i.i.i.i, %if.then.i.i ], [ null, %if.then ]
  %cmp.i.i.i.i.i.i.i.i = icmp eq ptr %4, %3
  br i1 %cmp.i.i.i.i.i.i.i.i, label %_ZN5eastl34uninitialized_move_ptr_if_noexceptIPbS1_S1_EET1_T_T0_S2_.exit.i, label %if.end.i.i.i.i.i.i.i.i

if.end.i.i.i.i.i.i.i.i:                           ; preds = %_ZN5eastl10VectorBaseIbNS_9allocatorEE10DoAllocateEm.exit.i
  %5 = ptrtoint ptr %3 to i64
  %6 = ptrtoint ptr %4 to i64
  %sub.i.i.i.i.i.i.i.i = sub i64 %5, %6
  tail call void @llvm.memmove.p0.p0.i64(ptr align 1 %retval.0.i.i, ptr align 1 %4, i64 %sub.i.i.i.i.i.i.i.i, i1 false)
  %add.ptr.i.i.i.i.i.i.i.i = getelementptr inbounds i8, ptr %retval.0.i.i, i64 %sub.i.i.i.i.i.i.i.i
  %.pr.i = load ptr, ptr %this, align 8
  br label %_ZN5eastl34uninitialized_move_ptr_if_noexceptIPbS1_S1_EET1_T_T0_S2_.exit.i

_ZN5eastl34uninitialized_move_ptr_if_noexceptIPbS1_S1_EET1_T_T0_S2_.exit.i: ; preds = %if.end.i.i.i.i.i.i.i.i, %_ZN5eastl10VectorBaseIbNS_9allocatorEE10DoAllocateEm.exit.i
  %7 = phi ptr [ %3, %_ZN5eastl10VectorBaseIbNS_9allocatorEE10DoAllocateEm.exit.i ], [ %.pr.i, %if.end.i.i.i.i.i.i.i.i ]
  %retval.0.i.i.i.i.i.i.i.i = phi ptr [ %retval.0.i.i, %_ZN5eastl10VectorBaseIbNS_9allocatorEE10DoAllocateEm.exit.i ], [ %add.ptr.i.i.i.i.i.i.i.i, %if.end.i.i.i.i.i.i.i.i ]
  %tobool.not.i4.i = icmp eq ptr %7, null
  br i1 %tobool.not.i4.i, label %_ZN5eastl6vectorIbNS_9allocatorEE6DoGrowEm.exit, label %_ZN5eastl9allocator10deallocateEPvm.exit.i.i

_ZN5eastl9allocator10deallocateEPvm.exit.i.i:     ; preds = %_ZN5eastl34uninitialized_move_ptr_if_noexceptIPbS1_S1_EET1_T_T0_S2_.exit.i
  tail call void @_ZdaPv(ptr noundef nonnull %7) #18
  br label %_ZN5eastl6vectorIbNS_9allocatorEE6DoGrowEm.exit

_ZN5eastl6vectorIbNS_9allocatorEE6DoGrowEm.exit:  ; preds = %_ZN5eastl34uninitialized_move_ptr_if_noexceptIPbS1_S1_EET1_T_T0_S2_.exit.i, %_ZN5eastl9allocator10deallocateEPvm.exit.i.i
  store ptr %retval.0.i.i, ptr %this, align 8
  %add.ptr.i = getelementptr inbounds i8, ptr %retval.0.i.i, i64 %cond.i
  store ptr %add.ptr.i, ptr %mCapacityAllocator.i, align 8
  br label %if.end

if.end:                                           ; preds = %_ZN5eastl6vectorIbNS_9allocatorEE6DoGrowEm.exit, %entry
  %8 = phi ptr [ %retval.0.i.i.i.i.i.i.i.i, %_ZN5eastl6vectorIbNS_9allocatorEE6DoGrowEm.exit ], [ %0, %entry ]
  %incdec.ptr = getelementptr inbounds i8, ptr %8, i64 1
  store ptr %incdec.ptr, ptr %mpEnd, align 8
  ret ptr %8
}

; Function Attrs: mustprogress uwtable
define weak_odr dso_local void @_ZN5eastl6vectorIbNS_9allocatorEE9push_backEOb(ptr noundef nonnull align 8 dereferenceable(24) %this, ptr noundef nonnull align 1 dereferenceable(1) %value) local_unnamed_addr #0 comdat align 2 personality ptr @__gxx_personality_v0 {
entry:
  %mpEnd = getelementptr inbounds %"struct.eastl::VectorBase", ptr %this, i64 0, i32 1
  %0 = load ptr, ptr %mpEnd, align 8
  %mCapacityAllocator.i = getelementptr inbounds %"struct.eastl::VectorBase", ptr %this, i64 0, i32 2
  %1 = load ptr, ptr %mCapacityAllocator.i, align 8
  %cmp = icmp ult ptr %0, %1
  br i1 %cmp, label %if.then, label %if.else

if.then:                                          ; preds = %entry
  %incdec.ptr = getelementptr inbounds i8, ptr %0, i64 1
  store ptr %incdec.ptr, ptr %mpEnd, align 8
  %2 = load i8, ptr %value, align 1
  %3 = and i8 %2, 1
  store i8 %3, ptr %0, align 1
  br label %if.end

if.else:                                          ; preds = %entry
  %4 = load ptr, ptr %this, align 8
  %sub.ptr.lhs.cast.i = ptrtoint ptr %0 to i64
  %sub.ptr.rhs.cast.i = ptrtoint ptr %4 to i64
  %sub.ptr.sub.i = sub i64 %sub.ptr.lhs.cast.i, %sub.ptr.rhs.cast.i
  %cmp.not.i.i = icmp eq ptr %0, %4
  %mul.i.i = shl i64 %sub.ptr.sub.i, 1
  %cond.i.i = select i1 %cmp.not.i.i, i64 1, i64 %mul.i.i
  %tobool.not.i.i = icmp eq i64 %cond.i.i, 0
  br i1 %tobool.not.i.i, label %_ZN5eastl10VectorBaseIbNS_9allocatorEE10DoAllocateEm.exit.i, label %if.then.i.i

if.then.i.i:                                      ; preds = %if.else
  %call.i.i.i.i = tail call noundef ptr @_ZnamPKcijS0_i(i64 noundef %cond.i.i, ptr noundef null, i32 noundef 0, i32 noundef 0, ptr noundef null, i32 noundef 0)
  %.pre.i = load ptr, ptr %this, align 8
  %.pre8.i = load ptr, ptr %mpEnd, align 8
  br label %_ZN5eastl10VectorBaseIbNS_9allocatorEE10DoAllocateEm.exit.i

_ZN5eastl10VectorBaseIbNS_9allocatorEE10DoAllocateEm.exit.i: ; preds = %if.then.i.i, %if.else
  %5 = phi ptr [ %.pre8.i, %if.then.i.i ], [ %0, %if.else ]
  %6 = phi ptr [ %.pre.i, %if.then.i.i ], [ %4, %if.else ]
  %retval.0.i.i = phi ptr [ %call.i.i.i.i, %if.then.i.i ], [ null, %if.else ]
  %cmp.i.i.i.i.i.i.i.i = icmp eq ptr %6, %5
  br i1 %cmp.i.i.i.i.i.i.i.i, label %_ZN5eastl34uninitialized_move_ptr_if_noexceptIPbS1_S1_EET1_T_T0_S2_.exit.i, label %if.end.i.i.i.i.i.i.i.i

if.end.i.i.i.i.i.i.i.i:                           ; preds = %_ZN5eastl10VectorBaseIbNS_9allocatorEE10DoAllocateEm.exit.i
  %7 = ptrtoint ptr %5 to i64
  %8 = ptrtoint ptr %6 to i64
  %sub.i.i.i.i.i.i.i.i = sub i64 %7, %8
  tail call void @llvm.memmove.p0.p0.i64(ptr align 1 %retval.0.i.i, ptr align 1 %6, i64 %sub.i.i.i.i.i.i.i.i, i1 false)
  %add.ptr.i.i.i.i.i.i.i.i = getelementptr inbounds i8, ptr %retval.0.i.i, i64 %sub.i.i.i.i.i.i.i.i
  br label %_ZN5eastl34uninitialized_move_ptr_if_noexceptIPbS1_S1_EET1_T_T0_S2_.exit.i

_ZN5eastl34uninitialized_move_ptr_if_noexceptIPbS1_S1_EET1_T_T0_S2_.exit.i: ; preds = %if.end.i.i.i.i.i.i.i.i, %_ZN5eastl10VectorBaseIbNS_9allocatorEE10DoAllocateEm.exit.i
  %retval.0.i.i.i.i.i.i.i.i = phi ptr [ %add.ptr.i.i.i.i.i.i.i.i, %if.end.i.i.i.i.i.i.i.i ], [ %retval.0.i.i, %_ZN5eastl10VectorBaseIbNS_9allocatorEE10DoAllocateEm.exit.i ]
  %9 = load i8, ptr %value, align 1
  %10 = and i8 %9, 1
  store i8 %10, ptr %retval.0.i.i.i.i.i.i.i.i, align 1
  %11 = load ptr, ptr %this, align 8
  %tobool.not.i6.i = icmp eq ptr %11, null
  br i1 %tobool.not.i6.i, label %_ZN5eastl6vectorIbNS_9allocatorEE16DoInsertValueEndIJbEEEvDpOT_.exit, label %_ZN5eastl9allocator10deallocateEPvm.exit.i.i

_ZN5eastl9allocator10deallocateEPvm.exit.i.i:     ; preds = %_ZN5eastl34uninitialized_move_ptr_if_noexceptIPbS1_S1_EET1_T_T0_S2_.exit.i
  tail call void @_ZdaPv(ptr noundef nonnull %11) #18
  br label %_ZN5eastl6vectorIbNS_9allocatorEE16DoInsertValueEndIJbEEEvDpOT_.exit

_ZN5eastl6vectorIbNS_9allocatorEE16DoInsertValueEndIJbEEEvDpOT_.exit: ; preds = %_ZN5eastl34uninitialized_move_ptr_if_noexceptIPbS1_S1_EET1_T_T0_S2_.exit.i, %_ZN5eastl9allocator10deallocateEPvm.exit.i.i
  %incdec.ptr.i = getelementptr inbounds i8, ptr %retval.0.i.i.i.i.i.i.i.i, i64 1
  store ptr %retval.0.i.i, ptr %this, align 8
  store ptr %incdec.ptr.i, ptr %mpEnd, align 8
  %add.ptr.i = getelementptr inbounds i8, ptr %retval.0.i.i, i64 %cond.i.i
  store ptr %add.ptr.i, ptr %mCapacityAllocator.i, align 8
  br label %if.end

if.end:                                           ; preds = %_ZN5eastl6vectorIbNS_9allocatorEE16DoInsertValueEndIJbEEEvDpOT_.exit, %if.then
  ret void
}

; Function Attrs: mustprogress nounwind uwtable
define weak_odr dso_local void @_ZN5eastl6vectorIbNS_9allocatorEE8pop_backEv(ptr noundef nonnull align 8 dereferenceable(24) %this) local_unnamed_addr #1 comdat align 2 {
entry:
  %mpEnd = getelementptr inbounds %"struct.eastl::VectorBase", ptr %this, i64 0, i32 1
  %0 = load ptr, ptr %mpEnd, align 8
  %incdec.ptr = getelementptr inbounds i8, ptr %0, i64 -1
  store ptr %incdec.ptr, ptr %mpEnd, align 8
  ret void
}

; Function Attrs: mustprogress uwtable
define weak_odr dso_local noundef ptr @_ZN5eastl6vectorIbNS_9allocatorEE6insertEPKbRS3_(ptr noundef nonnull align 8 dereferenceable(24) %this, ptr noundef %position, ptr noundef nonnull align 1 dereferenceable(1) %value) local_unnamed_addr #0 comdat align 2 personality ptr @__gxx_personality_v0 {
entry:
  %0 = load ptr, ptr %this, align 8
  %mpEnd = getelementptr inbounds %"struct.eastl::VectorBase", ptr %this, i64 0, i32 1
  %1 = load ptr, ptr %mpEnd, align 8
  %mCapacityAllocator.i = getelementptr inbounds %"struct.eastl::VectorBase", ptr %this, i64 0, i32 2
  %2 = load ptr, ptr %mCapacityAllocator.i, align 8
  %cmp = icmp ne ptr %1, %2
  %cmp3.not = icmp eq ptr %1, %position
  %or.cond = and i1 %cmp3.not, %cmp
  br i1 %or.cond, label %if.else, label %if.then

if.then:                                          ; preds = %entry
  tail call void @_ZN5eastl6vectorIbNS_9allocatorEE13DoInsertValueIJRKbEEEvPS4_DpOT_(ptr noundef nonnull align 8 dereferenceable(24) %this, ptr noundef %position, ptr noundef nonnull align 1 dereferenceable(1) %value)
  br label %if.end

if.else:                                          ; preds = %entry
  %3 = load i8, ptr %value, align 1
  %4 = and i8 %3, 1
  store i8 %4, ptr %position, align 1
  %5 = load ptr, ptr %mpEnd, align 8
  %incdec.ptr = getelementptr inbounds i8, ptr %5, i64 1
  store ptr %incdec.ptr, ptr %mpEnd, align 8
  br label %if.end

if.end:                                           ; preds = %if.else, %if.then
  %sub.ptr.lhs.cast = ptrtoint ptr %position to i64
  %sub.ptr.rhs.cast = ptrtoint ptr %0 to i64
  %sub.ptr.sub = sub i64 %sub.ptr.lhs.cast, %sub.ptr.rhs.cast
  %6 = load ptr, ptr %this, align 8
  %add.ptr = getelementptr inbounds i8, ptr %6, i64 %sub.ptr.sub
  ret ptr %add.ptr
}

; Function Attrs: mustprogress uwtable
define linkonce_odr dso_local void @_ZN5eastl6vectorIbNS_9allocatorEE13DoInsertValueIJRKbEEEvPS4_DpOT_(ptr noundef nonnull align 8 dereferenceable(24) %this, ptr noundef %position, ptr noundef nonnull align 1 dereferenceable(1) %args) local_unnamed_addr #0 comdat align 2 personality ptr @__gxx_personality_v0 {
entry:
  %mpEnd = getelementptr inbounds %"struct.eastl::VectorBase", ptr %this, i64 0, i32 1
  %0 = load ptr, ptr %mpEnd, align 8
  %mCapacityAllocator.i = getelementptr inbounds %"struct.eastl::VectorBase", ptr %this, i64 0, i32 2
  %1 = load ptr, ptr %mCapacityAllocator.i, align 8
  %cmp.not = icmp eq ptr %0, %1
  br i1 %cmp.not, label %if.else, label %if.then

if.then:                                          ; preds = %entry
  %2 = load i8, ptr %args, align 1
  %3 = and i8 %2, 1
  %add.ptr = getelementptr inbounds i8, ptr %0, i64 -1
  %4 = load i8, ptr %add.ptr, align 1
  %5 = and i8 %4, 1
  store i8 %5, ptr %0, align 1
  %6 = load ptr, ptr %mpEnd, align 8
  %add.ptr9 = getelementptr inbounds i8, ptr %6, i64 -1
  %cmp.not.i.i.i.i = icmp eq ptr %add.ptr9, %position
  br i1 %cmp.not.i.i.i.i, label %_ZN5eastl13move_backwardIPbS1_EET0_T_S3_S2_.exit, label %if.then.i.i.i.i

if.then.i.i.i.i:                                  ; preds = %if.then
  %7 = ptrtoint ptr %position to i64
  %8 = ptrtoint ptr %add.ptr9 to i64
  %sub.i.i.i.i = sub i64 %8, %7
  %idx.neg.i.i.i.i = sub i64 0, %sub.i.i.i.i
  %add.ptr.i.i.i.i = getelementptr inbounds i8, ptr %6, i64 %idx.neg.i.i.i.i
  tail call void @llvm.memmove.p0.p0.i64(ptr align 1 %add.ptr.i.i.i.i, ptr align 1 %position, i64 %sub.i.i.i.i, i1 false)
  br label %_ZN5eastl13move_backwardIPbS1_EET0_T_S3_S2_.exit

_ZN5eastl13move_backwardIPbS1_EET0_T_S3_S2_.exit: ; preds = %if.then, %if.then.i.i.i.i
  store i8 %3, ptr %position, align 1
  %9 = load ptr, ptr %mpEnd, align 8
  %incdec.ptr = getelementptr inbounds i8, ptr %9, i64 1
  store ptr %incdec.ptr, ptr %mpEnd, align 8
  br label %if.end

if.else:                                          ; preds = %entry
  %10 = load ptr, ptr %this, align 8
  %sub.ptr.lhs.cast = ptrtoint ptr %position to i64
  %sub.ptr.rhs.cast = ptrtoint ptr %10 to i64
  %sub.ptr.sub = sub i64 %sub.ptr.lhs.cast, %sub.ptr.rhs.cast
  %sub.ptr.lhs.cast18 = ptrtoint ptr %0 to i64
  %sub.ptr.sub20 = sub i64 %sub.ptr.lhs.cast18, %sub.ptr.rhs.cast
  %cmp.not.i = icmp eq ptr %0, %10
  %mul.i = shl i64 %sub.ptr.sub20, 1
  %cond.i = select i1 %cmp.not.i, i64 1, i64 %mul.i
  %tobool.not.i = icmp eq i64 %cond.i, 0
  br i1 %tobool.not.i, label %_ZN5eastl10VectorBaseIbNS_9allocatorEE10DoAllocateEm.exit, label %if.then.i

if.then.i:                                        ; preds = %if.else
  %call.i.i.i = tail call noundef ptr @_ZnamPKcijS0_i(i64 noundef %cond.i, ptr noundef null, i32 noundef 0, i32 noundef 0, ptr noundef null, i32 noundef 0)
  br label %_ZN5eastl10VectorBaseIbNS_9allocatorEE10DoAllocateEm.exit

_ZN5eastl10VectorBaseIbNS_9allocatorEE10DoAllocateEm.exit: ; preds = %if.else, %if.then.i
  %retval.0.i = phi ptr [ %call.i.i.i, %if.then.i ], [ null, %if.else ]
  %add.ptr23 = getelementptr inbounds i8, ptr %retval.0.i, i64 %sub.ptr.sub
  %11 = load i8, ptr %args, align 1
  %12 = and i8 %11, 1
  store i8 %12, ptr %add.ptr23, align 1
  %13 = load ptr, ptr %this, align 8
  %cmp.i.i.i.i.i.i.i = icmp eq ptr %13, %position
  br i1 %cmp.i.i.i.i.i.i.i, label %_ZN5eastl34uninitialized_move_ptr_if_noexceptIPbS1_S1_EET1_T_T0_S2_.exit, label %if.end.i.i.i.i.i.i.i

if.end.i.i.i.i.i.i.i:                             ; preds = %_ZN5eastl10VectorBaseIbNS_9allocatorEE10DoAllocateEm.exit
  %14 = ptrtoint ptr %13 to i64
  %sub.i.i.i.i.i.i.i = sub i64 %sub.ptr.lhs.cast, %14
  tail call void @llvm.memmove.p0.p0.i64(ptr nonnull align 1 %retval.0.i, ptr align 1 %13, i64 %sub.i.i.i.i.i.i.i, i1 false)
  %add.ptr.i.i.i.i.i.i.i = getelementptr inbounds i8, ptr %retval.0.i, i64 %sub.i.i.i.i.i.i.i
  br label %_ZN5eastl34uninitialized_move_ptr_if_noexceptIPbS1_S1_EET1_T_T0_S2_.exit

_ZN5eastl34uninitialized_move_ptr_if_noexceptIPbS1_S1_EET1_T_T0_S2_.exit: ; preds = %_ZN5eastl10VectorBaseIbNS_9allocatorEE10DoAllocateEm.exit, %if.end.i.i.i.i.i.i.i
  %retval.0.i.i.i.i.i.i.i = phi ptr [ %add.ptr.i.i.i.i.i.i.i, %if.end.i.i.i.i.i.i.i ], [ %retval.0.i, %_ZN5eastl10VectorBaseIbNS_9allocatorEE10DoAllocateEm.exit ]
  %15 = load ptr, ptr %mpEnd, align 8
  %incdec.ptr30 = getelementptr inbounds i8, ptr %retval.0.i.i.i.i.i.i.i, i64 1
  %cmp.i.i.i.i.i.i.i12 = icmp eq ptr %15, %position
  br i1 %cmp.i.i.i.i.i.i.i12, label %_ZN5eastl34uninitialized_move_ptr_if_noexceptIPbS1_S1_EET1_T_T0_S2_.exit17, label %if.end.i.i.i.i.i.i.i13

if.end.i.i.i.i.i.i.i13:                           ; preds = %_ZN5eastl34uninitialized_move_ptr_if_noexceptIPbS1_S1_EET1_T_T0_S2_.exit
  %16 = ptrtoint ptr %15 to i64
  %sub.i.i.i.i.i.i.i14 = sub i64 %16, %sub.ptr.lhs.cast
  tail call void @llvm.memmove.p0.p0.i64(ptr nonnull align 1 %incdec.ptr30, ptr align 1 %position, i64 %sub.i.i.i.i.i.i.i14, i1 false)
  %add.ptr.i.i.i.i.i.i.i15 = getelementptr inbounds i8, ptr %incdec.ptr30, i64 %sub.i.i.i.i.i.i.i14
  br label %_ZN5eastl34uninitialized_move_ptr_if_noexceptIPbS1_S1_EET1_T_T0_S2_.exit17

_ZN5eastl34uninitialized_move_ptr_if_noexceptIPbS1_S1_EET1_T_T0_S2_.exit17: ; preds = %_ZN5eastl34uninitialized_move_ptr_if_noexceptIPbS1_S1_EET1_T_T0_S2_.exit, %if.end.i.i.i.i.i.i.i13
  %retval.0.i.i.i.i.i.i.i16 = phi ptr [ %add.ptr.i.i.i.i.i.i.i15, %if.end.i.i.i.i.i.i.i13 ], [ %incdec.ptr30, %_ZN5eastl34uninitialized_move_ptr_if_noexceptIPbS1_S1_EET1_T_T0_S2_.exit ]
  %17 = load ptr, ptr %this, align 8
  %tobool.not.i19 = icmp eq ptr %17, null
  br i1 %tobool.not.i19, label %_ZN5eastl10VectorBaseIbNS_9allocatorEE6DoFreeEPbm.exit, label %_ZN5eastl9allocator10deallocateEPvm.exit.i

_ZN5eastl9allocator10deallocateEPvm.exit.i:       ; preds = %_ZN5eastl34uninitialized_move_ptr_if_noexceptIPbS1_S1_EET1_T_T0_S2_.exit17
  tail call void @_ZdaPv(ptr noundef nonnull %17) #18
  br label %_ZN5eastl10VectorBaseIbNS_9allocatorEE6DoFreeEPbm.exit

_ZN5eastl10VectorBaseIbNS_9allocatorEE6DoFreeEPbm.exit: ; preds = %_ZN5eastl34uninitialized_move_ptr_if_noexceptIPbS1_S1_EET1_T_T0_S2_.exit17, %_ZN5eastl9allocator10deallocateEPvm.exit.i
  store ptr %retval.0.i, ptr %this, align 8
  store ptr %retval.0.i.i.i.i.i.i.i16, ptr %mpEnd, align 8
  %add.ptr42 = getelementptr inbounds i8, ptr %retval.0.i, i64 %cond.i
  store ptr %add.ptr42, ptr %mCapacityAllocator.i, align 8
  br label %if.end

if.end:                                           ; preds = %_ZN5eastl10VectorBaseIbNS_9allocatorEE6DoFreeEPbm.exit, %_ZN5eastl13move_backwardIPbS1_EET0_T_S3_S2_.exit
  ret void
}

; Function Attrs: mustprogress uwtable
define weak_odr dso_local noundef ptr @_ZN5eastl6vectorIbNS_9allocatorEE6insertEPKbmRS3_(ptr noundef nonnull align 8 dereferenceable(24) %this, ptr noundef %position, i64 noundef %n, ptr noundef nonnull align 1 dereferenceable(1) %value) local_unnamed_addr #0 comdat align 2 {
entry:
  %0 = load ptr, ptr %this, align 8
  %sub.ptr.lhs.cast = ptrtoint ptr %position to i64
  %sub.ptr.rhs.cast = ptrtoint ptr %0 to i64
  %sub.ptr.sub = sub i64 %sub.ptr.lhs.cast, %sub.ptr.rhs.cast
  tail call void @_ZN5eastl6vectorIbNS_9allocatorEE14DoInsertValuesEPKbmRS3_(ptr noundef nonnull align 8 dereferenceable(24) %this, ptr noundef %position, i64 noundef %n, ptr noundef nonnull align 1 dereferenceable(1) %value)
  %1 = load ptr, ptr %this, align 8
  %add.ptr = getelementptr inbounds i8, ptr %1, i64 %sub.ptr.sub
  ret ptr %add.ptr
}

; Function Attrs: mustprogress uwtable
define weak_odr dso_local void @_ZN5eastl6vectorIbNS_9allocatorEE14DoInsertValuesEPKbmRS3_(ptr noundef nonnull align 8 dereferenceable(24) %this, ptr noundef %position, i64 noundef %n, ptr noundef nonnull align 1 dereferenceable(1) %value) local_unnamed_addr #0 comdat align 2 personality ptr @__gxx_personality_v0 {
entry:
  %mCapacityAllocator.i = getelementptr inbounds %"struct.eastl::VectorBase", ptr %this, i64 0, i32 2
  %0 = load ptr, ptr %mCapacityAllocator.i, align 8
  %mpEnd = getelementptr inbounds %"struct.eastl::VectorBase", ptr %this, i64 0, i32 1
  %1 = load ptr, ptr %mpEnd, align 8
  %sub.ptr.lhs.cast = ptrtoint ptr %0 to i64
  %sub.ptr.rhs.cast = ptrtoint ptr %1 to i64
  %sub.ptr.sub = sub i64 %sub.ptr.lhs.cast, %sub.ptr.rhs.cast
  %cmp.not = icmp ult i64 %sub.ptr.sub, %n
  br i1 %cmp.not, label %if.else31, label %if.then

if.then:                                          ; preds = %entry
  %cmp2.not = icmp eq i64 %n, 0
  br i1 %cmp2.not, label %if.end57, label %if.then3

if.then3:                                         ; preds = %if.then
  %2 = load i8, ptr %value, align 1
  %3 = and i8 %2, 1
  %sub.ptr.rhs.cast6 = ptrtoint ptr %position to i64
  %sub.ptr.sub7 = sub i64 %sub.ptr.rhs.cast, %sub.ptr.rhs.cast6
  %cmp8 = icmp ugt i64 %sub.ptr.sub7, %n
  br i1 %cmp8, label %if.then9, label %if.else

if.then9:                                         ; preds = %if.then3
  %idx.neg = sub i64 0, %n
  %add.ptr = getelementptr inbounds i8, ptr %1, i64 %idx.neg
  tail call void @llvm.memmove.p0.p0.i64(ptr align 1 %1, ptr nonnull align 1 %add.ptr, i64 %n, i1 false)
  %4 = load ptr, ptr %mpEnd, align 8
  %add.ptr16 = getelementptr inbounds i8, ptr %4, i64 %idx.neg
  %cmp.not.i.i.i.i = icmp eq ptr %add.ptr16, %position
  br i1 %cmp.not.i.i.i.i, label %if.end.sink.split, label %if.then.i.i.i.i

if.then.i.i.i.i:                                  ; preds = %if.then9
  %5 = ptrtoint ptr %add.ptr16 to i64
  %sub.i.i.i.i = sub i64 %5, %sub.ptr.rhs.cast6
  %idx.neg.i.i.i.i = sub i64 0, %sub.i.i.i.i
  %add.ptr.i.i.i.i = getelementptr inbounds i8, ptr %4, i64 %idx.neg.i.i.i.i
  tail call void @llvm.memmove.p0.p0.i64(ptr align 1 %add.ptr.i.i.i.i, ptr align 1 %position, i64 %sub.i.i.i.i, i1 false)
  br label %if.end.sink.split

if.else:                                          ; preds = %if.then3
  %cmp.not2.i.i.i.i = icmp eq i64 %sub.ptr.sub7, %n
  br i1 %cmp.not2.i.i.i.i, label %_ZN5eastl24uninitialized_fill_n_ptrIbmEEvPT_T0_RKS1_.exit, label %for.body.preheader.i.i.i.i

for.body.preheader.i.i.i.i:                       ; preds = %if.else
  %sub = sub i64 %n, %sub.ptr.sub7
  tail call void @llvm.memset.p0.i64(ptr align 1 %1, i8 %3, i64 %sub, i1 false)
  %.pre = load ptr, ptr %mpEnd, align 8
  br label %_ZN5eastl24uninitialized_fill_n_ptrIbmEEvPT_T0_RKS1_.exit

_ZN5eastl24uninitialized_fill_n_ptrIbmEEvPT_T0_RKS1_.exit: ; preds = %if.else, %for.body.preheader.i.i.i.i
  %6 = phi ptr [ %1, %if.else ], [ %.pre, %for.body.preheader.i.i.i.i ]
  %cmp.i.i.i.i.i.i31 = icmp eq ptr %6, %position
  br i1 %cmp.i.i.i.i.i.i31, label %if.end, label %_ZN5eastl22uninitialized_move_ptrIPbS1_S1_EET1_T_T0_S2_.exit36

_ZN5eastl22uninitialized_move_ptrIPbS1_S1_EET1_T_T0_S2_.exit36: ; preds = %_ZN5eastl24uninitialized_fill_n_ptrIbmEEvPT_T0_RKS1_.exit
  %add.ptr23 = getelementptr inbounds i8, ptr %6, i64 %n
  %idx.neg24 = sub i64 0, %sub.ptr.sub7
  %add.ptr25 = getelementptr inbounds i8, ptr %add.ptr23, i64 %idx.neg24
  %7 = ptrtoint ptr %6 to i64
  %sub.i.i.i.i.i.i33 = sub i64 %7, %sub.ptr.rhs.cast6
  tail call void @llvm.memmove.p0.p0.i64(ptr nonnull align 1 %add.ptr25, ptr align 1 %position, i64 %sub.i.i.i.i.i.i33, i1 false)
  %.pre56 = load ptr, ptr %mpEnd, align 8
  %cmp.not3.i.i37 = icmp eq ptr %.pre56, %position
  br i1 %cmp.not3.i.i37, label %if.end, label %for.body.preheader.i.i38

for.body.preheader.i.i38:                         ; preds = %_ZN5eastl22uninitialized_move_ptrIPbS1_S1_EET1_T_T0_S2_.exit36
  %last5.i.i39 = ptrtoint ptr %.pre56 to i64
  %8 = sub i64 %last5.i.i39, %sub.ptr.rhs.cast6
  br label %if.end.sink.split

if.end.sink.split:                                ; preds = %if.then9, %if.then.i.i.i.i, %for.body.preheader.i.i38
  %.sink = phi i64 [ %8, %for.body.preheader.i.i38 ], [ %n, %if.then.i.i.i.i ], [ %n, %if.then9 ]
  tail call void @llvm.memset.p0.i64(ptr align 1 %position, i8 %3, i64 %.sink, i1 false)
  br label %if.end

if.end:                                           ; preds = %if.end.sink.split, %_ZN5eastl24uninitialized_fill_n_ptrIbmEEvPT_T0_RKS1_.exit, %_ZN5eastl22uninitialized_move_ptrIPbS1_S1_EET1_T_T0_S2_.exit36
  %9 = load ptr, ptr %mpEnd, align 8
  %add.ptr29 = getelementptr inbounds i8, ptr %9, i64 %n
  store ptr %add.ptr29, ptr %mpEnd, align 8
  br label %if.end57

if.else31:                                        ; preds = %entry
  %10 = load ptr, ptr %this, align 8
  %sub.ptr.rhs.cast34 = ptrtoint ptr %10 to i64
  %sub.ptr.sub35 = sub i64 %sub.ptr.rhs.cast, %sub.ptr.rhs.cast34
  %cmp.not.i = icmp eq ptr %1, %10
  %mul.i = shl i64 %sub.ptr.sub35, 1
  %cond.i = select i1 %cmp.not.i, i64 1, i64 %mul.i
  %add = add i64 %sub.ptr.sub35, %n
  %cond = tail call i64 @llvm.umax.i64(i64 %cond.i, i64 %add)
  %tobool.not.i = icmp eq i64 %cond, 0
  br i1 %tobool.not.i, label %_ZN5eastl10VectorBaseIbNS_9allocatorEE10DoAllocateEm.exit, label %if.then.i

if.then.i:                                        ; preds = %if.else31
  %call.i.i.i = tail call noundef ptr @_ZnamPKcijS0_i(i64 noundef %cond, ptr noundef null, i32 noundef 0, i32 noundef 0, ptr noundef null, i32 noundef 0)
  %.pre57 = load ptr, ptr %this, align 8
  br label %_ZN5eastl10VectorBaseIbNS_9allocatorEE10DoAllocateEm.exit

_ZN5eastl10VectorBaseIbNS_9allocatorEE10DoAllocateEm.exit: ; preds = %if.else31, %if.then.i
  %11 = phi ptr [ %.pre57, %if.then.i ], [ %10, %if.else31 ]
  %retval.0.i = phi ptr [ %call.i.i.i, %if.then.i ], [ null, %if.else31 ]
  %cmp.i.i.i.i.i.i.i = icmp eq ptr %11, %position
  br i1 %cmp.i.i.i.i.i.i.i, label %_ZN5eastl24uninitialized_fill_n_ptrIbmEEvPT_T0_RKS1_.exit44, label %if.end.i.i.i.i.i.i.i

if.end.i.i.i.i.i.i.i:                             ; preds = %_ZN5eastl10VectorBaseIbNS_9allocatorEE10DoAllocateEm.exit
  %12 = ptrtoint ptr %position to i64
  %13 = ptrtoint ptr %11 to i64
  %sub.i.i.i.i.i.i.i = sub i64 %12, %13
  tail call void @llvm.memmove.p0.p0.i64(ptr align 1 %retval.0.i, ptr align 1 %11, i64 %sub.i.i.i.i.i.i.i, i1 false)
  %add.ptr.i.i.i.i.i.i.i = getelementptr inbounds i8, ptr %retval.0.i, i64 %sub.i.i.i.i.i.i.i
  br label %_ZN5eastl24uninitialized_fill_n_ptrIbmEEvPT_T0_RKS1_.exit44

_ZN5eastl24uninitialized_fill_n_ptrIbmEEvPT_T0_RKS1_.exit44: ; preds = %_ZN5eastl10VectorBaseIbNS_9allocatorEE10DoAllocateEm.exit, %if.end.i.i.i.i.i.i.i
  %retval.0.i.i.i.i.i.i.i = phi ptr [ %add.ptr.i.i.i.i.i.i.i, %if.end.i.i.i.i.i.i.i ], [ %retval.0.i, %_ZN5eastl10VectorBaseIbNS_9allocatorEE10DoAllocateEm.exit ]
  %14 = load i8, ptr %value, align 1
  %15 = and i8 %14, 1
  tail call void @llvm.memset.p0.i64(ptr align 1 %retval.0.i.i.i.i.i.i.i, i8 %15, i64 %n, i1 false)
  %16 = load ptr, ptr %mpEnd, align 8
  %add.ptr43 = getelementptr inbounds i8, ptr %retval.0.i.i.i.i.i.i.i, i64 %n
  %cmp.i.i.i.i.i.i.i45 = icmp eq ptr %16, %position
  br i1 %cmp.i.i.i.i.i.i.i45, label %_ZN5eastl34uninitialized_move_ptr_if_noexceptIPbS1_S1_EET1_T_T0_S2_.exit50, label %if.end.i.i.i.i.i.i.i46

if.end.i.i.i.i.i.i.i46:                           ; preds = %_ZN5eastl24uninitialized_fill_n_ptrIbmEEvPT_T0_RKS1_.exit44
  %17 = ptrtoint ptr %16 to i64
  %18 = ptrtoint ptr %position to i64
  %sub.i.i.i.i.i.i.i47 = sub i64 %17, %18
  tail call void @llvm.memmove.p0.p0.i64(ptr nonnull align 1 %add.ptr43, ptr align 1 %position, i64 %sub.i.i.i.i.i.i.i47, i1 false)
  %add.ptr.i.i.i.i.i.i.i48 = getelementptr inbounds i8, ptr %add.ptr43, i64 %sub.i.i.i.i.i.i.i47
  br label %_ZN5eastl34uninitialized_move_ptr_if_noexceptIPbS1_S1_EET1_T_T0_S2_.exit50

_ZN5eastl34uninitialized_move_ptr_if_noexceptIPbS1_S1_EET1_T_T0_S2_.exit50: ; preds = %_ZN5eastl24uninitialized_fill_n_ptrIbmEEvPT_T0_RKS1_.exit44, %if.end.i.i.i.i.i.i.i46
  %retval.0.i.i.i.i.i.i.i49 = phi ptr [ %add.ptr.i.i.i.i.i.i.i48, %if.end.i.i.i.i.i.i.i46 ], [ %add.ptr43, %_ZN5eastl24uninitialized_fill_n_ptrIbmEEvPT_T0_RKS1_.exit44 ]
  %19 = load ptr, ptr %this, align 8
  %tobool.not.i52 = icmp eq ptr %19, null
  br i1 %tobool.not.i52, label %_ZN5eastl10VectorBaseIbNS_9allocatorEE6DoFreeEPbm.exit, label %_ZN5eastl9allocator10deallocateEPvm.exit.i

_ZN5eastl9allocator10deallocateEPvm.exit.i:       ; preds = %_ZN5eastl34uninitialized_move_ptr_if_noexceptIPbS1_S1_EET1_T_T0_S2_.exit50
  tail call void @_ZdaPv(ptr noundef nonnull %19) #18
  br label %_ZN5eastl10VectorBaseIbNS_9allocatorEE6DoFreeEPbm.exit

_ZN5eastl10VectorBaseIbNS_9allocatorEE6DoFreeEPbm.exit: ; preds = %_ZN5eastl34uninitialized_move_ptr_if_noexceptIPbS1_S1_EET1_T_T0_S2_.exit50, %_ZN5eastl9allocator10deallocateEPvm.exit.i
  store ptr %retval.0.i, ptr %this, align 8
  store ptr %retval.0.i.i.i.i.i.i.i49, ptr %mpEnd, align 8
  %add.ptr55 = getelementptr inbounds i8, ptr %retval.0.i, i64 %cond
  store ptr %add.ptr55, ptr %mCapacityAllocator.i, align 8
  br label %if.end57

if.end57:                                         ; preds = %if.then, %if.end, %_ZN5eastl10VectorBaseIbNS_9allocatorEE6DoFreeEPbm.exit
  ret void
}

; Function Attrs: mustprogress uwtable
define weak_odr dso_local noundef ptr @_ZN5eastl6vectorIbNS_9allocatorEE6insertEPKbOb(ptr noundef nonnull align 8 dereferenceable(24) %this, ptr noundef %position, ptr noundef nonnull align 1 dereferenceable(1) %value) local_unnamed_addr #0 comdat align 2 personality ptr @__gxx_personality_v0 {
entry:
  %0 = load ptr, ptr %this, align 8
  %mpEnd.i = getelementptr inbounds %"struct.eastl::VectorBase", ptr %this, i64 0, i32 1
  %1 = load ptr, ptr %mpEnd.i, align 8
  %mCapacityAllocator.i.i = getelementptr inbounds %"struct.eastl::VectorBase", ptr %this, i64 0, i32 2
  %2 = load ptr, ptr %mCapacityAllocator.i.i, align 8
  %cmp.i = icmp ne ptr %1, %2
  %cmp3.not.i = icmp eq ptr %1, %position
  %or.cond.i = and i1 %cmp3.not.i, %cmp.i
  br i1 %or.cond.i, label %if.else.i, label %if.then.i

if.then.i:                                        ; preds = %entry
  tail call void @_ZN5eastl6vectorIbNS_9allocatorEE13DoInsertValueIJbEEEvPKbDpOT_(ptr noundef nonnull align 8 dereferenceable(24) %this, ptr noundef %position, ptr noundef nonnull align 1 dereferenceable(1) %value)
  br label %_ZN5eastl6vectorIbNS_9allocatorEE7emplaceIJbEEEPbPKbDpOT_.exit

if.else.i:                                        ; preds = %entry
  %3 = load i8, ptr %value, align 1
  %4 = and i8 %3, 1
  store i8 %4, ptr %position, align 1
  %5 = load ptr, ptr %mpEnd.i, align 8
  %incdec.ptr.i = getelementptr inbounds i8, ptr %5, i64 1
  store ptr %incdec.ptr.i, ptr %mpEnd.i, align 8
  br label %_ZN5eastl6vectorIbNS_9allocatorEE7emplaceIJbEEEPbPKbDpOT_.exit

_ZN5eastl6vectorIbNS_9allocatorEE7emplaceIJbEEEPbPKbDpOT_.exit: ; preds = %if.then.i, %if.else.i
  %sub.ptr.lhs.cast.i = ptrtoint ptr %position to i64
  %sub.ptr.rhs.cast.i = ptrtoint ptr %0 to i64
  %sub.ptr.sub.i = sub i64 %sub.ptr.lhs.cast.i, %sub.ptr.rhs.cast.i
  %6 = load ptr, ptr %this, align 8
  %add.ptr.i = getelementptr inbounds i8, ptr %6, i64 %sub.ptr.sub.i
  ret ptr %add.ptr.i
}

; Function Attrs: mustprogress uwtable
define weak_odr dso_local noundef ptr @_ZN5eastl6vectorIbNS_9allocatorEE6insertEPKbSt16initializer_listIbE(ptr noundef nonnull align 8 dereferenceable(24) %this, ptr noundef %position, ptr %ilist.coerce0, i64 %ilist.coerce1) local_unnamed_addr #0 comdat align 2 {
entry:
  %0 = load ptr, ptr %this, align 8
  %sub.ptr.lhs.cast = ptrtoint ptr %position to i64
  %sub.ptr.rhs.cast = ptrtoint ptr %0 to i64
  %sub.ptr.sub = sub i64 %sub.ptr.lhs.cast, %sub.ptr.rhs.cast
  %add.ptr.i = getelementptr inbounds i8, ptr %ilist.coerce0, i64 %ilist.coerce1
  tail call void @_ZN5eastl6vectorIbNS_9allocatorEE20DoInsertFromIteratorIPKbEEvS5_T_S6_NS_26bidirectional_iterator_tagE(ptr noundef nonnull align 8 dereferenceable(24) %this, ptr noundef %position, ptr noundef %ilist.coerce0, ptr noundef %add.ptr.i)
  %1 = load ptr, ptr %this, align 8
  %add.ptr = getelementptr inbounds i8, ptr %1, i64 %sub.ptr.sub
  ret ptr %add.ptr
}

; Function Attrs: mustprogress uwtable
define weak_odr dso_local noundef ptr @_ZN5eastl6vectorIbNS_9allocatorEE11erase_firstERKb(ptr noundef nonnull align 8 dereferenceable(24) %this, ptr noundef nonnull align 1 dereferenceable(1) %value) local_unnamed_addr #0 comdat align 2 {
entry:
  %0 = load ptr, ptr %this, align 8
  %mpEnd.i = getelementptr inbounds %"struct.eastl::VectorBase", ptr %this, i64 0, i32 1
  %1 = load ptr, ptr %mpEnd.i, align 8
  %cmp.not4.i = icmp eq ptr %0, %1
  br i1 %cmp.not4.i, label %_ZN5eastl4findIPbbEET_S2_S2_RKT0_.exit, label %land.rhs.lr.ph.i

land.rhs.lr.ph.i:                                 ; preds = %entry
  %last7.i = ptrtoint ptr %1 to i64
  %first8.i = ptrtoint ptr %0 to i64
  %2 = load i8, ptr %value, align 1
  %3 = sub i64 %last7.i, %first8.i
  %scevgep.i = getelementptr i8, ptr %0, i64 %3
  br label %land.rhs.i

land.rhs.i:                                       ; preds = %while.body.i, %land.rhs.lr.ph.i
  %first.addr.05.i = phi ptr [ %0, %land.rhs.lr.ph.i ], [ %incdec.ptr.i, %while.body.i ]
  %4 = load i8, ptr %first.addr.05.i, align 1
  %5 = xor i8 %4, %2
  %6 = and i8 %5, 1
  %cmp3.not.i = icmp eq i8 %6, 0
  br i1 %cmp3.not.i, label %_ZN5eastl4findIPbbEET_S2_S2_RKT0_.exit, label %while.body.i

while.body.i:                                     ; preds = %land.rhs.i
  %incdec.ptr.i = getelementptr inbounds i8, ptr %first.addr.05.i, i64 1
  %cmp.not.i = icmp eq ptr %incdec.ptr.i, %1
  br i1 %cmp.not.i, label %_ZN5eastl4findIPbbEET_S2_S2_RKT0_.exit, label %land.rhs.i, !llvm.loop !7

_ZN5eastl4findIPbbEET_S2_S2_RKT0_.exit:           ; preds = %land.rhs.i, %while.body.i, %entry
  %first.addr.0.lcssa.i = phi ptr [ %0, %entry ], [ %first.addr.05.i, %land.rhs.i ], [ %scevgep.i, %while.body.i ]
  %cmp.not = icmp eq ptr %first.addr.0.lcssa.i, %1
  br i1 %cmp.not, label %return, label %if.then

if.then:                                          ; preds = %_ZN5eastl4findIPbbEET_S2_S2_RKT0_.exit
  %add.ptr.i = getelementptr inbounds i8, ptr %first.addr.0.lcssa.i, i64 1
  %cmp.i = icmp ult ptr %add.ptr.i, %1
  br i1 %cmp.i, label %_ZN5eastl4moveIPbS1_EET0_T_S3_S2_.exit.i, label %_ZN5eastl6vectorIbNS_9allocatorEE5eraseEPKb.exit

_ZN5eastl4moveIPbS1_EET0_T_S3_S2_.exit.i:         ; preds = %if.then
  %7 = ptrtoint ptr %1 to i64
  %8 = ptrtoint ptr %add.ptr.i to i64
  %sub.i.i.i.i.i = sub i64 %7, %8
  tail call void @llvm.memmove.p0.p0.i64(ptr align 1 %first.addr.0.lcssa.i, ptr nonnull align 1 %add.ptr.i, i64 %sub.i.i.i.i.i, i1 false)
  %.pre.i = load ptr, ptr %mpEnd.i, align 8
  br label %_ZN5eastl6vectorIbNS_9allocatorEE5eraseEPKb.exit

_ZN5eastl6vectorIbNS_9allocatorEE5eraseEPKb.exit: ; preds = %if.then, %_ZN5eastl4moveIPbS1_EET0_T_S3_S2_.exit.i
  %9 = phi ptr [ %.pre.i, %_ZN5eastl4moveIPbS1_EET0_T_S3_S2_.exit.i ], [ %1, %if.then ]
  %incdec.ptr.i5 = getelementptr inbounds i8, ptr %9, i64 -1
  store ptr %incdec.ptr.i5, ptr %mpEnd.i, align 8
  br label %return

return:                                           ; preds = %_ZN5eastl4findIPbbEET_S2_S2_RKT0_.exit, %_ZN5eastl6vectorIbNS_9allocatorEE5eraseEPKb.exit
  ret ptr %first.addr.0.lcssa.i
}

; Function Attrs: mustprogress uwtable
define weak_odr dso_local noundef ptr @_ZN5eastl6vectorIbNS_9allocatorEE5eraseEPKb(ptr noundef nonnull align 8 dereferenceable(24) %this, ptr noundef %position) local_unnamed_addr #0 comdat align 2 {
entry:
  %add.ptr = getelementptr inbounds i8, ptr %position, i64 1
  %mpEnd = getelementptr inbounds %"struct.eastl::VectorBase", ptr %this, i64 0, i32 1
  %0 = load ptr, ptr %mpEnd, align 8
  %cmp = icmp ult ptr %add.ptr, %0
  br i1 %cmp, label %_ZN5eastl4moveIPbS1_EET0_T_S3_S2_.exit, label %if.end

_ZN5eastl4moveIPbS1_EET0_T_S3_S2_.exit:           ; preds = %entry
  %1 = ptrtoint ptr %0 to i64
  %2 = ptrtoint ptr %add.ptr to i64
  %sub.i.i.i.i = sub i64 %1, %2
  tail call void @llvm.memmove.p0.p0.i64(ptr align 1 %position, ptr nonnull align 1 %add.ptr, i64 %sub.i.i.i.i, i1 false)
  %.pre = load ptr, ptr %mpEnd, align 8
  br label %if.end

if.end:                                           ; preds = %_ZN5eastl4moveIPbS1_EET0_T_S3_S2_.exit, %entry
  %3 = phi ptr [ %.pre, %_ZN5eastl4moveIPbS1_EET0_T_S3_S2_.exit ], [ %0, %entry ]
  %incdec.ptr = getelementptr inbounds i8, ptr %3, i64 -1
  store ptr %incdec.ptr, ptr %mpEnd, align 8
  ret ptr %position
}

; Function Attrs: mustprogress uwtable
define weak_odr dso_local noundef ptr @_ZN5eastl6vectorIbNS_9allocatorEE20erase_first_unsortedERKb(ptr noundef nonnull align 8 dereferenceable(24) %this, ptr noundef nonnull align 1 dereferenceable(1) %value) local_unnamed_addr #0 comdat align 2 {
entry:
  %0 = load ptr, ptr %this, align 8
  %mpEnd.i = getelementptr inbounds %"struct.eastl::VectorBase", ptr %this, i64 0, i32 1
  %1 = load ptr, ptr %mpEnd.i, align 8
  %cmp.not4.i = icmp eq ptr %0, %1
  br i1 %cmp.not4.i, label %_ZN5eastl4findIPbbEET_S2_S2_RKT0_.exit, label %land.rhs.lr.ph.i

land.rhs.lr.ph.i:                                 ; preds = %entry
  %last7.i = ptrtoint ptr %1 to i64
  %first8.i = ptrtoint ptr %0 to i64
  %2 = load i8, ptr %value, align 1
  %3 = sub i64 %last7.i, %first8.i
  %scevgep.i = getelementptr i8, ptr %0, i64 %3
  br label %land.rhs.i

land.rhs.i:                                       ; preds = %while.body.i, %land.rhs.lr.ph.i
  %first.addr.05.i = phi ptr [ %0, %land.rhs.lr.ph.i ], [ %incdec.ptr.i, %while.body.i ]
  %4 = load i8, ptr %first.addr.05.i, align 1
  %5 = xor i8 %4, %2
  %6 = and i8 %5, 1
  %cmp3.not.i = icmp eq i8 %6, 0
  br i1 %cmp3.not.i, label %_ZN5eastl4findIPbbEET_S2_S2_RKT0_.exit, label %while.body.i

while.body.i:                                     ; preds = %land.rhs.i
  %incdec.ptr.i = getelementptr inbounds i8, ptr %first.addr.05.i, i64 1
  %cmp.not.i = icmp eq ptr %incdec.ptr.i, %1
  br i1 %cmp.not.i, label %_ZN5eastl4findIPbbEET_S2_S2_RKT0_.exit, label %land.rhs.i, !llvm.loop !7

_ZN5eastl4findIPbbEET_S2_S2_RKT0_.exit:           ; preds = %land.rhs.i, %while.body.i, %entry
  %first.addr.0.lcssa.i = phi ptr [ %0, %entry ], [ %first.addr.05.i, %land.rhs.i ], [ %scevgep.i, %while.body.i ]
  %cmp.not = icmp eq ptr %first.addr.0.lcssa.i, %1
  br i1 %cmp.not, label %return, label %if.then

if.then:                                          ; preds = %_ZN5eastl4findIPbbEET_S2_S2_RKT0_.exit
  %add.ptr.i = getelementptr inbounds i8, ptr %1, i64 -1
  %7 = load i8, ptr %add.ptr.i, align 1
  %8 = and i8 %7, 1
  store i8 %8, ptr %first.addr.0.lcssa.i, align 1
  %9 = load ptr, ptr %mpEnd.i, align 8
  %incdec.ptr.i5 = getelementptr inbounds i8, ptr %9, i64 -1
  store ptr %incdec.ptr.i5, ptr %mpEnd.i, align 8
  br label %return

return:                                           ; preds = %_ZN5eastl4findIPbbEET_S2_S2_RKT0_.exit, %if.then
  ret ptr %first.addr.0.lcssa.i
}

; Function Attrs: mustprogress nounwind uwtable
define weak_odr dso_local noundef ptr @_ZN5eastl6vectorIbNS_9allocatorEE14erase_unsortedEPKb(ptr noundef nonnull align 8 dereferenceable(24) %this, ptr noundef %position) local_unnamed_addr #1 comdat align 2 {
entry:
  %mpEnd = getelementptr inbounds %"struct.eastl::VectorBase", ptr %this, i64 0, i32 1
  %0 = load ptr, ptr %mpEnd, align 8
  %add.ptr = getelementptr inbounds i8, ptr %0, i64 -1
  %1 = load i8, ptr %add.ptr, align 1
  %2 = and i8 %1, 1
  store i8 %2, ptr %position, align 1
  %3 = load ptr, ptr %mpEnd, align 8
  %incdec.ptr = getelementptr inbounds i8, ptr %3, i64 -1
  store ptr %incdec.ptr, ptr %mpEnd, align 8
  ret ptr %position
}

; Function Attrs: mustprogress uwtable
define weak_odr dso_local void @_ZN5eastl6vectorIbNS_9allocatorEE10erase_lastERKb(ptr noalias sret(%"class.eastl::reverse_iterator") align 8 %agg.result, ptr noundef nonnull align 8 dereferenceable(24) %this, ptr noundef nonnull align 1 dereferenceable(1) %value) local_unnamed_addr #0 comdat align 2 personality ptr @__gxx_personality_v0 {
entry:
  %mpEnd.i = getelementptr inbounds %"struct.eastl::VectorBase", ptr %this, i64 0, i32 1
  %0 = load ptr, ptr %mpEnd.i, align 8, !noalias !8
  %1 = ptrtoint ptr %0 to i64
  %2 = load ptr, ptr %this, align 8, !noalias !8
  %cmp.i.not2.i = icmp eq ptr %0, %2
  br i1 %cmp.i.not2.i, label %_ZN5eastl4findINS_16reverse_iteratorIPbEEbEET_S4_S4_RKT0_.exit, label %land.rhs.i.preheader

land.rhs.i.preheader:                             ; preds = %entry
  %3 = ptrtoint ptr %2 to i64
  %4 = load i8, ptr %value, align 1, !noalias !9
  %5 = sub i64 %3, %1
  %scevgep = getelementptr i8, ptr %0, i64 %5
  br label %land.rhs.i

land.rhs.i:                                       ; preds = %land.rhs.i.preheader, %while.body.i
  %6 = phi ptr [ %incdec.ptr.i.i, %while.body.i ], [ %0, %land.rhs.i.preheader ]
  %incdec.ptr.i.i = getelementptr inbounds i8, ptr %6, i64 -1
  %7 = load i8, ptr %incdec.ptr.i.i, align 1, !noalias !9
  %8 = xor i8 %4, %7
  %9 = and i8 %8, 1
  %cmp.not.i = icmp eq i8 %9, 0
  br i1 %cmp.not.i, label %_ZN5eastl4findINS_16reverse_iteratorIPbEEbEET_S4_S4_RKT0_.exit, label %while.body.i

while.body.i:                                     ; preds = %land.rhs.i
  %cmp.i.not.i = icmp eq ptr %incdec.ptr.i.i, %2
  br i1 %cmp.i.not.i, label %_ZN5eastl4findINS_16reverse_iteratorIPbEEbEET_S4_S4_RKT0_.exit, label %land.rhs.i, !llvm.loop !12

_ZN5eastl4findINS_16reverse_iteratorIPbEEbEET_S4_S4_RKT0_.exit: ; preds = %land.rhs.i, %while.body.i, %entry
  %.lcssa.i = phi ptr [ %0, %entry ], [ %6, %land.rhs.i ], [ %scevgep, %while.body.i ]
  %cmp.i.not = icmp eq ptr %.lcssa.i, %2
  br i1 %cmp.i.not, label %return, label %if.then

if.then:                                          ; preds = %_ZN5eastl4findINS_16reverse_iteratorIPbEEbEET_S4_S4_RKT0_.exit
  %incdec.ptr.i.i1 = getelementptr inbounds i8, ptr %.lcssa.i, i64 -1
  %cmp.i.i = icmp ult ptr %.lcssa.i, %0
  br i1 %cmp.i.i, label %_ZN5eastl4moveIPbS1_EET0_T_S3_S2_.exit.i.i, label %_ZN5eastl6vectorIbNS_9allocatorEE5eraseENS_16reverse_iteratorIPKbEE.exit

_ZN5eastl4moveIPbS1_EET0_T_S3_S2_.exit.i.i:       ; preds = %if.then
  %10 = ptrtoint ptr %.lcssa.i to i64
  %sub.i.i.i.i.i.i = sub i64 %1, %10
  tail call void @llvm.memmove.p0.p0.i64(ptr nonnull align 1 %incdec.ptr.i.i1, ptr nonnull align 1 %.lcssa.i, i64 %sub.i.i.i.i.i.i, i1 false), !noalias !13
  %.pre.i.i = load ptr, ptr %mpEnd.i, align 8, !noalias !13
  br label %_ZN5eastl6vectorIbNS_9allocatorEE5eraseENS_16reverse_iteratorIPKbEE.exit

_ZN5eastl6vectorIbNS_9allocatorEE5eraseENS_16reverse_iteratorIPKbEE.exit: ; preds = %if.then, %_ZN5eastl4moveIPbS1_EET0_T_S3_S2_.exit.i.i
  %11 = phi ptr [ %.pre.i.i, %_ZN5eastl4moveIPbS1_EET0_T_S3_S2_.exit.i.i ], [ %0, %if.then ]
  %incdec.ptr.i1.i = getelementptr inbounds i8, ptr %11, i64 -1
  store ptr %incdec.ptr.i1.i, ptr %mpEnd.i, align 8, !noalias !13
  br label %return

return:                                           ; preds = %_ZN5eastl4findINS_16reverse_iteratorIPbEEbEET_S4_S4_RKT0_.exit, %_ZN5eastl6vectorIbNS_9allocatorEE5eraseENS_16reverse_iteratorIPKbEE.exit
  %storemerge = phi ptr [ %incdec.ptr.i.i1, %_ZN5eastl6vectorIbNS_9allocatorEE5eraseENS_16reverse_iteratorIPKbEE.exit ], [ %2, %_ZN5eastl4findINS_16reverse_iteratorIPbEEbEET_S4_S4_RKT0_.exit ]
  store ptr %storemerge, ptr %agg.result, align 8
  ret void
}

; Function Attrs: mustprogress uwtable
define weak_odr dso_local void @_ZN5eastl6vectorIbNS_9allocatorEE5eraseENS_16reverse_iteratorIPKbEE(ptr noalias sret(%"class.eastl::reverse_iterator") align 8 %agg.result, ptr noundef nonnull align 8 dereferenceable(24) %this, ptr noundef %position) local_unnamed_addr #0 comdat align 2 {
entry:
  %0 = load ptr, ptr %position, align 8
  %incdec.ptr.i = getelementptr inbounds i8, ptr %0, i64 -1
  store ptr %incdec.ptr.i, ptr %position, align 8
  %mpEnd.i = getelementptr inbounds %"struct.eastl::VectorBase", ptr %this, i64 0, i32 1
  %1 = load ptr, ptr %mpEnd.i, align 8
  %cmp.i = icmp ult ptr %0, %1
  br i1 %cmp.i, label %_ZN5eastl4moveIPbS1_EET0_T_S3_S2_.exit.i, label %_ZN5eastl6vectorIbNS_9allocatorEE5eraseEPKb.exit

_ZN5eastl4moveIPbS1_EET0_T_S3_S2_.exit.i:         ; preds = %entry
  %2 = ptrtoint ptr %1 to i64
  %3 = ptrtoint ptr %0 to i64
  %sub.i.i.i.i.i = sub i64 %2, %3
  tail call void @llvm.memmove.p0.p0.i64(ptr nonnull align 1 %incdec.ptr.i, ptr nonnull align 1 %0, i64 %sub.i.i.i.i.i, i1 false)
  %.pre.i = load ptr, ptr %mpEnd.i, align 8
  br label %_ZN5eastl6vectorIbNS_9allocatorEE5eraseEPKb.exit

_ZN5eastl6vectorIbNS_9allocatorEE5eraseEPKb.exit: ; preds = %entry, %_ZN5eastl4moveIPbS1_EET0_T_S3_S2_.exit.i
  %4 = phi ptr [ %.pre.i, %_ZN5eastl4moveIPbS1_EET0_T_S3_S2_.exit.i ], [ %1, %entry ]
  %incdec.ptr.i1 = getelementptr inbounds i8, ptr %4, i64 -1
  store ptr %incdec.ptr.i1, ptr %mpEnd.i, align 8
  store ptr %incdec.ptr.i, ptr %agg.result, align 8
  ret void
}

; Function Attrs: mustprogress uwtable
define weak_odr dso_local void @_ZN5eastl6vectorIbNS_9allocatorEE19erase_last_unsortedERKb(ptr noalias sret(%"class.eastl::reverse_iterator") align 8 %agg.result, ptr noundef nonnull align 8 dereferenceable(24) %this, ptr noundef nonnull align 1 dereferenceable(1) %value) local_unnamed_addr #0 comdat align 2 personality ptr @__gxx_personality_v0 {
entry:
  %mpEnd.i = getelementptr inbounds %"struct.eastl::VectorBase", ptr %this, i64 0, i32 1
  %0 = load ptr, ptr %mpEnd.i, align 8, !noalias !8
  %1 = load ptr, ptr %this, align 8, !noalias !8
  %cmp.i.not2.i = icmp eq ptr %0, %1
  br i1 %cmp.i.not2.i, label %_ZN5eastl4findINS_16reverse_iteratorIPbEEbEET_S4_S4_RKT0_.exit, label %land.rhs.i.preheader

land.rhs.i.preheader:                             ; preds = %entry
  %2 = ptrtoint ptr %1 to i64
  %3 = ptrtoint ptr %0 to i64
  %4 = load i8, ptr %value, align 1, !noalias !16
  %5 = sub i64 %2, %3
  %scevgep = getelementptr i8, ptr %0, i64 %5
  br label %land.rhs.i

land.rhs.i:                                       ; preds = %land.rhs.i.preheader, %while.body.i
  %6 = phi ptr [ %incdec.ptr.i.i, %while.body.i ], [ %0, %land.rhs.i.preheader ]
  %incdec.ptr.i.i = getelementptr inbounds i8, ptr %6, i64 -1
  %7 = load i8, ptr %incdec.ptr.i.i, align 1, !noalias !16
  %8 = xor i8 %4, %7
  %9 = and i8 %8, 1
  %cmp.not.i = icmp eq i8 %9, 0
  br i1 %cmp.not.i, label %_ZN5eastl4findINS_16reverse_iteratorIPbEEbEET_S4_S4_RKT0_.exit, label %while.body.i

while.body.i:                                     ; preds = %land.rhs.i
  %cmp.i.not.i = icmp eq ptr %incdec.ptr.i.i, %1
  br i1 %cmp.i.not.i, label %_ZN5eastl4findINS_16reverse_iteratorIPbEEbEET_S4_S4_RKT0_.exit, label %land.rhs.i, !llvm.loop !12

_ZN5eastl4findINS_16reverse_iteratorIPbEEbEET_S4_S4_RKT0_.exit: ; preds = %land.rhs.i, %while.body.i, %entry
  %.lcssa.i = phi ptr [ %0, %entry ], [ %6, %land.rhs.i ], [ %scevgep, %while.body.i ]
  %cmp.i.not = icmp eq ptr %.lcssa.i, %1
  br i1 %cmp.i.not, label %return, label %if.then

if.then:                                          ; preds = %_ZN5eastl4findINS_16reverse_iteratorIPbEEbEET_S4_S4_RKT0_.exit
  %incdec.ptr.i.i1 = getelementptr inbounds i8, ptr %.lcssa.i, i64 -1
  %add.ptr.i.i = getelementptr inbounds i8, ptr %0, i64 -1
  %10 = load i8, ptr %add.ptr.i.i, align 1, !noalias !19
  %11 = and i8 %10, 1
  store i8 %11, ptr %incdec.ptr.i.i1, align 1, !noalias !19
  %12 = load ptr, ptr %mpEnd.i, align 8, !noalias !19
  %incdec.ptr.i1.i = getelementptr inbounds i8, ptr %12, i64 -1
  store ptr %incdec.ptr.i1.i, ptr %mpEnd.i, align 8, !noalias !19
  br label %return

return:                                           ; preds = %_ZN5eastl4findINS_16reverse_iteratorIPbEEbEET_S4_S4_RKT0_.exit, %if.then
  %storemerge = phi ptr [ %incdec.ptr.i.i1, %if.then ], [ %1, %_ZN5eastl4findINS_16reverse_iteratorIPbEEbEET_S4_S4_RKT0_.exit ]
  store ptr %storemerge, ptr %agg.result, align 8
  ret void
}

; Function Attrs: mustprogress uwtable
define weak_odr dso_local void @_ZN5eastl6vectorIbNS_9allocatorEE14erase_unsortedENS_16reverse_iteratorIPKbEE(ptr noalias sret(%"class.eastl::reverse_iterator") align 8 %agg.result, ptr noundef nonnull align 8 dereferenceable(24) %this, ptr noundef %position) local_unnamed_addr #0 comdat align 2 {
entry:
  %0 = load ptr, ptr %position, align 8
  %incdec.ptr.i = getelementptr inbounds i8, ptr %0, i64 -1
  store ptr %incdec.ptr.i, ptr %position, align 8
  %mpEnd.i = getelementptr inbounds %"struct.eastl::VectorBase", ptr %this, i64 0, i32 1
  %1 = load ptr, ptr %mpEnd.i, align 8
  %add.ptr.i = getelementptr inbounds i8, ptr %1, i64 -1
  %2 = load i8, ptr %add.ptr.i, align 1
  %3 = and i8 %2, 1
  store i8 %3, ptr %incdec.ptr.i, align 1
  %4 = load ptr, ptr %mpEnd.i, align 8
  %incdec.ptr.i1 = getelementptr inbounds i8, ptr %4, i64 -1
  store ptr %incdec.ptr.i1, ptr %mpEnd.i, align 8
  store ptr %incdec.ptr.i, ptr %agg.result, align 8
  ret void
}

; Function Attrs: mustprogress uwtable
define weak_odr dso_local noundef ptr @_ZN5eastl6vectorIbNS_9allocatorEE5eraseEPKbS4_(ptr noundef nonnull align 8 dereferenceable(24) %this, ptr noundef %first, ptr noundef %last) local_unnamed_addr #0 comdat align 2 {
entry:
  %cmp.not = icmp eq ptr %first, %last
  br i1 %cmp.not, label %if.end, label %if.then

if.then:                                          ; preds = %entry
  %mpEnd = getelementptr inbounds %"struct.eastl::VectorBase", ptr %this, i64 0, i32 1
  %0 = load ptr, ptr %mpEnd, align 8
  %cmp.i.i.i.i = icmp eq ptr %0, %last
  br i1 %cmp.i.i.i.i, label %if.then._ZN5eastl4moveIPbS1_EET0_T_S3_S2_.exit_crit_edge, label %if.end.i.i.i.i

if.then._ZN5eastl4moveIPbS1_EET0_T_S3_S2_.exit_crit_edge: ; preds = %if.then
  %.pre6 = ptrtoint ptr %last to i64
  br label %_ZN5eastl4moveIPbS1_EET0_T_S3_S2_.exit

if.end.i.i.i.i:                                   ; preds = %if.then
  %1 = ptrtoint ptr %0 to i64
  %2 = ptrtoint ptr %last to i64
  %sub.i.i.i.i = sub i64 %1, %2
  tail call void @llvm.memmove.p0.p0.i64(ptr align 1 %first, ptr align 1 %last, i64 %sub.i.i.i.i, i1 false)
  %.pre = load ptr, ptr %mpEnd, align 8
  br label %_ZN5eastl4moveIPbS1_EET0_T_S3_S2_.exit

_ZN5eastl4moveIPbS1_EET0_T_S3_S2_.exit:           ; preds = %if.then._ZN5eastl4moveIPbS1_EET0_T_S3_S2_.exit_crit_edge, %if.end.i.i.i.i
  %sub.ptr.lhs.cast.pre-phi = phi i64 [ %.pre6, %if.then._ZN5eastl4moveIPbS1_EET0_T_S3_S2_.exit_crit_edge ], [ %2, %if.end.i.i.i.i ]
  %3 = phi ptr [ %last, %if.then._ZN5eastl4moveIPbS1_EET0_T_S3_S2_.exit_crit_edge ], [ %.pre, %if.end.i.i.i.i ]
  %sub.ptr.rhs.cast = ptrtoint ptr %first to i64
  %sub.ptr.sub.neg = sub i64 %sub.ptr.rhs.cast, %sub.ptr.lhs.cast.pre-phi
  %add.ptr = getelementptr inbounds i8, ptr %3, i64 %sub.ptr.sub.neg
  store ptr %add.ptr, ptr %mpEnd, align 8
  br label %if.end

if.end:                                           ; preds = %_ZN5eastl4moveIPbS1_EET0_T_S3_S2_.exit, %entry
  ret ptr %first
}

; Function Attrs: mustprogress uwtable
define weak_odr dso_local void @_ZN5eastl6vectorIbNS_9allocatorEE5eraseENS_16reverse_iteratorIPKbEES6_(ptr noalias sret(%"class.eastl::reverse_iterator") align 8 %agg.result, ptr noundef nonnull align 8 dereferenceable(24) %this, ptr noundef %first, ptr noundef %last) local_unnamed_addr #0 comdat align 2 {
entry:
  %0 = load ptr, ptr %last, align 8
  %1 = load ptr, ptr %first, align 8
  %cmp.not.i = icmp eq ptr %0, %1
  br i1 %cmp.not.i, label %_ZN5eastl6vectorIbNS_9allocatorEE5eraseEPKbS4_.exit, label %if.then.i

if.then.i:                                        ; preds = %entry
  %mpEnd.i = getelementptr inbounds %"struct.eastl::VectorBase", ptr %this, i64 0, i32 1
  %2 = load ptr, ptr %mpEnd.i, align 8
  %cmp.i.i.i.i.i = icmp eq ptr %2, %1
  br i1 %cmp.i.i.i.i.i, label %if.then._ZN5eastl4moveIPbS1_EET0_T_S3_S2_.exit_crit_edge.i, label %if.end.i.i.i.i.i

if.then._ZN5eastl4moveIPbS1_EET0_T_S3_S2_.exit_crit_edge.i: ; preds = %if.then.i
  %.pre6.i = ptrtoint ptr %1 to i64
  br label %_ZN5eastl4moveIPbS1_EET0_T_S3_S2_.exit.i

if.end.i.i.i.i.i:                                 ; preds = %if.then.i
  %3 = ptrtoint ptr %2 to i64
  %4 = ptrtoint ptr %1 to i64
  %sub.i.i.i.i.i = sub i64 %3, %4
  tail call void @llvm.memmove.p0.p0.i64(ptr align 1 %0, ptr align 1 %1, i64 %sub.i.i.i.i.i, i1 false)
  %.pre.i = load ptr, ptr %mpEnd.i, align 8
  br label %_ZN5eastl4moveIPbS1_EET0_T_S3_S2_.exit.i

_ZN5eastl4moveIPbS1_EET0_T_S3_S2_.exit.i:         ; preds = %if.end.i.i.i.i.i, %if.then._ZN5eastl4moveIPbS1_EET0_T_S3_S2_.exit_crit_edge.i
  %sub.ptr.lhs.cast.pre-phi.i = phi i64 [ %.pre6.i, %if.then._ZN5eastl4moveIPbS1_EET0_T_S3_S2_.exit_crit_edge.i ], [ %4, %if.end.i.i.i.i.i ]
  %5 = phi ptr [ %1, %if.then._ZN5eastl4moveIPbS1_EET0_T_S3_S2_.exit_crit_edge.i ], [ %.pre.i, %if.end.i.i.i.i.i ]
  %sub.ptr.rhs.cast.i = ptrtoint ptr %0 to i64
  %sub.ptr.sub.neg.i = sub i64 %sub.ptr.rhs.cast.i, %sub.ptr.lhs.cast.pre-phi.i
  %add.ptr.i = getelementptr inbounds i8, ptr %5, i64 %sub.ptr.sub.neg.i
  store ptr %add.ptr.i, ptr %mpEnd.i, align 8
  br label %_ZN5eastl6vectorIbNS_9allocatorEE5eraseEPKbS4_.exit

_ZN5eastl6vectorIbNS_9allocatorEE5eraseEPKbS4_.exit: ; preds = %entry, %_ZN5eastl4moveIPbS1_EET0_T_S3_S2_.exit.i
  store ptr %0, ptr %agg.result, align 8
  ret void
}

; Function Attrs: mustprogress nounwind uwtable
define weak_odr dso_local void @_ZN5eastl6vectorIbNS_9allocatorEE17reset_lose_memoryEv(ptr noundef nonnull align 8 dereferenceable(24) %this) local_unnamed_addr #1 comdat align 2 personality ptr @__gxx_personality_v0 {
entry:
  tail call void @llvm.memset.p0.i64(ptr noundef nonnull align 8 dereferenceable(24) %this, i8 0, i64 24, i1 false)
  ret void
}

; Function Attrs: mustprogress nounwind uwtable
define weak_odr dso_local noundef zeroext i1 @_ZNK5eastl6vectorIbNS_9allocatorEE8validateEv(ptr noundef nonnull align 8 dereferenceable(24) %this) local_unnamed_addr #1 comdat align 2 personality ptr @__gxx_personality_v0 {
entry:
  %mpEnd = getelementptr inbounds %"struct.eastl::VectorBase", ptr %this, i64 0, i32 1
  %0 = load ptr, ptr %mpEnd, align 8
  %1 = load ptr, ptr %this, align 8
  %cmp = icmp uge ptr %0, %1
  %mCapacityAllocator.i = getelementptr inbounds %"struct.eastl::VectorBase", ptr %this, i64 0, i32 2
  %2 = load ptr, ptr %mCapacityAllocator.i, align 8
  %cmp3 = icmp uge ptr %2, %0
  %retval.0 = select i1 %cmp, i1 %cmp3, i1 false
  ret i1 %retval.0
}

; Function Attrs: mustprogress nounwind uwtable
define weak_odr dso_local noundef i32 @_ZNK5eastl6vectorIbNS_9allocatorEE17validate_iteratorEPKb(ptr noundef nonnull align 8 dereferenceable(24) %this, ptr noundef %i) local_unnamed_addr #1 comdat align 2 {
entry:
  %0 = load ptr, ptr %this, align 8
  %cmp.not = icmp ugt ptr %0, %i
  br i1 %cmp.not, label %if.end8, label %if.then

if.then:                                          ; preds = %entry
  %mpEnd = getelementptr inbounds %"struct.eastl::VectorBase", ptr %this, i64 0, i32 1
  %1 = load ptr, ptr %mpEnd, align 8
  %cmp2 = icmp ugt ptr %1, %i
  br i1 %cmp2, label %return, label %if.end

if.end:                                           ; preds = %if.then
  %cmp5.not = icmp ult ptr %1, %i
  br i1 %cmp5.not, label %if.end8, label %return

if.end8:                                          ; preds = %if.end, %entry
  br label %return

return:                                           ; preds = %if.end, %if.then, %if.end8
  %retval.0 = phi i32 [ 0, %if.end8 ], [ 7, %if.then ], [ 3, %if.end ]
  ret i32 %retval.0
}

; Function Attrs: mustprogress uwtable
define weak_odr dso_local void @_ZN5eastl6vectorIiNS_9allocatorEEC2Ev(ptr noundef nonnull align 8 dereferenceable(24) %this) unnamed_addr #0 comdat($_ZN5eastl6vectorIiNS_9allocatorEEC5Ev) align 2 {
entry:
  tail call void @llvm.memset.p0.i64(ptr noundef nonnull align 8 dereferenceable(24) %this, i8 0, i64 24, i1 false)
  ret void
}

; Function Attrs: mustprogress nounwind uwtable
define weak_odr dso_local void @_ZN5eastl6vectorIiNS_9allocatorEEC2ERKS1_(ptr noundef nonnull align 8 dereferenceable(24) %this, ptr noundef nonnull align 1 dereferenceable(1) %allocator) unnamed_addr #1 comdat($_ZN5eastl6vectorIiNS_9allocatorEEC5ERKS1_) align 2 personality ptr @__gxx_personality_v0 {
invoke.cont:
  tail call void @llvm.memset.p0.i64(ptr noundef nonnull align 8 dereferenceable(24) %this, i8 0, i64 24, i1 false)
  ret void
}

; Function Attrs: mustprogress uwtable
define weak_odr dso_local void @_ZN5eastl6vectorIiNS_9allocatorEEC2EmRKS1_(ptr noundef nonnull align 8 dereferenceable(24) %this, i64 noundef %n, ptr noundef nonnull align 1 dereferenceable(1) %allocator) unnamed_addr #0 comdat($_ZN5eastl6vectorIiNS_9allocatorEEC5EmRKS1_) align 2 personality ptr @__gxx_personality_v0 {
entry:
  %tobool.not.i.i = icmp eq i64 %n, 0
  br i1 %tobool.not.i.i, label %_ZN5eastl10VectorBaseIiNS_9allocatorEEC2EmRKS1_.exit.thread, label %for.body.preheader.i

_ZN5eastl10VectorBaseIiNS_9allocatorEEC2EmRKS1_.exit.thread: ; preds = %entry
  tail call void @llvm.memset.p0.i64(ptr noundef nonnull align 8 dereferenceable(24) %this, i8 0, i64 24, i1 false)
  br label %_ZN5eastl31uninitialized_value_construct_nIPimEET_S2_T0_.exit

for.body.preheader.i:                             ; preds = %entry
  %mul.i.i = shl i64 %n, 2
  %call.i.i.i.i = tail call noundef ptr @_ZnamPKcijS0_i(i64 noundef %mul.i.i, ptr noundef null, i32 noundef 0, i32 noundef 0, ptr noundef null, i32 noundef 0)
  store ptr %call.i.i.i.i, ptr %this, align 8
  %add.ptr.i = getelementptr inbounds i32, ptr %call.i.i.i.i, i64 %n
  %mCapacityAllocator.i.i = getelementptr inbounds %"struct.eastl::VectorBase.2", ptr %this, i64 0, i32 2
  store ptr %add.ptr.i, ptr %mCapacityAllocator.i.i, align 8
  tail call void @llvm.memset.p0.i64(ptr align 4 %call.i.i.i.i, i8 0, i64 %mul.i.i, i1 false)
  %.pre = load ptr, ptr %this, align 8
  br label %_ZN5eastl31uninitialized_value_construct_nIPimEET_S2_T0_.exit

_ZN5eastl31uninitialized_value_construct_nIPimEET_S2_T0_.exit: ; preds = %_ZN5eastl10VectorBaseIiNS_9allocatorEEC2EmRKS1_.exit.thread, %for.body.preheader.i
  %0 = phi ptr [ null, %_ZN5eastl10VectorBaseIiNS_9allocatorEEC2EmRKS1_.exit.thread ], [ %.pre, %for.body.preheader.i ]
  %mpEnd.i7 = getelementptr inbounds %"struct.eastl::VectorBase.2", ptr %this, i64 0, i32 1
  %add.ptr = getelementptr inbounds i32, ptr %0, i64 %n
  store ptr %add.ptr, ptr %mpEnd.i7, align 8
  ret void
}

; Function Attrs: mustprogress uwtable
define weak_odr dso_local void @_ZN5eastl6vectorIiNS_9allocatorEEC2EmRKiRKS1_(ptr noundef nonnull align 8 dereferenceable(24) %this, i64 noundef %n, ptr noundef nonnull align 4 dereferenceable(4) %value, ptr noundef nonnull align 1 dereferenceable(1) %allocator) unnamed_addr #0 comdat($_ZN5eastl6vectorIiNS_9allocatorEEC5EmRKiRKS1_) align 2 personality ptr @__gxx_personality_v0 {
entry:
  %tobool.not.i.i = icmp eq i64 %n, 0
  br i1 %tobool.not.i.i, label %_ZN5eastl10VectorBaseIiNS_9allocatorEEC2EmRKS1_.exit.thread, label %_ZN5eastl10VectorBaseIiNS_9allocatorEEC2EmRKS1_.exit

_ZN5eastl10VectorBaseIiNS_9allocatorEEC2EmRKS1_.exit.thread: ; preds = %entry
  %mpEnd.i4 = getelementptr inbounds %"struct.eastl::VectorBase.2", ptr %this, i64 0, i32 1
  tail call void @llvm.memset.p0.i64(ptr noundef nonnull align 8 dereferenceable(24) %this, i8 0, i64 24, i1 false)
  br label %invoke.cont

_ZN5eastl10VectorBaseIiNS_9allocatorEEC2EmRKS1_.exit: ; preds = %entry
  %mul.i.i = shl i64 %n, 2
  %call.i.i.i.i = tail call noundef ptr @_ZnamPKcijS0_i(i64 noundef %mul.i.i, ptr noundef null, i32 noundef 0, i32 noundef 0, ptr noundef null, i32 noundef 0)
  store ptr %call.i.i.i.i, ptr %this, align 8
  %mpEnd.i = getelementptr inbounds %"struct.eastl::VectorBase.2", ptr %this, i64 0, i32 1
  store ptr %call.i.i.i.i, ptr %mpEnd.i, align 8
  %add.ptr.i = getelementptr inbounds i32, ptr %call.i.i.i.i, i64 %n
  %mCapacityAllocator.i.i = getelementptr inbounds %"struct.eastl::VectorBase.2", ptr %this, i64 0, i32 2
  store ptr %add.ptr.i, ptr %mCapacityAllocator.i.i, align 8
  %0 = load i32, ptr %value, align 4
  br label %for.body.i.i.i.i

for.body.i.i.i.i:                                 ; preds = %_ZN5eastl10VectorBaseIiNS_9allocatorEEC2EmRKS1_.exit, %for.body.i.i.i.i
  %n.addr.04.i.i.i.i = phi i64 [ %dec.i.i.i.i, %for.body.i.i.i.i ], [ %n, %_ZN5eastl10VectorBaseIiNS_9allocatorEEC2EmRKS1_.exit ]
  %first.sroa.0.03.i.i.i.i = phi ptr [ %incdec.ptr.i.i.i.i.i, %for.body.i.i.i.i ], [ %call.i.i.i.i, %_ZN5eastl10VectorBaseIiNS_9allocatorEEC2EmRKS1_.exit ]
  %dec.i.i.i.i = add i64 %n.addr.04.i.i.i.i, -1
  store i32 %0, ptr %first.sroa.0.03.i.i.i.i, align 4
  %incdec.ptr.i.i.i.i.i = getelementptr inbounds i32, ptr %first.sroa.0.03.i.i.i.i, i64 1
  %cmp.not.i.i.i.i = icmp eq i64 %dec.i.i.i.i, 0
  br i1 %cmp.not.i.i.i.i, label %invoke.cont.loopexit, label %for.body.i.i.i.i, !llvm.loop !22

invoke.cont.loopexit:                             ; preds = %for.body.i.i.i.i
  %.pre = load ptr, ptr %this, align 8
  br label %invoke.cont

invoke.cont:                                      ; preds = %invoke.cont.loopexit, %_ZN5eastl10VectorBaseIiNS_9allocatorEEC2EmRKS1_.exit.thread
  %1 = phi ptr [ null, %_ZN5eastl10VectorBaseIiNS_9allocatorEEC2EmRKS1_.exit.thread ], [ %.pre, %invoke.cont.loopexit ]
  %mpEnd.i7 = phi ptr [ %mpEnd.i4, %_ZN5eastl10VectorBaseIiNS_9allocatorEEC2EmRKS1_.exit.thread ], [ %mpEnd.i, %invoke.cont.loopexit ]
  %add.ptr = getelementptr inbounds i32, ptr %1, i64 %n
  store ptr %add.ptr, ptr %mpEnd.i7, align 8
  ret void
}

; Function Attrs: mustprogress uwtable
define weak_odr dso_local void @_ZN5eastl6vectorIiNS_9allocatorEEC2ERKS2_(ptr noundef nonnull align 8 dereferenceable(24) %this, ptr noundef nonnull align 8 dereferenceable(24) %x) unnamed_addr #0 comdat($_ZN5eastl6vectorIiNS_9allocatorEEC5ERKS2_) align 2 personality ptr @__gxx_personality_v0 {
entry:
  %mpEnd.i = getelementptr inbounds %"struct.eastl::VectorBase.2", ptr %x, i64 0, i32 1
  %0 = load ptr, ptr %mpEnd.i, align 8
  %1 = load ptr, ptr %x, align 8
  %sub.ptr.lhs.cast.i = ptrtoint ptr %0 to i64
  %sub.ptr.rhs.cast.i = ptrtoint ptr %1 to i64
  %sub.ptr.sub.i = sub i64 %sub.ptr.lhs.cast.i, %sub.ptr.rhs.cast.i
  %sub.ptr.div.i = ashr exact i64 %sub.ptr.sub.i, 2
  %tobool.not.i.i = icmp eq ptr %0, %1
  br i1 %tobool.not.i.i, label %_ZN5eastl10VectorBaseIiNS_9allocatorEEC2EmRKS1_.exit, label %if.then.i.i

if.then.i.i:                                      ; preds = %entry
  %call.i.i.i.i = tail call noundef ptr @_ZnamPKcijS0_i(i64 noundef %sub.ptr.sub.i, ptr noundef null, i32 noundef 0, i32 noundef 0, ptr noundef null, i32 noundef 0)
  br label %_ZN5eastl10VectorBaseIiNS_9allocatorEEC2EmRKS1_.exit

_ZN5eastl10VectorBaseIiNS_9allocatorEEC2EmRKS1_.exit: ; preds = %entry, %if.then.i.i
  %retval.0.i.i = phi ptr [ %call.i.i.i.i, %if.then.i.i ], [ null, %entry ]
  store ptr %retval.0.i.i, ptr %this, align 8
  %mpEnd.i4 = getelementptr inbounds %"struct.eastl::VectorBase.2", ptr %this, i64 0, i32 1
  store ptr %retval.0.i.i, ptr %mpEnd.i4, align 8
  %add.ptr.i = getelementptr inbounds i32, ptr %retval.0.i.i, i64 %sub.ptr.div.i
  %mCapacityAllocator.i.i = getelementptr inbounds %"struct.eastl::VectorBase.2", ptr %this, i64 0, i32 2
  store ptr %add.ptr.i, ptr %mCapacityAllocator.i.i, align 8
  %2 = load ptr, ptr %x, align 8
  %3 = load ptr, ptr %mpEnd.i, align 8
  %cmp.i.i.i = icmp eq ptr %2, %3
  br i1 %cmp.i.i.i, label %invoke.cont, label %if.end.i.i.i

if.end.i.i.i:                                     ; preds = %_ZN5eastl10VectorBaseIiNS_9allocatorEEC2EmRKS1_.exit
  %sub.ptr.lhs.cast.i.i.i = ptrtoint ptr %3 to i64
  %sub.ptr.rhs.cast.i.i.i = ptrtoint ptr %2 to i64
  %sub.ptr.sub.i.i.i = sub i64 %sub.ptr.lhs.cast.i.i.i, %sub.ptr.rhs.cast.i.i.i
  %sub.ptr.div.i.i.i = ashr exact i64 %sub.ptr.sub.i.i.i, 2
  tail call void @llvm.memmove.p0.p0.i64(ptr align 4 %retval.0.i.i, ptr align 4 %2, i64 %sub.ptr.sub.i.i.i, i1 false)
  %add.ptr.i.i.i = getelementptr inbounds i32, ptr %retval.0.i.i, i64 %sub.ptr.div.i.i.i
  br label %invoke.cont

