; ModuleID = 'bench/eastl/original/TestSet.cpp.ll'
source_filename = "bench/eastl/original/TestSet.cpp.ll"
target datalayout = "e-m:e-p270:32:32-p271:32:32-p272:64:64-i64:64-i128:128-f80:128-n8:16:32:64-S128"
target triple = "x86_64-unknown-linux-gnu"

%"class.eastl::reverse_iterator" = type { %"struct.eastl::rbtree_iterator" }
%"struct.eastl::rbtree_iterator" = type { ptr }
%"class.eastl::reverse_iterator.8" = type { %"struct.eastl::rbtree_iterator.7" }
%"struct.eastl::rbtree_iterator.7" = type { ptr }
%struct.TestObject = type <{ i32, i8, [3 x i8], i64, i32, [4 x i8] }>
%"class.eastl::reverse_iterator.18" = type { %"struct.eastl::rbtree_iterator.17" }
%"struct.eastl::rbtree_iterator.17" = type { ptr }
%"class.eastl::set" = type { %"class.eastl::rbtree.base", [7 x i8] }
%"class.eastl::rbtree.base" = type <{ %"struct.eastl::rbtree_node_base", i64, %"class.eastl::allocator" }>
%"struct.eastl::rbtree_node_base" = type { ptr, ptr, ptr, i8 }
%"class.eastl::allocator" = type { i8 }
%"class.eastl::set.25" = type { %"class.eastl::rbtree.base.29", [7 x i8] }
%"class.eastl::rbtree.base.29" = type <{ %"struct.eastl::rbtree_node_base", i64, %"class.eastl::allocator" }>
%"class.eastl::multiset.31" = type { %"class.eastl::rbtree.base.34", [7 x i8] }
%"class.eastl::rbtree.base.34" = type <{ %"struct.eastl::rbtree_node_base", i64, %"class.eastl::allocator" }>
%"class.eastl::set.39" = type { %"class.eastl::rbtree.base.44", [7 x i8] }
%"class.eastl::rbtree.base.44" = type <{ %"struct.eastl::rbtree_node_base", i64, %"class.eastl::allocator" }>
%"struct.std::_Rb_tree<int, int, std::_Identity<int>, std::less<int>>::_Alloc_node" = type { ptr }
%"class.eastl::scoped_ptr" = type { ptr }
%"class.eastl::scoped_ptr.61" = type { ptr }
%"struct.std::_Rb_tree<TestObject, TestObject, std::_Identity<TestObject>, std::less<TestObject>>::_Alloc_node" = type { ptr }
%"class.eastl::scoped_ptr.68" = type { ptr }
%"class.eastl::scoped_ptr.69" = type { ptr }
%"class.eastl::scoped_ptr.92" = type { ptr }
%"class.eastl::scoped_ptr.93" = type { ptr }
%"struct.eastl::less.13" = type { i8 }
%"class.eastl::scoped_ptr.96" = type { ptr }
%"class.eastl::scoped_ptr.97" = type { ptr }
%"class.eastl::vector.107" = type { %"struct.eastl::VectorBase.108" }
%"struct.eastl::VectorBase.108" = type { ptr, ptr, %"class.eastl::compressed_pair.109" }
%"class.eastl::compressed_pair.109" = type { %"class.eastl::compressed_pair_imp.110" }
%"class.eastl::compressed_pair_imp.110" = type { ptr }
%class.EASTLTest_Rand = type { i64 }
%"class.eastl::set.9" = type { %"class.eastl::rbtree.base.14", [7 x i8] }
%"class.eastl::rbtree.base.14" = type <{ %"struct.eastl::rbtree_node_base", i64, %"class.eastl::allocator" }>
%"class.eastl::multiset.20" = type { %"class.eastl::rbtree.base.23", [7 x i8] }
%"class.eastl::rbtree.base.23" = type <{ %"struct.eastl::rbtree_node_base", i64, %"class.eastl::allocator" }>
%"class.std::set" = type { %"class.std::_Rb_tree" }
%"class.std::_Rb_tree" = type { %"struct.std::_Rb_tree<int, int, std::_Identity<int>, std::less<int>>::_Rb_tree_impl" }
%"struct.std::_Rb_tree<int, int, std::_Identity<int>, std::less<int>>::_Rb_tree_impl" = type { %"struct.std::_Rb_tree_key_compare", %"struct.std::_Rb_tree_header" }
%"struct.std::_Rb_tree_key_compare" = type { %"struct.std::less" }
%"struct.std::less" = type { i8 }
%"struct.std::_Rb_tree_header" = type { %"struct.std::_Rb_tree_node_base", i64 }
%"struct.std::_Rb_tree_node_base" = type { i32, ptr, ptr, ptr }
%"struct.std::_Rb_tree<int, int, std::_Identity<int>, std::less<int>>::_Reuse_or_alloc_node" = type { ptr, ptr, ptr }
%"class.std::set.70" = type { %"class.std::_Rb_tree.71" }
%"class.std::_Rb_tree.71" = type { %"struct.std::_Rb_tree<TestObject, TestObject, std::_Identity<TestObject>, std::less<TestObject>>::_Rb_tree_impl" }
%"struct.std::_Rb_tree<TestObject, TestObject, std::_Identity<TestObject>, std::less<TestObject>>::_Rb_tree_impl" = type { %"struct.std::_Rb_tree_key_compare.75", %"struct.std::_Rb_tree_header" }
%"struct.std::_Rb_tree_key_compare.75" = type { %"struct.std::less.76" }
%"struct.std::less.76" = type { i8 }
%"struct.std::_Rb_tree<TestObject, TestObject, std::_Identity<TestObject>, std::less<TestObject>>::_Reuse_or_alloc_node" = type { ptr, ptr, ptr }
%"class.std::multiset" = type { %"class.std::_Rb_tree" }
%"class.std::multiset.98" = type { %"class.std::_Rb_tree.71" }

$_ZN5eastl3setIiNS_4lessIiEENS_9allocatorEEC5ERKS3_ = comdat any

$_ZN5eastl3setIiNS_4lessIiEENS_9allocatorEEC5ERKS2_RKS3_ = comdat any

$_ZN5eastl3setIiNS_4lessIiEENS_9allocatorEEC5ERKS4_ = comdat any

$_ZN5eastl3setIiNS_4lessIiEENS_9allocatorEEC5EOS4_ = comdat any

$_ZN5eastl3setIiNS_4lessIiEENS_9allocatorEEC5EOS4_RKS3_ = comdat any

$_ZN5eastl3setIiNS_4lessIiEENS_9allocatorEEC5ESt16initializer_listIiERKS2_RKS3_ = comdat any

$_ZN5eastl3setIiNS_4lessIiEENS_9allocatorEEaSERKS4_ = comdat any

$_ZN5eastl3setIiNS_4lessIiEENS_9allocatorEEaSESt16initializer_listIiE = comdat any

$_ZN5eastl3setIiNS_4lessIiEENS_9allocatorEEaSEOS4_ = comdat any

$_ZN5eastl6rbtreeIiiNS_4lessIiEENS_9allocatorENS_8use_selfIiEELb0ELb1EEaSEOS6_ = comdat any

$_ZNK5eastl3setIiNS_4lessIiEENS_9allocatorEE10value_compEv = comdat any

$_ZN5eastl3setIiNS_4lessIiEENS_9allocatorEE5eraseERKi = comdat any

$_ZN5eastl3setIiNS_4lessIiEENS_9allocatorEE5eraseENS_15rbtree_iteratorIiPKiRS6_EE = comdat any

$_ZN5eastl3setIiNS_4lessIiEENS_9allocatorEE5eraseENS_15rbtree_iteratorIiPKiRS6_EES9_ = comdat any

$_ZN5eastl3setIiNS_4lessIiEENS_9allocatorEE5eraseENS_16reverse_iteratorINS_15rbtree_iteratorIiPKiRS7_EEEE = comdat any

$_ZN5eastl3setIiNS_4lessIiEENS_9allocatorEE5eraseENS_16reverse_iteratorINS_15rbtree_iteratorIiPKiRS7_EEEESB_ = comdat any

$_ZNK5eastl3setIiNS_4lessIiEENS_9allocatorEE5countERKi = comdat any

$_ZN5eastl3setIiNS_4lessIiEENS_9allocatorEE11equal_rangeERKi = comdat any

$_ZNK5eastl3setIiNS_4lessIiEENS_9allocatorEE11equal_rangeERKi = comdat any

$_ZN5eastl8multisetIfNS_4lessIfEENS_9allocatorEEC5ERKS3_ = comdat any

$_ZN5eastl8multisetIfNS_4lessIfEENS_9allocatorEEC5ERKS2_RKS3_ = comdat any

$_ZN5eastl8multisetIfNS_4lessIfEENS_9allocatorEEC5ERKS4_ = comdat any

$_ZN5eastl8multisetIfNS_4lessIfEENS_9allocatorEEC5EOS4_ = comdat any

$_ZN5eastl8multisetIfNS_4lessIfEENS_9allocatorEEC5EOS4_RKS3_ = comdat any

$_ZN5eastl8multisetIfNS_4lessIfEENS_9allocatorEEC5ESt16initializer_listIfERKS2_RKS3_ = comdat any

$_ZN5eastl8multisetIfNS_4lessIfEENS_9allocatorEEaSERKS4_ = comdat any

$_ZN5eastl8multisetIfNS_4lessIfEENS_9allocatorEEaSESt16initializer_listIfE = comdat any

$_ZN5eastl8multisetIfNS_4lessIfEENS_9allocatorEEaSEOS4_ = comdat any

$_ZN5eastl6rbtreeIffNS_4lessIfEENS_9allocatorENS_8use_selfIfEELb0ELb0EEaSEOS6_ = comdat any

$_ZNK5eastl8multisetIfNS_4lessIfEENS_9allocatorEE10value_compEv = comdat any

$_ZN5eastl8multisetIfNS_4lessIfEENS_9allocatorEE5eraseERKf = comdat any

$_ZN5eastl8multisetIfNS_4lessIfEENS_9allocatorEE11equal_rangeERKf = comdat any

$_ZN5eastl8multisetIfNS_4lessIfEENS_9allocatorEE5eraseENS_15rbtree_iteratorIfPKfRS6_EE = comdat any

$_ZN5eastl8multisetIfNS_4lessIfEENS_9allocatorEE5eraseENS_15rbtree_iteratorIfPKfRS6_EES9_ = comdat any

$_ZN5eastl8multisetIfNS_4lessIfEENS_9allocatorEE5eraseENS_16reverse_iteratorINS_15rbtree_iteratorIfPKfRS7_EEEE = comdat any

$_ZN5eastl8multisetIfNS_4lessIfEENS_9allocatorEE5eraseENS_16reverse_iteratorINS_15rbtree_iteratorIfPKfRS7_EEEESB_ = comdat any

$_ZNK5eastl8multisetIfNS_4lessIfEENS_9allocatorEE5countERKf = comdat any

$_ZNK5eastl8multisetIfNS_4lessIfEENS_9allocatorEE11equal_rangeERKf = comdat any

$_ZN5eastl8multisetIfNS_4lessIfEENS_9allocatorEE17equal_range_smallERKf = comdat any

$_ZNK5eastl8multisetIfNS_4lessIfEENS_9allocatorEE17equal_range_smallERKf = comdat any

$_ZN5eastl3setI10TestObjectNS_4lessIS1_EENS_9allocatorEEC5ERKS4_ = comdat any

$_ZN5eastl3setI10TestObjectNS_4lessIS1_EENS_9allocatorEEC5ERKS3_RKS4_ = comdat any

$_ZN5eastl3setI10TestObjectNS_4lessIS1_EENS_9allocatorEEC5ERKS5_ = comdat any

$_ZN5eastl3setI10TestObjectNS_4lessIS1_EENS_9allocatorEEC5EOS5_ = comdat any

$_ZN5eastl3setI10TestObjectNS_4lessIS1_EENS_9allocatorEEC5EOS5_RKS4_ = comdat any

$_ZN5eastl3setI10TestObjectNS_4lessIS1_EENS_9allocatorEEC5ESt16initializer_listIS1_ERKS3_RKS4_ = comdat any

$_ZN5eastl3setI10TestObjectNS_4lessIS1_EENS_9allocatorEEaSERKS5_ = comdat any

$_ZN5eastl3setI10TestObjectNS_4lessIS1_EENS_9allocatorEEaSESt16initializer_listIS1_E = comdat any

$_ZN5eastl3setI10TestObjectNS_4lessIS1_EENS_9allocatorEEaSEOS5_ = comdat any

$_ZN5eastl6rbtreeI10TestObjectS1_NS_4lessIS1_EENS_9allocatorENS_8use_selfIS1_EELb0ELb1EEaSEOS7_ = comdat any

$_ZNK5eastl3setI10TestObjectNS_4lessIS1_EENS_9allocatorEE10value_compEv = comdat any

$_ZN5eastl3setI10TestObjectNS_4lessIS1_EENS_9allocatorEE5eraseERKS1_ = comdat any

$_ZN5eastl3setI10TestObjectNS_4lessIS1_EENS_9allocatorEE5eraseENS_15rbtree_iteratorIS1_PKS1_RS7_EE = comdat any

$_ZN5eastl3setI10TestObjectNS_4lessIS1_EENS_9allocatorEE5eraseENS_15rbtree_iteratorIS1_PKS1_RS7_EESA_ = comdat any

$_ZN5eastl6rbtreeI10TestObjectS1_NS_4lessIS1_EENS_9allocatorENS_8use_selfIS1_EELb0ELb1EE5eraseENS_15rbtree_iteratorIS1_PKS1_RS9_EESC_ = comdat any

$_ZN5eastl3setI10TestObjectNS_4lessIS1_EENS_9allocatorEE5eraseENS_16reverse_iteratorINS_15rbtree_iteratorIS1_PKS1_RS8_EEEE = comdat any

$_ZN5eastl3setI10TestObjectNS_4lessIS1_EENS_9allocatorEE5eraseENS_16reverse_iteratorINS_15rbtree_iteratorIS1_PKS1_RS8_EEEESC_ = comdat any

$_ZNK5eastl3setI10TestObjectNS_4lessIS1_EENS_9allocatorEE5countERKS1_ = comdat any

$_ZN5eastl3setI10TestObjectNS_4lessIS1_EENS_9allocatorEE11equal_rangeERKS1_ = comdat any

$_ZNK5eastl3setI10TestObjectNS_4lessIS1_EENS_9allocatorEE11equal_rangeERKS1_ = comdat any

$_ZN5eastl8multisetI10TestObjectNS_4lessIS1_EENS_9allocatorEEC5ERKS4_ = comdat any

$_ZN5eastl8multisetI10TestObjectNS_4lessIS1_EENS_9allocatorEEC5ERKS3_RKS4_ = comdat any

$_ZN5eastl8multisetI10TestObjectNS_4lessIS1_EENS_9allocatorEEC5ERKS5_ = comdat any

$_ZN5eastl8multisetI10TestObjectNS_4lessIS1_EENS_9allocatorEEC5EOS5_ = comdat any

$_ZN5eastl8multisetI10TestObjectNS_4lessIS1_EENS_9allocatorEEC5EOS5_RKS4_ = comdat any

$_ZN5eastl8multisetI10TestObjectNS_4lessIS1_EENS_9allocatorEEC5ESt16initializer_listIS1_ERKS3_RKS4_ = comdat any

$_ZN5eastl6rbtreeI10TestObjectS1_NS_4lessIS1_EENS_9allocatorENS_8use_selfIS1_EELb0ELb0EEC2IPKS1_EET_SB_RKS3_RKS4_ = comdat any

$_ZN5eastl8multisetI10TestObjectNS_4lessIS1_EENS_9allocatorEEaSERKS5_ = comdat any

$_ZN5eastl8multisetI10TestObjectNS_4lessIS1_EENS_9allocatorEEaSESt16initializer_listIS1_E = comdat any

$_ZN5eastl6rbtreeI10TestObjectS1_NS_4lessIS1_EENS_9allocatorENS_8use_selfIS1_EELb0ELb0EEaSESt16initializer_listIS1_E = comdat any

$_ZN5eastl8multisetI10TestObjectNS_4lessIS1_EENS_9allocatorEEaSEOS5_ = comdat any

$_ZN5eastl6rbtreeI10TestObjectS1_NS_4lessIS1_EENS_9allocatorENS_8use_selfIS1_EELb0ELb0EEaSEOS7_ = comdat any

$_ZNK5eastl8multisetI10TestObjectNS_4lessIS1_EENS_9allocatorEE10value_compEv = comdat any

$_ZN5eastl8multisetI10TestObjectNS_4lessIS1_EENS_9allocatorEE5eraseERKS1_ = comdat any

$_ZN5eastl8multisetI10TestObjectNS_4lessIS1_EENS_9allocatorEE11equal_rangeERKS1_ = comdat any

$_ZN5eastl6rbtreeI10TestObjectS1_NS_4lessIS1_EENS_9allocatorENS_8use_selfIS1_EELb0ELb0EE5eraseENS_15rbtree_iteratorIS1_PKS1_RS9_EESC_ = comdat any

$_ZN5eastl8multisetI10TestObjectNS_4lessIS1_EENS_9allocatorEE5eraseENS_15rbtree_iteratorIS1_PKS1_RS7_EE = comdat any

$_ZN5eastl8multisetI10TestObjectNS_4lessIS1_EENS_9allocatorEE5eraseENS_15rbtree_iteratorIS1_PKS1_RS7_EESA_ = comdat any

$_ZN5eastl8multisetI10TestObjectNS_4lessIS1_EENS_9allocatorEE5eraseENS_16reverse_iteratorINS_15rbtree_iteratorIS1_PKS1_RS8_EEEE = comdat any

$_ZN5eastl8multisetI10TestObjectNS_4lessIS1_EENS_9allocatorEE5eraseENS_16reverse_iteratorINS_15rbtree_iteratorIS1_PKS1_RS8_EEEESC_ = comdat any

$_ZNK5eastl8multisetI10TestObjectNS_4lessIS1_EENS_9allocatorEE5countERKS1_ = comdat any

$_ZNK5eastl8multisetI10TestObjectNS_4lessIS1_EENS_9allocatorEE11equal_rangeERKS1_ = comdat any

$_ZN5eastl8multisetI10TestObjectNS_4lessIS1_EENS_9allocatorEE17equal_range_smallERKS1_ = comdat any

$_ZNK5eastl8multisetI10TestObjectNS_4lessIS1_EENS_9allocatorEE17equal_range_smallERKS1_ = comdat any

$_Z19TestSetConstructionIN5eastl3setIiNS0_4lessIiEENS0_9allocatorEEESt3setIiSt4lessIiESaIiEELb0EEiv = comdat any

$_Z19TestSetConstructionIN5eastl3setI10TestObjectNS0_4lessIS2_EENS0_9allocatorEEESt3setIS2_St4lessIS2_ESaIS2_EELb0EEiv = comdat any

$_Z19TestSetConstructionIN5eastl8multisetIiNS0_4lessIiEENS0_9allocatorEEESt8multisetIiSt4lessIiESaIiEELb1EEiv = comdat any

$_Z19TestSetConstructionIN5eastl8multisetI10TestObjectNS0_4lessIS2_EENS0_9allocatorEEESt8multisetIS2_St4lessIS2_ESaIS2_EELb1EEiv = comdat any

$_Z15TestSetMutationIN5eastl3setIiNS0_4lessIiEENS0_9allocatorEEESt3setIiSt4lessIiESaIiEELb0EEiv = comdat any

$_Z15TestSetMutationIN5eastl3setI10TestObjectNS0_4lessIS2_EENS0_9allocatorEEESt3setIS2_St4lessIS2_ESaIS2_EELb0EEiv = comdat any

$_Z15TestSetMutationIN5eastl8multisetIiNS0_4lessIiEENS0_9allocatorEEESt8multisetIiSt4lessIiESaIiEELb1EEiv = comdat any

$_Z15TestSetMutationIN5eastl8multisetI10TestObjectNS0_4lessIS2_EENS0_9allocatorEEESt8multisetIS2_St4lessIS2_ESaIS2_EELb1EEiv = comdat any

$_Z13TestSetSearchIN5eastl3setIiNS0_4lessIiEENS0_9allocatorEEELb0EEiv = comdat any

$_Z13TestSetSearchIN5eastl3setI10TestObjectNS0_4lessIS2_EENS0_9allocatorEEELb0EEiv = comdat any

$_Z13TestSetSearchIN5eastl8multisetIiNS0_4lessIiEENS0_9allocatorEEELb1EEiv = comdat any

$_Z13TestSetSearchIN5eastl8multisetI10TestObjectNS0_4lessIS2_EENS0_9allocatorEEELb1EEiv = comdat any

$_Z12TestSetCpp11IN5eastl3setI10TestObjectNS0_4lessIS2_EENS0_9allocatorEEEEiv = comdat any

$_Z17TestMultisetCpp11IN5eastl8multisetI10TestObjectNS0_4lessIS2_EENS0_9allocatorEEEEiv = comdat any

$_ZN5eastl3setIiNS_4lessIiEENS_9allocatorEED2Ev = comdat any

$_ZN5eastl8multisetIiNS_4lessIiEENS_9allocatorEED2Ev = comdat any

$_ZN5eastl3setI11xvalue_testNS_4lessIS1_EENS_9allocatorEED2Ev = comdat any

$_ZN5eastl6rbtreeIiiNS_4lessIiEENS_9allocatorENS_8use_selfIiEELb0ELb1EE13DoNukeSubtreeEPNS_16rbtree_node_baseE = comdat any

$__clang_call_terminate = comdat any

$_ZN5eastl6rbtreeIiiNS_4lessIiEENS_9allocatorENS_8use_selfIiEELb0ELb0EE13DoNukeSubtreeEPNS_16rbtree_node_baseE = comdat any

$_ZN5eastl6rbtreeI11xvalue_testS1_NS_4lessIS1_EENS_9allocatorENS_8use_selfIS1_EELb0ELb1EE13DoNukeSubtreeEPNS_16rbtree_node_baseE = comdat any

$_ZN5eastl6rbtreeIiiNS_4lessIiEENS_9allocatorENS_8use_selfIiEELb0ELb1EE13DoCopySubtreeEPKNS_11rbtree_nodeIiEEPNS_16rbtree_node_baseE = comdat any

$_ZN5eastl6rbtreeIiiNS_4lessIiEENS_9allocatorENS_8use_selfIiEELb0ELb1EE13DoInsertValueIJRKiEEENS_4pairINS_15rbtree_iteratorIiPS8_S9_EEbEENS_17integral_constantIbLb1EEEDpOT_ = comdat any

$_ZN5eastl6rbtreeIiiNS_4lessIiEENS_9allocatorENS_8use_selfIiEELb0ELb1EE13DoInsertValueIJKiEEENS_4pairINS_15rbtree_iteratorIiPS8_RS8_EEbEENS_17integral_constantIbLb1EEEDpOT_ = comdat any

$_ZN5eastl6rbtreeIffNS_4lessIfEENS_9allocatorENS_8use_selfIfEELb0ELb0EE13DoCopySubtreeEPKNS_11rbtree_nodeIfEEPNS_16rbtree_node_baseE = comdat any

$_ZN5eastl6rbtreeIffNS_4lessIfEENS_9allocatorENS_8use_selfIfEELb0ELb0EE13DoNukeSubtreeEPNS_16rbtree_node_baseE = comdat any

$_ZN5eastl6rbtreeI10TestObjectS1_NS_4lessIS1_EENS_9allocatorENS_8use_selfIS1_EELb0ELb1EE13DoCopySubtreeEPKNS_11rbtree_nodeIS1_EEPNS_16rbtree_node_baseE = comdat any

$_ZN5eastl6rbtreeI10TestObjectS1_NS_4lessIS1_EENS_9allocatorENS_8use_selfIS1_EELb0ELb1EE13DoInsertValueIJRKS1_EEENS_4pairINS_15rbtree_iteratorIS1_PS9_SA_EEbEENS_17integral_constantIbLb1EEEDpOT_ = comdat any

$_ZN5eastl6rbtreeI10TestObjectS1_NS_4lessIS1_EENS_9allocatorENS_8use_selfIS1_EELb0ELb1EE13DoNukeSubtreeEPNS_16rbtree_node_baseE = comdat any

$_ZN5eastl6rbtreeI10TestObjectS1_NS_4lessIS1_EENS_9allocatorENS_8use_selfIS1_EELb0ELb1EE13DoInsertValueIJKS1_EEENS_4pairINS_15rbtree_iteratorIS1_PS9_RS9_EEbEENS_17integral_constantIbLb1EEEDpOT_ = comdat any

$_ZN5eastl6rbtreeI10TestObjectS1_NS_4lessIS1_EENS_9allocatorENS_8use_selfIS1_EELb0ELb0EE13DoCopySubtreeEPKNS_11rbtree_nodeIS1_EEPNS_16rbtree_node_baseE = comdat any

$_ZN5eastl6rbtreeI10TestObjectS1_NS_4lessIS1_EENS_9allocatorENS_8use_selfIS1_EELb0ELb0EE13DoNukeSubtreeEPNS_16rbtree_node_baseE = comdat any

$_Z17CompareContainersIN5eastl3setIiNS0_4lessIiEENS0_9allocatorEEESt3setIiSt4lessIiESaIiEENS0_8use_selfIiEESC_EiRKT_RKT0_PKcT1_T2_ = comdat any

$_ZNK5eastl6rbtreeIiiNS_4lessIiEENS_9allocatorENS_8use_selfIiEELb0ELb1EE8validateEv = comdat any

$_ZNSt3setIiSt4lessIiESaIiEEC2ISt23_Rb_tree_const_iteratorIiEEET_S7_ = comdat any

$_ZN5eastl4swapINS_3setIiNS_4lessIiEENS_9allocatorEEEEEvRT_S7_ = comdat any

$_ZSt4swapISt3setIiSt4lessIiESaIiEEENSt9enable_ifIXsr6__and_ISt6__not_ISt15__is_tuple_likeIT_EESt21is_move_constructibleIS8_ESt18is_move_assignableIS8_EEE5valueEvE4typeERS8_SH_ = comdat any

$_ZN5eastl10scoped_ptrINS_3setIiNS_4lessIiEENS_9allocatorEEENS_17smart_ptr_deleterIS5_EEED2Ev = comdat any

$_ZN5eastl10scoped_ptrISt3setIiSt4lessIiESaIiEENS_17smart_ptr_deleterIS5_EEED2Ev = comdat any

$_ZN5eastl6rbtreeIiiNS_4lessIiEENS_9allocatorENS_8use_selfIiEELb0ELb1EE13DoInsertValueENS_17integral_constantIbLb1EEEOi = comdat any

$_ZNSt8_Rb_treeIiiSt9_IdentityIiESt4lessIiESaIiEE7_M_copyILb0ENS5_11_Alloc_nodeEEEPSt13_Rb_tree_nodeIiESA_PSt18_Rb_tree_node_baseRT0_ = comdat any

$_ZNSt8_Rb_treeIiiSt9_IdentityIiESt4lessIiESaIiEE8_M_eraseEPSt13_Rb_tree_nodeIiE = comdat any

$_ZNSt8_Rb_treeIiiSt9_IdentityIiESt4lessIiESaIiEED2Ev = comdat any

$_ZNSt8_Rb_treeIiiSt9_IdentityIiESt4lessIiESaIiEE29_M_get_insert_hint_unique_posESt23_Rb_tree_const_iteratorIiERKi = comdat any

$_ZNSt8_Rb_treeIiiSt9_IdentityIiESt4lessIiESaIiEEaSERKS5_ = comdat any

$_ZNSt8_Rb_treeIiiSt9_IdentityIiESt4lessIiESaIiEE20_Reuse_or_alloc_nodeD2Ev = comdat any

$_ZNSt8_Rb_treeIiiSt9_IdentityIiESt4lessIiESaIiEE7_M_copyILb0ENS5_20_Reuse_or_alloc_nodeEEEPSt13_Rb_tree_nodeIiESA_PSt18_Rb_tree_node_baseRT0_ = comdat any

$_ZN5eastl6rbtreeIiiNS_4lessIiEENS_9allocatorENS_8use_selfIiEELb0ELb1EE13DoInsertValueIJRiEEENS_4pairINS_15rbtree_iteratorIiPKiRSB_EEbEENS_17integral_constantIbLb1EEEDpOT_ = comdat any

$_Z17CompareContainersIN5eastl3setI10TestObjectNS0_4lessIS2_EENS0_9allocatorEEESt3setIS2_St4lessIS2_ESaIS2_EENS0_8use_selfIS2_EESD_EiRKT_RKT0_PKcT1_T2_ = comdat any

$_ZNK5eastl6rbtreeI10TestObjectS1_NS_4lessIS1_EENS_9allocatorENS_8use_selfIS1_EELb0ELb1EE8validateEv = comdat any

$_ZN5eastl4swapINS_3setI10TestObjectNS_4lessIS2_EENS_9allocatorEEEEEvRT_S8_ = comdat any

$_ZSt4swapISt3setI10TestObjectSt4lessIS1_ESaIS1_EEENSt9enable_ifIXsr6__and_ISt6__not_ISt15__is_tuple_likeIT_EESt21is_move_constructibleIS9_ESt18is_move_assignableIS9_EEE5valueEvE4typeERS9_SI_ = comdat any

$_ZN5eastl10scoped_ptrINS_3setI10TestObjectNS_4lessIS2_EENS_9allocatorEEENS_17smart_ptr_deleterIS6_EEED2Ev = comdat any

$_ZN5eastl10scoped_ptrISt3setI10TestObjectSt4lessIS2_ESaIS2_EENS_17smart_ptr_deleterIS6_EEED2Ev = comdat any

$_ZN5eastl6rbtreeI10TestObjectS1_NS_4lessIS1_EENS_9allocatorENS_8use_selfIS1_EELb0ELb1EE13DoInsertValueENS_17integral_constantIbLb1EEEOS1_ = comdat any

$_ZNSt8_Rb_treeI10TestObjectS0_St9_IdentityIS0_ESt4lessIS0_ESaIS0_EE16_M_insert_uniqueIS0_EESt4pairISt17_Rb_tree_iteratorIS0_EbEOT_ = comdat any

$_ZNSt8_Rb_treeI10TestObjectS0_St9_IdentityIS0_ESt4lessIS0_ESaIS0_EE7_M_copyILb0ENS6_11_Alloc_nodeEEEPSt13_Rb_tree_nodeIS0_ESB_PSt18_Rb_tree_node_baseRT0_ = comdat any

$_ZNSt8_Rb_treeI10TestObjectS0_St9_IdentityIS0_ESt4lessIS0_ESaIS0_EE8_M_eraseEPSt13_Rb_tree_nodeIS0_E = comdat any

$_ZNSt8_Rb_treeI10TestObjectS0_St9_IdentityIS0_ESt4lessIS0_ESaIS0_EE22_M_insert_range_uniqueISt23_Rb_tree_const_iteratorIS0_EEENSt9enable_ifIXsr17__same_value_typeIT_EE5valueEvE4typeESB_SB_ = comdat any

$_ZNSt8_Rb_treeI10TestObjectS0_St9_IdentityIS0_ESt4lessIS0_ESaIS0_EED2Ev = comdat any

$_ZNSt8_Rb_treeI10TestObjectS0_St9_IdentityIS0_ESt4lessIS0_ESaIS0_EE29_M_get_insert_hint_unique_posESt23_Rb_tree_const_iteratorIS0_ERKS0_ = comdat any

$_ZNSt8_Rb_treeI10TestObjectS0_St9_IdentityIS0_ESt4lessIS0_ESaIS0_EEaSERKS6_ = comdat any

$_ZNSt8_Rb_treeI10TestObjectS0_St9_IdentityIS0_ESt4lessIS0_ESaIS0_EE20_Reuse_or_alloc_nodeD2Ev = comdat any

$_ZNSt8_Rb_treeI10TestObjectS0_St9_IdentityIS0_ESt4lessIS0_ESaIS0_EE7_M_copyILb0ENS6_20_Reuse_or_alloc_nodeEEEPSt13_Rb_tree_nodeIS0_ESB_PSt18_Rb_tree_node_baseRT0_ = comdat any

$_ZNSt8_Rb_treeI10TestObjectS0_St9_IdentityIS0_ESt4lessIS0_ESaIS0_EE20_Reuse_or_alloc_nodeclIRKS0_EEPSt13_Rb_tree_nodeIS0_EOT_ = comdat any

$_ZN5eastl6rbtreeI10TestObjectS1_NS_4lessIS1_EENS_9allocatorENS_8use_selfIS1_EELb0ELb1EE13DoInsertValueIJRS1_EEENS_4pairINS_15rbtree_iteratorIS1_PKS1_RSC_EEbEENS_17integral_constantIbLb1EEEDpOT_ = comdat any

$_ZN5eastl3setI10TestObjectNS_4lessIS1_EENS_9allocatorEED2Ev = comdat any

$_Z17CompareContainersIN5eastl8multisetIiNS0_4lessIiEENS0_9allocatorEEESt8multisetIiSt4lessIiESaIiEENS0_8use_selfIiEESC_EiRKT_RKT0_PKcT1_T2_ = comdat any

$_ZNK5eastl6rbtreeIiiNS_4lessIiEENS_9allocatorENS_8use_selfIiEELb0ELb0EE8validateEv = comdat any

$_ZN5eastl4swapINS_8multisetIiNS_4lessIiEENS_9allocatorEEEEEvRT_S7_ = comdat any

$_ZSt4swapISt8multisetIiSt4lessIiESaIiEEENSt9enable_ifIXsr6__and_ISt6__not_ISt15__is_tuple_likeIT_EESt21is_move_constructibleIS8_ESt18is_move_assignableIS8_EEE5valueEvE4typeERS8_SH_ = comdat any

$_ZN5eastl10scoped_ptrINS_8multisetIiNS_4lessIiEENS_9allocatorEEENS_17smart_ptr_deleterIS5_EEED2Ev = comdat any

$_ZN5eastl10scoped_ptrISt8multisetIiSt4lessIiESaIiEENS_17smart_ptr_deleterIS5_EEED2Ev = comdat any

$_ZN5eastl6rbtreeIiiNS_4lessIiEENS_9allocatorENS_8use_selfIiEELb0ELb0EE13DoCopySubtreeEPKNS_11rbtree_nodeIiEEPNS_16rbtree_node_baseE = comdat any

$_ZNSt8_Rb_treeIiiSt9_IdentityIiESt4lessIiESaIiEE16_M_insert_equal_IRKiNS5_11_Alloc_nodeEEESt17_Rb_tree_iteratorIiESt23_Rb_tree_const_iteratorIiEOT_RT0_ = comdat any

$_ZNSt8_Rb_treeIiiSt9_IdentityIiESt4lessIiESaIiEE28_M_get_insert_hint_equal_posESt23_Rb_tree_const_iteratorIiERKi = comdat any

$_ZN5eastl6rbtreeIiiNS_4lessIiEENS_9allocatorENS_8use_selfIiEELb0ELb0EEaSEOS6_ = comdat any

$_Z17CompareContainersIN5eastl8multisetI10TestObjectNS0_4lessIS2_EENS0_9allocatorEEESt8multisetIS2_St4lessIS2_ESaIS2_EENS0_8use_selfIS2_EESD_EiRKT_RKT0_PKcT1_T2_ = comdat any

$_ZNK5eastl6rbtreeI10TestObjectS1_NS_4lessIS1_EENS_9allocatorENS_8use_selfIS1_EELb0ELb0EE8validateEv = comdat any

$_ZN5eastl4swapINS_8multisetI10TestObjectNS_4lessIS2_EENS_9allocatorEEEEEvRT_S8_ = comdat any

$_ZSt4swapISt8multisetI10TestObjectSt4lessIS1_ESaIS1_EEENSt9enable_ifIXsr6__and_ISt6__not_ISt15__is_tuple_likeIT_EESt21is_move_constructibleIS9_ESt18is_move_assignableIS9_EEE5valueEvE4typeERS9_SI_ = comdat any

$_ZN5eastl10scoped_ptrINS_8multisetI10TestObjectNS_4lessIS2_EENS_9allocatorEEENS_17smart_ptr_deleterIS6_EEED2Ev = comdat any

$_ZN5eastl10scoped_ptrISt8multisetI10TestObjectSt4lessIS2_ESaIS2_EENS_17smart_ptr_deleterIS6_EEED2Ev = comdat any

$_ZN5eastl6rbtreeI10TestObjectS1_NS_4lessIS1_EENS_9allocatorENS_8use_selfIS1_EELb0ELb0EE13DoInsertValueENS_17integral_constantIbLb0EEEOS1_ = comdat any

$_ZN5eastl6rbtreeI10TestObjectS1_NS_4lessIS1_EENS_9allocatorENS_8use_selfIS1_EELb0ELb0EEC2INS_15rbtree_iteratorIS1_PKS1_RSA_EEEET_SE_RKS3_RKS4_ = comdat any

$_ZNSt8_Rb_treeI10TestObjectS0_St9_IdentityIS0_ESt4lessIS0_ESaIS0_EE16_M_insert_equal_IRKS0_NS6_11_Alloc_nodeEEESt17_Rb_tree_iteratorIS0_ESt23_Rb_tree_const_iteratorIS0_EOT_RT0_ = comdat any

$_ZNSt8_Rb_treeI10TestObjectS0_St9_IdentityIS0_ESt4lessIS0_ESaIS0_EE28_M_get_insert_hint_equal_posESt23_Rb_tree_const_iteratorIS0_ERKS0_ = comdat any

$_ZN5eastl8multisetI10TestObjectNS_4lessIS1_EENS_9allocatorEED2Ev = comdat any

$_ZNSt3setIiSt4lessIiESaIiEE6insertIPiEEvT_S6_ = comdat any

$_ZN5eastl6rbtreeIiiNS_4lessIiEENS_9allocatorENS_8use_selfIiEELb0ELb1EE17DoInsertValueHintENS_17integral_constantIbLb1EEENS_15rbtree_iteratorIiPKiRSA_EEOi = comdat any

$_ZN5eastl14random_shuffleIP10TestObjectR14EASTLTest_RandEEvT_S5_OT0_ = comdat any

$_ZN5eastl6vectorI10TestObjectNS_9allocatorEED2Ev = comdat any

$_ZNSt3setI10TestObjectSt4lessIS0_ESaIS0_EE6insertIPS0_EEvT_S7_ = comdat any

$_ZN5eastl6vectorI10TestObjectNS_9allocatorEE16DoInsertValueEndIJS1_EEEvDpOT_ = comdat any

$_ZNSt8_Rb_treeI10TestObjectS0_St9_IdentityIS0_ESt4lessIS0_ESaIS0_EE12_M_erase_auxESt23_Rb_tree_const_iteratorIS0_ES8_ = comdat any

$_ZSt18__next_permutationIP10TestObjectN9__gnu_cxx5__ops15_Iter_less_iterEEbT_S5_T0_ = comdat any

$_ZN5eastl6rbtreeI10TestObjectS1_NS_4lessIS1_EENS_9allocatorENS_8use_selfIS1_EELb0ELb1EE17DoInsertValueHintENS_17integral_constantIbLb1EEENS_15rbtree_iteratorIS1_PKS1_RSB_EEOS1_ = comdat any

$_ZN5eastl8multisetIiNS_4lessIiEENS_9allocatorEE5eraseERKi = comdat any

$_ZNSt8_Rb_treeIiiSt9_IdentityIiESt4lessIiESaIiEE16_M_insert_equal_IRiNS5_11_Alloc_nodeEEESt17_Rb_tree_iteratorIiESt23_Rb_tree_const_iteratorIiEOT_RT0_ = comdat any

$_ZN5eastl6rbtreeIiiNS_4lessIiEENS_9allocatorENS_8use_selfIiEELb0ELb0EE17DoInsertValueHintENS_17integral_constantIbLb0EEENS_15rbtree_iteratorIiPKiRSA_EEOi = comdat any

$_ZNSt8_Rb_treeIiiSt9_IdentityIiESt4lessIiESaIiEE16_M_insert_equal_IiNS5_11_Alloc_nodeEEESt17_Rb_tree_iteratorIiESt23_Rb_tree_const_iteratorIiEOT_RT0_ = comdat any

$_ZN5eastl6rbtreeI10TestObjectS1_NS_4lessIS1_EENS_9allocatorENS_8use_selfIS1_EELb0ELb0EE6insertIPS1_EEvT_SA_ = comdat any

$_ZNSt8_Rb_treeI10TestObjectS0_St9_IdentityIS0_ESt4lessIS0_ESaIS0_EE16_M_insert_equal_IRS0_NS6_11_Alloc_nodeEEESt17_Rb_tree_iteratorIS0_ESt23_Rb_tree_const_iteratorIS0_EOT_RT0_ = comdat any

$_ZN5eastl6rbtreeI10TestObjectS1_NS_4lessIS1_EENS_9allocatorENS_8use_selfIS1_EELb0ELb0EE17DoInsertValueHintENS_17integral_constantIbLb0EEENS_15rbtree_iteratorIS1_PKS1_RSB_EEOS1_ = comdat any

$_ZNSt8_Rb_treeI10TestObjectS0_St9_IdentityIS0_ESt4lessIS0_ESaIS0_EE16_M_insert_equal_IS0_NS6_11_Alloc_nodeEEESt17_Rb_tree_iteratorIS0_ESt23_Rb_tree_const_iteratorIS0_EOT_RT0_ = comdat any

$_Z15TestSetSpecificIN5eastl8multisetIiNS0_4lessIiEENS0_9allocatorEEEEiRT_NS0_17integral_constantIbLb1EEE = comdat any

$_Z15TestSetSpecificIN5eastl8multisetI10TestObjectNS0_4lessIS2_EENS0_9allocatorEEEEiRT_NS0_17integral_constantIbLb1EEE = comdat any

$_ZN5eastl6rbtreeI10TestObjectS1_NS_4lessIS1_EENS_9allocatorENS_8use_selfIS1_EELb0ELb1EE17DoInsertValueHintIJRS1_EEENS_15rbtree_iteratorIS1_PKS1_RSB_EENS_17integral_constantIbLb1EEESE_DpOT_ = comdat any

$_ZN5eastl6rbtreeI10TestObjectS1_NS_4lessIS1_EENS_9allocatorENS_8use_selfIS1_EELb0ELb0EE17DoInsertValueHintIJRS1_EEENS_15rbtree_iteratorIS1_PKS1_RSB_EENS_17integral_constantIbLb0EEESE_DpOT_ = comdat any

$_ZN5eastl6rbtreeI11xvalue_testS1_NS_4lessIS1_EENS_9allocatorENS_8use_selfIS1_EELb0ELb1EE13DoInsertValueIJRS1_EEENS_4pairINS_15rbtree_iteratorIS1_PKS1_RSC_EEbEENS_17integral_constantIbLb1EEEDpOT_ = comdat any

$_ZN5eastl6rbtreeI11xvalue_testS1_NS_4lessIS1_EENS_9allocatorENS_8use_selfIS1_EELb0ELb1EE13DoInsertValueENS_17integral_constantIbLb1EEEOS1_ = comdat any

@.str.1 = private unnamed_addr constant [113 x i8] c"generated/home/dtcxzyw/WorkSpace/Projects/compilers/llvm-opt-benchmark/bench/eastl/EASTL/test/source/TestSet.cpp\00", align 1
@.str.2 = private unnamed_addr constant [13 x i8] c"i == a.end()\00", align 1
@constinit.3 = private unnamed_addr constant [5 x i32] [i32 0, i32 1, i32 2, i32 3, i32 4], align 4
@.str.4 = private unnamed_addr constant [21 x i8] c"(s == set<int>{1,3})\00", align 1
@.str.5 = private unnamed_addr constant [15 x i8] c"numErased == 3\00", align 1
@constinit.6 = private unnamed_addr constant [13 x i32] [i32 0, i32 0, i32 0, i32 0, i32 0, i32 1, i32 1, i32 1, i32 2, i32 3, i32 3, i32 3, i32 4], align 4
@constinit.8 = private unnamed_addr constant [6 x i32] [i32 1, i32 1, i32 1, i32 3, i32 3, i32 3], align 4
@.str.9 = private unnamed_addr constant [39 x i8] c"(s == multiset<int>{1, 1, 1, 3, 3, 3})\00", align 1
@.str.10 = private unnamed_addr constant [15 x i8] c"numErased == 7\00", align 1
@.str.12 = private unnamed_addr constant [7 x i8] c"result\00", align 1
@_ZN10TestObject8sTOCountE = external local_unnamed_addr global i64, align 8
@_ZN10TestObject12sTOCtorCountE = external local_unnamed_addr global i64, align 8
@_ZN10TestObject16sTOCopyCtorCountE = external local_unnamed_addr global i64, align 8
@_ZN10TestObject16sMagicErrorCountE = external local_unnamed_addr global i32, align 4
@_ZN10TestObject12sTODtorCountE = external local_unnamed_addr global i64, align 8
@.str.13 = private unnamed_addr constant [9 x i8] c"Set ctor\00", align 1
@.str.14 = private unnamed_addr constant [111 x i8] c"generated/home/dtcxzyw/WorkSpace/Projects/compilers/llvm-opt-benchmark/bench/eastl/EASTL/test/source/TestSet.h\00", align 1
@.str.15 = private unnamed_addr constant [15 x i8] c"t1A.validate()\00", align 1
@.str.16 = private unnamed_addr constant [15 x i8] c"t1C.validate()\00", align 1
@.str.17 = private unnamed_addr constant [11 x i8] c"Set insert\00", align 1
@.str.18 = private unnamed_addr constant [15 x i8] c"t1E.validate()\00", align 1
@.str.19 = private unnamed_addr constant [15 x i8] c"t1F.validate()\00", align 1
@.str.20 = private unnamed_addr constant [14 x i8] c"Set operator=\00", align 1
@.str.21 = private unnamed_addr constant [15 x i8] c"t1D.validate()\00", align 1
@.str.22 = private unnamed_addr constant [9 x i8] c"Set swap\00", align 1
@.str.23 = private unnamed_addr constant [12 x i8] c"Global swap\00", align 1
@.str.24 = private unnamed_addr constant [10 x i8] c"Set clear\00", align 1
@.str.25 = private unnamed_addr constant [15 x i8] c"t1B.validate()\00", align 1
@.str.26 = private unnamed_addr constant [13 x i8] c"(t1A == t1B)\00", align 1
@.str.27 = private unnamed_addr constant [14 x i8] c"!(t1A != t1B)\00", align 1
@.str.28 = private unnamed_addr constant [13 x i8] c"(t1A <= t1B)\00", align 1
@.str.29 = private unnamed_addr constant [13 x i8] c"(t1A >= t1B)\00", align 1
@.str.30 = private unnamed_addr constant [13 x i8] c"!(t1A < t1B)\00", align 1
@.str.31 = private unnamed_addr constant [13 x i8] c"!(t1A > t1B)\00", align 1
@.str.32 = private unnamed_addr constant [14 x i8] c"!(t1A == t1B)\00", align 1
@.str.33 = private unnamed_addr constant [13 x i8] c"(t1A != t1B)\00", align 1
@.str.34 = private unnamed_addr constant [14 x i8] c"!(t1A >= t1B)\00", align 1
@.str.35 = private unnamed_addr constant [12 x i8] c"(t1A < t1B)\00", align 1
@.str.36 = private unnamed_addr constant [22 x i8] c"TestObject::IsClear()\00", align 1
@_ZN10TestObject19sTODefaultCtorCountE = external local_unnamed_addr global i64, align 8
@_ZN10TestObject15sTOArgCtorCountE = external local_unnamed_addr global i64, align 8
@_ZN10TestObject16sTOMoveCtorCountE = external local_unnamed_addr global i64, align 8
@_ZN10TestObject18sTOCopyAssignCountE = external local_unnamed_addr global i64, align 8
@_ZN10TestObject18sTOMoveAssignCountE = external local_unnamed_addr global i64, align 8
@.str.37 = private unnamed_addr constant [113 x i8] c"generated/home/dtcxzyw/WorkSpace/Projects/compilers/llvm-opt-benchmark/bench/eastl/EASTL/test/source/EASTLTest.h\00", align 1
@.str.38 = private unnamed_addr constant [25 x i8] c"t1.empty() == t2.empty()\00", align 1
@.str.39 = private unnamed_addr constant [17 x i8] c"nSize1 == nSize2\00", align 1
@.str.40 = private unnamed_addr constant [39 x i8] c"%s: Container size difference: %u, %u\0A\00", align 1
@.str.41 = private unnamed_addr constant [19 x i8] c"ev1(v1) == ev2(v2)\00", align 1
@.str.42 = private unnamed_addr constant [47 x i8] c"%s: Container iterator difference at index %d\0A\00", align 1
@.str.43 = private unnamed_addr constant [16 x i8] c"it1 == t1.end()\00", align 1
@.str.44 = private unnamed_addr constant [16 x i8] c"it2 == t2.end()\00", align 1
@gEASTL_TestLevel = external local_unnamed_addr global i32, align 4
@.str.45 = private unnamed_addr constant [9 x i8] c"k1 == k2\00", align 1
@.str.46 = private unnamed_addr constant [9 x i8] c"n1 == n2\00", align 1
@.str.47 = private unnamed_addr constant [10 x i8] c"Set erase\00", align 1
@.str.48 = private unnamed_addr constant [90 x i8] c"(TestObject::sTOCount == 0) || (TestObject::sTOCount == (int64_t)valueArrayInsert.size())\00", align 1
@.str.49 = private unnamed_addr constant [35 x i8] c"*it1 == typename T1::value_type(1)\00", align 1
@.str.50 = private unnamed_addr constant [35 x i8] c"*it2 == typename T2::value_type(1)\00", align 1
@.str.51 = private unnamed_addr constant [35 x i8] c"*it1 == typename T1::value_type(5)\00", align 1
@.str.52 = private unnamed_addr constant [35 x i8] c"*it2 == typename T2::value_type(5)\00", align 1
@.str.53 = private unnamed_addr constant [23 x i8] c"Set erase(first, last)\00", align 1
@.str.54 = private unnamed_addr constant [18 x i8] c"mySet.size() == 2\00", align 1
@.str.55 = private unnamed_addr constant [35 x i8] c"*it == typename T1::value_type(10)\00", align 1
@.str.56 = private unnamed_addr constant [37 x i8] c"*--it == typename T1::value_type(11)\00", align 1
@.str.57 = private unnamed_addr constant [46 x i8] c"*mySet.begin() == typename T1::value_type(20)\00", align 1
@.str.58 = private unnamed_addr constant [37 x i8] c"*--it == typename T1::value_type(21)\00", align 1
@.str.59 = private unnamed_addr constant [18 x i8] c"mySet.size() == 4\00", align 1
@.str.60 = private unnamed_addr constant [37 x i8] c"*--it == typename T1::value_type(41)\00", align 1
@.str.61 = private unnamed_addr constant [16 x i8] c"it != t1A.end()\00", align 1
@.str.62 = private unnamed_addr constant [9 x i8] c"*it == k\00", align 1
@.str.63 = private unnamed_addr constant [16 x i8] c"it == t1A.end()\00", align 1
@.str.64 = private unnamed_addr constant [18 x i8] c"it == t1A.begin()\00", align 1
@.str.65 = private unnamed_addr constant [36 x i8] c"*it == typename T1::value_type(501)\00", align 1
@.str.66 = private unnamed_addr constant [34 x i8] c"*it == typename T1::value_type(0)\00", align 1
@.str.67 = private unnamed_addr constant [7 x i8] c"n == 0\00", align 1
@.str.68 = private unnamed_addr constant [7 x i8] c"n == 1\00", align 1
@.str.69 = private unnamed_addr constant [42 x i8] c"*er.first == typename T1::value_type(200)\00", align 1
@.str.70 = private unnamed_addr constant [42 x i8] c"*er.first == typename T1::value_type(499)\00", align 1
@.str.71 = private unnamed_addr constant [43 x i8] c"*er.second == typename T1::value_type(501)\00", align 1
@.str.72 = private unnamed_addr constant [22 x i8] c"er.first == er.second\00", align 1
@.str.73 = private unnamed_addr constant [24 x i8] c"er.first == t1A.begin()\00", align 1
@.str.74 = private unnamed_addr constant [33 x i8] c"toSetInsertResult.second == true\00", align 1
@.str.75 = private unnamed_addr constant [32 x i8] c"toSet.find(to40) == toSet.end()\00", align 1
@.str.76 = private unnamed_addr constant [13 x i8] c"to40.mX == 4\00", align 1
@.str.77 = private unnamed_addr constant [32 x i8] c"toSet.find(to40) != toSet.end()\00", align 1
@.str.78 = private unnamed_addr constant [13 x i8] c"to40.mX == 0\00", align 1
@.str.79 = private unnamed_addr constant [34 x i8] c"toSetInsertResult.second == false\00", align 1
@.str.80 = private unnamed_addr constant [32 x i8] c"toSet.find(to41) != toSet.end()\00", align 1
@.str.81 = private unnamed_addr constant [32 x i8] c"toSet.find(to50) != toSet.end()\00", align 1
@.str.82 = private unnamed_addr constant [32 x i8] c"*toSetIterator == TestObject(5)\00", align 1
@.str.83 = private unnamed_addr constant [32 x i8] c"toSet.find(to51) != toSet.end()\00", align 1
@.str.84 = private unnamed_addr constant [32 x i8] c"*toSetIterator == TestObject(6)\00", align 1
@.str.85 = private unnamed_addr constant [31 x i8] c"toSet.find(to6) != toSet.end()\00", align 1
@.str.86 = private unnamed_addr constant [31 x i8] c"toSet.find(to2) == toSet.end()\00", align 1
@.str.87 = private unnamed_addr constant [31 x i8] c"toSet.find(to2) != toSet.end()\00", align 1
@.str.88 = private unnamed_addr constant [32 x i8] c"toSet.find(to70) != toSet.end()\00", align 1
@.str.89 = private unnamed_addr constant [23 x i8] c"*toSetIterator == to71\00", align 1
@.str.90 = private unnamed_addr constant [32 x i8] c"toSet.find(to71) != toSet.end()\00", align 1
@.str.91 = private unnamed_addr constant [22 x i8] c"*toSetIterator == to8\00", align 1
@.str.92 = private unnamed_addr constant [31 x i8] c"toSet.find(to8) != toSet.end()\00", align 1
@.str.93 = private unnamed_addr constant [31 x i8] c"toSet.find(to3) == toSet.end()\00", align 1
@.str.94 = private unnamed_addr constant [31 x i8] c"toSet.find(to3) != toSet.end()\00", align 1
@.str.95 = private unnamed_addr constant [32 x i8] c"toSet.find(to90) != toSet.end()\00", align 1
@.str.96 = private unnamed_addr constant [32 x i8] c"*toSetIterator == TestObject(9)\00", align 1
@.str.97 = private unnamed_addr constant [32 x i8] c"toSet.find(to91) != toSet.end()\00", align 1
@.str.98 = private unnamed_addr constant [33 x i8] c"*toSetIterator == TestObject(10)\00", align 1
@.str.99 = private unnamed_addr constant [32 x i8] c"toSet.find(to10) != toSet.end()\00", align 1
@.str.100 = private unnamed_addr constant [32 x i8] c"*toSetIterator == TestObject(0)\00", align 1
@.str.101 = private unnamed_addr constant [32 x i8] c"*toSetIterator == TestObject(1)\00", align 1
@.str.102 = private unnamed_addr constant [32 x i8] c"*toSetIterator == TestObject(4)\00", align 1
@.str.103 = private unnamed_addr constant [32 x i8] c"*toSetIterator == TestObject(2)\00", align 1
@.str.104 = private unnamed_addr constant [32 x i8] c"*toSetIterator == TestObject(7)\00", align 1
@.str.105 = private unnamed_addr constant [32 x i8] c"*toSetIterator == TestObject(3)\00", align 1

@_ZN5eastl3setIiNS_4lessIiEENS_9allocatorEEC1ERKS3_ = weak_odr dso_local unnamed_addr alias void (ptr, ptr), ptr @_ZN5eastl3setIiNS_4lessIiEENS_9allocatorEEC2ERKS3_
@_ZN5eastl3setIiNS_4lessIiEENS_9allocatorEEC1ERKS2_RKS3_ = weak_odr dso_local unnamed_addr alias void (ptr, ptr, ptr), ptr @_ZN5eastl3setIiNS_4lessIiEENS_9allocatorEEC2ERKS2_RKS3_
@_ZN5eastl3setIiNS_4lessIiEENS_9allocatorEEC1ERKS4_ = weak_odr dso_local unnamed_addr alias void (ptr, ptr), ptr @_ZN5eastl3setIiNS_4lessIiEENS_9allocatorEEC2ERKS4_
@_ZN5eastl3setIiNS_4lessIiEENS_9allocatorEEC1EOS4_ = weak_odr dso_local unnamed_addr alias void (ptr, ptr), ptr @_ZN5eastl3setIiNS_4lessIiEENS_9allocatorEEC2EOS4_
@_ZN5eastl3setIiNS_4lessIiEENS_9allocatorEEC1EOS4_RKS3_ = weak_odr dso_local unnamed_addr alias void (ptr, ptr, ptr), ptr @_ZN5eastl3setIiNS_4lessIiEENS_9allocatorEEC2EOS4_RKS3_
@_ZN5eastl3setIiNS_4lessIiEENS_9allocatorEEC1ESt16initializer_listIiERKS2_RKS3_ = weak_odr dso_local unnamed_addr alias void (ptr, ptr, i64, ptr, ptr), ptr @_ZN5eastl3setIiNS_4lessIiEENS_9allocatorEEC2ESt16initializer_listIiERKS2_RKS3_
@_ZN5eastl8multisetIfNS_4lessIfEENS_9allocatorEEC1ERKS3_ = weak_odr dso_local unnamed_addr alias void (ptr, ptr), ptr @_ZN5eastl8multisetIfNS_4lessIfEENS_9allocatorEEC2ERKS3_
@_ZN5eastl8multisetIfNS_4lessIfEENS_9allocatorEEC1ERKS2_RKS3_ = weak_odr dso_local unnamed_addr alias void (ptr, ptr, ptr), ptr @_ZN5eastl8multisetIfNS_4lessIfEENS_9allocatorEEC2ERKS2_RKS3_
@_ZN5eastl8multisetIfNS_4lessIfEENS_9allocatorEEC1ERKS4_ = weak_odr dso_local unnamed_addr alias void (ptr, ptr), ptr @_ZN5eastl8multisetIfNS_4lessIfEENS_9allocatorEEC2ERKS4_
@_ZN5eastl8multisetIfNS_4lessIfEENS_9allocatorEEC1EOS4_ = weak_odr dso_local unnamed_addr alias void (ptr, ptr), ptr @_ZN5eastl8multisetIfNS_4lessIfEENS_9allocatorEEC2EOS4_
@_ZN5eastl8multisetIfNS_4lessIfEENS_9allocatorEEC1EOS4_RKS3_ = weak_odr dso_local unnamed_addr alias void (ptr, ptr, ptr), ptr @_ZN5eastl8multisetIfNS_4lessIfEENS_9allocatorEEC2EOS4_RKS3_
@_ZN5eastl8multisetIfNS_4lessIfEENS_9allocatorEEC1ESt16initializer_listIfERKS2_RKS3_ = weak_odr dso_local unnamed_addr alias void (ptr, ptr, i64, ptr, ptr), ptr @_ZN5eastl8multisetIfNS_4lessIfEENS_9allocatorEEC2ESt16initializer_listIfERKS2_RKS3_
@_ZN5eastl3setI10TestObjectNS_4lessIS1_EENS_9allocatorEEC1ERKS4_ = weak_odr dso_local unnamed_addr alias void (ptr, ptr), ptr @_ZN5eastl3setI10TestObjectNS_4lessIS1_EENS_9allocatorEEC2ERKS4_
@_ZN5eastl3setI10TestObjectNS_4lessIS1_EENS_9allocatorEEC1ERKS3_RKS4_ = weak_odr dso_local unnamed_addr alias void (ptr, ptr, ptr), ptr @_ZN5eastl3setI10TestObjectNS_4lessIS1_EENS_9allocatorEEC2ERKS3_RKS4_
@_ZN5eastl3setI10TestObjectNS_4lessIS1_EENS_9allocatorEEC1ERKS5_ = weak_odr dso_local unnamed_addr alias void (ptr, ptr), ptr @_ZN5eastl3setI10TestObjectNS_4lessIS1_EENS_9allocatorEEC2ERKS5_
@_ZN5eastl3setI10TestObjectNS_4lessIS1_EENS_9allocatorEEC1EOS5_ = weak_odr dso_local unnamed_addr alias void (ptr, ptr), ptr @_ZN5eastl3setI10TestObjectNS_4lessIS1_EENS_9allocatorEEC2EOS5_
@_ZN5eastl3setI10TestObjectNS_4lessIS1_EENS_9allocatorEEC1EOS5_RKS4_ = weak_odr dso_local unnamed_addr alias void (ptr, ptr, ptr), ptr @_ZN5eastl3setI10TestObjectNS_4lessIS1_EENS_9allocatorEEC2EOS5_RKS4_
@_ZN5eastl3setI10TestObjectNS_4lessIS1_EENS_9allocatorEEC1ESt16initializer_listIS1_ERKS3_RKS4_ = weak_odr dso_local unnamed_addr alias void (ptr, ptr, i64, ptr, ptr), ptr @_ZN5eastl3setI10TestObjectNS_4lessIS1_EENS_9allocatorEEC2ESt16initializer_listIS1_ERKS3_RKS4_
@_ZN5eastl8multisetI10TestObjectNS_4lessIS1_EENS_9allocatorEEC1ERKS4_ = weak_odr dso_local unnamed_addr alias void (ptr, ptr), ptr @_ZN5eastl8multisetI10TestObjectNS_4lessIS1_EENS_9allocatorEEC2ERKS4_
@_ZN5eastl8multisetI10TestObjectNS_4lessIS1_EENS_9allocatorEEC1ERKS3_RKS4_ = weak_odr dso_local unnamed_addr alias void (ptr, ptr, ptr), ptr @_ZN5eastl8multisetI10TestObjectNS_4lessIS1_EENS_9allocatorEEC2ERKS3_RKS4_
@_ZN5eastl8multisetI10TestObjectNS_4lessIS1_EENS_9allocatorEEC1ERKS5_ = weak_odr dso_local unnamed_addr alias void (ptr, ptr), ptr @_ZN5eastl8multisetI10TestObjectNS_4lessIS1_EENS_9allocatorEEC2ERKS5_
@_ZN5eastl8multisetI10TestObjectNS_4lessIS1_EENS_9allocatorEEC1EOS5_ = weak_odr dso_local unnamed_addr alias void (ptr, ptr), ptr @_ZN5eastl8multisetI10TestObjectNS_4lessIS1_EENS_9allocatorEEC2EOS5_
@_ZN5eastl8multisetI10TestObjectNS_4lessIS1_EENS_9allocatorEEC1EOS5_RKS4_ = weak_odr dso_local unnamed_addr alias void (ptr, ptr, ptr), ptr @_ZN5eastl8multisetI10TestObjectNS_4lessIS1_EENS_9allocatorEEC2EOS5_RKS4_
@_ZN5eastl8multisetI10TestObjectNS_4lessIS1_EENS_9allocatorEEC1ESt16initializer_listIS1_ERKS3_RKS4_ = weak_odr dso_local unnamed_addr alias void (ptr, ptr, i64, ptr, ptr), ptr @_ZN5eastl8multisetI10TestObjectNS_4lessIS1_EENS_9allocatorEEC2ESt16initializer_listIS1_ERKS3_RKS4_

; Function Attrs: mustprogress uwtable
define weak_odr dso_local void @_ZN5eastl3setIiNS_4lessIiEENS_9allocatorEEC2ERKS3_(ptr noundef nonnull align 8 dereferenceable(41) %this, ptr noundef nonnull align 1 dereferenceable(1) %allocator) unnamed_addr #0 comdat($_ZN5eastl3setIiNS_4lessIiEENS_9allocatorEEC5ERKS3_) align 2 {
entry:
  %mnSize.i = getelementptr inbounds i8, ptr %this, i64 32
  %0 = getelementptr inbounds i8, ptr %this, i64 24
  store i64 0, ptr %0, align 8
  store ptr %this, ptr %this, align 8
  %mpNodeLeft.i.i = getelementptr inbounds i8, ptr %this, i64 8
  store ptr %this, ptr %mpNodeLeft.i.i, align 8
  %mpNodeParent.i.i = getelementptr inbounds i8, ptr %this, i64 16
  store ptr null, ptr %mpNodeParent.i.i, align 8
  store i64 0, ptr %mnSize.i, align 8
  ret void
}

; Function Attrs: mustprogress uwtable
define weak_odr dso_local void @_ZN5eastl3setIiNS_4lessIiEENS_9allocatorEEC2ERKS2_RKS3_(ptr noundef nonnull align 8 dereferenceable(41) %this, ptr noundef nonnull align 1 dereferenceable(1) %compare, ptr noundef nonnull align 1 dereferenceable(1) %allocator) unnamed_addr #0 comdat($_ZN5eastl3setIiNS_4lessIiEENS_9allocatorEEC5ERKS2_RKS3_) align 2 {
entry:
  %mnSize.i = getelementptr inbounds i8, ptr %this, i64 32
  %0 = getelementptr inbounds i8, ptr %this, i64 24
  store i64 0, ptr %0, align 8
  store ptr %this, ptr %this, align 8
  %mpNodeLeft.i.i = getelementptr inbounds i8, ptr %this, i64 8
  store ptr %this, ptr %mpNodeLeft.i.i, align 8
  %mpNodeParent.i.i = getelementptr inbounds i8, ptr %this, i64 16
  store ptr null, ptr %mpNodeParent.i.i, align 8
  store i64 0, ptr %mnSize.i, align 8
  ret void
}

; Function Attrs: mustprogress uwtable
define weak_odr dso_local void @_ZN5eastl3setIiNS_4lessIiEENS_9allocatorEEC2ERKS4_(ptr noundef nonnull align 8 dereferenceable(41) %this, ptr noundef nonnull align 8 dereferenceable(41) %x) unnamed_addr #0 comdat($_ZN5eastl3setIiNS_4lessIiEENS_9allocatorEEC5ERKS4_) align 2 {
entry:
  %mnSize.i = getelementptr inbounds i8, ptr %this, i64 32
  %0 = getelementptr inbounds i8, ptr %this, i64 24
  store i64 0, ptr %0, align 8
  store ptr %this, ptr %this, align 8
  %mpNodeLeft.i.i = getelementptr inbounds i8, ptr %this, i64 8
  store ptr %this, ptr %mpNodeLeft.i.i, align 8
  %mpNodeParent.i.i = getelementptr inbounds i8, ptr %this, i64 16
  store ptr null, ptr %mpNodeParent.i.i, align 8
  store i64 0, ptr %mnSize.i, align 8
  %mpNodeParent.i = getelementptr inbounds i8, ptr %x, i64 16
  %1 = load ptr, ptr %mpNodeParent.i, align 8
  %tobool.not.i = icmp eq ptr %1, null
  br i1 %tobool.not.i, label %_ZN5eastl6rbtreeIiiNS_4lessIiEENS_9allocatorENS_8use_selfIiEELb0ELb1EEC2ERKS6_.exit, label %if.then.i

if.then.i:                                        ; preds = %entry
  %call7.i = tail call noundef ptr @_ZN5eastl6rbtreeIiiNS_4lessIiEENS_9allocatorENS_8use_selfIiEELb0ELb1EE13DoCopySubtreeEPKNS_11rbtree_nodeIiEEPNS_16rbtree_node_baseE(ptr noundef nonnull align 8 dereferenceable(41) %this, ptr noundef nonnull %1, ptr noundef nonnull %this)
  store ptr %call7.i, ptr %mpNodeParent.i.i, align 8
  br label %while.cond.i.i

while.cond.i.i:                                   ; preds = %while.cond.i.i, %if.then.i
  %pNodeBase.addr.0.i.i = phi ptr [ %call7.i, %if.then.i ], [ %2, %while.cond.i.i ]
  %2 = load ptr, ptr %pNodeBase.addr.0.i.i, align 8
  %tobool.not.i.i = icmp eq ptr %2, null
  br i1 %tobool.not.i.i, label %_ZN5eastl17RBTreeGetMaxChildEPKNS_16rbtree_node_baseE.exit.i, label %while.cond.i.i, !llvm.loop !5

_ZN5eastl17RBTreeGetMaxChildEPKNS_16rbtree_node_baseE.exit.i: ; preds = %while.cond.i.i
  store ptr %pNodeBase.addr.0.i.i, ptr %this, align 8
  br label %while.cond.i5.i

while.cond.i5.i:                                  ; preds = %while.cond.i5.i, %_ZN5eastl17RBTreeGetMaxChildEPKNS_16rbtree_node_baseE.exit.i
  %pNodeBase.addr.0.i6.i = phi ptr [ %call7.i, %_ZN5eastl17RBTreeGetMaxChildEPKNS_16rbtree_node_baseE.exit.i ], [ %3, %while.cond.i5.i ]
  %mpNodeLeft.i7.i = getelementptr inbounds i8, ptr %pNodeBase.addr.0.i6.i, i64 8
  %3 = load ptr, ptr %mpNodeLeft.i7.i, align 8
  %tobool.not.i8.i = icmp eq ptr %3, null
  br i1 %tobool.not.i8.i, label %_ZN5eastl17RBTreeGetMinChildEPKNS_16rbtree_node_baseE.exit.i, label %while.cond.i5.i, !llvm.loop !7

_ZN5eastl17RBTreeGetMinChildEPKNS_16rbtree_node_baseE.exit.i: ; preds = %while.cond.i5.i
  store ptr %pNodeBase.addr.0.i6.i, ptr %mpNodeLeft.i.i, align 8
  %mnSize18.i = getelementptr inbounds i8, ptr %x, i64 32
  %4 = load i64, ptr %mnSize18.i, align 8
  store i64 %4, ptr %mnSize.i, align 8
  br label %_ZN5eastl6rbtreeIiiNS_4lessIiEENS_9allocatorENS_8use_selfIiEELb0ELb1EEC2ERKS6_.exit

_ZN5eastl6rbtreeIiiNS_4lessIiEENS_9allocatorENS_8use_selfIiEELb0ELb1EEC2ERKS6_.exit: ; preds = %entry, %_ZN5eastl17RBTreeGetMinChildEPKNS_16rbtree_node_baseE.exit.i
  ret void
}

; Function Attrs: mustprogress uwtable
define weak_odr dso_local void @_ZN5eastl3setIiNS_4lessIiEENS_9allocatorEEC2EOS4_(ptr noundef nonnull align 8 dereferenceable(41) %this, ptr noundef nonnull align 8 dereferenceable(41) %x) unnamed_addr #0 comdat($_ZN5eastl3setIiNS_4lessIiEENS_9allocatorEEC5EOS4_) align 2 {
entry:
  %mnSize.i = getelementptr inbounds i8, ptr %this, i64 32
  %0 = getelementptr inbounds i8, ptr %this, i64 24
  store i64 0, ptr %0, align 8
  store ptr %this, ptr %this, align 8
  %mpNodeLeft.i.i = getelementptr inbounds i8, ptr %this, i64 8
  store ptr %this, ptr %mpNodeLeft.i.i, align 8
  %mpNodeParent.i.i = getelementptr inbounds i8, ptr %this, i64 16
  store ptr null, ptr %mpNodeParent.i.i, align 8
  store i64 0, ptr %mnSize.i, align 8
  %mnSize2.i.i = getelementptr inbounds i8, ptr %x, i64 32
  %1 = load i64, ptr %mnSize2.i.i, align 8
  store i64 %1, ptr %mnSize.i, align 8
  store i64 0, ptr %mnSize2.i.i, align 8
  %2 = load ptr, ptr %mpNodeParent.i.i, align 8
  %tobool.not.i.i = icmp eq ptr %2, null
  %mpNodeParent56.i.i = getelementptr inbounds i8, ptr %x, i64 16
  %3 = load ptr, ptr %mpNodeParent56.i.i, align 8
  %tobool57.not.i.i = icmp eq ptr %3, null
  br i1 %tobool.not.i.i, label %if.else54.i.i, label %land.lhs.true.i.i

land.lhs.true.i.i:                                ; preds = %entry
  %4 = load ptr, ptr %this, align 8
  br i1 %tobool57.not.i.i, label %if.then29.i.i, label %if.then.i.i

if.then.i.i:                                      ; preds = %land.lhs.true.i.i
  %5 = load ptr, ptr %x, align 8
  store ptr %5, ptr %this, align 8
  store ptr %4, ptr %x, align 8
  %mpNodeLeft13.i.i = getelementptr inbounds i8, ptr %x, i64 8
  %6 = load ptr, ptr %mpNodeLeft.i.i, align 8
  %7 = load ptr, ptr %mpNodeLeft13.i.i, align 8
  store ptr %7, ptr %mpNodeLeft.i.i, align 8
  store ptr %6, ptr %mpNodeLeft13.i.i, align 8
  %8 = load ptr, ptr %mpNodeParent.i.i, align 8
  %9 = load ptr, ptr %mpNodeParent56.i.i, align 8
  store ptr %9, ptr %mpNodeParent.i.i, align 8
  store ptr %8, ptr %mpNodeParent56.i.i, align 8
  %10 = load ptr, ptr %mpNodeParent.i.i, align 8
  %mpNodeParent21.i.i = getelementptr inbounds i8, ptr %10, i64 16
  store ptr %this, ptr %mpNodeParent21.i.i, align 8
  %11 = load ptr, ptr %mpNodeParent56.i.i, align 8
  %mpNodeParent25.i.i = getelementptr inbounds i8, ptr %11, i64 16
  store ptr %x, ptr %mpNodeParent25.i.i, align 8
  br label %_ZN5eastl6rbtreeIiiNS_4lessIiEENS_9allocatorENS_8use_selfIiEELb0ELb1EEC2EOS6_.exit

if.then29.i.i:                                    ; preds = %land.lhs.true.i.i
  store ptr %4, ptr %x, align 8
  %12 = load ptr, ptr %mpNodeLeft.i.i, align 8
  %mpNodeLeft37.i.i = getelementptr inbounds i8, ptr %x, i64 8
  store ptr %12, ptr %mpNodeLeft37.i.i, align 8
  %13 = load ptr, ptr %mpNodeParent.i.i, align 8
  store ptr %13, ptr %mpNodeParent56.i.i, align 8
  %mpNodeParent45.i.i = getelementptr inbounds i8, ptr %13, i64 16
  store ptr %x, ptr %mpNodeParent45.i.i, align 8
  store ptr %this, ptr %this, align 8
  store ptr %this, ptr %mpNodeLeft.i.i, align 8
  store ptr null, ptr %mpNodeParent.i.i, align 8
  br label %_ZN5eastl6rbtreeIiiNS_4lessIiEENS_9allocatorENS_8use_selfIiEELb0ELb1EEC2EOS6_.exit

if.else54.i.i:                                    ; preds = %entry
  br i1 %tobool57.not.i.i, label %_ZN5eastl6rbtreeIiiNS_4lessIiEENS_9allocatorENS_8use_selfIiEELb0ELb1EEC2EOS6_.exit, label %if.then58.i.i

if.then58.i.i:                                    ; preds = %if.else54.i.i
  %14 = load ptr, ptr %x, align 8
  store ptr %14, ptr %this, align 8
  %mpNodeLeft64.i.i = getelementptr inbounds i8, ptr %x, i64 8
  %15 = load ptr, ptr %mpNodeLeft64.i.i, align 8
  store ptr %15, ptr %mpNodeLeft.i.i, align 8
  %16 = load ptr, ptr %mpNodeParent56.i.i, align 8
  store ptr %16, ptr %mpNodeParent.i.i, align 8
  %mpNodeParent74.i.i = getelementptr inbounds i8, ptr %16, i64 16
  store ptr %this, ptr %mpNodeParent74.i.i, align 8
  store ptr %x, ptr %x, align 8
  store ptr %x, ptr %mpNodeLeft64.i.i, align 8
  store ptr null, ptr %mpNodeParent56.i.i, align 8
  br label %_ZN5eastl6rbtreeIiiNS_4lessIiEENS_9allocatorENS_8use_selfIiEELb0ELb1EEC2EOS6_.exit

_ZN5eastl6rbtreeIiiNS_4lessIiEENS_9allocatorENS_8use_selfIiEELb0ELb1EEC2EOS6_.exit: ; preds = %if.then.i.i, %if.then29.i.i, %if.else54.i.i, %if.then58.i.i
  ret void
}

; Function Attrs: mustprogress uwtable
define weak_odr dso_local void @_ZN5eastl3setIiNS_4lessIiEENS_9allocatorEEC2EOS4_RKS3_(ptr noundef nonnull align 8 dereferenceable(41) %this, ptr noundef nonnull align 8 dereferenceable(41) %x, ptr noundef nonnull align 1 dereferenceable(1) %allocator) unnamed_addr #0 comdat($_ZN5eastl3setIiNS_4lessIiEENS_9allocatorEEC5EOS4_RKS3_) align 2 {
entry:
  %mnSize.i = getelementptr inbounds i8, ptr %this, i64 32
  %0 = getelementptr inbounds i8, ptr %this, i64 24
  store i64 0, ptr %0, align 8
  store ptr %this, ptr %this, align 8
  %mpNodeLeft.i.i = getelementptr inbounds i8, ptr %this, i64 8
  store ptr %this, ptr %mpNodeLeft.i.i, align 8
  %mpNodeParent.i.i = getelementptr inbounds i8, ptr %this, i64 16
  store ptr null, ptr %mpNodeParent.i.i, align 8
  store i64 0, ptr %mnSize.i, align 8
  %mnSize2.i.i = getelementptr inbounds i8, ptr %x, i64 32
  %1 = load i64, ptr %mnSize2.i.i, align 8
  store i64 %1, ptr %mnSize.i, align 8
  store i64 0, ptr %mnSize2.i.i, align 8
  %2 = load ptr, ptr %mpNodeParent.i.i, align 8
  %tobool.not.i.i = icmp eq ptr %2, null
  %mpNodeParent56.i.i = getelementptr inbounds i8, ptr %x, i64 16
  %3 = load ptr, ptr %mpNodeParent56.i.i, align 8
  %tobool57.not.i.i = icmp eq ptr %3, null
  br i1 %tobool.not.i.i, label %if.else54.i.i, label %land.lhs.true.i.i

land.lhs.true.i.i:                                ; preds = %entry
  %4 = load ptr, ptr %this, align 8
  br i1 %tobool57.not.i.i, label %if.then29.i.i, label %if.then.i.i

if.then.i.i:                                      ; preds = %land.lhs.true.i.i
  %5 = load ptr, ptr %x, align 8
  store ptr %5, ptr %this, align 8
  store ptr %4, ptr %x, align 8
  %mpNodeLeft13.i.i = getelementptr inbounds i8, ptr %x, i64 8
  %6 = load ptr, ptr %mpNodeLeft.i.i, align 8
  %7 = load ptr, ptr %mpNodeLeft13.i.i, align 8
  store ptr %7, ptr %mpNodeLeft.i.i, align 8
  store ptr %6, ptr %mpNodeLeft13.i.i, align 8
  %8 = load ptr, ptr %mpNodeParent.i.i, align 8
  %9 = load ptr, ptr %mpNodeParent56.i.i, align 8
  store ptr %9, ptr %mpNodeParent.i.i, align 8
  store ptr %8, ptr %mpNodeParent56.i.i, align 8
  %10 = load ptr, ptr %mpNodeParent.i.i, align 8
  %mpNodeParent21.i.i = getelementptr inbounds i8, ptr %10, i64 16
  store ptr %this, ptr %mpNodeParent21.i.i, align 8
  %11 = load ptr, ptr %mpNodeParent56.i.i, align 8
  %mpNodeParent25.i.i = getelementptr inbounds i8, ptr %11, i64 16
  store ptr %x, ptr %mpNodeParent25.i.i, align 8
  br label %_ZN5eastl6rbtreeIiiNS_4lessIiEENS_9allocatorENS_8use_selfIiEELb0ELb1EEC2EOS6_RKS3_.exit

if.then29.i.i:                                    ; preds = %land.lhs.true.i.i
  store ptr %4, ptr %x, align 8
  %12 = load ptr, ptr %mpNodeLeft.i.i, align 8
  %mpNodeLeft37.i.i = getelementptr inbounds i8, ptr %x, i64 8
  store ptr %12, ptr %mpNodeLeft37.i.i, align 8
  %13 = load ptr, ptr %mpNodeParent.i.i, align 8
  store ptr %13, ptr %mpNodeParent56.i.i, align 8
  %mpNodeParent45.i.i = getelementptr inbounds i8, ptr %13, i64 16
  store ptr %x, ptr %mpNodeParent45.i.i, align 8
  store ptr %this, ptr %this, align 8
  store ptr %this, ptr %mpNodeLeft.i.i, align 8
  store ptr null, ptr %mpNodeParent.i.i, align 8
  br label %_ZN5eastl6rbtreeIiiNS_4lessIiEENS_9allocatorENS_8use_selfIiEELb0ELb1EEC2EOS6_RKS3_.exit

if.else54.i.i:                                    ; preds = %entry
  br i1 %tobool57.not.i.i, label %_ZN5eastl6rbtreeIiiNS_4lessIiEENS_9allocatorENS_8use_selfIiEELb0ELb1EEC2EOS6_RKS3_.exit, label %if.then58.i.i

if.then58.i.i:                                    ; preds = %if.else54.i.i
  %14 = load ptr, ptr %x, align 8
  store ptr %14, ptr %this, align 8
  %mpNodeLeft64.i.i = getelementptr inbounds i8, ptr %x, i64 8
  %15 = load ptr, ptr %mpNodeLeft64.i.i, align 8
  store ptr %15, ptr %mpNodeLeft.i.i, align 8
  %16 = load ptr, ptr %mpNodeParent56.i.i, align 8
  store ptr %16, ptr %mpNodeParent.i.i, align 8
  %mpNodeParent74.i.i = getelementptr inbounds i8, ptr %16, i64 16
  store ptr %this, ptr %mpNodeParent74.i.i, align 8
  store ptr %x, ptr %x, align 8
  store ptr %x, ptr %mpNodeLeft64.i.i, align 8
  store ptr null, ptr %mpNodeParent56.i.i, align 8
  br label %_ZN5eastl6rbtreeIiiNS_4lessIiEENS_9allocatorENS_8use_selfIiEELb0ELb1EEC2EOS6_RKS3_.exit

_ZN5eastl6rbtreeIiiNS_4lessIiEENS_9allocatorENS_8use_selfIiEELb0ELb1EEC2EOS6_RKS3_.exit: ; preds = %if.then.i.i, %if.then29.i.i, %if.else54.i.i, %if.then58.i.i
  ret void
}

; Function Attrs: mustprogress uwtable
define weak_odr dso_local void @_ZN5eastl3setIiNS_4lessIiEENS_9allocatorEEC2ESt16initializer_listIiERKS2_RKS3_(ptr noundef nonnull align 8 dereferenceable(41) %this, ptr %ilist.coerce0, i64 %ilist.coerce1, ptr noundef nonnull align 1 dereferenceable(1) %compare, ptr noundef nonnull align 1 dereferenceable(1) %allocator) unnamed_addr #0 comdat($_ZN5eastl3setIiNS_4lessIiEENS_9allocatorEEC5ESt16initializer_listIiERKS2_RKS3_) align 2 {
entry:
  %add.ptr.i = getelementptr inbounds i32, ptr %ilist.coerce0, i64 %ilist.coerce1
  %mnSize.i = getelementptr inbounds i8, ptr %this, i64 32
  %0 = getelementptr inbounds i8, ptr %this, i64 24
  store i64 0, ptr %0, align 8
  store ptr %this, ptr %this, align 8
  %mpNodeLeft.i.i = getelementptr inbounds i8, ptr %this, i64 8
  store ptr %this, ptr %mpNodeLeft.i.i, align 8
  %mpNodeParent.i.i = getelementptr inbounds i8, ptr %this, i64 16
  store ptr null, ptr %mpNodeParent.i.i, align 8
  store i64 0, ptr %mnSize.i, align 8
  %cmp.not3.i = icmp eq i64 %ilist.coerce1, 0
  br i1 %cmp.not3.i, label %_ZN5eastl6rbtreeIiiNS_4lessIiEENS_9allocatorENS_8use_selfIiEELb0ELb1EEC2IPKiEET_SA_RKS2_RKS3_.exit, label %for.body.i

for.body.i:                                       ; preds = %entry, %for.body.i
  %first.addr.04.i = phi ptr [ %incdec.ptr.i, %for.body.i ], [ %ilist.coerce0, %entry ]
  %call.i.i = tail call { ptr, i8 } @_ZN5eastl6rbtreeIiiNS_4lessIiEENS_9allocatorENS_8use_selfIiEELb0ELb1EE13DoInsertValueIJRKiEEENS_4pairINS_15rbtree_iteratorIiPS8_S9_EEbEENS_17integral_constantIbLb1EEEDpOT_(ptr noundef nonnull align 8 dereferenceable(41) %this, ptr noundef nonnull align 4 dereferenceable(4) %first.addr.04.i)
  %incdec.ptr.i = getelementptr inbounds i8, ptr %first.addr.04.i, i64 4
  %cmp.not.i = icmp eq ptr %incdec.ptr.i, %add.ptr.i
  br i1 %cmp.not.i, label %_ZN5eastl6rbtreeIiiNS_4lessIiEENS_9allocatorENS_8use_selfIiEELb0ELb1EEC2IPKiEET_SA_RKS2_RKS3_.exit, label %for.body.i, !llvm.loop !8

_ZN5eastl6rbtreeIiiNS_4lessIiEENS_9allocatorENS_8use_selfIiEELb0ELb1EEC2IPKiEET_SA_RKS2_RKS3_.exit: ; preds = %for.body.i, %entry
  ret void
}

; Function Attrs: mustprogress uwtable
define weak_odr dso_local noundef nonnull align 8 dereferenceable(41) ptr @_ZN5eastl3setIiNS_4lessIiEENS_9allocatorEEaSERKS4_(ptr noundef nonnull align 8 dereferenceable(41) %this, ptr noundef nonnull align 8 dereferenceable(41) %x) local_unnamed_addr #0 comdat align 2 {
entry:
  %cmp.not.i = icmp eq ptr %this, %x
  br i1 %cmp.not.i, label %_ZN5eastl6rbtreeIiiNS_4lessIiEENS_9allocatorENS_8use_selfIiEELb0ELb1EEaSERKS6_.exit, label %if.then.i

if.then.i:                                        ; preds = %entry
  %mpNodeParent.i.i = getelementptr inbounds i8, ptr %this, i64 16
  %0 = load ptr, ptr %mpNodeParent.i.i, align 8
  tail call void @_ZN5eastl6rbtreeIiiNS_4lessIiEENS_9allocatorENS_8use_selfIiEELb0ELb1EE13DoNukeSubtreeEPNS_16rbtree_node_baseE(ptr noundef nonnull align 8 dereferenceable(41) %this, ptr noundef %0)
  store ptr %this, ptr %this, align 8
  %mpNodeLeft.i.i.i = getelementptr inbounds i8, ptr %this, i64 8
  store ptr %this, ptr %mpNodeLeft.i.i.i, align 8
  store ptr null, ptr %mpNodeParent.i.i, align 8
  %mColor.i.i.i = getelementptr inbounds i8, ptr %this, i64 24
  store i8 0, ptr %mColor.i.i.i, align 8
  %mnSize.i.i.i = getelementptr inbounds i8, ptr %this, i64 32
  store i64 0, ptr %mnSize.i.i.i, align 8
  %mpNodeParent.i = getelementptr inbounds i8, ptr %x, i64 16
  %1 = load ptr, ptr %mpNodeParent.i, align 8
  %tobool.not.i = icmp eq ptr %1, null
  br i1 %tobool.not.i, label %_ZN5eastl6rbtreeIiiNS_4lessIiEENS_9allocatorENS_8use_selfIiEELb0ELb1EEaSERKS6_.exit, label %if.then3.i

if.then3.i:                                       ; preds = %if.then.i
  %call7.i = tail call noundef ptr @_ZN5eastl6rbtreeIiiNS_4lessIiEENS_9allocatorENS_8use_selfIiEELb0ELb1EE13DoCopySubtreeEPKNS_11rbtree_nodeIiEEPNS_16rbtree_node_baseE(ptr noundef nonnull align 8 dereferenceable(41) %this, ptr noundef nonnull %1, ptr noundef nonnull %this)
  store ptr %call7.i, ptr %mpNodeParent.i.i, align 8
  br label %while.cond.i.i

while.cond.i.i:                                   ; preds = %while.cond.i.i, %if.then3.i
  %pNodeBase.addr.0.i.i = phi ptr [ %call7.i, %if.then3.i ], [ %2, %while.cond.i.i ]
  %2 = load ptr, ptr %pNodeBase.addr.0.i.i, align 8
  %tobool.not.i.i = icmp eq ptr %2, null
  br i1 %tobool.not.i.i, label %_ZN5eastl17RBTreeGetMaxChildEPKNS_16rbtree_node_baseE.exit.i, label %while.cond.i.i, !llvm.loop !5

_ZN5eastl17RBTreeGetMaxChildEPKNS_16rbtree_node_baseE.exit.i: ; preds = %while.cond.i.i
  store ptr %pNodeBase.addr.0.i.i, ptr %this, align 8
  br label %while.cond.i5.i

while.cond.i5.i:                                  ; preds = %while.cond.i5.i, %_ZN5eastl17RBTreeGetMaxChildEPKNS_16rbtree_node_baseE.exit.i
  %pNodeBase.addr.0.i6.i = phi ptr [ %call7.i, %_ZN5eastl17RBTreeGetMaxChildEPKNS_16rbtree_node_baseE.exit.i ], [ %3, %while.cond.i5.i ]
  %mpNodeLeft.i.i = getelementptr inbounds i8, ptr %pNodeBase.addr.0.i6.i, i64 8
  %3 = load ptr, ptr %mpNodeLeft.i.i, align 8
  %tobool.not.i7.i = icmp eq ptr %3, null
  br i1 %tobool.not.i7.i, label %_ZN5eastl17RBTreeGetMinChildEPKNS_16rbtree_node_baseE.exit.i, label %while.cond.i5.i, !llvm.loop !7

_ZN5eastl17RBTreeGetMinChildEPKNS_16rbtree_node_baseE.exit.i: ; preds = %while.cond.i5.i
  store ptr %pNodeBase.addr.0.i6.i, ptr %mpNodeLeft.i.i.i, align 8
  %mnSize.i = getelementptr inbounds i8, ptr %x, i64 32
  %4 = load i64, ptr %mnSize.i, align 8
  store i64 %4, ptr %mnSize.i.i.i, align 8
  br label %_ZN5eastl6rbtreeIiiNS_4lessIiEENS_9allocatorENS_8use_selfIiEELb0ELb1EEaSERKS6_.exit

_ZN5eastl6rbtreeIiiNS_4lessIiEENS_9allocatorENS_8use_selfIiEELb0ELb1EEaSERKS6_.exit: ; preds = %entry, %if.then.i, %_ZN5eastl17RBTreeGetMinChildEPKNS_16rbtree_node_baseE.exit.i
  ret ptr %this
}

; Function Attrs: mustprogress uwtable
define weak_odr dso_local noundef nonnull align 8 dereferenceable(41) ptr @_ZN5eastl3setIiNS_4lessIiEENS_9allocatorEEaSESt16initializer_listIiE(ptr noundef nonnull align 8 dereferenceable(41) %this, ptr %ilist.coerce0, i64 %ilist.coerce1) local_unnamed_addr #0 comdat align 2 {
entry:
  %mpNodeParent.i.i = getelementptr inbounds i8, ptr %this, i64 16
  %0 = load ptr, ptr %mpNodeParent.i.i, align 8
  tail call void @_ZN5eastl6rbtreeIiiNS_4lessIiEENS_9allocatorENS_8use_selfIiEELb0ELb1EE13DoNukeSubtreeEPNS_16rbtree_node_baseE(ptr noundef nonnull align 8 dereferenceable(41) %this, ptr noundef %0)
  store ptr %this, ptr %this, align 8
  %mpNodeLeft.i.i.i = getelementptr inbounds i8, ptr %this, i64 8
  store ptr %this, ptr %mpNodeLeft.i.i.i, align 8
  store ptr null, ptr %mpNodeParent.i.i, align 8
  %mColor.i.i.i = getelementptr inbounds i8, ptr %this, i64 24
  store i8 0, ptr %mColor.i.i.i, align 8
  %mnSize.i.i.i = getelementptr inbounds i8, ptr %this, i64 32
  store i64 0, ptr %mnSize.i.i.i, align 8
  %add.ptr.i.i = getelementptr inbounds i32, ptr %ilist.coerce0, i64 %ilist.coerce1
  %cmp.not4.i = icmp eq i64 %ilist.coerce1, 0
  br i1 %cmp.not4.i, label %_ZN5eastl6rbtreeIiiNS_4lessIiEENS_9allocatorENS_8use_selfIiEELb0ELb1EEaSESt16initializer_listIiE.exit, label %for.body.i

for.body.i:                                       ; preds = %entry, %for.body.i
  %it.05.i = phi ptr [ %incdec.ptr.i, %for.body.i ], [ %ilist.coerce0, %entry ]
  %call4.i = tail call { ptr, i8 } @_ZN5eastl6rbtreeIiiNS_4lessIiEENS_9allocatorENS_8use_selfIiEELb0ELb1EE13DoInsertValueIJKiEEENS_4pairINS_15rbtree_iteratorIiPS8_RS8_EEbEENS_17integral_constantIbLb1EEEDpOT_(ptr noundef nonnull align 8 dereferenceable(41) %this, ptr noundef nonnull align 4 dereferenceable(4) %it.05.i)
  %incdec.ptr.i = getelementptr inbounds i8, ptr %it.05.i, i64 4
  %cmp.not.i = icmp eq ptr %incdec.ptr.i, %add.ptr.i.i
  br i1 %cmp.not.i, label %_ZN5eastl6rbtreeIiiNS_4lessIiEENS_9allocatorENS_8use_selfIiEELb0ELb1EEaSESt16initializer_listIiE.exit, label %for.body.i, !llvm.loop !9

_ZN5eastl6rbtreeIiiNS_4lessIiEENS_9allocatorENS_8use_selfIiEELb0ELb1EEaSESt16initializer_listIiE.exit: ; preds = %for.body.i, %entry
  ret ptr %this
}

; Function Attrs: mustprogress nocallback nofree nounwind willreturn memory(argmem: readwrite)
declare void @llvm.memcpy.p0.p0.i64(ptr noalias nocapture writeonly, ptr noalias nocapture readonly, i64, i1 immarg) #1

; Function Attrs: mustprogress uwtable
define weak_odr dso_local noundef nonnull align 8 dereferenceable(41) ptr @_ZN5eastl3setIiNS_4lessIiEENS_9allocatorEEaSEOS4_(ptr noundef nonnull align 8 dereferenceable(41) %this, ptr noundef nonnull align 8 dereferenceable(41) %x) local_unnamed_addr #0 comdat align 2 {
entry:
  %call2 = tail call noundef nonnull align 8 dereferenceable(41) ptr @_ZN5eastl6rbtreeIiiNS_4lessIiEENS_9allocatorENS_8use_selfIiEELb0ELb1EEaSEOS6_(ptr noundef nonnull align 8 dereferenceable(41) %this, ptr noundef nonnull align 8 dereferenceable(41) %x)
  ret ptr %call2
}

; Function Attrs: mustprogress uwtable
define linkonce_odr dso_local noundef nonnull align 8 dereferenceable(41) ptr @_ZN5eastl6rbtreeIiiNS_4lessIiEENS_9allocatorENS_8use_selfIiEELb0ELb1EEaSEOS6_(ptr noundef nonnull align 8 dereferenceable(41) %this, ptr noundef nonnull align 8 dereferenceable(41) %x) local_unnamed_addr #0 comdat align 2 {
entry:
  %cmp.not = icmp eq ptr %this, %x
  br i1 %cmp.not, label %if.end, label %if.then

if.then:                                          ; preds = %entry
  %mpNodeParent.i = getelementptr inbounds i8, ptr %this, i64 16
  %0 = load ptr, ptr %mpNodeParent.i, align 8
  tail call void @_ZN5eastl6rbtreeIiiNS_4lessIiEENS_9allocatorENS_8use_selfIiEELb0ELb1EE13DoNukeSubtreeEPNS_16rbtree_node_baseE(ptr noundef nonnull align 8 dereferenceable(41) %this, ptr noundef %0)
  store ptr %this, ptr %this, align 8
  %mpNodeLeft.i.i = getelementptr inbounds i8, ptr %this, i64 8
  store ptr %this, ptr %mpNodeLeft.i.i, align 8
  store ptr null, ptr %mpNodeParent.i, align 8
  %mColor.i.i = getelementptr inbounds i8, ptr %this, i64 24
  store i8 0, ptr %mColor.i.i, align 8
  %mnSize.i.i = getelementptr inbounds i8, ptr %this, i64 32
  store i64 0, ptr %mnSize.i.i, align 8
  %mnSize2.i = getelementptr inbounds i8, ptr %x, i64 32
  %1 = load i64, ptr %mnSize2.i, align 8
  store i64 %1, ptr %mnSize.i.i, align 8
  store i64 0, ptr %mnSize2.i, align 8
  %2 = load ptr, ptr %mpNodeParent.i, align 8
  %tobool.not.i = icmp eq ptr %2, null
  %mpNodeParent56.i = getelementptr inbounds i8, ptr %x, i64 16
  %3 = load ptr, ptr %mpNodeParent56.i, align 8
  %tobool57.not.i = icmp eq ptr %3, null
  br i1 %tobool.not.i, label %if.else54.i, label %land.lhs.true.i

land.lhs.true.i:                                  ; preds = %if.then
  %4 = load ptr, ptr %this, align 8
  br i1 %tobool57.not.i, label %if.then29.i, label %if.then.i

if.then.i:                                        ; preds = %land.lhs.true.i
  %5 = load ptr, ptr %x, align 8
  store ptr %5, ptr %this, align 8
  store ptr %4, ptr %x, align 8
  %mpNodeLeft13.i = getelementptr inbounds i8, ptr %x, i64 8
  %6 = load ptr, ptr %mpNodeLeft.i.i, align 8
  %7 = load ptr, ptr %mpNodeLeft13.i, align 8
  store ptr %7, ptr %mpNodeLeft.i.i, align 8
  store ptr %6, ptr %mpNodeLeft13.i, align 8
  %8 = load ptr, ptr %mpNodeParent.i, align 8
  %9 = load ptr, ptr %mpNodeParent56.i, align 8
  store ptr %9, ptr %mpNodeParent.i, align 8
  store ptr %8, ptr %mpNodeParent56.i, align 8
  %10 = load ptr, ptr %mpNodeParent.i, align 8
  %mpNodeParent21.i = getelementptr inbounds i8, ptr %10, i64 16
  store ptr %this, ptr %mpNodeParent21.i, align 8
  %11 = load ptr, ptr %mpNodeParent56.i, align 8
  %mpNodeParent25.i = getelementptr inbounds i8, ptr %11, i64 16
  store ptr %x, ptr %mpNodeParent25.i, align 8
  br label %if.end

if.then29.i:                                      ; preds = %land.lhs.true.i
  store ptr %4, ptr %x, align 8
  %12 = load ptr, ptr %mpNodeLeft.i.i, align 8
  %mpNodeLeft37.i = getelementptr inbounds i8, ptr %x, i64 8
  store ptr %12, ptr %mpNodeLeft37.i, align 8
  %13 = load ptr, ptr %mpNodeParent.i, align 8
  store ptr %13, ptr %mpNodeParent56.i, align 8
  %mpNodeParent45.i = getelementptr inbounds i8, ptr %13, i64 16
  store ptr %x, ptr %mpNodeParent45.i, align 8
  store ptr %this, ptr %this, align 8
  store ptr %this, ptr %mpNodeLeft.i.i, align 8
  store ptr null, ptr %mpNodeParent.i, align 8
  br label %if.end

if.else54.i:                                      ; preds = %if.then
  br i1 %tobool57.not.i, label %if.end, label %if.then58.i

if.then58.i:                                      ; preds = %if.else54.i
  %14 = load ptr, ptr %x, align 8
  store ptr %14, ptr %this, align 8
  %mpNodeLeft64.i = getelementptr inbounds i8, ptr %x, i64 8
  %15 = load ptr, ptr %mpNodeLeft64.i, align 8
  store ptr %15, ptr %mpNodeLeft.i.i, align 8
  %16 = load ptr, ptr %mpNodeParent56.i, align 8
  store ptr %16, ptr %mpNodeParent.i, align 8
  %mpNodeParent74.i = getelementptr inbounds i8, ptr %16, i64 16
  store ptr %this, ptr %mpNodeParent74.i, align 8
  store ptr %x, ptr %x, align 8
  store ptr %x, ptr %mpNodeLeft64.i, align 8
  store ptr null, ptr %mpNodeParent56.i, align 8
  br label %if.end

if.end:                                           ; preds = %if.then58.i, %if.else54.i, %if.then29.i, %if.then.i, %entry
  ret ptr %this
}

; Function Attrs: mustprogress uwtable
define weak_odr dso_local void @_ZNK5eastl3setIiNS_4lessIiEENS_9allocatorEE10value_compEv(ptr noundef nonnull align 8 dereferenceable(41) %this) local_unnamed_addr #0 comdat align 2 {
entry:
  ret void
}

; Function Attrs: mustprogress uwtable
define weak_odr dso_local noundef i64 @_ZN5eastl3setIiNS_4lessIiEENS_9allocatorEE5eraseERKi(ptr noundef nonnull align 8 dereferenceable(41) %this, ptr noundef nonnull align 4 dereferenceable(4) %k) local_unnamed_addr #0 comdat align 2 personality ptr @__gxx_personality_v0 {
entry:
  %mpNodeParent.i = getelementptr inbounds i8, ptr %this, i64 16
  %pCurrent.09.i = load ptr, ptr %mpNodeParent.i, align 8
  %tobool.not10.i = icmp eq ptr %pCurrent.09.i, null
  br i1 %tobool.not10.i, label %return, label %while.body.lr.ph.i

while.body.lr.ph.i:                               ; preds = %entry
  %0 = load i32, ptr %k, align 4
  br label %while.body.i

while.body.i:                                     ; preds = %while.body.i, %while.body.lr.ph.i
  %pCurrent.012.i = phi ptr [ %pCurrent.09.i, %while.body.lr.ph.i ], [ %pCurrent.0.i, %while.body.i ]
  %pRangeEnd.011.i = phi ptr [ %this, %while.body.lr.ph.i ], [ %pRangeEnd.1.i, %while.body.i ]
  %mValue.i = getelementptr inbounds i8, ptr %pCurrent.012.i, i64 32
  %1 = load i32, ptr %mValue.i, align 4
  %cmp.i.i.i = icmp slt i32 %1, %0
  %pCurrent.1.in.idx.i = select i1 %cmp.i.i.i, i64 0, i64 8
  %pCurrent.1.in.i = getelementptr inbounds i8, ptr %pCurrent.012.i, i64 %pCurrent.1.in.idx.i
  %pRangeEnd.1.i = select i1 %cmp.i.i.i, ptr %pRangeEnd.011.i, ptr %pCurrent.012.i
  %pCurrent.0.i = load ptr, ptr %pCurrent.1.in.i, align 8
  %tobool.not.i = icmp eq ptr %pCurrent.0.i, null
  br i1 %tobool.not.i, label %while.end.i, label %while.body.i, !llvm.loop !10

while.end.i:                                      ; preds = %while.body.i
  %cmp.not.i = icmp eq ptr %pRangeEnd.1.i, %this
  br i1 %cmp.not.i, label %return, label %land.rhs.i

land.rhs.i:                                       ; preds = %while.end.i
  %mValue9.i = getelementptr inbounds i8, ptr %pRangeEnd.1.i, i64 32
  %2 = load i32, ptr %mValue9.i, align 4
  %cmp.i.i8.not.i.not = icmp slt i32 %0, %2
  br i1 %cmp.i.i8.not.i.not, label %return, label %_ZN5eastl6rbtreeIiiNS_4lessIiEENS_9allocatorENS_8use_selfIiEELb0ELb1EE5eraseENS_15rbtree_iteratorIiPKiRS8_EE.exit

_ZN5eastl6rbtreeIiiNS_4lessIiEENS_9allocatorENS_8use_selfIiEELb0ELb1EE5eraseENS_15rbtree_iteratorIiPKiRS8_EE.exit: ; preds = %land.rhs.i
  %mnSize.i = getelementptr inbounds i8, ptr %this, i64 32
  %3 = load i64, ptr %mnSize.i, align 8
  %dec.i = add i64 %3, -1
  store i64 %dec.i, ptr %mnSize.i, align 8
  %call.i.i = tail call noundef ptr @_ZN5eastl15RBTreeIncrementEPKNS_16rbtree_node_baseE(ptr noundef nonnull %pRangeEnd.1.i)
  tail call void @_ZN5eastl11RBTreeEraseEPNS_16rbtree_node_baseES1_(ptr noundef nonnull %pRangeEnd.1.i, ptr noundef nonnull %this)
  tail call void @_ZdaPv(ptr noundef nonnull %pRangeEnd.1.i) #12
  br label %return

return:                                           ; preds = %land.rhs.i, %while.end.i, %entry, %_ZN5eastl6rbtreeIiiNS_4lessIiEENS_9allocatorENS_8use_selfIiEELb0ELb1EE5eraseENS_15rbtree_iteratorIiPKiRS8_EE.exit
  %retval.0 = phi i64 [ 1, %_ZN5eastl6rbtreeIiiNS_4lessIiEENS_9allocatorENS_8use_selfIiEELb0ELb1EE5eraseENS_15rbtree_iteratorIiPKiRS8_EE.exit ], [ 0, %entry ], [ 0, %while.end.i ], [ 0, %land.rhs.i ]
  ret i64 %retval.0
}

; Function Attrs: mustprogress uwtable
define weak_odr dso_local ptr @_ZN5eastl3setIiNS_4lessIiEENS_9allocatorEE5eraseENS_15rbtree_iteratorIiPKiRS6_EE(ptr noundef nonnull align 8 dereferenceable(41) %this, ptr %position.coerce) local_unnamed_addr #0 comdat align 2 {
entry:
  %mnSize.i = getelementptr inbounds i8, ptr %this, i64 32
  %0 = load i64, ptr %mnSize.i, align 8
  %dec.i = add i64 %0, -1
  store i64 %dec.i, ptr %mnSize.i, align 8
  %call.i.i = tail call noundef ptr @_ZN5eastl15RBTreeIncrementEPKNS_16rbtree_node_baseE(ptr noundef %position.coerce)
  tail call void @_ZN5eastl11RBTreeEraseEPNS_16rbtree_node_baseES1_(ptr noundef %position.coerce, ptr noundef nonnull %this)
  %isnull.i.i.i = icmp eq ptr %position.coerce, null
  br i1 %isnull.i.i.i, label %_ZN5eastl6rbtreeIiiNS_4lessIiEENS_9allocatorENS_8use_selfIiEELb0ELb1EE5eraseENS_15rbtree_iteratorIiPKiRS8_EE.exit, label %delete.notnull.i.i.i

delete.notnull.i.i.i:                             ; preds = %entry
  tail call void @_ZdaPv(ptr noundef nonnull %position.coerce) #12
  br label %_ZN5eastl6rbtreeIiiNS_4lessIiEENS_9allocatorENS_8use_selfIiEELb0ELb1EE5eraseENS_15rbtree_iteratorIiPKiRS8_EE.exit

_ZN5eastl6rbtreeIiiNS_4lessIiEENS_9allocatorENS_8use_selfIiEELb0ELb1EE5eraseENS_15rbtree_iteratorIiPKiRS8_EE.exit: ; preds = %entry, %delete.notnull.i.i.i
  ret ptr %call.i.i
}

; Function Attrs: mustprogress uwtable
define weak_odr dso_local ptr @_ZN5eastl3setIiNS_4lessIiEENS_9allocatorEE5eraseENS_15rbtree_iteratorIiPKiRS6_EES9_(ptr noundef nonnull align 8 dereferenceable(41) %this, ptr %first.coerce, ptr %last.coerce) local_unnamed_addr #0 comdat align 2 {
entry:
  %mpNodeLeft.i = getelementptr inbounds i8, ptr %this, i64 8
  %0 = load ptr, ptr %mpNodeLeft.i, align 8
  %cmp.i = icmp ne ptr %0, %first.coerce
  %cmp5.i = icmp ne ptr %last.coerce, %this
  %1 = select i1 %cmp.i, i1 true, i1 %cmp5.i
  br i1 %1, label %while.cond.preheader.i, label %if.end.i

while.cond.preheader.i:                           ; preds = %entry
  %cmp.i.not2.i = icmp eq ptr %first.coerce, %last.coerce
  br i1 %cmp.i.not2.i, label %_ZN5eastl6rbtreeIiiNS_4lessIiEENS_9allocatorENS_8use_selfIiEELb0ELb1EE5eraseENS_15rbtree_iteratorIiPKiRS8_EESB_.exit, label %while.body.lr.ph.i

while.body.lr.ph.i:                               ; preds = %while.cond.preheader.i
  %mnSize.i.i = getelementptr inbounds i8, ptr %this, i64 32
  br label %while.body.i

while.body.i:                                     ; preds = %_ZN5eastl6rbtreeIiiNS_4lessIiEENS_9allocatorENS_8use_selfIiEELb0ELb1EE5eraseENS_15rbtree_iteratorIiPKiRS8_EE.exit.i, %while.body.lr.ph.i
  %first.sroa.0.03.i = phi ptr [ %first.coerce, %while.body.lr.ph.i ], [ %call.i.i.i, %_ZN5eastl6rbtreeIiiNS_4lessIiEENS_9allocatorENS_8use_selfIiEELb0ELb1EE5eraseENS_15rbtree_iteratorIiPKiRS8_EE.exit.i ]
  %2 = load i64, ptr %mnSize.i.i, align 8
  %dec.i.i = add i64 %2, -1
  store i64 %dec.i.i, ptr %mnSize.i.i, align 8
  %call.i.i.i = tail call noundef ptr @_ZN5eastl15RBTreeIncrementEPKNS_16rbtree_node_baseE(ptr noundef %first.sroa.0.03.i)
  tail call void @_ZN5eastl11RBTreeEraseEPNS_16rbtree_node_baseES1_(ptr noundef %first.sroa.0.03.i, ptr noundef nonnull %this)
  %isnull.i.i.i.i = icmp eq ptr %first.sroa.0.03.i, null
  br i1 %isnull.i.i.i.i, label %_ZN5eastl6rbtreeIiiNS_4lessIiEENS_9allocatorENS_8use_selfIiEELb0ELb1EE5eraseENS_15rbtree_iteratorIiPKiRS8_EE.exit.i, label %delete.notnull.i.i.i.i

delete.notnull.i.i.i.i:                           ; preds = %while.body.i
  tail call void @_ZdaPv(ptr noundef nonnull %first.sroa.0.03.i) #12
  br label %_ZN5eastl6rbtreeIiiNS_4lessIiEENS_9allocatorENS_8use_selfIiEELb0ELb1EE5eraseENS_15rbtree_iteratorIiPKiRS8_EE.exit.i

_ZN5eastl6rbtreeIiiNS_4lessIiEENS_9allocatorENS_8use_selfIiEELb0ELb1EE5eraseENS_15rbtree_iteratorIiPKiRS8_EE.exit.i: ; preds = %delete.notnull.i.i.i.i, %while.body.i
  %cmp.i.not.i = icmp eq ptr %call.i.i.i, %last.coerce
  br i1 %cmp.i.not.i, label %_ZN5eastl6rbtreeIiiNS_4lessIiEENS_9allocatorENS_8use_selfIiEELb0ELb1EE5eraseENS_15rbtree_iteratorIiPKiRS8_EESB_.exit, label %while.body.i, !llvm.loop !11

if.end.i:                                         ; preds = %entry
  %mpNodeParent.i.i = getelementptr inbounds i8, ptr %this, i64 16
  %3 = load ptr, ptr %mpNodeParent.i.i, align 8
  tail call void @_ZN5eastl6rbtreeIiiNS_4lessIiEENS_9allocatorENS_8use_selfIiEELb0ELb1EE13DoNukeSubtreeEPNS_16rbtree_node_baseE(ptr noundef nonnull align 8 dereferenceable(41) %this, ptr noundef %3)
  store ptr %this, ptr %this, align 8
  store ptr %this, ptr %mpNodeLeft.i, align 8
  store ptr null, ptr %mpNodeParent.i.i, align 8
  %mColor.i.i.i = getelementptr inbounds i8, ptr %this, i64 24
  store i8 0, ptr %mColor.i.i.i, align 8
  %mnSize.i.i.i = getelementptr inbounds i8, ptr %this, i64 32
  store i64 0, ptr %mnSize.i.i.i, align 8
  br label %_ZN5eastl6rbtreeIiiNS_4lessIiEENS_9allocatorENS_8use_selfIiEELb0ELb1EE5eraseENS_15rbtree_iteratorIiPKiRS8_EESB_.exit

_ZN5eastl6rbtreeIiiNS_4lessIiEENS_9allocatorENS_8use_selfIiEELb0ELb1EE5eraseENS_15rbtree_iteratorIiPKiRS8_EESB_.exit: ; preds = %_ZN5eastl6rbtreeIiiNS_4lessIiEENS_9allocatorENS_8use_selfIiEELb0ELb1EE5eraseENS_15rbtree_iteratorIiPKiRS8_EE.exit.i, %while.cond.preheader.i, %if.end.i
  %retval.sroa.0.0.i = phi ptr [ %this, %if.end.i ], [ %first.coerce, %while.cond.preheader.i ], [ %last.coerce, %_ZN5eastl6rbtreeIiiNS_4lessIiEENS_9allocatorENS_8use_selfIiEELb0ELb1EE5eraseENS_15rbtree_iteratorIiPKiRS8_EE.exit.i ]
  ret ptr %retval.sroa.0.0.i
}

; Function Attrs: mustprogress uwtable
define weak_odr dso_local void @_ZN5eastl3setIiNS_4lessIiEENS_9allocatorEE5eraseENS_16reverse_iteratorINS_15rbtree_iteratorIiPKiRS7_EEEE(ptr noalias sret(%"class.eastl::reverse_iterator") align 8 %agg.result, ptr noundef nonnull align 8 dereferenceable(41) %this, ptr noundef %position) local_unnamed_addr #0 comdat align 2 {
entry:
  %0 = load ptr, ptr %position, align 8
  %call.i.i = tail call noundef ptr @_ZN5eastl15RBTreeDecrementEPKNS_16rbtree_node_baseE(ptr noundef %0)
  store ptr %call.i.i, ptr %position, align 8
  %mnSize.i.i = getelementptr inbounds i8, ptr %this, i64 32
  %1 = load i64, ptr %mnSize.i.i, align 8
  %dec.i.i = add i64 %1, -1
  store i64 %dec.i.i, ptr %mnSize.i.i, align 8
  %call.i.i.i = tail call noundef ptr @_ZN5eastl15RBTreeIncrementEPKNS_16rbtree_node_baseE(ptr noundef %call.i.i)
  tail call void @_ZN5eastl11RBTreeEraseEPNS_16rbtree_node_baseES1_(ptr noundef %call.i.i, ptr noundef nonnull %this)
  %isnull.i.i.i.i = icmp eq ptr %call.i.i, null
  br i1 %isnull.i.i.i.i, label %_ZN5eastl3setIiNS_4lessIiEENS_9allocatorEE5eraseENS_15rbtree_iteratorIiPKiRS6_EE.exit, label %delete.notnull.i.i.i.i

delete.notnull.i.i.i.i:                           ; preds = %entry
  tail call void @_ZdaPv(ptr noundef nonnull %call.i.i) #12
  br label %_ZN5eastl3setIiNS_4lessIiEENS_9allocatorEE5eraseENS_15rbtree_iteratorIiPKiRS6_EE.exit

_ZN5eastl3setIiNS_4lessIiEENS_9allocatorEE5eraseENS_15rbtree_iteratorIiPKiRS6_EE.exit: ; preds = %entry, %delete.notnull.i.i.i.i
  store ptr %call.i.i.i, ptr %agg.result, align 8
  ret void
}

; Function Attrs: mustprogress uwtable
define weak_odr dso_local void @_ZN5eastl3setIiNS_4lessIiEENS_9allocatorEE5eraseENS_16reverse_iteratorINS_15rbtree_iteratorIiPKiRS7_EEEESB_(ptr noalias sret(%"class.eastl::reverse_iterator") align 8 %agg.result, ptr noundef nonnull align 8 dereferenceable(41) %this, ptr noundef %first, ptr noundef %last) local_unnamed_addr #0 comdat align 2 {
entry:
  %0 = load ptr, ptr %last, align 8
  %call.i.i = tail call noundef ptr @_ZN5eastl15RBTreeDecrementEPKNS_16rbtree_node_baseE(ptr noundef %0)
  store ptr %call.i.i, ptr %last, align 8
  %1 = load ptr, ptr %first, align 8
  %call.i.i1 = tail call noundef ptr @_ZN5eastl15RBTreeDecrementEPKNS_16rbtree_node_baseE(ptr noundef %1)
  store ptr %call.i.i1, ptr %first, align 8
  %mpNodeLeft.i.i = getelementptr inbounds i8, ptr %this, i64 8
  %2 = load ptr, ptr %mpNodeLeft.i.i, align 8
  %cmp.i.i = icmp ne ptr %2, %call.i.i
  %cmp5.i.i = icmp ne ptr %call.i.i1, %this
  %3 = or i1 %cmp5.i.i, %cmp.i.i
  br i1 %3, label %while.cond.preheader.i.i, label %if.end.i.i

while.cond.preheader.i.i:                         ; preds = %entry
  %cmp.i.not2.i.i = icmp eq ptr %call.i.i, %call.i.i1
  br i1 %cmp.i.not2.i.i, label %_ZN5eastl3setIiNS_4lessIiEENS_9allocatorEE5eraseENS_15rbtree_iteratorIiPKiRS6_EES9_.exit, label %while.body.lr.ph.i.i

while.body.lr.ph.i.i:                             ; preds = %while.cond.preheader.i.i
  %mnSize.i.i.i = getelementptr inbounds i8, ptr %this, i64 32
  br label %while.body.i.i

while.body.i.i:                                   ; preds = %_ZN5eastl6rbtreeIiiNS_4lessIiEENS_9allocatorENS_8use_selfIiEELb0ELb1EE5eraseENS_15rbtree_iteratorIiPKiRS8_EE.exit.i.i, %while.body.lr.ph.i.i
  %first.sroa.0.03.i.i = phi ptr [ %call.i.i, %while.body.lr.ph.i.i ], [ %call.i.i.i.i, %_ZN5eastl6rbtreeIiiNS_4lessIiEENS_9allocatorENS_8use_selfIiEELb0ELb1EE5eraseENS_15rbtree_iteratorIiPKiRS8_EE.exit.i.i ]
  %4 = load i64, ptr %mnSize.i.i.i, align 8
  %dec.i.i.i = add i64 %4, -1
  store i64 %dec.i.i.i, ptr %mnSize.i.i.i, align 8
  %call.i.i.i.i = tail call noundef ptr @_ZN5eastl15RBTreeIncrementEPKNS_16rbtree_node_baseE(ptr noundef %first.sroa.0.03.i.i)
  tail call void @_ZN5eastl11RBTreeEraseEPNS_16rbtree_node_baseES1_(ptr noundef %first.sroa.0.03.i.i, ptr noundef nonnull %this)
  %isnull.i.i.i.i.i = icmp eq ptr %first.sroa.0.03.i.i, null
  br i1 %isnull.i.i.i.i.i, label %_ZN5eastl6rbtreeIiiNS_4lessIiEENS_9allocatorENS_8use_selfIiEELb0ELb1EE5eraseENS_15rbtree_iteratorIiPKiRS8_EE.exit.i.i, label %delete.notnull.i.i.i.i.i

delete.notnull.i.i.i.i.i:                         ; preds = %while.body.i.i
  tail call void @_ZdaPv(ptr noundef nonnull %first.sroa.0.03.i.i) #12
  br label %_ZN5eastl6rbtreeIiiNS_4lessIiEENS_9allocatorENS_8use_selfIiEELb0ELb1EE5eraseENS_15rbtree_iteratorIiPKiRS8_EE.exit.i.i

_ZN5eastl6rbtreeIiiNS_4lessIiEENS_9allocatorENS_8use_selfIiEELb0ELb1EE5eraseENS_15rbtree_iteratorIiPKiRS8_EE.exit.i.i: ; preds = %delete.notnull.i.i.i.i.i, %while.body.i.i
  %cmp.i.not.i.i = icmp eq ptr %call.i.i.i.i, %call.i.i1
  br i1 %cmp.i.not.i.i, label %_ZN5eastl3setIiNS_4lessIiEENS_9allocatorEE5eraseENS_15rbtree_iteratorIiPKiRS6_EES9_.exit, label %while.body.i.i, !llvm.loop !11

if.end.i.i:                                       ; preds = %entry
  %mpNodeParent.i.i.i = getelementptr inbounds i8, ptr %this, i64 16
  %5 = load ptr, ptr %mpNodeParent.i.i.i, align 8
  tail call void @_ZN5eastl6rbtreeIiiNS_4lessIiEENS_9allocatorENS_8use_selfIiEELb0ELb1EE13DoNukeSubtreeEPNS_16rbtree_node_baseE(ptr noundef nonnull align 8 dereferenceable(41) %this, ptr noundef %5)
  store ptr %this, ptr %this, align 8
  store ptr %this, ptr %mpNodeLeft.i.i, align 8
  store ptr null, ptr %mpNodeParent.i.i.i, align 8
  %mColor.i.i.i.i = getelementptr inbounds i8, ptr %this, i64 24
  store i8 0, ptr %mColor.i.i.i.i, align 8
  %mnSize.i.i.i.i = getelementptr inbounds i8, ptr %this, i64 32
  store i64 0, ptr %mnSize.i.i.i.i, align 8
  br label %_ZN5eastl3setIiNS_4lessIiEENS_9allocatorEE5eraseENS_15rbtree_iteratorIiPKiRS6_EES9_.exit

_ZN5eastl3setIiNS_4lessIiEENS_9allocatorEE5eraseENS_15rbtree_iteratorIiPKiRS6_EES9_.exit: ; preds = %_ZN5eastl6rbtreeIiiNS_4lessIiEENS_9allocatorENS_8use_selfIiEELb0ELb1EE5eraseENS_15rbtree_iteratorIiPKiRS8_EE.exit.i.i, %while.cond.preheader.i.i, %if.end.i.i
  %retval.sroa.0.0.i.i = phi ptr [ %this, %if.end.i.i ], [ %call.i.i, %while.cond.preheader.i.i ], [ %call.i.i1, %_ZN5eastl6rbtreeIiiNS_4lessIiEENS_9allocatorENS_8use_selfIiEELb0ELb1EE5eraseENS_15rbtree_iteratorIiPKiRS8_EE.exit.i.i ]
  store ptr %retval.sroa.0.0.i.i, ptr %agg.result, align 8
  ret void
}

; Function Attrs: mustprogress uwtable
define weak_odr dso_local noundef i64 @_ZNK5eastl3setIiNS_4lessIiEENS_9allocatorEE5countERKi(ptr noundef nonnull align 8 dereferenceable(41) %this, ptr noundef nonnull align 4 dereferenceable(4) %k) local_unnamed_addr #0 comdat align 2 personality ptr @__gxx_personality_v0 {
entry:
  %mpNodeParent.i.i = getelementptr inbounds i8, ptr %this, i64 16
  %pCurrent.09.i.i = load ptr, ptr %mpNodeParent.i.i, align 8
  %tobool.not10.i.i = icmp eq ptr %pCurrent.09.i.i, null
  br i1 %tobool.not10.i.i, label %if.end16.i.i, label %while.body.lr.ph.i.i

while.body.lr.ph.i.i:                             ; preds = %entry
  %0 = load i32, ptr %k, align 4
  br label %while.body.i.i

while.body.i.i:                                   ; preds = %while.body.i.i, %while.body.lr.ph.i.i
  %pCurrent.012.i.i = phi ptr [ %pCurrent.09.i.i, %while.body.lr.ph.i.i ], [ %pCurrent.0.i.i, %while.body.i.i ]
  %pRangeEnd.011.i.i = phi ptr [ %this, %while.body.lr.ph.i.i ], [ %pRangeEnd.1.i.i, %while.body.i.i ]
  %mValue.i.i = getelementptr inbounds i8, ptr %pCurrent.012.i.i, i64 32
  %1 = load i32, ptr %mValue.i.i, align 4
  %cmp.i.i.i.i = icmp slt i32 %1, %0
  %pCurrent.1.in.idx.i.i = select i1 %cmp.i.i.i.i, i64 0, i64 8
  %pCurrent.1.in.i.i = getelementptr inbounds i8, ptr %pCurrent.012.i.i, i64 %pCurrent.1.in.idx.i.i
  %pRangeEnd.1.i.i = select i1 %cmp.i.i.i.i, ptr %pRangeEnd.011.i.i, ptr %pCurrent.012.i.i
  %pCurrent.0.i.i = load ptr, ptr %pCurrent.1.in.i.i, align 8
  %tobool.not.i.i = icmp eq ptr %pCurrent.0.i.i, null
  br i1 %tobool.not.i.i, label %while.end.i.i, label %while.body.i.i, !llvm.loop !10

while.end.i.i:                                    ; preds = %while.body.i.i
  %cmp.not.i.i = icmp eq ptr %pRangeEnd.1.i.i, %this
  br i1 %cmp.not.i.i, label %if.end16.i.i, label %land.rhs.i.i

land.rhs.i.i:                                     ; preds = %while.end.i.i
  %mValue9.i.i = getelementptr inbounds i8, ptr %pRangeEnd.1.i.i, i64 32
  %2 = load i32, ptr %mValue9.i.i, align 4
  %cmp.i.i8.not.i.i = icmp slt i32 %0, %2
  br i1 %cmp.i.i8.not.i.i, label %if.end16.i.i, label %_ZNK5eastl6rbtreeIiiNS_4lessIiEENS_9allocatorENS_8use_selfIiEELb0ELb1EE4findERKi.exit

if.end16.i.i:                                     ; preds = %land.rhs.i.i, %while.end.i.i, %entry
  br label %_ZNK5eastl6rbtreeIiiNS_4lessIiEENS_9allocatorENS_8use_selfIiEELb0ELb1EE4findERKi.exit

_ZNK5eastl6rbtreeIiiNS_4lessIiEENS_9allocatorENS_8use_selfIiEELb0ELb1EE4findERKi.exit: ; preds = %land.rhs.i.i, %if.end16.i.i
  %retval.sroa.0.0.i.i = phi ptr [ %this, %if.end16.i.i ], [ %pRangeEnd.1.i.i, %land.rhs.i.i ]
  %cmp.i = icmp ne ptr %retval.sroa.0.0.i.i, %this
  %cond = zext i1 %cmp.i to i64
  ret i64 %cond
}

; Function Attrs: mustprogress uwtable
define weak_odr dso_local { ptr, ptr } @_ZN5eastl3setIiNS_4lessIiEENS_9allocatorEE11equal_rangeERKi(ptr noundef nonnull align 8 dereferenceable(41) %this, ptr noundef nonnull align 4 dereferenceable(4) %k) local_unnamed_addr #0 comdat align 2 personality ptr @__gxx_personality_v0 {
entry:
  %mpNodeParent.i = getelementptr inbounds i8, ptr %this, i64 16
  %pCurrent.05.i = load ptr, ptr %mpNodeParent.i, align 8
  %tobool.not6.i = icmp eq ptr %pCurrent.05.i, null
  br i1 %tobool.not6.i, label %return, label %while.body.lr.ph.i

while.body.lr.ph.i:                               ; preds = %entry
  %0 = load i32, ptr %k, align 4
  br label %while.body.i

while.body.i:                                     ; preds = %while.body.i, %while.body.lr.ph.i
  %pCurrent.08.i = phi ptr [ %pCurrent.05.i, %while.body.lr.ph.i ], [ %pCurrent.0.i, %while.body.i ]
  %pRangeEnd.07.i = phi ptr [ %this, %while.body.lr.ph.i ], [ %pRangeEnd.1.i, %while.body.i ]
  %mValue.i = getelementptr inbounds i8, ptr %pCurrent.08.i, i64 32
  %1 = load i32, ptr %mValue.i, align 4
  %cmp.i.i.i = icmp slt i32 %1, %0
  %pCurrent.1.in.idx.i = select i1 %cmp.i.i.i, i64 0, i64 8
  %pCurrent.1.in.i = getelementptr inbounds i8, ptr %pCurrent.08.i, i64 %pCurrent.1.in.idx.i
  %pRangeEnd.1.i = select i1 %cmp.i.i.i, ptr %pRangeEnd.07.i, ptr %pCurrent.08.i
  %pCurrent.0.i = load ptr, ptr %pCurrent.1.in.i, align 8
  %tobool.not.i = icmp eq ptr %pCurrent.0.i, null
  br i1 %tobool.not.i, label %_ZN5eastl6rbtreeIiiNS_4lessIiEENS_9allocatorENS_8use_selfIiEELb0ELb1EE11lower_boundERKi.exit, label %while.body.i, !llvm.loop !12

_ZN5eastl6rbtreeIiiNS_4lessIiEENS_9allocatorENS_8use_selfIiEELb0ELb1EE11lower_boundERKi.exit: ; preds = %while.body.i
  %cmp.i = icmp eq ptr %pRangeEnd.1.i, %this
  br i1 %cmp.i, label %return, label %lor.rhs

lor.rhs:                                          ; preds = %_ZN5eastl6rbtreeIiiNS_4lessIiEENS_9allocatorENS_8use_selfIiEELb0ELb1EE11lower_boundERKi.exit
  %mValue.i2 = getelementptr inbounds i8, ptr %pRangeEnd.1.i, i64 32
  %2 = load i32, ptr %mValue.i2, align 4
  %cmp.i.i = icmp slt i32 %0, %2
  br i1 %cmp.i.i, label %return, label %if.end

if.end:                                           ; preds = %lor.rhs
  %call.i = tail call noundef ptr @_ZN5eastl15RBTreeIncrementEPKNS_16rbtree_node_baseE(ptr noundef nonnull %pRangeEnd.1.i)
  br label %return

return:                                           ; preds = %lor.rhs, %_ZN5eastl6rbtreeIiiNS_4lessIiEENS_9allocatorENS_8use_selfIiEELb0ELb1EE11lower_boundERKi.exit, %entry, %if.end
  %retval.sroa.0.0 = phi ptr [ %pRangeEnd.1.i, %if.end ], [ %this, %_ZN5eastl6rbtreeIiiNS_4lessIiEENS_9allocatorENS_8use_selfIiEELb0ELb1EE11lower_boundERKi.exit ], [ %pRangeEnd.1.i, %lor.rhs ], [ %this, %entry ]
  %retval.sroa.3.0 = phi ptr [ %call.i, %if.end ], [ %this, %_ZN5eastl6rbtreeIiiNS_4lessIiEENS_9allocatorENS_8use_selfIiEELb0ELb1EE11lower_boundERKi.exit ], [ %pRangeEnd.1.i, %lor.rhs ], [ %this, %entry ]
  %.fca.0.insert = insertvalue { ptr, ptr } poison, ptr %retval.sroa.0.0, 0
  %.fca.1.insert = insertvalue { ptr, ptr } %.fca.0.insert, ptr %retval.sroa.3.0, 1
  ret { ptr, ptr } %.fca.1.insert
}

; Function Attrs: mustprogress uwtable
define weak_odr dso_local { ptr, ptr } @_ZNK5eastl3setIiNS_4lessIiEENS_9allocatorEE11equal_rangeERKi(ptr noundef nonnull align 8 dereferenceable(41) %this, ptr noundef nonnull align 4 dereferenceable(4) %k) local_unnamed_addr #0 comdat align 2 personality ptr @__gxx_personality_v0 {
entry:
  %mpNodeParent.i.i = getelementptr inbounds i8, ptr %this, i64 16
  %pCurrent.05.i.i = load ptr, ptr %mpNodeParent.i.i, align 8
  %tobool.not6.i.i = icmp eq ptr %pCurrent.05.i.i, null
  br i1 %tobool.not6.i.i, label %return, label %while.body.lr.ph.i.i

while.body.lr.ph.i.i:                             ; preds = %entry
  %0 = load i32, ptr %k, align 4
  br label %while.body.i.i

while.body.i.i:                                   ; preds = %while.body.i.i, %while.body.lr.ph.i.i
  %pCurrent.08.i.i = phi ptr [ %pCurrent.05.i.i, %while.body.lr.ph.i.i ], [ %pCurrent.0.i.i, %while.body.i.i ]
  %pRangeEnd.07.i.i = phi ptr [ %this, %while.body.lr.ph.i.i ], [ %pRangeEnd.1.i.i, %while.body.i.i ]
  %mValue.i.i = getelementptr inbounds i8, ptr %pCurrent.08.i.i, i64 32
  %1 = load i32, ptr %mValue.i.i, align 4
  %cmp.i.i.i.i = icmp slt i32 %1, %0
  %pCurrent.1.in.idx.i.i = select i1 %cmp.i.i.i.i, i64 0, i64 8
  %pCurrent.1.in.i.i = getelementptr inbounds i8, ptr %pCurrent.08.i.i, i64 %pCurrent.1.in.idx.i.i
  %pRangeEnd.1.i.i = select i1 %cmp.i.i.i.i, ptr %pRangeEnd.07.i.i, ptr %pCurrent.08.i.i
  %pCurrent.0.i.i = load ptr, ptr %pCurrent.1.in.i.i, align 8
  %tobool.not.i.i = icmp eq ptr %pCurrent.0.i.i, null
  br i1 %tobool.not.i.i, label %_ZNK5eastl6rbtreeIiiNS_4lessIiEENS_9allocatorENS_8use_selfIiEELb0ELb1EE11lower_boundERKi.exit, label %while.body.i.i, !llvm.loop !12

_ZNK5eastl6rbtreeIiiNS_4lessIiEENS_9allocatorENS_8use_selfIiEELb0ELb1EE11lower_boundERKi.exit: ; preds = %while.body.i.i
  %cmp.i = icmp eq ptr %pRangeEnd.1.i.i, %this
  br i1 %cmp.i, label %return, label %lor.rhs

lor.rhs:                                          ; preds = %_ZNK5eastl6rbtreeIiiNS_4lessIiEENS_9allocatorENS_8use_selfIiEELb0ELb1EE11lower_boundERKi.exit
  %mValue.i = getelementptr inbounds i8, ptr %pRangeEnd.1.i.i, i64 32
  %2 = load i32, ptr %mValue.i, align 4
  %cmp.i.i = icmp slt i32 %0, %2
  br i1 %cmp.i.i, label %return, label %if.end

if.end:                                           ; preds = %lor.rhs
  %call.i = tail call noundef ptr @_ZN5eastl15RBTreeIncrementEPKNS_16rbtree_node_baseE(ptr noundef nonnull %pRangeEnd.1.i.i)
  br label %return

return:                                           ; preds = %lor.rhs, %_ZNK5eastl6rbtreeIiiNS_4lessIiEENS_9allocatorENS_8use_selfIiEELb0ELb1EE11lower_boundERKi.exit, %entry, %if.end
  %retval.sroa.0.0 = phi ptr [ %pRangeEnd.1.i.i, %if.end ], [ %this, %_ZNK5eastl6rbtreeIiiNS_4lessIiEENS_9allocatorENS_8use_selfIiEELb0ELb1EE11lower_boundERKi.exit ], [ %pRangeEnd.1.i.i, %lor.rhs ], [ %this, %entry ]
  %retval.sroa.3.0 = phi ptr [ %call.i, %if.end ], [ %this, %_ZNK5eastl6rbtreeIiiNS_4lessIiEENS_9allocatorENS_8use_selfIiEELb0ELb1EE11lower_boundERKi.exit ], [ %pRangeEnd.1.i.i, %lor.rhs ], [ %this, %entry ]
  %.fca.0.insert = insertvalue { ptr, ptr } poison, ptr %retval.sroa.0.0, 0
  %.fca.1.insert = insertvalue { ptr, ptr } %.fca.0.insert, ptr %retval.sroa.3.0, 1
  ret { ptr, ptr } %.fca.1.insert
}

; Function Attrs: mustprogress uwtable
define weak_odr dso_local void @_ZN5eastl8multisetIfNS_4lessIfEENS_9allocatorEEC2ERKS3_(ptr noundef nonnull align 8 dereferenceable(41) %this, ptr noundef nonnull align 1 dereferenceable(1) %allocator) unnamed_addr #0 comdat($_ZN5eastl8multisetIfNS_4lessIfEENS_9allocatorEEC5ERKS3_) align 2 {
entry:
  %mnSize.i = getelementptr inbounds i8, ptr %this, i64 32
  %0 = getelementptr inbounds i8, ptr %this, i64 24
  store i64 0, ptr %0, align 8
  store ptr %this, ptr %this, align 8
  %mpNodeLeft.i.i = getelementptr inbounds i8, ptr %this, i64 8
  store ptr %this, ptr %mpNodeLeft.i.i, align 8
  %mpNodeParent.i.i = getelementptr inbounds i8, ptr %this, i64 16
  store ptr null, ptr %mpNodeParent.i.i, align 8
  store i64 0, ptr %mnSize.i, align 8
  ret void
}

; Function Attrs: mustprogress uwtable
define weak_odr dso_local void @_ZN5eastl8multisetIfNS_4lessIfEENS_9allocatorEEC2ERKS2_RKS3_(ptr noundef nonnull align 8 dereferenceable(41) %this, ptr noundef nonnull align 1 dereferenceable(1) %compare, ptr noundef nonnull align 1 dereferenceable(1) %allocator) unnamed_addr #0 comdat($_ZN5eastl8multisetIfNS_4lessIfEENS_9allocatorEEC5ERKS2_RKS3_) align 2 {
entry:
  %mnSize.i = getelementptr inbounds i8, ptr %this, i64 32
  %0 = getelementptr inbounds i8, ptr %this, i64 24
  store i64 0, ptr %0, align 8
  store ptr %this, ptr %this, align 8
  %mpNodeLeft.i.i = getelementptr inbounds i8, ptr %this, i64 8
  store ptr %this, ptr %mpNodeLeft.i.i, align 8
  %mpNodeParent.i.i = getelementptr inbounds i8, ptr %this, i64 16
  store ptr null, ptr %mpNodeParent.i.i, align 8
  store i64 0, ptr %mnSize.i, align 8
  ret void
}

; Function Attrs: mustprogress uwtable
define weak_odr dso_local void @_ZN5eastl8multisetIfNS_4lessIfEENS_9allocatorEEC2ERKS4_(ptr noundef nonnull align 8 dereferenceable(41) %this, ptr noundef nonnull align 8 dereferenceable(41) %x) unnamed_addr #0 comdat($_ZN5eastl8multisetIfNS_4lessIfEENS_9allocatorEEC5ERKS4_) align 2 {
entry:
  %mnSize.i = getelementptr inbounds i8, ptr %this, i64 32
  %0 = getelementptr inbounds i8, ptr %this, i64 24
  store i64 0, ptr %0, align 8
  store ptr %this, ptr %this, align 8
  %mpNodeLeft.i.i = getelementptr inbounds i8, ptr %this, i64 8
  store ptr %this, ptr %mpNodeLeft.i.i, align 8
  %mpNodeParent.i.i = getelementptr inbounds i8, ptr %this, i64 16
  store ptr null, ptr %mpNodeParent.i.i, align 8
  store i64 0, ptr %mnSize.i, align 8
  %mpNodeParent.i = getelementptr inbounds i8, ptr %x, i64 16
  %1 = load ptr, ptr %mpNodeParent.i, align 8
  %tobool.not.i = icmp eq ptr %1, null
  br i1 %tobool.not.i, label %_ZN5eastl6rbtreeIffNS_4lessIfEENS_9allocatorENS_8use_selfIfEELb0ELb0EEC2ERKS6_.exit, label %if.then.i

if.then.i:                                        ; preds = %entry
  %call7.i = tail call noundef ptr @_ZN5eastl6rbtreeIffNS_4lessIfEENS_9allocatorENS_8use_selfIfEELb0ELb0EE13DoCopySubtreeEPKNS_11rbtree_nodeIfEEPNS_16rbtree_node_baseE(ptr noundef nonnull align 8 dereferenceable(41) %this, ptr noundef nonnull %1, ptr noundef nonnull %this)
  store ptr %call7.i, ptr %mpNodeParent.i.i, align 8
  br label %while.cond.i.i

while.cond.i.i:                                   ; preds = %while.cond.i.i, %if.then.i
  %pNodeBase.addr.0.i.i = phi ptr [ %call7.i, %if.then.i ], [ %2, %while.cond.i.i ]
  %2 = load ptr, ptr %pNodeBase.addr.0.i.i, align 8
  %tobool.not.i.i = icmp eq ptr %2, null
  br i1 %tobool.not.i.i, label %_ZN5eastl17RBTreeGetMaxChildEPKNS_16rbtree_node_baseE.exit.i, label %while.cond.i.i, !llvm.loop !5

_ZN5eastl17RBTreeGetMaxChildEPKNS_16rbtree_node_baseE.exit.i: ; preds = %while.cond.i.i
  store ptr %pNodeBase.addr.0.i.i, ptr %this, align 8
  br label %while.cond.i5.i

while.cond.i5.i:                                  ; preds = %while.cond.i5.i, %_ZN5eastl17RBTreeGetMaxChildEPKNS_16rbtree_node_baseE.exit.i
  %pNodeBase.addr.0.i6.i = phi ptr [ %call7.i, %_ZN5eastl17RBTreeGetMaxChildEPKNS_16rbtree_node_baseE.exit.i ], [ %3, %while.cond.i5.i ]
  %mpNodeLeft.i7.i = getelementptr inbounds i8, ptr %pNodeBase.addr.0.i6.i, i64 8
  %3 = load ptr, ptr %mpNodeLeft.i7.i, align 8
  %tobool.not.i8.i = icmp eq ptr %3, null
  br i1 %tobool.not.i8.i, label %_ZN5eastl17RBTreeGetMinChildEPKNS_16rbtree_node_baseE.exit.i, label %while.cond.i5.i, !llvm.loop !7

_ZN5eastl17RBTreeGetMinChildEPKNS_16rbtree_node_baseE.exit.i: ; preds = %while.cond.i5.i
  store ptr %pNodeBase.addr.0.i6.i, ptr %mpNodeLeft.i.i, align 8
  %mnSize18.i = getelementptr inbounds i8, ptr %x, i64 32
  %4 = load i64, ptr %mnSize18.i, align 8
  store i64 %4, ptr %mnSize.i, align 8
  br label %_ZN5eastl6rbtreeIffNS_4lessIfEENS_9allocatorENS_8use_selfIfEELb0ELb0EEC2ERKS6_.exit

_ZN5eastl6rbtreeIffNS_4lessIfEENS_9allocatorENS_8use_selfIfEELb0ELb0EEC2ERKS6_.exit: ; preds = %entry, %_ZN5eastl17RBTreeGetMinChildEPKNS_16rbtree_node_baseE.exit.i
  ret void
}

; Function Attrs: mustprogress uwtable
define weak_odr dso_local void @_ZN5eastl8multisetIfNS_4lessIfEENS_9allocatorEEC2EOS4_(ptr noundef nonnull align 8 dereferenceable(41) %this, ptr noundef nonnull align 8 dereferenceable(41) %x) unnamed_addr #0 comdat($_ZN5eastl8multisetIfNS_4lessIfEENS_9allocatorEEC5EOS4_) align 2 {
entry:
  %mnSize.i = getelementptr inbounds i8, ptr %this, i64 32
  %0 = getelementptr inbounds i8, ptr %this, i64 24
  store i64 0, ptr %0, align 8
  store ptr %this, ptr %this, align 8
  %mpNodeLeft.i.i = getelementptr inbounds i8, ptr %this, i64 8
  store ptr %this, ptr %mpNodeLeft.i.i, align 8
  %mpNodeParent.i.i = getelementptr inbounds i8, ptr %this, i64 16
  store ptr null, ptr %mpNodeParent.i.i, align 8
  store i64 0, ptr %mnSize.i, align 8
  %mnSize2.i.i = getelementptr inbounds i8, ptr %x, i64 32
  %1 = load i64, ptr %mnSize2.i.i, align 8
  store i64 %1, ptr %mnSize.i, align 8
  store i64 0, ptr %mnSize2.i.i, align 8
  %2 = load ptr, ptr %mpNodeParent.i.i, align 8
  %tobool.not.i.i = icmp eq ptr %2, null
  %mpNodeParent56.i.i = getelementptr inbounds i8, ptr %x, i64 16
  %3 = load ptr, ptr %mpNodeParent56.i.i, align 8
  %tobool57.not.i.i = icmp eq ptr %3, null
  br i1 %tobool.not.i.i, label %if.else54.i.i, label %land.lhs.true.i.i

land.lhs.true.i.i:                                ; preds = %entry
  %4 = load ptr, ptr %this, align 8
  br i1 %tobool57.not.i.i, label %if.then29.i.i, label %if.then.i.i

if.then.i.i:                                      ; preds = %land.lhs.true.i.i
  %5 = load ptr, ptr %x, align 8
  store ptr %5, ptr %this, align 8
  store ptr %4, ptr %x, align 8
  %mpNodeLeft13.i.i = getelementptr inbounds i8, ptr %x, i64 8
  %6 = load ptr, ptr %mpNodeLeft.i.i, align 8
  %7 = load ptr, ptr %mpNodeLeft13.i.i, align 8
  store ptr %7, ptr %mpNodeLeft.i.i, align 8
  store ptr %6, ptr %mpNodeLeft13.i.i, align 8
  %8 = load ptr, ptr %mpNodeParent.i.i, align 8
  %9 = load ptr, ptr %mpNodeParent56.i.i, align 8
  store ptr %9, ptr %mpNodeParent.i.i, align 8
  store ptr %8, ptr %mpNodeParent56.i.i, align 8
  %10 = load ptr, ptr %mpNodeParent.i.i, align 8
  %mpNodeParent21.i.i = getelementptr inbounds i8, ptr %10, i64 16
  store ptr %this, ptr %mpNodeParent21.i.i, align 8
  %11 = load ptr, ptr %mpNodeParent56.i.i, align 8
  %mpNodeParent25.i.i = getelementptr inbounds i8, ptr %11, i64 16
  store ptr %x, ptr %mpNodeParent25.i.i, align 8
  br label %_ZN5eastl6rbtreeIffNS_4lessIfEENS_9allocatorENS_8use_selfIfEELb0ELb0EEC2EOS6_.exit

if.then29.i.i:                                    ; preds = %land.lhs.true.i.i
  store ptr %4, ptr %x, align 8
  %12 = load ptr, ptr %mpNodeLeft.i.i, align 8
  %mpNodeLeft37.i.i = getelementptr inbounds i8, ptr %x, i64 8
  store ptr %12, ptr %mpNodeLeft37.i.i, align 8
  %13 = load ptr, ptr %mpNodeParent.i.i, align 8
  store ptr %13, ptr %mpNodeParent56.i.i, align 8
  %mpNodeParent45.i.i = getelementptr inbounds i8, ptr %13, i64 16
  store ptr %x, ptr %mpNodeParent45.i.i, align 8
  store ptr %this, ptr %this, align 8
  store ptr %this, ptr %mpNodeLeft.i.i, align 8
  store ptr null, ptr %mpNodeParent.i.i, align 8
  br label %_ZN5eastl6rbtreeIffNS_4lessIfEENS_9allocatorENS_8use_selfIfEELb0ELb0EEC2EOS6_.exit

if.else54.i.i:                                    ; preds = %entry
  br i1 %tobool57.not.i.i, label %_ZN5eastl6rbtreeIffNS_4lessIfEENS_9allocatorENS_8use_selfIfEELb0ELb0EEC2EOS6_.exit, label %if.then58.i.i

if.then58.i.i:                                    ; preds = %if.else54.i.i
  %14 = load ptr, ptr %x, align 8
  store ptr %14, ptr %this, align 8
  %mpNodeLeft64.i.i = getelementptr inbounds i8, ptr %x, i64 8
  %15 = load ptr, ptr %mpNodeLeft64.i.i, align 8
  store ptr %15, ptr %mpNodeLeft.i.i, align 8
  %16 = load ptr, ptr %mpNodeParent56.i.i, align 8
  store ptr %16, ptr %mpNodeParent.i.i, align 8
  %mpNodeParent74.i.i = getelementptr inbounds i8, ptr %16, i64 16
  store ptr %this, ptr %mpNodeParent74.i.i, align 8
  store ptr %x, ptr %x, align 8
  store ptr %x, ptr %mpNodeLeft64.i.i, align 8
  store ptr null, ptr %mpNodeParent56.i.i, align 8
  br label %_ZN5eastl6rbtreeIffNS_4lessIfEENS_9allocatorENS_8use_selfIfEELb0ELb0EEC2EOS6_.exit

_ZN5eastl6rbtreeIffNS_4lessIfEENS_9allocatorENS_8use_selfIfEELb0ELb0EEC2EOS6_.exit: ; preds = %if.then.i.i, %if.then29.i.i, %if.else54.i.i, %if.then58.i.i
  ret void
}

; Function Attrs: mustprogress uwtable
define weak_odr dso_local void @_ZN5eastl8multisetIfNS_4lessIfEENS_9allocatorEEC2EOS4_RKS3_(ptr noundef nonnull align 8 dereferenceable(41) %this, ptr noundef nonnull align 8 dereferenceable(41) %x, ptr noundef nonnull align 1 dereferenceable(1) %allocator) unnamed_addr #0 comdat($_ZN5eastl8multisetIfNS_4lessIfEENS_9allocatorEEC5EOS4_RKS3_) align 2 {
entry:
  %mnSize.i = getelementptr inbounds i8, ptr %this, i64 32
  %0 = getelementptr inbounds i8, ptr %this, i64 24
  store i64 0, ptr %0, align 8
  store ptr %this, ptr %this, align 8
  %mpNodeLeft.i.i = getelementptr inbounds i8, ptr %this, i64 8
  store ptr %this, ptr %mpNodeLeft.i.i, align 8
  %mpNodeParent.i.i = getelementptr inbounds i8, ptr %this, i64 16
  store ptr null, ptr %mpNodeParent.i.i, align 8
  store i64 0, ptr %mnSize.i, align 8
  %mnSize2.i.i = getelementptr inbounds i8, ptr %x, i64 32
  %1 = load i64, ptr %mnSize2.i.i, align 8
  store i64 %1, ptr %mnSize.i, align 8
  store i64 0, ptr %mnSize2.i.i, align 8
  %2 = load ptr, ptr %mpNodeParent.i.i, align 8
  %tobool.not.i.i = icmp eq ptr %2, null
  %mpNodeParent56.i.i = getelementptr inbounds i8, ptr %x, i64 16
  %3 = load ptr, ptr %mpNodeParent56.i.i, align 8
  %tobool57.not.i.i = icmp eq ptr %3, null
  br i1 %tobool.not.i.i, label %if.else54.i.i, label %land.lhs.true.i.i

land.lhs.true.i.i:                                ; preds = %entry
  %4 = load ptr, ptr %this, align 8
  br i1 %tobool57.not.i.i, label %if.then29.i.i, label %if.then.i.i

if.then.i.i:                                      ; preds = %land.lhs.true.i.i
  %5 = load ptr, ptr %x, align 8
  store ptr %5, ptr %this, align 8
  store ptr %4, ptr %x, align 8
  %mpNodeLeft13.i.i = getelementptr inbounds i8, ptr %x, i64 8
  %6 = load ptr, ptr %mpNodeLeft.i.i, align 8
  %7 = load ptr, ptr %mpNodeLeft13.i.i, align 8
  store ptr %7, ptr %mpNodeLeft.i.i, align 8
  store ptr %6, ptr %mpNodeLeft13.i.i, align 8
  %8 = load ptr, ptr %mpNodeParent.i.i, align 8
  %9 = load ptr, ptr %mpNodeParent56.i.i, align 8
  store ptr %9, ptr %mpNodeParent.i.i, align 8
  store ptr %8, ptr %mpNodeParent56.i.i, align 8
  %10 = load ptr, ptr %mpNodeParent.i.i, align 8
  %mpNodeParent21.i.i = getelementptr inbounds i8, ptr %10, i64 16
  store ptr %this, ptr %mpNodeParent21.i.i, align 8
  %11 = load ptr, ptr %mpNodeParent56.i.i, align 8
  %mpNodeParent25.i.i = getelementptr inbounds i8, ptr %11, i64 16
  store ptr %x, ptr %mpNodeParent25.i.i, align 8
  br label %_ZN5eastl6rbtreeIffNS_4lessIfEENS_9allocatorENS_8use_selfIfEELb0ELb0EEC2EOS6_RKS3_.exit

if.then29.i.i:                                    ; preds = %land.lhs.true.i.i
  store ptr %4, ptr %x, align 8
  %12 = load ptr, ptr %mpNodeLeft.i.i, align 8
  %mpNodeLeft37.i.i = getelementptr inbounds i8, ptr %x, i64 8
  store ptr %12, ptr %mpNodeLeft37.i.i, align 8
  %13 = load ptr, ptr %mpNodeParent.i.i, align 8
  store ptr %13, ptr %mpNodeParent56.i.i, align 8
  %mpNodeParent45.i.i = getelementptr inbounds i8, ptr %13, i64 16
  store ptr %x, ptr %mpNodeParent45.i.i, align 8
  store ptr %this, ptr %this, align 8
  store ptr %this, ptr %mpNodeLeft.i.i, align 8
  store ptr null, ptr %mpNodeParent.i.i, align 8
  br label %_ZN5eastl6rbtreeIffNS_4lessIfEENS_9allocatorENS_8use_selfIfEELb0ELb0EEC2EOS6_RKS3_.exit

if.else54.i.i:                                    ; preds = %entry
  br i1 %tobool57.not.i.i, label %_ZN5eastl6rbtreeIffNS_4lessIfEENS_9allocatorENS_8use_selfIfEELb0ELb0EEC2EOS6_RKS3_.exit, label %if.then58.i.i

if.then58.i.i:                                    ; preds = %if.else54.i.i
  %14 = load ptr, ptr %x, align 8
  store ptr %14, ptr %this, align 8
  %mpNodeLeft64.i.i = getelementptr inbounds i8, ptr %x, i64 8
  %15 = load ptr, ptr %mpNodeLeft64.i.i, align 8
  store ptr %15, ptr %mpNodeLeft.i.i, align 8
  %16 = load ptr, ptr %mpNodeParent56.i.i, align 8
  store ptr %16, ptr %mpNodeParent.i.i, align 8
  %mpNodeParent74.i.i = getelementptr inbounds i8, ptr %16, i64 16
  store ptr %this, ptr %mpNodeParent74.i.i, align 8
  store ptr %x, ptr %x, align 8
  store ptr %x, ptr %mpNodeLeft64.i.i, align 8
  store ptr null, ptr %mpNodeParent56.i.i, align 8
  br label %_ZN5eastl6rbtreeIffNS_4lessIfEENS_9allocatorENS_8use_selfIfEELb0ELb0EEC2EOS6_RKS3_.exit

_ZN5eastl6rbtreeIffNS_4lessIfEENS_9allocatorENS_8use_selfIfEELb0ELb0EEC2EOS6_RKS3_.exit: ; preds = %if.then.i.i, %if.then29.i.i, %if.else54.i.i, %if.then58.i.i
  ret void
}

; Function Attrs: mustprogress uwtable
define weak_odr dso_local void @_ZN5eastl8multisetIfNS_4lessIfEENS_9allocatorEEC2ESt16initializer_listIfERKS2_RKS3_(ptr noundef nonnull align 8 dereferenceable(41) %this, ptr %ilist.coerce0, i64 %ilist.coerce1, ptr noundef nonnull align 1 dereferenceable(1) %compare, ptr noundef nonnull align 1 dereferenceable(1) %allocator) unnamed_addr #0 comdat($_ZN5eastl8multisetIfNS_4lessIfEENS_9allocatorEEC5ESt16initializer_listIfERKS2_RKS3_) align 2 {
entry:
  %add.ptr.i = getelementptr inbounds float, ptr %ilist.coerce0, i64 %ilist.coerce1
  %mnSize.i = getelementptr inbounds i8, ptr %this, i64 32
  %0 = getelementptr inbounds i8, ptr %this, i64 24
  store i64 0, ptr %0, align 8
  store ptr %this, ptr %this, align 8
  %mpNodeLeft.i.i = getelementptr inbounds i8, ptr %this, i64 8
  store ptr %this, ptr %mpNodeLeft.i.i, align 8
  %mpNodeParent.i.i = getelementptr inbounds i8, ptr %this, i64 16
  store ptr null, ptr %mpNodeParent.i.i, align 8
  store i64 0, ptr %mnSize.i, align 8
  %cmp.not3.i = icmp eq i64 %ilist.coerce1, 0
  br i1 %cmp.not3.i, label %_ZN5eastl6rbtreeIffNS_4lessIfEENS_9allocatorENS_8use_selfIfEELb0ELb0EEC2IPKfEET_SA_RKS2_RKS3_.exit, label %for.body.i

for.body.i:                                       ; preds = %entry, %_ZN5eastl6rbtreeIffNS_4lessIfEENS_9allocatorENS_8use_selfIfEELb0ELb0EE6insertERKf.exit.i
  %first.addr.04.i = phi ptr [ %incdec.ptr.i, %_ZN5eastl6rbtreeIffNS_4lessIfEENS_9allocatorENS_8use_selfIfEELb0ELb0EE6insertERKf.exit.i ], [ %ilist.coerce0, %entry ]
  %call.i.i.i.i.i.i.i = tail call noundef ptr @_ZnamPKcijS0_i(i64 noundef 40, ptr noundef null, i32 noundef 0, i32 noundef 0, ptr noundef null, i32 noundef 0)
  %mValue.i.i.i.i = getelementptr inbounds i8, ptr %call.i.i.i.i.i.i.i, i64 32
  %1 = load float, ptr %first.addr.04.i, align 4
  store float %1, ptr %mValue.i.i.i.i, align 4
  %pCurrent.05.i.i.i.i = load ptr, ptr %mpNodeParent.i.i, align 8
  %tobool.not6.i.i.i.i = icmp eq ptr %pCurrent.05.i.i.i.i, null
  br i1 %tobool.not6.i.i.i.i, label %_ZN5eastl6rbtreeIffNS_4lessIfEENS_9allocatorENS_8use_selfIfEELb0ELb0EE6insertERKf.exit.i, label %while.body.i.i.i.i

while.body.i.i.i.i:                               ; preds = %for.body.i, %while.body.i.i.i.i
  %pCurrent.07.i.i.i.i = phi ptr [ %pCurrent.0.i.i.i.i, %while.body.i.i.i.i ], [ %pCurrent.05.i.i.i.i, %for.body.i ]
  %mValue.i3.i.i.i = getelementptr inbounds i8, ptr %pCurrent.07.i.i.i.i, i64 32
  %2 = load float, ptr %mValue.i3.i.i.i, align 4
  %cmp.i.i.i.i.i.i = fcmp olt float %1, %2
  %pCurrent.1.in.idx.i.i.i.i = select i1 %cmp.i.i.i.i.i.i, i64 8, i64 0
  %pCurrent.1.in.i.i.i.i = getelementptr inbounds i8, ptr %pCurrent.07.i.i.i.i, i64 %pCurrent.1.in.idx.i.i.i.i
  %pCurrent.0.i.i.i.i = load ptr, ptr %pCurrent.1.in.i.i.i.i, align 8
  %tobool.not.i.i.i.i = icmp eq ptr %pCurrent.0.i.i.i.i, null
  br i1 %tobool.not.i.i.i.i, label %_ZN5eastl6rbtreeIffNS_4lessIfEENS_9allocatorENS_8use_selfIfEELb0ELb0EE38DoGetKeyInsertionPositionNonuniqueKeysERKf.exit.i.i.i, label %while.body.i.i.i.i, !llvm.loop !13

_ZN5eastl6rbtreeIffNS_4lessIfEENS_9allocatorENS_8use_selfIfEELb0ELb0EE38DoGetKeyInsertionPositionNonuniqueKeysERKf.exit.i.i.i: ; preds = %while.body.i.i.i.i
  %cmp.i.i.i.i = icmp eq ptr %pCurrent.07.i.i.i.i, %this
  br i1 %cmp.i.i.i.i, label %_ZN5eastl6rbtreeIffNS_4lessIfEENS_9allocatorENS_8use_selfIfEELb0ELb0EE6insertERKf.exit.i, label %lor.lhs.false2.i.i.i.i

lor.lhs.false2.i.i.i.i:                           ; preds = %_ZN5eastl6rbtreeIffNS_4lessIfEENS_9allocatorENS_8use_selfIfEELb0ELb0EE38DoGetKeyInsertionPositionNonuniqueKeysERKf.exit.i.i.i
  %cmp.i.i.i5.i.i.i = fcmp uge float %1, %2
  %spec.select.i.i.i.i = zext i1 %cmp.i.i.i5.i.i.i to i32
  br label %_ZN5eastl6rbtreeIffNS_4lessIfEENS_9allocatorENS_8use_selfIfEELb0ELb0EE6insertERKf.exit.i

_ZN5eastl6rbtreeIffNS_4lessIfEENS_9allocatorENS_8use_selfIfEELb0ELb0EE6insertERKf.exit.i: ; preds = %lor.lhs.false2.i.i.i.i, %_ZN5eastl6rbtreeIffNS_4lessIfEENS_9allocatorENS_8use_selfIfEELb0ELb0EE38DoGetKeyInsertionPositionNonuniqueKeysERKf.exit.i.i.i, %for.body.i
  %pRangeEnd.0.lcssa.i8.i.i.i = phi ptr [ %this, %_ZN5eastl6rbtreeIffNS_4lessIfEENS_9allocatorENS_8use_selfIfEELb0ELb0EE38DoGetKeyInsertionPositionNonuniqueKeysERKf.exit.i.i.i ], [ %pCurrent.07.i.i.i.i, %lor.lhs.false2.i.i.i.i ], [ %this, %for.body.i ]
  %side.0.i.i.i.i = phi i32 [ 0, %_ZN5eastl6rbtreeIffNS_4lessIfEENS_9allocatorENS_8use_selfIfEELb0ELb0EE38DoGetKeyInsertionPositionNonuniqueKeysERKf.exit.i.i.i ], [ %spec.select.i.i.i.i, %lor.lhs.false2.i.i.i.i ], [ 0, %for.body.i ]
  tail call void @_ZN5eastl12RBTreeInsertEPNS_16rbtree_node_baseES1_S1_NS_10RBTreeSideE(ptr noundef %call.i.i.i.i.i.i.i, ptr noundef nonnull %pRangeEnd.0.lcssa.i8.i.i.i, ptr noundef nonnull %this, i32 noundef %side.0.i.i.i.i)
  %3 = load i64, ptr %mnSize.i, align 8
  %inc.i.i.i.i = add i64 %3, 1
  store i64 %inc.i.i.i.i, ptr %mnSize.i, align 8
  %incdec.ptr.i = getelementptr inbounds i8, ptr %first.addr.04.i, i64 4
  %cmp.not.i = icmp eq ptr %incdec.ptr.i, %add.ptr.i
  br i1 %cmp.not.i, label %_ZN5eastl6rbtreeIffNS_4lessIfEENS_9allocatorENS_8use_selfIfEELb0ELb0EEC2IPKfEET_SA_RKS2_RKS3_.exit, label %for.body.i, !llvm.loop !14

_ZN5eastl6rbtreeIffNS_4lessIfEENS_9allocatorENS_8use_selfIfEELb0ELb0EEC2IPKfEET_SA_RKS2_RKS3_.exit: ; preds = %_ZN5eastl6rbtreeIffNS_4lessIfEENS_9allocatorENS_8use_selfIfEELb0ELb0EE6insertERKf.exit.i, %entry
  ret void
}

; Function Attrs: mustprogress uwtable
define weak_odr dso_local noundef nonnull align 8 dereferenceable(41) ptr @_ZN5eastl8multisetIfNS_4lessIfEENS_9allocatorEEaSERKS4_(ptr noundef nonnull align 8 dereferenceable(41) %this, ptr noundef nonnull align 8 dereferenceable(41) %x) local_unnamed_addr #0 comdat align 2 {
entry:
  %cmp.not.i = icmp eq ptr %this, %x
  br i1 %cmp.not.i, label %_ZN5eastl6rbtreeIffNS_4lessIfEENS_9allocatorENS_8use_selfIfEELb0ELb0EEaSERKS6_.exit, label %if.then.i

if.then.i:                                        ; preds = %entry
  %mpNodeParent.i.i = getelementptr inbounds i8, ptr %this, i64 16
  %0 = load ptr, ptr %mpNodeParent.i.i, align 8
  tail call void @_ZN5eastl6rbtreeIffNS_4lessIfEENS_9allocatorENS_8use_selfIfEELb0ELb0EE13DoNukeSubtreeEPNS_16rbtree_node_baseE(ptr noundef nonnull align 8 dereferenceable(41) %this, ptr noundef %0)
  store ptr %this, ptr %this, align 8
  %mpNodeLeft.i.i.i = getelementptr inbounds i8, ptr %this, i64 8
  store ptr %this, ptr %mpNodeLeft.i.i.i, align 8
  store ptr null, ptr %mpNodeParent.i.i, align 8
  %mColor.i.i.i = getelementptr inbounds i8, ptr %this, i64 24
  store i8 0, ptr %mColor.i.i.i, align 8
  %mnSize.i.i.i = getelementptr inbounds i8, ptr %this, i64 32
  store i64 0, ptr %mnSize.i.i.i, align 8
  %mpNodeParent.i = getelementptr inbounds i8, ptr %x, i64 16
  %1 = load ptr, ptr %mpNodeParent.i, align 8
  %tobool.not.i = icmp eq ptr %1, null
  br i1 %tobool.not.i, label %_ZN5eastl6rbtreeIffNS_4lessIfEENS_9allocatorENS_8use_selfIfEELb0ELb0EEaSERKS6_.exit, label %if.then3.i

if.then3.i:                                       ; preds = %if.then.i
  %call7.i = tail call noundef ptr @_ZN5eastl6rbtreeIffNS_4lessIfEENS_9allocatorENS_8use_selfIfEELb0ELb0EE13DoCopySubtreeEPKNS_11rbtree_nodeIfEEPNS_16rbtree_node_baseE(ptr noundef nonnull align 8 dereferenceable(41) %this, ptr noundef nonnull %1, ptr noundef nonnull %this)
  store ptr %call7.i, ptr %mpNodeParent.i.i, align 8
  br label %while.cond.i.i

while.cond.i.i:                                   ; preds = %while.cond.i.i, %if.then3.i
  %pNodeBase.addr.0.i.i = phi ptr [ %call7.i, %if.then3.i ], [ %2, %while.cond.i.i ]
  %2 = load ptr, ptr %pNodeBase.addr.0.i.i, align 8
  %tobool.not.i.i = icmp eq ptr %2, null
  br i1 %tobool.not.i.i, label %_ZN5eastl17RBTreeGetMaxChildEPKNS_16rbtree_node_baseE.exit.i, label %while.cond.i.i, !llvm.loop !5

_ZN5eastl17RBTreeGetMaxChildEPKNS_16rbtree_node_baseE.exit.i: ; preds = %while.cond.i.i
  store ptr %pNodeBase.addr.0.i.i, ptr %this, align 8
  br label %while.cond.i5.i

while.cond.i5.i:                                  ; preds = %while.cond.i5.i, %_ZN5eastl17RBTreeGetMaxChildEPKNS_16rbtree_node_baseE.exit.i
  %pNodeBase.addr.0.i6.i = phi ptr [ %call7.i, %_ZN5eastl17RBTreeGetMaxChildEPKNS_16rbtree_node_baseE.exit.i ], [ %3, %while.cond.i5.i ]
  %mpNodeLeft.i.i = getelementptr inbounds i8, ptr %pNodeBase.addr.0.i6.i, i64 8
  %3 = load ptr, ptr %mpNodeLeft.i.i, align 8
  %tobool.not.i7.i = icmp eq ptr %3, null
  br i1 %tobool.not.i7.i, label %_ZN5eastl17RBTreeGetMinChildEPKNS_16rbtree_node_baseE.exit.i, label %while.cond.i5.i, !llvm.loop !7

_ZN5eastl17RBTreeGetMinChildEPKNS_16rbtree_node_baseE.exit.i: ; preds = %while.cond.i5.i
  store ptr %pNodeBase.addr.0.i6.i, ptr %mpNodeLeft.i.i.i, align 8
  %mnSize.i = getelementptr inbounds i8, ptr %x, i64 32
  %4 = load i64, ptr %mnSize.i, align 8
  store i64 %4, ptr %mnSize.i.i.i, align 8
  br label %_ZN5eastl6rbtreeIffNS_4lessIfEENS_9allocatorENS_8use_selfIfEELb0ELb0EEaSERKS6_.exit

_ZN5eastl6rbtreeIffNS_4lessIfEENS_9allocatorENS_8use_selfIfEELb0ELb0EEaSERKS6_.exit: ; preds = %entry, %if.then.i, %_ZN5eastl17RBTreeGetMinChildEPKNS_16rbtree_node_baseE.exit.i
  ret ptr %this
}

; Function Attrs: mustprogress uwtable
define weak_odr dso_local noundef nonnull align 8 dereferenceable(41) ptr @_ZN5eastl8multisetIfNS_4lessIfEENS_9allocatorEEaSESt16initializer_listIfE(ptr noundef nonnull align 8 dereferenceable(41) %this, ptr %ilist.coerce0, i64 %ilist.coerce1) local_unnamed_addr #0 comdat align 2 {
entry:
  %mpNodeParent.i.i = getelementptr inbounds i8, ptr %this, i64 16
  %0 = load ptr, ptr %mpNodeParent.i.i, align 8
  tail call void @_ZN5eastl6rbtreeIffNS_4lessIfEENS_9allocatorENS_8use_selfIfEELb0ELb0EE13DoNukeSubtreeEPNS_16rbtree_node_baseE(ptr noundef nonnull align 8 dereferenceable(41) %this, ptr noundef %0)
  store ptr %this, ptr %this, align 8
  %mpNodeLeft.i.i.i = getelementptr inbounds i8, ptr %this, i64 8
  store ptr %this, ptr %mpNodeLeft.i.i.i, align 8
  store ptr null, ptr %mpNodeParent.i.i, align 8
  %mColor.i.i.i = getelementptr inbounds i8, ptr %this, i64 24
  store i8 0, ptr %mColor.i.i.i, align 8
  %mnSize.i.i.i = getelementptr inbounds i8, ptr %this, i64 32
  store i64 0, ptr %mnSize.i.i.i, align 8
  %add.ptr.i.i = getelementptr inbounds float, ptr %ilist.coerce0, i64 %ilist.coerce1
  %cmp.not5.i = icmp eq i64 %ilist.coerce1, 0
  br i1 %cmp.not5.i, label %_ZN5eastl6rbtreeIffNS_4lessIfEENS_9allocatorENS_8use_selfIfEELb0ELb0EEaSESt16initializer_listIfE.exit, label %for.body.i

for.body.i:                                       ; preds = %entry, %_ZN5eastl6rbtreeIffNS_4lessIfEENS_9allocatorENS_8use_selfIfEELb0ELb0EE13DoInsertValueIJKfEEENS_15rbtree_iteratorIfPS8_RS8_EENS_17integral_constantIbLb0EEEDpOT_.exit.i
  %it.06.i = phi ptr [ %incdec.ptr.i, %_ZN5eastl6rbtreeIffNS_4lessIfEENS_9allocatorENS_8use_selfIfEELb0ELb0EE13DoInsertValueIJKfEEENS_15rbtree_iteratorIfPS8_RS8_EENS_17integral_constantIbLb0EEEDpOT_.exit.i ], [ %ilist.coerce0, %entry ]
  %call.i.i.i.i.i.i = tail call noundef ptr @_ZnamPKcijS0_i(i64 noundef 40, ptr noundef null, i32 noundef 0, i32 noundef 0, ptr noundef null, i32 noundef 0)
  %mValue.i.i.i = getelementptr inbounds i8, ptr %call.i.i.i.i.i.i, i64 32
  %1 = load float, ptr %it.06.i, align 4
  store float %1, ptr %mValue.i.i.i, align 4
  %pCurrent.05.i.i.i = load ptr, ptr %mpNodeParent.i.i, align 8
  %tobool.not6.i.i.i = icmp eq ptr %pCurrent.05.i.i.i, null
  br i1 %tobool.not6.i.i.i, label %_ZN5eastl6rbtreeIffNS_4lessIfEENS_9allocatorENS_8use_selfIfEELb0ELb0EE13DoInsertValueIJKfEEENS_15rbtree_iteratorIfPS8_RS8_EENS_17integral_constantIbLb0EEEDpOT_.exit.i, label %while.body.i.i.i

while.body.i.i.i:                                 ; preds = %for.body.i, %while.body.i.i.i
  %pCurrent.07.i.i.i = phi ptr [ %pCurrent.0.i.i.i, %while.body.i.i.i ], [ %pCurrent.05.i.i.i, %for.body.i ]
  %mValue.i3.i.i = getelementptr inbounds i8, ptr %pCurrent.07.i.i.i, i64 32
  %2 = load float, ptr %mValue.i3.i.i, align 4
  %cmp.i.i.i.i.i = fcmp olt float %1, %2
  %pCurrent.1.in.idx.i.i.i = select i1 %cmp.i.i.i.i.i, i64 8, i64 0
  %pCurrent.1.in.i.i.i = getelementptr inbounds i8, ptr %pCurrent.07.i.i.i, i64 %pCurrent.1.in.idx.i.i.i
  %pCurrent.0.i.i.i = load ptr, ptr %pCurrent.1.in.i.i.i, align 8
  %tobool.not.i.i.i = icmp eq ptr %pCurrent.0.i.i.i, null
  br i1 %tobool.not.i.i.i, label %_ZN5eastl6rbtreeIffNS_4lessIfEENS_9allocatorENS_8use_selfIfEELb0ELb0EE38DoGetKeyInsertionPositionNonuniqueKeysERKf.exit.i.i, label %while.body.i.i.i, !llvm.loop !13

_ZN5eastl6rbtreeIffNS_4lessIfEENS_9allocatorENS_8use_selfIfEELb0ELb0EE38DoGetKeyInsertionPositionNonuniqueKeysERKf.exit.i.i: ; preds = %while.body.i.i.i
  %cmp.i.i.i = icmp eq ptr %pCurrent.07.i.i.i, %this
  br i1 %cmp.i.i.i, label %_ZN5eastl6rbtreeIffNS_4lessIfEENS_9allocatorENS_8use_selfIfEELb0ELb0EE13DoInsertValueIJKfEEENS_15rbtree_iteratorIfPS8_RS8_EENS_17integral_constantIbLb0EEEDpOT_.exit.i, label %lor.lhs.false2.i.i.i

lor.lhs.false2.i.i.i:                             ; preds = %_ZN5eastl6rbtreeIffNS_4lessIfEENS_9allocatorENS_8use_selfIfEELb0ELb0EE38DoGetKeyInsertionPositionNonuniqueKeysERKf.exit.i.i
  %cmp.i.i.i5.i.i = fcmp uge float %1, %2
  %spec.select.i.i.i = zext i1 %cmp.i.i.i5.i.i to i32
  br label %_ZN5eastl6rbtreeIffNS_4lessIfEENS_9allocatorENS_8use_selfIfEELb0ELb0EE13DoInsertValueIJKfEEENS_15rbtree_iteratorIfPS8_RS8_EENS_17integral_constantIbLb0EEEDpOT_.exit.i

_ZN5eastl6rbtreeIffNS_4lessIfEENS_9allocatorENS_8use_selfIfEELb0ELb0EE13DoInsertValueIJKfEEENS_15rbtree_iteratorIfPS8_RS8_EENS_17integral_constantIbLb0EEEDpOT_.exit.i: ; preds = %lor.lhs.false2.i.i.i, %_ZN5eastl6rbtreeIffNS_4lessIfEENS_9allocatorENS_8use_selfIfEELb0ELb0EE38DoGetKeyInsertionPositionNonuniqueKeysERKf.exit.i.i, %for.body.i
  %pRangeEnd.0.lcssa.i8.i.i = phi ptr [ %this, %_ZN5eastl6rbtreeIffNS_4lessIfEENS_9allocatorENS_8use_selfIfEELb0ELb0EE38DoGetKeyInsertionPositionNonuniqueKeysERKf.exit.i.i ], [ %pCurrent.07.i.i.i, %lor.lhs.false2.i.i.i ], [ %this, %for.body.i ]
  %side.0.i.i.i = phi i32 [ 0, %_ZN5eastl6rbtreeIffNS_4lessIfEENS_9allocatorENS_8use_selfIfEELb0ELb0EE38DoGetKeyInsertionPositionNonuniqueKeysERKf.exit.i.i ], [ %spec.select.i.i.i, %lor.lhs.false2.i.i.i ], [ 0, %for.body.i ]
  tail call void @_ZN5eastl12RBTreeInsertEPNS_16rbtree_node_baseES1_S1_NS_10RBTreeSideE(ptr noundef %call.i.i.i.i.i.i, ptr noundef nonnull %pRangeEnd.0.lcssa.i8.i.i, ptr noundef nonnull %this, i32 noundef %side.0.i.i.i)
  %3 = load i64, ptr %mnSize.i.i.i, align 8
  %inc.i.i.i = add i64 %3, 1
  store i64 %inc.i.i.i, ptr %mnSize.i.i.i, align 8
  %incdec.ptr.i = getelementptr inbounds i8, ptr %it.06.i, i64 4
  %cmp.not.i = icmp eq ptr %incdec.ptr.i, %add.ptr.i.i
  br i1 %cmp.not.i, label %_ZN5eastl6rbtreeIffNS_4lessIfEENS_9allocatorENS_8use_selfIfEELb0ELb0EEaSESt16initializer_listIfE.exit, label %for.body.i, !llvm.loop !15

_ZN5eastl6rbtreeIffNS_4lessIfEENS_9allocatorENS_8use_selfIfEELb0ELb0EEaSESt16initializer_listIfE.exit: ; preds = %_ZN5eastl6rbtreeIffNS_4lessIfEENS_9allocatorENS_8use_selfIfEELb0ELb0EE13DoInsertValueIJKfEEENS_15rbtree_iteratorIfPS8_RS8_EENS_17integral_constantIbLb0EEEDpOT_.exit.i, %entry
  ret ptr %this
}

; Function Attrs: mustprogress uwtable
define weak_odr dso_local noundef nonnull align 8 dereferenceable(41) ptr @_ZN5eastl8multisetIfNS_4lessIfEENS_9allocatorEEaSEOS4_(ptr noundef nonnull align 8 dereferenceable(41) %this, ptr noundef nonnull align 8 dereferenceable(41) %x) local_unnamed_addr #0 comdat align 2 {
entry:
  %call2 = tail call noundef nonnull align 8 dereferenceable(41) ptr @_ZN5eastl6rbtreeIffNS_4lessIfEENS_9allocatorENS_8use_selfIfEELb0ELb0EEaSEOS6_(ptr noundef nonnull align 8 dereferenceable(41) %this, ptr noundef nonnull align 8 dereferenceable(41) %x)
  ret ptr %call2
}

; Function Attrs: mustprogress uwtable
define linkonce_odr dso_local noundef nonnull align 8 dereferenceable(41) ptr @_ZN5eastl6rbtreeIffNS_4lessIfEENS_9allocatorENS_8use_selfIfEELb0ELb0EEaSEOS6_(ptr noundef nonnull align 8 dereferenceable(41) %this, ptr noundef nonnull align 8 dereferenceable(41) %x) local_unnamed_addr #0 comdat align 2 {
entry:
  %cmp.not = icmp eq ptr %this, %x
  br i1 %cmp.not, label %if.end, label %if.then

if.then:                                          ; preds = %entry
  %mpNodeParent.i = getelementptr inbounds i8, ptr %this, i64 16
  %0 = load ptr, ptr %mpNodeParent.i, align 8
  tail call void @_ZN5eastl6rbtreeIffNS_4lessIfEENS_9allocatorENS_8use_selfIfEELb0ELb0EE13DoNukeSubtreeEPNS_16rbtree_node_baseE(ptr noundef nonnull align 8 dereferenceable(41) %this, ptr noundef %0)
  store ptr %this, ptr %this, align 8
  %mpNodeLeft.i.i = getelementptr inbounds i8, ptr %this, i64 8
  store ptr %this, ptr %mpNodeLeft.i.i, align 8
  store ptr null, ptr %mpNodeParent.i, align 8
  %mColor.i.i = getelementptr inbounds i8, ptr %this, i64 24
  store i8 0, ptr %mColor.i.i, align 8
  %mnSize.i.i = getelementptr inbounds i8, ptr %this, i64 32
  store i64 0, ptr %mnSize.i.i, align 8
  %mnSize2.i = getelementptr inbounds i8, ptr %x, i64 32
  %1 = load i64, ptr %mnSize2.i, align 8
  store i64 %1, ptr %mnSize.i.i, align 8
  store i64 0, ptr %mnSize2.i, align 8
  %2 = load ptr, ptr %mpNodeParent.i, align 8
  %tobool.not.i = icmp eq ptr %2, null
  %mpNodeParent56.i = getelementptr inbounds i8, ptr %x, i64 16
  %3 = load ptr, ptr %mpNodeParent56.i, align 8
  %tobool57.not.i = icmp eq ptr %3, null
  br i1 %tobool.not.i, label %if.else54.i, label %land.lhs.true.i

land.lhs.true.i:                                  ; preds = %if.then
  %4 = load ptr, ptr %this, align 8
  br i1 %tobool57.not.i, label %if.then29.i, label %if.then.i

if.then.i:                                        ; preds = %land.lhs.true.i
  %5 = load ptr, ptr %x, align 8
  store ptr %5, ptr %this, align 8
  store ptr %4, ptr %x, align 8
  %mpNodeLeft13.i = getelementptr inbounds i8, ptr %x, i64 8
  %6 = load ptr, ptr %mpNodeLeft.i.i, align 8
  %7 = load ptr, ptr %mpNodeLeft13.i, align 8
  store ptr %7, ptr %mpNodeLeft.i.i, align 8
  store ptr %6, ptr %mpNodeLeft13.i, align 8
  %8 = load ptr, ptr %mpNodeParent.i, align 8
  %9 = load ptr, ptr %mpNodeParent56.i, align 8
  store ptr %9, ptr %mpNodeParent.i, align 8
  store ptr %8, ptr %mpNodeParent56.i, align 8
  %10 = load ptr, ptr %mpNodeParent.i, align 8
  %mpNodeParent21.i = getelementptr inbounds i8, ptr %10, i64 16
  store ptr %this, ptr %mpNodeParent21.i, align 8
  %11 = load ptr, ptr %mpNodeParent56.i, align 8
  %mpNodeParent25.i = getelementptr inbounds i8, ptr %11, i64 16
  store ptr %x, ptr %mpNodeParent25.i, align 8
  br label %if.end

if.then29.i:                                      ; preds = %land.lhs.true.i
  store ptr %4, ptr %x, align 8
  %12 = load ptr, ptr %mpNodeLeft.i.i, align 8
  %mpNodeLeft37.i = getelementptr inbounds i8, ptr %x, i64 8
  store ptr %12, ptr %mpNodeLeft37.i, align 8
  %13 = load ptr, ptr %mpNodeParent.i, align 8
  store ptr %13, ptr %mpNodeParent56.i, align 8
  %mpNodeParent45.i = getelementptr inbounds i8, ptr %13, i64 16
  store ptr %x, ptr %mpNodeParent45.i, align 8
  store ptr %this, ptr %this, align 8
  store ptr %this, ptr %mpNodeLeft.i.i, align 8
  store ptr null, ptr %mpNodeParent.i, align 8
  br label %if.end

if.else54.i:                                      ; preds = %if.then
  br i1 %tobool57.not.i, label %if.end, label %if.then58.i

if.then58.i:                                      ; preds = %if.else54.i
  %14 = load ptr, ptr %x, align 8
  store ptr %14, ptr %this, align 8
  %mpNodeLeft64.i = getelementptr inbounds i8, ptr %x, i64 8
  %15 = load ptr, ptr %mpNodeLeft64.i, align 8
  store ptr %15, ptr %mpNodeLeft.i.i, align 8
  %16 = load ptr, ptr %mpNodeParent56.i, align 8
  store ptr %16, ptr %mpNodeParent.i, align 8
  %mpNodeParent74.i = getelementptr inbounds i8, ptr %16, i64 16
  store ptr %this, ptr %mpNodeParent74.i, align 8
  store ptr %x, ptr %x, align 8
  store ptr %x, ptr %mpNodeLeft64.i, align 8
  store ptr null, ptr %mpNodeParent56.i, align 8
  br label %if.end

if.end:                                           ; preds = %if.then58.i, %if.else54.i, %if.then29.i, %if.then.i, %entry
  ret ptr %this
}

; Function Attrs: mustprogress uwtable
define weak_odr dso_local void @_ZNK5eastl8multisetIfNS_4lessIfEENS_9allocatorEE10value_compEv(ptr noundef nonnull align 8 dereferenceable(41) %this) local_unnamed_addr #0 comdat align 2 {
entry:
  ret void
}

; Function Attrs: mustprogress uwtable
define weak_odr dso_local noundef i64 @_ZN5eastl8multisetIfNS_4lessIfEENS_9allocatorEE5eraseERKf(ptr noundef nonnull align 8 dereferenceable(41) %this, ptr noundef nonnull align 4 dereferenceable(4) %k) local_unnamed_addr #0 comdat align 2 {
entry:
  %mpNodeParent.i.i = getelementptr inbounds i8, ptr %this, i64 16
  %pCurrent.05.i.i = load ptr, ptr %mpNodeParent.i.i, align 8
  %tobool.not6.i.i = icmp eq ptr %pCurrent.05.i.i, null
  br i1 %tobool.not6.i.i, label %_ZN5eastl8distanceINS_15rbtree_iteratorIfPKfRS2_EEEENS_15iterator_traitsIT_E15difference_typeES7_S7_.exit.thread, label %while.body.lr.ph.i.i

while.body.lr.ph.i.i:                             ; preds = %entry
  %0 = load float, ptr %k, align 4
  br label %while.body.i.i

while.body.i.i:                                   ; preds = %while.body.i.i, %while.body.lr.ph.i.i
  %pCurrent.08.i.i = phi ptr [ %pCurrent.05.i.i, %while.body.lr.ph.i.i ], [ %pCurrent.0.i.i, %while.body.i.i ]
  %pRangeEnd.07.i.i = phi ptr [ %this, %while.body.lr.ph.i.i ], [ %pRangeEnd.1.i.i, %while.body.i.i ]
  %mValue.i.i = getelementptr inbounds i8, ptr %pCurrent.08.i.i, i64 32
  %1 = load float, ptr %mValue.i.i, align 4
  %cmp.i.i.i.i = fcmp olt float %1, %0
  %pCurrent.1.in.idx.i.i = select i1 %cmp.i.i.i.i, i64 0, i64 8
  %pCurrent.1.in.i.i = getelementptr inbounds i8, ptr %pCurrent.08.i.i, i64 %pCurrent.1.in.idx.i.i
  %pRangeEnd.1.i.i = select i1 %cmp.i.i.i.i, ptr %pRangeEnd.07.i.i, ptr %pCurrent.08.i.i
  %pCurrent.0.i.i = load ptr, ptr %pCurrent.1.in.i.i, align 8
  %tobool.not.i.i = icmp eq ptr %pCurrent.0.i.i, null
  br i1 %tobool.not.i.i, label %while.body.i6.i, label %while.body.i.i, !llvm.loop !16

while.body.i6.i:                                  ; preds = %while.body.i.i, %while.body.i6.i
  %pCurrent.08.i7.i = phi ptr [ %pCurrent.0.i14.i, %while.body.i6.i ], [ %pCurrent.05.i.i, %while.body.i.i ]
  %pRangeEnd.07.i8.i = phi ptr [ %pRangeEnd.1.i13.i, %while.body.i6.i ], [ %this, %while.body.i.i ]
  %mValue.i9.i = getelementptr inbounds i8, ptr %pCurrent.08.i7.i, i64 32
  %2 = load float, ptr %mValue.i9.i, align 4
  %cmp.i.i.i10.i = fcmp olt float %0, %2
  %pCurrent.1.in.idx.i11.i = select i1 %cmp.i.i.i10.i, i64 8, i64 0
  %pCurrent.1.in.i12.i = getelementptr inbounds i8, ptr %pCurrent.08.i7.i, i64 %pCurrent.1.in.idx.i11.i
  %pRangeEnd.1.i13.i = select i1 %cmp.i.i.i10.i, ptr %pCurrent.08.i7.i, ptr %pRangeEnd.07.i8.i
  %pCurrent.0.i14.i = load ptr, ptr %pCurrent.1.in.i12.i, align 8
  %tobool.not.i15.i = icmp eq ptr %pCurrent.0.i14.i, null
  br i1 %tobool.not.i15.i, label %_ZN5eastl8multisetIfNS_4lessIfEENS_9allocatorEE11equal_rangeERKf.exit, label %while.body.i6.i, !llvm.loop !17

_ZN5eastl8multisetIfNS_4lessIfEENS_9allocatorEE11equal_rangeERKf.exit: ; preds = %while.body.i6.i
  %cmp.i.not3.i.i = icmp eq ptr %pRangeEnd.1.i.i, %pRangeEnd.1.i13.i
  br i1 %cmp.i.not3.i.i, label %_ZN5eastl8distanceINS_15rbtree_iteratorIfPKfRS2_EEEENS_15iterator_traitsIT_E15difference_typeES7_S7_.exit.thread30, label %while.body.i.i1

while.body.i.i1:                                  ; preds = %_ZN5eastl8multisetIfNS_4lessIfEENS_9allocatorEE11equal_rangeERKf.exit, %while.body.i.i1
  %n.05.i.i = phi i64 [ %inc.i.i, %while.body.i.i1 ], [ 0, %_ZN5eastl8multisetIfNS_4lessIfEENS_9allocatorEE11equal_rangeERKf.exit ]
  %first.sroa.0.04.i.i = phi ptr [ %call.i.i.i, %while.body.i.i1 ], [ %pRangeEnd.1.i.i, %_ZN5eastl8multisetIfNS_4lessIfEENS_9allocatorEE11equal_rangeERKf.exit ]
  %call.i.i.i = tail call noundef ptr @_ZN5eastl15RBTreeIncrementEPKNS_16rbtree_node_baseE(ptr noundef %first.sroa.0.04.i.i)
  %inc.i.i = add nuw nsw i64 %n.05.i.i, 1
  %cmp.i.not.i.i = icmp eq ptr %call.i.i.i, %pRangeEnd.1.i13.i
  br i1 %cmp.i.not.i.i, label %_ZN5eastl8distanceINS_15rbtree_iteratorIfPKfRS2_EEEENS_15iterator_traitsIT_E15difference_typeES7_S7_.exit, label %while.body.i.i1, !llvm.loop !18

_ZN5eastl8distanceINS_15rbtree_iteratorIfPKfRS2_EEEENS_15iterator_traitsIT_E15difference_typeES7_S7_.exit: ; preds = %while.body.i.i1
  %mpNodeLeft.i = getelementptr inbounds i8, ptr %this, i64 8
  %3 = load ptr, ptr %mpNodeLeft.i, align 8
  %cmp.i = icmp ne ptr %3, %pRangeEnd.1.i.i
  %cmp5.i = icmp ne ptr %pRangeEnd.1.i13.i, %this
  %4 = select i1 %cmp.i, i1 true, i1 %cmp5.i
  br i1 %4, label %while.cond.preheader.i, label %_ZN5eastl8distanceINS_15rbtree_iteratorIfPKfRS2_EEEENS_15iterator_traitsIT_E15difference_typeES7_S7_.exit.if.end.i_crit_edge

_ZN5eastl8distanceINS_15rbtree_iteratorIfPKfRS2_EEEENS_15iterator_traitsIT_E15difference_typeES7_S7_.exit.thread30: ; preds = %_ZN5eastl8multisetIfNS_4lessIfEENS_9allocatorEE11equal_rangeERKf.exit
  %mpNodeLeft.i32 = getelementptr inbounds i8, ptr %this, i64 8
  %5 = load ptr, ptr %mpNodeLeft.i32, align 8
  %cmp.i33 = icmp ne ptr %5, %pRangeEnd.1.i.i
  %cmp5.i34 = icmp ne ptr %pRangeEnd.1.i13.i, %this
  %6 = select i1 %cmp.i33, i1 true, i1 %cmp5.i34
  br i1 %6, label %_ZN5eastl6rbtreeIffNS_4lessIfEENS_9allocatorENS_8use_selfIfEELb0ELb0EE5eraseENS_15rbtree_iteratorIfPKfRS8_EESB_.exit, label %_ZN5eastl8distanceINS_15rbtree_iteratorIfPKfRS2_EEEENS_15iterator_traitsIT_E15difference_typeES7_S7_.exit.if.end.i_crit_edge

_ZN5eastl8distanceINS_15rbtree_iteratorIfPKfRS2_EEEENS_15iterator_traitsIT_E15difference_typeES7_S7_.exit.if.end.i_crit_edge: ; preds = %_ZN5eastl8distanceINS_15rbtree_iteratorIfPKfRS2_EEEENS_15iterator_traitsIT_E15difference_typeES7_S7_.exit.thread30, %_ZN5eastl8distanceINS_15rbtree_iteratorIfPKfRS2_EEEENS_15iterator_traitsIT_E15difference_typeES7_S7_.exit
  %mpNodeLeft.i37 = phi ptr [ %mpNodeLeft.i32, %_ZN5eastl8distanceINS_15rbtree_iteratorIfPKfRS2_EEEENS_15iterator_traitsIT_E15difference_typeES7_S7_.exit.thread30 ], [ %mpNodeLeft.i, %_ZN5eastl8distanceINS_15rbtree_iteratorIfPKfRS2_EEEENS_15iterator_traitsIT_E15difference_typeES7_S7_.exit ]
  %n.0.lcssa.i.i35 = phi i64 [ 0, %_ZN5eastl8distanceINS_15rbtree_iteratorIfPKfRS2_EEEENS_15iterator_traitsIT_E15difference_typeES7_S7_.exit.thread30 ], [ %inc.i.i, %_ZN5eastl8distanceINS_15rbtree_iteratorIfPKfRS2_EEEENS_15iterator_traitsIT_E15difference_typeES7_S7_.exit ]
  %.pre = load ptr, ptr %mpNodeParent.i.i, align 8
  br label %if.end.i

_ZN5eastl8distanceINS_15rbtree_iteratorIfPKfRS2_EEEENS_15iterator_traitsIT_E15difference_typeES7_S7_.exit.thread: ; preds = %entry
  %mpNodeLeft.i16 = getelementptr inbounds i8, ptr %this, i64 8
  %7 = load ptr, ptr %mpNodeLeft.i16, align 8
  %cmp.i17.not = icmp eq ptr %7, %this
  br i1 %cmp.i17.not, label %if.end.i, label %_ZN5eastl6rbtreeIffNS_4lessIfEENS_9allocatorENS_8use_selfIfEELb0ELb0EE5eraseENS_15rbtree_iteratorIfPKfRS8_EESB_.exit

while.cond.preheader.i:                           ; preds = %_ZN5eastl8distanceINS_15rbtree_iteratorIfPKfRS2_EEEENS_15iterator_traitsIT_E15difference_typeES7_S7_.exit
  br i1 %cmp.i.not3.i.i, label %_ZN5eastl6rbtreeIffNS_4lessIfEENS_9allocatorENS_8use_selfIfEELb0ELb0EE5eraseENS_15rbtree_iteratorIfPKfRS8_EESB_.exit, label %while.body.lr.ph.i

while.body.lr.ph.i:                               ; preds = %while.cond.preheader.i
  %mnSize.i.i = getelementptr inbounds i8, ptr %this, i64 32
  br label %while.body.i

while.body.i:                                     ; preds = %_ZN5eastl6rbtreeIffNS_4lessIfEENS_9allocatorENS_8use_selfIfEELb0ELb0EE5eraseENS_15rbtree_iteratorIfPKfRS8_EE.exit.i, %while.body.lr.ph.i
  %first.sroa.0.03.i = phi ptr [ %pRangeEnd.1.i.i, %while.body.lr.ph.i ], [ %call.i.i.i3, %_ZN5eastl6rbtreeIffNS_4lessIfEENS_9allocatorENS_8use_selfIfEELb0ELb0EE5eraseENS_15rbtree_iteratorIfPKfRS8_EE.exit.i ]
  %8 = load i64, ptr %mnSize.i.i, align 8
  %dec.i.i = add i64 %8, -1
  store i64 %dec.i.i, ptr %mnSize.i.i, align 8
  %call.i.i.i3 = tail call noundef ptr @_ZN5eastl15RBTreeIncrementEPKNS_16rbtree_node_baseE(ptr noundef %first.sroa.0.03.i)
  tail call void @_ZN5eastl11RBTreeEraseEPNS_16rbtree_node_baseES1_(ptr noundef %first.sroa.0.03.i, ptr noundef nonnull %this)
  %isnull.i.i.i.i = icmp eq ptr %first.sroa.0.03.i, null
  br i1 %isnull.i.i.i.i, label %_ZN5eastl6rbtreeIffNS_4lessIfEENS_9allocatorENS_8use_selfIfEELb0ELb0EE5eraseENS_15rbtree_iteratorIfPKfRS8_EE.exit.i, label %delete.notnull.i.i.i.i

delete.notnull.i.i.i.i:                           ; preds = %while.body.i
  tail call void @_ZdaPv(ptr noundef nonnull %first.sroa.0.03.i) #12
  br label %_ZN5eastl6rbtreeIffNS_4lessIfEENS_9allocatorENS_8use_selfIfEELb0ELb0EE5eraseENS_15rbtree_iteratorIfPKfRS8_EE.exit.i

_ZN5eastl6rbtreeIffNS_4lessIfEENS_9allocatorENS_8use_selfIfEELb0ELb0EE5eraseENS_15rbtree_iteratorIfPKfRS8_EE.exit.i: ; preds = %delete.notnull.i.i.i.i, %while.body.i
  %cmp.i.not.i = icmp eq ptr %call.i.i.i3, %pRangeEnd.1.i13.i
  br i1 %cmp.i.not.i, label %_ZN5eastl6rbtreeIffNS_4lessIfEENS_9allocatorENS_8use_selfIfEELb0ELb0EE5eraseENS_15rbtree_iteratorIfPKfRS8_EESB_.exit, label %while.body.i, !llvm.loop !19

if.end.i:                                         ; preds = %_ZN5eastl8distanceINS_15rbtree_iteratorIfPKfRS2_EEEENS_15iterator_traitsIT_E15difference_typeES7_S7_.exit.if.end.i_crit_edge, %_ZN5eastl8distanceINS_15rbtree_iteratorIfPKfRS2_EEEENS_15iterator_traitsIT_E15difference_typeES7_S7_.exit.thread
  %9 = phi ptr [ null, %_ZN5eastl8distanceINS_15rbtree_iteratorIfPKfRS2_EEEENS_15iterator_traitsIT_E15difference_typeES7_S7_.exit.thread ], [ %.pre, %_ZN5eastl8distanceINS_15rbtree_iteratorIfPKfRS2_EEEENS_15iterator_traitsIT_E15difference_typeES7_S7_.exit.if.end.i_crit_edge ]
  %mpNodeLeft.i25 = phi ptr [ %mpNodeLeft.i16, %_ZN5eastl8distanceINS_15rbtree_iteratorIfPKfRS2_EEEENS_15iterator_traitsIT_E15difference_typeES7_S7_.exit.thread ], [ %mpNodeLeft.i37, %_ZN5eastl8distanceINS_15rbtree_iteratorIfPKfRS2_EEEENS_15iterator_traitsIT_E15difference_typeES7_S7_.exit.if.end.i_crit_edge ]
  %n.0.lcssa.i.i23 = phi i64 [ 0, %_ZN5eastl8distanceINS_15rbtree_iteratorIfPKfRS2_EEEENS_15iterator_traitsIT_E15difference_typeES7_S7_.exit.thread ], [ %n.0.lcssa.i.i35, %_ZN5eastl8distanceINS_15rbtree_iteratorIfPKfRS2_EEEENS_15iterator_traitsIT_E15difference_typeES7_S7_.exit.if.end.i_crit_edge ]
  tail call void @_ZN5eastl6rbtreeIffNS_4lessIfEENS_9allocatorENS_8use_selfIfEELb0ELb0EE13DoNukeSubtreeEPNS_16rbtree_node_baseE(ptr noundef nonnull align 8 dereferenceable(41) %this, ptr noundef %9)
  store ptr %this, ptr %this, align 8
  store ptr %this, ptr %mpNodeLeft.i25, align 8
  store ptr null, ptr %mpNodeParent.i.i, align 8
  %mColor.i.i.i = getelementptr inbounds i8, ptr %this, i64 24
  store i8 0, ptr %mColor.i.i.i, align 8
  %mnSize.i.i.i = getelementptr inbounds i8, ptr %this, i64 32
  store i64 0, ptr %mnSize.i.i.i, align 8
  br label %_ZN5eastl6rbtreeIffNS_4lessIfEENS_9allocatorENS_8use_selfIfEELb0ELb0EE5eraseENS_15rbtree_iteratorIfPKfRS8_EESB_.exit

_ZN5eastl6rbtreeIffNS_4lessIfEENS_9allocatorENS_8use_selfIfEELb0ELb0EE5eraseENS_15rbtree_iteratorIfPKfRS8_EESB_.exit: ; preds = %_ZN5eastl6rbtreeIffNS_4lessIfEENS_9allocatorENS_8use_selfIfEELb0ELb0EE5eraseENS_15rbtree_iteratorIfPKfRS8_EE.exit.i, %_ZN5eastl8distanceINS_15rbtree_iteratorIfPKfRS2_EEEENS_15iterator_traitsIT_E15difference_typeES7_S7_.exit.thread30, %_ZN5eastl8distanceINS_15rbtree_iteratorIfPKfRS2_EEEENS_15iterator_traitsIT_E15difference_typeES7_S7_.exit.thread, %while.cond.preheader.i, %if.end.i
  %n.0.lcssa.i.i22 = phi i64 [ %inc.i.i, %while.cond.preheader.i ], [ %n.0.lcssa.i.i23, %if.end.i ], [ 0, %_ZN5eastl8distanceINS_15rbtree_iteratorIfPKfRS2_EEEENS_15iterator_traitsIT_E15difference_typeES7_S7_.exit.thread ], [ 0, %_ZN5eastl8distanceINS_15rbtree_iteratorIfPKfRS2_EEEENS_15iterator_traitsIT_E15difference_typeES7_S7_.exit.thread30 ], [ %inc.i.i, %_ZN5eastl6rbtreeIffNS_4lessIfEENS_9allocatorENS_8use_selfIfEELb0ELb0EE5eraseENS_15rbtree_iteratorIfPKfRS8_EE.exit.i ]
  ret i64 %n.0.lcssa.i.i22
}

; Function Attrs: mustprogress uwtable
define weak_odr dso_local { ptr, ptr } @_ZN5eastl8multisetIfNS_4lessIfEENS_9allocatorEE11equal_rangeERKf(ptr noundef nonnull align 8 dereferenceable(41) %this, ptr noundef nonnull align 4 dereferenceable(4) %k) local_unnamed_addr #0 comdat align 2 {
entry:
  %mpNodeParent.i = getelementptr inbounds i8, ptr %this, i64 16
  %pCurrent.05.i = load ptr, ptr %mpNodeParent.i, align 8
  %tobool.not6.i = icmp eq ptr %pCurrent.05.i, null
  br i1 %tobool.not6.i, label %_ZN5eastl6rbtreeIffNS_4lessIfEENS_9allocatorENS_8use_selfIfEELb0ELb0EE11upper_boundERKf.exit, label %while.body.lr.ph.i

while.body.lr.ph.i:                               ; preds = %entry
  %0 = load float, ptr %k, align 4
  br label %while.body.i

while.body.i:                                     ; preds = %while.body.i, %while.body.lr.ph.i
  %pCurrent.08.i = phi ptr [ %pCurrent.05.i, %while.body.lr.ph.i ], [ %pCurrent.0.i, %while.body.i ]
  %pRangeEnd.07.i = phi ptr [ %this, %while.body.lr.ph.i ], [ %pRangeEnd.1.i, %while.body.i ]
  %mValue.i = getelementptr inbounds i8, ptr %pCurrent.08.i, i64 32
  %1 = load float, ptr %mValue.i, align 4
  %cmp.i.i.i = fcmp olt float %1, %0
  %pCurrent.1.in.idx.i = select i1 %cmp.i.i.i, i64 0, i64 8
  %pCurrent.1.in.i = getelementptr inbounds i8, ptr %pCurrent.08.i, i64 %pCurrent.1.in.idx.i
  %pRangeEnd.1.i = select i1 %cmp.i.i.i, ptr %pRangeEnd.07.i, ptr %pCurrent.08.i
  %pCurrent.0.i = load ptr, ptr %pCurrent.1.in.i, align 8
  %tobool.not.i = icmp eq ptr %pCurrent.0.i, null
  br i1 %tobool.not.i, label %while.body.i6, label %while.body.i, !llvm.loop !16

while.body.i6:                                    ; preds = %while.body.i, %while.body.i6
  %pCurrent.08.i7 = phi ptr [ %pCurrent.0.i14, %while.body.i6 ], [ %pCurrent.05.i, %while.body.i ]
  %pRangeEnd.07.i8 = phi ptr [ %pRangeEnd.1.i13, %while.body.i6 ], [ %this, %while.body.i ]
  %mValue.i9 = getelementptr inbounds i8, ptr %pCurrent.08.i7, i64 32
  %2 = load float, ptr %mValue.i9, align 4
  %cmp.i.i.i10 = fcmp olt float %0, %2
  %pCurrent.1.in.idx.i11 = select i1 %cmp.i.i.i10, i64 8, i64 0
  %pCurrent.1.in.i12 = getelementptr inbounds i8, ptr %pCurrent.08.i7, i64 %pCurrent.1.in.idx.i11
  %pRangeEnd.1.i13 = select i1 %cmp.i.i.i10, ptr %pCurrent.08.i7, ptr %pRangeEnd.07.i8
  %pCurrent.0.i14 = load ptr, ptr %pCurrent.1.in.i12, align 8
  %tobool.not.i15 = icmp eq ptr %pCurrent.0.i14, null
  br i1 %tobool.not.i15, label %_ZN5eastl6rbtreeIffNS_4lessIfEENS_9allocatorENS_8use_selfIfEELb0ELb0EE11upper_boundERKf.exit, label %while.body.i6, !llvm.loop !17

_ZN5eastl6rbtreeIffNS_4lessIfEENS_9allocatorENS_8use_selfIfEELb0ELb0EE11upper_boundERKf.exit: ; preds = %while.body.i6, %entry
  %pRangeEnd.0.lcssa.i18 = phi ptr [ %this, %entry ], [ %pRangeEnd.1.i, %while.body.i6 ]
  %pRangeEnd.0.lcssa.i16 = phi ptr [ %this, %entry ], [ %pRangeEnd.1.i13, %while.body.i6 ]
  %.fca.0.insert = insertvalue { ptr, ptr } poison, ptr %pRangeEnd.0.lcssa.i18, 0
  %.fca.1.insert = insertvalue { ptr, ptr } %.fca.0.insert, ptr %pRangeEnd.0.lcssa.i16, 1
  ret { ptr, ptr } %.fca.1.insert
}

; Function Attrs: mustprogress uwtable
define weak_odr dso_local ptr @_ZN5eastl8multisetIfNS_4lessIfEENS_9allocatorEE5eraseENS_15rbtree_iteratorIfPKfRS6_EE(ptr noundef nonnull align 8 dereferenceable(41) %this, ptr %position.coerce) local_unnamed_addr #0 comdat align 2 {
entry:
  %mnSize.i = getelementptr inbounds i8, ptr %this, i64 32
  %0 = load i64, ptr %mnSize.i, align 8
  %dec.i = add i64 %0, -1
  store i64 %dec.i, ptr %mnSize.i, align 8
  %call.i.i = tail call noundef ptr @_ZN5eastl15RBTreeIncrementEPKNS_16rbtree_node_baseE(ptr noundef %position.coerce)
  tail call void @_ZN5eastl11RBTreeEraseEPNS_16rbtree_node_baseES1_(ptr noundef %position.coerce, ptr noundef nonnull %this)
  %isnull.i.i.i = icmp eq ptr %position.coerce, null
  br i1 %isnull.i.i.i, label %_ZN5eastl6rbtreeIffNS_4lessIfEENS_9allocatorENS_8use_selfIfEELb0ELb0EE5eraseENS_15rbtree_iteratorIfPKfRS8_EE.exit, label %delete.notnull.i.i.i

delete.notnull.i.i.i:                             ; preds = %entry
  tail call void @_ZdaPv(ptr noundef nonnull %position.coerce) #12
  br label %_ZN5eastl6rbtreeIffNS_4lessIfEENS_9allocatorENS_8use_selfIfEELb0ELb0EE5eraseENS_15rbtree_iteratorIfPKfRS8_EE.exit

_ZN5eastl6rbtreeIffNS_4lessIfEENS_9allocatorENS_8use_selfIfEELb0ELb0EE5eraseENS_15rbtree_iteratorIfPKfRS8_EE.exit: ; preds = %entry, %delete.notnull.i.i.i
  ret ptr %call.i.i
}

; Function Attrs: mustprogress uwtable
define weak_odr dso_local ptr @_ZN5eastl8multisetIfNS_4lessIfEENS_9allocatorEE5eraseENS_15rbtree_iteratorIfPKfRS6_EES9_(ptr noundef nonnull align 8 dereferenceable(41) %this, ptr %first.coerce, ptr %last.coerce) local_unnamed_addr #0 comdat align 2 {
entry:
  %mpNodeLeft.i = getelementptr inbounds i8, ptr %this, i64 8
  %0 = load ptr, ptr %mpNodeLeft.i, align 8
  %cmp.i = icmp ne ptr %0, %first.coerce
  %cmp5.i = icmp ne ptr %last.coerce, %this
  %1 = select i1 %cmp.i, i1 true, i1 %cmp5.i
  br i1 %1, label %while.cond.preheader.i, label %if.end.i

while.cond.preheader.i:                           ; preds = %entry
  %cmp.i.not2.i = icmp eq ptr %first.coerce, %last.coerce
  br i1 %cmp.i.not2.i, label %_ZN5eastl6rbtreeIffNS_4lessIfEENS_9allocatorENS_8use_selfIfEELb0ELb0EE5eraseENS_15rbtree_iteratorIfPKfRS8_EESB_.exit, label %while.body.lr.ph.i

while.body.lr.ph.i:                               ; preds = %while.cond.preheader.i
  %mnSize.i.i = getelementptr inbounds i8, ptr %this, i64 32
  br label %while.body.i

while.body.i:                                     ; preds = %_ZN5eastl6rbtreeIffNS_4lessIfEENS_9allocatorENS_8use_selfIfEELb0ELb0EE5eraseENS_15rbtree_iteratorIfPKfRS8_EE.exit.i, %while.body.lr.ph.i
  %first.sroa.0.03.i = phi ptr [ %first.coerce, %while.body.lr.ph.i ], [ %call.i.i.i, %_ZN5eastl6rbtreeIffNS_4lessIfEENS_9allocatorENS_8use_selfIfEELb0ELb0EE5eraseENS_15rbtree_iteratorIfPKfRS8_EE.exit.i ]
  %2 = load i64, ptr %mnSize.i.i, align 8
  %dec.i.i = add i64 %2, -1
  store i64 %dec.i.i, ptr %mnSize.i.i, align 8
  %call.i.i.i = tail call noundef ptr @_ZN5eastl15RBTreeIncrementEPKNS_16rbtree_node_baseE(ptr noundef %first.sroa.0.03.i)
  tail call void @_ZN5eastl11RBTreeEraseEPNS_16rbtree_node_baseES1_(ptr noundef %first.sroa.0.03.i, ptr noundef nonnull %this)
  %isnull.i.i.i.i = icmp eq ptr %first.sroa.0.03.i, null
  br i1 %isnull.i.i.i.i, label %_ZN5eastl6rbtreeIffNS_4lessIfEENS_9allocatorENS_8use_selfIfEELb0ELb0EE5eraseENS_15rbtree_iteratorIfPKfRS8_EE.exit.i, label %delete.notnull.i.i.i.i

delete.notnull.i.i.i.i:                           ; preds = %while.body.i
  tail call void @_ZdaPv(ptr noundef nonnull %first.sroa.0.03.i) #12
  br label %_ZN5eastl6rbtreeIffNS_4lessIfEENS_9allocatorENS_8use_selfIfEELb0ELb0EE5eraseENS_15rbtree_iteratorIfPKfRS8_EE.exit.i

_ZN5eastl6rbtreeIffNS_4lessIfEENS_9allocatorENS_8use_selfIfEELb0ELb0EE5eraseENS_15rbtree_iteratorIfPKfRS8_EE.exit.i: ; preds = %delete.notnull.i.i.i.i, %while.body.i
  %cmp.i.not.i = icmp eq ptr %call.i.i.i, %last.coerce
  br i1 %cmp.i.not.i, label %_ZN5eastl6rbtreeIffNS_4lessIfEENS_9allocatorENS_8use_selfIfEELb0ELb0EE5eraseENS_15rbtree_iteratorIfPKfRS8_EESB_.exit, label %while.body.i, !llvm.loop !19

if.end.i:                                         ; preds = %entry
  %mpNodeParent.i.i = getelementptr inbounds i8, ptr %this, i64 16
  %3 = load ptr, ptr %mpNodeParent.i.i, align 8
  tail call void @_ZN5eastl6rbtreeIffNS_4lessIfEENS_9allocatorENS_8use_selfIfEELb0ELb0EE13DoNukeSubtreeEPNS_16rbtree_node_baseE(ptr noundef nonnull align 8 dereferenceable(41) %this, ptr noundef %3)
  store ptr %this, ptr %this, align 8
  store ptr %this, ptr %mpNodeLeft.i, align 8
  store ptr null, ptr %mpNodeParent.i.i, align 8
  %mColor.i.i.i = getelementptr inbounds i8, ptr %this, i64 24
  store i8 0, ptr %mColor.i.i.i, align 8
  %mnSize.i.i.i = getelementptr inbounds i8, ptr %this, i64 32
  store i64 0, ptr %mnSize.i.i.i, align 8
  br label %_ZN5eastl6rbtreeIffNS_4lessIfEENS_9allocatorENS_8use_selfIfEELb0ELb0EE5eraseENS_15rbtree_iteratorIfPKfRS8_EESB_.exit

_ZN5eastl6rbtreeIffNS_4lessIfEENS_9allocatorENS_8use_selfIfEELb0ELb0EE5eraseENS_15rbtree_iteratorIfPKfRS8_EESB_.exit: ; preds = %_ZN5eastl6rbtreeIffNS_4lessIfEENS_9allocatorENS_8use_selfIfEELb0ELb0EE5eraseENS_15rbtree_iteratorIfPKfRS8_EE.exit.i, %while.cond.preheader.i, %if.end.i
  %retval.sroa.0.0.i = phi ptr [ %this, %if.end.i ], [ %first.coerce, %while.cond.preheader.i ], [ %last.coerce, %_ZN5eastl6rbtreeIffNS_4lessIfEENS_9allocatorENS_8use_selfIfEELb0ELb0EE5eraseENS_15rbtree_iteratorIfPKfRS8_EE.exit.i ]
  ret ptr %retval.sroa.0.0.i
}

; Function Attrs: mustprogress uwtable
define weak_odr dso_local void @_ZN5eastl8multisetIfNS_4lessIfEENS_9allocatorEE5eraseENS_16reverse_iteratorINS_15rbtree_iteratorIfPKfRS7_EEEE(ptr noalias sret(%"class.eastl::reverse_iterator.8") align 8 %agg.result, ptr noundef nonnull align 8 dereferenceable(41) %this, ptr noundef %position) local_unnamed_addr #0 comdat align 2 {
entry:
  %0 = load ptr, ptr %position, align 8
  %call.i.i = tail call noundef ptr @_ZN5eastl15RBTreeDecrementEPKNS_16rbtree_node_baseE(ptr noundef %0)
  store ptr %call.i.i, ptr %position, align 8
  %mnSize.i.i = getelementptr inbounds i8, ptr %this, i64 32
  %1 = load i64, ptr %mnSize.i.i, align 8
  %dec.i.i = add i64 %1, -1
  store i64 %dec.i.i, ptr %mnSize.i.i, align 8
  %call.i.i.i = tail call noundef ptr @_ZN5eastl15RBTreeIncrementEPKNS_16rbtree_node_baseE(ptr noundef %call.i.i)
  tail call void @_ZN5eastl11RBTreeEraseEPNS_16rbtree_node_baseES1_(ptr noundef %call.i.i, ptr noundef nonnull %this)
  %isnull.i.i.i.i = icmp eq ptr %call.i.i, null
  br i1 %isnull.i.i.i.i, label %_ZN5eastl8multisetIfNS_4lessIfEENS_9allocatorEE5eraseENS_15rbtree_iteratorIfPKfRS6_EE.exit, label %delete.notnull.i.i.i.i

delete.notnull.i.i.i.i:                           ; preds = %entry
  tail call void @_ZdaPv(ptr noundef nonnull %call.i.i) #12
  br label %_ZN5eastl8multisetIfNS_4lessIfEENS_9allocatorEE5eraseENS_15rbtree_iteratorIfPKfRS6_EE.exit

_ZN5eastl8multisetIfNS_4lessIfEENS_9allocatorEE5eraseENS_15rbtree_iteratorIfPKfRS6_EE.exit: ; preds = %entry, %delete.notnull.i.i.i.i
  store ptr %call.i.i.i, ptr %agg.result, align 8
  ret void
}

; Function Attrs: mustprogress uwtable
define weak_odr dso_local void @_ZN5eastl8multisetIfNS_4lessIfEENS_9allocatorEE5eraseENS_16reverse_iteratorINS_15rbtree_iteratorIfPKfRS7_EEEESB_(ptr noalias sret(%"class.eastl::reverse_iterator.8") align 8 %agg.result, ptr noundef nonnull align 8 dereferenceable(41) %this, ptr noundef %first, ptr noundef %last) local_unnamed_addr #0 comdat align 2 {
entry:
  %0 = load ptr, ptr %last, align 8
  %call.i.i = tail call noundef ptr @_ZN5eastl15RBTreeDecrementEPKNS_16rbtree_node_baseE(ptr noundef %0)
  store ptr %call.i.i, ptr %last, align 8
  %1 = load ptr, ptr %first, align 8
  %call.i.i1 = tail call noundef ptr @_ZN5eastl15RBTreeDecrementEPKNS_16rbtree_node_baseE(ptr noundef %1)
  store ptr %call.i.i1, ptr %first, align 8
  %mpNodeLeft.i.i = getelementptr inbounds i8, ptr %this, i64 8
  %2 = load ptr, ptr %mpNodeLeft.i.i, align 8
  %cmp.i.i = icmp ne ptr %2, %call.i.i
  %cmp5.i.i = icmp ne ptr %call.i.i1, %this
  %3 = or i1 %cmp5.i.i, %cmp.i.i
  br i1 %3, label %while.cond.preheader.i.i, label %if.end.i.i

while.cond.preheader.i.i:                         ; preds = %entry
  %cmp.i.not2.i.i = icmp eq ptr %call.i.i, %call.i.i1
  br i1 %cmp.i.not2.i.i, label %_ZN5eastl8multisetIfNS_4lessIfEENS_9allocatorEE5eraseENS_15rbtree_iteratorIfPKfRS6_EES9_.exit, label %while.body.lr.ph.i.i

while.body.lr.ph.i.i:                             ; preds = %while.cond.preheader.i.i
  %mnSize.i.i.i = getelementptr inbounds i8, ptr %this, i64 32
  br label %while.body.i.i

while.body.i.i:                                   ; preds = %_ZN5eastl6rbtreeIffNS_4lessIfEENS_9allocatorENS_8use_selfIfEELb0ELb0EE5eraseENS_15rbtree_iteratorIfPKfRS8_EE.exit.i.i, %while.body.lr.ph.i.i
  %first.sroa.0.03.i.i = phi ptr [ %call.i.i, %while.body.lr.ph.i.i ], [ %call.i.i.i.i, %_ZN5eastl6rbtreeIffNS_4lessIfEENS_9allocatorENS_8use_selfIfEELb0ELb0EE5eraseENS_15rbtree_iteratorIfPKfRS8_EE.exit.i.i ]
  %4 = load i64, ptr %mnSize.i.i.i, align 8
  %dec.i.i.i = add i64 %4, -1
  store i64 %dec.i.i.i, ptr %mnSize.i.i.i, align 8
  %call.i.i.i.i = tail call noundef ptr @_ZN5eastl15RBTreeIncrementEPKNS_16rbtree_node_baseE(ptr noundef %first.sroa.0.03.i.i)
  tail call void @_ZN5eastl11RBTreeEraseEPNS_16rbtree_node_baseES1_(ptr noundef %first.sroa.0.03.i.i, ptr noundef nonnull %this)
  %isnull.i.i.i.i.i = icmp eq ptr %first.sroa.0.03.i.i, null
  br i1 %isnull.i.i.i.i.i, label %_ZN5eastl6rbtreeIffNS_4lessIfEENS_9allocatorENS_8use_selfIfEELb0ELb0EE5eraseENS_15rbtree_iteratorIfPKfRS8_EE.exit.i.i, label %delete.notnull.i.i.i.i.i

delete.notnull.i.i.i.i.i:                         ; preds = %while.body.i.i
  tail call void @_ZdaPv(ptr noundef nonnull %first.sroa.0.03.i.i) #12
  br label %_ZN5eastl6rbtreeIffNS_4lessIfEENS_9allocatorENS_8use_selfIfEELb0ELb0EE5eraseENS_15rbtree_iteratorIfPKfRS8_EE.exit.i.i

_ZN5eastl6rbtreeIffNS_4lessIfEENS_9allocatorENS_8use_selfIfEELb0ELb0EE5eraseENS_15rbtree_iteratorIfPKfRS8_EE.exit.i.i: ; preds = %delete.notnull.i.i.i.i.i, %while.body.i.i
  %cmp.i.not.i.i = icmp eq ptr %call.i.i.i.i, %call.i.i1
  br i1 %cmp.i.not.i.i, label %_ZN5eastl8multisetIfNS_4lessIfEENS_9allocatorEE5eraseENS_15rbtree_iteratorIfPKfRS6_EES9_.exit, label %while.body.i.i, !llvm.loop !19

if.end.i.i:                                       ; preds = %entry
  %mpNodeParent.i.i.i = getelementptr inbounds i8, ptr %this, i64 16
  %5 = load ptr, ptr %mpNodeParent.i.i.i, align 8
  tail call void @_ZN5eastl6rbtreeIffNS_4lessIfEENS_9allocatorENS_8use_selfIfEELb0ELb0EE13DoNukeSubtreeEPNS_16rbtree_node_baseE(ptr noundef nonnull align 8 dereferenceable(41) %this, ptr noundef %5)
  store ptr %this, ptr %this, align 8
  store ptr %this, ptr %mpNodeLeft.i.i, align 8
  store ptr null, ptr %mpNodeParent.i.i.i, align 8
  %mColor.i.i.i.i = getelementptr inbounds i8, ptr %this, i64 24
  store i8 0, ptr %mColor.i.i.i.i, align 8
  %mnSize.i.i.i.i = getelementptr inbounds i8, ptr %this, i64 32
  store i64 0, ptr %mnSize.i.i.i.i, align 8
  br label %_ZN5eastl8multisetIfNS_4lessIfEENS_9allocatorEE5eraseENS_15rbtree_iteratorIfPKfRS6_EES9_.exit

_ZN5eastl8multisetIfNS_4lessIfEENS_9allocatorEE5eraseENS_15rbtree_iteratorIfPKfRS6_EES9_.exit: ; preds = %_ZN5eastl6rbtreeIffNS_4lessIfEENS_9allocatorENS_8use_selfIfEELb0ELb0EE5eraseENS_15rbtree_iteratorIfPKfRS8_EE.exit.i.i, %while.cond.preheader.i.i, %if.end.i.i
  %retval.sroa.0.0.i.i = phi ptr [ %this, %if.end.i.i ], [ %call.i.i, %while.cond.preheader.i.i ], [ %call.i.i1, %_ZN5eastl6rbtreeIffNS_4lessIfEENS_9allocatorENS_8use_selfIfEELb0ELb0EE5eraseENS_15rbtree_iteratorIfPKfRS8_EE.exit.i.i ]
  store ptr %retval.sroa.0.0.i.i, ptr %agg.result, align 8
  ret void
}

; Function Attrs: mustprogress uwtable
define weak_odr dso_local noundef i64 @_ZNK5eastl8multisetIfNS_4lessIfEENS_9allocatorEE5countERKf(ptr noundef nonnull align 8 dereferenceable(41) %this, ptr noundef nonnull align 4 dereferenceable(4) %k) local_unnamed_addr #0 comdat align 2 {
entry:
  %mpNodeParent.i.i.i = getelementptr inbounds i8, ptr %this, i64 16
  %pCurrent.05.i.i.i = load ptr, ptr %mpNodeParent.i.i.i, align 8
  %tobool.not6.i.i.i = icmp eq ptr %pCurrent.05.i.i.i, null
  br i1 %tobool.not6.i.i.i, label %_ZN5eastl8distanceINS_15rbtree_iteratorIfPKfRS2_EEEENS_15iterator_traitsIT_E15difference_typeES7_S7_.exit, label %while.body.lr.ph.i.i.i

while.body.lr.ph.i.i.i:                           ; preds = %entry
  %0 = load float, ptr %k, align 4
  br label %while.body.i.i.i

while.body.i.i.i:                                 ; preds = %while.body.i.i.i, %while.body.lr.ph.i.i.i
  %pCurrent.08.i.i.i = phi ptr [ %pCurrent.05.i.i.i, %while.body.lr.ph.i.i.i ], [ %pCurrent.0.i.i.i, %while.body.i.i.i ]
  %pRangeEnd.07.i.i.i = phi ptr [ %this, %while.body.lr.ph.i.i.i ], [ %pRangeEnd.1.i.i.i, %while.body.i.i.i ]
  %mValue.i.i.i = getelementptr inbounds i8, ptr %pCurrent.08.i.i.i, i64 32
  %1 = load float, ptr %mValue.i.i.i, align 4
  %cmp.i.i.i.i.i = fcmp olt float %1, %0
  %pCurrent.1.in.idx.i.i.i = select i1 %cmp.i.i.i.i.i, i64 0, i64 8
  %pCurrent.1.in.i.i.i = getelementptr inbounds i8, ptr %pCurrent.08.i.i.i, i64 %pCurrent.1.in.idx.i.i.i
  %pRangeEnd.1.i.i.i = select i1 %cmp.i.i.i.i.i, ptr %pRangeEnd.07.i.i.i, ptr %pCurrent.08.i.i.i
  %pCurrent.0.i.i.i = load ptr, ptr %pCurrent.1.in.i.i.i, align 8
  %tobool.not.i.i.i = icmp eq ptr %pCurrent.0.i.i.i, null
  br i1 %tobool.not.i.i.i, label %while.body.i.i6.i, label %while.body.i.i.i, !llvm.loop !16

while.body.i.i6.i:                                ; preds = %while.body.i.i.i, %while.body.i.i6.i
  %pCurrent.08.i.i7.i = phi ptr [ %pCurrent.0.i.i14.i, %while.body.i.i6.i ], [ %pCurrent.05.i.i.i, %while.body.i.i.i ]
  %pRangeEnd.07.i.i8.i = phi ptr [ %pRangeEnd.1.i.i13.i, %while.body.i.i6.i ], [ %this, %while.body.i.i.i ]
  %mValue.i.i9.i = getelementptr inbounds i8, ptr %pCurrent.08.i.i7.i, i64 32
  %2 = load float, ptr %mValue.i.i9.i, align 4
  %cmp.i.i.i.i10.i = fcmp olt float %0, %2
  %pCurrent.1.in.idx.i.i11.i = select i1 %cmp.i.i.i.i10.i, i64 8, i64 0
  %pCurrent.1.in.i.i12.i = getelementptr inbounds i8, ptr %pCurrent.08.i.i7.i, i64 %pCurrent.1.in.idx.i.i11.i
  %pRangeEnd.1.i.i13.i = select i1 %cmp.i.i.i.i10.i, ptr %pCurrent.08.i.i7.i, ptr %pRangeEnd.07.i.i8.i
  %pCurrent.0.i.i14.i = load ptr, ptr %pCurrent.1.in.i.i12.i, align 8
  %tobool.not.i.i15.i = icmp eq ptr %pCurrent.0.i.i14.i, null
  br i1 %tobool.not.i.i15.i, label %_ZNK5eastl8multisetIfNS_4lessIfEENS_9allocatorEE11equal_rangeERKf.exit, label %while.body.i.i6.i, !llvm.loop !17

_ZNK5eastl8multisetIfNS_4lessIfEENS_9allocatorEE11equal_rangeERKf.exit: ; preds = %while.body.i.i6.i
  %cmp.i.not3.i.i = icmp eq ptr %pRangeEnd.1.i.i.i, %pRangeEnd.1.i.i13.i
  br i1 %cmp.i.not3.i.i, label %_ZN5eastl8distanceINS_15rbtree_iteratorIfPKfRS2_EEEENS_15iterator_traitsIT_E15difference_typeES7_S7_.exit, label %while.body.i.i

while.body.i.i:                                   ; preds = %_ZNK5eastl8multisetIfNS_4lessIfEENS_9allocatorEE11equal_rangeERKf.exit, %while.body.i.i
  %n.05.i.i = phi i64 [ %inc.i.i, %while.body.i.i ], [ 0, %_ZNK5eastl8multisetIfNS_4lessIfEENS_9allocatorEE11equal_rangeERKf.exit ]
  %first.sroa.0.04.i.i = phi ptr [ %call.i.i.i, %while.body.i.i ], [ %pRangeEnd.1.i.i.i, %_ZNK5eastl8multisetIfNS_4lessIfEENS_9allocatorEE11equal_rangeERKf.exit ]
  %call.i.i.i = tail call noundef ptr @_ZN5eastl15RBTreeIncrementEPKNS_16rbtree_node_baseE(ptr noundef %first.sroa.0.04.i.i)
  %inc.i.i = add nuw nsw i64 %n.05.i.i, 1
  %cmp.i.not.i.i = icmp eq ptr %call.i.i.i, %pRangeEnd.1.i.i13.i
  br i1 %cmp.i.not.i.i, label %_ZN5eastl8distanceINS_15rbtree_iteratorIfPKfRS2_EEEENS_15iterator_traitsIT_E15difference_typeES7_S7_.exit, label %while.body.i.i, !llvm.loop !18

_ZN5eastl8distanceINS_15rbtree_iteratorIfPKfRS2_EEEENS_15iterator_traitsIT_E15difference_typeES7_S7_.exit: ; preds = %while.body.i.i, %entry, %_ZNK5eastl8multisetIfNS_4lessIfEENS_9allocatorEE11equal_rangeERKf.exit
  %n.0.lcssa.i.i = phi i64 [ 0, %_ZNK5eastl8multisetIfNS_4lessIfEENS_9allocatorEE11equal_rangeERKf.exit ], [ 0, %entry ], [ %inc.i.i, %while.body.i.i ]
  ret i64 %n.0.lcssa.i.i
}

; Function Attrs: mustprogress uwtable
define weak_odr dso_local { ptr, ptr } @_ZNK5eastl8multisetIfNS_4lessIfEENS_9allocatorEE11equal_rangeERKf(ptr noundef nonnull align 8 dereferenceable(41) %this, ptr noundef nonnull align 4 dereferenceable(4) %k) local_unnamed_addr #0 comdat align 2 {
entry:
  %mpNodeParent.i.i = getelementptr inbounds i8, ptr %this, i64 16
  %pCurrent.05.i.i = load ptr, ptr %mpNodeParent.i.i, align 8
  %tobool.not6.i.i = icmp eq ptr %pCurrent.05.i.i, null
  br i1 %tobool.not6.i.i, label %_ZNK5eastl6rbtreeIffNS_4lessIfEENS_9allocatorENS_8use_selfIfEELb0ELb0EE11upper_boundERKf.exit, label %while.body.lr.ph.i.i

while.body.lr.ph.i.i:                             ; preds = %entry
  %0 = load float, ptr %k, align 4
  br label %while.body.i.i

while.body.i.i:                                   ; preds = %while.body.i.i, %while.body.lr.ph.i.i
  %pCurrent.08.i.i = phi ptr [ %pCurrent.05.i.i, %while.body.lr.ph.i.i ], [ %pCurrent.0.i.i, %while.body.i.i ]
  %pRangeEnd.07.i.i = phi ptr [ %this, %while.body.lr.ph.i.i ], [ %pRangeEnd.1.i.i, %while.body.i.i ]
  %mValue.i.i = getelementptr inbounds i8, ptr %pCurrent.08.i.i, i64 32
  %1 = load float, ptr %mValue.i.i, align 4
  %cmp.i.i.i.i = fcmp olt float %1, %0
  %pCurrent.1.in.idx.i.i = select i1 %cmp.i.i.i.i, i64 0, i64 8
  %pCurrent.1.in.i.i = getelementptr inbounds i8, ptr %pCurrent.08.i.i, i64 %pCurrent.1.in.idx.i.i
  %pRangeEnd.1.i.i = select i1 %cmp.i.i.i.i, ptr %pRangeEnd.07.i.i, ptr %pCurrent.08.i.i
  %pCurrent.0.i.i = load ptr, ptr %pCurrent.1.in.i.i, align 8
  %tobool.not.i.i = icmp eq ptr %pCurrent.0.i.i, null
  br i1 %tobool.not.i.i, label %while.body.i.i6, label %while.body.i.i, !llvm.loop !16

while.body.i.i6:                                  ; preds = %while.body.i.i, %while.body.i.i6
  %pCurrent.08.i.i7 = phi ptr [ %pCurrent.0.i.i14, %while.body.i.i6 ], [ %pCurrent.05.i.i, %while.body.i.i ]
  %pRangeEnd.07.i.i8 = phi ptr [ %pRangeEnd.1.i.i13, %while.body.i.i6 ], [ %this, %while.body.i.i ]
  %mValue.i.i9 = getelementptr inbounds i8, ptr %pCurrent.08.i.i7, i64 32
  %2 = load float, ptr %mValue.i.i9, align 4
  %cmp.i.i.i.i10 = fcmp olt float %0, %2
  %pCurrent.1.in.idx.i.i11 = select i1 %cmp.i.i.i.i10, i64 8, i64 0
  %pCurrent.1.in.i.i12 = getelementptr inbounds i8, ptr %pCurrent.08.i.i7, i64 %pCurrent.1.in.idx.i.i11
  %pRangeEnd.1.i.i13 = select i1 %cmp.i.i.i.i10, ptr %pCurrent.08.i.i7, ptr %pRangeEnd.07.i.i8
  %pCurrent.0.i.i14 = load ptr, ptr %pCurrent.1.in.i.i12, align 8
  %tobool.not.i.i15 = icmp eq ptr %pCurrent.0.i.i14, null
  br i1 %tobool.not.i.i15, label %_ZNK5eastl6rbtreeIffNS_4lessIfEENS_9allocatorENS_8use_selfIfEELb0ELb0EE11upper_boundERKf.exit, label %while.body.i.i6, !llvm.loop !17

_ZNK5eastl6rbtreeIffNS_4lessIfEENS_9allocatorENS_8use_selfIfEELb0ELb0EE11upper_boundERKf.exit: ; preds = %while.body.i.i6, %entry
  %pRangeEnd.0.lcssa.i.i18 = phi ptr [ %this, %entry ], [ %pRangeEnd.1.i.i, %while.body.i.i6 ]
  %pRangeEnd.0.lcssa.i.i16 = phi ptr [ %this, %entry ], [ %pRangeEnd.1.i.i13, %while.body.i.i6 ]
  %.fca.0.insert = insertvalue { ptr, ptr } poison, ptr %pRangeEnd.0.lcssa.i.i18, 0
  %.fca.1.insert = insertvalue { ptr, ptr } %.fca.0.insert, ptr %pRangeEnd.0.lcssa.i.i16, 1
  ret { ptr, ptr } %.fca.1.insert
}

; Function Attrs: mustprogress uwtable
define weak_odr dso_local { ptr, ptr } @_ZN5eastl8multisetIfNS_4lessIfEENS_9allocatorEE17equal_range_smallERKf(ptr noundef nonnull align 8 dereferenceable(41) %this, ptr noundef nonnull align 4 dereferenceable(4) %k) local_unnamed_addr #0 comdat align 2 personality ptr @__gxx_personality_v0 {
entry:
  %mpNodeParent.i = getelementptr inbounds i8, ptr %this, i64 16
  %pCurrent.05.i = load ptr, ptr %mpNodeParent.i, align 8
  %tobool.not6.i = icmp eq ptr %pCurrent.05.i, null
  br i1 %tobool.not6.i, label %while.end, label %while.body.lr.ph.i

while.body.lr.ph.i:                               ; preds = %entry
  %0 = load float, ptr %k, align 4
  br label %while.body.i

while.body.i:                                     ; preds = %while.body.i, %while.body.lr.ph.i
  %pCurrent.08.i = phi ptr [ %pCurrent.05.i, %while.body.lr.ph.i ], [ %pCurrent.0.i, %while.body.i ]
  %pRangeEnd.07.i = phi ptr [ %this, %while.body.lr.ph.i ], [ %pRangeEnd.1.i, %while.body.i ]
  %mValue.i = getelementptr inbounds i8, ptr %pCurrent.08.i, i64 32
  %1 = load float, ptr %mValue.i, align 4
  %cmp.i.i.i = fcmp olt float %1, %0
  %pCurrent.1.in.idx.i = select i1 %cmp.i.i.i, i64 0, i64 8
  %pCurrent.1.in.i = getelementptr inbounds i8, ptr %pCurrent.08.i, i64 %pCurrent.1.in.idx.i
  %pRangeEnd.1.i = select i1 %cmp.i.i.i, ptr %pRangeEnd.07.i, ptr %pCurrent.08.i
  %pCurrent.0.i = load ptr, ptr %pCurrent.1.in.i, align 8
  %tobool.not.i = icmp eq ptr %pCurrent.0.i, null
  br i1 %tobool.not.i, label %_ZN5eastl6rbtreeIffNS_4lessIfEENS_9allocatorENS_8use_selfIfEELb0ELb0EE11lower_boundERKf.exit, label %while.body.i, !llvm.loop !16

_ZN5eastl6rbtreeIffNS_4lessIfEENS_9allocatorENS_8use_selfIfEELb0ELb0EE11lower_boundERKf.exit: ; preds = %while.body.i
  %cmp.i.not5 = icmp eq ptr %pRangeEnd.1.i, %this
  br i1 %cmp.i.not5, label %while.end, label %land.rhs

land.rhs:                                         ; preds = %_ZN5eastl6rbtreeIffNS_4lessIfEENS_9allocatorENS_8use_selfIfEELb0ELb0EE11lower_boundERKf.exit, %while.body
  %itUpper.sroa.0.06 = phi ptr [ %call.i, %while.body ], [ %pRangeEnd.1.i, %_ZN5eastl6rbtreeIffNS_4lessIfEENS_9allocatorENS_8use_selfIfEELb0ELb0EE11lower_boundERKf.exit ]
  %mValue.i2 = getelementptr inbounds i8, ptr %itUpper.sroa.0.06, i64 32
  %2 = load float, ptr %k, align 4
  %3 = load float, ptr %mValue.i2, align 4
  %cmp.i.i = fcmp olt float %2, %3
  br i1 %cmp.i.i, label %while.end, label %while.body

while.body:                                       ; preds = %land.rhs
  %call.i = tail call noundef ptr @_ZN5eastl15RBTreeIncrementEPKNS_16rbtree_node_baseE(ptr noundef nonnull %itUpper.sroa.0.06)
  %cmp.i.not = icmp eq ptr %call.i, %this
  br i1 %cmp.i.not, label %while.end, label %land.rhs, !llvm.loop !20

while.end:                                        ; preds = %land.rhs, %while.body, %entry, %_ZN5eastl6rbtreeIffNS_4lessIfEENS_9allocatorENS_8use_selfIfEELb0ELb0EE11lower_boundERKf.exit
  %pRangeEnd.0.lcssa.i10 = phi ptr [ %pRangeEnd.1.i, %_ZN5eastl6rbtreeIffNS_4lessIfEENS_9allocatorENS_8use_selfIfEELb0ELb0EE11lower_boundERKf.exit ], [ %this, %entry ], [ %pRangeEnd.1.i, %while.body ], [ %pRangeEnd.1.i, %land.rhs ]
  %itUpper.sroa.0.0.lcssa = phi ptr [ %this, %_ZN5eastl6rbtreeIffNS_4lessIfEENS_9allocatorENS_8use_selfIfEELb0ELb0EE11lower_boundERKf.exit ], [ %this, %entry ], [ %itUpper.sroa.0.06, %land.rhs ], [ %this, %while.body ]
  %.fca.0.insert = insertvalue { ptr, ptr } poison, ptr %pRangeEnd.0.lcssa.i10, 0
  %.fca.1.insert = insertvalue { ptr, ptr } %.fca.0.insert, ptr %itUpper.sroa.0.0.lcssa, 1
  ret { ptr, ptr } %.fca.1.insert
}

; Function Attrs: mustprogress uwtable
define weak_odr dso_local { ptr, ptr } @_ZNK5eastl8multisetIfNS_4lessIfEENS_9allocatorEE17equal_range_smallERKf(ptr noundef nonnull align 8 dereferenceable(41) %this, ptr noundef nonnull align 4 dereferenceable(4) %k) local_unnamed_addr #0 comdat align 2 personality ptr @__gxx_personality_v0 {
entry:
  %mpNodeParent.i.i = getelementptr inbounds i8, ptr %this, i64 16
  %pCurrent.05.i.i = load ptr, ptr %mpNodeParent.i.i, align 8
  %tobool.not6.i.i = icmp eq ptr %pCurrent.05.i.i, null
  br i1 %tobool.not6.i.i, label %while.end, label %while.body.lr.ph.i.i

while.body.lr.ph.i.i:                             ; preds = %entry
  %0 = load float, ptr %k, align 4
  br label %while.body.i.i

while.body.i.i:                                   ; preds = %while.body.i.i, %while.body.lr.ph.i.i
  %pCurrent.08.i.i = phi ptr [ %pCurrent.05.i.i, %while.body.lr.ph.i.i ], [ %pCurrent.0.i.i, %while.body.i.i ]
  %pRangeEnd.07.i.i = phi ptr [ %this, %while.body.lr.ph.i.i ], [ %pRangeEnd.1.i.i, %while.body.i.i ]
  %mValue.i.i = getelementptr inbounds i8, ptr %pCurrent.08.i.i, i64 32
  %1 = load float, ptr %mValue.i.i, align 4
  %cmp.i.i.i.i = fcmp olt float %1, %0
  %pCurrent.1.in.idx.i.i = select i1 %cmp.i.i.i.i, i64 0, i64 8
  %pCurrent.1.in.i.i = getelementptr inbounds i8, ptr %pCurrent.08.i.i, i64 %pCurrent.1.in.idx.i.i
  %pRangeEnd.1.i.i = select i1 %cmp.i.i.i.i, ptr %pRangeEnd.07.i.i, ptr %pCurrent.08.i.i
  %pCurrent.0.i.i = load ptr, ptr %pCurrent.1.in.i.i, align 8
  %tobool.not.i.i = icmp eq ptr %pCurrent.0.i.i, null
  br i1 %tobool.not.i.i, label %_ZNK5eastl6rbtreeIffNS_4lessIfEENS_9allocatorENS_8use_selfIfEELb0ELb0EE11lower_boundERKf.exit, label %while.body.i.i, !llvm.loop !16

_ZNK5eastl6rbtreeIffNS_4lessIfEENS_9allocatorENS_8use_selfIfEELb0ELb0EE11lower_boundERKf.exit: ; preds = %while.body.i.i
  %cmp.i.not4 = icmp eq ptr %pRangeEnd.1.i.i, %this
  br i1 %cmp.i.not4, label %while.end, label %land.rhs

land.rhs:                                         ; preds = %_ZNK5eastl6rbtreeIffNS_4lessIfEENS_9allocatorENS_8use_selfIfEELb0ELb0EE11lower_boundERKf.exit, %while.body
  %itUpper.sroa.0.05 = phi ptr [ %call.i, %while.body ], [ %pRangeEnd.1.i.i, %_ZNK5eastl6rbtreeIffNS_4lessIfEENS_9allocatorENS_8use_selfIfEELb0ELb0EE11lower_boundERKf.exit ]
  %mValue.i = getelementptr inbounds i8, ptr %itUpper.sroa.0.05, i64 32
  %2 = load float, ptr %k, align 4
  %3 = load float, ptr %mValue.i, align 4
  %cmp.i.i = fcmp olt float %2, %3
  br i1 %cmp.i.i, label %while.end, label %while.body

while.body:                                       ; preds = %land.rhs
  %call.i = tail call noundef ptr @_ZN5eastl15RBTreeIncrementEPKNS_16rbtree_node_baseE(ptr noundef nonnull %itUpper.sroa.0.05)
  %cmp.i.not = icmp eq ptr %call.i, %this
  br i1 %cmp.i.not, label %while.end, label %land.rhs, !llvm.loop !21

while.end:                                        ; preds = %land.rhs, %while.body, %entry, %_ZNK5eastl6rbtreeIffNS_4lessIfEENS_9allocatorENS_8use_selfIfEELb0ELb0EE11lower_boundERKf.exit
  %pRangeEnd.0.lcssa.i.i9 = phi ptr [ %pRangeEnd.1.i.i, %_ZNK5eastl6rbtreeIffNS_4lessIfEENS_9allocatorENS_8use_selfIfEELb0ELb0EE11lower_boundERKf.exit ], [ %this, %entry ], [ %pRangeEnd.1.i.i, %while.body ], [ %pRangeEnd.1.i.i, %land.rhs ]
  %itUpper.sroa.0.0.lcssa = phi ptr [ %this, %_ZNK5eastl6rbtreeIffNS_4lessIfEENS_9allocatorENS_8use_selfIfEELb0ELb0EE11lower_boundERKf.exit ], [ %this, %entry ], [ %itUpper.sroa.0.05, %land.rhs ], [ %this, %while.body ]
  %.fca.0.insert = insertvalue { ptr, ptr } poison, ptr %pRangeEnd.0.lcssa.i.i9, 0
  %.fca.1.insert = insertvalue { ptr, ptr } %.fca.0.insert, ptr %itUpper.sroa.0.0.lcssa, 1
  ret { ptr, ptr } %.fca.1.insert
}

; Function Attrs: mustprogress uwtable
define weak_odr dso_local void @_ZN5eastl3setI10TestObjectNS_4lessIS1_EENS_9allocatorEEC2ERKS4_(ptr noundef nonnull align 8 dereferenceable(41) %this, ptr noundef nonnull align 1 dereferenceable(1) %allocator) unnamed_addr #0 comdat($_ZN5eastl3setI10TestObjectNS_4lessIS1_EENS_9allocatorEEC5ERKS4_) align 2 {
entry:
  %mnSize.i = getelementptr inbounds i8, ptr %this, i64 32
  %0 = getelementptr inbounds i8, ptr %this, i64 24
  store i64 0, ptr %0, align 8
  store ptr %this, ptr %this, align 8
  %mpNodeLeft.i.i = getelementptr inbounds i8, ptr %this, i64 8
  store ptr %this, ptr %mpNodeLeft.i.i, align 8
  %mpNodeParent.i.i = getelementptr inbounds i8, ptr %this, i64 16
  store ptr null, ptr %mpNodeParent.i.i, align 8
  store i64 0, ptr %mnSize.i, align 8
  ret void
}

; Function Attrs: mustprogress uwtable
define weak_odr dso_local void @_ZN5eastl3setI10TestObjectNS_4lessIS1_EENS_9allocatorEEC2ERKS3_RKS4_(ptr noundef nonnull align 8 dereferenceable(41) %this, ptr noundef nonnull align 1 dereferenceable(1) %compare, ptr noundef nonnull align 1 dereferenceable(1) %allocator) unnamed_addr #0 comdat($_ZN5eastl3setI10TestObjectNS_4lessIS1_EENS_9allocatorEEC5ERKS3_RKS4_) align 2 {
entry:
  %mnSize.i = getelementptr inbounds i8, ptr %this, i64 32
  %0 = getelementptr inbounds i8, ptr %this, i64 24
  store i64 0, ptr %0, align 8
  store ptr %this, ptr %this, align 8
  %mpNodeLeft.i.i = getelementptr inbounds i8, ptr %this, i64 8
  store ptr %this, ptr %mpNodeLeft.i.i, align 8
  %mpNodeParent.i.i = getelementptr inbounds i8, ptr %this, i64 16
  store ptr null, ptr %mpNodeParent.i.i, align 8
  store i64 0, ptr %mnSize.i, align 8
  ret void
}

; Function Attrs: mustprogress uwtable
define weak_odr dso_local void @_ZN5eastl3setI10TestObjectNS_4lessIS1_EENS_9allocatorEEC2ERKS5_(ptr noundef nonnull align 8 dereferenceable(41) %this, ptr noundef nonnull align 8 dereferenceable(41) %x) unnamed_addr #0 comdat($_ZN5eastl3setI10TestObjectNS_4lessIS1_EENS_9allocatorEEC5ERKS5_) align 2 {
entry:
  %mnSize.i = getelementptr inbounds i8, ptr %this, i64 32
  %0 = getelementptr inbounds i8, ptr %this, i64 24
  store i64 0, ptr %0, align 8
  store ptr %this, ptr %this, align 8
  %mpNodeLeft.i.i = getelementptr inbounds i8, ptr %this, i64 8
  store ptr %this, ptr %mpNodeLeft.i.i, align 8
  %mpNodeParent.i.i = getelementptr inbounds i8, ptr %this, i64 16
  store ptr null, ptr %mpNodeParent.i.i, align 8
  store i64 0, ptr %mnSize.i, align 8
  %mpNodeParent.i = getelementptr inbounds i8, ptr %x, i64 16
  %1 = load ptr, ptr %mpNodeParent.i, align 8
  %tobool.not.i = icmp eq ptr %1, null
  br i1 %tobool.not.i, label %_ZN5eastl6rbtreeI10TestObjectS1_NS_4lessIS1_EENS_9allocatorENS_8use_selfIS1_EELb0ELb1EEC2ERKS7_.exit, label %if.then.i

if.then.i:                                        ; preds = %entry
  %call7.i = tail call noundef ptr @_ZN5eastl6rbtreeI10TestObjectS1_NS_4lessIS1_EENS_9allocatorENS_8use_selfIS1_EELb0ELb1EE13DoCopySubtreeEPKNS_11rbtree_nodeIS1_EEPNS_16rbtree_node_baseE(ptr noundef nonnull align 8 dereferenceable(41) %this, ptr noundef nonnull %1, ptr noundef nonnull %this)
  store ptr %call7.i, ptr %mpNodeParent.i.i, align 8
  br label %while.cond.i.i

while.cond.i.i:                                   ; preds = %while.cond.i.i, %if.then.i
  %pNodeBase.addr.0.i.i = phi ptr [ %call7.i, %if.then.i ], [ %2, %while.cond.i.i ]
  %2 = load ptr, ptr %pNodeBase.addr.0.i.i, align 8
  %tobool.not.i.i = icmp eq ptr %2, null
  br i1 %tobool.not.i.i, label %_ZN5eastl17RBTreeGetMaxChildEPKNS_16rbtree_node_baseE.exit.i, label %while.cond.i.i, !llvm.loop !5

_ZN5eastl17RBTreeGetMaxChildEPKNS_16rbtree_node_baseE.exit.i: ; preds = %while.cond.i.i
  store ptr %pNodeBase.addr.0.i.i, ptr %this, align 8
  br label %while.cond.i5.i

while.cond.i5.i:                                  ; preds = %while.cond.i5.i, %_ZN5eastl17RBTreeGetMaxChildEPKNS_16rbtree_node_baseE.exit.i
  %pNodeBase.addr.0.i6.i = phi ptr [ %call7.i, %_ZN5eastl17RBTreeGetMaxChildEPKNS_16rbtree_node_baseE.exit.i ], [ %3, %while.cond.i5.i ]
  %mpNodeLeft.i7.i = getelementptr inbounds i8, ptr %pNodeBase.addr.0.i6.i, i64 8
  %3 = load ptr, ptr %mpNodeLeft.i7.i, align 8
  %tobool.not.i8.i = icmp eq ptr %3, null
  br i1 %tobool.not.i8.i, label %_ZN5eastl17RBTreeGetMinChildEPKNS_16rbtree_node_baseE.exit.i, label %while.cond.i5.i, !llvm.loop !7

_ZN5eastl17RBTreeGetMinChildEPKNS_16rbtree_node_baseE.exit.i: ; preds = %while.cond.i5.i
  store ptr %pNodeBase.addr.0.i6.i, ptr %mpNodeLeft.i.i, align 8
  %mnSize18.i = getelementptr inbounds i8, ptr %x, i64 32
  %4 = load i64, ptr %mnSize18.i, align 8
  store i64 %4, ptr %mnSize.i, align 8
  br label %_ZN5eastl6rbtreeI10TestObjectS1_NS_4lessIS1_EENS_9allocatorENS_8use_selfIS1_EELb0ELb1EEC2ERKS7_.exit

_ZN5eastl6rbtreeI10TestObjectS1_NS_4lessIS1_EENS_9allocatorENS_8use_selfIS1_EELb0ELb1EEC2ERKS7_.exit: ; preds = %entry, %_ZN5eastl17RBTreeGetMinChildEPKNS_16rbtree_node_baseE.exit.i
  ret void
}

; Function Attrs: mustprogress uwtable
define weak_odr dso_local void @_ZN5eastl3setI10TestObjectNS_4lessIS1_EENS_9allocatorEEC2EOS5_(ptr noundef nonnull align 8 dereferenceable(41) %this, ptr noundef nonnull align 8 dereferenceable(41) %x) unnamed_addr #0 comdat($_ZN5eastl3setI10TestObjectNS_4lessIS1_EENS_9allocatorEEC5EOS5_) align 2 {
entry:
  %mnSize.i = getelementptr inbounds i8, ptr %this, i64 32
  %0 = getelementptr inbounds i8, ptr %this, i64 24
  store i64 0, ptr %0, align 8
  store ptr %this, ptr %this, align 8
  %mpNodeLeft.i.i = getelementptr inbounds i8, ptr %this, i64 8
  store ptr %this, ptr %mpNodeLeft.i.i, align 8
  %mpNodeParent.i.i = getelementptr inbounds i8, ptr %this, i64 16
  store ptr null, ptr %mpNodeParent.i.i, align 8
  store i64 0, ptr %mnSize.i, align 8
  %mnSize2.i.i = getelementptr inbounds i8, ptr %x, i64 32
  %1 = load i64, ptr %mnSize2.i.i, align 8
  store i64 %1, ptr %mnSize.i, align 8
  store i64 0, ptr %mnSize2.i.i, align 8
  %2 = load ptr, ptr %mpNodeParent.i.i, align 8
  %tobool.not.i.i = icmp eq ptr %2, null
  %mpNodeParent56.i.i = getelementptr inbounds i8, ptr %x, i64 16
  %3 = load ptr, ptr %mpNodeParent56.i.i, align 8
  %tobool57.not.i.i = icmp eq ptr %3, null
  br i1 %tobool.not.i.i, label %if.else54.i.i, label %land.lhs.true.i.i

land.lhs.true.i.i:                                ; preds = %entry
  %4 = load ptr, ptr %this, align 8
  br i1 %tobool57.not.i.i, label %if.then29.i.i, label %if.then.i.i

if.then.i.i:                                      ; preds = %land.lhs.true.i.i
  %5 = load ptr, ptr %x, align 8
  store ptr %5, ptr %this, align 8
  store ptr %4, ptr %x, align 8
  %mpNodeLeft13.i.i = getelementptr inbounds i8, ptr %x, i64 8
  %6 = load ptr, ptr %mpNodeLeft.i.i, align 8
  %7 = load ptr, ptr %mpNodeLeft13.i.i, align 8
  store ptr %7, ptr %mpNodeLeft.i.i, align 8
  store ptr %6, ptr %mpNodeLeft13.i.i, align 8
  %8 = load ptr, ptr %mpNodeParent.i.i, align 8
  %9 = load ptr, ptr %mpNodeParent56.i.i, align 8
  store ptr %9, ptr %mpNodeParent.i.i, align 8
  store ptr %8, ptr %mpNodeParent56.i.i, align 8
  %10 = load ptr, ptr %mpNodeParent.i.i, align 8
  %mpNodeParent21.i.i = getelementptr inbounds i8, ptr %10, i64 16
  store ptr %this, ptr %mpNodeParent21.i.i, align 8
  %11 = load ptr, ptr %mpNodeParent56.i.i, align 8
  %mpNodeParent25.i.i = getelementptr inbounds i8, ptr %11, i64 16
  store ptr %x, ptr %mpNodeParent25.i.i, align 8
  br label %_ZN5eastl6rbtreeI10TestObjectS1_NS_4lessIS1_EENS_9allocatorENS_8use_selfIS1_EELb0ELb1EEC2EOS7_.exit

if.then29.i.i:                                    ; preds = %land.lhs.true.i.i
  store ptr %4, ptr %x, align 8
  %12 = load ptr, ptr %mpNodeLeft.i.i, align 8
  %mpNodeLeft37.i.i = getelementptr inbounds i8, ptr %x, i64 8
  store ptr %12, ptr %mpNodeLeft37.i.i, align 8
  %13 = load ptr, ptr %mpNodeParent.i.i, align 8
  store ptr %13, ptr %mpNodeParent56.i.i, align 8
  %mpNodeParent45.i.i = getelementptr inbounds i8, ptr %13, i64 16
  store ptr %x, ptr %mpNodeParent45.i.i, align 8
  store ptr %this, ptr %this, align 8
  store ptr %this, ptr %mpNodeLeft.i.i, align 8
  store ptr null, ptr %mpNodeParent.i.i, align 8
  br label %_ZN5eastl6rbtreeI10TestObjectS1_NS_4lessIS1_EENS_9allocatorENS_8use_selfIS1_EELb0ELb1EEC2EOS7_.exit

if.else54.i.i:                                    ; preds = %entry
  br i1 %tobool57.not.i.i, label %_ZN5eastl6rbtreeI10TestObjectS1_NS_4lessIS1_EENS_9allocatorENS_8use_selfIS1_EELb0ELb1EEC2EOS7_.exit, label %if.then58.i.i

if.then58.i.i:                                    ; preds = %if.else54.i.i
  %14 = load ptr, ptr %x, align 8
  store ptr %14, ptr %this, align 8
  %mpNodeLeft64.i.i = getelementptr inbounds i8, ptr %x, i64 8
  %15 = load ptr, ptr %mpNodeLeft64.i.i, align 8
  store ptr %15, ptr %mpNodeLeft.i.i, align 8
  %16 = load ptr, ptr %mpNodeParent56.i.i, align 8
  store ptr %16, ptr %mpNodeParent.i.i, align 8
  %mpNodeParent74.i.i = getelementptr inbounds i8, ptr %16, i64 16
  store ptr %this, ptr %mpNodeParent74.i.i, align 8
  store ptr %x, ptr %x, align 8
  store ptr %x, ptr %mpNodeLeft64.i.i, align 8
  store ptr null, ptr %mpNodeParent56.i.i, align 8
  br label %_ZN5eastl6rbtreeI10TestObjectS1_NS_4lessIS1_EENS_9allocatorENS_8use_selfIS1_EELb0ELb1EEC2EOS7_.exit

_ZN5eastl6rbtreeI10TestObjectS1_NS_4lessIS1_EENS_9allocatorENS_8use_selfIS1_EELb0ELb1EEC2EOS7_.exit: ; preds = %if.then.i.i, %if.then29.i.i, %if.else54.i.i, %if.then58.i.i
  ret void
}

; Function Attrs: mustprogress uwtable
define weak_odr dso_local void @_ZN5eastl3setI10TestObjectNS_4lessIS1_EENS_9allocatorEEC2EOS5_RKS4_(ptr noundef nonnull align 8 dereferenceable(41) %this, ptr noundef nonnull align 8 dereferenceable(41) %x, ptr noundef nonnull align 1 dereferenceable(1) %allocator) unnamed_addr #0 comdat($_ZN5eastl3setI10TestObjectNS_4lessIS1_EENS_9allocatorEEC5EOS5_RKS4_) align 2 {
entry:
  %mnSize.i = getelementptr inbounds i8, ptr %this, i64 32
  %0 = getelementptr inbounds i8, ptr %this, i64 24
  store i64 0, ptr %0, align 8
  store ptr %this, ptr %this, align 8
  %mpNodeLeft.i.i = getelementptr inbounds i8, ptr %this, i64 8
  store ptr %this, ptr %mpNodeLeft.i.i, align 8
  %mpNodeParent.i.i = getelementptr inbounds i8, ptr %this, i64 16
  store ptr null, ptr %mpNodeParent.i.i, align 8
  store i64 0, ptr %mnSize.i, align 8
  %mnSize2.i.i = getelementptr inbounds i8, ptr %x, i64 32
  %1 = load i64, ptr %mnSize2.i.i, align 8
  store i64 %1, ptr %mnSize.i, align 8
  store i64 0, ptr %mnSize2.i.i, align 8
  %2 = load ptr, ptr %mpNodeParent.i.i, align 8
  %tobool.not.i.i = icmp eq ptr %2, null
  %mpNodeParent56.i.i = getelementptr inbounds i8, ptr %x, i64 16
  %3 = load ptr, ptr %mpNodeParent56.i.i, align 8
  %tobool57.not.i.i = icmp eq ptr %3, null
  br i1 %tobool.not.i.i, label %if.else54.i.i, label %land.lhs.true.i.i

land.lhs.true.i.i:                                ; preds = %entry
  %4 = load ptr, ptr %this, align 8
  br i1 %tobool57.not.i.i, label %if.then29.i.i, label %if.then.i.i

if.then.i.i:                                      ; preds = %land.lhs.true.i.i
  %5 = load ptr, ptr %x, align 8
  store ptr %5, ptr %this, align 8
  store ptr %4, ptr %x, align 8
  %mpNodeLeft13.i.i = getelementptr inbounds i8, ptr %x, i64 8
  %6 = load ptr, ptr %mpNodeLeft.i.i, align 8
  %7 = load ptr, ptr %mpNodeLeft13.i.i, align 8
  store ptr %7, ptr %mpNodeLeft.i.i, align 8
  store ptr %6, ptr %mpNodeLeft13.i.i, align 8
  %8 = load ptr, ptr %mpNodeParent.i.i, align 8
  %9 = load ptr, ptr %mpNodeParent56.i.i, align 8
  store ptr %9, ptr %mpNodeParent.i.i, align 8
  store ptr %8, ptr %mpNodeParent56.i.i, align 8
  %10 = load ptr, ptr %mpNodeParent.i.i, align 8
  %mpNodeParent21.i.i = getelementptr inbounds i8, ptr %10, i64 16
  store ptr %this, ptr %mpNodeParent21.i.i, align 8
  %11 = load ptr, ptr %mpNodeParent56.i.i, align 8
  %mpNodeParent25.i.i = getelementptr inbounds i8, ptr %11, i64 16
  store ptr %x, ptr %mpNodeParent25.i.i, align 8
  br label %_ZN5eastl6rbtreeI10TestObjectS1_NS_4lessIS1_EENS_9allocatorENS_8use_selfIS1_EELb0ELb1EEC2EOS7_RKS4_.exit

if.then29.i.i:                                    ; preds = %land.lhs.true.i.i
  store ptr %4, ptr %x, align 8
  %12 = load ptr, ptr %mpNodeLeft.i.i, align 8
  %mpNodeLeft37.i.i = getelementptr inbounds i8, ptr %x, i64 8
  store ptr %12, ptr %mpNodeLeft37.i.i, align 8
  %13 = load ptr, ptr %mpNodeParent.i.i, align 8
  store ptr %13, ptr %mpNodeParent56.i.i, align 8
  %mpNodeParent45.i.i = getelementptr inbounds i8, ptr %13, i64 16
  store ptr %x, ptr %mpNodeParent45.i.i, align 8
  store ptr %this, ptr %this, align 8
  store ptr %this, ptr %mpNodeLeft.i.i, align 8
  store ptr null, ptr %mpNodeParent.i.i, align 8
  br label %_ZN5eastl6rbtreeI10TestObjectS1_NS_4lessIS1_EENS_9allocatorENS_8use_selfIS1_EELb0ELb1EEC2EOS7_RKS4_.exit

if.else54.i.i:                                    ; preds = %entry
  br i1 %tobool57.not.i.i, label %_ZN5eastl6rbtreeI10TestObjectS1_NS_4lessIS1_EENS_9allocatorENS_8use_selfIS1_EELb0ELb1EEC2EOS7_RKS4_.exit, label %if.then58.i.i

if.then58.i.i:                                    ; preds = %if.else54.i.i
  %14 = load ptr, ptr %x, align 8
  store ptr %14, ptr %this, align 8
  %mpNodeLeft64.i.i = getelementptr inbounds i8, ptr %x, i64 8
  %15 = load ptr, ptr %mpNodeLeft64.i.i, align 8
  store ptr %15, ptr %mpNodeLeft.i.i, align 8
  %16 = load ptr, ptr %mpNodeParent56.i.i, align 8
  store ptr %16, ptr %mpNodeParent.i.i, align 8
  %mpNodeParent74.i.i = getelementptr inbounds i8, ptr %16, i64 16
  store ptr %this, ptr %mpNodeParent74.i.i, align 8
  store ptr %x, ptr %x, align 8
  store ptr %x, ptr %mpNodeLeft64.i.i, align 8
  store ptr null, ptr %mpNodeParent56.i.i, align 8
  br label %_ZN5eastl6rbtreeI10TestObjectS1_NS_4lessIS1_EENS_9allocatorENS_8use_selfIS1_EELb0ELb1EEC2EOS7_RKS4_.exit

_ZN5eastl6rbtreeI10TestObjectS1_NS_4lessIS1_EENS_9allocatorENS_8use_selfIS1_EELb0ELb1EEC2EOS7_RKS4_.exit: ; preds = %if.then.i.i, %if.then29.i.i, %if.else54.i.i, %if.then58.i.i
  ret void
}

; Function Attrs: mustprogress uwtable
define weak_odr dso_local void @_ZN5eastl3setI10TestObjectNS_4lessIS1_EENS_9allocatorEEC2ESt16initializer_listIS1_ERKS3_RKS4_(ptr noundef nonnull align 8 dereferenceable(41) %this, ptr %ilist.coerce0, i64 %ilist.coerce1, ptr noundef nonnull align 1 dereferenceable(1) %compare, ptr noundef nonnull align 1 dereferenceable(1) %allocator) unnamed_addr #0 comdat($_ZN5eastl3setI10TestObjectNS_4lessIS1_EENS_9allocatorEEC5ESt16initializer_listIS1_ERKS3_RKS4_) align 2 {
entry:
  %add.ptr.i = getelementptr inbounds %struct.TestObject, ptr %ilist.coerce0, i64 %ilist.coerce1
  %mnSize.i = getelementptr inbounds i8, ptr %this, i64 32
  %0 = getelementptr inbounds i8, ptr %this, i64 24
  store i64 0, ptr %0, align 8
  store ptr %this, ptr %this, align 8
  %mpNodeLeft.i.i = getelementptr inbounds i8, ptr %this, i64 8
  store ptr %this, ptr %mpNodeLeft.i.i, align 8
  %mpNodeParent.i.i = getelementptr inbounds i8, ptr %this, i64 16
  store ptr null, ptr %mpNodeParent.i.i, align 8
  store i64 0, ptr %mnSize.i, align 8
  %cmp.not3.i = icmp eq i64 %ilist.coerce1, 0
  br i1 %cmp.not3.i, label %_ZN5eastl6rbtreeI10TestObjectS1_NS_4lessIS1_EENS_9allocatorENS_8use_selfIS1_EELb0ELb1EEC2IPKS1_EET_SB_RKS3_RKS4_.exit, label %for.body.i

for.body.i:                                       ; preds = %entry, %for.body.i
  %first.addr.04.i = phi ptr [ %incdec.ptr.i, %for.body.i ], [ %ilist.coerce0, %entry ]
  %call.i.i = tail call { ptr, i8 } @_ZN5eastl6rbtreeI10TestObjectS1_NS_4lessIS1_EENS_9allocatorENS_8use_selfIS1_EELb0ELb1EE13DoInsertValueIJRKS1_EEENS_4pairINS_15rbtree_iteratorIS1_PS9_SA_EEbEENS_17integral_constantIbLb1EEEDpOT_(ptr noundef nonnull align 8 dereferenceable(41) %this, ptr noundef nonnull align 8 dereferenceable(20) %first.addr.04.i)
  %incdec.ptr.i = getelementptr inbounds i8, ptr %first.addr.04.i, i64 24
  %cmp.not.i = icmp eq ptr %incdec.ptr.i, %add.ptr.i
  br i1 %cmp.not.i, label %_ZN5eastl6rbtreeI10TestObjectS1_NS_4lessIS1_EENS_9allocatorENS_8use_selfIS1_EELb0ELb1EEC2IPKS1_EET_SB_RKS3_RKS4_.exit, label %for.body.i, !llvm.loop !22

_ZN5eastl6rbtreeI10TestObjectS1_NS_4lessIS1_EENS_9allocatorENS_8use_selfIS1_EELb0ELb1EEC2IPKS1_EET_SB_RKS3_RKS4_.exit: ; preds = %for.body.i, %entry
  ret void
}

; Function Attrs: mustprogress uwtable
define weak_odr dso_local noundef nonnull align 8 dereferenceable(41) ptr @_ZN5eastl3setI10TestObjectNS_4lessIS1_EENS_9allocatorEEaSERKS5_(ptr noundef nonnull align 8 dereferenceable(41) %this, ptr noundef nonnull align 8 dereferenceable(41) %x) local_unnamed_addr #0 comdat align 2 {
entry:
  %cmp.not.i = icmp eq ptr %this, %x
  br i1 %cmp.not.i, label %_ZN5eastl6rbtreeI10TestObjectS1_NS_4lessIS1_EENS_9allocatorENS_8use_selfIS1_EELb0ELb1EEaSERKS7_.exit, label %if.then.i

if.then.i:                                        ; preds = %entry
  %mpNodeParent.i.i = getelementptr inbounds i8, ptr %this, i64 16
  %0 = load ptr, ptr %mpNodeParent.i.i, align 8
  tail call void @_ZN5eastl6rbtreeI10TestObjectS1_NS_4lessIS1_EENS_9allocatorENS_8use_selfIS1_EELb0ELb1EE13DoNukeSubtreeEPNS_16rbtree_node_baseE(ptr noundef nonnull align 8 dereferenceable(41) %this, ptr noundef %0)
  store ptr %this, ptr %this, align 8
  %mpNodeLeft.i.i.i = getelementptr inbounds i8, ptr %this, i64 8
  store ptr %this, ptr %mpNodeLeft.i.i.i, align 8
  store ptr null, ptr %mpNodeParent.i.i, align 8
  %mColor.i.i.i = getelementptr inbounds i8, ptr %this, i64 24
  store i8 0, ptr %mColor.i.i.i, align 8
  %mnSize.i.i.i = getelementptr inbounds i8, ptr %this, i64 32
  store i64 0, ptr %mnSize.i.i.i, align 8
  %mpNodeParent.i = getelementptr inbounds i8, ptr %x, i64 16
  %1 = load ptr, ptr %mpNodeParent.i, align 8
  %tobool.not.i = icmp eq ptr %1, null
  br i1 %tobool.not.i, label %_ZN5eastl6rbtreeI10TestObjectS1_NS_4lessIS1_EENS_9allocatorENS_8use_selfIS1_EELb0ELb1EEaSERKS7_.exit, label %if.then3.i

if.then3.i:                                       ; preds = %if.then.i
  %call7.i = tail call noundef ptr @_ZN5eastl6rbtreeI10TestObjectS1_NS_4lessIS1_EENS_9allocatorENS_8use_selfIS1_EELb0ELb1EE13DoCopySubtreeEPKNS_11rbtree_nodeIS1_EEPNS_16rbtree_node_baseE(ptr noundef nonnull align 8 dereferenceable(41) %this, ptr noundef nonnull %1, ptr noundef nonnull %this)
  store ptr %call7.i, ptr %mpNodeParent.i.i, align 8
  br label %while.cond.i.i

while.cond.i.i:                                   ; preds = %while.cond.i.i, %if.then3.i
  %pNodeBase.addr.0.i.i = phi ptr [ %call7.i, %if.then3.i ], [ %2, %while.cond.i.i ]
  %2 = load ptr, ptr %pNodeBase.addr.0.i.i, align 8
  %tobool.not.i.i = icmp eq ptr %2, null
  br i1 %tobool.not.i.i, label %_ZN5eastl17RBTreeGetMaxChildEPKNS_16rbtree_node_baseE.exit.i, label %while.cond.i.i, !llvm.loop !5

_ZN5eastl17RBTreeGetMaxChildEPKNS_16rbtree_node_baseE.exit.i: ; preds = %while.cond.i.i
  store ptr %pNodeBase.addr.0.i.i, ptr %this, align 8
  br label %while.cond.i5.i

while.cond.i5.i:                                  ; preds = %while.cond.i5.i, %_ZN5eastl17RBTreeGetMaxChildEPKNS_16rbtree_node_baseE.exit.i
  %pNodeBase.addr.0.i6.i = phi ptr [ %call7.i, %_ZN5eastl17RBTreeGetMaxChildEPKNS_16rbtree_node_baseE.exit.i ], [ %3, %while.cond.i5.i ]
  %mpNodeLeft.i.i = getelementptr inbounds i8, ptr %pNodeBase.addr.0.i6.i, i64 8
  %3 = load ptr, ptr %mpNodeLeft.i.i, align 8
  %tobool.not.i7.i = icmp eq ptr %3, null
  br i1 %tobool.not.i7.i, label %_ZN5eastl17RBTreeGetMinChildEPKNS_16rbtree_node_baseE.exit.i, label %while.cond.i5.i, !llvm.loop !7

_ZN5eastl17RBTreeGetMinChildEPKNS_16rbtree_node_baseE.exit.i: ; preds = %while.cond.i5.i
  store ptr %pNodeBase.addr.0.i6.i, ptr %mpNodeLeft.i.i.i, align 8
  %mnSize.i = getelementptr inbounds i8, ptr %x, i64 32
  %4 = load i64, ptr %mnSize.i, align 8
  store i64 %4, ptr %mnSize.i.i.i, align 8
  br label %_ZN5eastl6rbtreeI10TestObjectS1_NS_4lessIS1_EENS_9allocatorENS_8use_selfIS1_EELb0ELb1EEaSERKS7_.exit

_ZN5eastl6rbtreeI10TestObjectS1_NS_4lessIS1_EENS_9allocatorENS_8use_selfIS1_EELb0ELb1EEaSERKS7_.exit: ; preds = %entry, %if.then.i, %_ZN5eastl17RBTreeGetMinChildEPKNS_16rbtree_node_baseE.exit.i
  ret ptr %this
}

; Function Attrs: mustprogress uwtable
define weak_odr dso_local noundef nonnull align 8 dereferenceable(41) ptr @_ZN5eastl3setI10TestObjectNS_4lessIS1_EENS_9allocatorEEaSESt16initializer_listIS1_E(ptr noundef nonnull align 8 dereferenceable(41) %this, ptr %ilist.coerce0, i64 %ilist.coerce1) local_unnamed_addr #0 comdat align 2 {
entry:
  %mpNodeParent.i.i = getelementptr inbounds i8, ptr %this, i64 16
  %0 = load ptr, ptr %mpNodeParent.i.i, align 8
  tail call void @_ZN5eastl6rbtreeI10TestObjectS1_NS_4lessIS1_EENS_9allocatorENS_8use_selfIS1_EELb0ELb1EE13DoNukeSubtreeEPNS_16rbtree_node_baseE(ptr noundef nonnull align 8 dereferenceable(41) %this, ptr noundef %0)
  store ptr %this, ptr %this, align 8
  %mpNodeLeft.i.i.i = getelementptr inbounds i8, ptr %this, i64 8
  store ptr %this, ptr %mpNodeLeft.i.i.i, align 8
  store ptr null, ptr %mpNodeParent.i.i, align 8
  %mColor.i.i.i = getelementptr inbounds i8, ptr %this, i64 24
  store i8 0, ptr %mColor.i.i.i, align 8
  %mnSize.i.i.i = getelementptr inbounds i8, ptr %this, i64 32
  store i64 0, ptr %mnSize.i.i.i, align 8
  %add.ptr.i.i = getelementptr inbounds %struct.TestObject, ptr %ilist.coerce0, i64 %ilist.coerce1
  %cmp.not4.i = icmp eq i64 %ilist.coerce1, 0
  br i1 %cmp.not4.i, label %_ZN5eastl6rbtreeI10TestObjectS1_NS_4lessIS1_EENS_9allocatorENS_8use_selfIS1_EELb0ELb1EEaSESt16initializer_listIS1_E.exit, label %for.body.i

for.body.i:                                       ; preds = %entry, %for.body.i
  %it.05.i = phi ptr [ %incdec.ptr.i, %for.body.i ], [ %ilist.coerce0, %entry ]
  %call4.i = tail call { ptr, i8 } @_ZN5eastl6rbtreeI10TestObjectS1_NS_4lessIS1_EENS_9allocatorENS_8use_selfIS1_EELb0ELb1EE13DoInsertValueIJKS1_EEENS_4pairINS_15rbtree_iteratorIS1_PS9_RS9_EEbEENS_17integral_constantIbLb1EEEDpOT_(ptr noundef nonnull align 8 dereferenceable(41) %this, ptr noundef nonnull align 8 dereferenceable(20) %it.05.i)
  %incdec.ptr.i = getelementptr inbounds i8, ptr %it.05.i, i64 24
  %cmp.not.i = icmp eq ptr %incdec.ptr.i, %add.ptr.i.i
  br i1 %cmp.not.i, label %_ZN5eastl6rbtreeI10TestObjectS1_NS_4lessIS1_EENS_9allocatorENS_8use_selfIS1_EELb0ELb1EEaSESt16initializer_listIS1_E.exit, label %for.body.i, !llvm.loop !23

_ZN5eastl6rbtreeI10TestObjectS1_NS_4lessIS1_EENS_9allocatorENS_8use_selfIS1_EELb0ELb1EEaSESt16initializer_listIS1_E.exit: ; preds = %for.body.i, %entry
  ret ptr %this
}

; Function Attrs: mustprogress uwtable
define weak_odr dso_local noundef nonnull align 8 dereferenceable(41) ptr @_ZN5eastl3setI10TestObjectNS_4lessIS1_EENS_9allocatorEEaSEOS5_(ptr noundef nonnull align 8 dereferenceable(41) %this, ptr noundef nonnull align 8 dereferenceable(41) %x) local_unnamed_addr #0 comdat align 2 {
entry:
  %call2 = tail call noundef nonnull align 8 dereferenceable(41) ptr @_ZN5eastl6rbtreeI10TestObjectS1_NS_4lessIS1_EENS_9allocatorENS_8use_selfIS1_EELb0ELb1EEaSEOS7_(ptr noundef nonnull align 8 dereferenceable(41) %this, ptr noundef nonnull align 8 dereferenceable(41) %x)
  ret ptr %call2
}

; Function Attrs: mustprogress uwtable
define linkonce_odr dso_local noundef nonnull align 8 dereferenceable(41) ptr @_ZN5eastl6rbtreeI10TestObjectS1_NS_4lessIS1_EENS_9allocatorENS_8use_selfIS1_EELb0ELb1EEaSEOS7_(ptr noundef nonnull align 8 dereferenceable(41) %this, ptr noundef nonnull align 8 dereferenceable(41) %x) local_unnamed_addr #0 comdat align 2 {
entry:
  %cmp.not = icmp eq ptr %this, %x
  br i1 %cmp.not, label %if.end, label %if.then

if.then:                                          ; preds = %entry
  %mpNodeParent.i = getelementptr inbounds i8, ptr %this, i64 16
  %0 = load ptr, ptr %mpNodeParent.i, align 8
  tail call void @_ZN5eastl6rbtreeI10TestObjectS1_NS_4lessIS1_EENS_9allocatorENS_8use_selfIS1_EELb0ELb1EE13DoNukeSubtreeEPNS_16rbtree_node_baseE(ptr noundef nonnull align 8 dereferenceable(41) %this, ptr noundef %0)
  store ptr %this, ptr %this, align 8
  %mpNodeLeft.i.i = getelementptr inbounds i8, ptr %this, i64 8
  store ptr %this, ptr %mpNodeLeft.i.i, align 8
  store ptr null, ptr %mpNodeParent.i, align 8
  %mColor.i.i = getelementptr inbounds i8, ptr %this, i64 24
  store i8 0, ptr %mColor.i.i, align 8
  %mnSize.i.i = getelementptr inbounds i8, ptr %this, i64 32
  store i64 0, ptr %mnSize.i.i, align 8
  %mnSize2.i = getelementptr inbounds i8, ptr %x, i64 32
  %1 = load i64, ptr %mnSize2.i, align 8
  store i64 %1, ptr %mnSize.i.i, align 8
  store i64 0, ptr %mnSize2.i, align 8
  %2 = load ptr, ptr %mpNodeParent.i, align 8
  %tobool.not.i = icmp eq ptr %2, null
  %mpNodeParent56.i = getelementptr inbounds i8, ptr %x, i64 16
  %3 = load ptr, ptr %mpNodeParent56.i, align 8
  %tobool57.not.i = icmp eq ptr %3, null
  br i1 %tobool.not.i, label %if.else54.i, label %land.lhs.true.i

land.lhs.true.i:                                  ; preds = %if.then
  %4 = load ptr, ptr %this, align 8
  br i1 %tobool57.not.i, label %if.then29.i, label %if.then.i

if.then.i:                                        ; preds = %land.lhs.true.i
  %5 = load ptr, ptr %x, align 8
  store ptr %5, ptr %this, align 8
  store ptr %4, ptr %x, align 8
  %mpNodeLeft13.i = getelementptr inbounds i8, ptr %x, i64 8
  %6 = load ptr, ptr %mpNodeLeft.i.i, align 8
  %7 = load ptr, ptr %mpNodeLeft13.i, align 8
  store ptr %7, ptr %mpNodeLeft.i.i, align 8
  store ptr %6, ptr %mpNodeLeft13.i, align 8
  %8 = load ptr, ptr %mpNodeParent.i, align 8
  %9 = load ptr, ptr %mpNodeParent56.i, align 8
  store ptr %9, ptr %mpNodeParent.i, align 8
  store ptr %8, ptr %mpNodeParent56.i, align 8
  %10 = load ptr, ptr %mpNodeParent.i, align 8
  %mpNodeParent21.i = getelementptr inbounds i8, ptr %10, i64 16
  store ptr %this, ptr %mpNodeParent21.i, align 8
  %11 = load ptr, ptr %mpNodeParent56.i, align 8
  %mpNodeParent25.i = getelementptr inbounds i8, ptr %11, i64 16
  store ptr %x, ptr %mpNodeParent25.i, align 8
  br label %if.end

if.then29.i:                                      ; preds = %land.lhs.true.i
  store ptr %4, ptr %x, align 8
  %12 = load ptr, ptr %mpNodeLeft.i.i, align 8
  %mpNodeLeft37.i = getelementptr inbounds i8, ptr %x, i64 8
  store ptr %12, ptr %mpNodeLeft37.i, align 8
  %13 = load ptr, ptr %mpNodeParent.i, align 8
  store ptr %13, ptr %mpNodeParent56.i, align 8
  %mpNodeParent45.i = getelementptr inbounds i8, ptr %13, i64 16
  store ptr %x, ptr %mpNodeParent45.i, align 8
  store ptr %this, ptr %this, align 8
  store ptr %this, ptr %mpNodeLeft.i.i, align 8
  store ptr null, ptr %mpNodeParent.i, align 8
  br label %if.end

if.else54.i:                                      ; preds = %if.then
  br i1 %tobool57.not.i, label %if.end, label %if.then58.i

if.then58.i:                                      ; preds = %if.else54.i
  %14 = load ptr, ptr %x, align 8
  store ptr %14, ptr %this, align 8
  %mpNodeLeft64.i = getelementptr inbounds i8, ptr %x, i64 8
  %15 = load ptr, ptr %mpNodeLeft64.i, align 8
  store ptr %15, ptr %mpNodeLeft.i.i, align 8
  %16 = load ptr, ptr %mpNodeParent56.i, align 8
  store ptr %16, ptr %mpNodeParent.i, align 8
  %mpNodeParent74.i = getelementptr inbounds i8, ptr %16, i64 16
  store ptr %this, ptr %mpNodeParent74.i, align 8
  store ptr %x, ptr %x, align 8
  store ptr %x, ptr %mpNodeLeft64.i, align 8
  store ptr null, ptr %mpNodeParent56.i, align 8
  br label %if.end

if.end:                                           ; preds = %if.then58.i, %if.else54.i, %if.then29.i, %if.then.i, %entry
  ret ptr %this
}

; Function Attrs: mustprogress uwtable
define weak_odr dso_local void @_ZNK5eastl3setI10TestObjectNS_4lessIS1_EENS_9allocatorEE10value_compEv(ptr noundef nonnull align 8 dereferenceable(41) %this) local_unnamed_addr #0 comdat align 2 {
entry:
  ret void
}

; Function Attrs: mustprogress uwtable
define weak_odr dso_local noundef i64 @_ZN5eastl3setI10TestObjectNS_4lessIS1_EENS_9allocatorEE5eraseERKS1_(ptr noundef nonnull align 8 dereferenceable(41) %this, ptr noundef nonnull align 8 dereferenceable(20) %k) local_unnamed_addr #0 comdat align 2 personality ptr @__gxx_personality_v0 {
entry:
  %mpNodeParent.i = getelementptr inbounds i8, ptr %this, i64 16
  %pCurrent.09.i = load ptr, ptr %mpNodeParent.i, align 8
  %tobool.not10.i = icmp eq ptr %pCurrent.09.i, null
  br i1 %tobool.not10.i, label %return, label %while.body.lr.ph.i

while.body.lr.ph.i:                               ; preds = %entry
  %0 = load i32, ptr %k, align 8
  br label %while.body.i

while.body.i:                                     ; preds = %while.body.i, %while.body.lr.ph.i
  %pCurrent.012.i = phi ptr [ %pCurrent.09.i, %while.body.lr.ph.i ], [ %pCurrent.0.i, %while.body.i ]
  %pRangeEnd.011.i = phi ptr [ %this, %while.body.lr.ph.i ], [ %pRangeEnd.1.i, %while.body.i ]
  %mValue.i = getelementptr inbounds i8, ptr %pCurrent.012.i, i64 32
  %1 = load i32, ptr %mValue.i, align 8
  %cmp.i.i.i.i = icmp slt i32 %1, %0
  %pCurrent.1.in.idx.i = select i1 %cmp.i.i.i.i, i64 0, i64 8
  %pCurrent.1.in.i = getelementptr inbounds i8, ptr %pCurrent.012.i, i64 %pCurrent.1.in.idx.i
  %pRangeEnd.1.i = select i1 %cmp.i.i.i.i, ptr %pRangeEnd.011.i, ptr %pCurrent.012.i
  %pCurrent.0.i = load ptr, ptr %pCurrent.1.in.i, align 8
  %tobool.not.i = icmp eq ptr %pCurrent.0.i, null
  br i1 %tobool.not.i, label %while.end.i, label %while.body.i, !llvm.loop !24

while.end.i:                                      ; preds = %while.body.i
  %cmp.not.i = icmp eq ptr %pRangeEnd.1.i, %this
  br i1 %cmp.not.i, label %return, label %land.rhs.i

land.rhs.i:                                       ; preds = %while.end.i
  %mValue9.i = getelementptr inbounds i8, ptr %pRangeEnd.1.i, i64 32
  %2 = load i32, ptr %mValue9.i, align 8
  %cmp.i.i.i8.not.i.not = icmp slt i32 %0, %2
  br i1 %cmp.i.i.i8.not.i.not, label %return, label %if.then

if.then:                                          ; preds = %land.rhs.i
  %mnSize.i = getelementptr inbounds i8, ptr %this, i64 32
  %3 = load i64, ptr %mnSize.i, align 8
  %dec.i = add i64 %3, -1
  store i64 %dec.i, ptr %mnSize.i, align 8
  %call.i.i = tail call noundef ptr @_ZN5eastl15RBTreeIncrementEPKNS_16rbtree_node_baseE(ptr noundef nonnull %pRangeEnd.1.i)
  tail call void @_ZN5eastl11RBTreeEraseEPNS_16rbtree_node_baseES1_(ptr noundef nonnull %pRangeEnd.1.i, ptr noundef nonnull %this)
  %mMagicValue.i.i.i.i = getelementptr inbounds i8, ptr %pRangeEnd.1.i, i64 48
  %4 = load i32, ptr %mMagicValue.i.i.i.i, align 8
  %cmp.not.i.i.i.i = icmp eq i32 %4, 32623592
  br i1 %cmp.not.i.i.i.i, label %_ZN5eastl6rbtreeI10TestObjectS1_NS_4lessIS1_EENS_9allocatorENS_8use_selfIS1_EELb0ELb1EE5eraseENS_15rbtree_iteratorIS1_PKS1_RS9_EE.exit, label %if.then.i.i.i.i

if.then.i.i.i.i:                                  ; preds = %if.then
  %5 = load i32, ptr @_ZN10TestObject16sMagicErrorCountE, align 4
  %inc.i.i.i.i = add nsw i32 %5, 1
  store i32 %inc.i.i.i.i, ptr @_ZN10TestObject16sMagicErrorCountE, align 4
  br label %_ZN5eastl6rbtreeI10TestObjectS1_NS_4lessIS1_EENS_9allocatorENS_8use_selfIS1_EELb0ELb1EE5eraseENS_15rbtree_iteratorIS1_PKS1_RS9_EE.exit

_ZN5eastl6rbtreeI10TestObjectS1_NS_4lessIS1_EENS_9allocatorENS_8use_selfIS1_EELb0ELb1EE5eraseENS_15rbtree_iteratorIS1_PKS1_RS9_EE.exit: ; preds = %if.then, %if.then.i.i.i.i
  store i32 0, ptr %mMagicValue.i.i.i.i, align 8
  %6 = load i64, ptr @_ZN10TestObject8sTOCountE, align 8
  %dec.i.i.i.i = add nsw i64 %6, -1
  store i64 %dec.i.i.i.i, ptr @_ZN10TestObject8sTOCountE, align 8
  %7 = load i64, ptr @_ZN10TestObject12sTODtorCountE, align 8
  %inc3.i.i.i.i = add nsw i64 %7, 1
  store i64 %inc3.i.i.i.i, ptr @_ZN10TestObject12sTODtorCountE, align 8
  tail call void @_ZdaPv(ptr noundef nonnull %pRangeEnd.1.i) #12
  br label %return

return:                                           ; preds = %land.rhs.i, %while.end.i, %entry, %_ZN5eastl6rbtreeI10TestObjectS1_NS_4lessIS1_EENS_9allocatorENS_8use_selfIS1_EELb0ELb1EE5eraseENS_15rbtree_iteratorIS1_PKS1_RS9_EE.exit
  %retval.0 = phi i64 [ 1, %_ZN5eastl6rbtreeI10TestObjectS1_NS_4lessIS1_EENS_9allocatorENS_8use_selfIS1_EELb0ELb1EE5eraseENS_15rbtree_iteratorIS1_PKS1_RS9_EE.exit ], [ 0, %entry ], [ 0, %while.end.i ], [ 0, %land.rhs.i ]
  ret i64 %retval.0
}

; Function Attrs: mustprogress uwtable
define weak_odr dso_local ptr @_ZN5eastl3setI10TestObjectNS_4lessIS1_EENS_9allocatorEE5eraseENS_15rbtree_iteratorIS1_PKS1_RS7_EE(ptr noundef nonnull align 8 dereferenceable(41) %this, ptr %position.coerce) local_unnamed_addr #0 comdat align 2 {
entry:
  %mnSize.i = getelementptr inbounds i8, ptr %this, i64 32
  %0 = load i64, ptr %mnSize.i, align 8
  %dec.i = add i64 %0, -1
  store i64 %dec.i, ptr %mnSize.i, align 8
  %call.i.i = tail call noundef ptr @_ZN5eastl15RBTreeIncrementEPKNS_16rbtree_node_baseE(ptr noundef %position.coerce)
  tail call void @_ZN5eastl11RBTreeEraseEPNS_16rbtree_node_baseES1_(ptr noundef %position.coerce, ptr noundef nonnull %this)
  %mMagicValue.i.i.i.i = getelementptr inbounds i8, ptr %position.coerce, i64 48
  %1 = load i32, ptr %mMagicValue.i.i.i.i, align 8
  %cmp.not.i.i.i.i = icmp eq i32 %1, 32623592
  br i1 %cmp.not.i.i.i.i, label %_ZN5eastl6rbtreeI10TestObjectS1_NS_4lessIS1_EENS_9allocatorENS_8use_selfIS1_EELb0ELb1EE5eraseENS_15rbtree_iteratorIS1_PKS1_RS9_EE.exit, label %if.then.i.i.i.i

if.then.i.i.i.i:                                  ; preds = %entry
  %2 = load i32, ptr @_ZN10TestObject16sMagicErrorCountE, align 4
  %inc.i.i.i.i = add nsw i32 %2, 1
  store i32 %inc.i.i.i.i, ptr @_ZN10TestObject16sMagicErrorCountE, align 4
  br label %_ZN5eastl6rbtreeI10TestObjectS1_NS_4lessIS1_EENS_9allocatorENS_8use_selfIS1_EELb0ELb1EE5eraseENS_15rbtree_iteratorIS1_PKS1_RS9_EE.exit

_ZN5eastl6rbtreeI10TestObjectS1_NS_4lessIS1_EENS_9allocatorENS_8use_selfIS1_EELb0ELb1EE5eraseENS_15rbtree_iteratorIS1_PKS1_RS9_EE.exit: ; preds = %entry, %if.then.i.i.i.i
  store i32 0, ptr %mMagicValue.i.i.i.i, align 8
  %3 = load i64, ptr @_ZN10TestObject8sTOCountE, align 8
  %dec.i.i.i.i = add nsw i64 %3, -1
  store i64 %dec.i.i.i.i, ptr @_ZN10TestObject8sTOCountE, align 8
  %4 = load i64, ptr @_ZN10TestObject12sTODtorCountE, align 8
  %inc3.i.i.i.i = add nsw i64 %4, 1
  store i64 %inc3.i.i.i.i, ptr @_ZN10TestObject12sTODtorCountE, align 8
  tail call void @_ZdaPv(ptr noundef nonnull %position.coerce) #12
  ret ptr %call.i.i
}

; Function Attrs: mustprogress uwtable
define weak_odr dso_local ptr @_ZN5eastl3setI10TestObjectNS_4lessIS1_EENS_9allocatorEE5eraseENS_15rbtree_iteratorIS1_PKS1_RS7_EESA_(ptr noundef nonnull align 8 dereferenceable(41) %this, ptr %first.coerce, ptr %last.coerce) local_unnamed_addr #0 comdat align 2 {
entry:
  %call = tail call ptr @_ZN5eastl6rbtreeI10TestObjectS1_NS_4lessIS1_EENS_9allocatorENS_8use_selfIS1_EELb0ELb1EE5eraseENS_15rbtree_iteratorIS1_PKS1_RS9_EESC_(ptr noundef nonnull align 8 dereferenceable(41) %this, ptr %first.coerce, ptr %last.coerce)
  ret ptr %call
}

; Function Attrs: mustprogress uwtable
define linkonce_odr dso_local ptr @_ZN5eastl6rbtreeI10TestObjectS1_NS_4lessIS1_EENS_9allocatorENS_8use_selfIS1_EELb0ELb1EE5eraseENS_15rbtree_iteratorIS1_PKS1_RS9_EESC_(ptr noundef nonnull align 8 dereferenceable(41) %this, ptr %first.coerce, ptr %last.coerce) local_unnamed_addr #0 comdat align 2 {
entry:
  %mpNodeLeft = getelementptr inbounds i8, ptr %this, i64 8
  %0 = load ptr, ptr %mpNodeLeft, align 8
  %cmp = icmp ne ptr %0, %first.coerce
  %cmp5 = icmp ne ptr %last.coerce, %this
  %1 = select i1 %cmp, i1 true, i1 %cmp5
  br i1 %1, label %while.cond.preheader, label %if.end

while.cond.preheader:                             ; preds = %entry
  %cmp.i.not2 = icmp eq ptr %first.coerce, %last.coerce
  br i1 %cmp.i.not2, label %return, label %while.body.lr.ph

while.body.lr.ph:                                 ; preds = %while.cond.preheader
  %mnSize.i = getelementptr inbounds i8, ptr %this, i64 32
  br label %while.body

while.body:                                       ; preds = %while.body.lr.ph, %_ZN5eastl6rbtreeI10TestObjectS1_NS_4lessIS1_EENS_9allocatorENS_8use_selfIS1_EELb0ELb1EE5eraseENS_15rbtree_iteratorIS1_PKS1_RS9_EE.exit
  %first.sroa.0.03 = phi ptr [ %first.coerce, %while.body.lr.ph ], [ %call.i.i, %_ZN5eastl6rbtreeI10TestObjectS1_NS_4lessIS1_EENS_9allocatorENS_8use_selfIS1_EELb0ELb1EE5eraseENS_15rbtree_iteratorIS1_PKS1_RS9_EE.exit ]
  %2 = load i64, ptr %mnSize.i, align 8
  %dec.i = add i64 %2, -1
  store i64 %dec.i, ptr %mnSize.i, align 8
  %call.i.i = tail call noundef ptr @_ZN5eastl15RBTreeIncrementEPKNS_16rbtree_node_baseE(ptr noundef %first.sroa.0.03)
  tail call void @_ZN5eastl11RBTreeEraseEPNS_16rbtree_node_baseES1_(ptr noundef %first.sroa.0.03, ptr noundef nonnull %this)
  %mMagicValue.i.i.i.i = getelementptr inbounds i8, ptr %first.sroa.0.03, i64 48
  %3 = load i32, ptr %mMagicValue.i.i.i.i, align 8
  %cmp.not.i.i.i.i = icmp eq i32 %3, 32623592
  br i1 %cmp.not.i.i.i.i, label %_ZN5eastl6rbtreeI10TestObjectS1_NS_4lessIS1_EENS_9allocatorENS_8use_selfIS1_EELb0ELb1EE5eraseENS_15rbtree_iteratorIS1_PKS1_RS9_EE.exit, label %if.then.i.i.i.i

if.then.i.i.i.i:                                  ; preds = %while.body
  %4 = load i32, ptr @_ZN10TestObject16sMagicErrorCountE, align 4
  %inc.i.i.i.i = add nsw i32 %4, 1
  store i32 %inc.i.i.i.i, ptr @_ZN10TestObject16sMagicErrorCountE, align 4
  br label %_ZN5eastl6rbtreeI10TestObjectS1_NS_4lessIS1_EENS_9allocatorENS_8use_selfIS1_EELb0ELb1EE5eraseENS_15rbtree_iteratorIS1_PKS1_RS9_EE.exit

_ZN5eastl6rbtreeI10TestObjectS1_NS_4lessIS1_EENS_9allocatorENS_8use_selfIS1_EELb0ELb1EE5eraseENS_15rbtree_iteratorIS1_PKS1_RS9_EE.exit: ; preds = %while.body, %if.then.i.i.i.i
  store i32 0, ptr %mMagicValue.i.i.i.i, align 8
  %5 = load i64, ptr @_ZN10TestObject8sTOCountE, align 8
  %dec.i.i.i.i = add nsw i64 %5, -1
  store i64 %dec.i.i.i.i, ptr @_ZN10TestObject8sTOCountE, align 8
  %6 = load i64, ptr @_ZN10TestObject12sTODtorCountE, align 8
  %inc3.i.i.i.i = add nsw i64 %6, 1
  store i64 %inc3.i.i.i.i, ptr @_ZN10TestObject12sTODtorCountE, align 8
  tail call void @_ZdaPv(ptr noundef nonnull %first.sroa.0.03) #12
  %cmp.i.not = icmp eq ptr %call.i.i, %last.coerce
  br i1 %cmp.i.not, label %return, label %while.body, !llvm.loop !25

if.end:                                           ; preds = %entry
  %mpNodeParent.i = getelementptr inbounds i8, ptr %this, i64 16
  %7 = load ptr, ptr %mpNodeParent.i, align 8
  tail call void @_ZN5eastl6rbtreeI10TestObjectS1_NS_4lessIS1_EENS_9allocatorENS_8use_selfIS1_EELb0ELb1EE13DoNukeSubtreeEPNS_16rbtree_node_baseE(ptr noundef nonnull align 8 dereferenceable(41) %this, ptr noundef %7)
  store ptr %this, ptr %this, align 8
  store ptr %this, ptr %mpNodeLeft, align 8
  store ptr null, ptr %mpNodeParent.i, align 8
  %mColor.i.i = getelementptr inbounds i8, ptr %this, i64 24
  store i8 0, ptr %mColor.i.i, align 8
  %mnSize.i.i = getelementptr inbounds i8, ptr %this, i64 32
  store i64 0, ptr %mnSize.i.i, align 8
  br label %return

return:                                           ; preds = %_ZN5eastl6rbtreeI10TestObjectS1_NS_4lessIS1_EENS_9allocatorENS_8use_selfIS1_EELb0ELb1EE5eraseENS_15rbtree_iteratorIS1_PKS1_RS9_EE.exit, %while.cond.preheader, %if.end
  %retval.sroa.0.0 = phi ptr [ %this, %if.end ], [ %first.coerce, %while.cond.preheader ], [ %last.coerce, %_ZN5eastl6rbtreeI10TestObjectS1_NS_4lessIS1_EENS_9allocatorENS_8use_selfIS1_EELb0ELb1EE5eraseENS_15rbtree_iteratorIS1_PKS1_RS9_EE.exit ]
  ret ptr %retval.sroa.0.0
}

; Function Attrs: mustprogress uwtable
define weak_odr dso_local void @_ZN5eastl3setI10TestObjectNS_4lessIS1_EENS_9allocatorEE5eraseENS_16reverse_iteratorINS_15rbtree_iteratorIS1_PKS1_RS8_EEEE(ptr noalias sret(%"class.eastl::reverse_iterator.18") align 8 %agg.result, ptr noundef nonnull align 8 dereferenceable(41) %this, ptr noundef %position) local_unnamed_addr #0 comdat align 2 {
entry:
  %0 = load ptr, ptr %position, align 8
  %call.i.i = tail call noundef ptr @_ZN5eastl15RBTreeDecrementEPKNS_16rbtree_node_baseE(ptr noundef %0)
  store ptr %call.i.i, ptr %position, align 8
  %mnSize.i.i = getelementptr inbounds i8, ptr %this, i64 32
  %1 = load i64, ptr %mnSize.i.i, align 8
  %dec.i.i = add i64 %1, -1
  store i64 %dec.i.i, ptr %mnSize.i.i, align 8
  %call.i.i.i = tail call noundef ptr @_ZN5eastl15RBTreeIncrementEPKNS_16rbtree_node_baseE(ptr noundef %call.i.i)
  tail call void @_ZN5eastl11RBTreeEraseEPNS_16rbtree_node_baseES1_(ptr noundef %call.i.i, ptr noundef nonnull %this)
  %mMagicValue.i.i.i.i.i = getelementptr inbounds i8, ptr %call.i.i, i64 48
  %2 = load i32, ptr %mMagicValue.i.i.i.i.i, align 8
  %cmp.not.i.i.i.i.i = icmp eq i32 %2, 32623592
  br i1 %cmp.not.i.i.i.i.i, label %_ZN5eastl3setI10TestObjectNS_4lessIS1_EENS_9allocatorEE5eraseENS_15rbtree_iteratorIS1_PKS1_RS7_EE.exit, label %if.then.i.i.i.i.i

if.then.i.i.i.i.i:                                ; preds = %entry
  %3 = load i32, ptr @_ZN10TestObject16sMagicErrorCountE, align 4
  %inc.i.i.i.i.i = add nsw i32 %3, 1
  store i32 %inc.i.i.i.i.i, ptr @_ZN10TestObject16sMagicErrorCountE, align 4
  br label %_ZN5eastl3setI10TestObjectNS_4lessIS1_EENS_9allocatorEE5eraseENS_15rbtree_iteratorIS1_PKS1_RS7_EE.exit

_ZN5eastl3setI10TestObjectNS_4lessIS1_EENS_9allocatorEE5eraseENS_15rbtree_iteratorIS1_PKS1_RS7_EE.exit: ; preds = %entry, %if.then.i.i.i.i.i
  store i32 0, ptr %mMagicValue.i.i.i.i.i, align 8
  %4 = load i64, ptr @_ZN10TestObject8sTOCountE, align 8
  %dec.i.i.i.i.i = add nsw i64 %4, -1
  store i64 %dec.i.i.i.i.i, ptr @_ZN10TestObject8sTOCountE, align 8
  %5 = load i64, ptr @_ZN10TestObject12sTODtorCountE, align 8
  %inc3.i.i.i.i.i = add nsw i64 %5, 1
  store i64 %inc3.i.i.i.i.i, ptr @_ZN10TestObject12sTODtorCountE, align 8
  tail call void @_ZdaPv(ptr noundef nonnull %call.i.i) #12
  store ptr %call.i.i.i, ptr %agg.result, align 8
  ret void
}

; Function Attrs: mustprogress uwtable
define weak_odr dso_local void @_ZN5eastl3setI10TestObjectNS_4lessIS1_EENS_9allocatorEE5eraseENS_16reverse_iteratorINS_15rbtree_iteratorIS1_PKS1_RS8_EEEESC_(ptr noalias sret(%"class.eastl::reverse_iterator.18") align 8 %agg.result, ptr noundef nonnull align 8 dereferenceable(41) %this, ptr noundef %first, ptr noundef %last) local_unnamed_addr #0 comdat align 2 {
entry:
  %0 = load ptr, ptr %last, align 8
  %call.i.i = tail call noundef ptr @_ZN5eastl15RBTreeDecrementEPKNS_16rbtree_node_baseE(ptr noundef %0)
  store ptr %call.i.i, ptr %last, align 8
  %1 = load ptr, ptr %first, align 8
  %call.i.i1 = tail call noundef ptr @_ZN5eastl15RBTreeDecrementEPKNS_16rbtree_node_baseE(ptr noundef %1)
  store ptr %call.i.i1, ptr %first, align 8
  %call.i = tail call ptr @_ZN5eastl6rbtreeI10TestObjectS1_NS_4lessIS1_EENS_9allocatorENS_8use_selfIS1_EELb0ELb1EE5eraseENS_15rbtree_iteratorIS1_PKS1_RS9_EESC_(ptr noundef nonnull align 8 dereferenceable(41) %this, ptr %call.i.i, ptr %call.i.i1)
  store ptr %call.i, ptr %agg.result, align 8
  ret void
}

; Function Attrs: mustprogress uwtable
define weak_odr dso_local noundef i64 @_ZNK5eastl3setI10TestObjectNS_4lessIS1_EENS_9allocatorEE5countERKS1_(ptr noundef nonnull align 8 dereferenceable(41) %this, ptr noundef nonnull align 8 dereferenceable(20) %k) local_unnamed_addr #0 comdat align 2 personality ptr @__gxx_personality_v0 {
entry:
  %mpNodeParent.i.i = getelementptr inbounds i8, ptr %this, i64 16
  %pCurrent.09.i.i = load ptr, ptr %mpNodeParent.i.i, align 8
  %tobool.not10.i.i = icmp eq ptr %pCurrent.09.i.i, null
  br i1 %tobool.not10.i.i, label %if.end16.i.i, label %while.body.lr.ph.i.i

while.body.lr.ph.i.i:                             ; preds = %entry
  %0 = load i32, ptr %k, align 8
  br label %while.body.i.i

while.body.i.i:                                   ; preds = %while.body.i.i, %while.body.lr.ph.i.i
  %pCurrent.012.i.i = phi ptr [ %pCurrent.09.i.i, %while.body.lr.ph.i.i ], [ %pCurrent.0.i.i, %while.body.i.i ]
  %pRangeEnd.011.i.i = phi ptr [ %this, %while.body.lr.ph.i.i ], [ %pRangeEnd.1.i.i, %while.body.i.i ]
  %mValue.i.i = getelementptr inbounds i8, ptr %pCurrent.012.i.i, i64 32
  %1 = load i32, ptr %mValue.i.i, align 8
  %cmp.i.i.i.i.i = icmp slt i32 %1, %0
  %pCurrent.1.in.idx.i.i = select i1 %cmp.i.i.i.i.i, i64 0, i64 8
  %pCurrent.1.in.i.i = getelementptr inbounds i8, ptr %pCurrent.012.i.i, i64 %pCurrent.1.in.idx.i.i
  %pRangeEnd.1.i.i = select i1 %cmp.i.i.i.i.i, ptr %pRangeEnd.011.i.i, ptr %pCurrent.012.i.i
  %pCurrent.0.i.i = load ptr, ptr %pCurrent.1.in.i.i, align 8
  %tobool.not.i.i = icmp eq ptr %pCurrent.0.i.i, null
  br i1 %tobool.not.i.i, label %while.end.i.i, label %while.body.i.i, !llvm.loop !24

while.end.i.i:                                    ; preds = %while.body.i.i
  %cmp.not.i.i = icmp eq ptr %pRangeEnd.1.i.i, %this
  br i1 %cmp.not.i.i, label %if.end16.i.i, label %land.rhs.i.i

land.rhs.i.i:                                     ; preds = %while.end.i.i
  %mValue9.i.i = getelementptr inbounds i8, ptr %pRangeEnd.1.i.i, i64 32
  %2 = load i32, ptr %mValue9.i.i, align 8
  %cmp.i.i.i8.not.i.i = icmp slt i32 %0, %2
  br i1 %cmp.i.i.i8.not.i.i, label %if.end16.i.i, label %_ZNK5eastl6rbtreeI10TestObjectS1_NS_4lessIS1_EENS_9allocatorENS_8use_selfIS1_EELb0ELb1EE4findERKS1_.exit

if.end16.i.i:                                     ; preds = %land.rhs.i.i, %while.end.i.i, %entry
  br label %_ZNK5eastl6rbtreeI10TestObjectS1_NS_4lessIS1_EENS_9allocatorENS_8use_selfIS1_EELb0ELb1EE4findERKS1_.exit

_ZNK5eastl6rbtreeI10TestObjectS1_NS_4lessIS1_EENS_9allocatorENS_8use_selfIS1_EELb0ELb1EE4findERKS1_.exit: ; preds = %land.rhs.i.i, %if.end16.i.i
  %retval.sroa.0.0.i.i = phi ptr [ %this, %if.end16.i.i ], [ %pRangeEnd.1.i.i, %land.rhs.i.i ]
  %cmp.i = icmp ne ptr %retval.sroa.0.0.i.i, %this
  %cond = zext i1 %cmp.i to i64
  ret i64 %cond
}

; Function Attrs: mustprogress uwtable
define weak_odr dso_local { ptr, ptr } @_ZN5eastl3setI10TestObjectNS_4lessIS1_EENS_9allocatorEE11equal_rangeERKS1_(ptr noundef nonnull align 8 dereferenceable(41) %this, ptr noundef nonnull align 8 dereferenceable(20) %k) local_unnamed_addr #0 comdat align 2 personality ptr @__gxx_personality_v0 {
entry:
  %mpNodeParent.i = getelementptr inbounds i8, ptr %this, i64 16
  %pCurrent.05.i = load ptr, ptr %mpNodeParent.i, align 8
  %tobool.not6.i = icmp eq ptr %pCurrent.05.i, null
  br i1 %tobool.not6.i, label %return, label %while.body.lr.ph.i

while.body.lr.ph.i:                               ; preds = %entry
  %0 = load i32, ptr %k, align 8
  br label %while.body.i

while.body.i:                                     ; preds = %while.body.i, %while.body.lr.ph.i
  %pCurrent.08.i = phi ptr [ %pCurrent.05.i, %while.body.lr.ph.i ], [ %pCurrent.0.i, %while.body.i ]
  %pRangeEnd.07.i = phi ptr [ %this, %while.body.lr.ph.i ], [ %pRangeEnd.1.i, %while.body.i ]
  %mValue.i = getelementptr inbounds i8, ptr %pCurrent.08.i, i64 32
  %1 = load i32, ptr %mValue.i, align 8
  %cmp.i.i.i.i = icmp slt i32 %1, %0
  %pCurrent.1.in.idx.i = select i1 %cmp.i.i.i.i, i64 0, i64 8
  %pCurrent.1.in.i = getelementptr inbounds i8, ptr %pCurrent.08.i, i64 %pCurrent.1.in.idx.i
  %pRangeEnd.1.i = select i1 %cmp.i.i.i.i, ptr %pRangeEnd.07.i, ptr %pCurrent.08.i
  %pCurrent.0.i = load ptr, ptr %pCurrent.1.in.i, align 8
  %tobool.not.i = icmp eq ptr %pCurrent.0.i, null
  br i1 %tobool.not.i, label %_ZN5eastl6rbtreeI10TestObjectS1_NS_4lessIS1_EENS_9allocatorENS_8use_selfIS1_EELb0ELb1EE11lower_boundERKS1_.exit, label %while.body.i, !llvm.loop !26

_ZN5eastl6rbtreeI10TestObjectS1_NS_4lessIS1_EENS_9allocatorENS_8use_selfIS1_EELb0ELb1EE11lower_boundERKS1_.exit: ; preds = %while.body.i
  %cmp.i = icmp eq ptr %pRangeEnd.1.i, %this
  br i1 %cmp.i, label %return, label %lor.rhs

lor.rhs:                                          ; preds = %_ZN5eastl6rbtreeI10TestObjectS1_NS_4lessIS1_EENS_9allocatorENS_8use_selfIS1_EELb0ELb1EE11lower_boundERKS1_.exit
  %mValue.i2 = getelementptr inbounds i8, ptr %pRangeEnd.1.i, i64 32
  %2 = load i32, ptr %mValue.i2, align 8
  %cmp.i.i.i = icmp slt i32 %0, %2
  br i1 %cmp.i.i.i, label %return, label %if.end

if.end:                                           ; preds = %lor.rhs
  %call.i = tail call noundef ptr @_ZN5eastl15RBTreeIncrementEPKNS_16rbtree_node_baseE(ptr noundef nonnull %pRangeEnd.1.i)
  br label %return

return:                                           ; preds = %lor.rhs, %_ZN5eastl6rbtreeI10TestObjectS1_NS_4lessIS1_EENS_9allocatorENS_8use_selfIS1_EELb0ELb1EE11lower_boundERKS1_.exit, %entry, %if.end
  %retval.sroa.0.0 = phi ptr [ %pRangeEnd.1.i, %if.end ], [ %this, %_ZN5eastl6rbtreeI10TestObjectS1_NS_4lessIS1_EENS_9allocatorENS_8use_selfIS1_EELb0ELb1EE11lower_boundERKS1_.exit ], [ %pRangeEnd.1.i, %lor.rhs ], [ %this, %entry ]
  %retval.sroa.3.0 = phi ptr [ %call.i, %if.end ], [ %this, %_ZN5eastl6rbtreeI10TestObjectS1_NS_4lessIS1_EENS_9allocatorENS_8use_selfIS1_EELb0ELb1EE11lower_boundERKS1_.exit ], [ %pRangeEnd.1.i, %lor.rhs ], [ %this, %entry ]
  %.fca.0.insert = insertvalue { ptr, ptr } poison, ptr %retval.sroa.0.0, 0
  %.fca.1.insert = insertvalue { ptr, ptr } %.fca.0.insert, ptr %retval.sroa.3.0, 1
  ret { ptr, ptr } %.fca.1.insert
}

; Function Attrs: mustprogress uwtable
define weak_odr dso_local { ptr, ptr } @_ZNK5eastl3setI10TestObjectNS_4lessIS1_EENS_9allocatorEE11equal_rangeERKS1_(ptr noundef nonnull align 8 dereferenceable(41) %this, ptr noundef nonnull align 8 dereferenceable(20) %k) local_unnamed_addr #0 comdat align 2 personality ptr @__gxx_personality_v0 {
entry:
  %mpNodeParent.i.i = getelementptr inbounds i8, ptr %this, i64 16
  %pCurrent.05.i.i = load ptr, ptr %mpNodeParent.i.i, align 8
  %tobool.not6.i.i = icmp eq ptr %pCurrent.05.i.i, null
  br i1 %tobool.not6.i.i, label %return, label %while.body.lr.ph.i.i

while.body.lr.ph.i.i:                             ; preds = %entry
  %0 = load i32, ptr %k, align 8
  br label %while.body.i.i

while.body.i.i:                                   ; preds = %while.body.i.i, %while.body.lr.ph.i.i
  %pCurrent.08.i.i = phi ptr [ %pCurrent.05.i.i, %while.body.lr.ph.i.i ], [ %pCurrent.0.i.i, %while.body.i.i ]
  %pRangeEnd.07.i.i = phi ptr [ %this, %while.body.lr.ph.i.i ], [ %pRangeEnd.1.i.i, %while.body.i.i ]
  %mValue.i.i = getelementptr inbounds i8, ptr %pCurrent.08.i.i, i64 32
  %1 = load i32, ptr %mValue.i.i, align 8
  %cmp.i.i.i.i.i = icmp slt i32 %1, %0
  %pCurrent.1.in.idx.i.i = select i1 %cmp.i.i.i.i.i, i64 0, i64 8
  %pCurrent.1.in.i.i = getelementptr inbounds i8, ptr %pCurrent.08.i.i, i64 %pCurrent.1.in.idx.i.i
  %pRangeEnd.1.i.i = select i1 %cmp.i.i.i.i.i, ptr %pRangeEnd.07.i.i, ptr %pCurrent.08.i.i
  %pCurrent.0.i.i = load ptr, ptr %pCurrent.1.in.i.i, align 8
  %tobool.not.i.i = icmp eq ptr %pCurrent.0.i.i, null
  br i1 %tobool.not.i.i, label %_ZNK5eastl6rbtreeI10TestObjectS1_NS_4lessIS1_EENS_9allocatorENS_8use_selfIS1_EELb0ELb1EE11lower_boundERKS1_.exit, label %while.body.i.i, !llvm.loop !26

_ZNK5eastl6rbtreeI10TestObjectS1_NS_4lessIS1_EENS_9allocatorENS_8use_selfIS1_EELb0ELb1EE11lower_boundERKS1_.exit: ; preds = %while.body.i.i
  %cmp.i = icmp eq ptr %pRangeEnd.1.i.i, %this
  br i1 %cmp.i, label %return, label %lor.rhs

lor.rhs:                                          ; preds = %_ZNK5eastl6rbtreeI10TestObjectS1_NS_4lessIS1_EENS_9allocatorENS_8use_selfIS1_EELb0ELb1EE11lower_boundERKS1_.exit
  %mValue.i = getelementptr inbounds i8, ptr %pRangeEnd.1.i.i, i64 32
  %2 = load i32, ptr %mValue.i, align 8
  %cmp.i.i.i = icmp slt i32 %0, %2
  br i1 %cmp.i.i.i, label %return, label %if.end

if.end:                                           ; preds = %lor.rhs
  %call.i = tail call noundef ptr @_ZN5eastl15RBTreeIncrementEPKNS_16rbtree_node_baseE(ptr noundef nonnull %pRangeEnd.1.i.i)
  br label %return

return:                                           ; preds = %lor.rhs, %_ZNK5eastl6rbtreeI10TestObjectS1_NS_4lessIS1_EENS_9allocatorENS_8use_selfIS1_EELb0ELb1EE11lower_boundERKS1_.exit, %entry, %if.end
  %retval.sroa.0.0 = phi ptr [ %pRangeEnd.1.i.i, %if.end ], [ %this, %_ZNK5eastl6rbtreeI10TestObjectS1_NS_4lessIS1_EENS_9allocatorENS_8use_selfIS1_EELb0ELb1EE11lower_boundERKS1_.exit ], [ %pRangeEnd.1.i.i, %lor.rhs ], [ %this, %entry ]
  %retval.sroa.3.0 = phi ptr [ %call.i, %if.end ], [ %this, %_ZNK5eastl6rbtreeI10TestObjectS1_NS_4lessIS1_EENS_9allocatorENS_8use_selfIS1_EELb0ELb1EE11lower_boundERKS1_.exit ], [ %pRangeEnd.1.i.i, %lor.rhs ], [ %this, %entry ]
  %.fca.0.insert = insertvalue { ptr, ptr } poison, ptr %retval.sroa.0.0, 0
  %.fca.1.insert = insertvalue { ptr, ptr } %.fca.0.insert, ptr %retval.sroa.3.0, 1
  ret { ptr, ptr } %.fca.1.insert
}

; Function Attrs: mustprogress uwtable
define weak_odr dso_local void @_ZN5eastl8multisetI10TestObjectNS_4lessIS1_EENS_9allocatorEEC2ERKS4_(ptr noundef nonnull align 8 dereferenceable(41) %this, ptr noundef nonnull align 1 dereferenceable(1) %allocator) unnamed_addr #0 comdat($_ZN5eastl8multisetI10TestObjectNS_4lessIS1_EENS_9allocatorEEC5ERKS4_) align 2 {
entry:
  %mnSize.i = getelementptr inbounds i8, ptr %this, i64 32
  %0 = getelementptr inbounds i8, ptr %this, i64 24
  store i64 0, ptr %0, align 8
  store ptr %this, ptr %this, align 8
  %mpNodeLeft.i.i = getelementptr inbounds i8, ptr %this, i64 8
  store ptr %this, ptr %mpNodeLeft.i.i, align 8
  %mpNodeParent.i.i = getelementptr inbounds i8, ptr %this, i64 16
  store ptr null, ptr %mpNodeParent.i.i, align 8
  store i64 0, ptr %mnSize.i, align 8
  ret void
}

; Function Attrs: mustprogress uwtable
define weak_odr dso_local void @_ZN5eastl8multisetI10TestObjectNS_4lessIS1_EENS_9allocatorEEC2ERKS3_RKS4_(ptr noundef nonnull align 8 dereferenceable(41) %this, ptr noundef nonnull align 1 dereferenceable(1) %compare, ptr noundef nonnull align 1 dereferenceable(1) %allocator) unnamed_addr #0 comdat($_ZN5eastl8multisetI10TestObjectNS_4lessIS1_EENS_9allocatorEEC5ERKS3_RKS4_) align 2 {
entry:
  %mnSize.i = getelementptr inbounds i8, ptr %this, i64 32
  %0 = getelementptr inbounds i8, ptr %this, i64 24
  store i64 0, ptr %0, align 8
  store ptr %this, ptr %this, align 8
  %mpNodeLeft.i.i = getelementptr inbounds i8, ptr %this, i64 8
  store ptr %this, ptr %mpNodeLeft.i.i, align 8
  %mpNodeParent.i.i = getelementptr inbounds i8, ptr %this, i64 16
  store ptr null, ptr %mpNodeParent.i.i, align 8
  store i64 0, ptr %mnSize.i, align 8
  ret void
}

; Function Attrs: mustprogress uwtable
define weak_odr dso_local void @_ZN5eastl8multisetI10TestObjectNS_4lessIS1_EENS_9allocatorEEC2ERKS5_(ptr noundef nonnull align 8 dereferenceable(41) %this, ptr noundef nonnull align 8 dereferenceable(41) %x) unnamed_addr #0 comdat($_ZN5eastl8multisetI10TestObjectNS_4lessIS1_EENS_9allocatorEEC5ERKS5_) align 2 {
entry:
  %mnSize.i = getelementptr inbounds i8, ptr %this, i64 32
  %0 = getelementptr inbounds i8, ptr %this, i64 24
  store i64 0, ptr %0, align 8
  store ptr %this, ptr %this, align 8
  %mpNodeLeft.i.i = getelementptr inbounds i8, ptr %this, i64 8
  store ptr %this, ptr %mpNodeLeft.i.i, align 8
  %mpNodeParent.i.i = getelementptr inbounds i8, ptr %this, i64 16
  store ptr null, ptr %mpNodeParent.i.i, align 8
  store i64 0, ptr %mnSize.i, align 8
  %mpNodeParent.i = getelementptr inbounds i8, ptr %x, i64 16
  %1 = load ptr, ptr %mpNodeParent.i, align 8
  %tobool.not.i = icmp eq ptr %1, null
  br i1 %tobool.not.i, label %_ZN5eastl6rbtreeI10TestObjectS1_NS_4lessIS1_EENS_9allocatorENS_8use_selfIS1_EELb0ELb0EEC2ERKS7_.exit, label %if.then.i

if.then.i:                                        ; preds = %entry
  %call7.i = tail call noundef ptr @_ZN5eastl6rbtreeI10TestObjectS1_NS_4lessIS1_EENS_9allocatorENS_8use_selfIS1_EELb0ELb0EE13DoCopySubtreeEPKNS_11rbtree_nodeIS1_EEPNS_16rbtree_node_baseE(ptr noundef nonnull align 8 dereferenceable(41) %this, ptr noundef nonnull %1, ptr noundef nonnull %this)
  store ptr %call7.i, ptr %mpNodeParent.i.i, align 8
  br label %while.cond.i.i

while.cond.i.i:                                   ; preds = %while.cond.i.i, %if.then.i
  %pNodeBase.addr.0.i.i = phi ptr [ %call7.i, %if.then.i ], [ %2, %while.cond.i.i ]
  %2 = load ptr, ptr %pNodeBase.addr.0.i.i, align 8
  %tobool.not.i.i = icmp eq ptr %2, null
  br i1 %tobool.not.i.i, label %_ZN5eastl17RBTreeGetMaxChildEPKNS_16rbtree_node_baseE.exit.i, label %while.cond.i.i, !llvm.loop !5

_ZN5eastl17RBTreeGetMaxChildEPKNS_16rbtree_node_baseE.exit.i: ; preds = %while.cond.i.i
  store ptr %pNodeBase.addr.0.i.i, ptr %this, align 8
  br label %while.cond.i5.i

while.cond.i5.i:                                  ; preds = %while.cond.i5.i, %_ZN5eastl17RBTreeGetMaxChildEPKNS_16rbtree_node_baseE.exit.i
  %pNodeBase.addr.0.i6.i = phi ptr [ %call7.i, %_ZN5eastl17RBTreeGetMaxChildEPKNS_16rbtree_node_baseE.exit.i ], [ %3, %while.cond.i5.i ]
  %mpNodeLeft.i7.i = getelementptr inbounds i8, ptr %pNodeBase.addr.0.i6.i, i64 8
  %3 = load ptr, ptr %mpNodeLeft.i7.i, align 8
  %tobool.not.i8.i = icmp eq ptr %3, null
  br i1 %tobool.not.i8.i, label %_ZN5eastl17RBTreeGetMinChildEPKNS_16rbtree_node_baseE.exit.i, label %while.cond.i5.i, !llvm.loop !7

_ZN5eastl17RBTreeGetMinChildEPKNS_16rbtree_node_baseE.exit.i: ; preds = %while.cond.i5.i
  store ptr %pNodeBase.addr.0.i6.i, ptr %mpNodeLeft.i.i, align 8
  %mnSize18.i = getelementptr inbounds i8, ptr %x, i64 32
  %4 = load i64, ptr %mnSize18.i, align 8
  store i64 %4, ptr %mnSize.i, align 8
  br label %_ZN5eastl6rbtreeI10TestObjectS1_NS_4lessIS1_EENS_9allocatorENS_8use_selfIS1_EELb0ELb0EEC2ERKS7_.exit

_ZN5eastl6rbtreeI10TestObjectS1_NS_4lessIS1_EENS_9allocatorENS_8use_selfIS1_EELb0ELb0EEC2ERKS7_.exit: ; preds = %entry, %_ZN5eastl17RBTreeGetMinChildEPKNS_16rbtree_node_baseE.exit.i
  ret void
}

; Function Attrs: mustprogress uwtable
define weak_odr dso_local void @_ZN5eastl8multisetI10TestObjectNS_4lessIS1_EENS_9allocatorEEC2EOS5_(ptr noundef nonnull align 8 dereferenceable(41) %this, ptr noundef nonnull align 8 dereferenceable(41) %x) unnamed_addr #0 comdat($_ZN5eastl8multisetI10TestObjectNS_4lessIS1_EENS_9allocatorEEC5EOS5_) align 2 {
entry:
  %mnSize.i = getelementptr inbounds i8, ptr %this, i64 32
  %0 = getelementptr inbounds i8, ptr %this, i64 24
  store i64 0, ptr %0, align 8
  store ptr %this, ptr %this, align 8
  %mpNodeLeft.i.i = getelementptr inbounds i8, ptr %this, i64 8
  store ptr %this, ptr %mpNodeLeft.i.i, align 8
  %mpNodeParent.i.i = getelementptr inbounds i8, ptr %this, i64 16
  store ptr null, ptr %mpNodeParent.i.i, align 8
  store i64 0, ptr %mnSize.i, align 8
  %mnSize2.i.i = getelementptr inbounds i8, ptr %x, i64 32
  %1 = load i64, ptr %mnSize2.i.i, align 8
  store i64 %1, ptr %mnSize.i, align 8
  store i64 0, ptr %mnSize2.i.i, align 8
  %2 = load ptr, ptr %mpNodeParent.i.i, align 8
  %tobool.not.i.i = icmp eq ptr %2, null
  %mpNodeParent56.i.i = getelementptr inbounds i8, ptr %x, i64 16
  %3 = load ptr, ptr %mpNodeParent56.i.i, align 8
  %tobool57.not.i.i = icmp eq ptr %3, null
  br i1 %tobool.not.i.i, label %if.else54.i.i, label %land.lhs.true.i.i

land.lhs.true.i.i:                                ; preds = %entry
  %4 = load ptr, ptr %this, align 8
  br i1 %tobool57.not.i.i, label %if.then29.i.i, label %if.then.i.i

if.then.i.i:                                      ; preds = %land.lhs.true.i.i
  %5 = load ptr, ptr %x, align 8
  store ptr %5, ptr %this, align 8
  store ptr %4, ptr %x, align 8
  %mpNodeLeft13.i.i = getelementptr inbounds i8, ptr %x, i64 8
  %6 = load ptr, ptr %mpNodeLeft.i.i, align 8
  %7 = load ptr, ptr %mpNodeLeft13.i.i, align 8
  store ptr %7, ptr %mpNodeLeft.i.i, align 8
  store ptr %6, ptr %mpNodeLeft13.i.i, align 8
  %8 = load ptr, ptr %mpNodeParent.i.i, align 8
  %9 = load ptr, ptr %mpNodeParent56.i.i, align 8
  store ptr %9, ptr %mpNodeParent.i.i, align 8
  store ptr %8, ptr %mpNodeParent56.i.i, align 8
  %10 = load ptr, ptr %mpNodeParent.i.i, align 8
  %mpNodeParent21.i.i = getelementptr inbounds i8, ptr %10, i64 16
  store ptr %this, ptr %mpNodeParent21.i.i, align 8
  %11 = load ptr, ptr %mpNodeParent56.i.i, align 8
  %mpNodeParent25.i.i = getelementptr inbounds i8, ptr %11, i64 16
  store ptr %x, ptr %mpNodeParent25.i.i, align 8
  br label %_ZN5eastl6rbtreeI10TestObjectS1_NS_4lessIS1_EENS_9allocatorENS_8use_selfIS1_EELb0ELb0EEC2EOS7_.exit

if.then29.i.i:                                    ; preds = %land.lhs.true.i.i
  store ptr %4, ptr %x, align 8
  %12 = load ptr, ptr %mpNodeLeft.i.i, align 8
  %mpNodeLeft37.i.i = getelementptr inbounds i8, ptr %x, i64 8
  store ptr %12, ptr %mpNodeLeft37.i.i, align 8
  %13 = load ptr, ptr %mpNodeParent.i.i, align 8
  store ptr %13, ptr %mpNodeParent56.i.i, align 8
  %mpNodeParent45.i.i = getelementptr inbounds i8, ptr %13, i64 16
  store ptr %x, ptr %mpNodeParent45.i.i, align 8
  store ptr %this, ptr %this, align 8
  store ptr %this, ptr %mpNodeLeft.i.i, align 8
  store ptr null, ptr %mpNodeParent.i.i, align 8
  br label %_ZN5eastl6rbtreeI10TestObjectS1_NS_4lessIS1_EENS_9allocatorENS_8use_selfIS1_EELb0ELb0EEC2EOS7_.exit

if.else54.i.i:                                    ; preds = %entry
  br i1 %tobool57.not.i.i, label %_ZN5eastl6rbtreeI10TestObjectS1_NS_4lessIS1_EENS_9allocatorENS_8use_selfIS1_EELb0ELb0EEC2EOS7_.exit, label %if.then58.i.i

if.then58.i.i:                                    ; preds = %if.else54.i.i
  %14 = load ptr, ptr %x, align 8
  store ptr %14, ptr %this, align 8
  %mpNodeLeft64.i.i = getelementptr inbounds i8, ptr %x, i64 8
  %15 = load ptr, ptr %mpNodeLeft64.i.i, align 8
  store ptr %15, ptr %mpNodeLeft.i.i, align 8
  %16 = load ptr, ptr %mpNodeParent56.i.i, align 8
  store ptr %16, ptr %mpNodeParent.i.i, align 8
  %mpNodeParent74.i.i = getelementptr inbounds i8, ptr %16, i64 16
  store ptr %this, ptr %mpNodeParent74.i.i, align 8
  store ptr %x, ptr %x, align 8
  store ptr %x, ptr %mpNodeLeft64.i.i, align 8
  store ptr null, ptr %mpNodeParent56.i.i, align 8
  br label %_ZN5eastl6rbtreeI10TestObjectS1_NS_4lessIS1_EENS_9allocatorENS_8use_selfIS1_EELb0ELb0EEC2EOS7_.exit

_ZN5eastl6rbtreeI10TestObjectS1_NS_4lessIS1_EENS_9allocatorENS_8use_selfIS1_EELb0ELb0EEC2EOS7_.exit: ; preds = %if.then.i.i, %if.then29.i.i, %if.else54.i.i, %if.then58.i.i
  ret void
}

; Function Attrs: mustprogress uwtable
define weak_odr dso_local void @_ZN5eastl8multisetI10TestObjectNS_4lessIS1_EENS_9allocatorEEC2EOS5_RKS4_(ptr noundef nonnull align 8 dereferenceable(41) %this, ptr noundef nonnull align 8 dereferenceable(41) %x, ptr noundef nonnull align 1 dereferenceable(1) %allocator) unnamed_addr #0 comdat($_ZN5eastl8multisetI10TestObjectNS_4lessIS1_EENS_9allocatorEEC5EOS5_RKS4_) align 2 {
entry:
  %mnSize.i = getelementptr inbounds i8, ptr %this, i64 32
  %0 = getelementptr inbounds i8, ptr %this, i64 24
  store i64 0, ptr %0, align 8
  store ptr %this, ptr %this, align 8
  %mpNodeLeft.i.i = getelementptr inbounds i8, ptr %this, i64 8
  store ptr %this, ptr %mpNodeLeft.i.i, align 8
  %mpNodeParent.i.i = getelementptr inbounds i8, ptr %this, i64 16
  store ptr null, ptr %mpNodeParent.i.i, align 8
  store i64 0, ptr %mnSize.i, align 8
  %mnSize2.i.i = getelementptr inbounds i8, ptr %x, i64 32
  %1 = load i64, ptr %mnSize2.i.i, align 8
  store i64 %1, ptr %mnSize.i, align 8
  store i64 0, ptr %mnSize2.i.i, align 8
  %2 = load ptr, ptr %mpNodeParent.i.i, align 8
  %tobool.not.i.i = icmp eq ptr %2, null
  %mpNodeParent56.i.i = getelementptr inbounds i8, ptr %x, i64 16
  %3 = load ptr, ptr %mpNodeParent56.i.i, align 8
  %tobool57.not.i.i = icmp eq ptr %3, null
  br i1 %tobool.not.i.i, label %if.else54.i.i, label %land.lhs.true.i.i

land.lhs.true.i.i:                                ; preds = %entry
  %4 = load ptr, ptr %this, align 8
  br i1 %tobool57.not.i.i, label %if.then29.i.i, label %if.then.i.i

if.then.i.i:                                      ; preds = %land.lhs.true.i.i
  %5 = load ptr, ptr %x, align 8
  store ptr %5, ptr %this, align 8
  store ptr %4, ptr %x, align 8
  %mpNodeLeft13.i.i = getelementptr inbounds i8, ptr %x, i64 8
  %6 = load ptr, ptr %mpNodeLeft.i.i, align 8
  %7 = load ptr, ptr %mpNodeLeft13.i.i, align 8
  store ptr %7, ptr %mpNodeLeft.i.i, align 8
  store ptr %6, ptr %mpNodeLeft13.i.i, align 8
  %8 = load ptr, ptr %mpNodeParent.i.i, align 8
  %9 = load ptr, ptr %mpNodeParent56.i.i, align 8
  store ptr %9, ptr %mpNodeParent.i.i, align 8
  store ptr %8, ptr %mpNodeParent56.i.i, align 8
  %10 = load ptr, ptr %mpNodeParent.i.i, align 8
  %mpNodeParent21.i.i = getelementptr inbounds i8, ptr %10, i64 16
  store ptr %this, ptr %mpNodeParent21.i.i, align 8
  %11 = load ptr, ptr %mpNodeParent56.i.i, align 8
  %mpNodeParent25.i.i = getelementptr inbounds i8, ptr %11, i64 16
  store ptr %x, ptr %mpNodeParent25.i.i, align 8
  br label %_ZN5eastl6rbtreeI10TestObjectS1_NS_4lessIS1_EENS_9allocatorENS_8use_selfIS1_EELb0ELb0EEC2EOS7_RKS4_.exit

if.then29.i.i:                                    ; preds = %land.lhs.true.i.i
  store ptr %4, ptr %x, align 8
  %12 = load ptr, ptr %mpNodeLeft.i.i, align 8
  %mpNodeLeft37.i.i = getelementptr inbounds i8, ptr %x, i64 8
  store ptr %12, ptr %mpNodeLeft37.i.i, align 8
  %13 = load ptr, ptr %mpNodeParent.i.i, align 8
  store ptr %13, ptr %mpNodeParent56.i.i, align 8
  %mpNodeParent45.i.i = getelementptr inbounds i8, ptr %13, i64 16
  store ptr %x, ptr %mpNodeParent45.i.i, align 8
  store ptr %this, ptr %this, align 8
  store ptr %this, ptr %mpNodeLeft.i.i, align 8
  store ptr null, ptr %mpNodeParent.i.i, align 8
  br label %_ZN5eastl6rbtreeI10TestObjectS1_NS_4lessIS1_EENS_9allocatorENS_8use_selfIS1_EELb0ELb0EEC2EOS7_RKS4_.exit

if.else54.i.i:                                    ; preds = %entry
  br i1 %tobool57.not.i.i, label %_ZN5eastl6rbtreeI10TestObjectS1_NS_4lessIS1_EENS_9allocatorENS_8use_selfIS1_EELb0ELb0EEC2EOS7_RKS4_.exit, label %if.then58.i.i

if.then58.i.i:                                    ; preds = %if.else54.i.i
  %14 = load ptr, ptr %x, align 8
  store ptr %14, ptr %this, align 8
  %mpNodeLeft64.i.i = getelementptr inbounds i8, ptr %x, i64 8
  %15 = load ptr, ptr %mpNodeLeft64.i.i, align 8
  store ptr %15, ptr %mpNodeLeft.i.i, align 8
  %16 = load ptr, ptr %mpNodeParent56.i.i, align 8
  store ptr %16, ptr %mpNodeParent.i.i, align 8
  %mpNodeParent74.i.i = getelementptr inbounds i8, ptr %16, i64 16
  store ptr %this, ptr %mpNodeParent74.i.i, align 8
  store ptr %x, ptr %x, align 8
  store ptr %x, ptr %mpNodeLeft64.i.i, align 8
  store ptr null, ptr %mpNodeParent56.i.i, align 8
  br label %_ZN5eastl6rbtreeI10TestObjectS1_NS_4lessIS1_EENS_9allocatorENS_8use_selfIS1_EELb0ELb0EEC2EOS7_RKS4_.exit

_ZN5eastl6rbtreeI10TestObjectS1_NS_4lessIS1_EENS_9allocatorENS_8use_selfIS1_EELb0ELb0EEC2EOS7_RKS4_.exit: ; preds = %if.then.i.i, %if.then29.i.i, %if.else54.i.i, %if.then58.i.i
  ret void
}

; Function Attrs: mustprogress uwtable
define weak_odr dso_local void @_ZN5eastl8multisetI10TestObjectNS_4lessIS1_EENS_9allocatorEEC2ESt16initializer_listIS1_ERKS3_RKS4_(ptr noundef nonnull align 8 dereferenceable(41) %this, ptr %ilist.coerce0, i64 %ilist.coerce1, ptr noundef nonnull align 1 dereferenceable(1) %compare, ptr noundef nonnull align 1 dereferenceable(1) %allocator) unnamed_addr #0 comdat($_ZN5eastl8multisetI10TestObjectNS_4lessIS1_EENS_9allocatorEEC5ESt16initializer_listIS1_ERKS3_RKS4_) align 2 {
entry:
  %add.ptr.i = getelementptr inbounds %struct.TestObject, ptr %ilist.coerce0, i64 %ilist.coerce1
  tail call void @_ZN5eastl6rbtreeI10TestObjectS1_NS_4lessIS1_EENS_9allocatorENS_8use_selfIS1_EELb0ELb0EEC2IPKS1_EET_SB_RKS3_RKS4_(ptr noundef nonnull align 8 dereferenceable(41) %this, ptr noundef %ilist.coerce0, ptr noundef %add.ptr.i, ptr noundef nonnull align 1 dereferenceable(1) %compare, ptr noundef nonnull align 1 dereferenceable(1) %allocator)
  ret void
}

; Function Attrs: mustprogress uwtable
define linkonce_odr dso_local void @_ZN5eastl6rbtreeI10TestObjectS1_NS_4lessIS1_EENS_9allocatorENS_8use_selfIS1_EELb0ELb0EEC2IPKS1_EET_SB_RKS3_RKS4_(ptr noundef nonnull align 8 dereferenceable(41) %this, ptr noundef %first, ptr noundef %last, ptr noundef nonnull align 1 dereferenceable(1) %compare, ptr noundef nonnull align 1 dereferenceable(1) %allocator) unnamed_addr #0 comdat align 2 {
entry:
  %mnSize = getelementptr inbounds i8, ptr %this, i64 32
  %0 = getelementptr inbounds i8, ptr %this, i64 24
  store i64 0, ptr %0, align 8
  store ptr %this, ptr %this, align 8
  %mpNodeLeft.i = getelementptr inbounds i8, ptr %this, i64 8
  store ptr %this, ptr %mpNodeLeft.i, align 8
  %mpNodeParent.i = getelementptr inbounds i8, ptr %this, i64 16
  store ptr null, ptr %mpNodeParent.i, align 8
  store i64 0, ptr %mnSize, align 8
  %cmp.not3 = icmp eq ptr %first, %last
  br i1 %cmp.not3, label %for.end, label %for.body

for.body:                                         ; preds = %entry, %_ZN5eastl6rbtreeI10TestObjectS1_NS_4lessIS1_EENS_9allocatorENS_8use_selfIS1_EELb0ELb0EE6insertERKS1_.exit
  %first.addr.04 = phi ptr [ %incdec.ptr, %_ZN5eastl6rbtreeI10TestObjectS1_NS_4lessIS1_EENS_9allocatorENS_8use_selfIS1_EELb0ELb0EE6insertERKS1_.exit ], [ %first, %entry ]
  %call.i.i.i.i.i.i = tail call noundef ptr @_ZnamPKcijS0_i(i64 noundef 56, ptr noundef null, i32 noundef 0, i32 noundef 0, ptr noundef null, i32 noundef 0)
  %mValue.i.i.i = getelementptr inbounds i8, ptr %call.i.i.i.i.i.i, i64 32
  %1 = load i32, ptr %first.addr.04, align 8
  store i32 %1, ptr %mValue.i.i.i, align 8
  %mbThrowOnCopy.i.i.i.i = getelementptr inbounds i8, ptr %call.i.i.i.i.i.i, i64 36
  %mbThrowOnCopy3.i.i.i.i = getelementptr inbounds i8, ptr %first.addr.04, i64 4
  %2 = load i8, ptr %mbThrowOnCopy3.i.i.i.i, align 4
  %3 = and i8 %2, 1
  store i8 %3, ptr %mbThrowOnCopy.i.i.i.i, align 4
  %mMagicValue.i.i.i.i = getelementptr inbounds i8, ptr %call.i.i.i.i.i.i, i64 48
  %mMagicValue4.i.i.i.i = getelementptr inbounds i8, ptr %first.addr.04, i64 16
  %4 = load i32, ptr %mMagicValue4.i.i.i.i, align 8
  store i32 %4, ptr %mMagicValue.i.i.i.i, align 8
  %5 = load i64, ptr @_ZN10TestObject8sTOCountE, align 8
  %inc.i.i.i.i = add nsw i64 %5, 1
  store i64 %inc.i.i.i.i, ptr @_ZN10TestObject8sTOCountE, align 8
  %6 = load i64, ptr @_ZN10TestObject12sTOCtorCountE, align 8
  %inc5.i.i.i.i = add nsw i64 %6, 1
  store i64 %inc5.i.i.i.i, ptr @_ZN10TestObject12sTOCtorCountE, align 8
  %7 = load i64, ptr @_ZN10TestObject16sTOCopyCtorCountE, align 8
  %inc6.i.i.i.i = add nsw i64 %7, 1
  store i64 %inc6.i.i.i.i, ptr @_ZN10TestObject16sTOCopyCtorCountE, align 8
  %mId.i.i.i.i = getelementptr inbounds i8, ptr %call.i.i.i.i.i.i, i64 40
  store i64 %inc5.i.i.i.i, ptr %mId.i.i.i.i, align 8
  %pCurrent.05.i.i.i = load ptr, ptr %mpNodeParent.i, align 8
  %tobool.not6.i.i.i = icmp eq ptr %pCurrent.05.i.i.i, null
  br i1 %tobool.not6.i.i.i, label %_ZN5eastl6rbtreeI10TestObjectS1_NS_4lessIS1_EENS_9allocatorENS_8use_selfIS1_EELb0ELb0EE6insertERKS1_.exit, label %while.body.i.i.i

while.body.i.i.i:                                 ; preds = %for.body, %while.body.i.i.i
  %pCurrent.07.i.i.i = phi ptr [ %pCurrent.0.i.i.i, %while.body.i.i.i ], [ %pCurrent.05.i.i.i, %for.body ]
  %mValue.i3.i.i = getelementptr inbounds i8, ptr %pCurrent.07.i.i.i, i64 32
  %8 = load i32, ptr %mValue.i3.i.i, align 8
  %cmp.i.i.i.i.i.i = icmp slt i32 %1, %8
  %pCurrent.1.in.idx.i.i.i = select i1 %cmp.i.i.i.i.i.i, i64 8, i64 0
  %pCurrent.1.in.i.i.i = getelementptr inbounds i8, ptr %pCurrent.07.i.i.i, i64 %pCurrent.1.in.idx.i.i.i
  %pCurrent.0.i.i.i = load ptr, ptr %pCurrent.1.in.i.i.i, align 8
  %tobool.not.i.i.i = icmp eq ptr %pCurrent.0.i.i.i, null
  br i1 %tobool.not.i.i.i, label %_ZN5eastl6rbtreeI10TestObjectS1_NS_4lessIS1_EENS_9allocatorENS_8use_selfIS1_EELb0ELb0EE38DoGetKeyInsertionPositionNonuniqueKeysERKS1_.exit.i.i, label %while.body.i.i.i, !llvm.loop !27

_ZN5eastl6rbtreeI10TestObjectS1_NS_4lessIS1_EENS_9allocatorENS_8use_selfIS1_EELb0ELb0EE38DoGetKeyInsertionPositionNonuniqueKeysERKS1_.exit.i.i: ; preds = %while.body.i.i.i
  %cmp.i.i.i = icmp eq ptr %pCurrent.07.i.i.i, %this
  br i1 %cmp.i.i.i, label %_ZN5eastl6rbtreeI10TestObjectS1_NS_4lessIS1_EENS_9allocatorENS_8use_selfIS1_EELb0ELb0EE6insertERKS1_.exit, label %lor.lhs.false2.i.i.i

lor.lhs.false2.i.i.i:                             ; preds = %_ZN5eastl6rbtreeI10TestObjectS1_NS_4lessIS1_EENS_9allocatorENS_8use_selfIS1_EELb0ELb0EE38DoGetKeyInsertionPositionNonuniqueKeysERKS1_.exit.i.i
  %cmp.i.i.i.i5.i.i = icmp sge i32 %1, %8
  %spec.select.i.i.i = zext i1 %cmp.i.i.i.i5.i.i to i32
  br label %_ZN5eastl6rbtreeI10TestObjectS1_NS_4lessIS1_EENS_9allocatorENS_8use_selfIS1_EELb0ELb0EE6insertERKS1_.exit

_ZN5eastl6rbtreeI10TestObjectS1_NS_4lessIS1_EENS_9allocatorENS_8use_selfIS1_EELb0ELb0EE6insertERKS1_.exit: ; preds = %for.body, %_ZN5eastl6rbtreeI10TestObjectS1_NS_4lessIS1_EENS_9allocatorENS_8use_selfIS1_EELb0ELb0EE38DoGetKeyInsertionPositionNonuniqueKeysERKS1_.exit.i.i, %lor.lhs.false2.i.i.i
  %pRangeEnd.0.lcssa.i8.i.i = phi ptr [ %this, %_ZN5eastl6rbtreeI10TestObjectS1_NS_4lessIS1_EENS_9allocatorENS_8use_selfIS1_EELb0ELb0EE38DoGetKeyInsertionPositionNonuniqueKeysERKS1_.exit.i.i ], [ %pCurrent.07.i.i.i, %lor.lhs.false2.i.i.i ], [ %this, %for.body ]
  %side.0.i.i.i = phi i32 [ 0, %_ZN5eastl6rbtreeI10TestObjectS1_NS_4lessIS1_EENS_9allocatorENS_8use_selfIS1_EELb0ELb0EE38DoGetKeyInsertionPositionNonuniqueKeysERKS1_.exit.i.i ], [ %spec.select.i.i.i, %lor.lhs.false2.i.i.i ], [ 0, %for.body ]
  tail call void @_ZN5eastl12RBTreeInsertEPNS_16rbtree_node_baseES1_S1_NS_10RBTreeSideE(ptr noundef %call.i.i.i.i.i.i, ptr noundef nonnull %pRangeEnd.0.lcssa.i8.i.i, ptr noundef nonnull %this, i32 noundef %side.0.i.i.i)
  %9 = load i64, ptr %mnSize, align 8
  %inc.i.i.i = add i64 %9, 1
  store i64 %inc.i.i.i, ptr %mnSize, align 8
  %incdec.ptr = getelementptr inbounds i8, ptr %first.addr.04, i64 24
  %cmp.not = icmp eq ptr %incdec.ptr, %last
  br i1 %cmp.not, label %for.end, label %for.body, !llvm.loop !28

for.end:                                          ; preds = %_ZN5eastl6rbtreeI10TestObjectS1_NS_4lessIS1_EENS_9allocatorENS_8use_selfIS1_EELb0ELb0EE6insertERKS1_.exit, %entry
  ret void
}

; Function Attrs: mustprogress uwtable
define weak_odr dso_local noundef nonnull align 8 dereferenceable(41) ptr @_ZN5eastl8multisetI10TestObjectNS_4lessIS1_EENS_9allocatorEEaSERKS5_(ptr noundef nonnull align 8 dereferenceable(41) %this, ptr noundef nonnull align 8 dereferenceable(41) %x) local_unnamed_addr #0 comdat align 2 {
entry:
  %cmp.not.i = icmp eq ptr %this, %x
  br i1 %cmp.not.i, label %_ZN5eastl6rbtreeI10TestObjectS1_NS_4lessIS1_EENS_9allocatorENS_8use_selfIS1_EELb0ELb0EEaSERKS7_.exit, label %if.then.i

if.then.i:                                        ; preds = %entry
  %mpNodeParent.i.i = getelementptr inbounds i8, ptr %this, i64 16
  %0 = load ptr, ptr %mpNodeParent.i.i, align 8
  tail call void @_ZN5eastl6rbtreeI10TestObjectS1_NS_4lessIS1_EENS_9allocatorENS_8use_selfIS1_EELb0ELb0EE13DoNukeSubtreeEPNS_16rbtree_node_baseE(ptr noundef nonnull align 8 dereferenceable(41) %this, ptr noundef %0)
  store ptr %this, ptr %this, align 8
  %mpNodeLeft.i.i.i = getelementptr inbounds i8, ptr %this, i64 8
  store ptr %this, ptr %mpNodeLeft.i.i.i, align 8
  store ptr null, ptr %mpNodeParent.i.i, align 8
  %mColor.i.i.i = getelementptr inbounds i8, ptr %this, i64 24
  store i8 0, ptr %mColor.i.i.i, align 8
  %mnSize.i.i.i = getelementptr inbounds i8, ptr %this, i64 32
  store i64 0, ptr %mnSize.i.i.i, align 8
  %mpNodeParent.i = getelementptr inbounds i8, ptr %x, i64 16
  %1 = load ptr, ptr %mpNodeParent.i, align 8
  %tobool.not.i = icmp eq ptr %1, null
  br i1 %tobool.not.i, label %_ZN5eastl6rbtreeI10TestObjectS1_NS_4lessIS1_EENS_9allocatorENS_8use_selfIS1_EELb0ELb0EEaSERKS7_.exit, label %if.then3.i

if.then3.i:                                       ; preds = %if.then.i
  %call7.i = tail call noundef ptr @_ZN5eastl6rbtreeI10TestObjectS1_NS_4lessIS1_EENS_9allocatorENS_8use_selfIS1_EELb0ELb0EE13DoCopySubtreeEPKNS_11rbtree_nodeIS1_EEPNS_16rbtree_node_baseE(ptr noundef nonnull align 8 dereferenceable(41) %this, ptr noundef nonnull %1, ptr noundef nonnull %this)
  store ptr %call7.i, ptr %mpNodeParent.i.i, align 8
  br label %while.cond.i.i

while.cond.i.i:                                   ; preds = %while.cond.i.i, %if.then3.i
  %pNodeBase.addr.0.i.i = phi ptr [ %call7.i, %if.then3.i ], [ %2, %while.cond.i.i ]
  %2 = load ptr, ptr %pNodeBase.addr.0.i.i, align 8
  %tobool.not.i.i = icmp eq ptr %2, null
  br i1 %tobool.not.i.i, label %_ZN5eastl17RBTreeGetMaxChildEPKNS_16rbtree_node_baseE.exit.i, label %while.cond.i.i, !llvm.loop !5

_ZN5eastl17RBTreeGetMaxChildEPKNS_16rbtree_node_baseE.exit.i: ; preds = %while.cond.i.i
  store ptr %pNodeBase.addr.0.i.i, ptr %this, align 8
  br label %while.cond.i5.i

while.cond.i5.i:                                  ; preds = %while.cond.i5.i, %_ZN5eastl17RBTreeGetMaxChildEPKNS_16rbtree_node_baseE.exit.i
  %pNodeBase.addr.0.i6.i = phi ptr [ %call7.i, %_ZN5eastl17RBTreeGetMaxChildEPKNS_16rbtree_node_baseE.exit.i ], [ %3, %while.cond.i5.i ]
  %mpNodeLeft.i.i = getelementptr inbounds i8, ptr %pNodeBase.addr.0.i6.i, i64 8
  %3 = load ptr, ptr %mpNodeLeft.i.i, align 8
  %tobool.not.i7.i = icmp eq ptr %3, null
  br i1 %tobool.not.i7.i, label %_ZN5eastl17RBTreeGetMinChildEPKNS_16rbtree_node_baseE.exit.i, label %while.cond.i5.i, !llvm.loop !7

_ZN5eastl17RBTreeGetMinChildEPKNS_16rbtree_node_baseE.exit.i: ; preds = %while.cond.i5.i
  store ptr %pNodeBase.addr.0.i6.i, ptr %mpNodeLeft.i.i.i, align 8
  %mnSize.i = getelementptr inbounds i8, ptr %x, i64 32
  %4 = load i64, ptr %mnSize.i, align 8
  store i64 %4, ptr %mnSize.i.i.i, align 8
  br label %_ZN5eastl6rbtreeI10TestObjectS1_NS_4lessIS1_EENS_9allocatorENS_8use_selfIS1_EELb0ELb0EEaSERKS7_.exit

_ZN5eastl6rbtreeI10TestObjectS1_NS_4lessIS1_EENS_9allocatorENS_8use_selfIS1_EELb0ELb0EEaSERKS7_.exit: ; preds = %entry, %if.then.i, %_ZN5eastl17RBTreeGetMinChildEPKNS_16rbtree_node_baseE.exit.i
  ret ptr %this
}

; Function Attrs: mustprogress uwtable
define weak_odr dso_local noundef nonnull align 8 dereferenceable(41) ptr @_ZN5eastl8multisetI10TestObjectNS_4lessIS1_EENS_9allocatorEEaSESt16initializer_listIS1_E(ptr noundef nonnull align 8 dereferenceable(41) %this, ptr %ilist.coerce0, i64 %ilist.coerce1) local_unnamed_addr #0 comdat align 2 {
entry:
  %call = tail call noundef nonnull align 8 dereferenceable(41) ptr @_ZN5eastl6rbtreeI10TestObjectS1_NS_4lessIS1_EENS_9allocatorENS_8use_selfIS1_EELb0ELb0EEaSESt16initializer_listIS1_E(ptr noundef nonnull align 8 dereferenceable(41) %this, ptr %ilist.coerce0, i64 %ilist.coerce1)
  ret ptr %call
}

; Function Attrs: mustprogress uwtable
define linkonce_odr dso_local noundef nonnull align 8 dereferenceable(41) ptr @_ZN5eastl6rbtreeI10TestObjectS1_NS_4lessIS1_EENS_9allocatorENS_8use_selfIS1_EELb0ELb0EEaSESt16initializer_listIS1_E(ptr noundef nonnull align 8 dereferenceable(41) %this, ptr %ilist.coerce0, i64 %ilist.coerce1) local_unnamed_addr #0 comdat align 2 {
entry:
  %mpNodeParent.i = getelementptr inbounds i8, ptr %this, i64 16
  %0 = load ptr, ptr %mpNodeParent.i, align 8
  tail call void @_ZN5eastl6rbtreeI10TestObjectS1_NS_4lessIS1_EENS_9allocatorENS_8use_selfIS1_EELb0ELb0EE13DoNukeSubtreeEPNS_16rbtree_node_baseE(ptr noundef nonnull align 8 dereferenceable(41) %this, ptr noundef %0)
  store ptr %this, ptr %this, align 8
  %mpNodeLeft.i.i = getelementptr inbounds i8, ptr %this, i64 8
  store ptr %this, ptr %mpNodeLeft.i.i, align 8
  store ptr null, ptr %mpNodeParent.i, align 8
  %mColor.i.i = getelementptr inbounds i8, ptr %this, i64 24
  store i8 0, ptr %mColor.i.i, align 8
  %mnSize.i.i = getelementptr inbounds i8, ptr %this, i64 32
  store i64 0, ptr %mnSize.i.i, align 8
  %add.ptr.i = getelementptr inbounds %struct.TestObject, ptr %ilist.coerce0, i64 %ilist.coerce1
  %cmp.not5 = icmp eq i64 %ilist.coerce1, 0
  br i1 %cmp.not5, label %for.end, label %for.body

for.body:                                         ; preds = %entry, %_ZN5eastl6rbtreeI10TestObjectS1_NS_4lessIS1_EENS_9allocatorENS_8use_selfIS1_EELb0ELb0EE13DoInsertValueIJKS1_EEENS_15rbtree_iteratorIS1_PS9_RS9_EENS_17integral_constantIbLb0EEEDpOT_.exit
  %it.06 = phi ptr [ %incdec.ptr, %_ZN5eastl6rbtreeI10TestObjectS1_NS_4lessIS1_EENS_9allocatorENS_8use_selfIS1_EELb0ELb0EE13DoInsertValueIJKS1_EEENS_15rbtree_iteratorIS1_PS9_RS9_EENS_17integral_constantIbLb0EEEDpOT_.exit ], [ %ilist.coerce0, %entry ]
  %call.i.i.i.i.i = tail call noundef ptr @_ZnamPKcijS0_i(i64 noundef 56, ptr noundef null, i32 noundef 0, i32 noundef 0, ptr noundef null, i32 noundef 0)
  %mValue.i.i = getelementptr inbounds i8, ptr %call.i.i.i.i.i, i64 32
  %1 = load i32, ptr %it.06, align 8
  store i32 %1, ptr %mValue.i.i, align 8
  %mbThrowOnCopy.i.i.i = getelementptr inbounds i8, ptr %call.i.i.i.i.i, i64 36
  %mbThrowOnCopy3.i.i.i = getelementptr inbounds i8, ptr %it.06, i64 4
  %2 = load i8, ptr %mbThrowOnCopy3.i.i.i, align 4
  %3 = and i8 %2, 1
  store i8 %3, ptr %mbThrowOnCopy.i.i.i, align 4
  %mMagicValue.i.i.i = getelementptr inbounds i8, ptr %call.i.i.i.i.i, i64 48
  %mMagicValue4.i.i.i = getelementptr inbounds i8, ptr %it.06, i64 16
  %4 = load i32, ptr %mMagicValue4.i.i.i, align 8
  store i32 %4, ptr %mMagicValue.i.i.i, align 8
  %5 = load i64, ptr @_ZN10TestObject8sTOCountE, align 8
  %inc.i.i.i = add nsw i64 %5, 1
  store i64 %inc.i.i.i, ptr @_ZN10TestObject8sTOCountE, align 8
  %6 = load i64, ptr @_ZN10TestObject12sTOCtorCountE, align 8
  %inc5.i.i.i = add nsw i64 %6, 1
