; ModuleID = 'bench/ocio/original/CTFReaderHelper.cpp.ll'
source_filename = "bench/ocio/original/CTFReaderHelper.cpp.ll"
target datalayout = "e-m:e-p270:32:32-p271:32:32-p272:64:64-i64:64-i128:128-f80:128-n8:16:32:64-S128"
target triple = "x86_64-unknown-linux-gnu"

%"class.std::ios_base::Init" = type { i8 }
%"struct.OpenColorIO_v2_4dev::NumberUtils::Locale" = type { ptr }
%"class.OpenColorIO_v2_4dev::CTFVersion" = type { i32, i32, i32 }
%"class.std::__cxx11::basic_string" = type { %"struct.std::__cxx11::basic_string<char>::_Alloc_hider", i64, %union.anon }
%"struct.std::__cxx11::basic_string<char>::_Alloc_hider" = type { ptr }
%union.anon = type { i64, [8 x i8] }
%"class.OpenColorIO_v2_4dev::CTFReaderTransformElt" = type <{ %"class.OpenColorIO_v2_4dev::XmlReaderContainerElt", %"class.std::shared_ptr", i8, [7 x i8] }>
%"class.OpenColorIO_v2_4dev::XmlReaderContainerElt" = type { %"class.OpenColorIO_v2_4dev::XmlReaderElement" }
%"class.OpenColorIO_v2_4dev::XmlReaderElement" = type { ptr, %"class.std::__cxx11::basic_string", i32, %"class.std::__cxx11::basic_string" }
%"class.std::shared_ptr" = type { %"class.std::__shared_ptr" }
%"class.std::__shared_ptr" = type { ptr, %"class.std::__shared_count" }
%"class.std::__shared_count" = type { ptr }
%"class.std::_Sp_counted_base" = type { ptr, i32, i32 }
%"class.std::_Sp_counted_ptr_inplace" = type { %"class.std::_Sp_counted_base", %"class.std::_Sp_counted_ptr_inplace<OpenColorIO_v2_4dev::CTFReaderTransform, std::allocator<void>, __gnu_cxx::_S_atomic>::_Impl" }
%"class.std::_Sp_counted_ptr_inplace<OpenColorIO_v2_4dev::CTFReaderTransform, std::allocator<void>, __gnu_cxx::_S_atomic>::_Impl" = type { %"struct.__gnu_cxx::__aligned_buffer" }
%"struct.__gnu_cxx::__aligned_buffer" = type { %"union.std::aligned_storage<360, 8>::type" }
%"union.std::aligned_storage<360, 8>::type" = type { [360 x i8] }
%"class.std::allocator" = type { i8 }
%"class.OpenColorIO_v2_4dev::CTFReaderTransform" = type <{ %"class.std::__cxx11::basic_string", %"class.std::__cxx11::basic_string", %"class.std::__cxx11::basic_string", %"class.std::__cxx11::basic_string", %"class.std::__cxx11::basic_string", %"class.OpenColorIO_v2_4dev::FormatMetadataImpl", %"class.std::vector.8", %"class.std::vector.13", %"class.OpenColorIO_v2_4dev::CTFVersion", %"class.OpenColorIO_v2_4dev::CTFVersion", i32, [4 x i8] }>
%"class.OpenColorIO_v2_4dev::FormatMetadataImpl" = type { %"class.OpenColorIO_v2_4dev::FormatMetadata", %"class.std::__cxx11::basic_string", %"class.std::__cxx11::basic_string", %"class.std::vector", %"class.std::vector.3" }
%"class.OpenColorIO_v2_4dev::FormatMetadata" = type { ptr }
%"class.std::vector" = type { %"struct.std::_Vector_base" }
%"struct.std::_Vector_base" = type { %"struct.std::_Vector_base<std::pair<std::__cxx11::basic_string<char>, std::__cxx11::basic_string<char>>, std::allocator<std::pair<std::__cxx11::basic_string<char>, std::__cxx11::basic_string<char>>>>::_Vector_impl" }
%"struct.std::_Vector_base<std::pair<std::__cxx11::basic_string<char>, std::__cxx11::basic_string<char>>, std::allocator<std::pair<std::__cxx11::basic_string<char>, std::__cxx11::basic_string<char>>>>::_Vector_impl" = type { %"struct.std::_Vector_base<std::pair<std::__cxx11::basic_string<char>, std::__cxx11::basic_string<char>>, std::allocator<std::pair<std::__cxx11::basic_string<char>, std::__cxx11::basic_string<char>>>>::_Vector_impl_data" }
%"struct.std::_Vector_base<std::pair<std::__cxx11::basic_string<char>, std::__cxx11::basic_string<char>>, std::allocator<std::pair<std::__cxx11::basic_string<char>, std::__cxx11::basic_string<char>>>>::_Vector_impl_data" = type { ptr, ptr, ptr }
%"class.std::vector.3" = type { %"struct.std::_Vector_base.4" }
%"struct.std::_Vector_base.4" = type { %"struct.std::_Vector_base<OpenColorIO_v2_4dev::FormatMetadataImpl, std::allocator<OpenColorIO_v2_4dev::FormatMetadataImpl>>::_Vector_impl" }
%"struct.std::_Vector_base<OpenColorIO_v2_4dev::FormatMetadataImpl, std::allocator<OpenColorIO_v2_4dev::FormatMetadataImpl>>::_Vector_impl" = type { %"struct.std::_Vector_base<OpenColorIO_v2_4dev::FormatMetadataImpl, std::allocator<OpenColorIO_v2_4dev::FormatMetadataImpl>>::_Vector_impl_data" }
%"struct.std::_Vector_base<OpenColorIO_v2_4dev::FormatMetadataImpl, std::allocator<OpenColorIO_v2_4dev::FormatMetadataImpl>>::_Vector_impl_data" = type { ptr, ptr, ptr }
%"class.std::vector.8" = type { %"struct.std::_Vector_base.9" }
%"struct.std::_Vector_base.9" = type { %"struct.std::_Vector_base<std::shared_ptr<const OpenColorIO_v2_4dev::OpData>, std::allocator<std::shared_ptr<const OpenColorIO_v2_4dev::OpData>>>::_Vector_impl" }
%"struct.std::_Vector_base<std::shared_ptr<const OpenColorIO_v2_4dev::OpData>, std::allocator<std::shared_ptr<const OpenColorIO_v2_4dev::OpData>>>::_Vector_impl" = type { %"struct.std::_Vector_base<std::shared_ptr<const OpenColorIO_v2_4dev::OpData>, std::allocator<std::shared_ptr<const OpenColorIO_v2_4dev::OpData>>>::_Vector_impl_data" }
%"struct.std::_Vector_base<std::shared_ptr<const OpenColorIO_v2_4dev::OpData>, std::allocator<std::shared_ptr<const OpenColorIO_v2_4dev::OpData>>>::_Vector_impl_data" = type { ptr, ptr, ptr }
%"class.std::vector.13" = type { %"struct.std::_Vector_base.14" }
%"struct.std::_Vector_base.14" = type { %"struct.std::_Vector_base<std::__cxx11::basic_string<char>, std::allocator<std::__cxx11::basic_string<char>>>::_Vector_impl" }
%"struct.std::_Vector_base<std::__cxx11::basic_string<char>, std::allocator<std::__cxx11::basic_string<char>>>::_Vector_impl" = type { %"struct.std::_Vector_base<std::__cxx11::basic_string<char>, std::allocator<std::__cxx11::basic_string<char>>>::_Vector_impl_data" }
%"struct.std::_Vector_base<std::__cxx11::basic_string<char>, std::allocator<std::__cxx11::basic_string<char>>>::_Vector_impl_data" = type { ptr, ptr, ptr }
%"class.std::__cxx11::basic_ostringstream" = type { %"class.std::basic_ostream.base", %"class.std::__cxx11::basic_stringbuf", %"class.std::basic_ios" }
%"class.std::basic_ostream.base" = type { ptr }
%"class.std::__cxx11::basic_stringbuf" = type { %"class.std::basic_streambuf", i32, %"class.std::__cxx11::basic_string" }
%"class.std::basic_streambuf" = type { ptr, ptr, ptr, ptr, ptr, ptr, ptr, %"class.std::locale" }
%"class.std::locale" = type { ptr }
%"class.std::basic_ios" = type { %"class.std::ios_base", ptr, i8, i8, ptr, ptr, ptr, ptr }
%"class.std::ios_base" = type { ptr, i64, i64, i32, i32, i32, ptr, %"struct.std::ios_base::_Words", [8 x %"struct.std::ios_base::_Words"], i32, ptr, %"class.std::locale" }
%"struct.std::ios_base::_Words" = type { ptr, i64 }
%"class.std::shared_ptr.19" = type { %"class.std::__shared_ptr.20" }
%"class.std::__shared_ptr.20" = type { ptr, %"class.std::__shared_count" }
%"class.OpenColorIO_v2_4dev::XmlReaderPlainElt" = type { %"class.OpenColorIO_v2_4dev::XmlReaderElement", %"class.std::shared_ptr.19" }
%"class.OpenColorIO_v2_4dev::CTFReaderArrayElt" = type <{ %"class.OpenColorIO_v2_4dev::XmlReaderPlainElt", ptr, i32, [4 x i8] }>
%"class.std::vector.22" = type { %"struct.std::_Vector_base.23" }
%"struct.std::_Vector_base.23" = type { %"struct.std::_Vector_base<unsigned int, std::allocator<unsigned int>>::_Vector_impl" }
%"struct.std::_Vector_base<unsigned int, std::allocator<unsigned int>>::_Vector_impl" = type { %"struct.std::_Vector_base<unsigned int, std::allocator<unsigned int>>::_Vector_impl_data" }
%"struct.std::_Vector_base<unsigned int, std::allocator<unsigned int>>::_Vector_impl_data" = type { ptr, ptr, ptr }
%"class.std::shared_ptr.27" = type { %"class.std::__shared_ptr.28" }
%"class.std::__shared_ptr.28" = type { ptr, %"class.std::__shared_count" }
%"class.OpenColorIO_v2_4dev::CTFArrayMgt" = type <{ ptr, i8, [7 x i8] }>
%"class.OpenColorIO_v2_4dev::CTFReaderIndexMapElt" = type <{ %"class.OpenColorIO_v2_4dev::XmlReaderPlainElt", ptr, i32, [4 x i8] }>
%"class.OpenColorIO_v2_4dev::CTFReaderOpElt" = type { %"class.OpenColorIO_v2_4dev::XmlReaderContainerElt", %"class.std::shared_ptr", i32, i32 }
%"class.OpenColorIO_v2_4dev::XmlReaderComplexElt" = type { %"class.OpenColorIO_v2_4dev::XmlReaderContainerElt", %"class.std::shared_ptr.19" }
%"class.OpenColorIO_v2_4dev::CTFReaderMetadataElt" = type { %"class.OpenColorIO_v2_4dev::XmlReaderComplexElt", %"class.OpenColorIO_v2_4dev::FormatMetadataImpl" }
%"class.OpenColorIO_v2_4dev::OpData" = type { ptr, %"class.std::mutex", %"class.OpenColorIO_v2_4dev::FormatMetadataImpl" }
%"class.std::mutex" = type { %"class.std::__mutex_base" }
%"class.std::__mutex_base" = type { %union.pthread_mutex_t }
%union.pthread_mutex_t = type { %struct.__pthread_mutex_s }
%struct.__pthread_mutex_s = type { i32, i32, i32, i32, i32, i16, i16, %struct.__pthread_internal_list }
%struct.__pthread_internal_list = type { ptr, ptr }
%"class.std::shared_ptr.35" = type { %"class.std::__shared_ptr.36" }
%"class.std::__shared_ptr.36" = type { ptr, %"class.std::__shared_count" }
%"class.std::shared_ptr.38" = type { %"class.std::__shared_ptr.39" }
%"class.std::__shared_ptr.39" = type { ptr, %"class.std::__shared_count" }
%"class.std::allocator.214" = type { i8 }
%"class.std::shared_ptr.41" = type { %"class.std::__shared_ptr.42" }
%"class.std::__shared_ptr.42" = type { ptr, %"class.std::__shared_count" }
%"class.std::shared_ptr.44" = type { %"class.std::__shared_ptr.45" }
%"class.std::__shared_ptr.45" = type { ptr, %"class.std::__shared_count" }
%"class.std::shared_ptr.47" = type { %"class.std::__shared_ptr.48" }
%"class.std::__shared_ptr.48" = type { ptr, %"class.std::__shared_count" }
%"class.std::shared_ptr.50" = type { %"class.std::__shared_ptr.51" }
%"class.std::__shared_ptr.51" = type { ptr, %"class.std::__shared_count" }
%"class.std::shared_ptr.53" = type { %"class.std::__shared_ptr.54" }
%"class.std::__shared_ptr.54" = type { ptr, %"class.std::__shared_count" }
%"class.std::shared_ptr.56" = type { %"class.std::__shared_ptr.57" }
%"class.std::__shared_ptr.57" = type { ptr, %"class.std::__shared_count" }
%"class.std::shared_ptr.59" = type { %"class.std::__shared_ptr.60" }
%"class.std::__shared_ptr.60" = type { ptr, %"class.std::__shared_count" }
%"class.std::shared_ptr.62" = type { %"class.std::__shared_ptr.63" }
%"class.std::__shared_ptr.63" = type { ptr, %"class.std::__shared_count" }
%"class.std::shared_ptr.65" = type { %"class.std::__shared_ptr.66" }
%"class.std::__shared_ptr.66" = type { ptr, %"class.std::__shared_count" }
%"class.std::shared_ptr.68" = type { %"class.std::__shared_ptr.69" }
%"class.std::__shared_ptr.69" = type { ptr, %"class.std::__shared_count" }
%"class.std::shared_ptr.71" = type { %"class.std::__shared_ptr.72" }
%"class.std::__shared_ptr.72" = type { ptr, %"class.std::__shared_count" }
%"class.std::shared_ptr.74" = type { %"class.std::__shared_ptr.75" }
%"class.std::__shared_ptr.75" = type { ptr, %"class.std::__shared_count" }
%"class.std::shared_ptr.77" = type { %"class.std::__shared_ptr.78" }
%"class.std::__shared_ptr.78" = type { ptr, %"class.std::__shared_count" }
%"class.std::shared_ptr.80" = type { %"class.std::__shared_ptr.81" }
%"class.std::__shared_ptr.81" = type { ptr, %"class.std::__shared_count" }
%"class.std::shared_ptr.83" = type { %"class.std::__shared_ptr.84" }
%"class.std::__shared_ptr.84" = type { ptr, %"class.std::__shared_count" }
%"class.std::shared_ptr.86" = type { %"class.std::__shared_ptr.87" }
%"class.std::__shared_ptr.87" = type { ptr, %"class.std::__shared_count" }
%"class.std::shared_ptr.92" = type { %"class.std::__shared_ptr.93" }
%"class.std::__shared_ptr.93" = type { ptr, %"class.std::__shared_count" }
%"class.std::shared_ptr.95" = type { %"class.std::__shared_ptr.96" }
%"class.std::__shared_ptr.96" = type { ptr, %"class.std::__shared_count" }
%"class.std::shared_ptr.101" = type { %"class.std::__shared_ptr.102" }
%"class.std::__shared_ptr.102" = type { ptr, %"class.std::__shared_count" }
%"class.std::shared_ptr.104" = type { %"class.std::__shared_ptr.105" }
%"class.std::__shared_ptr.105" = type { ptr, %"class.std::__shared_count" }
%"class.std::shared_ptr.107" = type { %"class.std::__shared_ptr.108" }
%"class.std::__shared_ptr.108" = type { ptr, %"class.std::__shared_count" }
%"class.std::shared_ptr.110" = type { %"class.std::__shared_ptr.111" }
%"class.std::__shared_ptr.111" = type { ptr, %"class.std::__shared_count" }
%"class.std::shared_ptr.113" = type { %"class.std::__shared_ptr.114" }
%"class.std::__shared_ptr.114" = type { ptr, %"class.std::__shared_count" }
%"class.std::shared_ptr.116" = type { %"class.std::__shared_ptr.117" }
%"class.std::__shared_ptr.117" = type { ptr, %"class.std::__shared_count" }
%"class.std::_Sp_counted_ptr_inplace.329" = type { %"class.std::_Sp_counted_base", %"class.std::_Sp_counted_ptr_inplace<OpenColorIO_v2_4dev::CTFReaderLut1DElt, std::allocator<void>, __gnu_cxx::_S_atomic>::_Impl" }
%"class.std::_Sp_counted_ptr_inplace<OpenColorIO_v2_4dev::CTFReaderLut1DElt, std::allocator<void>, __gnu_cxx::_S_atomic>::_Impl" = type { %"struct.__gnu_cxx::__aligned_buffer.330" }
%"struct.__gnu_cxx::__aligned_buffer.330" = type { %"union.std::aligned_storage<240, 8>::type" }
%"union.std::aligned_storage<240, 8>::type" = type { [240 x i8] }
%"class.std::_Sp_counted_ptr_inplace.349" = type { %"class.std::_Sp_counted_base", %"class.std::_Sp_counted_ptr_inplace<OpenColorIO_v2_4dev::CTFReaderLut3DElt, std::allocator<void>, __gnu_cxx::_S_atomic>::_Impl" }
%"class.std::_Sp_counted_ptr_inplace<OpenColorIO_v2_4dev::CTFReaderLut3DElt, std::allocator<void>, __gnu_cxx::_S_atomic>::_Impl" = type { %"struct.__gnu_cxx::__aligned_buffer.350" }
%"struct.__gnu_cxx::__aligned_buffer.350" = type { %"union.std::aligned_storage<240, 8>::type" }
%"class.std::_Sp_counted_ptr_inplace.281" = type { %"class.std::_Sp_counted_base", %"class.std::_Sp_counted_ptr_inplace<OpenColorIO_v2_4dev::CTFReaderGradingPrimaryElt, std::allocator<void>, __gnu_cxx::_S_atomic>::_Impl" }
%"class.std::_Sp_counted_ptr_inplace<OpenColorIO_v2_4dev::CTFReaderGradingPrimaryElt, std::allocator<void>, __gnu_cxx::_S_atomic>::_Impl" = type { %"struct.__gnu_cxx::__aligned_buffer.282" }
%"struct.__gnu_cxx::__aligned_buffer.282" = type { %"union.std::aligned_storage<392, 8>::type" }
%"union.std::aligned_storage<392, 8>::type" = type { [392 x i8] }
%"class.std::_Sp_counted_ptr_inplace.315" = type { %"class.std::_Sp_counted_base", %"class.std::_Sp_counted_ptr_inplace<OpenColorIO_v2_4dev::CTFReaderLogElt, std::allocator<void>, __gnu_cxx::_S_atomic>::_Impl" }
%"class.std::_Sp_counted_ptr_inplace<OpenColorIO_v2_4dev::CTFReaderLogElt, std::allocator<void>, __gnu_cxx::_S_atomic>::_Impl" = type { %"struct.__gnu_cxx::__aligned_buffer.316" }
%"struct.__gnu_cxx::__aligned_buffer.316" = type { %"union.std::aligned_storage<216, 8>::type" }
%"union.std::aligned_storage<216, 8>::type" = type { [216 x i8] }
%"class.std::_Sp_counted_ptr_inplace.323" = type { %"class.std::_Sp_counted_base", %"class.std::_Sp_counted_ptr_inplace<OpenColorIO_v2_4dev::CTFReaderLogElt_2_0, std::allocator<void>, __gnu_cxx::_S_atomic>::_Impl" }
%"class.std::_Sp_counted_ptr_inplace<OpenColorIO_v2_4dev::CTFReaderLogElt_2_0, std::allocator<void>, __gnu_cxx::_S_atomic>::_Impl" = type { %"struct.__gnu_cxx::__aligned_buffer.324" }
%"struct.__gnu_cxx::__aligned_buffer.324" = type { %"union.std::aligned_storage<216, 8>::type" }
%"class.std::_Sp_counted_ptr_inplace.337" = type { %"class.std::_Sp_counted_base", %"class.std::_Sp_counted_ptr_inplace<OpenColorIO_v2_4dev::CTFReaderLut1DElt_1_4, std::allocator<void>, __gnu_cxx::_S_atomic>::_Impl" }
%"class.std::_Sp_counted_ptr_inplace<OpenColorIO_v2_4dev::CTFReaderLut1DElt_1_4, std::allocator<void>, __gnu_cxx::_S_atomic>::_Impl" = type { %"struct.__gnu_cxx::__aligned_buffer.338" }
%"struct.__gnu_cxx::__aligned_buffer.338" = type { %"union.std::aligned_storage<240, 8>::type" }
%"class.std::_Sp_counted_ptr_inplace.343" = type { %"class.std::_Sp_counted_base", %"class.std::_Sp_counted_ptr_inplace<OpenColorIO_v2_4dev::CTFReaderLut1DElt_1_7, std::allocator<void>, __gnu_cxx::_S_atomic>::_Impl" }
%"class.std::_Sp_counted_ptr_inplace<OpenColorIO_v2_4dev::CTFReaderLut1DElt_1_7, std::allocator<void>, __gnu_cxx::_S_atomic>::_Impl" = type { %"struct.__gnu_cxx::__aligned_buffer.344" }
%"struct.__gnu_cxx::__aligned_buffer.344" = type { %"union.std::aligned_storage<240, 8>::type" }
%"class.std::_Sp_counted_ptr_inplace.355" = type { %"class.std::_Sp_counted_base", %"class.std::_Sp_counted_ptr_inplace<OpenColorIO_v2_4dev::CTFReaderLut3DElt_1_7, std::allocator<void>, __gnu_cxx::_S_atomic>::_Impl" }
%"class.std::_Sp_counted_ptr_inplace<OpenColorIO_v2_4dev::CTFReaderLut3DElt_1_7, std::allocator<void>, __gnu_cxx::_S_atomic>::_Impl" = type { %"struct.__gnu_cxx::__aligned_buffer.356" }
%"struct.__gnu_cxx::__aligned_buffer.356" = type { %"union.std::aligned_storage<240, 8>::type" }
%"class.OpenColorIO_v2_4dev::CTFReaderACESElt" = type { %"class.OpenColorIO_v2_4dev::CTFReaderOpElt", %"class.std::shared_ptr.119" }
%"class.std::shared_ptr.119" = type { %"class.std::__shared_ptr.120" }
%"class.std::__shared_ptr.120" = type { ptr, %"class.std::__shared_count" }
%"class.std::_Sp_counted_ptr_inplace.393" = type { %"class.std::_Sp_counted_base", %"class.std::_Sp_counted_ptr_inplace<OpenColorIO_v2_4dev::FixedFunctionOpData, std::allocator<void>, __gnu_cxx::_S_atomic>::_Impl" }
%"class.std::_Sp_counted_ptr_inplace<OpenColorIO_v2_4dev::FixedFunctionOpData, std::allocator<void>, __gnu_cxx::_S_atomic>::_Impl" = type { %"struct.__gnu_cxx::__aligned_buffer.394" }
%"struct.__gnu_cxx::__aligned_buffer.394" = type { %"union.std::aligned_storage<200, 8>::type" }
%"union.std::aligned_storage<200, 8>::type" = type { [200 x i8] }
%"class.OpenColorIO_v2_4dev::FixedFunctionOpData" = type { %"class.OpenColorIO_v2_4dev::OpData", i32, %"class.std::vector.122" }
%"class.std::vector.122" = type { %"struct.std::_Vector_base.123" }
%"struct.std::_Vector_base.123" = type { %"struct.std::_Vector_base<double, std::allocator<double>>::_Vector_impl" }
%"struct.std::_Vector_base<double, std::allocator<double>>::_Vector_impl" = type { %"struct.std::_Vector_base<double, std::allocator<double>>::_Vector_impl_data" }
%"struct.std::_Vector_base<double, std::allocator<double>>::_Vector_impl_data" = type { ptr, ptr, ptr }
%"class.OpenColorIO_v2_4dev::CTFReaderCDLElt" = type { %"class.OpenColorIO_v2_4dev::CTFReaderOpElt", %"class.std::shared_ptr.127" }
%"class.std::shared_ptr.127" = type { %"class.std::__shared_ptr.128" }
%"class.std::__shared_ptr.128" = type { ptr, %"class.std::__shared_count" }
%"class.std::_Sp_counted_ptr_inplace.401" = type { %"class.std::_Sp_counted_base", %"class.std::_Sp_counted_ptr_inplace<OpenColorIO_v2_4dev::CDLOpData, std::allocator<void>, __gnu_cxx::_S_atomic>::_Impl" }
%"class.std::_Sp_counted_ptr_inplace<OpenColorIO_v2_4dev::CDLOpData, std::allocator<void>, __gnu_cxx::_S_atomic>::_Impl" = type { %"struct.__gnu_cxx::__aligned_buffer.402" }
%"struct.__gnu_cxx::__aligned_buffer.402" = type { %"union.std::aligned_storage<256, 8>::type" }
%"union.std::aligned_storage<256, 8>::type" = type { [256 x i8] }
%"class.OpenColorIO_v2_4dev::XmlReaderSOPNodeBaseElt" = type <{ %"class.OpenColorIO_v2_4dev::XmlReaderComplexElt", i8, i8, i8, [5 x i8] }>
%"class.OpenColorIO_v2_4dev::CTFReaderFixedFunctionElt" = type { %"class.OpenColorIO_v2_4dev::CTFReaderOpElt", %"class.std::shared_ptr.119" }
%"class.OpenColorIO_v2_4dev::CTFReaderFunctionElt" = type { %"class.OpenColorIO_v2_4dev::CTFReaderOpElt", %"class.std::shared_ptr.119" }
%"class.OpenColorIO_v2_4dev::CTFReaderExposureContrastElt" = type { %"class.OpenColorIO_v2_4dev::CTFReaderOpElt", %"class.std::shared_ptr.130" }
%"class.std::shared_ptr.130" = type { %"class.std::__shared_ptr.131" }
%"class.std::__shared_ptr.131" = type { ptr, %"class.std::__shared_count" }
%"class.OpenColorIO_v2_4dev::ExposureContrastOpData" = type { %"class.OpenColorIO_v2_4dev::OpData", i32, %"class.std::shared_ptr.133", %"class.std::shared_ptr.133", %"class.std::shared_ptr.133", double, double, double }
%"class.std::shared_ptr.133" = type { %"class.std::__shared_ptr.134" }
%"class.std::__shared_ptr.134" = type { ptr, %"class.std::__shared_count" }
%"class.OpenColorIO_v2_4dev::DynamicPropertyImpl" = type <{ %"class.OpenColorIO_v2_4dev::DynamicProperty", i32, i8, [3 x i8] }>
%"class.OpenColorIO_v2_4dev::DynamicProperty" = type { ptr }
%"class.OpenColorIO_v2_4dev::CTFReaderGradingPrimaryElt" = type { %"class.OpenColorIO_v2_4dev::CTFReaderOpElt", %"struct.OpenColorIO_v2_4dev::GradingPrimary", %"class.std::shared_ptr.136" }
%"struct.OpenColorIO_v2_4dev::GradingPrimary" = type { %"struct.OpenColorIO_v2_4dev::GradingRGBM", %"struct.OpenColorIO_v2_4dev::GradingRGBM", %"struct.OpenColorIO_v2_4dev::GradingRGBM", %"struct.OpenColorIO_v2_4dev::GradingRGBM", %"struct.OpenColorIO_v2_4dev::GradingRGBM", %"struct.OpenColorIO_v2_4dev::GradingRGBM", %"struct.OpenColorIO_v2_4dev::GradingRGBM", double, double, double, double, double, double }
%"struct.OpenColorIO_v2_4dev::GradingRGBM" = type { double, double, double, double }
%"class.std::shared_ptr.136" = type { %"class.std::__shared_ptr.137" }
%"class.std::__shared_ptr.137" = type { ptr, %"class.std::__shared_count" }
%"class.OpenColorIO_v2_4dev::GradingPrimaryOpData" = type { %"class.OpenColorIO_v2_4dev::OpData", i32, %"class.std::shared_ptr.139" }
%"class.std::shared_ptr.139" = type { %"class.std::__shared_ptr.140" }
%"class.std::__shared_ptr.140" = type { ptr, %"class.std::__shared_count" }
%"class.OpenColorIO_v2_4dev::CTFReaderGradingRGBCurveElt" = type { %"class.OpenColorIO_v2_4dev::CTFReaderOpElt", %"class.std::shared_ptr.145", %"class.std::shared_ptr.142" }
%"class.std::shared_ptr.145" = type { %"class.std::__shared_ptr.146" }
%"class.std::__shared_ptr.146" = type { ptr, %"class.std::__shared_count" }
%"class.std::shared_ptr.142" = type { %"class.std::__shared_ptr.143" }
%"class.std::__shared_ptr.143" = type { ptr, %"class.std::__shared_count" }
%"class.OpenColorIO_v2_4dev::GradingRGBCurveOpData" = type { %"class.OpenColorIO_v2_4dev::OpData", i32, %"class.std::shared_ptr.161", i8, i32 }
%"class.std::shared_ptr.161" = type { %"class.std::__shared_ptr.162" }
%"class.std::__shared_ptr.162" = type { ptr, %"class.std::__shared_count" }
%"class.OpenColorIO_v2_4dev::CTFReaderGradingToneElt" = type { %"class.OpenColorIO_v2_4dev::CTFReaderOpElt", %"class.std::shared_ptr.164" }
%"class.std::shared_ptr.164" = type { %"class.std::__shared_ptr.165" }
%"class.std::__shared_ptr.165" = type { ptr, %"class.std::__shared_count" }
%"class.OpenColorIO_v2_4dev::GradingToneOpData" = type <{ %"class.OpenColorIO_v2_4dev::OpData", i32, [4 x i8], %"class.std::shared_ptr.167", i32, [4 x i8] }>
%"class.std::shared_ptr.167" = type { %"class.std::__shared_ptr.168" }
%"class.std::__shared_ptr.168" = type { ptr, %"class.std::__shared_count" }
%"class.std::_Sp_counted_ptr_inplace.409" = type { %"class.std::_Sp_counted_base", %"class.std::_Sp_counted_ptr_inplace<OpenColorIO_v2_4dev::ExposureContrastOpData, std::allocator<void>, __gnu_cxx::_S_atomic>::_Impl" }
%"class.std::_Sp_counted_ptr_inplace<OpenColorIO_v2_4dev::ExposureContrastOpData, std::allocator<void>, __gnu_cxx::_S_atomic>::_Impl" = type { %"struct.__gnu_cxx::__aligned_buffer.410" }
%"struct.__gnu_cxx::__aligned_buffer.410" = type { %"union.std::aligned_storage<248, 8>::type" }
%"union.std::aligned_storage<248, 8>::type" = type { [248 x i8] }
%"class.OpenColorIO_v2_4dev::CTFReaderGammaElt" = type { %"class.OpenColorIO_v2_4dev::CTFReaderOpElt", %"class.std::shared_ptr.170" }
%"class.std::shared_ptr.170" = type { %"class.std::__shared_ptr.171" }
%"class.std::__shared_ptr.171" = type { ptr, %"class.std::__shared_count" }
%"class.std::_Sp_counted_ptr_inplace.417" = type { %"class.std::_Sp_counted_base", %"class.std::_Sp_counted_ptr_inplace<OpenColorIO_v2_4dev::GammaOpData, std::allocator<void>, __gnu_cxx::_S_atomic>::_Impl" }
%"class.std::_Sp_counted_ptr_inplace<OpenColorIO_v2_4dev::GammaOpData, std::allocator<void>, __gnu_cxx::_S_atomic>::_Impl" = type { %"struct.__gnu_cxx::__aligned_buffer.418" }
%"struct.__gnu_cxx::__aligned_buffer.418" = type { %"union.std::aligned_storage<272, 8>::type" }
%"union.std::aligned_storage<272, 8>::type" = type { [272 x i8] }
%"class.OpenColorIO_v2_4dev::GammaOpData" = type { %"class.OpenColorIO_v2_4dev::OpData", i32, %"class.std::vector.122", %"class.std::vector.122", %"class.std::vector.122", %"class.std::vector.122" }
%"class.std::shared_ptr.173" = type { %"class.std::__shared_ptr.174" }
%"class.std::__shared_ptr.174" = type { ptr, %"class.std::__shared_count" }
%"class.std::_Sp_counted_ptr_inplace.425" = type { %"class.std::_Sp_counted_base", %"class.std::_Sp_counted_ptr_inplace<OpenColorIO_v2_4dev::CTFReaderGammaParamsElt, std::allocator<void>, __gnu_cxx::_S_atomic>::_Impl" }
%"class.std::_Sp_counted_ptr_inplace<OpenColorIO_v2_4dev::CTFReaderGammaParamsElt, std::allocator<void>, __gnu_cxx::_S_atomic>::_Impl" = type { %"struct.__gnu_cxx::__aligned_buffer.426" }
%"struct.__gnu_cxx::__aligned_buffer.426" = type { %"union.std::aligned_storage<96, 8>::type" }
%"union.std::aligned_storage<96, 8>::type" = type { [96 x i8] }
%"class.std::_Sp_counted_ptr_inplace.433" = type { %"class.std::_Sp_counted_base", %"class.std::_Sp_counted_ptr_inplace<OpenColorIO_v2_4dev::CTFReaderGammaParamsElt_1_5, std::allocator<void>, __gnu_cxx::_S_atomic>::_Impl" }
%"class.std::_Sp_counted_ptr_inplace<OpenColorIO_v2_4dev::CTFReaderGammaParamsElt_1_5, std::allocator<void>, __gnu_cxx::_S_atomic>::_Impl" = type { %"struct.__gnu_cxx::__aligned_buffer.434" }
%"struct.__gnu_cxx::__aligned_buffer.434" = type { %"union.std::aligned_storage<96, 8>::type" }
%"class.std::_Sp_counted_ptr_inplace.439" = type { %"class.std::_Sp_counted_base", %"class.std::_Sp_counted_ptr_inplace<OpenColorIO_v2_4dev::GradingPrimaryOpData, std::allocator<void>, __gnu_cxx::_S_atomic>::_Impl" }
%"class.std::_Sp_counted_ptr_inplace<OpenColorIO_v2_4dev::GradingPrimaryOpData, std::allocator<void>, __gnu_cxx::_S_atomic>::_Impl" = type { %"struct.__gnu_cxx::__aligned_buffer.440" }
%"struct.__gnu_cxx::__aligned_buffer.440" = type { %"union.std::aligned_storage<192, 8>::type" }
%"union.std::aligned_storage<192, 8>::type" = type { [192 x i8] }
%"class.std::_Sp_counted_ptr_inplace.447" = type { %"class.std::_Sp_counted_base", %"class.std::_Sp_counted_ptr_inplace<OpenColorIO_v2_4dev::GradingRGBCurveOpData, std::allocator<void>, __gnu_cxx::_S_atomic>::_Impl" }
%"class.std::_Sp_counted_ptr_inplace<OpenColorIO_v2_4dev::GradingRGBCurveOpData, std::allocator<void>, __gnu_cxx::_S_atomic>::_Impl" = type { %"struct.__gnu_cxx::__aligned_buffer.448" }
%"struct.__gnu_cxx::__aligned_buffer.448" = type { %"union.std::aligned_storage<200, 8>::type" }
%"class.std::shared_ptr.148" = type { %"class.std::__shared_ptr.149" }
%"class.std::__shared_ptr.149" = type { ptr, %"class.std::__shared_count" }
%"class.OpenColorIO_v2_4dev::CTFReaderGradingCurveElt" = type { %"class.OpenColorIO_v2_4dev::XmlReaderComplexElt", %"class.std::shared_ptr.179" }
%"class.std::shared_ptr.179" = type { %"class.std::__shared_ptr.180" }
%"class.std::__shared_ptr.180" = type { ptr, %"class.std::__shared_count" }
%"class.OpenColorIO_v2_4dev::CTFReaderGradingCurvePointsElt" = type { %"class.OpenColorIO_v2_4dev::XmlReaderPlainElt", %"class.std::vector.156" }
%"class.std::vector.156" = type { %"struct.std::_Vector_base.157" }
%"struct.std::_Vector_base.157" = type { %"struct.std::_Vector_base<float, std::allocator<float>>::_Vector_impl" }
%"struct.std::_Vector_base<float, std::allocator<float>>::_Vector_impl" = type { %"struct.std::_Vector_base<float, std::allocator<float>>::_Vector_impl_data" }
%"struct.std::_Vector_base<float, std::allocator<float>>::_Vector_impl_data" = type { ptr, ptr, ptr }
%"struct.OpenColorIO_v2_4dev::GradingControlPoint" = type { float, float }
%"class.OpenColorIO_v2_4dev::CTFReaderGradingCurveSlopesElt" = type { %"class.OpenColorIO_v2_4dev::XmlReaderPlainElt", %"class.std::vector.156" }
%"class.std::_Sp_counted_ptr_inplace.453" = type { %"class.std::_Sp_counted_base", %"class.std::_Sp_counted_ptr_inplace<OpenColorIO_v2_4dev::GradingToneOpData, std::allocator<void>, __gnu_cxx::_S_atomic>::_Impl" }
%"class.std::_Sp_counted_ptr_inplace<OpenColorIO_v2_4dev::GradingToneOpData, std::allocator<void>, __gnu_cxx::_S_atomic>::_Impl" = type { %"struct.__gnu_cxx::__aligned_buffer.454" }
%"struct.__gnu_cxx::__aligned_buffer.454" = type { %"union.std::aligned_storage<200, 8>::type" }
%"struct.OpenColorIO_v2_4dev::GradingTone" = type { %"struct.OpenColorIO_v2_4dev::GradingRGBMSW", %"struct.OpenColorIO_v2_4dev::GradingRGBMSW", %"struct.OpenColorIO_v2_4dev::GradingRGBMSW", %"struct.OpenColorIO_v2_4dev::GradingRGBMSW", %"struct.OpenColorIO_v2_4dev::GradingRGBMSW", double }
%"struct.OpenColorIO_v2_4dev::GradingRGBMSW" = type { double, double, double, double, double, double }
%"class.OpenColorIO_v2_4dev::CTFReaderInvLut1DElt" = type { %"class.OpenColorIO_v2_4dev::CTFReaderOpElt", %"class.OpenColorIO_v2_4dev::CTFArrayMgt.base", %"class.std::shared_ptr.183" }
%"class.OpenColorIO_v2_4dev::CTFArrayMgt.base" = type <{ ptr, i8 }>
%"class.std::shared_ptr.183" = type { %"class.std::__shared_ptr.184" }
%"class.std::__shared_ptr.184" = type { ptr, %"class.std::__shared_count" }
%"class.std::_Sp_counted_ptr_inplace.459" = type { %"class.std::_Sp_counted_base", %"class.std::_Sp_counted_ptr_inplace<OpenColorIO_v2_4dev::Lut1DOpData, std::allocator<void>, __gnu_cxx::_S_atomic>::_Impl" }
%"class.std::_Sp_counted_ptr_inplace<OpenColorIO_v2_4dev::Lut1DOpData, std::allocator<void>, __gnu_cxx::_S_atomic>::_Impl" = type { %"struct.__gnu_cxx::__aligned_buffer.460" }
%"struct.__gnu_cxx::__aligned_buffer.460" = type { %"union.std::aligned_storage<368, 8>::type" }
%"union.std::aligned_storage<368, 8>::type" = type { [368 x i8] }
%"class.OpenColorIO_v2_4dev::Lut1DOpData" = type <{ %"class.OpenColorIO_v2_4dev::OpData", i32, [4 x i8], %"class.OpenColorIO_v2_4dev::Lut1DOpData::Lut3by1DArray", i32, i32, i32, [4 x i8], [3 x %"struct.OpenColorIO_v2_4dev::Lut1DOpData::ComponentProperties"], i32, [4 x i8] }>
%"class.OpenColorIO_v2_4dev::Lut1DOpData::Lut3by1DArray" = type { %"class.OpenColorIO_v2_4dev::ArrayT" }
%"class.OpenColorIO_v2_4dev::ArrayT" = type { %"class.OpenColorIO_v2_4dev::ArrayBase", i64, i64, %"class.std::vector.156" }
%"class.OpenColorIO_v2_4dev::ArrayBase" = type { ptr }
%"struct.OpenColorIO_v2_4dev::Lut1DOpData::ComponentProperties" = type { i8, i64, i64, i64, i64 }
%"class.OpenColorIO_v2_4dev::CTFReaderInvLut3DElt" = type { %"class.OpenColorIO_v2_4dev::CTFReaderOpElt", %"class.OpenColorIO_v2_4dev::CTFArrayMgt.base", %"class.std::shared_ptr.186" }
%"class.std::shared_ptr.186" = type { %"class.std::__shared_ptr.187" }
%"class.std::__shared_ptr.187" = type { ptr, %"class.std::__shared_count" }
%"class.std::_Sp_counted_ptr_inplace.467" = type { %"class.std::_Sp_counted_base", %"class.std::_Sp_counted_ptr_inplace<OpenColorIO_v2_4dev::Lut3DOpData, std::allocator<void>, __gnu_cxx::_S_atomic>::_Impl" }
%"class.std::_Sp_counted_ptr_inplace<OpenColorIO_v2_4dev::Lut3DOpData, std::allocator<void>, __gnu_cxx::_S_atomic>::_Impl" = type { %"struct.__gnu_cxx::__aligned_buffer.468" }
%"struct.__gnu_cxx::__aligned_buffer.468" = type { %"union.std::aligned_storage<232, 8>::type" }
%"union.std::aligned_storage<232, 8>::type" = type { [232 x i8] }
%"class.OpenColorIO_v2_4dev::Lut3DOpData" = type { %"class.OpenColorIO_v2_4dev::OpData", i32, %"class.OpenColorIO_v2_4dev::Lut3DOpData::Lut3DArray", i32, i32 }
%"class.OpenColorIO_v2_4dev::Lut3DOpData::Lut3DArray" = type { %"class.OpenColorIO_v2_4dev::ArrayT" }
%"class.OpenColorIO_v2_4dev::CTFReaderLogElt" = type { %"class.OpenColorIO_v2_4dev::CTFReaderOpElt", %"struct.OpenColorIO_v2_4dev::LogUtil::CTFParams", i8, %"class.std::shared_ptr.189" }
%"struct.OpenColorIO_v2_4dev::LogUtil::CTFParams" = type <{ i32, [4 x i8], [3 x %"class.std::vector.122"], i32, [4 x i8] }>
%"class.std::shared_ptr.189" = type { %"class.std::__shared_ptr.190" }
%"class.std::__shared_ptr.190" = type { ptr, %"class.std::__shared_count" }
%"class.std::_Sp_counted_ptr_inplace.475" = type { %"class.std::_Sp_counted_base", %"class.std::_Sp_counted_ptr_inplace<OpenColorIO_v2_4dev::LogOpData, std::allocator<void>, __gnu_cxx::_S_atomic>::_Impl" }
%"class.std::_Sp_counted_ptr_inplace<OpenColorIO_v2_4dev::LogOpData, std::allocator<void>, __gnu_cxx::_S_atomic>::_Impl" = type { %"struct.__gnu_cxx::__aligned_buffer.476" }
%"struct.__gnu_cxx::__aligned_buffer.476" = type { %"union.std::aligned_storage<256, 8>::type" }
%"class.OpenColorIO_v2_4dev::LogOpData" = type <{ %"class.OpenColorIO_v2_4dev::OpData", %"class.std::vector.122", %"class.std::vector.122", %"class.std::vector.122", double, i32, [4 x i8] }>
%"class.std::shared_ptr.192" = type { %"class.std::__shared_ptr.193" }
%"class.std::__shared_ptr.193" = type { ptr, %"class.std::__shared_count" }
%"class.std::_Sp_counted_ptr_inplace.481" = type { %"class.std::_Sp_counted_base", %"class.std::_Sp_counted_ptr_inplace<OpenColorIO_v2_4dev::CTFReaderLogParamsElt, std::allocator<void>, __gnu_cxx::_S_atomic>::_Impl" }
%"class.std::_Sp_counted_ptr_inplace<OpenColorIO_v2_4dev::CTFReaderLogParamsElt, std::allocator<void>, __gnu_cxx::_S_atomic>::_Impl" = type { %"struct.__gnu_cxx::__aligned_buffer.482" }
%"struct.__gnu_cxx::__aligned_buffer.482" = type { %"union.std::aligned_storage<96, 8>::type" }
%"class.std::_Sp_counted_ptr_inplace.487" = type { %"class.std::_Sp_counted_base", %"class.std::_Sp_counted_ptr_inplace<OpenColorIO_v2_4dev::CTFReaderLogParamsElt_2_0, std::allocator<void>, __gnu_cxx::_S_atomic>::_Impl" }
%"class.std::_Sp_counted_ptr_inplace<OpenColorIO_v2_4dev::CTFReaderLogParamsElt_2_0, std::allocator<void>, __gnu_cxx::_S_atomic>::_Impl" = type { %"struct.__gnu_cxx::__aligned_buffer.488" }
%"struct.__gnu_cxx::__aligned_buffer.488" = type { %"union.std::aligned_storage<96, 8>::type" }
%"class.OpenColorIO_v2_4dev::CTFReaderLut1DElt" = type { %"class.OpenColorIO_v2_4dev::CTFReaderOpElt", %"class.OpenColorIO_v2_4dev::CTFArrayMgt.base", [7 x i8], %"class.OpenColorIO_v2_4dev::CTFIndexMapMgt.base", %"class.std::shared_ptr.183", %"class.OpenColorIO_v2_4dev::IndexMapping" }
%"class.OpenColorIO_v2_4dev::CTFIndexMapMgt.base" = type <{ ptr, i8 }>
%"class.OpenColorIO_v2_4dev::IndexMapping" = type { ptr, i64, [3 x %"class.std::vector.30"] }
%"class.std::vector.30" = type { %"struct.std::_Vector_base.31" }
%"struct.std::_Vector_base.31" = type { %"struct.std::_Vector_base<std::pair<float, float>, std::allocator<std::pair<float, float>>>::_Vector_impl" }
%"struct.std::_Vector_base<std::pair<float, float>, std::allocator<std::pair<float, float>>>::_Vector_impl" = type { %"struct.std::_Vector_base<std::pair<float, float>, std::allocator<std::pair<float, float>>>::_Vector_impl_data" }
%"struct.std::_Vector_base<std::pair<float, float>, std::allocator<std::pair<float, float>>>::_Vector_impl_data" = type { ptr, ptr, ptr }
%"class.std::shared_ptr.198" = type { %"class.std::__shared_ptr.199" }
%"class.std::__shared_ptr.199" = type { ptr, %"class.std::__shared_count" }
%"class.std::_Sp_counted_ptr_inplace.493" = type { %"class.std::_Sp_counted_base", %"class.std::_Sp_counted_ptr_inplace<OpenColorIO_v2_4dev::RangeOpData, std::allocator<void>, __gnu_cxx::_S_atomic>::_Impl" }
%"class.std::_Sp_counted_ptr_inplace<OpenColorIO_v2_4dev::RangeOpData, std::allocator<void>, __gnu_cxx::_S_atomic>::_Impl" = type { %"struct.__gnu_cxx::__aligned_buffer.494" }
%"struct.__gnu_cxx::__aligned_buffer.494" = type { %"union.std::aligned_storage<232, 8>::type" }
%"class.OpenColorIO_v2_4dev::CTFReaderLut3DElt" = type { %"class.OpenColorIO_v2_4dev::CTFReaderOpElt", %"class.OpenColorIO_v2_4dev::CTFArrayMgt.base", [7 x i8], %"class.OpenColorIO_v2_4dev::CTFIndexMapMgt.base", %"class.std::shared_ptr.186", %"class.OpenColorIO_v2_4dev::IndexMapping" }
%"class.OpenColorIO_v2_4dev::CTFReaderMatrixElt" = type { %"class.OpenColorIO_v2_4dev::CTFReaderOpElt", %"class.OpenColorIO_v2_4dev::CTFArrayMgt.base", %"class.std::shared_ptr.203" }
%"class.std::shared_ptr.203" = type { %"class.std::__shared_ptr.204" }
%"class.std::__shared_ptr.204" = type { ptr, %"class.std::__shared_count" }
%"class.std::_Sp_counted_ptr_inplace.499" = type { %"class.std::_Sp_counted_base", %"class.std::_Sp_counted_ptr_inplace<OpenColorIO_v2_4dev::MatrixOpData, std::allocator<void>, __gnu_cxx::_S_atomic>::_Impl" }
%"class.std::_Sp_counted_ptr_inplace<OpenColorIO_v2_4dev::MatrixOpData, std::allocator<void>, __gnu_cxx::_S_atomic>::_Impl" = type { %"struct.__gnu_cxx::__aligned_buffer.500" }
%"struct.__gnu_cxx::__aligned_buffer.500" = type { %"union.std::aligned_storage<264, 8>::type" }
%"union.std::aligned_storage<264, 8>::type" = type { [264 x i8] }
%"class.OpenColorIO_v2_4dev::MatrixOpData" = type <{ %"class.OpenColorIO_v2_4dev::OpData", %"class.OpenColorIO_v2_4dev::MatrixOpData::MatrixArray", %"class.OpenColorIO_v2_4dev::MatrixOpData::Offsets", i32, i32, i32, [4 x i8] }>
%"class.OpenColorIO_v2_4dev::MatrixOpData::MatrixArray" = type { %"class.OpenColorIO_v2_4dev::ArrayT.206" }
%"class.OpenColorIO_v2_4dev::ArrayT.206" = type { %"class.OpenColorIO_v2_4dev::ArrayBase", i64, i64, %"class.std::vector.122" }
%"class.OpenColorIO_v2_4dev::MatrixOpData::Offsets" = type { [4 x double] }
%"class.OpenColorIO_v2_4dev::CTFReaderRangeElt" = type { %"class.OpenColorIO_v2_4dev::CTFReaderOpElt", %"class.std::shared_ptr.198" }
%"class.OpenColorIO_v2_4dev::RangeOpData" = type <{ %"class.OpenColorIO_v2_4dev::OpData", double, double, double, double, double, double, i32, i32, i32, [4 x i8] }>
%"class.OpenColorIO_v2_4dev::CTFReaderRangeElt_1_7" = type <{ %"class.OpenColorIO_v2_4dev::CTFReaderRangeElt", i8, [7 x i8] }>
%"class.OpenColorIO_v2_4dev::CTFReaderReferenceElt" = type { %"class.OpenColorIO_v2_4dev::CTFReaderOpElt", %"class.std::shared_ptr.207" }
%"class.std::shared_ptr.207" = type { %"class.std::__shared_ptr.208" }
%"class.std::__shared_ptr.208" = type { ptr, %"class.std::__shared_count" }
%"class.std::_Sp_counted_ptr_inplace.507" = type { %"class.std::_Sp_counted_base", %"class.std::_Sp_counted_ptr_inplace<OpenColorIO_v2_4dev::ReferenceOpData, std::allocator<void>, __gnu_cxx::_S_atomic>::_Impl" }
%"class.std::_Sp_counted_ptr_inplace<OpenColorIO_v2_4dev::ReferenceOpData, std::allocator<void>, __gnu_cxx::_S_atomic>::_Impl" = type { %"struct.__gnu_cxx::__aligned_buffer.508" }
%"struct.__gnu_cxx::__aligned_buffer.508" = type { %"union.std::aligned_storage<248, 8>::type" }
%"class.OpenColorIO_v2_4dev::ReferenceOpData" = type <{ %"class.OpenColorIO_v2_4dev::OpData", i32, [4 x i8], %"class.std::__cxx11::basic_string", %"class.std::__cxx11::basic_string", i32, [4 x i8] }>
%"class.std::type_info" = type { ptr, ptr }
%"class.std::_Sp_counted_ptr_inplace.225" = type { %"class.std::_Sp_counted_base", %"class.std::_Sp_counted_ptr_inplace<OpenColorIO_v2_4dev::CTFReaderACESElt, std::allocator<void>, __gnu_cxx::_S_atomic>::_Impl" }
%"class.std::_Sp_counted_ptr_inplace<OpenColorIO_v2_4dev::CTFReaderACESElt, std::allocator<void>, __gnu_cxx::_S_atomic>::_Impl" = type { %"struct.__gnu_cxx::__aligned_buffer.226" }
%"struct.__gnu_cxx::__aligned_buffer.226" = type { %"union.std::aligned_storage<120, 8>::type" }
%"union.std::aligned_storage<120, 8>::type" = type { [120 x i8] }
%"class.std::_Sp_counted_ptr_inplace.233" = type { %"class.std::_Sp_counted_base", %"class.std::_Sp_counted_ptr_inplace<OpenColorIO_v2_4dev::CTFReaderCDLElt, std::allocator<void>, __gnu_cxx::_S_atomic>::_Impl" }
%"class.std::_Sp_counted_ptr_inplace<OpenColorIO_v2_4dev::CTFReaderCDLElt, std::allocator<void>, __gnu_cxx::_S_atomic>::_Impl" = type { %"struct.__gnu_cxx::__aligned_buffer.234" }
%"struct.__gnu_cxx::__aligned_buffer.234" = type { %"union.std::aligned_storage<120, 8>::type" }
%"class.std::_Sp_counted_ptr_inplace.239" = type { %"class.std::_Sp_counted_base", %"class.std::_Sp_counted_ptr_inplace<OpenColorIO_v2_4dev::CTFReaderExposureContrastElt, std::allocator<void>, __gnu_cxx::_S_atomic>::_Impl" }
%"class.std::_Sp_counted_ptr_inplace<OpenColorIO_v2_4dev::CTFReaderExposureContrastElt, std::allocator<void>, __gnu_cxx::_S_atomic>::_Impl" = type { %"struct.__gnu_cxx::__aligned_buffer.240" }
%"struct.__gnu_cxx::__aligned_buffer.240" = type { %"union.std::aligned_storage<120, 8>::type" }
%"class.std::_Sp_counted_ptr_inplace.245" = type { %"class.std::_Sp_counted_base", %"class.std::_Sp_counted_ptr_inplace<OpenColorIO_v2_4dev::CTFReaderFixedFunctionElt, std::allocator<void>, __gnu_cxx::_S_atomic>::_Impl" }
%"class.std::_Sp_counted_ptr_inplace<OpenColorIO_v2_4dev::CTFReaderFixedFunctionElt, std::allocator<void>, __gnu_cxx::_S_atomic>::_Impl" = type { %"struct.__gnu_cxx::__aligned_buffer.246" }
%"struct.__gnu_cxx::__aligned_buffer.246" = type { %"union.std::aligned_storage<120, 8>::type" }
%"class.std::_Sp_counted_ptr_inplace.251" = type { %"class.std::_Sp_counted_base", %"class.std::_Sp_counted_ptr_inplace<OpenColorIO_v2_4dev::CTFReaderFunctionElt, std::allocator<void>, __gnu_cxx::_S_atomic>::_Impl" }
%"class.std::_Sp_counted_ptr_inplace<OpenColorIO_v2_4dev::CTFReaderFunctionElt, std::allocator<void>, __gnu_cxx::_S_atomic>::_Impl" = type { %"struct.__gnu_cxx::__aligned_buffer.252" }
%"struct.__gnu_cxx::__aligned_buffer.252" = type { %"union.std::aligned_storage<120, 8>::type" }
%"class.std::_Sp_counted_ptr_inplace.257" = type { %"class.std::_Sp_counted_base", %"class.std::_Sp_counted_ptr_inplace<OpenColorIO_v2_4dev::CTFReaderGammaElt, std::allocator<void>, __gnu_cxx::_S_atomic>::_Impl" }
%"class.std::_Sp_counted_ptr_inplace<OpenColorIO_v2_4dev::CTFReaderGammaElt, std::allocator<void>, __gnu_cxx::_S_atomic>::_Impl" = type { %"struct.__gnu_cxx::__aligned_buffer.258" }
%"struct.__gnu_cxx::__aligned_buffer.258" = type { %"union.std::aligned_storage<120, 8>::type" }
%"class.std::_Sp_counted_ptr_inplace.263" = type { %"class.std::_Sp_counted_base", %"class.std::_Sp_counted_ptr_inplace<OpenColorIO_v2_4dev::CTFReaderGammaElt_1_5, std::allocator<void>, __gnu_cxx::_S_atomic>::_Impl" }
%"class.std::_Sp_counted_ptr_inplace<OpenColorIO_v2_4dev::CTFReaderGammaElt_1_5, std::allocator<void>, __gnu_cxx::_S_atomic>::_Impl" = type { %"struct.__gnu_cxx::__aligned_buffer.264" }
%"struct.__gnu_cxx::__aligned_buffer.264" = type { %"union.std::aligned_storage<120, 8>::type" }
%"class.std::_Sp_counted_ptr_inplace.269" = type { %"class.std::_Sp_counted_base", %"class.std::_Sp_counted_ptr_inplace<OpenColorIO_v2_4dev::CTFReaderGammaElt_CTF_2_0, std::allocator<void>, __gnu_cxx::_S_atomic>::_Impl" }
%"class.std::_Sp_counted_ptr_inplace<OpenColorIO_v2_4dev::CTFReaderGammaElt_CTF_2_0, std::allocator<void>, __gnu_cxx::_S_atomic>::_Impl" = type { %"struct.__gnu_cxx::__aligned_buffer.270" }
%"struct.__gnu_cxx::__aligned_buffer.270" = type { %"union.std::aligned_storage<120, 8>::type" }
%"class.std::_Sp_counted_ptr_inplace.275" = type { %"class.std::_Sp_counted_base", %"class.std::_Sp_counted_ptr_inplace<OpenColorIO_v2_4dev::CTFReaderGammaElt_CLF_3_0, std::allocator<void>, __gnu_cxx::_S_atomic>::_Impl" }
%"class.std::_Sp_counted_ptr_inplace<OpenColorIO_v2_4dev::CTFReaderGammaElt_CLF_3_0, std::allocator<void>, __gnu_cxx::_S_atomic>::_Impl" = type { %"struct.__gnu_cxx::__aligned_buffer.276" }
%"struct.__gnu_cxx::__aligned_buffer.276" = type { %"union.std::aligned_storage<120, 8>::type" }
%"class.std::_Sp_counted_ptr_inplace.289" = type { %"class.std::_Sp_counted_base", %"class.std::_Sp_counted_ptr_inplace<OpenColorIO_v2_4dev::CTFReaderGradingRGBCurveElt, std::allocator<void>, __gnu_cxx::_S_atomic>::_Impl" }
%"class.std::_Sp_counted_ptr_inplace<OpenColorIO_v2_4dev::CTFReaderGradingRGBCurveElt, std::allocator<void>, __gnu_cxx::_S_atomic>::_Impl" = type { %"struct.__gnu_cxx::__aligned_buffer.290" }
%"struct.__gnu_cxx::__aligned_buffer.290" = type { %"union.std::aligned_storage<136, 8>::type" }
%"union.std::aligned_storage<136, 8>::type" = type { [136 x i8] }
%"class.std::_Sp_counted_ptr_inplace.297" = type { %"class.std::_Sp_counted_base", %"class.std::_Sp_counted_ptr_inplace<OpenColorIO_v2_4dev::CTFReaderGradingToneElt, std::allocator<void>, __gnu_cxx::_S_atomic>::_Impl" }
%"class.std::_Sp_counted_ptr_inplace<OpenColorIO_v2_4dev::CTFReaderGradingToneElt, std::allocator<void>, __gnu_cxx::_S_atomic>::_Impl" = type { %"struct.__gnu_cxx::__aligned_buffer.298" }
%"struct.__gnu_cxx::__aligned_buffer.298" = type { %"union.std::aligned_storage<120, 8>::type" }
%"class.std::_Sp_counted_ptr_inplace.303" = type { %"class.std::_Sp_counted_base", %"class.std::_Sp_counted_ptr_inplace<OpenColorIO_v2_4dev::CTFReaderInvLut1DElt, std::allocator<void>, __gnu_cxx::_S_atomic>::_Impl" }
%"class.std::_Sp_counted_ptr_inplace<OpenColorIO_v2_4dev::CTFReaderInvLut1DElt, std::allocator<void>, __gnu_cxx::_S_atomic>::_Impl" = type { %"struct.__gnu_cxx::__aligned_buffer.304" }
%"struct.__gnu_cxx::__aligned_buffer.304" = type { %"union.std::aligned_storage<136, 8>::type" }
%"class.std::_Sp_counted_ptr_inplace.309" = type { %"class.std::_Sp_counted_base", %"class.std::_Sp_counted_ptr_inplace<OpenColorIO_v2_4dev::CTFReaderInvLut3DElt, std::allocator<void>, __gnu_cxx::_S_atomic>::_Impl" }
%"class.std::_Sp_counted_ptr_inplace<OpenColorIO_v2_4dev::CTFReaderInvLut3DElt, std::allocator<void>, __gnu_cxx::_S_atomic>::_Impl" = type { %"struct.__gnu_cxx::__aligned_buffer.310" }
%"struct.__gnu_cxx::__aligned_buffer.310" = type { %"union.std::aligned_storage<136, 8>::type" }
%"class.std::_Sp_counted_ptr_inplace.361" = type { %"class.std::_Sp_counted_base", %"class.std::_Sp_counted_ptr_inplace<OpenColorIO_v2_4dev::CTFReaderMatrixElt, std::allocator<void>, __gnu_cxx::_S_atomic>::_Impl" }
%"class.std::_Sp_counted_ptr_inplace<OpenColorIO_v2_4dev::CTFReaderMatrixElt, std::allocator<void>, __gnu_cxx::_S_atomic>::_Impl" = type { %"struct.__gnu_cxx::__aligned_buffer.362" }
%"struct.__gnu_cxx::__aligned_buffer.362" = type { %"union.std::aligned_storage<136, 8>::type" }
%"class.std::_Sp_counted_ptr_inplace.367" = type { %"class.std::_Sp_counted_base", %"class.std::_Sp_counted_ptr_inplace<OpenColorIO_v2_4dev::CTFReaderMatrixElt_1_3, std::allocator<void>, __gnu_cxx::_S_atomic>::_Impl" }
%"class.std::_Sp_counted_ptr_inplace<OpenColorIO_v2_4dev::CTFReaderMatrixElt_1_3, std::allocator<void>, __gnu_cxx::_S_atomic>::_Impl" = type { %"struct.__gnu_cxx::__aligned_buffer.368" }
%"struct.__gnu_cxx::__aligned_buffer.368" = type { %"union.std::aligned_storage<136, 8>::type" }
%"class.std::_Sp_counted_ptr_inplace.373" = type { %"class.std::_Sp_counted_base", %"class.std::_Sp_counted_ptr_inplace<OpenColorIO_v2_4dev::CTFReaderRangeElt, std::allocator<void>, __gnu_cxx::_S_atomic>::_Impl" }
%"class.std::_Sp_counted_ptr_inplace<OpenColorIO_v2_4dev::CTFReaderRangeElt, std::allocator<void>, __gnu_cxx::_S_atomic>::_Impl" = type { %"struct.__gnu_cxx::__aligned_buffer.374" }
%"struct.__gnu_cxx::__aligned_buffer.374" = type { %"union.std::aligned_storage<120, 8>::type" }
%"class.std::_Sp_counted_ptr_inplace.379" = type { %"class.std::_Sp_counted_base", %"class.std::_Sp_counted_ptr_inplace<OpenColorIO_v2_4dev::CTFReaderRangeElt_1_7, std::allocator<void>, __gnu_cxx::_S_atomic>::_Impl" }
%"class.std::_Sp_counted_ptr_inplace<OpenColorIO_v2_4dev::CTFReaderRangeElt_1_7, std::allocator<void>, __gnu_cxx::_S_atomic>::_Impl" = type { %"struct.__gnu_cxx::__aligned_buffer.380" }
%"struct.__gnu_cxx::__aligned_buffer.380" = type { %"union.std::aligned_storage<128, 8>::type" }
%"union.std::aligned_storage<128, 8>::type" = type { [128 x i8] }
%"class.std::_Sp_counted_ptr_inplace.387" = type { %"class.std::_Sp_counted_base", %"class.std::_Sp_counted_ptr_inplace<OpenColorIO_v2_4dev::CTFReaderReferenceElt, std::allocator<void>, __gnu_cxx::_S_atomic>::_Impl" }
%"class.std::_Sp_counted_ptr_inplace<OpenColorIO_v2_4dev::CTFReaderReferenceElt, std::allocator<void>, __gnu_cxx::_S_atomic>::_Impl" = type { %"struct.__gnu_cxx::__aligned_buffer.388" }
%"struct.__gnu_cxx::__aligned_buffer.388" = type { %"union.std::aligned_storage<120, 8>::type" }

$_ZN19OpenColorIO_v2_4dev11NumberUtils6LocaleD2Ev = comdat any

$_ZNSt10shared_ptrIN19OpenColorIO_v2_4dev18CTFReaderTransformEED2Ev = comdat any

$__clang_call_terminate = comdat any

$_ZNSt10shared_ptrIN19OpenColorIO_v2_4dev21XmlReaderContainerEltEED2Ev = comdat any

$_ZN19OpenColorIO_v2_4dev10GetNumbersIjEESt6vectorIT_SaIS2_EEPKcm = comdat any

$_ZN19OpenColorIO_v2_4dev14TruncateStringB5cxx11EPKcm = comdat any

$_ZNSt10shared_ptrIN19OpenColorIO_v2_4dev6OpDataEED2Ev = comdat any

$_ZNSt10shared_ptrIKN19OpenColorIO_v2_4dev6OpDataEED2Ev = comdat any

$_ZNSt10shared_ptrIN19OpenColorIO_v2_4dev14CTFReaderOpEltEEaSINS0_16CTFReaderACESEltEEENSt9enable_ifIXsr13is_assignableIRSt12__shared_ptrIS1_LN9__gnu_cxx12_Lock_policyE2EES_IT_EEE5valueERS2_E4typeEOSC_ = comdat any

$_ZNSt10shared_ptrIN19OpenColorIO_v2_4dev16CTFReaderACESEltEED2Ev = comdat any

$_ZNSt10shared_ptrIN19OpenColorIO_v2_4dev14CTFReaderOpEltEEaSINS0_15CTFReaderCDLEltEEENSt9enable_ifIXsr13is_assignableIRSt12__shared_ptrIS1_LN9__gnu_cxx12_Lock_policyE2EES_IT_EEE5valueERS2_E4typeEOSC_ = comdat any

$_ZNSt10shared_ptrIN19OpenColorIO_v2_4dev15CTFReaderCDLEltEED2Ev = comdat any

$_ZNSt10shared_ptrIN19OpenColorIO_v2_4dev14CTFReaderOpEltEEaSINS0_28CTFReaderExposureContrastEltEEENSt9enable_ifIXsr13is_assignableIRSt12__shared_ptrIS1_LN9__gnu_cxx12_Lock_policyE2EES_IT_EEE5valueERS2_E4typeEOSC_ = comdat any

$_ZNSt10shared_ptrIN19OpenColorIO_v2_4dev28CTFReaderExposureContrastEltEED2Ev = comdat any

$_ZNSt10shared_ptrIN19OpenColorIO_v2_4dev14CTFReaderOpEltEEaSINS0_25CTFReaderFixedFunctionEltEEENSt9enable_ifIXsr13is_assignableIRSt12__shared_ptrIS1_LN9__gnu_cxx12_Lock_policyE2EES_IT_EEE5valueERS2_E4typeEOSC_ = comdat any

$_ZNSt10shared_ptrIN19OpenColorIO_v2_4dev25CTFReaderFixedFunctionEltEED2Ev = comdat any

$_ZNSt10shared_ptrIN19OpenColorIO_v2_4dev14CTFReaderOpEltEEaSINS0_20CTFReaderFunctionEltEEENSt9enable_ifIXsr13is_assignableIRSt12__shared_ptrIS1_LN9__gnu_cxx12_Lock_policyE2EES_IT_EEE5valueERS2_E4typeEOSC_ = comdat any

$_ZNSt10shared_ptrIN19OpenColorIO_v2_4dev20CTFReaderFunctionEltEED2Ev = comdat any

$_ZNSt10shared_ptrIN19OpenColorIO_v2_4dev14CTFReaderOpEltEEaSINS0_17CTFReaderGammaEltEEENSt9enable_ifIXsr13is_assignableIRSt12__shared_ptrIS1_LN9__gnu_cxx12_Lock_policyE2EES_IT_EEE5valueERS2_E4typeEOSC_ = comdat any

$_ZNSt10shared_ptrIN19OpenColorIO_v2_4dev17CTFReaderGammaEltEED2Ev = comdat any

$_ZNSt10shared_ptrIN19OpenColorIO_v2_4dev14CTFReaderOpEltEEaSINS0_21CTFReaderGammaElt_1_5EEENSt9enable_ifIXsr13is_assignableIRSt12__shared_ptrIS1_LN9__gnu_cxx12_Lock_policyE2EES_IT_EEE5valueERS2_E4typeEOSC_ = comdat any

$_ZNSt10shared_ptrIN19OpenColorIO_v2_4dev21CTFReaderGammaElt_1_5EED2Ev = comdat any

$_ZNSt10shared_ptrIN19OpenColorIO_v2_4dev14CTFReaderOpEltEEaSINS0_25CTFReaderGammaElt_CTF_2_0EEENSt9enable_ifIXsr13is_assignableIRSt12__shared_ptrIS1_LN9__gnu_cxx12_Lock_policyE2EES_IT_EEE5valueERS2_E4typeEOSC_ = comdat any

$_ZNSt10shared_ptrIN19OpenColorIO_v2_4dev25CTFReaderGammaElt_CTF_2_0EED2Ev = comdat any

$_ZNSt10shared_ptrIN19OpenColorIO_v2_4dev14CTFReaderOpEltEEaSINS0_25CTFReaderGammaElt_CLF_3_0EEENSt9enable_ifIXsr13is_assignableIRSt12__shared_ptrIS1_LN9__gnu_cxx12_Lock_policyE2EES_IT_EEE5valueERS2_E4typeEOSC_ = comdat any

$_ZNSt10shared_ptrIN19OpenColorIO_v2_4dev25CTFReaderGammaElt_CLF_3_0EED2Ev = comdat any

$_ZSt11make_sharedIN19OpenColorIO_v2_4dev26CTFReaderGradingPrimaryEltEJEESt10shared_ptrINSt9enable_ifIXntsr8is_arrayIT_EE5valueES4_E4typeEEDpOT0_ = comdat any

$_ZNSt10shared_ptrIN19OpenColorIO_v2_4dev14CTFReaderOpEltEEaSINS0_26CTFReaderGradingPrimaryEltEEENSt9enable_ifIXsr13is_assignableIRSt12__shared_ptrIS1_LN9__gnu_cxx12_Lock_policyE2EES_IT_EEE5valueERS2_E4typeEOSC_ = comdat any

$_ZNSt10shared_ptrIN19OpenColorIO_v2_4dev26CTFReaderGradingPrimaryEltEED2Ev = comdat any

$_ZNSt10shared_ptrIN19OpenColorIO_v2_4dev14CTFReaderOpEltEEaSINS0_27CTFReaderGradingRGBCurveEltEEENSt9enable_ifIXsr13is_assignableIRSt12__shared_ptrIS1_LN9__gnu_cxx12_Lock_policyE2EES_IT_EEE5valueERS2_E4typeEOSC_ = comdat any

$_ZNSt10shared_ptrIN19OpenColorIO_v2_4dev27CTFReaderGradingRGBCurveEltEED2Ev = comdat any

$_ZNSt10shared_ptrIN19OpenColorIO_v2_4dev14CTFReaderOpEltEEaSINS0_23CTFReaderGradingToneEltEEENSt9enable_ifIXsr13is_assignableIRSt12__shared_ptrIS1_LN9__gnu_cxx12_Lock_policyE2EES_IT_EEE5valueERS2_E4typeEOSC_ = comdat any

$_ZNSt10shared_ptrIN19OpenColorIO_v2_4dev23CTFReaderGradingToneEltEED2Ev = comdat any

$_ZNSt10shared_ptrIN19OpenColorIO_v2_4dev14CTFReaderOpEltEEaSINS0_20CTFReaderInvLut1DEltEEENSt9enable_ifIXsr13is_assignableIRSt12__shared_ptrIS1_LN9__gnu_cxx12_Lock_policyE2EES_IT_EEE5valueERS2_E4typeEOSC_ = comdat any

$_ZNSt10shared_ptrIN19OpenColorIO_v2_4dev20CTFReaderInvLut1DEltEED2Ev = comdat any

$_ZNSt10shared_ptrIN19OpenColorIO_v2_4dev14CTFReaderOpEltEEaSINS0_20CTFReaderInvLut3DEltEEENSt9enable_ifIXsr13is_assignableIRSt12__shared_ptrIS1_LN9__gnu_cxx12_Lock_policyE2EES_IT_EEE5valueERS2_E4typeEOSC_ = comdat any

$_ZNSt10shared_ptrIN19OpenColorIO_v2_4dev20CTFReaderInvLut3DEltEED2Ev = comdat any

$_ZSt11make_sharedIN19OpenColorIO_v2_4dev15CTFReaderLogEltEJEESt10shared_ptrINSt9enable_ifIXntsr8is_arrayIT_EE5valueES4_E4typeEEDpOT0_ = comdat any

$_ZNSt10shared_ptrIN19OpenColorIO_v2_4dev14CTFReaderOpEltEEaSINS0_15CTFReaderLogEltEEENSt9enable_ifIXsr13is_assignableIRSt12__shared_ptrIS1_LN9__gnu_cxx12_Lock_policyE2EES_IT_EEE5valueERS2_E4typeEOSC_ = comdat any

$_ZNSt10shared_ptrIN19OpenColorIO_v2_4dev15CTFReaderLogEltEED2Ev = comdat any

$_ZSt11make_sharedIN19OpenColorIO_v2_4dev19CTFReaderLogElt_2_0EJEESt10shared_ptrINSt9enable_ifIXntsr8is_arrayIT_EE5valueES4_E4typeEEDpOT0_ = comdat any

$_ZNSt10shared_ptrIN19OpenColorIO_v2_4dev14CTFReaderOpEltEEaSINS0_19CTFReaderLogElt_2_0EEENSt9enable_ifIXsr13is_assignableIRSt12__shared_ptrIS1_LN9__gnu_cxx12_Lock_policyE2EES_IT_EEE5valueERS2_E4typeEOSC_ = comdat any

$_ZNSt10shared_ptrIN19OpenColorIO_v2_4dev19CTFReaderLogElt_2_0EED2Ev = comdat any

$_ZSt11make_sharedIN19OpenColorIO_v2_4dev21CTFReaderLut1DElt_1_4EJEESt10shared_ptrINSt9enable_ifIXntsr8is_arrayIT_EE5valueES4_E4typeEEDpOT0_ = comdat any

$_ZNSt10shared_ptrIN19OpenColorIO_v2_4dev14CTFReaderOpEltEEaSINS0_21CTFReaderLut1DElt_1_4EEENSt9enable_ifIXsr13is_assignableIRSt12__shared_ptrIS1_LN9__gnu_cxx12_Lock_policyE2EES_IT_EEE5valueERS2_E4typeEOSC_ = comdat any

$_ZNSt10shared_ptrIN19OpenColorIO_v2_4dev21CTFReaderLut1DElt_1_4EED2Ev = comdat any

$_ZSt11make_sharedIN19OpenColorIO_v2_4dev21CTFReaderLut1DElt_1_7EJEESt10shared_ptrINSt9enable_ifIXntsr8is_arrayIT_EE5valueES4_E4typeEEDpOT0_ = comdat any

$_ZNSt10shared_ptrIN19OpenColorIO_v2_4dev14CTFReaderOpEltEEaSINS0_21CTFReaderLut1DElt_1_7EEENSt9enable_ifIXsr13is_assignableIRSt12__shared_ptrIS1_LN9__gnu_cxx12_Lock_policyE2EES_IT_EEE5valueERS2_E4typeEOSC_ = comdat any

$_ZNSt10shared_ptrIN19OpenColorIO_v2_4dev21CTFReaderLut1DElt_1_7EED2Ev = comdat any

$_ZSt11make_sharedIN19OpenColorIO_v2_4dev21CTFReaderLut3DElt_1_7EJEESt10shared_ptrINSt9enable_ifIXntsr8is_arrayIT_EE5valueES4_E4typeEEDpOT0_ = comdat any

$_ZNSt10shared_ptrIN19OpenColorIO_v2_4dev14CTFReaderOpEltEEaSINS0_21CTFReaderLut3DElt_1_7EEENSt9enable_ifIXsr13is_assignableIRSt12__shared_ptrIS1_LN9__gnu_cxx12_Lock_policyE2EES_IT_EEE5valueERS2_E4typeEOSC_ = comdat any

$_ZNSt10shared_ptrIN19OpenColorIO_v2_4dev21CTFReaderLut3DElt_1_7EED2Ev = comdat any

$_ZNSt10shared_ptrIN19OpenColorIO_v2_4dev14CTFReaderOpEltEEaSINS0_22CTFReaderMatrixElt_1_3EEENSt9enable_ifIXsr13is_assignableIRSt12__shared_ptrIS1_LN9__gnu_cxx12_Lock_policyE2EES_IT_EEE5valueERS2_E4typeEOSC_ = comdat any

$_ZNSt10shared_ptrIN19OpenColorIO_v2_4dev22CTFReaderMatrixElt_1_3EED2Ev = comdat any

$_ZNSt10shared_ptrIN19OpenColorIO_v2_4dev14CTFReaderOpEltEEaSINS0_21CTFReaderRangeElt_1_7EEENSt9enable_ifIXsr13is_assignableIRSt12__shared_ptrIS1_LN9__gnu_cxx12_Lock_policyE2EES_IT_EEE5valueERS2_E4typeEOSC_ = comdat any

$_ZNSt10shared_ptrIN19OpenColorIO_v2_4dev21CTFReaderRangeElt_1_7EED2Ev = comdat any

$_ZNSt10shared_ptrIN19OpenColorIO_v2_4dev14CTFReaderOpEltEED2Ev = comdat any

$_ZNSt10shared_ptrIN19OpenColorIO_v2_4dev19FixedFunctionOpDataEED2Ev = comdat any

$_ZN19OpenColorIO_v2_4dev16XmlReaderElement20parseScalarAttributeIdEEvPKcS3_RT_ = comdat any

$_ZN19OpenColorIO_v2_4dev23XmlReaderSatNodeBaseEltC2ERKNSt7__cxx1112basic_stringIcSt11char_traitsIcESaIcEEESt10shared_ptrINS_21XmlReaderContainerEltEEjS8_ = comdat any

$_ZN19OpenColorIO_v2_4dev23XmlReaderSOPNodeBaseEltC2ERKNSt7__cxx1112basic_stringIcSt11char_traitsIcESaIcEEESt10shared_ptrINS_21XmlReaderContainerEltEEjS8_ = comdat any

$_ZN19OpenColorIO_v2_4dev10GetNumbersIdEESt6vectorIT_SaIS2_EEPKcm = comdat any

$_ZNSt10shared_ptrIN19OpenColorIO_v2_4dev22ExposureContrastOpDataEED2Ev = comdat any

$_ZNSt10shared_ptrIN19OpenColorIO_v2_4dev15GradingRGBCurveEED2Ev = comdat any

$_ZNSt10shared_ptrIKN19OpenColorIO_v2_4dev15GradingRGBCurveEED2Ev = comdat any

$_ZNSt10shared_ptrIN19OpenColorIO_v2_4dev19GradingBSplineCurveEED2Ev = comdat any

$_ZN19OpenColorIO_v2_4dev10GetNumbersIfEESt6vectorIT_SaIS2_EEPKcm = comdat any

$_ZNSt10shared_ptrIN19OpenColorIO_v2_4dev11Lut1DOpDataEED2Ev = comdat any

$_ZNSt10shared_ptrIN19OpenColorIO_v2_4dev11Lut3DOpDataEED2Ev = comdat any

$_ZNSt10shared_ptrIN19OpenColorIO_v2_4dev9LogOpDataEED2Ev = comdat any

$_ZNSt6vectorIdSaIdEEaSERKS1_ = comdat any

$_ZNSt10shared_ptrIN19OpenColorIO_v2_4dev11RangeOpDataEED2Ev = comdat any

$_ZN19OpenColorIO_v2_4dev21CTFReaderTransformEltD2Ev = comdat any

$_ZN19OpenColorIO_v2_4dev21CTFReaderTransformEltD0Ev = comdat any

$_ZNK19OpenColorIO_v2_4dev21XmlReaderContainerElt11isContainerEv = comdat any

$_ZNK19OpenColorIO_v2_4dev16XmlReaderElement7isDummyEv = comdat any

$_ZN19OpenColorIO_v2_4dev21CTFReaderGammaElt_1_5D2Ev = comdat any

$_ZN19OpenColorIO_v2_4dev21CTFReaderGammaElt_1_5D0Ev = comdat any

$_ZN19OpenColorIO_v2_4dev25CTFReaderGammaElt_CTF_2_0D2Ev = comdat any

$_ZN19OpenColorIO_v2_4dev25CTFReaderGammaElt_CTF_2_0D0Ev = comdat any

$_ZN19OpenColorIO_v2_4dev25CTFReaderGammaElt_CLF_3_0D2Ev = comdat any

$_ZN19OpenColorIO_v2_4dev25CTFReaderGammaElt_CLF_3_0D0Ev = comdat any

$_ZN19OpenColorIO_v2_4dev19CTFReaderLogElt_2_0D2Ev = comdat any

$_ZN19OpenColorIO_v2_4dev19CTFReaderLogElt_2_0D0Ev = comdat any

$_ZN19OpenColorIO_v2_4dev25CTFReaderLogParamsElt_2_0D2Ev = comdat any

$_ZN19OpenColorIO_v2_4dev25CTFReaderLogParamsElt_2_0D0Ev = comdat any

$_ZNK19OpenColorIO_v2_4dev17XmlReaderPlainElt11isContainerEv = comdat any

$_ZNK19OpenColorIO_v2_4dev17XmlReaderPlainElt13getIdentifierB5cxx11Ev = comdat any

$_ZNK19OpenColorIO_v2_4dev17XmlReaderPlainElt11getTypeNameEv = comdat any

$_ZN19OpenColorIO_v2_4dev21CTFReaderLut1DElt_1_4D2Ev = comdat any

$_ZN19OpenColorIO_v2_4dev21CTFReaderLut1DElt_1_4D0Ev = comdat any

$_ZThn104_N19OpenColorIO_v2_4dev21CTFReaderLut1DElt_1_4D1Ev = comdat any

$_ZThn104_N19OpenColorIO_v2_4dev21CTFReaderLut1DElt_1_4D0Ev = comdat any

$_ZN19OpenColorIO_v2_4dev11CTFArrayMgt12setCompletedEb = comdat any

$_ZThn120_N19OpenColorIO_v2_4dev21CTFReaderLut1DElt_1_4D1Ev = comdat any

$_ZThn120_N19OpenColorIO_v2_4dev21CTFReaderLut1DElt_1_4D0Ev = comdat any

$_ZN19OpenColorIO_v2_4dev21CTFReaderLut1DElt_1_7D2Ev = comdat any

$_ZN19OpenColorIO_v2_4dev21CTFReaderLut1DElt_1_7D0Ev = comdat any

$_ZThn104_N19OpenColorIO_v2_4dev21CTFReaderLut1DElt_1_7D1Ev = comdat any

$_ZThn104_N19OpenColorIO_v2_4dev21CTFReaderLut1DElt_1_7D0Ev = comdat any

$_ZThn120_N19OpenColorIO_v2_4dev21CTFReaderLut1DElt_1_7D1Ev = comdat any

$_ZThn120_N19OpenColorIO_v2_4dev21CTFReaderLut1DElt_1_7D0Ev = comdat any

$_ZN19OpenColorIO_v2_4dev21CTFReaderLut3DElt_1_7D2Ev = comdat any

$_ZN19OpenColorIO_v2_4dev21CTFReaderLut3DElt_1_7D0Ev = comdat any

$_ZThn104_N19OpenColorIO_v2_4dev21CTFReaderLut3DElt_1_7D1Ev = comdat any

$_ZThn104_N19OpenColorIO_v2_4dev21CTFReaderLut3DElt_1_7D0Ev = comdat any

$_ZThn120_N19OpenColorIO_v2_4dev21CTFReaderLut3DElt_1_7D1Ev = comdat any

$_ZThn120_N19OpenColorIO_v2_4dev21CTFReaderLut3DElt_1_7D0Ev = comdat any

$_ZN19OpenColorIO_v2_4dev22CTFReaderMatrixElt_1_3D2Ev = comdat any

$_ZN19OpenColorIO_v2_4dev22CTFReaderMatrixElt_1_3D0Ev = comdat any

$_ZThn104_N19OpenColorIO_v2_4dev22CTFReaderMatrixElt_1_3D1Ev = comdat any

$_ZThn104_N19OpenColorIO_v2_4dev22CTFReaderMatrixElt_1_3D0Ev = comdat any

$_ZNK19OpenColorIO_v2_4dev19XmlReaderComplexElt11getTypeNameEv = comdat any

$_ZN19OpenColorIO_v2_4dev19XmlReaderComplexElt14appendMetadataERKNSt7__cxx1112basic_stringIcSt11char_traitsIcESaIcEEES8_ = comdat any

$_ZN19OpenColorIO_v2_4dev22CTFReaderACESParamsElt3endEv = comdat any

$_ZN19OpenColorIO_v2_4dev22CTFReaderACESParamsElt10setRawDataEPKcmj = comdat any

$_ZN19OpenColorIO_v2_4dev19CTFReaderSatNodeEltD2Ev = comdat any

$_ZN19OpenColorIO_v2_4dev19CTFReaderSatNodeEltD0Ev = comdat any

$_ZN19OpenColorIO_v2_4dev23XmlReaderSatNodeBaseElt5startEPPKc = comdat any

$_ZN19OpenColorIO_v2_4dev23XmlReaderSatNodeBaseElt3endEv = comdat any

$_ZNK19OpenColorIO_v2_4dev19XmlReaderComplexElt13getIdentifierB5cxx11Ev = comdat any

$_ZN19OpenColorIO_v2_4dev23XmlReaderSatNodeBaseElt14appendMetadataERKNSt7__cxx1112basic_stringIcSt11char_traitsIcESaIcEEES8_ = comdat any

$_ZN19OpenColorIO_v2_4dev19CTFReaderSOPNodeEltD2Ev = comdat any

$_ZN19OpenColorIO_v2_4dev19CTFReaderSOPNodeEltD0Ev = comdat any

$_ZN19OpenColorIO_v2_4dev23XmlReaderSOPNodeBaseElt5startEPPKc = comdat any

$_ZN19OpenColorIO_v2_4dev23XmlReaderSOPNodeBaseElt3endEv = comdat any

$_ZN19OpenColorIO_v2_4dev23XmlReaderSOPNodeBaseElt14appendMetadataERKNSt7__cxx1112basic_stringIcSt11char_traitsIcESaIcEEES8_ = comdat any

$_ZN19OpenColorIO_v2_4dev24CTFReaderDynamicParamElt3endEv = comdat any

$_ZN19OpenColorIO_v2_4dev24CTFReaderDynamicParamElt10setRawDataEPKcmj = comdat any

$_ZN19OpenColorIO_v2_4dev20CTFReaderECParamsElt3endEv = comdat any

$_ZN19OpenColorIO_v2_4dev20CTFReaderECParamsElt10setRawDataEPKcmj = comdat any

$_ZN19OpenColorIO_v2_4dev26CTFReaderGradingPrimaryEltD2Ev = comdat any

$_ZN19OpenColorIO_v2_4dev26CTFReaderGradingPrimaryEltD0Ev = comdat any

$_ZN19OpenColorIO_v2_4dev27CTFReaderGradingRGBCurveEltD2Ev = comdat any

$_ZN19OpenColorIO_v2_4dev27CTFReaderGradingRGBCurveEltD0Ev = comdat any

$_ZN19OpenColorIO_v2_4dev23CTFReaderGradingToneEltD2Ev = comdat any

$_ZN19OpenColorIO_v2_4dev23CTFReaderGradingToneEltD0Ev = comdat any

$_ZN19OpenColorIO_v2_4dev21XmlReaderContainerEltD2Ev = comdat any

$_ZN19OpenColorIO_v2_4dev21XmlReaderContainerEltD0Ev = comdat any

$_ZN19OpenColorIO_v2_4dev17XmlReaderPlainEltD2Ev = comdat any

$_ZN19OpenColorIO_v2_4dev17XmlReaderPlainEltD0Ev = comdat any

$_ZN19OpenColorIO_v2_4dev14TruncateStringB5cxx11EPKcmm = comdat any

$_ZN19OpenColorIO_v2_4dev11ParseNumberIfEEvPKcmmRT_ = comdat any

$_ZN19OpenColorIO_v2_4dev19XmlReaderComplexEltD2Ev = comdat any

$_ZN19OpenColorIO_v2_4dev19XmlReaderComplexEltD0Ev = comdat any

$_ZN19OpenColorIO_v2_4dev23XmlReaderSatNodeBaseEltD2Ev = comdat any

$_ZN19OpenColorIO_v2_4dev23XmlReaderSatNodeBaseEltD0Ev = comdat any

$_ZN19OpenColorIO_v2_4dev23XmlReaderSOPNodeBaseEltD2Ev = comdat any

$_ZN19OpenColorIO_v2_4dev23XmlReaderSOPNodeBaseEltD0Ev = comdat any

$_ZNSt6vectorIN19OpenColorIO_v2_4dev18FormatMetadataImplESaIS1_EE17_M_realloc_insertIJRKS1_EEEvN9__gnu_cxx17__normal_iteratorIPS1_S3_EEDpOT_ = comdat any

$_ZNSt23_Sp_counted_ptr_inplaceIN19OpenColorIO_v2_4dev18CTFReaderTransformESaIvELN9__gnu_cxx12_Lock_policyE2EED2Ev = comdat any

$_ZNSt23_Sp_counted_ptr_inplaceIN19OpenColorIO_v2_4dev18CTFReaderTransformESaIvELN9__gnu_cxx12_Lock_policyE2EED0Ev = comdat any

$_ZNSt23_Sp_counted_ptr_inplaceIN19OpenColorIO_v2_4dev18CTFReaderTransformESaIvELN9__gnu_cxx12_Lock_policyE2EE10_M_disposeEv = comdat any

$_ZNSt23_Sp_counted_ptr_inplaceIN19OpenColorIO_v2_4dev18CTFReaderTransformESaIvELN9__gnu_cxx12_Lock_policyE2EE10_M_destroyEv = comdat any

$_ZNSt23_Sp_counted_ptr_inplaceIN19OpenColorIO_v2_4dev18CTFReaderTransformESaIvELN9__gnu_cxx12_Lock_policyE2EE14_M_get_deleterERKSt9type_info = comdat any

$_ZN19OpenColorIO_v2_4dev18CTFReaderTransformD2Ev = comdat any

$_ZNSt6vectorINSt7__cxx1112basic_stringIcSt11char_traitsIcESaIcEEESaIS5_EE17_M_realloc_insertIJRKS5_EEEvN9__gnu_cxx17__normal_iteratorIPS5_S7_EEDpOT_ = comdat any

$_ZN19OpenColorIO_v2_4dev11ParseNumberIjEEvPKcmmRT_ = comdat any

$_ZN19OpenColorIO_v2_4dev11ParseNumberIdEEvPKcmmRT_ = comdat any

$_ZNSt6vectorISt10shared_ptrIKN19OpenColorIO_v2_4dev6OpDataEESaIS4_EE17_M_realloc_insertIJS4_EEEvN9__gnu_cxx17__normal_iteratorIPS4_S6_EEDpOT_ = comdat any

$_ZNSt14__shared_countILN9__gnu_cxx12_Lock_policyE2EEC2IN19OpenColorIO_v2_4dev16CTFReaderACESEltESaIvEJEEERPT_St20_Sp_alloc_shared_tagIT0_EDpOT1_ = comdat any

$_ZNSt23_Sp_counted_ptr_inplaceIN19OpenColorIO_v2_4dev16CTFReaderACESEltESaIvELN9__gnu_cxx12_Lock_policyE2EED2Ev = comdat any

$_ZNSt23_Sp_counted_ptr_inplaceIN19OpenColorIO_v2_4dev16CTFReaderACESEltESaIvELN9__gnu_cxx12_Lock_policyE2EED0Ev = comdat any

$_ZNSt23_Sp_counted_ptr_inplaceIN19OpenColorIO_v2_4dev16CTFReaderACESEltESaIvELN9__gnu_cxx12_Lock_policyE2EE10_M_disposeEv = comdat any

$_ZNSt23_Sp_counted_ptr_inplaceIN19OpenColorIO_v2_4dev16CTFReaderACESEltESaIvELN9__gnu_cxx12_Lock_policyE2EE10_M_destroyEv = comdat any

$_ZNSt23_Sp_counted_ptr_inplaceIN19OpenColorIO_v2_4dev16CTFReaderACESEltESaIvELN9__gnu_cxx12_Lock_policyE2EE14_M_get_deleterERKSt9type_info = comdat any

$_ZNSt14__shared_countILN9__gnu_cxx12_Lock_policyE2EEC2IN19OpenColorIO_v2_4dev15CTFReaderCDLEltESaIvEJEEERPT_St20_Sp_alloc_shared_tagIT0_EDpOT1_ = comdat any

$_ZNSt23_Sp_counted_ptr_inplaceIN19OpenColorIO_v2_4dev15CTFReaderCDLEltESaIvELN9__gnu_cxx12_Lock_policyE2EED2Ev = comdat any

$_ZNSt23_Sp_counted_ptr_inplaceIN19OpenColorIO_v2_4dev15CTFReaderCDLEltESaIvELN9__gnu_cxx12_Lock_policyE2EED0Ev = comdat any

$_ZNSt23_Sp_counted_ptr_inplaceIN19OpenColorIO_v2_4dev15CTFReaderCDLEltESaIvELN9__gnu_cxx12_Lock_policyE2EE10_M_disposeEv = comdat any

$_ZNSt23_Sp_counted_ptr_inplaceIN19OpenColorIO_v2_4dev15CTFReaderCDLEltESaIvELN9__gnu_cxx12_Lock_policyE2EE10_M_destroyEv = comdat any

$_ZNSt23_Sp_counted_ptr_inplaceIN19OpenColorIO_v2_4dev15CTFReaderCDLEltESaIvELN9__gnu_cxx12_Lock_policyE2EE14_M_get_deleterERKSt9type_info = comdat any

$_ZNSt14__shared_countILN9__gnu_cxx12_Lock_policyE2EEC2IN19OpenColorIO_v2_4dev28CTFReaderExposureContrastEltESaIvEJEEERPT_St20_Sp_alloc_shared_tagIT0_EDpOT1_ = comdat any

$_ZNSt23_Sp_counted_ptr_inplaceIN19OpenColorIO_v2_4dev28CTFReaderExposureContrastEltESaIvELN9__gnu_cxx12_Lock_policyE2EED2Ev = comdat any

$_ZNSt23_Sp_counted_ptr_inplaceIN19OpenColorIO_v2_4dev28CTFReaderExposureContrastEltESaIvELN9__gnu_cxx12_Lock_policyE2EED0Ev = comdat any

$_ZNSt23_Sp_counted_ptr_inplaceIN19OpenColorIO_v2_4dev28CTFReaderExposureContrastEltESaIvELN9__gnu_cxx12_Lock_policyE2EE10_M_disposeEv = comdat any

$_ZNSt23_Sp_counted_ptr_inplaceIN19OpenColorIO_v2_4dev28CTFReaderExposureContrastEltESaIvELN9__gnu_cxx12_Lock_policyE2EE10_M_destroyEv = comdat any

$_ZNSt23_Sp_counted_ptr_inplaceIN19OpenColorIO_v2_4dev28CTFReaderExposureContrastEltESaIvELN9__gnu_cxx12_Lock_policyE2EE14_M_get_deleterERKSt9type_info = comdat any

$_ZNSt14__shared_countILN9__gnu_cxx12_Lock_policyE2EEC2IN19OpenColorIO_v2_4dev25CTFReaderFixedFunctionEltESaIvEJEEERPT_St20_Sp_alloc_shared_tagIT0_EDpOT1_ = comdat any

$_ZNSt23_Sp_counted_ptr_inplaceIN19OpenColorIO_v2_4dev25CTFReaderFixedFunctionEltESaIvELN9__gnu_cxx12_Lock_policyE2EED2Ev = comdat any

$_ZNSt23_Sp_counted_ptr_inplaceIN19OpenColorIO_v2_4dev25CTFReaderFixedFunctionEltESaIvELN9__gnu_cxx12_Lock_policyE2EED0Ev = comdat any

$_ZNSt23_Sp_counted_ptr_inplaceIN19OpenColorIO_v2_4dev25CTFReaderFixedFunctionEltESaIvELN9__gnu_cxx12_Lock_policyE2EE10_M_disposeEv = comdat any

$_ZNSt23_Sp_counted_ptr_inplaceIN19OpenColorIO_v2_4dev25CTFReaderFixedFunctionEltESaIvELN9__gnu_cxx12_Lock_policyE2EE10_M_destroyEv = comdat any

$_ZNSt23_Sp_counted_ptr_inplaceIN19OpenColorIO_v2_4dev25CTFReaderFixedFunctionEltESaIvELN9__gnu_cxx12_Lock_policyE2EE14_M_get_deleterERKSt9type_info = comdat any

$_ZNSt14__shared_countILN9__gnu_cxx12_Lock_policyE2EEC2IN19OpenColorIO_v2_4dev20CTFReaderFunctionEltESaIvEJEEERPT_St20_Sp_alloc_shared_tagIT0_EDpOT1_ = comdat any

$_ZNSt23_Sp_counted_ptr_inplaceIN19OpenColorIO_v2_4dev20CTFReaderFunctionEltESaIvELN9__gnu_cxx12_Lock_policyE2EED2Ev = comdat any

$_ZNSt23_Sp_counted_ptr_inplaceIN19OpenColorIO_v2_4dev20CTFReaderFunctionEltESaIvELN9__gnu_cxx12_Lock_policyE2EED0Ev = comdat any

$_ZNSt23_Sp_counted_ptr_inplaceIN19OpenColorIO_v2_4dev20CTFReaderFunctionEltESaIvELN9__gnu_cxx12_Lock_policyE2EE10_M_disposeEv = comdat any

$_ZNSt23_Sp_counted_ptr_inplaceIN19OpenColorIO_v2_4dev20CTFReaderFunctionEltESaIvELN9__gnu_cxx12_Lock_policyE2EE10_M_destroyEv = comdat any

$_ZNSt23_Sp_counted_ptr_inplaceIN19OpenColorIO_v2_4dev20CTFReaderFunctionEltESaIvELN9__gnu_cxx12_Lock_policyE2EE14_M_get_deleterERKSt9type_info = comdat any

$_ZNSt14__shared_countILN9__gnu_cxx12_Lock_policyE2EEC2IN19OpenColorIO_v2_4dev17CTFReaderGammaEltESaIvEJEEERPT_St20_Sp_alloc_shared_tagIT0_EDpOT1_ = comdat any

$_ZNSt23_Sp_counted_ptr_inplaceIN19OpenColorIO_v2_4dev17CTFReaderGammaEltESaIvELN9__gnu_cxx12_Lock_policyE2EED2Ev = comdat any

$_ZNSt23_Sp_counted_ptr_inplaceIN19OpenColorIO_v2_4dev17CTFReaderGammaEltESaIvELN9__gnu_cxx12_Lock_policyE2EED0Ev = comdat any

$_ZNSt23_Sp_counted_ptr_inplaceIN19OpenColorIO_v2_4dev17CTFReaderGammaEltESaIvELN9__gnu_cxx12_Lock_policyE2EE10_M_disposeEv = comdat any

$_ZNSt23_Sp_counted_ptr_inplaceIN19OpenColorIO_v2_4dev17CTFReaderGammaEltESaIvELN9__gnu_cxx12_Lock_policyE2EE10_M_destroyEv = comdat any

$_ZNSt23_Sp_counted_ptr_inplaceIN19OpenColorIO_v2_4dev17CTFReaderGammaEltESaIvELN9__gnu_cxx12_Lock_policyE2EE14_M_get_deleterERKSt9type_info = comdat any

$_ZNSt14__shared_countILN9__gnu_cxx12_Lock_policyE2EEC2IN19OpenColorIO_v2_4dev21CTFReaderGammaElt_1_5ESaIvEJEEERPT_St20_Sp_alloc_shared_tagIT0_EDpOT1_ = comdat any

$_ZNSt23_Sp_counted_ptr_inplaceIN19OpenColorIO_v2_4dev21CTFReaderGammaElt_1_5ESaIvELN9__gnu_cxx12_Lock_policyE2EED2Ev = comdat any

$_ZNSt23_Sp_counted_ptr_inplaceIN19OpenColorIO_v2_4dev21CTFReaderGammaElt_1_5ESaIvELN9__gnu_cxx12_Lock_policyE2EED0Ev = comdat any

$_ZNSt23_Sp_counted_ptr_inplaceIN19OpenColorIO_v2_4dev21CTFReaderGammaElt_1_5ESaIvELN9__gnu_cxx12_Lock_policyE2EE10_M_disposeEv = comdat any

$_ZNSt23_Sp_counted_ptr_inplaceIN19OpenColorIO_v2_4dev21CTFReaderGammaElt_1_5ESaIvELN9__gnu_cxx12_Lock_policyE2EE10_M_destroyEv = comdat any

$_ZNSt23_Sp_counted_ptr_inplaceIN19OpenColorIO_v2_4dev21CTFReaderGammaElt_1_5ESaIvELN9__gnu_cxx12_Lock_policyE2EE14_M_get_deleterERKSt9type_info = comdat any

$_ZNSt14__shared_countILN9__gnu_cxx12_Lock_policyE2EEC2IN19OpenColorIO_v2_4dev25CTFReaderGammaElt_CTF_2_0ESaIvEJEEERPT_St20_Sp_alloc_shared_tagIT0_EDpOT1_ = comdat any

$_ZNSt23_Sp_counted_ptr_inplaceIN19OpenColorIO_v2_4dev25CTFReaderGammaElt_CTF_2_0ESaIvELN9__gnu_cxx12_Lock_policyE2EED2Ev = comdat any

$_ZNSt23_Sp_counted_ptr_inplaceIN19OpenColorIO_v2_4dev25CTFReaderGammaElt_CTF_2_0ESaIvELN9__gnu_cxx12_Lock_policyE2EED0Ev = comdat any

$_ZNSt23_Sp_counted_ptr_inplaceIN19OpenColorIO_v2_4dev25CTFReaderGammaElt_CTF_2_0ESaIvELN9__gnu_cxx12_Lock_policyE2EE10_M_disposeEv = comdat any

$_ZNSt23_Sp_counted_ptr_inplaceIN19OpenColorIO_v2_4dev25CTFReaderGammaElt_CTF_2_0ESaIvELN9__gnu_cxx12_Lock_policyE2EE10_M_destroyEv = comdat any

$_ZNSt23_Sp_counted_ptr_inplaceIN19OpenColorIO_v2_4dev25CTFReaderGammaElt_CTF_2_0ESaIvELN9__gnu_cxx12_Lock_policyE2EE14_M_get_deleterERKSt9type_info = comdat any

$_ZNSt14__shared_countILN9__gnu_cxx12_Lock_policyE2EEC2IN19OpenColorIO_v2_4dev25CTFReaderGammaElt_CLF_3_0ESaIvEJEEERPT_St20_Sp_alloc_shared_tagIT0_EDpOT1_ = comdat any

$_ZNSt23_Sp_counted_ptr_inplaceIN19OpenColorIO_v2_4dev25CTFReaderGammaElt_CLF_3_0ESaIvELN9__gnu_cxx12_Lock_policyE2EED2Ev = comdat any

$_ZNSt23_Sp_counted_ptr_inplaceIN19OpenColorIO_v2_4dev25CTFReaderGammaElt_CLF_3_0ESaIvELN9__gnu_cxx12_Lock_policyE2EED0Ev = comdat any

$_ZNSt23_Sp_counted_ptr_inplaceIN19OpenColorIO_v2_4dev25CTFReaderGammaElt_CLF_3_0ESaIvELN9__gnu_cxx12_Lock_policyE2EE10_M_disposeEv = comdat any

$_ZNSt23_Sp_counted_ptr_inplaceIN19OpenColorIO_v2_4dev25CTFReaderGammaElt_CLF_3_0ESaIvELN9__gnu_cxx12_Lock_policyE2EE10_M_destroyEv = comdat any

$_ZNSt23_Sp_counted_ptr_inplaceIN19OpenColorIO_v2_4dev25CTFReaderGammaElt_CLF_3_0ESaIvELN9__gnu_cxx12_Lock_policyE2EE14_M_get_deleterERKSt9type_info = comdat any

$_ZNSt23_Sp_counted_ptr_inplaceIN19OpenColorIO_v2_4dev26CTFReaderGradingPrimaryEltESaIvELN9__gnu_cxx12_Lock_policyE2EED2Ev = comdat any

$_ZNSt23_Sp_counted_ptr_inplaceIN19OpenColorIO_v2_4dev26CTFReaderGradingPrimaryEltESaIvELN9__gnu_cxx12_Lock_policyE2EED0Ev = comdat any

$_ZNSt23_Sp_counted_ptr_inplaceIN19OpenColorIO_v2_4dev26CTFReaderGradingPrimaryEltESaIvELN9__gnu_cxx12_Lock_policyE2EE10_M_disposeEv = comdat any

$_ZNSt23_Sp_counted_ptr_inplaceIN19OpenColorIO_v2_4dev26CTFReaderGradingPrimaryEltESaIvELN9__gnu_cxx12_Lock_policyE2EE10_M_destroyEv = comdat any

$_ZNSt23_Sp_counted_ptr_inplaceIN19OpenColorIO_v2_4dev26CTFReaderGradingPrimaryEltESaIvELN9__gnu_cxx12_Lock_policyE2EE14_M_get_deleterERKSt9type_info = comdat any

$_ZNSt14__shared_countILN9__gnu_cxx12_Lock_policyE2EEC2IN19OpenColorIO_v2_4dev27CTFReaderGradingRGBCurveEltESaIvEJEEERPT_St20_Sp_alloc_shared_tagIT0_EDpOT1_ = comdat any

$_ZNSt23_Sp_counted_ptr_inplaceIN19OpenColorIO_v2_4dev27CTFReaderGradingRGBCurveEltESaIvELN9__gnu_cxx12_Lock_policyE2EED2Ev = comdat any

$_ZNSt23_Sp_counted_ptr_inplaceIN19OpenColorIO_v2_4dev27CTFReaderGradingRGBCurveEltESaIvELN9__gnu_cxx12_Lock_policyE2EED0Ev = comdat any

$_ZNSt23_Sp_counted_ptr_inplaceIN19OpenColorIO_v2_4dev27CTFReaderGradingRGBCurveEltESaIvELN9__gnu_cxx12_Lock_policyE2EE10_M_disposeEv = comdat any

$_ZNSt23_Sp_counted_ptr_inplaceIN19OpenColorIO_v2_4dev27CTFReaderGradingRGBCurveEltESaIvELN9__gnu_cxx12_Lock_policyE2EE10_M_destroyEv = comdat any

$_ZNSt23_Sp_counted_ptr_inplaceIN19OpenColorIO_v2_4dev27CTFReaderGradingRGBCurveEltESaIvELN9__gnu_cxx12_Lock_policyE2EE14_M_get_deleterERKSt9type_info = comdat any

$_ZNSt14__shared_countILN9__gnu_cxx12_Lock_policyE2EEC2IN19OpenColorIO_v2_4dev23CTFReaderGradingToneEltESaIvEJEEERPT_St20_Sp_alloc_shared_tagIT0_EDpOT1_ = comdat any

$_ZNSt23_Sp_counted_ptr_inplaceIN19OpenColorIO_v2_4dev23CTFReaderGradingToneEltESaIvELN9__gnu_cxx12_Lock_policyE2EED2Ev = comdat any

$_ZNSt23_Sp_counted_ptr_inplaceIN19OpenColorIO_v2_4dev23CTFReaderGradingToneEltESaIvELN9__gnu_cxx12_Lock_policyE2EED0Ev = comdat any

$_ZNSt23_Sp_counted_ptr_inplaceIN19OpenColorIO_v2_4dev23CTFReaderGradingToneEltESaIvELN9__gnu_cxx12_Lock_policyE2EE10_M_disposeEv = comdat any

$_ZNSt23_Sp_counted_ptr_inplaceIN19OpenColorIO_v2_4dev23CTFReaderGradingToneEltESaIvELN9__gnu_cxx12_Lock_policyE2EE10_M_destroyEv = comdat any

$_ZNSt23_Sp_counted_ptr_inplaceIN19OpenColorIO_v2_4dev23CTFReaderGradingToneEltESaIvELN9__gnu_cxx12_Lock_policyE2EE14_M_get_deleterERKSt9type_info = comdat any

$_ZNSt14__shared_countILN9__gnu_cxx12_Lock_policyE2EEC2IN19OpenColorIO_v2_4dev20CTFReaderInvLut1DEltESaIvEJEEERPT_St20_Sp_alloc_shared_tagIT0_EDpOT1_ = comdat any

$_ZNSt23_Sp_counted_ptr_inplaceIN19OpenColorIO_v2_4dev20CTFReaderInvLut1DEltESaIvELN9__gnu_cxx12_Lock_policyE2EED2Ev = comdat any

$_ZNSt23_Sp_counted_ptr_inplaceIN19OpenColorIO_v2_4dev20CTFReaderInvLut1DEltESaIvELN9__gnu_cxx12_Lock_policyE2EED0Ev = comdat any

$_ZNSt23_Sp_counted_ptr_inplaceIN19OpenColorIO_v2_4dev20CTFReaderInvLut1DEltESaIvELN9__gnu_cxx12_Lock_policyE2EE10_M_disposeEv = comdat any

$_ZNSt23_Sp_counted_ptr_inplaceIN19OpenColorIO_v2_4dev20CTFReaderInvLut1DEltESaIvELN9__gnu_cxx12_Lock_policyE2EE10_M_destroyEv = comdat any

$_ZNSt23_Sp_counted_ptr_inplaceIN19OpenColorIO_v2_4dev20CTFReaderInvLut1DEltESaIvELN9__gnu_cxx12_Lock_policyE2EE14_M_get_deleterERKSt9type_info = comdat any

$_ZNSt14__shared_countILN9__gnu_cxx12_Lock_policyE2EEC2IN19OpenColorIO_v2_4dev20CTFReaderInvLut3DEltESaIvEJEEERPT_St20_Sp_alloc_shared_tagIT0_EDpOT1_ = comdat any

$_ZNSt23_Sp_counted_ptr_inplaceIN19OpenColorIO_v2_4dev20CTFReaderInvLut3DEltESaIvELN9__gnu_cxx12_Lock_policyE2EED2Ev = comdat any

$_ZNSt23_Sp_counted_ptr_inplaceIN19OpenColorIO_v2_4dev20CTFReaderInvLut3DEltESaIvELN9__gnu_cxx12_Lock_policyE2EED0Ev = comdat any

$_ZNSt23_Sp_counted_ptr_inplaceIN19OpenColorIO_v2_4dev20CTFReaderInvLut3DEltESaIvELN9__gnu_cxx12_Lock_policyE2EE10_M_disposeEv = comdat any

$_ZNSt23_Sp_counted_ptr_inplaceIN19OpenColorIO_v2_4dev20CTFReaderInvLut3DEltESaIvELN9__gnu_cxx12_Lock_policyE2EE10_M_destroyEv = comdat any

$_ZNSt23_Sp_counted_ptr_inplaceIN19OpenColorIO_v2_4dev20CTFReaderInvLut3DEltESaIvELN9__gnu_cxx12_Lock_policyE2EE14_M_get_deleterERKSt9type_info = comdat any

$_ZNSt23_Sp_counted_ptr_inplaceIN19OpenColorIO_v2_4dev15CTFReaderLogEltESaIvELN9__gnu_cxx12_Lock_policyE2EED2Ev = comdat any

$_ZNSt23_Sp_counted_ptr_inplaceIN19OpenColorIO_v2_4dev15CTFReaderLogEltESaIvELN9__gnu_cxx12_Lock_policyE2EED0Ev = comdat any

$_ZNSt23_Sp_counted_ptr_inplaceIN19OpenColorIO_v2_4dev15CTFReaderLogEltESaIvELN9__gnu_cxx12_Lock_policyE2EE10_M_disposeEv = comdat any

$_ZNSt23_Sp_counted_ptr_inplaceIN19OpenColorIO_v2_4dev15CTFReaderLogEltESaIvELN9__gnu_cxx12_Lock_policyE2EE10_M_destroyEv = comdat any

$_ZNSt23_Sp_counted_ptr_inplaceIN19OpenColorIO_v2_4dev15CTFReaderLogEltESaIvELN9__gnu_cxx12_Lock_policyE2EE14_M_get_deleterERKSt9type_info = comdat any

$_ZNSt23_Sp_counted_ptr_inplaceIN19OpenColorIO_v2_4dev19CTFReaderLogElt_2_0ESaIvELN9__gnu_cxx12_Lock_policyE2EED2Ev = comdat any

$_ZNSt23_Sp_counted_ptr_inplaceIN19OpenColorIO_v2_4dev19CTFReaderLogElt_2_0ESaIvELN9__gnu_cxx12_Lock_policyE2EED0Ev = comdat any

$_ZNSt23_Sp_counted_ptr_inplaceIN19OpenColorIO_v2_4dev19CTFReaderLogElt_2_0ESaIvELN9__gnu_cxx12_Lock_policyE2EE10_M_disposeEv = comdat any

$_ZNSt23_Sp_counted_ptr_inplaceIN19OpenColorIO_v2_4dev19CTFReaderLogElt_2_0ESaIvELN9__gnu_cxx12_Lock_policyE2EE10_M_destroyEv = comdat any

$_ZNSt23_Sp_counted_ptr_inplaceIN19OpenColorIO_v2_4dev19CTFReaderLogElt_2_0ESaIvELN9__gnu_cxx12_Lock_policyE2EE14_M_get_deleterERKSt9type_info = comdat any

$_ZNSt23_Sp_counted_ptr_inplaceIN19OpenColorIO_v2_4dev17CTFReaderLut1DEltESaIvELN9__gnu_cxx12_Lock_policyE2EED2Ev = comdat any

$_ZNSt23_Sp_counted_ptr_inplaceIN19OpenColorIO_v2_4dev17CTFReaderLut1DEltESaIvELN9__gnu_cxx12_Lock_policyE2EED0Ev = comdat any

$_ZNSt23_Sp_counted_ptr_inplaceIN19OpenColorIO_v2_4dev17CTFReaderLut1DEltESaIvELN9__gnu_cxx12_Lock_policyE2EE10_M_disposeEv = comdat any

$_ZNSt23_Sp_counted_ptr_inplaceIN19OpenColorIO_v2_4dev17CTFReaderLut1DEltESaIvELN9__gnu_cxx12_Lock_policyE2EE10_M_destroyEv = comdat any

$_ZNSt23_Sp_counted_ptr_inplaceIN19OpenColorIO_v2_4dev17CTFReaderLut1DEltESaIvELN9__gnu_cxx12_Lock_policyE2EE14_M_get_deleterERKSt9type_info = comdat any

$_ZNSt23_Sp_counted_ptr_inplaceIN19OpenColorIO_v2_4dev21CTFReaderLut1DElt_1_4ESaIvELN9__gnu_cxx12_Lock_policyE2EED2Ev = comdat any

$_ZNSt23_Sp_counted_ptr_inplaceIN19OpenColorIO_v2_4dev21CTFReaderLut1DElt_1_4ESaIvELN9__gnu_cxx12_Lock_policyE2EED0Ev = comdat any

$_ZNSt23_Sp_counted_ptr_inplaceIN19OpenColorIO_v2_4dev21CTFReaderLut1DElt_1_4ESaIvELN9__gnu_cxx12_Lock_policyE2EE10_M_disposeEv = comdat any

$_ZNSt23_Sp_counted_ptr_inplaceIN19OpenColorIO_v2_4dev21CTFReaderLut1DElt_1_4ESaIvELN9__gnu_cxx12_Lock_policyE2EE10_M_destroyEv = comdat any

$_ZNSt23_Sp_counted_ptr_inplaceIN19OpenColorIO_v2_4dev21CTFReaderLut1DElt_1_4ESaIvELN9__gnu_cxx12_Lock_policyE2EE14_M_get_deleterERKSt9type_info = comdat any

$_ZNSt23_Sp_counted_ptr_inplaceIN19OpenColorIO_v2_4dev21CTFReaderLut1DElt_1_7ESaIvELN9__gnu_cxx12_Lock_policyE2EED2Ev = comdat any

$_ZNSt23_Sp_counted_ptr_inplaceIN19OpenColorIO_v2_4dev21CTFReaderLut1DElt_1_7ESaIvELN9__gnu_cxx12_Lock_policyE2EED0Ev = comdat any

$_ZNSt23_Sp_counted_ptr_inplaceIN19OpenColorIO_v2_4dev21CTFReaderLut1DElt_1_7ESaIvELN9__gnu_cxx12_Lock_policyE2EE10_M_disposeEv = comdat any

$_ZNSt23_Sp_counted_ptr_inplaceIN19OpenColorIO_v2_4dev21CTFReaderLut1DElt_1_7ESaIvELN9__gnu_cxx12_Lock_policyE2EE10_M_destroyEv = comdat any

$_ZNSt23_Sp_counted_ptr_inplaceIN19OpenColorIO_v2_4dev21CTFReaderLut1DElt_1_7ESaIvELN9__gnu_cxx12_Lock_policyE2EE14_M_get_deleterERKSt9type_info = comdat any

$_ZNSt23_Sp_counted_ptr_inplaceIN19OpenColorIO_v2_4dev17CTFReaderLut3DEltESaIvELN9__gnu_cxx12_Lock_policyE2EED2Ev = comdat any

$_ZNSt23_Sp_counted_ptr_inplaceIN19OpenColorIO_v2_4dev17CTFReaderLut3DEltESaIvELN9__gnu_cxx12_Lock_policyE2EED0Ev = comdat any

$_ZNSt23_Sp_counted_ptr_inplaceIN19OpenColorIO_v2_4dev17CTFReaderLut3DEltESaIvELN9__gnu_cxx12_Lock_policyE2EE10_M_disposeEv = comdat any

$_ZNSt23_Sp_counted_ptr_inplaceIN19OpenColorIO_v2_4dev17CTFReaderLut3DEltESaIvELN9__gnu_cxx12_Lock_policyE2EE10_M_destroyEv = comdat any

$_ZNSt23_Sp_counted_ptr_inplaceIN19OpenColorIO_v2_4dev17CTFReaderLut3DEltESaIvELN9__gnu_cxx12_Lock_policyE2EE14_M_get_deleterERKSt9type_info = comdat any

$_ZNSt23_Sp_counted_ptr_inplaceIN19OpenColorIO_v2_4dev21CTFReaderLut3DElt_1_7ESaIvELN9__gnu_cxx12_Lock_policyE2EED2Ev = comdat any

$_ZNSt23_Sp_counted_ptr_inplaceIN19OpenColorIO_v2_4dev21CTFReaderLut3DElt_1_7ESaIvELN9__gnu_cxx12_Lock_policyE2EED0Ev = comdat any

$_ZNSt23_Sp_counted_ptr_inplaceIN19OpenColorIO_v2_4dev21CTFReaderLut3DElt_1_7ESaIvELN9__gnu_cxx12_Lock_policyE2EE10_M_disposeEv = comdat any

$_ZNSt23_Sp_counted_ptr_inplaceIN19OpenColorIO_v2_4dev21CTFReaderLut3DElt_1_7ESaIvELN9__gnu_cxx12_Lock_policyE2EE10_M_destroyEv = comdat any

$_ZNSt23_Sp_counted_ptr_inplaceIN19OpenColorIO_v2_4dev21CTFReaderLut3DElt_1_7ESaIvELN9__gnu_cxx12_Lock_policyE2EE14_M_get_deleterERKSt9type_info = comdat any

$_ZNSt14__shared_countILN9__gnu_cxx12_Lock_policyE2EEC2IN19OpenColorIO_v2_4dev18CTFReaderMatrixEltESaIvEJEEERPT_St20_Sp_alloc_shared_tagIT0_EDpOT1_ = comdat any

$_ZNSt23_Sp_counted_ptr_inplaceIN19OpenColorIO_v2_4dev18CTFReaderMatrixEltESaIvELN9__gnu_cxx12_Lock_policyE2EED2Ev = comdat any

$_ZNSt23_Sp_counted_ptr_inplaceIN19OpenColorIO_v2_4dev18CTFReaderMatrixEltESaIvELN9__gnu_cxx12_Lock_policyE2EED0Ev = comdat any

$_ZNSt23_Sp_counted_ptr_inplaceIN19OpenColorIO_v2_4dev18CTFReaderMatrixEltESaIvELN9__gnu_cxx12_Lock_policyE2EE10_M_disposeEv = comdat any

$_ZNSt23_Sp_counted_ptr_inplaceIN19OpenColorIO_v2_4dev18CTFReaderMatrixEltESaIvELN9__gnu_cxx12_Lock_policyE2EE10_M_destroyEv = comdat any

$_ZNSt23_Sp_counted_ptr_inplaceIN19OpenColorIO_v2_4dev18CTFReaderMatrixEltESaIvELN9__gnu_cxx12_Lock_policyE2EE14_M_get_deleterERKSt9type_info = comdat any

$_ZNSt14__shared_countILN9__gnu_cxx12_Lock_policyE2EEC2IN19OpenColorIO_v2_4dev22CTFReaderMatrixElt_1_3ESaIvEJEEERPT_St20_Sp_alloc_shared_tagIT0_EDpOT1_ = comdat any

$_ZNSt23_Sp_counted_ptr_inplaceIN19OpenColorIO_v2_4dev22CTFReaderMatrixElt_1_3ESaIvELN9__gnu_cxx12_Lock_policyE2EED2Ev = comdat any

$_ZNSt23_Sp_counted_ptr_inplaceIN19OpenColorIO_v2_4dev22CTFReaderMatrixElt_1_3ESaIvELN9__gnu_cxx12_Lock_policyE2EED0Ev = comdat any

$_ZNSt23_Sp_counted_ptr_inplaceIN19OpenColorIO_v2_4dev22CTFReaderMatrixElt_1_3ESaIvELN9__gnu_cxx12_Lock_policyE2EE10_M_disposeEv = comdat any

$_ZNSt23_Sp_counted_ptr_inplaceIN19OpenColorIO_v2_4dev22CTFReaderMatrixElt_1_3ESaIvELN9__gnu_cxx12_Lock_policyE2EE10_M_destroyEv = comdat any

$_ZNSt23_Sp_counted_ptr_inplaceIN19OpenColorIO_v2_4dev22CTFReaderMatrixElt_1_3ESaIvELN9__gnu_cxx12_Lock_policyE2EE14_M_get_deleterERKSt9type_info = comdat any

$_ZNSt14__shared_countILN9__gnu_cxx12_Lock_policyE2EEC2IN19OpenColorIO_v2_4dev17CTFReaderRangeEltESaIvEJEEERPT_St20_Sp_alloc_shared_tagIT0_EDpOT1_ = comdat any

$_ZNSt23_Sp_counted_ptr_inplaceIN19OpenColorIO_v2_4dev17CTFReaderRangeEltESaIvELN9__gnu_cxx12_Lock_policyE2EED2Ev = comdat any

$_ZNSt23_Sp_counted_ptr_inplaceIN19OpenColorIO_v2_4dev17CTFReaderRangeEltESaIvELN9__gnu_cxx12_Lock_policyE2EED0Ev = comdat any

$_ZNSt23_Sp_counted_ptr_inplaceIN19OpenColorIO_v2_4dev17CTFReaderRangeEltESaIvELN9__gnu_cxx12_Lock_policyE2EE10_M_disposeEv = comdat any

$_ZNSt23_Sp_counted_ptr_inplaceIN19OpenColorIO_v2_4dev17CTFReaderRangeEltESaIvELN9__gnu_cxx12_Lock_policyE2EE10_M_destroyEv = comdat any

$_ZNSt23_Sp_counted_ptr_inplaceIN19OpenColorIO_v2_4dev17CTFReaderRangeEltESaIvELN9__gnu_cxx12_Lock_policyE2EE14_M_get_deleterERKSt9type_info = comdat any

$_ZNSt14__shared_countILN9__gnu_cxx12_Lock_policyE2EEC2IN19OpenColorIO_v2_4dev21CTFReaderRangeElt_1_7ESaIvEJEEERPT_St20_Sp_alloc_shared_tagIT0_EDpOT1_ = comdat any

$_ZNSt23_Sp_counted_ptr_inplaceIN19OpenColorIO_v2_4dev21CTFReaderRangeElt_1_7ESaIvELN9__gnu_cxx12_Lock_policyE2EED2Ev = comdat any

$_ZNSt23_Sp_counted_ptr_inplaceIN19OpenColorIO_v2_4dev21CTFReaderRangeElt_1_7ESaIvELN9__gnu_cxx12_Lock_policyE2EED0Ev = comdat any

$_ZNSt23_Sp_counted_ptr_inplaceIN19OpenColorIO_v2_4dev21CTFReaderRangeElt_1_7ESaIvELN9__gnu_cxx12_Lock_policyE2EE10_M_disposeEv = comdat any

$_ZNSt23_Sp_counted_ptr_inplaceIN19OpenColorIO_v2_4dev21CTFReaderRangeElt_1_7ESaIvELN9__gnu_cxx12_Lock_policyE2EE10_M_destroyEv = comdat any

$_ZNSt23_Sp_counted_ptr_inplaceIN19OpenColorIO_v2_4dev21CTFReaderRangeElt_1_7ESaIvELN9__gnu_cxx12_Lock_policyE2EE14_M_get_deleterERKSt9type_info = comdat any

$_ZNSt14__shared_countILN9__gnu_cxx12_Lock_policyE2EEC2IN19OpenColorIO_v2_4dev21CTFReaderReferenceEltESaIvEJEEERPT_St20_Sp_alloc_shared_tagIT0_EDpOT1_ = comdat any

$_ZNSt23_Sp_counted_ptr_inplaceIN19OpenColorIO_v2_4dev21CTFReaderReferenceEltESaIvELN9__gnu_cxx12_Lock_policyE2EED2Ev = comdat any

$_ZNSt23_Sp_counted_ptr_inplaceIN19OpenColorIO_v2_4dev21CTFReaderReferenceEltESaIvELN9__gnu_cxx12_Lock_policyE2EED0Ev = comdat any

$_ZNSt23_Sp_counted_ptr_inplaceIN19OpenColorIO_v2_4dev21CTFReaderReferenceEltESaIvELN9__gnu_cxx12_Lock_policyE2EE10_M_disposeEv = comdat any

$_ZNSt23_Sp_counted_ptr_inplaceIN19OpenColorIO_v2_4dev21CTFReaderReferenceEltESaIvELN9__gnu_cxx12_Lock_policyE2EE10_M_destroyEv = comdat any

$_ZNSt23_Sp_counted_ptr_inplaceIN19OpenColorIO_v2_4dev21CTFReaderReferenceEltESaIvELN9__gnu_cxx12_Lock_policyE2EE14_M_get_deleterERKSt9type_info = comdat any

$_ZNSt23_Sp_counted_ptr_inplaceIN19OpenColorIO_v2_4dev19FixedFunctionOpDataESaIvELN9__gnu_cxx12_Lock_policyE2EED2Ev = comdat any

$_ZNSt23_Sp_counted_ptr_inplaceIN19OpenColorIO_v2_4dev19FixedFunctionOpDataESaIvELN9__gnu_cxx12_Lock_policyE2EED0Ev = comdat any

$_ZNSt23_Sp_counted_ptr_inplaceIN19OpenColorIO_v2_4dev19FixedFunctionOpDataESaIvELN9__gnu_cxx12_Lock_policyE2EE10_M_disposeEv = comdat any

$_ZNSt23_Sp_counted_ptr_inplaceIN19OpenColorIO_v2_4dev19FixedFunctionOpDataESaIvELN9__gnu_cxx12_Lock_policyE2EE10_M_destroyEv = comdat any

$_ZNSt23_Sp_counted_ptr_inplaceIN19OpenColorIO_v2_4dev19FixedFunctionOpDataESaIvELN9__gnu_cxx12_Lock_policyE2EE14_M_get_deleterERKSt9type_info = comdat any

$_ZNSt23_Sp_counted_ptr_inplaceIN19OpenColorIO_v2_4dev9CDLOpDataESaIvELN9__gnu_cxx12_Lock_policyE2EED2Ev = comdat any

$_ZNSt23_Sp_counted_ptr_inplaceIN19OpenColorIO_v2_4dev9CDLOpDataESaIvELN9__gnu_cxx12_Lock_policyE2EED0Ev = comdat any

$_ZNSt23_Sp_counted_ptr_inplaceIN19OpenColorIO_v2_4dev9CDLOpDataESaIvELN9__gnu_cxx12_Lock_policyE2EE10_M_disposeEv = comdat any

$_ZNSt23_Sp_counted_ptr_inplaceIN19OpenColorIO_v2_4dev9CDLOpDataESaIvELN9__gnu_cxx12_Lock_policyE2EE10_M_destroyEv = comdat any

$_ZNSt23_Sp_counted_ptr_inplaceIN19OpenColorIO_v2_4dev9CDLOpDataESaIvELN9__gnu_cxx12_Lock_policyE2EE14_M_get_deleterERKSt9type_info = comdat any

$_ZNSt23_Sp_counted_ptr_inplaceIN19OpenColorIO_v2_4dev22ExposureContrastOpDataESaIvELN9__gnu_cxx12_Lock_policyE2EED2Ev = comdat any

$_ZNSt23_Sp_counted_ptr_inplaceIN19OpenColorIO_v2_4dev22ExposureContrastOpDataESaIvELN9__gnu_cxx12_Lock_policyE2EED0Ev = comdat any

$_ZNSt23_Sp_counted_ptr_inplaceIN19OpenColorIO_v2_4dev22ExposureContrastOpDataESaIvELN9__gnu_cxx12_Lock_policyE2EE10_M_disposeEv = comdat any

$_ZNSt23_Sp_counted_ptr_inplaceIN19OpenColorIO_v2_4dev22ExposureContrastOpDataESaIvELN9__gnu_cxx12_Lock_policyE2EE10_M_destroyEv = comdat any

$_ZNSt23_Sp_counted_ptr_inplaceIN19OpenColorIO_v2_4dev22ExposureContrastOpDataESaIvELN9__gnu_cxx12_Lock_policyE2EE14_M_get_deleterERKSt9type_info = comdat any

$_ZNSt23_Sp_counted_ptr_inplaceIN19OpenColorIO_v2_4dev11GammaOpDataESaIvELN9__gnu_cxx12_Lock_policyE2EED2Ev = comdat any

$_ZNSt23_Sp_counted_ptr_inplaceIN19OpenColorIO_v2_4dev11GammaOpDataESaIvELN9__gnu_cxx12_Lock_policyE2EED0Ev = comdat any

$_ZNSt23_Sp_counted_ptr_inplaceIN19OpenColorIO_v2_4dev11GammaOpDataESaIvELN9__gnu_cxx12_Lock_policyE2EE10_M_disposeEv = comdat any

$_ZNSt23_Sp_counted_ptr_inplaceIN19OpenColorIO_v2_4dev11GammaOpDataESaIvELN9__gnu_cxx12_Lock_policyE2EE10_M_destroyEv = comdat any

$_ZNSt23_Sp_counted_ptr_inplaceIN19OpenColorIO_v2_4dev11GammaOpDataESaIvELN9__gnu_cxx12_Lock_policyE2EE14_M_get_deleterERKSt9type_info = comdat any

$_ZNSt23_Sp_counted_ptr_inplaceIN19OpenColorIO_v2_4dev23CTFReaderGammaParamsEltESaIvELN9__gnu_cxx12_Lock_policyE2EED2Ev = comdat any

$_ZNSt23_Sp_counted_ptr_inplaceIN19OpenColorIO_v2_4dev23CTFReaderGammaParamsEltESaIvELN9__gnu_cxx12_Lock_policyE2EED0Ev = comdat any

$_ZNSt23_Sp_counted_ptr_inplaceIN19OpenColorIO_v2_4dev23CTFReaderGammaParamsEltESaIvELN9__gnu_cxx12_Lock_policyE2EE10_M_disposeEv = comdat any

$_ZNSt23_Sp_counted_ptr_inplaceIN19OpenColorIO_v2_4dev23CTFReaderGammaParamsEltESaIvELN9__gnu_cxx12_Lock_policyE2EE10_M_destroyEv = comdat any

$_ZNSt23_Sp_counted_ptr_inplaceIN19OpenColorIO_v2_4dev23CTFReaderGammaParamsEltESaIvELN9__gnu_cxx12_Lock_policyE2EE14_M_get_deleterERKSt9type_info = comdat any

$_ZSt10_ConstructIN19OpenColorIO_v2_4dev23CTFReaderGammaParamsEltEJRKNSt7__cxx1112basic_stringIcSt11char_traitsIcESaIcEEERSt10shared_ptrINS0_21XmlReaderContainerEltEERjS9_EEvPT_DpOT0_ = comdat any

$_ZNSt23_Sp_counted_ptr_inplaceIN19OpenColorIO_v2_4dev27CTFReaderGammaParamsElt_1_5ESaIvELN9__gnu_cxx12_Lock_policyE2EED2Ev = comdat any

$_ZNSt23_Sp_counted_ptr_inplaceIN19OpenColorIO_v2_4dev27CTFReaderGammaParamsElt_1_5ESaIvELN9__gnu_cxx12_Lock_policyE2EED0Ev = comdat any

$_ZNSt23_Sp_counted_ptr_inplaceIN19OpenColorIO_v2_4dev27CTFReaderGammaParamsElt_1_5ESaIvELN9__gnu_cxx12_Lock_policyE2EE10_M_disposeEv = comdat any

$_ZNSt23_Sp_counted_ptr_inplaceIN19OpenColorIO_v2_4dev27CTFReaderGammaParamsElt_1_5ESaIvELN9__gnu_cxx12_Lock_policyE2EE10_M_destroyEv = comdat any

$_ZNSt23_Sp_counted_ptr_inplaceIN19OpenColorIO_v2_4dev27CTFReaderGammaParamsElt_1_5ESaIvELN9__gnu_cxx12_Lock_policyE2EE14_M_get_deleterERKSt9type_info = comdat any

$_ZSt10_ConstructIN19OpenColorIO_v2_4dev27CTFReaderGammaParamsElt_1_5EJRKNSt7__cxx1112basic_stringIcSt11char_traitsIcESaIcEEERSt10shared_ptrINS0_21XmlReaderContainerEltEERjS9_EEvPT_DpOT0_ = comdat any

$_ZNSt23_Sp_counted_ptr_inplaceIN19OpenColorIO_v2_4dev20GradingPrimaryOpDataESaIvELN9__gnu_cxx12_Lock_policyE2EED2Ev = comdat any

$_ZNSt23_Sp_counted_ptr_inplaceIN19OpenColorIO_v2_4dev20GradingPrimaryOpDataESaIvELN9__gnu_cxx12_Lock_policyE2EED0Ev = comdat any

$_ZNSt23_Sp_counted_ptr_inplaceIN19OpenColorIO_v2_4dev20GradingPrimaryOpDataESaIvELN9__gnu_cxx12_Lock_policyE2EE10_M_disposeEv = comdat any

$_ZNSt23_Sp_counted_ptr_inplaceIN19OpenColorIO_v2_4dev20GradingPrimaryOpDataESaIvELN9__gnu_cxx12_Lock_policyE2EE10_M_destroyEv = comdat any

$_ZNSt23_Sp_counted_ptr_inplaceIN19OpenColorIO_v2_4dev20GradingPrimaryOpDataESaIvELN9__gnu_cxx12_Lock_policyE2EE14_M_get_deleterERKSt9type_info = comdat any

$_ZNSt23_Sp_counted_ptr_inplaceIN19OpenColorIO_v2_4dev21GradingRGBCurveOpDataESaIvELN9__gnu_cxx12_Lock_policyE2EED2Ev = comdat any

$_ZNSt23_Sp_counted_ptr_inplaceIN19OpenColorIO_v2_4dev21GradingRGBCurveOpDataESaIvELN9__gnu_cxx12_Lock_policyE2EED0Ev = comdat any

$_ZNSt23_Sp_counted_ptr_inplaceIN19OpenColorIO_v2_4dev21GradingRGBCurveOpDataESaIvELN9__gnu_cxx12_Lock_policyE2EE10_M_disposeEv = comdat any

$_ZNSt23_Sp_counted_ptr_inplaceIN19OpenColorIO_v2_4dev21GradingRGBCurveOpDataESaIvELN9__gnu_cxx12_Lock_policyE2EE10_M_destroyEv = comdat any

$_ZNSt23_Sp_counted_ptr_inplaceIN19OpenColorIO_v2_4dev21GradingRGBCurveOpDataESaIvELN9__gnu_cxx12_Lock_policyE2EE14_M_get_deleterERKSt9type_info = comdat any

$_ZNSt6vectorIfSaIfEE15_M_range_insertIN9__gnu_cxx17__normal_iteratorIPfS1_EEEEvS6_T_S7_St20forward_iterator_tag = comdat any

$_ZNSt23_Sp_counted_ptr_inplaceIN19OpenColorIO_v2_4dev17GradingToneOpDataESaIvELN9__gnu_cxx12_Lock_policyE2EED2Ev = comdat any

$_ZNSt23_Sp_counted_ptr_inplaceIN19OpenColorIO_v2_4dev17GradingToneOpDataESaIvELN9__gnu_cxx12_Lock_policyE2EED0Ev = comdat any

$_ZNSt23_Sp_counted_ptr_inplaceIN19OpenColorIO_v2_4dev17GradingToneOpDataESaIvELN9__gnu_cxx12_Lock_policyE2EE10_M_disposeEv = comdat any

$_ZNSt23_Sp_counted_ptr_inplaceIN19OpenColorIO_v2_4dev17GradingToneOpDataESaIvELN9__gnu_cxx12_Lock_policyE2EE10_M_destroyEv = comdat any

$_ZNSt23_Sp_counted_ptr_inplaceIN19OpenColorIO_v2_4dev17GradingToneOpDataESaIvELN9__gnu_cxx12_Lock_policyE2EE14_M_get_deleterERKSt9type_info = comdat any

$_ZNSt23_Sp_counted_ptr_inplaceIN19OpenColorIO_v2_4dev11Lut1DOpDataESaIvELN9__gnu_cxx12_Lock_policyE2EED2Ev = comdat any

$_ZNSt23_Sp_counted_ptr_inplaceIN19OpenColorIO_v2_4dev11Lut1DOpDataESaIvELN9__gnu_cxx12_Lock_policyE2EED0Ev = comdat any

$_ZNSt23_Sp_counted_ptr_inplaceIN19OpenColorIO_v2_4dev11Lut1DOpDataESaIvELN9__gnu_cxx12_Lock_policyE2EE10_M_disposeEv = comdat any

$_ZNSt23_Sp_counted_ptr_inplaceIN19OpenColorIO_v2_4dev11Lut1DOpDataESaIvELN9__gnu_cxx12_Lock_policyE2EE10_M_destroyEv = comdat any

$_ZNSt23_Sp_counted_ptr_inplaceIN19OpenColorIO_v2_4dev11Lut1DOpDataESaIvELN9__gnu_cxx12_Lock_policyE2EE14_M_get_deleterERKSt9type_info = comdat any

$_ZNSt23_Sp_counted_ptr_inplaceIN19OpenColorIO_v2_4dev11Lut3DOpDataESaIvELN9__gnu_cxx12_Lock_policyE2EED2Ev = comdat any

$_ZNSt23_Sp_counted_ptr_inplaceIN19OpenColorIO_v2_4dev11Lut3DOpDataESaIvELN9__gnu_cxx12_Lock_policyE2EED0Ev = comdat any

$_ZNSt23_Sp_counted_ptr_inplaceIN19OpenColorIO_v2_4dev11Lut3DOpDataESaIvELN9__gnu_cxx12_Lock_policyE2EE10_M_disposeEv = comdat any

$_ZNSt23_Sp_counted_ptr_inplaceIN19OpenColorIO_v2_4dev11Lut3DOpDataESaIvELN9__gnu_cxx12_Lock_policyE2EE10_M_destroyEv = comdat any

$_ZNSt23_Sp_counted_ptr_inplaceIN19OpenColorIO_v2_4dev11Lut3DOpDataESaIvELN9__gnu_cxx12_Lock_policyE2EE14_M_get_deleterERKSt9type_info = comdat any

$_ZNSt23_Sp_counted_ptr_inplaceIN19OpenColorIO_v2_4dev9LogOpDataESaIvELN9__gnu_cxx12_Lock_policyE2EED2Ev = comdat any

$_ZNSt23_Sp_counted_ptr_inplaceIN19OpenColorIO_v2_4dev9LogOpDataESaIvELN9__gnu_cxx12_Lock_policyE2EED0Ev = comdat any

$_ZNSt23_Sp_counted_ptr_inplaceIN19OpenColorIO_v2_4dev9LogOpDataESaIvELN9__gnu_cxx12_Lock_policyE2EE10_M_disposeEv = comdat any

$_ZNSt23_Sp_counted_ptr_inplaceIN19OpenColorIO_v2_4dev9LogOpDataESaIvELN9__gnu_cxx12_Lock_policyE2EE10_M_destroyEv = comdat any

$_ZNSt23_Sp_counted_ptr_inplaceIN19OpenColorIO_v2_4dev9LogOpDataESaIvELN9__gnu_cxx12_Lock_policyE2EE14_M_get_deleterERKSt9type_info = comdat any

$_ZNSt23_Sp_counted_ptr_inplaceIN19OpenColorIO_v2_4dev21CTFReaderLogParamsEltESaIvELN9__gnu_cxx12_Lock_policyE2EED2Ev = comdat any

$_ZNSt23_Sp_counted_ptr_inplaceIN19OpenColorIO_v2_4dev21CTFReaderLogParamsEltESaIvELN9__gnu_cxx12_Lock_policyE2EED0Ev = comdat any

$_ZNSt23_Sp_counted_ptr_inplaceIN19OpenColorIO_v2_4dev21CTFReaderLogParamsEltESaIvELN9__gnu_cxx12_Lock_policyE2EE10_M_disposeEv = comdat any

$_ZNSt23_Sp_counted_ptr_inplaceIN19OpenColorIO_v2_4dev21CTFReaderLogParamsEltESaIvELN9__gnu_cxx12_Lock_policyE2EE10_M_destroyEv = comdat any

$_ZNSt23_Sp_counted_ptr_inplaceIN19OpenColorIO_v2_4dev21CTFReaderLogParamsEltESaIvELN9__gnu_cxx12_Lock_policyE2EE14_M_get_deleterERKSt9type_info = comdat any

$_ZSt10_ConstructIN19OpenColorIO_v2_4dev21CTFReaderLogParamsEltEJRKNSt7__cxx1112basic_stringIcSt11char_traitsIcESaIcEEERSt10shared_ptrINS0_21XmlReaderContainerEltEERjS9_EEvPT_DpOT0_ = comdat any

$_ZNSt23_Sp_counted_ptr_inplaceIN19OpenColorIO_v2_4dev25CTFReaderLogParamsElt_2_0ESaIvELN9__gnu_cxx12_Lock_policyE2EED2Ev = comdat any

$_ZNSt23_Sp_counted_ptr_inplaceIN19OpenColorIO_v2_4dev25CTFReaderLogParamsElt_2_0ESaIvELN9__gnu_cxx12_Lock_policyE2EED0Ev = comdat any

$_ZNSt23_Sp_counted_ptr_inplaceIN19OpenColorIO_v2_4dev25CTFReaderLogParamsElt_2_0ESaIvELN9__gnu_cxx12_Lock_policyE2EE10_M_disposeEv = comdat any

$_ZNSt23_Sp_counted_ptr_inplaceIN19OpenColorIO_v2_4dev25CTFReaderLogParamsElt_2_0ESaIvELN9__gnu_cxx12_Lock_policyE2EE10_M_destroyEv = comdat any

$_ZNSt23_Sp_counted_ptr_inplaceIN19OpenColorIO_v2_4dev25CTFReaderLogParamsElt_2_0ESaIvELN9__gnu_cxx12_Lock_policyE2EE14_M_get_deleterERKSt9type_info = comdat any

$_ZSt10_ConstructIN19OpenColorIO_v2_4dev25CTFReaderLogParamsElt_2_0EJRKNSt7__cxx1112basic_stringIcSt11char_traitsIcESaIcEEERSt10shared_ptrINS0_21XmlReaderContainerEltEERjS9_EEvPT_DpOT0_ = comdat any

$_ZN19OpenColorIO_v2_4dev25CTFReaderLogParamsElt_2_0C2ERKNSt7__cxx1112basic_stringIcSt11char_traitsIcESaIcEEESt10shared_ptrINS_21XmlReaderContainerEltEEjS8_ = comdat any

$_ZNSt23_Sp_counted_ptr_inplaceIN19OpenColorIO_v2_4dev11RangeOpDataESaIvELN9__gnu_cxx12_Lock_policyE2EED2Ev = comdat any

$_ZNSt23_Sp_counted_ptr_inplaceIN19OpenColorIO_v2_4dev11RangeOpDataESaIvELN9__gnu_cxx12_Lock_policyE2EED0Ev = comdat any

$_ZNSt23_Sp_counted_ptr_inplaceIN19OpenColorIO_v2_4dev11RangeOpDataESaIvELN9__gnu_cxx12_Lock_policyE2EE10_M_disposeEv = comdat any

$_ZNSt23_Sp_counted_ptr_inplaceIN19OpenColorIO_v2_4dev11RangeOpDataESaIvELN9__gnu_cxx12_Lock_policyE2EE10_M_destroyEv = comdat any

$_ZNSt23_Sp_counted_ptr_inplaceIN19OpenColorIO_v2_4dev11RangeOpDataESaIvELN9__gnu_cxx12_Lock_policyE2EE14_M_get_deleterERKSt9type_info = comdat any

$_ZNSt6vectorISt10shared_ptrIKN19OpenColorIO_v2_4dev6OpDataEESaIS4_EE13_M_insert_auxIS4_EEvN9__gnu_cxx17__normal_iteratorIPS4_S6_EEOT_ = comdat any

$_ZNSt23_Sp_counted_ptr_inplaceIN19OpenColorIO_v2_4dev12MatrixOpDataESaIvELN9__gnu_cxx12_Lock_policyE2EED2Ev = comdat any

$_ZNSt23_Sp_counted_ptr_inplaceIN19OpenColorIO_v2_4dev12MatrixOpDataESaIvELN9__gnu_cxx12_Lock_policyE2EED0Ev = comdat any

$_ZNSt23_Sp_counted_ptr_inplaceIN19OpenColorIO_v2_4dev12MatrixOpDataESaIvELN9__gnu_cxx12_Lock_policyE2EE10_M_disposeEv = comdat any

$_ZNSt23_Sp_counted_ptr_inplaceIN19OpenColorIO_v2_4dev12MatrixOpDataESaIvELN9__gnu_cxx12_Lock_policyE2EE10_M_destroyEv = comdat any

$_ZNSt23_Sp_counted_ptr_inplaceIN19OpenColorIO_v2_4dev12MatrixOpDataESaIvELN9__gnu_cxx12_Lock_policyE2EE14_M_get_deleterERKSt9type_info = comdat any

$_ZNSt6vectorIdSaIdEE17_M_default_appendEm = comdat any

$_ZNSt23_Sp_counted_ptr_inplaceIN19OpenColorIO_v2_4dev15ReferenceOpDataESaIvELN9__gnu_cxx12_Lock_policyE2EED2Ev = comdat any

$_ZNSt23_Sp_counted_ptr_inplaceIN19OpenColorIO_v2_4dev15ReferenceOpDataESaIvELN9__gnu_cxx12_Lock_policyE2EED0Ev = comdat any

$_ZNSt23_Sp_counted_ptr_inplaceIN19OpenColorIO_v2_4dev15ReferenceOpDataESaIvELN9__gnu_cxx12_Lock_policyE2EE10_M_disposeEv = comdat any

$_ZNSt23_Sp_counted_ptr_inplaceIN19OpenColorIO_v2_4dev15ReferenceOpDataESaIvELN9__gnu_cxx12_Lock_policyE2EE10_M_destroyEv = comdat any

$_ZNSt23_Sp_counted_ptr_inplaceIN19OpenColorIO_v2_4dev15ReferenceOpDataESaIvELN9__gnu_cxx12_Lock_policyE2EE14_M_get_deleterERKSt9type_info = comdat any

$_ZTSN19OpenColorIO_v2_4dev21XmlReaderContainerEltE = comdat any

$_ZTIN19OpenColorIO_v2_4dev21XmlReaderContainerEltE = comdat any

$_ZTSN19OpenColorIO_v2_4dev14CTFIndexMapMgtE = comdat any

$_ZTIN19OpenColorIO_v2_4dev14CTFIndexMapMgtE = comdat any

$_ZTSN19OpenColorIO_v2_4dev19XmlReaderComplexEltE = comdat any

$_ZTIN19OpenColorIO_v2_4dev19XmlReaderComplexEltE = comdat any

$_ZTSN19OpenColorIO_v2_4dev17XmlReaderPlainEltE = comdat any

$_ZTIN19OpenColorIO_v2_4dev17XmlReaderPlainEltE = comdat any

$_ZTSN19OpenColorIO_v2_4dev23XmlReaderSatNodeBaseEltE = comdat any

$_ZTIN19OpenColorIO_v2_4dev23XmlReaderSatNodeBaseEltE = comdat any

$_ZTSN19OpenColorIO_v2_4dev23XmlReaderSOPNodeBaseEltE = comdat any

$_ZTIN19OpenColorIO_v2_4dev23XmlReaderSOPNodeBaseEltE = comdat any

$_ZTVN19OpenColorIO_v2_4dev21XmlReaderContainerEltE = comdat any

$_ZTVN19OpenColorIO_v2_4dev17XmlReaderPlainEltE = comdat any

$_ZTVN19OpenColorIO_v2_4dev19XmlReaderComplexEltE = comdat any

$_ZTVN19OpenColorIO_v2_4dev23XmlReaderSatNodeBaseEltE = comdat any

$_ZTVN19OpenColorIO_v2_4dev23XmlReaderSOPNodeBaseEltE = comdat any

$_ZTVSt23_Sp_counted_ptr_inplaceIN19OpenColorIO_v2_4dev18CTFReaderTransformESaIvELN9__gnu_cxx12_Lock_policyE2EE = comdat any

$_ZTSSt23_Sp_counted_ptr_inplaceIN19OpenColorIO_v2_4dev18CTFReaderTransformESaIvELN9__gnu_cxx12_Lock_policyE2EE = comdat any

$_ZTSSt16_Sp_counted_baseILN9__gnu_cxx12_Lock_policyE2EE = comdat any

$_ZTSSt11_Mutex_baseILN9__gnu_cxx12_Lock_policyE2EE = comdat any

$_ZTISt11_Mutex_baseILN9__gnu_cxx12_Lock_policyE2EE = comdat any

$_ZTISt16_Sp_counted_baseILN9__gnu_cxx12_Lock_policyE2EE = comdat any

$_ZTISt23_Sp_counted_ptr_inplaceIN19OpenColorIO_v2_4dev18CTFReaderTransformESaIvELN9__gnu_cxx12_Lock_policyE2EE = comdat any

$_ZTSSt19_Sp_make_shared_tag = comdat any

$_ZZNSt19_Sp_make_shared_tag5_S_tiEvE5__tag = comdat any

$_ZTVSt23_Sp_counted_ptr_inplaceIN19OpenColorIO_v2_4dev16CTFReaderACESEltESaIvELN9__gnu_cxx12_Lock_policyE2EE = comdat any

$_ZTSSt23_Sp_counted_ptr_inplaceIN19OpenColorIO_v2_4dev16CTFReaderACESEltESaIvELN9__gnu_cxx12_Lock_policyE2EE = comdat any

$_ZTISt23_Sp_counted_ptr_inplaceIN19OpenColorIO_v2_4dev16CTFReaderACESEltESaIvELN9__gnu_cxx12_Lock_policyE2EE = comdat any

$_ZTVSt23_Sp_counted_ptr_inplaceIN19OpenColorIO_v2_4dev15CTFReaderCDLEltESaIvELN9__gnu_cxx12_Lock_policyE2EE = comdat any

$_ZTSSt23_Sp_counted_ptr_inplaceIN19OpenColorIO_v2_4dev15CTFReaderCDLEltESaIvELN9__gnu_cxx12_Lock_policyE2EE = comdat any

$_ZTISt23_Sp_counted_ptr_inplaceIN19OpenColorIO_v2_4dev15CTFReaderCDLEltESaIvELN9__gnu_cxx12_Lock_policyE2EE = comdat any

$_ZTVSt23_Sp_counted_ptr_inplaceIN19OpenColorIO_v2_4dev28CTFReaderExposureContrastEltESaIvELN9__gnu_cxx12_Lock_policyE2EE = comdat any

$_ZTSSt23_Sp_counted_ptr_inplaceIN19OpenColorIO_v2_4dev28CTFReaderExposureContrastEltESaIvELN9__gnu_cxx12_Lock_policyE2EE = comdat any

$_ZTISt23_Sp_counted_ptr_inplaceIN19OpenColorIO_v2_4dev28CTFReaderExposureContrastEltESaIvELN9__gnu_cxx12_Lock_policyE2EE = comdat any

$_ZTVSt23_Sp_counted_ptr_inplaceIN19OpenColorIO_v2_4dev25CTFReaderFixedFunctionEltESaIvELN9__gnu_cxx12_Lock_policyE2EE = comdat any

$_ZTSSt23_Sp_counted_ptr_inplaceIN19OpenColorIO_v2_4dev25CTFReaderFixedFunctionEltESaIvELN9__gnu_cxx12_Lock_policyE2EE = comdat any

$_ZTISt23_Sp_counted_ptr_inplaceIN19OpenColorIO_v2_4dev25CTFReaderFixedFunctionEltESaIvELN9__gnu_cxx12_Lock_policyE2EE = comdat any

$_ZTVSt23_Sp_counted_ptr_inplaceIN19OpenColorIO_v2_4dev20CTFReaderFunctionEltESaIvELN9__gnu_cxx12_Lock_policyE2EE = comdat any

$_ZTSSt23_Sp_counted_ptr_inplaceIN19OpenColorIO_v2_4dev20CTFReaderFunctionEltESaIvELN9__gnu_cxx12_Lock_policyE2EE = comdat any

$_ZTISt23_Sp_counted_ptr_inplaceIN19OpenColorIO_v2_4dev20CTFReaderFunctionEltESaIvELN9__gnu_cxx12_Lock_policyE2EE = comdat any

$_ZTVSt23_Sp_counted_ptr_inplaceIN19OpenColorIO_v2_4dev17CTFReaderGammaEltESaIvELN9__gnu_cxx12_Lock_policyE2EE = comdat any

$_ZTSSt23_Sp_counted_ptr_inplaceIN19OpenColorIO_v2_4dev17CTFReaderGammaEltESaIvELN9__gnu_cxx12_Lock_policyE2EE = comdat any

$_ZTISt23_Sp_counted_ptr_inplaceIN19OpenColorIO_v2_4dev17CTFReaderGammaEltESaIvELN9__gnu_cxx12_Lock_policyE2EE = comdat any

$_ZTVSt23_Sp_counted_ptr_inplaceIN19OpenColorIO_v2_4dev21CTFReaderGammaElt_1_5ESaIvELN9__gnu_cxx12_Lock_policyE2EE = comdat any

$_ZTSSt23_Sp_counted_ptr_inplaceIN19OpenColorIO_v2_4dev21CTFReaderGammaElt_1_5ESaIvELN9__gnu_cxx12_Lock_policyE2EE = comdat any

$_ZTISt23_Sp_counted_ptr_inplaceIN19OpenColorIO_v2_4dev21CTFReaderGammaElt_1_5ESaIvELN9__gnu_cxx12_Lock_policyE2EE = comdat any

$_ZTVSt23_Sp_counted_ptr_inplaceIN19OpenColorIO_v2_4dev25CTFReaderGammaElt_CTF_2_0ESaIvELN9__gnu_cxx12_Lock_policyE2EE = comdat any

$_ZTSSt23_Sp_counted_ptr_inplaceIN19OpenColorIO_v2_4dev25CTFReaderGammaElt_CTF_2_0ESaIvELN9__gnu_cxx12_Lock_policyE2EE = comdat any

$_ZTISt23_Sp_counted_ptr_inplaceIN19OpenColorIO_v2_4dev25CTFReaderGammaElt_CTF_2_0ESaIvELN9__gnu_cxx12_Lock_policyE2EE = comdat any

$_ZTVSt23_Sp_counted_ptr_inplaceIN19OpenColorIO_v2_4dev25CTFReaderGammaElt_CLF_3_0ESaIvELN9__gnu_cxx12_Lock_policyE2EE = comdat any

$_ZTSSt23_Sp_counted_ptr_inplaceIN19OpenColorIO_v2_4dev25CTFReaderGammaElt_CLF_3_0ESaIvELN9__gnu_cxx12_Lock_policyE2EE = comdat any

$_ZTISt23_Sp_counted_ptr_inplaceIN19OpenColorIO_v2_4dev25CTFReaderGammaElt_CLF_3_0ESaIvELN9__gnu_cxx12_Lock_policyE2EE = comdat any

$_ZTVSt23_Sp_counted_ptr_inplaceIN19OpenColorIO_v2_4dev26CTFReaderGradingPrimaryEltESaIvELN9__gnu_cxx12_Lock_policyE2EE = comdat any

$_ZTSSt23_Sp_counted_ptr_inplaceIN19OpenColorIO_v2_4dev26CTFReaderGradingPrimaryEltESaIvELN9__gnu_cxx12_Lock_policyE2EE = comdat any

$_ZTISt23_Sp_counted_ptr_inplaceIN19OpenColorIO_v2_4dev26CTFReaderGradingPrimaryEltESaIvELN9__gnu_cxx12_Lock_policyE2EE = comdat any

$_ZTVSt23_Sp_counted_ptr_inplaceIN19OpenColorIO_v2_4dev27CTFReaderGradingRGBCurveEltESaIvELN9__gnu_cxx12_Lock_policyE2EE = comdat any

$_ZTSSt23_Sp_counted_ptr_inplaceIN19OpenColorIO_v2_4dev27CTFReaderGradingRGBCurveEltESaIvELN9__gnu_cxx12_Lock_policyE2EE = comdat any

$_ZTISt23_Sp_counted_ptr_inplaceIN19OpenColorIO_v2_4dev27CTFReaderGradingRGBCurveEltESaIvELN9__gnu_cxx12_Lock_policyE2EE = comdat any

$_ZTVSt23_Sp_counted_ptr_inplaceIN19OpenColorIO_v2_4dev23CTFReaderGradingToneEltESaIvELN9__gnu_cxx12_Lock_policyE2EE = comdat any

$_ZTSSt23_Sp_counted_ptr_inplaceIN19OpenColorIO_v2_4dev23CTFReaderGradingToneEltESaIvELN9__gnu_cxx12_Lock_policyE2EE = comdat any

$_ZTISt23_Sp_counted_ptr_inplaceIN19OpenColorIO_v2_4dev23CTFReaderGradingToneEltESaIvELN9__gnu_cxx12_Lock_policyE2EE = comdat any

$_ZTVSt23_Sp_counted_ptr_inplaceIN19OpenColorIO_v2_4dev20CTFReaderInvLut1DEltESaIvELN9__gnu_cxx12_Lock_policyE2EE = comdat any

$_ZTSSt23_Sp_counted_ptr_inplaceIN19OpenColorIO_v2_4dev20CTFReaderInvLut1DEltESaIvELN9__gnu_cxx12_Lock_policyE2EE = comdat any

$_ZTISt23_Sp_counted_ptr_inplaceIN19OpenColorIO_v2_4dev20CTFReaderInvLut1DEltESaIvELN9__gnu_cxx12_Lock_policyE2EE = comdat any

$_ZTVSt23_Sp_counted_ptr_inplaceIN19OpenColorIO_v2_4dev20CTFReaderInvLut3DEltESaIvELN9__gnu_cxx12_Lock_policyE2EE = comdat any

$_ZTSSt23_Sp_counted_ptr_inplaceIN19OpenColorIO_v2_4dev20CTFReaderInvLut3DEltESaIvELN9__gnu_cxx12_Lock_policyE2EE = comdat any

$_ZTISt23_Sp_counted_ptr_inplaceIN19OpenColorIO_v2_4dev20CTFReaderInvLut3DEltESaIvELN9__gnu_cxx12_Lock_policyE2EE = comdat any

$_ZTVSt23_Sp_counted_ptr_inplaceIN19OpenColorIO_v2_4dev15CTFReaderLogEltESaIvELN9__gnu_cxx12_Lock_policyE2EE = comdat any

$_ZTSSt23_Sp_counted_ptr_inplaceIN19OpenColorIO_v2_4dev15CTFReaderLogEltESaIvELN9__gnu_cxx12_Lock_policyE2EE = comdat any

$_ZTISt23_Sp_counted_ptr_inplaceIN19OpenColorIO_v2_4dev15CTFReaderLogEltESaIvELN9__gnu_cxx12_Lock_policyE2EE = comdat any

$_ZTVSt23_Sp_counted_ptr_inplaceIN19OpenColorIO_v2_4dev19CTFReaderLogElt_2_0ESaIvELN9__gnu_cxx12_Lock_policyE2EE = comdat any

$_ZTSSt23_Sp_counted_ptr_inplaceIN19OpenColorIO_v2_4dev19CTFReaderLogElt_2_0ESaIvELN9__gnu_cxx12_Lock_policyE2EE = comdat any

$_ZTISt23_Sp_counted_ptr_inplaceIN19OpenColorIO_v2_4dev19CTFReaderLogElt_2_0ESaIvELN9__gnu_cxx12_Lock_policyE2EE = comdat any

$_ZTVSt23_Sp_counted_ptr_inplaceIN19OpenColorIO_v2_4dev17CTFReaderLut1DEltESaIvELN9__gnu_cxx12_Lock_policyE2EE = comdat any

$_ZTSSt23_Sp_counted_ptr_inplaceIN19OpenColorIO_v2_4dev17CTFReaderLut1DEltESaIvELN9__gnu_cxx12_Lock_policyE2EE = comdat any

$_ZTISt23_Sp_counted_ptr_inplaceIN19OpenColorIO_v2_4dev17CTFReaderLut1DEltESaIvELN9__gnu_cxx12_Lock_policyE2EE = comdat any

$_ZTVSt23_Sp_counted_ptr_inplaceIN19OpenColorIO_v2_4dev21CTFReaderLut1DElt_1_4ESaIvELN9__gnu_cxx12_Lock_policyE2EE = comdat any

$_ZTSSt23_Sp_counted_ptr_inplaceIN19OpenColorIO_v2_4dev21CTFReaderLut1DElt_1_4ESaIvELN9__gnu_cxx12_Lock_policyE2EE = comdat any

$_ZTISt23_Sp_counted_ptr_inplaceIN19OpenColorIO_v2_4dev21CTFReaderLut1DElt_1_4ESaIvELN9__gnu_cxx12_Lock_policyE2EE = comdat any

$_ZTVSt23_Sp_counted_ptr_inplaceIN19OpenColorIO_v2_4dev21CTFReaderLut1DElt_1_7ESaIvELN9__gnu_cxx12_Lock_policyE2EE = comdat any

$_ZTSSt23_Sp_counted_ptr_inplaceIN19OpenColorIO_v2_4dev21CTFReaderLut1DElt_1_7ESaIvELN9__gnu_cxx12_Lock_policyE2EE = comdat any

$_ZTISt23_Sp_counted_ptr_inplaceIN19OpenColorIO_v2_4dev21CTFReaderLut1DElt_1_7ESaIvELN9__gnu_cxx12_Lock_policyE2EE = comdat any

$_ZTVSt23_Sp_counted_ptr_inplaceIN19OpenColorIO_v2_4dev17CTFReaderLut3DEltESaIvELN9__gnu_cxx12_Lock_policyE2EE = comdat any

$_ZTSSt23_Sp_counted_ptr_inplaceIN19OpenColorIO_v2_4dev17CTFReaderLut3DEltESaIvELN9__gnu_cxx12_Lock_policyE2EE = comdat any

$_ZTISt23_Sp_counted_ptr_inplaceIN19OpenColorIO_v2_4dev17CTFReaderLut3DEltESaIvELN9__gnu_cxx12_Lock_policyE2EE = comdat any

$_ZTVSt23_Sp_counted_ptr_inplaceIN19OpenColorIO_v2_4dev21CTFReaderLut3DElt_1_7ESaIvELN9__gnu_cxx12_Lock_policyE2EE = comdat any

$_ZTSSt23_Sp_counted_ptr_inplaceIN19OpenColorIO_v2_4dev21CTFReaderLut3DElt_1_7ESaIvELN9__gnu_cxx12_Lock_policyE2EE = comdat any

$_ZTISt23_Sp_counted_ptr_inplaceIN19OpenColorIO_v2_4dev21CTFReaderLut3DElt_1_7ESaIvELN9__gnu_cxx12_Lock_policyE2EE = comdat any

$_ZTVSt23_Sp_counted_ptr_inplaceIN19OpenColorIO_v2_4dev18CTFReaderMatrixEltESaIvELN9__gnu_cxx12_Lock_policyE2EE = comdat any

$_ZTSSt23_Sp_counted_ptr_inplaceIN19OpenColorIO_v2_4dev18CTFReaderMatrixEltESaIvELN9__gnu_cxx12_Lock_policyE2EE = comdat any

$_ZTISt23_Sp_counted_ptr_inplaceIN19OpenColorIO_v2_4dev18CTFReaderMatrixEltESaIvELN9__gnu_cxx12_Lock_policyE2EE = comdat any

$_ZTVSt23_Sp_counted_ptr_inplaceIN19OpenColorIO_v2_4dev22CTFReaderMatrixElt_1_3ESaIvELN9__gnu_cxx12_Lock_policyE2EE = comdat any

$_ZTSSt23_Sp_counted_ptr_inplaceIN19OpenColorIO_v2_4dev22CTFReaderMatrixElt_1_3ESaIvELN9__gnu_cxx12_Lock_policyE2EE = comdat any

$_ZTISt23_Sp_counted_ptr_inplaceIN19OpenColorIO_v2_4dev22CTFReaderMatrixElt_1_3ESaIvELN9__gnu_cxx12_Lock_policyE2EE = comdat any

$_ZTVSt23_Sp_counted_ptr_inplaceIN19OpenColorIO_v2_4dev17CTFReaderRangeEltESaIvELN9__gnu_cxx12_Lock_policyE2EE = comdat any

$_ZTSSt23_Sp_counted_ptr_inplaceIN19OpenColorIO_v2_4dev17CTFReaderRangeEltESaIvELN9__gnu_cxx12_Lock_policyE2EE = comdat any

$_ZTISt23_Sp_counted_ptr_inplaceIN19OpenColorIO_v2_4dev17CTFReaderRangeEltESaIvELN9__gnu_cxx12_Lock_policyE2EE = comdat any

$_ZTVSt23_Sp_counted_ptr_inplaceIN19OpenColorIO_v2_4dev21CTFReaderRangeElt_1_7ESaIvELN9__gnu_cxx12_Lock_policyE2EE = comdat any

$_ZTSSt23_Sp_counted_ptr_inplaceIN19OpenColorIO_v2_4dev21CTFReaderRangeElt_1_7ESaIvELN9__gnu_cxx12_Lock_policyE2EE = comdat any

$_ZTISt23_Sp_counted_ptr_inplaceIN19OpenColorIO_v2_4dev21CTFReaderRangeElt_1_7ESaIvELN9__gnu_cxx12_Lock_policyE2EE = comdat any

$_ZTVSt23_Sp_counted_ptr_inplaceIN19OpenColorIO_v2_4dev21CTFReaderReferenceEltESaIvELN9__gnu_cxx12_Lock_policyE2EE = comdat any

$_ZTSSt23_Sp_counted_ptr_inplaceIN19OpenColorIO_v2_4dev21CTFReaderReferenceEltESaIvELN9__gnu_cxx12_Lock_policyE2EE = comdat any

$_ZTISt23_Sp_counted_ptr_inplaceIN19OpenColorIO_v2_4dev21CTFReaderReferenceEltESaIvELN9__gnu_cxx12_Lock_policyE2EE = comdat any

$_ZTVSt23_Sp_counted_ptr_inplaceIN19OpenColorIO_v2_4dev19FixedFunctionOpDataESaIvELN9__gnu_cxx12_Lock_policyE2EE = comdat any

$_ZTSSt23_Sp_counted_ptr_inplaceIN19OpenColorIO_v2_4dev19FixedFunctionOpDataESaIvELN9__gnu_cxx12_Lock_policyE2EE = comdat any

$_ZTISt23_Sp_counted_ptr_inplaceIN19OpenColorIO_v2_4dev19FixedFunctionOpDataESaIvELN9__gnu_cxx12_Lock_policyE2EE = comdat any

$_ZTVSt23_Sp_counted_ptr_inplaceIN19OpenColorIO_v2_4dev9CDLOpDataESaIvELN9__gnu_cxx12_Lock_policyE2EE = comdat any

$_ZTSSt23_Sp_counted_ptr_inplaceIN19OpenColorIO_v2_4dev9CDLOpDataESaIvELN9__gnu_cxx12_Lock_policyE2EE = comdat any

$_ZTISt23_Sp_counted_ptr_inplaceIN19OpenColorIO_v2_4dev9CDLOpDataESaIvELN9__gnu_cxx12_Lock_policyE2EE = comdat any

$_ZTVSt23_Sp_counted_ptr_inplaceIN19OpenColorIO_v2_4dev22ExposureContrastOpDataESaIvELN9__gnu_cxx12_Lock_policyE2EE = comdat any

$_ZTSSt23_Sp_counted_ptr_inplaceIN19OpenColorIO_v2_4dev22ExposureContrastOpDataESaIvELN9__gnu_cxx12_Lock_policyE2EE = comdat any

$_ZTISt23_Sp_counted_ptr_inplaceIN19OpenColorIO_v2_4dev22ExposureContrastOpDataESaIvELN9__gnu_cxx12_Lock_policyE2EE = comdat any

$_ZTVSt23_Sp_counted_ptr_inplaceIN19OpenColorIO_v2_4dev11GammaOpDataESaIvELN9__gnu_cxx12_Lock_policyE2EE = comdat any

$_ZTSSt23_Sp_counted_ptr_inplaceIN19OpenColorIO_v2_4dev11GammaOpDataESaIvELN9__gnu_cxx12_Lock_policyE2EE = comdat any

$_ZTISt23_Sp_counted_ptr_inplaceIN19OpenColorIO_v2_4dev11GammaOpDataESaIvELN9__gnu_cxx12_Lock_policyE2EE = comdat any

$_ZTVSt23_Sp_counted_ptr_inplaceIN19OpenColorIO_v2_4dev23CTFReaderGammaParamsEltESaIvELN9__gnu_cxx12_Lock_policyE2EE = comdat any

$_ZTSSt23_Sp_counted_ptr_inplaceIN19OpenColorIO_v2_4dev23CTFReaderGammaParamsEltESaIvELN9__gnu_cxx12_Lock_policyE2EE = comdat any

$_ZTISt23_Sp_counted_ptr_inplaceIN19OpenColorIO_v2_4dev23CTFReaderGammaParamsEltESaIvELN9__gnu_cxx12_Lock_policyE2EE = comdat any

$_ZTVSt23_Sp_counted_ptr_inplaceIN19OpenColorIO_v2_4dev27CTFReaderGammaParamsElt_1_5ESaIvELN9__gnu_cxx12_Lock_policyE2EE = comdat any

$_ZTSSt23_Sp_counted_ptr_inplaceIN19OpenColorIO_v2_4dev27CTFReaderGammaParamsElt_1_5ESaIvELN9__gnu_cxx12_Lock_policyE2EE = comdat any

$_ZTISt23_Sp_counted_ptr_inplaceIN19OpenColorIO_v2_4dev27CTFReaderGammaParamsElt_1_5ESaIvELN9__gnu_cxx12_Lock_policyE2EE = comdat any

$_ZTVSt23_Sp_counted_ptr_inplaceIN19OpenColorIO_v2_4dev20GradingPrimaryOpDataESaIvELN9__gnu_cxx12_Lock_policyE2EE = comdat any

$_ZTSSt23_Sp_counted_ptr_inplaceIN19OpenColorIO_v2_4dev20GradingPrimaryOpDataESaIvELN9__gnu_cxx12_Lock_policyE2EE = comdat any

$_ZTISt23_Sp_counted_ptr_inplaceIN19OpenColorIO_v2_4dev20GradingPrimaryOpDataESaIvELN9__gnu_cxx12_Lock_policyE2EE = comdat any

$_ZTVSt23_Sp_counted_ptr_inplaceIN19OpenColorIO_v2_4dev21GradingRGBCurveOpDataESaIvELN9__gnu_cxx12_Lock_policyE2EE = comdat any

$_ZTSSt23_Sp_counted_ptr_inplaceIN19OpenColorIO_v2_4dev21GradingRGBCurveOpDataESaIvELN9__gnu_cxx12_Lock_policyE2EE = comdat any

$_ZTISt23_Sp_counted_ptr_inplaceIN19OpenColorIO_v2_4dev21GradingRGBCurveOpDataESaIvELN9__gnu_cxx12_Lock_policyE2EE = comdat any

$_ZTVSt23_Sp_counted_ptr_inplaceIN19OpenColorIO_v2_4dev17GradingToneOpDataESaIvELN9__gnu_cxx12_Lock_policyE2EE = comdat any

$_ZTSSt23_Sp_counted_ptr_inplaceIN19OpenColorIO_v2_4dev17GradingToneOpDataESaIvELN9__gnu_cxx12_Lock_policyE2EE = comdat any

$_ZTISt23_Sp_counted_ptr_inplaceIN19OpenColorIO_v2_4dev17GradingToneOpDataESaIvELN9__gnu_cxx12_Lock_policyE2EE = comdat any

$_ZTVSt23_Sp_counted_ptr_inplaceIN19OpenColorIO_v2_4dev11Lut1DOpDataESaIvELN9__gnu_cxx12_Lock_policyE2EE = comdat any

$_ZTSSt23_Sp_counted_ptr_inplaceIN19OpenColorIO_v2_4dev11Lut1DOpDataESaIvELN9__gnu_cxx12_Lock_policyE2EE = comdat any

$_ZTISt23_Sp_counted_ptr_inplaceIN19OpenColorIO_v2_4dev11Lut1DOpDataESaIvELN9__gnu_cxx12_Lock_policyE2EE = comdat any

$_ZTVSt23_Sp_counted_ptr_inplaceIN19OpenColorIO_v2_4dev11Lut3DOpDataESaIvELN9__gnu_cxx12_Lock_policyE2EE = comdat any

$_ZTSSt23_Sp_counted_ptr_inplaceIN19OpenColorIO_v2_4dev11Lut3DOpDataESaIvELN9__gnu_cxx12_Lock_policyE2EE = comdat any

$_ZTISt23_Sp_counted_ptr_inplaceIN19OpenColorIO_v2_4dev11Lut3DOpDataESaIvELN9__gnu_cxx12_Lock_policyE2EE = comdat any

$_ZTVSt23_Sp_counted_ptr_inplaceIN19OpenColorIO_v2_4dev9LogOpDataESaIvELN9__gnu_cxx12_Lock_policyE2EE = comdat any

$_ZTSSt23_Sp_counted_ptr_inplaceIN19OpenColorIO_v2_4dev9LogOpDataESaIvELN9__gnu_cxx12_Lock_policyE2EE = comdat any

$_ZTISt23_Sp_counted_ptr_inplaceIN19OpenColorIO_v2_4dev9LogOpDataESaIvELN9__gnu_cxx12_Lock_policyE2EE = comdat any

$_ZTVSt23_Sp_counted_ptr_inplaceIN19OpenColorIO_v2_4dev21CTFReaderLogParamsEltESaIvELN9__gnu_cxx12_Lock_policyE2EE = comdat any

$_ZTSSt23_Sp_counted_ptr_inplaceIN19OpenColorIO_v2_4dev21CTFReaderLogParamsEltESaIvELN9__gnu_cxx12_Lock_policyE2EE = comdat any

$_ZTISt23_Sp_counted_ptr_inplaceIN19OpenColorIO_v2_4dev21CTFReaderLogParamsEltESaIvELN9__gnu_cxx12_Lock_policyE2EE = comdat any

$_ZTVSt23_Sp_counted_ptr_inplaceIN19OpenColorIO_v2_4dev25CTFReaderLogParamsElt_2_0ESaIvELN9__gnu_cxx12_Lock_policyE2EE = comdat any

$_ZTSSt23_Sp_counted_ptr_inplaceIN19OpenColorIO_v2_4dev25CTFReaderLogParamsElt_2_0ESaIvELN9__gnu_cxx12_Lock_policyE2EE = comdat any

$_ZTISt23_Sp_counted_ptr_inplaceIN19OpenColorIO_v2_4dev25CTFReaderLogParamsElt_2_0ESaIvELN9__gnu_cxx12_Lock_policyE2EE = comdat any

$_ZTVSt23_Sp_counted_ptr_inplaceIN19OpenColorIO_v2_4dev11RangeOpDataESaIvELN9__gnu_cxx12_Lock_policyE2EE = comdat any

$_ZTSSt23_Sp_counted_ptr_inplaceIN19OpenColorIO_v2_4dev11RangeOpDataESaIvELN9__gnu_cxx12_Lock_policyE2EE = comdat any

$_ZTISt23_Sp_counted_ptr_inplaceIN19OpenColorIO_v2_4dev11RangeOpDataESaIvELN9__gnu_cxx12_Lock_policyE2EE = comdat any

$_ZTVSt23_Sp_counted_ptr_inplaceIN19OpenColorIO_v2_4dev12MatrixOpDataESaIvELN9__gnu_cxx12_Lock_policyE2EE = comdat any

$_ZTSSt23_Sp_counted_ptr_inplaceIN19OpenColorIO_v2_4dev12MatrixOpDataESaIvELN9__gnu_cxx12_Lock_policyE2EE = comdat any

$_ZTISt23_Sp_counted_ptr_inplaceIN19OpenColorIO_v2_4dev12MatrixOpDataESaIvELN9__gnu_cxx12_Lock_policyE2EE = comdat any

$_ZTVSt23_Sp_counted_ptr_inplaceIN19OpenColorIO_v2_4dev15ReferenceOpDataESaIvELN9__gnu_cxx12_Lock_policyE2EE = comdat any

$_ZTSSt23_Sp_counted_ptr_inplaceIN19OpenColorIO_v2_4dev15ReferenceOpDataESaIvELN9__gnu_cxx12_Lock_policyE2EE = comdat any

$_ZTISt23_Sp_counted_ptr_inplaceIN19OpenColorIO_v2_4dev15ReferenceOpDataESaIvELN9__gnu_cxx12_Lock_policyE2EE = comdat any

@_ZStL8__ioinit = internal global %"class.std::ios_base::Init" zeroinitializer, align 1
@__dso_handle = external hidden global i8
@_ZN19OpenColorIO_v2_4dev11NumberUtilsL3locE = internal global %"struct.OpenColorIO_v2_4dev::NumberUtils::Locale" zeroinitializer, align 8
@_ZN19OpenColorIO_v2_4devL28CTF_PROCESS_LIST_VERSION_1_2E = internal global %"class.OpenColorIO_v2_4dev::CTFVersion" zeroinitializer, align 4
@_ZN19OpenColorIO_v2_4devL28CTF_PROCESS_LIST_VERSION_1_3E = internal global %"class.OpenColorIO_v2_4dev::CTFVersion" zeroinitializer, align 4
@_ZN19OpenColorIO_v2_4devL28CTF_PROCESS_LIST_VERSION_1_4E = internal global %"class.OpenColorIO_v2_4dev::CTFVersion" zeroinitializer, align 4
@_ZN19OpenColorIO_v2_4devL28CTF_PROCESS_LIST_VERSION_1_5E = internal global %"class.OpenColorIO_v2_4dev::CTFVersion" zeroinitializer, align 4
@_ZN19OpenColorIO_v2_4devL28CTF_PROCESS_LIST_VERSION_1_6E = internal global %"class.OpenColorIO_v2_4dev::CTFVersion" zeroinitializer, align 4
@_ZN19OpenColorIO_v2_4devL28CTF_PROCESS_LIST_VERSION_1_7E = internal global %"class.OpenColorIO_v2_4dev::CTFVersion" zeroinitializer, align 4
@_ZN19OpenColorIO_v2_4devL28CTF_PROCESS_LIST_VERSION_1_8E = internal global %"class.OpenColorIO_v2_4dev::CTFVersion" zeroinitializer, align 4
@_ZN19OpenColorIO_v2_4devL28CTF_PROCESS_LIST_VERSION_2_0E = internal global %"class.OpenColorIO_v2_4dev::CTFVersion" zeroinitializer, align 4
@_ZN19OpenColorIO_v2_4devL24CTF_PROCESS_LIST_VERSIONE = internal global %"class.OpenColorIO_v2_4dev::CTFVersion" zeroinitializer, align 4
@_ZTVN19OpenColorIO_v2_4dev21CTFReaderTransformEltE = hidden unnamed_addr constant { [11 x ptr] } { [11 x ptr] [ptr null, ptr @_ZTIN19OpenColorIO_v2_4dev21CTFReaderTransformEltE, ptr @_ZN19OpenColorIO_v2_4dev21CTFReaderTransformEltD2Ev, ptr @_ZN19OpenColorIO_v2_4dev21CTFReaderTransformEltD0Ev, ptr @_ZN19OpenColorIO_v2_4dev21CTFReaderTransformElt5startEPPKc, ptr @_ZN19OpenColorIO_v2_4dev21CTFReaderTransformElt3endEv, ptr @_ZNK19OpenColorIO_v2_4dev21XmlReaderContainerElt11isContainerEv, ptr @_ZNK19OpenColorIO_v2_4dev21CTFReaderTransformElt13getIdentifierB5cxx11Ev, ptr @_ZNK19OpenColorIO_v2_4dev21CTFReaderTransformElt11getTypeNameEv, ptr @_ZNK19OpenColorIO_v2_4dev16XmlReaderElement7isDummyEv, ptr @_ZN19OpenColorIO_v2_4dev21CTFReaderTransformElt14appendMetadataERKNSt7__cxx1112basic_stringIcSt11char_traitsIcESaIcEEES8_] }, align 8
@_ZN19OpenColorIO_v2_4devL7ATTR_IDE = internal constant [3 x i8] c"id\00", align 1
@.str = private unnamed_addr constant [47 x i8] c"Required attribute 'id' does not have a value.\00", align 1
@_ZN19OpenColorIO_v2_4devL9ATTR_NAMEE = internal constant [5 x i8] c"name\00", align 1
@.str.12 = private unnamed_addr constant [58 x i8] c"If the attribute 'name' is present, it must have a value.\00", align 1
@_ZN19OpenColorIO_v2_4devL15ATTR_INVERSE_OFE = internal constant [10 x i8] c"inverseOf\00", align 1
@.str.13 = private unnamed_addr constant [63 x i8] c"If the attribute 'inverseOf' is present, it must have a value.\00", align 1
@_ZN19OpenColorIO_v2_4devL12ATTR_VERSIONE = internal constant [8 x i8] c"version\00", align 1
@.str.14 = private unnamed_addr constant [55 x i8] c"'compCLFversion' and 'Version' cannot both be present.\00", align 1
@.str.15 = private unnamed_addr constant [34 x i8] c"'Version' can only be there once.\00", align 1
@.str.16 = private unnamed_addr constant [61 x i8] c"If the attribute 'version' is present, it must have a value.\00", align 1
@_ZTIN19OpenColorIO_v2_4dev9ExceptionE = external constant ptr
@_ZN19OpenColorIO_v2_4devL21ATTR_COMP_CLF_VERSIONE = internal constant [15 x i8] c"compCLFversion\00", align 1
@.str.17 = private unnamed_addr constant [41 x i8] c"'compCLFversion' can only be there once.\00", align 1
@.str.18 = private unnamed_addr constant [55 x i8] c"'compCLFversion' and 'Version' cannot be both present.\00", align 1
@.str.19 = private unnamed_addr constant [59 x i8] c"Required attribute 'compCLFversion' does not have a value.\00", align 1
@.str.20 = private unnamed_addr constant [37 x i8] c"Unsupported transform file version '\00", align 1
@.str.21 = private unnamed_addr constant [12 x i8] c"' supplied.\00", align 1
@.str.22 = private unnamed_addr constant [6 x i8] c"xmlns\00", align 1
@.str.23 = private unnamed_addr constant [36 x i8] c"Required attribute 'id' is missing.\00", align 1
@.str.24 = private unnamed_addr constant [48 x i8] c"Required attribute 'compCLFversion' is missing.\00", align 1
@_ZZNK19OpenColorIO_v2_4dev21CTFReaderTransformElt11getTypeNameEvE1nB5cxx11 = internal global %"class.std::__cxx11::basic_string" zeroinitializer, align 8
@_ZGVZNK19OpenColorIO_v2_4dev21CTFReaderTransformElt11getTypeNameEvE1nB5cxx11 = internal global i64 0, align 8
@_ZN19OpenColorIO_v2_4devL16TAG_PROCESS_LISTE = internal constant [12 x i8] c"ProcessList\00", align 1
@_ZTVN19OpenColorIO_v2_4dev17CTFReaderArrayEltE = hidden unnamed_addr constant { [11 x ptr] } { [11 x ptr] [ptr null, ptr @_ZTIN19OpenColorIO_v2_4dev17CTFReaderArrayEltE, ptr @_ZN19OpenColorIO_v2_4dev17CTFReaderArrayEltD2Ev, ptr @_ZN19OpenColorIO_v2_4dev17CTFReaderArrayEltD0Ev, ptr @_ZN19OpenColorIO_v2_4dev17CTFReaderArrayElt5startEPPKc, ptr @_ZN19OpenColorIO_v2_4dev17CTFReaderArrayElt3endEv, ptr @_ZNK19OpenColorIO_v2_4dev17XmlReaderPlainElt11isContainerEv, ptr @_ZNK19OpenColorIO_v2_4dev17XmlReaderPlainElt13getIdentifierB5cxx11Ev, ptr @_ZNK19OpenColorIO_v2_4dev17CTFReaderArrayElt11getTypeNameEv, ptr @_ZNK19OpenColorIO_v2_4dev16XmlReaderElement7isDummyEv, ptr @_ZN19OpenColorIO_v2_4dev17CTFReaderArrayElt10setRawDataEPKcmj] }, align 8
@_ZN19OpenColorIO_v2_4devL14ATTR_DIMENSIONE = internal constant [4 x i8] c"dim\00", align 1
@.str.25 = private unnamed_addr constant [10 x i8] c"Illegal '\00", align 1
@.str.26 = private unnamed_addr constant [20 x i8] c"' array dimensions \00", align 1
@.str.27 = private unnamed_addr constant [2 x i8] c".\00", align 1
@_ZTVN10__cxxabiv120__si_class_type_infoE = external global [0 x ptr]
@_ZTSN19OpenColorIO_v2_4dev21XmlReaderContainerEltE = linkonce_odr hidden constant [47 x i8] c"N19OpenColorIO_v2_4dev21XmlReaderContainerEltE\00", comdat, align 1
@_ZTIN19OpenColorIO_v2_4dev16XmlReaderElementE = external constant ptr
@_ZTIN19OpenColorIO_v2_4dev21XmlReaderContainerEltE = linkonce_odr hidden constant { ptr, ptr, ptr } { ptr getelementptr inbounds (ptr, ptr @_ZTVN10__cxxabiv120__si_class_type_infoE, i64 2), ptr @_ZTSN19OpenColorIO_v2_4dev21XmlReaderContainerEltE, ptr @_ZTIN19OpenColorIO_v2_4dev16XmlReaderElementE }, comdat, align 8
@_ZTVN10__cxxabiv117__class_type_infoE = external global [0 x ptr]
@_ZTSN19OpenColorIO_v2_4dev11CTFArrayMgtE = hidden constant [37 x i8] c"N19OpenColorIO_v2_4dev11CTFArrayMgtE\00", align 1
@_ZTIN19OpenColorIO_v2_4dev11CTFArrayMgtE = hidden constant { ptr, ptr } { ptr getelementptr inbounds (ptr, ptr @_ZTVN10__cxxabiv117__class_type_infoE, i64 2), ptr @_ZTSN19OpenColorIO_v2_4dev11CTFArrayMgtE }, align 8
@.str.28 = private unnamed_addr constant [50 x i8] c"Parsing issue while parsing array dimensions of '\00", align 1
@.str.29 = private unnamed_addr constant [4 x i8] c"' (\00", align 1
@.str.30 = private unnamed_addr constant [3 x i8] c").\00", align 1
@.str.31 = private unnamed_addr constant [2 x i8] c"'\00", align 1
@.str.32 = private unnamed_addr constant [28 x i8] c"' Illegal array dimensions \00", align 1
@.str.33 = private unnamed_addr constant [25 x i8] c"Missing 'dim' attribute.\00", align 1
@.str.34 = private unnamed_addr constant [17 x i8] c"Illegal values '\00", align 1
@.str.35 = private unnamed_addr constant [15 x i8] c"' in array of \00", align 1
@.str.36 = private unnamed_addr constant [2 x i8] c"x\00", align 1
@.str.37 = private unnamed_addr constant [10 x i8] c"Expected \00", align 1
@.str.38 = private unnamed_addr constant [44 x i8] c" Array, found too many values in array of '\00", align 1
@.str.39 = private unnamed_addr constant [3 x i8] c"'.\00", align 1
@_ZTSN19OpenColorIO_v2_4dev14CTFReaderOpEltE = hidden constant [40 x i8] c"N19OpenColorIO_v2_4dev14CTFReaderOpEltE\00", align 1
@_ZTIN19OpenColorIO_v2_4dev14CTFReaderOpEltE = hidden constant { ptr, ptr, ptr } { ptr getelementptr inbounds (ptr, ptr @_ZTVN10__cxxabiv120__si_class_type_infoE, i64 2), ptr @_ZTSN19OpenColorIO_v2_4dev14CTFReaderOpEltE, ptr @_ZTIN19OpenColorIO_v2_4dev21XmlReaderContainerEltE }, align 8
@_ZTVN19OpenColorIO_v2_4dev11CTFArrayMgtE = hidden unnamed_addr constant { [7 x ptr] } { [7 x ptr] [ptr null, ptr @_ZTIN19OpenColorIO_v2_4dev11CTFArrayMgtE, ptr @_ZN19OpenColorIO_v2_4dev11CTFArrayMgtD2Ev, ptr @_ZN19OpenColorIO_v2_4dev11CTFArrayMgtD0Ev, ptr @_ZN19OpenColorIO_v2_4dev11CTFArrayMgt12setCompletedEb, ptr @__cxa_pure_virtual, ptr @__cxa_pure_virtual] }, align 8
@_ZTVN19OpenColorIO_v2_4dev20CTFReaderIndexMapEltE = hidden unnamed_addr constant { [11 x ptr] } { [11 x ptr] [ptr null, ptr @_ZTIN19OpenColorIO_v2_4dev20CTFReaderIndexMapEltE, ptr @_ZN19OpenColorIO_v2_4dev20CTFReaderIndexMapEltD2Ev, ptr @_ZN19OpenColorIO_v2_4dev20CTFReaderIndexMapEltD0Ev, ptr @_ZN19OpenColorIO_v2_4dev20CTFReaderIndexMapElt5startEPPKc, ptr @_ZN19OpenColorIO_v2_4dev20CTFReaderIndexMapElt3endEv, ptr @_ZNK19OpenColorIO_v2_4dev17XmlReaderPlainElt11isContainerEv, ptr @_ZNK19OpenColorIO_v2_4dev17XmlReaderPlainElt13getIdentifierB5cxx11Ev, ptr @_ZNK19OpenColorIO_v2_4dev20CTFReaderIndexMapElt11getTypeNameEv, ptr @_ZNK19OpenColorIO_v2_4dev16XmlReaderElement7isDummyEv, ptr @_ZN19OpenColorIO_v2_4dev20CTFReaderIndexMapElt10setRawDataEPKcmj] }, align 8
@.str.40 = private unnamed_addr constant [23 x i8] c"' IndexMap dimensions \00", align 1
@_ZTSN19OpenColorIO_v2_4dev14CTFIndexMapMgtE = linkonce_odr hidden constant [40 x i8] c"N19OpenColorIO_v2_4dev14CTFIndexMapMgtE\00", comdat, align 1
@_ZTIN19OpenColorIO_v2_4dev14CTFIndexMapMgtE = linkonce_odr hidden constant { ptr, ptr } { ptr getelementptr inbounds (ptr, ptr @_ZTVN10__cxxabiv117__class_type_infoE, i64 2), ptr @_ZTSN19OpenColorIO_v2_4dev14CTFIndexMapMgtE }, comdat, align 8
@.str.41 = private unnamed_addr constant [37 x i8] c"Required attribute 'dim' is missing.\00", align 1
@.str.42 = private unnamed_addr constant [2 x i8] c"(\00", align 1
@.str.43 = private unnamed_addr constant [4 x i8] c"): \00", align 1
@.str.44 = private unnamed_addr constant [10 x i8] c"Element '\00", align 1
@.str.45 = private unnamed_addr constant [39 x i8] c"' is not valid since CLF 3 (or CTF 2).\00", align 1
@.str.46 = private unnamed_addr constant [7 x i8] c"' in '\00", align 1
@.str.47 = private unnamed_addr constant [12 x i8] c"' IndexMap.\00", align 1
@.str.48 = private unnamed_addr constant [37 x i8] c" entries, found too many values in '\00", align 1
@_ZTVN19OpenColorIO_v2_4dev20CTFReaderMetadataEltE = hidden unnamed_addr constant { [11 x ptr] } { [11 x ptr] [ptr null, ptr @_ZTIN19OpenColorIO_v2_4dev20CTFReaderMetadataEltE, ptr @_ZN19OpenColorIO_v2_4dev20CTFReaderMetadataEltD2Ev, ptr @_ZN19OpenColorIO_v2_4dev20CTFReaderMetadataEltD0Ev, ptr @_ZN19OpenColorIO_v2_4dev20CTFReaderMetadataElt5startEPPKc, ptr @_ZN19OpenColorIO_v2_4dev20CTFReaderMetadataElt3endEv, ptr @_ZNK19OpenColorIO_v2_4dev21XmlReaderContainerElt11isContainerEv, ptr @_ZNK19OpenColorIO_v2_4dev20CTFReaderMetadataElt13getIdentifierB5cxx11Ev, ptr @_ZNK19OpenColorIO_v2_4dev19XmlReaderComplexElt11getTypeNameEv, ptr @_ZNK19OpenColorIO_v2_4dev16XmlReaderElement7isDummyEv, ptr @_ZN19OpenColorIO_v2_4dev19XmlReaderComplexElt14appendMetadataERKNSt7__cxx1112basic_stringIcSt11char_traitsIcESaIcEEES8_] }, align 8
@.str.49 = private unnamed_addr constant [1 x i8] zeroinitializer, align 1
@_ZTSN19OpenColorIO_v2_4dev20CTFReaderMetadataEltE = hidden constant [46 x i8] c"N19OpenColorIO_v2_4dev20CTFReaderMetadataEltE\00", align 1
@_ZTSN19OpenColorIO_v2_4dev19XmlReaderComplexEltE = linkonce_odr hidden constant [45 x i8] c"N19OpenColorIO_v2_4dev19XmlReaderComplexEltE\00", comdat, align 1
@_ZTIN19OpenColorIO_v2_4dev19XmlReaderComplexEltE = linkonce_odr hidden constant { ptr, ptr, ptr } { ptr getelementptr inbounds (ptr, ptr @_ZTVN10__cxxabiv120__si_class_type_infoE, i64 2), ptr @_ZTSN19OpenColorIO_v2_4dev19XmlReaderComplexEltE, ptr @_ZTIN19OpenColorIO_v2_4dev21XmlReaderContainerEltE }, comdat, align 8
@_ZTIN19OpenColorIO_v2_4dev20CTFReaderMetadataEltE = hidden constant { ptr, ptr, ptr } { ptr getelementptr inbounds (ptr, ptr @_ZTVN10__cxxabiv120__si_class_type_infoE, i64 2), ptr @_ZTSN19OpenColorIO_v2_4dev20CTFReaderMetadataEltE, ptr @_ZTIN19OpenColorIO_v2_4dev19XmlReaderComplexEltE }, align 8
@_ZTVN19OpenColorIO_v2_4dev16CTFReaderInfoEltE = hidden unnamed_addr constant { [11 x ptr] } { [11 x ptr] [ptr null, ptr @_ZTIN19OpenColorIO_v2_4dev16CTFReaderInfoEltE, ptr @_ZN19OpenColorIO_v2_4dev16CTFReaderInfoEltD2Ev, ptr @_ZN19OpenColorIO_v2_4dev16CTFReaderInfoEltD0Ev, ptr @_ZN19OpenColorIO_v2_4dev16CTFReaderInfoElt5startEPPKc, ptr @_ZN19OpenColorIO_v2_4dev16CTFReaderInfoElt3endEv, ptr @_ZNK19OpenColorIO_v2_4dev21XmlReaderContainerElt11isContainerEv, ptr @_ZNK19OpenColorIO_v2_4dev20CTFReaderMetadataElt13getIdentifierB5cxx11Ev, ptr @_ZNK19OpenColorIO_v2_4dev19XmlReaderComplexElt11getTypeNameEv, ptr @_ZNK19OpenColorIO_v2_4dev16XmlReaderElement7isDummyEv, ptr @_ZN19OpenColorIO_v2_4dev19XmlReaderComplexElt14appendMetadataERKNSt7__cxx1112basic_stringIcSt11char_traitsIcESaIcEEES8_] }, align 8
@_ZTSN19OpenColorIO_v2_4dev21CTFReaderTransformEltE = hidden constant [47 x i8] c"N19OpenColorIO_v2_4dev21CTFReaderTransformEltE\00", align 1
@_ZTIN19OpenColorIO_v2_4dev21CTFReaderTransformEltE = hidden constant { ptr, ptr, ptr } { ptr getelementptr inbounds (ptr, ptr @_ZTVN10__cxxabiv120__si_class_type_infoE, i64 2), ptr @_ZTSN19OpenColorIO_v2_4dev21CTFReaderTransformEltE, ptr @_ZTIN19OpenColorIO_v2_4dev21XmlReaderContainerEltE }, align 8
@_ZTVN19OpenColorIO_v2_4dev14CTFReaderOpEltE = hidden unnamed_addr constant { [13 x ptr] } { [13 x ptr] [ptr null, ptr @_ZTIN19OpenColorIO_v2_4dev14CTFReaderOpEltE, ptr @_ZN19OpenColorIO_v2_4dev14CTFReaderOpEltD2Ev, ptr @_ZN19OpenColorIO_v2_4dev14CTFReaderOpEltD0Ev, ptr @_ZN19OpenColorIO_v2_4dev14CTFReaderOpElt5startEPPKc, ptr @_ZN19OpenColorIO_v2_4dev14CTFReaderOpElt3endEv, ptr @_ZNK19OpenColorIO_v2_4dev21XmlReaderContainerElt11isContainerEv, ptr @_ZNK19OpenColorIO_v2_4dev14CTFReaderOpElt13getIdentifierB5cxx11Ev, ptr @_ZNK19OpenColorIO_v2_4dev14CTFReaderOpElt11getTypeNameEv, ptr @_ZNK19OpenColorIO_v2_4dev16XmlReaderElement7isDummyEv, ptr @_ZN19OpenColorIO_v2_4dev14CTFReaderOpElt14appendMetadataERKNSt7__cxx1112basic_stringIcSt11char_traitsIcESaIcEEES8_, ptr @__cxa_pure_virtual, ptr @_ZNK19OpenColorIO_v2_4dev14CTFReaderOpElt18isOpParameterValidEPKc] }, align 8
@.str.50 = private unnamed_addr constant [25 x i8] c"ProcessList tag missing.\00", align 1
@.str.51 = private unnamed_addr constant [10 x i8] c"Parsing '\00", align 1
@_ZN19OpenColorIO_v2_4devL16ATTR_BITDEPTH_INE = internal constant [11 x i8] c"inBitDepth\00", align 1
@.str.52 = private unnamed_addr constant [27 x i8] c"inBitDepth unknown value (\00", align 1
@_ZN19OpenColorIO_v2_4devL17ATTR_BITDEPTH_OUTE = internal constant [12 x i8] c"outBitDepth\00", align 1
@.str.53 = private unnamed_addr constant [28 x i8] c"outBitDepth unknown value (\00", align 1
@.str.54 = private unnamed_addr constant [23 x i8] c"inBitDepth is missing.\00", align 1
@.str.55 = private unnamed_addr constant [24 x i8] c"outBitDepth is missing.\00", align 1
@.str.56 = private unnamed_addr constant [52 x i8] c"Bit-depth mismatch between ops. Previous op output \00", align 1
@.str.57 = private unnamed_addr constant [16 x i8] c"bit-depth is: '\00", align 1
@.str.58 = private unnamed_addr constant [35 x i8] c"' and this op input bit-depth is '\00", align 1
@.str.59 = private unnamed_addr constant [4 x i8] c"'. \00", align 1
@_ZN19OpenColorIO_v2_4devL11ATTR_BYPASSE = internal constant [7 x i8] c"bypass\00", align 1
@.str.60 = private unnamed_addr constant [3 x i8] c"8i\00", align 1
@.str.61 = private unnamed_addr constant [4 x i8] c"10i\00", align 1
@.str.62 = private unnamed_addr constant [4 x i8] c"12i\00", align 1
@.str.63 = private unnamed_addr constant [4 x i8] c"16i\00", align 1
@.str.64 = private unnamed_addr constant [4 x i8] c"16f\00", align 1
@.str.65 = private unnamed_addr constant [4 x i8] c"32f\00", align 1
@_ZTVN19OpenColorIO_v2_4dev16CTFReaderACESEltE = hidden unnamed_addr constant { [13 x ptr] } { [13 x ptr] [ptr null, ptr @_ZTIN19OpenColorIO_v2_4dev16CTFReaderACESEltE, ptr @_ZN19OpenColorIO_v2_4dev16CTFReaderACESEltD2Ev, ptr @_ZN19OpenColorIO_v2_4dev16CTFReaderACESEltD0Ev, ptr @_ZN19OpenColorIO_v2_4dev16CTFReaderACESElt5startEPPKc, ptr @_ZN19OpenColorIO_v2_4dev16CTFReaderACESElt3endEv, ptr @_ZNK19OpenColorIO_v2_4dev21XmlReaderContainerElt11isContainerEv, ptr @_ZNK19OpenColorIO_v2_4dev14CTFReaderOpElt13getIdentifierB5cxx11Ev, ptr @_ZNK19OpenColorIO_v2_4dev14CTFReaderOpElt11getTypeNameEv, ptr @_ZNK19OpenColorIO_v2_4dev16XmlReaderElement7isDummyEv, ptr @_ZN19OpenColorIO_v2_4dev14CTFReaderOpElt14appendMetadataERKNSt7__cxx1112basic_stringIcSt11char_traitsIcESaIcEEES8_, ptr @_ZNK19OpenColorIO_v2_4dev16CTFReaderACESElt5getOpEv, ptr @_ZNK19OpenColorIO_v2_4dev16CTFReaderACESElt18isOpParameterValidEPKc] }, align 8
@_ZN19OpenColorIO_v2_4devL10ATTR_STYLEE = internal constant [6 x i8] c"style\00", align 1
@.str.66 = private unnamed_addr constant [46 x i8] c"style parameter for FixedFunction is missing.\00", align 1
@_ZTVN19OpenColorIO_v2_4dev22CTFReaderACESParamsEltE = hidden unnamed_addr constant { [11 x ptr] } { [11 x ptr] [ptr null, ptr @_ZTIN19OpenColorIO_v2_4dev22CTFReaderACESParamsEltE, ptr @_ZN19OpenColorIO_v2_4dev22CTFReaderACESParamsEltD2Ev, ptr @_ZN19OpenColorIO_v2_4dev22CTFReaderACESParamsEltD0Ev, ptr @_ZN19OpenColorIO_v2_4dev22CTFReaderACESParamsElt5startEPPKc, ptr @_ZN19OpenColorIO_v2_4dev22CTFReaderACESParamsElt3endEv, ptr @_ZNK19OpenColorIO_v2_4dev17XmlReaderPlainElt11isContainerEv, ptr @_ZNK19OpenColorIO_v2_4dev17XmlReaderPlainElt13getIdentifierB5cxx11Ev, ptr @_ZNK19OpenColorIO_v2_4dev17XmlReaderPlainElt11getTypeNameEv, ptr @_ZNK19OpenColorIO_v2_4dev16XmlReaderElement7isDummyEv, ptr @_ZN19OpenColorIO_v2_4dev22CTFReaderACESParamsElt10setRawDataEPKcmj] }, align 8
@_ZTSN19OpenColorIO_v2_4dev16CTFReaderACESEltE = hidden constant [42 x i8] c"N19OpenColorIO_v2_4dev16CTFReaderACESEltE\00", align 1
@_ZTIN19OpenColorIO_v2_4dev16CTFReaderACESEltE = hidden constant { ptr, ptr, ptr } { ptr getelementptr inbounds (ptr, ptr @_ZTVN10__cxxabiv120__si_class_type_infoE, i64 2), ptr @_ZTSN19OpenColorIO_v2_4dev16CTFReaderACESEltE, ptr @_ZTIN19OpenColorIO_v2_4dev14CTFReaderOpEltE }, align 8
@_ZN19OpenColorIO_v2_4devL10ATTR_GAMMAE = internal constant [6 x i8] c"gamma\00", align 1
@.str.67 = private unnamed_addr constant [39 x i8] c"ACES FixedFunction element with style \00", align 1
@.str.68 = private unnamed_addr constant [33 x i8] c" expects only 1 gamma parameter.\00", align 1
@.str.69 = private unnamed_addr constant [28 x i8] c"Missing required parameter \00", align 1
@.str.70 = private unnamed_addr constant [43 x i8] c"for ACES FixedFunction element with style \00", align 1
@.str.71 = private unnamed_addr constant [30 x i8] c" does not take any parameter.\00", align 1
@_ZTVN19OpenColorIO_v2_4dev15CTFReaderCDLEltE = hidden unnamed_addr constant { [13 x ptr] } { [13 x ptr] [ptr null, ptr @_ZTIN19OpenColorIO_v2_4dev15CTFReaderCDLEltE, ptr @_ZN19OpenColorIO_v2_4dev15CTFReaderCDLEltD2Ev, ptr @_ZN19OpenColorIO_v2_4dev15CTFReaderCDLEltD0Ev, ptr @_ZN19OpenColorIO_v2_4dev15CTFReaderCDLElt5startEPPKc, ptr @_ZN19OpenColorIO_v2_4dev15CTFReaderCDLElt3endEv, ptr @_ZNK19OpenColorIO_v2_4dev21XmlReaderContainerElt11isContainerEv, ptr @_ZNK19OpenColorIO_v2_4dev14CTFReaderOpElt13getIdentifierB5cxx11Ev, ptr @_ZNK19OpenColorIO_v2_4dev14CTFReaderOpElt11getTypeNameEv, ptr @_ZNK19OpenColorIO_v2_4dev16XmlReaderElement7isDummyEv, ptr @_ZN19OpenColorIO_v2_4dev14CTFReaderOpElt14appendMetadataERKNSt7__cxx1112basic_stringIcSt11char_traitsIcESaIcEEES8_, ptr @_ZNK19OpenColorIO_v2_4dev15CTFReaderCDLElt5getOpEv, ptr @_ZNK19OpenColorIO_v2_4dev15CTFReaderCDLElt18isOpParameterValidEPKc] }, align 8
@_ZTVN19OpenColorIO_v2_4dev19CTFReaderSatNodeEltE = hidden unnamed_addr constant { [12 x ptr] } { [12 x ptr] [ptr null, ptr @_ZTIN19OpenColorIO_v2_4dev19CTFReaderSatNodeEltE, ptr @_ZN19OpenColorIO_v2_4dev19CTFReaderSatNodeEltD2Ev, ptr @_ZN19OpenColorIO_v2_4dev19CTFReaderSatNodeEltD0Ev, ptr @_ZN19OpenColorIO_v2_4dev23XmlReaderSatNodeBaseElt5startEPPKc, ptr @_ZN19OpenColorIO_v2_4dev23XmlReaderSatNodeBaseElt3endEv, ptr @_ZNK19OpenColorIO_v2_4dev21XmlReaderContainerElt11isContainerEv, ptr @_ZNK19OpenColorIO_v2_4dev19XmlReaderComplexElt13getIdentifierB5cxx11Ev, ptr @_ZNK19OpenColorIO_v2_4dev19XmlReaderComplexElt11getTypeNameEv, ptr @_ZNK19OpenColorIO_v2_4dev16XmlReaderElement7isDummyEv, ptr @_ZN19OpenColorIO_v2_4dev23XmlReaderSatNodeBaseElt14appendMetadataERKNSt7__cxx1112basic_stringIcSt11char_traitsIcESaIcEEES8_, ptr @_ZNK19OpenColorIO_v2_4dev19CTFReaderSatNodeElt6getCDLEv] }, align 8
@_ZTVN19OpenColorIO_v2_4dev19CTFReaderSOPNodeEltE = hidden unnamed_addr constant { [12 x ptr] } { [12 x ptr] [ptr null, ptr @_ZTIN19OpenColorIO_v2_4dev19CTFReaderSOPNodeEltE, ptr @_ZN19OpenColorIO_v2_4dev19CTFReaderSOPNodeEltD2Ev, ptr @_ZN19OpenColorIO_v2_4dev19CTFReaderSOPNodeEltD0Ev, ptr @_ZN19OpenColorIO_v2_4dev23XmlReaderSOPNodeBaseElt5startEPPKc, ptr @_ZN19OpenColorIO_v2_4dev23XmlReaderSOPNodeBaseElt3endEv, ptr @_ZNK19OpenColorIO_v2_4dev21XmlReaderContainerElt11isContainerEv, ptr @_ZNK19OpenColorIO_v2_4dev19XmlReaderComplexElt13getIdentifierB5cxx11Ev, ptr @_ZNK19OpenColorIO_v2_4dev19XmlReaderComplexElt11getTypeNameEv, ptr @_ZNK19OpenColorIO_v2_4dev16XmlReaderElement7isDummyEv, ptr @_ZN19OpenColorIO_v2_4dev23XmlReaderSOPNodeBaseElt14appendMetadataERKNSt7__cxx1112basic_stringIcSt11char_traitsIcESaIcEEES8_, ptr @_ZNK19OpenColorIO_v2_4dev19CTFReaderSOPNodeElt6getCDLEv] }, align 8
@_ZTVN19OpenColorIO_v2_4dev25CTFReaderFixedFunctionEltE = hidden unnamed_addr constant { [13 x ptr] } { [13 x ptr] [ptr null, ptr @_ZTIN19OpenColorIO_v2_4dev25CTFReaderFixedFunctionEltE, ptr @_ZN19OpenColorIO_v2_4dev25CTFReaderFixedFunctionEltD2Ev, ptr @_ZN19OpenColorIO_v2_4dev25CTFReaderFixedFunctionEltD0Ev, ptr @_ZN19OpenColorIO_v2_4dev25CTFReaderFixedFunctionElt5startEPPKc, ptr @_ZN19OpenColorIO_v2_4dev25CTFReaderFixedFunctionElt3endEv, ptr @_ZNK19OpenColorIO_v2_4dev21XmlReaderContainerElt11isContainerEv, ptr @_ZNK19OpenColorIO_v2_4dev14CTFReaderOpElt13getIdentifierB5cxx11Ev, ptr @_ZNK19OpenColorIO_v2_4dev14CTFReaderOpElt11getTypeNameEv, ptr @_ZNK19OpenColorIO_v2_4dev16XmlReaderElement7isDummyEv, ptr @_ZN19OpenColorIO_v2_4dev14CTFReaderOpElt14appendMetadataERKNSt7__cxx1112basic_stringIcSt11char_traitsIcESaIcEEES8_, ptr @_ZNK19OpenColorIO_v2_4dev25CTFReaderFixedFunctionElt5getOpEv, ptr @_ZNK19OpenColorIO_v2_4dev25CTFReaderFixedFunctionElt18isOpParameterValidEPKc] }, align 8
@_ZN19OpenColorIO_v2_4devL11ATTR_PARAMSE = internal constant [7 x i8] c"params\00", align 1
@.str.72 = private unnamed_addr constant [10 x i8] c"' params \00", align 1
@.str.73 = private unnamed_addr constant [46 x i8] c"Style parameter for FixedFunction is missing.\00", align 1
@_ZTVN19OpenColorIO_v2_4dev20CTFReaderFunctionEltE = hidden unnamed_addr constant { [13 x ptr] } { [13 x ptr] [ptr null, ptr @_ZTIN19OpenColorIO_v2_4dev20CTFReaderFunctionEltE, ptr @_ZN19OpenColorIO_v2_4dev20CTFReaderFunctionEltD2Ev, ptr @_ZN19OpenColorIO_v2_4dev20CTFReaderFunctionEltD0Ev, ptr @_ZN19OpenColorIO_v2_4dev20CTFReaderFunctionElt5startEPPKc, ptr @_ZN19OpenColorIO_v2_4dev20CTFReaderFunctionElt3endEv, ptr @_ZNK19OpenColorIO_v2_4dev21XmlReaderContainerElt11isContainerEv, ptr @_ZNK19OpenColorIO_v2_4dev14CTFReaderOpElt13getIdentifierB5cxx11Ev, ptr @_ZNK19OpenColorIO_v2_4dev14CTFReaderOpElt11getTypeNameEv, ptr @_ZNK19OpenColorIO_v2_4dev16XmlReaderElement7isDummyEv, ptr @_ZN19OpenColorIO_v2_4dev14CTFReaderOpElt14appendMetadataERKNSt7__cxx1112basic_stringIcSt11char_traitsIcESaIcEEES8_, ptr @_ZNK19OpenColorIO_v2_4dev20CTFReaderFunctionElt5getOpEv, ptr @_ZNK19OpenColorIO_v2_4dev20CTFReaderFunctionElt18isOpParameterValidEPKc] }, align 8
@_ZTVN19OpenColorIO_v2_4dev24CTFReaderDynamicParamEltE = hidden unnamed_addr constant { [11 x ptr] } { [11 x ptr] [ptr null, ptr @_ZTIN19OpenColorIO_v2_4dev24CTFReaderDynamicParamEltE, ptr @_ZN19OpenColorIO_v2_4dev24CTFReaderDynamicParamEltD2Ev, ptr @_ZN19OpenColorIO_v2_4dev24CTFReaderDynamicParamEltD0Ev, ptr @_ZN19OpenColorIO_v2_4dev24CTFReaderDynamicParamElt5startEPPKc, ptr @_ZN19OpenColorIO_v2_4dev24CTFReaderDynamicParamElt3endEv, ptr @_ZNK19OpenColorIO_v2_4dev17XmlReaderPlainElt11isContainerEv, ptr @_ZNK19OpenColorIO_v2_4dev17XmlReaderPlainElt13getIdentifierB5cxx11Ev, ptr @_ZNK19OpenColorIO_v2_4dev17XmlReaderPlainElt11getTypeNameEv, ptr @_ZNK19OpenColorIO_v2_4dev16XmlReaderElement7isDummyEv, ptr @_ZN19OpenColorIO_v2_4dev24CTFReaderDynamicParamElt10setRawDataEPKcmj] }, align 8
@_ZN19OpenColorIO_v2_4devL10ATTR_PARAME = internal constant [6 x i8] c"param\00", align 1
@_ZN19OpenColorIO_v2_4devL21TAG_DYN_PROP_EXPOSUREE = internal constant [9 x i8] c"EXPOSURE\00", align 1
@_ZTSN19OpenColorIO_v2_4dev28CTFReaderExposureContrastEltE = hidden constant [54 x i8] c"N19OpenColorIO_v2_4dev28CTFReaderExposureContrastEltE\00", align 1
@_ZTIN19OpenColorIO_v2_4dev28CTFReaderExposureContrastEltE = hidden constant { ptr, ptr, ptr } { ptr getelementptr inbounds (ptr, ptr @_ZTVN10__cxxabiv120__si_class_type_infoE, i64 2), ptr @_ZTSN19OpenColorIO_v2_4dev28CTFReaderExposureContrastEltE, ptr @_ZTIN19OpenColorIO_v2_4dev14CTFReaderOpEltE }, align 8
@.str.74 = private unnamed_addr constant [20 x i8] c"Dynamic parameter '\00", align 1
@.str.75 = private unnamed_addr constant [24 x i8] c"' is not supported in '\00", align 1
@_ZN19OpenColorIO_v2_4devL21TAG_DYN_PROP_CONTRASTE = internal constant [9 x i8] c"CONTRAST\00", align 1
@_ZN19OpenColorIO_v2_4devL18TAG_DYN_PROP_GAMMAE = internal constant [6 x i8] c"GAMMA\00", align 1
@_ZN19OpenColorIO_v2_4devL20TAG_DYN_PROP_PRIMARYE = internal constant [8 x i8] c"PRIMARY\00", align 1
@_ZTSN19OpenColorIO_v2_4dev26CTFReaderGradingPrimaryEltE = hidden constant [52 x i8] c"N19OpenColorIO_v2_4dev26CTFReaderGradingPrimaryEltE\00", align 1
@_ZTIN19OpenColorIO_v2_4dev26CTFReaderGradingPrimaryEltE = hidden constant { ptr, ptr, ptr } { ptr getelementptr inbounds (ptr, ptr @_ZTVN10__cxxabiv120__si_class_type_infoE, i64 2), ptr @_ZTSN19OpenColorIO_v2_4dev26CTFReaderGradingPrimaryEltE, ptr @_ZTIN19OpenColorIO_v2_4dev14CTFReaderOpEltE }, align 8
@_ZN19OpenColorIO_v2_4devL21TAG_DYN_PROP_RGBCURVEE = internal constant [10 x i8] c"RGB_CURVE\00", align 1
@_ZTSN19OpenColorIO_v2_4dev27CTFReaderGradingRGBCurveEltE = hidden constant [53 x i8] c"N19OpenColorIO_v2_4dev27CTFReaderGradingRGBCurveEltE\00", align 1
@_ZTIN19OpenColorIO_v2_4dev27CTFReaderGradingRGBCurveEltE = hidden constant { ptr, ptr, ptr } { ptr getelementptr inbounds (ptr, ptr @_ZTVN10__cxxabiv120__si_class_type_infoE, i64 2), ptr @_ZTSN19OpenColorIO_v2_4dev27CTFReaderGradingRGBCurveEltE, ptr @_ZTIN19OpenColorIO_v2_4dev14CTFReaderOpEltE }, align 8
@_ZN19OpenColorIO_v2_4devL17TAG_DYN_PROP_TONEE = internal constant [5 x i8] c"TONE\00", align 1
@_ZTSN19OpenColorIO_v2_4dev23CTFReaderGradingToneEltE = hidden constant [49 x i8] c"N19OpenColorIO_v2_4dev23CTFReaderGradingToneEltE\00", align 1
@_ZTIN19OpenColorIO_v2_4dev23CTFReaderGradingToneEltE = hidden constant { ptr, ptr, ptr } { ptr getelementptr inbounds (ptr, ptr @_ZTVN10__cxxabiv120__si_class_type_infoE, i64 2), ptr @_ZTSN19OpenColorIO_v2_4dev23CTFReaderGradingToneEltE, ptr @_ZTIN19OpenColorIO_v2_4dev14CTFReaderOpEltE }, align 8
@_ZN19OpenColorIO_v2_4devL17TAG_DYN_PROP_LOOKE = internal constant [12 x i8] c"LOOK_SWITCH\00", align 1
@.str.76 = private unnamed_addr constant [7 x i8] c"' on '\00", align 1
@.str.77 = private unnamed_addr constant [14 x i8] c"' is ignored.\00", align 1
@.str.78 = private unnamed_addr constant [20 x i8] c"' is not valid in '\00", align 1
@_ZTVN19OpenColorIO_v2_4dev28CTFReaderExposureContrastEltE = hidden unnamed_addr constant { [13 x ptr] } { [13 x ptr] [ptr null, ptr @_ZTIN19OpenColorIO_v2_4dev28CTFReaderExposureContrastEltE, ptr @_ZN19OpenColorIO_v2_4dev28CTFReaderExposureContrastEltD2Ev, ptr @_ZN19OpenColorIO_v2_4dev28CTFReaderExposureContrastEltD0Ev, ptr @_ZN19OpenColorIO_v2_4dev28CTFReaderExposureContrastElt5startEPPKc, ptr @_ZN19OpenColorIO_v2_4dev28CTFReaderExposureContrastElt3endEv, ptr @_ZNK19OpenColorIO_v2_4dev21XmlReaderContainerElt11isContainerEv, ptr @_ZNK19OpenColorIO_v2_4dev14CTFReaderOpElt13getIdentifierB5cxx11Ev, ptr @_ZNK19OpenColorIO_v2_4dev14CTFReaderOpElt11getTypeNameEv, ptr @_ZNK19OpenColorIO_v2_4dev16XmlReaderElement7isDummyEv, ptr @_ZN19OpenColorIO_v2_4dev14CTFReaderOpElt14appendMetadataERKNSt7__cxx1112basic_stringIcSt11char_traitsIcESaIcEEES8_, ptr @_ZNK19OpenColorIO_v2_4dev28CTFReaderExposureContrastElt5getOpEv, ptr @_ZNK19OpenColorIO_v2_4dev28CTFReaderExposureContrastElt18isOpParameterValidEPKc] }, align 8
@.str.79 = private unnamed_addr constant [27 x i8] c"ExposureContrast element: \00", align 1
@.str.80 = private unnamed_addr constant [41 x i8] c"ExposureContrast element: style missing.\00", align 1
@_ZTVN19OpenColorIO_v2_4dev20CTFReaderECParamsEltE = hidden unnamed_addr constant { [11 x ptr] } { [11 x ptr] [ptr null, ptr @_ZTIN19OpenColorIO_v2_4dev20CTFReaderECParamsEltE, ptr @_ZN19OpenColorIO_v2_4dev20CTFReaderECParamsEltD2Ev, ptr @_ZN19OpenColorIO_v2_4dev20CTFReaderECParamsEltD0Ev, ptr @_ZN19OpenColorIO_v2_4dev20CTFReaderECParamsElt5startEPPKc, ptr @_ZN19OpenColorIO_v2_4dev20CTFReaderECParamsElt3endEv, ptr @_ZNK19OpenColorIO_v2_4dev17XmlReaderPlainElt11isContainerEv, ptr @_ZNK19OpenColorIO_v2_4dev17XmlReaderPlainElt13getIdentifierB5cxx11Ev, ptr @_ZNK19OpenColorIO_v2_4dev17XmlReaderPlainElt11getTypeNameEv, ptr @_ZNK19OpenColorIO_v2_4dev16XmlReaderElement7isDummyEv, ptr @_ZN19OpenColorIO_v2_4dev20CTFReaderECParamsElt10setRawDataEPKcmj] }, align 8
@_ZN19OpenColorIO_v2_4devL13ATTR_EXPOSUREE = internal constant [9 x i8] c"exposure\00", align 1
@_ZN19OpenColorIO_v2_4devL13ATTR_CONTRASTE = internal constant [9 x i8] c"contrast\00", align 1
@_ZN19OpenColorIO_v2_4devL10ATTR_PIVOTE = internal constant [6 x i8] c"pivot\00", align 1
@_ZN19OpenColorIO_v2_4devL20ATTR_LOGEXPOSURESTEPE = internal constant [16 x i8] c"logExposureStep\00", align 16
@_ZN19OpenColorIO_v2_4devL15ATTR_LOGMIDGRAYE = internal constant [11 x i8] c"logMidGray\00", align 1
@.str.81 = private unnamed_addr constant [44 x i8] c"ExposureContrast element: exposure missing.\00", align 1
@.str.82 = private unnamed_addr constant [44 x i8] c"ExposureContrast element: contrast missing.\00", align 1
@.str.83 = private unnamed_addr constant [41 x i8] c"ExposureContrast element: pivot missing.\00", align 1
@_ZTVN19OpenColorIO_v2_4dev17CTFReaderGammaEltE = hidden unnamed_addr constant { [15 x ptr] } { [15 x ptr] [ptr null, ptr @_ZTIN19OpenColorIO_v2_4dev17CTFReaderGammaEltE, ptr @_ZN19OpenColorIO_v2_4dev17CTFReaderGammaEltD2Ev, ptr @_ZN19OpenColorIO_v2_4dev17CTFReaderGammaEltD0Ev, ptr @_ZN19OpenColorIO_v2_4dev17CTFReaderGammaElt5startEPPKc, ptr @_ZN19OpenColorIO_v2_4dev17CTFReaderGammaElt3endEv, ptr @_ZNK19OpenColorIO_v2_4dev21XmlReaderContainerElt11isContainerEv, ptr @_ZNK19OpenColorIO_v2_4dev14CTFReaderOpElt13getIdentifierB5cxx11Ev, ptr @_ZNK19OpenColorIO_v2_4dev14CTFReaderOpElt11getTypeNameEv, ptr @_ZNK19OpenColorIO_v2_4dev16XmlReaderElement7isDummyEv, ptr @_ZN19OpenColorIO_v2_4dev14CTFReaderOpElt14appendMetadataERKNSt7__cxx1112basic_stringIcSt11char_traitsIcESaIcEEES8_, ptr @_ZNK19OpenColorIO_v2_4dev17CTFReaderGammaElt5getOpEv, ptr @_ZNK19OpenColorIO_v2_4dev17CTFReaderGammaElt18isOpParameterValidEPKc, ptr @_ZNK19OpenColorIO_v2_4dev17CTFReaderGammaElt20createGammaParamsEltERKNSt7__cxx1112basic_stringIcSt11char_traitsIcESaIcEEESt10shared_ptrINS_21XmlReaderContainerEltEEjS8_, ptr @_ZNK19OpenColorIO_v2_4dev17CTFReaderGammaElt7isValidENS_11GammaOpData5StyleE] }, align 8
@.str.84 = private unnamed_addr constant [21 x i8] c"Style not handled: '\00", align 1
@.str.85 = private unnamed_addr constant [7 x i8] c"' for \00", align 1
@.str.86 = private unnamed_addr constant [19 x i8] c"CLF file version '\00", align 1
@.str.87 = private unnamed_addr constant [19 x i8] c"CTF file version '\00", align 1
@.str.88 = private unnamed_addr constant [27 x i8] c"Missing parameter 'style'.\00", align 1
@.str.89 = private unnamed_addr constant [21 x i8] c"Invalid parameters: \00", align 1
@_ZTVN19OpenColorIO_v2_4dev23CTFReaderGammaParamsEltE = hidden unnamed_addr constant { [12 x ptr] } { [12 x ptr] [ptr null, ptr @_ZTIN19OpenColorIO_v2_4dev23CTFReaderGammaParamsEltE, ptr @_ZN19OpenColorIO_v2_4dev23CTFReaderGammaParamsEltD2Ev, ptr @_ZN19OpenColorIO_v2_4dev23CTFReaderGammaParamsEltD0Ev, ptr @_ZN19OpenColorIO_v2_4dev23CTFReaderGammaParamsElt5startEPPKc, ptr @_ZN19OpenColorIO_v2_4dev23CTFReaderGammaParamsElt3endEv, ptr @_ZNK19OpenColorIO_v2_4dev17XmlReaderPlainElt11isContainerEv, ptr @_ZNK19OpenColorIO_v2_4dev17XmlReaderPlainElt13getIdentifierB5cxx11Ev, ptr @_ZNK19OpenColorIO_v2_4dev17XmlReaderPlainElt11getTypeNameEv, ptr @_ZNK19OpenColorIO_v2_4dev16XmlReaderElement7isDummyEv, ptr @_ZN19OpenColorIO_v2_4dev23CTFReaderGammaParamsElt10setRawDataEPKcmj, ptr @_ZNK19OpenColorIO_v2_4dev23CTFReaderGammaParamsElt16getChannelNumberEPKc] }, align 8
@_ZN19OpenColorIO_v2_4devL9ATTR_CHANE = internal constant [8 x i8] c"channel\00", align 1
@.str.90 = private unnamed_addr constant [18 x i8] c"Invalid channel: \00", align 1
@_ZN19OpenColorIO_v2_4devL13ATTR_EXPONENTE = internal constant [9 x i8] c"exponent\00", align 1
@_ZN19OpenColorIO_v2_4devL11ATTR_OFFSETE = internal constant [7 x i8] c"offset\00", align 1
@_ZTSN19OpenColorIO_v2_4dev17CTFReaderGammaEltE = hidden constant [43 x i8] c"N19OpenColorIO_v2_4dev17CTFReaderGammaEltE\00", align 1
@_ZTIN19OpenColorIO_v2_4dev17CTFReaderGammaEltE = hidden constant { ptr, ptr, ptr } { ptr getelementptr inbounds (ptr, ptr @_ZTVN10__cxxabiv120__si_class_type_infoE, i64 2), ptr @_ZTSN19OpenColorIO_v2_4dev17CTFReaderGammaEltE, ptr @_ZTIN19OpenColorIO_v2_4dev14CTFReaderOpEltE }, align 8
@.str.91 = private unnamed_addr constant [45 x i8] c"Missing required gamma parameter for style: \00", align 1
@.str.92 = private unnamed_addr constant [37 x i8] c"Illegal offset parameter for style: \00", align 1
@.str.93 = private unnamed_addr constant [46 x i8] c"Missing required offset parameter for style: \00", align 1
@.str.94 = private unnamed_addr constant [2 x i8] c"R\00", align 1
@.str.95 = private unnamed_addr constant [2 x i8] c"G\00", align 1
@.str.96 = private unnamed_addr constant [2 x i8] c"B\00", align 1
@_ZTVN19OpenColorIO_v2_4dev27CTFReaderGammaParamsElt_1_5E = hidden unnamed_addr constant { [12 x ptr] } { [12 x ptr] [ptr null, ptr @_ZTIN19OpenColorIO_v2_4dev27CTFReaderGammaParamsElt_1_5E, ptr @_ZN19OpenColorIO_v2_4dev27CTFReaderGammaParamsElt_1_5D2Ev, ptr @_ZN19OpenColorIO_v2_4dev27CTFReaderGammaParamsElt_1_5D0Ev, ptr @_ZN19OpenColorIO_v2_4dev23CTFReaderGammaParamsElt5startEPPKc, ptr @_ZN19OpenColorIO_v2_4dev23CTFReaderGammaParamsElt3endEv, ptr @_ZNK19OpenColorIO_v2_4dev17XmlReaderPlainElt11isContainerEv, ptr @_ZNK19OpenColorIO_v2_4dev17XmlReaderPlainElt13getIdentifierB5cxx11Ev, ptr @_ZNK19OpenColorIO_v2_4dev17XmlReaderPlainElt11getTypeNameEv, ptr @_ZNK19OpenColorIO_v2_4dev16XmlReaderElement7isDummyEv, ptr @_ZN19OpenColorIO_v2_4dev23CTFReaderGammaParamsElt10setRawDataEPKcmj, ptr @_ZNK19OpenColorIO_v2_4dev27CTFReaderGammaParamsElt_1_516getChannelNumberEPKc] }, align 8
@.str.97 = private unnamed_addr constant [2 x i8] c"A\00", align 1
@_ZTVN19OpenColorIO_v2_4dev26CTFReaderGradingPrimaryEltE = hidden unnamed_addr constant { [13 x ptr] } { [13 x ptr] [ptr null, ptr @_ZTIN19OpenColorIO_v2_4dev26CTFReaderGradingPrimaryEltE, ptr @_ZN19OpenColorIO_v2_4dev26CTFReaderGradingPrimaryEltD2Ev, ptr @_ZN19OpenColorIO_v2_4dev26CTFReaderGradingPrimaryEltD0Ev, ptr @_ZN19OpenColorIO_v2_4dev26CTFReaderGradingPrimaryElt5startEPPKc, ptr @_ZN19OpenColorIO_v2_4dev26CTFReaderGradingPrimaryElt3endEv, ptr @_ZNK19OpenColorIO_v2_4dev21XmlReaderContainerElt11isContainerEv, ptr @_ZNK19OpenColorIO_v2_4dev14CTFReaderOpElt13getIdentifierB5cxx11Ev, ptr @_ZNK19OpenColorIO_v2_4dev14CTFReaderOpElt11getTypeNameEv, ptr @_ZNK19OpenColorIO_v2_4dev16XmlReaderElement7isDummyEv, ptr @_ZN19OpenColorIO_v2_4dev14CTFReaderOpElt14appendMetadataERKNSt7__cxx1112basic_stringIcSt11char_traitsIcESaIcEEES8_, ptr @_ZNK19OpenColorIO_v2_4dev26CTFReaderGradingPrimaryElt5getOpEv, ptr @_ZNK19OpenColorIO_v2_4dev26CTFReaderGradingPrimaryElt18isOpParameterValidEPKc] }, align 8
@.str.98 = private unnamed_addr constant [29 x i8] c"Required attribute 'style' '\00", align 1
@.str.99 = private unnamed_addr constant [14 x i8] c"' is invalid.\00", align 1
@.str.100 = private unnamed_addr constant [39 x i8] c"Required attribute 'style' is missing.\00", align 1
@_ZTVN19OpenColorIO_v2_4dev31CTFReaderGradingPrimaryParamEltE = hidden unnamed_addr constant { [11 x ptr] } { [11 x ptr] [ptr null, ptr @_ZTIN19OpenColorIO_v2_4dev31CTFReaderGradingPrimaryParamEltE, ptr @_ZN19OpenColorIO_v2_4dev31CTFReaderGradingPrimaryParamEltD2Ev, ptr @_ZN19OpenColorIO_v2_4dev31CTFReaderGradingPrimaryParamEltD0Ev, ptr @_ZN19OpenColorIO_v2_4dev31CTFReaderGradingPrimaryParamElt5startEPPKc, ptr @_ZN19OpenColorIO_v2_4dev31CTFReaderGradingPrimaryParamElt3endEv, ptr @_ZNK19OpenColorIO_v2_4dev17XmlReaderPlainElt11isContainerEv, ptr @_ZNK19OpenColorIO_v2_4dev17XmlReaderPlainElt13getIdentifierB5cxx11Ev, ptr @_ZNK19OpenColorIO_v2_4dev17XmlReaderPlainElt11getTypeNameEv, ptr @_ZNK19OpenColorIO_v2_4dev16XmlReaderElement7isDummyEv, ptr @_ZN19OpenColorIO_v2_4dev31CTFReaderGradingPrimaryParamElt10setRawDataEPKcmj] }, align 8
@.str.101 = private unnamed_addr constant [10 x i8] c"' values \00", align 1
@.str.102 = private unnamed_addr constant [3 x i8] c" [\00", align 1
@.str.103 = private unnamed_addr constant [3 x i8] c"].\00", align 1
@_ZN19OpenColorIO_v2_4devL8ATTR_RGBE = internal constant [4 x i8] c"rgb\00", align 1
@.str.104 = private unnamed_addr constant [37 x i8] c"Illegal number of 'rgb' values for '\00", align 1
@.str.105 = private unnamed_addr constant [5 x i8] c"': '\00", align 1
@_ZN19OpenColorIO_v2_4devL11ATTR_MASTERE = internal constant [7 x i8] c"master\00", align 1
@.str.106 = private unnamed_addr constant [15 x i8] c"'Master' for '\00", align 1
@.str.107 = private unnamed_addr constant [28 x i8] c"' must be a single value: '\00", align 1
@.str.108 = private unnamed_addr constant [24 x i8] c"Illegal attribute for '\00", align 1
@.str.109 = private unnamed_addr constant [30 x i8] c"Missing 'rgb' attribute for '\00", align 1
@.str.110 = private unnamed_addr constant [33 x i8] c"Missing 'master' attribute for '\00", align 1
@_ZN19OpenColorIO_v2_4devL18ATTR_PRIMARY_BLACKE = internal constant [6 x i8] c"black\00", align 1
@.str.111 = private unnamed_addr constant [14 x i8] c"'Black' for '\00", align 1
@_ZN19OpenColorIO_v2_4devL18ATTR_PRIMARY_WHITEE = internal constant [6 x i8] c"white\00", align 1
@.str.112 = private unnamed_addr constant [14 x i8] c"'White' for '\00", align 1
@.str.113 = private unnamed_addr constant [43 x i8] c"Missing 'black' or 'white' attribute for '\00", align 1
@_ZN19OpenColorIO_v2_4devL21ATTR_PRIMARY_CONTRASTE = internal constant [9 x i8] c"contrast\00", align 1
@.str.114 = private unnamed_addr constant [17 x i8] c"'Contrast' for '\00", align 1
@.str.115 = private unnamed_addr constant [55 x i8] c"Missing 'contrast', 'black' or 'white' attribute for '\00", align 1
@.str.116 = private unnamed_addr constant [8 x i8] c"' for '\00", align 1
@.str.117 = private unnamed_addr constant [24 x i8] c"Missing attribute for '\00", align 1
@_ZN19OpenColorIO_v2_4devL22TAG_PRIMARY_BRIGHTNESSE = internal constant [11 x i8] c"Brightness\00", align 1
@_ZN19OpenColorIO_v2_4devL20TAG_PRIMARY_CONTRASTE = internal constant [9 x i8] c"Contrast\00", align 1
@_ZN19OpenColorIO_v2_4devL17TAG_PRIMARY_GAMMAE = internal constant [6 x i8] c"Gamma\00", align 1
@_ZN19OpenColorIO_v2_4devL17TAG_PRIMARY_PIVOTE = internal constant [6 x i8] c"Pivot\00", align 1
@_ZN19OpenColorIO_v2_4devL22TAG_PRIMARY_SATURATIONE = internal constant [11 x i8] c"Saturation\00", align 1
@_ZN19OpenColorIO_v2_4devL18TAG_PRIMARY_OFFSETE = internal constant [7 x i8] c"Offset\00", align 1
@_ZN19OpenColorIO_v2_4devL20TAG_PRIMARY_EXPOSUREE = internal constant [9 x i8] c"Exposure\00", align 1
@_ZN19OpenColorIO_v2_4devL16TAG_PRIMARY_LIFTE = internal constant [5 x i8] c"Lift\00", align 1
@_ZN19OpenColorIO_v2_4devL16TAG_PRIMARY_GAINE = internal constant [5 x i8] c"Gain\00", align 1
@_ZN19OpenColorIO_v2_4devL17TAG_PRIMARY_CLAMPE = internal constant [6 x i8] c"Clamp\00", align 1
@_ZTVN19OpenColorIO_v2_4dev27CTFReaderGradingRGBCurveEltE = hidden unnamed_addr constant { [13 x ptr] } { [13 x ptr] [ptr null, ptr @_ZTIN19OpenColorIO_v2_4dev27CTFReaderGradingRGBCurveEltE, ptr @_ZN19OpenColorIO_v2_4dev27CTFReaderGradingRGBCurveEltD2Ev, ptr @_ZN19OpenColorIO_v2_4dev27CTFReaderGradingRGBCurveEltD0Ev, ptr @_ZN19OpenColorIO_v2_4dev27CTFReaderGradingRGBCurveElt5startEPPKc, ptr @_ZN19OpenColorIO_v2_4dev27CTFReaderGradingRGBCurveElt3endEv, ptr @_ZNK19OpenColorIO_v2_4dev21XmlReaderContainerElt11isContainerEv, ptr @_ZNK19OpenColorIO_v2_4dev14CTFReaderOpElt13getIdentifierB5cxx11Ev, ptr @_ZNK19OpenColorIO_v2_4dev14CTFReaderOpElt11getTypeNameEv, ptr @_ZNK19OpenColorIO_v2_4dev16XmlReaderElement7isDummyEv, ptr @_ZN19OpenColorIO_v2_4dev14CTFReaderOpElt14appendMetadataERKNSt7__cxx1112basic_stringIcSt11char_traitsIcESaIcEEES8_, ptr @_ZNK19OpenColorIO_v2_4dev27CTFReaderGradingRGBCurveElt5getOpEv, ptr @_ZNK19OpenColorIO_v2_4dev27CTFReaderGradingRGBCurveElt18isOpParameterValidEPKc] }, align 8
@_ZN19OpenColorIO_v2_4devL22ATTR_BYPASS_LIN_TO_LOGE = internal constant [15 x i8] c"bypassLinToLog\00", align 1
@.str.118 = private unnamed_addr constant [5 x i8] c"true\00", align 1
@.str.119 = private unnamed_addr constant [32 x i8] c"Unknown bypassLinToLog value: '\00", align 1
@.str.120 = private unnamed_addr constant [26 x i8] c"' while parsing RGBCurve.\00", align 1
@_ZTVN19OpenColorIO_v2_4dev24CTFReaderGradingCurveEltE = hidden unnamed_addr constant { [11 x ptr] } { [11 x ptr] [ptr null, ptr @_ZTIN19OpenColorIO_v2_4dev24CTFReaderGradingCurveEltE, ptr @_ZN19OpenColorIO_v2_4dev24CTFReaderGradingCurveEltD2Ev, ptr @_ZN19OpenColorIO_v2_4dev24CTFReaderGradingCurveEltD0Ev, ptr @_ZN19OpenColorIO_v2_4dev24CTFReaderGradingCurveElt5startEPPKc, ptr @_ZN19OpenColorIO_v2_4dev24CTFReaderGradingCurveElt3endEv, ptr @_ZNK19OpenColorIO_v2_4dev21XmlReaderContainerElt11isContainerEv, ptr @_ZNK19OpenColorIO_v2_4dev19XmlReaderComplexElt13getIdentifierB5cxx11Ev, ptr @_ZNK19OpenColorIO_v2_4dev19XmlReaderComplexElt11getTypeNameEv, ptr @_ZNK19OpenColorIO_v2_4dev16XmlReaderElement7isDummyEv, ptr @_ZN19OpenColorIO_v2_4dev19XmlReaderComplexElt14appendMetadataERKNSt7__cxx1112basic_stringIcSt11char_traitsIcESaIcEEES8_] }, align 8
@_ZTVN19OpenColorIO_v2_4dev30CTFReaderGradingCurvePointsEltE = hidden unnamed_addr constant { [11 x ptr] } { [11 x ptr] [ptr null, ptr @_ZTIN19OpenColorIO_v2_4dev30CTFReaderGradingCurvePointsEltE, ptr @_ZN19OpenColorIO_v2_4dev30CTFReaderGradingCurvePointsEltD2Ev, ptr @_ZN19OpenColorIO_v2_4dev30CTFReaderGradingCurvePointsEltD0Ev, ptr @_ZN19OpenColorIO_v2_4dev30CTFReaderGradingCurvePointsElt5startEPPKc, ptr @_ZN19OpenColorIO_v2_4dev30CTFReaderGradingCurvePointsElt3endEv, ptr @_ZNK19OpenColorIO_v2_4dev17XmlReaderPlainElt11isContainerEv, ptr @_ZNK19OpenColorIO_v2_4dev17XmlReaderPlainElt13getIdentifierB5cxx11Ev, ptr @_ZNK19OpenColorIO_v2_4dev17XmlReaderPlainElt11getTypeNameEv, ptr @_ZNK19OpenColorIO_v2_4dev16XmlReaderElement7isDummyEv, ptr @_ZN19OpenColorIO_v2_4dev30CTFReaderGradingCurvePointsElt10setRawDataEPKcmj] }, align 8
@.str.121 = private unnamed_addr constant [46 x i8] c"Control points element: odd number of values.\00", align 1
@_ZTSN19OpenColorIO_v2_4dev24CTFReaderGradingCurveEltE = hidden constant [50 x i8] c"N19OpenColorIO_v2_4dev24CTFReaderGradingCurveEltE\00", align 1
@_ZTIN19OpenColorIO_v2_4dev24CTFReaderGradingCurveEltE = hidden constant { ptr, ptr, ptr } { ptr getelementptr inbounds (ptr, ptr @_ZTVN10__cxxabiv120__si_class_type_infoE, i64 2), ptr @_ZTSN19OpenColorIO_v2_4dev24CTFReaderGradingCurveEltE, ptr @_ZTIN19OpenColorIO_v2_4dev19XmlReaderComplexEltE }, align 8
@.str.122 = private unnamed_addr constant [2 x i8] c"]\00", align 1
@_ZTVN19OpenColorIO_v2_4dev30CTFReaderGradingCurveSlopesEltE = hidden unnamed_addr constant { [11 x ptr] } { [11 x ptr] [ptr null, ptr @_ZTIN19OpenColorIO_v2_4dev30CTFReaderGradingCurveSlopesEltE, ptr @_ZN19OpenColorIO_v2_4dev30CTFReaderGradingCurveSlopesEltD2Ev, ptr @_ZN19OpenColorIO_v2_4dev30CTFReaderGradingCurveSlopesEltD0Ev, ptr @_ZN19OpenColorIO_v2_4dev30CTFReaderGradingCurveSlopesElt5startEPPKc, ptr @_ZN19OpenColorIO_v2_4dev30CTFReaderGradingCurveSlopesElt3endEv, ptr @_ZNK19OpenColorIO_v2_4dev17XmlReaderPlainElt11isContainerEv, ptr @_ZNK19OpenColorIO_v2_4dev17XmlReaderPlainElt13getIdentifierB5cxx11Ev, ptr @_ZNK19OpenColorIO_v2_4dev17XmlReaderPlainElt11getTypeNameEv, ptr @_ZNK19OpenColorIO_v2_4dev16XmlReaderElement7isDummyEv, ptr @_ZN19OpenColorIO_v2_4dev30CTFReaderGradingCurveSlopesElt10setRawDataEPKcmj] }, align 8
@.str.123 = private unnamed_addr constant [54 x i8] c"Number of slopes must match number of control points.\00", align 1
@_ZTVN19OpenColorIO_v2_4dev23CTFReaderGradingToneEltE = hidden unnamed_addr constant { [13 x ptr] } { [13 x ptr] [ptr null, ptr @_ZTIN19OpenColorIO_v2_4dev23CTFReaderGradingToneEltE, ptr @_ZN19OpenColorIO_v2_4dev23CTFReaderGradingToneEltD2Ev, ptr @_ZN19OpenColorIO_v2_4dev23CTFReaderGradingToneEltD0Ev, ptr @_ZN19OpenColorIO_v2_4dev23CTFReaderGradingToneElt5startEPPKc, ptr @_ZN19OpenColorIO_v2_4dev23CTFReaderGradingToneElt3endEv, ptr @_ZNK19OpenColorIO_v2_4dev21XmlReaderContainerElt11isContainerEv, ptr @_ZNK19OpenColorIO_v2_4dev14CTFReaderOpElt13getIdentifierB5cxx11Ev, ptr @_ZNK19OpenColorIO_v2_4dev14CTFReaderOpElt11getTypeNameEv, ptr @_ZNK19OpenColorIO_v2_4dev16XmlReaderElement7isDummyEv, ptr @_ZN19OpenColorIO_v2_4dev14CTFReaderOpElt14appendMetadataERKNSt7__cxx1112basic_stringIcSt11char_traitsIcESaIcEEES8_, ptr @_ZNK19OpenColorIO_v2_4dev23CTFReaderGradingToneElt5getOpEv, ptr @_ZNK19OpenColorIO_v2_4dev23CTFReaderGradingToneElt18isOpParameterValidEPKc] }, align 8
@_ZTVN19OpenColorIO_v2_4dev28CTFReaderGradingToneParamEltE = hidden unnamed_addr constant { [11 x ptr] } { [11 x ptr] [ptr null, ptr @_ZTIN19OpenColorIO_v2_4dev28CTFReaderGradingToneParamEltE, ptr @_ZN19OpenColorIO_v2_4dev28CTFReaderGradingToneParamEltD2Ev, ptr @_ZN19OpenColorIO_v2_4dev28CTFReaderGradingToneParamEltD0Ev, ptr @_ZN19OpenColorIO_v2_4dev28CTFReaderGradingToneParamElt5startEPPKc, ptr @_ZN19OpenColorIO_v2_4dev28CTFReaderGradingToneParamElt3endEv, ptr @_ZNK19OpenColorIO_v2_4dev17XmlReaderPlainElt11isContainerEv, ptr @_ZNK19OpenColorIO_v2_4dev17XmlReaderPlainElt13getIdentifierB5cxx11Ev, ptr @_ZNK19OpenColorIO_v2_4dev17XmlReaderPlainElt11getTypeNameEv, ptr @_ZNK19OpenColorIO_v2_4dev16XmlReaderElement7isDummyEv, ptr @_ZN19OpenColorIO_v2_4dev28CTFReaderGradingToneParamElt10setRawDataEPKcmj] }, align 8
@_ZN19OpenColorIO_v2_4devL11ATTR_CENTERE = internal constant [7 x i8] c"center\00", align 1
@_ZN19OpenColorIO_v2_4devL10ATTR_STARTE = internal constant [6 x i8] c"start\00", align 1
@_ZN19OpenColorIO_v2_4devL10ATTR_WIDTHE = internal constant [6 x i8] c"width\00", align 1
@.str.124 = private unnamed_addr constant [10 x i8] c"Missing '\00", align 1
@.str.125 = private unnamed_addr constant [18 x i8] c"' attribute for '\00", align 1
@_ZN19OpenColorIO_v2_4devL15TAG_TONE_BLACKSE = internal constant [7 x i8] c"Blacks\00", align 1
@_ZN19OpenColorIO_v2_4devL16TAG_TONE_SHADOWSE = internal constant [8 x i8] c"Shadows\00", align 1
@_ZN19OpenColorIO_v2_4devL17TAG_TONE_MIDTONESE = internal constant [9 x i8] c"Midtones\00", align 1
@_ZN19OpenColorIO_v2_4devL19TAG_TONE_HIGHLIGHTSE = internal constant [11 x i8] c"Highlights\00", align 1
@_ZN19OpenColorIO_v2_4devL15TAG_TONE_WHITESE = internal constant [7 x i8] c"Whites\00", align 1
@_ZN19OpenColorIO_v2_4devL18TAG_TONE_SCONTRASTE = internal constant [10 x i8] c"SContrast\00", align 1
@.str.126 = private unnamed_addr constant [18 x i8] c"Invalid element '\00", align 1
@_ZTVN19OpenColorIO_v2_4dev20CTFReaderInvLut1DEltE = hidden unnamed_addr constant { [15 x ptr], [7 x ptr] } { [15 x ptr] [ptr null, ptr @_ZTIN19OpenColorIO_v2_4dev20CTFReaderInvLut1DEltE, ptr @_ZN19OpenColorIO_v2_4dev20CTFReaderInvLut1DEltD2Ev, ptr @_ZN19OpenColorIO_v2_4dev20CTFReaderInvLut1DEltD0Ev, ptr @_ZN19OpenColorIO_v2_4dev20CTFReaderInvLut1DElt5startEPPKc, ptr @_ZN19OpenColorIO_v2_4dev20CTFReaderInvLut1DElt3endEv, ptr @_ZNK19OpenColorIO_v2_4dev21XmlReaderContainerElt11isContainerEv, ptr @_ZNK19OpenColorIO_v2_4dev14CTFReaderOpElt13getIdentifierB5cxx11Ev, ptr @_ZNK19OpenColorIO_v2_4dev14CTFReaderOpElt11getTypeNameEv, ptr @_ZNK19OpenColorIO_v2_4dev16XmlReaderElement7isDummyEv, ptr @_ZN19OpenColorIO_v2_4dev14CTFReaderOpElt14appendMetadataERKNSt7__cxx1112basic_stringIcSt11char_traitsIcESaIcEEES8_, ptr @_ZNK19OpenColorIO_v2_4dev20CTFReaderInvLut1DElt5getOpEv, ptr @_ZNK19OpenColorIO_v2_4dev20CTFReaderInvLut1DElt18isOpParameterValidEPKc, ptr @_ZN19OpenColorIO_v2_4dev20CTFReaderInvLut1DElt15updateDimensionERKSt6vectorIjSaIjEE, ptr @_ZN19OpenColorIO_v2_4dev20CTFReaderInvLut1DElt8endArrayEj], [7 x ptr] [ptr inttoptr (i64 -104 to ptr), ptr @_ZTIN19OpenColorIO_v2_4dev20CTFReaderInvLut1DEltE, ptr @_ZThn104_N19OpenColorIO_v2_4dev20CTFReaderInvLut1DEltD1Ev, ptr @_ZThn104_N19OpenColorIO_v2_4dev20CTFReaderInvLut1DEltD0Ev, ptr @_ZN19OpenColorIO_v2_4dev11CTFArrayMgt12setCompletedEb, ptr @_ZThn104_N19OpenColorIO_v2_4dev20CTFReaderInvLut1DElt15updateDimensionERKSt6vectorIjSaIjEE, ptr @_ZThn104_N19OpenColorIO_v2_4dev20CTFReaderInvLut1DElt8endArrayEj] }, align 8
@_ZN19OpenColorIO_v2_4devL18ATTR_INTERPOLATIONE = internal constant [14 x i8] c"interpolation\00", align 1
@_ZTISt9exception = external constant ptr
@_ZN19OpenColorIO_v2_4devL16ATTR_HALF_DOMAINE = internal constant [11 x i8] c"halfDomain\00", align 1
@.str.127 = private unnamed_addr constant [28 x i8] c"Unknown halfDomain value: '\00", align 1
@.str.128 = private unnamed_addr constant [26 x i8] c"' while parsing InvLut1D.\00", align 1
@_ZN19OpenColorIO_v2_4devL14ATTR_RAW_HALFSE = internal constant [9 x i8] c"rawHalfs\00", align 1
@.str.129 = private unnamed_addr constant [26 x i8] c"Unknown rawHalfs value: '\00", align 1
@_ZN19OpenColorIO_v2_4devL15ATTR_HUE_ADJUSTE = internal constant [10 x i8] c"hueAdjust\00", align 1
@.str.130 = private unnamed_addr constant [4 x i8] c"dw3\00", align 1
@.str.131 = private unnamed_addr constant [27 x i8] c"Unknown hueAdjust value: '\00", align 1
@.str.132 = private unnamed_addr constant [22 x i8] c" Array values, found \00", align 1
@_ZTVN19OpenColorIO_v2_4dev20CTFReaderInvLut3DEltE = hidden unnamed_addr constant { [15 x ptr], [7 x ptr] } { [15 x ptr] [ptr null, ptr @_ZTIN19OpenColorIO_v2_4dev20CTFReaderInvLut3DEltE, ptr @_ZN19OpenColorIO_v2_4dev20CTFReaderInvLut3DEltD2Ev, ptr @_ZN19OpenColorIO_v2_4dev20CTFReaderInvLut3DEltD0Ev, ptr @_ZN19OpenColorIO_v2_4dev20CTFReaderInvLut3DElt5startEPPKc, ptr @_ZN19OpenColorIO_v2_4dev20CTFReaderInvLut3DElt3endEv, ptr @_ZNK19OpenColorIO_v2_4dev21XmlReaderContainerElt11isContainerEv, ptr @_ZNK19OpenColorIO_v2_4dev14CTFReaderOpElt13getIdentifierB5cxx11Ev, ptr @_ZNK19OpenColorIO_v2_4dev14CTFReaderOpElt11getTypeNameEv, ptr @_ZNK19OpenColorIO_v2_4dev16XmlReaderElement7isDummyEv, ptr @_ZN19OpenColorIO_v2_4dev14CTFReaderOpElt14appendMetadataERKNSt7__cxx1112basic_stringIcSt11char_traitsIcESaIcEEES8_, ptr @_ZNK19OpenColorIO_v2_4dev20CTFReaderInvLut3DElt5getOpEv, ptr @_ZNK19OpenColorIO_v2_4dev20CTFReaderInvLut3DElt18isOpParameterValidEPKc, ptr @_ZN19OpenColorIO_v2_4dev20CTFReaderInvLut3DElt15updateDimensionERKSt6vectorIjSaIjEE, ptr @_ZN19OpenColorIO_v2_4dev20CTFReaderInvLut3DElt8endArrayEj], [7 x ptr] [ptr inttoptr (i64 -104 to ptr), ptr @_ZTIN19OpenColorIO_v2_4dev20CTFReaderInvLut3DEltE, ptr @_ZThn104_N19OpenColorIO_v2_4dev20CTFReaderInvLut3DEltD1Ev, ptr @_ZThn104_N19OpenColorIO_v2_4dev20CTFReaderInvLut3DEltD0Ev, ptr @_ZN19OpenColorIO_v2_4dev11CTFArrayMgt12setCompletedEb, ptr @_ZThn104_N19OpenColorIO_v2_4dev20CTFReaderInvLut3DElt15updateDimensionERKSt6vectorIjSaIjEE, ptr @_ZThn104_N19OpenColorIO_v2_4dev20CTFReaderInvLut3DElt8endArrayEj] }, align 8
@_ZTVN19OpenColorIO_v2_4dev15CTFReaderLogEltE = hidden unnamed_addr constant { [14 x ptr] } { [14 x ptr] [ptr null, ptr @_ZTIN19OpenColorIO_v2_4dev15CTFReaderLogEltE, ptr @_ZN19OpenColorIO_v2_4dev15CTFReaderLogEltD2Ev, ptr @_ZN19OpenColorIO_v2_4dev15CTFReaderLogEltD0Ev, ptr @_ZN19OpenColorIO_v2_4dev15CTFReaderLogElt5startEPPKc, ptr @_ZN19OpenColorIO_v2_4dev15CTFReaderLogElt3endEv, ptr @_ZNK19OpenColorIO_v2_4dev21XmlReaderContainerElt11isContainerEv, ptr @_ZNK19OpenColorIO_v2_4dev14CTFReaderOpElt13getIdentifierB5cxx11Ev, ptr @_ZNK19OpenColorIO_v2_4dev14CTFReaderOpElt11getTypeNameEv, ptr @_ZNK19OpenColorIO_v2_4dev16XmlReaderElement7isDummyEv, ptr @_ZN19OpenColorIO_v2_4dev14CTFReaderOpElt14appendMetadataERKNSt7__cxx1112basic_stringIcSt11char_traitsIcESaIcEEES8_, ptr @_ZNK19OpenColorIO_v2_4dev15CTFReaderLogElt5getOpEv, ptr @_ZNK19OpenColorIO_v2_4dev15CTFReaderLogElt18isOpParameterValidEPKc, ptr @_ZNK19OpenColorIO_v2_4dev15CTFReaderLogElt18createLogParamsEltERKNSt7__cxx1112basic_stringIcSt11char_traitsIcESaIcEEESt10shared_ptrINS_21XmlReaderContainerEltEEjS8_] }, align 8
@.str.133 = private unnamed_addr constant [60 x i8] c"CTF/CLF Log parsing. Required attribute 'style' is missing.\00", align 1
@.str.134 = private unnamed_addr constant [28 x i8] c"Parameters are not valid: '\00", align 1
@.str.135 = private unnamed_addr constant [20 x i8] c"Log is not valid: '\00", align 1
@.str.136 = private unnamed_addr constant [48 x i8] c"Log base has to be the same on all components: \00", align 1
@.str.137 = private unnamed_addr constant [15 x i8] c"Current base: \00", align 1
@.str.138 = private unnamed_addr constant [13 x i8] c", new base: \00", align 1
@_ZTVN19OpenColorIO_v2_4dev21CTFReaderLogParamsEltE = hidden unnamed_addr constant { [11 x ptr] } { [11 x ptr] [ptr null, ptr @_ZTIN19OpenColorIO_v2_4dev21CTFReaderLogParamsEltE, ptr @_ZN19OpenColorIO_v2_4dev21CTFReaderLogParamsEltD2Ev, ptr @_ZN19OpenColorIO_v2_4dev21CTFReaderLogParamsEltD0Ev, ptr @_ZN19OpenColorIO_v2_4dev21CTFReaderLogParamsElt5startEPPKc, ptr @_ZN19OpenColorIO_v2_4dev21CTFReaderLogParamsElt3endEv, ptr @_ZNK19OpenColorIO_v2_4dev17XmlReaderPlainElt11isContainerEv, ptr @_ZNK19OpenColorIO_v2_4dev17XmlReaderPlainElt13getIdentifierB5cxx11Ev, ptr @_ZNK19OpenColorIO_v2_4dev17XmlReaderPlainElt11getTypeNameEv, ptr @_ZNK19OpenColorIO_v2_4dev16XmlReaderElement7isDummyEv, ptr @_ZN19OpenColorIO_v2_4dev21CTFReaderLogParamsElt10setRawDataEPKcmj] }, align 8
@_ZN19OpenColorIO_v2_4devL13ATTR_REFWHITEE = internal constant [9 x i8] c"refWhite\00", align 1
@_ZN19OpenColorIO_v2_4devL13ATTR_REFBLACKE = internal constant [9 x i8] c"refBlack\00", align 1
@_ZN19OpenColorIO_v2_4devL14ATTR_HIGHLIGHTE = internal constant [10 x i8] c"highlight\00", align 1
@_ZN19OpenColorIO_v2_4devL11ATTR_SHADOWE = internal constant [7 x i8] c"shadow\00", align 1
@.str.139 = private unnamed_addr constant [21 x i8] c"Required attribute '\00", align 1
@.str.140 = private unnamed_addr constant [14 x i8] c"' is missing.\00", align 1
@_ZTSN19OpenColorIO_v2_4dev15CTFReaderLogEltE = hidden constant [41 x i8] c"N19OpenColorIO_v2_4dev15CTFReaderLogEltE\00", align 1
@_ZTIN19OpenColorIO_v2_4dev15CTFReaderLogEltE = hidden constant { ptr, ptr, ptr } { ptr getelementptr inbounds (ptr, ptr @_ZTVN10__cxxabiv120__si_class_type_infoE, i64 2), ptr @_ZTSN19OpenColorIO_v2_4dev15CTFReaderLogEltE, ptr @_ZTIN19OpenColorIO_v2_4dev14CTFReaderOpEltE }, align 8
@.str.141 = private unnamed_addr constant [34 x i8] c"Illegal channel attribute value '\00", align 1
@_ZN19OpenColorIO_v2_4devL17ATTR_LINSIDESLOPEE = internal constant [13 x i8] c"linSideSlope\00", align 1
@_ZN19OpenColorIO_v2_4devL18ATTR_LINSIDEOFFSETE = internal constant [14 x i8] c"linSideOffset\00", align 1
@_ZN19OpenColorIO_v2_4devL17ATTR_LOGSIDESLOPEE = internal constant [13 x i8] c"logSideSlope\00", align 1
@_ZN19OpenColorIO_v2_4devL18ATTR_LOGSIDEOFFSETE = internal constant [14 x i8] c"logSideOffset\00", align 1
@_ZN19OpenColorIO_v2_4devL9ATTR_BASEE = internal constant [5 x i8] c"base\00", align 1
@_ZN19OpenColorIO_v2_4devL16ATTR_LINEARSLOPEE = internal constant [12 x i8] c"linearSlope\00", align 1
@_ZN19OpenColorIO_v2_4devL17ATTR_LINSIDEBREAKE = internal constant [13 x i8] c"linSideBreak\00", align 1
@.str.142 = private unnamed_addr constant [55 x i8] c"CLF type and Cineon types parameters can not be mixed.\00", align 1
@.str.143 = private unnamed_addr constant [12 x i8] c"Parameter '\00", align 1
@.str.144 = private unnamed_addr constant [30 x i8] c"' is only allowed for style '\00", align 1
@.str.145 = private unnamed_addr constant [7 x i8] c"' or '\00", align 1
@.str.146 = private unnamed_addr constant [32 x i8] c"' should be defined for style '\00", align 1
@_ZTVN19OpenColorIO_v2_4dev17CTFReaderLut1DEltE = hidden unnamed_addr constant { [17 x ptr], [7 x ptr], [6 x ptr] } { [17 x ptr] [ptr null, ptr @_ZTIN19OpenColorIO_v2_4dev17CTFReaderLut1DEltE, ptr @_ZN19OpenColorIO_v2_4dev17CTFReaderLut1DEltD2Ev, ptr @_ZN19OpenColorIO_v2_4dev17CTFReaderLut1DEltD0Ev, ptr @_ZN19OpenColorIO_v2_4dev17CTFReaderLut1DElt5startEPPKc, ptr @_ZN19OpenColorIO_v2_4dev17CTFReaderLut1DElt3endEv, ptr @_ZNK19OpenColorIO_v2_4dev21XmlReaderContainerElt11isContainerEv, ptr @_ZNK19OpenColorIO_v2_4dev14CTFReaderOpElt13getIdentifierB5cxx11Ev, ptr @_ZNK19OpenColorIO_v2_4dev14CTFReaderOpElt11getTypeNameEv, ptr @_ZNK19OpenColorIO_v2_4dev16XmlReaderElement7isDummyEv, ptr @_ZN19OpenColorIO_v2_4dev14CTFReaderOpElt14appendMetadataERKNSt7__cxx1112basic_stringIcSt11char_traitsIcESaIcEEES8_, ptr @_ZNK19OpenColorIO_v2_4dev17CTFReaderLut1DElt5getOpEv, ptr @_ZNK19OpenColorIO_v2_4dev17CTFReaderLut1DElt18isOpParameterValidEPKc, ptr @_ZN19OpenColorIO_v2_4dev17CTFReaderLut1DElt15updateDimensionERKSt6vectorIjSaIjEE, ptr @_ZN19OpenColorIO_v2_4dev17CTFReaderLut1DElt8endArrayEj, ptr @_ZN19OpenColorIO_v2_4dev17CTFReaderLut1DElt17updateDimensionIMERKSt6vectorIjSaIjEE, ptr @_ZN19OpenColorIO_v2_4dev17CTFReaderLut1DElt11endIndexMapEj], [7 x ptr] [ptr inttoptr (i64 -104 to ptr), ptr @_ZTIN19OpenColorIO_v2_4dev17CTFReaderLut1DEltE, ptr @_ZThn104_N19OpenColorIO_v2_4dev17CTFReaderLut1DEltD1Ev, ptr @_ZThn104_N19OpenColorIO_v2_4dev17CTFReaderLut1DEltD0Ev, ptr @_ZN19OpenColorIO_v2_4dev11CTFArrayMgt12setCompletedEb, ptr @_ZThn104_N19OpenColorIO_v2_4dev17CTFReaderLut1DElt15updateDimensionERKSt6vectorIjSaIjEE, ptr @_ZThn104_N19OpenColorIO_v2_4dev17CTFReaderLut1DElt8endArrayEj], [6 x ptr] [ptr inttoptr (i64 -120 to ptr), ptr @_ZTIN19OpenColorIO_v2_4dev17CTFReaderLut1DEltE, ptr @_ZThn120_N19OpenColorIO_v2_4dev17CTFReaderLut1DEltD1Ev, ptr @_ZThn120_N19OpenColorIO_v2_4dev17CTFReaderLut1DEltD0Ev, ptr @_ZThn120_N19OpenColorIO_v2_4dev17CTFReaderLut1DElt17updateDimensionIMERKSt6vectorIjSaIjEE, ptr @_ZThn120_N19OpenColorIO_v2_4dev17CTFReaderLut1DElt11endIndexMapEj] }, align 8
@.str.147 = private unnamed_addr constant [33 x i8] c"Illegal 'halfDomain' attribute '\00", align 1
@.str.148 = private unnamed_addr constant [23 x i8] c"' while parsing Lut1D.\00", align 1
@.str.149 = private unnamed_addr constant [31 x i8] c"Illegal 'rawHalfs' attribute '\00", align 1
@.str.150 = private unnamed_addr constant [25 x i8] c" IndexMap values, found \00", align 1
@.str.151 = private unnamed_addr constant [32 x i8] c"Illegal 'hueAdjust' attribute '\00", align 1
@_ZTVN19OpenColorIO_v2_4dev17CTFReaderLut3DEltE = hidden unnamed_addr constant { [17 x ptr], [7 x ptr], [6 x ptr] } { [17 x ptr] [ptr null, ptr @_ZTIN19OpenColorIO_v2_4dev17CTFReaderLut3DEltE, ptr @_ZN19OpenColorIO_v2_4dev17CTFReaderLut3DEltD2Ev, ptr @_ZN19OpenColorIO_v2_4dev17CTFReaderLut3DEltD0Ev, ptr @_ZN19OpenColorIO_v2_4dev17CTFReaderLut3DElt5startEPPKc, ptr @_ZN19OpenColorIO_v2_4dev17CTFReaderLut3DElt3endEv, ptr @_ZNK19OpenColorIO_v2_4dev21XmlReaderContainerElt11isContainerEv, ptr @_ZNK19OpenColorIO_v2_4dev14CTFReaderOpElt13getIdentifierB5cxx11Ev, ptr @_ZNK19OpenColorIO_v2_4dev14CTFReaderOpElt11getTypeNameEv, ptr @_ZNK19OpenColorIO_v2_4dev16XmlReaderElement7isDummyEv, ptr @_ZN19OpenColorIO_v2_4dev14CTFReaderOpElt14appendMetadataERKNSt7__cxx1112basic_stringIcSt11char_traitsIcESaIcEEES8_, ptr @_ZNK19OpenColorIO_v2_4dev17CTFReaderLut3DElt5getOpEv, ptr @_ZNK19OpenColorIO_v2_4dev17CTFReaderLut3DElt18isOpParameterValidEPKc, ptr @_ZN19OpenColorIO_v2_4dev17CTFReaderLut3DElt15updateDimensionERKSt6vectorIjSaIjEE, ptr @_ZN19OpenColorIO_v2_4dev17CTFReaderLut3DElt8endArrayEj, ptr @_ZN19OpenColorIO_v2_4dev17CTFReaderLut3DElt17updateDimensionIMERKSt6vectorIjSaIjEE, ptr @_ZN19OpenColorIO_v2_4dev17CTFReaderLut3DElt11endIndexMapEj], [7 x ptr] [ptr inttoptr (i64 -104 to ptr), ptr @_ZTIN19OpenColorIO_v2_4dev17CTFReaderLut3DEltE, ptr @_ZThn104_N19OpenColorIO_v2_4dev17CTFReaderLut3DEltD1Ev, ptr @_ZThn104_N19OpenColorIO_v2_4dev17CTFReaderLut3DEltD0Ev, ptr @_ZN19OpenColorIO_v2_4dev11CTFArrayMgt12setCompletedEb, ptr @_ZThn104_N19OpenColorIO_v2_4dev17CTFReaderLut3DElt15updateDimensionERKSt6vectorIjSaIjEE, ptr @_ZThn104_N19OpenColorIO_v2_4dev17CTFReaderLut3DElt8endArrayEj], [6 x ptr] [ptr inttoptr (i64 -120 to ptr), ptr @_ZTIN19OpenColorIO_v2_4dev17CTFReaderLut3DEltE, ptr @_ZThn120_N19OpenColorIO_v2_4dev17CTFReaderLut3DEltD1Ev, ptr @_ZThn120_N19OpenColorIO_v2_4dev17CTFReaderLut3DEltD0Ev, ptr @_ZThn120_N19OpenColorIO_v2_4dev17CTFReaderLut3DElt17updateDimensionIMERKSt6vectorIjSaIjEE, ptr @_ZThn120_N19OpenColorIO_v2_4dev17CTFReaderLut3DElt11endIndexMapEj] }, align 8
@_ZTVN19OpenColorIO_v2_4dev18CTFReaderMatrixEltE = hidden unnamed_addr constant { [15 x ptr], [7 x ptr] } { [15 x ptr] [ptr null, ptr @_ZTIN19OpenColorIO_v2_4dev18CTFReaderMatrixEltE, ptr @_ZN19OpenColorIO_v2_4dev18CTFReaderMatrixEltD2Ev, ptr @_ZN19OpenColorIO_v2_4dev18CTFReaderMatrixEltD0Ev, ptr @_ZN19OpenColorIO_v2_4dev14CTFReaderOpElt5startEPPKc, ptr @_ZN19OpenColorIO_v2_4dev18CTFReaderMatrixElt3endEv, ptr @_ZNK19OpenColorIO_v2_4dev21XmlReaderContainerElt11isContainerEv, ptr @_ZNK19OpenColorIO_v2_4dev14CTFReaderOpElt13getIdentifierB5cxx11Ev, ptr @_ZNK19OpenColorIO_v2_4dev14CTFReaderOpElt11getTypeNameEv, ptr @_ZNK19OpenColorIO_v2_4dev16XmlReaderElement7isDummyEv, ptr @_ZN19OpenColorIO_v2_4dev14CTFReaderOpElt14appendMetadataERKNSt7__cxx1112basic_stringIcSt11char_traitsIcESaIcEEES8_, ptr @_ZNK19OpenColorIO_v2_4dev18CTFReaderMatrixElt5getOpEv, ptr @_ZNK19OpenColorIO_v2_4dev14CTFReaderOpElt18isOpParameterValidEPKc, ptr @_ZN19OpenColorIO_v2_4dev18CTFReaderMatrixElt15updateDimensionERKSt6vectorIjSaIjEE, ptr @_ZN19OpenColorIO_v2_4dev18CTFReaderMatrixElt8endArrayEj], [7 x ptr] [ptr inttoptr (i64 -104 to ptr), ptr @_ZTIN19OpenColorIO_v2_4dev18CTFReaderMatrixEltE, ptr @_ZThn104_N19OpenColorIO_v2_4dev18CTFReaderMatrixEltD1Ev, ptr @_ZThn104_N19OpenColorIO_v2_4dev18CTFReaderMatrixEltD0Ev, ptr @_ZN19OpenColorIO_v2_4dev11CTFArrayMgt12setCompletedEb, ptr @_ZThn104_N19OpenColorIO_v2_4dev18CTFReaderMatrixElt15updateDimensionERKSt6vectorIjSaIjEE, ptr @_ZThn104_N19OpenColorIO_v2_4dev18CTFReaderMatrixElt8endArrayEj] }, align 8
@.str.152 = private unnamed_addr constant [57 x i8] c"MatrixElt: Expecting array dimension to be 3 or 4. Got: \00", align 1
@.str.153 = private unnamed_addr constant [71 x i8] c"Matrix array dimension should have 3 numbers for CTF before version 2.\00", align 1
@.str.154 = private unnamed_addr constant [69 x i8] c"Matrix array dimension should have 2 numbers for CTF from version 2.\00", align 1
@.str.155 = private unnamed_addr constant [34 x i8] c"Expected 3x3 Array values, found \00", align 1
@.str.156 = private unnamed_addr constant [34 x i8] c"Expected 3x4 Array values, found \00", align 1
@.str.157 = private unnamed_addr constant [34 x i8] c"Expected 4x4 Array values, found \00", align 1
@.str.158 = private unnamed_addr constant [34 x i8] c"Expected 4x5 Array values, found \00", align 1
@_ZTVN19OpenColorIO_v2_4dev17CTFReaderRangeEltE = hidden unnamed_addr constant { [13 x ptr] } { [13 x ptr] [ptr null, ptr @_ZTIN19OpenColorIO_v2_4dev17CTFReaderRangeEltE, ptr @_ZN19OpenColorIO_v2_4dev17CTFReaderRangeEltD2Ev, ptr @_ZN19OpenColorIO_v2_4dev17CTFReaderRangeEltD0Ev, ptr @_ZN19OpenColorIO_v2_4dev14CTFReaderOpElt5startEPPKc, ptr @_ZN19OpenColorIO_v2_4dev17CTFReaderRangeElt3endEv, ptr @_ZNK19OpenColorIO_v2_4dev21XmlReaderContainerElt11isContainerEv, ptr @_ZNK19OpenColorIO_v2_4dev14CTFReaderOpElt13getIdentifierB5cxx11Ev, ptr @_ZNK19OpenColorIO_v2_4dev14CTFReaderOpElt11getTypeNameEv, ptr @_ZNK19OpenColorIO_v2_4dev16XmlReaderElement7isDummyEv, ptr @_ZN19OpenColorIO_v2_4dev14CTFReaderOpElt14appendMetadataERKNSt7__cxx1112basic_stringIcSt11char_traitsIcESaIcEEES8_, ptr @_ZNK19OpenColorIO_v2_4dev17CTFReaderRangeElt5getOpEv, ptr @_ZNK19OpenColorIO_v2_4dev14CTFReaderOpElt18isOpParameterValidEPKc] }, align 8
@_ZTVN19OpenColorIO_v2_4dev21CTFReaderRangeElt_1_7E = hidden unnamed_addr constant { [13 x ptr] } { [13 x ptr] [ptr null, ptr @_ZTIN19OpenColorIO_v2_4dev21CTFReaderRangeElt_1_7E, ptr @_ZN19OpenColorIO_v2_4dev21CTFReaderRangeElt_1_7D2Ev, ptr @_ZN19OpenColorIO_v2_4dev21CTFReaderRangeElt_1_7D0Ev, ptr @_ZN19OpenColorIO_v2_4dev21CTFReaderRangeElt_1_75startEPPKc, ptr @_ZN19OpenColorIO_v2_4dev21CTFReaderRangeElt_1_73endEv, ptr @_ZNK19OpenColorIO_v2_4dev21XmlReaderContainerElt11isContainerEv, ptr @_ZNK19OpenColorIO_v2_4dev14CTFReaderOpElt13getIdentifierB5cxx11Ev, ptr @_ZNK19OpenColorIO_v2_4dev14CTFReaderOpElt11getTypeNameEv, ptr @_ZNK19OpenColorIO_v2_4dev16XmlReaderElement7isDummyEv, ptr @_ZN19OpenColorIO_v2_4dev14CTFReaderOpElt14appendMetadataERKNSt7__cxx1112basic_stringIcSt11char_traitsIcESaIcEEES8_, ptr @_ZNK19OpenColorIO_v2_4dev17CTFReaderRangeElt5getOpEv, ptr @_ZNK19OpenColorIO_v2_4dev21CTFReaderRangeElt_1_718isOpParameterValidEPKc] }, align 8
@.str.159 = private unnamed_addr constant [8 x i8] c"noClamp\00", align 1
@_ZTVN19OpenColorIO_v2_4dev22CTFReaderRangeValueEltE = hidden unnamed_addr constant { [11 x ptr] } { [11 x ptr] [ptr null, ptr @_ZTIN19OpenColorIO_v2_4dev22CTFReaderRangeValueEltE, ptr @_ZN19OpenColorIO_v2_4dev22CTFReaderRangeValueEltD2Ev, ptr @_ZN19OpenColorIO_v2_4dev22CTFReaderRangeValueEltD0Ev, ptr @_ZN19OpenColorIO_v2_4dev22CTFReaderRangeValueElt5startEPPKc, ptr @_ZN19OpenColorIO_v2_4dev22CTFReaderRangeValueElt3endEv, ptr @_ZNK19OpenColorIO_v2_4dev17XmlReaderPlainElt11isContainerEv, ptr @_ZNK19OpenColorIO_v2_4dev17XmlReaderPlainElt13getIdentifierB5cxx11Ev, ptr @_ZNK19OpenColorIO_v2_4dev17XmlReaderPlainElt11getTypeNameEv, ptr @_ZNK19OpenColorIO_v2_4dev16XmlReaderElement7isDummyEv, ptr @_ZN19OpenColorIO_v2_4dev22CTFReaderRangeValueElt10setRawDataEPKcmj] }, align 8
@_ZTSN19OpenColorIO_v2_4dev17CTFReaderRangeEltE = hidden constant [43 x i8] c"N19OpenColorIO_v2_4dev17CTFReaderRangeEltE\00", align 1
@_ZTIN19OpenColorIO_v2_4dev17CTFReaderRangeEltE = hidden constant { ptr, ptr, ptr } { ptr getelementptr inbounds (ptr, ptr @_ZTVN10__cxxabiv120__si_class_type_infoE, i64 2), ptr @_ZTSN19OpenColorIO_v2_4dev17CTFReaderRangeEltE, ptr @_ZTIN19OpenColorIO_v2_4dev14CTFReaderOpEltE }, align 8
@.str.160 = private unnamed_addr constant [33 x i8] c"Range element: non-single value.\00", align 1
@_ZN19OpenColorIO_v2_4devL16TAG_MIN_IN_VALUEE = internal constant [11 x i8] c"minInValue\00", align 1
@_ZN19OpenColorIO_v2_4devL16TAG_MAX_IN_VALUEE = internal constant [11 x i8] c"maxInValue\00", align 1
@_ZN19OpenColorIO_v2_4devL17TAG_MIN_OUT_VALUEE = internal constant [12 x i8] c"minOutValue\00", align 1
@_ZN19OpenColorIO_v2_4devL17TAG_MAX_OUT_VALUEE = internal constant [12 x i8] c"maxOutValue\00", align 1
@_ZTVN19OpenColorIO_v2_4dev21CTFReaderReferenceEltE = hidden unnamed_addr constant { [13 x ptr] } { [13 x ptr] [ptr null, ptr @_ZTIN19OpenColorIO_v2_4dev21CTFReaderReferenceEltE, ptr @_ZN19OpenColorIO_v2_4dev21CTFReaderReferenceEltD2Ev, ptr @_ZN19OpenColorIO_v2_4dev21CTFReaderReferenceEltD0Ev, ptr @_ZN19OpenColorIO_v2_4dev21CTFReaderReferenceElt5startEPPKc, ptr @_ZN19OpenColorIO_v2_4dev21CTFReaderReferenceElt3endEv, ptr @_ZNK19OpenColorIO_v2_4dev21XmlReaderContainerElt11isContainerEv, ptr @_ZNK19OpenColorIO_v2_4dev14CTFReaderOpElt13getIdentifierB5cxx11Ev, ptr @_ZNK19OpenColorIO_v2_4dev14CTFReaderOpElt11getTypeNameEv, ptr @_ZNK19OpenColorIO_v2_4dev16XmlReaderElement7isDummyEv, ptr @_ZN19OpenColorIO_v2_4dev14CTFReaderOpElt14appendMetadataERKNSt7__cxx1112basic_stringIcSt11char_traitsIcESaIcEEES8_, ptr @_ZNK19OpenColorIO_v2_4dev21CTFReaderReferenceElt5getOpEv, ptr @_ZNK19OpenColorIO_v2_4dev21CTFReaderReferenceElt18isOpParameterValidEPKc] }, align 8
@_ZN19OpenColorIO_v2_4devL9ATTR_PATHE = internal constant [5 x i8] c"path\00", align 1
@_ZN19OpenColorIO_v2_4devL14ATTR_BASE_PATHE = internal constant [9 x i8] c"basePath\00", align 1
@_ZN19OpenColorIO_v2_4devL10ATTR_ALIASE = internal constant [6 x i8] c"alias\00", align 1
@.str.161 = private unnamed_addr constant [15 x i8] c"currentMonitor\00", align 1
@.str.162 = private unnamed_addr constant [45 x i8] c"The 'currentMonitor' alias is not supported.\00", align 1
@_ZN19OpenColorIO_v2_4devL16ATTR_IS_INVERTEDE = internal constant [9 x i8] c"inverted\00", align 1
@.str.163 = private unnamed_addr constant [66 x i8] c"alias & path attributes for Reference should not be both defined.\00", align 1
@.str.164 = private unnamed_addr constant [70 x i8] c"alias & basepath attributes for Reference should not be both defined.\00", align 1
@.str.165 = private unnamed_addr constant [41 x i8] c"path attribute for Reference is missing.\00", align 1
@_ZTVN19OpenColorIO_v2_4dev21CTFReaderGammaElt_1_5E = hidden unnamed_addr constant { [15 x ptr] } { [15 x ptr] [ptr null, ptr @_ZTIN19OpenColorIO_v2_4dev21CTFReaderGammaElt_1_5E, ptr @_ZN19OpenColorIO_v2_4dev21CTFReaderGammaElt_1_5D2Ev, ptr @_ZN19OpenColorIO_v2_4dev21CTFReaderGammaElt_1_5D0Ev, ptr @_ZN19OpenColorIO_v2_4dev17CTFReaderGammaElt5startEPPKc, ptr @_ZN19OpenColorIO_v2_4dev17CTFReaderGammaElt3endEv, ptr @_ZNK19OpenColorIO_v2_4dev21XmlReaderContainerElt11isContainerEv, ptr @_ZNK19OpenColorIO_v2_4dev14CTFReaderOpElt13getIdentifierB5cxx11Ev, ptr @_ZNK19OpenColorIO_v2_4dev14CTFReaderOpElt11getTypeNameEv, ptr @_ZNK19OpenColorIO_v2_4dev16XmlReaderElement7isDummyEv, ptr @_ZN19OpenColorIO_v2_4dev14CTFReaderOpElt14appendMetadataERKNSt7__cxx1112basic_stringIcSt11char_traitsIcESaIcEEES8_, ptr @_ZNK19OpenColorIO_v2_4dev17CTFReaderGammaElt5getOpEv, ptr @_ZNK19OpenColorIO_v2_4dev17CTFReaderGammaElt18isOpParameterValidEPKc, ptr @_ZNK19OpenColorIO_v2_4dev21CTFReaderGammaElt_1_520createGammaParamsEltERKNSt7__cxx1112basic_stringIcSt11char_traitsIcESaIcEEESt10shared_ptrINS_21XmlReaderContainerEltEEjS8_, ptr @_ZNK19OpenColorIO_v2_4dev17CTFReaderGammaElt7isValidENS_11GammaOpData5StyleE] }, align 8
@_ZTSN19OpenColorIO_v2_4dev21CTFReaderGammaElt_1_5E = hidden constant [47 x i8] c"N19OpenColorIO_v2_4dev21CTFReaderGammaElt_1_5E\00", align 1
@_ZTIN19OpenColorIO_v2_4dev21CTFReaderGammaElt_1_5E = hidden constant { ptr, ptr, ptr } { ptr getelementptr inbounds (ptr, ptr @_ZTVN10__cxxabiv120__si_class_type_infoE, i64 2), ptr @_ZTSN19OpenColorIO_v2_4dev21CTFReaderGammaElt_1_5E, ptr @_ZTIN19OpenColorIO_v2_4dev17CTFReaderGammaEltE }, align 8
@_ZTVN19OpenColorIO_v2_4dev25CTFReaderGammaElt_CTF_2_0E = hidden unnamed_addr constant { [15 x ptr] } { [15 x ptr] [ptr null, ptr @_ZTIN19OpenColorIO_v2_4dev25CTFReaderGammaElt_CTF_2_0E, ptr @_ZN19OpenColorIO_v2_4dev25CTFReaderGammaElt_CTF_2_0D2Ev, ptr @_ZN19OpenColorIO_v2_4dev25CTFReaderGammaElt_CTF_2_0D0Ev, ptr @_ZN19OpenColorIO_v2_4dev17CTFReaderGammaElt5startEPPKc, ptr @_ZN19OpenColorIO_v2_4dev17CTFReaderGammaElt3endEv, ptr @_ZNK19OpenColorIO_v2_4dev21XmlReaderContainerElt11isContainerEv, ptr @_ZNK19OpenColorIO_v2_4dev14CTFReaderOpElt13getIdentifierB5cxx11Ev, ptr @_ZNK19OpenColorIO_v2_4dev14CTFReaderOpElt11getTypeNameEv, ptr @_ZNK19OpenColorIO_v2_4dev16XmlReaderElement7isDummyEv, ptr @_ZN19OpenColorIO_v2_4dev14CTFReaderOpElt14appendMetadataERKNSt7__cxx1112basic_stringIcSt11char_traitsIcESaIcEEES8_, ptr @_ZNK19OpenColorIO_v2_4dev17CTFReaderGammaElt5getOpEv, ptr @_ZNK19OpenColorIO_v2_4dev17CTFReaderGammaElt18isOpParameterValidEPKc, ptr @_ZNK19OpenColorIO_v2_4dev21CTFReaderGammaElt_1_520createGammaParamsEltERKNSt7__cxx1112basic_stringIcSt11char_traitsIcESaIcEEESt10shared_ptrINS_21XmlReaderContainerEltEEjS8_, ptr @_ZNK19OpenColorIO_v2_4dev25CTFReaderGammaElt_CTF_2_07isValidENS_11GammaOpData5StyleE] }, align 8
@_ZTSN19OpenColorIO_v2_4dev25CTFReaderGammaElt_CTF_2_0E = hidden constant [51 x i8] c"N19OpenColorIO_v2_4dev25CTFReaderGammaElt_CTF_2_0E\00", align 1
@_ZTIN19OpenColorIO_v2_4dev25CTFReaderGammaElt_CTF_2_0E = hidden constant { ptr, ptr, ptr } { ptr getelementptr inbounds (ptr, ptr @_ZTVN10__cxxabiv120__si_class_type_infoE, i64 2), ptr @_ZTSN19OpenColorIO_v2_4dev25CTFReaderGammaElt_CTF_2_0E, ptr @_ZTIN19OpenColorIO_v2_4dev21CTFReaderGammaElt_1_5E }, align 8
@_ZTVN19OpenColorIO_v2_4dev25CTFReaderGammaElt_CLF_3_0E = hidden unnamed_addr constant { [15 x ptr] } { [15 x ptr] [ptr null, ptr @_ZTIN19OpenColorIO_v2_4dev25CTFReaderGammaElt_CLF_3_0E, ptr @_ZN19OpenColorIO_v2_4dev25CTFReaderGammaElt_CLF_3_0D2Ev, ptr @_ZN19OpenColorIO_v2_4dev25CTFReaderGammaElt_CLF_3_0D0Ev, ptr @_ZN19OpenColorIO_v2_4dev17CTFReaderGammaElt5startEPPKc, ptr @_ZN19OpenColorIO_v2_4dev17CTFReaderGammaElt3endEv, ptr @_ZNK19OpenColorIO_v2_4dev21XmlReaderContainerElt11isContainerEv, ptr @_ZNK19OpenColorIO_v2_4dev14CTFReaderOpElt13getIdentifierB5cxx11Ev, ptr @_ZNK19OpenColorIO_v2_4dev14CTFReaderOpElt11getTypeNameEv, ptr @_ZNK19OpenColorIO_v2_4dev16XmlReaderElement7isDummyEv, ptr @_ZN19OpenColorIO_v2_4dev14CTFReaderOpElt14appendMetadataERKNSt7__cxx1112basic_stringIcSt11char_traitsIcESaIcEEES8_, ptr @_ZNK19OpenColorIO_v2_4dev17CTFReaderGammaElt5getOpEv, ptr @_ZNK19OpenColorIO_v2_4dev17CTFReaderGammaElt18isOpParameterValidEPKc, ptr @_ZNK19OpenColorIO_v2_4dev25CTFReaderGammaElt_CLF_3_020createGammaParamsEltERKNSt7__cxx1112basic_stringIcSt11char_traitsIcESaIcEEESt10shared_ptrINS_21XmlReaderContainerEltEEjS8_, ptr @_ZNK19OpenColorIO_v2_4dev25CTFReaderGammaElt_CTF_2_07isValidENS_11GammaOpData5StyleE] }, align 8
@_ZTSN19OpenColorIO_v2_4dev25CTFReaderGammaElt_CLF_3_0E = hidden constant [51 x i8] c"N19OpenColorIO_v2_4dev25CTFReaderGammaElt_CLF_3_0E\00", align 1
@_ZTIN19OpenColorIO_v2_4dev25CTFReaderGammaElt_CLF_3_0E = hidden constant { ptr, ptr, ptr } { ptr getelementptr inbounds (ptr, ptr @_ZTVN10__cxxabiv120__si_class_type_infoE, i64 2), ptr @_ZTSN19OpenColorIO_v2_4dev25CTFReaderGammaElt_CLF_3_0E, ptr @_ZTIN19OpenColorIO_v2_4dev25CTFReaderGammaElt_CTF_2_0E }, align 8
@_ZTVN19OpenColorIO_v2_4dev19CTFReaderLogElt_2_0E = hidden unnamed_addr constant { [14 x ptr] } { [14 x ptr] [ptr null, ptr @_ZTIN19OpenColorIO_v2_4dev19CTFReaderLogElt_2_0E, ptr @_ZN19OpenColorIO_v2_4dev19CTFReaderLogElt_2_0D2Ev, ptr @_ZN19OpenColorIO_v2_4dev19CTFReaderLogElt_2_0D0Ev, ptr @_ZN19OpenColorIO_v2_4dev15CTFReaderLogElt5startEPPKc, ptr @_ZN19OpenColorIO_v2_4dev19CTFReaderLogElt_2_03endEv, ptr @_ZNK19OpenColorIO_v2_4dev21XmlReaderContainerElt11isContainerEv, ptr @_ZNK19OpenColorIO_v2_4dev14CTFReaderOpElt13getIdentifierB5cxx11Ev, ptr @_ZNK19OpenColorIO_v2_4dev14CTFReaderOpElt11getTypeNameEv, ptr @_ZNK19OpenColorIO_v2_4dev16XmlReaderElement7isDummyEv, ptr @_ZN19OpenColorIO_v2_4dev14CTFReaderOpElt14appendMetadataERKNSt7__cxx1112basic_stringIcSt11char_traitsIcESaIcEEES8_, ptr @_ZNK19OpenColorIO_v2_4dev15CTFReaderLogElt5getOpEv, ptr @_ZNK19OpenColorIO_v2_4dev15CTFReaderLogElt18isOpParameterValidEPKc, ptr @_ZNK19OpenColorIO_v2_4dev19CTFReaderLogElt_2_018createLogParamsEltERKNSt7__cxx1112basic_stringIcSt11char_traitsIcESaIcEEESt10shared_ptrINS_21XmlReaderContainerEltEEjS8_] }, align 8
@_ZTSN19OpenColorIO_v2_4dev19CTFReaderLogElt_2_0E = hidden constant [45 x i8] c"N19OpenColorIO_v2_4dev19CTFReaderLogElt_2_0E\00", align 1
@_ZTIN19OpenColorIO_v2_4dev19CTFReaderLogElt_2_0E = hidden constant { ptr, ptr, ptr } { ptr getelementptr inbounds (ptr, ptr @_ZTVN10__cxxabiv120__si_class_type_infoE, i64 2), ptr @_ZTSN19OpenColorIO_v2_4dev19CTFReaderLogElt_2_0E, ptr @_ZTIN19OpenColorIO_v2_4dev15CTFReaderLogEltE }, align 8
@_ZTVN19OpenColorIO_v2_4dev25CTFReaderLogParamsElt_2_0E = hidden unnamed_addr constant { [11 x ptr] } { [11 x ptr] [ptr null, ptr @_ZTIN19OpenColorIO_v2_4dev25CTFReaderLogParamsElt_2_0E, ptr @_ZN19OpenColorIO_v2_4dev25CTFReaderLogParamsElt_2_0D2Ev, ptr @_ZN19OpenColorIO_v2_4dev25CTFReaderLogParamsElt_2_0D0Ev, ptr @_ZN19OpenColorIO_v2_4dev25CTFReaderLogParamsElt_2_05startEPPKc, ptr @_ZN19OpenColorIO_v2_4dev21CTFReaderLogParamsElt3endEv, ptr @_ZNK19OpenColorIO_v2_4dev17XmlReaderPlainElt11isContainerEv, ptr @_ZNK19OpenColorIO_v2_4dev17XmlReaderPlainElt13getIdentifierB5cxx11Ev, ptr @_ZNK19OpenColorIO_v2_4dev17XmlReaderPlainElt11getTypeNameEv, ptr @_ZNK19OpenColorIO_v2_4dev16XmlReaderElement7isDummyEv, ptr @_ZN19OpenColorIO_v2_4dev21CTFReaderLogParamsElt10setRawDataEPKcmj] }, align 8
@_ZTSN19OpenColorIO_v2_4dev25CTFReaderLogParamsElt_2_0E = hidden constant [51 x i8] c"N19OpenColorIO_v2_4dev25CTFReaderLogParamsElt_2_0E\00", align 1
@_ZTSN19OpenColorIO_v2_4dev21CTFReaderLogParamsEltE = hidden constant [47 x i8] c"N19OpenColorIO_v2_4dev21CTFReaderLogParamsEltE\00", align 1
@_ZTSN19OpenColorIO_v2_4dev17XmlReaderPlainEltE = linkonce_odr hidden constant [43 x i8] c"N19OpenColorIO_v2_4dev17XmlReaderPlainEltE\00", comdat, align 1
@_ZTIN19OpenColorIO_v2_4dev17XmlReaderPlainEltE = linkonce_odr hidden constant { ptr, ptr, ptr } { ptr getelementptr inbounds (ptr, ptr @_ZTVN10__cxxabiv120__si_class_type_infoE, i64 2), ptr @_ZTSN19OpenColorIO_v2_4dev17XmlReaderPlainEltE, ptr @_ZTIN19OpenColorIO_v2_4dev16XmlReaderElementE }, comdat, align 8
@_ZTIN19OpenColorIO_v2_4dev21CTFReaderLogParamsEltE = hidden constant { ptr, ptr, ptr } { ptr getelementptr inbounds (ptr, ptr @_ZTVN10__cxxabiv120__si_class_type_infoE, i64 2), ptr @_ZTSN19OpenColorIO_v2_4dev21CTFReaderLogParamsEltE, ptr @_ZTIN19OpenColorIO_v2_4dev17XmlReaderPlainEltE }, align 8
@_ZTIN19OpenColorIO_v2_4dev25CTFReaderLogParamsElt_2_0E = hidden constant { ptr, ptr, ptr } { ptr getelementptr inbounds (ptr, ptr @_ZTVN10__cxxabiv120__si_class_type_infoE, i64 2), ptr @_ZTSN19OpenColorIO_v2_4dev25CTFReaderLogParamsElt_2_0E, ptr @_ZTIN19OpenColorIO_v2_4dev21CTFReaderLogParamsEltE }, align 8
@_ZTVN19OpenColorIO_v2_4dev21CTFReaderLut1DElt_1_4E = hidden unnamed_addr constant { [17 x ptr], [7 x ptr], [6 x ptr] } { [17 x ptr] [ptr null, ptr @_ZTIN19OpenColorIO_v2_4dev21CTFReaderLut1DElt_1_4E, ptr @_ZN19OpenColorIO_v2_4dev21CTFReaderLut1DElt_1_4D2Ev, ptr @_ZN19OpenColorIO_v2_4dev21CTFReaderLut1DElt_1_4D0Ev, ptr @_ZN19OpenColorIO_v2_4dev21CTFReaderLut1DElt_1_45startEPPKc, ptr @_ZN19OpenColorIO_v2_4dev17CTFReaderLut1DElt3endEv, ptr @_ZNK19OpenColorIO_v2_4dev21XmlReaderContainerElt11isContainerEv, ptr @_ZNK19OpenColorIO_v2_4dev14CTFReaderOpElt13getIdentifierB5cxx11Ev, ptr @_ZNK19OpenColorIO_v2_4dev14CTFReaderOpElt11getTypeNameEv, ptr @_ZNK19OpenColorIO_v2_4dev16XmlReaderElement7isDummyEv, ptr @_ZN19OpenColorIO_v2_4dev14CTFReaderOpElt14appendMetadataERKNSt7__cxx1112basic_stringIcSt11char_traitsIcESaIcEEES8_, ptr @_ZNK19OpenColorIO_v2_4dev17CTFReaderLut1DElt5getOpEv, ptr @_ZNK19OpenColorIO_v2_4dev21CTFReaderLut1DElt_1_418isOpParameterValidEPKc, ptr @_ZN19OpenColorIO_v2_4dev17CTFReaderLut1DElt15updateDimensionERKSt6vectorIjSaIjEE, ptr @_ZN19OpenColorIO_v2_4dev17CTFReaderLut1DElt8endArrayEj, ptr @_ZN19OpenColorIO_v2_4dev17CTFReaderLut1DElt17updateDimensionIMERKSt6vectorIjSaIjEE, ptr @_ZN19OpenColorIO_v2_4dev17CTFReaderLut1DElt11endIndexMapEj], [7 x ptr] [ptr inttoptr (i64 -104 to ptr), ptr @_ZTIN19OpenColorIO_v2_4dev21CTFReaderLut1DElt_1_4E, ptr @_ZThn104_N19OpenColorIO_v2_4dev21CTFReaderLut1DElt_1_4D1Ev, ptr @_ZThn104_N19OpenColorIO_v2_4dev21CTFReaderLut1DElt_1_4D0Ev, ptr @_ZN19OpenColorIO_v2_4dev11CTFArrayMgt12setCompletedEb, ptr @_ZThn104_N19OpenColorIO_v2_4dev17CTFReaderLut1DElt15updateDimensionERKSt6vectorIjSaIjEE, ptr @_ZThn104_N19OpenColorIO_v2_4dev17CTFReaderLut1DElt8endArrayEj], [6 x ptr] [ptr inttoptr (i64 -120 to ptr), ptr @_ZTIN19OpenColorIO_v2_4dev21CTFReaderLut1DElt_1_4E, ptr @_ZThn120_N19OpenColorIO_v2_4dev21CTFReaderLut1DElt_1_4D1Ev, ptr @_ZThn120_N19OpenColorIO_v2_4dev21CTFReaderLut1DElt_1_4D0Ev, ptr @_ZThn120_N19OpenColorIO_v2_4dev17CTFReaderLut1DElt17updateDimensionIMERKSt6vectorIjSaIjEE, ptr @_ZThn120_N19OpenColorIO_v2_4dev17CTFReaderLut1DElt11endIndexMapEj] }, align 8
@_ZTSN19OpenColorIO_v2_4dev21CTFReaderLut1DElt_1_4E = hidden constant [47 x i8] c"N19OpenColorIO_v2_4dev21CTFReaderLut1DElt_1_4E\00", align 1
@_ZTVN10__cxxabiv121__vmi_class_type_infoE = external global [0 x ptr]
@_ZTSN19OpenColorIO_v2_4dev17CTFReaderLut1DEltE = hidden constant [43 x i8] c"N19OpenColorIO_v2_4dev17CTFReaderLut1DEltE\00", align 1
@_ZTIN19OpenColorIO_v2_4dev17CTFReaderLut1DEltE = hidden constant { ptr, ptr, i32, i32, ptr, i64, ptr, i64, ptr, i64 } { ptr getelementptr inbounds (ptr, ptr @_ZTVN10__cxxabiv121__vmi_class_type_infoE, i64 2), ptr @_ZTSN19OpenColorIO_v2_4dev17CTFReaderLut1DEltE, i32 0, i32 3, ptr @_ZTIN19OpenColorIO_v2_4dev14CTFReaderOpEltE, i64 2, ptr @_ZTIN19OpenColorIO_v2_4dev11CTFArrayMgtE, i64 26626, ptr @_ZTIN19OpenColorIO_v2_4dev14CTFIndexMapMgtE, i64 30722 }, align 8
@_ZTIN19OpenColorIO_v2_4dev21CTFReaderLut1DElt_1_4E = hidden constant { ptr, ptr, ptr } { ptr getelementptr inbounds (ptr, ptr @_ZTVN10__cxxabiv120__si_class_type_infoE, i64 2), ptr @_ZTSN19OpenColorIO_v2_4dev21CTFReaderLut1DElt_1_4E, ptr @_ZTIN19OpenColorIO_v2_4dev17CTFReaderLut1DEltE }, align 8
@_ZTVN19OpenColorIO_v2_4dev21CTFReaderLut1DElt_1_7E = hidden unnamed_addr constant { [17 x ptr], [7 x ptr], [6 x ptr] } { [17 x ptr] [ptr null, ptr @_ZTIN19OpenColorIO_v2_4dev21CTFReaderLut1DElt_1_7E, ptr @_ZN19OpenColorIO_v2_4dev21CTFReaderLut1DElt_1_7D2Ev, ptr @_ZN19OpenColorIO_v2_4dev21CTFReaderLut1DElt_1_7D0Ev, ptr @_ZN19OpenColorIO_v2_4dev21CTFReaderLut1DElt_1_45startEPPKc, ptr @_ZN19OpenColorIO_v2_4dev21CTFReaderLut1DElt_1_73endEv, ptr @_ZNK19OpenColorIO_v2_4dev21XmlReaderContainerElt11isContainerEv, ptr @_ZNK19OpenColorIO_v2_4dev14CTFReaderOpElt13getIdentifierB5cxx11Ev, ptr @_ZNK19OpenColorIO_v2_4dev14CTFReaderOpElt11getTypeNameEv, ptr @_ZNK19OpenColorIO_v2_4dev16XmlReaderElement7isDummyEv, ptr @_ZN19OpenColorIO_v2_4dev14CTFReaderOpElt14appendMetadataERKNSt7__cxx1112basic_stringIcSt11char_traitsIcESaIcEEES8_, ptr @_ZNK19OpenColorIO_v2_4dev17CTFReaderLut1DElt5getOpEv, ptr @_ZNK19OpenColorIO_v2_4dev21CTFReaderLut1DElt_1_418isOpParameterValidEPKc, ptr @_ZN19OpenColorIO_v2_4dev17CTFReaderLut1DElt15updateDimensionERKSt6vectorIjSaIjEE, ptr @_ZN19OpenColorIO_v2_4dev17CTFReaderLut1DElt8endArrayEj, ptr @_ZN19OpenColorIO_v2_4dev17CTFReaderLut1DElt17updateDimensionIMERKSt6vectorIjSaIjEE, ptr @_ZN19OpenColorIO_v2_4dev17CTFReaderLut1DElt11endIndexMapEj], [7 x ptr] [ptr inttoptr (i64 -104 to ptr), ptr @_ZTIN19OpenColorIO_v2_4dev21CTFReaderLut1DElt_1_7E, ptr @_ZThn104_N19OpenColorIO_v2_4dev21CTFReaderLut1DElt_1_7D1Ev, ptr @_ZThn104_N19OpenColorIO_v2_4dev21CTFReaderLut1DElt_1_7D0Ev, ptr @_ZN19OpenColorIO_v2_4dev11CTFArrayMgt12setCompletedEb, ptr @_ZThn104_N19OpenColorIO_v2_4dev17CTFReaderLut1DElt15updateDimensionERKSt6vectorIjSaIjEE, ptr @_ZThn104_N19OpenColorIO_v2_4dev17CTFReaderLut1DElt8endArrayEj], [6 x ptr] [ptr inttoptr (i64 -120 to ptr), ptr @_ZTIN19OpenColorIO_v2_4dev21CTFReaderLut1DElt_1_7E, ptr @_ZThn120_N19OpenColorIO_v2_4dev21CTFReaderLut1DElt_1_7D1Ev, ptr @_ZThn120_N19OpenColorIO_v2_4dev21CTFReaderLut1DElt_1_7D0Ev, ptr @_ZThn120_N19OpenColorIO_v2_4dev17CTFReaderLut1DElt17updateDimensionIMERKSt6vectorIjSaIjEE, ptr @_ZThn120_N19OpenColorIO_v2_4dev17CTFReaderLut1DElt11endIndexMapEj] }, align 8
@_ZTSN19OpenColorIO_v2_4dev21CTFReaderLut1DElt_1_7E = hidden constant [47 x i8] c"N19OpenColorIO_v2_4dev21CTFReaderLut1DElt_1_7E\00", align 1
@_ZTIN19OpenColorIO_v2_4dev21CTFReaderLut1DElt_1_7E = hidden constant { ptr, ptr, ptr } { ptr getelementptr inbounds (ptr, ptr @_ZTVN10__cxxabiv120__si_class_type_infoE, i64 2), ptr @_ZTSN19OpenColorIO_v2_4dev21CTFReaderLut1DElt_1_7E, ptr @_ZTIN19OpenColorIO_v2_4dev21CTFReaderLut1DElt_1_4E }, align 8
@_ZTVN19OpenColorIO_v2_4dev21CTFReaderLut3DElt_1_7E = hidden unnamed_addr constant { [17 x ptr], [7 x ptr], [6 x ptr] } { [17 x ptr] [ptr null, ptr @_ZTIN19OpenColorIO_v2_4dev21CTFReaderLut3DElt_1_7E, ptr @_ZN19OpenColorIO_v2_4dev21CTFReaderLut3DElt_1_7D2Ev, ptr @_ZN19OpenColorIO_v2_4dev21CTFReaderLut3DElt_1_7D0Ev, ptr @_ZN19OpenColorIO_v2_4dev17CTFReaderLut3DElt5startEPPKc, ptr @_ZN19OpenColorIO_v2_4dev21CTFReaderLut3DElt_1_73endEv, ptr @_ZNK19OpenColorIO_v2_4dev21XmlReaderContainerElt11isContainerEv, ptr @_ZNK19OpenColorIO_v2_4dev14CTFReaderOpElt13getIdentifierB5cxx11Ev, ptr @_ZNK19OpenColorIO_v2_4dev14CTFReaderOpElt11getTypeNameEv, ptr @_ZNK19OpenColorIO_v2_4dev16XmlReaderElement7isDummyEv, ptr @_ZN19OpenColorIO_v2_4dev14CTFReaderOpElt14appendMetadataERKNSt7__cxx1112basic_stringIcSt11char_traitsIcESaIcEEES8_, ptr @_ZNK19OpenColorIO_v2_4dev17CTFReaderLut3DElt5getOpEv, ptr @_ZNK19OpenColorIO_v2_4dev17CTFReaderLut3DElt18isOpParameterValidEPKc, ptr @_ZN19OpenColorIO_v2_4dev17CTFReaderLut3DElt15updateDimensionERKSt6vectorIjSaIjEE, ptr @_ZN19OpenColorIO_v2_4dev17CTFReaderLut3DElt8endArrayEj, ptr @_ZN19OpenColorIO_v2_4dev17CTFReaderLut3DElt17updateDimensionIMERKSt6vectorIjSaIjEE, ptr @_ZN19OpenColorIO_v2_4dev17CTFReaderLut3DElt11endIndexMapEj], [7 x ptr] [ptr inttoptr (i64 -104 to ptr), ptr @_ZTIN19OpenColorIO_v2_4dev21CTFReaderLut3DElt_1_7E, ptr @_ZThn104_N19OpenColorIO_v2_4dev21CTFReaderLut3DElt_1_7D1Ev, ptr @_ZThn104_N19OpenColorIO_v2_4dev21CTFReaderLut3DElt_1_7D0Ev, ptr @_ZN19OpenColorIO_v2_4dev11CTFArrayMgt12setCompletedEb, ptr @_ZThn104_N19OpenColorIO_v2_4dev17CTFReaderLut3DElt15updateDimensionERKSt6vectorIjSaIjEE, ptr @_ZThn104_N19OpenColorIO_v2_4dev17CTFReaderLut3DElt8endArrayEj], [6 x ptr] [ptr inttoptr (i64 -120 to ptr), ptr @_ZTIN19OpenColorIO_v2_4dev21CTFReaderLut3DElt_1_7E, ptr @_ZThn120_N19OpenColorIO_v2_4dev21CTFReaderLut3DElt_1_7D1Ev, ptr @_ZThn120_N19OpenColorIO_v2_4dev21CTFReaderLut3DElt_1_7D0Ev, ptr @_ZThn120_N19OpenColorIO_v2_4dev17CTFReaderLut3DElt17updateDimensionIMERKSt6vectorIjSaIjEE, ptr @_ZThn120_N19OpenColorIO_v2_4dev17CTFReaderLut3DElt11endIndexMapEj] }, align 8
@_ZTSN19OpenColorIO_v2_4dev21CTFReaderLut3DElt_1_7E = hidden constant [47 x i8] c"N19OpenColorIO_v2_4dev21CTFReaderLut3DElt_1_7E\00", align 1
@_ZTSN19OpenColorIO_v2_4dev17CTFReaderLut3DEltE = hidden constant [43 x i8] c"N19OpenColorIO_v2_4dev17CTFReaderLut3DEltE\00", align 1
@_ZTIN19OpenColorIO_v2_4dev17CTFReaderLut3DEltE = hidden constant { ptr, ptr, i32, i32, ptr, i64, ptr, i64, ptr, i64 } { ptr getelementptr inbounds (ptr, ptr @_ZTVN10__cxxabiv121__vmi_class_type_infoE, i64 2), ptr @_ZTSN19OpenColorIO_v2_4dev17CTFReaderLut3DEltE, i32 0, i32 3, ptr @_ZTIN19OpenColorIO_v2_4dev14CTFReaderOpEltE, i64 2, ptr @_ZTIN19OpenColorIO_v2_4dev11CTFArrayMgtE, i64 26626, ptr @_ZTIN19OpenColorIO_v2_4dev14CTFIndexMapMgtE, i64 30722 }, align 8
@_ZTIN19OpenColorIO_v2_4dev21CTFReaderLut3DElt_1_7E = hidden constant { ptr, ptr, ptr } { ptr getelementptr inbounds (ptr, ptr @_ZTVN10__cxxabiv120__si_class_type_infoE, i64 2), ptr @_ZTSN19OpenColorIO_v2_4dev21CTFReaderLut3DElt_1_7E, ptr @_ZTIN19OpenColorIO_v2_4dev17CTFReaderLut3DEltE }, align 8
@_ZTVN19OpenColorIO_v2_4dev22CTFReaderMatrixElt_1_3E = hidden unnamed_addr constant { [15 x ptr], [7 x ptr] } { [15 x ptr] [ptr null, ptr @_ZTIN19OpenColorIO_v2_4dev22CTFReaderMatrixElt_1_3E, ptr @_ZN19OpenColorIO_v2_4dev22CTFReaderMatrixElt_1_3D2Ev, ptr @_ZN19OpenColorIO_v2_4dev22CTFReaderMatrixElt_1_3D0Ev, ptr @_ZN19OpenColorIO_v2_4dev14CTFReaderOpElt5startEPPKc, ptr @_ZN19OpenColorIO_v2_4dev18CTFReaderMatrixElt3endEv, ptr @_ZNK19OpenColorIO_v2_4dev21XmlReaderContainerElt11isContainerEv, ptr @_ZNK19OpenColorIO_v2_4dev14CTFReaderOpElt13getIdentifierB5cxx11Ev, ptr @_ZNK19OpenColorIO_v2_4dev14CTFReaderOpElt11getTypeNameEv, ptr @_ZNK19OpenColorIO_v2_4dev16XmlReaderElement7isDummyEv, ptr @_ZN19OpenColorIO_v2_4dev14CTFReaderOpElt14appendMetadataERKNSt7__cxx1112basic_stringIcSt11char_traitsIcESaIcEEES8_, ptr @_ZNK19OpenColorIO_v2_4dev18CTFReaderMatrixElt5getOpEv, ptr @_ZNK19OpenColorIO_v2_4dev14CTFReaderOpElt18isOpParameterValidEPKc, ptr @_ZN19OpenColorIO_v2_4dev22CTFReaderMatrixElt_1_315updateDimensionERKSt6vectorIjSaIjEE, ptr @_ZN19OpenColorIO_v2_4dev22CTFReaderMatrixElt_1_38endArrayEj], [7 x ptr] [ptr inttoptr (i64 -104 to ptr), ptr @_ZTIN19OpenColorIO_v2_4dev22CTFReaderMatrixElt_1_3E, ptr @_ZThn104_N19OpenColorIO_v2_4dev22CTFReaderMatrixElt_1_3D1Ev, ptr @_ZThn104_N19OpenColorIO_v2_4dev22CTFReaderMatrixElt_1_3D0Ev, ptr @_ZN19OpenColorIO_v2_4dev11CTFArrayMgt12setCompletedEb, ptr @_ZThn104_N19OpenColorIO_v2_4dev22CTFReaderMatrixElt_1_315updateDimensionERKSt6vectorIjSaIjEE, ptr @_ZThn104_N19OpenColorIO_v2_4dev22CTFReaderMatrixElt_1_38endArrayEj] }, align 8
@_ZTSN19OpenColorIO_v2_4dev22CTFReaderMatrixElt_1_3E = hidden constant [48 x i8] c"N19OpenColorIO_v2_4dev22CTFReaderMatrixElt_1_3E\00", align 1
@_ZTSN19OpenColorIO_v2_4dev18CTFReaderMatrixEltE = hidden constant [44 x i8] c"N19OpenColorIO_v2_4dev18CTFReaderMatrixEltE\00", align 1
@_ZTIN19OpenColorIO_v2_4dev18CTFReaderMatrixEltE = hidden constant { ptr, ptr, i32, i32, ptr, i64, ptr, i64 } { ptr getelementptr inbounds (ptr, ptr @_ZTVN10__cxxabiv121__vmi_class_type_infoE, i64 2), ptr @_ZTSN19OpenColorIO_v2_4dev18CTFReaderMatrixEltE, i32 0, i32 2, ptr @_ZTIN19OpenColorIO_v2_4dev14CTFReaderOpEltE, i64 2, ptr @_ZTIN19OpenColorIO_v2_4dev11CTFArrayMgtE, i64 26626 }, align 8
@_ZTIN19OpenColorIO_v2_4dev22CTFReaderMatrixElt_1_3E = hidden constant { ptr, ptr, ptr } { ptr getelementptr inbounds (ptr, ptr @_ZTVN10__cxxabiv120__si_class_type_infoE, i64 2), ptr @_ZTSN19OpenColorIO_v2_4dev22CTFReaderMatrixElt_1_3E, ptr @_ZTIN19OpenColorIO_v2_4dev18CTFReaderMatrixEltE }, align 8
@_ZTSN19OpenColorIO_v2_4dev17CTFReaderArrayEltE = hidden constant [43 x i8] c"N19OpenColorIO_v2_4dev17CTFReaderArrayEltE\00", align 1
@_ZTIN19OpenColorIO_v2_4dev17CTFReaderArrayEltE = hidden constant { ptr, ptr, ptr } { ptr getelementptr inbounds (ptr, ptr @_ZTVN10__cxxabiv120__si_class_type_infoE, i64 2), ptr @_ZTSN19OpenColorIO_v2_4dev17CTFReaderArrayEltE, ptr @_ZTIN19OpenColorIO_v2_4dev17XmlReaderPlainEltE }, align 8
@_ZTSN19OpenColorIO_v2_4dev20CTFReaderIndexMapEltE = hidden constant [46 x i8] c"N19OpenColorIO_v2_4dev20CTFReaderIndexMapEltE\00", align 1
@_ZTIN19OpenColorIO_v2_4dev20CTFReaderIndexMapEltE = hidden constant { ptr, ptr, ptr } { ptr getelementptr inbounds (ptr, ptr @_ZTVN10__cxxabiv120__si_class_type_infoE, i64 2), ptr @_ZTSN19OpenColorIO_v2_4dev20CTFReaderIndexMapEltE, ptr @_ZTIN19OpenColorIO_v2_4dev17XmlReaderPlainEltE }, align 8
@_ZTSN19OpenColorIO_v2_4dev16CTFReaderInfoEltE = hidden constant [42 x i8] c"N19OpenColorIO_v2_4dev16CTFReaderInfoEltE\00", align 1
@_ZTIN19OpenColorIO_v2_4dev16CTFReaderInfoEltE = hidden constant { ptr, ptr, ptr } { ptr getelementptr inbounds (ptr, ptr @_ZTVN10__cxxabiv120__si_class_type_infoE, i64 2), ptr @_ZTSN19OpenColorIO_v2_4dev16CTFReaderInfoEltE, ptr @_ZTIN19OpenColorIO_v2_4dev20CTFReaderMetadataEltE }, align 8
@_ZTSN19OpenColorIO_v2_4dev22CTFReaderACESParamsEltE = hidden constant [48 x i8] c"N19OpenColorIO_v2_4dev22CTFReaderACESParamsEltE\00", align 1
@_ZTIN19OpenColorIO_v2_4dev22CTFReaderACESParamsEltE = hidden constant { ptr, ptr, ptr } { ptr getelementptr inbounds (ptr, ptr @_ZTVN10__cxxabiv120__si_class_type_infoE, i64 2), ptr @_ZTSN19OpenColorIO_v2_4dev22CTFReaderACESParamsEltE, ptr @_ZTIN19OpenColorIO_v2_4dev17XmlReaderPlainEltE }, align 8
@_ZTSN19OpenColorIO_v2_4dev15CTFReaderCDLEltE = hidden constant [41 x i8] c"N19OpenColorIO_v2_4dev15CTFReaderCDLEltE\00", align 1
@_ZTIN19OpenColorIO_v2_4dev15CTFReaderCDLEltE = hidden constant { ptr, ptr, ptr } { ptr getelementptr inbounds (ptr, ptr @_ZTVN10__cxxabiv120__si_class_type_infoE, i64 2), ptr @_ZTSN19OpenColorIO_v2_4dev15CTFReaderCDLEltE, ptr @_ZTIN19OpenColorIO_v2_4dev14CTFReaderOpEltE }, align 8
@_ZTSN19OpenColorIO_v2_4dev19CTFReaderSatNodeEltE = hidden constant [45 x i8] c"N19OpenColorIO_v2_4dev19CTFReaderSatNodeEltE\00", align 1
@_ZTSN19OpenColorIO_v2_4dev23XmlReaderSatNodeBaseEltE = linkonce_odr hidden constant [49 x i8] c"N19OpenColorIO_v2_4dev23XmlReaderSatNodeBaseEltE\00", comdat, align 1
@_ZTIN19OpenColorIO_v2_4dev23XmlReaderSatNodeBaseEltE = linkonce_odr hidden constant { ptr, ptr, ptr } { ptr getelementptr inbounds (ptr, ptr @_ZTVN10__cxxabiv120__si_class_type_infoE, i64 2), ptr @_ZTSN19OpenColorIO_v2_4dev23XmlReaderSatNodeBaseEltE, ptr @_ZTIN19OpenColorIO_v2_4dev19XmlReaderComplexEltE }, comdat, align 8
@_ZTIN19OpenColorIO_v2_4dev19CTFReaderSatNodeEltE = hidden constant { ptr, ptr, ptr } { ptr getelementptr inbounds (ptr, ptr @_ZTVN10__cxxabiv120__si_class_type_infoE, i64 2), ptr @_ZTSN19OpenColorIO_v2_4dev19CTFReaderSatNodeEltE, ptr @_ZTIN19OpenColorIO_v2_4dev23XmlReaderSatNodeBaseEltE }, align 8
@_ZTSN19OpenColorIO_v2_4dev19CTFReaderSOPNodeEltE = hidden constant [45 x i8] c"N19OpenColorIO_v2_4dev19CTFReaderSOPNodeEltE\00", align 1
@_ZTSN19OpenColorIO_v2_4dev23XmlReaderSOPNodeBaseEltE = linkonce_odr hidden constant [49 x i8] c"N19OpenColorIO_v2_4dev23XmlReaderSOPNodeBaseEltE\00", comdat, align 1
@_ZTIN19OpenColorIO_v2_4dev23XmlReaderSOPNodeBaseEltE = linkonce_odr hidden constant { ptr, ptr, ptr } { ptr getelementptr inbounds (ptr, ptr @_ZTVN10__cxxabiv120__si_class_type_infoE, i64 2), ptr @_ZTSN19OpenColorIO_v2_4dev23XmlReaderSOPNodeBaseEltE, ptr @_ZTIN19OpenColorIO_v2_4dev19XmlReaderComplexEltE }, comdat, align 8
@_ZTIN19OpenColorIO_v2_4dev19CTFReaderSOPNodeEltE = hidden constant { ptr, ptr, ptr } { ptr getelementptr inbounds (ptr, ptr @_ZTVN10__cxxabiv120__si_class_type_infoE, i64 2), ptr @_ZTSN19OpenColorIO_v2_4dev19CTFReaderSOPNodeEltE, ptr @_ZTIN19OpenColorIO_v2_4dev23XmlReaderSOPNodeBaseEltE }, align 8
@_ZTSN19OpenColorIO_v2_4dev25CTFReaderFixedFunctionEltE = hidden constant [51 x i8] c"N19OpenColorIO_v2_4dev25CTFReaderFixedFunctionEltE\00", align 1
@_ZTIN19OpenColorIO_v2_4dev25CTFReaderFixedFunctionEltE = hidden constant { ptr, ptr, ptr } { ptr getelementptr inbounds (ptr, ptr @_ZTVN10__cxxabiv120__si_class_type_infoE, i64 2), ptr @_ZTSN19OpenColorIO_v2_4dev25CTFReaderFixedFunctionEltE, ptr @_ZTIN19OpenColorIO_v2_4dev14CTFReaderOpEltE }, align 8
@_ZTSN19OpenColorIO_v2_4dev20CTFReaderFunctionEltE = hidden constant [46 x i8] c"N19OpenColorIO_v2_4dev20CTFReaderFunctionEltE\00", align 1
@_ZTIN19OpenColorIO_v2_4dev20CTFReaderFunctionEltE = hidden constant { ptr, ptr, ptr } { ptr getelementptr inbounds (ptr, ptr @_ZTVN10__cxxabiv120__si_class_type_infoE, i64 2), ptr @_ZTSN19OpenColorIO_v2_4dev20CTFReaderFunctionEltE, ptr @_ZTIN19OpenColorIO_v2_4dev14CTFReaderOpEltE }, align 8
@_ZTSN19OpenColorIO_v2_4dev24CTFReaderDynamicParamEltE = hidden constant [50 x i8] c"N19OpenColorIO_v2_4dev24CTFReaderDynamicParamEltE\00", align 1
@_ZTIN19OpenColorIO_v2_4dev24CTFReaderDynamicParamEltE = hidden constant { ptr, ptr, ptr } { ptr getelementptr inbounds (ptr, ptr @_ZTVN10__cxxabiv120__si_class_type_infoE, i64 2), ptr @_ZTSN19OpenColorIO_v2_4dev24CTFReaderDynamicParamEltE, ptr @_ZTIN19OpenColorIO_v2_4dev17XmlReaderPlainEltE }, align 8
@_ZTSN19OpenColorIO_v2_4dev20CTFReaderECParamsEltE = hidden constant [46 x i8] c"N19OpenColorIO_v2_4dev20CTFReaderECParamsEltE\00", align 1
@_ZTIN19OpenColorIO_v2_4dev20CTFReaderECParamsEltE = hidden constant { ptr, ptr, ptr } { ptr getelementptr inbounds (ptr, ptr @_ZTVN10__cxxabiv120__si_class_type_infoE, i64 2), ptr @_ZTSN19OpenColorIO_v2_4dev20CTFReaderECParamsEltE, ptr @_ZTIN19OpenColorIO_v2_4dev17XmlReaderPlainEltE }, align 8
@_ZTSN19OpenColorIO_v2_4dev23CTFReaderGammaParamsEltE = hidden constant [49 x i8] c"N19OpenColorIO_v2_4dev23CTFReaderGammaParamsEltE\00", align 1
@_ZTIN19OpenColorIO_v2_4dev23CTFReaderGammaParamsEltE = hidden constant { ptr, ptr, ptr } { ptr getelementptr inbounds (ptr, ptr @_ZTVN10__cxxabiv120__si_class_type_infoE, i64 2), ptr @_ZTSN19OpenColorIO_v2_4dev23CTFReaderGammaParamsEltE, ptr @_ZTIN19OpenColorIO_v2_4dev17XmlReaderPlainEltE }, align 8
@_ZTSN19OpenColorIO_v2_4dev27CTFReaderGammaParamsElt_1_5E = hidden constant [53 x i8] c"N19OpenColorIO_v2_4dev27CTFReaderGammaParamsElt_1_5E\00", align 1
@_ZTIN19OpenColorIO_v2_4dev27CTFReaderGammaParamsElt_1_5E = hidden constant { ptr, ptr, ptr } { ptr getelementptr inbounds (ptr, ptr @_ZTVN10__cxxabiv120__si_class_type_infoE, i64 2), ptr @_ZTSN19OpenColorIO_v2_4dev27CTFReaderGammaParamsElt_1_5E, ptr @_ZTIN19OpenColorIO_v2_4dev23CTFReaderGammaParamsEltE }, align 8
@_ZTSN19OpenColorIO_v2_4dev31CTFReaderGradingPrimaryParamEltE = hidden constant [57 x i8] c"N19OpenColorIO_v2_4dev31CTFReaderGradingPrimaryParamEltE\00", align 1
@_ZTIN19OpenColorIO_v2_4dev31CTFReaderGradingPrimaryParamEltE = hidden constant { ptr, ptr, ptr } { ptr getelementptr inbounds (ptr, ptr @_ZTVN10__cxxabiv120__si_class_type_infoE, i64 2), ptr @_ZTSN19OpenColorIO_v2_4dev31CTFReaderGradingPrimaryParamEltE, ptr @_ZTIN19OpenColorIO_v2_4dev17XmlReaderPlainEltE }, align 8
@_ZTSN19OpenColorIO_v2_4dev30CTFReaderGradingCurvePointsEltE = hidden constant [56 x i8] c"N19OpenColorIO_v2_4dev30CTFReaderGradingCurvePointsEltE\00", align 1
@_ZTIN19OpenColorIO_v2_4dev30CTFReaderGradingCurvePointsEltE = hidden constant { ptr, ptr, ptr } { ptr getelementptr inbounds (ptr, ptr @_ZTVN10__cxxabiv120__si_class_type_infoE, i64 2), ptr @_ZTSN19OpenColorIO_v2_4dev30CTFReaderGradingCurvePointsEltE, ptr @_ZTIN19OpenColorIO_v2_4dev17XmlReaderPlainEltE }, align 8
@_ZTSN19OpenColorIO_v2_4dev30CTFReaderGradingCurveSlopesEltE = hidden constant [56 x i8] c"N19OpenColorIO_v2_4dev30CTFReaderGradingCurveSlopesEltE\00", align 1
@_ZTIN19OpenColorIO_v2_4dev30CTFReaderGradingCurveSlopesEltE = hidden constant { ptr, ptr, ptr } { ptr getelementptr inbounds (ptr, ptr @_ZTVN10__cxxabiv120__si_class_type_infoE, i64 2), ptr @_ZTSN19OpenColorIO_v2_4dev30CTFReaderGradingCurveSlopesEltE, ptr @_ZTIN19OpenColorIO_v2_4dev17XmlReaderPlainEltE }, align 8
@_ZTSN19OpenColorIO_v2_4dev28CTFReaderGradingToneParamEltE = hidden constant [54 x i8] c"N19OpenColorIO_v2_4dev28CTFReaderGradingToneParamEltE\00", align 1
@_ZTIN19OpenColorIO_v2_4dev28CTFReaderGradingToneParamEltE = hidden constant { ptr, ptr, ptr } { ptr getelementptr inbounds (ptr, ptr @_ZTVN10__cxxabiv120__si_class_type_infoE, i64 2), ptr @_ZTSN19OpenColorIO_v2_4dev28CTFReaderGradingToneParamEltE, ptr @_ZTIN19OpenColorIO_v2_4dev17XmlReaderPlainEltE }, align 8
@_ZTSN19OpenColorIO_v2_4dev20CTFReaderInvLut1DEltE = hidden constant [46 x i8] c"N19OpenColorIO_v2_4dev20CTFReaderInvLut1DEltE\00", align 1
@_ZTIN19OpenColorIO_v2_4dev20CTFReaderInvLut1DEltE = hidden constant { ptr, ptr, i32, i32, ptr, i64, ptr, i64 } { ptr getelementptr inbounds (ptr, ptr @_ZTVN10__cxxabiv121__vmi_class_type_infoE, i64 2), ptr @_ZTSN19OpenColorIO_v2_4dev20CTFReaderInvLut1DEltE, i32 0, i32 2, ptr @_ZTIN19OpenColorIO_v2_4dev14CTFReaderOpEltE, i64 2, ptr @_ZTIN19OpenColorIO_v2_4dev11CTFArrayMgtE, i64 26626 }, align 8
@_ZTSN19OpenColorIO_v2_4dev20CTFReaderInvLut3DEltE = hidden constant [46 x i8] c"N19OpenColorIO_v2_4dev20CTFReaderInvLut3DEltE\00", align 1
@_ZTIN19OpenColorIO_v2_4dev20CTFReaderInvLut3DEltE = hidden constant { ptr, ptr, i32, i32, ptr, i64, ptr, i64 } { ptr getelementptr inbounds (ptr, ptr @_ZTVN10__cxxabiv121__vmi_class_type_infoE, i64 2), ptr @_ZTSN19OpenColorIO_v2_4dev20CTFReaderInvLut3DEltE, i32 0, i32 2, ptr @_ZTIN19OpenColorIO_v2_4dev14CTFReaderOpEltE, i64 2, ptr @_ZTIN19OpenColorIO_v2_4dev11CTFArrayMgtE, i64 26626 }, align 8
@_ZTSN19OpenColorIO_v2_4dev21CTFReaderRangeElt_1_7E = hidden constant [47 x i8] c"N19OpenColorIO_v2_4dev21CTFReaderRangeElt_1_7E\00", align 1
@_ZTIN19OpenColorIO_v2_4dev21CTFReaderRangeElt_1_7E = hidden constant { ptr, ptr, ptr } { ptr getelementptr inbounds (ptr, ptr @_ZTVN10__cxxabiv120__si_class_type_infoE, i64 2), ptr @_ZTSN19OpenColorIO_v2_4dev21CTFReaderRangeElt_1_7E, ptr @_ZTIN19OpenColorIO_v2_4dev17CTFReaderRangeEltE }, align 8
@_ZTSN19OpenColorIO_v2_4dev22CTFReaderRangeValueEltE = hidden constant [48 x i8] c"N19OpenColorIO_v2_4dev22CTFReaderRangeValueEltE\00", align 1
@_ZTIN19OpenColorIO_v2_4dev22CTFReaderRangeValueEltE = hidden constant { ptr, ptr, ptr } { ptr getelementptr inbounds (ptr, ptr @_ZTVN10__cxxabiv120__si_class_type_infoE, i64 2), ptr @_ZTSN19OpenColorIO_v2_4dev22CTFReaderRangeValueEltE, ptr @_ZTIN19OpenColorIO_v2_4dev17XmlReaderPlainEltE }, align 8
@_ZTSN19OpenColorIO_v2_4dev21CTFReaderReferenceEltE = hidden constant [47 x i8] c"N19OpenColorIO_v2_4dev21CTFReaderReferenceEltE\00", align 1
@_ZTIN19OpenColorIO_v2_4dev21CTFReaderReferenceEltE = hidden constant { ptr, ptr, ptr } { ptr getelementptr inbounds (ptr, ptr @_ZTVN10__cxxabiv120__si_class_type_infoE, i64 2), ptr @_ZTSN19OpenColorIO_v2_4dev21CTFReaderReferenceEltE, ptr @_ZTIN19OpenColorIO_v2_4dev14CTFReaderOpEltE }, align 8
@.str.166 = private unnamed_addr constant [2 x i8] c"C\00", align 1
@_ZTVN19OpenColorIO_v2_4dev21XmlReaderContainerEltE = linkonce_odr hidden unnamed_addr constant { [11 x ptr] } { [11 x ptr] [ptr null, ptr @_ZTIN19OpenColorIO_v2_4dev21XmlReaderContainerEltE, ptr @_ZN19OpenColorIO_v2_4dev21XmlReaderContainerEltD2Ev, ptr @_ZN19OpenColorIO_v2_4dev21XmlReaderContainerEltD0Ev, ptr @__cxa_pure_virtual, ptr @__cxa_pure_virtual, ptr @_ZNK19OpenColorIO_v2_4dev21XmlReaderContainerElt11isContainerEv, ptr @__cxa_pure_virtual, ptr @__cxa_pure_virtual, ptr @_ZNK19OpenColorIO_v2_4dev16XmlReaderElement7isDummyEv, ptr @__cxa_pure_virtual] }, comdat, align 8
@__libc_single_threaded = external local_unnamed_addr global i8, align 1
@_ZTVN19OpenColorIO_v2_4dev17XmlReaderPlainEltE = linkonce_odr hidden unnamed_addr constant { [11 x ptr] } { [11 x ptr] [ptr null, ptr @_ZTIN19OpenColorIO_v2_4dev17XmlReaderPlainEltE, ptr @_ZN19OpenColorIO_v2_4dev17XmlReaderPlainEltD2Ev, ptr @_ZN19OpenColorIO_v2_4dev17XmlReaderPlainEltD0Ev, ptr @__cxa_pure_virtual, ptr @__cxa_pure_virtual, ptr @_ZNK19OpenColorIO_v2_4dev17XmlReaderPlainElt11isContainerEv, ptr @_ZNK19OpenColorIO_v2_4dev17XmlReaderPlainElt13getIdentifierB5cxx11Ev, ptr @_ZNK19OpenColorIO_v2_4dev17XmlReaderPlainElt11getTypeNameEv, ptr @_ZNK19OpenColorIO_v2_4dev16XmlReaderElement7isDummyEv, ptr @__cxa_pure_virtual] }, comdat, align 8
@.str.167 = private unnamed_addr constant [68 x i8] c"GetNextIndexPair: First number of a pair is the end of the string '\00", align 1
@.str.168 = private unnamed_addr constant [31 x i8] c"ParseNumber: nothing to parse.\00", align 1
@.str.169 = private unnamed_addr constant [27 x i8] c"ParserNumber: Characters '\00", align 1
@.str.170 = private unnamed_addr constant [36 x i8] c"' can not be parsed to numbers in '\00", align 1
@.str.171 = private unnamed_addr constant [19 x i8] c"' are illegal in '\00", align 1
@.str.172 = private unnamed_addr constant [16 x i8] c"ParserNumber: '\00", align 1
@.str.173 = private unnamed_addr constant [51 x i8] c"' number is followed by unexpected characters in '\00", align 1
@_ZTVN19OpenColorIO_v2_4dev19XmlReaderComplexEltE = linkonce_odr hidden unnamed_addr constant { [11 x ptr] } { [11 x ptr] [ptr null, ptr @_ZTIN19OpenColorIO_v2_4dev19XmlReaderComplexEltE, ptr @_ZN19OpenColorIO_v2_4dev19XmlReaderComplexEltD2Ev, ptr @_ZN19OpenColorIO_v2_4dev19XmlReaderComplexEltD0Ev, ptr @__cxa_pure_virtual, ptr @__cxa_pure_virtual, ptr @_ZNK19OpenColorIO_v2_4dev21XmlReaderContainerElt11isContainerEv, ptr @_ZNK19OpenColorIO_v2_4dev19XmlReaderComplexElt13getIdentifierB5cxx11Ev, ptr @_ZNK19OpenColorIO_v2_4dev19XmlReaderComplexElt11getTypeNameEv, ptr @_ZNK19OpenColorIO_v2_4dev16XmlReaderElement7isDummyEv, ptr @_ZN19OpenColorIO_v2_4dev19XmlReaderComplexElt14appendMetadataERKNSt7__cxx1112basic_stringIcSt11char_traitsIcESaIcEEES8_] }, comdat, align 8
@.str.174 = private unnamed_addr constant [52 x i8] c"CTF reader. Invalid Info element version attribute.\00", align 1
@.str.175 = private unnamed_addr constant [3 x i8] c"%d\00", align 1
@.str.176 = private unnamed_addr constant [53 x i8] c"CTF reader. Invalid Info element version attribute: \00", align 1
@.str.177 = private unnamed_addr constant [3 x i8] c" .\00", align 1
@.str.178 = private unnamed_addr constant [57 x i8] c"CTF reader. Unsupported Info element version attribute: \00", align 1
@_ZTVN19OpenColorIO_v2_4dev23XmlReaderSatNodeBaseEltE = linkonce_odr hidden unnamed_addr constant { [12 x ptr] } { [12 x ptr] [ptr null, ptr @_ZTIN19OpenColorIO_v2_4dev23XmlReaderSatNodeBaseEltE, ptr @_ZN19OpenColorIO_v2_4dev23XmlReaderSatNodeBaseEltD2Ev, ptr @_ZN19OpenColorIO_v2_4dev23XmlReaderSatNodeBaseEltD0Ev, ptr @_ZN19OpenColorIO_v2_4dev23XmlReaderSatNodeBaseElt5startEPPKc, ptr @_ZN19OpenColorIO_v2_4dev23XmlReaderSatNodeBaseElt3endEv, ptr @_ZNK19OpenColorIO_v2_4dev21XmlReaderContainerElt11isContainerEv, ptr @_ZNK19OpenColorIO_v2_4dev19XmlReaderComplexElt13getIdentifierB5cxx11Ev, ptr @_ZNK19OpenColorIO_v2_4dev19XmlReaderComplexElt11getTypeNameEv, ptr @_ZNK19OpenColorIO_v2_4dev16XmlReaderElement7isDummyEv, ptr @_ZN19OpenColorIO_v2_4dev23XmlReaderSatNodeBaseElt14appendMetadataERKNSt7__cxx1112basic_stringIcSt11char_traitsIcESaIcEEES8_, ptr @__cxa_pure_virtual] }, comdat, align 8
@_ZTVN19OpenColorIO_v2_4dev23XmlReaderSOPNodeBaseEltE = linkonce_odr hidden unnamed_addr constant { [12 x ptr] } { [12 x ptr] [ptr null, ptr @_ZTIN19OpenColorIO_v2_4dev23XmlReaderSOPNodeBaseEltE, ptr @_ZN19OpenColorIO_v2_4dev23XmlReaderSOPNodeBaseEltD2Ev, ptr @_ZN19OpenColorIO_v2_4dev23XmlReaderSOPNodeBaseEltD0Ev, ptr @_ZN19OpenColorIO_v2_4dev23XmlReaderSOPNodeBaseElt5startEPPKc, ptr @_ZN19OpenColorIO_v2_4dev23XmlReaderSOPNodeBaseElt3endEv, ptr @_ZNK19OpenColorIO_v2_4dev21XmlReaderContainerElt11isContainerEv, ptr @_ZNK19OpenColorIO_v2_4dev19XmlReaderComplexElt13getIdentifierB5cxx11Ev, ptr @_ZNK19OpenColorIO_v2_4dev19XmlReaderComplexElt11getTypeNameEv, ptr @_ZNK19OpenColorIO_v2_4dev16XmlReaderElement7isDummyEv, ptr @_ZN19OpenColorIO_v2_4dev23XmlReaderSOPNodeBaseElt14appendMetadataERKNSt7__cxx1112basic_stringIcSt11char_traitsIcESaIcEEES8_, ptr @__cxa_pure_virtual] }, comdat, align 8
@_ZN19OpenColorIO_v2_4devL17TAG_RGB_CURVE_REDE = internal constant [4 x i8] c"Red\00", align 1
@_ZN19OpenColorIO_v2_4devL19TAG_RGB_CURVE_GREENE = internal constant [6 x i8] c"Green\00", align 1
@_ZN19OpenColorIO_v2_4devL18TAG_RGB_CURVE_BLUEE = internal constant [5 x i8] c"Blue\00", align 1
@_ZN19OpenColorIO_v2_4devL20TAG_RGB_CURVE_MASTERE = internal constant [7 x i8] c"Master\00", align 1
@.str.179 = private unnamed_addr constant [21 x i8] c"Invalid curve name '\00", align 1
@_ZN19OpenColorIO_v2_4devL24METADATA_SAT_DESCRIPTIONE = internal constant [15 x i8] c"SATDescription\00", align 1
@.str.183 = private unnamed_addr constant [35 x i8] c"Required node 'Slope' is missing. \00", align 1
@.str.184 = private unnamed_addr constant [36 x i8] c"Required node 'Offset' is missing. \00", align 1
@.str.185 = private unnamed_addr constant [35 x i8] c"Required node 'Power' is missing. \00", align 1
@_ZN19OpenColorIO_v2_4devL24METADATA_SOP_DESCRIPTIONE = internal constant [15 x i8] c"SOPDescription\00", align 1
@.str.186 = private unnamed_addr constant [26 x i8] c"vector::_M_realloc_insert\00", align 1
@_ZTVSt23_Sp_counted_ptr_inplaceIN19OpenColorIO_v2_4dev18CTFReaderTransformESaIvELN9__gnu_cxx12_Lock_policyE2EE = linkonce_odr hidden unnamed_addr constant { [7 x ptr] } { [7 x ptr] [ptr null, ptr @_ZTISt23_Sp_counted_ptr_inplaceIN19OpenColorIO_v2_4dev18CTFReaderTransformESaIvELN9__gnu_cxx12_Lock_policyE2EE, ptr @_ZNSt23_Sp_counted_ptr_inplaceIN19OpenColorIO_v2_4dev18CTFReaderTransformESaIvELN9__gnu_cxx12_Lock_policyE2EED2Ev, ptr @_ZNSt23_Sp_counted_ptr_inplaceIN19OpenColorIO_v2_4dev18CTFReaderTransformESaIvELN9__gnu_cxx12_Lock_policyE2EED0Ev, ptr @_ZNSt23_Sp_counted_ptr_inplaceIN19OpenColorIO_v2_4dev18CTFReaderTransformESaIvELN9__gnu_cxx12_Lock_policyE2EE10_M_disposeEv, ptr @_ZNSt23_Sp_counted_ptr_inplaceIN19OpenColorIO_v2_4dev18CTFReaderTransformESaIvELN9__gnu_cxx12_Lock_policyE2EE10_M_destroyEv, ptr @_ZNSt23_Sp_counted_ptr_inplaceIN19OpenColorIO_v2_4dev18CTFReaderTransformESaIvELN9__gnu_cxx12_Lock_policyE2EE14_M_get_deleterERKSt9type_info] }, comdat, align 8
@_ZTSSt23_Sp_counted_ptr_inplaceIN19OpenColorIO_v2_4dev18CTFReaderTransformESaIvELN9__gnu_cxx12_Lock_policyE2EE = linkonce_odr hidden constant [107 x i8] c"St23_Sp_counted_ptr_inplaceIN19OpenColorIO_v2_4dev18CTFReaderTransformESaIvELN9__gnu_cxx12_Lock_policyE2EE\00", comdat, align 1
@_ZTSSt16_Sp_counted_baseILN9__gnu_cxx12_Lock_policyE2EE = linkonce_odr constant [52 x i8] c"St16_Sp_counted_baseILN9__gnu_cxx12_Lock_policyE2EE\00", comdat, align 1
@_ZTSSt11_Mutex_baseILN9__gnu_cxx12_Lock_policyE2EE = linkonce_odr constant [47 x i8] c"St11_Mutex_baseILN9__gnu_cxx12_Lock_policyE2EE\00", comdat, align 1
@_ZTISt11_Mutex_baseILN9__gnu_cxx12_Lock_policyE2EE = linkonce_odr constant { ptr, ptr } { ptr getelementptr inbounds (ptr, ptr @_ZTVN10__cxxabiv117__class_type_infoE, i64 2), ptr @_ZTSSt11_Mutex_baseILN9__gnu_cxx12_Lock_policyE2EE }, comdat, align 8
@_ZTISt16_Sp_counted_baseILN9__gnu_cxx12_Lock_policyE2EE = linkonce_odr constant { ptr, ptr, ptr } { ptr getelementptr inbounds (ptr, ptr @_ZTVN10__cxxabiv120__si_class_type_infoE, i64 2), ptr @_ZTSSt16_Sp_counted_baseILN9__gnu_cxx12_Lock_policyE2EE, ptr @_ZTISt11_Mutex_baseILN9__gnu_cxx12_Lock_policyE2EE }, comdat, align 8
@_ZTISt23_Sp_counted_ptr_inplaceIN19OpenColorIO_v2_4dev18CTFReaderTransformESaIvELN9__gnu_cxx12_Lock_policyE2EE = linkonce_odr hidden constant { ptr, ptr, ptr } { ptr getelementptr inbounds (ptr, ptr @_ZTVN10__cxxabiv120__si_class_type_infoE, i64 2), ptr @_ZTSSt23_Sp_counted_ptr_inplaceIN19OpenColorIO_v2_4dev18CTFReaderTransformESaIvELN9__gnu_cxx12_Lock_policyE2EE, ptr @_ZTISt16_Sp_counted_baseILN9__gnu_cxx12_Lock_policyE2EE }, comdat, align 8
@_ZTSSt19_Sp_make_shared_tag = linkonce_odr constant [24 x i8] c"St19_Sp_make_shared_tag\00", comdat, align 1
@_ZZNSt19_Sp_make_shared_tag5_S_tiEvE5__tag = linkonce_odr constant [16 x i8] zeroinitializer, comdat, align 8
@_ZTVSt23_Sp_counted_ptr_inplaceIN19OpenColorIO_v2_4dev16CTFReaderACESEltESaIvELN9__gnu_cxx12_Lock_policyE2EE = linkonce_odr hidden unnamed_addr constant { [7 x ptr] } { [7 x ptr] [ptr null, ptr @_ZTISt23_Sp_counted_ptr_inplaceIN19OpenColorIO_v2_4dev16CTFReaderACESEltESaIvELN9__gnu_cxx12_Lock_policyE2EE, ptr @_ZNSt23_Sp_counted_ptr_inplaceIN19OpenColorIO_v2_4dev16CTFReaderACESEltESaIvELN9__gnu_cxx12_Lock_policyE2EED2Ev, ptr @_ZNSt23_Sp_counted_ptr_inplaceIN19OpenColorIO_v2_4dev16CTFReaderACESEltESaIvELN9__gnu_cxx12_Lock_policyE2EED0Ev, ptr @_ZNSt23_Sp_counted_ptr_inplaceIN19OpenColorIO_v2_4dev16CTFReaderACESEltESaIvELN9__gnu_cxx12_Lock_policyE2EE10_M_disposeEv, ptr @_ZNSt23_Sp_counted_ptr_inplaceIN19OpenColorIO_v2_4dev16CTFReaderACESEltESaIvELN9__gnu_cxx12_Lock_policyE2EE10_M_destroyEv, ptr @_ZNSt23_Sp_counted_ptr_inplaceIN19OpenColorIO_v2_4dev16CTFReaderACESEltESaIvELN9__gnu_cxx12_Lock_policyE2EE14_M_get_deleterERKSt9type_info] }, comdat, align 8
@_ZTSSt23_Sp_counted_ptr_inplaceIN19OpenColorIO_v2_4dev16CTFReaderACESEltESaIvELN9__gnu_cxx12_Lock_policyE2EE = linkonce_odr hidden constant [105 x i8] c"St23_Sp_counted_ptr_inplaceIN19OpenColorIO_v2_4dev16CTFReaderACESEltESaIvELN9__gnu_cxx12_Lock_policyE2EE\00", comdat, align 1
@_ZTISt23_Sp_counted_ptr_inplaceIN19OpenColorIO_v2_4dev16CTFReaderACESEltESaIvELN9__gnu_cxx12_Lock_policyE2EE = linkonce_odr hidden constant { ptr, ptr, ptr } { ptr getelementptr inbounds (ptr, ptr @_ZTVN10__cxxabiv120__si_class_type_infoE, i64 2), ptr @_ZTSSt23_Sp_counted_ptr_inplaceIN19OpenColorIO_v2_4dev16CTFReaderACESEltESaIvELN9__gnu_cxx12_Lock_policyE2EE, ptr @_ZTISt16_Sp_counted_baseILN9__gnu_cxx12_Lock_policyE2EE }, comdat, align 8
@_ZTVSt23_Sp_counted_ptr_inplaceIN19OpenColorIO_v2_4dev15CTFReaderCDLEltESaIvELN9__gnu_cxx12_Lock_policyE2EE = linkonce_odr hidden unnamed_addr constant { [7 x ptr] } { [7 x ptr] [ptr null, ptr @_ZTISt23_Sp_counted_ptr_inplaceIN19OpenColorIO_v2_4dev15CTFReaderCDLEltESaIvELN9__gnu_cxx12_Lock_policyE2EE, ptr @_ZNSt23_Sp_counted_ptr_inplaceIN19OpenColorIO_v2_4dev15CTFReaderCDLEltESaIvELN9__gnu_cxx12_Lock_policyE2EED2Ev, ptr @_ZNSt23_Sp_counted_ptr_inplaceIN19OpenColorIO_v2_4dev15CTFReaderCDLEltESaIvELN9__gnu_cxx12_Lock_policyE2EED0Ev, ptr @_ZNSt23_Sp_counted_ptr_inplaceIN19OpenColorIO_v2_4dev15CTFReaderCDLEltESaIvELN9__gnu_cxx12_Lock_policyE2EE10_M_disposeEv, ptr @_ZNSt23_Sp_counted_ptr_inplaceIN19OpenColorIO_v2_4dev15CTFReaderCDLEltESaIvELN9__gnu_cxx12_Lock_policyE2EE10_M_destroyEv, ptr @_ZNSt23_Sp_counted_ptr_inplaceIN19OpenColorIO_v2_4dev15CTFReaderCDLEltESaIvELN9__gnu_cxx12_Lock_policyE2EE14_M_get_deleterERKSt9type_info] }, comdat, align 8
@_ZTSSt23_Sp_counted_ptr_inplaceIN19OpenColorIO_v2_4dev15CTFReaderCDLEltESaIvELN9__gnu_cxx12_Lock_policyE2EE = linkonce_odr hidden constant [104 x i8] c"St23_Sp_counted_ptr_inplaceIN19OpenColorIO_v2_4dev15CTFReaderCDLEltESaIvELN9__gnu_cxx12_Lock_policyE2EE\00", comdat, align 1
@_ZTISt23_Sp_counted_ptr_inplaceIN19OpenColorIO_v2_4dev15CTFReaderCDLEltESaIvELN9__gnu_cxx12_Lock_policyE2EE = linkonce_odr hidden constant { ptr, ptr, ptr } { ptr getelementptr inbounds (ptr, ptr @_ZTVN10__cxxabiv120__si_class_type_infoE, i64 2), ptr @_ZTSSt23_Sp_counted_ptr_inplaceIN19OpenColorIO_v2_4dev15CTFReaderCDLEltESaIvELN9__gnu_cxx12_Lock_policyE2EE, ptr @_ZTISt16_Sp_counted_baseILN9__gnu_cxx12_Lock_policyE2EE }, comdat, align 8
@_ZTVSt23_Sp_counted_ptr_inplaceIN19OpenColorIO_v2_4dev28CTFReaderExposureContrastEltESaIvELN9__gnu_cxx12_Lock_policyE2EE = linkonce_odr hidden unnamed_addr constant { [7 x ptr] } { [7 x ptr] [ptr null, ptr @_ZTISt23_Sp_counted_ptr_inplaceIN19OpenColorIO_v2_4dev28CTFReaderExposureContrastEltESaIvELN9__gnu_cxx12_Lock_policyE2EE, ptr @_ZNSt23_Sp_counted_ptr_inplaceIN19OpenColorIO_v2_4dev28CTFReaderExposureContrastEltESaIvELN9__gnu_cxx12_Lock_policyE2EED2Ev, ptr @_ZNSt23_Sp_counted_ptr_inplaceIN19OpenColorIO_v2_4dev28CTFReaderExposureContrastEltESaIvELN9__gnu_cxx12_Lock_policyE2EED0Ev, ptr @_ZNSt23_Sp_counted_ptr_inplaceIN19OpenColorIO_v2_4dev28CTFReaderExposureContrastEltESaIvELN9__gnu_cxx12_Lock_policyE2EE10_M_disposeEv, ptr @_ZNSt23_Sp_counted_ptr_inplaceIN19OpenColorIO_v2_4dev28CTFReaderExposureContrastEltESaIvELN9__gnu_cxx12_Lock_policyE2EE10_M_destroyEv, ptr @_ZNSt23_Sp_counted_ptr_inplaceIN19OpenColorIO_v2_4dev28CTFReaderExposureContrastEltESaIvELN9__gnu_cxx12_Lock_policyE2EE14_M_get_deleterERKSt9type_info] }, comdat, align 8
@_ZTSSt23_Sp_counted_ptr_inplaceIN19OpenColorIO_v2_4dev28CTFReaderExposureContrastEltESaIvELN9__gnu_cxx12_Lock_policyE2EE = linkonce_odr hidden constant [117 x i8] c"St23_Sp_counted_ptr_inplaceIN19OpenColorIO_v2_4dev28CTFReaderExposureContrastEltESaIvELN9__gnu_cxx12_Lock_policyE2EE\00", comdat, align 1
@_ZTISt23_Sp_counted_ptr_inplaceIN19OpenColorIO_v2_4dev28CTFReaderExposureContrastEltESaIvELN9__gnu_cxx12_Lock_policyE2EE = linkonce_odr hidden constant { ptr, ptr, ptr } { ptr getelementptr inbounds (ptr, ptr @_ZTVN10__cxxabiv120__si_class_type_infoE, i64 2), ptr @_ZTSSt23_Sp_counted_ptr_inplaceIN19OpenColorIO_v2_4dev28CTFReaderExposureContrastEltESaIvELN9__gnu_cxx12_Lock_policyE2EE, ptr @_ZTISt16_Sp_counted_baseILN9__gnu_cxx12_Lock_policyE2EE }, comdat, align 8
@_ZTVSt23_Sp_counted_ptr_inplaceIN19OpenColorIO_v2_4dev25CTFReaderFixedFunctionEltESaIvELN9__gnu_cxx12_Lock_policyE2EE = linkonce_odr hidden unnamed_addr constant { [7 x ptr] } { [7 x ptr] [ptr null, ptr @_ZTISt23_Sp_counted_ptr_inplaceIN19OpenColorIO_v2_4dev25CTFReaderFixedFunctionEltESaIvELN9__gnu_cxx12_Lock_policyE2EE, ptr @_ZNSt23_Sp_counted_ptr_inplaceIN19OpenColorIO_v2_4dev25CTFReaderFixedFunctionEltESaIvELN9__gnu_cxx12_Lock_policyE2EED2Ev, ptr @_ZNSt23_Sp_counted_ptr_inplaceIN19OpenColorIO_v2_4dev25CTFReaderFixedFunctionEltESaIvELN9__gnu_cxx12_Lock_policyE2EED0Ev, ptr @_ZNSt23_Sp_counted_ptr_inplaceIN19OpenColorIO_v2_4dev25CTFReaderFixedFunctionEltESaIvELN9__gnu_cxx12_Lock_policyE2EE10_M_disposeEv, ptr @_ZNSt23_Sp_counted_ptr_inplaceIN19OpenColorIO_v2_4dev25CTFReaderFixedFunctionEltESaIvELN9__gnu_cxx12_Lock_policyE2EE10_M_destroyEv, ptr @_ZNSt23_Sp_counted_ptr_inplaceIN19OpenColorIO_v2_4dev25CTFReaderFixedFunctionEltESaIvELN9__gnu_cxx12_Lock_policyE2EE14_M_get_deleterERKSt9type_info] }, comdat, align 8
@_ZTSSt23_Sp_counted_ptr_inplaceIN19OpenColorIO_v2_4dev25CTFReaderFixedFunctionEltESaIvELN9__gnu_cxx12_Lock_policyE2EE = linkonce_odr hidden constant [114 x i8] c"St23_Sp_counted_ptr_inplaceIN19OpenColorIO_v2_4dev25CTFReaderFixedFunctionEltESaIvELN9__gnu_cxx12_Lock_policyE2EE\00", comdat, align 1
@_ZTISt23_Sp_counted_ptr_inplaceIN19OpenColorIO_v2_4dev25CTFReaderFixedFunctionEltESaIvELN9__gnu_cxx12_Lock_policyE2EE = linkonce_odr hidden constant { ptr, ptr, ptr } { ptr getelementptr inbounds (ptr, ptr @_ZTVN10__cxxabiv120__si_class_type_infoE, i64 2), ptr @_ZTSSt23_Sp_counted_ptr_inplaceIN19OpenColorIO_v2_4dev25CTFReaderFixedFunctionEltESaIvELN9__gnu_cxx12_Lock_policyE2EE, ptr @_ZTISt16_Sp_counted_baseILN9__gnu_cxx12_Lock_policyE2EE }, comdat, align 8
@_ZTVSt23_Sp_counted_ptr_inplaceIN19OpenColorIO_v2_4dev20CTFReaderFunctionEltESaIvELN9__gnu_cxx12_Lock_policyE2EE = linkonce_odr hidden unnamed_addr constant { [7 x ptr] } { [7 x ptr] [ptr null, ptr @_ZTISt23_Sp_counted_ptr_inplaceIN19OpenColorIO_v2_4dev20CTFReaderFunctionEltESaIvELN9__gnu_cxx12_Lock_policyE2EE, ptr @_ZNSt23_Sp_counted_ptr_inplaceIN19OpenColorIO_v2_4dev20CTFReaderFunctionEltESaIvELN9__gnu_cxx12_Lock_policyE2EED2Ev, ptr @_ZNSt23_Sp_counted_ptr_inplaceIN19OpenColorIO_v2_4dev20CTFReaderFunctionEltESaIvELN9__gnu_cxx12_Lock_policyE2EED0Ev, ptr @_ZNSt23_Sp_counted_ptr_inplaceIN19OpenColorIO_v2_4dev20CTFReaderFunctionEltESaIvELN9__gnu_cxx12_Lock_policyE2EE10_M_disposeEv, ptr @_ZNSt23_Sp_counted_ptr_inplaceIN19OpenColorIO_v2_4dev20CTFReaderFunctionEltESaIvELN9__gnu_cxx12_Lock_policyE2EE10_M_destroyEv, ptr @_ZNSt23_Sp_counted_ptr_inplaceIN19OpenColorIO_v2_4dev20CTFReaderFunctionEltESaIvELN9__gnu_cxx12_Lock_policyE2EE14_M_get_deleterERKSt9type_info] }, comdat, align 8
@_ZTSSt23_Sp_counted_ptr_inplaceIN19OpenColorIO_v2_4dev20CTFReaderFunctionEltESaIvELN9__gnu_cxx12_Lock_policyE2EE = linkonce_odr hidden constant [109 x i8] c"St23_Sp_counted_ptr_inplaceIN19OpenColorIO_v2_4dev20CTFReaderFunctionEltESaIvELN9__gnu_cxx12_Lock_policyE2EE\00", comdat, align 1
@_ZTISt23_Sp_counted_ptr_inplaceIN19OpenColorIO_v2_4dev20CTFReaderFunctionEltESaIvELN9__gnu_cxx12_Lock_policyE2EE = linkonce_odr hidden constant { ptr, ptr, ptr } { ptr getelementptr inbounds (ptr, ptr @_ZTVN10__cxxabiv120__si_class_type_infoE, i64 2), ptr @_ZTSSt23_Sp_counted_ptr_inplaceIN19OpenColorIO_v2_4dev20CTFReaderFunctionEltESaIvELN9__gnu_cxx12_Lock_policyE2EE, ptr @_ZTISt16_Sp_counted_baseILN9__gnu_cxx12_Lock_policyE2EE }, comdat, align 8
@_ZTVSt23_Sp_counted_ptr_inplaceIN19OpenColorIO_v2_4dev17CTFReaderGammaEltESaIvELN9__gnu_cxx12_Lock_policyE2EE = linkonce_odr hidden unnamed_addr constant { [7 x ptr] } { [7 x ptr] [ptr null, ptr @_ZTISt23_Sp_counted_ptr_inplaceIN19OpenColorIO_v2_4dev17CTFReaderGammaEltESaIvELN9__gnu_cxx12_Lock_policyE2EE, ptr @_ZNSt23_Sp_counted_ptr_inplaceIN19OpenColorIO_v2_4dev17CTFReaderGammaEltESaIvELN9__gnu_cxx12_Lock_policyE2EED2Ev, ptr @_ZNSt23_Sp_counted_ptr_inplaceIN19OpenColorIO_v2_4dev17CTFReaderGammaEltESaIvELN9__gnu_cxx12_Lock_policyE2EED0Ev, ptr @_ZNSt23_Sp_counted_ptr_inplaceIN19OpenColorIO_v2_4dev17CTFReaderGammaEltESaIvELN9__gnu_cxx12_Lock_policyE2EE10_M_disposeEv, ptr @_ZNSt23_Sp_counted_ptr_inplaceIN19OpenColorIO_v2_4dev17CTFReaderGammaEltESaIvELN9__gnu_cxx12_Lock_policyE2EE10_M_destroyEv, ptr @_ZNSt23_Sp_counted_ptr_inplaceIN19OpenColorIO_v2_4dev17CTFReaderGammaEltESaIvELN9__gnu_cxx12_Lock_policyE2EE14_M_get_deleterERKSt9type_info] }, comdat, align 8
@_ZTSSt23_Sp_counted_ptr_inplaceIN19OpenColorIO_v2_4dev17CTFReaderGammaEltESaIvELN9__gnu_cxx12_Lock_policyE2EE = linkonce_odr hidden constant [106 x i8] c"St23_Sp_counted_ptr_inplaceIN19OpenColorIO_v2_4dev17CTFReaderGammaEltESaIvELN9__gnu_cxx12_Lock_policyE2EE\00", comdat, align 1
@_ZTISt23_Sp_counted_ptr_inplaceIN19OpenColorIO_v2_4dev17CTFReaderGammaEltESaIvELN9__gnu_cxx12_Lock_policyE2EE = linkonce_odr hidden constant { ptr, ptr, ptr } { ptr getelementptr inbounds (ptr, ptr @_ZTVN10__cxxabiv120__si_class_type_infoE, i64 2), ptr @_ZTSSt23_Sp_counted_ptr_inplaceIN19OpenColorIO_v2_4dev17CTFReaderGammaEltESaIvELN9__gnu_cxx12_Lock_policyE2EE, ptr @_ZTISt16_Sp_counted_baseILN9__gnu_cxx12_Lock_policyE2EE }, comdat, align 8
@_ZTVSt23_Sp_counted_ptr_inplaceIN19OpenColorIO_v2_4dev21CTFReaderGammaElt_1_5ESaIvELN9__gnu_cxx12_Lock_policyE2EE = linkonce_odr hidden unnamed_addr constant { [7 x ptr] } { [7 x ptr] [ptr null, ptr @_ZTISt23_Sp_counted_ptr_inplaceIN19OpenColorIO_v2_4dev21CTFReaderGammaElt_1_5ESaIvELN9__gnu_cxx12_Lock_policyE2EE, ptr @_ZNSt23_Sp_counted_ptr_inplaceIN19OpenColorIO_v2_4dev21CTFReaderGammaElt_1_5ESaIvELN9__gnu_cxx12_Lock_policyE2EED2Ev, ptr @_ZNSt23_Sp_counted_ptr_inplaceIN19OpenColorIO_v2_4dev21CTFReaderGammaElt_1_5ESaIvELN9__gnu_cxx12_Lock_policyE2EED0Ev, ptr @_ZNSt23_Sp_counted_ptr_inplaceIN19OpenColorIO_v2_4dev21CTFReaderGammaElt_1_5ESaIvELN9__gnu_cxx12_Lock_policyE2EE10_M_disposeEv, ptr @_ZNSt23_Sp_counted_ptr_inplaceIN19OpenColorIO_v2_4dev21CTFReaderGammaElt_1_5ESaIvELN9__gnu_cxx12_Lock_policyE2EE10_M_destroyEv, ptr @_ZNSt23_Sp_counted_ptr_inplaceIN19OpenColorIO_v2_4dev21CTFReaderGammaElt_1_5ESaIvELN9__gnu_cxx12_Lock_policyE2EE14_M_get_deleterERKSt9type_info] }, comdat, align 8
@_ZTSSt23_Sp_counted_ptr_inplaceIN19OpenColorIO_v2_4dev21CTFReaderGammaElt_1_5ESaIvELN9__gnu_cxx12_Lock_policyE2EE = linkonce_odr hidden constant [110 x i8] c"St23_Sp_counted_ptr_inplaceIN19OpenColorIO_v2_4dev21CTFReaderGammaElt_1_5ESaIvELN9__gnu_cxx12_Lock_policyE2EE\00", comdat, align 1
@_ZTISt23_Sp_counted_ptr_inplaceIN19OpenColorIO_v2_4dev21CTFReaderGammaElt_1_5ESaIvELN9__gnu_cxx12_Lock_policyE2EE = linkonce_odr hidden constant { ptr, ptr, ptr } { ptr getelementptr inbounds (ptr, ptr @_ZTVN10__cxxabiv120__si_class_type_infoE, i64 2), ptr @_ZTSSt23_Sp_counted_ptr_inplaceIN19OpenColorIO_v2_4dev21CTFReaderGammaElt_1_5ESaIvELN9__gnu_cxx12_Lock_policyE2EE, ptr @_ZTISt16_Sp_counted_baseILN9__gnu_cxx12_Lock_policyE2EE }, comdat, align 8
@_ZTVSt23_Sp_counted_ptr_inplaceIN19OpenColorIO_v2_4dev25CTFReaderGammaElt_CTF_2_0ESaIvELN9__gnu_cxx12_Lock_policyE2EE = linkonce_odr hidden unnamed_addr constant { [7 x ptr] } { [7 x ptr] [ptr null, ptr @_ZTISt23_Sp_counted_ptr_inplaceIN19OpenColorIO_v2_4dev25CTFReaderGammaElt_CTF_2_0ESaIvELN9__gnu_cxx12_Lock_policyE2EE, ptr @_ZNSt23_Sp_counted_ptr_inplaceIN19OpenColorIO_v2_4dev25CTFReaderGammaElt_CTF_2_0ESaIvELN9__gnu_cxx12_Lock_policyE2EED2Ev, ptr @_ZNSt23_Sp_counted_ptr_inplaceIN19OpenColorIO_v2_4dev25CTFReaderGammaElt_CTF_2_0ESaIvELN9__gnu_cxx12_Lock_policyE2EED0Ev, ptr @_ZNSt23_Sp_counted_ptr_inplaceIN19OpenColorIO_v2_4dev25CTFReaderGammaElt_CTF_2_0ESaIvELN9__gnu_cxx12_Lock_policyE2EE10_M_disposeEv, ptr @_ZNSt23_Sp_counted_ptr_inplaceIN19OpenColorIO_v2_4dev25CTFReaderGammaElt_CTF_2_0ESaIvELN9__gnu_cxx12_Lock_policyE2EE10_M_destroyEv, ptr @_ZNSt23_Sp_counted_ptr_inplaceIN19OpenColorIO_v2_4dev25CTFReaderGammaElt_CTF_2_0ESaIvELN9__gnu_cxx12_Lock_policyE2EE14_M_get_deleterERKSt9type_info] }, comdat, align 8
@_ZTSSt23_Sp_counted_ptr_inplaceIN19OpenColorIO_v2_4dev25CTFReaderGammaElt_CTF_2_0ESaIvELN9__gnu_cxx12_Lock_policyE2EE = linkonce_odr hidden constant [114 x i8] c"St23_Sp_counted_ptr_inplaceIN19OpenColorIO_v2_4dev25CTFReaderGammaElt_CTF_2_0ESaIvELN9__gnu_cxx12_Lock_policyE2EE\00", comdat, align 1
@_ZTISt23_Sp_counted_ptr_inplaceIN19OpenColorIO_v2_4dev25CTFReaderGammaElt_CTF_2_0ESaIvELN9__gnu_cxx12_Lock_policyE2EE = linkonce_odr hidden constant { ptr, ptr, ptr } { ptr getelementptr inbounds (ptr, ptr @_ZTVN10__cxxabiv120__si_class_type_infoE, i64 2), ptr @_ZTSSt23_Sp_counted_ptr_inplaceIN19OpenColorIO_v2_4dev25CTFReaderGammaElt_CTF_2_0ESaIvELN9__gnu_cxx12_Lock_policyE2EE, ptr @_ZTISt16_Sp_counted_baseILN9__gnu_cxx12_Lock_policyE2EE }, comdat, align 8
@_ZTVSt23_Sp_counted_ptr_inplaceIN19OpenColorIO_v2_4dev25CTFReaderGammaElt_CLF_3_0ESaIvELN9__gnu_cxx12_Lock_policyE2EE = linkonce_odr hidden unnamed_addr constant { [7 x ptr] } { [7 x ptr] [ptr null, ptr @_ZTISt23_Sp_counted_ptr_inplaceIN19OpenColorIO_v2_4dev25CTFReaderGammaElt_CLF_3_0ESaIvELN9__gnu_cxx12_Lock_policyE2EE, ptr @_ZNSt23_Sp_counted_ptr_inplaceIN19OpenColorIO_v2_4dev25CTFReaderGammaElt_CLF_3_0ESaIvELN9__gnu_cxx12_Lock_policyE2EED2Ev, ptr @_ZNSt23_Sp_counted_ptr_inplaceIN19OpenColorIO_v2_4dev25CTFReaderGammaElt_CLF_3_0ESaIvELN9__gnu_cxx12_Lock_policyE2EED0Ev, ptr @_ZNSt23_Sp_counted_ptr_inplaceIN19OpenColorIO_v2_4dev25CTFReaderGammaElt_CLF_3_0ESaIvELN9__gnu_cxx12_Lock_policyE2EE10_M_disposeEv, ptr @_ZNSt23_Sp_counted_ptr_inplaceIN19OpenColorIO_v2_4dev25CTFReaderGammaElt_CLF_3_0ESaIvELN9__gnu_cxx12_Lock_policyE2EE10_M_destroyEv, ptr @_ZNSt23_Sp_counted_ptr_inplaceIN19OpenColorIO_v2_4dev25CTFReaderGammaElt_CLF_3_0ESaIvELN9__gnu_cxx12_Lock_policyE2EE14_M_get_deleterERKSt9type_info] }, comdat, align 8
@_ZTSSt23_Sp_counted_ptr_inplaceIN19OpenColorIO_v2_4dev25CTFReaderGammaElt_CLF_3_0ESaIvELN9__gnu_cxx12_Lock_policyE2EE = linkonce_odr hidden constant [114 x i8] c"St23_Sp_counted_ptr_inplaceIN19OpenColorIO_v2_4dev25CTFReaderGammaElt_CLF_3_0ESaIvELN9__gnu_cxx12_Lock_policyE2EE\00", comdat, align 1
@_ZTISt23_Sp_counted_ptr_inplaceIN19OpenColorIO_v2_4dev25CTFReaderGammaElt_CLF_3_0ESaIvELN9__gnu_cxx12_Lock_policyE2EE = linkonce_odr hidden constant { ptr, ptr, ptr } { ptr getelementptr inbounds (ptr, ptr @_ZTVN10__cxxabiv120__si_class_type_infoE, i64 2), ptr @_ZTSSt23_Sp_counted_ptr_inplaceIN19OpenColorIO_v2_4dev25CTFReaderGammaElt_CLF_3_0ESaIvELN9__gnu_cxx12_Lock_policyE2EE, ptr @_ZTISt16_Sp_counted_baseILN9__gnu_cxx12_Lock_policyE2EE }, comdat, align 8
@_ZTVSt23_Sp_counted_ptr_inplaceIN19OpenColorIO_v2_4dev26CTFReaderGradingPrimaryEltESaIvELN9__gnu_cxx12_Lock_policyE2EE = linkonce_odr hidden unnamed_addr constant { [7 x ptr] } { [7 x ptr] [ptr null, ptr @_ZTISt23_Sp_counted_ptr_inplaceIN19OpenColorIO_v2_4dev26CTFReaderGradingPrimaryEltESaIvELN9__gnu_cxx12_Lock_policyE2EE, ptr @_ZNSt23_Sp_counted_ptr_inplaceIN19OpenColorIO_v2_4dev26CTFReaderGradingPrimaryEltESaIvELN9__gnu_cxx12_Lock_policyE2EED2Ev, ptr @_ZNSt23_Sp_counted_ptr_inplaceIN19OpenColorIO_v2_4dev26CTFReaderGradingPrimaryEltESaIvELN9__gnu_cxx12_Lock_policyE2EED0Ev, ptr @_ZNSt23_Sp_counted_ptr_inplaceIN19OpenColorIO_v2_4dev26CTFReaderGradingPrimaryEltESaIvELN9__gnu_cxx12_Lock_policyE2EE10_M_disposeEv, ptr @_ZNSt23_Sp_counted_ptr_inplaceIN19OpenColorIO_v2_4dev26CTFReaderGradingPrimaryEltESaIvELN9__gnu_cxx12_Lock_policyE2EE10_M_destroyEv, ptr @_ZNSt23_Sp_counted_ptr_inplaceIN19OpenColorIO_v2_4dev26CTFReaderGradingPrimaryEltESaIvELN9__gnu_cxx12_Lock_policyE2EE14_M_get_deleterERKSt9type_info] }, comdat, align 8
@_ZTSSt23_Sp_counted_ptr_inplaceIN19OpenColorIO_v2_4dev26CTFReaderGradingPrimaryEltESaIvELN9__gnu_cxx12_Lock_policyE2EE = linkonce_odr hidden constant [115 x i8] c"St23_Sp_counted_ptr_inplaceIN19OpenColorIO_v2_4dev26CTFReaderGradingPrimaryEltESaIvELN9__gnu_cxx12_Lock_policyE2EE\00", comdat, align 1
@_ZTISt23_Sp_counted_ptr_inplaceIN19OpenColorIO_v2_4dev26CTFReaderGradingPrimaryEltESaIvELN9__gnu_cxx12_Lock_policyE2EE = linkonce_odr hidden constant { ptr, ptr, ptr } { ptr getelementptr inbounds (ptr, ptr @_ZTVN10__cxxabiv120__si_class_type_infoE, i64 2), ptr @_ZTSSt23_Sp_counted_ptr_inplaceIN19OpenColorIO_v2_4dev26CTFReaderGradingPrimaryEltESaIvELN9__gnu_cxx12_Lock_policyE2EE, ptr @_ZTISt16_Sp_counted_baseILN9__gnu_cxx12_Lock_policyE2EE }, comdat, align 8
@_ZTVSt23_Sp_counted_ptr_inplaceIN19OpenColorIO_v2_4dev27CTFReaderGradingRGBCurveEltESaIvELN9__gnu_cxx12_Lock_policyE2EE = linkonce_odr hidden unnamed_addr constant { [7 x ptr] } { [7 x ptr] [ptr null, ptr @_ZTISt23_Sp_counted_ptr_inplaceIN19OpenColorIO_v2_4dev27CTFReaderGradingRGBCurveEltESaIvELN9__gnu_cxx12_Lock_policyE2EE, ptr @_ZNSt23_Sp_counted_ptr_inplaceIN19OpenColorIO_v2_4dev27CTFReaderGradingRGBCurveEltESaIvELN9__gnu_cxx12_Lock_policyE2EED2Ev, ptr @_ZNSt23_Sp_counted_ptr_inplaceIN19OpenColorIO_v2_4dev27CTFReaderGradingRGBCurveEltESaIvELN9__gnu_cxx12_Lock_policyE2EED0Ev, ptr @_ZNSt23_Sp_counted_ptr_inplaceIN19OpenColorIO_v2_4dev27CTFReaderGradingRGBCurveEltESaIvELN9__gnu_cxx12_Lock_policyE2EE10_M_disposeEv, ptr @_ZNSt23_Sp_counted_ptr_inplaceIN19OpenColorIO_v2_4dev27CTFReaderGradingRGBCurveEltESaIvELN9__gnu_cxx12_Lock_policyE2EE10_M_destroyEv, ptr @_ZNSt23_Sp_counted_ptr_inplaceIN19OpenColorIO_v2_4dev27CTFReaderGradingRGBCurveEltESaIvELN9__gnu_cxx12_Lock_policyE2EE14_M_get_deleterERKSt9type_info] }, comdat, align 8
@_ZTSSt23_Sp_counted_ptr_inplaceIN19OpenColorIO_v2_4dev27CTFReaderGradingRGBCurveEltESaIvELN9__gnu_cxx12_Lock_policyE2EE = linkonce_odr hidden constant [116 x i8] c"St23_Sp_counted_ptr_inplaceIN19OpenColorIO_v2_4dev27CTFReaderGradingRGBCurveEltESaIvELN9__gnu_cxx12_Lock_policyE2EE\00", comdat, align 1
@_ZTISt23_Sp_counted_ptr_inplaceIN19OpenColorIO_v2_4dev27CTFReaderGradingRGBCurveEltESaIvELN9__gnu_cxx12_Lock_policyE2EE = linkonce_odr hidden constant { ptr, ptr, ptr } { ptr getelementptr inbounds (ptr, ptr @_ZTVN10__cxxabiv120__si_class_type_infoE, i64 2), ptr @_ZTSSt23_Sp_counted_ptr_inplaceIN19OpenColorIO_v2_4dev27CTFReaderGradingRGBCurveEltESaIvELN9__gnu_cxx12_Lock_policyE2EE, ptr @_ZTISt16_Sp_counted_baseILN9__gnu_cxx12_Lock_policyE2EE }, comdat, align 8
@_ZTVSt23_Sp_counted_ptr_inplaceIN19OpenColorIO_v2_4dev23CTFReaderGradingToneEltESaIvELN9__gnu_cxx12_Lock_policyE2EE = linkonce_odr hidden unnamed_addr constant { [7 x ptr] } { [7 x ptr] [ptr null, ptr @_ZTISt23_Sp_counted_ptr_inplaceIN19OpenColorIO_v2_4dev23CTFReaderGradingToneEltESaIvELN9__gnu_cxx12_Lock_policyE2EE, ptr @_ZNSt23_Sp_counted_ptr_inplaceIN19OpenColorIO_v2_4dev23CTFReaderGradingToneEltESaIvELN9__gnu_cxx12_Lock_policyE2EED2Ev, ptr @_ZNSt23_Sp_counted_ptr_inplaceIN19OpenColorIO_v2_4dev23CTFReaderGradingToneEltESaIvELN9__gnu_cxx12_Lock_policyE2EED0Ev, ptr @_ZNSt23_Sp_counted_ptr_inplaceIN19OpenColorIO_v2_4dev23CTFReaderGradingToneEltESaIvELN9__gnu_cxx12_Lock_policyE2EE10_M_disposeEv, ptr @_ZNSt23_Sp_counted_ptr_inplaceIN19OpenColorIO_v2_4dev23CTFReaderGradingToneEltESaIvELN9__gnu_cxx12_Lock_policyE2EE10_M_destroyEv, ptr @_ZNSt23_Sp_counted_ptr_inplaceIN19OpenColorIO_v2_4dev23CTFReaderGradingToneEltESaIvELN9__gnu_cxx12_Lock_policyE2EE14_M_get_deleterERKSt9type_info] }, comdat, align 8
@_ZTSSt23_Sp_counted_ptr_inplaceIN19OpenColorIO_v2_4dev23CTFReaderGradingToneEltESaIvELN9__gnu_cxx12_Lock_policyE2EE = linkonce_odr hidden constant [112 x i8] c"St23_Sp_counted_ptr_inplaceIN19OpenColorIO_v2_4dev23CTFReaderGradingToneEltESaIvELN9__gnu_cxx12_Lock_policyE2EE\00", comdat, align 1
@_ZTISt23_Sp_counted_ptr_inplaceIN19OpenColorIO_v2_4dev23CTFReaderGradingToneEltESaIvELN9__gnu_cxx12_Lock_policyE2EE = linkonce_odr hidden constant { ptr, ptr, ptr } { ptr getelementptr inbounds (ptr, ptr @_ZTVN10__cxxabiv120__si_class_type_infoE, i64 2), ptr @_ZTSSt23_Sp_counted_ptr_inplaceIN19OpenColorIO_v2_4dev23CTFReaderGradingToneEltESaIvELN9__gnu_cxx12_Lock_policyE2EE, ptr @_ZTISt16_Sp_counted_baseILN9__gnu_cxx12_Lock_policyE2EE }, comdat, align 8
@_ZTVSt23_Sp_counted_ptr_inplaceIN19OpenColorIO_v2_4dev20CTFReaderInvLut1DEltESaIvELN9__gnu_cxx12_Lock_policyE2EE = linkonce_odr hidden unnamed_addr constant { [7 x ptr] } { [7 x ptr] [ptr null, ptr @_ZTISt23_Sp_counted_ptr_inplaceIN19OpenColorIO_v2_4dev20CTFReaderInvLut1DEltESaIvELN9__gnu_cxx12_Lock_policyE2EE, ptr @_ZNSt23_Sp_counted_ptr_inplaceIN19OpenColorIO_v2_4dev20CTFReaderInvLut1DEltESaIvELN9__gnu_cxx12_Lock_policyE2EED2Ev, ptr @_ZNSt23_Sp_counted_ptr_inplaceIN19OpenColorIO_v2_4dev20CTFReaderInvLut1DEltESaIvELN9__gnu_cxx12_Lock_policyE2EED0Ev, ptr @_ZNSt23_Sp_counted_ptr_inplaceIN19OpenColorIO_v2_4dev20CTFReaderInvLut1DEltESaIvELN9__gnu_cxx12_Lock_policyE2EE10_M_disposeEv, ptr @_ZNSt23_Sp_counted_ptr_inplaceIN19OpenColorIO_v2_4dev20CTFReaderInvLut1DEltESaIvELN9__gnu_cxx12_Lock_policyE2EE10_M_destroyEv, ptr @_ZNSt23_Sp_counted_ptr_inplaceIN19OpenColorIO_v2_4dev20CTFReaderInvLut1DEltESaIvELN9__gnu_cxx12_Lock_policyE2EE14_M_get_deleterERKSt9type_info] }, comdat, align 8
@_ZTSSt23_Sp_counted_ptr_inplaceIN19OpenColorIO_v2_4dev20CTFReaderInvLut1DEltESaIvELN9__gnu_cxx12_Lock_policyE2EE = linkonce_odr hidden constant [109 x i8] c"St23_Sp_counted_ptr_inplaceIN19OpenColorIO_v2_4dev20CTFReaderInvLut1DEltESaIvELN9__gnu_cxx12_Lock_policyE2EE\00", comdat, align 1
@_ZTISt23_Sp_counted_ptr_inplaceIN19OpenColorIO_v2_4dev20CTFReaderInvLut1DEltESaIvELN9__gnu_cxx12_Lock_policyE2EE = linkonce_odr hidden constant { ptr, ptr, ptr } { ptr getelementptr inbounds (ptr, ptr @_ZTVN10__cxxabiv120__si_class_type_infoE, i64 2), ptr @_ZTSSt23_Sp_counted_ptr_inplaceIN19OpenColorIO_v2_4dev20CTFReaderInvLut1DEltESaIvELN9__gnu_cxx12_Lock_policyE2EE, ptr @_ZTISt16_Sp_counted_baseILN9__gnu_cxx12_Lock_policyE2EE }, comdat, align 8
@_ZTVSt23_Sp_counted_ptr_inplaceIN19OpenColorIO_v2_4dev20CTFReaderInvLut3DEltESaIvELN9__gnu_cxx12_Lock_policyE2EE = linkonce_odr hidden unnamed_addr constant { [7 x ptr] } { [7 x ptr] [ptr null, ptr @_ZTISt23_Sp_counted_ptr_inplaceIN19OpenColorIO_v2_4dev20CTFReaderInvLut3DEltESaIvELN9__gnu_cxx12_Lock_policyE2EE, ptr @_ZNSt23_Sp_counted_ptr_inplaceIN19OpenColorIO_v2_4dev20CTFReaderInvLut3DEltESaIvELN9__gnu_cxx12_Lock_policyE2EED2Ev, ptr @_ZNSt23_Sp_counted_ptr_inplaceIN19OpenColorIO_v2_4dev20CTFReaderInvLut3DEltESaIvELN9__gnu_cxx12_Lock_policyE2EED0Ev, ptr @_ZNSt23_Sp_counted_ptr_inplaceIN19OpenColorIO_v2_4dev20CTFReaderInvLut3DEltESaIvELN9__gnu_cxx12_Lock_policyE2EE10_M_disposeEv, ptr @_ZNSt23_Sp_counted_ptr_inplaceIN19OpenColorIO_v2_4dev20CTFReaderInvLut3DEltESaIvELN9__gnu_cxx12_Lock_policyE2EE10_M_destroyEv, ptr @_ZNSt23_Sp_counted_ptr_inplaceIN19OpenColorIO_v2_4dev20CTFReaderInvLut3DEltESaIvELN9__gnu_cxx12_Lock_policyE2EE14_M_get_deleterERKSt9type_info] }, comdat, align 8
@_ZTSSt23_Sp_counted_ptr_inplaceIN19OpenColorIO_v2_4dev20CTFReaderInvLut3DEltESaIvELN9__gnu_cxx12_Lock_policyE2EE = linkonce_odr hidden constant [109 x i8] c"St23_Sp_counted_ptr_inplaceIN19OpenColorIO_v2_4dev20CTFReaderInvLut3DEltESaIvELN9__gnu_cxx12_Lock_policyE2EE\00", comdat, align 1
@_ZTISt23_Sp_counted_ptr_inplaceIN19OpenColorIO_v2_4dev20CTFReaderInvLut3DEltESaIvELN9__gnu_cxx12_Lock_policyE2EE = linkonce_odr hidden constant { ptr, ptr, ptr } { ptr getelementptr inbounds (ptr, ptr @_ZTVN10__cxxabiv120__si_class_type_infoE, i64 2), ptr @_ZTSSt23_Sp_counted_ptr_inplaceIN19OpenColorIO_v2_4dev20CTFReaderInvLut3DEltESaIvELN9__gnu_cxx12_Lock_policyE2EE, ptr @_ZTISt16_Sp_counted_baseILN9__gnu_cxx12_Lock_policyE2EE }, comdat, align 8
@_ZTVSt23_Sp_counted_ptr_inplaceIN19OpenColorIO_v2_4dev15CTFReaderLogEltESaIvELN9__gnu_cxx12_Lock_policyE2EE = linkonce_odr hidden unnamed_addr constant { [7 x ptr] } { [7 x ptr] [ptr null, ptr @_ZTISt23_Sp_counted_ptr_inplaceIN19OpenColorIO_v2_4dev15CTFReaderLogEltESaIvELN9__gnu_cxx12_Lock_policyE2EE, ptr @_ZNSt23_Sp_counted_ptr_inplaceIN19OpenColorIO_v2_4dev15CTFReaderLogEltESaIvELN9__gnu_cxx12_Lock_policyE2EED2Ev, ptr @_ZNSt23_Sp_counted_ptr_inplaceIN19OpenColorIO_v2_4dev15CTFReaderLogEltESaIvELN9__gnu_cxx12_Lock_policyE2EED0Ev, ptr @_ZNSt23_Sp_counted_ptr_inplaceIN19OpenColorIO_v2_4dev15CTFReaderLogEltESaIvELN9__gnu_cxx12_Lock_policyE2EE10_M_disposeEv, ptr @_ZNSt23_Sp_counted_ptr_inplaceIN19OpenColorIO_v2_4dev15CTFReaderLogEltESaIvELN9__gnu_cxx12_Lock_policyE2EE10_M_destroyEv, ptr @_ZNSt23_Sp_counted_ptr_inplaceIN19OpenColorIO_v2_4dev15CTFReaderLogEltESaIvELN9__gnu_cxx12_Lock_policyE2EE14_M_get_deleterERKSt9type_info] }, comdat, align 8
@_ZTSSt23_Sp_counted_ptr_inplaceIN19OpenColorIO_v2_4dev15CTFReaderLogEltESaIvELN9__gnu_cxx12_Lock_policyE2EE = linkonce_odr hidden constant [104 x i8] c"St23_Sp_counted_ptr_inplaceIN19OpenColorIO_v2_4dev15CTFReaderLogEltESaIvELN9__gnu_cxx12_Lock_policyE2EE\00", comdat, align 1
@_ZTISt23_Sp_counted_ptr_inplaceIN19OpenColorIO_v2_4dev15CTFReaderLogEltESaIvELN9__gnu_cxx12_Lock_policyE2EE = linkonce_odr hidden constant { ptr, ptr, ptr } { ptr getelementptr inbounds (ptr, ptr @_ZTVN10__cxxabiv120__si_class_type_infoE, i64 2), ptr @_ZTSSt23_Sp_counted_ptr_inplaceIN19OpenColorIO_v2_4dev15CTFReaderLogEltESaIvELN9__gnu_cxx12_Lock_policyE2EE, ptr @_ZTISt16_Sp_counted_baseILN9__gnu_cxx12_Lock_policyE2EE }, comdat, align 8
@_ZTVSt23_Sp_counted_ptr_inplaceIN19OpenColorIO_v2_4dev19CTFReaderLogElt_2_0ESaIvELN9__gnu_cxx12_Lock_policyE2EE = linkonce_odr hidden unnamed_addr constant { [7 x ptr] } { [7 x ptr] [ptr null, ptr @_ZTISt23_Sp_counted_ptr_inplaceIN19OpenColorIO_v2_4dev19CTFReaderLogElt_2_0ESaIvELN9__gnu_cxx12_Lock_policyE2EE, ptr @_ZNSt23_Sp_counted_ptr_inplaceIN19OpenColorIO_v2_4dev19CTFReaderLogElt_2_0ESaIvELN9__gnu_cxx12_Lock_policyE2EED2Ev, ptr @_ZNSt23_Sp_counted_ptr_inplaceIN19OpenColorIO_v2_4dev19CTFReaderLogElt_2_0ESaIvELN9__gnu_cxx12_Lock_policyE2EED0Ev, ptr @_ZNSt23_Sp_counted_ptr_inplaceIN19OpenColorIO_v2_4dev19CTFReaderLogElt_2_0ESaIvELN9__gnu_cxx12_Lock_policyE2EE10_M_disposeEv, ptr @_ZNSt23_Sp_counted_ptr_inplaceIN19OpenColorIO_v2_4dev19CTFReaderLogElt_2_0ESaIvELN9__gnu_cxx12_Lock_policyE2EE10_M_destroyEv, ptr @_ZNSt23_Sp_counted_ptr_inplaceIN19OpenColorIO_v2_4dev19CTFReaderLogElt_2_0ESaIvELN9__gnu_cxx12_Lock_policyE2EE14_M_get_deleterERKSt9type_info] }, comdat, align 8
@_ZTSSt23_Sp_counted_ptr_inplaceIN19OpenColorIO_v2_4dev19CTFReaderLogElt_2_0ESaIvELN9__gnu_cxx12_Lock_policyE2EE = linkonce_odr hidden constant [108 x i8] c"St23_Sp_counted_ptr_inplaceIN19OpenColorIO_v2_4dev19CTFReaderLogElt_2_0ESaIvELN9__gnu_cxx12_Lock_policyE2EE\00", comdat, align 1
@_ZTISt23_Sp_counted_ptr_inplaceIN19OpenColorIO_v2_4dev19CTFReaderLogElt_2_0ESaIvELN9__gnu_cxx12_Lock_policyE2EE = linkonce_odr hidden constant { ptr, ptr, ptr } { ptr getelementptr inbounds (ptr, ptr @_ZTVN10__cxxabiv120__si_class_type_infoE, i64 2), ptr @_ZTSSt23_Sp_counted_ptr_inplaceIN19OpenColorIO_v2_4dev19CTFReaderLogElt_2_0ESaIvELN9__gnu_cxx12_Lock_policyE2EE, ptr @_ZTISt16_Sp_counted_baseILN9__gnu_cxx12_Lock_policyE2EE }, comdat, align 8
@_ZTVSt23_Sp_counted_ptr_inplaceIN19OpenColorIO_v2_4dev17CTFReaderLut1DEltESaIvELN9__gnu_cxx12_Lock_policyE2EE = linkonce_odr hidden unnamed_addr constant { [7 x ptr] } { [7 x ptr] [ptr null, ptr @_ZTISt23_Sp_counted_ptr_inplaceIN19OpenColorIO_v2_4dev17CTFReaderLut1DEltESaIvELN9__gnu_cxx12_Lock_policyE2EE, ptr @_ZNSt23_Sp_counted_ptr_inplaceIN19OpenColorIO_v2_4dev17CTFReaderLut1DEltESaIvELN9__gnu_cxx12_Lock_policyE2EED2Ev, ptr @_ZNSt23_Sp_counted_ptr_inplaceIN19OpenColorIO_v2_4dev17CTFReaderLut1DEltESaIvELN9__gnu_cxx12_Lock_policyE2EED0Ev, ptr @_ZNSt23_Sp_counted_ptr_inplaceIN19OpenColorIO_v2_4dev17CTFReaderLut1DEltESaIvELN9__gnu_cxx12_Lock_policyE2EE10_M_disposeEv, ptr @_ZNSt23_Sp_counted_ptr_inplaceIN19OpenColorIO_v2_4dev17CTFReaderLut1DEltESaIvELN9__gnu_cxx12_Lock_policyE2EE10_M_destroyEv, ptr @_ZNSt23_Sp_counted_ptr_inplaceIN19OpenColorIO_v2_4dev17CTFReaderLut1DEltESaIvELN9__gnu_cxx12_Lock_policyE2EE14_M_get_deleterERKSt9type_info] }, comdat, align 8
@_ZTSSt23_Sp_counted_ptr_inplaceIN19OpenColorIO_v2_4dev17CTFReaderLut1DEltESaIvELN9__gnu_cxx12_Lock_policyE2EE = linkonce_odr hidden constant [106 x i8] c"St23_Sp_counted_ptr_inplaceIN19OpenColorIO_v2_4dev17CTFReaderLut1DEltESaIvELN9__gnu_cxx12_Lock_policyE2EE\00", comdat, align 1
@_ZTISt23_Sp_counted_ptr_inplaceIN19OpenColorIO_v2_4dev17CTFReaderLut1DEltESaIvELN9__gnu_cxx12_Lock_policyE2EE = linkonce_odr hidden constant { ptr, ptr, ptr } { ptr getelementptr inbounds (ptr, ptr @_ZTVN10__cxxabiv120__si_class_type_infoE, i64 2), ptr @_ZTSSt23_Sp_counted_ptr_inplaceIN19OpenColorIO_v2_4dev17CTFReaderLut1DEltESaIvELN9__gnu_cxx12_Lock_policyE2EE, ptr @_ZTISt16_Sp_counted_baseILN9__gnu_cxx12_Lock_policyE2EE }, comdat, align 8
@_ZTVSt23_Sp_counted_ptr_inplaceIN19OpenColorIO_v2_4dev21CTFReaderLut1DElt_1_4ESaIvELN9__gnu_cxx12_Lock_policyE2EE = linkonce_odr hidden unnamed_addr constant { [7 x ptr] } { [7 x ptr] [ptr null, ptr @_ZTISt23_Sp_counted_ptr_inplaceIN19OpenColorIO_v2_4dev21CTFReaderLut1DElt_1_4ESaIvELN9__gnu_cxx12_Lock_policyE2EE, ptr @_ZNSt23_Sp_counted_ptr_inplaceIN19OpenColorIO_v2_4dev21CTFReaderLut1DElt_1_4ESaIvELN9__gnu_cxx12_Lock_policyE2EED2Ev, ptr @_ZNSt23_Sp_counted_ptr_inplaceIN19OpenColorIO_v2_4dev21CTFReaderLut1DElt_1_4ESaIvELN9__gnu_cxx12_Lock_policyE2EED0Ev, ptr @_ZNSt23_Sp_counted_ptr_inplaceIN19OpenColorIO_v2_4dev21CTFReaderLut1DElt_1_4ESaIvELN9__gnu_cxx12_Lock_policyE2EE10_M_disposeEv, ptr @_ZNSt23_Sp_counted_ptr_inplaceIN19OpenColorIO_v2_4dev21CTFReaderLut1DElt_1_4ESaIvELN9__gnu_cxx12_Lock_policyE2EE10_M_destroyEv, ptr @_ZNSt23_Sp_counted_ptr_inplaceIN19OpenColorIO_v2_4dev21CTFReaderLut1DElt_1_4ESaIvELN9__gnu_cxx12_Lock_policyE2EE14_M_get_deleterERKSt9type_info] }, comdat, align 8
@_ZTSSt23_Sp_counted_ptr_inplaceIN19OpenColorIO_v2_4dev21CTFReaderLut1DElt_1_4ESaIvELN9__gnu_cxx12_Lock_policyE2EE = linkonce_odr hidden constant [110 x i8] c"St23_Sp_counted_ptr_inplaceIN19OpenColorIO_v2_4dev21CTFReaderLut1DElt_1_4ESaIvELN9__gnu_cxx12_Lock_policyE2EE\00", comdat, align 1
@_ZTISt23_Sp_counted_ptr_inplaceIN19OpenColorIO_v2_4dev21CTFReaderLut1DElt_1_4ESaIvELN9__gnu_cxx12_Lock_policyE2EE = linkonce_odr hidden constant { ptr, ptr, ptr } { ptr getelementptr inbounds (ptr, ptr @_ZTVN10__cxxabiv120__si_class_type_infoE, i64 2), ptr @_ZTSSt23_Sp_counted_ptr_inplaceIN19OpenColorIO_v2_4dev21CTFReaderLut1DElt_1_4ESaIvELN9__gnu_cxx12_Lock_policyE2EE, ptr @_ZTISt16_Sp_counted_baseILN9__gnu_cxx12_Lock_policyE2EE }, comdat, align 8
@_ZTVSt23_Sp_counted_ptr_inplaceIN19OpenColorIO_v2_4dev21CTFReaderLut1DElt_1_7ESaIvELN9__gnu_cxx12_Lock_policyE2EE = linkonce_odr hidden unnamed_addr constant { [7 x ptr] } { [7 x ptr] [ptr null, ptr @_ZTISt23_Sp_counted_ptr_inplaceIN19OpenColorIO_v2_4dev21CTFReaderLut1DElt_1_7ESaIvELN9__gnu_cxx12_Lock_policyE2EE, ptr @_ZNSt23_Sp_counted_ptr_inplaceIN19OpenColorIO_v2_4dev21CTFReaderLut1DElt_1_7ESaIvELN9__gnu_cxx12_Lock_policyE2EED2Ev, ptr @_ZNSt23_Sp_counted_ptr_inplaceIN19OpenColorIO_v2_4dev21CTFReaderLut1DElt_1_7ESaIvELN9__gnu_cxx12_Lock_policyE2EED0Ev, ptr @_ZNSt23_Sp_counted_ptr_inplaceIN19OpenColorIO_v2_4dev21CTFReaderLut1DElt_1_7ESaIvELN9__gnu_cxx12_Lock_policyE2EE10_M_disposeEv, ptr @_ZNSt23_Sp_counted_ptr_inplaceIN19OpenColorIO_v2_4dev21CTFReaderLut1DElt_1_7ESaIvELN9__gnu_cxx12_Lock_policyE2EE10_M_destroyEv, ptr @_ZNSt23_Sp_counted_ptr_inplaceIN19OpenColorIO_v2_4dev21CTFReaderLut1DElt_1_7ESaIvELN9__gnu_cxx12_Lock_policyE2EE14_M_get_deleterERKSt9type_info] }, comdat, align 8
@_ZTSSt23_Sp_counted_ptr_inplaceIN19OpenColorIO_v2_4dev21CTFReaderLut1DElt_1_7ESaIvELN9__gnu_cxx12_Lock_policyE2EE = linkonce_odr hidden constant [110 x i8] c"St23_Sp_counted_ptr_inplaceIN19OpenColorIO_v2_4dev21CTFReaderLut1DElt_1_7ESaIvELN9__gnu_cxx12_Lock_policyE2EE\00", comdat, align 1
@_ZTISt23_Sp_counted_ptr_inplaceIN19OpenColorIO_v2_4dev21CTFReaderLut1DElt_1_7ESaIvELN9__gnu_cxx12_Lock_policyE2EE = linkonce_odr hidden constant { ptr, ptr, ptr } { ptr getelementptr inbounds (ptr, ptr @_ZTVN10__cxxabiv120__si_class_type_infoE, i64 2), ptr @_ZTSSt23_Sp_counted_ptr_inplaceIN19OpenColorIO_v2_4dev21CTFReaderLut1DElt_1_7ESaIvELN9__gnu_cxx12_Lock_policyE2EE, ptr @_ZTISt16_Sp_counted_baseILN9__gnu_cxx12_Lock_policyE2EE }, comdat, align 8
@_ZTVSt23_Sp_counted_ptr_inplaceIN19OpenColorIO_v2_4dev17CTFReaderLut3DEltESaIvELN9__gnu_cxx12_Lock_policyE2EE = linkonce_odr hidden unnamed_addr constant { [7 x ptr] } { [7 x ptr] [ptr null, ptr @_ZTISt23_Sp_counted_ptr_inplaceIN19OpenColorIO_v2_4dev17CTFReaderLut3DEltESaIvELN9__gnu_cxx12_Lock_policyE2EE, ptr @_ZNSt23_Sp_counted_ptr_inplaceIN19OpenColorIO_v2_4dev17CTFReaderLut3DEltESaIvELN9__gnu_cxx12_Lock_policyE2EED2Ev, ptr @_ZNSt23_Sp_counted_ptr_inplaceIN19OpenColorIO_v2_4dev17CTFReaderLut3DEltESaIvELN9__gnu_cxx12_Lock_policyE2EED0Ev, ptr @_ZNSt23_Sp_counted_ptr_inplaceIN19OpenColorIO_v2_4dev17CTFReaderLut3DEltESaIvELN9__gnu_cxx12_Lock_policyE2EE10_M_disposeEv, ptr @_ZNSt23_Sp_counted_ptr_inplaceIN19OpenColorIO_v2_4dev17CTFReaderLut3DEltESaIvELN9__gnu_cxx12_Lock_policyE2EE10_M_destroyEv, ptr @_ZNSt23_Sp_counted_ptr_inplaceIN19OpenColorIO_v2_4dev17CTFReaderLut3DEltESaIvELN9__gnu_cxx12_Lock_policyE2EE14_M_get_deleterERKSt9type_info] }, comdat, align 8
@_ZTSSt23_Sp_counted_ptr_inplaceIN19OpenColorIO_v2_4dev17CTFReaderLut3DEltESaIvELN9__gnu_cxx12_Lock_policyE2EE = linkonce_odr hidden constant [106 x i8] c"St23_Sp_counted_ptr_inplaceIN19OpenColorIO_v2_4dev17CTFReaderLut3DEltESaIvELN9__gnu_cxx12_Lock_policyE2EE\00", comdat, align 1
@_ZTISt23_Sp_counted_ptr_inplaceIN19OpenColorIO_v2_4dev17CTFReaderLut3DEltESaIvELN9__gnu_cxx12_Lock_policyE2EE = linkonce_odr hidden constant { ptr, ptr, ptr } { ptr getelementptr inbounds (ptr, ptr @_ZTVN10__cxxabiv120__si_class_type_infoE, i64 2), ptr @_ZTSSt23_Sp_counted_ptr_inplaceIN19OpenColorIO_v2_4dev17CTFReaderLut3DEltESaIvELN9__gnu_cxx12_Lock_policyE2EE, ptr @_ZTISt16_Sp_counted_baseILN9__gnu_cxx12_Lock_policyE2EE }, comdat, align 8
@_ZTVSt23_Sp_counted_ptr_inplaceIN19OpenColorIO_v2_4dev21CTFReaderLut3DElt_1_7ESaIvELN9__gnu_cxx12_Lock_policyE2EE = linkonce_odr hidden unnamed_addr constant { [7 x ptr] } { [7 x ptr] [ptr null, ptr @_ZTISt23_Sp_counted_ptr_inplaceIN19OpenColorIO_v2_4dev21CTFReaderLut3DElt_1_7ESaIvELN9__gnu_cxx12_Lock_policyE2EE, ptr @_ZNSt23_Sp_counted_ptr_inplaceIN19OpenColorIO_v2_4dev21CTFReaderLut3DElt_1_7ESaIvELN9__gnu_cxx12_Lock_policyE2EED2Ev, ptr @_ZNSt23_Sp_counted_ptr_inplaceIN19OpenColorIO_v2_4dev21CTFReaderLut3DElt_1_7ESaIvELN9__gnu_cxx12_Lock_policyE2EED0Ev, ptr @_ZNSt23_Sp_counted_ptr_inplaceIN19OpenColorIO_v2_4dev21CTFReaderLut3DElt_1_7ESaIvELN9__gnu_cxx12_Lock_policyE2EE10_M_disposeEv, ptr @_ZNSt23_Sp_counted_ptr_inplaceIN19OpenColorIO_v2_4dev21CTFReaderLut3DElt_1_7ESaIvELN9__gnu_cxx12_Lock_policyE2EE10_M_destroyEv, ptr @_ZNSt23_Sp_counted_ptr_inplaceIN19OpenColorIO_v2_4dev21CTFReaderLut3DElt_1_7ESaIvELN9__gnu_cxx12_Lock_policyE2EE14_M_get_deleterERKSt9type_info] }, comdat, align 8
@_ZTSSt23_Sp_counted_ptr_inplaceIN19OpenColorIO_v2_4dev21CTFReaderLut3DElt_1_7ESaIvELN9__gnu_cxx12_Lock_policyE2EE = linkonce_odr hidden constant [110 x i8] c"St23_Sp_counted_ptr_inplaceIN19OpenColorIO_v2_4dev21CTFReaderLut3DElt_1_7ESaIvELN9__gnu_cxx12_Lock_policyE2EE\00", comdat, align 1
@_ZTISt23_Sp_counted_ptr_inplaceIN19OpenColorIO_v2_4dev21CTFReaderLut3DElt_1_7ESaIvELN9__gnu_cxx12_Lock_policyE2EE = linkonce_odr hidden constant { ptr, ptr, ptr } { ptr getelementptr inbounds (ptr, ptr @_ZTVN10__cxxabiv120__si_class_type_infoE, i64 2), ptr @_ZTSSt23_Sp_counted_ptr_inplaceIN19OpenColorIO_v2_4dev21CTFReaderLut3DElt_1_7ESaIvELN9__gnu_cxx12_Lock_policyE2EE, ptr @_ZTISt16_Sp_counted_baseILN9__gnu_cxx12_Lock_policyE2EE }, comdat, align 8
@_ZTVSt23_Sp_counted_ptr_inplaceIN19OpenColorIO_v2_4dev18CTFReaderMatrixEltESaIvELN9__gnu_cxx12_Lock_policyE2EE = linkonce_odr hidden unnamed_addr constant { [7 x ptr] } { [7 x ptr] [ptr null, ptr @_ZTISt23_Sp_counted_ptr_inplaceIN19OpenColorIO_v2_4dev18CTFReaderMatrixEltESaIvELN9__gnu_cxx12_Lock_policyE2EE, ptr @_ZNSt23_Sp_counted_ptr_inplaceIN19OpenColorIO_v2_4dev18CTFReaderMatrixEltESaIvELN9__gnu_cxx12_Lock_policyE2EED2Ev, ptr @_ZNSt23_Sp_counted_ptr_inplaceIN19OpenColorIO_v2_4dev18CTFReaderMatrixEltESaIvELN9__gnu_cxx12_Lock_policyE2EED0Ev, ptr @_ZNSt23_Sp_counted_ptr_inplaceIN19OpenColorIO_v2_4dev18CTFReaderMatrixEltESaIvELN9__gnu_cxx12_Lock_policyE2EE10_M_disposeEv, ptr @_ZNSt23_Sp_counted_ptr_inplaceIN19OpenColorIO_v2_4dev18CTFReaderMatrixEltESaIvELN9__gnu_cxx12_Lock_policyE2EE10_M_destroyEv, ptr @_ZNSt23_Sp_counted_ptr_inplaceIN19OpenColorIO_v2_4dev18CTFReaderMatrixEltESaIvELN9__gnu_cxx12_Lock_policyE2EE14_M_get_deleterERKSt9type_info] }, comdat, align 8
@_ZTSSt23_Sp_counted_ptr_inplaceIN19OpenColorIO_v2_4dev18CTFReaderMatrixEltESaIvELN9__gnu_cxx12_Lock_policyE2EE = linkonce_odr hidden constant [107 x i8] c"St23_Sp_counted_ptr_inplaceIN19OpenColorIO_v2_4dev18CTFReaderMatrixEltESaIvELN9__gnu_cxx12_Lock_policyE2EE\00", comdat, align 1
@_ZTISt23_Sp_counted_ptr_inplaceIN19OpenColorIO_v2_4dev18CTFReaderMatrixEltESaIvELN9__gnu_cxx12_Lock_policyE2EE = linkonce_odr hidden constant { ptr, ptr, ptr } { ptr getelementptr inbounds (ptr, ptr @_ZTVN10__cxxabiv120__si_class_type_infoE, i64 2), ptr @_ZTSSt23_Sp_counted_ptr_inplaceIN19OpenColorIO_v2_4dev18CTFReaderMatrixEltESaIvELN9__gnu_cxx12_Lock_policyE2EE, ptr @_ZTISt16_Sp_counted_baseILN9__gnu_cxx12_Lock_policyE2EE }, comdat, align 8
@_ZTVSt23_Sp_counted_ptr_inplaceIN19OpenColorIO_v2_4dev22CTFReaderMatrixElt_1_3ESaIvELN9__gnu_cxx12_Lock_policyE2EE = linkonce_odr hidden unnamed_addr constant { [7 x ptr] } { [7 x ptr] [ptr null, ptr @_ZTISt23_Sp_counted_ptr_inplaceIN19OpenColorIO_v2_4dev22CTFReaderMatrixElt_1_3ESaIvELN9__gnu_cxx12_Lock_policyE2EE, ptr @_ZNSt23_Sp_counted_ptr_inplaceIN19OpenColorIO_v2_4dev22CTFReaderMatrixElt_1_3ESaIvELN9__gnu_cxx12_Lock_policyE2EED2Ev, ptr @_ZNSt23_Sp_counted_ptr_inplaceIN19OpenColorIO_v2_4dev22CTFReaderMatrixElt_1_3ESaIvELN9__gnu_cxx12_Lock_policyE2EED0Ev, ptr @_ZNSt23_Sp_counted_ptr_inplaceIN19OpenColorIO_v2_4dev22CTFReaderMatrixElt_1_3ESaIvELN9__gnu_cxx12_Lock_policyE2EE10_M_disposeEv, ptr @_ZNSt23_Sp_counted_ptr_inplaceIN19OpenColorIO_v2_4dev22CTFReaderMatrixElt_1_3ESaIvELN9__gnu_cxx12_Lock_policyE2EE10_M_destroyEv, ptr @_ZNSt23_Sp_counted_ptr_inplaceIN19OpenColorIO_v2_4dev22CTFReaderMatrixElt_1_3ESaIvELN9__gnu_cxx12_Lock_policyE2EE14_M_get_deleterERKSt9type_info] }, comdat, align 8
@_ZTSSt23_Sp_counted_ptr_inplaceIN19OpenColorIO_v2_4dev22CTFReaderMatrixElt_1_3ESaIvELN9__gnu_cxx12_Lock_policyE2EE = linkonce_odr hidden constant [111 x i8] c"St23_Sp_counted_ptr_inplaceIN19OpenColorIO_v2_4dev22CTFReaderMatrixElt_1_3ESaIvELN9__gnu_cxx12_Lock_policyE2EE\00", comdat, align 1
@_ZTISt23_Sp_counted_ptr_inplaceIN19OpenColorIO_v2_4dev22CTFReaderMatrixElt_1_3ESaIvELN9__gnu_cxx12_Lock_policyE2EE = linkonce_odr hidden constant { ptr, ptr, ptr } { ptr getelementptr inbounds (ptr, ptr @_ZTVN10__cxxabiv120__si_class_type_infoE, i64 2), ptr @_ZTSSt23_Sp_counted_ptr_inplaceIN19OpenColorIO_v2_4dev22CTFReaderMatrixElt_1_3ESaIvELN9__gnu_cxx12_Lock_policyE2EE, ptr @_ZTISt16_Sp_counted_baseILN9__gnu_cxx12_Lock_policyE2EE }, comdat, align 8
@_ZTVSt23_Sp_counted_ptr_inplaceIN19OpenColorIO_v2_4dev17CTFReaderRangeEltESaIvELN9__gnu_cxx12_Lock_policyE2EE = linkonce_odr hidden unnamed_addr constant { [7 x ptr] } { [7 x ptr] [ptr null, ptr @_ZTISt23_Sp_counted_ptr_inplaceIN19OpenColorIO_v2_4dev17CTFReaderRangeEltESaIvELN9__gnu_cxx12_Lock_policyE2EE, ptr @_ZNSt23_Sp_counted_ptr_inplaceIN19OpenColorIO_v2_4dev17CTFReaderRangeEltESaIvELN9__gnu_cxx12_Lock_policyE2EED2Ev, ptr @_ZNSt23_Sp_counted_ptr_inplaceIN19OpenColorIO_v2_4dev17CTFReaderRangeEltESaIvELN9__gnu_cxx12_Lock_policyE2EED0Ev, ptr @_ZNSt23_Sp_counted_ptr_inplaceIN19OpenColorIO_v2_4dev17CTFReaderRangeEltESaIvELN9__gnu_cxx12_Lock_policyE2EE10_M_disposeEv, ptr @_ZNSt23_Sp_counted_ptr_inplaceIN19OpenColorIO_v2_4dev17CTFReaderRangeEltESaIvELN9__gnu_cxx12_Lock_policyE2EE10_M_destroyEv, ptr @_ZNSt23_Sp_counted_ptr_inplaceIN19OpenColorIO_v2_4dev17CTFReaderRangeEltESaIvELN9__gnu_cxx12_Lock_policyE2EE14_M_get_deleterERKSt9type_info] }, comdat, align 8
@_ZTSSt23_Sp_counted_ptr_inplaceIN19OpenColorIO_v2_4dev17CTFReaderRangeEltESaIvELN9__gnu_cxx12_Lock_policyE2EE = linkonce_odr hidden constant [106 x i8] c"St23_Sp_counted_ptr_inplaceIN19OpenColorIO_v2_4dev17CTFReaderRangeEltESaIvELN9__gnu_cxx12_Lock_policyE2EE\00", comdat, align 1
@_ZTISt23_Sp_counted_ptr_inplaceIN19OpenColorIO_v2_4dev17CTFReaderRangeEltESaIvELN9__gnu_cxx12_Lock_policyE2EE = linkonce_odr hidden constant { ptr, ptr, ptr } { ptr getelementptr inbounds (ptr, ptr @_ZTVN10__cxxabiv120__si_class_type_infoE, i64 2), ptr @_ZTSSt23_Sp_counted_ptr_inplaceIN19OpenColorIO_v2_4dev17CTFReaderRangeEltESaIvELN9__gnu_cxx12_Lock_policyE2EE, ptr @_ZTISt16_Sp_counted_baseILN9__gnu_cxx12_Lock_policyE2EE }, comdat, align 8
@_ZTVSt23_Sp_counted_ptr_inplaceIN19OpenColorIO_v2_4dev21CTFReaderRangeElt_1_7ESaIvELN9__gnu_cxx12_Lock_policyE2EE = linkonce_odr hidden unnamed_addr constant { [7 x ptr] } { [7 x ptr] [ptr null, ptr @_ZTISt23_Sp_counted_ptr_inplaceIN19OpenColorIO_v2_4dev21CTFReaderRangeElt_1_7ESaIvELN9__gnu_cxx12_Lock_policyE2EE, ptr @_ZNSt23_Sp_counted_ptr_inplaceIN19OpenColorIO_v2_4dev21CTFReaderRangeElt_1_7ESaIvELN9__gnu_cxx12_Lock_policyE2EED2Ev, ptr @_ZNSt23_Sp_counted_ptr_inplaceIN19OpenColorIO_v2_4dev21CTFReaderRangeElt_1_7ESaIvELN9__gnu_cxx12_Lock_policyE2EED0Ev, ptr @_ZNSt23_Sp_counted_ptr_inplaceIN19OpenColorIO_v2_4dev21CTFReaderRangeElt_1_7ESaIvELN9__gnu_cxx12_Lock_policyE2EE10_M_disposeEv, ptr @_ZNSt23_Sp_counted_ptr_inplaceIN19OpenColorIO_v2_4dev21CTFReaderRangeElt_1_7ESaIvELN9__gnu_cxx12_Lock_policyE2EE10_M_destroyEv, ptr @_ZNSt23_Sp_counted_ptr_inplaceIN19OpenColorIO_v2_4dev21CTFReaderRangeElt_1_7ESaIvELN9__gnu_cxx12_Lock_policyE2EE14_M_get_deleterERKSt9type_info] }, comdat, align 8
@_ZTSSt23_Sp_counted_ptr_inplaceIN19OpenColorIO_v2_4dev21CTFReaderRangeElt_1_7ESaIvELN9__gnu_cxx12_Lock_policyE2EE = linkonce_odr hidden constant [110 x i8] c"St23_Sp_counted_ptr_inplaceIN19OpenColorIO_v2_4dev21CTFReaderRangeElt_1_7ESaIvELN9__gnu_cxx12_Lock_policyE2EE\00", comdat, align 1
@_ZTISt23_Sp_counted_ptr_inplaceIN19OpenColorIO_v2_4dev21CTFReaderRangeElt_1_7ESaIvELN9__gnu_cxx12_Lock_policyE2EE = linkonce_odr hidden constant { ptr, ptr, ptr } { ptr getelementptr inbounds (ptr, ptr @_ZTVN10__cxxabiv120__si_class_type_infoE, i64 2), ptr @_ZTSSt23_Sp_counted_ptr_inplaceIN19OpenColorIO_v2_4dev21CTFReaderRangeElt_1_7ESaIvELN9__gnu_cxx12_Lock_policyE2EE, ptr @_ZTISt16_Sp_counted_baseILN9__gnu_cxx12_Lock_policyE2EE }, comdat, align 8
@_ZTVSt23_Sp_counted_ptr_inplaceIN19OpenColorIO_v2_4dev21CTFReaderReferenceEltESaIvELN9__gnu_cxx12_Lock_policyE2EE = linkonce_odr hidden unnamed_addr constant { [7 x ptr] } { [7 x ptr] [ptr null, ptr @_ZTISt23_Sp_counted_ptr_inplaceIN19OpenColorIO_v2_4dev21CTFReaderReferenceEltESaIvELN9__gnu_cxx12_Lock_policyE2EE, ptr @_ZNSt23_Sp_counted_ptr_inplaceIN19OpenColorIO_v2_4dev21CTFReaderReferenceEltESaIvELN9__gnu_cxx12_Lock_policyE2EED2Ev, ptr @_ZNSt23_Sp_counted_ptr_inplaceIN19OpenColorIO_v2_4dev21CTFReaderReferenceEltESaIvELN9__gnu_cxx12_Lock_policyE2EED0Ev, ptr @_ZNSt23_Sp_counted_ptr_inplaceIN19OpenColorIO_v2_4dev21CTFReaderReferenceEltESaIvELN9__gnu_cxx12_Lock_policyE2EE10_M_disposeEv, ptr @_ZNSt23_Sp_counted_ptr_inplaceIN19OpenColorIO_v2_4dev21CTFReaderReferenceEltESaIvELN9__gnu_cxx12_Lock_policyE2EE10_M_destroyEv, ptr @_ZNSt23_Sp_counted_ptr_inplaceIN19OpenColorIO_v2_4dev21CTFReaderReferenceEltESaIvELN9__gnu_cxx12_Lock_policyE2EE14_M_get_deleterERKSt9type_info] }, comdat, align 8
@_ZTSSt23_Sp_counted_ptr_inplaceIN19OpenColorIO_v2_4dev21CTFReaderReferenceEltESaIvELN9__gnu_cxx12_Lock_policyE2EE = linkonce_odr hidden constant [110 x i8] c"St23_Sp_counted_ptr_inplaceIN19OpenColorIO_v2_4dev21CTFReaderReferenceEltESaIvELN9__gnu_cxx12_Lock_policyE2EE\00", comdat, align 1
@_ZTISt23_Sp_counted_ptr_inplaceIN19OpenColorIO_v2_4dev21CTFReaderReferenceEltESaIvELN9__gnu_cxx12_Lock_policyE2EE = linkonce_odr hidden constant { ptr, ptr, ptr } { ptr getelementptr inbounds (ptr, ptr @_ZTVN10__cxxabiv120__si_class_type_infoE, i64 2), ptr @_ZTSSt23_Sp_counted_ptr_inplaceIN19OpenColorIO_v2_4dev21CTFReaderReferenceEltESaIvELN9__gnu_cxx12_Lock_policyE2EE, ptr @_ZTISt16_Sp_counted_baseILN9__gnu_cxx12_Lock_policyE2EE }, comdat, align 8
@_ZTVSt23_Sp_counted_ptr_inplaceIN19OpenColorIO_v2_4dev19FixedFunctionOpDataESaIvELN9__gnu_cxx12_Lock_policyE2EE = linkonce_odr hidden unnamed_addr constant { [7 x ptr] } { [7 x ptr] [ptr null, ptr @_ZTISt23_Sp_counted_ptr_inplaceIN19OpenColorIO_v2_4dev19FixedFunctionOpDataESaIvELN9__gnu_cxx12_Lock_policyE2EE, ptr @_ZNSt23_Sp_counted_ptr_inplaceIN19OpenColorIO_v2_4dev19FixedFunctionOpDataESaIvELN9__gnu_cxx12_Lock_policyE2EED2Ev, ptr @_ZNSt23_Sp_counted_ptr_inplaceIN19OpenColorIO_v2_4dev19FixedFunctionOpDataESaIvELN9__gnu_cxx12_Lock_policyE2EED0Ev, ptr @_ZNSt23_Sp_counted_ptr_inplaceIN19OpenColorIO_v2_4dev19FixedFunctionOpDataESaIvELN9__gnu_cxx12_Lock_policyE2EE10_M_disposeEv, ptr @_ZNSt23_Sp_counted_ptr_inplaceIN19OpenColorIO_v2_4dev19FixedFunctionOpDataESaIvELN9__gnu_cxx12_Lock_policyE2EE10_M_destroyEv, ptr @_ZNSt23_Sp_counted_ptr_inplaceIN19OpenColorIO_v2_4dev19FixedFunctionOpDataESaIvELN9__gnu_cxx12_Lock_policyE2EE14_M_get_deleterERKSt9type_info] }, comdat, align 8
@_ZTSSt23_Sp_counted_ptr_inplaceIN19OpenColorIO_v2_4dev19FixedFunctionOpDataESaIvELN9__gnu_cxx12_Lock_policyE2EE = linkonce_odr hidden constant [108 x i8] c"St23_Sp_counted_ptr_inplaceIN19OpenColorIO_v2_4dev19FixedFunctionOpDataESaIvELN9__gnu_cxx12_Lock_policyE2EE\00", comdat, align 1
@_ZTISt23_Sp_counted_ptr_inplaceIN19OpenColorIO_v2_4dev19FixedFunctionOpDataESaIvELN9__gnu_cxx12_Lock_policyE2EE = linkonce_odr hidden constant { ptr, ptr, ptr } { ptr getelementptr inbounds (ptr, ptr @_ZTVN10__cxxabiv120__si_class_type_infoE, i64 2), ptr @_ZTSSt23_Sp_counted_ptr_inplaceIN19OpenColorIO_v2_4dev19FixedFunctionOpDataESaIvELN9__gnu_cxx12_Lock_policyE2EE, ptr @_ZTISt16_Sp_counted_baseILN9__gnu_cxx12_Lock_policyE2EE }, comdat, align 8
@.str.187 = private unnamed_addr constant [17 x i8] c"For parameter: '\00", align 1
@.str.188 = private unnamed_addr constant [26 x i8] c"Expecting 1 value, found \00", align 1
@.str.189 = private unnamed_addr constant [9 x i8] c" values.\00", align 1
@_ZTVSt23_Sp_counted_ptr_inplaceIN19OpenColorIO_v2_4dev9CDLOpDataESaIvELN9__gnu_cxx12_Lock_policyE2EE = linkonce_odr hidden unnamed_addr constant { [7 x ptr] } { [7 x ptr] [ptr null, ptr @_ZTISt23_Sp_counted_ptr_inplaceIN19OpenColorIO_v2_4dev9CDLOpDataESaIvELN9__gnu_cxx12_Lock_policyE2EE, ptr @_ZNSt23_Sp_counted_ptr_inplaceIN19OpenColorIO_v2_4dev9CDLOpDataESaIvELN9__gnu_cxx12_Lock_policyE2EED2Ev, ptr @_ZNSt23_Sp_counted_ptr_inplaceIN19OpenColorIO_v2_4dev9CDLOpDataESaIvELN9__gnu_cxx12_Lock_policyE2EED0Ev, ptr @_ZNSt23_Sp_counted_ptr_inplaceIN19OpenColorIO_v2_4dev9CDLOpDataESaIvELN9__gnu_cxx12_Lock_policyE2EE10_M_disposeEv, ptr @_ZNSt23_Sp_counted_ptr_inplaceIN19OpenColorIO_v2_4dev9CDLOpDataESaIvELN9__gnu_cxx12_Lock_policyE2EE10_M_destroyEv, ptr @_ZNSt23_Sp_counted_ptr_inplaceIN19OpenColorIO_v2_4dev9CDLOpDataESaIvELN9__gnu_cxx12_Lock_policyE2EE14_M_get_deleterERKSt9type_info] }, comdat, align 8
@_ZTSSt23_Sp_counted_ptr_inplaceIN19OpenColorIO_v2_4dev9CDLOpDataESaIvELN9__gnu_cxx12_Lock_policyE2EE = linkonce_odr hidden constant [97 x i8] c"St23_Sp_counted_ptr_inplaceIN19OpenColorIO_v2_4dev9CDLOpDataESaIvELN9__gnu_cxx12_Lock_policyE2EE\00", comdat, align 1
@_ZTISt23_Sp_counted_ptr_inplaceIN19OpenColorIO_v2_4dev9CDLOpDataESaIvELN9__gnu_cxx12_Lock_policyE2EE = linkonce_odr hidden constant { ptr, ptr, ptr } { ptr getelementptr inbounds (ptr, ptr @_ZTVN10__cxxabiv120__si_class_type_infoE, i64 2), ptr @_ZTSSt23_Sp_counted_ptr_inplaceIN19OpenColorIO_v2_4dev9CDLOpDataESaIvELN9__gnu_cxx12_Lock_policyE2EE, ptr @_ZTISt16_Sp_counted_baseILN9__gnu_cxx12_Lock_policyE2EE }, comdat, align 8
@_ZTVSt23_Sp_counted_ptr_inplaceIN19OpenColorIO_v2_4dev22ExposureContrastOpDataESaIvELN9__gnu_cxx12_Lock_policyE2EE = linkonce_odr hidden unnamed_addr constant { [7 x ptr] } { [7 x ptr] [ptr null, ptr @_ZTISt23_Sp_counted_ptr_inplaceIN19OpenColorIO_v2_4dev22ExposureContrastOpDataESaIvELN9__gnu_cxx12_Lock_policyE2EE, ptr @_ZNSt23_Sp_counted_ptr_inplaceIN19OpenColorIO_v2_4dev22ExposureContrastOpDataESaIvELN9__gnu_cxx12_Lock_policyE2EED2Ev, ptr @_ZNSt23_Sp_counted_ptr_inplaceIN19OpenColorIO_v2_4dev22ExposureContrastOpDataESaIvELN9__gnu_cxx12_Lock_policyE2EED0Ev, ptr @_ZNSt23_Sp_counted_ptr_inplaceIN19OpenColorIO_v2_4dev22ExposureContrastOpDataESaIvELN9__gnu_cxx12_Lock_policyE2EE10_M_disposeEv, ptr @_ZNSt23_Sp_counted_ptr_inplaceIN19OpenColorIO_v2_4dev22ExposureContrastOpDataESaIvELN9__gnu_cxx12_Lock_policyE2EE10_M_destroyEv, ptr @_ZNSt23_Sp_counted_ptr_inplaceIN19OpenColorIO_v2_4dev22ExposureContrastOpDataESaIvELN9__gnu_cxx12_Lock_policyE2EE14_M_get_deleterERKSt9type_info] }, comdat, align 8
@_ZTSSt23_Sp_counted_ptr_inplaceIN19OpenColorIO_v2_4dev22ExposureContrastOpDataESaIvELN9__gnu_cxx12_Lock_policyE2EE = linkonce_odr hidden constant [111 x i8] c"St23_Sp_counted_ptr_inplaceIN19OpenColorIO_v2_4dev22ExposureContrastOpDataESaIvELN9__gnu_cxx12_Lock_policyE2EE\00", comdat, align 1
@_ZTISt23_Sp_counted_ptr_inplaceIN19OpenColorIO_v2_4dev22ExposureContrastOpDataESaIvELN9__gnu_cxx12_Lock_policyE2EE = linkonce_odr hidden constant { ptr, ptr, ptr } { ptr getelementptr inbounds (ptr, ptr @_ZTVN10__cxxabiv120__si_class_type_infoE, i64 2), ptr @_ZTSSt23_Sp_counted_ptr_inplaceIN19OpenColorIO_v2_4dev22ExposureContrastOpDataESaIvELN9__gnu_cxx12_Lock_policyE2EE, ptr @_ZTISt16_Sp_counted_baseILN9__gnu_cxx12_Lock_policyE2EE }, comdat, align 8
@_ZTVSt23_Sp_counted_ptr_inplaceIN19OpenColorIO_v2_4dev11GammaOpDataESaIvELN9__gnu_cxx12_Lock_policyE2EE = linkonce_odr hidden unnamed_addr constant { [7 x ptr] } { [7 x ptr] [ptr null, ptr @_ZTISt23_Sp_counted_ptr_inplaceIN19OpenColorIO_v2_4dev11GammaOpDataESaIvELN9__gnu_cxx12_Lock_policyE2EE, ptr @_ZNSt23_Sp_counted_ptr_inplaceIN19OpenColorIO_v2_4dev11GammaOpDataESaIvELN9__gnu_cxx12_Lock_policyE2EED2Ev, ptr @_ZNSt23_Sp_counted_ptr_inplaceIN19OpenColorIO_v2_4dev11GammaOpDataESaIvELN9__gnu_cxx12_Lock_policyE2EED0Ev, ptr @_ZNSt23_Sp_counted_ptr_inplaceIN19OpenColorIO_v2_4dev11GammaOpDataESaIvELN9__gnu_cxx12_Lock_policyE2EE10_M_disposeEv, ptr @_ZNSt23_Sp_counted_ptr_inplaceIN19OpenColorIO_v2_4dev11GammaOpDataESaIvELN9__gnu_cxx12_Lock_policyE2EE10_M_destroyEv, ptr @_ZNSt23_Sp_counted_ptr_inplaceIN19OpenColorIO_v2_4dev11GammaOpDataESaIvELN9__gnu_cxx12_Lock_policyE2EE14_M_get_deleterERKSt9type_info] }, comdat, align 8
@_ZTSSt23_Sp_counted_ptr_inplaceIN19OpenColorIO_v2_4dev11GammaOpDataESaIvELN9__gnu_cxx12_Lock_policyE2EE = linkonce_odr hidden constant [100 x i8] c"St23_Sp_counted_ptr_inplaceIN19OpenColorIO_v2_4dev11GammaOpDataESaIvELN9__gnu_cxx12_Lock_policyE2EE\00", comdat, align 1
@_ZTISt23_Sp_counted_ptr_inplaceIN19OpenColorIO_v2_4dev11GammaOpDataESaIvELN9__gnu_cxx12_Lock_policyE2EE = linkonce_odr hidden constant { ptr, ptr, ptr } { ptr getelementptr inbounds (ptr, ptr @_ZTVN10__cxxabiv120__si_class_type_infoE, i64 2), ptr @_ZTSSt23_Sp_counted_ptr_inplaceIN19OpenColorIO_v2_4dev11GammaOpDataESaIvELN9__gnu_cxx12_Lock_policyE2EE, ptr @_ZTISt16_Sp_counted_baseILN9__gnu_cxx12_Lock_policyE2EE }, comdat, align 8
@_ZTVSt23_Sp_counted_ptr_inplaceIN19OpenColorIO_v2_4dev23CTFReaderGammaParamsEltESaIvELN9__gnu_cxx12_Lock_policyE2EE = linkonce_odr hidden unnamed_addr constant { [7 x ptr] } { [7 x ptr] [ptr null, ptr @_ZTISt23_Sp_counted_ptr_inplaceIN19OpenColorIO_v2_4dev23CTFReaderGammaParamsEltESaIvELN9__gnu_cxx12_Lock_policyE2EE, ptr @_ZNSt23_Sp_counted_ptr_inplaceIN19OpenColorIO_v2_4dev23CTFReaderGammaParamsEltESaIvELN9__gnu_cxx12_Lock_policyE2EED2Ev, ptr @_ZNSt23_Sp_counted_ptr_inplaceIN19OpenColorIO_v2_4dev23CTFReaderGammaParamsEltESaIvELN9__gnu_cxx12_Lock_policyE2EED0Ev, ptr @_ZNSt23_Sp_counted_ptr_inplaceIN19OpenColorIO_v2_4dev23CTFReaderGammaParamsEltESaIvELN9__gnu_cxx12_Lock_policyE2EE10_M_disposeEv, ptr @_ZNSt23_Sp_counted_ptr_inplaceIN19OpenColorIO_v2_4dev23CTFReaderGammaParamsEltESaIvELN9__gnu_cxx12_Lock_policyE2EE10_M_destroyEv, ptr @_ZNSt23_Sp_counted_ptr_inplaceIN19OpenColorIO_v2_4dev23CTFReaderGammaParamsEltESaIvELN9__gnu_cxx12_Lock_policyE2EE14_M_get_deleterERKSt9type_info] }, comdat, align 8
@_ZTSSt23_Sp_counted_ptr_inplaceIN19OpenColorIO_v2_4dev23CTFReaderGammaParamsEltESaIvELN9__gnu_cxx12_Lock_policyE2EE = linkonce_odr hidden constant [112 x i8] c"St23_Sp_counted_ptr_inplaceIN19OpenColorIO_v2_4dev23CTFReaderGammaParamsEltESaIvELN9__gnu_cxx12_Lock_policyE2EE\00", comdat, align 1
@_ZTISt23_Sp_counted_ptr_inplaceIN19OpenColorIO_v2_4dev23CTFReaderGammaParamsEltESaIvELN9__gnu_cxx12_Lock_policyE2EE = linkonce_odr hidden constant { ptr, ptr, ptr } { ptr getelementptr inbounds (ptr, ptr @_ZTVN10__cxxabiv120__si_class_type_infoE, i64 2), ptr @_ZTSSt23_Sp_counted_ptr_inplaceIN19OpenColorIO_v2_4dev23CTFReaderGammaParamsEltESaIvELN9__gnu_cxx12_Lock_policyE2EE, ptr @_ZTISt16_Sp_counted_baseILN9__gnu_cxx12_Lock_policyE2EE }, comdat, align 8
@_ZTVSt23_Sp_counted_ptr_inplaceIN19OpenColorIO_v2_4dev27CTFReaderGammaParamsElt_1_5ESaIvELN9__gnu_cxx12_Lock_policyE2EE = linkonce_odr hidden unnamed_addr constant { [7 x ptr] } { [7 x ptr] [ptr null, ptr @_ZTISt23_Sp_counted_ptr_inplaceIN19OpenColorIO_v2_4dev27CTFReaderGammaParamsElt_1_5ESaIvELN9__gnu_cxx12_Lock_policyE2EE, ptr @_ZNSt23_Sp_counted_ptr_inplaceIN19OpenColorIO_v2_4dev27CTFReaderGammaParamsElt_1_5ESaIvELN9__gnu_cxx12_Lock_policyE2EED2Ev, ptr @_ZNSt23_Sp_counted_ptr_inplaceIN19OpenColorIO_v2_4dev27CTFReaderGammaParamsElt_1_5ESaIvELN9__gnu_cxx12_Lock_policyE2EED0Ev, ptr @_ZNSt23_Sp_counted_ptr_inplaceIN19OpenColorIO_v2_4dev27CTFReaderGammaParamsElt_1_5ESaIvELN9__gnu_cxx12_Lock_policyE2EE10_M_disposeEv, ptr @_ZNSt23_Sp_counted_ptr_inplaceIN19OpenColorIO_v2_4dev27CTFReaderGammaParamsElt_1_5ESaIvELN9__gnu_cxx12_Lock_policyE2EE10_M_destroyEv, ptr @_ZNSt23_Sp_counted_ptr_inplaceIN19OpenColorIO_v2_4dev27CTFReaderGammaParamsElt_1_5ESaIvELN9__gnu_cxx12_Lock_policyE2EE14_M_get_deleterERKSt9type_info] }, comdat, align 8
@_ZTSSt23_Sp_counted_ptr_inplaceIN19OpenColorIO_v2_4dev27CTFReaderGammaParamsElt_1_5ESaIvELN9__gnu_cxx12_Lock_policyE2EE = linkonce_odr hidden constant [116 x i8] c"St23_Sp_counted_ptr_inplaceIN19OpenColorIO_v2_4dev27CTFReaderGammaParamsElt_1_5ESaIvELN9__gnu_cxx12_Lock_policyE2EE\00", comdat, align 1
@_ZTISt23_Sp_counted_ptr_inplaceIN19OpenColorIO_v2_4dev27CTFReaderGammaParamsElt_1_5ESaIvELN9__gnu_cxx12_Lock_policyE2EE = linkonce_odr hidden constant { ptr, ptr, ptr } { ptr getelementptr inbounds (ptr, ptr @_ZTVN10__cxxabiv120__si_class_type_infoE, i64 2), ptr @_ZTSSt23_Sp_counted_ptr_inplaceIN19OpenColorIO_v2_4dev27CTFReaderGammaParamsElt_1_5ESaIvELN9__gnu_cxx12_Lock_policyE2EE, ptr @_ZTISt16_Sp_counted_baseILN9__gnu_cxx12_Lock_policyE2EE }, comdat, align 8
@_ZTVSt23_Sp_counted_ptr_inplaceIN19OpenColorIO_v2_4dev20GradingPrimaryOpDataESaIvELN9__gnu_cxx12_Lock_policyE2EE = linkonce_odr hidden unnamed_addr constant { [7 x ptr] } { [7 x ptr] [ptr null, ptr @_ZTISt23_Sp_counted_ptr_inplaceIN19OpenColorIO_v2_4dev20GradingPrimaryOpDataESaIvELN9__gnu_cxx12_Lock_policyE2EE, ptr @_ZNSt23_Sp_counted_ptr_inplaceIN19OpenColorIO_v2_4dev20GradingPrimaryOpDataESaIvELN9__gnu_cxx12_Lock_policyE2EED2Ev, ptr @_ZNSt23_Sp_counted_ptr_inplaceIN19OpenColorIO_v2_4dev20GradingPrimaryOpDataESaIvELN9__gnu_cxx12_Lock_policyE2EED0Ev, ptr @_ZNSt23_Sp_counted_ptr_inplaceIN19OpenColorIO_v2_4dev20GradingPrimaryOpDataESaIvELN9__gnu_cxx12_Lock_policyE2EE10_M_disposeEv, ptr @_ZNSt23_Sp_counted_ptr_inplaceIN19OpenColorIO_v2_4dev20GradingPrimaryOpDataESaIvELN9__gnu_cxx12_Lock_policyE2EE10_M_destroyEv, ptr @_ZNSt23_Sp_counted_ptr_inplaceIN19OpenColorIO_v2_4dev20GradingPrimaryOpDataESaIvELN9__gnu_cxx12_Lock_policyE2EE14_M_get_deleterERKSt9type_info] }, comdat, align 8
@_ZTSSt23_Sp_counted_ptr_inplaceIN19OpenColorIO_v2_4dev20GradingPrimaryOpDataESaIvELN9__gnu_cxx12_Lock_policyE2EE = linkonce_odr hidden constant [109 x i8] c"St23_Sp_counted_ptr_inplaceIN19OpenColorIO_v2_4dev20GradingPrimaryOpDataESaIvELN9__gnu_cxx12_Lock_policyE2EE\00", comdat, align 1
@_ZTISt23_Sp_counted_ptr_inplaceIN19OpenColorIO_v2_4dev20GradingPrimaryOpDataESaIvELN9__gnu_cxx12_Lock_policyE2EE = linkonce_odr hidden constant { ptr, ptr, ptr } { ptr getelementptr inbounds (ptr, ptr @_ZTVN10__cxxabiv120__si_class_type_infoE, i64 2), ptr @_ZTSSt23_Sp_counted_ptr_inplaceIN19OpenColorIO_v2_4dev20GradingPrimaryOpDataESaIvELN9__gnu_cxx12_Lock_policyE2EE, ptr @_ZTISt16_Sp_counted_baseILN9__gnu_cxx12_Lock_policyE2EE }, comdat, align 8
@_ZTVSt23_Sp_counted_ptr_inplaceIN19OpenColorIO_v2_4dev21GradingRGBCurveOpDataESaIvELN9__gnu_cxx12_Lock_policyE2EE = linkonce_odr hidden unnamed_addr constant { [7 x ptr] } { [7 x ptr] [ptr null, ptr @_ZTISt23_Sp_counted_ptr_inplaceIN19OpenColorIO_v2_4dev21GradingRGBCurveOpDataESaIvELN9__gnu_cxx12_Lock_policyE2EE, ptr @_ZNSt23_Sp_counted_ptr_inplaceIN19OpenColorIO_v2_4dev21GradingRGBCurveOpDataESaIvELN9__gnu_cxx12_Lock_policyE2EED2Ev, ptr @_ZNSt23_Sp_counted_ptr_inplaceIN19OpenColorIO_v2_4dev21GradingRGBCurveOpDataESaIvELN9__gnu_cxx12_Lock_policyE2EED0Ev, ptr @_ZNSt23_Sp_counted_ptr_inplaceIN19OpenColorIO_v2_4dev21GradingRGBCurveOpDataESaIvELN9__gnu_cxx12_Lock_policyE2EE10_M_disposeEv, ptr @_ZNSt23_Sp_counted_ptr_inplaceIN19OpenColorIO_v2_4dev21GradingRGBCurveOpDataESaIvELN9__gnu_cxx12_Lock_policyE2EE10_M_destroyEv, ptr @_ZNSt23_Sp_counted_ptr_inplaceIN19OpenColorIO_v2_4dev21GradingRGBCurveOpDataESaIvELN9__gnu_cxx12_Lock_policyE2EE14_M_get_deleterERKSt9type_info] }, comdat, align 8
@_ZTSSt23_Sp_counted_ptr_inplaceIN19OpenColorIO_v2_4dev21GradingRGBCurveOpDataESaIvELN9__gnu_cxx12_Lock_policyE2EE = linkonce_odr hidden constant [110 x i8] c"St23_Sp_counted_ptr_inplaceIN19OpenColorIO_v2_4dev21GradingRGBCurveOpDataESaIvELN9__gnu_cxx12_Lock_policyE2EE\00", comdat, align 1
@_ZTISt23_Sp_counted_ptr_inplaceIN19OpenColorIO_v2_4dev21GradingRGBCurveOpDataESaIvELN9__gnu_cxx12_Lock_policyE2EE = linkonce_odr hidden constant { ptr, ptr, ptr } { ptr getelementptr inbounds (ptr, ptr @_ZTVN10__cxxabiv120__si_class_type_infoE, i64 2), ptr @_ZTSSt23_Sp_counted_ptr_inplaceIN19OpenColorIO_v2_4dev21GradingRGBCurveOpDataESaIvELN9__gnu_cxx12_Lock_policyE2EE, ptr @_ZTISt16_Sp_counted_baseILN9__gnu_cxx12_Lock_policyE2EE }, comdat, align 8
@.str.190 = private unnamed_addr constant [24 x i8] c"vector::_M_range_insert\00", align 1
@_ZTVSt23_Sp_counted_ptr_inplaceIN19OpenColorIO_v2_4dev17GradingToneOpDataESaIvELN9__gnu_cxx12_Lock_policyE2EE = linkonce_odr hidden unnamed_addr constant { [7 x ptr] } { [7 x ptr] [ptr null, ptr @_ZTISt23_Sp_counted_ptr_inplaceIN19OpenColorIO_v2_4dev17GradingToneOpDataESaIvELN9__gnu_cxx12_Lock_policyE2EE, ptr @_ZNSt23_Sp_counted_ptr_inplaceIN19OpenColorIO_v2_4dev17GradingToneOpDataESaIvELN9__gnu_cxx12_Lock_policyE2EED2Ev, ptr @_ZNSt23_Sp_counted_ptr_inplaceIN19OpenColorIO_v2_4dev17GradingToneOpDataESaIvELN9__gnu_cxx12_Lock_policyE2EED0Ev, ptr @_ZNSt23_Sp_counted_ptr_inplaceIN19OpenColorIO_v2_4dev17GradingToneOpDataESaIvELN9__gnu_cxx12_Lock_policyE2EE10_M_disposeEv, ptr @_ZNSt23_Sp_counted_ptr_inplaceIN19OpenColorIO_v2_4dev17GradingToneOpDataESaIvELN9__gnu_cxx12_Lock_policyE2EE10_M_destroyEv, ptr @_ZNSt23_Sp_counted_ptr_inplaceIN19OpenColorIO_v2_4dev17GradingToneOpDataESaIvELN9__gnu_cxx12_Lock_policyE2EE14_M_get_deleterERKSt9type_info] }, comdat, align 8
@_ZTSSt23_Sp_counted_ptr_inplaceIN19OpenColorIO_v2_4dev17GradingToneOpDataESaIvELN9__gnu_cxx12_Lock_policyE2EE = linkonce_odr hidden constant [106 x i8] c"St23_Sp_counted_ptr_inplaceIN19OpenColorIO_v2_4dev17GradingToneOpDataESaIvELN9__gnu_cxx12_Lock_policyE2EE\00", comdat, align 1
@_ZTISt23_Sp_counted_ptr_inplaceIN19OpenColorIO_v2_4dev17GradingToneOpDataESaIvELN9__gnu_cxx12_Lock_policyE2EE = linkonce_odr hidden constant { ptr, ptr, ptr } { ptr getelementptr inbounds (ptr, ptr @_ZTVN10__cxxabiv120__si_class_type_infoE, i64 2), ptr @_ZTSSt23_Sp_counted_ptr_inplaceIN19OpenColorIO_v2_4dev17GradingToneOpDataESaIvELN9__gnu_cxx12_Lock_policyE2EE, ptr @_ZTISt16_Sp_counted_baseILN9__gnu_cxx12_Lock_policyE2EE }, comdat, align 8
@_ZTVSt23_Sp_counted_ptr_inplaceIN19OpenColorIO_v2_4dev11Lut1DOpDataESaIvELN9__gnu_cxx12_Lock_policyE2EE = linkonce_odr hidden unnamed_addr constant { [7 x ptr] } { [7 x ptr] [ptr null, ptr @_ZTISt23_Sp_counted_ptr_inplaceIN19OpenColorIO_v2_4dev11Lut1DOpDataESaIvELN9__gnu_cxx12_Lock_policyE2EE, ptr @_ZNSt23_Sp_counted_ptr_inplaceIN19OpenColorIO_v2_4dev11Lut1DOpDataESaIvELN9__gnu_cxx12_Lock_policyE2EED2Ev, ptr @_ZNSt23_Sp_counted_ptr_inplaceIN19OpenColorIO_v2_4dev11Lut1DOpDataESaIvELN9__gnu_cxx12_Lock_policyE2EED0Ev, ptr @_ZNSt23_Sp_counted_ptr_inplaceIN19OpenColorIO_v2_4dev11Lut1DOpDataESaIvELN9__gnu_cxx12_Lock_policyE2EE10_M_disposeEv, ptr @_ZNSt23_Sp_counted_ptr_inplaceIN19OpenColorIO_v2_4dev11Lut1DOpDataESaIvELN9__gnu_cxx12_Lock_policyE2EE10_M_destroyEv, ptr @_ZNSt23_Sp_counted_ptr_inplaceIN19OpenColorIO_v2_4dev11Lut1DOpDataESaIvELN9__gnu_cxx12_Lock_policyE2EE14_M_get_deleterERKSt9type_info] }, comdat, align 8
@_ZTSSt23_Sp_counted_ptr_inplaceIN19OpenColorIO_v2_4dev11Lut1DOpDataESaIvELN9__gnu_cxx12_Lock_policyE2EE = linkonce_odr hidden constant [100 x i8] c"St23_Sp_counted_ptr_inplaceIN19OpenColorIO_v2_4dev11Lut1DOpDataESaIvELN9__gnu_cxx12_Lock_policyE2EE\00", comdat, align 1
@_ZTISt23_Sp_counted_ptr_inplaceIN19OpenColorIO_v2_4dev11Lut1DOpDataESaIvELN9__gnu_cxx12_Lock_policyE2EE = linkonce_odr hidden constant { ptr, ptr, ptr } { ptr getelementptr inbounds (ptr, ptr @_ZTVN10__cxxabiv120__si_class_type_infoE, i64 2), ptr @_ZTSSt23_Sp_counted_ptr_inplaceIN19OpenColorIO_v2_4dev11Lut1DOpDataESaIvELN9__gnu_cxx12_Lock_policyE2EE, ptr @_ZTISt16_Sp_counted_baseILN9__gnu_cxx12_Lock_policyE2EE }, comdat, align 8
@_ZTVSt23_Sp_counted_ptr_inplaceIN19OpenColorIO_v2_4dev11Lut3DOpDataESaIvELN9__gnu_cxx12_Lock_policyE2EE = linkonce_odr hidden unnamed_addr constant { [7 x ptr] } { [7 x ptr] [ptr null, ptr @_ZTISt23_Sp_counted_ptr_inplaceIN19OpenColorIO_v2_4dev11Lut3DOpDataESaIvELN9__gnu_cxx12_Lock_policyE2EE, ptr @_ZNSt23_Sp_counted_ptr_inplaceIN19OpenColorIO_v2_4dev11Lut3DOpDataESaIvELN9__gnu_cxx12_Lock_policyE2EED2Ev, ptr @_ZNSt23_Sp_counted_ptr_inplaceIN19OpenColorIO_v2_4dev11Lut3DOpDataESaIvELN9__gnu_cxx12_Lock_policyE2EED0Ev, ptr @_ZNSt23_Sp_counted_ptr_inplaceIN19OpenColorIO_v2_4dev11Lut3DOpDataESaIvELN9__gnu_cxx12_Lock_policyE2EE10_M_disposeEv, ptr @_ZNSt23_Sp_counted_ptr_inplaceIN19OpenColorIO_v2_4dev11Lut3DOpDataESaIvELN9__gnu_cxx12_Lock_policyE2EE10_M_destroyEv, ptr @_ZNSt23_Sp_counted_ptr_inplaceIN19OpenColorIO_v2_4dev11Lut3DOpDataESaIvELN9__gnu_cxx12_Lock_policyE2EE14_M_get_deleterERKSt9type_info] }, comdat, align 8
@_ZTSSt23_Sp_counted_ptr_inplaceIN19OpenColorIO_v2_4dev11Lut3DOpDataESaIvELN9__gnu_cxx12_Lock_policyE2EE = linkonce_odr hidden constant [100 x i8] c"St23_Sp_counted_ptr_inplaceIN19OpenColorIO_v2_4dev11Lut3DOpDataESaIvELN9__gnu_cxx12_Lock_policyE2EE\00", comdat, align 1
@_ZTISt23_Sp_counted_ptr_inplaceIN19OpenColorIO_v2_4dev11Lut3DOpDataESaIvELN9__gnu_cxx12_Lock_policyE2EE = linkonce_odr hidden constant { ptr, ptr, ptr } { ptr getelementptr inbounds (ptr, ptr @_ZTVN10__cxxabiv120__si_class_type_infoE, i64 2), ptr @_ZTSSt23_Sp_counted_ptr_inplaceIN19OpenColorIO_v2_4dev11Lut3DOpDataESaIvELN9__gnu_cxx12_Lock_policyE2EE, ptr @_ZTISt16_Sp_counted_baseILN9__gnu_cxx12_Lock_policyE2EE }, comdat, align 8
@_ZTVSt23_Sp_counted_ptr_inplaceIN19OpenColorIO_v2_4dev9LogOpDataESaIvELN9__gnu_cxx12_Lock_policyE2EE = linkonce_odr hidden unnamed_addr constant { [7 x ptr] } { [7 x ptr] [ptr null, ptr @_ZTISt23_Sp_counted_ptr_inplaceIN19OpenColorIO_v2_4dev9LogOpDataESaIvELN9__gnu_cxx12_Lock_policyE2EE, ptr @_ZNSt23_Sp_counted_ptr_inplaceIN19OpenColorIO_v2_4dev9LogOpDataESaIvELN9__gnu_cxx12_Lock_policyE2EED2Ev, ptr @_ZNSt23_Sp_counted_ptr_inplaceIN19OpenColorIO_v2_4dev9LogOpDataESaIvELN9__gnu_cxx12_Lock_policyE2EED0Ev, ptr @_ZNSt23_Sp_counted_ptr_inplaceIN19OpenColorIO_v2_4dev9LogOpDataESaIvELN9__gnu_cxx12_Lock_policyE2EE10_M_disposeEv, ptr @_ZNSt23_Sp_counted_ptr_inplaceIN19OpenColorIO_v2_4dev9LogOpDataESaIvELN9__gnu_cxx12_Lock_policyE2EE10_M_destroyEv, ptr @_ZNSt23_Sp_counted_ptr_inplaceIN19OpenColorIO_v2_4dev9LogOpDataESaIvELN9__gnu_cxx12_Lock_policyE2EE14_M_get_deleterERKSt9type_info] }, comdat, align 8
@_ZTSSt23_Sp_counted_ptr_inplaceIN19OpenColorIO_v2_4dev9LogOpDataESaIvELN9__gnu_cxx12_Lock_policyE2EE = linkonce_odr hidden constant [97 x i8] c"St23_Sp_counted_ptr_inplaceIN19OpenColorIO_v2_4dev9LogOpDataESaIvELN9__gnu_cxx12_Lock_policyE2EE\00", comdat, align 1
@_ZTISt23_Sp_counted_ptr_inplaceIN19OpenColorIO_v2_4dev9LogOpDataESaIvELN9__gnu_cxx12_Lock_policyE2EE = linkonce_odr hidden constant { ptr, ptr, ptr } { ptr getelementptr inbounds (ptr, ptr @_ZTVN10__cxxabiv120__si_class_type_infoE, i64 2), ptr @_ZTSSt23_Sp_counted_ptr_inplaceIN19OpenColorIO_v2_4dev9LogOpDataESaIvELN9__gnu_cxx12_Lock_policyE2EE, ptr @_ZTISt16_Sp_counted_baseILN9__gnu_cxx12_Lock_policyE2EE }, comdat, align 8
@_ZTVSt23_Sp_counted_ptr_inplaceIN19OpenColorIO_v2_4dev21CTFReaderLogParamsEltESaIvELN9__gnu_cxx12_Lock_policyE2EE = linkonce_odr hidden unnamed_addr constant { [7 x ptr] } { [7 x ptr] [ptr null, ptr @_ZTISt23_Sp_counted_ptr_inplaceIN19OpenColorIO_v2_4dev21CTFReaderLogParamsEltESaIvELN9__gnu_cxx12_Lock_policyE2EE, ptr @_ZNSt23_Sp_counted_ptr_inplaceIN19OpenColorIO_v2_4dev21CTFReaderLogParamsEltESaIvELN9__gnu_cxx12_Lock_policyE2EED2Ev, ptr @_ZNSt23_Sp_counted_ptr_inplaceIN19OpenColorIO_v2_4dev21CTFReaderLogParamsEltESaIvELN9__gnu_cxx12_Lock_policyE2EED0Ev, ptr @_ZNSt23_Sp_counted_ptr_inplaceIN19OpenColorIO_v2_4dev21CTFReaderLogParamsEltESaIvELN9__gnu_cxx12_Lock_policyE2EE10_M_disposeEv, ptr @_ZNSt23_Sp_counted_ptr_inplaceIN19OpenColorIO_v2_4dev21CTFReaderLogParamsEltESaIvELN9__gnu_cxx12_Lock_policyE2EE10_M_destroyEv, ptr @_ZNSt23_Sp_counted_ptr_inplaceIN19OpenColorIO_v2_4dev21CTFReaderLogParamsEltESaIvELN9__gnu_cxx12_Lock_policyE2EE14_M_get_deleterERKSt9type_info] }, comdat, align 8
@_ZTSSt23_Sp_counted_ptr_inplaceIN19OpenColorIO_v2_4dev21CTFReaderLogParamsEltESaIvELN9__gnu_cxx12_Lock_policyE2EE = linkonce_odr hidden constant [110 x i8] c"St23_Sp_counted_ptr_inplaceIN19OpenColorIO_v2_4dev21CTFReaderLogParamsEltESaIvELN9__gnu_cxx12_Lock_policyE2EE\00", comdat, align 1
@_ZTISt23_Sp_counted_ptr_inplaceIN19OpenColorIO_v2_4dev21CTFReaderLogParamsEltESaIvELN9__gnu_cxx12_Lock_policyE2EE = linkonce_odr hidden constant { ptr, ptr, ptr } { ptr getelementptr inbounds (ptr, ptr @_ZTVN10__cxxabiv120__si_class_type_infoE, i64 2), ptr @_ZTSSt23_Sp_counted_ptr_inplaceIN19OpenColorIO_v2_4dev21CTFReaderLogParamsEltESaIvELN9__gnu_cxx12_Lock_policyE2EE, ptr @_ZTISt16_Sp_counted_baseILN9__gnu_cxx12_Lock_policyE2EE }, comdat, align 8
@_ZTVSt23_Sp_counted_ptr_inplaceIN19OpenColorIO_v2_4dev25CTFReaderLogParamsElt_2_0ESaIvELN9__gnu_cxx12_Lock_policyE2EE = linkonce_odr hidden unnamed_addr constant { [7 x ptr] } { [7 x ptr] [ptr null, ptr @_ZTISt23_Sp_counted_ptr_inplaceIN19OpenColorIO_v2_4dev25CTFReaderLogParamsElt_2_0ESaIvELN9__gnu_cxx12_Lock_policyE2EE, ptr @_ZNSt23_Sp_counted_ptr_inplaceIN19OpenColorIO_v2_4dev25CTFReaderLogParamsElt_2_0ESaIvELN9__gnu_cxx12_Lock_policyE2EED2Ev, ptr @_ZNSt23_Sp_counted_ptr_inplaceIN19OpenColorIO_v2_4dev25CTFReaderLogParamsElt_2_0ESaIvELN9__gnu_cxx12_Lock_policyE2EED0Ev, ptr @_ZNSt23_Sp_counted_ptr_inplaceIN19OpenColorIO_v2_4dev25CTFReaderLogParamsElt_2_0ESaIvELN9__gnu_cxx12_Lock_policyE2EE10_M_disposeEv, ptr @_ZNSt23_Sp_counted_ptr_inplaceIN19OpenColorIO_v2_4dev25CTFReaderLogParamsElt_2_0ESaIvELN9__gnu_cxx12_Lock_policyE2EE10_M_destroyEv, ptr @_ZNSt23_Sp_counted_ptr_inplaceIN19OpenColorIO_v2_4dev25CTFReaderLogParamsElt_2_0ESaIvELN9__gnu_cxx12_Lock_policyE2EE14_M_get_deleterERKSt9type_info] }, comdat, align 8
@_ZTSSt23_Sp_counted_ptr_inplaceIN19OpenColorIO_v2_4dev25CTFReaderLogParamsElt_2_0ESaIvELN9__gnu_cxx12_Lock_policyE2EE = linkonce_odr hidden constant [114 x i8] c"St23_Sp_counted_ptr_inplaceIN19OpenColorIO_v2_4dev25CTFReaderLogParamsElt_2_0ESaIvELN9__gnu_cxx12_Lock_policyE2EE\00", comdat, align 1
@_ZTISt23_Sp_counted_ptr_inplaceIN19OpenColorIO_v2_4dev25CTFReaderLogParamsElt_2_0ESaIvELN9__gnu_cxx12_Lock_policyE2EE = linkonce_odr hidden constant { ptr, ptr, ptr } { ptr getelementptr inbounds (ptr, ptr @_ZTVN10__cxxabiv120__si_class_type_infoE, i64 2), ptr @_ZTSSt23_Sp_counted_ptr_inplaceIN19OpenColorIO_v2_4dev25CTFReaderLogParamsElt_2_0ESaIvELN9__gnu_cxx12_Lock_policyE2EE, ptr @_ZTISt16_Sp_counted_baseILN9__gnu_cxx12_Lock_policyE2EE }, comdat, align 8
@_ZTIN19OpenColorIO_v2_4dev6OpDataE = external constant ptr
@_ZTIN19OpenColorIO_v2_4dev9LogOpDataE = external constant ptr
@_ZTVSt23_Sp_counted_ptr_inplaceIN19OpenColorIO_v2_4dev11RangeOpDataESaIvELN9__gnu_cxx12_Lock_policyE2EE = linkonce_odr hidden unnamed_addr constant { [7 x ptr] } { [7 x ptr] [ptr null, ptr @_ZTISt23_Sp_counted_ptr_inplaceIN19OpenColorIO_v2_4dev11RangeOpDataESaIvELN9__gnu_cxx12_Lock_policyE2EE, ptr @_ZNSt23_Sp_counted_ptr_inplaceIN19OpenColorIO_v2_4dev11RangeOpDataESaIvELN9__gnu_cxx12_Lock_policyE2EED2Ev, ptr @_ZNSt23_Sp_counted_ptr_inplaceIN19OpenColorIO_v2_4dev11RangeOpDataESaIvELN9__gnu_cxx12_Lock_policyE2EED0Ev, ptr @_ZNSt23_Sp_counted_ptr_inplaceIN19OpenColorIO_v2_4dev11RangeOpDataESaIvELN9__gnu_cxx12_Lock_policyE2EE10_M_disposeEv, ptr @_ZNSt23_Sp_counted_ptr_inplaceIN19OpenColorIO_v2_4dev11RangeOpDataESaIvELN9__gnu_cxx12_Lock_policyE2EE10_M_destroyEv, ptr @_ZNSt23_Sp_counted_ptr_inplaceIN19OpenColorIO_v2_4dev11RangeOpDataESaIvELN9__gnu_cxx12_Lock_policyE2EE14_M_get_deleterERKSt9type_info] }, comdat, align 8
@_ZTSSt23_Sp_counted_ptr_inplaceIN19OpenColorIO_v2_4dev11RangeOpDataESaIvELN9__gnu_cxx12_Lock_policyE2EE = linkonce_odr hidden constant [100 x i8] c"St23_Sp_counted_ptr_inplaceIN19OpenColorIO_v2_4dev11RangeOpDataESaIvELN9__gnu_cxx12_Lock_policyE2EE\00", comdat, align 1
@_ZTISt23_Sp_counted_ptr_inplaceIN19OpenColorIO_v2_4dev11RangeOpDataESaIvELN9__gnu_cxx12_Lock_policyE2EE = linkonce_odr hidden constant { ptr, ptr, ptr } { ptr getelementptr inbounds (ptr, ptr @_ZTVN10__cxxabiv120__si_class_type_infoE, i64 2), ptr @_ZTSSt23_Sp_counted_ptr_inplaceIN19OpenColorIO_v2_4dev11RangeOpDataESaIvELN9__gnu_cxx12_Lock_policyE2EE, ptr @_ZTISt16_Sp_counted_baseILN9__gnu_cxx12_Lock_policyE2EE }, comdat, align 8
@_ZTVSt23_Sp_counted_ptr_inplaceIN19OpenColorIO_v2_4dev12MatrixOpDataESaIvELN9__gnu_cxx12_Lock_policyE2EE = linkonce_odr hidden unnamed_addr constant { [7 x ptr] } { [7 x ptr] [ptr null, ptr @_ZTISt23_Sp_counted_ptr_inplaceIN19OpenColorIO_v2_4dev12MatrixOpDataESaIvELN9__gnu_cxx12_Lock_policyE2EE, ptr @_ZNSt23_Sp_counted_ptr_inplaceIN19OpenColorIO_v2_4dev12MatrixOpDataESaIvELN9__gnu_cxx12_Lock_policyE2EED2Ev, ptr @_ZNSt23_Sp_counted_ptr_inplaceIN19OpenColorIO_v2_4dev12MatrixOpDataESaIvELN9__gnu_cxx12_Lock_policyE2EED0Ev, ptr @_ZNSt23_Sp_counted_ptr_inplaceIN19OpenColorIO_v2_4dev12MatrixOpDataESaIvELN9__gnu_cxx12_Lock_policyE2EE10_M_disposeEv, ptr @_ZNSt23_Sp_counted_ptr_inplaceIN19OpenColorIO_v2_4dev12MatrixOpDataESaIvELN9__gnu_cxx12_Lock_policyE2EE10_M_destroyEv, ptr @_ZNSt23_Sp_counted_ptr_inplaceIN19OpenColorIO_v2_4dev12MatrixOpDataESaIvELN9__gnu_cxx12_Lock_policyE2EE14_M_get_deleterERKSt9type_info] }, comdat, align 8
@_ZTSSt23_Sp_counted_ptr_inplaceIN19OpenColorIO_v2_4dev12MatrixOpDataESaIvELN9__gnu_cxx12_Lock_policyE2EE = linkonce_odr hidden constant [101 x i8] c"St23_Sp_counted_ptr_inplaceIN19OpenColorIO_v2_4dev12MatrixOpDataESaIvELN9__gnu_cxx12_Lock_policyE2EE\00", comdat, align 1
@_ZTISt23_Sp_counted_ptr_inplaceIN19OpenColorIO_v2_4dev12MatrixOpDataESaIvELN9__gnu_cxx12_Lock_policyE2EE = linkonce_odr hidden constant { ptr, ptr, ptr } { ptr getelementptr inbounds (ptr, ptr @_ZTVN10__cxxabiv120__si_class_type_infoE, i64 2), ptr @_ZTSSt23_Sp_counted_ptr_inplaceIN19OpenColorIO_v2_4dev12MatrixOpDataESaIvELN9__gnu_cxx12_Lock_policyE2EE, ptr @_ZTISt16_Sp_counted_baseILN9__gnu_cxx12_Lock_policyE2EE }, comdat, align 8
@.str.191 = private unnamed_addr constant [26 x i8] c"vector::_M_default_append\00", align 1
@_ZTVSt23_Sp_counted_ptr_inplaceIN19OpenColorIO_v2_4dev15ReferenceOpDataESaIvELN9__gnu_cxx12_Lock_policyE2EE = linkonce_odr hidden unnamed_addr constant { [7 x ptr] } { [7 x ptr] [ptr null, ptr @_ZTISt23_Sp_counted_ptr_inplaceIN19OpenColorIO_v2_4dev15ReferenceOpDataESaIvELN9__gnu_cxx12_Lock_policyE2EE, ptr @_ZNSt23_Sp_counted_ptr_inplaceIN19OpenColorIO_v2_4dev15ReferenceOpDataESaIvELN9__gnu_cxx12_Lock_policyE2EED2Ev, ptr @_ZNSt23_Sp_counted_ptr_inplaceIN19OpenColorIO_v2_4dev15ReferenceOpDataESaIvELN9__gnu_cxx12_Lock_policyE2EED0Ev, ptr @_ZNSt23_Sp_counted_ptr_inplaceIN19OpenColorIO_v2_4dev15ReferenceOpDataESaIvELN9__gnu_cxx12_Lock_policyE2EE10_M_disposeEv, ptr @_ZNSt23_Sp_counted_ptr_inplaceIN19OpenColorIO_v2_4dev15ReferenceOpDataESaIvELN9__gnu_cxx12_Lock_policyE2EE10_M_destroyEv, ptr @_ZNSt23_Sp_counted_ptr_inplaceIN19OpenColorIO_v2_4dev15ReferenceOpDataESaIvELN9__gnu_cxx12_Lock_policyE2EE14_M_get_deleterERKSt9type_info] }, comdat, align 8
@_ZTSSt23_Sp_counted_ptr_inplaceIN19OpenColorIO_v2_4dev15ReferenceOpDataESaIvELN9__gnu_cxx12_Lock_policyE2EE = linkonce_odr hidden constant [104 x i8] c"St23_Sp_counted_ptr_inplaceIN19OpenColorIO_v2_4dev15ReferenceOpDataESaIvELN9__gnu_cxx12_Lock_policyE2EE\00", comdat, align 1
@_ZTISt23_Sp_counted_ptr_inplaceIN19OpenColorIO_v2_4dev15ReferenceOpDataESaIvELN9__gnu_cxx12_Lock_policyE2EE = linkonce_odr hidden constant { ptr, ptr, ptr } { ptr getelementptr inbounds (ptr, ptr @_ZTVN10__cxxabiv120__si_class_type_infoE, i64 2), ptr @_ZTSSt23_Sp_counted_ptr_inplaceIN19OpenColorIO_v2_4dev15ReferenceOpDataESaIvELN9__gnu_cxx12_Lock_policyE2EE, ptr @_ZTISt16_Sp_counted_baseILN9__gnu_cxx12_Lock_policyE2EE }, comdat, align 8
@llvm.global_ctors = appending global [1 x { i32, ptr, ptr }] [{ i32, ptr, ptr } { i32 65535, ptr @_GLOBAL__sub_I_CTFReaderHelper.cpp, ptr null }]

@_ZN19OpenColorIO_v2_4dev21CTFReaderTransformEltC1ERKNSt7__cxx1112basic_stringIcSt11char_traitsIcESaIcEEEjS8_b = hidden unnamed_addr alias void (ptr, ptr, i32, ptr, i1), ptr @_ZN19OpenColorIO_v2_4dev21CTFReaderTransformEltC2ERKNSt7__cxx1112basic_stringIcSt11char_traitsIcESaIcEEEjS8_b
@_ZN19OpenColorIO_v2_4dev17CTFReaderArrayEltC1ERKNSt7__cxx1112basic_stringIcSt11char_traitsIcESaIcEEESt10shared_ptrINS_21XmlReaderContainerEltEEjS8_ = hidden unnamed_addr alias void (ptr, ptr, ptr, i32, ptr), ptr @_ZN19OpenColorIO_v2_4dev17CTFReaderArrayEltC2ERKNSt7__cxx1112basic_stringIcSt11char_traitsIcESaIcEEESt10shared_ptrINS_21XmlReaderContainerEltEEjS8_
@_ZN19OpenColorIO_v2_4dev17CTFReaderArrayEltD1Ev = hidden unnamed_addr alias void (ptr), ptr @_ZN19OpenColorIO_v2_4dev17CTFReaderArrayEltD2Ev
@_ZN19OpenColorIO_v2_4dev11CTFArrayMgtD1Ev = hidden unnamed_addr alias void (ptr), ptr @_ZN19OpenColorIO_v2_4dev11CTFArrayMgtD2Ev
@_ZN19OpenColorIO_v2_4dev20CTFReaderIndexMapEltC1ERKNSt7__cxx1112basic_stringIcSt11char_traitsIcESaIcEEESt10shared_ptrINS_21XmlReaderContainerEltEEjS8_ = hidden unnamed_addr alias void (ptr, ptr, ptr, i32, ptr), ptr @_ZN19OpenColorIO_v2_4dev20CTFReaderIndexMapEltC2ERKNSt7__cxx1112basic_stringIcSt11char_traitsIcESaIcEEESt10shared_ptrINS_21XmlReaderContainerEltEEjS8_
@_ZN19OpenColorIO_v2_4dev20CTFReaderIndexMapEltD1Ev = hidden unnamed_addr alias void (ptr), ptr @_ZN19OpenColorIO_v2_4dev20CTFReaderIndexMapEltD2Ev
@_ZN19OpenColorIO_v2_4dev20CTFReaderMetadataEltC1ERKNSt7__cxx1112basic_stringIcSt11char_traitsIcESaIcEEESt10shared_ptrINS_21XmlReaderContainerEltEEjS8_ = hidden unnamed_addr alias void (ptr, ptr, ptr, i32, ptr), ptr @_ZN19OpenColorIO_v2_4dev20CTFReaderMetadataEltC2ERKNSt7__cxx1112basic_stringIcSt11char_traitsIcESaIcEEESt10shared_ptrINS_21XmlReaderContainerEltEEjS8_
@_ZN19OpenColorIO_v2_4dev20CTFReaderMetadataEltD1Ev = hidden unnamed_addr alias void (ptr), ptr @_ZN19OpenColorIO_v2_4dev20CTFReaderMetadataEltD2Ev
@_ZN19OpenColorIO_v2_4dev16CTFReaderInfoEltC1ERKNSt7__cxx1112basic_stringIcSt11char_traitsIcESaIcEEESt10shared_ptrINS_21XmlReaderContainerEltEEjS8_ = hidden unnamed_addr alias void (ptr, ptr, ptr, i32, ptr), ptr @_ZN19OpenColorIO_v2_4dev16CTFReaderInfoEltC2ERKNSt7__cxx1112basic_stringIcSt11char_traitsIcESaIcEEESt10shared_ptrINS_21XmlReaderContainerEltEEjS8_
@_ZN19OpenColorIO_v2_4dev16CTFReaderInfoEltD1Ev = hidden unnamed_addr alias void (ptr), ptr @_ZN19OpenColorIO_v2_4dev16CTFReaderInfoEltD2Ev
@_ZN19OpenColorIO_v2_4dev14CTFReaderOpEltD1Ev = hidden unnamed_addr alias void (ptr), ptr @_ZN19OpenColorIO_v2_4dev14CTFReaderOpEltD2Ev
@_ZN19OpenColorIO_v2_4dev16CTFReaderACESEltC1Ev = hidden unnamed_addr alias void (ptr), ptr @_ZN19OpenColorIO_v2_4dev16CTFReaderACESEltC2Ev
@_ZN19OpenColorIO_v2_4dev16CTFReaderACESEltD1Ev = hidden unnamed_addr alias void (ptr), ptr @_ZN19OpenColorIO_v2_4dev16CTFReaderACESEltD2Ev
@_ZN19OpenColorIO_v2_4dev22CTFReaderACESParamsEltC1ERKNSt7__cxx1112basic_stringIcSt11char_traitsIcESaIcEEESt10shared_ptrINS_21XmlReaderContainerEltEEjS8_ = hidden unnamed_addr alias void (ptr, ptr, ptr, i32, ptr), ptr @_ZN19OpenColorIO_v2_4dev22CTFReaderACESParamsEltC2ERKNSt7__cxx1112basic_stringIcSt11char_traitsIcESaIcEEESt10shared_ptrINS_21XmlReaderContainerEltEEjS8_
@_ZN19OpenColorIO_v2_4dev22CTFReaderACESParamsEltD1Ev = hidden unnamed_addr alias void (ptr), ptr @_ZN19OpenColorIO_v2_4dev22CTFReaderACESParamsEltD2Ev
@_ZN19OpenColorIO_v2_4dev15CTFReaderCDLEltC1Ev = hidden unnamed_addr alias void (ptr), ptr @_ZN19OpenColorIO_v2_4dev15CTFReaderCDLEltC2Ev
@_ZN19OpenColorIO_v2_4dev15CTFReaderCDLEltD1Ev = hidden unnamed_addr alias void (ptr), ptr @_ZN19OpenColorIO_v2_4dev15CTFReaderCDLEltD2Ev
@_ZN19OpenColorIO_v2_4dev19CTFReaderSatNodeEltC1ERKNSt7__cxx1112basic_stringIcSt11char_traitsIcESaIcEEESt10shared_ptrINS_21XmlReaderContainerEltEEjS8_ = hidden unnamed_addr alias void (ptr, ptr, ptr, i32, ptr), ptr @_ZN19OpenColorIO_v2_4dev19CTFReaderSatNodeEltC2ERKNSt7__cxx1112basic_stringIcSt11char_traitsIcESaIcEEESt10shared_ptrINS_21XmlReaderContainerEltEEjS8_
@_ZN19OpenColorIO_v2_4dev19CTFReaderSOPNodeEltC1ERKNSt7__cxx1112basic_stringIcSt11char_traitsIcESaIcEEESt10shared_ptrINS_21XmlReaderContainerEltEEjS8_ = hidden unnamed_addr alias void (ptr, ptr, ptr, i32, ptr), ptr @_ZN19OpenColorIO_v2_4dev19CTFReaderSOPNodeEltC2ERKNSt7__cxx1112basic_stringIcSt11char_traitsIcESaIcEEESt10shared_ptrINS_21XmlReaderContainerEltEEjS8_
@_ZN19OpenColorIO_v2_4dev25CTFReaderFixedFunctionEltC1Ev = hidden unnamed_addr alias void (ptr), ptr @_ZN19OpenColorIO_v2_4dev25CTFReaderFixedFunctionEltC2Ev
@_ZN19OpenColorIO_v2_4dev25CTFReaderFixedFunctionEltD1Ev = hidden unnamed_addr alias void (ptr), ptr @_ZN19OpenColorIO_v2_4dev25CTFReaderFixedFunctionEltD2Ev
@_ZN19OpenColorIO_v2_4dev20CTFReaderFunctionEltC1Ev = hidden unnamed_addr alias void (ptr), ptr @_ZN19OpenColorIO_v2_4dev20CTFReaderFunctionEltC2Ev
@_ZN19OpenColorIO_v2_4dev20CTFReaderFunctionEltD1Ev = hidden unnamed_addr alias void (ptr), ptr @_ZN19OpenColorIO_v2_4dev20CTFReaderFunctionEltD2Ev
@_ZN19OpenColorIO_v2_4dev24CTFReaderDynamicParamEltC1ERKNSt7__cxx1112basic_stringIcSt11char_traitsIcESaIcEEESt10shared_ptrINS_21XmlReaderContainerEltEEjS8_ = hidden unnamed_addr alias void (ptr, ptr, ptr, i32, ptr), ptr @_ZN19OpenColorIO_v2_4dev24CTFReaderDynamicParamEltC2ERKNSt7__cxx1112basic_stringIcSt11char_traitsIcESaIcEEESt10shared_ptrINS_21XmlReaderContainerEltEEjS8_
@_ZN19OpenColorIO_v2_4dev24CTFReaderDynamicParamEltD1Ev = hidden unnamed_addr alias void (ptr), ptr @_ZN19OpenColorIO_v2_4dev24CTFReaderDynamicParamEltD2Ev
@_ZN19OpenColorIO_v2_4dev28CTFReaderExposureContrastEltC1Ev = hidden unnamed_addr alias void (ptr), ptr @_ZN19OpenColorIO_v2_4dev28CTFReaderExposureContrastEltC2Ev
@_ZN19OpenColorIO_v2_4dev28CTFReaderExposureContrastEltD1Ev = hidden unnamed_addr alias void (ptr), ptr @_ZN19OpenColorIO_v2_4dev28CTFReaderExposureContrastEltD2Ev
@_ZN19OpenColorIO_v2_4dev20CTFReaderECParamsEltC1ERKNSt7__cxx1112basic_stringIcSt11char_traitsIcESaIcEEESt10shared_ptrINS_21XmlReaderContainerEltEEjS8_ = hidden unnamed_addr alias void (ptr, ptr, ptr, i32, ptr), ptr @_ZN19OpenColorIO_v2_4dev20CTFReaderECParamsEltC2ERKNSt7__cxx1112basic_stringIcSt11char_traitsIcESaIcEEESt10shared_ptrINS_21XmlReaderContainerEltEEjS8_
@_ZN19OpenColorIO_v2_4dev20CTFReaderECParamsEltD1Ev = hidden unnamed_addr alias void (ptr), ptr @_ZN19OpenColorIO_v2_4dev20CTFReaderECParamsEltD2Ev
@_ZN19OpenColorIO_v2_4dev17CTFReaderGammaEltC1Ev = hidden unnamed_addr alias void (ptr), ptr @_ZN19OpenColorIO_v2_4dev17CTFReaderGammaEltC2Ev
@_ZN19OpenColorIO_v2_4dev17CTFReaderGammaEltD1Ev = hidden unnamed_addr alias void (ptr), ptr @_ZN19OpenColorIO_v2_4dev17CTFReaderGammaEltD2Ev
@_ZN19OpenColorIO_v2_4dev23CTFReaderGammaParamsEltC1ERKNSt7__cxx1112basic_stringIcSt11char_traitsIcESaIcEEESt10shared_ptrINS_21XmlReaderContainerEltEEjS8_ = hidden unnamed_addr alias void (ptr, ptr, ptr, i32, ptr), ptr @_ZN19OpenColorIO_v2_4dev23CTFReaderGammaParamsEltC2ERKNSt7__cxx1112basic_stringIcSt11char_traitsIcESaIcEEESt10shared_ptrINS_21XmlReaderContainerEltEEjS8_
@_ZN19OpenColorIO_v2_4dev23CTFReaderGammaParamsEltD1Ev = hidden unnamed_addr alias void (ptr), ptr @_ZN19OpenColorIO_v2_4dev23CTFReaderGammaParamsEltD2Ev
@_ZN19OpenColorIO_v2_4dev27CTFReaderGammaParamsElt_1_5C1ERKNSt7__cxx1112basic_stringIcSt11char_traitsIcESaIcEEESt10shared_ptrINS_21XmlReaderContainerEltEEjS8_ = hidden unnamed_addr alias void (ptr, ptr, ptr, i32, ptr), ptr @_ZN19OpenColorIO_v2_4dev27CTFReaderGammaParamsElt_1_5C2ERKNSt7__cxx1112basic_stringIcSt11char_traitsIcESaIcEEESt10shared_ptrINS_21XmlReaderContainerEltEEjS8_
@_ZN19OpenColorIO_v2_4dev27CTFReaderGammaParamsElt_1_5D1Ev = hidden unnamed_addr alias void (ptr), ptr @_ZN19OpenColorIO_v2_4dev27CTFReaderGammaParamsElt_1_5D2Ev
@_ZN19OpenColorIO_v2_4dev26CTFReaderGradingPrimaryEltC1Ev = hidden unnamed_addr alias void (ptr), ptr @_ZN19OpenColorIO_v2_4dev26CTFReaderGradingPrimaryEltC2Ev
@_ZN19OpenColorIO_v2_4dev31CTFReaderGradingPrimaryParamEltC1ERKNSt7__cxx1112basic_stringIcSt11char_traitsIcESaIcEEESt10shared_ptrINS_21XmlReaderContainerEltEEjS8_ = hidden unnamed_addr alias void (ptr, ptr, ptr, i32, ptr), ptr @_ZN19OpenColorIO_v2_4dev31CTFReaderGradingPrimaryParamEltC2ERKNSt7__cxx1112basic_stringIcSt11char_traitsIcESaIcEEESt10shared_ptrINS_21XmlReaderContainerEltEEjS8_
@_ZN19OpenColorIO_v2_4dev31CTFReaderGradingPrimaryParamEltD1Ev = hidden unnamed_addr alias void (ptr), ptr @_ZN19OpenColorIO_v2_4dev31CTFReaderGradingPrimaryParamEltD2Ev
@_ZN19OpenColorIO_v2_4dev27CTFReaderGradingRGBCurveEltC1Ev = hidden unnamed_addr alias void (ptr), ptr @_ZN19OpenColorIO_v2_4dev27CTFReaderGradingRGBCurveEltC2Ev
@_ZN19OpenColorIO_v2_4dev24CTFReaderGradingCurveEltC1ERKNSt7__cxx1112basic_stringIcSt11char_traitsIcESaIcEEESt10shared_ptrINS_21XmlReaderContainerEltEEjS8_ = hidden unnamed_addr alias void (ptr, ptr, ptr, i32, ptr), ptr @_ZN19OpenColorIO_v2_4dev24CTFReaderGradingCurveEltC2ERKNSt7__cxx1112basic_stringIcSt11char_traitsIcESaIcEEESt10shared_ptrINS_21XmlReaderContainerEltEEjS8_
@_ZN19OpenColorIO_v2_4dev24CTFReaderGradingCurveEltD1Ev = hidden unnamed_addr alias void (ptr), ptr @_ZN19OpenColorIO_v2_4dev24CTFReaderGradingCurveEltD2Ev
@_ZN19OpenColorIO_v2_4dev30CTFReaderGradingCurvePointsEltC1ERKNSt7__cxx1112basic_stringIcSt11char_traitsIcESaIcEEESt10shared_ptrINS_21XmlReaderContainerEltEEjS8_ = hidden unnamed_addr alias void (ptr, ptr, ptr, i32, ptr), ptr @_ZN19OpenColorIO_v2_4dev30CTFReaderGradingCurvePointsEltC2ERKNSt7__cxx1112basic_stringIcSt11char_traitsIcESaIcEEESt10shared_ptrINS_21XmlReaderContainerEltEEjS8_
@_ZN19OpenColorIO_v2_4dev30CTFReaderGradingCurvePointsEltD1Ev = hidden unnamed_addr alias void (ptr), ptr @_ZN19OpenColorIO_v2_4dev30CTFReaderGradingCurvePointsEltD2Ev
@_ZN19OpenColorIO_v2_4dev30CTFReaderGradingCurveSlopesEltC1ERKNSt7__cxx1112basic_stringIcSt11char_traitsIcESaIcEEESt10shared_ptrINS_21XmlReaderContainerEltEEjS8_ = hidden unnamed_addr alias void (ptr, ptr, ptr, i32, ptr), ptr @_ZN19OpenColorIO_v2_4dev30CTFReaderGradingCurveSlopesEltC2ERKNSt7__cxx1112basic_stringIcSt11char_traitsIcESaIcEEESt10shared_ptrINS_21XmlReaderContainerEltEEjS8_
@_ZN19OpenColorIO_v2_4dev30CTFReaderGradingCurveSlopesEltD1Ev = hidden unnamed_addr alias void (ptr), ptr @_ZN19OpenColorIO_v2_4dev30CTFReaderGradingCurveSlopesEltD2Ev
@_ZN19OpenColorIO_v2_4dev23CTFReaderGradingToneEltC1Ev = hidden unnamed_addr alias void (ptr), ptr @_ZN19OpenColorIO_v2_4dev23CTFReaderGradingToneEltC2Ev
@_ZN19OpenColorIO_v2_4dev28CTFReaderGradingToneParamEltC1ERKNSt7__cxx1112basic_stringIcSt11char_traitsIcESaIcEEESt10shared_ptrINS_21XmlReaderContainerEltEEjS8_ = hidden unnamed_addr alias void (ptr, ptr, ptr, i32, ptr), ptr @_ZN19OpenColorIO_v2_4dev28CTFReaderGradingToneParamEltC2ERKNSt7__cxx1112basic_stringIcSt11char_traitsIcESaIcEEESt10shared_ptrINS_21XmlReaderContainerEltEEjS8_
@_ZN19OpenColorIO_v2_4dev28CTFReaderGradingToneParamEltD1Ev = hidden unnamed_addr alias void (ptr), ptr @_ZN19OpenColorIO_v2_4dev28CTFReaderGradingToneParamEltD2Ev
@_ZN19OpenColorIO_v2_4dev20CTFReaderInvLut1DEltC1Ev = hidden unnamed_addr alias void (ptr), ptr @_ZN19OpenColorIO_v2_4dev20CTFReaderInvLut1DEltC2Ev
@_ZN19OpenColorIO_v2_4dev20CTFReaderInvLut1DEltD1Ev = hidden unnamed_addr alias void (ptr), ptr @_ZN19OpenColorIO_v2_4dev20CTFReaderInvLut1DEltD2Ev
@_ZN19OpenColorIO_v2_4dev20CTFReaderInvLut3DEltC1Ev = hidden unnamed_addr alias void (ptr), ptr @_ZN19OpenColorIO_v2_4dev20CTFReaderInvLut3DEltC2Ev
@_ZN19OpenColorIO_v2_4dev20CTFReaderInvLut3DEltD1Ev = hidden unnamed_addr alias void (ptr), ptr @_ZN19OpenColorIO_v2_4dev20CTFReaderInvLut3DEltD2Ev
@_ZN19OpenColorIO_v2_4dev15CTFReaderLogEltC1Ev = hidden unnamed_addr alias void (ptr), ptr @_ZN19OpenColorIO_v2_4dev15CTFReaderLogEltC2Ev
@_ZN19OpenColorIO_v2_4dev15CTFReaderLogEltD1Ev = hidden unnamed_addr alias void (ptr), ptr @_ZN19OpenColorIO_v2_4dev15CTFReaderLogEltD2Ev
@_ZN19OpenColorIO_v2_4dev21CTFReaderLogParamsEltC1ERKNSt7__cxx1112basic_stringIcSt11char_traitsIcESaIcEEESt10shared_ptrINS_21XmlReaderContainerEltEEjS8_ = hidden unnamed_addr alias void (ptr, ptr, ptr, i32, ptr), ptr @_ZN19OpenColorIO_v2_4dev21CTFReaderLogParamsEltC2ERKNSt7__cxx1112basic_stringIcSt11char_traitsIcESaIcEEESt10shared_ptrINS_21XmlReaderContainerEltEEjS8_
@_ZN19OpenColorIO_v2_4dev21CTFReaderLogParamsEltD1Ev = hidden unnamed_addr alias void (ptr), ptr @_ZN19OpenColorIO_v2_4dev21CTFReaderLogParamsEltD2Ev
@_ZN19OpenColorIO_v2_4dev17CTFReaderLut1DEltC1Ev = hidden unnamed_addr alias void (ptr), ptr @_ZN19OpenColorIO_v2_4dev17CTFReaderLut1DEltC2Ev
@_ZN19OpenColorIO_v2_4dev17CTFReaderLut1DEltD1Ev = hidden unnamed_addr alias void (ptr), ptr @_ZN19OpenColorIO_v2_4dev17CTFReaderLut1DEltD2Ev
@_ZN19OpenColorIO_v2_4dev17CTFReaderLut3DEltC1Ev = hidden unnamed_addr alias void (ptr), ptr @_ZN19OpenColorIO_v2_4dev17CTFReaderLut3DEltC2Ev
@_ZN19OpenColorIO_v2_4dev17CTFReaderLut3DEltD1Ev = hidden unnamed_addr alias void (ptr), ptr @_ZN19OpenColorIO_v2_4dev17CTFReaderLut3DEltD2Ev
@_ZN19OpenColorIO_v2_4dev18CTFReaderMatrixEltC1Ev = hidden unnamed_addr alias void (ptr), ptr @_ZN19OpenColorIO_v2_4dev18CTFReaderMatrixEltC2Ev
@_ZN19OpenColorIO_v2_4dev18CTFReaderMatrixEltD1Ev = hidden unnamed_addr alias void (ptr), ptr @_ZN19OpenColorIO_v2_4dev18CTFReaderMatrixEltD2Ev
@_ZN19OpenColorIO_v2_4dev17CTFReaderRangeEltC1Ev = hidden unnamed_addr alias void (ptr), ptr @_ZN19OpenColorIO_v2_4dev17CTFReaderRangeEltC2Ev
@_ZN19OpenColorIO_v2_4dev17CTFReaderRangeEltD1Ev = hidden unnamed_addr alias void (ptr), ptr @_ZN19OpenColorIO_v2_4dev17CTFReaderRangeEltD2Ev
@_ZN19OpenColorIO_v2_4dev21CTFReaderRangeElt_1_7C1Ev = hidden unnamed_addr alias void (ptr), ptr @_ZN19OpenColorIO_v2_4dev21CTFReaderRangeElt_1_7C2Ev
@_ZN19OpenColorIO_v2_4dev21CTFReaderRangeElt_1_7D1Ev = hidden unnamed_addr alias void (ptr), ptr @_ZN19OpenColorIO_v2_4dev21CTFReaderRangeElt_1_7D2Ev
@_ZN19OpenColorIO_v2_4dev22CTFReaderRangeValueEltC1ERKNSt7__cxx1112basic_stringIcSt11char_traitsIcESaIcEEESt10shared_ptrINS_21XmlReaderContainerEltEEjS8_ = hidden unnamed_addr alias void (ptr, ptr, ptr, i32, ptr), ptr @_ZN19OpenColorIO_v2_4dev22CTFReaderRangeValueEltC2ERKNSt7__cxx1112basic_stringIcSt11char_traitsIcESaIcEEESt10shared_ptrINS_21XmlReaderContainerEltEEjS8_
@_ZN19OpenColorIO_v2_4dev22CTFReaderRangeValueEltD1Ev = hidden unnamed_addr alias void (ptr), ptr @_ZN19OpenColorIO_v2_4dev22CTFReaderRangeValueEltD2Ev
@_ZN19OpenColorIO_v2_4dev21CTFReaderReferenceEltC1Ev = hidden unnamed_addr alias void (ptr), ptr @_ZN19OpenColorIO_v2_4dev21CTFReaderReferenceEltC2Ev
@_ZN19OpenColorIO_v2_4dev21CTFReaderReferenceEltD1Ev = hidden unnamed_addr alias void (ptr), ptr @_ZN19OpenColorIO_v2_4dev21CTFReaderReferenceEltD2Ev

declare void @_ZNSt8ios_base4InitC1Ev(ptr noundef nonnull align 1 dereferenceable(1)) unnamed_addr #0

; Function Attrs: nounwind
declare void @_ZNSt8ios_base4InitD1Ev(ptr noundef nonnull align 1 dereferenceable(1)) unnamed_addr #1

; Function Attrs: nofree nounwind
declare i32 @__cxa_atexit(ptr, ptr, ptr) local_unnamed_addr #2

; Function Attrs: mustprogress nounwind uwtable
define linkonce_odr hidden void @_ZN19OpenColorIO_v2_4dev11NumberUtils6LocaleD2Ev(ptr noundef nonnull align 8 dereferenceable(8) %this) unnamed_addr #3 comdat align 2 {
entry:
  %0 = load ptr, ptr %this, align 8
  tail call void @freelocale(ptr noundef %0) #28
  ret void
}

; Function Attrs: mustprogress uwtable
define hidden void @_ZN19OpenColorIO_v2_4dev21CTFReaderTransformEltC2ERKNSt7__cxx1112basic_stringIcSt11char_traitsIcESaIcEEEjS8_b(ptr noundef nonnull align 8 dereferenceable(97) %this, ptr noundef nonnull align 8 dereferenceable(32) %name, i32 noundef %xmlLineNumber, ptr noundef nonnull align 8 dereferenceable(32) %xmlFile, i1 noundef zeroext %isCLF) unnamed_addr #4 align 2 personality ptr @__gxx_personality_v0 {
entry:
  %frombool = zext i1 %isCLF to i8
  tail call void @_ZN19OpenColorIO_v2_4dev16XmlReaderElementC2ERKNSt7__cxx1112basic_stringIcSt11char_traitsIcESaIcEEEjS8_(ptr noundef nonnull align 8 dereferenceable(80) %this, ptr noundef nonnull align 8 dereferenceable(32) %name, i32 noundef %xmlLineNumber, ptr noundef nonnull align 8 dereferenceable(32) %xmlFile)
  store ptr getelementptr inbounds ({ [11 x ptr] }, ptr @_ZTVN19OpenColorIO_v2_4dev21CTFReaderTransformEltE, i64 0, inrange i32 0, i64 2), ptr %this, align 8
  %m_transform = getelementptr inbounds %"class.OpenColorIO_v2_4dev::CTFReaderTransformElt", ptr %this, i64 0, i32 1
  tail call void @llvm.memset.p0.i64(ptr noundef nonnull align 8 dereferenceable(16) %m_transform, i8 0, i64 16, i1 false)
  %m_isCLF = getelementptr inbounds %"class.OpenColorIO_v2_4dev::CTFReaderTransformElt", ptr %this, i64 0, i32 2
  store i8 %frombool, ptr %m_isCLF, align 8
  %call5.i.i.i3.i.i.i.i1 = invoke noalias noundef nonnull dereferenceable(376) ptr @_Znwm(i64 noundef 376) #29
          to label %call5.i.i.i3.i.i.i.i.noexc unwind label %lpad

call5.i.i.i3.i.i.i.i.noexc:                       ; preds = %entry
  %_M_use_count.i.i.i.i.i.i = getelementptr inbounds %"class.std::_Sp_counted_base", ptr %call5.i.i.i3.i.i.i.i1, i64 0, i32 1
  store i32 1, ptr %_M_use_count.i.i.i.i.i.i, align 8, !noalias !4
  %_M_weak_count.i.i.i.i.i.i = getelementptr inbounds %"class.std::_Sp_counted_base", ptr %call5.i.i.i3.i.i.i.i1, i64 0, i32 2
  store i32 1, ptr %_M_weak_count.i.i.i.i.i.i, align 4, !noalias !4
  store ptr getelementptr inbounds ({ [7 x ptr] }, ptr @_ZTVSt23_Sp_counted_ptr_inplaceIN19OpenColorIO_v2_4dev18CTFReaderTransformESaIvELN9__gnu_cxx12_Lock_policyE2EE, i64 0, inrange i32 0, i64 2), ptr %call5.i.i.i3.i.i.i.i1, align 8, !noalias !4
  %_M_impl.i.i.i.i.i.i = getelementptr inbounds %"class.std::_Sp_counted_ptr_inplace", ptr %call5.i.i.i3.i.i.i.i1, i64 0, i32 1
  invoke void @_ZN19OpenColorIO_v2_4dev18CTFReaderTransformC1Ev(ptr noundef nonnull align 8 dereferenceable(356) %_M_impl.i.i.i.i.i.i)
          to label %invoke.cont unwind label %_ZNSt15__allocated_ptrISaISt23_Sp_counted_ptr_inplaceIN19OpenColorIO_v2_4dev18CTFReaderTransformESaIvELN9__gnu_cxx12_Lock_policyE2EEEED2Ev.exit9.i.i.i.i, !noalias !4

_ZNSt15__allocated_ptrISaISt23_Sp_counted_ptr_inplaceIN19OpenColorIO_v2_4dev18CTFReaderTransformESaIvELN9__gnu_cxx12_Lock_policyE2EEEED2Ev.exit9.i.i.i.i: ; preds = %call5.i.i.i3.i.i.i.i.noexc
  %0 = landingpad { ptr, i32 }
          cleanup
  tail call void @_ZdlPv(ptr noundef nonnull %call5.i.i.i3.i.i.i.i1) #30, !noalias !4
  br label %lpad.body

invoke.cont:                                      ; preds = %call5.i.i.i3.i.i.i.i.noexc
  store ptr %_M_impl.i.i.i.i.i.i, ptr %m_transform, align 8
  %_M_refcount3.i.i.i = getelementptr inbounds %"class.OpenColorIO_v2_4dev::CTFReaderTransformElt", ptr %this, i64 0, i32 1, i32 0, i32 1
  %1 = load ptr, ptr %_M_refcount3.i.i.i, align 8
  store ptr %call5.i.i.i3.i.i.i.i1, ptr %_M_refcount3.i.i.i, align 8
  %cmp.not.i.i.i.i = icmp eq ptr %1, null
  br i1 %cmp.not.i.i.i.i, label %_ZNSt10shared_ptrIN19OpenColorIO_v2_4dev18CTFReaderTransformEED2Ev.exit, label %if.then.i.i.i.i

if.then.i.i.i.i:                                  ; preds = %invoke.cont
  %_M_use_count.i.i.i.i.i = getelementptr inbounds %"class.std::_Sp_counted_base", ptr %1, i64 0, i32 1
  %2 = load atomic i64, ptr %_M_use_count.i.i.i.i.i acquire, align 8
  %cmp.i.i.i.i.i = icmp eq i64 %2, 4294967297
  %3 = trunc i64 %2 to i32
  br i1 %cmp.i.i.i.i.i, label %if.then.i.i.i.i.i, label %if.end.i.i.i.i.i

if.then.i.i.i.i.i:                                ; preds = %if.then.i.i.i.i
  store i32 0, ptr %_M_use_count.i.i.i.i.i, align 8
  %_M_weak_count.i.i.i.i.i = getelementptr inbounds %"class.std::_Sp_counted_base", ptr %1, i64 0, i32 2
  store i32 0, ptr %_M_weak_count.i.i.i.i.i, align 4
  %vtable.i.i.i.i.i = load ptr, ptr %1, align 8
  %vfn.i.i.i.i.i = getelementptr inbounds ptr, ptr %vtable.i.i.i.i.i, i64 2
  %4 = load ptr, ptr %vfn.i.i.i.i.i, align 8
  tail call void %4(ptr noundef nonnull align 8 dereferenceable(16) %1) #28
  br label %if.end8.sink.split.i.i.i.i.i

if.end.i.i.i.i.i:                                 ; preds = %if.then.i.i.i.i
  %5 = load i8, ptr @__libc_single_threaded, align 1
  %tobool.i.not.i.i.i.i.i = icmp eq i8 %5, 0
  br i1 %tobool.i.not.i.i.i.i.i, label %if.else.i.i.i.i.i.i, label %if.then.i.i.i.i.i.i

if.then.i.i.i.i.i.i:                              ; preds = %if.end.i.i.i.i.i
  %add.i.i.i.i.i.i = add nsw i32 %3, -1
  store i32 %add.i.i.i.i.i.i, ptr %_M_use_count.i.i.i.i.i, align 4
  br label %_ZN9__gnu_cxx27__exchange_and_add_dispatchEPii.exit.i.i.i.i.i

if.else.i.i.i.i.i.i:                              ; preds = %if.end.i.i.i.i.i
  %6 = atomicrmw volatile add ptr %_M_use_count.i.i.i.i.i, i32 -1 acq_rel, align 4
  br label %_ZN9__gnu_cxx27__exchange_and_add_dispatchEPii.exit.i.i.i.i.i

_ZN9__gnu_cxx27__exchange_and_add_dispatchEPii.exit.i.i.i.i.i: ; preds = %if.else.i.i.i.i.i.i, %if.then.i.i.i.i.i.i
  %retval.i.0.i.i.i.i.i = phi i32 [ %3, %if.then.i.i.i.i.i.i ], [ %6, %if.else.i.i.i.i.i.i ]
  %cmp6.i.i.i.i.i = icmp eq i32 %retval.i.0.i.i.i.i.i, 1
  br i1 %cmp6.i.i.i.i.i, label %if.then7.i.i.i.i.i, label %_ZNSt10shared_ptrIN19OpenColorIO_v2_4dev18CTFReaderTransformEED2Ev.exit

if.then7.i.i.i.i.i:                               ; preds = %_ZN9__gnu_cxx27__exchange_and_add_dispatchEPii.exit.i.i.i.i.i
  %vtable.i.i.i.i.i.i.i = load ptr, ptr %1, align 8
  %vfn.i.i.i.i.i.i.i = getelementptr inbounds ptr, ptr %vtable.i.i.i.i.i.i.i, i64 2
  %7 = load ptr, ptr %vfn.i.i.i.i.i.i.i, align 8
  tail call void %7(ptr noundef nonnull align 8 dereferenceable(16) %1) #28
  %_M_weak_count.i.i.i.i.i.i.i = getelementptr inbounds %"class.std::_Sp_counted_base", ptr %1, i64 0, i32 2
  %8 = load i8, ptr @__libc_single_threaded, align 1
  %tobool.i.not.i.i.i.i.i.i.i = icmp eq i8 %8, 0
  br i1 %tobool.i.not.i.i.i.i.i.i.i, label %if.else.i.i.i.i.i.i.i.i, label %if.then.i.i.i.i.i.i.i.i

if.then.i.i.i.i.i.i.i.i:                          ; preds = %if.then7.i.i.i.i.i
  %9 = load i32, ptr %_M_weak_count.i.i.i.i.i.i.i, align 4
  %add.i.i.i.i.i.i.i.i = add nsw i32 %9, -1
  store i32 %add.i.i.i.i.i.i.i.i, ptr %_M_weak_count.i.i.i.i.i.i.i, align 4
  br label %_ZN9__gnu_cxx27__exchange_and_add_dispatchEPii.exit.i.i.i.i.i.i.i

if.else.i.i.i.i.i.i.i.i:                          ; preds = %if.then7.i.i.i.i.i
  %10 = atomicrmw volatile add ptr %_M_weak_count.i.i.i.i.i.i.i, i32 -1 acq_rel, align 4
  br label %_ZN9__gnu_cxx27__exchange_and_add_dispatchEPii.exit.i.i.i.i.i.i.i

_ZN9__gnu_cxx27__exchange_and_add_dispatchEPii.exit.i.i.i.i.i.i.i: ; preds = %if.else.i.i.i.i.i.i.i.i, %if.then.i.i.i.i.i.i.i.i
  %retval.i.0.i.i.i.i.i.i.i = phi i32 [ %9, %if.then.i.i.i.i.i.i.i.i ], [ %10, %if.else.i.i.i.i.i.i.i.i ]
  %cmp.i.i.i.i.i.i.i = icmp eq i32 %retval.i.0.i.i.i.i.i.i.i, 1
  br i1 %cmp.i.i.i.i.i.i.i, label %if.end8.sink.split.i.i.i.i.i, label %_ZNSt10shared_ptrIN19OpenColorIO_v2_4dev18CTFReaderTransformEED2Ev.exit

if.end8.sink.split.i.i.i.i.i:                     ; preds = %_ZN9__gnu_cxx27__exchange_and_add_dispatchEPii.exit.i.i.i.i.i.i.i, %if.then.i.i.i.i.i
  %vtable2.i.i.i.i.i.i.i = load ptr, ptr %1, align 8
  %vfn3.i.i.i.i.i.i.i = getelementptr inbounds ptr, ptr %vtable2.i.i.i.i.i.i.i, i64 3
  %11 = load ptr, ptr %vfn3.i.i.i.i.i.i.i, align 8
  tail call void %11(ptr noundef nonnull align 8 dereferenceable(16) %1) #28
  br label %_ZNSt10shared_ptrIN19OpenColorIO_v2_4dev18CTFReaderTransformEED2Ev.exit

_ZNSt10shared_ptrIN19OpenColorIO_v2_4dev18CTFReaderTransformEED2Ev.exit: ; preds = %if.end8.sink.split.i.i.i.i.i, %_ZN9__gnu_cxx27__exchange_and_add_dispatchEPii.exit.i.i.i.i.i.i.i, %_ZN9__gnu_cxx27__exchange_and_add_dispatchEPii.exit.i.i.i.i.i, %invoke.cont
  ret void

lpad:                                             ; preds = %entry
  %12 = landingpad { ptr, i32 }
          cleanup
  br label %lpad.body

lpad.body:                                        ; preds = %_ZNSt15__allocated_ptrISaISt23_Sp_counted_ptr_inplaceIN19OpenColorIO_v2_4dev18CTFReaderTransformESaIvELN9__gnu_cxx12_Lock_policyE2EEEED2Ev.exit9.i.i.i.i, %lpad
  %eh.lpad-body = phi { ptr, i32 } [ %12, %lpad ], [ %0, %_ZNSt15__allocated_ptrISaISt23_Sp_counted_ptr_inplaceIN19OpenColorIO_v2_4dev18CTFReaderTransformESaIvELN9__gnu_cxx12_Lock_policyE2EEEED2Ev.exit9.i.i.i.i ]
  tail call void @_ZNSt10shared_ptrIN19OpenColorIO_v2_4dev18CTFReaderTransformEED2Ev(ptr noundef nonnull align 8 dereferenceable(16) %m_transform) #28
  tail call void @_ZN19OpenColorIO_v2_4dev16XmlReaderElementD2Ev(ptr noundef nonnull align 8 dereferenceable(80) %this) #28
  resume { ptr, i32 } %eh.lpad-body
}

declare i32 @__gxx_personality_v0(...)

; Function Attrs: mustprogress nounwind uwtable
define linkonce_odr hidden void @_ZNSt10shared_ptrIN19OpenColorIO_v2_4dev18CTFReaderTransformEED2Ev(ptr noundef nonnull align 8 dereferenceable(16) %this) unnamed_addr #3 comdat align 2 personality ptr @__gxx_personality_v0 {
entry:
  %_M_refcount.i = getelementptr inbounds %"class.std::__shared_ptr", ptr %this, i64 0, i32 1
  %0 = load ptr, ptr %_M_refcount.i, align 8
  %cmp.not.i.i = icmp eq ptr %0, null
  br i1 %cmp.not.i.i, label %_ZNSt12__shared_ptrIN19OpenColorIO_v2_4dev18CTFReaderTransformELN9__gnu_cxx12_Lock_policyE2EED2Ev.exit, label %if.then.i.i

if.then.i.i:                                      ; preds = %entry
  %_M_use_count.i.i.i = getelementptr inbounds %"class.std::_Sp_counted_base", ptr %0, i64 0, i32 1
  %1 = load atomic i64, ptr %_M_use_count.i.i.i acquire, align 8
  %cmp.i.i.i = icmp eq i64 %1, 4294967297
  %2 = trunc i64 %1 to i32
  br i1 %cmp.i.i.i, label %if.then.i.i.i, label %if.end.i.i.i

if.then.i.i.i:                                    ; preds = %if.then.i.i
  store i32 0, ptr %_M_use_count.i.i.i, align 8
  %_M_weak_count.i.i.i = getelementptr inbounds %"class.std::_Sp_counted_base", ptr %0, i64 0, i32 2
  store i32 0, ptr %_M_weak_count.i.i.i, align 4
  %vtable.i.i.i = load ptr, ptr %0, align 8
  %vfn.i.i.i = getelementptr inbounds ptr, ptr %vtable.i.i.i, i64 2
  %3 = load ptr, ptr %vfn.i.i.i, align 8
  tail call void %3(ptr noundef nonnull align 8 dereferenceable(16) %0) #28
  br label %if.end8.sink.split.i.i.i

if.end.i.i.i:                                     ; preds = %if.then.i.i
  %4 = load i8, ptr @__libc_single_threaded, align 1
  %tobool.i.not.i.i.i = icmp eq i8 %4, 0
  br i1 %tobool.i.not.i.i.i, label %if.else.i.i.i.i, label %if.then.i.i.i.i

if.then.i.i.i.i:                                  ; preds = %if.end.i.i.i
  %add.i.i.i.i = add nsw i32 %2, -1
  store i32 %add.i.i.i.i, ptr %_M_use_count.i.i.i, align 4
  br label %_ZN9__gnu_cxx27__exchange_and_add_dispatchEPii.exit.i.i.i

if.else.i.i.i.i:                                  ; preds = %if.end.i.i.i
  %5 = atomicrmw volatile add ptr %_M_use_count.i.i.i, i32 -1 acq_rel, align 4
  br label %_ZN9__gnu_cxx27__exchange_and_add_dispatchEPii.exit.i.i.i

_ZN9__gnu_cxx27__exchange_and_add_dispatchEPii.exit.i.i.i: ; preds = %if.else.i.i.i.i, %if.then.i.i.i.i
  %retval.i.0.i.i.i = phi i32 [ %2, %if.then.i.i.i.i ], [ %5, %if.else.i.i.i.i ]
  %cmp6.i.i.i = icmp eq i32 %retval.i.0.i.i.i, 1
  br i1 %cmp6.i.i.i, label %if.then7.i.i.i, label %_ZNSt12__shared_ptrIN19OpenColorIO_v2_4dev18CTFReaderTransformELN9__gnu_cxx12_Lock_policyE2EED2Ev.exit

if.then7.i.i.i:                                   ; preds = %_ZN9__gnu_cxx27__exchange_and_add_dispatchEPii.exit.i.i.i
  %vtable.i.i.i.i.i = load ptr, ptr %0, align 8
  %vfn.i.i.i.i.i = getelementptr inbounds ptr, ptr %vtable.i.i.i.i.i, i64 2
  %6 = load ptr, ptr %vfn.i.i.i.i.i, align 8
  tail call void %6(ptr noundef nonnull align 8 dereferenceable(16) %0) #28
  %_M_weak_count.i.i.i.i.i = getelementptr inbounds %"class.std::_Sp_counted_base", ptr %0, i64 0, i32 2
  %7 = load i8, ptr @__libc_single_threaded, align 1
  %tobool.i.not.i.i.i.i.i = icmp eq i8 %7, 0
  br i1 %tobool.i.not.i.i.i.i.i, label %if.else.i.i.i.i.i.i, label %if.then.i.i.i.i.i.i

if.then.i.i.i.i.i.i:                              ; preds = %if.then7.i.i.i
  %8 = load i32, ptr %_M_weak_count.i.i.i.i.i, align 4
  %add.i.i.i.i.i.i = add nsw i32 %8, -1
  store i32 %add.i.i.i.i.i.i, ptr %_M_weak_count.i.i.i.i.i, align 4
  br label %_ZN9__gnu_cxx27__exchange_and_add_dispatchEPii.exit.i.i.i.i.i

if.else.i.i.i.i.i.i:                              ; preds = %if.then7.i.i.i
  %9 = atomicrmw volatile add ptr %_M_weak_count.i.i.i.i.i, i32 -1 acq_rel, align 4
  br label %_ZN9__gnu_cxx27__exchange_and_add_dispatchEPii.exit.i.i.i.i.i

_ZN9__gnu_cxx27__exchange_and_add_dispatchEPii.exit.i.i.i.i.i: ; preds = %if.else.i.i.i.i.i.i, %if.then.i.i.i.i.i.i
  %retval.i.0.i.i.i.i.i = phi i32 [ %8, %if.then.i.i.i.i.i.i ], [ %9, %if.else.i.i.i.i.i.i ]
  %cmp.i.i.i.i.i = icmp eq i32 %retval.i.0.i.i.i.i.i, 1
  br i1 %cmp.i.i.i.i.i, label %if.end8.sink.split.i.i.i, label %_ZNSt12__shared_ptrIN19OpenColorIO_v2_4dev18CTFReaderTransformELN9__gnu_cxx12_Lock_policyE2EED2Ev.exit

if.end8.sink.split.i.i.i:                         ; preds = %_ZN9__gnu_cxx27__exchange_and_add_dispatchEPii.exit.i.i.i.i.i, %if.then.i.i.i
  %vtable2.i.i.i.i.i = load ptr, ptr %0, align 8
  %vfn3.i.i.i.i.i = getelementptr inbounds ptr, ptr %vtable2.i.i.i.i.i, i64 3
  %10 = load ptr, ptr %vfn3.i.i.i.i.i, align 8
  tail call void %10(ptr noundef nonnull align 8 dereferenceable(16) %0) #28
  br label %_ZNSt12__shared_ptrIN19OpenColorIO_v2_4dev18CTFReaderTransformELN9__gnu_cxx12_Lock_policyE2EED2Ev.exit

_ZNSt12__shared_ptrIN19OpenColorIO_v2_4dev18CTFReaderTransformELN9__gnu_cxx12_Lock_policyE2EED2Ev.exit: ; preds = %entry, %_ZN9__gnu_cxx27__exchange_and_add_dispatchEPii.exit.i.i.i, %_ZN9__gnu_cxx27__exchange_and_add_dispatchEPii.exit.i.i.i.i.i, %if.end8.sink.split.i.i.i
  ret void
}

; Function Attrs: mustprogress nofree norecurse nosync nounwind willreturn memory(argmem: read) uwtable
define hidden noundef nonnull align 8 dereferenceable(32) ptr @_ZNK19OpenColorIO_v2_4dev21CTFReaderTransformElt13getIdentifierB5cxx11Ev(ptr nocapture noundef nonnull readonly align 8 dereferenceable(97) %this) unnamed_addr #5 align 2 {
entry:
  %m_transform = getelementptr inbounds %"class.OpenColorIO_v2_4dev::CTFReaderTransformElt", ptr %this, i64 0, i32 1
  %0 = load ptr, ptr %m_transform, align 8
  ret ptr %0
}

; Function Attrs: mustprogress uwtable
define hidden void @_ZN19OpenColorIO_v2_4dev21CTFReaderTransformElt5startEPPKc(ptr noundef nonnull align 8 dereferenceable(97) %this, ptr nocapture noundef readonly %atts) unnamed_addr #4 align 2 personality ptr @__gxx_personality_v0 {
entry:
  %requestedVersion = alloca %"class.OpenColorIO_v2_4dev::CTFVersion", align 4
  %requestedCLFVersion = alloca %"class.OpenColorIO_v2_4dev::CTFVersion", align 4
  %ref.tmp = alloca %"class.std::__cxx11::basic_string", align 8
  %ref.tmp14 = alloca %"class.std::allocator", align 1
  %ref.tmp40 = alloca %"class.std::__cxx11::basic_string", align 8
  %ref.tmp41 = alloca %"class.std::allocator", align 1
  %ref.tmp72 = alloca %"class.std::__cxx11::basic_string", align 8
  %ref.tmp73 = alloca %"class.std::allocator", align 1
  %ref.tmp96 = alloca %"class.std::__cxx11::basic_string", align 8
  %ref.tmp97 = alloca %"class.std::allocator", align 1
  %ref.tmp107 = alloca %"class.std::__cxx11::basic_string", align 8
  %ref.tmp108 = alloca %"class.std::allocator", align 1
  %ref.tmp123 = alloca %"class.std::__cxx11::basic_string", align 8
  %ref.tmp124 = alloca %"class.std::allocator", align 1
  %verString = alloca %"class.std::__cxx11::basic_string", align 8
  %ref.tmp132 = alloca %"class.std::allocator", align 1
  %ref.tmp139 = alloca %"class.std::__cxx11::basic_string", align 8
  %ref.tmp141 = alloca %"class.std::allocator", align 1
  %ref.tmp160 = alloca %"class.std::__cxx11::basic_string", align 8
  %ref.tmp161 = alloca %"class.std::allocator", align 1
  %ref.tmp171 = alloca %"class.std::__cxx11::basic_string", align 8
  %ref.tmp172 = alloca %"class.std::allocator", align 1
  %ref.tmp188 = alloca %"class.std::__cxx11::basic_string", align 8
  %ref.tmp189 = alloca %"class.std::allocator", align 1
  %verString197 = alloca %"class.std::__cxx11::basic_string", align 8
  %ref.tmp198 = alloca %"class.std::allocator", align 1
  %ref.tmp211 = alloca %"class.std::__cxx11::basic_string", align 8
  %ref.tmp215 = alloca %"class.std::allocator", align 1
  %maxCLF = alloca %"class.OpenColorIO_v2_4dev::CTFVersion", align 4
  %ref.tmp233 = alloca %"class.OpenColorIO_v2_4dev::CTFVersion", align 4
  %ref.tmp267 = alloca %"class.std::__cxx11::basic_string", align 8
  %ref.tmp268 = alloca %"class.std::allocator", align 1
  %ref.tmp282 = alloca %"class.std::__cxx11::basic_string", align 8
  %ref.tmp283 = alloca %"class.std::allocator", align 1
  store i32 0, ptr %requestedVersion, align 4
  %m_minor.i = getelementptr inbounds %"class.OpenColorIO_v2_4dev::CTFVersion", ptr %requestedVersion, i64 0, i32 1
  store i32 0, ptr %m_minor.i, align 4
  %m_revision.i = getelementptr inbounds %"class.OpenColorIO_v2_4dev::CTFVersion", ptr %requestedVersion, i64 0, i32 2
  store i32 0, ptr %m_revision.i, align 4
  store i32 0, ptr %requestedCLFVersion, align 4
  %m_minor.i85 = getelementptr inbounds %"class.OpenColorIO_v2_4dev::CTFVersion", ptr %requestedCLFVersion, i64 0, i32 1
  store i32 0, ptr %m_minor.i85, align 4
  %m_revision.i86 = getelementptr inbounds %"class.OpenColorIO_v2_4dev::CTFVersion", ptr %requestedCLFVersion, i64 0, i32 2
  store i32 0, ptr %m_revision.i86, align 4
  %0 = load ptr, ptr %atts, align 8
  %tobool.not163 = icmp eq ptr %0, null
  br i1 %tobool.not163, label %if.then266, label %while.body.lr.ph

while.body.lr.ph:                                 ; preds = %entry
  %m_minor.i90 = getelementptr inbounds %"class.OpenColorIO_v2_4dev::CTFVersion", ptr %maxCLF, i64 0, i32 1
  %m_revision.i91 = getelementptr inbounds %"class.OpenColorIO_v2_4dev::CTFVersion", ptr %maxCLF, i64 0, i32 2
  %m_minor.i92 = getelementptr inbounds %"class.OpenColorIO_v2_4dev::CTFVersion", ptr %ref.tmp233, i64 0, i32 1
  %m_revision.i93 = getelementptr inbounds %"class.OpenColorIO_v2_4dev::CTFVersion", ptr %ref.tmp233, i64 0, i32 2
  %m_isCLF = getelementptr inbounds %"class.OpenColorIO_v2_4dev::CTFReaderTransformElt", ptr %this, i64 0, i32 2
  %m_transform81 = getelementptr inbounds %"class.OpenColorIO_v2_4dev::CTFReaderTransformElt", ptr %this, i64 0, i32 1
  br label %while.body

while.body:                                       ; preds = %while.body.lr.ph, %if.end263
  %1 = phi ptr [ %0, %while.body.lr.ph ], [ %60, %if.end263 ]
  %arrayidx168 = phi ptr [ %atts, %while.body.lr.ph ], [ %arrayidx, %if.end263 ]
  %isIdFound.0167 = phi i8 [ 0, %while.body.lr.ph ], [ %isIdFound.1, %if.end263 ]
  %isVersionFound.0166 = phi i8 [ 0, %while.body.lr.ph ], [ %isVersionFound.1, %if.end263 ]
  %isCLFVersionFound.0165 = phi i8 [ 0, %while.body.lr.ph ], [ %isCLFVersionFound.1, %if.end263 ]
  %i.0164 = phi i32 [ 0, %while.body.lr.ph ], [ %add264, %if.end263 ]
  %call = call noundef i32 @_ZN19OpenColorIO_v2_4dev8Platform10StrcasecmpEPKcS2_(ptr noundef nonnull @_ZN19OpenColorIO_v2_4devL7ATTR_IDE, ptr noundef nonnull %1)
  %cmp = icmp eq i32 %call, 0
  br i1 %cmp, label %if.then, label %if.else

if.then:                                          ; preds = %while.body
  %add = or disjoint i32 %i.0164, 1
  %idxprom6 = zext i32 %add to i64
  %arrayidx7 = getelementptr inbounds ptr, ptr %atts, i64 %idxprom6
  %2 = load ptr, ptr %arrayidx7, align 8
  %tobool8.not = icmp eq ptr %2, null
  br i1 %tobool8.not, label %if.then13, label %lor.lhs.false

lor.lhs.false:                                    ; preds = %if.then
  %3 = load i8, ptr %2, align 1
  %tobool12.not = icmp eq i8 %3, 0
  br i1 %tobool12.not, label %if.then13, label %if.end

if.then13:                                        ; preds = %lor.lhs.false, %if.then
  call void @_ZNSaIcEC1Ev(ptr noundef nonnull align 1 dereferenceable(1) %ref.tmp14) #28
  invoke void @_ZNSt7__cxx1112basic_stringIcSt11char_traitsIcESaIcEEC1EPKcRKS3_(ptr noundef nonnull align 8 dereferenceable(32) %ref.tmp, ptr noundef nonnull @.str, ptr noundef nonnull align 1 dereferenceable(1) %ref.tmp14)
          to label %invoke.cont16 unwind label %lpad15

invoke.cont16:                                    ; preds = %if.then13
  invoke void @_ZNK19OpenColorIO_v2_4dev16XmlReaderElement12throwMessageERKNSt7__cxx1112basic_stringIcSt11char_traitsIcESaIcEEE(ptr noundef nonnull align 8 dereferenceable(80) %this, ptr noundef nonnull align 8 dereferenceable(32) %ref.tmp)
          to label %invoke.cont18 unwind label %lpad17

invoke.cont18:                                    ; preds = %invoke.cont16
  call void @_ZNSt7__cxx1112basic_stringIcSt11char_traitsIcESaIcEED1Ev(ptr noundef nonnull align 8 dereferenceable(32) %ref.tmp) #28
  call void @_ZNSaIcED1Ev(ptr noundef nonnull align 1 dereferenceable(1) %ref.tmp14) #28
  %.pre172 = load ptr, ptr %arrayidx7, align 8
  br label %if.end

lpad15:                                           ; preds = %if.then13
  %4 = landingpad { ptr, i32 }
          cleanup
  br label %ehcleanup300.sink.split

lpad17:                                           ; preds = %invoke.cont16
  %5 = landingpad { ptr, i32 }
          cleanup
  call void @_ZNSt7__cxx1112basic_stringIcSt11char_traitsIcESaIcEED1Ev(ptr noundef nonnull align 8 dereferenceable(32) %ref.tmp) #28
  br label %ehcleanup300.sink.split

if.end:                                           ; preds = %invoke.cont18, %lor.lhs.false
  %6 = phi ptr [ %.pre172, %invoke.cont18 ], [ %2, %lor.lhs.false ]
  %7 = load ptr, ptr %m_transform81, align 8
  %call.i87 = call noundef nonnull align 8 dereferenceable(32) ptr @_ZNSt7__cxx1112basic_stringIcSt11char_traitsIcESaIcEEaSEPKc(ptr noundef nonnull align 8 dereferenceable(32) %7, ptr noundef %6)
  br label %if.end263

if.else:                                          ; preds = %while.body
  %8 = load ptr, ptr %arrayidx168, align 8
  %call27 = call noundef i32 @_ZN19OpenColorIO_v2_4dev8Platform10StrcasecmpEPKcS2_(ptr noundef nonnull @_ZN19OpenColorIO_v2_4devL9ATTR_NAMEE, ptr noundef %8)
  %cmp28 = icmp eq i32 %call27, 0
  br i1 %cmp28, label %if.then29, label %if.else55

if.then29:                                        ; preds = %if.else
  %add30 = or disjoint i32 %i.0164, 1
  %idxprom31 = zext i32 %add30 to i64
  %arrayidx32 = getelementptr inbounds ptr, ptr %atts, i64 %idxprom31
  %9 = load ptr, ptr %arrayidx32, align 8
  %tobool33.not = icmp eq ptr %9, null
  br i1 %tobool33.not, label %if.then39, label %lor.lhs.false34

lor.lhs.false34:                                  ; preds = %if.then29
  %10 = load i8, ptr %9, align 1
  %tobool38.not = icmp eq i8 %10, 0
  br i1 %tobool38.not, label %if.then39, label %if.end48

if.then39:                                        ; preds = %lor.lhs.false34, %if.then29
  call void @_ZNSaIcEC1Ev(ptr noundef nonnull align 1 dereferenceable(1) %ref.tmp41) #28
  invoke void @_ZNSt7__cxx1112basic_stringIcSt11char_traitsIcESaIcEEC1EPKcRKS3_(ptr noundef nonnull align 8 dereferenceable(32) %ref.tmp40, ptr noundef nonnull @.str.12, ptr noundef nonnull align 1 dereferenceable(1) %ref.tmp41)
          to label %invoke.cont43 unwind label %lpad42

invoke.cont43:                                    ; preds = %if.then39
  invoke void @_ZNK19OpenColorIO_v2_4dev16XmlReaderElement12throwMessageERKNSt7__cxx1112basic_stringIcSt11char_traitsIcESaIcEEE(ptr noundef nonnull align 8 dereferenceable(80) %this, ptr noundef nonnull align 8 dereferenceable(32) %ref.tmp40)
          to label %invoke.cont45 unwind label %lpad44

invoke.cont45:                                    ; preds = %invoke.cont43
  call void @_ZNSt7__cxx1112basic_stringIcSt11char_traitsIcESaIcEED1Ev(ptr noundef nonnull align 8 dereferenceable(32) %ref.tmp40) #28
  call void @_ZNSaIcED1Ev(ptr noundef nonnull align 1 dereferenceable(1) %ref.tmp41) #28
  %.pre171 = load ptr, ptr %arrayidx32, align 8
  br label %if.end48

lpad42:                                           ; preds = %if.then39
  %11 = landingpad { ptr, i32 }
          cleanup
  br label %ehcleanup300.sink.split

lpad44:                                           ; preds = %invoke.cont43
  %12 = landingpad { ptr, i32 }
          cleanup
  call void @_ZNSt7__cxx1112basic_stringIcSt11char_traitsIcESaIcEED1Ev(ptr noundef nonnull align 8 dereferenceable(32) %ref.tmp40) #28
  br label %ehcleanup300.sink.split

if.end48:                                         ; preds = %invoke.cont45, %lor.lhs.false34
  %13 = phi ptr [ %.pre171, %invoke.cont45 ], [ %9, %lor.lhs.false34 ]
  %14 = load ptr, ptr %m_transform81, align 8
  %m_name.i = getelementptr inbounds %"class.OpenColorIO_v2_4dev::CTFReaderTransform", ptr %14, i64 0, i32 1
  %call.i88 = call noundef nonnull align 8 dereferenceable(32) ptr @_ZNSt7__cxx1112basic_stringIcSt11char_traitsIcESaIcEEaSEPKc(ptr noundef nonnull align 8 dereferenceable(32) %m_name.i, ptr noundef %13)
  br label %if.end263

if.else55:                                        ; preds = %if.else
  %15 = load ptr, ptr %arrayidx168, align 8
  %call59 = call noundef i32 @_ZN19OpenColorIO_v2_4dev8Platform10StrcasecmpEPKcS2_(ptr noundef nonnull @_ZN19OpenColorIO_v2_4devL15ATTR_INVERSE_OFE, ptr noundef %15)
  %cmp60 = icmp eq i32 %call59, 0
  br i1 %cmp60, label %if.then61, label %if.else87

if.then61:                                        ; preds = %if.else55
  %add62 = or disjoint i32 %i.0164, 1
  %idxprom63 = zext i32 %add62 to i64
  %arrayidx64 = getelementptr inbounds ptr, ptr %atts, i64 %idxprom63
  %16 = load ptr, ptr %arrayidx64, align 8
  %tobool65.not = icmp eq ptr %16, null
  br i1 %tobool65.not, label %if.then71, label %lor.lhs.false66

lor.lhs.false66:                                  ; preds = %if.then61
  %17 = load i8, ptr %16, align 1
  %tobool70.not = icmp eq i8 %17, 0
  br i1 %tobool70.not, label %if.then71, label %if.end80

if.then71:                                        ; preds = %lor.lhs.false66, %if.then61
  call void @_ZNSaIcEC1Ev(ptr noundef nonnull align 1 dereferenceable(1) %ref.tmp73) #28
  invoke void @_ZNSt7__cxx1112basic_stringIcSt11char_traitsIcESaIcEEC1EPKcRKS3_(ptr noundef nonnull align 8 dereferenceable(32) %ref.tmp72, ptr noundef nonnull @.str.13, ptr noundef nonnull align 1 dereferenceable(1) %ref.tmp73)
          to label %invoke.cont75 unwind label %lpad74

invoke.cont75:                                    ; preds = %if.then71
  invoke void @_ZNK19OpenColorIO_v2_4dev16XmlReaderElement12throwMessageERKNSt7__cxx1112basic_stringIcSt11char_traitsIcESaIcEEE(ptr noundef nonnull align 8 dereferenceable(80) %this, ptr noundef nonnull align 8 dereferenceable(32) %ref.tmp72)
          to label %invoke.cont77 unwind label %lpad76

invoke.cont77:                                    ; preds = %invoke.cont75
  call void @_ZNSt7__cxx1112basic_stringIcSt11char_traitsIcESaIcEED1Ev(ptr noundef nonnull align 8 dereferenceable(32) %ref.tmp72) #28
  call void @_ZNSaIcED1Ev(ptr noundef nonnull align 1 dereferenceable(1) %ref.tmp73) #28
  %.pre = load ptr, ptr %arrayidx64, align 8
  br label %if.end80

lpad74:                                           ; preds = %if.then71
  %18 = landingpad { ptr, i32 }
          cleanup
  br label %ehcleanup300.sink.split

lpad76:                                           ; preds = %invoke.cont75
  %19 = landingpad { ptr, i32 }
          cleanup
  call void @_ZNSt7__cxx1112basic_stringIcSt11char_traitsIcESaIcEED1Ev(ptr noundef nonnull align 8 dereferenceable(32) %ref.tmp72) #28
  br label %ehcleanup300.sink.split

if.end80:                                         ; preds = %invoke.cont77, %lor.lhs.false66
  %20 = phi ptr [ %.pre, %invoke.cont77 ], [ %16, %lor.lhs.false66 ]
  %21 = load ptr, ptr %m_transform81, align 8
  %m_inverseOfId.i = getelementptr inbounds %"class.OpenColorIO_v2_4dev::CTFReaderTransform", ptr %21, i64 0, i32 2
  %call.i89 = call noundef nonnull align 8 dereferenceable(32) ptr @_ZNSt7__cxx1112basic_stringIcSt11char_traitsIcESaIcEEaSEPKc(ptr noundef nonnull align 8 dereferenceable(32) %m_inverseOfId.i, ptr noundef %20)
  br label %if.end263

if.else87:                                        ; preds = %if.else55
  %22 = load ptr, ptr %arrayidx168, align 8
  %call91 = call noundef i32 @_ZN19OpenColorIO_v2_4dev8Platform10StrcasecmpEPKcS2_(ptr noundef nonnull @_ZN19OpenColorIO_v2_4devL12ATTR_VERSIONE, ptr noundef %22)
  %cmp92 = icmp eq i32 %call91, 0
  br i1 %cmp92, label %if.then93, label %if.else151

if.then93:                                        ; preds = %if.else87
  %23 = and i8 %isCLFVersionFound.0165, 1
  %tobool94.not = icmp eq i8 %23, 0
  br i1 %tobool94.not, label %if.end104, label %if.then95

if.then95:                                        ; preds = %if.then93
  call void @_ZNSaIcEC1Ev(ptr noundef nonnull align 1 dereferenceable(1) %ref.tmp97) #28
  invoke void @_ZNSt7__cxx1112basic_stringIcSt11char_traitsIcESaIcEEC1EPKcRKS3_(ptr noundef nonnull align 8 dereferenceable(32) %ref.tmp96, ptr noundef nonnull @.str.14, ptr noundef nonnull align 1 dereferenceable(1) %ref.tmp97)
          to label %invoke.cont99 unwind label %lpad98

invoke.cont99:                                    ; preds = %if.then95
  invoke void @_ZNK19OpenColorIO_v2_4dev16XmlReaderElement12throwMessageERKNSt7__cxx1112basic_stringIcSt11char_traitsIcESaIcEEE(ptr noundef nonnull align 8 dereferenceable(80) %this, ptr noundef nonnull align 8 dereferenceable(32) %ref.tmp96)
          to label %invoke.cont101 unwind label %lpad100

invoke.cont101:                                   ; preds = %invoke.cont99
  call void @_ZNSt7__cxx1112basic_stringIcSt11char_traitsIcESaIcEED1Ev(ptr noundef nonnull align 8 dereferenceable(32) %ref.tmp96) #28
  call void @_ZNSaIcED1Ev(ptr noundef nonnull align 1 dereferenceable(1) %ref.tmp97) #28
  br label %if.end104

lpad98:                                           ; preds = %if.then95
  %24 = landingpad { ptr, i32 }
          cleanup
  br label %ehcleanup300.sink.split

lpad100:                                          ; preds = %invoke.cont99
  %25 = landingpad { ptr, i32 }
          cleanup
  call void @_ZNSt7__cxx1112basic_stringIcSt11char_traitsIcESaIcEED1Ev(ptr noundef nonnull align 8 dereferenceable(32) %ref.tmp96) #28
  br label %ehcleanup300.sink.split

if.end104:                                        ; preds = %invoke.cont101, %if.then93
  %26 = and i8 %isVersionFound.0166, 1
  %tobool105.not = icmp eq i8 %26, 0
  br i1 %tobool105.not, label %if.end115, label %if.then106

if.then106:                                       ; preds = %if.end104
  call void @_ZNSaIcEC1Ev(ptr noundef nonnull align 1 dereferenceable(1) %ref.tmp108) #28
  invoke void @_ZNSt7__cxx1112basic_stringIcSt11char_traitsIcESaIcEEC1EPKcRKS3_(ptr noundef nonnull align 8 dereferenceable(32) %ref.tmp107, ptr noundef nonnull @.str.15, ptr noundef nonnull align 1 dereferenceable(1) %ref.tmp108)
          to label %invoke.cont110 unwind label %lpad109

invoke.cont110:                                   ; preds = %if.then106
  invoke void @_ZNK19OpenColorIO_v2_4dev16XmlReaderElement12throwMessageERKNSt7__cxx1112basic_stringIcSt11char_traitsIcESaIcEEE(ptr noundef nonnull align 8 dereferenceable(80) %this, ptr noundef nonnull align 8 dereferenceable(32) %ref.tmp107)
          to label %invoke.cont112 unwind label %lpad111

invoke.cont112:                                   ; preds = %invoke.cont110
  call void @_ZNSt7__cxx1112basic_stringIcSt11char_traitsIcESaIcEED1Ev(ptr noundef nonnull align 8 dereferenceable(32) %ref.tmp107) #28
  call void @_ZNSaIcED1Ev(ptr noundef nonnull align 1 dereferenceable(1) %ref.tmp108) #28
  br label %if.end115

lpad109:                                          ; preds = %if.then106
  %27 = landingpad { ptr, i32 }
          cleanup
  br label %ehcleanup300.sink.split

lpad111:                                          ; preds = %invoke.cont110
  %28 = landingpad { ptr, i32 }
          cleanup
  call void @_ZNSt7__cxx1112basic_stringIcSt11char_traitsIcESaIcEED1Ev(ptr noundef nonnull align 8 dereferenceable(32) %ref.tmp107) #28
  br label %ehcleanup300.sink.split

if.end115:                                        ; preds = %invoke.cont112, %if.end104
  %add116 = or disjoint i32 %i.0164, 1
  %idxprom117 = zext i32 %add116 to i64
  %arrayidx118 = getelementptr inbounds ptr, ptr %atts, i64 %idxprom117
  %29 = load ptr, ptr %arrayidx118, align 8
  %tobool119.not = icmp eq ptr %29, null
  br i1 %tobool119.not, label %if.then122, label %lor.lhs.false120

lor.lhs.false120:                                 ; preds = %if.end115
  %30 = load i8, ptr %29, align 1
  %tobool121.not = icmp eq i8 %30, 0
  br i1 %tobool121.not, label %if.then122, label %if.end131

if.then122:                                       ; preds = %lor.lhs.false120, %if.end115
  call void @_ZNSaIcEC1Ev(ptr noundef nonnull align 1 dereferenceable(1) %ref.tmp124) #28
  invoke void @_ZNSt7__cxx1112basic_stringIcSt11char_traitsIcESaIcEEC1EPKcRKS3_(ptr noundef nonnull align 8 dereferenceable(32) %ref.tmp123, ptr noundef nonnull @.str.16, ptr noundef nonnull align 1 dereferenceable(1) %ref.tmp124)
          to label %invoke.cont126 unwind label %lpad125

invoke.cont126:                                   ; preds = %if.then122
  invoke void @_ZNK19OpenColorIO_v2_4dev16XmlReaderElement12throwMessageERKNSt7__cxx1112basic_stringIcSt11char_traitsIcESaIcEEE(ptr noundef nonnull align 8 dereferenceable(80) %this, ptr noundef nonnull align 8 dereferenceable(32) %ref.tmp123)
          to label %invoke.cont128 unwind label %lpad127

invoke.cont128:                                   ; preds = %invoke.cont126
  call void @_ZNSt7__cxx1112basic_stringIcSt11char_traitsIcESaIcEED1Ev(ptr noundef nonnull align 8 dereferenceable(32) %ref.tmp123) #28
  call void @_ZNSaIcED1Ev(ptr noundef nonnull align 1 dereferenceable(1) %ref.tmp124) #28
  br label %if.end131

lpad125:                                          ; preds = %if.then122
  %31 = landingpad { ptr, i32 }
          cleanup
  br label %ehcleanup300.sink.split

lpad127:                                          ; preds = %invoke.cont126
  %32 = landingpad { ptr, i32 }
          cleanup
  call void @_ZNSt7__cxx1112basic_stringIcSt11char_traitsIcESaIcEED1Ev(ptr noundef nonnull align 8 dereferenceable(32) %ref.tmp123) #28
  br label %ehcleanup300.sink.split

if.end131:                                        ; preds = %invoke.cont128, %lor.lhs.false120
  call void @_ZNSaIcEC1Ev(ptr noundef nonnull align 1 dereferenceable(1) %ref.tmp132) #28
  invoke void @_ZNSt7__cxx1112basic_stringIcSt11char_traitsIcESaIcEEC1EPKcRKS3_(ptr noundef nonnull align 8 dereferenceable(32) %verString, ptr noundef %29, ptr noundef nonnull align 1 dereferenceable(1) %ref.tmp132)
          to label %invoke.cont134 unwind label %lpad133

invoke.cont134:                                   ; preds = %if.end131
  call void @_ZNSaIcED1Ev(ptr noundef nonnull align 1 dereferenceable(1) %ref.tmp132) #28
  invoke void @_ZN19OpenColorIO_v2_4dev10CTFVersion11ReadVersionERKNSt7__cxx1112basic_stringIcSt11char_traitsIcESaIcEEERS0_(ptr noundef nonnull align 8 dereferenceable(32) %verString, ptr noundef nonnull align 4 dereferenceable(12) %requestedVersion)
          to label %invoke.cont137 unwind label %lpad136

invoke.cont137:                                   ; preds = %invoke.cont134
  call void @_ZNSt7__cxx1112basic_stringIcSt11char_traitsIcESaIcEED1Ev(ptr noundef nonnull align 8 dereferenceable(32) %verString) #28
  br label %if.end263

lpad133:                                          ; preds = %if.end131
  %33 = landingpad { ptr, i32 }
          cleanup
          catch ptr @_ZTIN19OpenColorIO_v2_4dev9ExceptionE
  call void @_ZNSaIcED1Ev(ptr noundef nonnull align 1 dereferenceable(1) %ref.tmp132) #28
  br label %catch.dispatch

lpad136:                                          ; preds = %invoke.cont134
  %34 = landingpad { ptr, i32 }
          cleanup
          catch ptr @_ZTIN19OpenColorIO_v2_4dev9ExceptionE
  call void @_ZNSt7__cxx1112basic_stringIcSt11char_traitsIcESaIcEED1Ev(ptr noundef nonnull align 8 dereferenceable(32) %verString) #28
  br label %catch.dispatch

catch.dispatch:                                   ; preds = %lpad136, %lpad133
  %.pn75 = phi { ptr, i32 } [ %34, %lpad136 ], [ %33, %lpad133 ]
  %ehselector.slot.6 = extractvalue { ptr, i32 } %.pn75, 1
  %35 = call i32 @llvm.eh.typeid.for(ptr nonnull @_ZTIN19OpenColorIO_v2_4dev9ExceptionE) #28
  %matches = icmp eq i32 %ehselector.slot.6, %35
  br i1 %matches, label %catch, label %ehcleanup300

catch:                                            ; preds = %catch.dispatch
  %exn.slot.6 = extractvalue { ptr, i32 } %.pn75, 0
  %36 = call ptr @__cxa_begin_catch(ptr %exn.slot.6) #28
  %vtable = load ptr, ptr %36, align 8
  %vfn = getelementptr inbounds ptr, ptr %vtable, i64 2
  %37 = load ptr, ptr %vfn, align 8
  %call140 = call noundef ptr %37(ptr noundef nonnull align 8 dereferenceable(16) %36) #28
  call void @_ZNSaIcEC1Ev(ptr noundef nonnull align 1 dereferenceable(1) %ref.tmp141) #28
  invoke void @_ZNSt7__cxx1112basic_stringIcSt11char_traitsIcESaIcEEC1EPKcRKS3_(ptr noundef nonnull align 8 dereferenceable(32) %ref.tmp139, ptr noundef %call140, ptr noundef nonnull align 1 dereferenceable(1) %ref.tmp141)
          to label %invoke.cont143 unwind label %lpad142

invoke.cont143:                                   ; preds = %catch
  invoke void @_ZNK19OpenColorIO_v2_4dev16XmlReaderElement12throwMessageERKNSt7__cxx1112basic_stringIcSt11char_traitsIcESaIcEEE(ptr noundef nonnull align 8 dereferenceable(80) %this, ptr noundef nonnull align 8 dereferenceable(32) %ref.tmp139)
          to label %invoke.cont145 unwind label %lpad144

invoke.cont145:                                   ; preds = %invoke.cont143
  call void @_ZNSt7__cxx1112basic_stringIcSt11char_traitsIcESaIcEED1Ev(ptr noundef nonnull align 8 dereferenceable(32) %ref.tmp139) #28
  call void @_ZNSaIcED1Ev(ptr noundef nonnull align 1 dereferenceable(1) %ref.tmp141) #28
  call void @__cxa_end_catch()
  br label %if.end263

lpad142:                                          ; preds = %catch
  %38 = landingpad { ptr, i32 }
          cleanup
  br label %ehcleanup147

lpad144:                                          ; preds = %invoke.cont143
  %39 = landingpad { ptr, i32 }
          cleanup
  call void @_ZNSt7__cxx1112basic_stringIcSt11char_traitsIcESaIcEED1Ev(ptr noundef nonnull align 8 dereferenceable(32) %ref.tmp139) #28
  br label %ehcleanup147

ehcleanup147:                                     ; preds = %lpad144, %lpad142
  %.pn77 = phi { ptr, i32 } [ %39, %lpad144 ], [ %38, %lpad142 ]
  call void @_ZNSaIcED1Ev(ptr noundef nonnull align 1 dereferenceable(1) %ref.tmp141) #28
  invoke void @__cxa_end_catch()
          to label %ehcleanup300 unwind label %terminate.lpad

if.else151:                                       ; preds = %if.else87
  %40 = load ptr, ptr %arrayidx168, align 8
  %call155 = call noundef i32 @_ZN19OpenColorIO_v2_4dev8Platform10StrcasecmpEPKcS2_(ptr noundef nonnull @_ZN19OpenColorIO_v2_4devL21ATTR_COMP_CLF_VERSIONE, ptr noundef %40)
  %cmp156 = icmp eq i32 %call155, 0
  br i1 %cmp156, label %if.then157, label %if.else247

if.then157:                                       ; preds = %if.else151
  %41 = and i8 %isCLFVersionFound.0165, 1
  %tobool158.not = icmp eq i8 %41, 0
  br i1 %tobool158.not, label %if.end168, label %if.then159

if.then159:                                       ; preds = %if.then157
  call void @_ZNSaIcEC1Ev(ptr noundef nonnull align 1 dereferenceable(1) %ref.tmp161) #28
  invoke void @_ZNSt7__cxx1112basic_stringIcSt11char_traitsIcESaIcEEC1EPKcRKS3_(ptr noundef nonnull align 8 dereferenceable(32) %ref.tmp160, ptr noundef nonnull @.str.17, ptr noundef nonnull align 1 dereferenceable(1) %ref.tmp161)
          to label %invoke.cont163 unwind label %lpad162

invoke.cont163:                                   ; preds = %if.then159
  invoke void @_ZNK19OpenColorIO_v2_4dev16XmlReaderElement12throwMessageERKNSt7__cxx1112basic_stringIcSt11char_traitsIcESaIcEEE(ptr noundef nonnull align 8 dereferenceable(80) %this, ptr noundef nonnull align 8 dereferenceable(32) %ref.tmp160)
          to label %invoke.cont165 unwind label %lpad164

invoke.cont165:                                   ; preds = %invoke.cont163
  call void @_ZNSt7__cxx1112basic_stringIcSt11char_traitsIcESaIcEED1Ev(ptr noundef nonnull align 8 dereferenceable(32) %ref.tmp160) #28
  call void @_ZNSaIcED1Ev(ptr noundef nonnull align 1 dereferenceable(1) %ref.tmp161) #28
  br label %if.end168

lpad162:                                          ; preds = %if.then159
  %42 = landingpad { ptr, i32 }
          cleanup
  br label %ehcleanup300.sink.split

lpad164:                                          ; preds = %invoke.cont163
  %43 = landingpad { ptr, i32 }
          cleanup
  call void @_ZNSt7__cxx1112basic_stringIcSt11char_traitsIcESaIcEED1Ev(ptr noundef nonnull align 8 dereferenceable(32) %ref.tmp160) #28
  br label %ehcleanup300.sink.split

if.end168:                                        ; preds = %invoke.cont165, %if.then157
  %44 = and i8 %isVersionFound.0166, 1
  %tobool169.not = icmp eq i8 %44, 0
  br i1 %tobool169.not, label %if.end179, label %if.then170

if.then170:                                       ; preds = %if.end168
  call void @_ZNSaIcEC1Ev(ptr noundef nonnull align 1 dereferenceable(1) %ref.tmp172) #28
  invoke void @_ZNSt7__cxx1112basic_stringIcSt11char_traitsIcESaIcEEC1EPKcRKS3_(ptr noundef nonnull align 8 dereferenceable(32) %ref.tmp171, ptr noundef nonnull @.str.18, ptr noundef nonnull align 1 dereferenceable(1) %ref.tmp172)
          to label %invoke.cont174 unwind label %lpad173

invoke.cont174:                                   ; preds = %if.then170
  invoke void @_ZNK19OpenColorIO_v2_4dev16XmlReaderElement12throwMessageERKNSt7__cxx1112basic_stringIcSt11char_traitsIcESaIcEEE(ptr noundef nonnull align 8 dereferenceable(80) %this, ptr noundef nonnull align 8 dereferenceable(32) %ref.tmp171)
          to label %invoke.cont176 unwind label %lpad175

invoke.cont176:                                   ; preds = %invoke.cont174
  call void @_ZNSt7__cxx1112basic_stringIcSt11char_traitsIcESaIcEED1Ev(ptr noundef nonnull align 8 dereferenceable(32) %ref.tmp171) #28
  call void @_ZNSaIcED1Ev(ptr noundef nonnull align 1 dereferenceable(1) %ref.tmp172) #28
  br label %if.end179

lpad173:                                          ; preds = %if.then170
  %45 = landingpad { ptr, i32 }
          cleanup
  br label %ehcleanup300.sink.split

lpad175:                                          ; preds = %invoke.cont174
  %46 = landingpad { ptr, i32 }
          cleanup
  call void @_ZNSt7__cxx1112basic_stringIcSt11char_traitsIcESaIcEED1Ev(ptr noundef nonnull align 8 dereferenceable(32) %ref.tmp171) #28
  br label %ehcleanup300.sink.split

if.end179:                                        ; preds = %invoke.cont176, %if.end168
  %add181 = or disjoint i32 %i.0164, 1
  %idxprom182 = zext i32 %add181 to i64
  %arrayidx183 = getelementptr inbounds ptr, ptr %atts, i64 %idxprom182
  %47 = load ptr, ptr %arrayidx183, align 8
  %tobool184.not = icmp eq ptr %47, null
  br i1 %tobool184.not, label %if.then187, label %lor.lhs.false185

lor.lhs.false185:                                 ; preds = %if.end179
  %48 = load i8, ptr %47, align 1
  %tobool186.not = icmp eq i8 %48, 0
  br i1 %tobool186.not, label %if.then187, label %if.end196

if.then187:                                       ; preds = %lor.lhs.false185, %if.end179
  call void @_ZNSaIcEC1Ev(ptr noundef nonnull align 1 dereferenceable(1) %ref.tmp189) #28
  invoke void @_ZNSt7__cxx1112basic_stringIcSt11char_traitsIcESaIcEEC1EPKcRKS3_(ptr noundef nonnull align 8 dereferenceable(32) %ref.tmp188, ptr noundef nonnull @.str.19, ptr noundef nonnull align 1 dereferenceable(1) %ref.tmp189)
          to label %invoke.cont191 unwind label %lpad190

invoke.cont191:                                   ; preds = %if.then187
  invoke void @_ZNK19OpenColorIO_v2_4dev16XmlReaderElement12throwMessageERKNSt7__cxx1112basic_stringIcSt11char_traitsIcESaIcEEE(ptr noundef nonnull align 8 dereferenceable(80) %this, ptr noundef nonnull align 8 dereferenceable(32) %ref.tmp188)
          to label %invoke.cont193 unwind label %lpad192

invoke.cont193:                                   ; preds = %invoke.cont191
  call void @_ZNSt7__cxx1112basic_stringIcSt11char_traitsIcESaIcEED1Ev(ptr noundef nonnull align 8 dereferenceable(32) %ref.tmp188) #28
  call void @_ZNSaIcED1Ev(ptr noundef nonnull align 1 dereferenceable(1) %ref.tmp189) #28
  br label %if.end196

lpad190:                                          ; preds = %if.then187
  %49 = landingpad { ptr, i32 }
          cleanup
  br label %ehcleanup300.sink.split

lpad192:                                          ; preds = %invoke.cont191
  %50 = landingpad { ptr, i32 }
          cleanup
  call void @_ZNSt7__cxx1112basic_stringIcSt11char_traitsIcESaIcEED1Ev(ptr noundef nonnull align 8 dereferenceable(32) %ref.tmp188) #28
  br label %ehcleanup300.sink.split

if.end196:                                        ; preds = %invoke.cont193, %lor.lhs.false185
  call void @_ZNSaIcEC1Ev(ptr noundef nonnull align 1 dereferenceable(1) %ref.tmp198) #28
  invoke void @_ZNSt7__cxx1112basic_stringIcSt11char_traitsIcESaIcEEC1EPKcRKS3_(ptr noundef nonnull align 8 dereferenceable(32) %verString197, ptr noundef %47, ptr noundef nonnull align 1 dereferenceable(1) %ref.tmp198)
          to label %invoke.cont200 unwind label %lpad199

invoke.cont200:                                   ; preds = %if.end196
  call void @_ZNSaIcED1Ev(ptr noundef nonnull align 1 dereferenceable(1) %ref.tmp198) #28
  invoke void @_ZN19OpenColorIO_v2_4dev10CTFVersion11ReadVersionERKNSt7__cxx1112basic_stringIcSt11char_traitsIcESaIcEEERS0_(ptr noundef nonnull align 8 dereferenceable(32) %verString197, ptr noundef nonnull align 4 dereferenceable(12) %requestedCLFVersion)
          to label %invoke.cont203 unwind label %lpad202

invoke.cont203:                                   ; preds = %invoke.cont200
  call void @_ZNSt7__cxx1112basic_stringIcSt11char_traitsIcESaIcEED1Ev(ptr noundef nonnull align 8 dereferenceable(32) %verString197) #28
  br label %try.cont225

lpad199:                                          ; preds = %if.end196
  %51 = landingpad { ptr, i32 }
          cleanup
          catch ptr @_ZTIN19OpenColorIO_v2_4dev9ExceptionE
  call void @_ZNSaIcED1Ev(ptr noundef nonnull align 1 dereferenceable(1) %ref.tmp198) #28
  br label %catch.dispatch205

lpad202:                                          ; preds = %invoke.cont200
  %52 = landingpad { ptr, i32 }
          cleanup
          catch ptr @_ZTIN19OpenColorIO_v2_4dev9ExceptionE
  call void @_ZNSt7__cxx1112basic_stringIcSt11char_traitsIcESaIcEED1Ev(ptr noundef nonnull align 8 dereferenceable(32) %verString197) #28
  br label %catch.dispatch205

catch.dispatch205:                                ; preds = %lpad202, %lpad199
  %.pn63 = phi { ptr, i32 } [ %52, %lpad202 ], [ %51, %lpad199 ]
  %ehselector.slot.11 = extractvalue { ptr, i32 } %.pn63, 1
  %53 = call i32 @llvm.eh.typeid.for(ptr nonnull @_ZTIN19OpenColorIO_v2_4dev9ExceptionE) #28
  %matches207 = icmp eq i32 %ehselector.slot.11, %53
  br i1 %matches207, label %catch208, label %ehcleanup300

catch208:                                         ; preds = %catch.dispatch205
  %exn.slot.11 = extractvalue { ptr, i32 } %.pn63, 0
  %54 = call ptr @__cxa_begin_catch(ptr %exn.slot.11) #28
  %vtable212 = load ptr, ptr %54, align 8
  %vfn213 = getelementptr inbounds ptr, ptr %vtable212, i64 2
  %55 = load ptr, ptr %vfn213, align 8
  %call214 = call noundef ptr %55(ptr noundef nonnull align 8 dereferenceable(16) %54) #28
  call void @_ZNSaIcEC1Ev(ptr noundef nonnull align 1 dereferenceable(1) %ref.tmp215) #28
  invoke void @_ZNSt7__cxx1112basic_stringIcSt11char_traitsIcESaIcEEC1EPKcRKS3_(ptr noundef nonnull align 8 dereferenceable(32) %ref.tmp211, ptr noundef %call214, ptr noundef nonnull align 1 dereferenceable(1) %ref.tmp215)
          to label %invoke.cont217 unwind label %lpad216

invoke.cont217:                                   ; preds = %catch208
  invoke void @_ZNK19OpenColorIO_v2_4dev16XmlReaderElement12throwMessageERKNSt7__cxx1112basic_stringIcSt11char_traitsIcESaIcEEE(ptr noundef nonnull align 8 dereferenceable(80) %this, ptr noundef nonnull align 8 dereferenceable(32) %ref.tmp211)
          to label %invoke.cont219 unwind label %lpad218

invoke.cont219:                                   ; preds = %invoke.cont217
  call void @_ZNSt7__cxx1112basic_stringIcSt11char_traitsIcESaIcEED1Ev(ptr noundef nonnull align 8 dereferenceable(32) %ref.tmp211) #28
  call void @_ZNSaIcED1Ev(ptr noundef nonnull align 1 dereferenceable(1) %ref.tmp215) #28
  call void @__cxa_end_catch()
  br label %try.cont225

try.cont225:                                      ; preds = %invoke.cont219, %invoke.cont203
  store i32 3, ptr %maxCLF, align 4
  store i32 0, ptr %m_minor.i90, align 4
  store i32 0, ptr %m_revision.i91, align 4
  %call229 = call noundef zeroext i1 @_ZNK19OpenColorIO_v2_4dev10CTFVersionltERKS0_(ptr noundef nonnull align 4 dereferenceable(12) %maxCLF, ptr noundef nonnull align 4 dereferenceable(12) %requestedCLFVersion)
  br i1 %call229, label %if.then230, label %if.end232

if.then230:                                       ; preds = %try.cont225
  call fastcc void @_ZN19OpenColorIO_v2_4dev12_GLOBAL__N_16ThrowMIA37_cJPKcS4_EEEvRKNS_16XmlReaderElementERKT_DpT0_(ptr noundef nonnull align 8 dereferenceable(80) %this, ptr noundef nonnull align 1 dereferenceable(37) @.str.20, ptr noundef %47, ptr noundef nonnull @.str.21)
  br label %if.end232

lpad216:                                          ; preds = %catch208
  %56 = landingpad { ptr, i32 }
          cleanup
  br label %ehcleanup221

lpad218:                                          ; preds = %invoke.cont217
  %57 = landingpad { ptr, i32 }
          cleanup
  call void @_ZNSt7__cxx1112basic_stringIcSt11char_traitsIcESaIcEED1Ev(ptr noundef nonnull align 8 dereferenceable(32) %ref.tmp211) #28
  br label %ehcleanup221

ehcleanup221:                                     ; preds = %lpad218, %lpad216
  %.pn65 = phi { ptr, i32 } [ %57, %lpad218 ], [ %56, %lpad216 ]
  call void @_ZNSaIcED1Ev(ptr noundef nonnull align 1 dereferenceable(1) %ref.tmp215) #28
  invoke void @__cxa_end_catch()
          to label %ehcleanup300 unwind label %terminate.lpad

if.end232:                                        ; preds = %if.then230, %try.cont225
  store i32 2, ptr %ref.tmp233, align 4
  store i32 0, ptr %m_minor.i92, align 4
  store i32 0, ptr %m_revision.i93, align 4
  %call237 = call noundef zeroext i1 @_ZNK19OpenColorIO_v2_4dev10CTFVersionleERKS0_(ptr noundef nonnull align 4 dereferenceable(12) %requestedCLFVersion, ptr noundef nonnull align 4 dereferenceable(12) %ref.tmp233)
  %_ZN19OpenColorIO_v2_4devL28CTF_PROCESS_LIST_VERSION_1_7E._ZN19OpenColorIO_v2_4devL28CTF_PROCESS_LIST_VERSION_2_0E = select i1 %call237, ptr @_ZN19OpenColorIO_v2_4devL28CTF_PROCESS_LIST_VERSION_1_7E, ptr @_ZN19OpenColorIO_v2_4devL28CTF_PROCESS_LIST_VERSION_2_0E
  %call241 = call noundef nonnull align 4 dereferenceable(12) ptr @_ZN19OpenColorIO_v2_4dev10CTFVersionaSERKS0_(ptr noundef nonnull align 4 dereferenceable(12) %requestedVersion, ptr noundef nonnull align 4 dereferenceable(12) %_ZN19OpenColorIO_v2_4devL28CTF_PROCESS_LIST_VERSION_1_7E._ZN19OpenColorIO_v2_4devL28CTF_PROCESS_LIST_VERSION_2_0E)
  store i8 1, ptr %m_isCLF, align 8
  br label %if.end263

if.else247:                                       ; preds = %if.else151
  %58 = load ptr, ptr %arrayidx168, align 8
  %call251 = call noundef i32 @_ZN19OpenColorIO_v2_4dev8Platform10StrcasecmpEPKcS2_(ptr noundef nonnull @.str.22, ptr noundef %58)
  %cmp252 = icmp eq i32 %call251, 0
  br i1 %cmp252, label %if.end263, label %if.else254

if.else254:                                       ; preds = %if.else247
  %59 = load ptr, ptr %arrayidx168, align 8
  call void @_ZNK19OpenColorIO_v2_4dev16XmlReaderElement19logParameterWarningEPKc(ptr noundef nonnull align 8 dereferenceable(80) %this, ptr noundef %59)
  br label %if.end263

if.end263:                                        ; preds = %invoke.cont145, %if.else254, %if.end, %if.end48, %if.end80, %invoke.cont137, %if.else247, %if.end232
  %isCLFVersionFound.1 = phi i8 [ 1, %if.end232 ], [ %isCLFVersionFound.0165, %if.else247 ], [ %isCLFVersionFound.0165, %if.else254 ], [ %isCLFVersionFound.0165, %invoke.cont145 ], [ %isCLFVersionFound.0165, %invoke.cont137 ], [ %isCLFVersionFound.0165, %if.end ], [ %isCLFVersionFound.0165, %if.end48 ], [ %isCLFVersionFound.0165, %if.end80 ]
  %isVersionFound.1 = phi i8 [ 1, %if.end232 ], [ %isVersionFound.0166, %if.else247 ], [ %isVersionFound.0166, %if.else254 ], [ 1, %invoke.cont145 ], [ 1, %invoke.cont137 ], [ %isVersionFound.0166, %if.end ], [ %isVersionFound.0166, %if.end48 ], [ %isVersionFound.0166, %if.end80 ]
  %isIdFound.1 = phi i8 [ %isIdFound.0167, %if.end232 ], [ %isIdFound.0167, %if.else247 ], [ %isIdFound.0167, %if.else254 ], [ %isIdFound.0167, %invoke.cont145 ], [ %isIdFound.0167, %invoke.cont137 ], [ 1, %if.end ], [ %isIdFound.0167, %if.end48 ], [ %isIdFound.0167, %if.end80 ]
  %add264 = add i32 %i.0164, 2
  %idxprom = zext i32 %add264 to i64
  %arrayidx = getelementptr inbounds ptr, ptr %atts, i64 %idxprom
  %60 = load ptr, ptr %arrayidx, align 8
  %tobool.not = icmp eq ptr %60, null
  br i1 %tobool.not, label %while.end, label %while.body, !llvm.loop !7

while.end:                                        ; preds = %if.end263
  %61 = and i8 %isIdFound.1, 1
  %62 = icmp eq i8 %61, 0
  %63 = and i8 %isVersionFound.1, 1
  %64 = icmp eq i8 %63, 0
  %65 = and i8 %isCLFVersionFound.1, 1
  %66 = icmp eq i8 %65, 0
  br i1 %62, label %if.then266, label %if.end275

if.then266:                                       ; preds = %entry, %while.end
  %isVersionFound.0.lcssa179 = phi i1 [ %64, %while.end ], [ true, %entry ]
  %isCLFVersionFound.0.lcssa177 = phi i1 [ %66, %while.end ], [ true, %entry ]
  call void @_ZNSaIcEC1Ev(ptr noundef nonnull align 1 dereferenceable(1) %ref.tmp268) #28
  invoke void @_ZNSt7__cxx1112basic_stringIcSt11char_traitsIcESaIcEEC1EPKcRKS3_(ptr noundef nonnull align 8 dereferenceable(32) %ref.tmp267, ptr noundef nonnull @.str.23, ptr noundef nonnull align 1 dereferenceable(1) %ref.tmp268)
          to label %invoke.cont270 unwind label %lpad269

invoke.cont270:                                   ; preds = %if.then266
  invoke void @_ZNK19OpenColorIO_v2_4dev16XmlReaderElement12throwMessageERKNSt7__cxx1112basic_stringIcSt11char_traitsIcESaIcEEE(ptr noundef nonnull align 8 dereferenceable(80) %this, ptr noundef nonnull align 8 dereferenceable(32) %ref.tmp267)
          to label %invoke.cont272 unwind label %lpad271

invoke.cont272:                                   ; preds = %invoke.cont270
  call void @_ZNSt7__cxx1112basic_stringIcSt11char_traitsIcESaIcEED1Ev(ptr noundef nonnull align 8 dereferenceable(32) %ref.tmp267) #28
  call void @_ZNSaIcED1Ev(ptr noundef nonnull align 1 dereferenceable(1) %ref.tmp268) #28
  br i1 %isVersionFound.0.lcssa179, label %if.then277, label %if.else292

lpad269:                                          ; preds = %if.then266
  %67 = landingpad { ptr, i32 }
          cleanup
  br label %ehcleanup300.sink.split

lpad271:                                          ; preds = %invoke.cont270
  %68 = landingpad { ptr, i32 }
          cleanup
  call void @_ZNSt7__cxx1112basic_stringIcSt11char_traitsIcESaIcEED1Ev(ptr noundef nonnull align 8 dereferenceable(32) %ref.tmp267) #28
  br label %ehcleanup300.sink.split

if.end275:                                        ; preds = %while.end
  br i1 %64, label %if.then277, label %if.else292

if.then277:                                       ; preds = %invoke.cont272, %if.end275
  %isCLFVersionFound.0.lcssa176180 = phi i1 [ %isCLFVersionFound.0.lcssa177, %invoke.cont272 ], [ %66, %if.end275 ]
  %m_isCLF278 = getelementptr inbounds %"class.OpenColorIO_v2_4dev::CTFReaderTransformElt", ptr %this, i64 0, i32 2
  %69 = load i8, ptr %m_isCLF278, align 8
  %70 = and i8 %69, 1
  %tobool279.not = icmp ne i8 %70, 0
  %or.cond = select i1 %tobool279.not, i1 %isCLFVersionFound.0.lcssa176180, i1 false
  br i1 %or.cond, label %if.then281, label %if.end290

if.then281:                                       ; preds = %if.then277
  call void @_ZNSaIcEC1Ev(ptr noundef nonnull align 1 dereferenceable(1) %ref.tmp283) #28
  invoke void @_ZNSt7__cxx1112basic_stringIcSt11char_traitsIcESaIcEEC1EPKcRKS3_(ptr noundef nonnull align 8 dereferenceable(32) %ref.tmp282, ptr noundef nonnull @.str.24, ptr noundef nonnull align 1 dereferenceable(1) %ref.tmp283)
          to label %invoke.cont285 unwind label %lpad284

invoke.cont285:                                   ; preds = %if.then281
  invoke void @_ZNK19OpenColorIO_v2_4dev16XmlReaderElement12throwMessageERKNSt7__cxx1112basic_stringIcSt11char_traitsIcESaIcEEE(ptr noundef nonnull align 8 dereferenceable(80) %this, ptr noundef nonnull align 8 dereferenceable(32) %ref.tmp282)
          to label %invoke.cont287 unwind label %lpad286

invoke.cont287:                                   ; preds = %invoke.cont285
  call void @_ZNSt7__cxx1112basic_stringIcSt11char_traitsIcESaIcEED1Ev(ptr noundef nonnull align 8 dereferenceable(32) %ref.tmp282) #28
  call void @_ZNSaIcED1Ev(ptr noundef nonnull align 1 dereferenceable(1) %ref.tmp283) #28
  br label %if.end290

lpad284:                                          ; preds = %if.then281
  %71 = landingpad { ptr, i32 }
          cleanup
  br label %ehcleanup300.sink.split

lpad286:                                          ; preds = %invoke.cont285
  %72 = landingpad { ptr, i32 }
          cleanup
  call void @_ZNSt7__cxx1112basic_stringIcSt11char_traitsIcESaIcEED1Ev(ptr noundef nonnull align 8 dereferenceable(32) %ref.tmp282) #28
  br label %ehcleanup300.sink.split

if.end290:                                        ; preds = %invoke.cont287, %if.then277
  call void @_ZN19OpenColorIO_v2_4dev21CTFReaderTransformElt10setVersionERKNS_10CTFVersionE(ptr noundef nonnull align 8 dereferenceable(97) %this, ptr noundef nonnull align 4 dereferenceable(12) @_ZN19OpenColorIO_v2_4devL28CTF_PROCESS_LIST_VERSION_1_2E)
  br label %if.end299

if.else292:                                       ; preds = %invoke.cont272, %if.end275
  call void @_ZN19OpenColorIO_v2_4dev21CTFReaderTransformElt10setVersionERKNS_10CTFVersionE(ptr noundef nonnull align 8 dereferenceable(97) %this, ptr noundef nonnull align 4 dereferenceable(12) %requestedVersion)
  %m_isCLF294 = getelementptr inbounds %"class.OpenColorIO_v2_4dev::CTFReaderTransformElt", ptr %this, i64 0, i32 2
  %73 = load i8, ptr %m_isCLF294, align 8
  %74 = and i8 %73, 1
  %tobool295.not = icmp eq i8 %74, 0
  br i1 %tobool295.not, label %if.end299, label %if.then296

if.then296:                                       ; preds = %if.else292
  %m_transform.i.i = getelementptr inbounds %"class.OpenColorIO_v2_4dev::CTFReaderTransformElt", ptr %this, i64 0, i32 1
  %75 = load ptr, ptr %m_transform.i.i, align 8
  call void @_ZN19OpenColorIO_v2_4dev18CTFReaderTransform13setCLFVersionERKNS_10CTFVersionE(ptr noundef nonnull align 8 dereferenceable(356) %75, ptr noundef nonnull align 4 dereferenceable(12) %requestedCLFVersion)
  br label %if.end299

if.end299:                                        ; preds = %if.end290, %if.then296, %if.else292
  ret void

ehcleanup300.sink.split:                          ; preds = %lpad284, %lpad286, %lpad269, %lpad271, %lpad190, %lpad192, %lpad173, %lpad175, %lpad162, %lpad164, %lpad125, %lpad127, %lpad109, %lpad111, %lpad98, %lpad100, %lpad74, %lpad76, %lpad42, %lpad44, %lpad15, %lpad17
  %ref.tmp283.sink = phi ptr [ %ref.tmp14, %lpad17 ], [ %ref.tmp14, %lpad15 ], [ %ref.tmp41, %lpad44 ], [ %ref.tmp41, %lpad42 ], [ %ref.tmp73, %lpad76 ], [ %ref.tmp73, %lpad74 ], [ %ref.tmp97, %lpad100 ], [ %ref.tmp97, %lpad98 ], [ %ref.tmp108, %lpad111 ], [ %ref.tmp108, %lpad109 ], [ %ref.tmp124, %lpad127 ], [ %ref.tmp124, %lpad125 ], [ %ref.tmp161, %lpad164 ], [ %ref.tmp161, %lpad162 ], [ %ref.tmp172, %lpad175 ], [ %ref.tmp172, %lpad173 ], [ %ref.tmp189, %lpad192 ], [ %ref.tmp189, %lpad190 ], [ %ref.tmp268, %lpad271 ], [ %ref.tmp268, %lpad269 ], [ %ref.tmp283, %lpad286 ], [ %ref.tmp283, %lpad284 ]
  %lpad.val304.merged.ph = phi { ptr, i32 } [ %5, %lpad17 ], [ %4, %lpad15 ], [ %12, %lpad44 ], [ %11, %lpad42 ], [ %19, %lpad76 ], [ %18, %lpad74 ], [ %25, %lpad100 ], [ %24, %lpad98 ], [ %28, %lpad111 ], [ %27, %lpad109 ], [ %32, %lpad127 ], [ %31, %lpad125 ], [ %43, %lpad164 ], [ %42, %lpad162 ], [ %46, %lpad175 ], [ %45, %lpad173 ], [ %50, %lpad192 ], [ %49, %lpad190 ], [ %68, %lpad271 ], [ %67, %lpad269 ], [ %72, %lpad286 ], [ %71, %lpad284 ]
  call void @_ZNSaIcED1Ev(ptr noundef nonnull align 1 dereferenceable(1) %ref.tmp283.sink) #28
  br label %ehcleanup300

ehcleanup300:                                     ; preds = %catch.dispatch205, %catch.dispatch, %ehcleanup300.sink.split, %ehcleanup221, %ehcleanup147
  %lpad.val304.merged = phi { ptr, i32 } [ %.pn77, %ehcleanup147 ], [ %.pn65, %ehcleanup221 ], [ %lpad.val304.merged.ph, %ehcleanup300.sink.split ], [ %.pn63, %catch.dispatch205 ], [ %.pn75, %catch.dispatch ]
  resume { ptr, i32 } %lpad.val304.merged

terminate.lpad:                                   ; preds = %ehcleanup221, %ehcleanup147
  %76 = landingpad { ptr, i32 }
          catch ptr null
  %77 = extractvalue { ptr, i32 } %76, 0
  call void @__clang_call_terminate(ptr %77) #31
  unreachable
}

declare noundef i32 @_ZN19OpenColorIO_v2_4dev8Platform10StrcasecmpEPKcS2_(ptr noundef, ptr noundef) local_unnamed_addr #0

declare void @_ZNK19OpenColorIO_v2_4dev16XmlReaderElement12throwMessageERKNSt7__cxx1112basic_stringIcSt11char_traitsIcESaIcEEE(ptr noundef nonnull align 8 dereferenceable(80), ptr noundef nonnull align 8 dereferenceable(32)) local_unnamed_addr #0

; Function Attrs: nounwind
declare void @_ZNSaIcEC1Ev(ptr noundef nonnull align 1 dereferenceable(1)) unnamed_addr #1

declare void @_ZNSt7__cxx1112basic_stringIcSt11char_traitsIcESaIcEEC1EPKcRKS3_(ptr noundef nonnull align 8 dereferenceable(32), ptr noundef, ptr noundef nonnull align 1 dereferenceable(1)) unnamed_addr #0

; Function Attrs: nounwind
declare void @_ZNSt7__cxx1112basic_stringIcSt11char_traitsIcESaIcEED1Ev(ptr noundef nonnull align 8 dereferenceable(32)) unnamed_addr #1

; Function Attrs: nounwind
declare void @_ZNSaIcED1Ev(ptr noundef nonnull align 1 dereferenceable(1)) unnamed_addr #1

declare void @_ZN19OpenColorIO_v2_4dev10CTFVersion11ReadVersionERKNSt7__cxx1112basic_stringIcSt11char_traitsIcESaIcEEERS0_(ptr noundef nonnull align 8 dereferenceable(32), ptr noundef nonnull align 4 dereferenceable(12)) local_unnamed_addr #0

; Function Attrs: nofree nosync nounwind memory(none)
declare i32 @llvm.eh.typeid.for(ptr) #6

declare ptr @__cxa_begin_catch(ptr) local_unnamed_addr

declare void @__cxa_end_catch() local_unnamed_addr

; Function Attrs: noreturn nounwind uwtable
define linkonce_odr hidden void @__clang_call_terminate(ptr noundef %0) local_unnamed_addr #7 comdat {
  %2 = tail call ptr @__cxa_begin_catch(ptr %0) #28
  tail call void @_ZSt9terminatev() #31
  unreachable
}

declare void @_ZSt9terminatev() local_unnamed_addr

declare noundef zeroext i1 @_ZNK19OpenColorIO_v2_4dev10CTFVersionltERKS0_(ptr noundef nonnull align 4 dereferenceable(12), ptr noundef nonnull align 4 dereferenceable(12)) local_unnamed_addr #0

; Function Attrs: mustprogress uwtable
define internal fastcc void @_ZN19OpenColorIO_v2_4dev12_GLOBAL__N_16ThrowMIA37_cJPKcS4_EEEvRKNS_16XmlReaderElementERKT_DpT0_(ptr noundef nonnull align 8 dereferenceable(80) %elt, ptr noundef nonnull align 1 dereferenceable(37) %val, ptr noundef %r, ptr noundef %r1) unnamed_addr #4 personality ptr @__gxx_personality_v0 {
entry:
  %oss = alloca %"class.std::__cxx11::basic_ostringstream", align 8
  %ref.tmp = alloca %"class.std::__cxx11::basic_string", align 8
  call void @_ZNSt7__cxx1119basic_ostringstreamIcSt11char_traitsIcESaIcEEC1Ev(ptr noundef nonnull align 8 dereferenceable(112) %oss)
  %call.i.i2 = invoke noundef nonnull align 8 dereferenceable(8) ptr @_ZStlsISt11char_traitsIcEERSt13basic_ostreamIcT_ES5_PKc(ptr noundef nonnull align 8 dereferenceable(8) %oss, ptr noundef nonnull %val)
          to label %call.i.i.noexc unwind label %lpad

call.i.i.noexc:                                   ; preds = %entry
  %call.i.i.i3 = invoke noundef nonnull align 8 dereferenceable(8) ptr @_ZStlsISt11char_traitsIcEERSt13basic_ostreamIcT_ES5_PKc(ptr noundef nonnull align 8 dereferenceable(8) %oss, ptr noundef %r)
          to label %call.i.i.i.noexc unwind label %lpad

call.i.i.i.noexc:                                 ; preds = %call.i.i.noexc
  %call.i2.i.i4 = invoke noundef nonnull align 8 dereferenceable(8) ptr @_ZStlsISt11char_traitsIcEERSt13basic_ostreamIcT_ES5_PKc(ptr noundef nonnull align 8 dereferenceable(8) %oss, ptr noundef %r1)
          to label %invoke.cont unwind label %lpad

invoke.cont:                                      ; preds = %call.i.i.i.noexc
  invoke void @_ZNKSt7__cxx1119basic_ostringstreamIcSt11char_traitsIcESaIcEE3strEv(ptr nonnull sret(%"class.std::__cxx11::basic_string") align 8 %ref.tmp, ptr noundef nonnull align 8 dereferenceable(112) %oss)
          to label %invoke.cont3 unwind label %lpad

invoke.cont3:                                     ; preds = %invoke.cont
  invoke void @_ZNK19OpenColorIO_v2_4dev16XmlReaderElement12throwMessageERKNSt7__cxx1112basic_stringIcSt11char_traitsIcESaIcEEE(ptr noundef nonnull align 8 dereferenceable(80) %elt, ptr noundef nonnull align 8 dereferenceable(32) %ref.tmp)
          to label %invoke.cont5 unwind label %lpad4

invoke.cont5:                                     ; preds = %invoke.cont3
  call void @_ZNSt7__cxx1112basic_stringIcSt11char_traitsIcESaIcEED1Ev(ptr noundef nonnull align 8 dereferenceable(32) %ref.tmp) #28
  call void @_ZNSt7__cxx1119basic_ostringstreamIcSt11char_traitsIcESaIcEED1Ev(ptr noundef nonnull align 8 dereferenceable(112) %oss) #28
  ret void

lpad:                                             ; preds = %call.i.i.i.noexc, %call.i.i.noexc, %entry, %invoke.cont
  %0 = landingpad { ptr, i32 }
          cleanup
  br label %ehcleanup

lpad4:                                            ; preds = %invoke.cont3
  %1 = landingpad { ptr, i32 }
          cleanup
  call void @_ZNSt7__cxx1112basic_stringIcSt11char_traitsIcESaIcEED1Ev(ptr noundef nonnull align 8 dereferenceable(32) %ref.tmp) #28
  br label %ehcleanup

ehcleanup:                                        ; preds = %lpad4, %lpad
  %.pn = phi { ptr, i32 } [ %1, %lpad4 ], [ %0, %lpad ]
  call void @_ZNSt7__cxx1119basic_ostringstreamIcSt11char_traitsIcESaIcEED1Ev(ptr noundef nonnull align 8 dereferenceable(112) %oss) #28
  resume { ptr, i32 } %.pn
}

declare noundef zeroext i1 @_ZNK19OpenColorIO_v2_4dev10CTFVersionleERKS0_(ptr noundef nonnull align 4 dereferenceable(12), ptr noundef nonnull align 4 dereferenceable(12)) local_unnamed_addr #0

declare noundef nonnull align 4 dereferenceable(12) ptr @_ZN19OpenColorIO_v2_4dev10CTFVersionaSERKS0_(ptr noundef nonnull align 4 dereferenceable(12), ptr noundef nonnull align 4 dereferenceable(12)) local_unnamed_addr #0

declare void @_ZNK19OpenColorIO_v2_4dev16XmlReaderElement19logParameterWarningEPKc(ptr noundef nonnull align 8 dereferenceable(80), ptr noundef) local_unnamed_addr #0

; Function Attrs: mustprogress uwtable
define hidden void @_ZN19OpenColorIO_v2_4dev21CTFReaderTransformElt10setVersionERKNS_10CTFVersionE(ptr noundef nonnull align 8 dereferenceable(97) %this, ptr noundef nonnull align 4 dereferenceable(12) %ver) local_unnamed_addr #4 align 2 personality ptr @__gxx_personality_v0 {
entry:
  %oss.i = alloca %"class.std::__cxx11::basic_ostringstream", align 8
  %ref.tmp.i = alloca %"class.std::__cxx11::basic_string", align 8
  %call = tail call noundef zeroext i1 @_ZNK19OpenColorIO_v2_4dev10CTFVersionltERKS0_(ptr noundef nonnull align 4 dereferenceable(12) @_ZN19OpenColorIO_v2_4devL24CTF_PROCESS_LIST_VERSIONE, ptr noundef nonnull align 4 dereferenceable(12) %ver)
  br i1 %call, label %if.then, label %if.end

if.then:                                          ; preds = %entry
  %0 = load i32, ptr %ver, align 4
  %m_minor3.i = getelementptr inbounds %"class.OpenColorIO_v2_4dev::CTFVersion", ptr %ver, i64 0, i32 1
  %1 = load i32, ptr %m_minor3.i, align 4
  %m_revision4.i = getelementptr inbounds %"class.OpenColorIO_v2_4dev::CTFVersion", ptr %ver, i64 0, i32 2
  %2 = load i32, ptr %m_revision4.i, align 4
  call void @llvm.lifetime.start.p0(i64 376, ptr nonnull %oss.i)
  call void @llvm.lifetime.start.p0(i64 32, ptr nonnull %ref.tmp.i)
  call void @_ZNSt7__cxx1119basic_ostringstreamIcSt11char_traitsIcESaIcEEC1Ev(ptr noundef nonnull align 8 dereferenceable(112) %oss.i)
  %call.i.i2.i = invoke noundef nonnull align 8 dereferenceable(8) ptr @_ZStlsISt11char_traitsIcEERSt13basic_ostreamIcT_ES5_PKc(ptr noundef nonnull align 8 dereferenceable(8) %oss.i, ptr noundef nonnull @.str.20)
          to label %call.i.i.noexc.i unwind label %lpad2.i

call.i.i.noexc.i:                                 ; preds = %if.then
  %call.i.i.i.i3.i = invoke noundef nonnull align 8 dereferenceable(8) ptr @_ZNSolsEj(ptr noundef nonnull align 8 dereferenceable(8) %oss.i, i32 noundef %0)
          to label %call.i.i.i.i.noexc.i unwind label %lpad2.i

call.i.i.i.i.noexc.i:                             ; preds = %call.i.i.noexc.i
  %cmp.not.i.i.i.i.i = icmp eq i32 %1, 0
  %cmp1.not.i.i.i.i.i = icmp eq i32 %2, 0
  %or.cond.i.i.i.i.i = select i1 %cmp.not.i.i.i.i.i, i1 %cmp1.not.i.i.i.i.i, i1 false
  br i1 %or.cond.i.i.i.i.i, label %_ZN19OpenColorIO_v2_4dev12_GLOBAL__N_113PrintInStreamINS_10CTFVersionEJPKcEEEvRNSt7__cxx1119basic_ostringstreamIcSt11char_traitsIcESaIcEEERKT_DpT0_.exit.i.i, label %if.then.i.i.i.i.i

if.then.i.i.i.i.i:                                ; preds = %call.i.i.i.i.noexc.i
  %call2.i.i.i.i4.i = invoke noundef nonnull align 8 dereferenceable(8) ptr @_ZStlsISt11char_traitsIcEERSt13basic_ostreamIcT_ES5_PKc(ptr noundef nonnull align 8 dereferenceable(8) %oss.i, ptr noundef nonnull @.str.27)
          to label %call2.i.i.i.i.noexc.i unwind label %lpad2.i

call2.i.i.i.i.noexc.i:                            ; preds = %if.then.i.i.i.i.i
  %call4.i.i.i.i5.i = invoke noundef nonnull align 8 dereferenceable(8) ptr @_ZNSolsEj(ptr noundef nonnull align 8 dereferenceable(8) %call2.i.i.i.i4.i, i32 noundef %1)
          to label %call4.i.i.i.i.noexc.i unwind label %lpad2.i

call4.i.i.i.i.noexc.i:                            ; preds = %call2.i.i.i.i.noexc.i
  br i1 %cmp1.not.i.i.i.i.i, label %_ZN19OpenColorIO_v2_4dev12_GLOBAL__N_113PrintInStreamINS_10CTFVersionEJPKcEEEvRNSt7__cxx1119basic_ostringstreamIcSt11char_traitsIcESaIcEEERKT_DpT0_.exit.i.i, label %if.then7.i.i.i.i.i

if.then7.i.i.i.i.i:                               ; preds = %call4.i.i.i.i.noexc.i
  %call8.i.i.i.i6.i = invoke noundef nonnull align 8 dereferenceable(8) ptr @_ZStlsISt11char_traitsIcEERSt13basic_ostreamIcT_ES5_PKc(ptr noundef nonnull align 8 dereferenceable(8) %oss.i, ptr noundef nonnull @.str.27)
          to label %call8.i.i.i.i.noexc.i unwind label %lpad2.i

call8.i.i.i.i.noexc.i:                            ; preds = %if.then7.i.i.i.i.i
  %call10.i.i.i.i7.i = invoke noundef nonnull align 8 dereferenceable(8) ptr @_ZNSolsEj(ptr noundef nonnull align 8 dereferenceable(8) %call8.i.i.i.i6.i, i32 noundef %2)
          to label %_ZN19OpenColorIO_v2_4dev12_GLOBAL__N_113PrintInStreamINS_10CTFVersionEJPKcEEEvRNSt7__cxx1119basic_ostringstreamIcSt11char_traitsIcESaIcEEERKT_DpT0_.exit.i.i unwind label %lpad2.i

_ZN19OpenColorIO_v2_4dev12_GLOBAL__N_113PrintInStreamINS_10CTFVersionEJPKcEEEvRNSt7__cxx1119basic_ostringstreamIcSt11char_traitsIcESaIcEEERKT_DpT0_.exit.i.i: ; preds = %call8.i.i.i.i.noexc.i, %call4.i.i.i.i.noexc.i, %call.i.i.i.i.noexc.i
  %call.i.i.i8.i = invoke noundef nonnull align 8 dereferenceable(8) ptr @_ZStlsISt11char_traitsIcEERSt13basic_ostreamIcT_ES5_PKc(ptr noundef nonnull align 8 dereferenceable(8) %oss.i, ptr noundef nonnull @.str.21)
          to label %invoke.cont3.i unwind label %lpad2.i

invoke.cont3.i:                                   ; preds = %_ZN19OpenColorIO_v2_4dev12_GLOBAL__N_113PrintInStreamINS_10CTFVersionEJPKcEEEvRNSt7__cxx1119basic_ostringstreamIcSt11char_traitsIcESaIcEEERKT_DpT0_.exit.i.i
  invoke void @_ZNKSt7__cxx1119basic_ostringstreamIcSt11char_traitsIcESaIcEE3strEv(ptr nonnull sret(%"class.std::__cxx11::basic_string") align 8 %ref.tmp.i, ptr noundef nonnull align 8 dereferenceable(112) %oss.i)
          to label %invoke.cont4.i unwind label %lpad.i

invoke.cont4.i:                                   ; preds = %invoke.cont3.i
  invoke void @_ZNK19OpenColorIO_v2_4dev16XmlReaderElement12throwMessageERKNSt7__cxx1112basic_stringIcSt11char_traitsIcESaIcEEE(ptr noundef nonnull align 8 dereferenceable(80) %this, ptr noundef nonnull align 8 dereferenceable(32) %ref.tmp.i)
          to label %invoke.cont unwind label %lpad5.i

lpad.i:                                           ; preds = %invoke.cont3.i
  %3 = landingpad { ptr, i32 }
          cleanup
  br label %ehcleanup.i

lpad2.i:                                          ; preds = %_ZN19OpenColorIO_v2_4dev12_GLOBAL__N_113PrintInStreamINS_10CTFVersionEJPKcEEEvRNSt7__cxx1119basic_ostringstreamIcSt11char_traitsIcESaIcEEERKT_DpT0_.exit.i.i, %call8.i.i.i.i.noexc.i, %if.then7.i.i.i.i.i, %call2.i.i.i.i.noexc.i, %if.then.i.i.i.i.i, %call.i.i.noexc.i, %if.then
  %4 = landingpad { ptr, i32 }
          cleanup
  br label %ehcleanup.i

lpad5.i:                                          ; preds = %invoke.cont4.i
  %5 = landingpad { ptr, i32 }
          cleanup
  call void @_ZNSt7__cxx1112basic_stringIcSt11char_traitsIcESaIcEED1Ev(ptr noundef nonnull align 8 dereferenceable(32) %ref.tmp.i) #28
  br label %ehcleanup.i

ehcleanup.i:                                      ; preds = %lpad5.i, %lpad2.i, %lpad.i
  %.pn.i = phi { ptr, i32 } [ %5, %lpad5.i ], [ %3, %lpad.i ], [ %4, %lpad2.i ]
  call void @_ZNSt7__cxx1119basic_ostringstreamIcSt11char_traitsIcESaIcEED1Ev(ptr noundef nonnull align 8 dereferenceable(112) %oss.i) #28
  resume { ptr, i32 } %.pn.i

invoke.cont:                                      ; preds = %invoke.cont4.i
  call void @_ZNSt7__cxx1112basic_stringIcSt11char_traitsIcESaIcEED1Ev(ptr noundef nonnull align 8 dereferenceable(32) %ref.tmp.i) #28
  call void @_ZNSt7__cxx1119basic_ostringstreamIcSt11char_traitsIcESaIcEED1Ev(ptr noundef nonnull align 8 dereferenceable(112) %oss.i) #28
  call void @llvm.lifetime.end.p0(i64 376, ptr nonnull %oss.i)
  call void @llvm.lifetime.end.p0(i64 32, ptr nonnull %ref.tmp.i)
  br label %if.end

if.end:                                           ; preds = %invoke.cont, %entry
  %m_transform.i = getelementptr inbounds %"class.OpenColorIO_v2_4dev::CTFReaderTransformElt", ptr %this, i64 0, i32 1
  %6 = load ptr, ptr %m_transform.i, align 8
  call void @_ZN19OpenColorIO_v2_4dev18CTFReaderTransform13setCTFVersionERKNS_10CTFVersionE(ptr noundef nonnull align 8 dereferenceable(356) %6, ptr noundef nonnull align 4 dereferenceable(12) %ver)
  ret void
}

; Function Attrs: mustprogress uwtable
define hidden void @_ZN19OpenColorIO_v2_4dev21CTFReaderTransformElt13setCLFVersionERKNS_10CTFVersionE(ptr nocapture noundef nonnull readonly align 8 dereferenceable(97) %this, ptr noundef nonnull align 4 dereferenceable(12) %ver) local_unnamed_addr #4 align 2 {
entry:
  %m_transform.i = getelementptr inbounds %"class.OpenColorIO_v2_4dev::CTFReaderTransformElt", ptr %this, i64 0, i32 1
  %0 = load ptr, ptr %m_transform.i, align 8
  tail call void @_ZN19OpenColorIO_v2_4dev18CTFReaderTransform13setCLFVersionERKNS_10CTFVersionE(ptr noundef nonnull align 8 dereferenceable(356) %0, ptr noundef nonnull align 4 dereferenceable(12) %ver)
  ret void
}

; Function Attrs: mustprogress nofree norecurse nosync nounwind willreturn memory(none) uwtable
define hidden void @_ZN19OpenColorIO_v2_4dev21CTFReaderTransformElt3endEv(ptr nocapture nonnull readnone align 8 %this) unnamed_addr #8 align 2 {
entry:
  ret void
}

; Function Attrs: mustprogress uwtable
define hidden void @_ZN19OpenColorIO_v2_4dev21CTFReaderTransformElt14appendMetadataERKNSt7__cxx1112basic_stringIcSt11char_traitsIcESaIcEEES8_(ptr nocapture noundef nonnull readonly align 8 dereferenceable(97) %this, ptr nocapture nonnull readnone align 8 %0, ptr noundef nonnull align 8 dereferenceable(32) %value) unnamed_addr #4 align 2 {
entry:
  %m_transform.i = getelementptr inbounds %"class.OpenColorIO_v2_4dev::CTFReaderTransformElt", ptr %this, i64 0, i32 1
  %1 = load ptr, ptr %m_transform.i, align 8
  %_M_finish.i = getelementptr inbounds %"class.OpenColorIO_v2_4dev::CTFReaderTransform", ptr %1, i64 0, i32 7, i32 0, i32 0, i32 0, i32 1
  %2 = load ptr, ptr %_M_finish.i, align 8
  %_M_end_of_storage.i = getelementptr inbounds %"class.OpenColorIO_v2_4dev::CTFReaderTransform", ptr %1, i64 0, i32 7, i32 0, i32 0, i32 0, i32 2
  %3 = load ptr, ptr %_M_end_of_storage.i, align 8
  %cmp.not.i = icmp eq ptr %2, %3
  br i1 %cmp.not.i, label %if.else.i, label %if.then.i

if.then.i:                                        ; preds = %entry
  tail call void @_ZNSt7__cxx1112basic_stringIcSt11char_traitsIcESaIcEEC1ERKS4_(ptr noundef nonnull align 8 dereferenceable(32) %2, ptr noundef nonnull align 8 dereferenceable(32) %value)
  %4 = load ptr, ptr %_M_finish.i, align 8
  %incdec.ptr.i = getelementptr inbounds %"class.std::__cxx11::basic_string", ptr %4, i64 1
  store ptr %incdec.ptr.i, ptr %_M_finish.i, align 8
  br label %_ZNSt6vectorINSt7__cxx1112basic_stringIcSt11char_traitsIcESaIcEEESaIS5_EE9push_backERKS5_.exit

if.else.i:                                        ; preds = %entry
  %m_descriptions.i = getelementptr inbounds %"class.OpenColorIO_v2_4dev::CTFReaderTransform", ptr %1, i64 0, i32 7
  tail call void @_ZNSt6vectorINSt7__cxx1112basic_stringIcSt11char_traitsIcESaIcEEESaIS5_EE17_M_realloc_insertIJRKS5_EEEvN9__gnu_cxx17__normal_iteratorIPS5_S7_EEDpOT_(ptr noundef nonnull align 8 dereferenceable(24) %m_descriptions.i, ptr %2, ptr noundef nonnull align 8 dereferenceable(32) %value)
  br label %_ZNSt6vectorINSt7__cxx1112basic_stringIcSt11char_traitsIcESaIcEEESaIS5_EE9push_backERKS5_.exit

_ZNSt6vectorINSt7__cxx1112basic_stringIcSt11char_traitsIcESaIcEEESaIS5_EE9push_backERKS5_.exit: ; preds = %if.then.i, %if.else.i
  ret void
}

; Function Attrs: mustprogress nofree norecurse nosync nounwind willreturn memory(none) uwtable
define hidden noundef nonnull align 8 dereferenceable(16) ptr @_ZNK19OpenColorIO_v2_4dev21CTFReaderTransformElt12getTransformEv(ptr noundef nonnull readnone align 8 dereferenceable(97) %this) local_unnamed_addr #8 align 2 {
entry:
  %m_transform = getelementptr inbounds %"class.OpenColorIO_v2_4dev::CTFReaderTransformElt", ptr %this, i64 0, i32 1
  ret ptr %m_transform
}

; Function Attrs: mustprogress uwtable
define hidden noundef ptr @_ZNK19OpenColorIO_v2_4dev21CTFReaderTransformElt11getTypeNameEv(ptr nocapture nonnull readnone align 8 %this) unnamed_addr #4 align 2 personality ptr @__gxx_personality_v0 {
entry:
  %ref.tmp = alloca %"class.std::allocator", align 1
  %0 = load atomic i8, ptr @_ZGVZNK19OpenColorIO_v2_4dev21CTFReaderTransformElt11getTypeNameEvE1nB5cxx11 acquire, align 8
  %guard.uninitialized = icmp eq i8 %0, 0
  br i1 %guard.uninitialized, label %init.check, label %init.end, !prof !9

init.check:                                       ; preds = %entry
  %1 = tail call i32 @__cxa_guard_acquire(ptr nonnull @_ZGVZNK19OpenColorIO_v2_4dev21CTFReaderTransformElt11getTypeNameEvE1nB5cxx11) #28
  %tobool.not = icmp eq i32 %1, 0
  br i1 %tobool.not, label %init.end, label %init

init:                                             ; preds = %init.check
  call void @_ZNSaIcEC1Ev(ptr noundef nonnull align 1 dereferenceable(1) %ref.tmp) #28
  invoke void @_ZNSt7__cxx1112basic_stringIcSt11char_traitsIcESaIcEEC1EPKcRKS3_(ptr noundef nonnull align 8 dereferenceable(32) @_ZZNK19OpenColorIO_v2_4dev21CTFReaderTransformElt11getTypeNameEvE1nB5cxx11, ptr noundef nonnull @_ZN19OpenColorIO_v2_4devL16TAG_PROCESS_LISTE, ptr noundef nonnull align 1 dereferenceable(1) %ref.tmp)
          to label %invoke.cont unwind label %lpad

invoke.cont:                                      ; preds = %init
  call void @_ZNSaIcED1Ev(ptr noundef nonnull align 1 dereferenceable(1) %ref.tmp) #28
  %2 = call i32 @__cxa_atexit(ptr nonnull @_ZNSt7__cxx1112basic_stringIcSt11char_traitsIcESaIcEED1Ev, ptr nonnull @_ZZNK19OpenColorIO_v2_4dev21CTFReaderTransformElt11getTypeNameEvE1nB5cxx11, ptr nonnull @__dso_handle) #28
  call void @__cxa_guard_release(ptr nonnull @_ZGVZNK19OpenColorIO_v2_4dev21CTFReaderTransformElt11getTypeNameEvE1nB5cxx11) #28
  br label %init.end

init.end:                                         ; preds = %invoke.cont, %init.check, %entry
  %call = call noundef ptr @_ZNKSt7__cxx1112basic_stringIcSt11char_traitsIcESaIcEE5c_strEv(ptr noundef nonnull align 8 dereferenceable(32) @_ZZNK19OpenColorIO_v2_4dev21CTFReaderTransformElt11getTypeNameEvE1nB5cxx11) #28
  ret ptr %call

lpad:                                             ; preds = %init
  %3 = landingpad { ptr, i32 }
          cleanup
  call void @_ZNSaIcED1Ev(ptr noundef nonnull align 1 dereferenceable(1) %ref.tmp) #28
  call void @__cxa_guard_abort(ptr nonnull @_ZGVZNK19OpenColorIO_v2_4dev21CTFReaderTransformElt11getTypeNameEvE1nB5cxx11) #28
  resume { ptr, i32 } %3
}

; Function Attrs: nofree nounwind
declare i32 @__cxa_guard_acquire(ptr) local_unnamed_addr #2

; Function Attrs: nofree nounwind
declare void @__cxa_guard_abort(ptr) local_unnamed_addr #2

; Function Attrs: nofree nounwind
declare void @__cxa_guard_release(ptr) local_unnamed_addr #2

; Function Attrs: nounwind
declare noundef ptr @_ZNKSt7__cxx1112basic_stringIcSt11char_traitsIcESaIcEE5c_strEv(ptr noundef nonnull align 8 dereferenceable(32)) local_unnamed_addr #1

declare void @_ZN19OpenColorIO_v2_4dev18CTFReaderTransform13setCTFVersionERKNS_10CTFVersionE(ptr noundef nonnull align 8 dereferenceable(356), ptr noundef nonnull align 4 dereferenceable(12)) local_unnamed_addr #0

declare void @_ZN19OpenColorIO_v2_4dev18CTFReaderTransform13setCLFVersionERKNS_10CTFVersionE(ptr noundef nonnull align 8 dereferenceable(356), ptr noundef nonnull align 4 dereferenceable(12)) local_unnamed_addr #0

; Function Attrs: mustprogress uwtable
define hidden noundef nonnull align 4 dereferenceable(12) ptr @_ZNK19OpenColorIO_v2_4dev21CTFReaderTransformElt10getVersionEv(ptr nocapture noundef nonnull readonly align 8 dereferenceable(97) %this) local_unnamed_addr #4 align 2 {
entry:
  %m_transform.i = getelementptr inbounds %"class.OpenColorIO_v2_4dev::CTFReaderTransformElt", ptr %this, i64 0, i32 1
  %0 = load ptr, ptr %m_transform.i, align 8
  %call3 = tail call noundef nonnull align 4 dereferenceable(12) ptr @_ZNK19OpenColorIO_v2_4dev18CTFReaderTransform13getCTFVersionEv(ptr noundef nonnull align 8 dereferenceable(356) %0)
  ret ptr %call3
}

declare noundef nonnull align 4 dereferenceable(12) ptr @_ZNK19OpenColorIO_v2_4dev18CTFReaderTransform13getCTFVersionEv(ptr noundef nonnull align 8 dereferenceable(356)) local_unnamed_addr #0

; Function Attrs: mustprogress uwtable
define hidden noundef nonnull align 4 dereferenceable(12) ptr @_ZNK19OpenColorIO_v2_4dev21CTFReaderTransformElt13getCLFVersionEv(ptr nocapture noundef nonnull readonly align 8 dereferenceable(97) %this) local_unnamed_addr #4 align 2 {
entry:
  %m_transform.i = getelementptr inbounds %"class.OpenColorIO_v2_4dev::CTFReaderTransformElt", ptr %this, i64 0, i32 1
  %0 = load ptr, ptr %m_transform.i, align 8
  %call3 = tail call noundef nonnull align 4 dereferenceable(12) ptr @_ZNK19OpenColorIO_v2_4dev18CTFReaderTransform13getCLFVersionEv(ptr noundef nonnull align 8 dereferenceable(356) %0)
  ret ptr %call3
}

declare noundef nonnull align 4 dereferenceable(12) ptr @_ZNK19OpenColorIO_v2_4dev18CTFReaderTransform13getCLFVersionEv(ptr noundef nonnull align 8 dereferenceable(356)) local_unnamed_addr #0

; Function Attrs: mustprogress uwtable
define hidden noundef zeroext i1 @_ZNK19OpenColorIO_v2_4dev21CTFReaderTransformElt5isCLFEv(ptr nocapture noundef nonnull readonly align 8 dereferenceable(97) %this) local_unnamed_addr #4 align 2 {
entry:
  %m_transform.i = getelementptr inbounds %"class.OpenColorIO_v2_4dev::CTFReaderTransformElt", ptr %this, i64 0, i32 1
  %0 = load ptr, ptr %m_transform.i, align 8
  %call3 = tail call noundef zeroext i1 @_ZNK19OpenColorIO_v2_4dev18CTFReaderTransform5isCLFEv(ptr noundef nonnull align 8 dereferenceable(356) %0)
  ret i1 %call3
}

declare noundef zeroext i1 @_ZNK19OpenColorIO_v2_4dev18CTFReaderTransform5isCLFEv(ptr noundef nonnull align 8 dereferenceable(356)) local_unnamed_addr #0

; Function Attrs: mustprogress uwtable
define hidden void @_ZN19OpenColorIO_v2_4dev17CTFReaderArrayEltC2ERKNSt7__cxx1112basic_stringIcSt11char_traitsIcESaIcEEESt10shared_ptrINS_21XmlReaderContainerEltEEjS8_(ptr noundef nonnull align 8 dereferenceable(108) %this, ptr noundef nonnull align 8 dereferenceable(32) %name, ptr nocapture noundef readonly %pParent, i32 noundef %xmlLineNumber, ptr noundef nonnull align 8 dereferenceable(32) %xmlFile) unnamed_addr #4 align 2 personality ptr @__gxx_personality_v0 {
entry:
  %agg.tmp = alloca %"class.std::shared_ptr.19", align 8
  %0 = load ptr, ptr %pParent, align 8
  store ptr %0, ptr %agg.tmp, align 8
  %_M_refcount.i.i = getelementptr inbounds %"class.std::__shared_ptr.20", ptr %agg.tmp, i64 0, i32 1
  %_M_refcount3.i.i = getelementptr inbounds %"class.std::__shared_ptr.20", ptr %pParent, i64 0, i32 1
  %1 = load ptr, ptr %_M_refcount3.i.i, align 8
  store ptr %1, ptr %_M_refcount.i.i, align 8
  %cmp.not.i.i.i = icmp eq ptr %1, null
  br i1 %cmp.not.i.i.i, label %_ZNSt10shared_ptrIN19OpenColorIO_v2_4dev21XmlReaderContainerEltEEC2ERKS2_.exit, label %if.then.i.i.i

if.then.i.i.i:                                    ; preds = %entry
  %_M_use_count.i.i.i.i = getelementptr inbounds %"class.std::_Sp_counted_base", ptr %1, i64 0, i32 1
  %2 = load i8, ptr @__libc_single_threaded, align 1
  %tobool.i.i.not.i.i.i.i = icmp eq i8 %2, 0
  br i1 %tobool.i.i.not.i.i.i.i, label %if.else.i.i.i.i.i, label %if.then.i.i.i.i.i

if.then.i.i.i.i.i:                                ; preds = %if.then.i.i.i
  %3 = load i32, ptr %_M_use_count.i.i.i.i, align 4
  %add.i.i.i.i.i = add nsw i32 %3, 1
  store i32 %add.i.i.i.i.i, ptr %_M_use_count.i.i.i.i, align 4
  br label %_ZNSt10shared_ptrIN19OpenColorIO_v2_4dev21XmlReaderContainerEltEEC2ERKS2_.exit

if.else.i.i.i.i.i:                                ; preds = %if.then.i.i.i
  %4 = atomicrmw volatile add ptr %_M_use_count.i.i.i.i, i32 1 acq_rel, align 4
  br label %_ZNSt10shared_ptrIN19OpenColorIO_v2_4dev21XmlReaderContainerEltEEC2ERKS2_.exit

_ZNSt10shared_ptrIN19OpenColorIO_v2_4dev21XmlReaderContainerEltEEC2ERKS2_.exit: ; preds = %entry, %if.then.i.i.i.i.i, %if.else.i.i.i.i.i
  invoke void @_ZN19OpenColorIO_v2_4dev16XmlReaderElementC2ERKNSt7__cxx1112basic_stringIcSt11char_traitsIcESaIcEEEjS8_(ptr noundef nonnull align 8 dereferenceable(80) %this, ptr noundef nonnull align 8 dereferenceable(32) %name, i32 noundef %xmlLineNumber, ptr noundef nonnull align 8 dereferenceable(32) %xmlFile)
          to label %.noexc unwind label %lpad

.noexc:                                           ; preds = %_ZNSt10shared_ptrIN19OpenColorIO_v2_4dev21XmlReaderContainerEltEEC2ERKS2_.exit
  store ptr getelementptr inbounds ({ [11 x ptr] }, ptr @_ZTVN19OpenColorIO_v2_4dev17XmlReaderPlainEltE, i64 0, inrange i32 0, i64 2), ptr %this, align 8
  %m_parent.i = getelementptr inbounds %"class.OpenColorIO_v2_4dev::XmlReaderPlainElt", ptr %this, i64 0, i32 1
  %5 = load ptr, ptr %agg.tmp, align 8
  store ptr %5, ptr %m_parent.i, align 8
  %_M_refcount.i.i.i = getelementptr inbounds %"class.OpenColorIO_v2_4dev::XmlReaderPlainElt", ptr %this, i64 0, i32 1, i32 0, i32 1
  %6 = load ptr, ptr %_M_refcount.i.i, align 8
  store ptr %6, ptr %_M_refcount.i.i.i, align 8
  %cmp.not.i.i.i.i = icmp eq ptr %6, null
  br i1 %cmp.not.i.i.i.i, label %_ZNSt10shared_ptrIN19OpenColorIO_v2_4dev21XmlReaderContainerEltEED2Ev.exit, label %if.then.i.i.i.i

if.then.i.i.i.i:                                  ; preds = %.noexc
  %_M_use_count.i.i.i.i.i = getelementptr inbounds %"class.std::_Sp_counted_base", ptr %6, i64 0, i32 1
  %7 = load i8, ptr @__libc_single_threaded, align 1
  %tobool.i.i.not.i.i.i.i.i = icmp eq i8 %7, 0
  br i1 %tobool.i.i.not.i.i.i.i.i, label %invoke.cont, label %invoke.cont.thread

invoke.cont.thread:                               ; preds = %if.then.i.i.i.i
  %8 = load i32, ptr %_M_use_count.i.i.i.i.i, align 4
  %add.i.i.i.i.i.i = add nsw i32 %8, 1
  store i32 %add.i.i.i.i.i.i, ptr %_M_use_count.i.i.i.i.i, align 4
  br label %if.then.i.i.i3

invoke.cont:                                      ; preds = %if.then.i.i.i.i
  %9 = atomicrmw volatile add ptr %_M_use_count.i.i.i.i.i, i32 1 acq_rel, align 4
  %.pr.pre = load ptr, ptr %_M_refcount.i.i, align 8
  %cmp.not.i.i.i2 = icmp eq ptr %.pr.pre, null
  br i1 %cmp.not.i.i.i2, label %_ZNSt10shared_ptrIN19OpenColorIO_v2_4dev21XmlReaderContainerEltEED2Ev.exit, label %if.then.i.i.i3

if.then.i.i.i3:                                   ; preds = %invoke.cont.thread, %invoke.cont
  %.pr13 = phi ptr [ %6, %invoke.cont.thread ], [ %.pr.pre, %invoke.cont ]
  %_M_use_count.i.i.i.i4 = getelementptr inbounds %"class.std::_Sp_counted_base", ptr %.pr13, i64 0, i32 1
  %10 = load atomic i64, ptr %_M_use_count.i.i.i.i4 acquire, align 8
  %cmp.i.i.i.i = icmp eq i64 %10, 4294967297
  %11 = trunc i64 %10 to i32
  br i1 %cmp.i.i.i.i, label %if.then.i.i.i.i8, label %if.end.i.i.i.i

if.then.i.i.i.i8:                                 ; preds = %if.then.i.i.i3
  store i32 0, ptr %_M_use_count.i.i.i.i4, align 8
  %_M_weak_count.i.i.i.i = getelementptr inbounds %"class.std::_Sp_counted_base", ptr %.pr13, i64 0, i32 2
  store i32 0, ptr %_M_weak_count.i.i.i.i, align 4
  %vtable.i.i.i.i = load ptr, ptr %.pr13, align 8
  %vfn.i.i.i.i = getelementptr inbounds ptr, ptr %vtable.i.i.i.i, i64 2
  %12 = load ptr, ptr %vfn.i.i.i.i, align 8
  tail call void %12(ptr noundef nonnull align 8 dereferenceable(16) %.pr13) #28
  br label %if.end8.sink.split.i.i.i.i

if.end.i.i.i.i:                                   ; preds = %if.then.i.i.i3
  %13 = load i8, ptr @__libc_single_threaded, align 1
  %tobool.i.not.i.i.i.i = icmp eq i8 %13, 0
  br i1 %tobool.i.not.i.i.i.i, label %if.else.i.i.i.i.i7, label %if.then.i.i.i.i.i5

if.then.i.i.i.i.i5:                               ; preds = %if.end.i.i.i.i
  %add.i.i.i.i.i6 = add nsw i32 %11, -1
  store i32 %add.i.i.i.i.i6, ptr %_M_use_count.i.i.i.i4, align 4
  br label %_ZN9__gnu_cxx27__exchange_and_add_dispatchEPii.exit.i.i.i.i

if.else.i.i.i.i.i7:                               ; preds = %if.end.i.i.i.i
  %14 = atomicrmw volatile add ptr %_M_use_count.i.i.i.i4, i32 -1 acq_rel, align 4
  br label %_ZN9__gnu_cxx27__exchange_and_add_dispatchEPii.exit.i.i.i.i

_ZN9__gnu_cxx27__exchange_and_add_dispatchEPii.exit.i.i.i.i: ; preds = %if.else.i.i.i.i.i7, %if.then.i.i.i.i.i5
  %retval.i.0.i.i.i.i = phi i32 [ %11, %if.then.i.i.i.i.i5 ], [ %14, %if.else.i.i.i.i.i7 ]
  %cmp6.i.i.i.i = icmp eq i32 %retval.i.0.i.i.i.i, 1
  br i1 %cmp6.i.i.i.i, label %if.then7.i.i.i.i, label %_ZNSt10shared_ptrIN19OpenColorIO_v2_4dev21XmlReaderContainerEltEED2Ev.exit

if.then7.i.i.i.i:                                 ; preds = %_ZN9__gnu_cxx27__exchange_and_add_dispatchEPii.exit.i.i.i.i
  %vtable.i.i.i.i.i.i = load ptr, ptr %.pr13, align 8
  %vfn.i.i.i.i.i.i = getelementptr inbounds ptr, ptr %vtable.i.i.i.i.i.i, i64 2
  %15 = load ptr, ptr %vfn.i.i.i.i.i.i, align 8
  tail call void %15(ptr noundef nonnull align 8 dereferenceable(16) %.pr13) #28
  %_M_weak_count.i.i.i.i.i.i = getelementptr inbounds %"class.std::_Sp_counted_base", ptr %.pr13, i64 0, i32 2
  %16 = load i8, ptr @__libc_single_threaded, align 1
  %tobool.i.not.i.i.i.i.i.i = icmp eq i8 %16, 0
  br i1 %tobool.i.not.i.i.i.i.i.i, label %if.else.i.i.i.i.i.i.i, label %if.then.i.i.i.i.i.i.i

if.then.i.i.i.i.i.i.i:                            ; preds = %if.then7.i.i.i.i
  %17 = load i32, ptr %_M_weak_count.i.i.i.i.i.i, align 4
  %add.i.i.i.i.i.i.i = add nsw i32 %17, -1
  store i32 %add.i.i.i.i.i.i.i, ptr %_M_weak_count.i.i.i.i.i.i, align 4
  br label %_ZN9__gnu_cxx27__exchange_and_add_dispatchEPii.exit.i.i.i.i.i.i

if.else.i.i.i.i.i.i.i:                            ; preds = %if.then7.i.i.i.i
  %18 = atomicrmw volatile add ptr %_M_weak_count.i.i.i.i.i.i, i32 -1 acq_rel, align 4
  br label %_ZN9__gnu_cxx27__exchange_and_add_dispatchEPii.exit.i.i.i.i.i.i

_ZN9__gnu_cxx27__exchange_and_add_dispatchEPii.exit.i.i.i.i.i.i: ; preds = %if.else.i.i.i.i.i.i.i, %if.then.i.i.i.i.i.i.i
  %retval.i.0.i.i.i.i.i.i = phi i32 [ %17, %if.then.i.i.i.i.i.i.i ], [ %18, %if.else.i.i.i.i.i.i.i ]
  %cmp.i.i.i.i.i.i = icmp eq i32 %retval.i.0.i.i.i.i.i.i, 1
  br i1 %cmp.i.i.i.i.i.i, label %if.end8.sink.split.i.i.i.i, label %_ZNSt10shared_ptrIN19OpenColorIO_v2_4dev21XmlReaderContainerEltEED2Ev.exit

if.end8.sink.split.i.i.i.i:                       ; preds = %_ZN9__gnu_cxx27__exchange_and_add_dispatchEPii.exit.i.i.i.i.i.i, %if.then.i.i.i.i8
  %vtable2.i.i.i.i.i.i = load ptr, ptr %.pr13, align 8
  %vfn3.i.i.i.i.i.i = getelementptr inbounds ptr, ptr %vtable2.i.i.i.i.i.i, i64 3
  %19 = load ptr, ptr %vfn3.i.i.i.i.i.i, align 8
  tail call void %19(ptr noundef nonnull align 8 dereferenceable(16) %.pr13) #28
  br label %_ZNSt10shared_ptrIN19OpenColorIO_v2_4dev21XmlReaderContainerEltEED2Ev.exit

_ZNSt10shared_ptrIN19OpenColorIO_v2_4dev21XmlReaderContainerEltEED2Ev.exit: ; preds = %.noexc, %invoke.cont, %_ZN9__gnu_cxx27__exchange_and_add_dispatchEPii.exit.i.i.i.i, %_ZN9__gnu_cxx27__exchange_and_add_dispatchEPii.exit.i.i.i.i.i.i, %if.end8.sink.split.i.i.i.i
  store ptr getelementptr inbounds ({ [11 x ptr] }, ptr @_ZTVN19OpenColorIO_v2_4dev17CTFReaderArrayEltE, i64 0, inrange i32 0, i64 2), ptr %this, align 8
  %m_array = getelementptr inbounds %"class.OpenColorIO_v2_4dev::CTFReaderArrayElt", ptr %this, i64 0, i32 1
  store ptr null, ptr %m_array, align 8
  %m_position = getelementptr inbounds %"class.OpenColorIO_v2_4dev::CTFReaderArrayElt", ptr %this, i64 0, i32 2
  store i32 0, ptr %m_position, align 8
  ret void

lpad:                                             ; preds = %_ZNSt10shared_ptrIN19OpenColorIO_v2_4dev21XmlReaderContainerEltEEC2ERKS2_.exit
  %20 = landingpad { ptr, i32 }
          cleanup
  call void @_ZNSt10shared_ptrIN19OpenColorIO_v2_4dev21XmlReaderContainerEltEED2Ev(ptr noundef nonnull align 8 dereferenceable(16) %agg.tmp) #28
  resume { ptr, i32 } %20
}

; Function Attrs: mustprogress nounwind uwtable
define linkonce_odr hidden void @_ZNSt10shared_ptrIN19OpenColorIO_v2_4dev21XmlReaderContainerEltEED2Ev(ptr noundef nonnull align 8 dereferenceable(16) %this) unnamed_addr #3 comdat align 2 personality ptr @__gxx_personality_v0 {
entry:
  %_M_refcount.i = getelementptr inbounds %"class.std::__shared_ptr.20", ptr %this, i64 0, i32 1
  %0 = load ptr, ptr %_M_refcount.i, align 8
  %cmp.not.i.i = icmp eq ptr %0, null
  br i1 %cmp.not.i.i, label %_ZNSt12__shared_ptrIN19OpenColorIO_v2_4dev21XmlReaderContainerEltELN9__gnu_cxx12_Lock_policyE2EED2Ev.exit, label %if.then.i.i

if.then.i.i:                                      ; preds = %entry
  %_M_use_count.i.i.i = getelementptr inbounds %"class.std::_Sp_counted_base", ptr %0, i64 0, i32 1
  %1 = load atomic i64, ptr %_M_use_count.i.i.i acquire, align 8
  %cmp.i.i.i = icmp eq i64 %1, 4294967297
  %2 = trunc i64 %1 to i32
  br i1 %cmp.i.i.i, label %if.then.i.i.i, label %if.end.i.i.i

if.then.i.i.i:                                    ; preds = %if.then.i.i
  store i32 0, ptr %_M_use_count.i.i.i, align 8
  %_M_weak_count.i.i.i = getelementptr inbounds %"class.std::_Sp_counted_base", ptr %0, i64 0, i32 2
  store i32 0, ptr %_M_weak_count.i.i.i, align 4
  %vtable.i.i.i = load ptr, ptr %0, align 8
  %vfn.i.i.i = getelementptr inbounds ptr, ptr %vtable.i.i.i, i64 2
  %3 = load ptr, ptr %vfn.i.i.i, align 8
  tail call void %3(ptr noundef nonnull align 8 dereferenceable(16) %0) #28
  br label %if.end8.sink.split.i.i.i

if.end.i.i.i:                                     ; preds = %if.then.i.i
  %4 = load i8, ptr @__libc_single_threaded, align 1
  %tobool.i.not.i.i.i = icmp eq i8 %4, 0
  br i1 %tobool.i.not.i.i.i, label %if.else.i.i.i.i, label %if.then.i.i.i.i

if.then.i.i.i.i:                                  ; preds = %if.end.i.i.i
  %add.i.i.i.i = add nsw i32 %2, -1
  store i32 %add.i.i.i.i, ptr %_M_use_count.i.i.i, align 4
  br label %_ZN9__gnu_cxx27__exchange_and_add_dispatchEPii.exit.i.i.i

if.else.i.i.i.i:                                  ; preds = %if.end.i.i.i
  %5 = atomicrmw volatile add ptr %_M_use_count.i.i.i, i32 -1 acq_rel, align 4
  br label %_ZN9__gnu_cxx27__exchange_and_add_dispatchEPii.exit.i.i.i

_ZN9__gnu_cxx27__exchange_and_add_dispatchEPii.exit.i.i.i: ; preds = %if.else.i.i.i.i, %if.then.i.i.i.i
  %retval.i.0.i.i.i = phi i32 [ %2, %if.then.i.i.i.i ], [ %5, %if.else.i.i.i.i ]
  %cmp6.i.i.i = icmp eq i32 %retval.i.0.i.i.i, 1
  br i1 %cmp6.i.i.i, label %if.then7.i.i.i, label %_ZNSt12__shared_ptrIN19OpenColorIO_v2_4dev21XmlReaderContainerEltELN9__gnu_cxx12_Lock_policyE2EED2Ev.exit

if.then7.i.i.i:                                   ; preds = %_ZN9__gnu_cxx27__exchange_and_add_dispatchEPii.exit.i.i.i
  %vtable.i.i.i.i.i = load ptr, ptr %0, align 8
  %vfn.i.i.i.i.i = getelementptr inbounds ptr, ptr %vtable.i.i.i.i.i, i64 2
  %6 = load ptr, ptr %vfn.i.i.i.i.i, align 8
  tail call void %6(ptr noundef nonnull align 8 dereferenceable(16) %0) #28
  %_M_weak_count.i.i.i.i.i = getelementptr inbounds %"class.std::_Sp_counted_base", ptr %0, i64 0, i32 2
  %7 = load i8, ptr @__libc_single_threaded, align 1
  %tobool.i.not.i.i.i.i.i = icmp eq i8 %7, 0
  br i1 %tobool.i.not.i.i.i.i.i, label %if.else.i.i.i.i.i.i, label %if.then.i.i.i.i.i.i

if.then.i.i.i.i.i.i:                              ; preds = %if.then7.i.i.i
  %8 = load i32, ptr %_M_weak_count.i.i.i.i.i, align 4
  %add.i.i.i.i.i.i = add nsw i32 %8, -1
  store i32 %add.i.i.i.i.i.i, ptr %_M_weak_count.i.i.i.i.i, align 4
  br label %_ZN9__gnu_cxx27__exchange_and_add_dispatchEPii.exit.i.i.i.i.i

if.else.i.i.i.i.i.i:                              ; preds = %if.then7.i.i.i
  %9 = atomicrmw volatile add ptr %_M_weak_count.i.i.i.i.i, i32 -1 acq_rel, align 4
  br label %_ZN9__gnu_cxx27__exchange_and_add_dispatchEPii.exit.i.i.i.i.i

_ZN9__gnu_cxx27__exchange_and_add_dispatchEPii.exit.i.i.i.i.i: ; preds = %if.else.i.i.i.i.i.i, %if.then.i.i.i.i.i.i
  %retval.i.0.i.i.i.i.i = phi i32 [ %8, %if.then.i.i.i.i.i.i ], [ %9, %if.else.i.i.i.i.i.i ]
  %cmp.i.i.i.i.i = icmp eq i32 %retval.i.0.i.i.i.i.i, 1
  br i1 %cmp.i.i.i.i.i, label %if.end8.sink.split.i.i.i, label %_ZNSt12__shared_ptrIN19OpenColorIO_v2_4dev21XmlReaderContainerEltELN9__gnu_cxx12_Lock_policyE2EED2Ev.exit

if.end8.sink.split.i.i.i:                         ; preds = %_ZN9__gnu_cxx27__exchange_and_add_dispatchEPii.exit.i.i.i.i.i, %if.then.i.i.i
  %vtable2.i.i.i.i.i = load ptr, ptr %0, align 8
  %vfn3.i.i.i.i.i = getelementptr inbounds ptr, ptr %vtable2.i.i.i.i.i, i64 3
  %10 = load ptr, ptr %vfn3.i.i.i.i.i, align 8
  tail call void %10(ptr noundef nonnull align 8 dereferenceable(16) %0) #28
  br label %_ZNSt12__shared_ptrIN19OpenColorIO_v2_4dev21XmlReaderContainerEltELN9__gnu_cxx12_Lock_policyE2EED2Ev.exit

_ZNSt12__shared_ptrIN19OpenColorIO_v2_4dev21XmlReaderContainerEltELN9__gnu_cxx12_Lock_policyE2EED2Ev.exit: ; preds = %entry, %_ZN9__gnu_cxx27__exchange_and_add_dispatchEPii.exit.i.i.i, %_ZN9__gnu_cxx27__exchange_and_add_dispatchEPii.exit.i.i.i.i.i, %if.end8.sink.split.i.i.i
  ret void
}

; Function Attrs: mustprogress nounwind uwtable
define hidden void @_ZN19OpenColorIO_v2_4dev17CTFReaderArrayEltD2Ev(ptr noundef nonnull align 8 dereferenceable(108) %this) unnamed_addr #3 align 2 personality ptr @__gxx_personality_v0 {
entry:
  %m_array = getelementptr inbounds %"class.OpenColorIO_v2_4dev::CTFReaderArrayElt", ptr %this, i64 0, i32 1
  store ptr null, ptr %m_array, align 8
  store ptr getelementptr inbounds ({ [11 x ptr] }, ptr @_ZTVN19OpenColorIO_v2_4dev17XmlReaderPlainEltE, i64 0, inrange i32 0, i64 2), ptr %this, align 8
  %_M_refcount.i.i.i = getelementptr inbounds %"class.OpenColorIO_v2_4dev::XmlReaderPlainElt", ptr %this, i64 0, i32 1, i32 0, i32 1
  %0 = load ptr, ptr %_M_refcount.i.i.i, align 8
  %cmp.not.i.i.i.i = icmp eq ptr %0, null
  br i1 %cmp.not.i.i.i.i, label %_ZN19OpenColorIO_v2_4dev17XmlReaderPlainEltD2Ev.exit, label %if.then.i.i.i.i

if.then.i.i.i.i:                                  ; preds = %entry
  %_M_use_count.i.i.i.i.i = getelementptr inbounds %"class.std::_Sp_counted_base", ptr %0, i64 0, i32 1
  %1 = load atomic i64, ptr %_M_use_count.i.i.i.i.i acquire, align 8
  %cmp.i.i.i.i.i = icmp eq i64 %1, 4294967297
  %2 = trunc i64 %1 to i32
  br i1 %cmp.i.i.i.i.i, label %if.then.i.i.i.i.i, label %if.end.i.i.i.i.i

if.then.i.i.i.i.i:                                ; preds = %if.then.i.i.i.i
  store i32 0, ptr %_M_use_count.i.i.i.i.i, align 8
  %_M_weak_count.i.i.i.i.i = getelementptr inbounds %"class.std::_Sp_counted_base", ptr %0, i64 0, i32 2
  store i32 0, ptr %_M_weak_count.i.i.i.i.i, align 4
  %vtable.i.i.i.i.i = load ptr, ptr %0, align 8
  %vfn.i.i.i.i.i = getelementptr inbounds ptr, ptr %vtable.i.i.i.i.i, i64 2
  %3 = load ptr, ptr %vfn.i.i.i.i.i, align 8
  tail call void %3(ptr noundef nonnull align 8 dereferenceable(16) %0) #28
  br label %if.end8.sink.split.i.i.i.i.i

if.end.i.i.i.i.i:                                 ; preds = %if.then.i.i.i.i
  %4 = load i8, ptr @__libc_single_threaded, align 1
  %tobool.i.not.i.i.i.i.i = icmp eq i8 %4, 0
  br i1 %tobool.i.not.i.i.i.i.i, label %if.else.i.i.i.i.i.i, label %if.then.i.i.i.i.i.i

if.then.i.i.i.i.i.i:                              ; preds = %if.end.i.i.i.i.i
  %add.i.i.i.i.i.i = add nsw i32 %2, -1
  store i32 %add.i.i.i.i.i.i, ptr %_M_use_count.i.i.i.i.i, align 4
  br label %_ZN9__gnu_cxx27__exchange_and_add_dispatchEPii.exit.i.i.i.i.i

if.else.i.i.i.i.i.i:                              ; preds = %if.end.i.i.i.i.i
  %5 = atomicrmw volatile add ptr %_M_use_count.i.i.i.i.i, i32 -1 acq_rel, align 4
  br label %_ZN9__gnu_cxx27__exchange_and_add_dispatchEPii.exit.i.i.i.i.i

_ZN9__gnu_cxx27__exchange_and_add_dispatchEPii.exit.i.i.i.i.i: ; preds = %if.else.i.i.i.i.i.i, %if.then.i.i.i.i.i.i
  %retval.i.0.i.i.i.i.i = phi i32 [ %2, %if.then.i.i.i.i.i.i ], [ %5, %if.else.i.i.i.i.i.i ]
  %cmp6.i.i.i.i.i = icmp eq i32 %retval.i.0.i.i.i.i.i, 1
  br i1 %cmp6.i.i.i.i.i, label %if.then7.i.i.i.i.i, label %_ZN19OpenColorIO_v2_4dev17XmlReaderPlainEltD2Ev.exit

if.then7.i.i.i.i.i:                               ; preds = %_ZN9__gnu_cxx27__exchange_and_add_dispatchEPii.exit.i.i.i.i.i
  %vtable.i.i.i.i.i.i.i = load ptr, ptr %0, align 8
  %vfn.i.i.i.i.i.i.i = getelementptr inbounds ptr, ptr %vtable.i.i.i.i.i.i.i, i64 2
  %6 = load ptr, ptr %vfn.i.i.i.i.i.i.i, align 8
  tail call void %6(ptr noundef nonnull align 8 dereferenceable(16) %0) #28
  %_M_weak_count.i.i.i.i.i.i.i = getelementptr inbounds %"class.std::_Sp_counted_base", ptr %0, i64 0, i32 2
  %7 = load i8, ptr @__libc_single_threaded, align 1
  %tobool.i.not.i.i.i.i.i.i.i = icmp eq i8 %7, 0
  br i1 %tobool.i.not.i.i.i.i.i.i.i, label %if.else.i.i.i.i.i.i.i.i, label %if.then.i.i.i.i.i.i.i.i

if.then.i.i.i.i.i.i.i.i:                          ; preds = %if.then7.i.i.i.i.i
  %8 = load i32, ptr %_M_weak_count.i.i.i.i.i.i.i, align 4
  %add.i.i.i.i.i.i.i.i = add nsw i32 %8, -1
  store i32 %add.i.i.i.i.i.i.i.i, ptr %_M_weak_count.i.i.i.i.i.i.i, align 4
  br label %_ZN9__gnu_cxx27__exchange_and_add_dispatchEPii.exit.i.i.i.i.i.i.i

if.else.i.i.i.i.i.i.i.i:                          ; preds = %if.then7.i.i.i.i.i
  %9 = atomicrmw volatile add ptr %_M_weak_count.i.i.i.i.i.i.i, i32 -1 acq_rel, align 4
  br label %_ZN9__gnu_cxx27__exchange_and_add_dispatchEPii.exit.i.i.i.i.i.i.i

_ZN9__gnu_cxx27__exchange_and_add_dispatchEPii.exit.i.i.i.i.i.i.i: ; preds = %if.else.i.i.i.i.i.i.i.i, %if.then.i.i.i.i.i.i.i.i
  %retval.i.0.i.i.i.i.i.i.i = phi i32 [ %8, %if.then.i.i.i.i.i.i.i.i ], [ %9, %if.else.i.i.i.i.i.i.i.i ]
  %cmp.i.i.i.i.i.i.i = icmp eq i32 %retval.i.0.i.i.i.i.i.i.i, 1
  br i1 %cmp.i.i.i.i.i.i.i, label %if.end8.sink.split.i.i.i.i.i, label %_ZN19OpenColorIO_v2_4dev17XmlReaderPlainEltD2Ev.exit

if.end8.sink.split.i.i.i.i.i:                     ; preds = %_ZN9__gnu_cxx27__exchange_and_add_dispatchEPii.exit.i.i.i.i.i.i.i, %if.then.i.i.i.i.i
  %vtable2.i.i.i.i.i.i.i = load ptr, ptr %0, align 8
  %vfn3.i.i.i.i.i.i.i = getelementptr inbounds ptr, ptr %vtable2.i.i.i.i.i.i.i, i64 3
  %10 = load ptr, ptr %vfn3.i.i.i.i.i.i.i, align 8
  tail call void %10(ptr noundef nonnull align 8 dereferenceable(16) %0) #28
  br label %_ZN19OpenColorIO_v2_4dev17XmlReaderPlainEltD2Ev.exit

_ZN19OpenColorIO_v2_4dev17XmlReaderPlainEltD2Ev.exit: ; preds = %entry, %_ZN9__gnu_cxx27__exchange_and_add_dispatchEPii.exit.i.i.i.i.i, %_ZN9__gnu_cxx27__exchange_and_add_dispatchEPii.exit.i.i.i.i.i.i.i, %if.end8.sink.split.i.i.i.i.i
  tail call void @_ZN19OpenColorIO_v2_4dev16XmlReaderElementD2Ev(ptr noundef nonnull align 8 dereferenceable(80) %this) #28
  ret void
}

; Function Attrs: mustprogress nounwind uwtable
define hidden void @_ZN19OpenColorIO_v2_4dev17CTFReaderArrayEltD0Ev(ptr noundef nonnull align 8 dereferenceable(108) %this) unnamed_addr #3 align 2 personality ptr @__gxx_personality_v0 {
entry:
  %m_array.i = getelementptr inbounds %"class.OpenColorIO_v2_4dev::CTFReaderArrayElt", ptr %this, i64 0, i32 1
  store ptr null, ptr %m_array.i, align 8
  store ptr getelementptr inbounds ({ [11 x ptr] }, ptr @_ZTVN19OpenColorIO_v2_4dev17XmlReaderPlainEltE, i64 0, inrange i32 0, i64 2), ptr %this, align 8
  %_M_refcount.i.i.i.i = getelementptr inbounds %"class.OpenColorIO_v2_4dev::XmlReaderPlainElt", ptr %this, i64 0, i32 1, i32 0, i32 1
  %0 = load ptr, ptr %_M_refcount.i.i.i.i, align 8
  %cmp.not.i.i.i.i.i = icmp eq ptr %0, null
  br i1 %cmp.not.i.i.i.i.i, label %_ZN19OpenColorIO_v2_4dev17CTFReaderArrayEltD2Ev.exit, label %if.then.i.i.i.i.i

if.then.i.i.i.i.i:                                ; preds = %entry
  %_M_use_count.i.i.i.i.i.i = getelementptr inbounds %"class.std::_Sp_counted_base", ptr %0, i64 0, i32 1
  %1 = load atomic i64, ptr %_M_use_count.i.i.i.i.i.i acquire, align 8
  %cmp.i.i.i.i.i.i = icmp eq i64 %1, 4294967297
  %2 = trunc i64 %1 to i32
  br i1 %cmp.i.i.i.i.i.i, label %if.then.i.i.i.i.i.i, label %if.end.i.i.i.i.i.i

if.then.i.i.i.i.i.i:                              ; preds = %if.then.i.i.i.i.i
  store i32 0, ptr %_M_use_count.i.i.i.i.i.i, align 8
  %_M_weak_count.i.i.i.i.i.i = getelementptr inbounds %"class.std::_Sp_counted_base", ptr %0, i64 0, i32 2
  store i32 0, ptr %_M_weak_count.i.i.i.i.i.i, align 4
  %vtable.i.i.i.i.i.i = load ptr, ptr %0, align 8
  %vfn.i.i.i.i.i.i = getelementptr inbounds ptr, ptr %vtable.i.i.i.i.i.i, i64 2
  %3 = load ptr, ptr %vfn.i.i.i.i.i.i, align 8
  tail call void %3(ptr noundef nonnull align 8 dereferenceable(16) %0) #28
  br label %if.end8.sink.split.i.i.i.i.i.i

if.end.i.i.i.i.i.i:                               ; preds = %if.then.i.i.i.i.i
  %4 = load i8, ptr @__libc_single_threaded, align 1
  %tobool.i.not.i.i.i.i.i.i = icmp eq i8 %4, 0
  br i1 %tobool.i.not.i.i.i.i.i.i, label %if.else.i.i.i.i.i.i.i, label %if.then.i.i.i.i.i.i.i

if.then.i.i.i.i.i.i.i:                            ; preds = %if.end.i.i.i.i.i.i
  %add.i.i.i.i.i.i.i = add nsw i32 %2, -1
  store i32 %add.i.i.i.i.i.i.i, ptr %_M_use_count.i.i.i.i.i.i, align 4
  br label %_ZN9__gnu_cxx27__exchange_and_add_dispatchEPii.exit.i.i.i.i.i.i

if.else.i.i.i.i.i.i.i:                            ; preds = %if.end.i.i.i.i.i.i
  %5 = atomicrmw volatile add ptr %_M_use_count.i.i.i.i.i.i, i32 -1 acq_rel, align 4
  br label %_ZN9__gnu_cxx27__exchange_and_add_dispatchEPii.exit.i.i.i.i.i.i

_ZN9__gnu_cxx27__exchange_and_add_dispatchEPii.exit.i.i.i.i.i.i: ; preds = %if.else.i.i.i.i.i.i.i, %if.then.i.i.i.i.i.i.i
  %retval.i.0.i.i.i.i.i.i = phi i32 [ %2, %if.then.i.i.i.i.i.i.i ], [ %5, %if.else.i.i.i.i.i.i.i ]
  %cmp6.i.i.i.i.i.i = icmp eq i32 %retval.i.0.i.i.i.i.i.i, 1
  br i1 %cmp6.i.i.i.i.i.i, label %if.then7.i.i.i.i.i.i, label %_ZN19OpenColorIO_v2_4dev17CTFReaderArrayEltD2Ev.exit

if.then7.i.i.i.i.i.i:                             ; preds = %_ZN9__gnu_cxx27__exchange_and_add_dispatchEPii.exit.i.i.i.i.i.i
  %vtable.i.i.i.i.i.i.i.i = load ptr, ptr %0, align 8
  %vfn.i.i.i.i.i.i.i.i = getelementptr inbounds ptr, ptr %vtable.i.i.i.i.i.i.i.i, i64 2
  %6 = load ptr, ptr %vfn.i.i.i.i.i.i.i.i, align 8
  tail call void %6(ptr noundef nonnull align 8 dereferenceable(16) %0) #28
  %_M_weak_count.i.i.i.i.i.i.i.i = getelementptr inbounds %"class.std::_Sp_counted_base", ptr %0, i64 0, i32 2
  %7 = load i8, ptr @__libc_single_threaded, align 1
  %tobool.i.not.i.i.i.i.i.i.i.i = icmp eq i8 %7, 0
  br i1 %tobool.i.not.i.i.i.i.i.i.i.i, label %if.else.i.i.i.i.i.i.i.i.i, label %if.then.i.i.i.i.i.i.i.i.i

if.then.i.i.i.i.i.i.i.i.i:                        ; preds = %if.then7.i.i.i.i.i.i
  %8 = load i32, ptr %_M_weak_count.i.i.i.i.i.i.i.i, align 4
  %add.i.i.i.i.i.i.i.i.i = add nsw i32 %8, -1
  store i32 %add.i.i.i.i.i.i.i.i.i, ptr %_M_weak_count.i.i.i.i.i.i.i.i, align 4
  br label %_ZN9__gnu_cxx27__exchange_and_add_dispatchEPii.exit.i.i.i.i.i.i.i.i

if.else.i.i.i.i.i.i.i.i.i:                        ; preds = %if.then7.i.i.i.i.i.i
  %9 = atomicrmw volatile add ptr %_M_weak_count.i.i.i.i.i.i.i.i, i32 -1 acq_rel, align 4
  br label %_ZN9__gnu_cxx27__exchange_and_add_dispatchEPii.exit.i.i.i.i.i.i.i.i

_ZN9__gnu_cxx27__exchange_and_add_dispatchEPii.exit.i.i.i.i.i.i.i.i: ; preds = %if.else.i.i.i.i.i.i.i.i.i, %if.then.i.i.i.i.i.i.i.i.i
  %retval.i.0.i.i.i.i.i.i.i.i = phi i32 [ %8, %if.then.i.i.i.i.i.i.i.i.i ], [ %9, %if.else.i.i.i.i.i.i.i.i.i ]
  %cmp.i.i.i.i.i.i.i.i = icmp eq i32 %retval.i.0.i.i.i.i.i.i.i.i, 1
  br i1 %cmp.i.i.i.i.i.i.i.i, label %if.end8.sink.split.i.i.i.i.i.i, label %_ZN19OpenColorIO_v2_4dev17CTFReaderArrayEltD2Ev.exit

if.end8.sink.split.i.i.i.i.i.i:                   ; preds = %_ZN9__gnu_cxx27__exchange_and_add_dispatchEPii.exit.i.i.i.i.i.i.i.i, %if.then.i.i.i.i.i.i
  %vtable2.i.i.i.i.i.i.i.i = load ptr, ptr %0, align 8
  %vfn3.i.i.i.i.i.i.i.i = getelementptr inbounds ptr, ptr %vtable2.i.i.i.i.i.i.i.i, i64 3
  %10 = load ptr, ptr %vfn3.i.i.i.i.i.i.i.i, align 8
  tail call void %10(ptr noundef nonnull align 8 dereferenceable(16) %0) #28
  br label %_ZN19OpenColorIO_v2_4dev17CTFReaderArrayEltD2Ev.exit

_ZN19OpenColorIO_v2_4dev17CTFReaderArrayEltD2Ev.exit: ; preds = %entry, %_ZN9__gnu_cxx27__exchange_and_add_dispatchEPii.exit.i.i.i.i.i.i, %_ZN9__gnu_cxx27__exchange_and_add_dispatchEPii.exit.i.i.i.i.i.i.i.i, %if.end8.sink.split.i.i.i.i.i.i
  tail call void @_ZN19OpenColorIO_v2_4dev16XmlReaderElementD2Ev(ptr noundef nonnull align 8 dereferenceable(80) %this) #28
  tail call void @_ZdlPv(ptr noundef nonnull %this) #30
  ret void
}

; Function Attrs: nobuiltin nounwind
declare void @_ZdlPv(ptr noundef) local_unnamed_addr #9

; Function Attrs: mustprogress uwtable
define hidden void @_ZN19OpenColorIO_v2_4dev17CTFReaderArrayElt5startEPPKc(ptr noundef nonnull align 8 dereferenceable(108) %this, ptr nocapture noundef readonly %atts) unnamed_addr #4 align 2 personality ptr @__gxx_personality_v0 {
entry:
  %agg.tmp.i.i.i40 = alloca %"class.std::__cxx11::basic_string", align 8
  %agg.tmp.i.i41 = alloca %"class.std::__cxx11::basic_string", align 8
  %oss.i42 = alloca %"class.std::__cxx11::basic_ostringstream", align 8
  %agg.tmp.i43 = alloca %"class.std::__cxx11::basic_string", align 8
  %ref.tmp.i44 = alloca %"class.std::__cxx11::basic_string", align 8
  %ref.tmp.i.i34 = alloca %"class.std::allocator", align 1
  %ref.tmp.i.i28 = alloca %"class.std::allocator", align 1
  %agg.tmp.i.i.i = alloca %"class.std::__cxx11::basic_string", align 8
  %agg.tmp.i.i = alloca %"class.std::__cxx11::basic_string", align 8
  %oss.i = alloca %"class.std::__cxx11::basic_ostringstream", align 8
  %agg.tmp.i = alloca %"class.std::__cxx11::basic_string", align 8
  %ref.tmp.i = alloca %"class.std::__cxx11::basic_string", align 8
  %ref.tmp.i.i = alloca %"class.std::allocator", align 1
  %dims = alloca %"class.std::vector.22", align 16
  %ref.tmp = alloca %"class.std::vector.22", align 16
  %agg.tmp = alloca %"class.std::__cxx11::basic_string", align 8
  %agg.tmp29 = alloca %"class.std::__cxx11::basic_string", align 8
  %agg.tmp42 = alloca %"class.std::__cxx11::basic_string", align 8
  %agg.tmp58 = alloca %"class.std::__cxx11::basic_string", align 8
  %ref.tmp73 = alloca %"class.std::__cxx11::basic_string", align 8
  %ref.tmp74 = alloca %"class.std::allocator", align 1
  %0 = load ptr, ptr %atts, align 8
  %tobool.not108 = icmp eq ptr %0, null
  br i1 %tobool.not108, label %if.then72, label %land.rhs.lr.ph

land.rhs.lr.ph:                                   ; preds = %entry
  %_M_finish.i.i.i.i = getelementptr inbounds %"struct.std::_Vector_base<unsigned int, std::allocator<unsigned int>>::_Vector_impl_data", ptr %dims, i64 0, i32 1
  %_M_end_of_storage.i.i.i.i = getelementptr inbounds %"struct.std::_Vector_base<unsigned int, std::allocator<unsigned int>>::_Vector_impl_data", ptr %dims, i64 0, i32 2
  %_M_end_of_storage.i4.i.i.i = getelementptr inbounds %"struct.std::_Vector_base<unsigned int, std::allocator<unsigned int>>::_Vector_impl_data", ptr %ref.tmp, i64 0, i32 2
  %m_parent.i = getelementptr inbounds %"class.OpenColorIO_v2_4dev::XmlReaderPlainElt", ptr %this, i64 0, i32 1
  %m_array = getelementptr inbounds %"class.OpenColorIO_v2_4dev::CTFReaderArrayElt", ptr %this, i64 0, i32 1
  br label %land.rhs

land.rhs:                                         ; preds = %land.rhs.lr.ph, %if.end69
  %1 = phi ptr [ %0, %land.rhs.lr.ph ], [ %52, %if.end69 ]
  %arrayidx111 = phi ptr [ %atts, %land.rhs.lr.ph ], [ %arrayidx, %if.end69 ]
  %isDimFound.0110 = phi i8 [ 0, %land.rhs.lr.ph ], [ %isDimFound.1, %if.end69 ]
  %i.0109 = phi i32 [ 0, %land.rhs.lr.ph ], [ %add70, %if.end69 ]
  %2 = load i8, ptr %1, align 1
  %tobool4.not = icmp eq i8 %2, 0
  br i1 %tobool4.not, label %while.end, label %while.body

while.body:                                       ; preds = %land.rhs
  %call = call noundef i32 @_ZN19OpenColorIO_v2_4dev8Platform10StrcasecmpEPKcS2_(ptr noundef nonnull @_ZN19OpenColorIO_v2_4devL14ATTR_DIMENSIONE, ptr noundef nonnull %1)
  %cmp = icmp eq i32 %call, 0
  br i1 %cmp, label %if.then, label %if.else66

if.then:                                          ; preds = %while.body
  %add = or disjoint i32 %i.0109, 1
  %idxprom7 = zext i32 %add to i64
  %arrayidx8 = getelementptr inbounds ptr, ptr %atts, i64 %idxprom7
  %3 = load ptr, ptr %arrayidx8, align 8
  %call9 = call i64 @strlen(ptr noundef nonnull dereferenceable(1) %3) #32
  call void @llvm.memset.p0.i64(ptr noundef nonnull align 16 dereferenceable(24) %dims, i8 0, i64 24, i1 false)
  invoke void @_ZN19OpenColorIO_v2_4dev10GetNumbersIjEESt6vectorIT_SaIS2_EEPKcm(ptr nonnull sret(%"class.std::vector.22") align 8 %ref.tmp, ptr noundef %3, i64 noundef %call9)
          to label %invoke.cont unwind label %lpad

invoke.cont:                                      ; preds = %if.then
  %4 = load ptr, ptr %dims, align 16
  %5 = load <2 x ptr>, ptr %ref.tmp, align 16
  store <2 x ptr> %5, ptr %dims, align 16
  %6 = load ptr, ptr %_M_end_of_storage.i4.i.i.i, align 16
  store ptr %6, ptr %_M_end_of_storage.i.i.i.i, align 16
  %tobool.not.i.i.i.i.i = icmp eq ptr %4, null
  call void @llvm.memset.p0.i64(ptr noundef nonnull align 16 dereferenceable(24) %ref.tmp, i8 0, i64 24, i1 false)
  br i1 %tobool.not.i.i.i.i.i, label %try.cont, label %_ZNSt6vectorIjSaIjEEaSEOS1_.exit

_ZNSt6vectorIjSaIjEEaSEOS1_.exit:                 ; preds = %invoke.cont
  call void @_ZdlPv(ptr noundef nonnull %4) #30
  %.pr = load ptr, ptr %ref.tmp, align 16
  %tobool.not.i.i.i = icmp eq ptr %.pr, null
  br i1 %tobool.not.i.i.i, label %try.cont, label %if.then.i.i.i

if.then.i.i.i:                                    ; preds = %_ZNSt6vectorIjSaIjEEaSEOS1_.exit
  call void @_ZdlPv(ptr noundef nonnull %.pr) #30
  br label %try.cont

lpad:                                             ; preds = %if.then
  %7 = landingpad { ptr, i32 }
          cleanup
          catch ptr @_ZTIN19OpenColorIO_v2_4dev9ExceptionE
  %8 = extractvalue { ptr, i32 } %7, 0
  %9 = extractvalue { ptr, i32 } %7, 1
  %10 = call i32 @llvm.eh.typeid.for(ptr nonnull @_ZTIN19OpenColorIO_v2_4dev9ExceptionE) #28
  %matches = icmp eq i32 %9, %10
  br i1 %matches, label %catch, label %ehcleanup65

catch:                                            ; preds = %lpad
  %11 = call ptr @__cxa_begin_catch(ptr %8) #28
  %vtable = load ptr, ptr %this, align 8
  %vfn = getelementptr inbounds ptr, ptr %vtable, i64 6
  %12 = load ptr, ptr %vfn, align 8
  %call13 = invoke noundef ptr %12(ptr noundef nonnull align 8 dereferenceable(108) %this)
          to label %invoke.cont12 unwind label %lpad11

invoke.cont12:                                    ; preds = %catch
  invoke void @_ZN19OpenColorIO_v2_4dev14TruncateStringB5cxx11EPKcm(ptr nonnull sret(%"class.std::__cxx11::basic_string") align 8 %agg.tmp, ptr noundef %3, i64 noundef %call9)
          to label %invoke.cont14 unwind label %lpad11

invoke.cont14:                                    ; preds = %invoke.cont12
  invoke fastcc void @_ZN19OpenColorIO_v2_4dev12_GLOBAL__N_16ThrowMIA10_cJPKcS4_NSt7__cxx1112basic_stringIcSt11char_traitsIcESaIcEEES4_EEEvRKNS_16XmlReaderElementERKT_DpT0_(ptr noundef nonnull align 8 dereferenceable(80) %this, ptr noundef %call13, ptr noundef nonnull @.str.26, ptr noundef nonnull %agg.tmp)
          to label %invoke.cont16 unwind label %lpad15

invoke.cont16:                                    ; preds = %invoke.cont14
  call void @_ZNSt7__cxx1112basic_stringIcSt11char_traitsIcESaIcEED1Ev(ptr noundef nonnull align 8 dereferenceable(32) %agg.tmp) #28
  invoke void @__cxa_end_catch()
          to label %try.cont unwind label %lpad17

try.cont:                                         ; preds = %invoke.cont, %if.then.i.i.i, %_ZNSt6vectorIjSaIjEEaSEOS1_.exit, %invoke.cont16
  %13 = load ptr, ptr %m_parent.i, align 8
  %14 = icmp eq ptr %13, null
  br i1 %14, label %if.then24, label %dynamic_cast.end

lpad11:                                           ; preds = %invoke.cont12, %catch
  %15 = landingpad { ptr, i32 }
          cleanup
  br label %ehcleanup

lpad15:                                           ; preds = %invoke.cont14
  %16 = landingpad { ptr, i32 }
          cleanup
  call void @_ZNSt7__cxx1112basic_stringIcSt11char_traitsIcESaIcEED1Ev(ptr noundef nonnull align 8 dereferenceable(32) %agg.tmp) #28
  br label %ehcleanup

lpad17:                                           ; preds = %if.then53, %if.end, %if.then37, %if.then24, %invoke.cont16
  %17 = landingpad { ptr, i32 }
          cleanup
  br label %lpad17.body

lpad17.body:                                      ; preds = %lpad.i.i30, %lpad.i.i36, %lpad17, %lpad.i.i
  %eh.lpad-body = phi { ptr, i32 } [ %22, %lpad.i.i ], [ %34, %lpad.i.i30 ], [ %17, %lpad17 ], [ %40, %lpad.i.i36 ]
  %18 = extractvalue { ptr, i32 } %eh.lpad-body, 0
  %19 = extractvalue { ptr, i32 } %eh.lpad-body, 1
  br label %ehcleanup65

ehcleanup:                                        ; preds = %lpad15, %lpad11
  %.pn24 = phi { ptr, i32 } [ %16, %lpad15 ], [ %15, %lpad11 ]
  %exn.slot.0 = extractvalue { ptr, i32 } %.pn24, 0
  %ehselector.slot.0 = extractvalue { ptr, i32 } %.pn24, 1
  invoke void @__cxa_end_catch()
          to label %ehcleanup65 unwind label %terminate.lpad

dynamic_cast.end:                                 ; preds = %try.cont
  %20 = call ptr @__dynamic_cast(ptr nonnull %13, ptr nonnull @_ZTIN19OpenColorIO_v2_4dev21XmlReaderContainerEltE, ptr nonnull @_ZTIN19OpenColorIO_v2_4dev11CTFArrayMgtE, i64 -2) #28
  %tobool23.not = icmp eq ptr %20, null
  br i1 %tobool23.not, label %if.then24, label %if.else

if.then24:                                        ; preds = %try.cont, %dynamic_cast.end
  %vtable25 = load ptr, ptr %this, align 8
  %vfn26 = getelementptr inbounds ptr, ptr %vtable25, i64 6
  %21 = load ptr, ptr %vfn26, align 8
  %call28 = invoke noundef ptr %21(ptr noundef nonnull align 8 dereferenceable(108) %this)
          to label %invoke.cont27 unwind label %lpad17

invoke.cont27:                                    ; preds = %if.then24
  call void @llvm.lifetime.start.p0(i64 1, ptr nonnull %ref.tmp.i.i), !noalias !10
  %cond.i.i = call i64 @llvm.umin.i64(i64 %call9, i64 17)
  call void @_ZNSaIcEC1Ev(ptr noundef nonnull align 1 dereferenceable(1) %ref.tmp.i.i) #28, !noalias !13
  invoke void @_ZNSt7__cxx1112basic_stringIcSt11char_traitsIcESaIcEEC1EPKcmRKS3_(ptr noundef nonnull align 8 dereferenceable(32) %agg.tmp29, ptr noundef %3, i64 noundef %cond.i.i, ptr noundef nonnull align 1 dereferenceable(1) %ref.tmp.i.i)
          to label %invoke.cont30 unwind label %lpad.i.i

lpad.i.i:                                         ; preds = %invoke.cont27
  %22 = landingpad { ptr, i32 }
          cleanup
  call void @_ZNSaIcED1Ev(ptr noundef nonnull align 1 dereferenceable(1) %ref.tmp.i.i) #28
  br label %lpad17.body

invoke.cont30:                                    ; preds = %invoke.cont27
  call void @_ZNSaIcED1Ev(ptr noundef nonnull align 1 dereferenceable(1) %ref.tmp.i.i) #28
  call void @llvm.lifetime.end.p0(i64 1, ptr nonnull %ref.tmp.i.i), !noalias !10
  call void @llvm.lifetime.start.p0(i64 376, ptr nonnull %oss.i)
  call void @llvm.lifetime.start.p0(i64 32, ptr nonnull %agg.tmp.i)
  call void @llvm.lifetime.start.p0(i64 32, ptr nonnull %ref.tmp.i)
  invoke void @_ZNSt7__cxx1119basic_ostringstreamIcSt11char_traitsIcESaIcEEC1Ev(ptr noundef nonnull align 8 dereferenceable(112) %oss.i)
          to label %.noexc unwind label %lpad31

.noexc:                                           ; preds = %invoke.cont30
  invoke void @_ZNSt7__cxx1112basic_stringIcSt11char_traitsIcESaIcEEC1ERKS4_(ptr noundef nonnull align 8 dereferenceable(32) %agg.tmp.i, ptr noundef nonnull align 8 dereferenceable(32) %agg.tmp29)
          to label %invoke.cont.i unwind label %lpad.i

invoke.cont.i:                                    ; preds = %.noexc
  call void @llvm.lifetime.start.p0(i64 32, ptr nonnull %agg.tmp.i.i)
  %call.i.i2.i = invoke noundef nonnull align 8 dereferenceable(8) ptr @_ZStlsISt11char_traitsIcEERSt13basic_ostreamIcT_ES5_PKc(ptr noundef nonnull align 8 dereferenceable(8) %oss.i, ptr noundef nonnull @.str.28)
          to label %call.i.i.noexc.i unwind label %lpad6.i

call.i.i.noexc.i:                                 ; preds = %invoke.cont.i
  invoke void @_ZNSt7__cxx1112basic_stringIcSt11char_traitsIcESaIcEEC1ERKS4_(ptr noundef nonnull align 8 dereferenceable(32) %agg.tmp.i.i, ptr noundef nonnull align 8 dereferenceable(32) %agg.tmp.i)
          to label %.noexc.i unwind label %lpad6.i

.noexc.i:                                         ; preds = %call.i.i.noexc.i
  call void @llvm.lifetime.start.p0(i64 32, ptr nonnull %agg.tmp.i.i.i)
  %call.i.i2.i.i = invoke noundef nonnull align 8 dereferenceable(8) ptr @_ZStlsISt11char_traitsIcEERSt13basic_ostreamIcT_ES5_PKc(ptr noundef nonnull align 8 dereferenceable(8) %oss.i, ptr noundef %call28)
          to label %call.i.i.noexc.i.i unwind label %lpad.i.i26

call.i.i.noexc.i.i:                               ; preds = %.noexc.i
  invoke void @_ZNSt7__cxx1112basic_stringIcSt11char_traitsIcESaIcEEC1ERKS4_(ptr noundef nonnull align 8 dereferenceable(32) %agg.tmp.i.i.i, ptr noundef nonnull align 8 dereferenceable(32) %agg.tmp.i.i)
          to label %.noexc.i.i unwind label %lpad.i.i26

.noexc.i.i:                                       ; preds = %call.i.i.noexc.i.i
  %call.i.i2.i.i.i = invoke noundef nonnull align 8 dereferenceable(8) ptr @_ZStlsISt11char_traitsIcEERSt13basic_ostreamIcT_ES5_PKc(ptr noundef nonnull align 8 dereferenceable(8) %oss.i, ptr noundef nonnull @.str.29)
          to label %call.i.i.noexc.i.i.i unwind label %lpad.i.i.i

call.i.i.noexc.i.i.i:                             ; preds = %.noexc.i.i
  %call.i.i.i3.i.i.i = invoke noundef nonnull align 8 dereferenceable(8) ptr @_ZStlsIcSt11char_traitsIcESaIcEERSt13basic_ostreamIT_T0_ES7_RKNSt7__cxx1112basic_stringIS4_S5_T1_EE(ptr noundef nonnull align 8 dereferenceable(8) %oss.i, ptr noundef nonnull align 8 dereferenceable(32) %agg.tmp.i.i.i)
          to label %call.i.i.i.noexc.i.i.i unwind label %lpad.i.i.i

call.i.i.i.noexc.i.i.i:                           ; preds = %call.i.i.noexc.i.i.i
  %call.i2.i.i4.i.i.i = invoke noundef nonnull align 8 dereferenceable(8) ptr @_ZStlsISt11char_traitsIcEERSt13basic_ostreamIcT_ES5_PKc(ptr noundef nonnull align 8 dereferenceable(8) %oss.i, ptr noundef nonnull @.str.30)
          to label %invoke.cont7.i unwind label %lpad.i.i.i

lpad.i.i.i:                                       ; preds = %call.i.i.i.noexc.i.i.i, %call.i.i.noexc.i.i.i, %.noexc.i.i
  %23 = landingpad { ptr, i32 }
          cleanup
  call void @_ZNSt7__cxx1112basic_stringIcSt11char_traitsIcESaIcEED1Ev(ptr noundef nonnull align 8 dereferenceable(32) %agg.tmp.i.i.i) #28
  br label %lpad.body.i.i

lpad.i.i26:                                       ; preds = %call.i.i.noexc.i.i, %.noexc.i
  %24 = landingpad { ptr, i32 }
          cleanup
  br label %lpad.body.i.i

lpad.body.i.i:                                    ; preds = %lpad.i.i26, %lpad.i.i.i
  %eh.lpad-body.i.i = phi { ptr, i32 } [ %24, %lpad.i.i26 ], [ %23, %lpad.i.i.i ]
  call void @_ZNSt7__cxx1112basic_stringIcSt11char_traitsIcESaIcEED1Ev(ptr noundef nonnull align 8 dereferenceable(32) %agg.tmp.i.i) #28
  br label %lpad6.body.i

invoke.cont7.i:                                   ; preds = %call.i.i.i.noexc.i.i.i
  call void @_ZNSt7__cxx1112basic_stringIcSt11char_traitsIcESaIcEED1Ev(ptr noundef nonnull align 8 dereferenceable(32) %agg.tmp.i.i.i) #28
  call void @llvm.lifetime.end.p0(i64 32, ptr nonnull %agg.tmp.i.i.i)
  call void @_ZNSt7__cxx1112basic_stringIcSt11char_traitsIcESaIcEED1Ev(ptr noundef nonnull align 8 dereferenceable(32) %agg.tmp.i.i) #28
  call void @llvm.lifetime.end.p0(i64 32, ptr nonnull %agg.tmp.i.i)
  call void @_ZNSt7__cxx1112basic_stringIcSt11char_traitsIcESaIcEED1Ev(ptr noundef nonnull align 8 dereferenceable(32) %agg.tmp.i) #28
  invoke void @_ZNKSt7__cxx1119basic_ostringstreamIcSt11char_traitsIcESaIcEE3strEv(ptr nonnull sret(%"class.std::__cxx11::basic_string") align 8 %ref.tmp.i, ptr noundef nonnull align 8 dereferenceable(112) %oss.i)
          to label %invoke.cont8.i unwind label %lpad.i

invoke.cont8.i:                                   ; preds = %invoke.cont7.i
  invoke void @_ZNK19OpenColorIO_v2_4dev16XmlReaderElement12throwMessageERKNSt7__cxx1112basic_stringIcSt11char_traitsIcESaIcEEE(ptr noundef nonnull align 8 dereferenceable(80) %this, ptr noundef nonnull align 8 dereferenceable(32) %ref.tmp.i)
          to label %invoke.cont32 unwind label %lpad9.i

lpad.i:                                           ; preds = %invoke.cont7.i, %.noexc
  %25 = landingpad { ptr, i32 }
          cleanup
  br label %ehcleanup.i

lpad6.i:                                          ; preds = %call.i.i.noexc.i, %invoke.cont.i
  %26 = landingpad { ptr, i32 }
          cleanup
  br label %lpad6.body.i

lpad6.body.i:                                     ; preds = %lpad6.i, %lpad.body.i.i
  %eh.lpad-body.i = phi { ptr, i32 } [ %26, %lpad6.i ], [ %eh.lpad-body.i.i, %lpad.body.i.i ]
  call void @_ZNSt7__cxx1112basic_stringIcSt11char_traitsIcESaIcEED1Ev(ptr noundef nonnull align 8 dereferenceable(32) %agg.tmp.i) #28
  br label %ehcleanup.i

lpad9.i:                                          ; preds = %invoke.cont8.i
  %27 = landingpad { ptr, i32 }
          cleanup
  call void @_ZNSt7__cxx1112basic_stringIcSt11char_traitsIcESaIcEED1Ev(ptr noundef nonnull align 8 dereferenceable(32) %ref.tmp.i) #28
  br label %ehcleanup.i

ehcleanup.i:                                      ; preds = %lpad9.i, %lpad6.body.i, %lpad.i
  %.pn.i = phi { ptr, i32 } [ %27, %lpad9.i ], [ %25, %lpad.i ], [ %eh.lpad-body.i, %lpad6.body.i ]
  call void @_ZNSt7__cxx1119basic_ostringstreamIcSt11char_traitsIcESaIcEED1Ev(ptr noundef nonnull align 8 dereferenceable(112) %oss.i) #28
  br label %lpad31.body

invoke.cont32:                                    ; preds = %invoke.cont8.i
  call void @_ZNSt7__cxx1112basic_stringIcSt11char_traitsIcESaIcEED1Ev(ptr noundef nonnull align 8 dereferenceable(32) %ref.tmp.i) #28
  call void @_ZNSt7__cxx1119basic_ostringstreamIcSt11char_traitsIcESaIcEED1Ev(ptr noundef nonnull align 8 dereferenceable(112) %oss.i) #28
  call void @llvm.lifetime.end.p0(i64 376, ptr nonnull %oss.i)
  call void @llvm.lifetime.end.p0(i64 32, ptr nonnull %agg.tmp.i)
  call void @llvm.lifetime.end.p0(i64 32, ptr nonnull %ref.tmp.i)
  br label %if.end64.sink.split

lpad31:                                           ; preds = %invoke.cont30
  %28 = landingpad { ptr, i32 }
          cleanup
  br label %lpad31.body

lpad31.body:                                      ; preds = %ehcleanup.i, %lpad31
  %eh.lpad-body27 = phi { ptr, i32 } [ %28, %lpad31 ], [ %.pn.i, %ehcleanup.i ]
  %29 = extractvalue { ptr, i32 } %eh.lpad-body27, 0
  %30 = extractvalue { ptr, i32 } %eh.lpad-body27, 1
  call void @_ZNSt7__cxx1112basic_stringIcSt11char_traitsIcESaIcEED1Ev(ptr noundef nonnull align 8 dereferenceable(32) %agg.tmp29) #28
  br label %ehcleanup65

if.else:                                          ; preds = %dynamic_cast.end
  %31 = load ptr, ptr %dims, align 16
  %32 = load ptr, ptr %_M_finish.i.i.i.i, align 8
  %cmp.i.i = icmp eq ptr %31, %32
  %sub.ptr.lhs.cast.i = ptrtoint ptr %32 to i64
  %sub.ptr.rhs.cast.i = ptrtoint ptr %31 to i64
  %sub.ptr.sub.i = sub i64 %sub.ptr.lhs.cast.i, %sub.ptr.rhs.cast.i
  %cmp36 = icmp eq i64 %sub.ptr.sub.i, 4
  %or.cond = or i1 %cmp.i.i, %cmp36
  br i1 %or.cond, label %if.then37, label %if.end

if.then37:                                        ; preds = %if.else
  %vtable38 = load ptr, ptr %this, align 8
  %vfn39 = getelementptr inbounds ptr, ptr %vtable38, i64 6
  %33 = load ptr, ptr %vfn39, align 8
  %call41 = invoke noundef ptr %33(ptr noundef nonnull align 8 dereferenceable(108) %this)
          to label %invoke.cont40 unwind label %lpad17

invoke.cont40:                                    ; preds = %if.then37
  call void @llvm.lifetime.start.p0(i64 1, ptr nonnull %ref.tmp.i.i28), !noalias !16
  %cond.i.i29 = call i64 @llvm.umin.i64(i64 %call9, i64 17)
  call void @_ZNSaIcEC1Ev(ptr noundef nonnull align 1 dereferenceable(1) %ref.tmp.i.i28) #28, !noalias !19
  invoke void @_ZNSt7__cxx1112basic_stringIcSt11char_traitsIcESaIcEEC1EPKcmRKS3_(ptr noundef nonnull align 8 dereferenceable(32) %agg.tmp42, ptr noundef %3, i64 noundef %cond.i.i29, ptr noundef nonnull align 1 dereferenceable(1) %ref.tmp.i.i28)
          to label %invoke.cont43 unwind label %lpad.i.i30

lpad.i.i30:                                       ; preds = %invoke.cont40
  %34 = landingpad { ptr, i32 }
          cleanup
  call void @_ZNSaIcED1Ev(ptr noundef nonnull align 1 dereferenceable(1) %ref.tmp.i.i28) #28
  br label %lpad17.body

invoke.cont43:                                    ; preds = %invoke.cont40
  call void @_ZNSaIcED1Ev(ptr noundef nonnull align 1 dereferenceable(1) %ref.tmp.i.i28) #28
  call void @llvm.lifetime.end.p0(i64 1, ptr nonnull %ref.tmp.i.i28), !noalias !16
  invoke fastcc void @_ZN19OpenColorIO_v2_4dev12_GLOBAL__N_16ThrowMIA10_cJPKcS4_NSt7__cxx1112basic_stringIcSt11char_traitsIcESaIcEEES4_EEEvRKNS_16XmlReaderElementERKT_DpT0_(ptr noundef nonnull align 8 dereferenceable(80) %this, ptr noundef %call41, ptr noundef nonnull @.str.26, ptr noundef nonnull %agg.tmp42)
          to label %invoke.cont45 unwind label %lpad44

invoke.cont45:                                    ; preds = %invoke.cont43
  call void @_ZNSt7__cxx1112basic_stringIcSt11char_traitsIcESaIcEED1Ev(ptr noundef nonnull align 8 dereferenceable(32) %agg.tmp42) #28
  br label %if.end

lpad44:                                           ; preds = %invoke.cont43
  %35 = landingpad { ptr, i32 }
          cleanup
  %36 = extractvalue { ptr, i32 } %35, 0
  %37 = extractvalue { ptr, i32 } %35, 1
  call void @_ZNSt7__cxx1112basic_stringIcSt11char_traitsIcESaIcEED1Ev(ptr noundef nonnull align 8 dereferenceable(32) %agg.tmp42) #28
  br label %ehcleanup65

if.end:                                           ; preds = %if.else, %invoke.cont45
  %vtable47 = load ptr, ptr %20, align 8
  %vfn48 = getelementptr inbounds ptr, ptr %vtable47, i64 3
  %38 = load ptr, ptr %vfn48, align 8
  %call50 = invoke noundef ptr %38(ptr noundef nonnull align 8 dereferenceable(9) %20, ptr noundef nonnull align 8 dereferenceable(24) %dims)
          to label %invoke.cont49 unwind label %lpad17

invoke.cont49:                                    ; preds = %if.end
  store ptr %call50, ptr %m_array, align 8
  %tobool52.not = icmp eq ptr %call50, null
  br i1 %tobool52.not, label %if.then53, label %if.end64

if.then53:                                        ; preds = %invoke.cont49
  %vtable54 = load ptr, ptr %this, align 8
  %vfn55 = getelementptr inbounds ptr, ptr %vtable54, i64 6
  %39 = load ptr, ptr %vfn55, align 8
  %call57 = invoke noundef ptr %39(ptr noundef nonnull align 8 dereferenceable(108) %this)
          to label %invoke.cont56 unwind label %lpad17

invoke.cont56:                                    ; preds = %if.then53
  call void @llvm.lifetime.start.p0(i64 1, ptr nonnull %ref.tmp.i.i34), !noalias !22
  %cond.i.i35 = call i64 @llvm.umin.i64(i64 %call9, i64 17)
  call void @_ZNSaIcEC1Ev(ptr noundef nonnull align 1 dereferenceable(1) %ref.tmp.i.i34) #28, !noalias !25
  invoke void @_ZNSt7__cxx1112basic_stringIcSt11char_traitsIcESaIcEEC1EPKcmRKS3_(ptr noundef nonnull align 8 dereferenceable(32) %agg.tmp58, ptr noundef %3, i64 noundef %cond.i.i35, ptr noundef nonnull align 1 dereferenceable(1) %ref.tmp.i.i34)
          to label %invoke.cont59 unwind label %lpad.i.i36

lpad.i.i36:                                       ; preds = %invoke.cont56
  %40 = landingpad { ptr, i32 }
          cleanup
  call void @_ZNSaIcED1Ev(ptr noundef nonnull align 1 dereferenceable(1) %ref.tmp.i.i34) #28
  br label %lpad17.body

invoke.cont59:                                    ; preds = %invoke.cont56
  call void @_ZNSaIcED1Ev(ptr noundef nonnull align 1 dereferenceable(1) %ref.tmp.i.i34) #28
  call void @llvm.lifetime.end.p0(i64 1, ptr nonnull %ref.tmp.i.i34), !noalias !22
  call void @llvm.lifetime.start.p0(i64 376, ptr nonnull %oss.i42)
  call void @llvm.lifetime.start.p0(i64 32, ptr nonnull %agg.tmp.i43)
  call void @llvm.lifetime.start.p0(i64 32, ptr nonnull %ref.tmp.i44)
  invoke void @_ZNSt7__cxx1119basic_ostringstreamIcSt11char_traitsIcESaIcEEC1Ev(ptr noundef nonnull align 8 dereferenceable(112) %oss.i42)
          to label %.noexc70 unwind label %lpad60

.noexc70:                                         ; preds = %invoke.cont59
  invoke void @_ZNSt7__cxx1112basic_stringIcSt11char_traitsIcESaIcEEC1ERKS4_(ptr noundef nonnull align 8 dereferenceable(32) %agg.tmp.i43, ptr noundef nonnull align 8 dereferenceable(32) %agg.tmp58)
          to label %invoke.cont.i48 unwind label %lpad.i45

invoke.cont.i48:                                  ; preds = %.noexc70
  call void @llvm.lifetime.start.p0(i64 32, ptr nonnull %agg.tmp.i.i41)
  %call.i.i2.i49 = invoke noundef nonnull align 8 dereferenceable(8) ptr @_ZStlsISt11char_traitsIcEERSt13basic_ostreamIcT_ES5_PKc(ptr noundef nonnull align 8 dereferenceable(8) %oss.i42, ptr noundef nonnull @.str.31)
          to label %call.i.i.noexc.i53 unwind label %lpad6.i50

call.i.i.noexc.i53:                               ; preds = %invoke.cont.i48
  invoke void @_ZNSt7__cxx1112basic_stringIcSt11char_traitsIcESaIcEEC1ERKS4_(ptr noundef nonnull align 8 dereferenceable(32) %agg.tmp.i.i41, ptr noundef nonnull align 8 dereferenceable(32) %agg.tmp.i43)
          to label %.noexc.i54 unwind label %lpad6.i50

.noexc.i54:                                       ; preds = %call.i.i.noexc.i53
  call void @llvm.lifetime.start.p0(i64 32, ptr nonnull %agg.tmp.i.i.i40)
  %call.i.i2.i.i55 = invoke noundef nonnull align 8 dereferenceable(8) ptr @_ZStlsISt11char_traitsIcEERSt13basic_ostreamIcT_ES5_PKc(ptr noundef nonnull align 8 dereferenceable(8) %oss.i42, ptr noundef %call57)
          to label %call.i.i.noexc.i.i59 unwind label %lpad.i.i56

call.i.i.noexc.i.i59:                             ; preds = %.noexc.i54
  invoke void @_ZNSt7__cxx1112basic_stringIcSt11char_traitsIcESaIcEEC1ERKS4_(ptr noundef nonnull align 8 dereferenceable(32) %agg.tmp.i.i.i40, ptr noundef nonnull align 8 dereferenceable(32) %agg.tmp.i.i41)
          to label %.noexc.i.i60 unwind label %lpad.i.i56

.noexc.i.i60:                                     ; preds = %call.i.i.noexc.i.i59
  %call.i.i2.i.i.i61 = invoke noundef nonnull align 8 dereferenceable(8) ptr @_ZStlsISt11char_traitsIcEERSt13basic_ostreamIcT_ES5_PKc(ptr noundef nonnull align 8 dereferenceable(8) %oss.i42, ptr noundef nonnull @.str.32)
          to label %call.i.i.noexc.i.i.i63 unwind label %lpad.i.i.i62

call.i.i.noexc.i.i.i63:                           ; preds = %.noexc.i.i60
  %call.i.i.i3.i.i.i64 = invoke noundef nonnull align 8 dereferenceable(8) ptr @_ZStlsIcSt11char_traitsIcESaIcEERSt13basic_ostreamIT_T0_ES7_RKNSt7__cxx1112basic_stringIS4_S5_T1_EE(ptr noundef nonnull align 8 dereferenceable(8) %oss.i42, ptr noundef nonnull align 8 dereferenceable(32) %agg.tmp.i.i.i40)
          to label %call.i.i.i.noexc.i.i.i65 unwind label %lpad.i.i.i62

call.i.i.i.noexc.i.i.i65:                         ; preds = %call.i.i.noexc.i.i.i63
  %call.i2.i.i4.i.i.i66 = invoke noundef nonnull align 8 dereferenceable(8) ptr @_ZStlsISt11char_traitsIcEERSt13basic_ostreamIcT_ES5_PKc(ptr noundef nonnull align 8 dereferenceable(8) %oss.i42, ptr noundef nonnull @.str.27)
          to label %invoke.cont7.i67 unwind label %lpad.i.i.i62

lpad.i.i.i62:                                     ; preds = %call.i.i.i.noexc.i.i.i65, %call.i.i.noexc.i.i.i63, %.noexc.i.i60
  %41 = landingpad { ptr, i32 }
          cleanup
  call void @_ZNSt7__cxx1112basic_stringIcSt11char_traitsIcESaIcEED1Ev(ptr noundef nonnull align 8 dereferenceable(32) %agg.tmp.i.i.i40) #28
  br label %lpad.body.i.i57

lpad.i.i56:                                       ; preds = %call.i.i.noexc.i.i59, %.noexc.i54
  %42 = landingpad { ptr, i32 }
          cleanup
  br label %lpad.body.i.i57

lpad.body.i.i57:                                  ; preds = %lpad.i.i56, %lpad.i.i.i62
  %eh.lpad-body.i.i58 = phi { ptr, i32 } [ %42, %lpad.i.i56 ], [ %41, %lpad.i.i.i62 ]
  call void @_ZNSt7__cxx1112basic_stringIcSt11char_traitsIcESaIcEED1Ev(ptr noundef nonnull align 8 dereferenceable(32) %agg.tmp.i.i41) #28
  br label %lpad6.body.i51

invoke.cont7.i67:                                 ; preds = %call.i.i.i.noexc.i.i.i65
  call void @_ZNSt7__cxx1112basic_stringIcSt11char_traitsIcESaIcEED1Ev(ptr noundef nonnull align 8 dereferenceable(32) %agg.tmp.i.i.i40) #28
  call void @llvm.lifetime.end.p0(i64 32, ptr nonnull %agg.tmp.i.i.i40)
  call void @_ZNSt7__cxx1112basic_stringIcSt11char_traitsIcESaIcEED1Ev(ptr noundef nonnull align 8 dereferenceable(32) %agg.tmp.i.i41) #28
  call void @llvm.lifetime.end.p0(i64 32, ptr nonnull %agg.tmp.i.i41)
  call void @_ZNSt7__cxx1112basic_stringIcSt11char_traitsIcESaIcEED1Ev(ptr noundef nonnull align 8 dereferenceable(32) %agg.tmp.i43) #28
  invoke void @_ZNKSt7__cxx1119basic_ostringstreamIcSt11char_traitsIcESaIcEE3strEv(ptr nonnull sret(%"class.std::__cxx11::basic_string") align 8 %ref.tmp.i44, ptr noundef nonnull align 8 dereferenceable(112) %oss.i42)
          to label %invoke.cont8.i68 unwind label %lpad.i45

invoke.cont8.i68:                                 ; preds = %invoke.cont7.i67
  invoke void @_ZNK19OpenColorIO_v2_4dev16XmlReaderElement12throwMessageERKNSt7__cxx1112basic_stringIcSt11char_traitsIcESaIcEEE(ptr noundef nonnull align 8 dereferenceable(80) %this, ptr noundef nonnull align 8 dereferenceable(32) %ref.tmp.i44)
          to label %invoke.cont61 unwind label %lpad9.i69

lpad.i45:                                         ; preds = %invoke.cont7.i67, %.noexc70
  %43 = landingpad { ptr, i32 }
          cleanup
  br label %ehcleanup.i46

lpad6.i50:                                        ; preds = %call.i.i.noexc.i53, %invoke.cont.i48
  %44 = landingpad { ptr, i32 }
          cleanup
  br label %lpad6.body.i51

lpad6.body.i51:                                   ; preds = %lpad6.i50, %lpad.body.i.i57
  %eh.lpad-body.i52 = phi { ptr, i32 } [ %44, %lpad6.i50 ], [ %eh.lpad-body.i.i58, %lpad.body.i.i57 ]
  call void @_ZNSt7__cxx1112basic_stringIcSt11char_traitsIcESaIcEED1Ev(ptr noundef nonnull align 8 dereferenceable(32) %agg.tmp.i43) #28
  br label %ehcleanup.i46

lpad9.i69:                                        ; preds = %invoke.cont8.i68
  %45 = landingpad { ptr, i32 }
          cleanup
  call void @_ZNSt7__cxx1112basic_stringIcSt11char_traitsIcESaIcEED1Ev(ptr noundef nonnull align 8 dereferenceable(32) %ref.tmp.i44) #28
  br label %ehcleanup.i46

ehcleanup.i46:                                    ; preds = %lpad9.i69, %lpad6.body.i51, %lpad.i45
  %.pn.i47 = phi { ptr, i32 } [ %45, %lpad9.i69 ], [ %43, %lpad.i45 ], [ %eh.lpad-body.i52, %lpad6.body.i51 ]
  call void @_ZNSt7__cxx1119basic_ostringstreamIcSt11char_traitsIcESaIcEED1Ev(ptr noundef nonnull align 8 dereferenceable(112) %oss.i42) #28
  br label %lpad60.body

invoke.cont61:                                    ; preds = %invoke.cont8.i68
  call void @_ZNSt7__cxx1112basic_stringIcSt11char_traitsIcESaIcEED1Ev(ptr noundef nonnull align 8 dereferenceable(32) %ref.tmp.i44) #28
  call void @_ZNSt7__cxx1119basic_ostringstreamIcSt11char_traitsIcESaIcEED1Ev(ptr noundef nonnull align 8 dereferenceable(112) %oss.i42) #28
  call void @llvm.lifetime.end.p0(i64 376, ptr nonnull %oss.i42)
  call void @llvm.lifetime.end.p0(i64 32, ptr nonnull %agg.tmp.i43)
  call void @llvm.lifetime.end.p0(i64 32, ptr nonnull %ref.tmp.i44)
  br label %if.end64.sink.split

lpad60:                                           ; preds = %invoke.cont59
  %46 = landingpad { ptr, i32 }
          cleanup
  br label %lpad60.body

lpad60.body:                                      ; preds = %ehcleanup.i46, %lpad60
  %eh.lpad-body71 = phi { ptr, i32 } [ %46, %lpad60 ], [ %.pn.i47, %ehcleanup.i46 ]
  %47 = extractvalue { ptr, i32 } %eh.lpad-body71, 0
  %48 = extractvalue { ptr, i32 } %eh.lpad-body71, 1
  call void @_ZNSt7__cxx1112basic_stringIcSt11char_traitsIcESaIcEED1Ev(ptr noundef nonnull align 8 dereferenceable(32) %agg.tmp58) #28
  br label %ehcleanup65

if.end64.sink.split:                              ; preds = %invoke.cont32, %invoke.cont61
  %agg.tmp58.sink = phi ptr [ %agg.tmp58, %invoke.cont61 ], [ %agg.tmp29, %invoke.cont32 ]
  call void @_ZNSt7__cxx1112basic_stringIcSt11char_traitsIcESaIcEED1Ev(ptr noundef nonnull align 8 dereferenceable(32) %agg.tmp58.sink) #28
  br label %if.end64

if.end64:                                         ; preds = %if.end64.sink.split, %invoke.cont49
  %49 = load ptr, ptr %dims, align 16
  %tobool.not.i.i.i73 = icmp eq ptr %49, null
  br i1 %tobool.not.i.i.i73, label %if.end69, label %if.then.i.i.i74

if.then.i.i.i74:                                  ; preds = %if.end64
  call void @_ZdlPv(ptr noundef nonnull %49) #30
  br label %if.end69

ehcleanup65:                                      ; preds = %lpad, %ehcleanup, %lpad60.body, %lpad44, %lpad31.body, %lpad17.body
  %ehselector.slot.1 = phi i32 [ %48, %lpad60.body ], [ %19, %lpad17.body ], [ %37, %lpad44 ], [ %30, %lpad31.body ], [ %ehselector.slot.0, %ehcleanup ], [ %9, %lpad ]
  %exn.slot.1 = phi ptr [ %47, %lpad60.body ], [ %18, %lpad17.body ], [ %36, %lpad44 ], [ %29, %lpad31.body ], [ %exn.slot.0, %ehcleanup ], [ %8, %lpad ]
  %50 = load ptr, ptr %dims, align 16
  %tobool.not.i.i.i77 = icmp eq ptr %50, null
  br i1 %tobool.not.i.i.i77, label %eh.resume, label %if.then.i.i.i78

if.then.i.i.i78:                                  ; preds = %ehcleanup65
  call void @_ZdlPv(ptr noundef nonnull %50) #30
  br label %eh.resume

if.else66:                                        ; preds = %while.body
  %51 = load ptr, ptr %arrayidx111, align 8
  call void @_ZNK19OpenColorIO_v2_4dev16XmlReaderElement19logParameterWarningEPKc(ptr noundef nonnull align 8 dereferenceable(80) %this, ptr noundef %51)
  br label %if.end69

if.end69:                                         ; preds = %if.then.i.i.i74, %if.end64, %if.else66
  %isDimFound.1 = phi i8 [ %isDimFound.0110, %if.else66 ], [ 1, %if.end64 ], [ 1, %if.then.i.i.i74 ]
  %add70 = add i32 %i.0109, 2
  %idxprom = zext i32 %add70 to i64
  %arrayidx = getelementptr inbounds ptr, ptr %atts, i64 %idxprom
  %52 = load ptr, ptr %arrayidx, align 8
  %tobool.not = icmp eq ptr %52, null
  br i1 %tobool.not, label %while.end, label %land.rhs, !llvm.loop !28

while.end:                                        ; preds = %land.rhs, %if.end69
  %isDimFound.0.lcssa.ph = phi i8 [ %isDimFound.0110, %land.rhs ], [ %isDimFound.1, %if.end69 ]
  %53 = and i8 %isDimFound.0.lcssa.ph, 1
  %54 = icmp eq i8 %53, 0
  br i1 %54, label %if.then72, label %if.end81

if.then72:                                        ; preds = %entry, %while.end
  call void @_ZNSaIcEC1Ev(ptr noundef nonnull align 1 dereferenceable(1) %ref.tmp74) #28
  invoke void @_ZNSt7__cxx1112basic_stringIcSt11char_traitsIcESaIcEEC1EPKcRKS3_(ptr noundef nonnull align 8 dereferenceable(32) %ref.tmp73, ptr noundef nonnull @.str.33, ptr noundef nonnull align 1 dereferenceable(1) %ref.tmp74)
          to label %invoke.cont76 unwind label %lpad75

invoke.cont76:                                    ; preds = %if.then72
  invoke void @_ZNK19OpenColorIO_v2_4dev16XmlReaderElement12throwMessageERKNSt7__cxx1112basic_stringIcSt11char_traitsIcESaIcEEE(ptr noundef nonnull align 8 dereferenceable(80) %this, ptr noundef nonnull align 8 dereferenceable(32) %ref.tmp73)
          to label %invoke.cont78 unwind label %lpad77

invoke.cont78:                                    ; preds = %invoke.cont76
  call void @_ZNSt7__cxx1112basic_stringIcSt11char_traitsIcESaIcEED1Ev(ptr noundef nonnull align 8 dereferenceable(32) %ref.tmp73) #28
  call void @_ZNSaIcED1Ev(ptr noundef nonnull align 1 dereferenceable(1) %ref.tmp74) #28
  br label %if.end81

lpad75:                                           ; preds = %if.then72
  %55 = landingpad { ptr, i32 }
          cleanup
  br label %ehcleanup80

lpad77:                                           ; preds = %invoke.cont76
  %56 = landingpad { ptr, i32 }
          cleanup
  call void @_ZNSt7__cxx1112basic_stringIcSt11char_traitsIcESaIcEED1Ev(ptr noundef nonnull align 8 dereferenceable(32) %ref.tmp73) #28
  br label %ehcleanup80

ehcleanup80:                                      ; preds = %lpad77, %lpad75
  %.pn = phi { ptr, i32 } [ %56, %lpad77 ], [ %55, %lpad75 ]
  %exn.slot.2 = extractvalue { ptr, i32 } %.pn, 0
  %ehselector.slot.2 = extractvalue { ptr, i32 } %.pn, 1
  call void @_ZNSaIcED1Ev(ptr noundef nonnull align 1 dereferenceable(1) %ref.tmp74) #28
  br label %eh.resume

if.end81:                                         ; preds = %invoke.cont78, %while.end
  %m_position = getelementptr inbounds %"class.OpenColorIO_v2_4dev::CTFReaderArrayElt", ptr %this, i64 0, i32 2
  store i32 0, ptr %m_position, align 8
  ret void

eh.resume:                                        ; preds = %if.then.i.i.i78, %ehcleanup65, %ehcleanup80
  %ehselector.slot.3 = phi i32 [ %ehselector.slot.2, %ehcleanup80 ], [ %ehselector.slot.1, %ehcleanup65 ], [ %ehselector.slot.1, %if.then.i.i.i78 ]
  %exn.slot.3 = phi ptr [ %exn.slot.2, %ehcleanup80 ], [ %exn.slot.1, %ehcleanup65 ], [ %exn.slot.1, %if.then.i.i.i78 ]
  %lpad.val = insertvalue { ptr, i32 } poison, ptr %exn.slot.3, 0
  %lpad.val84 = insertvalue { ptr, i32 } %lpad.val, i32 %ehselector.slot.3, 1
  resume { ptr, i32 } %lpad.val84

terminate.lpad:                                   ; preds = %ehcleanup
  %57 = landingpad { ptr, i32 }
          catch ptr null
  %58 = extractvalue { ptr, i32 } %57, 0
  call void @__clang_call_terminate(ptr %58) #31
  unreachable
}

; Function Attrs: mustprogress nofree nounwind willreturn memory(argmem: read)
declare i64 @strlen(ptr nocapture noundef) local_unnamed_addr #10

; Function Attrs: mustprogress uwtable
define linkonce_odr hidden void @_ZN19OpenColorIO_v2_4dev10GetNumbersIjEESt6vectorIT_SaIS2_EEPKcm(ptr noalias sret(%"class.std::vector.22") align 8 %agg.result, ptr noundef %str, i64 noundef %len) local_unnamed_addr #4 comdat personality ptr @__gxx_personality_v0 {
entry:
  %num = alloca i32, align 4
  tail call void @llvm.memset.p0.i64(ptr noundef nonnull align 8 dereferenceable(24) %agg.result, i8 0, i64 24, i1 false)
  %cmp.not.i.not = icmp eq i64 %len, 0
  br i1 %cmp.not.i.not, label %invoke.cont, label %while.cond.i

while.cond.i:                                     ; preds = %entry, %while.body.i
  %pos.addr.0.i = phi i64 [ %inc.i, %while.body.i ], [ 0, %entry ]
  %ptr.0.i = phi ptr [ %incdec.ptr.i, %while.body.i ], [ %str, %entry ]
  %0 = load i8, ptr %ptr.0.i, align 1
  switch i8 %0, label %invoke.cont [
    i8 32, label %while.body.i
    i8 13, label %while.body.i
    i8 11, label %while.body.i
    i8 10, label %while.body.i
    i8 9, label %while.body.i
    i8 12, label %while.body.i
    i8 44, label %while.body.i
  ]

while.body.i:                                     ; preds = %while.cond.i, %while.cond.i, %while.cond.i, %while.cond.i, %while.cond.i, %while.cond.i, %while.cond.i
  %incdec.ptr.i = getelementptr inbounds i8, ptr %ptr.0.i, i64 1
  %inc.i = add nuw i64 %pos.addr.0.i, 1
  %exitcond.not.i = icmp eq i64 %inc.i, %len
  br i1 %exitcond.not.i, label %nrvo.skipdtor, label %while.cond.i, !llvm.loop !29

invoke.cont:                                      ; preds = %while.cond.i, %entry
  %retval.0.i = phi i64 [ 0, %entry ], [ %pos.addr.0.i, %while.cond.i ]
  %cmp.not24 = icmp eq i64 %retval.0.i, %len
  br i1 %cmp.not24, label %nrvo.skipdtor, label %while.body.lr.ph

while.body.lr.ph:                                 ; preds = %invoke.cont
  %_M_finish.i = getelementptr inbounds %"struct.std::_Vector_base<unsigned int, std::allocator<unsigned int>>::_Vector_impl_data", ptr %agg.result, i64 0, i32 1
  %_M_end_of_storage.i = getelementptr inbounds %"struct.std::_Vector_base<unsigned int, std::allocator<unsigned int>>::_Vector_impl_data", ptr %agg.result, i64 0, i32 2
  br label %while.body

while.body:                                       ; preds = %while.body.lr.ph, %_ZNSt6vectorIjSaIjEE9push_backERKj.exit
  %1 = phi ptr [ null, %while.body.lr.ph ], [ %8, %_ZNSt6vectorIjSaIjEE9push_backERKj.exit ]
  %pos.026 = phi i64 [ %retval.0.i, %while.body.lr.ph ], [ %pos.1, %_ZNSt6vectorIjSaIjEE9push_backERKj.exit ]
  %cond.i10.i.i2325 = phi ptr [ null, %while.body.lr.ph ], [ %cond.i10.i.i22, %_ZNSt6vectorIjSaIjEE9push_backERKj.exit ]
  store i32 0, ptr %num, align 4
  %cmp.not.i.i = icmp ult i64 %pos.026, %len
  br i1 %cmp.not.i.i, label %if.end.i.i, label %invoke.cont1

if.end.i.i:                                       ; preds = %while.body
  %add.ptr.i.i = getelementptr inbounds i8, ptr %str, i64 %pos.026
  br label %while.cond.i.i

while.cond.i.i:                                   ; preds = %while.body.i.i, %if.end.i.i
  %pos.addr.0.i.i = phi i64 [ %pos.026, %if.end.i.i ], [ %inc.i.i, %while.body.i.i ]
  %ptr.0.i.i = phi ptr [ %add.ptr.i.i, %if.end.i.i ], [ %incdec.ptr.i.i, %while.body.i.i ]
  %2 = load i8, ptr %ptr.0.i.i, align 1
  switch i8 %2, label %_ZN19OpenColorIO_v2_4dev18FindNextTokenStartEPKcmm.exit.i [
    i8 32, label %while.body.i.i
    i8 13, label %while.body.i.i
    i8 11, label %while.body.i.i
    i8 10, label %while.body.i.i
    i8 9, label %while.body.i.i
    i8 12, label %while.body.i.i
    i8 44, label %while.body.i.i
  ]

while.body.i.i:                                   ; preds = %while.cond.i.i, %while.cond.i.i, %while.cond.i.i, %while.cond.i.i, %while.cond.i.i, %while.cond.i.i, %while.cond.i.i
  %incdec.ptr.i.i = getelementptr inbounds i8, ptr %ptr.0.i.i, i64 1
  %inc.i.i = add i64 %pos.addr.0.i.i, 1
  %exitcond.not.i.i = icmp eq i64 %inc.i.i, %len
  br i1 %exitcond.not.i.i, label %invoke.cont1, label %while.cond.i.i, !llvm.loop !29

_ZN19OpenColorIO_v2_4dev18FindNextTokenStartEPKcmm.exit.i: ; preds = %while.cond.i.i
  %cmp.not.i4 = icmp eq i64 %pos.addr.0.i.i, %len
  br i1 %cmp.not.i4, label %invoke.cont1, label %if.then.i

if.then.i:                                        ; preds = %_ZN19OpenColorIO_v2_4dev18FindNextTokenStartEPKcmm.exit.i
  %cmp.not.i17.i = icmp ult i64 %pos.addr.0.i.i, %len
  br i1 %cmp.not.i17.i, label %if.end.i19.i, label %_ZN19OpenColorIO_v2_4dev9FindDelimEPKcmm.exit.thread.i

if.end.i19.i:                                     ; preds = %if.then.i
  %add.ptr.i20.i = getelementptr inbounds i8, ptr %str, i64 %pos.addr.0.i.i
  br label %while.cond.i21.i

while.cond.i21.i:                                 ; preds = %while.body.i24.i, %if.end.i19.i
  %pos.addr.0.i22.i = phi i64 [ %pos.addr.0.i.i, %if.end.i19.i ], [ %inc.i26.i, %while.body.i24.i ]
  %ptr.0.i23.i = phi ptr [ %add.ptr.i20.i, %if.end.i19.i ], [ %incdec.ptr.i25.i, %while.body.i24.i ]
  %3 = load i8, ptr %ptr.0.i23.i, align 1
  switch i8 %3, label %while.body.i24.i [
    i8 32, label %_ZN19OpenColorIO_v2_4dev9FindDelimEPKcmm.exit.i
    i8 13, label %_ZN19OpenColorIO_v2_4dev9FindDelimEPKcmm.exit.i
    i8 11, label %_ZN19OpenColorIO_v2_4dev9FindDelimEPKcmm.exit.i
    i8 10, label %_ZN19OpenColorIO_v2_4dev9FindDelimEPKcmm.exit.i
    i8 9, label %_ZN19OpenColorIO_v2_4dev9FindDelimEPKcmm.exit.i
    i8 12, label %_ZN19OpenColorIO_v2_4dev9FindDelimEPKcmm.exit.i
    i8 44, label %_ZN19OpenColorIO_v2_4dev9FindDelimEPKcmm.exit.i
  ]

while.body.i24.i:                                 ; preds = %while.cond.i21.i
  %incdec.ptr.i25.i = getelementptr inbounds i8, ptr %ptr.0.i23.i, i64 1
  %inc.i26.i = add i64 %pos.addr.0.i22.i, 1
  %exitcond.not.i27.i = icmp eq i64 %inc.i26.i, %len
  br i1 %exitcond.not.i27.i, label %_ZN19OpenColorIO_v2_4dev9FindDelimEPKcmm.exit.thread.i, label %while.cond.i21.i, !llvm.loop !30

_ZN19OpenColorIO_v2_4dev9FindDelimEPKcmm.exit.thread.i: ; preds = %while.body.i24.i, %if.then.i
  invoke void @_ZN19OpenColorIO_v2_4dev11ParseNumberIjEEvPKcmmRT_(ptr noundef %str, i64 noundef %pos.addr.0.i.i, i64 noundef %len, ptr noundef nonnull align 4 dereferenceable(4) %num)
          to label %invoke.cont1 unwind label %lpad.loopexit

_ZN19OpenColorIO_v2_4dev9FindDelimEPKcmm.exit.i:  ; preds = %while.cond.i21.i, %while.cond.i21.i, %while.cond.i21.i, %while.cond.i21.i, %while.cond.i21.i, %while.cond.i21.i, %while.cond.i21.i
  invoke void @_ZN19OpenColorIO_v2_4dev11ParseNumberIjEEvPKcmmRT_(ptr noundef %str, i64 noundef %pos.addr.0.i.i, i64 noundef %pos.addr.0.i22.i, ptr noundef nonnull align 4 dereferenceable(4) %num)
          to label %.noexc5 unwind label %lpad.loopexit

.noexc5:                                          ; preds = %_ZN19OpenColorIO_v2_4dev9FindDelimEPKcmm.exit.i
  %cmp.not.i28.i = icmp ult i64 %pos.addr.0.i22.i, %len
  br i1 %cmp.not.i28.i, label %if.end.i30.i, label %invoke.cont1

if.end.i30.i:                                     ; preds = %.noexc5
  %add.ptr.i31.i = getelementptr inbounds i8, ptr %str, i64 %pos.addr.0.i22.i
  br label %while.cond.i32.i

while.cond.i32.i:                                 ; preds = %while.body.i35.i, %if.end.i30.i
  %pos.addr.0.i33.i = phi i64 [ %pos.addr.0.i22.i, %if.end.i30.i ], [ %inc.i37.i, %while.body.i35.i ]
  %ptr.0.i34.i = phi ptr [ %add.ptr.i31.i, %if.end.i30.i ], [ %incdec.ptr.i36.i, %while.body.i35.i ]
  %4 = load i8, ptr %ptr.0.i34.i, align 1
  switch i8 %4, label %invoke.cont1 [
    i8 32, label %while.body.i35.i
    i8 13, label %while.body.i35.i
    i8 11, label %while.body.i35.i
    i8 10, label %while.body.i35.i
    i8 9, label %while.body.i35.i
    i8 12, label %while.body.i35.i
    i8 44, label %while.body.i35.i
  ]

while.body.i35.i:                                 ; preds = %while.cond.i32.i, %while.cond.i32.i, %while.cond.i32.i, %while.cond.i32.i, %while.cond.i32.i, %while.cond.i32.i, %while.cond.i32.i
  %incdec.ptr.i36.i = getelementptr inbounds i8, ptr %ptr.0.i34.i, i64 1
  %inc.i37.i = add i64 %pos.addr.0.i33.i, 1
  %exitcond.not.i38.i = icmp eq i64 %inc.i37.i, %len
  br i1 %exitcond.not.i38.i, label %invoke.cont1, label %while.cond.i32.i, !llvm.loop !29

invoke.cont1:                                     ; preds = %while.body.i.i, %while.body.i35.i, %while.cond.i32.i, %.noexc5, %_ZN19OpenColorIO_v2_4dev18FindNextTokenStartEPKcmm.exit.i, %_ZN19OpenColorIO_v2_4dev9FindDelimEPKcmm.exit.thread.i, %while.body
  %pos.1 = phi i64 [ %len, %_ZN19OpenColorIO_v2_4dev18FindNextTokenStartEPKcmm.exit.i ], [ %len, %.noexc5 ], [ %len, %while.body ], [ %len, %_ZN19OpenColorIO_v2_4dev9FindDelimEPKcmm.exit.thread.i ], [ %pos.addr.0.i33.i, %while.cond.i32.i ], [ %len, %while.body.i35.i ], [ %len, %while.body.i.i ]
  %5 = load ptr, ptr %_M_end_of_storage.i, align 8
  %cmp.not.i6 = icmp eq ptr %1, %5
  br i1 %cmp.not.i6, label %if.else.i, label %if.then.i7

if.then.i7:                                       ; preds = %invoke.cont1
  %6 = load i32, ptr %num, align 4
  store i32 %6, ptr %1, align 4
  %incdec.ptr.i8 = getelementptr inbounds i32, ptr %1, i64 1
  store ptr %incdec.ptr.i8, ptr %_M_finish.i, align 8
  br label %_ZNSt6vectorIjSaIjEE9push_backERKj.exit

if.else.i:                                        ; preds = %invoke.cont1
  %sub.ptr.lhs.cast.i.i.i.i = ptrtoint ptr %1 to i64
  %sub.ptr.rhs.cast.i.i.i.i = ptrtoint ptr %cond.i10.i.i2325 to i64
  %sub.ptr.sub.i.i.i.i = sub i64 %sub.ptr.lhs.cast.i.i.i.i, %sub.ptr.rhs.cast.i.i.i.i
  %cmp.i.i.i = icmp eq i64 %sub.ptr.sub.i.i.i.i, 9223372036854775804
  br i1 %cmp.i.i.i, label %if.then.i.i.i, label %_ZNKSt6vectorIjSaIjEE12_M_check_lenEmPKc.exit.i.i

if.then.i.i.i:                                    ; preds = %if.else.i
  invoke void @_ZSt20__throw_length_errorPKc(ptr noundef nonnull @.str.186) #33
          to label %.noexc12 unwind label %lpad.loopexit.split-lp

.noexc12:                                         ; preds = %if.then.i.i.i
  unreachable

_ZNKSt6vectorIjSaIjEE12_M_check_lenEmPKc.exit.i.i: ; preds = %if.else.i
  %sub.ptr.div.i.i.i.i = ashr exact i64 %sub.ptr.sub.i.i.i.i, 2
  %.sroa.speculated.i.i.i = call i64 @llvm.umax.i64(i64 %sub.ptr.div.i.i.i.i, i64 1)
  %add.i.i.i = add i64 %.sroa.speculated.i.i.i, %sub.ptr.div.i.i.i.i
  %cmp7.i.i.i = icmp ult i64 %add.i.i.i, %sub.ptr.div.i.i.i.i
  %cmp9.i.i.i = icmp ugt i64 %add.i.i.i, 2305843009213693951
  %or.cond.i.i.i = or i1 %cmp7.i.i.i, %cmp9.i.i.i
  %cond.i.i.i = select i1 %or.cond.i.i.i, i64 2305843009213693951, i64 %add.i.i.i
  %cmp.not.i.i.i = icmp eq i64 %cond.i.i.i, 0
  br i1 %cmp.not.i.i.i, label %_ZNSt12_Vector_baseIjSaIjEE11_M_allocateEm.exit.i.i, label %_ZNSt16allocator_traitsISaIjEE8allocateERS0_m.exit.i.i.i

_ZNSt16allocator_traitsISaIjEE8allocateERS0_m.exit.i.i.i: ; preds = %_ZNKSt6vectorIjSaIjEE12_M_check_lenEmPKc.exit.i.i
  %mul.i.i.i.i.i = shl nuw nsw i64 %cond.i.i.i, 2
  %call5.i.i.i.i.i13 = invoke noalias noundef nonnull ptr @_Znwm(i64 noundef %mul.i.i.i.i.i) #29
          to label %_ZNSt12_Vector_baseIjSaIjEE11_M_allocateEm.exit.i.i unwind label %lpad.loopexit

_ZNSt12_Vector_baseIjSaIjEE11_M_allocateEm.exit.i.i: ; preds = %_ZNSt16allocator_traitsISaIjEE8allocateERS0_m.exit.i.i.i, %_ZNKSt6vectorIjSaIjEE12_M_check_lenEmPKc.exit.i.i
  %cond.i10.i.i = phi ptr [ null, %_ZNKSt6vectorIjSaIjEE12_M_check_lenEmPKc.exit.i.i ], [ %call5.i.i.i.i.i13, %_ZNSt16allocator_traitsISaIjEE8allocateERS0_m.exit.i.i.i ]
  %add.ptr.i.i10 = getelementptr inbounds i32, ptr %cond.i10.i.i, i64 %sub.ptr.div.i.i.i.i
  %7 = load i32, ptr %num, align 4
  store i32 %7, ptr %add.ptr.i.i10, align 4
  %cmp.i.i.i.i.i.i = icmp sgt i64 %sub.ptr.sub.i.i.i.i, 0
  br i1 %cmp.i.i.i.i.i.i, label %if.then.i.i.i.i.i.i, label %_ZNSt6vectorIjSaIjEE11_S_relocateEPjS2_S2_RS0_.exit17.i.i

if.then.i.i.i.i.i.i:                              ; preds = %_ZNSt12_Vector_baseIjSaIjEE11_M_allocateEm.exit.i.i
  call void @llvm.memmove.p0.p0.i64(ptr nonnull align 4 %cond.i10.i.i, ptr align 4 %cond.i10.i.i2325, i64 %sub.ptr.sub.i.i.i.i, i1 false)
  br label %_ZNSt6vectorIjSaIjEE11_S_relocateEPjS2_S2_RS0_.exit17.i.i

_ZNSt6vectorIjSaIjEE11_S_relocateEPjS2_S2_RS0_.exit17.i.i: ; preds = %if.then.i.i.i.i.i.i, %_ZNSt12_Vector_baseIjSaIjEE11_M_allocateEm.exit.i.i
  %add.ptr.i.i.i.i.i.i = getelementptr inbounds i8, ptr %cond.i10.i.i, i64 %sub.ptr.sub.i.i.i.i
  %incdec.ptr.i.i11 = getelementptr inbounds i32, ptr %add.ptr.i.i.i.i.i.i, i64 1
  %tobool.not.i.i.i = icmp eq ptr %cond.i10.i.i2325, null
  br i1 %tobool.not.i.i.i, label %_ZNSt6vectorIjSaIjEE17_M_realloc_insertIJRKjEEEvN9__gnu_cxx17__normal_iteratorIPjS1_EEDpOT_.exit.i, label %if.then.i18.i.i

if.then.i18.i.i:                                  ; preds = %_ZNSt6vectorIjSaIjEE11_S_relocateEPjS2_S2_RS0_.exit17.i.i
  call void @_ZdlPv(ptr noundef nonnull %cond.i10.i.i2325) #30
  br label %_ZNSt6vectorIjSaIjEE17_M_realloc_insertIJRKjEEEvN9__gnu_cxx17__normal_iteratorIPjS1_EEDpOT_.exit.i

_ZNSt6vectorIjSaIjEE17_M_realloc_insertIJRKjEEEvN9__gnu_cxx17__normal_iteratorIPjS1_EEDpOT_.exit.i: ; preds = %if.then.i18.i.i, %_ZNSt6vectorIjSaIjEE11_S_relocateEPjS2_S2_RS0_.exit17.i.i
  store ptr %cond.i10.i.i, ptr %agg.result, align 8
  store ptr %incdec.ptr.i.i11, ptr %_M_finish.i, align 8
  %add.ptr19.i.i = getelementptr inbounds i32, ptr %cond.i10.i.i, i64 %cond.i.i.i
  store ptr %add.ptr19.i.i, ptr %_M_end_of_storage.i, align 8
  br label %_ZNSt6vectorIjSaIjEE9push_backERKj.exit

_ZNSt6vectorIjSaIjEE9push_backERKj.exit:          ; preds = %if.then.i7, %_ZNSt6vectorIjSaIjEE17_M_realloc_insertIJRKjEEEvN9__gnu_cxx17__normal_iteratorIPjS1_EEDpOT_.exit.i
  %8 = phi ptr [ %incdec.ptr.i8, %if.then.i7 ], [ %incdec.ptr.i.i11, %_ZNSt6vectorIjSaIjEE17_M_realloc_insertIJRKjEEEvN9__gnu_cxx17__normal_iteratorIPjS1_EEDpOT_.exit.i ]
  %cond.i10.i.i22 = phi ptr [ %cond.i10.i.i2325, %if.then.i7 ], [ %cond.i10.i.i, %_ZNSt6vectorIjSaIjEE17_M_realloc_insertIJRKjEEEvN9__gnu_cxx17__normal_iteratorIPjS1_EEDpOT_.exit.i ]
  %cmp.not = icmp eq i64 %pos.1, %len
  br i1 %cmp.not, label %nrvo.skipdtor, label %while.body

lpad.loopexit:                                    ; preds = %_ZN19OpenColorIO_v2_4dev9FindDelimEPKcmm.exit.thread.i, %_ZN19OpenColorIO_v2_4dev9FindDelimEPKcmm.exit.i, %_ZNSt16allocator_traitsISaIjEE8allocateERS0_m.exit.i.i.i
  %lpad.loopexit18 = landingpad { ptr, i32 }
          cleanup
  br label %lpad

lpad.loopexit.split-lp:                           ; preds = %if.then.i.i.i
  %lpad.loopexit.split-lp19 = landingpad { ptr, i32 }
          cleanup
  br label %lpad

lpad:                                             ; preds = %lpad.loopexit.split-lp, %lpad.loopexit
  %lpad.phi = phi { ptr, i32 } [ %lpad.loopexit18, %lpad.loopexit ], [ %lpad.loopexit.split-lp19, %lpad.loopexit.split-lp ]
  %9 = load ptr, ptr %agg.result, align 8
  %tobool.not.i.i.i14 = icmp eq ptr %9, null
  br i1 %tobool.not.i.i.i14, label %_ZNSt6vectorIjSaIjEED2Ev.exit, label %if.then.i.i.i15

if.then.i.i.i15:                                  ; preds = %lpad
  call void @_ZdlPv(ptr noundef nonnull %9) #30
  br label %_ZNSt6vectorIjSaIjEED2Ev.exit

_ZNSt6vectorIjSaIjEED2Ev.exit:                    ; preds = %lpad, %if.then.i.i.i15
  resume { ptr, i32 } %lpad.phi

nrvo.skipdtor:                                    ; preds = %while.body.i, %_ZNSt6vectorIjSaIjEE9push_backERKj.exit, %invoke.cont
  ret void
}

; Function Attrs: mustprogress uwtable
define internal fastcc void @_ZN19OpenColorIO_v2_4dev12_GLOBAL__N_16ThrowMIA10_cJPKcS4_NSt7__cxx1112basic_stringIcSt11char_traitsIcESaIcEEES4_EEEvRKNS_16XmlReaderElementERKT_DpT0_(ptr noundef nonnull align 8 dereferenceable(80) %elt, ptr noundef %r, ptr noundef %r1, ptr noundef %r3) unnamed_addr #4 personality ptr @__gxx_personality_v0 {
entry:
  %agg.tmp.i.i = alloca %"class.std::__cxx11::basic_string", align 8
  %agg.tmp.i = alloca %"class.std::__cxx11::basic_string", align 8
  %oss = alloca %"class.std::__cxx11::basic_ostringstream", align 8
  %agg.tmp = alloca %"class.std::__cxx11::basic_string", align 8
  %ref.tmp = alloca %"class.std::__cxx11::basic_string", align 8
  call void @_ZNSt7__cxx1119basic_ostringstreamIcSt11char_traitsIcESaIcEEC1Ev(ptr noundef nonnull align 8 dereferenceable(112) %oss)
  invoke void @_ZNSt7__cxx1112basic_stringIcSt11char_traitsIcESaIcEEC1ERKS4_(ptr noundef nonnull align 8 dereferenceable(32) %agg.tmp, ptr noundef nonnull align 8 dereferenceable(32) %r3)
          to label %invoke.cont unwind label %lpad

invoke.cont:                                      ; preds = %entry
  call void @llvm.lifetime.start.p0(i64 32, ptr nonnull %agg.tmp.i)
  %call.i.i2 = invoke noundef nonnull align 8 dereferenceable(8) ptr @_ZStlsISt11char_traitsIcEERSt13basic_ostreamIcT_ES5_PKc(ptr noundef nonnull align 8 dereferenceable(8) %oss, ptr noundef nonnull @.str.25)
          to label %call.i.i.noexc unwind label %lpad6

call.i.i.noexc:                                   ; preds = %invoke.cont
  invoke void @_ZNSt7__cxx1112basic_stringIcSt11char_traitsIcESaIcEEC1ERKS4_(ptr noundef nonnull align 8 dereferenceable(32) %agg.tmp.i, ptr noundef nonnull align 8 dereferenceable(32) %agg.tmp)
          to label %.noexc unwind label %lpad6

.noexc:                                           ; preds = %call.i.i.noexc
  call void @llvm.lifetime.start.p0(i64 32, ptr nonnull %agg.tmp.i.i)
  %call.i.i2.i = invoke noundef nonnull align 8 dereferenceable(8) ptr @_ZStlsISt11char_traitsIcEERSt13basic_ostreamIcT_ES5_PKc(ptr noundef nonnull align 8 dereferenceable(8) %oss, ptr noundef %r)
          to label %call.i.i.noexc.i unwind label %lpad.i

call.i.i.noexc.i:                                 ; preds = %.noexc
  invoke void @_ZNSt7__cxx1112basic_stringIcSt11char_traitsIcESaIcEEC1ERKS4_(ptr noundef nonnull align 8 dereferenceable(32) %agg.tmp.i.i, ptr noundef nonnull align 8 dereferenceable(32) %agg.tmp.i)
          to label %.noexc.i unwind label %lpad.i

.noexc.i:                                         ; preds = %call.i.i.noexc.i
  %call.i.i2.i.i = invoke noundef nonnull align 8 dereferenceable(8) ptr @_ZStlsISt11char_traitsIcEERSt13basic_ostreamIcT_ES5_PKc(ptr noundef nonnull align 8 dereferenceable(8) %oss, ptr noundef %r1)
          to label %call.i.i.noexc.i.i unwind label %lpad.i.i

call.i.i.noexc.i.i:                               ; preds = %.noexc.i
  %call.i.i.i3.i.i = invoke noundef nonnull align 8 dereferenceable(8) ptr @_ZStlsIcSt11char_traitsIcESaIcEERSt13basic_ostreamIT_T0_ES7_RKNSt7__cxx1112basic_stringIS4_S5_T1_EE(ptr noundef nonnull align 8 dereferenceable(8) %oss, ptr noundef nonnull align 8 dereferenceable(32) %agg.tmp.i.i)
          to label %call.i.i.i.noexc.i.i unwind label %lpad.i.i

call.i.i.i.noexc.i.i:                             ; preds = %call.i.i.noexc.i.i
  %call.i2.i.i4.i.i = invoke noundef nonnull align 8 dereferenceable(8) ptr @_ZStlsISt11char_traitsIcEERSt13basic_ostreamIcT_ES5_PKc(ptr noundef nonnull align 8 dereferenceable(8) %oss, ptr noundef nonnull @.str.27)
          to label %invoke.cont7 unwind label %lpad.i.i

lpad.i.i:                                         ; preds = %call.i.i.i.noexc.i.i, %call.i.i.noexc.i.i, %.noexc.i
  %0 = landingpad { ptr, i32 }
          cleanup
  call void @_ZNSt7__cxx1112basic_stringIcSt11char_traitsIcESaIcEED1Ev(ptr noundef nonnull align 8 dereferenceable(32) %agg.tmp.i.i) #28
  br label %lpad.body.i

lpad.i:                                           ; preds = %call.i.i.noexc.i, %.noexc
  %1 = landingpad { ptr, i32 }
          cleanup
  br label %lpad.body.i

lpad.body.i:                                      ; preds = %lpad.i, %lpad.i.i
  %eh.lpad-body.i = phi { ptr, i32 } [ %1, %lpad.i ], [ %0, %lpad.i.i ]
  call void @_ZNSt7__cxx1112basic_stringIcSt11char_traitsIcESaIcEED1Ev(ptr noundef nonnull align 8 dereferenceable(32) %agg.tmp.i) #28
  br label %lpad6.body

invoke.cont7:                                     ; preds = %call.i.i.i.noexc.i.i
  call void @_ZNSt7__cxx1112basic_stringIcSt11char_traitsIcESaIcEED1Ev(ptr noundef nonnull align 8 dereferenceable(32) %agg.tmp.i.i) #28
  call void @llvm.lifetime.end.p0(i64 32, ptr nonnull %agg.tmp.i.i)
  call void @_ZNSt7__cxx1112basic_stringIcSt11char_traitsIcESaIcEED1Ev(ptr noundef nonnull align 8 dereferenceable(32) %agg.tmp.i) #28
  call void @llvm.lifetime.end.p0(i64 32, ptr nonnull %agg.tmp.i)
  call void @_ZNSt7__cxx1112basic_stringIcSt11char_traitsIcESaIcEED1Ev(ptr noundef nonnull align 8 dereferenceable(32) %agg.tmp) #28
  invoke void @_ZNKSt7__cxx1119basic_ostringstreamIcSt11char_traitsIcESaIcEE3strEv(ptr nonnull sret(%"class.std::__cxx11::basic_string") align 8 %ref.tmp, ptr noundef nonnull align 8 dereferenceable(112) %oss)
          to label %invoke.cont8 unwind label %lpad

invoke.cont8:                                     ; preds = %invoke.cont7
  invoke void @_ZNK19OpenColorIO_v2_4dev16XmlReaderElement12throwMessageERKNSt7__cxx1112basic_stringIcSt11char_traitsIcESaIcEEE(ptr noundef nonnull align 8 dereferenceable(80) %elt, ptr noundef nonnull align 8 dereferenceable(32) %ref.tmp)
          to label %invoke.cont10 unwind label %lpad9

invoke.cont10:                                    ; preds = %invoke.cont8
  call void @_ZNSt7__cxx1112basic_stringIcSt11char_traitsIcESaIcEED1Ev(ptr noundef nonnull align 8 dereferenceable(32) %ref.tmp) #28
  call void @_ZNSt7__cxx1119basic_ostringstreamIcSt11char_traitsIcESaIcEED1Ev(ptr noundef nonnull align 8 dereferenceable(112) %oss) #28
  ret void

lpad:                                             ; preds = %invoke.cont7, %entry
  %2 = landingpad { ptr, i32 }
          cleanup
  br label %ehcleanup

lpad6:                                            ; preds = %call.i.i.noexc, %invoke.cont
  %3 = landingpad { ptr, i32 }
          cleanup
  br label %lpad6.body

lpad6.body:                                       ; preds = %lpad.body.i, %lpad6
  %eh.lpad-body = phi { ptr, i32 } [ %3, %lpad6 ], [ %eh.lpad-body.i, %lpad.body.i ]
  call void @_ZNSt7__cxx1112basic_stringIcSt11char_traitsIcESaIcEED1Ev(ptr noundef nonnull align 8 dereferenceable(32) %agg.tmp) #28
  br label %ehcleanup

lpad9:                                            ; preds = %invoke.cont8
  %4 = landingpad { ptr, i32 }
          cleanup
  call void @_ZNSt7__cxx1112basic_stringIcSt11char_traitsIcESaIcEED1Ev(ptr noundef nonnull align 8 dereferenceable(32) %ref.tmp) #28
  br label %ehcleanup

ehcleanup:                                        ; preds = %lpad9, %lpad6.body, %lpad
  %.pn = phi { ptr, i32 } [ %4, %lpad9 ], [ %2, %lpad ], [ %eh.lpad-body, %lpad6.body ]
  call void @_ZNSt7__cxx1119basic_ostringstreamIcSt11char_traitsIcESaIcEED1Ev(ptr noundef nonnull align 8 dereferenceable(112) %oss) #28
  resume { ptr, i32 } %.pn
}

; Function Attrs: mustprogress uwtable
define linkonce_odr hidden void @_ZN19OpenColorIO_v2_4dev14TruncateStringB5cxx11EPKcm(ptr noalias sret(%"class.std::__cxx11::basic_string") align 8 %agg.result, ptr noundef %pStr, i64 noundef %len) local_unnamed_addr #4 comdat personality ptr @__gxx_personality_v0 {
entry:
  %ref.tmp.i = alloca %"class.std::allocator", align 1
  call void @llvm.lifetime.start.p0(i64 1, ptr nonnull %ref.tmp.i)
  %cond.i = tail call i64 @llvm.umin.i64(i64 %len, i64 17)
  call void @_ZNSaIcEC1Ev(ptr noundef nonnull align 1 dereferenceable(1) %ref.tmp.i) #28, !noalias !31
  invoke void @_ZNSt7__cxx1112basic_stringIcSt11char_traitsIcESaIcEEC1EPKcmRKS3_(ptr noundef nonnull align 8 dereferenceable(32) %agg.result, ptr noundef %pStr, i64 noundef %cond.i, ptr noundef nonnull align 1 dereferenceable(1) %ref.tmp.i)
          to label %_ZN19OpenColorIO_v2_4dev14TruncateStringB5cxx11EPKcmm.exit unwind label %lpad.i

lpad.i:                                           ; preds = %entry
  %0 = landingpad { ptr, i32 }
          cleanup
  call void @_ZNSaIcED1Ev(ptr noundef nonnull align 1 dereferenceable(1) %ref.tmp.i) #28
  resume { ptr, i32 } %0

_ZN19OpenColorIO_v2_4dev14TruncateStringB5cxx11EPKcmm.exit: ; preds = %entry
  call void @_ZNSaIcED1Ev(ptr noundef nonnull align 1 dereferenceable(1) %ref.tmp.i) #28
  call void @llvm.lifetime.end.p0(i64 1, ptr nonnull %ref.tmp.i)
  ret void
}

; Function Attrs: nofree nounwind memory(read)
declare ptr @__dynamic_cast(ptr, ptr, ptr, i64) local_unnamed_addr #11

; Function Attrs: mustprogress uwtable
define hidden void @_ZN19OpenColorIO_v2_4dev17CTFReaderArrayElt3endEv(ptr nocapture noundef nonnull readonly align 8 dereferenceable(108) %this) unnamed_addr #4 align 2 {
entry:
  %m_parent.i = getelementptr inbounds %"class.OpenColorIO_v2_4dev::XmlReaderPlainElt", ptr %this, i64 0, i32 1
  %0 = load ptr, ptr %m_parent.i, align 8
  %vtable = load ptr, ptr %0, align 8
  %vfn = getelementptr inbounds ptr, ptr %vtable, i64 7
  %1 = load ptr, ptr %vfn, align 8
  %call3 = tail call noundef zeroext i1 %1(ptr noundef nonnull align 8 dereferenceable(80) %0)
  br i1 %call3, label %return, label %if.end

if.end:                                           ; preds = %entry
  %2 = load ptr, ptr %m_parent.i, align 8, !nonnull !34, !noundef !34
  %3 = tail call ptr @__dynamic_cast(ptr nonnull %2, ptr nonnull @_ZTIN19OpenColorIO_v2_4dev21XmlReaderContainerEltE, ptr nonnull @_ZTIN19OpenColorIO_v2_4dev11CTFArrayMgtE, i64 -2) #28
  %m_position = getelementptr inbounds %"class.OpenColorIO_v2_4dev::CTFReaderArrayElt", ptr %this, i64 0, i32 2
  %4 = load i32, ptr %m_position, align 8
  %vtable6 = load ptr, ptr %3, align 8
  %vfn7 = getelementptr inbounds ptr, ptr %vtable6, i64 4
  %5 = load ptr, ptr %vfn7, align 8
  tail call void %5(ptr noundef nonnull align 8 dereferenceable(9) %3, i32 noundef %4)
  br label %return

return:                                           ; preds = %entry, %if.end
  ret void
}

; Function Attrs: mustprogress uwtable
define hidden void @_ZN19OpenColorIO_v2_4dev17CTFReaderArrayElt10setRawDataEPKcmj(ptr noundef nonnull align 8 dereferenceable(108) %this, ptr noundef %s, i64 noundef %len, i32 %0) unnamed_addr #4 align 2 personality ptr @__gxx_personality_v0 {
entry:
  %oss.i = alloca %"class.std::__cxx11::basic_ostringstream", align 8
  %agg.tmp.i = alloca %"class.std::__cxx11::basic_string", align 8
  %ref.tmp.i = alloca %"class.std::__cxx11::basic_string", align 8
  %data = alloca double, align 8
  %agg.tmp = alloca %"class.std::__cxx11::basic_string", align 8
  %arg = alloca %"class.std::__cxx11::basic_ostringstream", align 8
  %ref.tmp = alloca %"class.std::shared_ptr.27", align 8
  %ref.tmp50 = alloca %"class.std::shared_ptr.27", align 8
  %agg.tmp115 = alloca %"class.std::__cxx11::basic_string", align 8
  %m_array = getelementptr inbounds %"class.OpenColorIO_v2_4dev::CTFReaderArrayElt", ptr %this, i64 0, i32 1
  %1 = load ptr, ptr %m_array, align 8
  %vtable = load ptr, ptr %1, align 8
  %vfn = getelementptr inbounds ptr, ptr %vtable, i64 6
  %2 = load ptr, ptr %vfn, align 8
  %call = tail call noundef i64 %2(ptr noundef nonnull align 8 dereferenceable(8) %1)
  %cmp.not.i.not = icmp eq i64 %len, 0
  br i1 %cmp.not.i.not, label %_ZN19OpenColorIO_v2_4dev18FindNextTokenStartEPKcmm.exit, label %while.cond.i

while.cond.i:                                     ; preds = %entry, %while.body.i
  %pos.addr.0.i = phi i64 [ %inc.i, %while.body.i ], [ 0, %entry ]
  %ptr.0.i = phi ptr [ %incdec.ptr.i, %while.body.i ], [ %s, %entry ]
  %3 = load i8, ptr %ptr.0.i, align 1
  switch i8 %3, label %_ZN19OpenColorIO_v2_4dev18FindNextTokenStartEPKcmm.exit [
    i8 32, label %while.body.i
    i8 13, label %while.body.i
    i8 11, label %while.body.i
    i8 10, label %while.body.i
    i8 9, label %while.body.i
    i8 12, label %while.body.i
    i8 44, label %while.body.i
  ]

while.body.i:                                     ; preds = %while.cond.i, %while.cond.i, %while.cond.i, %while.cond.i, %while.cond.i, %while.cond.i, %while.cond.i
  %incdec.ptr.i = getelementptr inbounds i8, ptr %ptr.0.i, i64 1
  %inc.i = add nuw i64 %pos.addr.0.i, 1
  %exitcond.not.i = icmp eq i64 %inc.i, %len
  br i1 %exitcond.not.i, label %while.end, label %while.cond.i, !llvm.loop !29

_ZN19OpenColorIO_v2_4dev18FindNextTokenStartEPKcmm.exit: ; preds = %while.cond.i, %entry
  %retval.0.i = phi i64 [ 0, %entry ], [ %pos.addr.0.i, %while.cond.i ]
  %cmp.not52 = icmp eq i64 %retval.0.i, %len
  br i1 %cmp.not52, label %while.end, label %while.body.lr.ph

while.body.lr.ph:                                 ; preds = %_ZN19OpenColorIO_v2_4dev18FindNextTokenStartEPKcmm.exit
  %m_position = getelementptr inbounds %"class.OpenColorIO_v2_4dev::CTFReaderArrayElt", ptr %this, i64 0, i32 2
  %m_parent.i = getelementptr inbounds %"class.OpenColorIO_v2_4dev::XmlReaderPlainElt", ptr %this, i64 0, i32 1
  %_M_refcount.i.i = getelementptr inbounds %"class.std::__shared_ptr.28", ptr %ref.tmp, i64 0, i32 1
  %_M_refcount.i.i13 = getelementptr inbounds %"class.std::__shared_ptr.28", ptr %ref.tmp50, i64 0, i32 1
  br label %while.body

while.body:                                       ; preds = %while.body.lr.ph, %if.end125
  %pos.053 = phi i64 [ %retval.0.i, %while.body.lr.ph ], [ %pos.2, %if.end125 ]
  store double 0.000000e+00, ptr %data, align 8
  %cmp.not.i.i = icmp ult i64 %pos.053, %len
  br i1 %cmp.not.i.i, label %if.end.i.i, label %try.cont

if.end.i.i:                                       ; preds = %while.body
  %add.ptr.i.i = getelementptr inbounds i8, ptr %s, i64 %pos.053
  br label %while.cond.i.i

while.cond.i.i:                                   ; preds = %while.body.i.i, %if.end.i.i
  %pos.addr.0.i.i = phi i64 [ %pos.053, %if.end.i.i ], [ %inc.i.i, %while.body.i.i ]
  %ptr.0.i.i = phi ptr [ %add.ptr.i.i, %if.end.i.i ], [ %incdec.ptr.i.i, %while.body.i.i ]
  %4 = load i8, ptr %ptr.0.i.i, align 1
  switch i8 %4, label %_ZN19OpenColorIO_v2_4dev18FindNextTokenStartEPKcmm.exit.i [
    i8 32, label %while.body.i.i
    i8 13, label %while.body.i.i
    i8 11, label %while.body.i.i
    i8 10, label %while.body.i.i
    i8 9, label %while.body.i.i
    i8 12, label %while.body.i.i
    i8 44, label %while.body.i.i
  ]

while.body.i.i:                                   ; preds = %while.cond.i.i, %while.cond.i.i, %while.cond.i.i, %while.cond.i.i, %while.cond.i.i, %while.cond.i.i, %while.cond.i.i
  %incdec.ptr.i.i = getelementptr inbounds i8, ptr %ptr.0.i.i, i64 1
  %inc.i.i = add i64 %pos.addr.0.i.i, 1
  %exitcond.not.i.i = icmp eq i64 %inc.i.i, %len
  br i1 %exitcond.not.i.i, label %try.cont, label %while.cond.i.i, !llvm.loop !29

_ZN19OpenColorIO_v2_4dev18FindNextTokenStartEPKcmm.exit.i: ; preds = %while.cond.i.i
  %cmp.not.i11 = icmp eq i64 %pos.addr.0.i.i, %len
  br i1 %cmp.not.i11, label %try.cont, label %if.then.i

if.then.i:                                        ; preds = %_ZN19OpenColorIO_v2_4dev18FindNextTokenStartEPKcmm.exit.i
  %cmp.not.i17.i = icmp ult i64 %pos.addr.0.i.i, %len
  br i1 %cmp.not.i17.i, label %if.end.i19.i, label %_ZN19OpenColorIO_v2_4dev9FindDelimEPKcmm.exit.thread.i

if.end.i19.i:                                     ; preds = %if.then.i
  %add.ptr.i20.i = getelementptr inbounds i8, ptr %s, i64 %pos.addr.0.i.i
  br label %while.cond.i21.i

while.cond.i21.i:                                 ; preds = %while.body.i24.i, %if.end.i19.i
  %pos.addr.0.i22.i = phi i64 [ %pos.addr.0.i.i, %if.end.i19.i ], [ %inc.i26.i, %while.body.i24.i ]
  %ptr.0.i23.i = phi ptr [ %add.ptr.i20.i, %if.end.i19.i ], [ %incdec.ptr.i25.i, %while.body.i24.i ]
  %5 = load i8, ptr %ptr.0.i23.i, align 1
  switch i8 %5, label %while.body.i24.i [
    i8 32, label %_ZN19OpenColorIO_v2_4dev9FindDelimEPKcmm.exit.i
    i8 13, label %_ZN19OpenColorIO_v2_4dev9FindDelimEPKcmm.exit.i
    i8 11, label %_ZN19OpenColorIO_v2_4dev9FindDelimEPKcmm.exit.i
    i8 10, label %_ZN19OpenColorIO_v2_4dev9FindDelimEPKcmm.exit.i
    i8 9, label %_ZN19OpenColorIO_v2_4dev9FindDelimEPKcmm.exit.i
    i8 12, label %_ZN19OpenColorIO_v2_4dev9FindDelimEPKcmm.exit.i
    i8 44, label %_ZN19OpenColorIO_v2_4dev9FindDelimEPKcmm.exit.i
  ]

while.body.i24.i:                                 ; preds = %while.cond.i21.i
  %incdec.ptr.i25.i = getelementptr inbounds i8, ptr %ptr.0.i23.i, i64 1
  %inc.i26.i = add i64 %pos.addr.0.i22.i, 1
  %exitcond.not.i27.i = icmp eq i64 %inc.i26.i, %len
  br i1 %exitcond.not.i27.i, label %_ZN19OpenColorIO_v2_4dev9FindDelimEPKcmm.exit.thread.i, label %while.cond.i21.i, !llvm.loop !30

_ZN19OpenColorIO_v2_4dev9FindDelimEPKcmm.exit.thread.i: ; preds = %while.body.i24.i, %if.then.i
  invoke void @_ZN19OpenColorIO_v2_4dev11ParseNumberIdEEvPKcmmRT_(ptr noundef %s, i64 noundef %pos.addr.0.i.i, i64 noundef %len, ptr noundef nonnull align 8 dereferenceable(8) %data)
          to label %try.cont unwind label %lpad

_ZN19OpenColorIO_v2_4dev9FindDelimEPKcmm.exit.i:  ; preds = %while.cond.i21.i, %while.cond.i21.i, %while.cond.i21.i, %while.cond.i21.i, %while.cond.i21.i, %while.cond.i21.i, %while.cond.i21.i
  invoke void @_ZN19OpenColorIO_v2_4dev11ParseNumberIdEEvPKcmmRT_(ptr noundef %s, i64 noundef %pos.addr.0.i.i, i64 noundef %pos.addr.0.i22.i, ptr noundef nonnull align 8 dereferenceable(8) %data)
          to label %.noexc12 unwind label %lpad

.noexc12:                                         ; preds = %_ZN19OpenColorIO_v2_4dev9FindDelimEPKcmm.exit.i
  %cmp.not.i28.i = icmp ult i64 %pos.addr.0.i22.i, %len
  br i1 %cmp.not.i28.i, label %if.end.i30.i, label %try.cont

if.end.i30.i:                                     ; preds = %.noexc12
  %add.ptr.i31.i = getelementptr inbounds i8, ptr %s, i64 %pos.addr.0.i22.i
  br label %while.cond.i32.i

while.cond.i32.i:                                 ; preds = %while.body.i35.i, %if.end.i30.i
  %pos.addr.0.i33.i = phi i64 [ %pos.addr.0.i22.i, %if.end.i30.i ], [ %inc.i37.i, %while.body.i35.i ]
  %ptr.0.i34.i = phi ptr [ %add.ptr.i31.i, %if.end.i30.i ], [ %incdec.ptr.i36.i, %while.body.i35.i ]
  %6 = load i8, ptr %ptr.0.i34.i, align 1
  switch i8 %6, label %try.cont [
    i8 32, label %while.body.i35.i
    i8 13, label %while.body.i35.i
    i8 11, label %while.body.i35.i
    i8 10, label %while.body.i35.i
    i8 9, label %while.body.i35.i
    i8 12, label %while.body.i35.i
    i8 44, label %while.body.i35.i
  ]

while.body.i35.i:                                 ; preds = %while.cond.i32.i, %while.cond.i32.i, %while.cond.i32.i, %while.cond.i32.i, %while.cond.i32.i, %while.cond.i32.i, %while.cond.i32.i
  %incdec.ptr.i36.i = getelementptr inbounds i8, ptr %ptr.0.i34.i, i64 1
  %inc.i37.i = add i64 %pos.addr.0.i33.i, 1
  %exitcond.not.i38.i = icmp eq i64 %inc.i37.i, %len
  br i1 %exitcond.not.i38.i, label %try.cont, label %while.cond.i32.i, !llvm.loop !29

lpad:                                             ; preds = %_ZN19OpenColorIO_v2_4dev9FindDelimEPKcmm.exit.i, %_ZN19OpenColorIO_v2_4dev9FindDelimEPKcmm.exit.thread.i
  %7 = landingpad { ptr, i32 }
          catch ptr @_ZTIN19OpenColorIO_v2_4dev9ExceptionE
  %8 = extractvalue { ptr, i32 } %7, 1
  %9 = call i32 @llvm.eh.typeid.for(ptr nonnull @_ZTIN19OpenColorIO_v2_4dev9ExceptionE) #28
  %matches = icmp eq i32 %8, %9
