; ModuleID = 'bench/ocio/original/FileFormatCTF.cpp.ll'
source_filename = "bench/ocio/original/FileFormatCTF.cpp.ll"
target datalayout = "e-m:e-p270:32:32-p271:32:32-p272:64:64-i64:64-i128:128-f80:128-n8:16:32:64-S128"
target triple = "x86_64-unknown-linux-gnu"

%"class.std::ios_base::Init" = type { i8 }
%"struct.OpenColorIO_v2_4dev::NumberUtils::Locale" = type { ptr }
%"class.std::vector.16" = type { %"struct.std::_Vector_base.17" }
%"struct.std::_Vector_base.17" = type { %"struct.std::_Vector_base<const char *, std::allocator<const char *>>::_Vector_impl" }
%"struct.std::_Vector_base<const char *, std::allocator<const char *>>::_Vector_impl" = type { %"struct.std::_Vector_base<const char *, std::allocator<const char *>>::_Vector_impl_data" }
%"struct.std::_Vector_base<const char *, std::allocator<const char *>>::_Vector_impl_data" = type { ptr, ptr, ptr }
%"class.std::__cxx11::basic_string" = type { %"struct.std::__cxx11::basic_string<char>::_Alloc_hider", i64, %union.anon }
%"struct.std::__cxx11::basic_string<char>::_Alloc_hider" = type { ptr }
%union.anon = type { i64, [8 x i8] }
%"struct.OpenColorIO_v2_4dev::FormatInfo" = type { %"class.std::__cxx11::basic_string", %"class.std::__cxx11::basic_string", i32, i32 }
%"struct.std::_Vector_base<OpenColorIO_v2_4dev::FormatInfo, std::allocator<OpenColorIO_v2_4dev::FormatInfo>>::_Vector_impl_data" = type { ptr, ptr, ptr }
%"class.std::shared_ptr" = type { %"class.std::__shared_ptr" }
%"class.std::__shared_ptr" = type { ptr, %"class.std::__shared_count" }
%"class.std::__shared_count" = type { ptr }
%"class.std::allocator" = type { i8 }
%"class.std::shared_ptr.21" = type { %"class.std::__shared_ptr.22" }
%"class.std::__shared_ptr.22" = type { ptr, %"class.std::__shared_count" }
%"class.std::shared_ptr.9" = type { %"class.std::__shared_ptr.10" }
%"class.std::__shared_ptr.10" = type { ptr, %"class.std::__shared_count" }
%"class.std::__cxx11::basic_ostringstream" = type { %"class.std::basic_ostream.base", %"class.std::__cxx11::basic_stringbuf", %"class.std::basic_ios" }
%"class.std::basic_ostream.base" = type { ptr }
%"class.std::__cxx11::basic_stringbuf" = type { %"class.std::basic_streambuf", i32, %"class.std::__cxx11::basic_string" }
%"class.std::basic_streambuf" = type { ptr, ptr, ptr, ptr, ptr, ptr, ptr, %"class.std::locale" }
%"class.std::locale" = type { ptr }
%"class.std::basic_ios" = type { %"class.std::ios_base", ptr, i8, i8, ptr, ptr, ptr, ptr }
%"class.std::ios_base" = type { ptr, i64, i64, i32, i32, i32, ptr, %"struct.std::ios_base::_Words", [8 x %"struct.std::ios_base::_Words"], i32, ptr, %"class.std::locale" }
%"struct.std::ios_base::_Words" = type { ptr, i64 }
%"class.OpenColorIO_v2_4dev::(anonymous namespace)::XMLParserHelper" = type { ptr, i32, %"class.std::__cxx11::basic_string", i8, %"class.OpenColorIO_v2_4dev::XmlReaderElementStack", %"class.std::shared_ptr.9" }
%"class.OpenColorIO_v2_4dev::XmlReaderElementStack" = type { ptr, %"class.std::vector.4" }
%"class.std::vector.4" = type { %"struct.std::_Vector_base.5" }
%"struct.std::_Vector_base.5" = type { %"struct.std::_Vector_base<std::shared_ptr<OpenColorIO_v2_4dev::XmlReaderElement>, std::allocator<std::shared_ptr<OpenColorIO_v2_4dev::XmlReaderElement>>>::_Vector_impl" }
%"struct.std::_Vector_base<std::shared_ptr<OpenColorIO_v2_4dev::XmlReaderElement>, std::allocator<std::shared_ptr<OpenColorIO_v2_4dev::XmlReaderElement>>>::_Vector_impl" = type { %"struct.std::_Vector_base<std::shared_ptr<OpenColorIO_v2_4dev::XmlReaderElement>, std::allocator<std::shared_ptr<OpenColorIO_v2_4dev::XmlReaderElement>>>::_Vector_impl_data" }
%"struct.std::_Vector_base<std::shared_ptr<OpenColorIO_v2_4dev::XmlReaderElement>, std::allocator<std::shared_ptr<OpenColorIO_v2_4dev::XmlReaderElement>>>::_Vector_impl_data" = type { ptr, ptr, ptr }
%"class.OpenColorIO_v2_4dev::XmlReaderElement" = type { ptr, %"class.std::__cxx11::basic_string", i32, %"class.std::__cxx11::basic_string" }
%"class.std::_Sp_counted_base" = type { ptr, i32, i32 }
%"class.OpenColorIO_v2_4dev::CTFReaderTransform" = type <{ %"class.std::__cxx11::basic_string", %"class.std::__cxx11::basic_string", %"class.std::__cxx11::basic_string", %"class.std::__cxx11::basic_string", %"class.std::__cxx11::basic_string", %"class.OpenColorIO_v2_4dev::FormatMetadataImpl", %"class.std::vector.214", %"class.std::vector.147", %"class.OpenColorIO_v2_4dev::CTFVersion", %"class.OpenColorIO_v2_4dev::CTFVersion", i32, [4 x i8] }>
%"class.OpenColorIO_v2_4dev::FormatMetadataImpl" = type { %"class.OpenColorIO_v2_4dev::FormatMetadata", %"class.std::__cxx11::basic_string", %"class.std::__cxx11::basic_string", %"class.std::vector.129", %"class.std::vector.134" }
%"class.OpenColorIO_v2_4dev::FormatMetadata" = type { ptr }
%"class.std::vector.129" = type { %"struct.std::_Vector_base.130" }
%"struct.std::_Vector_base.130" = type { %"struct.std::_Vector_base<std::pair<std::__cxx11::basic_string<char>, std::__cxx11::basic_string<char>>, std::allocator<std::pair<std::__cxx11::basic_string<char>, std::__cxx11::basic_string<char>>>>::_Vector_impl" }
%"struct.std::_Vector_base<std::pair<std::__cxx11::basic_string<char>, std::__cxx11::basic_string<char>>, std::allocator<std::pair<std::__cxx11::basic_string<char>, std::__cxx11::basic_string<char>>>>::_Vector_impl" = type { %"struct.std::_Vector_base<std::pair<std::__cxx11::basic_string<char>, std::__cxx11::basic_string<char>>, std::allocator<std::pair<std::__cxx11::basic_string<char>, std::__cxx11::basic_string<char>>>>::_Vector_impl_data" }
%"struct.std::_Vector_base<std::pair<std::__cxx11::basic_string<char>, std::__cxx11::basic_string<char>>, std::allocator<std::pair<std::__cxx11::basic_string<char>, std::__cxx11::basic_string<char>>>>::_Vector_impl_data" = type { ptr, ptr, ptr }
%"class.std::vector.134" = type { %"struct.std::_Vector_base.135" }
%"struct.std::_Vector_base.135" = type { %"struct.std::_Vector_base<OpenColorIO_v2_4dev::FormatMetadataImpl, std::allocator<OpenColorIO_v2_4dev::FormatMetadataImpl>>::_Vector_impl" }
%"struct.std::_Vector_base<OpenColorIO_v2_4dev::FormatMetadataImpl, std::allocator<OpenColorIO_v2_4dev::FormatMetadataImpl>>::_Vector_impl" = type { %"struct.std::_Vector_base<OpenColorIO_v2_4dev::FormatMetadataImpl, std::allocator<OpenColorIO_v2_4dev::FormatMetadataImpl>>::_Vector_impl_data" }
%"struct.std::_Vector_base<OpenColorIO_v2_4dev::FormatMetadataImpl, std::allocator<OpenColorIO_v2_4dev::FormatMetadataImpl>>::_Vector_impl_data" = type { ptr, ptr, ptr }
%"class.std::vector.214" = type { %"struct.std::_Vector_base.215" }
%"struct.std::_Vector_base.215" = type { %"struct.std::_Vector_base<std::shared_ptr<const OpenColorIO_v2_4dev::OpData>, std::allocator<std::shared_ptr<const OpenColorIO_v2_4dev::OpData>>>::_Vector_impl" }
%"struct.std::_Vector_base<std::shared_ptr<const OpenColorIO_v2_4dev::OpData>, std::allocator<std::shared_ptr<const OpenColorIO_v2_4dev::OpData>>>::_Vector_impl" = type { %"struct.std::_Vector_base<std::shared_ptr<const OpenColorIO_v2_4dev::OpData>, std::allocator<std::shared_ptr<const OpenColorIO_v2_4dev::OpData>>>::_Vector_impl_data" }
%"struct.std::_Vector_base<std::shared_ptr<const OpenColorIO_v2_4dev::OpData>, std::allocator<std::shared_ptr<const OpenColorIO_v2_4dev::OpData>>>::_Vector_impl_data" = type { ptr, ptr, ptr }
%"class.std::vector.147" = type { %"struct.std::_Vector_base.148" }
%"struct.std::_Vector_base.148" = type { %"struct.std::_Vector_base<std::__cxx11::basic_string<char>, std::allocator<std::__cxx11::basic_string<char>>>::_Vector_impl" }
%"struct.std::_Vector_base<std::__cxx11::basic_string<char>, std::allocator<std::__cxx11::basic_string<char>>>::_Vector_impl" = type { %"struct.std::_Vector_base<std::__cxx11::basic_string<char>, std::allocator<std::__cxx11::basic_string<char>>>::_Vector_impl_data" }
%"struct.std::_Vector_base<std::__cxx11::basic_string<char>, std::allocator<std::__cxx11::basic_string<char>>>::_Vector_impl_data" = type { ptr, ptr, ptr }
%"class.OpenColorIO_v2_4dev::CTFVersion" = type { i32, i32, i32 }
%"class.OpenColorIO_v2_4dev::(anonymous namespace)::LocalCachedFile" = type { %"class.OpenColorIO_v2_4dev::CachedFile", %"class.std::shared_ptr.9", %"class.std::__cxx11::basic_string" }
%"class.OpenColorIO_v2_4dev::CachedFile" = type { ptr }
%"class.std::_Sp_counted_ptr" = type { %"class.std::_Sp_counted_base", ptr }
%"class.std::shared_ptr.307" = type { %"class.std::__shared_ptr.308" }
%"class.std::__shared_ptr.308" = type { ptr, %"class.std::__shared_count" }
%"class.std::shared_ptr.310" = type { %"class.std::__shared_ptr.311" }
%"class.std::__shared_ptr.311" = type { ptr, %"class.std::__shared_count" }
%"class.std::shared_ptr.313" = type { %"class.std::__shared_ptr.314" }
%"class.std::__shared_ptr.314" = type { ptr, %"class.std::__shared_count" }
%"class.OpenColorIO_v2_4dev::PackedImageDesc" = type { %"class.OpenColorIO_v2_4dev::ImageDesc", ptr }
%"class.OpenColorIO_v2_4dev::ImageDesc" = type { ptr }
%"class.std::vector.281" = type { %"struct.std::_Vector_base.282" }
%"struct.std::_Vector_base.282" = type { %"struct.std::_Vector_base<float, std::allocator<float>>::_Vector_impl" }
%"struct.std::_Vector_base<float, std::allocator<float>>::_Vector_impl" = type { %"struct.std::_Vector_base<float, std::allocator<float>>::_Vector_impl_data" }
%"struct.std::_Vector_base<float, std::allocator<float>>::_Vector_impl_data" = type { ptr, ptr, ptr }
%"class.OpenColorIO_v2_4dev::OpRcPtrVec" = type { %"class.std::vector.316", %"class.OpenColorIO_v2_4dev::FormatMetadataImpl" }
%"class.std::vector.316" = type { %"struct.std::_Vector_base.317" }
%"struct.std::_Vector_base.317" = type { %"struct.std::_Vector_base<std::shared_ptr<OpenColorIO_v2_4dev::Op>, std::allocator<std::shared_ptr<OpenColorIO_v2_4dev::Op>>>::_Vector_impl" }
%"struct.std::_Vector_base<std::shared_ptr<OpenColorIO_v2_4dev::Op>, std::allocator<std::shared_ptr<OpenColorIO_v2_4dev::Op>>>::_Vector_impl" = type { %"struct.std::_Vector_base<std::shared_ptr<OpenColorIO_v2_4dev::Op>, std::allocator<std::shared_ptr<OpenColorIO_v2_4dev::Op>>>::_Vector_impl_data" }
%"struct.std::_Vector_base<std::shared_ptr<OpenColorIO_v2_4dev::Op>, std::allocator<std::shared_ptr<OpenColorIO_v2_4dev::Op>>>::_Vector_impl_data" = type { ptr, ptr, ptr }
%"class.std::shared_ptr.321" = type { %"class.std::__shared_ptr.322" }
%"class.std::__shared_ptr.322" = type { ptr, %"class.std::__shared_count" }
%"class.std::shared_ptr.303" = type { %"class.std::__shared_ptr.304" }
%"class.std::__shared_ptr.304" = type { ptr, %"class.std::__shared_count" }
%"class.std::shared_ptr.325" = type { %"class.std::__shared_ptr.326" }
%"class.std::__shared_ptr.326" = type { ptr, %"class.std::__shared_count" }
%"class.std::shared_ptr.331" = type { %"class.std::__shared_ptr.332" }
%"class.std::__shared_ptr.332" = type { ptr, %"class.std::__shared_count" }
%"class.std::_Sp_counted_ptr_inplace.338" = type { %"class.std::_Sp_counted_base", %"class.std::_Sp_counted_ptr_inplace<OpenColorIO_v2_4dev::Lut1DOpData, std::allocator<void>, __gnu_cxx::_S_atomic>::_Impl" }
%"class.std::_Sp_counted_ptr_inplace<OpenColorIO_v2_4dev::Lut1DOpData, std::allocator<void>, __gnu_cxx::_S_atomic>::_Impl" = type { %"struct.__gnu_cxx::__aligned_buffer.339" }
%"struct.__gnu_cxx::__aligned_buffer.339" = type { %"union.std::aligned_storage<368, 8>::type" }
%"union.std::aligned_storage<368, 8>::type" = type { [368 x i8] }
%"class.OpenColorIO_v2_4dev::Lut1DOpData" = type <{ %"class.OpenColorIO_v2_4dev::OpData", i32, [4 x i8], %"class.OpenColorIO_v2_4dev::Lut1DOpData::Lut3by1DArray", i32, i32, i32, [4 x i8], [3 x %"struct.OpenColorIO_v2_4dev::Lut1DOpData::ComponentProperties"], i32, [4 x i8] }>
%"class.OpenColorIO_v2_4dev::OpData" = type { ptr, %"class.std::mutex", %"class.OpenColorIO_v2_4dev::FormatMetadataImpl" }
%"class.std::mutex" = type { %"class.std::__mutex_base" }
%"class.std::__mutex_base" = type { %union.pthread_mutex_t }
%union.pthread_mutex_t = type { %struct.__pthread_mutex_s }
%struct.__pthread_mutex_s = type { i32, i32, i32, i32, i32, i16, i16, %struct.__pthread_internal_list }
%struct.__pthread_internal_list = type { ptr, ptr }
%"class.OpenColorIO_v2_4dev::Lut1DOpData::Lut3by1DArray" = type { %"class.OpenColorIO_v2_4dev::ArrayT" }
%"class.OpenColorIO_v2_4dev::ArrayT" = type { %"class.OpenColorIO_v2_4dev::ArrayBase", i64, i64, %"class.std::vector.281" }
%"class.OpenColorIO_v2_4dev::ArrayBase" = type { ptr }
%"struct.OpenColorIO_v2_4dev::Lut1DOpData::ComponentProperties" = type { i8, i64, i64, i64, i64 }
%"class.std::_Sp_counted_ptr_inplace.348" = type { %"class.std::_Sp_counted_base", %"class.std::_Sp_counted_ptr_inplace<OpenColorIO_v2_4dev::Lut3DOpData, std::allocator<void>, __gnu_cxx::_S_atomic>::_Impl" }
%"class.std::_Sp_counted_ptr_inplace<OpenColorIO_v2_4dev::Lut3DOpData, std::allocator<void>, __gnu_cxx::_S_atomic>::_Impl" = type { %"struct.__gnu_cxx::__aligned_buffer.349" }
%"struct.__gnu_cxx::__aligned_buffer.349" = type { %"union.std::aligned_storage<232, 8>::type" }
%"union.std::aligned_storage<232, 8>::type" = type { [232 x i8] }
%"class.std::__shared_ptr.329" = type { ptr, %"class.std::__shared_count" }
%"class.std::shared_ptr.328" = type { %"class.std::__shared_ptr.329" }
%"class.OpenColorIO_v2_4dev::XmlFormatter" = type <{ ptr, i32, [4 x i8] }>
%"class.OpenColorIO_v2_4dev::TransformWriter" = type <{ %"class.OpenColorIO_v2_4dev::XmlElementWriter", %"class.std::shared_ptr.352", i8, [7 x i8] }>
%"class.OpenColorIO_v2_4dev::XmlElementWriter" = type { ptr, ptr }
%"class.std::shared_ptr.352" = type { %"class.std::__shared_ptr.353" }
%"class.std::__shared_ptr.353" = type { ptr, %"class.std::__shared_count" }
%"class.std::_Sp_counted_ptr_inplace.359" = type { %"class.std::_Sp_counted_base", %"class.std::_Sp_counted_ptr_inplace<OpenColorIO_v2_4dev::CTFReaderTransform, std::allocator<void>, __gnu_cxx::_S_atomic>::_Impl" }
%"class.std::_Sp_counted_ptr_inplace<OpenColorIO_v2_4dev::CTFReaderTransform, std::allocator<void>, __gnu_cxx::_S_atomic>::_Impl" = type { %"struct.__gnu_cxx::__aligned_buffer.360" }
%"struct.__gnu_cxx::__aligned_buffer.360" = type { %"union.std::aligned_storage<360, 8>::type" }
%"union.std::aligned_storage<360, 8>::type" = type { [360 x i8] }
%"class.std::shared_ptr.363" = type { %"class.std::__shared_ptr.364" }
%"class.std::__shared_ptr.364" = type { ptr, %"class.std::__shared_count" }
%"class.std::allocator.18" = type { i8 }
%"class.std::shared_ptr.24" = type { %"class.std::__shared_ptr.25" }
%"class.std::__shared_ptr.25" = type { ptr, %"class.std::__shared_count" }
%"class.std::shared_ptr.27" = type { %"class.std::__shared_ptr.28" }
%"class.std::__shared_ptr.28" = type { ptr, %"class.std::__shared_count" }
%"class.std::shared_ptr.30" = type { %"class.std::__shared_ptr.31" }
%"class.std::__shared_ptr.31" = type { ptr, %"class.std::__shared_count" }
%"class.std::shared_ptr.33" = type { %"class.std::__shared_ptr.34" }
%"class.std::__shared_ptr.34" = type { ptr, %"class.std::__shared_count" }
%"class.std::shared_ptr.36" = type { %"class.std::__shared_ptr.37" }
%"class.std::__shared_ptr.37" = type { ptr, %"class.std::__shared_count" }
%"class.std::shared_ptr.39" = type { %"class.std::__shared_ptr.40" }
%"class.std::__shared_ptr.40" = type { ptr, %"class.std::__shared_count" }
%"class.std::shared_ptr.42" = type { %"class.std::__shared_ptr.43" }
%"class.std::__shared_ptr.43" = type { ptr, %"class.std::__shared_count" }
%"class.std::shared_ptr.45" = type { %"class.std::__shared_ptr.46" }
%"class.std::__shared_ptr.46" = type { ptr, %"class.std::__shared_count" }
%"class.std::shared_ptr.48" = type { %"class.std::__shared_ptr.49" }
%"class.std::__shared_ptr.49" = type { ptr, %"class.std::__shared_count" }
%"class.std::shared_ptr.51" = type { %"class.std::__shared_ptr.52" }
%"class.std::__shared_ptr.52" = type { ptr, %"class.std::__shared_count" }
%"class.std::shared_ptr.54" = type { %"class.std::__shared_ptr.55" }
%"class.std::__shared_ptr.55" = type { ptr, %"class.std::__shared_count" }
%"class.std::shared_ptr.57" = type { %"class.std::__shared_ptr.58" }
%"class.std::__shared_ptr.58" = type { ptr, %"class.std::__shared_count" }
%"class.std::shared_ptr.63" = type { %"class.std::__shared_ptr.64" }
%"class.std::__shared_ptr.64" = type { ptr, %"class.std::__shared_count" }
%"class.std::shared_ptr.66" = type { %"class.std::__shared_ptr.67" }
%"class.std::__shared_ptr.67" = type { ptr, %"class.std::__shared_count" }
%"class.std::shared_ptr.69" = type { %"class.std::__shared_ptr.70" }
%"class.std::__shared_ptr.70" = type { ptr, %"class.std::__shared_count" }
%"class.std::shared_ptr.72" = type { %"class.std::__shared_ptr.73" }
%"class.std::__shared_ptr.73" = type { ptr, %"class.std::__shared_count" }
%"class.std::shared_ptr.75" = type { %"class.std::__shared_ptr.76" }
%"class.std::__shared_ptr.76" = type { ptr, %"class.std::__shared_count" }
%"class.std::shared_ptr.86" = type { %"class.std::__shared_ptr.87" }
%"class.std::__shared_ptr.87" = type { ptr, %"class.std::__shared_count" }
%"class.std::shared_ptr.89" = type { %"class.std::__shared_ptr.90" }
%"class.std::__shared_ptr.90" = type { ptr, %"class.std::__shared_count" }
%"class.std::shared_ptr.92" = type { %"class.std::__shared_ptr.93" }
%"class.std::__shared_ptr.93" = type { ptr, %"class.std::__shared_count" }
%"class.std::shared_ptr.95" = type { %"class.std::__shared_ptr.96" }
%"class.std::__shared_ptr.96" = type { ptr, %"class.std::__shared_count" }
%"class.std::shared_ptr.98" = type { %"class.std::__shared_ptr.99" }
%"class.std::__shared_ptr.99" = type { ptr, %"class.std::__shared_count" }
%"class.std::shared_ptr.101" = type { %"class.std::__shared_ptr.102" }
%"class.std::__shared_ptr.102" = type { ptr, %"class.std::__shared_count" }
%"class.std::shared_ptr.104" = type { %"class.std::__shared_ptr.105" }
%"class.std::__shared_ptr.105" = type { ptr, %"class.std::__shared_count" }
%"class.std::shared_ptr.107" = type { %"class.std::__shared_ptr.108" }
%"class.std::__shared_ptr.108" = type { ptr, %"class.std::__shared_count" }
%"class.std::shared_ptr.110" = type { %"class.std::__shared_ptr.111" }
%"class.std::__shared_ptr.111" = type { ptr, %"class.std::__shared_count" }
%"class.std::shared_ptr.113" = type { %"class.std::__shared_ptr.114" }
%"class.std::__shared_ptr.114" = type { ptr, %"class.std::__shared_count" }
%"class.std::shared_ptr.116" = type { %"class.std::__shared_ptr.117" }
%"class.std::__shared_ptr.117" = type { ptr, %"class.std::__shared_count" }
%"class.std::shared_ptr.119" = type { %"class.std::__shared_ptr.120" }
%"class.std::__shared_ptr.120" = type { ptr, %"class.std::__shared_count" }
%"class.std::shared_ptr.122" = type { %"class.std::__shared_ptr.123" }
%"class.std::__shared_ptr.123" = type { ptr, %"class.std::__shared_count" }
%"class.std::_Sp_counted_ptr_inplace" = type { %"class.std::_Sp_counted_base", %"class.std::_Sp_counted_ptr_inplace<OpenColorIO_v2_4dev::CTFReaderMetadataElt, std::allocator<void>, __gnu_cxx::_S_atomic>::_Impl" }
%"class.std::_Sp_counted_ptr_inplace<OpenColorIO_v2_4dev::CTFReaderMetadataElt, std::allocator<void>, __gnu_cxx::_S_atomic>::_Impl" = type { %"struct.__gnu_cxx::__aligned_buffer" }
%"struct.__gnu_cxx::__aligned_buffer" = type { %"union.std::aligned_storage<216, 8>::type" }
%"union.std::aligned_storage<216, 8>::type" = type { [216 x i8] }
%"class.std::_Sp_counted_ptr_inplace.143" = type { %"class.std::_Sp_counted_base", %"class.std::_Sp_counted_ptr_inplace<OpenColorIO_v2_4dev::XmlReaderDummyElt, std::allocator<void>, __gnu_cxx::_S_atomic>::_Impl" }
%"class.std::_Sp_counted_ptr_inplace<OpenColorIO_v2_4dev::XmlReaderDummyElt, std::allocator<void>, __gnu_cxx::_S_atomic>::_Impl" = type { %"struct.__gnu_cxx::__aligned_buffer.144" }
%"struct.__gnu_cxx::__aligned_buffer.144" = type { %"union.std::aligned_storage<120, 8>::type" }
%"union.std::aligned_storage<120, 8>::type" = type { [120 x i8] }
%"class.std::_Sp_counted_ptr_inplace.156" = type { %"class.std::_Sp_counted_base", %"class.std::_Sp_counted_ptr_inplace<OpenColorIO_v2_4dev::CTFReaderTransformElt, std::allocator<void>, __gnu_cxx::_S_atomic>::_Impl" }
%"class.std::_Sp_counted_ptr_inplace<OpenColorIO_v2_4dev::CTFReaderTransformElt, std::allocator<void>, __gnu_cxx::_S_atomic>::_Impl" = type { %"struct.__gnu_cxx::__aligned_buffer.157" }
%"struct.__gnu_cxx::__aligned_buffer.157" = type { %"union.std::aligned_storage<104, 8>::type" }
%"union.std::aligned_storage<104, 8>::type" = type { [104 x i8] }
%"class.OpenColorIO_v2_4dev::CTFArrayMgt" = type <{ ptr, i8, [7 x i8] }>
%"class.OpenColorIO_v2_4dev::CTFIndexMapMgt" = type <{ ptr, i8, [7 x i8] }>
%"class.OpenColorIO_v2_4dev::CTFReaderLogElt" = type { %"class.OpenColorIO_v2_4dev::CTFReaderOpElt", %"struct.OpenColorIO_v2_4dev::LogUtil::CTFParams", i8, %"class.std::shared_ptr.83" }
%"class.OpenColorIO_v2_4dev::CTFReaderOpElt" = type { %"class.OpenColorIO_v2_4dev::XmlReaderContainerElt", %"class.std::shared_ptr.9", i32, i32 }
%"class.OpenColorIO_v2_4dev::XmlReaderContainerElt" = type { %"class.OpenColorIO_v2_4dev::XmlReaderElement" }
%"struct.OpenColorIO_v2_4dev::LogUtil::CTFParams" = type <{ i32, [4 x i8], [3 x %"class.std::vector.78"], i32, [4 x i8] }>
%"class.std::vector.78" = type { %"struct.std::_Vector_base.79" }
%"struct.std::_Vector_base.79" = type { %"struct.std::_Vector_base<double, std::allocator<double>>::_Vector_impl" }
%"struct.std::_Vector_base<double, std::allocator<double>>::_Vector_impl" = type { %"struct.std::_Vector_base<double, std::allocator<double>>::_Vector_impl_data" }
%"struct.std::_Vector_base<double, std::allocator<double>>::_Vector_impl_data" = type { ptr, ptr, ptr }
%"class.std::shared_ptr.83" = type { %"class.std::__shared_ptr.84" }
%"class.std::__shared_ptr.84" = type { ptr, %"class.std::__shared_count" }
%"class.std::__cxx11::basic_stringstream" = type { %"class.std::basic_iostream.base", %"class.std::__cxx11::basic_stringbuf", %"class.std::basic_ios" }
%"class.std::basic_iostream.base" = type { %"class.std::basic_istream.base", %"class.std::basic_ostream.base" }
%"class.std::basic_istream.base" = type { ptr, i64 }
%"class.std::shared_ptr.298" = type { %"class.std::__shared_ptr.299" }
%"class.std::__shared_ptr.299" = type { ptr, %"class.std::__shared_count" }
%"class.OpenColorIO_v2_4dev::XmlReaderPlainElt" = type { %"class.OpenColorIO_v2_4dev::XmlReaderElement", %"class.std::shared_ptr.33" }
%"class.std::_Sp_counted_ptr_inplace.164" = type { %"class.std::_Sp_counted_base", %"class.std::_Sp_counted_ptr_inplace<OpenColorIO_v2_4dev::CTFReaderACESParamsElt, std::allocator<void>, __gnu_cxx::_S_atomic>::_Impl" }
%"class.std::_Sp_counted_ptr_inplace<OpenColorIO_v2_4dev::CTFReaderACESParamsElt, std::allocator<void>, __gnu_cxx::_S_atomic>::_Impl" = type { %"struct.__gnu_cxx::__aligned_buffer.165" }
%"struct.__gnu_cxx::__aligned_buffer.165" = type { %"union.std::aligned_storage<96, 8>::type" }
%"union.std::aligned_storage<96, 8>::type" = type { [96 x i8] }
%"class.std::_Sp_counted_ptr_inplace.172" = type { %"class.std::_Sp_counted_base", %"class.std::_Sp_counted_ptr_inplace<OpenColorIO_v2_4dev::CTFReaderArrayElt, std::allocator<void>, __gnu_cxx::_S_atomic>::_Impl" }
%"class.std::_Sp_counted_ptr_inplace<OpenColorIO_v2_4dev::CTFReaderArrayElt, std::allocator<void>, __gnu_cxx::_S_atomic>::_Impl" = type { %"struct.__gnu_cxx::__aligned_buffer.173" }
%"struct.__gnu_cxx::__aligned_buffer.173" = type { %"union.std::aligned_storage<112, 8>::type" }
%"union.std::aligned_storage<112, 8>::type" = type { [112 x i8] }
%"class.std::_Sp_counted_ptr_inplace.180" = type { %"class.std::_Sp_counted_base", %"class.std::_Sp_counted_ptr_inplace<OpenColorIO_v2_4dev::XmlReaderDescriptionElt, std::allocator<void>, __gnu_cxx::_S_atomic>::_Impl" }
%"class.std::_Sp_counted_ptr_inplace<OpenColorIO_v2_4dev::XmlReaderDescriptionElt, std::allocator<void>, __gnu_cxx::_S_atomic>::_Impl" = type { %"struct.__gnu_cxx::__aligned_buffer.181" }
%"struct.__gnu_cxx::__aligned_buffer.181" = type { %"union.std::aligned_storage<136, 8>::type" }
%"union.std::aligned_storage<136, 8>::type" = type { [136 x i8] }
%"class.std::_Sp_counted_ptr_inplace.188" = type { %"class.std::_Sp_counted_base", %"class.std::_Sp_counted_ptr_inplace<OpenColorIO_v2_4dev::CTFReaderDynamicParamElt, std::allocator<void>, __gnu_cxx::_S_atomic>::_Impl" }
%"class.std::_Sp_counted_ptr_inplace<OpenColorIO_v2_4dev::CTFReaderDynamicParamElt, std::allocator<void>, __gnu_cxx::_S_atomic>::_Impl" = type { %"struct.__gnu_cxx::__aligned_buffer.189" }
%"struct.__gnu_cxx::__aligned_buffer.189" = type { %"union.std::aligned_storage<96, 8>::type" }
%"class.std::_Sp_counted_ptr_inplace.194" = type { %"class.std::_Sp_counted_base", %"class.std::_Sp_counted_ptr_inplace<OpenColorIO_v2_4dev::CTFReaderECParamsElt, std::allocator<void>, __gnu_cxx::_S_atomic>::_Impl" }
%"class.std::_Sp_counted_ptr_inplace<OpenColorIO_v2_4dev::CTFReaderECParamsElt, std::allocator<void>, __gnu_cxx::_S_atomic>::_Impl" = type { %"struct.__gnu_cxx::__aligned_buffer.195" }
%"struct.__gnu_cxx::__aligned_buffer.195" = type { %"union.std::aligned_storage<96, 8>::type" }
%"class.std::_Sp_counted_ptr_inplace.200" = type { %"class.std::_Sp_counted_base", %"class.std::_Sp_counted_ptr_inplace<OpenColorIO_v2_4dev::CTFReaderIndexMapElt, std::allocator<void>, __gnu_cxx::_S_atomic>::_Impl" }
%"class.std::_Sp_counted_ptr_inplace<OpenColorIO_v2_4dev::CTFReaderIndexMapElt, std::allocator<void>, __gnu_cxx::_S_atomic>::_Impl" = type { %"struct.__gnu_cxx::__aligned_buffer.201" }
%"struct.__gnu_cxx::__aligned_buffer.201" = type { %"union.std::aligned_storage<112, 8>::type" }
%"class.std::_Sp_counted_ptr_inplace.206" = type { %"class.std::_Sp_counted_base", %"class.std::_Sp_counted_ptr_inplace<OpenColorIO_v2_4dev::CTFReaderInfoElt, std::allocator<void>, __gnu_cxx::_S_atomic>::_Impl" }
%"class.std::_Sp_counted_ptr_inplace<OpenColorIO_v2_4dev::CTFReaderInfoElt, std::allocator<void>, __gnu_cxx::_S_atomic>::_Impl" = type { %"struct.__gnu_cxx::__aligned_buffer.207" }
%"struct.__gnu_cxx::__aligned_buffer.207" = type { %"union.std::aligned_storage<216, 8>::type" }
%"class.std::_Sp_counted_ptr_inplace.212" = type { %"class.std::_Sp_counted_base", %"class.std::_Sp_counted_ptr_inplace<OpenColorIO_v2_4dev::CTFReaderInputDescriptorElt, std::allocator<void>, __gnu_cxx::_S_atomic>::_Impl" }
%"class.std::_Sp_counted_ptr_inplace<OpenColorIO_v2_4dev::CTFReaderInputDescriptorElt, std::allocator<void>, __gnu_cxx::_S_atomic>::_Impl" = type { %"struct.__gnu_cxx::__aligned_buffer.213" }
%"struct.__gnu_cxx::__aligned_buffer.213" = type { %"union.std::aligned_storage<96, 8>::type" }
%"class.std::_Sp_counted_ptr_inplace.223" = type { %"class.std::_Sp_counted_base", %"class.std::_Sp_counted_ptr_inplace<OpenColorIO_v2_4dev::CTFReaderOutputDescriptorElt, std::allocator<void>, __gnu_cxx::_S_atomic>::_Impl" }
%"class.std::_Sp_counted_ptr_inplace<OpenColorIO_v2_4dev::CTFReaderOutputDescriptorElt, std::allocator<void>, __gnu_cxx::_S_atomic>::_Impl" = type { %"struct.__gnu_cxx::__aligned_buffer.224" }
%"struct.__gnu_cxx::__aligned_buffer.224" = type { %"union.std::aligned_storage<96, 8>::type" }
%"class.std::_Sp_counted_ptr_inplace.229" = type { %"class.std::_Sp_counted_base", %"class.std::_Sp_counted_ptr_inplace<OpenColorIO_v2_4dev::CTFReaderRangeValueElt, std::allocator<void>, __gnu_cxx::_S_atomic>::_Impl" }
%"class.std::_Sp_counted_ptr_inplace<OpenColorIO_v2_4dev::CTFReaderRangeValueElt, std::allocator<void>, __gnu_cxx::_S_atomic>::_Impl" = type { %"struct.__gnu_cxx::__aligned_buffer.230" }
%"struct.__gnu_cxx::__aligned_buffer.230" = type { %"union.std::aligned_storage<96, 8>::type" }
%"class.std::_Sp_counted_ptr_inplace.235" = type { %"class.std::_Sp_counted_base", %"class.std::_Sp_counted_ptr_inplace<OpenColorIO_v2_4dev::CTFReaderSatNodeElt, std::allocator<void>, __gnu_cxx::_S_atomic>::_Impl" }
%"class.std::_Sp_counted_ptr_inplace<OpenColorIO_v2_4dev::CTFReaderSatNodeElt, std::allocator<void>, __gnu_cxx::_S_atomic>::_Impl" = type { %"struct.__gnu_cxx::__aligned_buffer.236" }
%"struct.__gnu_cxx::__aligned_buffer.236" = type { %"union.std::aligned_storage<96, 8>::type" }
%"class.std::_Sp_counted_ptr_inplace.244" = type { %"class.std::_Sp_counted_base", %"class.std::_Sp_counted_ptr_inplace<OpenColorIO_v2_4dev::XmlReaderSaturationElt, std::allocator<void>, __gnu_cxx::_S_atomic>::_Impl" }
%"class.std::_Sp_counted_ptr_inplace<OpenColorIO_v2_4dev::XmlReaderSaturationElt, std::allocator<void>, __gnu_cxx::_S_atomic>::_Impl" = type { %"struct.__gnu_cxx::__aligned_buffer.245" }
%"struct.__gnu_cxx::__aligned_buffer.245" = type { %"union.std::aligned_storage<128, 8>::type" }
%"union.std::aligned_storage<128, 8>::type" = type { [128 x i8] }
%"class.std::_Sp_counted_ptr_inplace.252" = type { %"class.std::_Sp_counted_base", %"class.std::_Sp_counted_ptr_inplace<OpenColorIO_v2_4dev::CTFReaderSOPNodeElt, std::allocator<void>, __gnu_cxx::_S_atomic>::_Impl" }
%"class.std::_Sp_counted_ptr_inplace<OpenColorIO_v2_4dev::CTFReaderSOPNodeElt, std::allocator<void>, __gnu_cxx::_S_atomic>::_Impl" = type { %"struct.__gnu_cxx::__aligned_buffer.253" }
%"struct.__gnu_cxx::__aligned_buffer.253" = type { %"union.std::aligned_storage<104, 8>::type" }
%"class.std::_Sp_counted_ptr_inplace.258" = type { %"class.std::_Sp_counted_base", %"class.std::_Sp_counted_ptr_inplace<OpenColorIO_v2_4dev::XmlReaderSOPValueElt, std::allocator<void>, __gnu_cxx::_S_atomic>::_Impl" }
%"class.std::_Sp_counted_ptr_inplace<OpenColorIO_v2_4dev::XmlReaderSOPValueElt, std::allocator<void>, __gnu_cxx::_S_atomic>::_Impl" = type { %"struct.__gnu_cxx::__aligned_buffer.259" }
%"struct.__gnu_cxx::__aligned_buffer.259" = type { %"union.std::aligned_storage<128, 8>::type" }
%"class.std::_Sp_counted_ptr_inplace.264" = type { %"class.std::_Sp_counted_base", %"class.std::_Sp_counted_ptr_inplace<OpenColorIO_v2_4dev::CTFReaderGradingPrimaryParamElt, std::allocator<void>, __gnu_cxx::_S_atomic>::_Impl" }
%"class.std::_Sp_counted_ptr_inplace<OpenColorIO_v2_4dev::CTFReaderGradingPrimaryParamElt, std::allocator<void>, __gnu_cxx::_S_atomic>::_Impl" = type { %"struct.__gnu_cxx::__aligned_buffer.265" }
%"struct.__gnu_cxx::__aligned_buffer.265" = type { %"union.std::aligned_storage<96, 8>::type" }
%"class.std::_Sp_counted_ptr_inplace.270" = type { %"class.std::_Sp_counted_base", %"class.std::_Sp_counted_ptr_inplace<OpenColorIO_v2_4dev::CTFReaderGradingCurveElt, std::allocator<void>, __gnu_cxx::_S_atomic>::_Impl" }
%"class.std::_Sp_counted_ptr_inplace<OpenColorIO_v2_4dev::CTFReaderGradingCurveElt, std::allocator<void>, __gnu_cxx::_S_atomic>::_Impl" = type { %"struct.__gnu_cxx::__aligned_buffer.271" }
%"struct.__gnu_cxx::__aligned_buffer.271" = type { %"union.std::aligned_storage<112, 8>::type" }
%"class.std::_Sp_counted_ptr_inplace.279" = type { %"class.std::_Sp_counted_base", %"class.std::_Sp_counted_ptr_inplace<OpenColorIO_v2_4dev::CTFReaderGradingCurvePointsElt, std::allocator<void>, __gnu_cxx::_S_atomic>::_Impl" }
%"class.std::_Sp_counted_ptr_inplace<OpenColorIO_v2_4dev::CTFReaderGradingCurvePointsElt, std::allocator<void>, __gnu_cxx::_S_atomic>::_Impl" = type { %"struct.__gnu_cxx::__aligned_buffer.280" }
%"struct.__gnu_cxx::__aligned_buffer.280" = type { %"union.std::aligned_storage<120, 8>::type" }
%"class.std::_Sp_counted_ptr_inplace.290" = type { %"class.std::_Sp_counted_base", %"class.std::_Sp_counted_ptr_inplace<OpenColorIO_v2_4dev::CTFReaderGradingCurveSlopesElt, std::allocator<void>, __gnu_cxx::_S_atomic>::_Impl" }
%"class.std::_Sp_counted_ptr_inplace<OpenColorIO_v2_4dev::CTFReaderGradingCurveSlopesElt, std::allocator<void>, __gnu_cxx::_S_atomic>::_Impl" = type { %"struct.__gnu_cxx::__aligned_buffer.291" }
%"struct.__gnu_cxx::__aligned_buffer.291" = type { %"union.std::aligned_storage<120, 8>::type" }
%"class.std::_Sp_counted_ptr_inplace.296" = type { %"class.std::_Sp_counted_base", %"class.std::_Sp_counted_ptr_inplace<OpenColorIO_v2_4dev::CTFReaderGradingToneParamElt, std::allocator<void>, __gnu_cxx::_S_atomic>::_Impl" }
%"class.std::_Sp_counted_ptr_inplace<OpenColorIO_v2_4dev::CTFReaderGradingToneParamElt, std::allocator<void>, __gnu_cxx::_S_atomic>::_Impl" = type { %"struct.__gnu_cxx::__aligned_buffer.297" }
%"struct.__gnu_cxx::__aligned_buffer.297" = type { %"union.std::aligned_storage<96, 8>::type" }
%"class.std::type_info" = type { ptr, ptr }
%"class.OpenColorIO_v2_4dev::XmlReaderDescriptionElt" = type <{ %"class.OpenColorIO_v2_4dev::XmlReaderPlainElt", %"class.std::__cxx11::basic_string", i8, [7 x i8] }>
%"class.std::shared_ptr.369" = type { %"class.std::__shared_ptr.370" }
%"class.std::__shared_ptr.370" = type { ptr, %"class.std::__shared_count" }
%"class.std::shared_ptr.366" = type { %"class.std::__shared_ptr.367" }
%"class.std::__shared_ptr.367" = type { ptr, %"class.std::__shared_count" }
%"class.OpenColorIO_v2_4dev::Lut3DOpData" = type { %"class.OpenColorIO_v2_4dev::OpData", i32, %"class.OpenColorIO_v2_4dev::Lut3DOpData::Lut3DArray", i32, i32 }
%"class.OpenColorIO_v2_4dev::Lut3DOpData::Lut3DArray" = type { %"class.OpenColorIO_v2_4dev::ArrayT" }
%"class.std::shared_ptr.372" = type { %"class.std::__shared_ptr.373" }
%"class.std::__shared_ptr.373" = type { ptr, %"class.std::__shared_count" }
%"class.std::shared_ptr.375" = type { %"class.std::__shared_ptr.376" }
%"class.std::__shared_ptr.376" = type { ptr, %"class.std::__shared_count" }
%"class.OpenColorIO_v2_4dev::ReferenceOpData" = type <{ %"class.OpenColorIO_v2_4dev::OpData", i32, [4 x i8], %"class.std::__cxx11::basic_string", %"class.std::__cxx11::basic_string", i32, [4 x i8] }>

$_ZN19OpenColorIO_v2_4dev11NumberUtils6LocaleD2Ev = comdat any

$_ZNK19OpenColorIO_v2_4dev10FileFormat8isBinaryEv = comdat any

$_ZNSt6vectorIN19OpenColorIO_v2_4dev10FormatInfoESaIS1_EE17_M_realloc_insertIJRKS1_EEEvN9__gnu_cxx17__normal_iteratorIPS1_S3_EEDpOT_ = comdat any

$__clang_call_terminate = comdat any

$_ZNSt10shared_ptrIN19OpenColorIO_v2_4dev18CTFReaderTransformEED2Ev = comdat any

$_ZNSt6vectorIPKcSaIS1_EEC2ESt16initializer_listIS1_ERKS2_ = comdat any

$_ZNSt6vectorIPKcSaIS1_EED2Ev = comdat any

$_ZNSt10shared_ptrIN19OpenColorIO_v2_4dev16XmlReaderElementEED2Ev = comdat any

$_ZNSt10shared_ptrIN19OpenColorIO_v2_4dev20CTFReaderMetadataEltEED2Ev = comdat any

$_ZSt20dynamic_pointer_castIN19OpenColorIO_v2_4dev21CTFReaderTransformEltENS0_16XmlReaderElementEESt10shared_ptrIT_ERKS3_IT0_E = comdat any

$_ZNSt10shared_ptrIN19OpenColorIO_v2_4dev17XmlReaderDummyEltEED2Ev = comdat any

$_ZNSt10shared_ptrIN19OpenColorIO_v2_4dev21CTFReaderTransformEltEED2Ev = comdat any

$_ZSt20dynamic_pointer_castIN19OpenColorIO_v2_4dev21XmlReaderContainerEltENS0_16XmlReaderElementEESt10shared_ptrIT_ERKS3_IT0_E = comdat any

$_ZSt11make_sharedIN19OpenColorIO_v2_4dev17XmlReaderDummyEltEJRPKcRSt10shared_ptrINS0_16XmlReaderElementEEjRKNSt7__cxx1112basic_stringIcSt11char_traitsIcESaIcEEEDnEES5_INSt9enable_ifIXntsr8is_arrayIT_EE5valueESI_E4typeEEDpOT0_ = comdat any

$_ZSt11make_sharedIN19OpenColorIO_v2_4dev22CTFReaderACESParamsEltEJRPKcRSt10shared_ptrINS0_21XmlReaderContainerEltEEjRKNSt7__cxx1112basic_stringIcSt11char_traitsIcESaIcEEEEES5_INSt9enable_ifIXntsr8is_arrayIT_EE5valueESI_E4typeEEDpOT0_ = comdat any

$_ZNSt10shared_ptrIN19OpenColorIO_v2_4dev22CTFReaderACESParamsEltEED2Ev = comdat any

$_ZSt20dynamic_pointer_castIN19OpenColorIO_v2_4dev11CTFArrayMgtENS0_21XmlReaderContainerEltEESt10shared_ptrIT_ERKS3_IT0_E = comdat any

$_ZSt11make_sharedIN19OpenColorIO_v2_4dev17XmlReaderDummyEltEJRPKcSt10shared_ptrINS0_16XmlReaderElementEEjRKNSt7__cxx1112basic_stringIcSt11char_traitsIcESaIcEEERA34_S2_EES5_INSt9enable_ifIXntsr8is_arrayIT_EE5valueESJ_E4typeEEDpOT0_ = comdat any

$_ZSt11make_sharedIN19OpenColorIO_v2_4dev17XmlReaderDummyEltEJRPKcSt10shared_ptrINS0_16XmlReaderElementEEjRKNSt7__cxx1112basic_stringIcSt11char_traitsIcESaIcEEERA30_S2_EES5_INSt9enable_ifIXntsr8is_arrayIT_EE5valueESJ_E4typeEEDpOT0_ = comdat any

$_ZSt11make_sharedIN19OpenColorIO_v2_4dev17CTFReaderArrayEltEJRPKcRSt10shared_ptrINS0_21XmlReaderContainerEltEEjRKNSt7__cxx1112basic_stringIcSt11char_traitsIcESaIcEEEEES5_INSt9enable_ifIXntsr8is_arrayIT_EE5valueESI_E4typeEEDpOT0_ = comdat any

$_ZNSt10shared_ptrIN19OpenColorIO_v2_4dev17CTFReaderArrayEltEED2Ev = comdat any

$_ZNSt10shared_ptrIN19OpenColorIO_v2_4dev11CTFArrayMgtEED2Ev = comdat any

$_ZSt11make_sharedIN19OpenColorIO_v2_4dev23XmlReaderDescriptionEltEJRPKcRSt10shared_ptrINS0_21XmlReaderContainerEltEEjRKNSt7__cxx1112basic_stringIcSt11char_traitsIcESaIcEEEEES5_INSt9enable_ifIXntsr8is_arrayIT_EE5valueESI_E4typeEEDpOT0_ = comdat any

$_ZNSt10shared_ptrIN19OpenColorIO_v2_4dev23XmlReaderDescriptionEltEED2Ev = comdat any

$_ZSt20dynamic_pointer_castIN19OpenColorIO_v2_4dev14CTFReaderOpEltENS0_21XmlReaderContainerEltEESt10shared_ptrIT_ERKS3_IT0_E = comdat any

$_ZNSt10shared_ptrIN19OpenColorIO_v2_4dev14CTFReaderOpEltEED2Ev = comdat any

$_ZSt11make_sharedIN19OpenColorIO_v2_4dev24CTFReaderDynamicParamEltEJRPKcRSt10shared_ptrINS0_21XmlReaderContainerEltEEjRKNSt7__cxx1112basic_stringIcSt11char_traitsIcESaIcEEEEES5_INSt9enable_ifIXntsr8is_arrayIT_EE5valueESI_E4typeEEDpOT0_ = comdat any

$_ZNSt10shared_ptrIN19OpenColorIO_v2_4dev24CTFReaderDynamicParamEltEED2Ev = comdat any

$_ZSt11make_sharedIN19OpenColorIO_v2_4dev20CTFReaderECParamsEltEJRPKcRSt10shared_ptrINS0_21XmlReaderContainerEltEEjRKNSt7__cxx1112basic_stringIcSt11char_traitsIcESaIcEEEEES5_INSt9enable_ifIXntsr8is_arrayIT_EE5valueESI_E4typeEEDpOT0_ = comdat any

$_ZNSt10shared_ptrIN19OpenColorIO_v2_4dev20CTFReaderECParamsEltEED2Ev = comdat any

$_ZNSt10shared_ptrIN19OpenColorIO_v2_4dev23CTFReaderGammaParamsEltEED2Ev = comdat any

$_ZNSt10shared_ptrIN19OpenColorIO_v2_4dev21XmlReaderContainerEltEED2Ev = comdat any

$_ZSt20dynamic_pointer_castIN19OpenColorIO_v2_4dev14CTFIndexMapMgtENS0_21XmlReaderContainerEltEESt10shared_ptrIT_ERKS3_IT0_E = comdat any

$_ZSt11make_sharedIN19OpenColorIO_v2_4dev17XmlReaderDummyEltEJRPKcSt10shared_ptrINS0_16XmlReaderElementEEjRKNSt7__cxx1112basic_stringIcSt11char_traitsIcESaIcEEERA37_S2_EES5_INSt9enable_ifIXntsr8is_arrayIT_EE5valueESJ_E4typeEEDpOT0_ = comdat any

$_ZSt11make_sharedIN19OpenColorIO_v2_4dev20CTFReaderIndexMapEltEJRPKcRSt10shared_ptrINS0_21XmlReaderContainerEltEEjRKNSt7__cxx1112basic_stringIcSt11char_traitsIcESaIcEEEEES5_INSt9enable_ifIXntsr8is_arrayIT_EE5valueESI_E4typeEEDpOT0_ = comdat any

$_ZNSt10shared_ptrIN19OpenColorIO_v2_4dev20CTFReaderIndexMapEltEED2Ev = comdat any

$_ZNSt10shared_ptrIN19OpenColorIO_v2_4dev14CTFIndexMapMgtEED2Ev = comdat any

$_ZSt11make_sharedIN19OpenColorIO_v2_4dev16CTFReaderInfoEltEJRPKcRSt10shared_ptrINS0_21XmlReaderContainerEltEEjRKNSt7__cxx1112basic_stringIcSt11char_traitsIcESaIcEEEEES5_INSt9enable_ifIXntsr8is_arrayIT_EE5valueESI_E4typeEEDpOT0_ = comdat any

$_ZNSt10shared_ptrIN19OpenColorIO_v2_4dev16CTFReaderInfoEltEED2Ev = comdat any

$_ZSt11make_sharedIN19OpenColorIO_v2_4dev27CTFReaderInputDescriptorEltEJRPKcRSt10shared_ptrINS0_21XmlReaderContainerEltEEjRKNSt7__cxx1112basic_stringIcSt11char_traitsIcESaIcEEEEES5_INSt9enable_ifIXntsr8is_arrayIT_EE5valueESI_E4typeEEDpOT0_ = comdat any

$_ZNSt10shared_ptrIN19OpenColorIO_v2_4dev27CTFReaderInputDescriptorEltEED2Ev = comdat any

$_ZSt20dynamic_pointer_castIN19OpenColorIO_v2_4dev15CTFReaderLogEltENS0_21XmlReaderContainerEltEESt10shared_ptrIT_ERKS3_IT0_E = comdat any

$_ZSt11make_sharedIN19OpenColorIO_v2_4dev17XmlReaderDummyEltEJRPKcSt10shared_ptrINS0_16XmlReaderElementEEjRKNSt7__cxx1112basic_stringIcSt11char_traitsIcESaIcEEERA39_S2_EES5_INSt9enable_ifIXntsr8is_arrayIT_EE5valueESJ_E4typeEEDpOT0_ = comdat any

$_ZNSt10shared_ptrIN19OpenColorIO_v2_4dev21CTFReaderLogParamsEltEED2Ev = comdat any

$_ZNSt10shared_ptrIN19OpenColorIO_v2_4dev15CTFReaderLogEltEED2Ev = comdat any

$_ZSt11make_sharedIN19OpenColorIO_v2_4dev28CTFReaderOutputDescriptorEltEJRPKcRSt10shared_ptrINS0_21XmlReaderContainerEltEEjRKNSt7__cxx1112basic_stringIcSt11char_traitsIcESaIcEEEEES5_INSt9enable_ifIXntsr8is_arrayIT_EE5valueESI_E4typeEEDpOT0_ = comdat any

$_ZNSt10shared_ptrIN19OpenColorIO_v2_4dev28CTFReaderOutputDescriptorEltEED2Ev = comdat any

$_ZSt11make_sharedIN19OpenColorIO_v2_4dev22CTFReaderRangeValueEltEJRPKcRSt10shared_ptrINS0_21XmlReaderContainerEltEEjRKNSt7__cxx1112basic_stringIcSt11char_traitsIcESaIcEEEEES5_INSt9enable_ifIXntsr8is_arrayIT_EE5valueESI_E4typeEEDpOT0_ = comdat any

$_ZNSt10shared_ptrIN19OpenColorIO_v2_4dev22CTFReaderRangeValueEltEED2Ev = comdat any

$_ZSt20dynamic_pointer_castIN19OpenColorIO_v2_4dev15CTFReaderCDLEltENS0_21XmlReaderContainerEltEESt10shared_ptrIT_ERKS3_IT0_E = comdat any

$_ZSt11make_sharedIN19OpenColorIO_v2_4dev19CTFReaderSatNodeEltEJRPKcRSt10shared_ptrINS0_15CTFReaderCDLEltEEjRKNSt7__cxx1112basic_stringIcSt11char_traitsIcESaIcEEEEES5_INSt9enable_ifIXntsr8is_arrayIT_EE5valueESI_E4typeEEDpOT0_ = comdat any

$_ZNSt10shared_ptrIN19OpenColorIO_v2_4dev19CTFReaderSatNodeEltEED2Ev = comdat any

$_ZNSt10shared_ptrIN19OpenColorIO_v2_4dev15CTFReaderCDLEltEED2Ev = comdat any

$_ZSt11make_sharedIN19OpenColorIO_v2_4dev22XmlReaderSaturationEltEJRPKcRSt10shared_ptrINS0_21XmlReaderContainerEltEEjRKNSt7__cxx1112basic_stringIcSt11char_traitsIcESaIcEEEEES5_INSt9enable_ifIXntsr8is_arrayIT_EE5valueESI_E4typeEEDpOT0_ = comdat any

$_ZNSt10shared_ptrIN19OpenColorIO_v2_4dev22XmlReaderSaturationEltEED2Ev = comdat any

$_ZSt11make_sharedIN19OpenColorIO_v2_4dev19CTFReaderSOPNodeEltEJRPKcRSt10shared_ptrINS0_15CTFReaderCDLEltEEjRKNSt7__cxx1112basic_stringIcSt11char_traitsIcESaIcEEEEES5_INSt9enable_ifIXntsr8is_arrayIT_EE5valueESI_E4typeEEDpOT0_ = comdat any

$_ZNSt10shared_ptrIN19OpenColorIO_v2_4dev19CTFReaderSOPNodeEltEED2Ev = comdat any

$_ZSt11make_sharedIN19OpenColorIO_v2_4dev20XmlReaderSOPValueEltEJRPKcRSt10shared_ptrINS0_21XmlReaderContainerEltEEjRKNSt7__cxx1112basic_stringIcSt11char_traitsIcESaIcEEEEES5_INSt9enable_ifIXntsr8is_arrayIT_EE5valueESI_E4typeEEDpOT0_ = comdat any

$_ZNSt10shared_ptrIN19OpenColorIO_v2_4dev20XmlReaderSOPValueEltEED2Ev = comdat any

$_ZSt11make_sharedIN19OpenColorIO_v2_4dev31CTFReaderGradingPrimaryParamEltEJRPKcRSt10shared_ptrINS0_21XmlReaderContainerEltEEjRKNSt7__cxx1112basic_stringIcSt11char_traitsIcESaIcEEEEES5_INSt9enable_ifIXntsr8is_arrayIT_EE5valueESI_E4typeEEDpOT0_ = comdat any

$_ZNSt10shared_ptrIN19OpenColorIO_v2_4dev31CTFReaderGradingPrimaryParamEltEED2Ev = comdat any

$_ZSt11make_sharedIN19OpenColorIO_v2_4dev24CTFReaderGradingCurveEltEJRPKcRSt10shared_ptrINS0_21XmlReaderContainerEltEEjRKNSt7__cxx1112basic_stringIcSt11char_traitsIcESaIcEEEEES5_INSt9enable_ifIXntsr8is_arrayIT_EE5valueESI_E4typeEEDpOT0_ = comdat any

$_ZNSt10shared_ptrIN19OpenColorIO_v2_4dev24CTFReaderGradingCurveEltEED2Ev = comdat any

$_ZSt11make_sharedIN19OpenColorIO_v2_4dev30CTFReaderGradingCurvePointsEltEJRPKcRSt10shared_ptrINS0_21XmlReaderContainerEltEEjRKNSt7__cxx1112basic_stringIcSt11char_traitsIcESaIcEEEEES5_INSt9enable_ifIXntsr8is_arrayIT_EE5valueESI_E4typeEEDpOT0_ = comdat any

$_ZNSt10shared_ptrIN19OpenColorIO_v2_4dev30CTFReaderGradingCurvePointsEltEED2Ev = comdat any

$_ZSt11make_sharedIN19OpenColorIO_v2_4dev30CTFReaderGradingCurveSlopesEltEJRPKcRSt10shared_ptrINS0_21XmlReaderContainerEltEEjRKNSt7__cxx1112basic_stringIcSt11char_traitsIcESaIcEEEEES5_INSt9enable_ifIXntsr8is_arrayIT_EE5valueESI_E4typeEEDpOT0_ = comdat any

$_ZNSt10shared_ptrIN19OpenColorIO_v2_4dev30CTFReaderGradingCurveSlopesEltEED2Ev = comdat any

$_ZSt11make_sharedIN19OpenColorIO_v2_4dev28CTFReaderGradingToneParamEltEJRPKcRSt10shared_ptrINS0_21XmlReaderContainerEltEEjRKNSt7__cxx1112basic_stringIcSt11char_traitsIcESaIcEEEEES5_INSt9enable_ifIXntsr8is_arrayIT_EE5valueESI_E4typeEEDpOT0_ = comdat any

$_ZNSt10shared_ptrIN19OpenColorIO_v2_4dev28CTFReaderGradingToneParamEltEED2Ev = comdat any

$_ZSt11make_sharedIN19OpenColorIO_v2_4dev17XmlReaderDummyEltEJRPKcSt10shared_ptrINS0_16XmlReaderElementEEjRKNSt7__cxx1112basic_stringIcSt11char_traitsIcESaIcEEES3_EES5_INSt9enable_ifIXntsr8is_arrayIT_EE5valueESH_E4typeEEDpOT0_ = comdat any

$_ZSt11make_sharedIN19OpenColorIO_v2_4dev17XmlReaderDummyEltEJRPKcSt10shared_ptrINS0_16XmlReaderElementEEjRKNSt7__cxx1112basic_stringIcSt11char_traitsIcESaIcEEERA16_S2_EES5_INSt9enable_ifIXntsr8is_arrayIT_EE5valueESJ_E4typeEEDpOT0_ = comdat any

$_ZNSt23_Sp_counted_ptr_inplaceIN19OpenColorIO_v2_4dev20CTFReaderMetadataEltESaIvELN9__gnu_cxx12_Lock_policyE2EED2Ev = comdat any

$_ZNSt23_Sp_counted_ptr_inplaceIN19OpenColorIO_v2_4dev20CTFReaderMetadataEltESaIvELN9__gnu_cxx12_Lock_policyE2EED0Ev = comdat any

$_ZNSt23_Sp_counted_ptr_inplaceIN19OpenColorIO_v2_4dev20CTFReaderMetadataEltESaIvELN9__gnu_cxx12_Lock_policyE2EE10_M_disposeEv = comdat any

$_ZNSt23_Sp_counted_ptr_inplaceIN19OpenColorIO_v2_4dev20CTFReaderMetadataEltESaIvELN9__gnu_cxx12_Lock_policyE2EE10_M_destroyEv = comdat any

$_ZNSt23_Sp_counted_ptr_inplaceIN19OpenColorIO_v2_4dev20CTFReaderMetadataEltESaIvELN9__gnu_cxx12_Lock_policyE2EE14_M_get_deleterERKSt9type_info = comdat any

$_ZSt10_ConstructIN19OpenColorIO_v2_4dev20CTFReaderMetadataEltEJRPKcRSt10shared_ptrIS1_ERjRNSt7__cxx1112basic_stringIcSt11char_traitsIcESaIcEEEEEvPT_DpOT0_ = comdat any

$_ZNSt23_Sp_counted_ptr_inplaceIN19OpenColorIO_v2_4dev17XmlReaderDummyEltESaIvELN9__gnu_cxx12_Lock_policyE2EED2Ev = comdat any

$_ZNSt23_Sp_counted_ptr_inplaceIN19OpenColorIO_v2_4dev17XmlReaderDummyEltESaIvELN9__gnu_cxx12_Lock_policyE2EED0Ev = comdat any

$_ZNSt23_Sp_counted_ptr_inplaceIN19OpenColorIO_v2_4dev17XmlReaderDummyEltESaIvELN9__gnu_cxx12_Lock_policyE2EE10_M_disposeEv = comdat any

$_ZNSt23_Sp_counted_ptr_inplaceIN19OpenColorIO_v2_4dev17XmlReaderDummyEltESaIvELN9__gnu_cxx12_Lock_policyE2EE10_M_destroyEv = comdat any

$_ZNSt23_Sp_counted_ptr_inplaceIN19OpenColorIO_v2_4dev17XmlReaderDummyEltESaIvELN9__gnu_cxx12_Lock_policyE2EE14_M_get_deleterERKSt9type_info = comdat any

$_ZSt10_ConstructIN19OpenColorIO_v2_4dev17XmlReaderDummyEltEJRPKcRSt10shared_ptrINS0_21CTFReaderTransformEltEEjRKNSt7__cxx1112basic_stringIcSt11char_traitsIcESaIcEEERA29_S2_EEvPT_DpOT0_ = comdat any

$_ZNSt23_Sp_counted_ptr_inplaceIN19OpenColorIO_v2_4dev21CTFReaderTransformEltESaIvELN9__gnu_cxx12_Lock_policyE2EED2Ev = comdat any

$_ZNSt23_Sp_counted_ptr_inplaceIN19OpenColorIO_v2_4dev21CTFReaderTransformEltESaIvELN9__gnu_cxx12_Lock_policyE2EED0Ev = comdat any

$_ZNSt23_Sp_counted_ptr_inplaceIN19OpenColorIO_v2_4dev21CTFReaderTransformEltESaIvELN9__gnu_cxx12_Lock_policyE2EE10_M_disposeEv = comdat any

$_ZNSt23_Sp_counted_ptr_inplaceIN19OpenColorIO_v2_4dev21CTFReaderTransformEltESaIvELN9__gnu_cxx12_Lock_policyE2EE10_M_destroyEv = comdat any

$_ZNSt23_Sp_counted_ptr_inplaceIN19OpenColorIO_v2_4dev21CTFReaderTransformEltESaIvELN9__gnu_cxx12_Lock_policyE2EE14_M_get_deleterERKSt9type_info = comdat any

$_ZSt10_ConstructIN19OpenColorIO_v2_4dev21CTFReaderTransformEltEJRPKcjRKNSt7__cxx1112basic_stringIcSt11char_traitsIcESaIcEEEbEEvPT_DpOT0_ = comdat any

$_ZSt10_ConstructIN19OpenColorIO_v2_4dev17XmlReaderDummyEltEJRPKcRSt10shared_ptrINS0_16XmlReaderElementEEjRKNSt7__cxx1112basic_stringIcSt11char_traitsIcESaIcEEEDnEEvPT_DpOT0_ = comdat any

$_ZNSt23_Sp_counted_ptr_inplaceIN19OpenColorIO_v2_4dev22CTFReaderACESParamsEltESaIvELN9__gnu_cxx12_Lock_policyE2EED2Ev = comdat any

$_ZNSt23_Sp_counted_ptr_inplaceIN19OpenColorIO_v2_4dev22CTFReaderACESParamsEltESaIvELN9__gnu_cxx12_Lock_policyE2EED0Ev = comdat any

$_ZNSt23_Sp_counted_ptr_inplaceIN19OpenColorIO_v2_4dev22CTFReaderACESParamsEltESaIvELN9__gnu_cxx12_Lock_policyE2EE10_M_disposeEv = comdat any

$_ZNSt23_Sp_counted_ptr_inplaceIN19OpenColorIO_v2_4dev22CTFReaderACESParamsEltESaIvELN9__gnu_cxx12_Lock_policyE2EE10_M_destroyEv = comdat any

$_ZNSt23_Sp_counted_ptr_inplaceIN19OpenColorIO_v2_4dev22CTFReaderACESParamsEltESaIvELN9__gnu_cxx12_Lock_policyE2EE14_M_get_deleterERKSt9type_info = comdat any

$_ZSt10_ConstructIN19OpenColorIO_v2_4dev22CTFReaderACESParamsEltEJRPKcRSt10shared_ptrINS0_21XmlReaderContainerEltEEjRKNSt7__cxx1112basic_stringIcSt11char_traitsIcESaIcEEEEEvPT_DpOT0_ = comdat any

$_ZSt10_ConstructIN19OpenColorIO_v2_4dev17XmlReaderDummyEltEJRPKcSt10shared_ptrINS0_16XmlReaderElementEEjRKNSt7__cxx1112basic_stringIcSt11char_traitsIcESaIcEEERA34_S2_EEvPT_DpOT0_ = comdat any

$_ZSt10_ConstructIN19OpenColorIO_v2_4dev17XmlReaderDummyEltEJRPKcSt10shared_ptrINS0_16XmlReaderElementEEjRKNSt7__cxx1112basic_stringIcSt11char_traitsIcESaIcEEERA30_S2_EEvPT_DpOT0_ = comdat any

$_ZNSt23_Sp_counted_ptr_inplaceIN19OpenColorIO_v2_4dev17CTFReaderArrayEltESaIvELN9__gnu_cxx12_Lock_policyE2EED2Ev = comdat any

$_ZNSt23_Sp_counted_ptr_inplaceIN19OpenColorIO_v2_4dev17CTFReaderArrayEltESaIvELN9__gnu_cxx12_Lock_policyE2EED0Ev = comdat any

$_ZNSt23_Sp_counted_ptr_inplaceIN19OpenColorIO_v2_4dev17CTFReaderArrayEltESaIvELN9__gnu_cxx12_Lock_policyE2EE10_M_disposeEv = comdat any

$_ZNSt23_Sp_counted_ptr_inplaceIN19OpenColorIO_v2_4dev17CTFReaderArrayEltESaIvELN9__gnu_cxx12_Lock_policyE2EE10_M_destroyEv = comdat any

$_ZNSt23_Sp_counted_ptr_inplaceIN19OpenColorIO_v2_4dev17CTFReaderArrayEltESaIvELN9__gnu_cxx12_Lock_policyE2EE14_M_get_deleterERKSt9type_info = comdat any

$_ZSt10_ConstructIN19OpenColorIO_v2_4dev17CTFReaderArrayEltEJRPKcRSt10shared_ptrINS0_21XmlReaderContainerEltEEjRKNSt7__cxx1112basic_stringIcSt11char_traitsIcESaIcEEEEEvPT_DpOT0_ = comdat any

$_ZNSt23_Sp_counted_ptr_inplaceIN19OpenColorIO_v2_4dev23XmlReaderDescriptionEltESaIvELN9__gnu_cxx12_Lock_policyE2EED2Ev = comdat any

$_ZNSt23_Sp_counted_ptr_inplaceIN19OpenColorIO_v2_4dev23XmlReaderDescriptionEltESaIvELN9__gnu_cxx12_Lock_policyE2EED0Ev = comdat any

$_ZNSt23_Sp_counted_ptr_inplaceIN19OpenColorIO_v2_4dev23XmlReaderDescriptionEltESaIvELN9__gnu_cxx12_Lock_policyE2EE10_M_disposeEv = comdat any

$_ZNSt23_Sp_counted_ptr_inplaceIN19OpenColorIO_v2_4dev23XmlReaderDescriptionEltESaIvELN9__gnu_cxx12_Lock_policyE2EE10_M_destroyEv = comdat any

$_ZNSt23_Sp_counted_ptr_inplaceIN19OpenColorIO_v2_4dev23XmlReaderDescriptionEltESaIvELN9__gnu_cxx12_Lock_policyE2EE14_M_get_deleterERKSt9type_info = comdat any

$_ZSt10_ConstructIN19OpenColorIO_v2_4dev23XmlReaderDescriptionEltEJRPKcRSt10shared_ptrINS0_21XmlReaderContainerEltEEjRKNSt7__cxx1112basic_stringIcSt11char_traitsIcESaIcEEEEEvPT_DpOT0_ = comdat any

$_ZN19OpenColorIO_v2_4dev23XmlReaderDescriptionEltC2ERKNSt7__cxx1112basic_stringIcSt11char_traitsIcESaIcEEERSt10shared_ptrINS_21XmlReaderContainerEltEEjS8_ = comdat any

$_ZN19OpenColorIO_v2_4dev17XmlReaderPlainEltD2Ev = comdat any

$_ZN19OpenColorIO_v2_4dev17XmlReaderPlainEltD0Ev = comdat any

$_ZNK19OpenColorIO_v2_4dev17XmlReaderPlainElt11isContainerEv = comdat any

$_ZNK19OpenColorIO_v2_4dev17XmlReaderPlainElt13getIdentifierB5cxx11Ev = comdat any

$_ZNK19OpenColorIO_v2_4dev17XmlReaderPlainElt11getTypeNameEv = comdat any

$_ZNK19OpenColorIO_v2_4dev16XmlReaderElement7isDummyEv = comdat any

$_ZNSt23_Sp_counted_ptr_inplaceIN19OpenColorIO_v2_4dev24CTFReaderDynamicParamEltESaIvELN9__gnu_cxx12_Lock_policyE2EED2Ev = comdat any

$_ZNSt23_Sp_counted_ptr_inplaceIN19OpenColorIO_v2_4dev24CTFReaderDynamicParamEltESaIvELN9__gnu_cxx12_Lock_policyE2EED0Ev = comdat any

$_ZNSt23_Sp_counted_ptr_inplaceIN19OpenColorIO_v2_4dev24CTFReaderDynamicParamEltESaIvELN9__gnu_cxx12_Lock_policyE2EE10_M_disposeEv = comdat any

$_ZNSt23_Sp_counted_ptr_inplaceIN19OpenColorIO_v2_4dev24CTFReaderDynamicParamEltESaIvELN9__gnu_cxx12_Lock_policyE2EE10_M_destroyEv = comdat any

$_ZNSt23_Sp_counted_ptr_inplaceIN19OpenColorIO_v2_4dev24CTFReaderDynamicParamEltESaIvELN9__gnu_cxx12_Lock_policyE2EE14_M_get_deleterERKSt9type_info = comdat any

$_ZSt10_ConstructIN19OpenColorIO_v2_4dev24CTFReaderDynamicParamEltEJRPKcRSt10shared_ptrINS0_21XmlReaderContainerEltEEjRKNSt7__cxx1112basic_stringIcSt11char_traitsIcESaIcEEEEEvPT_DpOT0_ = comdat any

$_ZNSt23_Sp_counted_ptr_inplaceIN19OpenColorIO_v2_4dev20CTFReaderECParamsEltESaIvELN9__gnu_cxx12_Lock_policyE2EED2Ev = comdat any

$_ZNSt23_Sp_counted_ptr_inplaceIN19OpenColorIO_v2_4dev20CTFReaderECParamsEltESaIvELN9__gnu_cxx12_Lock_policyE2EED0Ev = comdat any

$_ZNSt23_Sp_counted_ptr_inplaceIN19OpenColorIO_v2_4dev20CTFReaderECParamsEltESaIvELN9__gnu_cxx12_Lock_policyE2EE10_M_disposeEv = comdat any

$_ZNSt23_Sp_counted_ptr_inplaceIN19OpenColorIO_v2_4dev20CTFReaderECParamsEltESaIvELN9__gnu_cxx12_Lock_policyE2EE10_M_destroyEv = comdat any

$_ZNSt23_Sp_counted_ptr_inplaceIN19OpenColorIO_v2_4dev20CTFReaderECParamsEltESaIvELN9__gnu_cxx12_Lock_policyE2EE14_M_get_deleterERKSt9type_info = comdat any

$_ZSt10_ConstructIN19OpenColorIO_v2_4dev20CTFReaderECParamsEltEJRPKcRSt10shared_ptrINS0_21XmlReaderContainerEltEEjRKNSt7__cxx1112basic_stringIcSt11char_traitsIcESaIcEEEEEvPT_DpOT0_ = comdat any

$_ZSt10_ConstructIN19OpenColorIO_v2_4dev17XmlReaderDummyEltEJRPKcSt10shared_ptrINS0_16XmlReaderElementEEjRKNSt7__cxx1112basic_stringIcSt11char_traitsIcESaIcEEERA37_S2_EEvPT_DpOT0_ = comdat any

$_ZNSt23_Sp_counted_ptr_inplaceIN19OpenColorIO_v2_4dev20CTFReaderIndexMapEltESaIvELN9__gnu_cxx12_Lock_policyE2EED2Ev = comdat any

$_ZNSt23_Sp_counted_ptr_inplaceIN19OpenColorIO_v2_4dev20CTFReaderIndexMapEltESaIvELN9__gnu_cxx12_Lock_policyE2EED0Ev = comdat any

$_ZNSt23_Sp_counted_ptr_inplaceIN19OpenColorIO_v2_4dev20CTFReaderIndexMapEltESaIvELN9__gnu_cxx12_Lock_policyE2EE10_M_disposeEv = comdat any

$_ZNSt23_Sp_counted_ptr_inplaceIN19OpenColorIO_v2_4dev20CTFReaderIndexMapEltESaIvELN9__gnu_cxx12_Lock_policyE2EE10_M_destroyEv = comdat any

$_ZNSt23_Sp_counted_ptr_inplaceIN19OpenColorIO_v2_4dev20CTFReaderIndexMapEltESaIvELN9__gnu_cxx12_Lock_policyE2EE14_M_get_deleterERKSt9type_info = comdat any

$_ZSt10_ConstructIN19OpenColorIO_v2_4dev20CTFReaderIndexMapEltEJRPKcRSt10shared_ptrINS0_21XmlReaderContainerEltEEjRKNSt7__cxx1112basic_stringIcSt11char_traitsIcESaIcEEEEEvPT_DpOT0_ = comdat any

$_ZNSt23_Sp_counted_ptr_inplaceIN19OpenColorIO_v2_4dev16CTFReaderInfoEltESaIvELN9__gnu_cxx12_Lock_policyE2EED2Ev = comdat any

$_ZNSt23_Sp_counted_ptr_inplaceIN19OpenColorIO_v2_4dev16CTFReaderInfoEltESaIvELN9__gnu_cxx12_Lock_policyE2EED0Ev = comdat any

$_ZNSt23_Sp_counted_ptr_inplaceIN19OpenColorIO_v2_4dev16CTFReaderInfoEltESaIvELN9__gnu_cxx12_Lock_policyE2EE10_M_disposeEv = comdat any

$_ZNSt23_Sp_counted_ptr_inplaceIN19OpenColorIO_v2_4dev16CTFReaderInfoEltESaIvELN9__gnu_cxx12_Lock_policyE2EE10_M_destroyEv = comdat any

$_ZNSt23_Sp_counted_ptr_inplaceIN19OpenColorIO_v2_4dev16CTFReaderInfoEltESaIvELN9__gnu_cxx12_Lock_policyE2EE14_M_get_deleterERKSt9type_info = comdat any

$_ZSt10_ConstructIN19OpenColorIO_v2_4dev16CTFReaderInfoEltEJRPKcRSt10shared_ptrINS0_21XmlReaderContainerEltEEjRKNSt7__cxx1112basic_stringIcSt11char_traitsIcESaIcEEEEEvPT_DpOT0_ = comdat any

$_ZNSt23_Sp_counted_ptr_inplaceIN19OpenColorIO_v2_4dev27CTFReaderInputDescriptorEltESaIvELN9__gnu_cxx12_Lock_policyE2EED2Ev = comdat any

$_ZNSt23_Sp_counted_ptr_inplaceIN19OpenColorIO_v2_4dev27CTFReaderInputDescriptorEltESaIvELN9__gnu_cxx12_Lock_policyE2EED0Ev = comdat any

$_ZNSt23_Sp_counted_ptr_inplaceIN19OpenColorIO_v2_4dev27CTFReaderInputDescriptorEltESaIvELN9__gnu_cxx12_Lock_policyE2EE10_M_disposeEv = comdat any

$_ZNSt23_Sp_counted_ptr_inplaceIN19OpenColorIO_v2_4dev27CTFReaderInputDescriptorEltESaIvELN9__gnu_cxx12_Lock_policyE2EE10_M_destroyEv = comdat any

$_ZNSt23_Sp_counted_ptr_inplaceIN19OpenColorIO_v2_4dev27CTFReaderInputDescriptorEltESaIvELN9__gnu_cxx12_Lock_policyE2EE14_M_get_deleterERKSt9type_info = comdat any

$_ZSt10_ConstructIN19OpenColorIO_v2_4dev27CTFReaderInputDescriptorEltEJRPKcRSt10shared_ptrINS0_21XmlReaderContainerEltEEjRKNSt7__cxx1112basic_stringIcSt11char_traitsIcESaIcEEEEEvPT_DpOT0_ = comdat any

$_ZN19OpenColorIO_v2_4dev27CTFReaderInputDescriptorEltC2ERKNSt7__cxx1112basic_stringIcSt11char_traitsIcESaIcEEESt10shared_ptrINS_21XmlReaderContainerEltEEjS8_ = comdat any

$_ZN19OpenColorIO_v2_4dev27CTFReaderInputDescriptorEltD2Ev = comdat any

$_ZN19OpenColorIO_v2_4dev27CTFReaderInputDescriptorEltD0Ev = comdat any

$_ZN19OpenColorIO_v2_4dev27CTFReaderInputDescriptorElt5startEPPKc = comdat any

$_ZN19OpenColorIO_v2_4dev27CTFReaderInputDescriptorElt3endEv = comdat any

$_ZN19OpenColorIO_v2_4dev27CTFReaderInputDescriptorElt10setRawDataEPKcmj = comdat any

$_ZSt10_ConstructIN19OpenColorIO_v2_4dev17XmlReaderDummyEltEJRPKcSt10shared_ptrINS0_16XmlReaderElementEEjRKNSt7__cxx1112basic_stringIcSt11char_traitsIcESaIcEEERA39_S2_EEvPT_DpOT0_ = comdat any

$_ZNSt23_Sp_counted_ptr_inplaceIN19OpenColorIO_v2_4dev28CTFReaderOutputDescriptorEltESaIvELN9__gnu_cxx12_Lock_policyE2EED2Ev = comdat any

$_ZNSt23_Sp_counted_ptr_inplaceIN19OpenColorIO_v2_4dev28CTFReaderOutputDescriptorEltESaIvELN9__gnu_cxx12_Lock_policyE2EED0Ev = comdat any

$_ZNSt23_Sp_counted_ptr_inplaceIN19OpenColorIO_v2_4dev28CTFReaderOutputDescriptorEltESaIvELN9__gnu_cxx12_Lock_policyE2EE10_M_disposeEv = comdat any

$_ZNSt23_Sp_counted_ptr_inplaceIN19OpenColorIO_v2_4dev28CTFReaderOutputDescriptorEltESaIvELN9__gnu_cxx12_Lock_policyE2EE10_M_destroyEv = comdat any

$_ZNSt23_Sp_counted_ptr_inplaceIN19OpenColorIO_v2_4dev28CTFReaderOutputDescriptorEltESaIvELN9__gnu_cxx12_Lock_policyE2EE14_M_get_deleterERKSt9type_info = comdat any

$_ZSt10_ConstructIN19OpenColorIO_v2_4dev28CTFReaderOutputDescriptorEltEJRPKcRSt10shared_ptrINS0_21XmlReaderContainerEltEEjRKNSt7__cxx1112basic_stringIcSt11char_traitsIcESaIcEEEEEvPT_DpOT0_ = comdat any

$_ZN19OpenColorIO_v2_4dev28CTFReaderOutputDescriptorEltC2ERKNSt7__cxx1112basic_stringIcSt11char_traitsIcESaIcEEESt10shared_ptrINS_21XmlReaderContainerEltEEjS8_ = comdat any

$_ZN19OpenColorIO_v2_4dev28CTFReaderOutputDescriptorEltD2Ev = comdat any

$_ZN19OpenColorIO_v2_4dev28CTFReaderOutputDescriptorEltD0Ev = comdat any

$_ZN19OpenColorIO_v2_4dev28CTFReaderOutputDescriptorElt5startEPPKc = comdat any

$_ZN19OpenColorIO_v2_4dev28CTFReaderOutputDescriptorElt3endEv = comdat any

$_ZN19OpenColorIO_v2_4dev28CTFReaderOutputDescriptorElt10setRawDataEPKcmj = comdat any

$_ZNSt23_Sp_counted_ptr_inplaceIN19OpenColorIO_v2_4dev22CTFReaderRangeValueEltESaIvELN9__gnu_cxx12_Lock_policyE2EED2Ev = comdat any

$_ZNSt23_Sp_counted_ptr_inplaceIN19OpenColorIO_v2_4dev22CTFReaderRangeValueEltESaIvELN9__gnu_cxx12_Lock_policyE2EED0Ev = comdat any

$_ZNSt23_Sp_counted_ptr_inplaceIN19OpenColorIO_v2_4dev22CTFReaderRangeValueEltESaIvELN9__gnu_cxx12_Lock_policyE2EE10_M_disposeEv = comdat any

$_ZNSt23_Sp_counted_ptr_inplaceIN19OpenColorIO_v2_4dev22CTFReaderRangeValueEltESaIvELN9__gnu_cxx12_Lock_policyE2EE10_M_destroyEv = comdat any

$_ZNSt23_Sp_counted_ptr_inplaceIN19OpenColorIO_v2_4dev22CTFReaderRangeValueEltESaIvELN9__gnu_cxx12_Lock_policyE2EE14_M_get_deleterERKSt9type_info = comdat any

$_ZSt10_ConstructIN19OpenColorIO_v2_4dev22CTFReaderRangeValueEltEJRPKcRSt10shared_ptrINS0_21XmlReaderContainerEltEEjRKNSt7__cxx1112basic_stringIcSt11char_traitsIcESaIcEEEEEvPT_DpOT0_ = comdat any

$_ZNSt23_Sp_counted_ptr_inplaceIN19OpenColorIO_v2_4dev19CTFReaderSatNodeEltESaIvELN9__gnu_cxx12_Lock_policyE2EED2Ev = comdat any

$_ZNSt23_Sp_counted_ptr_inplaceIN19OpenColorIO_v2_4dev19CTFReaderSatNodeEltESaIvELN9__gnu_cxx12_Lock_policyE2EED0Ev = comdat any

$_ZNSt23_Sp_counted_ptr_inplaceIN19OpenColorIO_v2_4dev19CTFReaderSatNodeEltESaIvELN9__gnu_cxx12_Lock_policyE2EE10_M_disposeEv = comdat any

$_ZNSt23_Sp_counted_ptr_inplaceIN19OpenColorIO_v2_4dev19CTFReaderSatNodeEltESaIvELN9__gnu_cxx12_Lock_policyE2EE10_M_destroyEv = comdat any

$_ZNSt23_Sp_counted_ptr_inplaceIN19OpenColorIO_v2_4dev19CTFReaderSatNodeEltESaIvELN9__gnu_cxx12_Lock_policyE2EE14_M_get_deleterERKSt9type_info = comdat any

$_ZSt10_ConstructIN19OpenColorIO_v2_4dev19CTFReaderSatNodeEltEJRPKcRSt10shared_ptrINS0_15CTFReaderCDLEltEEjRKNSt7__cxx1112basic_stringIcSt11char_traitsIcESaIcEEEEEvPT_DpOT0_ = comdat any

$_ZNSt23_Sp_counted_ptr_inplaceIN19OpenColorIO_v2_4dev22XmlReaderSaturationEltESaIvELN9__gnu_cxx12_Lock_policyE2EED2Ev = comdat any

$_ZNSt23_Sp_counted_ptr_inplaceIN19OpenColorIO_v2_4dev22XmlReaderSaturationEltESaIvELN9__gnu_cxx12_Lock_policyE2EED0Ev = comdat any

$_ZNSt23_Sp_counted_ptr_inplaceIN19OpenColorIO_v2_4dev22XmlReaderSaturationEltESaIvELN9__gnu_cxx12_Lock_policyE2EE10_M_disposeEv = comdat any

$_ZNSt23_Sp_counted_ptr_inplaceIN19OpenColorIO_v2_4dev22XmlReaderSaturationEltESaIvELN9__gnu_cxx12_Lock_policyE2EE10_M_destroyEv = comdat any

$_ZNSt23_Sp_counted_ptr_inplaceIN19OpenColorIO_v2_4dev22XmlReaderSaturationEltESaIvELN9__gnu_cxx12_Lock_policyE2EE14_M_get_deleterERKSt9type_info = comdat any

$_ZSt10_ConstructIN19OpenColorIO_v2_4dev22XmlReaderSaturationEltEJRPKcRSt10shared_ptrINS0_21XmlReaderContainerEltEEjRKNSt7__cxx1112basic_stringIcSt11char_traitsIcESaIcEEEEEvPT_DpOT0_ = comdat any

$_ZNSt23_Sp_counted_ptr_inplaceIN19OpenColorIO_v2_4dev19CTFReaderSOPNodeEltESaIvELN9__gnu_cxx12_Lock_policyE2EED2Ev = comdat any

$_ZNSt23_Sp_counted_ptr_inplaceIN19OpenColorIO_v2_4dev19CTFReaderSOPNodeEltESaIvELN9__gnu_cxx12_Lock_policyE2EED0Ev = comdat any

$_ZNSt23_Sp_counted_ptr_inplaceIN19OpenColorIO_v2_4dev19CTFReaderSOPNodeEltESaIvELN9__gnu_cxx12_Lock_policyE2EE10_M_disposeEv = comdat any

$_ZNSt23_Sp_counted_ptr_inplaceIN19OpenColorIO_v2_4dev19CTFReaderSOPNodeEltESaIvELN9__gnu_cxx12_Lock_policyE2EE10_M_destroyEv = comdat any

$_ZNSt23_Sp_counted_ptr_inplaceIN19OpenColorIO_v2_4dev19CTFReaderSOPNodeEltESaIvELN9__gnu_cxx12_Lock_policyE2EE14_M_get_deleterERKSt9type_info = comdat any

$_ZSt10_ConstructIN19OpenColorIO_v2_4dev19CTFReaderSOPNodeEltEJRPKcRSt10shared_ptrINS0_15CTFReaderCDLEltEEjRKNSt7__cxx1112basic_stringIcSt11char_traitsIcESaIcEEEEEvPT_DpOT0_ = comdat any

$_ZNSt23_Sp_counted_ptr_inplaceIN19OpenColorIO_v2_4dev20XmlReaderSOPValueEltESaIvELN9__gnu_cxx12_Lock_policyE2EED2Ev = comdat any

$_ZNSt23_Sp_counted_ptr_inplaceIN19OpenColorIO_v2_4dev20XmlReaderSOPValueEltESaIvELN9__gnu_cxx12_Lock_policyE2EED0Ev = comdat any

$_ZNSt23_Sp_counted_ptr_inplaceIN19OpenColorIO_v2_4dev20XmlReaderSOPValueEltESaIvELN9__gnu_cxx12_Lock_policyE2EE10_M_disposeEv = comdat any

$_ZNSt23_Sp_counted_ptr_inplaceIN19OpenColorIO_v2_4dev20XmlReaderSOPValueEltESaIvELN9__gnu_cxx12_Lock_policyE2EE10_M_destroyEv = comdat any

$_ZNSt23_Sp_counted_ptr_inplaceIN19OpenColorIO_v2_4dev20XmlReaderSOPValueEltESaIvELN9__gnu_cxx12_Lock_policyE2EE14_M_get_deleterERKSt9type_info = comdat any

$_ZSt10_ConstructIN19OpenColorIO_v2_4dev20XmlReaderSOPValueEltEJRPKcRSt10shared_ptrINS0_21XmlReaderContainerEltEEjRKNSt7__cxx1112basic_stringIcSt11char_traitsIcESaIcEEEEEvPT_DpOT0_ = comdat any

$_ZNSt23_Sp_counted_ptr_inplaceIN19OpenColorIO_v2_4dev31CTFReaderGradingPrimaryParamEltESaIvELN9__gnu_cxx12_Lock_policyE2EED2Ev = comdat any

$_ZNSt23_Sp_counted_ptr_inplaceIN19OpenColorIO_v2_4dev31CTFReaderGradingPrimaryParamEltESaIvELN9__gnu_cxx12_Lock_policyE2EED0Ev = comdat any

$_ZNSt23_Sp_counted_ptr_inplaceIN19OpenColorIO_v2_4dev31CTFReaderGradingPrimaryParamEltESaIvELN9__gnu_cxx12_Lock_policyE2EE10_M_disposeEv = comdat any

$_ZNSt23_Sp_counted_ptr_inplaceIN19OpenColorIO_v2_4dev31CTFReaderGradingPrimaryParamEltESaIvELN9__gnu_cxx12_Lock_policyE2EE10_M_destroyEv = comdat any

$_ZNSt23_Sp_counted_ptr_inplaceIN19OpenColorIO_v2_4dev31CTFReaderGradingPrimaryParamEltESaIvELN9__gnu_cxx12_Lock_policyE2EE14_M_get_deleterERKSt9type_info = comdat any

$_ZSt10_ConstructIN19OpenColorIO_v2_4dev31CTFReaderGradingPrimaryParamEltEJRPKcRSt10shared_ptrINS0_21XmlReaderContainerEltEEjRKNSt7__cxx1112basic_stringIcSt11char_traitsIcESaIcEEEEEvPT_DpOT0_ = comdat any

$_ZNSt23_Sp_counted_ptr_inplaceIN19OpenColorIO_v2_4dev24CTFReaderGradingCurveEltESaIvELN9__gnu_cxx12_Lock_policyE2EED2Ev = comdat any

$_ZNSt23_Sp_counted_ptr_inplaceIN19OpenColorIO_v2_4dev24CTFReaderGradingCurveEltESaIvELN9__gnu_cxx12_Lock_policyE2EED0Ev = comdat any

$_ZNSt23_Sp_counted_ptr_inplaceIN19OpenColorIO_v2_4dev24CTFReaderGradingCurveEltESaIvELN9__gnu_cxx12_Lock_policyE2EE10_M_disposeEv = comdat any

$_ZNSt23_Sp_counted_ptr_inplaceIN19OpenColorIO_v2_4dev24CTFReaderGradingCurveEltESaIvELN9__gnu_cxx12_Lock_policyE2EE10_M_destroyEv = comdat any

$_ZNSt23_Sp_counted_ptr_inplaceIN19OpenColorIO_v2_4dev24CTFReaderGradingCurveEltESaIvELN9__gnu_cxx12_Lock_policyE2EE14_M_get_deleterERKSt9type_info = comdat any

$_ZSt10_ConstructIN19OpenColorIO_v2_4dev24CTFReaderGradingCurveEltEJRPKcRSt10shared_ptrINS0_21XmlReaderContainerEltEEjRKNSt7__cxx1112basic_stringIcSt11char_traitsIcESaIcEEEEEvPT_DpOT0_ = comdat any

$_ZNSt23_Sp_counted_ptr_inplaceIN19OpenColorIO_v2_4dev30CTFReaderGradingCurvePointsEltESaIvELN9__gnu_cxx12_Lock_policyE2EED2Ev = comdat any

$_ZNSt23_Sp_counted_ptr_inplaceIN19OpenColorIO_v2_4dev30CTFReaderGradingCurvePointsEltESaIvELN9__gnu_cxx12_Lock_policyE2EED0Ev = comdat any

$_ZNSt23_Sp_counted_ptr_inplaceIN19OpenColorIO_v2_4dev30CTFReaderGradingCurvePointsEltESaIvELN9__gnu_cxx12_Lock_policyE2EE10_M_disposeEv = comdat any

$_ZNSt23_Sp_counted_ptr_inplaceIN19OpenColorIO_v2_4dev30CTFReaderGradingCurvePointsEltESaIvELN9__gnu_cxx12_Lock_policyE2EE10_M_destroyEv = comdat any

$_ZNSt23_Sp_counted_ptr_inplaceIN19OpenColorIO_v2_4dev30CTFReaderGradingCurvePointsEltESaIvELN9__gnu_cxx12_Lock_policyE2EE14_M_get_deleterERKSt9type_info = comdat any

$_ZSt10_ConstructIN19OpenColorIO_v2_4dev30CTFReaderGradingCurvePointsEltEJRPKcRSt10shared_ptrINS0_21XmlReaderContainerEltEEjRKNSt7__cxx1112basic_stringIcSt11char_traitsIcESaIcEEEEEvPT_DpOT0_ = comdat any

$_ZNSt23_Sp_counted_ptr_inplaceIN19OpenColorIO_v2_4dev30CTFReaderGradingCurveSlopesEltESaIvELN9__gnu_cxx12_Lock_policyE2EED2Ev = comdat any

$_ZNSt23_Sp_counted_ptr_inplaceIN19OpenColorIO_v2_4dev30CTFReaderGradingCurveSlopesEltESaIvELN9__gnu_cxx12_Lock_policyE2EED0Ev = comdat any

$_ZNSt23_Sp_counted_ptr_inplaceIN19OpenColorIO_v2_4dev30CTFReaderGradingCurveSlopesEltESaIvELN9__gnu_cxx12_Lock_policyE2EE10_M_disposeEv = comdat any

$_ZNSt23_Sp_counted_ptr_inplaceIN19OpenColorIO_v2_4dev30CTFReaderGradingCurveSlopesEltESaIvELN9__gnu_cxx12_Lock_policyE2EE10_M_destroyEv = comdat any

$_ZNSt23_Sp_counted_ptr_inplaceIN19OpenColorIO_v2_4dev30CTFReaderGradingCurveSlopesEltESaIvELN9__gnu_cxx12_Lock_policyE2EE14_M_get_deleterERKSt9type_info = comdat any

$_ZSt10_ConstructIN19OpenColorIO_v2_4dev30CTFReaderGradingCurveSlopesEltEJRPKcRSt10shared_ptrINS0_21XmlReaderContainerEltEEjRKNSt7__cxx1112basic_stringIcSt11char_traitsIcESaIcEEEEEvPT_DpOT0_ = comdat any

$_ZNSt23_Sp_counted_ptr_inplaceIN19OpenColorIO_v2_4dev28CTFReaderGradingToneParamEltESaIvELN9__gnu_cxx12_Lock_policyE2EED2Ev = comdat any

$_ZNSt23_Sp_counted_ptr_inplaceIN19OpenColorIO_v2_4dev28CTFReaderGradingToneParamEltESaIvELN9__gnu_cxx12_Lock_policyE2EED0Ev = comdat any

$_ZNSt23_Sp_counted_ptr_inplaceIN19OpenColorIO_v2_4dev28CTFReaderGradingToneParamEltESaIvELN9__gnu_cxx12_Lock_policyE2EE10_M_disposeEv = comdat any

$_ZNSt23_Sp_counted_ptr_inplaceIN19OpenColorIO_v2_4dev28CTFReaderGradingToneParamEltESaIvELN9__gnu_cxx12_Lock_policyE2EE10_M_destroyEv = comdat any

$_ZNSt23_Sp_counted_ptr_inplaceIN19OpenColorIO_v2_4dev28CTFReaderGradingToneParamEltESaIvELN9__gnu_cxx12_Lock_policyE2EE14_M_get_deleterERKSt9type_info = comdat any

$_ZSt10_ConstructIN19OpenColorIO_v2_4dev28CTFReaderGradingToneParamEltEJRPKcRSt10shared_ptrINS0_21XmlReaderContainerEltEEjRKNSt7__cxx1112basic_stringIcSt11char_traitsIcESaIcEEEEEvPT_DpOT0_ = comdat any

$_ZSt10_ConstructIN19OpenColorIO_v2_4dev17XmlReaderDummyEltEJRPKcSt10shared_ptrINS0_16XmlReaderElementEEjRKNSt7__cxx1112basic_stringIcSt11char_traitsIcESaIcEEES3_EEvPT_DpOT0_ = comdat any

$_ZSt10_ConstructIN19OpenColorIO_v2_4dev17XmlReaderDummyEltEJRPKcSt10shared_ptrINS0_16XmlReaderElementEEjRKNSt7__cxx1112basic_stringIcSt11char_traitsIcESaIcEEERA16_S2_EEvPT_DpOT0_ = comdat any

$_ZNSt10shared_ptrIN19OpenColorIO_v2_4dev17XmlReaderPlainEltEED2Ev = comdat any

$_ZNK19OpenColorIO_v2_4dev10CachedFile11getCDLGroupEv = comdat any

$_ZNSt10shared_ptrIN19OpenColorIO_v2_4dev11Lut1DOpDataEED2Ev = comdat any

$_ZNSt10shared_ptrIKN19OpenColorIO_v2_4dev12CPUProcessorEED2Ev = comdat any

$_ZNSt6vectorIfSaIfEEaSERKS1_ = comdat any

$_ZNSt10shared_ptrIN19OpenColorIO_v2_4dev11Lut3DOpDataEED2Ev = comdat any

$_ZNSt10shared_ptrIKN19OpenColorIO_v2_4dev2OpEED2Ev = comdat any

$_ZNSt10shared_ptrIKN19OpenColorIO_v2_4dev7ContextEED2Ev = comdat any

$_ZNSt10shared_ptrIN19OpenColorIO_v2_4dev14GroupTransformEED2Ev = comdat any

$_ZN19OpenColorIO_v2_4dev10OpRcPtrVecD2Ev = comdat any

$_ZNSt10shared_ptrIKN19OpenColorIO_v2_4dev6ConfigEED2Ev = comdat any

$_ZNSt23_Sp_counted_ptr_inplaceIN19OpenColorIO_v2_4dev11Lut1DOpDataESaIvELN9__gnu_cxx12_Lock_policyE2EED2Ev = comdat any

$_ZNSt23_Sp_counted_ptr_inplaceIN19OpenColorIO_v2_4dev11Lut1DOpDataESaIvELN9__gnu_cxx12_Lock_policyE2EED0Ev = comdat any

$_ZNSt23_Sp_counted_ptr_inplaceIN19OpenColorIO_v2_4dev11Lut1DOpDataESaIvELN9__gnu_cxx12_Lock_policyE2EE10_M_disposeEv = comdat any

$_ZNSt23_Sp_counted_ptr_inplaceIN19OpenColorIO_v2_4dev11Lut1DOpDataESaIvELN9__gnu_cxx12_Lock_policyE2EE10_M_destroyEv = comdat any

$_ZNSt23_Sp_counted_ptr_inplaceIN19OpenColorIO_v2_4dev11Lut1DOpDataESaIvELN9__gnu_cxx12_Lock_policyE2EE14_M_get_deleterERKSt9type_info = comdat any

$_ZNSt6vectorIfSaIfEE17_M_default_appendEm = comdat any

$_ZNSt23_Sp_counted_ptr_inplaceIN19OpenColorIO_v2_4dev11Lut3DOpDataESaIvELN9__gnu_cxx12_Lock_policyE2EED2Ev = comdat any

$_ZNSt23_Sp_counted_ptr_inplaceIN19OpenColorIO_v2_4dev11Lut3DOpDataESaIvELN9__gnu_cxx12_Lock_policyE2EED0Ev = comdat any

$_ZNSt23_Sp_counted_ptr_inplaceIN19OpenColorIO_v2_4dev11Lut3DOpDataESaIvELN9__gnu_cxx12_Lock_policyE2EE10_M_disposeEv = comdat any

$_ZNSt23_Sp_counted_ptr_inplaceIN19OpenColorIO_v2_4dev11Lut3DOpDataESaIvELN9__gnu_cxx12_Lock_policyE2EE10_M_destroyEv = comdat any

$_ZNSt23_Sp_counted_ptr_inplaceIN19OpenColorIO_v2_4dev11Lut3DOpDataESaIvELN9__gnu_cxx12_Lock_policyE2EE14_M_get_deleterERKSt9type_info = comdat any

$_ZNSt10shared_ptrIKN19OpenColorIO_v2_4dev18CTFReaderTransformEED2Ev = comdat any

$_ZNSt23_Sp_counted_ptr_inplaceIN19OpenColorIO_v2_4dev18CTFReaderTransformESaIvELN9__gnu_cxx12_Lock_policyE2EED2Ev = comdat any

$_ZNSt23_Sp_counted_ptr_inplaceIN19OpenColorIO_v2_4dev18CTFReaderTransformESaIvELN9__gnu_cxx12_Lock_policyE2EED0Ev = comdat any

$_ZNSt23_Sp_counted_ptr_inplaceIN19OpenColorIO_v2_4dev18CTFReaderTransformESaIvELN9__gnu_cxx12_Lock_policyE2EE10_M_disposeEv = comdat any

$_ZNSt23_Sp_counted_ptr_inplaceIN19OpenColorIO_v2_4dev18CTFReaderTransformESaIvELN9__gnu_cxx12_Lock_policyE2EE10_M_destroyEv = comdat any

$_ZNSt23_Sp_counted_ptr_inplaceIN19OpenColorIO_v2_4dev18CTFReaderTransformESaIvELN9__gnu_cxx12_Lock_policyE2EE14_M_get_deleterERKSt9type_info = comdat any

$_ZN19OpenColorIO_v2_4dev18CTFReaderTransformD2Ev = comdat any

$_ZNSt10shared_ptrIKN19OpenColorIO_v2_4dev6OpDataEED2Ev = comdat any

$_ZNSt10shared_ptrIKN19OpenColorIO_v2_4dev11Lut1DOpDataEED2Ev = comdat any

$_ZNSt10shared_ptrIKN19OpenColorIO_v2_4dev11Lut3DOpDataEED2Ev = comdat any

$_ZNSt10shared_ptrIN19OpenColorIO_v2_4dev13FileTransformEED2Ev = comdat any

$_ZNSt10shared_ptrIKN19OpenColorIO_v2_4dev15ReferenceOpDataEED2Ev = comdat any

$_ZTSN19OpenColorIO_v2_4dev21XmlReaderContainerEltE = comdat any

$_ZTIN19OpenColorIO_v2_4dev21XmlReaderContainerEltE = comdat any

$_ZTVSt23_Sp_counted_ptr_inplaceIN19OpenColorIO_v2_4dev20CTFReaderMetadataEltESaIvELN9__gnu_cxx12_Lock_policyE2EE = comdat any

$_ZTSSt23_Sp_counted_ptr_inplaceIN19OpenColorIO_v2_4dev20CTFReaderMetadataEltESaIvELN9__gnu_cxx12_Lock_policyE2EE = comdat any

$_ZTSSt16_Sp_counted_baseILN9__gnu_cxx12_Lock_policyE2EE = comdat any

$_ZTSSt11_Mutex_baseILN9__gnu_cxx12_Lock_policyE2EE = comdat any

$_ZTISt11_Mutex_baseILN9__gnu_cxx12_Lock_policyE2EE = comdat any

$_ZTISt16_Sp_counted_baseILN9__gnu_cxx12_Lock_policyE2EE = comdat any

$_ZTISt23_Sp_counted_ptr_inplaceIN19OpenColorIO_v2_4dev20CTFReaderMetadataEltESaIvELN9__gnu_cxx12_Lock_policyE2EE = comdat any

$_ZTSSt19_Sp_make_shared_tag = comdat any

$_ZZNSt19_Sp_make_shared_tag5_S_tiEvE5__tag = comdat any

$_ZTVSt23_Sp_counted_ptr_inplaceIN19OpenColorIO_v2_4dev17XmlReaderDummyEltESaIvELN9__gnu_cxx12_Lock_policyE2EE = comdat any

$_ZTSSt23_Sp_counted_ptr_inplaceIN19OpenColorIO_v2_4dev17XmlReaderDummyEltESaIvELN9__gnu_cxx12_Lock_policyE2EE = comdat any

$_ZTISt23_Sp_counted_ptr_inplaceIN19OpenColorIO_v2_4dev17XmlReaderDummyEltESaIvELN9__gnu_cxx12_Lock_policyE2EE = comdat any

$_ZTVSt23_Sp_counted_ptr_inplaceIN19OpenColorIO_v2_4dev21CTFReaderTransformEltESaIvELN9__gnu_cxx12_Lock_policyE2EE = comdat any

$_ZTSSt23_Sp_counted_ptr_inplaceIN19OpenColorIO_v2_4dev21CTFReaderTransformEltESaIvELN9__gnu_cxx12_Lock_policyE2EE = comdat any

$_ZTISt23_Sp_counted_ptr_inplaceIN19OpenColorIO_v2_4dev21CTFReaderTransformEltESaIvELN9__gnu_cxx12_Lock_policyE2EE = comdat any

$_ZTVSt23_Sp_counted_ptr_inplaceIN19OpenColorIO_v2_4dev22CTFReaderACESParamsEltESaIvELN9__gnu_cxx12_Lock_policyE2EE = comdat any

$_ZTSSt23_Sp_counted_ptr_inplaceIN19OpenColorIO_v2_4dev22CTFReaderACESParamsEltESaIvELN9__gnu_cxx12_Lock_policyE2EE = comdat any

$_ZTISt23_Sp_counted_ptr_inplaceIN19OpenColorIO_v2_4dev22CTFReaderACESParamsEltESaIvELN9__gnu_cxx12_Lock_policyE2EE = comdat any

$_ZTVSt23_Sp_counted_ptr_inplaceIN19OpenColorIO_v2_4dev17CTFReaderArrayEltESaIvELN9__gnu_cxx12_Lock_policyE2EE = comdat any

$_ZTSSt23_Sp_counted_ptr_inplaceIN19OpenColorIO_v2_4dev17CTFReaderArrayEltESaIvELN9__gnu_cxx12_Lock_policyE2EE = comdat any

$_ZTISt23_Sp_counted_ptr_inplaceIN19OpenColorIO_v2_4dev17CTFReaderArrayEltESaIvELN9__gnu_cxx12_Lock_policyE2EE = comdat any

$_ZTVSt23_Sp_counted_ptr_inplaceIN19OpenColorIO_v2_4dev23XmlReaderDescriptionEltESaIvELN9__gnu_cxx12_Lock_policyE2EE = comdat any

$_ZTSSt23_Sp_counted_ptr_inplaceIN19OpenColorIO_v2_4dev23XmlReaderDescriptionEltESaIvELN9__gnu_cxx12_Lock_policyE2EE = comdat any

$_ZTISt23_Sp_counted_ptr_inplaceIN19OpenColorIO_v2_4dev23XmlReaderDescriptionEltESaIvELN9__gnu_cxx12_Lock_policyE2EE = comdat any

$_ZTVN19OpenColorIO_v2_4dev17XmlReaderPlainEltE = comdat any

$_ZTSN19OpenColorIO_v2_4dev17XmlReaderPlainEltE = comdat any

$_ZTIN19OpenColorIO_v2_4dev17XmlReaderPlainEltE = comdat any

$_ZTVSt23_Sp_counted_ptr_inplaceIN19OpenColorIO_v2_4dev24CTFReaderDynamicParamEltESaIvELN9__gnu_cxx12_Lock_policyE2EE = comdat any

$_ZTSSt23_Sp_counted_ptr_inplaceIN19OpenColorIO_v2_4dev24CTFReaderDynamicParamEltESaIvELN9__gnu_cxx12_Lock_policyE2EE = comdat any

$_ZTISt23_Sp_counted_ptr_inplaceIN19OpenColorIO_v2_4dev24CTFReaderDynamicParamEltESaIvELN9__gnu_cxx12_Lock_policyE2EE = comdat any

$_ZTVSt23_Sp_counted_ptr_inplaceIN19OpenColorIO_v2_4dev20CTFReaderECParamsEltESaIvELN9__gnu_cxx12_Lock_policyE2EE = comdat any

$_ZTSSt23_Sp_counted_ptr_inplaceIN19OpenColorIO_v2_4dev20CTFReaderECParamsEltESaIvELN9__gnu_cxx12_Lock_policyE2EE = comdat any

$_ZTISt23_Sp_counted_ptr_inplaceIN19OpenColorIO_v2_4dev20CTFReaderECParamsEltESaIvELN9__gnu_cxx12_Lock_policyE2EE = comdat any

$_ZTSN19OpenColorIO_v2_4dev14CTFIndexMapMgtE = comdat any

$_ZTIN19OpenColorIO_v2_4dev14CTFIndexMapMgtE = comdat any

$_ZTVSt23_Sp_counted_ptr_inplaceIN19OpenColorIO_v2_4dev20CTFReaderIndexMapEltESaIvELN9__gnu_cxx12_Lock_policyE2EE = comdat any

$_ZTSSt23_Sp_counted_ptr_inplaceIN19OpenColorIO_v2_4dev20CTFReaderIndexMapEltESaIvELN9__gnu_cxx12_Lock_policyE2EE = comdat any

$_ZTISt23_Sp_counted_ptr_inplaceIN19OpenColorIO_v2_4dev20CTFReaderIndexMapEltESaIvELN9__gnu_cxx12_Lock_policyE2EE = comdat any

$_ZTVSt23_Sp_counted_ptr_inplaceIN19OpenColorIO_v2_4dev16CTFReaderInfoEltESaIvELN9__gnu_cxx12_Lock_policyE2EE = comdat any

$_ZTSSt23_Sp_counted_ptr_inplaceIN19OpenColorIO_v2_4dev16CTFReaderInfoEltESaIvELN9__gnu_cxx12_Lock_policyE2EE = comdat any

$_ZTISt23_Sp_counted_ptr_inplaceIN19OpenColorIO_v2_4dev16CTFReaderInfoEltESaIvELN9__gnu_cxx12_Lock_policyE2EE = comdat any

$_ZTVSt23_Sp_counted_ptr_inplaceIN19OpenColorIO_v2_4dev27CTFReaderInputDescriptorEltESaIvELN9__gnu_cxx12_Lock_policyE2EE = comdat any

$_ZTSSt23_Sp_counted_ptr_inplaceIN19OpenColorIO_v2_4dev27CTFReaderInputDescriptorEltESaIvELN9__gnu_cxx12_Lock_policyE2EE = comdat any

$_ZTISt23_Sp_counted_ptr_inplaceIN19OpenColorIO_v2_4dev27CTFReaderInputDescriptorEltESaIvELN9__gnu_cxx12_Lock_policyE2EE = comdat any

$_ZTVN19OpenColorIO_v2_4dev27CTFReaderInputDescriptorEltE = comdat any

$_ZTSN19OpenColorIO_v2_4dev27CTFReaderInputDescriptorEltE = comdat any

$_ZTIN19OpenColorIO_v2_4dev27CTFReaderInputDescriptorEltE = comdat any

$_ZTVSt23_Sp_counted_ptr_inplaceIN19OpenColorIO_v2_4dev28CTFReaderOutputDescriptorEltESaIvELN9__gnu_cxx12_Lock_policyE2EE = comdat any

$_ZTSSt23_Sp_counted_ptr_inplaceIN19OpenColorIO_v2_4dev28CTFReaderOutputDescriptorEltESaIvELN9__gnu_cxx12_Lock_policyE2EE = comdat any

$_ZTISt23_Sp_counted_ptr_inplaceIN19OpenColorIO_v2_4dev28CTFReaderOutputDescriptorEltESaIvELN9__gnu_cxx12_Lock_policyE2EE = comdat any

$_ZTVN19OpenColorIO_v2_4dev28CTFReaderOutputDescriptorEltE = comdat any

$_ZTSN19OpenColorIO_v2_4dev28CTFReaderOutputDescriptorEltE = comdat any

$_ZTIN19OpenColorIO_v2_4dev28CTFReaderOutputDescriptorEltE = comdat any

$_ZTVSt23_Sp_counted_ptr_inplaceIN19OpenColorIO_v2_4dev22CTFReaderRangeValueEltESaIvELN9__gnu_cxx12_Lock_policyE2EE = comdat any

$_ZTSSt23_Sp_counted_ptr_inplaceIN19OpenColorIO_v2_4dev22CTFReaderRangeValueEltESaIvELN9__gnu_cxx12_Lock_policyE2EE = comdat any

$_ZTISt23_Sp_counted_ptr_inplaceIN19OpenColorIO_v2_4dev22CTFReaderRangeValueEltESaIvELN9__gnu_cxx12_Lock_policyE2EE = comdat any

$_ZTVSt23_Sp_counted_ptr_inplaceIN19OpenColorIO_v2_4dev19CTFReaderSatNodeEltESaIvELN9__gnu_cxx12_Lock_policyE2EE = comdat any

$_ZTSSt23_Sp_counted_ptr_inplaceIN19OpenColorIO_v2_4dev19CTFReaderSatNodeEltESaIvELN9__gnu_cxx12_Lock_policyE2EE = comdat any

$_ZTISt23_Sp_counted_ptr_inplaceIN19OpenColorIO_v2_4dev19CTFReaderSatNodeEltESaIvELN9__gnu_cxx12_Lock_policyE2EE = comdat any

$_ZTVSt23_Sp_counted_ptr_inplaceIN19OpenColorIO_v2_4dev22XmlReaderSaturationEltESaIvELN9__gnu_cxx12_Lock_policyE2EE = comdat any

$_ZTSSt23_Sp_counted_ptr_inplaceIN19OpenColorIO_v2_4dev22XmlReaderSaturationEltESaIvELN9__gnu_cxx12_Lock_policyE2EE = comdat any

$_ZTISt23_Sp_counted_ptr_inplaceIN19OpenColorIO_v2_4dev22XmlReaderSaturationEltESaIvELN9__gnu_cxx12_Lock_policyE2EE = comdat any

$_ZTVSt23_Sp_counted_ptr_inplaceIN19OpenColorIO_v2_4dev19CTFReaderSOPNodeEltESaIvELN9__gnu_cxx12_Lock_policyE2EE = comdat any

$_ZTSSt23_Sp_counted_ptr_inplaceIN19OpenColorIO_v2_4dev19CTFReaderSOPNodeEltESaIvELN9__gnu_cxx12_Lock_policyE2EE = comdat any

$_ZTISt23_Sp_counted_ptr_inplaceIN19OpenColorIO_v2_4dev19CTFReaderSOPNodeEltESaIvELN9__gnu_cxx12_Lock_policyE2EE = comdat any

$_ZTVSt23_Sp_counted_ptr_inplaceIN19OpenColorIO_v2_4dev20XmlReaderSOPValueEltESaIvELN9__gnu_cxx12_Lock_policyE2EE = comdat any

$_ZTSSt23_Sp_counted_ptr_inplaceIN19OpenColorIO_v2_4dev20XmlReaderSOPValueEltESaIvELN9__gnu_cxx12_Lock_policyE2EE = comdat any

$_ZTISt23_Sp_counted_ptr_inplaceIN19OpenColorIO_v2_4dev20XmlReaderSOPValueEltESaIvELN9__gnu_cxx12_Lock_policyE2EE = comdat any

$_ZTVSt23_Sp_counted_ptr_inplaceIN19OpenColorIO_v2_4dev31CTFReaderGradingPrimaryParamEltESaIvELN9__gnu_cxx12_Lock_policyE2EE = comdat any

$_ZTSSt23_Sp_counted_ptr_inplaceIN19OpenColorIO_v2_4dev31CTFReaderGradingPrimaryParamEltESaIvELN9__gnu_cxx12_Lock_policyE2EE = comdat any

$_ZTISt23_Sp_counted_ptr_inplaceIN19OpenColorIO_v2_4dev31CTFReaderGradingPrimaryParamEltESaIvELN9__gnu_cxx12_Lock_policyE2EE = comdat any

$_ZTVSt23_Sp_counted_ptr_inplaceIN19OpenColorIO_v2_4dev24CTFReaderGradingCurveEltESaIvELN9__gnu_cxx12_Lock_policyE2EE = comdat any

$_ZTSSt23_Sp_counted_ptr_inplaceIN19OpenColorIO_v2_4dev24CTFReaderGradingCurveEltESaIvELN9__gnu_cxx12_Lock_policyE2EE = comdat any

$_ZTISt23_Sp_counted_ptr_inplaceIN19OpenColorIO_v2_4dev24CTFReaderGradingCurveEltESaIvELN9__gnu_cxx12_Lock_policyE2EE = comdat any

$_ZTVSt23_Sp_counted_ptr_inplaceIN19OpenColorIO_v2_4dev30CTFReaderGradingCurvePointsEltESaIvELN9__gnu_cxx12_Lock_policyE2EE = comdat any

$_ZTSSt23_Sp_counted_ptr_inplaceIN19OpenColorIO_v2_4dev30CTFReaderGradingCurvePointsEltESaIvELN9__gnu_cxx12_Lock_policyE2EE = comdat any

$_ZTISt23_Sp_counted_ptr_inplaceIN19OpenColorIO_v2_4dev30CTFReaderGradingCurvePointsEltESaIvELN9__gnu_cxx12_Lock_policyE2EE = comdat any

$_ZTVSt23_Sp_counted_ptr_inplaceIN19OpenColorIO_v2_4dev30CTFReaderGradingCurveSlopesEltESaIvELN9__gnu_cxx12_Lock_policyE2EE = comdat any

$_ZTSSt23_Sp_counted_ptr_inplaceIN19OpenColorIO_v2_4dev30CTFReaderGradingCurveSlopesEltESaIvELN9__gnu_cxx12_Lock_policyE2EE = comdat any

$_ZTISt23_Sp_counted_ptr_inplaceIN19OpenColorIO_v2_4dev30CTFReaderGradingCurveSlopesEltESaIvELN9__gnu_cxx12_Lock_policyE2EE = comdat any

$_ZTVSt23_Sp_counted_ptr_inplaceIN19OpenColorIO_v2_4dev28CTFReaderGradingToneParamEltESaIvELN9__gnu_cxx12_Lock_policyE2EE = comdat any

$_ZTSSt23_Sp_counted_ptr_inplaceIN19OpenColorIO_v2_4dev28CTFReaderGradingToneParamEltESaIvELN9__gnu_cxx12_Lock_policyE2EE = comdat any

$_ZTISt23_Sp_counted_ptr_inplaceIN19OpenColorIO_v2_4dev28CTFReaderGradingToneParamEltESaIvELN9__gnu_cxx12_Lock_policyE2EE = comdat any

$_ZTSN19OpenColorIO_v2_4dev10CachedFileE = comdat any

$_ZTIN19OpenColorIO_v2_4dev10CachedFileE = comdat any

$_ZTVSt23_Sp_counted_ptr_inplaceIN19OpenColorIO_v2_4dev11Lut1DOpDataESaIvELN9__gnu_cxx12_Lock_policyE2EE = comdat any

$_ZTSSt23_Sp_counted_ptr_inplaceIN19OpenColorIO_v2_4dev11Lut1DOpDataESaIvELN9__gnu_cxx12_Lock_policyE2EE = comdat any

$_ZTISt23_Sp_counted_ptr_inplaceIN19OpenColorIO_v2_4dev11Lut1DOpDataESaIvELN9__gnu_cxx12_Lock_policyE2EE = comdat any

$_ZTVSt23_Sp_counted_ptr_inplaceIN19OpenColorIO_v2_4dev11Lut3DOpDataESaIvELN9__gnu_cxx12_Lock_policyE2EE = comdat any

$_ZTSSt23_Sp_counted_ptr_inplaceIN19OpenColorIO_v2_4dev11Lut3DOpDataESaIvELN9__gnu_cxx12_Lock_policyE2EE = comdat any

$_ZTISt23_Sp_counted_ptr_inplaceIN19OpenColorIO_v2_4dev11Lut3DOpDataESaIvELN9__gnu_cxx12_Lock_policyE2EE = comdat any

$_ZTVSt23_Sp_counted_ptr_inplaceIN19OpenColorIO_v2_4dev18CTFReaderTransformESaIvELN9__gnu_cxx12_Lock_policyE2EE = comdat any

$_ZTSSt23_Sp_counted_ptr_inplaceIN19OpenColorIO_v2_4dev18CTFReaderTransformESaIvELN9__gnu_cxx12_Lock_policyE2EE = comdat any

$_ZTISt23_Sp_counted_ptr_inplaceIN19OpenColorIO_v2_4dev18CTFReaderTransformESaIvELN9__gnu_cxx12_Lock_policyE2EE = comdat any

@_ZStL8__ioinit = internal global %"class.std::ios_base::Init" zeroinitializer, align 1
@__dso_handle = external hidden global i8
@_ZN19OpenColorIO_v2_4dev11NumberUtilsL3locE = internal global %"struct.OpenColorIO_v2_4dev::NumberUtils::Locale" zeroinitializer, align 8
@.str = private unnamed_addr constant [2 x i8] c"C\00", align 1
@_ZTVN19OpenColorIO_v2_4dev12_GLOBAL__N_115LocalFileFormatE = internal unnamed_addr constant { [10 x ptr] } { [10 x ptr] [ptr null, ptr @_ZTIN19OpenColorIO_v2_4dev12_GLOBAL__N_115LocalFileFormatE, ptr @_ZN19OpenColorIO_v2_4dev12_GLOBAL__N_115LocalFileFormatD2Ev, ptr @_ZN19OpenColorIO_v2_4dev12_GLOBAL__N_115LocalFileFormatD0Ev, ptr @_ZNK19OpenColorIO_v2_4dev12_GLOBAL__N_115LocalFileFormat13getFormatInfoERSt6vectorINS_10FormatInfoESaIS3_EE, ptr @_ZNK19OpenColorIO_v2_4dev12_GLOBAL__N_115LocalFileFormat4readERSiRKNSt7__cxx1112basic_stringIcSt11char_traitsIcESaIcEEENS_13InterpolationE, ptr @_ZNK19OpenColorIO_v2_4dev12_GLOBAL__N_115LocalFileFormat4bakeERKNS_5BakerERKNSt7__cxx1112basic_stringIcSt11char_traitsIcESaIcEEERSo, ptr @_ZNK19OpenColorIO_v2_4dev12_GLOBAL__N_115LocalFileFormat5writeERKSt10shared_ptrIKNS_6ConfigEERKS2_IKNS_7ContextEERKNS_14GroupTransformERKNSt7__cxx1112basic_stringIcSt11char_traitsIcESaIcEEERSo, ptr @_ZNK19OpenColorIO_v2_4dev12_GLOBAL__N_115LocalFileFormat12buildFileOpsERNS_10OpRcPtrVecERKNS_6ConfigERKSt10shared_ptrIKNS_7ContextEES7_INS_10CachedFileEERKNS_13FileTransformENS_18TransformDirectionE, ptr @_ZNK19OpenColorIO_v2_4dev10FileFormat8isBinaryEv] }, align 8
@_ZTVN10__cxxabiv120__si_class_type_infoE = external global [0 x ptr]
@_ZTSN19OpenColorIO_v2_4dev12_GLOBAL__N_115LocalFileFormatE = internal constant [55 x i8] c"N19OpenColorIO_v2_4dev12_GLOBAL__N_115LocalFileFormatE\00", align 1
@_ZTIN19OpenColorIO_v2_4dev10FileFormatE = external constant ptr
@_ZTIN19OpenColorIO_v2_4dev12_GLOBAL__N_115LocalFileFormatE = internal constant { ptr, ptr, ptr } { ptr getelementptr inbounds (ptr, ptr @_ZTVN10__cxxabiv120__si_class_type_infoE, i64 2), ptr @_ZTSN19OpenColorIO_v2_4dev12_GLOBAL__N_115LocalFileFormatE, ptr @_ZTIN19OpenColorIO_v2_4dev10FileFormatE }, align 8
@_ZN19OpenColorIO_v2_4devL14FILEFORMAT_CLFE = internal constant [30 x i8] c"Academy/ASC Common LUT Format\00", align 16
@.str.12 = private unnamed_addr constant [4 x i8] c"clf\00", align 1
@_ZN19OpenColorIO_v2_4devL14FILEFORMAT_CTFE = internal constant [23 x i8] c"Color Transform Format\00", align 16
@.str.13 = private unnamed_addr constant [4 x i8] c"ctf\00", align 1
@.str.14 = private unnamed_addr constant [26 x i8] c"vector::_M_realloc_insert\00", align 1
@.str.15 = private unnamed_addr constant [17 x i8] c"Parsing error: '\00", align 1
@.str.16 = private unnamed_addr constant [25 x i8] c"' is not a CTF/CLF file.\00", align 1
@_ZTIN19OpenColorIO_v2_4dev9ExceptionE = external constant ptr
@.str.17 = private unnamed_addr constant [13 x i8] c"<ProcessList\00", align 1
@.str.18 = private unnamed_addr constant [5 x i8] c".clf\00", align 1
@_ZZN19OpenColorIO_v2_4dev12_GLOBAL__N_115XMLParserHelper19StartElementHandlerEPvPKcPS4_E16rangeSubElements = internal global %"class.std::vector.16" zeroinitializer, align 8
@_ZGVZN19OpenColorIO_v2_4dev12_GLOBAL__N_115XMLParserHelper19StartElementHandlerEPvPKcPS4_E16rangeSubElements = internal global i64 0, align 8
@_ZN19OpenColorIO_v2_4devL16TAG_MIN_IN_VALUEE = internal constant [11 x i8] c"minInValue\00", align 1
@_ZN19OpenColorIO_v2_4devL16TAG_MAX_IN_VALUEE = internal constant [11 x i8] c"maxInValue\00", align 1
@_ZN19OpenColorIO_v2_4devL17TAG_MIN_OUT_VALUEE = internal constant [12 x i8] c"minOutValue\00", align 1
@_ZN19OpenColorIO_v2_4devL17TAG_MAX_OUT_VALUEE = internal constant [12 x i8] c"maxOutValue\00", align 1
@constinit = private unnamed_addr constant [4 x ptr] [ptr @_ZN19OpenColorIO_v2_4devL16TAG_MIN_IN_VALUEE, ptr @_ZN19OpenColorIO_v2_4devL16TAG_MAX_IN_VALUEE, ptr @_ZN19OpenColorIO_v2_4devL17TAG_MIN_OUT_VALUEE, ptr @_ZN19OpenColorIO_v2_4devL17TAG_MAX_OUT_VALUEE], align 8
@_ZZN19OpenColorIO_v2_4dev12_GLOBAL__N_115XMLParserHelper19StartElementHandlerEPvPKcPS4_E14sopSubElements = internal global %"class.std::vector.16" zeroinitializer, align 8
@_ZGVZN19OpenColorIO_v2_4dev12_GLOBAL__N_115XMLParserHelper19StartElementHandlerEPvPKcPS4_E14sopSubElements = internal global i64 0, align 8
@_ZN19OpenColorIO_v2_4devL9TAG_SLOPEE = internal constant [6 x i8] c"Slope\00", align 1
@_ZN19OpenColorIO_v2_4devL10TAG_OFFSETE = internal constant [7 x i8] c"Offset\00", align 1
@_ZN19OpenColorIO_v2_4devL9TAG_POWERE = internal constant [6 x i8] c"Power\00", align 1
@constinit.19 = private unnamed_addr constant [3 x ptr] [ptr @_ZN19OpenColorIO_v2_4devL9TAG_SLOPEE, ptr @_ZN19OpenColorIO_v2_4devL10TAG_OFFSETE, ptr @_ZN19OpenColorIO_v2_4devL9TAG_POWERE], align 8
@_ZZN19OpenColorIO_v2_4dev12_GLOBAL__N_115XMLParserHelper19StartElementHandlerEPvPKcPS4_E25gradingPrimarySubElements = internal global %"class.std::vector.16" zeroinitializer, align 8
@_ZGVZN19OpenColorIO_v2_4dev12_GLOBAL__N_115XMLParserHelper19StartElementHandlerEPvPKcPS4_E25gradingPrimarySubElements = internal global i64 0, align 8
@_ZN19OpenColorIO_v2_4devL22TAG_PRIMARY_BRIGHTNESSE = internal constant [11 x i8] c"Brightness\00", align 1
@_ZN19OpenColorIO_v2_4devL17TAG_PRIMARY_CLAMPE = internal constant [6 x i8] c"Clamp\00", align 1
@_ZN19OpenColorIO_v2_4devL20TAG_PRIMARY_CONTRASTE = internal constant [9 x i8] c"Contrast\00", align 1
@_ZN19OpenColorIO_v2_4devL20TAG_PRIMARY_EXPOSUREE = internal constant [9 x i8] c"Exposure\00", align 1
@_ZN19OpenColorIO_v2_4devL16TAG_PRIMARY_GAINE = internal constant [5 x i8] c"Gain\00", align 1
@_ZN19OpenColorIO_v2_4devL17TAG_PRIMARY_GAMMAE = internal constant [6 x i8] c"Gamma\00", align 1
@_ZN19OpenColorIO_v2_4devL16TAG_PRIMARY_LIFTE = internal constant [5 x i8] c"Lift\00", align 1
@_ZN19OpenColorIO_v2_4devL18TAG_PRIMARY_OFFSETE = internal constant [7 x i8] c"Offset\00", align 1
@_ZN19OpenColorIO_v2_4devL17TAG_PRIMARY_PIVOTE = internal constant [6 x i8] c"Pivot\00", align 1
@_ZN19OpenColorIO_v2_4devL22TAG_PRIMARY_SATURATIONE = internal constant [11 x i8] c"Saturation\00", align 1
@constinit.20 = private unnamed_addr constant [10 x ptr] [ptr @_ZN19OpenColorIO_v2_4devL22TAG_PRIMARY_BRIGHTNESSE, ptr @_ZN19OpenColorIO_v2_4devL17TAG_PRIMARY_CLAMPE, ptr @_ZN19OpenColorIO_v2_4devL20TAG_PRIMARY_CONTRASTE, ptr @_ZN19OpenColorIO_v2_4devL20TAG_PRIMARY_EXPOSUREE, ptr @_ZN19OpenColorIO_v2_4devL16TAG_PRIMARY_GAINE, ptr @_ZN19OpenColorIO_v2_4devL17TAG_PRIMARY_GAMMAE, ptr @_ZN19OpenColorIO_v2_4devL16TAG_PRIMARY_LIFTE, ptr @_ZN19OpenColorIO_v2_4devL18TAG_PRIMARY_OFFSETE, ptr @_ZN19OpenColorIO_v2_4devL17TAG_PRIMARY_PIVOTE, ptr @_ZN19OpenColorIO_v2_4devL22TAG_PRIMARY_SATURATIONE], align 8
@_ZZN19OpenColorIO_v2_4dev12_GLOBAL__N_115XMLParserHelper19StartElementHandlerEPvPKcPS4_E22gradingToneSubElements = internal global %"class.std::vector.16" zeroinitializer, align 8
@_ZGVZN19OpenColorIO_v2_4dev12_GLOBAL__N_115XMLParserHelper19StartElementHandlerEPvPKcPS4_E22gradingToneSubElements = internal global i64 0, align 8
@_ZN19OpenColorIO_v2_4devL15TAG_TONE_BLACKSE = internal constant [7 x i8] c"Blacks\00", align 1
@_ZN19OpenColorIO_v2_4devL16TAG_TONE_SHADOWSE = internal constant [8 x i8] c"Shadows\00", align 1
@_ZN19OpenColorIO_v2_4devL17TAG_TONE_MIDTONESE = internal constant [9 x i8] c"Midtones\00", align 1
@_ZN19OpenColorIO_v2_4devL19TAG_TONE_HIGHLIGHTSE = internal constant [11 x i8] c"Highlights\00", align 1
@_ZN19OpenColorIO_v2_4devL15TAG_TONE_WHITESE = internal constant [7 x i8] c"Whites\00", align 1
@_ZN19OpenColorIO_v2_4devL18TAG_TONE_SCONTRASTE = internal constant [10 x i8] c"SContrast\00", align 1
@constinit.21 = private unnamed_addr constant [6 x ptr] [ptr @_ZN19OpenColorIO_v2_4devL15TAG_TONE_BLACKSE, ptr @_ZN19OpenColorIO_v2_4devL16TAG_TONE_SHADOWSE, ptr @_ZN19OpenColorIO_v2_4devL17TAG_TONE_MIDTONESE, ptr @_ZN19OpenColorIO_v2_4devL19TAG_TONE_HIGHLIGHTSE, ptr @_ZN19OpenColorIO_v2_4devL15TAG_TONE_WHITESE, ptr @_ZN19OpenColorIO_v2_4devL18TAG_TONE_SCONTRASTE], align 8
@_ZZN19OpenColorIO_v2_4dev12_GLOBAL__N_115XMLParserHelper19StartElementHandlerEPvPKcPS4_E26gradingRGBCurveSubElements = internal global %"class.std::vector.16" zeroinitializer, align 8
@_ZGVZN19OpenColorIO_v2_4dev12_GLOBAL__N_115XMLParserHelper19StartElementHandlerEPvPKcPS4_E26gradingRGBCurveSubElements = internal global i64 0, align 8
@_ZN19OpenColorIO_v2_4devL18TAG_RGB_CURVE_BLUEE = internal constant [5 x i8] c"Blue\00", align 1
@_ZN19OpenColorIO_v2_4devL19TAG_RGB_CURVE_GREENE = internal constant [6 x i8] c"Green\00", align 1
@_ZN19OpenColorIO_v2_4devL20TAG_RGB_CURVE_MASTERE = internal constant [7 x i8] c"Master\00", align 1
@_ZN19OpenColorIO_v2_4devL17TAG_RGB_CURVE_REDE = internal constant [4 x i8] c"Red\00", align 1
@constinit.22 = private unnamed_addr constant [4 x ptr] [ptr @_ZN19OpenColorIO_v2_4devL18TAG_RGB_CURVE_BLUEE, ptr @_ZN19OpenColorIO_v2_4devL19TAG_RGB_CURVE_GREENE, ptr @_ZN19OpenColorIO_v2_4devL20TAG_RGB_CURVE_MASTERE, ptr @_ZN19OpenColorIO_v2_4devL17TAG_RGB_CURVE_REDE], align 8
@.str.23 = private unnamed_addr constant [31 x i8] c"Internal CTF/CLF parser error.\00", align 1
@.str.24 = private unnamed_addr constant [32 x i8] c"Internal CTF/CLF parser error. \00", align 1
@_ZN19OpenColorIO_v2_4devL16TAG_PROCESS_LISTE = internal constant [12 x i8] c"ProcessList\00", align 1
@.str.25 = private unnamed_addr constant [29 x i8] c"The Transform already exists\00", align 1
@_ZN19OpenColorIO_v2_4devL8TAG_ACESE = internal constant [5 x i8] c"ACES\00", align 1
@_ZN19OpenColorIO_v2_4devL7TAG_CDLE = internal constant [8 x i8] c"ASC_CDL\00", align 1
@_ZN19OpenColorIO_v2_4devL21TAG_EXPOSURE_CONTRASTE = internal constant [17 x i8] c"ExposureContrast\00", align 16
@_ZN19OpenColorIO_v2_4devL18TAG_FIXED_FUNCTIONE = internal constant [14 x i8] c"FixedFunction\00", align 1
@_ZN19OpenColorIO_v2_4devL12TAG_FUNCTIONE = internal constant [9 x i8] c"Function\00", align 1
@_ZN19OpenColorIO_v2_4devL9TAG_GAMMAE = internal constant [6 x i8] c"Gamma\00", align 1
@_ZN19OpenColorIO_v2_4devL12TAG_EXPONENTE = internal constant [9 x i8] c"Exponent\00", align 1
@_ZN19OpenColorIO_v2_4devL11TAG_PRIMARYE = internal constant [15 x i8] c"GradingPrimary\00", align 1
@_ZN19OpenColorIO_v2_4devL13TAG_RGB_CURVEE = internal constant [16 x i8] c"GradingRGBCurve\00", align 16
@_ZN19OpenColorIO_v2_4devL8TAG_TONEE = internal constant [12 x i8] c"GradingTone\00", align 1
@_ZN19OpenColorIO_v2_4devL12TAG_INVLUT1DE = internal constant [13 x i8] c"InverseLUT1D\00", align 1
@_ZN19OpenColorIO_v2_4devL12TAG_INVLUT3DE = internal constant [13 x i8] c"InverseLUT3D\00", align 1
@_ZN19OpenColorIO_v2_4devL7TAG_LOGE = internal constant [4 x i8] c"Log\00", align 1
@_ZN19OpenColorIO_v2_4devL9TAG_LUT1DE = internal constant [6 x i8] c"LUT1D\00", align 1
@_ZN19OpenColorIO_v2_4devL9TAG_LUT3DE = internal constant [6 x i8] c"LUT3D\00", align 1
@_ZN19OpenColorIO_v2_4devL10TAG_MATRIXE = internal constant [7 x i8] c"Matrix\00", align 1
@_ZN19OpenColorIO_v2_4devL9TAG_RANGEE = internal constant [6 x i8] c"Range\00", align 1
@_ZN19OpenColorIO_v2_4devL13TAG_REFERENCEE = internal constant [10 x i8] c"Reference\00", align 1
@_ZN19OpenColorIO_v2_4devL15TAG_ACES_PARAMSE = internal constant [11 x i8] c"ACESParams\00", align 1
@_ZN19OpenColorIO_v2_4devL9TAG_ARRAYE = internal constant [6 x i8] c"Array\00", align 1
@.str.26 = private unnamed_addr constant [34 x i8] c"Array not allowed in this element\00", align 1
@.str.27 = private unnamed_addr constant [30 x i8] c"Only one Array allowed per op\00", align 1
@_ZN19OpenColorIO_v2_4devL15TAG_DESCRIPTIONE = internal constant [12 x i8] c"Description\00", align 1
@.str.28 = private unnamed_addr constant [1 x i8] zeroinitializer, align 1
@_ZN19OpenColorIO_v2_4devL26METADATA_INPUT_DESCRIPTIONE = internal constant [17 x i8] c"InputDescription\00", align 16
@_ZN19OpenColorIO_v2_4devL28METADATA_VIEWING_DESCRIPTIONE = internal constant [19 x i8] c"ViewingDescription\00", align 16
@_ZN19OpenColorIO_v2_4devL21TAG_DYNAMIC_PARAMETERE = internal constant [17 x i8] c"DynamicParameter\00", align 16
@_ZN19OpenColorIO_v2_4devL13TAG_EC_PARAMSE = internal constant [9 x i8] c"ECParams\00", align 1
@_ZN19OpenColorIO_v2_4devL16TAG_GAMMA_PARAMSE = internal constant [12 x i8] c"GammaParams\00", align 1
@_ZN19OpenColorIO_v2_4devL19TAG_EXPONENT_PARAMSE = internal constant [15 x i8] c"ExponentParams\00", align 1
@_ZTSN19OpenColorIO_v2_4dev21XmlReaderContainerEltE = linkonce_odr hidden constant [47 x i8] c"N19OpenColorIO_v2_4dev21XmlReaderContainerEltE\00", comdat, align 1
@_ZTIN19OpenColorIO_v2_4dev16XmlReaderElementE = external constant ptr
@_ZTIN19OpenColorIO_v2_4dev21XmlReaderContainerEltE = linkonce_odr hidden constant { ptr, ptr, ptr } { ptr getelementptr inbounds (ptr, ptr @_ZTVN10__cxxabiv120__si_class_type_infoE, i64 2), ptr @_ZTSN19OpenColorIO_v2_4dev21XmlReaderContainerEltE, ptr @_ZTIN19OpenColorIO_v2_4dev16XmlReaderElementE }, comdat, align 8
@_ZTIN19OpenColorIO_v2_4dev17CTFReaderGammaEltE = external constant ptr
@_ZN19OpenColorIO_v2_4devL13TAG_INDEX_MAPE = internal constant [9 x i8] c"IndexMap\00", align 1
@.str.29 = private unnamed_addr constant [37 x i8] c"IndexMap not allowed in this element\00", align 1
@.str.30 = private unnamed_addr constant [36 x i8] c"Only one IndexMap allowed per LUT. \00", align 1
@_ZN19OpenColorIO_v2_4devL8TAG_INFOE = internal constant [5 x i8] c"Info\00", align 1
@_ZN19OpenColorIO_v2_4dev25METADATA_INPUT_DESCRIPTORE = external local_unnamed_addr global ptr, align 8
@_ZN19OpenColorIO_v2_4devL14TAG_LOG_PARAMSE = internal constant [10 x i8] c"LogParams\00", align 1
@.str.31 = private unnamed_addr constant [39 x i8] c"Log Params not allowed in this element\00", align 1
@_ZN19OpenColorIO_v2_4dev26METADATA_OUTPUT_DESCRIPTORE = external local_unnamed_addr global ptr, align 8
@_ZN19OpenColorIO_v2_4devL11TAG_SATNODEE = internal constant [8 x i8] c"SatNode\00", align 1
@_ZN19OpenColorIO_v2_4devL14TAG_SATNODEALTE = internal constant [8 x i8] c"SATNode\00", align 1
@_ZN19OpenColorIO_v2_4devL14TAG_SATURATIONE = internal constant [11 x i8] c"Saturation\00", align 1
@_ZN19OpenColorIO_v2_4devL11TAG_SOPNODEE = internal constant [8 x i8] c"SOPNode\00", align 1
@_ZN19OpenColorIO_v2_4devL19TAG_CURVE_CTRL_PNTSE = internal constant [14 x i8] c"ControlPoints\00", align 1
@_ZN19OpenColorIO_v2_4devL16TAG_CURVE_SLOPESE = internal constant [7 x i8] c"Slopes\00", align 1
@.str.32 = private unnamed_addr constant [2 x i8] c"'\00", align 1
@.str.33 = private unnamed_addr constant [30 x i8] c"' not allowed in this element\00", align 1
@.str.34 = private unnamed_addr constant [16 x i8] c"Unknown element\00", align 1
@.str.35 = private unnamed_addr constant [49 x i8] c"cannot create std::vector larger than max_size()\00", align 1
@.str.36 = private unnamed_addr constant [29 x i8] c"Error parsing CTF/CLF file (\00", align 1
@.str.37 = private unnamed_addr constant [4 x i8] c"). \00", align 1
@.str.38 = private unnamed_addr constant [11 x i8] c"Error is: \00", align 1
@.str.39 = private unnamed_addr constant [12 x i8] c". At line (\00", align 1
@.str.40 = private unnamed_addr constant [2 x i8] c")\00", align 1
@_ZTIN19OpenColorIO_v2_4dev20CTFReaderMetadataEltE = external constant ptr
@__libc_single_threaded = external local_unnamed_addr global i8, align 1
@_ZTVSt23_Sp_counted_ptr_inplaceIN19OpenColorIO_v2_4dev20CTFReaderMetadataEltESaIvELN9__gnu_cxx12_Lock_policyE2EE = linkonce_odr hidden unnamed_addr constant { [7 x ptr] } { [7 x ptr] [ptr null, ptr @_ZTISt23_Sp_counted_ptr_inplaceIN19OpenColorIO_v2_4dev20CTFReaderMetadataEltESaIvELN9__gnu_cxx12_Lock_policyE2EE, ptr @_ZNSt23_Sp_counted_ptr_inplaceIN19OpenColorIO_v2_4dev20CTFReaderMetadataEltESaIvELN9__gnu_cxx12_Lock_policyE2EED2Ev, ptr @_ZNSt23_Sp_counted_ptr_inplaceIN19OpenColorIO_v2_4dev20CTFReaderMetadataEltESaIvELN9__gnu_cxx12_Lock_policyE2EED0Ev, ptr @_ZNSt23_Sp_counted_ptr_inplaceIN19OpenColorIO_v2_4dev20CTFReaderMetadataEltESaIvELN9__gnu_cxx12_Lock_policyE2EE10_M_disposeEv, ptr @_ZNSt23_Sp_counted_ptr_inplaceIN19OpenColorIO_v2_4dev20CTFReaderMetadataEltESaIvELN9__gnu_cxx12_Lock_policyE2EE10_M_destroyEv, ptr @_ZNSt23_Sp_counted_ptr_inplaceIN19OpenColorIO_v2_4dev20CTFReaderMetadataEltESaIvELN9__gnu_cxx12_Lock_policyE2EE14_M_get_deleterERKSt9type_info] }, comdat, align 8
@_ZTSSt23_Sp_counted_ptr_inplaceIN19OpenColorIO_v2_4dev20CTFReaderMetadataEltESaIvELN9__gnu_cxx12_Lock_policyE2EE = linkonce_odr hidden constant [109 x i8] c"St23_Sp_counted_ptr_inplaceIN19OpenColorIO_v2_4dev20CTFReaderMetadataEltESaIvELN9__gnu_cxx12_Lock_policyE2EE\00", comdat, align 1
@_ZTSSt16_Sp_counted_baseILN9__gnu_cxx12_Lock_policyE2EE = linkonce_odr constant [52 x i8] c"St16_Sp_counted_baseILN9__gnu_cxx12_Lock_policyE2EE\00", comdat, align 1
@_ZTVN10__cxxabiv117__class_type_infoE = external global [0 x ptr]
@_ZTSSt11_Mutex_baseILN9__gnu_cxx12_Lock_policyE2EE = linkonce_odr constant [47 x i8] c"St11_Mutex_baseILN9__gnu_cxx12_Lock_policyE2EE\00", comdat, align 1
@_ZTISt11_Mutex_baseILN9__gnu_cxx12_Lock_policyE2EE = linkonce_odr constant { ptr, ptr } { ptr getelementptr inbounds (ptr, ptr @_ZTVN10__cxxabiv117__class_type_infoE, i64 2), ptr @_ZTSSt11_Mutex_baseILN9__gnu_cxx12_Lock_policyE2EE }, comdat, align 8
@_ZTISt16_Sp_counted_baseILN9__gnu_cxx12_Lock_policyE2EE = linkonce_odr constant { ptr, ptr, ptr } { ptr getelementptr inbounds (ptr, ptr @_ZTVN10__cxxabiv120__si_class_type_infoE, i64 2), ptr @_ZTSSt16_Sp_counted_baseILN9__gnu_cxx12_Lock_policyE2EE, ptr @_ZTISt11_Mutex_baseILN9__gnu_cxx12_Lock_policyE2EE }, comdat, align 8
@_ZTISt23_Sp_counted_ptr_inplaceIN19OpenColorIO_v2_4dev20CTFReaderMetadataEltESaIvELN9__gnu_cxx12_Lock_policyE2EE = linkonce_odr hidden constant { ptr, ptr, ptr } { ptr getelementptr inbounds (ptr, ptr @_ZTVN10__cxxabiv120__si_class_type_infoE, i64 2), ptr @_ZTSSt23_Sp_counted_ptr_inplaceIN19OpenColorIO_v2_4dev20CTFReaderMetadataEltESaIvELN9__gnu_cxx12_Lock_policyE2EE, ptr @_ZTISt16_Sp_counted_baseILN9__gnu_cxx12_Lock_policyE2EE }, comdat, align 8
@_ZTSSt19_Sp_make_shared_tag = linkonce_odr constant [24 x i8] c"St19_Sp_make_shared_tag\00", comdat, align 1
@_ZZNSt19_Sp_make_shared_tag5_S_tiEvE5__tag = linkonce_odr constant [16 x i8] zeroinitializer, comdat, align 8
@_ZTIN19OpenColorIO_v2_4dev21CTFReaderTransformEltE = external constant ptr
@_ZTVSt23_Sp_counted_ptr_inplaceIN19OpenColorIO_v2_4dev17XmlReaderDummyEltESaIvELN9__gnu_cxx12_Lock_policyE2EE = linkonce_odr hidden unnamed_addr constant { [7 x ptr] } { [7 x ptr] [ptr null, ptr @_ZTISt23_Sp_counted_ptr_inplaceIN19OpenColorIO_v2_4dev17XmlReaderDummyEltESaIvELN9__gnu_cxx12_Lock_policyE2EE, ptr @_ZNSt23_Sp_counted_ptr_inplaceIN19OpenColorIO_v2_4dev17XmlReaderDummyEltESaIvELN9__gnu_cxx12_Lock_policyE2EED2Ev, ptr @_ZNSt23_Sp_counted_ptr_inplaceIN19OpenColorIO_v2_4dev17XmlReaderDummyEltESaIvELN9__gnu_cxx12_Lock_policyE2EED0Ev, ptr @_ZNSt23_Sp_counted_ptr_inplaceIN19OpenColorIO_v2_4dev17XmlReaderDummyEltESaIvELN9__gnu_cxx12_Lock_policyE2EE10_M_disposeEv, ptr @_ZNSt23_Sp_counted_ptr_inplaceIN19OpenColorIO_v2_4dev17XmlReaderDummyEltESaIvELN9__gnu_cxx12_Lock_policyE2EE10_M_destroyEv, ptr @_ZNSt23_Sp_counted_ptr_inplaceIN19OpenColorIO_v2_4dev17XmlReaderDummyEltESaIvELN9__gnu_cxx12_Lock_policyE2EE14_M_get_deleterERKSt9type_info] }, comdat, align 8
@_ZTSSt23_Sp_counted_ptr_inplaceIN19OpenColorIO_v2_4dev17XmlReaderDummyEltESaIvELN9__gnu_cxx12_Lock_policyE2EE = linkonce_odr hidden constant [106 x i8] c"St23_Sp_counted_ptr_inplaceIN19OpenColorIO_v2_4dev17XmlReaderDummyEltESaIvELN9__gnu_cxx12_Lock_policyE2EE\00", comdat, align 1
@_ZTISt23_Sp_counted_ptr_inplaceIN19OpenColorIO_v2_4dev17XmlReaderDummyEltESaIvELN9__gnu_cxx12_Lock_policyE2EE = linkonce_odr hidden constant { ptr, ptr, ptr } { ptr getelementptr inbounds (ptr, ptr @_ZTVN10__cxxabiv120__si_class_type_infoE, i64 2), ptr @_ZTSSt23_Sp_counted_ptr_inplaceIN19OpenColorIO_v2_4dev17XmlReaderDummyEltESaIvELN9__gnu_cxx12_Lock_policyE2EE, ptr @_ZTISt16_Sp_counted_baseILN9__gnu_cxx12_Lock_policyE2EE }, comdat, align 8
@_ZTVSt23_Sp_counted_ptr_inplaceIN19OpenColorIO_v2_4dev21CTFReaderTransformEltESaIvELN9__gnu_cxx12_Lock_policyE2EE = linkonce_odr hidden unnamed_addr constant { [7 x ptr] } { [7 x ptr] [ptr null, ptr @_ZTISt23_Sp_counted_ptr_inplaceIN19OpenColorIO_v2_4dev21CTFReaderTransformEltESaIvELN9__gnu_cxx12_Lock_policyE2EE, ptr @_ZNSt23_Sp_counted_ptr_inplaceIN19OpenColorIO_v2_4dev21CTFReaderTransformEltESaIvELN9__gnu_cxx12_Lock_policyE2EED2Ev, ptr @_ZNSt23_Sp_counted_ptr_inplaceIN19OpenColorIO_v2_4dev21CTFReaderTransformEltESaIvELN9__gnu_cxx12_Lock_policyE2EED0Ev, ptr @_ZNSt23_Sp_counted_ptr_inplaceIN19OpenColorIO_v2_4dev21CTFReaderTransformEltESaIvELN9__gnu_cxx12_Lock_policyE2EE10_M_disposeEv, ptr @_ZNSt23_Sp_counted_ptr_inplaceIN19OpenColorIO_v2_4dev21CTFReaderTransformEltESaIvELN9__gnu_cxx12_Lock_policyE2EE10_M_destroyEv, ptr @_ZNSt23_Sp_counted_ptr_inplaceIN19OpenColorIO_v2_4dev21CTFReaderTransformEltESaIvELN9__gnu_cxx12_Lock_policyE2EE14_M_get_deleterERKSt9type_info] }, comdat, align 8
@_ZTSSt23_Sp_counted_ptr_inplaceIN19OpenColorIO_v2_4dev21CTFReaderTransformEltESaIvELN9__gnu_cxx12_Lock_policyE2EE = linkonce_odr hidden constant [110 x i8] c"St23_Sp_counted_ptr_inplaceIN19OpenColorIO_v2_4dev21CTFReaderTransformEltESaIvELN9__gnu_cxx12_Lock_policyE2EE\00", comdat, align 1
@_ZTISt23_Sp_counted_ptr_inplaceIN19OpenColorIO_v2_4dev21CTFReaderTransformEltESaIvELN9__gnu_cxx12_Lock_policyE2EE = linkonce_odr hidden constant { ptr, ptr, ptr } { ptr getelementptr inbounds (ptr, ptr @_ZTVN10__cxxabiv120__si_class_type_infoE, i64 2), ptr @_ZTSSt23_Sp_counted_ptr_inplaceIN19OpenColorIO_v2_4dev21CTFReaderTransformEltESaIvELN9__gnu_cxx12_Lock_policyE2EE, ptr @_ZTISt16_Sp_counted_baseILN9__gnu_cxx12_Lock_policyE2EE }, comdat, align 8
@.str.41 = private unnamed_addr constant [5 x i8] c"The \00", align 1
@.str.42 = private unnamed_addr constant [34 x i8] c"'s parent can only be a Transform\00", align 1
@.str.43 = private unnamed_addr constant [19 x i8] c"CLF file version '\00", align 1
@.str.44 = private unnamed_addr constant [19 x i8] c"CTF file version '\00", align 1
@.str.45 = private unnamed_addr constant [30 x i8] c"' does not support operator '\00", align 1
@.str.46 = private unnamed_addr constant [2 x i8] c".\00", align 1
@_ZTVSt23_Sp_counted_ptr_inplaceIN19OpenColorIO_v2_4dev22CTFReaderACESParamsEltESaIvELN9__gnu_cxx12_Lock_policyE2EE = linkonce_odr hidden unnamed_addr constant { [7 x ptr] } { [7 x ptr] [ptr null, ptr @_ZTISt23_Sp_counted_ptr_inplaceIN19OpenColorIO_v2_4dev22CTFReaderACESParamsEltESaIvELN9__gnu_cxx12_Lock_policyE2EE, ptr @_ZNSt23_Sp_counted_ptr_inplaceIN19OpenColorIO_v2_4dev22CTFReaderACESParamsEltESaIvELN9__gnu_cxx12_Lock_policyE2EED2Ev, ptr @_ZNSt23_Sp_counted_ptr_inplaceIN19OpenColorIO_v2_4dev22CTFReaderACESParamsEltESaIvELN9__gnu_cxx12_Lock_policyE2EED0Ev, ptr @_ZNSt23_Sp_counted_ptr_inplaceIN19OpenColorIO_v2_4dev22CTFReaderACESParamsEltESaIvELN9__gnu_cxx12_Lock_policyE2EE10_M_disposeEv, ptr @_ZNSt23_Sp_counted_ptr_inplaceIN19OpenColorIO_v2_4dev22CTFReaderACESParamsEltESaIvELN9__gnu_cxx12_Lock_policyE2EE10_M_destroyEv, ptr @_ZNSt23_Sp_counted_ptr_inplaceIN19OpenColorIO_v2_4dev22CTFReaderACESParamsEltESaIvELN9__gnu_cxx12_Lock_policyE2EE14_M_get_deleterERKSt9type_info] }, comdat, align 8
@_ZTSSt23_Sp_counted_ptr_inplaceIN19OpenColorIO_v2_4dev22CTFReaderACESParamsEltESaIvELN9__gnu_cxx12_Lock_policyE2EE = linkonce_odr hidden constant [111 x i8] c"St23_Sp_counted_ptr_inplaceIN19OpenColorIO_v2_4dev22CTFReaderACESParamsEltESaIvELN9__gnu_cxx12_Lock_policyE2EE\00", comdat, align 1
@_ZTISt23_Sp_counted_ptr_inplaceIN19OpenColorIO_v2_4dev22CTFReaderACESParamsEltESaIvELN9__gnu_cxx12_Lock_policyE2EE = linkonce_odr hidden constant { ptr, ptr, ptr } { ptr getelementptr inbounds (ptr, ptr @_ZTVN10__cxxabiv120__si_class_type_infoE, i64 2), ptr @_ZTSSt23_Sp_counted_ptr_inplaceIN19OpenColorIO_v2_4dev22CTFReaderACESParamsEltESaIvELN9__gnu_cxx12_Lock_policyE2EE, ptr @_ZTISt16_Sp_counted_baseILN9__gnu_cxx12_Lock_policyE2EE }, comdat, align 8
@_ZTIN19OpenColorIO_v2_4dev11CTFArrayMgtE = external constant ptr
@_ZTVSt23_Sp_counted_ptr_inplaceIN19OpenColorIO_v2_4dev17CTFReaderArrayEltESaIvELN9__gnu_cxx12_Lock_policyE2EE = linkonce_odr hidden unnamed_addr constant { [7 x ptr] } { [7 x ptr] [ptr null, ptr @_ZTISt23_Sp_counted_ptr_inplaceIN19OpenColorIO_v2_4dev17CTFReaderArrayEltESaIvELN9__gnu_cxx12_Lock_policyE2EE, ptr @_ZNSt23_Sp_counted_ptr_inplaceIN19OpenColorIO_v2_4dev17CTFReaderArrayEltESaIvELN9__gnu_cxx12_Lock_policyE2EED2Ev, ptr @_ZNSt23_Sp_counted_ptr_inplaceIN19OpenColorIO_v2_4dev17CTFReaderArrayEltESaIvELN9__gnu_cxx12_Lock_policyE2EED0Ev, ptr @_ZNSt23_Sp_counted_ptr_inplaceIN19OpenColorIO_v2_4dev17CTFReaderArrayEltESaIvELN9__gnu_cxx12_Lock_policyE2EE10_M_disposeEv, ptr @_ZNSt23_Sp_counted_ptr_inplaceIN19OpenColorIO_v2_4dev17CTFReaderArrayEltESaIvELN9__gnu_cxx12_Lock_policyE2EE10_M_destroyEv, ptr @_ZNSt23_Sp_counted_ptr_inplaceIN19OpenColorIO_v2_4dev17CTFReaderArrayEltESaIvELN9__gnu_cxx12_Lock_policyE2EE14_M_get_deleterERKSt9type_info] }, comdat, align 8
@_ZTSSt23_Sp_counted_ptr_inplaceIN19OpenColorIO_v2_4dev17CTFReaderArrayEltESaIvELN9__gnu_cxx12_Lock_policyE2EE = linkonce_odr hidden constant [106 x i8] c"St23_Sp_counted_ptr_inplaceIN19OpenColorIO_v2_4dev17CTFReaderArrayEltESaIvELN9__gnu_cxx12_Lock_policyE2EE\00", comdat, align 1
@_ZTISt23_Sp_counted_ptr_inplaceIN19OpenColorIO_v2_4dev17CTFReaderArrayEltESaIvELN9__gnu_cxx12_Lock_policyE2EE = linkonce_odr hidden constant { ptr, ptr, ptr } { ptr getelementptr inbounds (ptr, ptr @_ZTVN10__cxxabiv120__si_class_type_infoE, i64 2), ptr @_ZTSSt23_Sp_counted_ptr_inplaceIN19OpenColorIO_v2_4dev17CTFReaderArrayEltESaIvELN9__gnu_cxx12_Lock_policyE2EE, ptr @_ZTISt16_Sp_counted_baseILN9__gnu_cxx12_Lock_policyE2EE }, comdat, align 8
@_ZTVSt23_Sp_counted_ptr_inplaceIN19OpenColorIO_v2_4dev23XmlReaderDescriptionEltESaIvELN9__gnu_cxx12_Lock_policyE2EE = linkonce_odr hidden unnamed_addr constant { [7 x ptr] } { [7 x ptr] [ptr null, ptr @_ZTISt23_Sp_counted_ptr_inplaceIN19OpenColorIO_v2_4dev23XmlReaderDescriptionEltESaIvELN9__gnu_cxx12_Lock_policyE2EE, ptr @_ZNSt23_Sp_counted_ptr_inplaceIN19OpenColorIO_v2_4dev23XmlReaderDescriptionEltESaIvELN9__gnu_cxx12_Lock_policyE2EED2Ev, ptr @_ZNSt23_Sp_counted_ptr_inplaceIN19OpenColorIO_v2_4dev23XmlReaderDescriptionEltESaIvELN9__gnu_cxx12_Lock_policyE2EED0Ev, ptr @_ZNSt23_Sp_counted_ptr_inplaceIN19OpenColorIO_v2_4dev23XmlReaderDescriptionEltESaIvELN9__gnu_cxx12_Lock_policyE2EE10_M_disposeEv, ptr @_ZNSt23_Sp_counted_ptr_inplaceIN19OpenColorIO_v2_4dev23XmlReaderDescriptionEltESaIvELN9__gnu_cxx12_Lock_policyE2EE10_M_destroyEv, ptr @_ZNSt23_Sp_counted_ptr_inplaceIN19OpenColorIO_v2_4dev23XmlReaderDescriptionEltESaIvELN9__gnu_cxx12_Lock_policyE2EE14_M_get_deleterERKSt9type_info] }, comdat, align 8
@_ZTSSt23_Sp_counted_ptr_inplaceIN19OpenColorIO_v2_4dev23XmlReaderDescriptionEltESaIvELN9__gnu_cxx12_Lock_policyE2EE = linkonce_odr hidden constant [112 x i8] c"St23_Sp_counted_ptr_inplaceIN19OpenColorIO_v2_4dev23XmlReaderDescriptionEltESaIvELN9__gnu_cxx12_Lock_policyE2EE\00", comdat, align 1
@_ZTISt23_Sp_counted_ptr_inplaceIN19OpenColorIO_v2_4dev23XmlReaderDescriptionEltESaIvELN9__gnu_cxx12_Lock_policyE2EE = linkonce_odr hidden constant { ptr, ptr, ptr } { ptr getelementptr inbounds (ptr, ptr @_ZTVN10__cxxabiv120__si_class_type_infoE, i64 2), ptr @_ZTSSt23_Sp_counted_ptr_inplaceIN19OpenColorIO_v2_4dev23XmlReaderDescriptionEltESaIvELN9__gnu_cxx12_Lock_policyE2EE, ptr @_ZTISt16_Sp_counted_baseILN9__gnu_cxx12_Lock_policyE2EE }, comdat, align 8
@_ZTVN19OpenColorIO_v2_4dev23XmlReaderDescriptionEltE = external unnamed_addr constant { [11 x ptr] }, align 8
@_ZTVN19OpenColorIO_v2_4dev17XmlReaderPlainEltE = linkonce_odr hidden unnamed_addr constant { [11 x ptr] } { [11 x ptr] [ptr null, ptr @_ZTIN19OpenColorIO_v2_4dev17XmlReaderPlainEltE, ptr @_ZN19OpenColorIO_v2_4dev17XmlReaderPlainEltD2Ev, ptr @_ZN19OpenColorIO_v2_4dev17XmlReaderPlainEltD0Ev, ptr @__cxa_pure_virtual, ptr @__cxa_pure_virtual, ptr @_ZNK19OpenColorIO_v2_4dev17XmlReaderPlainElt11isContainerEv, ptr @_ZNK19OpenColorIO_v2_4dev17XmlReaderPlainElt13getIdentifierB5cxx11Ev, ptr @_ZNK19OpenColorIO_v2_4dev17XmlReaderPlainElt11getTypeNameEv, ptr @_ZNK19OpenColorIO_v2_4dev16XmlReaderElement7isDummyEv, ptr @__cxa_pure_virtual] }, comdat, align 8
@_ZTSN19OpenColorIO_v2_4dev17XmlReaderPlainEltE = linkonce_odr hidden constant [43 x i8] c"N19OpenColorIO_v2_4dev17XmlReaderPlainEltE\00", comdat, align 1
@_ZTIN19OpenColorIO_v2_4dev17XmlReaderPlainEltE = linkonce_odr hidden constant { ptr, ptr, ptr } { ptr getelementptr inbounds (ptr, ptr @_ZTVN10__cxxabiv120__si_class_type_infoE, i64 2), ptr @_ZTSN19OpenColorIO_v2_4dev17XmlReaderPlainEltE, ptr @_ZTIN19OpenColorIO_v2_4dev16XmlReaderElementE }, comdat, align 8
@_ZTIN19OpenColorIO_v2_4dev14CTFReaderOpEltE = external constant ptr
@_ZTVSt23_Sp_counted_ptr_inplaceIN19OpenColorIO_v2_4dev24CTFReaderDynamicParamEltESaIvELN9__gnu_cxx12_Lock_policyE2EE = linkonce_odr hidden unnamed_addr constant { [7 x ptr] } { [7 x ptr] [ptr null, ptr @_ZTISt23_Sp_counted_ptr_inplaceIN19OpenColorIO_v2_4dev24CTFReaderDynamicParamEltESaIvELN9__gnu_cxx12_Lock_policyE2EE, ptr @_ZNSt23_Sp_counted_ptr_inplaceIN19OpenColorIO_v2_4dev24CTFReaderDynamicParamEltESaIvELN9__gnu_cxx12_Lock_policyE2EED2Ev, ptr @_ZNSt23_Sp_counted_ptr_inplaceIN19OpenColorIO_v2_4dev24CTFReaderDynamicParamEltESaIvELN9__gnu_cxx12_Lock_policyE2EED0Ev, ptr @_ZNSt23_Sp_counted_ptr_inplaceIN19OpenColorIO_v2_4dev24CTFReaderDynamicParamEltESaIvELN9__gnu_cxx12_Lock_policyE2EE10_M_disposeEv, ptr @_ZNSt23_Sp_counted_ptr_inplaceIN19OpenColorIO_v2_4dev24CTFReaderDynamicParamEltESaIvELN9__gnu_cxx12_Lock_policyE2EE10_M_destroyEv, ptr @_ZNSt23_Sp_counted_ptr_inplaceIN19OpenColorIO_v2_4dev24CTFReaderDynamicParamEltESaIvELN9__gnu_cxx12_Lock_policyE2EE14_M_get_deleterERKSt9type_info] }, comdat, align 8
@_ZTSSt23_Sp_counted_ptr_inplaceIN19OpenColorIO_v2_4dev24CTFReaderDynamicParamEltESaIvELN9__gnu_cxx12_Lock_policyE2EE = linkonce_odr hidden constant [113 x i8] c"St23_Sp_counted_ptr_inplaceIN19OpenColorIO_v2_4dev24CTFReaderDynamicParamEltESaIvELN9__gnu_cxx12_Lock_policyE2EE\00", comdat, align 1
@_ZTISt23_Sp_counted_ptr_inplaceIN19OpenColorIO_v2_4dev24CTFReaderDynamicParamEltESaIvELN9__gnu_cxx12_Lock_policyE2EE = linkonce_odr hidden constant { ptr, ptr, ptr } { ptr getelementptr inbounds (ptr, ptr @_ZTVN10__cxxabiv120__si_class_type_infoE, i64 2), ptr @_ZTSSt23_Sp_counted_ptr_inplaceIN19OpenColorIO_v2_4dev24CTFReaderDynamicParamEltESaIvELN9__gnu_cxx12_Lock_policyE2EE, ptr @_ZTISt16_Sp_counted_baseILN9__gnu_cxx12_Lock_policyE2EE }, comdat, align 8
@_ZTVSt23_Sp_counted_ptr_inplaceIN19OpenColorIO_v2_4dev20CTFReaderECParamsEltESaIvELN9__gnu_cxx12_Lock_policyE2EE = linkonce_odr hidden unnamed_addr constant { [7 x ptr] } { [7 x ptr] [ptr null, ptr @_ZTISt23_Sp_counted_ptr_inplaceIN19OpenColorIO_v2_4dev20CTFReaderECParamsEltESaIvELN9__gnu_cxx12_Lock_policyE2EE, ptr @_ZNSt23_Sp_counted_ptr_inplaceIN19OpenColorIO_v2_4dev20CTFReaderECParamsEltESaIvELN9__gnu_cxx12_Lock_policyE2EED2Ev, ptr @_ZNSt23_Sp_counted_ptr_inplaceIN19OpenColorIO_v2_4dev20CTFReaderECParamsEltESaIvELN9__gnu_cxx12_Lock_policyE2EED0Ev, ptr @_ZNSt23_Sp_counted_ptr_inplaceIN19OpenColorIO_v2_4dev20CTFReaderECParamsEltESaIvELN9__gnu_cxx12_Lock_policyE2EE10_M_disposeEv, ptr @_ZNSt23_Sp_counted_ptr_inplaceIN19OpenColorIO_v2_4dev20CTFReaderECParamsEltESaIvELN9__gnu_cxx12_Lock_policyE2EE10_M_destroyEv, ptr @_ZNSt23_Sp_counted_ptr_inplaceIN19OpenColorIO_v2_4dev20CTFReaderECParamsEltESaIvELN9__gnu_cxx12_Lock_policyE2EE14_M_get_deleterERKSt9type_info] }, comdat, align 8
@_ZTSSt23_Sp_counted_ptr_inplaceIN19OpenColorIO_v2_4dev20CTFReaderECParamsEltESaIvELN9__gnu_cxx12_Lock_policyE2EE = linkonce_odr hidden constant [109 x i8] c"St23_Sp_counted_ptr_inplaceIN19OpenColorIO_v2_4dev20CTFReaderECParamsEltESaIvELN9__gnu_cxx12_Lock_policyE2EE\00", comdat, align 1
@_ZTISt23_Sp_counted_ptr_inplaceIN19OpenColorIO_v2_4dev20CTFReaderECParamsEltESaIvELN9__gnu_cxx12_Lock_policyE2EE = linkonce_odr hidden constant { ptr, ptr, ptr } { ptr getelementptr inbounds (ptr, ptr @_ZTVN10__cxxabiv120__si_class_type_infoE, i64 2), ptr @_ZTSSt23_Sp_counted_ptr_inplaceIN19OpenColorIO_v2_4dev20CTFReaderECParamsEltESaIvELN9__gnu_cxx12_Lock_policyE2EE, ptr @_ZTISt16_Sp_counted_baseILN9__gnu_cxx12_Lock_policyE2EE }, comdat, align 8
@_ZTSN19OpenColorIO_v2_4dev14CTFIndexMapMgtE = linkonce_odr hidden constant [40 x i8] c"N19OpenColorIO_v2_4dev14CTFIndexMapMgtE\00", comdat, align 1
@_ZTIN19OpenColorIO_v2_4dev14CTFIndexMapMgtE = linkonce_odr hidden constant { ptr, ptr } { ptr getelementptr inbounds (ptr, ptr @_ZTVN10__cxxabiv117__class_type_infoE, i64 2), ptr @_ZTSN19OpenColorIO_v2_4dev14CTFIndexMapMgtE }, comdat, align 8
@_ZTVSt23_Sp_counted_ptr_inplaceIN19OpenColorIO_v2_4dev20CTFReaderIndexMapEltESaIvELN9__gnu_cxx12_Lock_policyE2EE = linkonce_odr hidden unnamed_addr constant { [7 x ptr] } { [7 x ptr] [ptr null, ptr @_ZTISt23_Sp_counted_ptr_inplaceIN19OpenColorIO_v2_4dev20CTFReaderIndexMapEltESaIvELN9__gnu_cxx12_Lock_policyE2EE, ptr @_ZNSt23_Sp_counted_ptr_inplaceIN19OpenColorIO_v2_4dev20CTFReaderIndexMapEltESaIvELN9__gnu_cxx12_Lock_policyE2EED2Ev, ptr @_ZNSt23_Sp_counted_ptr_inplaceIN19OpenColorIO_v2_4dev20CTFReaderIndexMapEltESaIvELN9__gnu_cxx12_Lock_policyE2EED0Ev, ptr @_ZNSt23_Sp_counted_ptr_inplaceIN19OpenColorIO_v2_4dev20CTFReaderIndexMapEltESaIvELN9__gnu_cxx12_Lock_policyE2EE10_M_disposeEv, ptr @_ZNSt23_Sp_counted_ptr_inplaceIN19OpenColorIO_v2_4dev20CTFReaderIndexMapEltESaIvELN9__gnu_cxx12_Lock_policyE2EE10_M_destroyEv, ptr @_ZNSt23_Sp_counted_ptr_inplaceIN19OpenColorIO_v2_4dev20CTFReaderIndexMapEltESaIvELN9__gnu_cxx12_Lock_policyE2EE14_M_get_deleterERKSt9type_info] }, comdat, align 8
@_ZTSSt23_Sp_counted_ptr_inplaceIN19OpenColorIO_v2_4dev20CTFReaderIndexMapEltESaIvELN9__gnu_cxx12_Lock_policyE2EE = linkonce_odr hidden constant [109 x i8] c"St23_Sp_counted_ptr_inplaceIN19OpenColorIO_v2_4dev20CTFReaderIndexMapEltESaIvELN9__gnu_cxx12_Lock_policyE2EE\00", comdat, align 1
@_ZTISt23_Sp_counted_ptr_inplaceIN19OpenColorIO_v2_4dev20CTFReaderIndexMapEltESaIvELN9__gnu_cxx12_Lock_policyE2EE = linkonce_odr hidden constant { ptr, ptr, ptr } { ptr getelementptr inbounds (ptr, ptr @_ZTVN10__cxxabiv120__si_class_type_infoE, i64 2), ptr @_ZTSSt23_Sp_counted_ptr_inplaceIN19OpenColorIO_v2_4dev20CTFReaderIndexMapEltESaIvELN9__gnu_cxx12_Lock_policyE2EE, ptr @_ZTISt16_Sp_counted_baseILN9__gnu_cxx12_Lock_policyE2EE }, comdat, align 8
@_ZTVSt23_Sp_counted_ptr_inplaceIN19OpenColorIO_v2_4dev16CTFReaderInfoEltESaIvELN9__gnu_cxx12_Lock_policyE2EE = linkonce_odr hidden unnamed_addr constant { [7 x ptr] } { [7 x ptr] [ptr null, ptr @_ZTISt23_Sp_counted_ptr_inplaceIN19OpenColorIO_v2_4dev16CTFReaderInfoEltESaIvELN9__gnu_cxx12_Lock_policyE2EE, ptr @_ZNSt23_Sp_counted_ptr_inplaceIN19OpenColorIO_v2_4dev16CTFReaderInfoEltESaIvELN9__gnu_cxx12_Lock_policyE2EED2Ev, ptr @_ZNSt23_Sp_counted_ptr_inplaceIN19OpenColorIO_v2_4dev16CTFReaderInfoEltESaIvELN9__gnu_cxx12_Lock_policyE2EED0Ev, ptr @_ZNSt23_Sp_counted_ptr_inplaceIN19OpenColorIO_v2_4dev16CTFReaderInfoEltESaIvELN9__gnu_cxx12_Lock_policyE2EE10_M_disposeEv, ptr @_ZNSt23_Sp_counted_ptr_inplaceIN19OpenColorIO_v2_4dev16CTFReaderInfoEltESaIvELN9__gnu_cxx12_Lock_policyE2EE10_M_destroyEv, ptr @_ZNSt23_Sp_counted_ptr_inplaceIN19OpenColorIO_v2_4dev16CTFReaderInfoEltESaIvELN9__gnu_cxx12_Lock_policyE2EE14_M_get_deleterERKSt9type_info] }, comdat, align 8
@_ZTSSt23_Sp_counted_ptr_inplaceIN19OpenColorIO_v2_4dev16CTFReaderInfoEltESaIvELN9__gnu_cxx12_Lock_policyE2EE = linkonce_odr hidden constant [105 x i8] c"St23_Sp_counted_ptr_inplaceIN19OpenColorIO_v2_4dev16CTFReaderInfoEltESaIvELN9__gnu_cxx12_Lock_policyE2EE\00", comdat, align 1
@_ZTISt23_Sp_counted_ptr_inplaceIN19OpenColorIO_v2_4dev16CTFReaderInfoEltESaIvELN9__gnu_cxx12_Lock_policyE2EE = linkonce_odr hidden constant { ptr, ptr, ptr } { ptr getelementptr inbounds (ptr, ptr @_ZTVN10__cxxabiv120__si_class_type_infoE, i64 2), ptr @_ZTSSt23_Sp_counted_ptr_inplaceIN19OpenColorIO_v2_4dev16CTFReaderInfoEltESaIvELN9__gnu_cxx12_Lock_policyE2EE, ptr @_ZTISt16_Sp_counted_baseILN9__gnu_cxx12_Lock_policyE2EE }, comdat, align 8
@_ZTVSt23_Sp_counted_ptr_inplaceIN19OpenColorIO_v2_4dev27CTFReaderInputDescriptorEltESaIvELN9__gnu_cxx12_Lock_policyE2EE = linkonce_odr hidden unnamed_addr constant { [7 x ptr] } { [7 x ptr] [ptr null, ptr @_ZTISt23_Sp_counted_ptr_inplaceIN19OpenColorIO_v2_4dev27CTFReaderInputDescriptorEltESaIvELN9__gnu_cxx12_Lock_policyE2EE, ptr @_ZNSt23_Sp_counted_ptr_inplaceIN19OpenColorIO_v2_4dev27CTFReaderInputDescriptorEltESaIvELN9__gnu_cxx12_Lock_policyE2EED2Ev, ptr @_ZNSt23_Sp_counted_ptr_inplaceIN19OpenColorIO_v2_4dev27CTFReaderInputDescriptorEltESaIvELN9__gnu_cxx12_Lock_policyE2EED0Ev, ptr @_ZNSt23_Sp_counted_ptr_inplaceIN19OpenColorIO_v2_4dev27CTFReaderInputDescriptorEltESaIvELN9__gnu_cxx12_Lock_policyE2EE10_M_disposeEv, ptr @_ZNSt23_Sp_counted_ptr_inplaceIN19OpenColorIO_v2_4dev27CTFReaderInputDescriptorEltESaIvELN9__gnu_cxx12_Lock_policyE2EE10_M_destroyEv, ptr @_ZNSt23_Sp_counted_ptr_inplaceIN19OpenColorIO_v2_4dev27CTFReaderInputDescriptorEltESaIvELN9__gnu_cxx12_Lock_policyE2EE14_M_get_deleterERKSt9type_info] }, comdat, align 8
@_ZTSSt23_Sp_counted_ptr_inplaceIN19OpenColorIO_v2_4dev27CTFReaderInputDescriptorEltESaIvELN9__gnu_cxx12_Lock_policyE2EE = linkonce_odr hidden constant [116 x i8] c"St23_Sp_counted_ptr_inplaceIN19OpenColorIO_v2_4dev27CTFReaderInputDescriptorEltESaIvELN9__gnu_cxx12_Lock_policyE2EE\00", comdat, align 1
@_ZTISt23_Sp_counted_ptr_inplaceIN19OpenColorIO_v2_4dev27CTFReaderInputDescriptorEltESaIvELN9__gnu_cxx12_Lock_policyE2EE = linkonce_odr hidden constant { ptr, ptr, ptr } { ptr getelementptr inbounds (ptr, ptr @_ZTVN10__cxxabiv120__si_class_type_infoE, i64 2), ptr @_ZTSSt23_Sp_counted_ptr_inplaceIN19OpenColorIO_v2_4dev27CTFReaderInputDescriptorEltESaIvELN9__gnu_cxx12_Lock_policyE2EE, ptr @_ZTISt16_Sp_counted_baseILN9__gnu_cxx12_Lock_policyE2EE }, comdat, align 8
@_ZTVN19OpenColorIO_v2_4dev27CTFReaderInputDescriptorEltE = linkonce_odr hidden unnamed_addr constant { [11 x ptr] } { [11 x ptr] [ptr null, ptr @_ZTIN19OpenColorIO_v2_4dev27CTFReaderInputDescriptorEltE, ptr @_ZN19OpenColorIO_v2_4dev27CTFReaderInputDescriptorEltD2Ev, ptr @_ZN19OpenColorIO_v2_4dev27CTFReaderInputDescriptorEltD0Ev, ptr @_ZN19OpenColorIO_v2_4dev27CTFReaderInputDescriptorElt5startEPPKc, ptr @_ZN19OpenColorIO_v2_4dev27CTFReaderInputDescriptorElt3endEv, ptr @_ZNK19OpenColorIO_v2_4dev17XmlReaderPlainElt11isContainerEv, ptr @_ZNK19OpenColorIO_v2_4dev17XmlReaderPlainElt13getIdentifierB5cxx11Ev, ptr @_ZNK19OpenColorIO_v2_4dev17XmlReaderPlainElt11getTypeNameEv, ptr @_ZNK19OpenColorIO_v2_4dev16XmlReaderElement7isDummyEv, ptr @_ZN19OpenColorIO_v2_4dev27CTFReaderInputDescriptorElt10setRawDataEPKcmj] }, comdat, align 8
@_ZTSN19OpenColorIO_v2_4dev27CTFReaderInputDescriptorEltE = linkonce_odr hidden constant [53 x i8] c"N19OpenColorIO_v2_4dev27CTFReaderInputDescriptorEltE\00", comdat, align 1
@_ZTIN19OpenColorIO_v2_4dev27CTFReaderInputDescriptorEltE = linkonce_odr hidden constant { ptr, ptr, ptr } { ptr getelementptr inbounds (ptr, ptr @_ZTVN10__cxxabiv120__si_class_type_infoE, i64 2), ptr @_ZTSN19OpenColorIO_v2_4dev27CTFReaderInputDescriptorEltE, ptr @_ZTIN19OpenColorIO_v2_4dev17XmlReaderPlainEltE }, comdat, align 8
@_ZTIN19OpenColorIO_v2_4dev15CTFReaderLogEltE = external constant ptr
@_ZTVSt23_Sp_counted_ptr_inplaceIN19OpenColorIO_v2_4dev28CTFReaderOutputDescriptorEltESaIvELN9__gnu_cxx12_Lock_policyE2EE = linkonce_odr hidden unnamed_addr constant { [7 x ptr] } { [7 x ptr] [ptr null, ptr @_ZTISt23_Sp_counted_ptr_inplaceIN19OpenColorIO_v2_4dev28CTFReaderOutputDescriptorEltESaIvELN9__gnu_cxx12_Lock_policyE2EE, ptr @_ZNSt23_Sp_counted_ptr_inplaceIN19OpenColorIO_v2_4dev28CTFReaderOutputDescriptorEltESaIvELN9__gnu_cxx12_Lock_policyE2EED2Ev, ptr @_ZNSt23_Sp_counted_ptr_inplaceIN19OpenColorIO_v2_4dev28CTFReaderOutputDescriptorEltESaIvELN9__gnu_cxx12_Lock_policyE2EED0Ev, ptr @_ZNSt23_Sp_counted_ptr_inplaceIN19OpenColorIO_v2_4dev28CTFReaderOutputDescriptorEltESaIvELN9__gnu_cxx12_Lock_policyE2EE10_M_disposeEv, ptr @_ZNSt23_Sp_counted_ptr_inplaceIN19OpenColorIO_v2_4dev28CTFReaderOutputDescriptorEltESaIvELN9__gnu_cxx12_Lock_policyE2EE10_M_destroyEv, ptr @_ZNSt23_Sp_counted_ptr_inplaceIN19OpenColorIO_v2_4dev28CTFReaderOutputDescriptorEltESaIvELN9__gnu_cxx12_Lock_policyE2EE14_M_get_deleterERKSt9type_info] }, comdat, align 8
@_ZTSSt23_Sp_counted_ptr_inplaceIN19OpenColorIO_v2_4dev28CTFReaderOutputDescriptorEltESaIvELN9__gnu_cxx12_Lock_policyE2EE = linkonce_odr hidden constant [117 x i8] c"St23_Sp_counted_ptr_inplaceIN19OpenColorIO_v2_4dev28CTFReaderOutputDescriptorEltESaIvELN9__gnu_cxx12_Lock_policyE2EE\00", comdat, align 1
@_ZTISt23_Sp_counted_ptr_inplaceIN19OpenColorIO_v2_4dev28CTFReaderOutputDescriptorEltESaIvELN9__gnu_cxx12_Lock_policyE2EE = linkonce_odr hidden constant { ptr, ptr, ptr } { ptr getelementptr inbounds (ptr, ptr @_ZTVN10__cxxabiv120__si_class_type_infoE, i64 2), ptr @_ZTSSt23_Sp_counted_ptr_inplaceIN19OpenColorIO_v2_4dev28CTFReaderOutputDescriptorEltESaIvELN9__gnu_cxx12_Lock_policyE2EE, ptr @_ZTISt16_Sp_counted_baseILN9__gnu_cxx12_Lock_policyE2EE }, comdat, align 8
@_ZTVN19OpenColorIO_v2_4dev28CTFReaderOutputDescriptorEltE = linkonce_odr hidden unnamed_addr constant { [11 x ptr] } { [11 x ptr] [ptr null, ptr @_ZTIN19OpenColorIO_v2_4dev28CTFReaderOutputDescriptorEltE, ptr @_ZN19OpenColorIO_v2_4dev28CTFReaderOutputDescriptorEltD2Ev, ptr @_ZN19OpenColorIO_v2_4dev28CTFReaderOutputDescriptorEltD0Ev, ptr @_ZN19OpenColorIO_v2_4dev28CTFReaderOutputDescriptorElt5startEPPKc, ptr @_ZN19OpenColorIO_v2_4dev28CTFReaderOutputDescriptorElt3endEv, ptr @_ZNK19OpenColorIO_v2_4dev17XmlReaderPlainElt11isContainerEv, ptr @_ZNK19OpenColorIO_v2_4dev17XmlReaderPlainElt13getIdentifierB5cxx11Ev, ptr @_ZNK19OpenColorIO_v2_4dev17XmlReaderPlainElt11getTypeNameEv, ptr @_ZNK19OpenColorIO_v2_4dev16XmlReaderElement7isDummyEv, ptr @_ZN19OpenColorIO_v2_4dev28CTFReaderOutputDescriptorElt10setRawDataEPKcmj] }, comdat, align 8
@_ZTSN19OpenColorIO_v2_4dev28CTFReaderOutputDescriptorEltE = linkonce_odr hidden constant [54 x i8] c"N19OpenColorIO_v2_4dev28CTFReaderOutputDescriptorEltE\00", comdat, align 1
@_ZTIN19OpenColorIO_v2_4dev28CTFReaderOutputDescriptorEltE = linkonce_odr hidden constant { ptr, ptr, ptr } { ptr getelementptr inbounds (ptr, ptr @_ZTVN10__cxxabiv120__si_class_type_infoE, i64 2), ptr @_ZTSN19OpenColorIO_v2_4dev28CTFReaderOutputDescriptorEltE, ptr @_ZTIN19OpenColorIO_v2_4dev17XmlReaderPlainEltE }, comdat, align 8
@_ZTVSt23_Sp_counted_ptr_inplaceIN19OpenColorIO_v2_4dev22CTFReaderRangeValueEltESaIvELN9__gnu_cxx12_Lock_policyE2EE = linkonce_odr hidden unnamed_addr constant { [7 x ptr] } { [7 x ptr] [ptr null, ptr @_ZTISt23_Sp_counted_ptr_inplaceIN19OpenColorIO_v2_4dev22CTFReaderRangeValueEltESaIvELN9__gnu_cxx12_Lock_policyE2EE, ptr @_ZNSt23_Sp_counted_ptr_inplaceIN19OpenColorIO_v2_4dev22CTFReaderRangeValueEltESaIvELN9__gnu_cxx12_Lock_policyE2EED2Ev, ptr @_ZNSt23_Sp_counted_ptr_inplaceIN19OpenColorIO_v2_4dev22CTFReaderRangeValueEltESaIvELN9__gnu_cxx12_Lock_policyE2EED0Ev, ptr @_ZNSt23_Sp_counted_ptr_inplaceIN19OpenColorIO_v2_4dev22CTFReaderRangeValueEltESaIvELN9__gnu_cxx12_Lock_policyE2EE10_M_disposeEv, ptr @_ZNSt23_Sp_counted_ptr_inplaceIN19OpenColorIO_v2_4dev22CTFReaderRangeValueEltESaIvELN9__gnu_cxx12_Lock_policyE2EE10_M_destroyEv, ptr @_ZNSt23_Sp_counted_ptr_inplaceIN19OpenColorIO_v2_4dev22CTFReaderRangeValueEltESaIvELN9__gnu_cxx12_Lock_policyE2EE14_M_get_deleterERKSt9type_info] }, comdat, align 8
@_ZTSSt23_Sp_counted_ptr_inplaceIN19OpenColorIO_v2_4dev22CTFReaderRangeValueEltESaIvELN9__gnu_cxx12_Lock_policyE2EE = linkonce_odr hidden constant [111 x i8] c"St23_Sp_counted_ptr_inplaceIN19OpenColorIO_v2_4dev22CTFReaderRangeValueEltESaIvELN9__gnu_cxx12_Lock_policyE2EE\00", comdat, align 1
@_ZTISt23_Sp_counted_ptr_inplaceIN19OpenColorIO_v2_4dev22CTFReaderRangeValueEltESaIvELN9__gnu_cxx12_Lock_policyE2EE = linkonce_odr hidden constant { ptr, ptr, ptr } { ptr getelementptr inbounds (ptr, ptr @_ZTVN10__cxxabiv120__si_class_type_infoE, i64 2), ptr @_ZTSSt23_Sp_counted_ptr_inplaceIN19OpenColorIO_v2_4dev22CTFReaderRangeValueEltESaIvELN9__gnu_cxx12_Lock_policyE2EE, ptr @_ZTISt16_Sp_counted_baseILN9__gnu_cxx12_Lock_policyE2EE }, comdat, align 8
@_ZTIN19OpenColorIO_v2_4dev15CTFReaderCDLEltE = external constant ptr
@_ZTVSt23_Sp_counted_ptr_inplaceIN19OpenColorIO_v2_4dev19CTFReaderSatNodeEltESaIvELN9__gnu_cxx12_Lock_policyE2EE = linkonce_odr hidden unnamed_addr constant { [7 x ptr] } { [7 x ptr] [ptr null, ptr @_ZTISt23_Sp_counted_ptr_inplaceIN19OpenColorIO_v2_4dev19CTFReaderSatNodeEltESaIvELN9__gnu_cxx12_Lock_policyE2EE, ptr @_ZNSt23_Sp_counted_ptr_inplaceIN19OpenColorIO_v2_4dev19CTFReaderSatNodeEltESaIvELN9__gnu_cxx12_Lock_policyE2EED2Ev, ptr @_ZNSt23_Sp_counted_ptr_inplaceIN19OpenColorIO_v2_4dev19CTFReaderSatNodeEltESaIvELN9__gnu_cxx12_Lock_policyE2EED0Ev, ptr @_ZNSt23_Sp_counted_ptr_inplaceIN19OpenColorIO_v2_4dev19CTFReaderSatNodeEltESaIvELN9__gnu_cxx12_Lock_policyE2EE10_M_disposeEv, ptr @_ZNSt23_Sp_counted_ptr_inplaceIN19OpenColorIO_v2_4dev19CTFReaderSatNodeEltESaIvELN9__gnu_cxx12_Lock_policyE2EE10_M_destroyEv, ptr @_ZNSt23_Sp_counted_ptr_inplaceIN19OpenColorIO_v2_4dev19CTFReaderSatNodeEltESaIvELN9__gnu_cxx12_Lock_policyE2EE14_M_get_deleterERKSt9type_info] }, comdat, align 8
@_ZTSSt23_Sp_counted_ptr_inplaceIN19OpenColorIO_v2_4dev19CTFReaderSatNodeEltESaIvELN9__gnu_cxx12_Lock_policyE2EE = linkonce_odr hidden constant [108 x i8] c"St23_Sp_counted_ptr_inplaceIN19OpenColorIO_v2_4dev19CTFReaderSatNodeEltESaIvELN9__gnu_cxx12_Lock_policyE2EE\00", comdat, align 1
@_ZTISt23_Sp_counted_ptr_inplaceIN19OpenColorIO_v2_4dev19CTFReaderSatNodeEltESaIvELN9__gnu_cxx12_Lock_policyE2EE = linkonce_odr hidden constant { ptr, ptr, ptr } { ptr getelementptr inbounds (ptr, ptr @_ZTVN10__cxxabiv120__si_class_type_infoE, i64 2), ptr @_ZTSSt23_Sp_counted_ptr_inplaceIN19OpenColorIO_v2_4dev19CTFReaderSatNodeEltESaIvELN9__gnu_cxx12_Lock_policyE2EE, ptr @_ZTISt16_Sp_counted_baseILN9__gnu_cxx12_Lock_policyE2EE }, comdat, align 8
@_ZTVSt23_Sp_counted_ptr_inplaceIN19OpenColorIO_v2_4dev22XmlReaderSaturationEltESaIvELN9__gnu_cxx12_Lock_policyE2EE = linkonce_odr hidden unnamed_addr constant { [7 x ptr] } { [7 x ptr] [ptr null, ptr @_ZTISt23_Sp_counted_ptr_inplaceIN19OpenColorIO_v2_4dev22XmlReaderSaturationEltESaIvELN9__gnu_cxx12_Lock_policyE2EE, ptr @_ZNSt23_Sp_counted_ptr_inplaceIN19OpenColorIO_v2_4dev22XmlReaderSaturationEltESaIvELN9__gnu_cxx12_Lock_policyE2EED2Ev, ptr @_ZNSt23_Sp_counted_ptr_inplaceIN19OpenColorIO_v2_4dev22XmlReaderSaturationEltESaIvELN9__gnu_cxx12_Lock_policyE2EED0Ev, ptr @_ZNSt23_Sp_counted_ptr_inplaceIN19OpenColorIO_v2_4dev22XmlReaderSaturationEltESaIvELN9__gnu_cxx12_Lock_policyE2EE10_M_disposeEv, ptr @_ZNSt23_Sp_counted_ptr_inplaceIN19OpenColorIO_v2_4dev22XmlReaderSaturationEltESaIvELN9__gnu_cxx12_Lock_policyE2EE10_M_destroyEv, ptr @_ZNSt23_Sp_counted_ptr_inplaceIN19OpenColorIO_v2_4dev22XmlReaderSaturationEltESaIvELN9__gnu_cxx12_Lock_policyE2EE14_M_get_deleterERKSt9type_info] }, comdat, align 8
@_ZTSSt23_Sp_counted_ptr_inplaceIN19OpenColorIO_v2_4dev22XmlReaderSaturationEltESaIvELN9__gnu_cxx12_Lock_policyE2EE = linkonce_odr hidden constant [111 x i8] c"St23_Sp_counted_ptr_inplaceIN19OpenColorIO_v2_4dev22XmlReaderSaturationEltESaIvELN9__gnu_cxx12_Lock_policyE2EE\00", comdat, align 1
@_ZTISt23_Sp_counted_ptr_inplaceIN19OpenColorIO_v2_4dev22XmlReaderSaturationEltESaIvELN9__gnu_cxx12_Lock_policyE2EE = linkonce_odr hidden constant { ptr, ptr, ptr } { ptr getelementptr inbounds (ptr, ptr @_ZTVN10__cxxabiv120__si_class_type_infoE, i64 2), ptr @_ZTSSt23_Sp_counted_ptr_inplaceIN19OpenColorIO_v2_4dev22XmlReaderSaturationEltESaIvELN9__gnu_cxx12_Lock_policyE2EE, ptr @_ZTISt16_Sp_counted_baseILN9__gnu_cxx12_Lock_policyE2EE }, comdat, align 8
@_ZTVSt23_Sp_counted_ptr_inplaceIN19OpenColorIO_v2_4dev19CTFReaderSOPNodeEltESaIvELN9__gnu_cxx12_Lock_policyE2EE = linkonce_odr hidden unnamed_addr constant { [7 x ptr] } { [7 x ptr] [ptr null, ptr @_ZTISt23_Sp_counted_ptr_inplaceIN19OpenColorIO_v2_4dev19CTFReaderSOPNodeEltESaIvELN9__gnu_cxx12_Lock_policyE2EE, ptr @_ZNSt23_Sp_counted_ptr_inplaceIN19OpenColorIO_v2_4dev19CTFReaderSOPNodeEltESaIvELN9__gnu_cxx12_Lock_policyE2EED2Ev, ptr @_ZNSt23_Sp_counted_ptr_inplaceIN19OpenColorIO_v2_4dev19CTFReaderSOPNodeEltESaIvELN9__gnu_cxx12_Lock_policyE2EED0Ev, ptr @_ZNSt23_Sp_counted_ptr_inplaceIN19OpenColorIO_v2_4dev19CTFReaderSOPNodeEltESaIvELN9__gnu_cxx12_Lock_policyE2EE10_M_disposeEv, ptr @_ZNSt23_Sp_counted_ptr_inplaceIN19OpenColorIO_v2_4dev19CTFReaderSOPNodeEltESaIvELN9__gnu_cxx12_Lock_policyE2EE10_M_destroyEv, ptr @_ZNSt23_Sp_counted_ptr_inplaceIN19OpenColorIO_v2_4dev19CTFReaderSOPNodeEltESaIvELN9__gnu_cxx12_Lock_policyE2EE14_M_get_deleterERKSt9type_info] }, comdat, align 8
@_ZTSSt23_Sp_counted_ptr_inplaceIN19OpenColorIO_v2_4dev19CTFReaderSOPNodeEltESaIvELN9__gnu_cxx12_Lock_policyE2EE = linkonce_odr hidden constant [108 x i8] c"St23_Sp_counted_ptr_inplaceIN19OpenColorIO_v2_4dev19CTFReaderSOPNodeEltESaIvELN9__gnu_cxx12_Lock_policyE2EE\00", comdat, align 1
@_ZTISt23_Sp_counted_ptr_inplaceIN19OpenColorIO_v2_4dev19CTFReaderSOPNodeEltESaIvELN9__gnu_cxx12_Lock_policyE2EE = linkonce_odr hidden constant { ptr, ptr, ptr } { ptr getelementptr inbounds (ptr, ptr @_ZTVN10__cxxabiv120__si_class_type_infoE, i64 2), ptr @_ZTSSt23_Sp_counted_ptr_inplaceIN19OpenColorIO_v2_4dev19CTFReaderSOPNodeEltESaIvELN9__gnu_cxx12_Lock_policyE2EE, ptr @_ZTISt16_Sp_counted_baseILN9__gnu_cxx12_Lock_policyE2EE }, comdat, align 8
@_ZTVSt23_Sp_counted_ptr_inplaceIN19OpenColorIO_v2_4dev20XmlReaderSOPValueEltESaIvELN9__gnu_cxx12_Lock_policyE2EE = linkonce_odr hidden unnamed_addr constant { [7 x ptr] } { [7 x ptr] [ptr null, ptr @_ZTISt23_Sp_counted_ptr_inplaceIN19OpenColorIO_v2_4dev20XmlReaderSOPValueEltESaIvELN9__gnu_cxx12_Lock_policyE2EE, ptr @_ZNSt23_Sp_counted_ptr_inplaceIN19OpenColorIO_v2_4dev20XmlReaderSOPValueEltESaIvELN9__gnu_cxx12_Lock_policyE2EED2Ev, ptr @_ZNSt23_Sp_counted_ptr_inplaceIN19OpenColorIO_v2_4dev20XmlReaderSOPValueEltESaIvELN9__gnu_cxx12_Lock_policyE2EED0Ev, ptr @_ZNSt23_Sp_counted_ptr_inplaceIN19OpenColorIO_v2_4dev20XmlReaderSOPValueEltESaIvELN9__gnu_cxx12_Lock_policyE2EE10_M_disposeEv, ptr @_ZNSt23_Sp_counted_ptr_inplaceIN19OpenColorIO_v2_4dev20XmlReaderSOPValueEltESaIvELN9__gnu_cxx12_Lock_policyE2EE10_M_destroyEv, ptr @_ZNSt23_Sp_counted_ptr_inplaceIN19OpenColorIO_v2_4dev20XmlReaderSOPValueEltESaIvELN9__gnu_cxx12_Lock_policyE2EE14_M_get_deleterERKSt9type_info] }, comdat, align 8
@_ZTSSt23_Sp_counted_ptr_inplaceIN19OpenColorIO_v2_4dev20XmlReaderSOPValueEltESaIvELN9__gnu_cxx12_Lock_policyE2EE = linkonce_odr hidden constant [109 x i8] c"St23_Sp_counted_ptr_inplaceIN19OpenColorIO_v2_4dev20XmlReaderSOPValueEltESaIvELN9__gnu_cxx12_Lock_policyE2EE\00", comdat, align 1
@_ZTISt23_Sp_counted_ptr_inplaceIN19OpenColorIO_v2_4dev20XmlReaderSOPValueEltESaIvELN9__gnu_cxx12_Lock_policyE2EE = linkonce_odr hidden constant { ptr, ptr, ptr } { ptr getelementptr inbounds (ptr, ptr @_ZTVN10__cxxabiv120__si_class_type_infoE, i64 2), ptr @_ZTSSt23_Sp_counted_ptr_inplaceIN19OpenColorIO_v2_4dev20XmlReaderSOPValueEltESaIvELN9__gnu_cxx12_Lock_policyE2EE, ptr @_ZTISt16_Sp_counted_baseILN9__gnu_cxx12_Lock_policyE2EE }, comdat, align 8
@_ZTVSt23_Sp_counted_ptr_inplaceIN19OpenColorIO_v2_4dev31CTFReaderGradingPrimaryParamEltESaIvELN9__gnu_cxx12_Lock_policyE2EE = linkonce_odr hidden unnamed_addr constant { [7 x ptr] } { [7 x ptr] [ptr null, ptr @_ZTISt23_Sp_counted_ptr_inplaceIN19OpenColorIO_v2_4dev31CTFReaderGradingPrimaryParamEltESaIvELN9__gnu_cxx12_Lock_policyE2EE, ptr @_ZNSt23_Sp_counted_ptr_inplaceIN19OpenColorIO_v2_4dev31CTFReaderGradingPrimaryParamEltESaIvELN9__gnu_cxx12_Lock_policyE2EED2Ev, ptr @_ZNSt23_Sp_counted_ptr_inplaceIN19OpenColorIO_v2_4dev31CTFReaderGradingPrimaryParamEltESaIvELN9__gnu_cxx12_Lock_policyE2EED0Ev, ptr @_ZNSt23_Sp_counted_ptr_inplaceIN19OpenColorIO_v2_4dev31CTFReaderGradingPrimaryParamEltESaIvELN9__gnu_cxx12_Lock_policyE2EE10_M_disposeEv, ptr @_ZNSt23_Sp_counted_ptr_inplaceIN19OpenColorIO_v2_4dev31CTFReaderGradingPrimaryParamEltESaIvELN9__gnu_cxx12_Lock_policyE2EE10_M_destroyEv, ptr @_ZNSt23_Sp_counted_ptr_inplaceIN19OpenColorIO_v2_4dev31CTFReaderGradingPrimaryParamEltESaIvELN9__gnu_cxx12_Lock_policyE2EE14_M_get_deleterERKSt9type_info] }, comdat, align 8
@_ZTSSt23_Sp_counted_ptr_inplaceIN19OpenColorIO_v2_4dev31CTFReaderGradingPrimaryParamEltESaIvELN9__gnu_cxx12_Lock_policyE2EE = linkonce_odr hidden constant [120 x i8] c"St23_Sp_counted_ptr_inplaceIN19OpenColorIO_v2_4dev31CTFReaderGradingPrimaryParamEltESaIvELN9__gnu_cxx12_Lock_policyE2EE\00", comdat, align 1
@_ZTISt23_Sp_counted_ptr_inplaceIN19OpenColorIO_v2_4dev31CTFReaderGradingPrimaryParamEltESaIvELN9__gnu_cxx12_Lock_policyE2EE = linkonce_odr hidden constant { ptr, ptr, ptr } { ptr getelementptr inbounds (ptr, ptr @_ZTVN10__cxxabiv120__si_class_type_infoE, i64 2), ptr @_ZTSSt23_Sp_counted_ptr_inplaceIN19OpenColorIO_v2_4dev31CTFReaderGradingPrimaryParamEltESaIvELN9__gnu_cxx12_Lock_policyE2EE, ptr @_ZTISt16_Sp_counted_baseILN9__gnu_cxx12_Lock_policyE2EE }, comdat, align 8
@_ZTVSt23_Sp_counted_ptr_inplaceIN19OpenColorIO_v2_4dev24CTFReaderGradingCurveEltESaIvELN9__gnu_cxx12_Lock_policyE2EE = linkonce_odr hidden unnamed_addr constant { [7 x ptr] } { [7 x ptr] [ptr null, ptr @_ZTISt23_Sp_counted_ptr_inplaceIN19OpenColorIO_v2_4dev24CTFReaderGradingCurveEltESaIvELN9__gnu_cxx12_Lock_policyE2EE, ptr @_ZNSt23_Sp_counted_ptr_inplaceIN19OpenColorIO_v2_4dev24CTFReaderGradingCurveEltESaIvELN9__gnu_cxx12_Lock_policyE2EED2Ev, ptr @_ZNSt23_Sp_counted_ptr_inplaceIN19OpenColorIO_v2_4dev24CTFReaderGradingCurveEltESaIvELN9__gnu_cxx12_Lock_policyE2EED0Ev, ptr @_ZNSt23_Sp_counted_ptr_inplaceIN19OpenColorIO_v2_4dev24CTFReaderGradingCurveEltESaIvELN9__gnu_cxx12_Lock_policyE2EE10_M_disposeEv, ptr @_ZNSt23_Sp_counted_ptr_inplaceIN19OpenColorIO_v2_4dev24CTFReaderGradingCurveEltESaIvELN9__gnu_cxx12_Lock_policyE2EE10_M_destroyEv, ptr @_ZNSt23_Sp_counted_ptr_inplaceIN19OpenColorIO_v2_4dev24CTFReaderGradingCurveEltESaIvELN9__gnu_cxx12_Lock_policyE2EE14_M_get_deleterERKSt9type_info] }, comdat, align 8
@_ZTSSt23_Sp_counted_ptr_inplaceIN19OpenColorIO_v2_4dev24CTFReaderGradingCurveEltESaIvELN9__gnu_cxx12_Lock_policyE2EE = linkonce_odr hidden constant [113 x i8] c"St23_Sp_counted_ptr_inplaceIN19OpenColorIO_v2_4dev24CTFReaderGradingCurveEltESaIvELN9__gnu_cxx12_Lock_policyE2EE\00", comdat, align 1
@_ZTISt23_Sp_counted_ptr_inplaceIN19OpenColorIO_v2_4dev24CTFReaderGradingCurveEltESaIvELN9__gnu_cxx12_Lock_policyE2EE = linkonce_odr hidden constant { ptr, ptr, ptr } { ptr getelementptr inbounds (ptr, ptr @_ZTVN10__cxxabiv120__si_class_type_infoE, i64 2), ptr @_ZTSSt23_Sp_counted_ptr_inplaceIN19OpenColorIO_v2_4dev24CTFReaderGradingCurveEltESaIvELN9__gnu_cxx12_Lock_policyE2EE, ptr @_ZTISt16_Sp_counted_baseILN9__gnu_cxx12_Lock_policyE2EE }, comdat, align 8
@_ZTVSt23_Sp_counted_ptr_inplaceIN19OpenColorIO_v2_4dev30CTFReaderGradingCurvePointsEltESaIvELN9__gnu_cxx12_Lock_policyE2EE = linkonce_odr hidden unnamed_addr constant { [7 x ptr] } { [7 x ptr] [ptr null, ptr @_ZTISt23_Sp_counted_ptr_inplaceIN19OpenColorIO_v2_4dev30CTFReaderGradingCurvePointsEltESaIvELN9__gnu_cxx12_Lock_policyE2EE, ptr @_ZNSt23_Sp_counted_ptr_inplaceIN19OpenColorIO_v2_4dev30CTFReaderGradingCurvePointsEltESaIvELN9__gnu_cxx12_Lock_policyE2EED2Ev, ptr @_ZNSt23_Sp_counted_ptr_inplaceIN19OpenColorIO_v2_4dev30CTFReaderGradingCurvePointsEltESaIvELN9__gnu_cxx12_Lock_policyE2EED0Ev, ptr @_ZNSt23_Sp_counted_ptr_inplaceIN19OpenColorIO_v2_4dev30CTFReaderGradingCurvePointsEltESaIvELN9__gnu_cxx12_Lock_policyE2EE10_M_disposeEv, ptr @_ZNSt23_Sp_counted_ptr_inplaceIN19OpenColorIO_v2_4dev30CTFReaderGradingCurvePointsEltESaIvELN9__gnu_cxx12_Lock_policyE2EE10_M_destroyEv, ptr @_ZNSt23_Sp_counted_ptr_inplaceIN19OpenColorIO_v2_4dev30CTFReaderGradingCurvePointsEltESaIvELN9__gnu_cxx12_Lock_policyE2EE14_M_get_deleterERKSt9type_info] }, comdat, align 8
@_ZTSSt23_Sp_counted_ptr_inplaceIN19OpenColorIO_v2_4dev30CTFReaderGradingCurvePointsEltESaIvELN9__gnu_cxx12_Lock_policyE2EE = linkonce_odr hidden constant [119 x i8] c"St23_Sp_counted_ptr_inplaceIN19OpenColorIO_v2_4dev30CTFReaderGradingCurvePointsEltESaIvELN9__gnu_cxx12_Lock_policyE2EE\00", comdat, align 1
@_ZTISt23_Sp_counted_ptr_inplaceIN19OpenColorIO_v2_4dev30CTFReaderGradingCurvePointsEltESaIvELN9__gnu_cxx12_Lock_policyE2EE = linkonce_odr hidden constant { ptr, ptr, ptr } { ptr getelementptr inbounds (ptr, ptr @_ZTVN10__cxxabiv120__si_class_type_infoE, i64 2), ptr @_ZTSSt23_Sp_counted_ptr_inplaceIN19OpenColorIO_v2_4dev30CTFReaderGradingCurvePointsEltESaIvELN9__gnu_cxx12_Lock_policyE2EE, ptr @_ZTISt16_Sp_counted_baseILN9__gnu_cxx12_Lock_policyE2EE }, comdat, align 8
@_ZTVSt23_Sp_counted_ptr_inplaceIN19OpenColorIO_v2_4dev30CTFReaderGradingCurveSlopesEltESaIvELN9__gnu_cxx12_Lock_policyE2EE = linkonce_odr hidden unnamed_addr constant { [7 x ptr] } { [7 x ptr] [ptr null, ptr @_ZTISt23_Sp_counted_ptr_inplaceIN19OpenColorIO_v2_4dev30CTFReaderGradingCurveSlopesEltESaIvELN9__gnu_cxx12_Lock_policyE2EE, ptr @_ZNSt23_Sp_counted_ptr_inplaceIN19OpenColorIO_v2_4dev30CTFReaderGradingCurveSlopesEltESaIvELN9__gnu_cxx12_Lock_policyE2EED2Ev, ptr @_ZNSt23_Sp_counted_ptr_inplaceIN19OpenColorIO_v2_4dev30CTFReaderGradingCurveSlopesEltESaIvELN9__gnu_cxx12_Lock_policyE2EED0Ev, ptr @_ZNSt23_Sp_counted_ptr_inplaceIN19OpenColorIO_v2_4dev30CTFReaderGradingCurveSlopesEltESaIvELN9__gnu_cxx12_Lock_policyE2EE10_M_disposeEv, ptr @_ZNSt23_Sp_counted_ptr_inplaceIN19OpenColorIO_v2_4dev30CTFReaderGradingCurveSlopesEltESaIvELN9__gnu_cxx12_Lock_policyE2EE10_M_destroyEv, ptr @_ZNSt23_Sp_counted_ptr_inplaceIN19OpenColorIO_v2_4dev30CTFReaderGradingCurveSlopesEltESaIvELN9__gnu_cxx12_Lock_policyE2EE14_M_get_deleterERKSt9type_info] }, comdat, align 8
@_ZTSSt23_Sp_counted_ptr_inplaceIN19OpenColorIO_v2_4dev30CTFReaderGradingCurveSlopesEltESaIvELN9__gnu_cxx12_Lock_policyE2EE = linkonce_odr hidden constant [119 x i8] c"St23_Sp_counted_ptr_inplaceIN19OpenColorIO_v2_4dev30CTFReaderGradingCurveSlopesEltESaIvELN9__gnu_cxx12_Lock_policyE2EE\00", comdat, align 1
@_ZTISt23_Sp_counted_ptr_inplaceIN19OpenColorIO_v2_4dev30CTFReaderGradingCurveSlopesEltESaIvELN9__gnu_cxx12_Lock_policyE2EE = linkonce_odr hidden constant { ptr, ptr, ptr } { ptr getelementptr inbounds (ptr, ptr @_ZTVN10__cxxabiv120__si_class_type_infoE, i64 2), ptr @_ZTSSt23_Sp_counted_ptr_inplaceIN19OpenColorIO_v2_4dev30CTFReaderGradingCurveSlopesEltESaIvELN9__gnu_cxx12_Lock_policyE2EE, ptr @_ZTISt16_Sp_counted_baseILN9__gnu_cxx12_Lock_policyE2EE }, comdat, align 8
@_ZTVSt23_Sp_counted_ptr_inplaceIN19OpenColorIO_v2_4dev28CTFReaderGradingToneParamEltESaIvELN9__gnu_cxx12_Lock_policyE2EE = linkonce_odr hidden unnamed_addr constant { [7 x ptr] } { [7 x ptr] [ptr null, ptr @_ZTISt23_Sp_counted_ptr_inplaceIN19OpenColorIO_v2_4dev28CTFReaderGradingToneParamEltESaIvELN9__gnu_cxx12_Lock_policyE2EE, ptr @_ZNSt23_Sp_counted_ptr_inplaceIN19OpenColorIO_v2_4dev28CTFReaderGradingToneParamEltESaIvELN9__gnu_cxx12_Lock_policyE2EED2Ev, ptr @_ZNSt23_Sp_counted_ptr_inplaceIN19OpenColorIO_v2_4dev28CTFReaderGradingToneParamEltESaIvELN9__gnu_cxx12_Lock_policyE2EED0Ev, ptr @_ZNSt23_Sp_counted_ptr_inplaceIN19OpenColorIO_v2_4dev28CTFReaderGradingToneParamEltESaIvELN9__gnu_cxx12_Lock_policyE2EE10_M_disposeEv, ptr @_ZNSt23_Sp_counted_ptr_inplaceIN19OpenColorIO_v2_4dev28CTFReaderGradingToneParamEltESaIvELN9__gnu_cxx12_Lock_policyE2EE10_M_destroyEv, ptr @_ZNSt23_Sp_counted_ptr_inplaceIN19OpenColorIO_v2_4dev28CTFReaderGradingToneParamEltESaIvELN9__gnu_cxx12_Lock_policyE2EE14_M_get_deleterERKSt9type_info] }, comdat, align 8
@_ZTSSt23_Sp_counted_ptr_inplaceIN19OpenColorIO_v2_4dev28CTFReaderGradingToneParamEltESaIvELN9__gnu_cxx12_Lock_policyE2EE = linkonce_odr hidden constant [117 x i8] c"St23_Sp_counted_ptr_inplaceIN19OpenColorIO_v2_4dev28CTFReaderGradingToneParamEltESaIvELN9__gnu_cxx12_Lock_policyE2EE\00", comdat, align 1
@_ZTISt23_Sp_counted_ptr_inplaceIN19OpenColorIO_v2_4dev28CTFReaderGradingToneParamEltESaIvELN9__gnu_cxx12_Lock_policyE2EE = linkonce_odr hidden constant { ptr, ptr, ptr } { ptr getelementptr inbounds (ptr, ptr @_ZTVN10__cxxabiv120__si_class_type_infoE, i64 2), ptr @_ZTSSt23_Sp_counted_ptr_inplaceIN19OpenColorIO_v2_4dev28CTFReaderGradingToneParamEltESaIvELN9__gnu_cxx12_Lock_policyE2EE, ptr @_ZTISt16_Sp_counted_baseILN9__gnu_cxx12_Lock_policyE2EE }, comdat, align 8
@.str.47 = private unnamed_addr constant [32 x i8] c"CTF/CLF internal parsing error.\00", align 1
@.str.48 = private unnamed_addr constant [39 x i8] c"CTF/CLF parsing error: Tag is missing.\00", align 1
@.str.49 = private unnamed_addr constant [29 x i8] c"CTF/CLF parsing error: Tag '\00", align 1
@.str.50 = private unnamed_addr constant [14 x i8] c"' is missing.\00", align 1
@.str.51 = private unnamed_addr constant [39 x i8] c"CTF/CLF parsing error: Attribute end '\00", align 1
@.str.52 = private unnamed_addr constant [14 x i8] c"' is illegal.\00", align 1
@.str.53 = private unnamed_addr constant [3 x i8] c"'.\00", align 1
@.str.54 = private unnamed_addr constant [43 x i8] c"CTF/CLF parsing error: attribute illegal. \00", align 1
@.str.55 = private unnamed_addr constant [41 x i8] c"CTF/CLF parsing error: missing end tag '\00", align 1
@.str.56 = private unnamed_addr constant [43 x i8] c"CTF/CLF parsing error: attribute illegal '\00", align 1
@_ZTIN19OpenColorIO_v2_4dev23XmlReaderDescriptionEltE = external constant ptr
@.str.57 = private unnamed_addr constant [44 x i8] c"CTF/CLF parsing error (no closing tag for '\00", align 1
@.str.58 = private unnamed_addr constant [3 x i8] c") \00", align 1
@_ZZN19OpenColorIO_v2_4dev12_GLOBAL__N_115XMLParserHelper5ParseERSiE5errorB5cxx11 = internal global %"class.std::__cxx11::basic_string" zeroinitializer, align 8
@_ZGVZN19OpenColorIO_v2_4dev12_GLOBAL__N_115XMLParserHelper5ParseERSiE5errorB5cxx11 = internal global i64 0, align 8
@.str.59 = private unnamed_addr constant [42 x i8] c"CTF/CLF parsing error: Invalid transform.\00", align 1
@_ZZN19OpenColorIO_v2_4dev12_GLOBAL__N_115XMLParserHelper5ParseERSiE5errorB5cxx11_0 = internal global %"class.std::__cxx11::basic_string" zeroinitializer, align 8
@_ZGVZN19OpenColorIO_v2_4dev12_GLOBAL__N_115XMLParserHelper5ParseERSiE5errorB5cxx11_0 = internal global i64 0, align 8
@.str.60 = private unnamed_addr constant [50 x i8] c"CTF/CLF parsing error: No color operator in file.\00", align 1
@.str.61 = private unnamed_addr constant [4 x i8] c"').\00", align 1
@_ZZN19OpenColorIO_v2_4dev12_GLOBAL__N_115XMLParserHelper5ParseERKNSt7__cxx1112basic_stringIcSt11char_traitsIcESaIcEEEbE5errorB5cxx11 = internal global %"class.std::__cxx11::basic_string" zeroinitializer, align 8
@_ZGVZN19OpenColorIO_v2_4dev12_GLOBAL__N_115XMLParserHelper5ParseERKNSt7__cxx1112basic_stringIcSt11char_traitsIcESaIcEEEbE5errorB5cxx11 = internal global i64 0, align 8
@.str.62 = private unnamed_addr constant [49 x i8] c"CTF/CLF parsing error (unbalanced element tags).\00", align 1
@.str.63 = private unnamed_addr constant [24 x i8] c"CTF/CLF parsing error: \00", align 1
@_ZTVN19OpenColorIO_v2_4dev12_GLOBAL__N_115LocalCachedFileE = internal unnamed_addr constant { [5 x ptr] } { [5 x ptr] [ptr null, ptr @_ZTIN19OpenColorIO_v2_4dev12_GLOBAL__N_115LocalCachedFileE, ptr @_ZN19OpenColorIO_v2_4dev12_GLOBAL__N_115LocalCachedFileD2Ev, ptr @_ZN19OpenColorIO_v2_4dev12_GLOBAL__N_115LocalCachedFileD0Ev, ptr @_ZNK19OpenColorIO_v2_4dev10CachedFile11getCDLGroupEv] }, align 8
@_ZTSN19OpenColorIO_v2_4dev12_GLOBAL__N_115LocalCachedFileE = internal constant [55 x i8] c"N19OpenColorIO_v2_4dev12_GLOBAL__N_115LocalCachedFileE\00", align 1
@_ZTSN19OpenColorIO_v2_4dev10CachedFileE = linkonce_odr hidden constant [36 x i8] c"N19OpenColorIO_v2_4dev10CachedFileE\00", comdat, align 1
@_ZTIN19OpenColorIO_v2_4dev10CachedFileE = linkonce_odr hidden constant { ptr, ptr } { ptr getelementptr inbounds (ptr, ptr @_ZTVN10__cxxabiv117__class_type_infoE, i64 2), ptr @_ZTSN19OpenColorIO_v2_4dev10CachedFileE }, comdat, align 8
@_ZTIN19OpenColorIO_v2_4dev12_GLOBAL__N_115LocalCachedFileE = internal constant { ptr, ptr, ptr } { ptr getelementptr inbounds (ptr, ptr @_ZTVN10__cxxabiv120__si_class_type_infoE, i64 2), ptr @_ZTSN19OpenColorIO_v2_4dev12_GLOBAL__N_115LocalCachedFileE, ptr @_ZTIN19OpenColorIO_v2_4dev10CachedFileE }, align 8
@.str.64 = private unnamed_addr constant [23 x i8] c"Not a CDL file format.\00", align 1
@_ZTVSt15_Sp_counted_ptrIPN19OpenColorIO_v2_4dev12_GLOBAL__N_115LocalCachedFileELN9__gnu_cxx12_Lock_policyE2EE = internal unnamed_addr constant { [7 x ptr] } { [7 x ptr] [ptr null, ptr @_ZTISt15_Sp_counted_ptrIPN19OpenColorIO_v2_4dev12_GLOBAL__N_115LocalCachedFileELN9__gnu_cxx12_Lock_policyE2EE, ptr @_ZNSt15_Sp_counted_ptrIPN19OpenColorIO_v2_4dev12_GLOBAL__N_115LocalCachedFileELN9__gnu_cxx12_Lock_policyE2EED2Ev, ptr @_ZNSt15_Sp_counted_ptrIPN19OpenColorIO_v2_4dev12_GLOBAL__N_115LocalCachedFileELN9__gnu_cxx12_Lock_policyE2EED0Ev, ptr @_ZNSt15_Sp_counted_ptrIPN19OpenColorIO_v2_4dev12_GLOBAL__N_115LocalCachedFileELN9__gnu_cxx12_Lock_policyE2EE10_M_disposeEv, ptr @_ZNSt15_Sp_counted_ptrIPN19OpenColorIO_v2_4dev12_GLOBAL__N_115LocalCachedFileELN9__gnu_cxx12_Lock_policyE2EE10_M_destroyEv, ptr @_ZNSt15_Sp_counted_ptrIPN19OpenColorIO_v2_4dev12_GLOBAL__N_115LocalCachedFileELN9__gnu_cxx12_Lock_policyE2EE14_M_get_deleterERKSt9type_info] }, align 8
@_ZTSSt15_Sp_counted_ptrIPN19OpenColorIO_v2_4dev12_GLOBAL__N_115LocalCachedFileELN9__gnu_cxx12_Lock_policyE2EE = internal constant [106 x i8] c"St15_Sp_counted_ptrIPN19OpenColorIO_v2_4dev12_GLOBAL__N_115LocalCachedFileELN9__gnu_cxx12_Lock_policyE2EE\00", align 1
@_ZTISt15_Sp_counted_ptrIPN19OpenColorIO_v2_4dev12_GLOBAL__N_115LocalCachedFileELN9__gnu_cxx12_Lock_policyE2EE = internal constant { ptr, ptr, ptr } { ptr getelementptr inbounds (ptr, ptr @_ZTVN10__cxxabiv120__si_class_type_infoE, i64 2), ptr @_ZTSSt15_Sp_counted_ptrIPN19OpenColorIO_v2_4dev12_GLOBAL__N_115LocalCachedFileELN9__gnu_cxx12_Lock_policyE2EE, ptr @_ZTISt16_Sp_counted_baseILN9__gnu_cxx12_Lock_policyE2EE }, align 8
@.str.65 = private unnamed_addr constant [36 x i8] c"Unknown CLF/CTF file format name, '\00", align 1
@_ZTVSt23_Sp_counted_ptr_inplaceIN19OpenColorIO_v2_4dev11Lut1DOpDataESaIvELN9__gnu_cxx12_Lock_policyE2EE = linkonce_odr hidden unnamed_addr constant { [7 x ptr] } { [7 x ptr] [ptr null, ptr @_ZTISt23_Sp_counted_ptr_inplaceIN19OpenColorIO_v2_4dev11Lut1DOpDataESaIvELN9__gnu_cxx12_Lock_policyE2EE, ptr @_ZNSt23_Sp_counted_ptr_inplaceIN19OpenColorIO_v2_4dev11Lut1DOpDataESaIvELN9__gnu_cxx12_Lock_policyE2EED2Ev, ptr @_ZNSt23_Sp_counted_ptr_inplaceIN19OpenColorIO_v2_4dev11Lut1DOpDataESaIvELN9__gnu_cxx12_Lock_policyE2EED0Ev, ptr @_ZNSt23_Sp_counted_ptr_inplaceIN19OpenColorIO_v2_4dev11Lut1DOpDataESaIvELN9__gnu_cxx12_Lock_policyE2EE10_M_disposeEv, ptr @_ZNSt23_Sp_counted_ptr_inplaceIN19OpenColorIO_v2_4dev11Lut1DOpDataESaIvELN9__gnu_cxx12_Lock_policyE2EE10_M_destroyEv, ptr @_ZNSt23_Sp_counted_ptr_inplaceIN19OpenColorIO_v2_4dev11Lut1DOpDataESaIvELN9__gnu_cxx12_Lock_policyE2EE14_M_get_deleterERKSt9type_info] }, comdat, align 8
@_ZTSSt23_Sp_counted_ptr_inplaceIN19OpenColorIO_v2_4dev11Lut1DOpDataESaIvELN9__gnu_cxx12_Lock_policyE2EE = linkonce_odr hidden constant [100 x i8] c"St23_Sp_counted_ptr_inplaceIN19OpenColorIO_v2_4dev11Lut1DOpDataESaIvELN9__gnu_cxx12_Lock_policyE2EE\00", comdat, align 1
@_ZTISt23_Sp_counted_ptr_inplaceIN19OpenColorIO_v2_4dev11Lut1DOpDataESaIvELN9__gnu_cxx12_Lock_policyE2EE = linkonce_odr hidden constant { ptr, ptr, ptr } { ptr getelementptr inbounds (ptr, ptr @_ZTVN10__cxxabiv120__si_class_type_infoE, i64 2), ptr @_ZTSSt23_Sp_counted_ptr_inplaceIN19OpenColorIO_v2_4dev11Lut1DOpDataESaIvELN9__gnu_cxx12_Lock_policyE2EE, ptr @_ZTISt16_Sp_counted_baseILN9__gnu_cxx12_Lock_policyE2EE }, comdat, align 8
@.str.67 = private unnamed_addr constant [26 x i8] c"vector::_M_default_append\00", align 1
@_ZTVSt23_Sp_counted_ptr_inplaceIN19OpenColorIO_v2_4dev11Lut3DOpDataESaIvELN9__gnu_cxx12_Lock_policyE2EE = linkonce_odr hidden unnamed_addr constant { [7 x ptr] } { [7 x ptr] [ptr null, ptr @_ZTISt23_Sp_counted_ptr_inplaceIN19OpenColorIO_v2_4dev11Lut3DOpDataESaIvELN9__gnu_cxx12_Lock_policyE2EE, ptr @_ZNSt23_Sp_counted_ptr_inplaceIN19OpenColorIO_v2_4dev11Lut3DOpDataESaIvELN9__gnu_cxx12_Lock_policyE2EED2Ev, ptr @_ZNSt23_Sp_counted_ptr_inplaceIN19OpenColorIO_v2_4dev11Lut3DOpDataESaIvELN9__gnu_cxx12_Lock_policyE2EED0Ev, ptr @_ZNSt23_Sp_counted_ptr_inplaceIN19OpenColorIO_v2_4dev11Lut3DOpDataESaIvELN9__gnu_cxx12_Lock_policyE2EE10_M_disposeEv, ptr @_ZNSt23_Sp_counted_ptr_inplaceIN19OpenColorIO_v2_4dev11Lut3DOpDataESaIvELN9__gnu_cxx12_Lock_policyE2EE10_M_destroyEv, ptr @_ZNSt23_Sp_counted_ptr_inplaceIN19OpenColorIO_v2_4dev11Lut3DOpDataESaIvELN9__gnu_cxx12_Lock_policyE2EE14_M_get_deleterERKSt9type_info] }, comdat, align 8
@_ZTSSt23_Sp_counted_ptr_inplaceIN19OpenColorIO_v2_4dev11Lut3DOpDataESaIvELN9__gnu_cxx12_Lock_policyE2EE = linkonce_odr hidden constant [100 x i8] c"St23_Sp_counted_ptr_inplaceIN19OpenColorIO_v2_4dev11Lut3DOpDataESaIvELN9__gnu_cxx12_Lock_policyE2EE\00", comdat, align 1
@_ZTISt23_Sp_counted_ptr_inplaceIN19OpenColorIO_v2_4dev11Lut3DOpDataESaIvELN9__gnu_cxx12_Lock_policyE2EE = linkonce_odr hidden constant { ptr, ptr, ptr } { ptr getelementptr inbounds (ptr, ptr @_ZTVN10__cxxabiv120__si_class_type_infoE, i64 2), ptr @_ZTSSt23_Sp_counted_ptr_inplaceIN19OpenColorIO_v2_4dev11Lut3DOpDataESaIvELN9__gnu_cxx12_Lock_policyE2EE, ptr @_ZTISt16_Sp_counted_baseILN9__gnu_cxx12_Lock_policyE2EE }, comdat, align 8
@.str.68 = private unnamed_addr constant [50 x i8] c"Error: CLF/CTF writer does not also write format \00", align 1
@.str.69 = private unnamed_addr constant [39 x i8] c"<?xml version=\221.0\22 encoding=\22UTF-8\22?>\00", align 1
@_ZTVSt23_Sp_counted_ptr_inplaceIN19OpenColorIO_v2_4dev18CTFReaderTransformESaIvELN9__gnu_cxx12_Lock_policyE2EE = linkonce_odr hidden unnamed_addr constant { [7 x ptr] } { [7 x ptr] [ptr null, ptr @_ZTISt23_Sp_counted_ptr_inplaceIN19OpenColorIO_v2_4dev18CTFReaderTransformESaIvELN9__gnu_cxx12_Lock_policyE2EE, ptr @_ZNSt23_Sp_counted_ptr_inplaceIN19OpenColorIO_v2_4dev18CTFReaderTransformESaIvELN9__gnu_cxx12_Lock_policyE2EED2Ev, ptr @_ZNSt23_Sp_counted_ptr_inplaceIN19OpenColorIO_v2_4dev18CTFReaderTransformESaIvELN9__gnu_cxx12_Lock_policyE2EED0Ev, ptr @_ZNSt23_Sp_counted_ptr_inplaceIN19OpenColorIO_v2_4dev18CTFReaderTransformESaIvELN9__gnu_cxx12_Lock_policyE2EE10_M_disposeEv, ptr @_ZNSt23_Sp_counted_ptr_inplaceIN19OpenColorIO_v2_4dev18CTFReaderTransformESaIvELN9__gnu_cxx12_Lock_policyE2EE10_M_destroyEv, ptr @_ZNSt23_Sp_counted_ptr_inplaceIN19OpenColorIO_v2_4dev18CTFReaderTransformESaIvELN9__gnu_cxx12_Lock_policyE2EE14_M_get_deleterERKSt9type_info] }, comdat, align 8
@_ZTSSt23_Sp_counted_ptr_inplaceIN19OpenColorIO_v2_4dev18CTFReaderTransformESaIvELN9__gnu_cxx12_Lock_policyE2EE = linkonce_odr hidden constant [107 x i8] c"St23_Sp_counted_ptr_inplaceIN19OpenColorIO_v2_4dev18CTFReaderTransformESaIvELN9__gnu_cxx12_Lock_policyE2EE\00", comdat, align 1
@_ZTISt23_Sp_counted_ptr_inplaceIN19OpenColorIO_v2_4dev18CTFReaderTransformESaIvELN9__gnu_cxx12_Lock_policyE2EE = linkonce_odr hidden constant { ptr, ptr, ptr } { ptr getelementptr inbounds (ptr, ptr @_ZTVN10__cxxabiv120__si_class_type_infoE, i64 2), ptr @_ZTSSt23_Sp_counted_ptr_inplaceIN19OpenColorIO_v2_4dev18CTFReaderTransformESaIvELN9__gnu_cxx12_Lock_policyE2EE, ptr @_ZTISt16_Sp_counted_baseILN9__gnu_cxx12_Lock_policyE2EE }, comdat, align 8
@.str.70 = private unnamed_addr constant [42 x i8] c"Cannot build clf ops. Invalid cache type.\00", align 1
@_ZTIN19OpenColorIO_v2_4dev6OpDataE = external constant ptr
@_ZTIN19OpenColorIO_v2_4dev11Lut1DOpDataE = external constant ptr
@_ZTIN19OpenColorIO_v2_4dev11Lut3DOpDataE = external constant ptr
@_ZTIN19OpenColorIO_v2_4dev15ReferenceOpDataE = external constant ptr
@llvm.global_ctors = appending global [1 x { i32, ptr, ptr }] [{ i32, ptr, ptr } { i32 65535, ptr @_GLOBAL__sub_I_FileFormatCTF.cpp, ptr null }]

declare void @_ZNSt8ios_base4InitC1Ev(ptr noundef nonnull align 1 dereferenceable(1)) unnamed_addr #0

; Function Attrs: nounwind
declare void @_ZNSt8ios_base4InitD1Ev(ptr noundef nonnull align 1 dereferenceable(1)) unnamed_addr #1

; Function Attrs: nofree nounwind
declare i32 @__cxa_atexit(ptr, ptr, ptr) local_unnamed_addr #2

; Function Attrs: mustprogress nounwind uwtable
define linkonce_odr hidden void @_ZN19OpenColorIO_v2_4dev11NumberUtils6LocaleD2Ev(ptr noundef nonnull align 8 dereferenceable(8) %this) unnamed_addr #3 comdat align 2 {
entry:
  %0 = load ptr, ptr %this, align 8
  tail call void @freelocale(ptr noundef %0) #21
  ret void
}

; Function Attrs: mustprogress uwtable
define hidden noalias noundef nonnull ptr @_ZN19OpenColorIO_v2_4dev19CreateFileFormatCLFEv() local_unnamed_addr #4 {
entry:
  %call = tail call noalias noundef nonnull dereferenceable(8) ptr @_Znwm(i64 noundef 8) #22
  store ptr getelementptr inbounds ({ [10 x ptr] }, ptr @_ZTVN19OpenColorIO_v2_4dev12_GLOBAL__N_115LocalFileFormatE, i64 0, inrange i32 0, i64 2), ptr %call, align 8
  ret ptr %call
}

; Function Attrs: nobuiltin allocsize(0)
declare noundef nonnull ptr @_Znwm(i64 noundef) local_unnamed_addr #5

; Function Attrs: mustprogress nocallback nofree nounwind willreturn memory(argmem: write)
declare void @llvm.memset.p0.i64(ptr nocapture writeonly, i8, i64, i1 immarg) #6

; Function Attrs: nounwind
declare ptr @newlocale(i32 noundef, ptr noundef, ptr noundef) local_unnamed_addr #1

; Function Attrs: nounwind
declare void @freelocale(ptr noundef) local_unnamed_addr #1

; Function Attrs: mustprogress nounwind uwtable
define internal void @_ZN19OpenColorIO_v2_4dev12_GLOBAL__N_115LocalFileFormatD2Ev(ptr noundef nonnull align 8 dereferenceable(8) %this) unnamed_addr #3 align 2 {
entry:
  tail call void @_ZN19OpenColorIO_v2_4dev10FileFormatD2Ev(ptr noundef nonnull align 8 dereferenceable(8) %this) #21
  ret void
}

; Function Attrs: mustprogress nounwind uwtable
define internal void @_ZN19OpenColorIO_v2_4dev12_GLOBAL__N_115LocalFileFormatD0Ev(ptr noundef nonnull align 8 dereferenceable(8) %this) unnamed_addr #3 align 2 {
entry:
  tail call void @_ZN19OpenColorIO_v2_4dev10FileFormatD2Ev(ptr noundef nonnull align 8 dereferenceable(8) %this) #21
  tail call void @_ZdlPv(ptr noundef nonnull %this) #23
  ret void
}

; Function Attrs: mustprogress uwtable
define internal void @_ZNK19OpenColorIO_v2_4dev12_GLOBAL__N_115LocalFileFormat13getFormatInfoERSt6vectorINS_10FormatInfoESaIS3_EE(ptr nocapture nonnull readnone align 8 %this, ptr noundef nonnull align 8 dereferenceable(24) %formatInfoVec) unnamed_addr #4 align 2 personality ptr @__gxx_personality_v0 {
entry:
  %info = alloca %"struct.OpenColorIO_v2_4dev::FormatInfo", align 8
  %info2 = alloca %"struct.OpenColorIO_v2_4dev::FormatInfo", align 8
  call void @_ZNSt7__cxx1112basic_stringIcSt11char_traitsIcESaIcEEC1Ev(ptr noundef nonnull align 8 dereferenceable(32) %info) #21
  %extension.i = getelementptr inbounds %"struct.OpenColorIO_v2_4dev::FormatInfo", ptr %info, i64 0, i32 1
  call void @_ZNSt7__cxx1112basic_stringIcSt11char_traitsIcESaIcEEC1Ev(ptr noundef nonnull align 8 dereferenceable(32) %extension.i) #21
  %capabilities.i = getelementptr inbounds %"struct.OpenColorIO_v2_4dev::FormatInfo", ptr %info, i64 0, i32 2
  store i32 0, ptr %capabilities.i, align 8
  %bake_capabilities.i = getelementptr inbounds %"struct.OpenColorIO_v2_4dev::FormatInfo", ptr %info, i64 0, i32 3
  store i32 0, ptr %bake_capabilities.i, align 4
  %call = invoke noundef nonnull align 8 dereferenceable(32) ptr @_ZNSt7__cxx1112basic_stringIcSt11char_traitsIcESaIcEEaSEPKc(ptr noundef nonnull align 8 dereferenceable(32) %info, ptr noundef nonnull @_ZN19OpenColorIO_v2_4devL14FILEFORMAT_CLFE)
          to label %invoke.cont unwind label %lpad

invoke.cont:                                      ; preds = %entry
  %call3 = invoke noundef nonnull align 8 dereferenceable(32) ptr @_ZNSt7__cxx1112basic_stringIcSt11char_traitsIcESaIcEEaSEPKc(ptr noundef nonnull align 8 dereferenceable(32) %extension.i, ptr noundef nonnull @.str.12)
          to label %invoke.cont2 unwind label %lpad

invoke.cont2:                                     ; preds = %invoke.cont
  store i32 7, ptr %capabilities.i, align 8
  store i32 7, ptr %bake_capabilities.i, align 4
  %_M_finish.i = getelementptr inbounds %"struct.std::_Vector_base<OpenColorIO_v2_4dev::FormatInfo, std::allocator<OpenColorIO_v2_4dev::FormatInfo>>::_Vector_impl_data", ptr %formatInfoVec, i64 0, i32 1
  %0 = load ptr, ptr %_M_finish.i, align 8
  %_M_end_of_storage.i = getelementptr inbounds %"struct.std::_Vector_base<OpenColorIO_v2_4dev::FormatInfo, std::allocator<OpenColorIO_v2_4dev::FormatInfo>>::_Vector_impl_data", ptr %formatInfoVec, i64 0, i32 2
  %1 = load ptr, ptr %_M_end_of_storage.i, align 8
  %cmp.not.i = icmp eq ptr %0, %1
  br i1 %cmp.not.i, label %if.else.i, label %if.then.i

if.then.i:                                        ; preds = %invoke.cont2
  invoke void @_ZNSt7__cxx1112basic_stringIcSt11char_traitsIcESaIcEEC1ERKS4_(ptr noundef nonnull align 8 dereferenceable(32) %0, ptr noundef nonnull align 8 dereferenceable(32) %info)
          to label %.noexc unwind label %lpad

.noexc:                                           ; preds = %if.then.i
  %extension.i.i.i.i = getelementptr inbounds %"struct.OpenColorIO_v2_4dev::FormatInfo", ptr %0, i64 0, i32 1
  invoke void @_ZNSt7__cxx1112basic_stringIcSt11char_traitsIcESaIcEEC1ERKS4_(ptr noundef nonnull align 8 dereferenceable(32) %extension.i.i.i.i, ptr noundef nonnull align 8 dereferenceable(32) %extension.i)
          to label %_ZNSt16allocator_traitsISaIN19OpenColorIO_v2_4dev10FormatInfoEEE9constructIS1_JRKS1_EEEvRS2_PT_DpOT0_.exit.i unwind label %lpad.i.i.i.i

lpad.i.i.i.i:                                     ; preds = %.noexc
  %2 = landingpad { ptr, i32 }
          cleanup
  call void @_ZNSt7__cxx1112basic_stringIcSt11char_traitsIcESaIcEED1Ev(ptr noundef nonnull align 8 dereferenceable(32) %0) #21
  br label %ehcleanup

_ZNSt16allocator_traitsISaIN19OpenColorIO_v2_4dev10FormatInfoEEE9constructIS1_JRKS1_EEEvRS2_PT_DpOT0_.exit.i: ; preds = %.noexc
  %capabilities.i.i.i.i = getelementptr inbounds %"struct.OpenColorIO_v2_4dev::FormatInfo", ptr %0, i64 0, i32 2
  %3 = load i64, ptr %capabilities.i, align 8
  store i64 %3, ptr %capabilities.i.i.i.i, align 8
  %4 = load ptr, ptr %_M_finish.i, align 8
  %incdec.ptr.i = getelementptr inbounds %"struct.OpenColorIO_v2_4dev::FormatInfo", ptr %4, i64 1
  store ptr %incdec.ptr.i, ptr %_M_finish.i, align 8
  br label %invoke.cont4

if.else.i:                                        ; preds = %invoke.cont2
  invoke void @_ZNSt6vectorIN19OpenColorIO_v2_4dev10FormatInfoESaIS1_EE17_M_realloc_insertIJRKS1_EEEvN9__gnu_cxx17__normal_iteratorIPS1_S3_EEDpOT_(ptr noundef nonnull align 8 dereferenceable(24) %formatInfoVec, ptr %0, ptr noundef nonnull align 8 dereferenceable(72) %info)
          to label %invoke.cont4 unwind label %lpad

invoke.cont4:                                     ; preds = %_ZNSt16allocator_traitsISaIN19OpenColorIO_v2_4dev10FormatInfoEEE9constructIS1_JRKS1_EEEvRS2_PT_DpOT0_.exit.i, %if.else.i
  call void @_ZNSt7__cxx1112basic_stringIcSt11char_traitsIcESaIcEEC1Ev(ptr noundef nonnull align 8 dereferenceable(32) %info2) #21
  %extension.i4 = getelementptr inbounds %"struct.OpenColorIO_v2_4dev::FormatInfo", ptr %info2, i64 0, i32 1
  call void @_ZNSt7__cxx1112basic_stringIcSt11char_traitsIcESaIcEEC1Ev(ptr noundef nonnull align 8 dereferenceable(32) %extension.i4) #21
  %capabilities.i5 = getelementptr inbounds %"struct.OpenColorIO_v2_4dev::FormatInfo", ptr %info2, i64 0, i32 2
  store i32 0, ptr %capabilities.i5, align 8
  %bake_capabilities.i6 = getelementptr inbounds %"struct.OpenColorIO_v2_4dev::FormatInfo", ptr %info2, i64 0, i32 3
  store i32 0, ptr %bake_capabilities.i6, align 4
  %call9 = invoke noundef nonnull align 8 dereferenceable(32) ptr @_ZNSt7__cxx1112basic_stringIcSt11char_traitsIcESaIcEEaSEPKc(ptr noundef nonnull align 8 dereferenceable(32) %info2, ptr noundef nonnull @_ZN19OpenColorIO_v2_4devL14FILEFORMAT_CTFE)
          to label %invoke.cont8 unwind label %lpad7

invoke.cont8:                                     ; preds = %invoke.cont4
  %call12 = invoke noundef nonnull align 8 dereferenceable(32) ptr @_ZNSt7__cxx1112basic_stringIcSt11char_traitsIcESaIcEEaSEPKc(ptr noundef nonnull align 8 dereferenceable(32) %extension.i4, ptr noundef nonnull @.str.13)
          to label %invoke.cont11 unwind label %lpad7

invoke.cont11:                                    ; preds = %invoke.cont8
  store i32 7, ptr %capabilities.i5, align 8
  store i32 7, ptr %bake_capabilities.i, align 4
  %5 = load ptr, ptr %_M_finish.i, align 8
  %6 = load ptr, ptr %_M_end_of_storage.i, align 8
  %cmp.not.i9 = icmp eq ptr %5, %6
  br i1 %cmp.not.i9, label %if.else.i18, label %if.then.i10

if.then.i10:                                      ; preds = %invoke.cont11
  invoke void @_ZNSt7__cxx1112basic_stringIcSt11char_traitsIcESaIcEEC1ERKS4_(ptr noundef nonnull align 8 dereferenceable(32) %5, ptr noundef nonnull align 8 dereferenceable(32) %info2)
          to label %.noexc19 unwind label %lpad7

.noexc19:                                         ; preds = %if.then.i10
  %extension.i.i.i.i11 = getelementptr inbounds %"struct.OpenColorIO_v2_4dev::FormatInfo", ptr %5, i64 0, i32 1
  invoke void @_ZNSt7__cxx1112basic_stringIcSt11char_traitsIcESaIcEEC1ERKS4_(ptr noundef nonnull align 8 dereferenceable(32) %extension.i.i.i.i11, ptr noundef nonnull align 8 dereferenceable(32) %extension.i4)
          to label %_ZNSt16allocator_traitsISaIN19OpenColorIO_v2_4dev10FormatInfoEEE9constructIS1_JRKS1_EEEvRS2_PT_DpOT0_.exit.i14 unwind label %lpad.i.i.i.i13

lpad.i.i.i.i13:                                   ; preds = %.noexc19
  %7 = landingpad { ptr, i32 }
          cleanup
  call void @_ZNSt7__cxx1112basic_stringIcSt11char_traitsIcESaIcEED1Ev(ptr noundef nonnull align 8 dereferenceable(32) %5) #21
  br label %lpad7.body

_ZNSt16allocator_traitsISaIN19OpenColorIO_v2_4dev10FormatInfoEEE9constructIS1_JRKS1_EEEvRS2_PT_DpOT0_.exit.i14: ; preds = %.noexc19
  %capabilities.i.i.i.i15 = getelementptr inbounds %"struct.OpenColorIO_v2_4dev::FormatInfo", ptr %5, i64 0, i32 2
  %8 = load i64, ptr %capabilities.i5, align 8
  store i64 %8, ptr %capabilities.i.i.i.i15, align 8
  %9 = load ptr, ptr %_M_finish.i, align 8
  %incdec.ptr.i17 = getelementptr inbounds %"struct.OpenColorIO_v2_4dev::FormatInfo", ptr %9, i64 1
  store ptr %incdec.ptr.i17, ptr %_M_finish.i, align 8
  br label %invoke.cont15

if.else.i18:                                      ; preds = %invoke.cont11
  invoke void @_ZNSt6vectorIN19OpenColorIO_v2_4dev10FormatInfoESaIS1_EE17_M_realloc_insertIJRKS1_EEEvN9__gnu_cxx17__normal_iteratorIPS1_S3_EEDpOT_(ptr noundef nonnull align 8 dereferenceable(24) %formatInfoVec, ptr %5, ptr noundef nonnull align 8 dereferenceable(72) %info2)
          to label %invoke.cont15 unwind label %lpad7

invoke.cont15:                                    ; preds = %_ZNSt16allocator_traitsISaIN19OpenColorIO_v2_4dev10FormatInfoEEE9constructIS1_JRKS1_EEEvRS2_PT_DpOT0_.exit.i14, %if.else.i18
  call void @_ZNSt7__cxx1112basic_stringIcSt11char_traitsIcESaIcEED1Ev(ptr noundef nonnull align 8 dereferenceable(32) %extension.i4) #21
  call void @_ZNSt7__cxx1112basic_stringIcSt11char_traitsIcESaIcEED1Ev(ptr noundef nonnull align 8 dereferenceable(32) %info2) #21
  call void @_ZNSt7__cxx1112basic_stringIcSt11char_traitsIcESaIcEED1Ev(ptr noundef nonnull align 8 dereferenceable(32) %extension.i) #21
  call void @_ZNSt7__cxx1112basic_stringIcSt11char_traitsIcESaIcEED1Ev(ptr noundef nonnull align 8 dereferenceable(32) %info) #21
  ret void

lpad:                                             ; preds = %if.else.i, %if.then.i, %invoke.cont, %entry
  %10 = landingpad { ptr, i32 }
          cleanup
  br label %ehcleanup

lpad7:                                            ; preds = %if.else.i18, %if.then.i10, %invoke.cont8, %invoke.cont4
  %11 = landingpad { ptr, i32 }
          cleanup
  br label %lpad7.body

lpad7.body:                                       ; preds = %lpad.i.i.i.i13, %lpad7
  %eh.lpad-body20 = phi { ptr, i32 } [ %11, %lpad7 ], [ %7, %lpad.i.i.i.i13 ]
  call void @_ZNSt7__cxx1112basic_stringIcSt11char_traitsIcESaIcEED1Ev(ptr noundef nonnull align 8 dereferenceable(32) %extension.i4) #21
  call void @_ZNSt7__cxx1112basic_stringIcSt11char_traitsIcESaIcEED1Ev(ptr noundef nonnull align 8 dereferenceable(32) %info2) #21
  br label %ehcleanup

ehcleanup:                                        ; preds = %lpad, %lpad.i.i.i.i, %lpad7.body
  %.pn = phi { ptr, i32 } [ %eh.lpad-body20, %lpad7.body ], [ %10, %lpad ], [ %2, %lpad.i.i.i.i ]
  call void @_ZNSt7__cxx1112basic_stringIcSt11char_traitsIcESaIcEED1Ev(ptr noundef nonnull align 8 dereferenceable(32) %extension.i) #21
  call void @_ZNSt7__cxx1112basic_stringIcSt11char_traitsIcESaIcEED1Ev(ptr noundef nonnull align 8 dereferenceable(32) %info) #21
  resume { ptr, i32 } %.pn
}

; Function Attrs: mustprogress uwtable
define internal void @_ZNK19OpenColorIO_v2_4dev12_GLOBAL__N_115LocalFileFormat4readERSiRKNSt7__cxx1112basic_stringIcSt11char_traitsIcESaIcEEENS_13InterpolationE(ptr noalias nocapture writeonly sret(%"class.std::shared_ptr") align 8 %agg.result, ptr nocapture nonnull readnone align 8 %this, ptr noundef nonnull align 8 dereferenceable(16) %istream, ptr noundef nonnull align 8 dereferenceable(32) %filePath, i32 %0) unnamed_addr #4 align 2 personality ptr @__gxx_personality_v0 {
entry:
  %error.i.i = alloca %"class.std::__cxx11::basic_string", align 8
  %ref.tmp.i.i = alloca %"class.std::allocator", align 1
  %ref.tmp10.i.i = alloca %"class.std::shared_ptr.21", align 8
  %ref.tmp24.i.i = alloca %"class.std::allocator", align 1
  %error30.i.i = alloca %"class.std::__cxx11::basic_string", align 8
  %ref.tmp31.i.i = alloca %"class.std::allocator", align 1
  %line.i14 = alloca %"class.std::__cxx11::basic_string", align 8
  %error.i = alloca %"class.std::__cxx11::basic_string", align 8
  %ref.tmp.i15 = alloca %"class.std::allocator", align 1
  %ref.tmp17.i = alloca %"class.std::shared_ptr.21", align 8
  %ref.tmp30.i = alloca %"class.std::shared_ptr.9", align 8
  %ref.tmp34.i = alloca %"class.std::allocator", align 1
  %ref.tmp51.i = alloca %"class.std::allocator", align 1
  %root.i = alloca %"class.std::__cxx11::basic_string", align 8
  %extension.i = alloca %"class.std::__cxx11::basic_string", align 8
  %ref.tmp.i = alloca %"class.std::__cxx11::basic_string", align 8
  %agg.tmp.i = alloca %"class.std::__cxx11::basic_string", align 8
  %line.i = alloca [5121 x i8], align 16
  %oss = alloca %"class.std::__cxx11::basic_ostringstream", align 8
  %ref.tmp = alloca %"class.std::__cxx11::basic_string", align 8
  %parser = alloca %"class.OpenColorIO_v2_4dev::(anonymous namespace)::XMLParserHelper", align 8
  call void @llvm.lifetime.start.p0(i64 5121, ptr nonnull %line.i)
  %call.i = tail call { i64, i64 } @_ZNSi5tellgEv(ptr noundef nonnull align 8 dereferenceable(16) %istream)
  %vtable.i = load ptr, ptr %istream, align 8
  %vbase.offset.ptr.i = getelementptr i8, ptr %vtable.i, i64 -24
  %vbase.offset.i = load i64, ptr %vbase.offset.ptr.i, align 8
  %add.ptr.i = getelementptr inbounds i8, ptr %istream, i64 %vbase.offset.i
  %call1.i = tail call noundef zeroext i1 @_ZNKSt9basic_iosIcSt11char_traitsIcEE4goodEv(ptr noundef nonnull align 8 dereferenceable(264) %add.ptr.i)
  br i1 %call1.i, label %while.cond.preheader.i, label %_ZN19OpenColorIO_v2_4dev12_GLOBAL__N_113isLoadableCTFERSi.exit.thread

while.cond.preheader.i:                           ; preds = %entry
  %vtable28.i = load ptr, ptr %istream, align 8
  %vbase.offset.ptr39.i = getelementptr i8, ptr %vtable28.i, i64 -24
  %vbase.offset410.i = load i64, ptr %vbase.offset.ptr39.i, align 8
  %add.ptr511.i = getelementptr inbounds i8, ptr %istream, i64 %vbase.offset410.i
  %call612.i = tail call noundef zeroext i1 @_ZNKSt9basic_iosIcSt11char_traitsIcEE4goodEv(ptr noundef nonnull align 8 dereferenceable(264) %add.ptr511.i)
  br i1 %call612.i, label %land.lhs.true.i, label %_ZN19OpenColorIO_v2_4dev12_GLOBAL__N_113isLoadableCTFERSi.exit.thread

land.lhs.true.i:                                  ; preds = %while.cond.preheader.i, %while.body.i
  %foundPattern.014.i = phi i8 [ %spec.select.i, %while.body.i ], [ 0, %while.cond.preheader.i ]
  %sizeProcessed.013.i = phi i32 [ %add.i, %while.body.i ], [ 0, %while.cond.preheader.i ]
  %1 = and i8 %foundPattern.014.i, 1
  %tobool.not7.i = icmp eq i8 %1, 0
  %cmp.i = icmp ult i32 %sizeProcessed.013.i, 5120
  %or.cond.i = select i1 %tobool.not7.i, i1 %cmp.i, i1 false
  br i1 %or.cond.i, label %while.body.i, label %_ZN19OpenColorIO_v2_4dev12_GLOBAL__N_113isLoadableCTFERSi.exit

while.body.i:                                     ; preds = %land.lhs.true.i
  %call7.i = call noundef nonnull align 8 dereferenceable(16) ptr @_ZNSi7getlineEPcl(ptr noundef nonnull align 8 dereferenceable(16) %istream, ptr noundef nonnull %line.i, i64 noundef 5120)
  %call9.i = call noundef ptr @strstr(ptr noundef nonnull dereferenceable(1) %line.i, ptr noundef nonnull dereferenceable(1) @.str.17) #24
  %tobool10.not.i = icmp eq ptr %call9.i, null
  %spec.select.i = select i1 %tobool10.not.i, i8 %foundPattern.014.i, i8 1
  %call13.i = call i64 @strlen(ptr noundef nonnull dereferenceable(1) %line.i) #24
  %conv.i = trunc i64 %call13.i to i32
  %add.i = add i32 %sizeProcessed.013.i, %conv.i
  %vtable2.i = load ptr, ptr %istream, align 8
  %vbase.offset.ptr3.i = getelementptr i8, ptr %vtable2.i, i64 -24
  %vbase.offset4.i = load i64, ptr %vbase.offset.ptr3.i, align 8
  %add.ptr5.i = getelementptr inbounds i8, ptr %istream, i64 %vbase.offset4.i
  %call6.i = call noundef zeroext i1 @_ZNKSt9basic_iosIcSt11char_traitsIcEE4goodEv(ptr noundef nonnull align 8 dereferenceable(264) %add.ptr5.i)
  br i1 %call6.i, label %land.lhs.true.i, label %while.body.i._ZN19OpenColorIO_v2_4dev12_GLOBAL__N_113isLoadableCTFERSi.exit_crit_edge, !llvm.loop !4

while.body.i._ZN19OpenColorIO_v2_4dev12_GLOBAL__N_113isLoadableCTFERSi.exit_crit_edge: ; preds = %while.body.i
  %.pre = and i8 %spec.select.i, 1
  br label %_ZN19OpenColorIO_v2_4dev12_GLOBAL__N_113isLoadableCTFERSi.exit

_ZN19OpenColorIO_v2_4dev12_GLOBAL__N_113isLoadableCTFERSi.exit.thread: ; preds = %entry, %while.cond.preheader.i
  %2 = extractvalue { i64, i64 } %call.i, 1
  %3 = extractvalue { i64, i64 } %call.i, 0
  %call15.i120 = tail call noundef nonnull align 8 dereferenceable(16) ptr @_ZNSi5seekgESt4fposI11__mbstate_tE(ptr noundef nonnull align 8 dereferenceable(16) %istream, i64 %3, i64 %2)
  call void @llvm.lifetime.end.p0(i64 5121, ptr nonnull %line.i)
  br label %if.then

_ZN19OpenColorIO_v2_4dev12_GLOBAL__N_113isLoadableCTFERSi.exit: ; preds = %land.lhs.true.i, %while.body.i._ZN19OpenColorIO_v2_4dev12_GLOBAL__N_113isLoadableCTFERSi.exit_crit_edge
  %.pre-phi = phi i8 [ %.pre, %while.body.i._ZN19OpenColorIO_v2_4dev12_GLOBAL__N_113isLoadableCTFERSi.exit_crit_edge ], [ %1, %land.lhs.true.i ]
  %.not = icmp eq i8 %.pre-phi, 0
  %4 = extractvalue { i64, i64 } %call.i, 1
  %5 = extractvalue { i64, i64 } %call.i, 0
  %call15.i = call noundef nonnull align 8 dereferenceable(16) ptr @_ZNSi5seekgESt4fposI11__mbstate_tE(ptr noundef nonnull align 8 dereferenceable(16) %istream, i64 %5, i64 %4)
  call void @llvm.lifetime.end.p0(i64 5121, ptr nonnull %line.i)
  br i1 %.not, label %if.then, label %if.end

if.then:                                          ; preds = %_ZN19OpenColorIO_v2_4dev12_GLOBAL__N_113isLoadableCTFERSi.exit.thread, %_ZN19OpenColorIO_v2_4dev12_GLOBAL__N_113isLoadableCTFERSi.exit
  call void @_ZNSt7__cxx1119basic_ostringstreamIcSt11char_traitsIcESaIcEEC1Ev(ptr noundef nonnull align 8 dereferenceable(112) %oss)
  %call2 = invoke noundef nonnull align 8 dereferenceable(8) ptr @_ZStlsISt11char_traitsIcEERSt13basic_ostreamIcT_ES5_PKc(ptr noundef nonnull align 8 dereferenceable(8) %oss, ptr noundef nonnull @.str.15)
          to label %invoke.cont unwind label %lpad

invoke.cont:                                      ; preds = %if.then
  %call4 = invoke noundef nonnull align 8 dereferenceable(8) ptr @_ZStlsIcSt11char_traitsIcESaIcEERSt13basic_ostreamIT_T0_ES7_RKNSt7__cxx1112basic_stringIS4_S5_T1_EE(ptr noundef nonnull align 8 dereferenceable(8) %call2, ptr noundef nonnull align 8 dereferenceable(32) %filePath)
          to label %invoke.cont3 unwind label %lpad

invoke.cont3:                                     ; preds = %invoke.cont
  %call6 = invoke noundef nonnull align 8 dereferenceable(8) ptr @_ZStlsISt11char_traitsIcEERSt13basic_ostreamIcT_ES5_PKc(ptr noundef nonnull align 8 dereferenceable(8) %call4, ptr noundef nonnull @.str.16)
          to label %invoke.cont5 unwind label %lpad

invoke.cont5:                                     ; preds = %invoke.cont3
  %exception = call ptr @__cxa_allocate_exception(i64 16) #21
  invoke void @_ZNKSt7__cxx1119basic_ostringstreamIcSt11char_traitsIcESaIcEE3strEv(ptr nonnull sret(%"class.std::__cxx11::basic_string") align 8 %ref.tmp, ptr noundef nonnull align 8 dereferenceable(112) %oss)
          to label %invoke.cont8 unwind label %ehcleanup.thread

invoke.cont8:                                     ; preds = %invoke.cont5
  %call9 = call noundef ptr @_ZNKSt7__cxx1112basic_stringIcSt11char_traitsIcESaIcEE5c_strEv(ptr noundef nonnull align 8 dereferenceable(32) %ref.tmp) #21
  invoke void @_ZN19OpenColorIO_v2_4dev9ExceptionC1EPKc(ptr noundef nonnull align 8 dereferenceable(16) %exception, ptr noundef %call9)
          to label %invoke.cont11 unwind label %ehcleanup.thread124

ehcleanup.thread124:                              ; preds = %invoke.cont8
  %6 = landingpad { ptr, i32 }
          cleanup
  call void @_ZNSt7__cxx1112basic_stringIcSt11char_traitsIcESaIcEED1Ev(ptr noundef nonnull align 8 dereferenceable(32) %ref.tmp) #21
  br label %cleanup.action

invoke.cont11:                                    ; preds = %invoke.cont8
  invoke void @__cxa_throw(ptr nonnull %exception, ptr nonnull @_ZTIN19OpenColorIO_v2_4dev9ExceptionE, ptr nonnull @_ZN19OpenColorIO_v2_4dev9ExceptionD1Ev) #25
          to label %unreachable unwind label %ehcleanup

lpad:                                             ; preds = %invoke.cont3, %invoke.cont, %if.then
  %7 = landingpad { ptr, i32 }
          cleanup
  br label %ehcleanup12

ehcleanup.thread:                                 ; preds = %invoke.cont5
  %8 = landingpad { ptr, i32 }
          cleanup
  br label %cleanup.action

ehcleanup:                                        ; preds = %invoke.cont11
  %9 = landingpad { ptr, i32 }
          cleanup
  call void @_ZNSt7__cxx1112basic_stringIcSt11char_traitsIcESaIcEED1Ev(ptr noundef nonnull align 8 dereferenceable(32) %ref.tmp) #21
  br label %ehcleanup12

cleanup.action:                                   ; preds = %ehcleanup.thread124, %ehcleanup.thread
  %.pn123 = phi { ptr, i32 } [ %8, %ehcleanup.thread ], [ %6, %ehcleanup.thread124 ]
  call void @__cxa_free_exception(ptr %exception) #21
  br label %ehcleanup12

ehcleanup12:                                      ; preds = %ehcleanup, %cleanup.action, %lpad
  %.pn.pn = phi { ptr, i32 } [ %.pn123, %cleanup.action ], [ %9, %ehcleanup ], [ %7, %lpad ]
  call void @_ZNSt7__cxx1119basic_ostringstreamIcSt11char_traitsIcESaIcEED1Ev(ptr noundef nonnull align 8 dereferenceable(112) %oss) #21
  br label %common.resume

if.end:                                           ; preds = %_ZN19OpenColorIO_v2_4dev12_GLOBAL__N_113isLoadableCTFERSi.exit
  call void @llvm.lifetime.start.p0(i64 32, ptr nonnull %root.i)
  call void @llvm.lifetime.start.p0(i64 32, ptr nonnull %extension.i)
  call void @llvm.lifetime.start.p0(i64 32, ptr nonnull %ref.tmp.i)
  call void @llvm.lifetime.start.p0(i64 32, ptr nonnull %agg.tmp.i)
  %call.i13 = call ptr @XML_ParserCreate(ptr noundef null)
  store ptr %call.i13, ptr %parser, align 8
  %m_fileName.i = getelementptr inbounds %"class.OpenColorIO_v2_4dev::(anonymous namespace)::XMLParserHelper", ptr %parser, i64 0, i32 2
  call void @_ZNSt7__cxx1112basic_stringIcSt11char_traitsIcESaIcEEC1ERKS4_(ptr noundef nonnull align 8 dereferenceable(32) %m_fileName.i, ptr noundef nonnull align 8 dereferenceable(32) %filePath)
  %m_elms.i = getelementptr inbounds %"class.OpenColorIO_v2_4dev::(anonymous namespace)::XMLParserHelper", ptr %parser, i64 0, i32 4
  invoke void @_ZN19OpenColorIO_v2_4dev21XmlReaderElementStackC1Ev(ptr noundef nonnull align 8 dereferenceable(32) %m_elms.i)
          to label %invoke.cont.i unwind label %lpad.i

invoke.cont.i:                                    ; preds = %if.end
  %m_transform.i = getelementptr inbounds %"class.OpenColorIO_v2_4dev::(anonymous namespace)::XMLParserHelper", ptr %parser, i64 0, i32 5
  call void @llvm.memset.p0.i64(ptr noundef nonnull align 8 dereferenceable(16) %m_transform.i, i8 0, i64 16, i1 false)
  %10 = load ptr, ptr %parser, align 8
  invoke void @XML_SetUserData(ptr noundef %10, ptr noundef nonnull %parser)
          to label %invoke.cont4.i unwind label %lpad3.i

invoke.cont4.i:                                   ; preds = %invoke.cont.i
  %11 = load ptr, ptr %parser, align 8
  invoke void @XML_SetElementHandler(ptr noundef %11, ptr noundef nonnull @_ZN19OpenColorIO_v2_4dev12_GLOBAL__N_115XMLParserHelper19StartElementHandlerEPvPKcPS4_, ptr noundef nonnull @_ZN19OpenColorIO_v2_4dev12_GLOBAL__N_115XMLParserHelper17EndElementHandlerEPvPKc)
          to label %invoke.cont6.i unwind label %lpad3.i

invoke.cont6.i:                                   ; preds = %invoke.cont4.i
  %12 = load ptr, ptr %parser, align 8
  invoke void @XML_SetCharacterDataHandler(ptr noundef %12, ptr noundef nonnull @_ZN19OpenColorIO_v2_4dev12_GLOBAL__N_115XMLParserHelper20CharacterDataHandlerEPvPKci)
          to label %invoke.cont8.i unwind label %lpad3.i

invoke.cont8.i:                                   ; preds = %invoke.cont6.i
  call void @_ZNSt7__cxx1112basic_stringIcSt11char_traitsIcESaIcEEC1Ev(ptr noundef nonnull align 8 dereferenceable(32) %root.i) #21
  call void @_ZNSt7__cxx1112basic_stringIcSt11char_traitsIcESaIcEEC1Ev(ptr noundef nonnull align 8 dereferenceable(32) %extension.i) #21
  invoke void @_ZN8pystring2os4path8splitextERNSt7__cxx1112basic_stringIcSt11char_traitsIcESaIcEEES8_RKS7_(ptr noundef nonnull align 8 dereferenceable(32) %root.i, ptr noundef nonnull align 8 dereferenceable(32) %extension.i, ptr noundef nonnull align 8 dereferenceable(32) %m_fileName.i)
          to label %invoke.cont11.i unwind label %lpad10.i

invoke.cont11.i:                                  ; preds = %invoke.cont8.i
  invoke void @_ZNSt7__cxx1112basic_stringIcSt11char_traitsIcESaIcEEC1ERKS4_(ptr noundef nonnull align 8 dereferenceable(32) %agg.tmp.i, ptr noundef nonnull align 8 dereferenceable(32) %extension.i)
          to label %invoke.cont12.i unwind label %lpad10.i

invoke.cont12.i:                                  ; preds = %invoke.cont11.i
  %call.i.i = call ptr @_ZNSt7__cxx1112basic_stringIcSt11char_traitsIcESaIcEE5beginEv(ptr noundef nonnull align 8 dereferenceable(32) %agg.tmp.i) #21, !noalias !6
  %call2.i.i = call ptr @_ZNSt7__cxx1112basic_stringIcSt11char_traitsIcESaIcEE3endEv(ptr noundef nonnull align 8 dereferenceable(32) %agg.tmp.i) #21, !noalias !6
  %call5.i.i = call ptr @_ZNSt7__cxx1112basic_stringIcSt11char_traitsIcESaIcEE5beginEv(ptr noundef nonnull align 8 dereferenceable(32) %agg.tmp.i) #21, !noalias !6
  %cmp.i.not5.i.i.i = icmp eq ptr %call.i.i, %call2.i.i
  br i1 %cmp.i.not5.i.i.i, label %_ZN19OpenColorIO_v2_4dev12_GLOBAL__N_115XMLParserHelperC2ERKNSt7__cxx1112basic_stringIcSt11char_traitsIcESaIcEEE.exit, label %for.body.i.i.i

for.body.i.i.i:                                   ; preds = %invoke.cont12.i, %for.body.i.i.i
  %__result.sroa.0.07.i.i.i = phi ptr [ %incdec.ptr.i1.i.i.i, %for.body.i.i.i ], [ %call5.i.i, %invoke.cont12.i ]
  %__first.sroa.0.06.i.i.i = phi ptr [ %incdec.ptr.i.i.i.i, %for.body.i.i.i ], [ %call.i.i, %invoke.cont12.i ]
  %13 = load i8, ptr %__first.sroa.0.06.i.i.i, align 1, !noalias !6
  %14 = add i8 %13, -65
  %or.cond.i.i.i.i.i = icmp ult i8 %14, 26
  %15 = or disjoint i8 %13, 32
  %retval.0.i.i.i.i.i = select i1 %or.cond.i.i.i.i.i, i8 %15, i8 %13
  store i8 %retval.0.i.i.i.i.i, ptr %__result.sroa.0.07.i.i.i, align 1, !noalias !6
  %incdec.ptr.i.i.i.i = getelementptr inbounds i8, ptr %__first.sroa.0.06.i.i.i, i64 1
  %incdec.ptr.i1.i.i.i = getelementptr inbounds i8, ptr %__result.sroa.0.07.i.i.i, i64 1
  %cmp.i.not.i.i.i = icmp eq ptr %incdec.ptr.i.i.i.i, %call2.i.i
  br i1 %cmp.i.not.i.i.i, label %_ZN19OpenColorIO_v2_4dev12_GLOBAL__N_115XMLParserHelperC2ERKNSt7__cxx1112basic_stringIcSt11char_traitsIcESaIcEEE.exit, label %for.body.i.i.i, !llvm.loop !9

lpad.i:                                           ; preds = %if.end
  %16 = landingpad { ptr, i32 }
          cleanup
  br label %ehcleanup22.i

lpad3.i:                                          ; preds = %invoke.cont6.i, %invoke.cont4.i, %invoke.cont.i
  %17 = landingpad { ptr, i32 }
          cleanup
  br label %ehcleanup20.i

lpad10.i:                                         ; preds = %invoke.cont11.i, %invoke.cont8.i
  %18 = landingpad { ptr, i32 }
          cleanup
  call void @_ZNSt7__cxx1112basic_stringIcSt11char_traitsIcESaIcEED1Ev(ptr noundef nonnull align 8 dereferenceable(32) %extension.i) #21
  call void @_ZNSt7__cxx1112basic_stringIcSt11char_traitsIcESaIcEED1Ev(ptr noundef nonnull align 8 dereferenceable(32) %root.i) #21
  br label %ehcleanup20.i

ehcleanup20.i:                                    ; preds = %lpad10.i, %lpad3.i
  %.pn.pn.i = phi { ptr, i32 } [ %18, %lpad10.i ], [ %17, %lpad3.i ]
  call void @_ZNSt10shared_ptrIN19OpenColorIO_v2_4dev18CTFReaderTransformEED2Ev(ptr noundef nonnull align 8 dereferenceable(16) %m_transform.i) #21
  call void @_ZN19OpenColorIO_v2_4dev21XmlReaderElementStackD1Ev(ptr noundef nonnull align 8 dereferenceable(32) %m_elms.i) #21
  br label %ehcleanup22.i

common.resume:                                    ; preds = %ehcleanup12, %ehcleanup30, %ehcleanup22.i
  %common.resume.op = phi { ptr, i32 } [ %.pn.pn.pn.i, %ehcleanup22.i ], [ %.pn6, %ehcleanup30 ], [ %.pn.pn, %ehcleanup12 ]
  resume { ptr, i32 } %common.resume.op

ehcleanup22.i:                                    ; preds = %ehcleanup20.i, %lpad.i
  %.pn.pn.pn.i = phi { ptr, i32 } [ %.pn.pn.i, %ehcleanup20.i ], [ %16, %lpad.i ]
  call void @_ZNSt7__cxx1112basic_stringIcSt11char_traitsIcESaIcEED1Ev(ptr noundef nonnull align 8 dereferenceable(32) %m_fileName.i) #21
  br label %common.resume

_ZN19OpenColorIO_v2_4dev12_GLOBAL__N_115XMLParserHelperC2ERKNSt7__cxx1112basic_stringIcSt11char_traitsIcESaIcEEE.exit: ; preds = %for.body.i.i.i, %invoke.cont12.i
  call void @_ZNSt7__cxx1112basic_stringIcSt11char_traitsIcESaIcEEC1EOS4_(ptr noundef nonnull align 8 dereferenceable(32) %ref.tmp.i, ptr noundef nonnull align 8 dereferenceable(32) %agg.tmp.i) #21
  %call.i4.i = call noundef i32 @_ZNKSt7__cxx1112basic_stringIcSt11char_traitsIcESaIcEE7compareEPKc(ptr noundef nonnull align 8 dereferenceable(32) %ref.tmp.i, ptr noundef nonnull @.str.18) #21
  %cmp.i.i = icmp eq i32 %call.i4.i, 0
  %m_isCLF.i = getelementptr inbounds %"class.OpenColorIO_v2_4dev::(anonymous namespace)::XMLParserHelper", ptr %parser, i64 0, i32 3
  %frombool.i = zext i1 %cmp.i.i to i8
  store i8 %frombool.i, ptr %m_isCLF.i, align 8
  call void @_ZNSt7__cxx1112basic_stringIcSt11char_traitsIcESaIcEED1Ev(ptr noundef nonnull align 8 dereferenceable(32) %ref.tmp.i) #21
  call void @_ZNSt7__cxx1112basic_stringIcSt11char_traitsIcESaIcEED1Ev(ptr noundef nonnull align 8 dereferenceable(32) %agg.tmp.i) #21
  call void @_ZNSt7__cxx1112basic_stringIcSt11char_traitsIcESaIcEED1Ev(ptr noundef nonnull align 8 dereferenceable(32) %extension.i) #21
  call void @_ZNSt7__cxx1112basic_stringIcSt11char_traitsIcESaIcEED1Ev(ptr noundef nonnull align 8 dereferenceable(32) %root.i) #21
  call void @llvm.lifetime.end.p0(i64 32, ptr nonnull %root.i)
  call void @llvm.lifetime.end.p0(i64 32, ptr nonnull %extension.i)
  call void @llvm.lifetime.end.p0(i64 32, ptr nonnull %ref.tmp.i)
  call void @llvm.lifetime.end.p0(i64 32, ptr nonnull %agg.tmp.i)
  call void @llvm.lifetime.start.p0(i64 32, ptr nonnull %line.i14)
  call void @llvm.lifetime.start.p0(i64 32, ptr nonnull %error.i)
  call void @llvm.lifetime.start.p0(i64 1, ptr nonnull %ref.tmp.i15)
  call void @llvm.lifetime.start.p0(i64 16, ptr nonnull %ref.tmp17.i)
  call void @llvm.lifetime.start.p0(i64 16, ptr nonnull %ref.tmp30.i)
  call void @llvm.lifetime.start.p0(i64 1, ptr nonnull %ref.tmp34.i)
  call void @llvm.lifetime.start.p0(i64 1, ptr nonnull %ref.tmp51.i)
  call void @_ZNSt7__cxx1112basic_stringIcSt11char_traitsIcESaIcEEC1Ev(ptr noundef nonnull align 8 dereferenceable(32) %line.i14) #21
  %m_lineNumber.i = getelementptr inbounds %"class.OpenColorIO_v2_4dev::(anonymous namespace)::XMLParserHelper", ptr %parser, i64 0, i32 1
  store i32 0, ptr %m_lineNumber.i, align 8
  br label %while.cond.i

while.cond.i:                                     ; preds = %_ZN19OpenColorIO_v2_4dev12_GLOBAL__N_115XMLParserHelper5ParseERKNSt7__cxx1112basic_stringIcSt11char_traitsIcESaIcEEEb.exit.i, %_ZN19OpenColorIO_v2_4dev12_GLOBAL__N_115XMLParserHelperC2ERKNSt7__cxx1112basic_stringIcSt11char_traitsIcESaIcEEE.exit
  %vtable.i16 = load ptr, ptr %istream, align 8
  %vbase.offset.ptr.i17 = getelementptr i8, ptr %vtable.i16, i64 -24
  %vbase.offset.i18 = load i64, ptr %vbase.offset.ptr.i17, align 8
  %add.ptr.i19 = getelementptr inbounds i8, ptr %istream, i64 %vbase.offset.i18
  %call.i20 = invoke noundef zeroext i1 @_ZNKSt9basic_iosIcSt11char_traitsIcEE4goodEv(ptr noundef nonnull align 8 dereferenceable(264) %add.ptr.i19)
          to label %invoke.cont.i21 unwind label %lpad.loopexit.i

invoke.cont.i21:                                  ; preds = %while.cond.i
  br i1 %call.i20, label %while.body.i24, label %while.end.i

while.body.i24:                                   ; preds = %invoke.cont.i21
  %call3.i = invoke noundef nonnull align 8 dereferenceable(16) ptr @_ZSt7getlineIcSt11char_traitsIcESaIcEERSt13basic_istreamIT_T0_ES7_RNSt7__cxx1112basic_stringIS4_S5_T1_EE(ptr noundef nonnull align 8 dereferenceable(16) %istream, ptr noundef nonnull align 8 dereferenceable(32) %line.i14)
          to label %invoke.cont2.i unwind label %lpad.loopexit.i

invoke.cont2.i:                                   ; preds = %while.body.i24
  invoke void @_ZNSt7__cxx1112basic_stringIcSt11char_traitsIcESaIcEE9push_backEc(ptr noundef nonnull align 8 dereferenceable(32) %line.i14, i8 noundef signext 10)
          to label %invoke.cont4.i25 unwind label %lpad.loopexit.i

invoke.cont4.i25:                                 ; preds = %invoke.cont2.i
  %19 = load i32, ptr %m_lineNumber.i, align 8
  %inc.i = add i32 %19, 1
  store i32 %inc.i, ptr %m_lineNumber.i, align 8
  %vtable6.i = load ptr, ptr %istream, align 8
  %vbase.offset.ptr7.i = getelementptr i8, ptr %vtable6.i, i64 -24
  %vbase.offset8.i = load i64, ptr %vbase.offset.ptr7.i, align 8
  %add.ptr9.i = getelementptr inbounds i8, ptr %istream, i64 %vbase.offset8.i
  %call11.i = invoke noundef zeroext i1 @_ZNKSt9basic_iosIcSt11char_traitsIcEE4goodEv(ptr noundef nonnull align 8 dereferenceable(264) %add.ptr9.i)
          to label %invoke.cont10.i unwind label %lpad.loopexit.i

invoke.cont10.i:                                  ; preds = %invoke.cont4.i25
  %lnot.i = xor i1 %call11.i, true
  call void @llvm.lifetime.start.p0(i64 32, ptr nonnull %error.i.i)
  call void @llvm.lifetime.start.p0(i64 1, ptr nonnull %ref.tmp.i.i)
  call void @llvm.lifetime.start.p0(i64 16, ptr nonnull %ref.tmp10.i.i)
  call void @llvm.lifetime.start.p0(i64 1, ptr nonnull %ref.tmp24.i.i)
  call void @llvm.lifetime.start.p0(i64 32, ptr nonnull %error30.i.i)
  call void @llvm.lifetime.start.p0(i64 1, ptr nonnull %ref.tmp31.i.i)
  %cond.i.i = zext i1 %lnot.i to i32
  %20 = load ptr, ptr %parser, align 8
  %call.i.i26 = call noundef ptr @_ZNKSt7__cxx1112basic_stringIcSt11char_traitsIcESaIcEE5c_strEv(ptr noundef nonnull align 8 dereferenceable(32) %line.i14) #21
  %call2.i.i27 = call noundef i64 @_ZNKSt7__cxx1112basic_stringIcSt11char_traitsIcESaIcEE4sizeEv(ptr noundef nonnull align 8 dereferenceable(32) %line.i14) #21
  %conv.i.i = trunc i64 %call2.i.i27 to i32
  %call3.i10.i = invoke i32 @XML_Parse(ptr noundef %20, ptr noundef %call.i.i26, i32 noundef %conv.i.i, i32 noundef %cond.i.i)
          to label %call3.i.noexc.i unwind label %lpad.loopexit.i

call3.i.noexc.i:                                  ; preds = %invoke.cont10.i
  %cmp.i.i28 = icmp eq i32 %call3.i10.i, 0
  br i1 %cmp.i.i28, label %if.then.i.i, label %_ZN19OpenColorIO_v2_4dev12_GLOBAL__N_115XMLParserHelper5ParseERKNSt7__cxx1112basic_stringIcSt11char_traitsIcESaIcEEEb.exit.i

if.then.i.i:                                      ; preds = %call3.i.noexc.i
  %21 = load ptr, ptr %parser, align 8
  %call5.i11.i = invoke i32 @XML_GetErrorCode(ptr noundef %21)
          to label %call5.i.noexc.i unwind label %lpad.loopexit.split-lp.i

call5.i.noexc.i:                                  ; preds = %if.then.i.i
  %cmp6.i.i = icmp eq i32 %call5.i11.i, 7
  br i1 %cmp6.i.i, label %if.then7.i.i, label %if.else29.i.i

if.then7.i.i:                                     ; preds = %call5.i.noexc.i
  %call8.i12.i = invoke noundef zeroext i1 @_ZNK19OpenColorIO_v2_4dev21XmlReaderElementStack5emptyEv(ptr noundef nonnull align 8 dereferenceable(32) %m_elms.i)
          to label %call8.i.noexc.i unwind label %lpad.loopexit.split-lp.i

call8.i.noexc.i:                                  ; preds = %if.then7.i.i
  br i1 %call8.i12.i, label %if.else.i.i, label %if.then9.i.i

if.then9.i.i:                                     ; preds = %call8.i.noexc.i
  call void @_ZNSaIcEC1Ev(ptr noundef nonnull align 1 dereferenceable(1) %ref.tmp.i.i) #21
  invoke void @_ZNSt7__cxx1112basic_stringIcSt11char_traitsIcESaIcEEC1EPKcRKS3_(ptr noundef nonnull align 8 dereferenceable(32) %error.i.i, ptr noundef nonnull @.str.57, ptr noundef nonnull align 1 dereferenceable(1) %ref.tmp.i.i)
          to label %invoke.cont.i.i unwind label %lpad.i.i

invoke.cont.i.i:                                  ; preds = %if.then9.i.i
  call void @_ZNSaIcED1Ev(ptr noundef nonnull align 1 dereferenceable(1) %ref.tmp.i.i) #21
  invoke void @_ZNK19OpenColorIO_v2_4dev21XmlReaderElementStack4backEv(ptr nonnull sret(%"class.std::shared_ptr.21") align 8 %ref.tmp10.i.i, ptr noundef nonnull align 8 dereferenceable(32) %m_elms.i)
          to label %invoke.cont13.i.i unwind label %lpad12.i.i

invoke.cont13.i.i:                                ; preds = %invoke.cont.i.i
  %22 = load ptr, ptr %ref.tmp10.i.i, align 8
  %m_name.i.i.i = getelementptr inbounds %"class.OpenColorIO_v2_4dev::XmlReaderElement", ptr %22, i64 0, i32 1
  %call16.i.i = call noundef ptr @_ZNKSt7__cxx1112basic_stringIcSt11char_traitsIcESaIcEE5c_strEv(ptr noundef nonnull align 8 dereferenceable(32) %m_name.i.i.i) #21
  %call19.i.i = invoke noundef nonnull align 8 dereferenceable(32) ptr @_ZNSt7__cxx1112basic_stringIcSt11char_traitsIcESaIcEEpLEPKc(ptr noundef nonnull align 8 dereferenceable(32) %error.i.i, ptr noundef %call16.i.i)
          to label %invoke.cont18.i.i unwind label %lpad17.i.i

invoke.cont18.i.i:                                ; preds = %invoke.cont13.i.i
  %_M_refcount.i.i.i.i = getelementptr inbounds %"class.std::__shared_ptr.22", ptr %ref.tmp10.i.i, i64 0, i32 1
  %23 = load ptr, ptr %_M_refcount.i.i.i.i, align 8
  %cmp.not.i.i.i.i.i = icmp eq ptr %23, null
  br i1 %cmp.not.i.i.i.i.i, label %_ZNSt10shared_ptrIN19OpenColorIO_v2_4dev16XmlReaderElementEED2Ev.exit.i.i, label %if.then.i.i.i.i.i

if.then.i.i.i.i.i:                                ; preds = %invoke.cont18.i.i
  %_M_use_count.i.i.i.i.i.i = getelementptr inbounds %"class.std::_Sp_counted_base", ptr %23, i64 0, i32 1
  %24 = load atomic i64, ptr %_M_use_count.i.i.i.i.i.i acquire, align 8
  %cmp.i.i.i.i.i.i = icmp eq i64 %24, 4294967297
  %25 = trunc i64 %24 to i32
  br i1 %cmp.i.i.i.i.i.i, label %if.then.i.i.i.i.i.i, label %if.end.i.i.i.i.i.i

if.then.i.i.i.i.i.i:                              ; preds = %if.then.i.i.i.i.i
  store i32 0, ptr %_M_use_count.i.i.i.i.i.i, align 8
  %_M_weak_count.i.i.i.i.i.i = getelementptr inbounds %"class.std::_Sp_counted_base", ptr %23, i64 0, i32 2
  store i32 0, ptr %_M_weak_count.i.i.i.i.i.i, align 4
  %vtable.i.i.i.i.i.i = load ptr, ptr %23, align 8
  %vfn.i.i.i.i.i.i = getelementptr inbounds ptr, ptr %vtable.i.i.i.i.i.i, i64 2
  %26 = load ptr, ptr %vfn.i.i.i.i.i.i, align 8
  call void %26(ptr noundef nonnull align 8 dereferenceable(16) %23) #21
  br label %if.end8.sink.split.i.i.i.i.i.i

if.end.i.i.i.i.i.i:                               ; preds = %if.then.i.i.i.i.i
  %27 = load i8, ptr @__libc_single_threaded, align 1
  %tobool.i.i.not.i.i.i.i.i.i = icmp eq i8 %27, 0
  br i1 %tobool.i.i.not.i.i.i.i.i.i, label %if.else.i.i.i.i.i.i.i, label %if.then.i.i.i.i.i.i.i

if.then.i.i.i.i.i.i.i:                            ; preds = %if.end.i.i.i.i.i.i
  %add.i.i.i.i.i.i.i = add nsw i32 %25, -1
  store i32 %add.i.i.i.i.i.i.i, ptr %_M_use_count.i.i.i.i.i.i, align 4
  br label %_ZN9__gnu_cxx27__exchange_and_add_dispatchEPii.exit.i.i.i.i.i.i

if.else.i.i.i.i.i.i.i:                            ; preds = %if.end.i.i.i.i.i.i
  %28 = atomicrmw volatile add ptr %_M_use_count.i.i.i.i.i.i, i32 -1 acq_rel, align 4
  br label %_ZN9__gnu_cxx27__exchange_and_add_dispatchEPii.exit.i.i.i.i.i.i

_ZN9__gnu_cxx27__exchange_and_add_dispatchEPii.exit.i.i.i.i.i.i: ; preds = %if.else.i.i.i.i.i.i.i, %if.then.i.i.i.i.i.i.i
  %retval.i.0.i.i.i.i.i.i = phi i32 [ %25, %if.then.i.i.i.i.i.i.i ], [ %28, %if.else.i.i.i.i.i.i.i ]
  %cmp6.i.i.i.i.i.i = icmp eq i32 %retval.i.0.i.i.i.i.i.i, 1
  br i1 %cmp6.i.i.i.i.i.i, label %if.then7.i.i.i.i.i.i, label %_ZNSt10shared_ptrIN19OpenColorIO_v2_4dev16XmlReaderElementEED2Ev.exit.i.i

if.then7.i.i.i.i.i.i:                             ; preds = %_ZN9__gnu_cxx27__exchange_and_add_dispatchEPii.exit.i.i.i.i.i.i
  %vtable.i.i.i.i.i.i.i.i = load ptr, ptr %23, align 8
  %vfn.i.i.i.i.i.i.i.i = getelementptr inbounds ptr, ptr %vtable.i.i.i.i.i.i.i.i, i64 2
  %29 = load ptr, ptr %vfn.i.i.i.i.i.i.i.i, align 8
  call void %29(ptr noundef nonnull align 8 dereferenceable(16) %23) #21
  %_M_weak_count.i.i.i.i.i.i.i.i = getelementptr inbounds %"class.std::_Sp_counted_base", ptr %23, i64 0, i32 2
  %30 = load i8, ptr @__libc_single_threaded, align 1
  %tobool.i.i.not.i.i.i.i.i.i.i.i = icmp eq i8 %30, 0
  br i1 %tobool.i.i.not.i.i.i.i.i.i.i.i, label %if.else.i.i.i.i.i.i.i.i.i, label %if.then.i.i.i.i.i.i.i.i.i

if.then.i.i.i.i.i.i.i.i.i:                        ; preds = %if.then7.i.i.i.i.i.i
  %31 = load i32, ptr %_M_weak_count.i.i.i.i.i.i.i.i, align 4
  %add.i.i.i.i.i.i.i.i.i = add nsw i32 %31, -1
  store i32 %add.i.i.i.i.i.i.i.i.i, ptr %_M_weak_count.i.i.i.i.i.i.i.i, align 4
  br label %_ZN9__gnu_cxx27__exchange_and_add_dispatchEPii.exit.i.i.i.i.i.i.i.i

if.else.i.i.i.i.i.i.i.i.i:                        ; preds = %if.then7.i.i.i.i.i.i
  %32 = atomicrmw volatile add ptr %_M_weak_count.i.i.i.i.i.i.i.i, i32 -1 acq_rel, align 4
  br label %_ZN9__gnu_cxx27__exchange_and_add_dispatchEPii.exit.i.i.i.i.i.i.i.i

_ZN9__gnu_cxx27__exchange_and_add_dispatchEPii.exit.i.i.i.i.i.i.i.i: ; preds = %if.else.i.i.i.i.i.i.i.i.i, %if.then.i.i.i.i.i.i.i.i.i
  %retval.i.0.i.i.i.i.i.i.i.i = phi i32 [ %31, %if.then.i.i.i.i.i.i.i.i.i ], [ %32, %if.else.i.i.i.i.i.i.i.i.i ]
  %cmp.i.i.i.i.i.i.i.i = icmp eq i32 %retval.i.0.i.i.i.i.i.i.i.i, 1
  br i1 %cmp.i.i.i.i.i.i.i.i, label %if.end8.sink.split.i.i.i.i.i.i, label %_ZNSt10shared_ptrIN19OpenColorIO_v2_4dev16XmlReaderElementEED2Ev.exit.i.i

if.end8.sink.split.i.i.i.i.i.i:                   ; preds = %_ZN9__gnu_cxx27__exchange_and_add_dispatchEPii.exit.i.i.i.i.i.i.i.i, %if.then.i.i.i.i.i.i
  %vtable2.i.i.i.i.i.i.i.i = load ptr, ptr %23, align 8
  %vfn3.i.i.i.i.i.i.i.i = getelementptr inbounds ptr, ptr %vtable2.i.i.i.i.i.i.i.i, i64 3
  %33 = load ptr, ptr %vfn3.i.i.i.i.i.i.i.i, align 8
  call void %33(ptr noundef nonnull align 8 dereferenceable(16) %23) #21
  br label %_ZNSt10shared_ptrIN19OpenColorIO_v2_4dev16XmlReaderElementEED2Ev.exit.i.i

_ZNSt10shared_ptrIN19OpenColorIO_v2_4dev16XmlReaderElementEED2Ev.exit.i.i: ; preds = %if.end8.sink.split.i.i.i.i.i.i, %_ZN9__gnu_cxx27__exchange_and_add_dispatchEPii.exit.i.i.i.i.i.i.i.i, %_ZN9__gnu_cxx27__exchange_and_add_dispatchEPii.exit.i.i.i.i.i.i, %invoke.cont18.i.i
  %call21.i.i = invoke noundef nonnull align 8 dereferenceable(32) ptr @_ZNSt7__cxx1112basic_stringIcSt11char_traitsIcESaIcEEpLEPKc(ptr noundef nonnull align 8 dereferenceable(32) %error.i.i, ptr noundef nonnull @.str.61)
          to label %invoke.cont20.i.i unwind label %lpad12.i.i

invoke.cont20.i.i:                                ; preds = %_ZNSt10shared_ptrIN19OpenColorIO_v2_4dev16XmlReaderElementEED2Ev.exit.i.i
  invoke fastcc void @_ZNK19OpenColorIO_v2_4dev12_GLOBAL__N_115XMLParserHelper12throwMessageERKNSt7__cxx1112basic_stringIcSt11char_traitsIcESaIcEEE(ptr noundef nonnull align 8 dereferenceable(104) %parser, ptr noundef nonnull align 8 dereferenceable(32) %error.i.i)
          to label %invoke.cont22.unreachable.i.i unwind label %lpad12.i.i

invoke.cont22.unreachable.i.i:                    ; preds = %invoke.cont20.i.i
  unreachable

lpad.i.i:                                         ; preds = %if.then9.i.i
  %34 = landingpad { ptr, i32 }
          cleanup
  call void @_ZNSaIcED1Ev(ptr noundef nonnull align 1 dereferenceable(1) %ref.tmp.i.i) #21
  br label %ehcleanup60.i

lpad12.i.i:                                       ; preds = %invoke.cont20.i.i, %_ZNSt10shared_ptrIN19OpenColorIO_v2_4dev16XmlReaderElementEED2Ev.exit.i.i, %invoke.cont.i.i
  %35 = landingpad { ptr, i32 }
          cleanup
  br label %ehcleanup.i.i

lpad17.i.i:                                       ; preds = %invoke.cont13.i.i
  %36 = landingpad { ptr, i32 }
          cleanup
  call void @_ZNSt10shared_ptrIN19OpenColorIO_v2_4dev16XmlReaderElementEED2Ev(ptr noundef nonnull align 8 dereferenceable(16) %ref.tmp10.i.i) #21
  br label %ehcleanup.i.i

ehcleanup.i.i:                                    ; preds = %lpad17.i.i, %lpad12.i.i
  %.pn.i.i = phi { ptr, i32 } [ %35, %lpad12.i.i ], [ %36, %lpad17.i.i ]
  call void @_ZNSt7__cxx1112basic_stringIcSt11char_traitsIcESaIcEED1Ev(ptr noundef nonnull align 8 dereferenceable(32) %error.i.i) #21
  br label %ehcleanup60.i

if.else.i.i:                                      ; preds = %call8.i.noexc.i
  %37 = load atomic i8, ptr @_ZGVZN19OpenColorIO_v2_4dev12_GLOBAL__N_115XMLParserHelper5ParseERKNSt7__cxx1112basic_stringIcSt11char_traitsIcESaIcEEEbE5errorB5cxx11 acquire, align 8
  %guard.uninitialized.i.i = icmp eq i8 %37, 0
  br i1 %guard.uninitialized.i.i, label %init.check.i.i, label %init.end.i.i, !prof !10

init.check.i.i:                                   ; preds = %if.else.i.i
  %38 = call i32 @__cxa_guard_acquire(ptr nonnull @_ZGVZN19OpenColorIO_v2_4dev12_GLOBAL__N_115XMLParserHelper5ParseERKNSt7__cxx1112basic_stringIcSt11char_traitsIcESaIcEEEbE5errorB5cxx11) #21
  %tobool23.not.i.i = icmp eq i32 %38, 0
  br i1 %tobool23.not.i.i, label %init.end.i.i, label %init.i.i

init.i.i:                                         ; preds = %init.check.i.i
  call void @_ZNSaIcEC1Ev(ptr noundef nonnull align 1 dereferenceable(1) %ref.tmp24.i.i) #21
  invoke void @_ZNSt7__cxx1112basic_stringIcSt11char_traitsIcESaIcEEC1EPKcRKS3_(ptr noundef nonnull align 8 dereferenceable(32) @_ZZN19OpenColorIO_v2_4dev12_GLOBAL__N_115XMLParserHelper5ParseERKNSt7__cxx1112basic_stringIcSt11char_traitsIcESaIcEEEbE5errorB5cxx11, ptr noundef nonnull @.str.62, ptr noundef nonnull align 1 dereferenceable(1) %ref.tmp24.i.i)
          to label %invoke.cont26.i.i unwind label %lpad25.i.i

invoke.cont26.i.i:                                ; preds = %init.i.i
  call void @_ZNSaIcED1Ev(ptr noundef nonnull align 1 dereferenceable(1) %ref.tmp24.i.i) #21
  %39 = call i32 @__cxa_atexit(ptr nonnull @_ZNSt7__cxx1112basic_stringIcSt11char_traitsIcESaIcEED1Ev, ptr nonnull @_ZZN19OpenColorIO_v2_4dev12_GLOBAL__N_115XMLParserHelper5ParseERKNSt7__cxx1112basic_stringIcSt11char_traitsIcESaIcEEEbE5errorB5cxx11, ptr nonnull @__dso_handle) #21
  call void @__cxa_guard_release(ptr nonnull @_ZGVZN19OpenColorIO_v2_4dev12_GLOBAL__N_115XMLParserHelper5ParseERKNSt7__cxx1112basic_stringIcSt11char_traitsIcESaIcEEEbE5errorB5cxx11) #21
  br label %init.end.i.i

init.end.i.i:                                     ; preds = %invoke.cont26.i.i, %init.check.i.i, %if.else.i.i
  invoke fastcc void @_ZNK19OpenColorIO_v2_4dev12_GLOBAL__N_115XMLParserHelper12throwMessageERKNSt7__cxx1112basic_stringIcSt11char_traitsIcESaIcEEE(ptr noundef nonnull align 8 dereferenceable(104) %parser, ptr noundef nonnull align 8 dereferenceable(32) @_ZZN19OpenColorIO_v2_4dev12_GLOBAL__N_115XMLParserHelper5ParseERKNSt7__cxx1112basic_stringIcSt11char_traitsIcESaIcEEEbE5errorB5cxx11)
          to label %.noexc.i unwind label %lpad.loopexit.split-lp.i

.noexc.i:                                         ; preds = %init.end.i.i
  unreachable

lpad25.i.i:                                       ; preds = %init.i.i
  %40 = landingpad { ptr, i32 }
          cleanup
  call void @_ZNSaIcED1Ev(ptr noundef nonnull align 1 dereferenceable(1) %ref.tmp24.i.i) #21
  call void @__cxa_guard_abort(ptr nonnull @_ZGVZN19OpenColorIO_v2_4dev12_GLOBAL__N_115XMLParserHelper5ParseERKNSt7__cxx1112basic_stringIcSt11char_traitsIcESaIcEEEbE5errorB5cxx11) #21
  br label %ehcleanup60.i

if.else29.i.i:                                    ; preds = %call5.i.noexc.i
  call void @_ZNSaIcEC1Ev(ptr noundef nonnull align 1 dereferenceable(1) %ref.tmp31.i.i) #21
  invoke void @_ZNSt7__cxx1112basic_stringIcSt11char_traitsIcESaIcEEC1EPKcRKS3_(ptr noundef nonnull align 8 dereferenceable(32) %error30.i.i, ptr noundef nonnull @.str.63, ptr noundef nonnull align 1 dereferenceable(1) %ref.tmp31.i.i)
          to label %invoke.cont33.i.i unwind label %lpad32.i.i

invoke.cont33.i.i:                                ; preds = %if.else29.i.i
  call void @_ZNSaIcED1Ev(ptr noundef nonnull align 1 dereferenceable(1) %ref.tmp31.i.i) #21
  %41 = load ptr, ptr %parser, align 8
  %call38.i.i = invoke i32 @XML_GetErrorCode(ptr noundef %41)
          to label %invoke.cont37.i.i unwind label %lpad36.i.i

invoke.cont37.i.i:                                ; preds = %invoke.cont33.i.i
  %call40.i.i = invoke ptr @XML_ErrorString(i32 noundef %call38.i.i)
          to label %invoke.cont39.i.i unwind label %lpad36.i.i

invoke.cont39.i.i:                                ; preds = %invoke.cont37.i.i
  %call42.i.i = invoke noundef nonnull align 8 dereferenceable(32) ptr @_ZNSt7__cxx1112basic_stringIcSt11char_traitsIcESaIcEEpLEPKc(ptr noundef nonnull align 8 dereferenceable(32) %error30.i.i, ptr noundef %call40.i.i)
          to label %invoke.cont41.i.i unwind label %lpad36.i.i

invoke.cont41.i.i:                                ; preds = %invoke.cont39.i.i
  invoke fastcc void @_ZNK19OpenColorIO_v2_4dev12_GLOBAL__N_115XMLParserHelper12throwMessageERKNSt7__cxx1112basic_stringIcSt11char_traitsIcESaIcEEE(ptr noundef nonnull align 8 dereferenceable(104) %parser, ptr noundef nonnull align 8 dereferenceable(32) %error30.i.i)
          to label %invoke.cont43.unreachable.i.i unwind label %lpad36.i.i

invoke.cont43.unreachable.i.i:                    ; preds = %invoke.cont41.i.i
  unreachable

lpad32.i.i:                                       ; preds = %if.else29.i.i
  %42 = landingpad { ptr, i32 }
          cleanup
  call void @_ZNSaIcED1Ev(ptr noundef nonnull align 1 dereferenceable(1) %ref.tmp31.i.i) #21
  br label %ehcleanup60.i

lpad36.i.i:                                       ; preds = %invoke.cont41.i.i, %invoke.cont39.i.i, %invoke.cont37.i.i, %invoke.cont33.i.i
  %43 = landingpad { ptr, i32 }
          cleanup
  call void @_ZNSt7__cxx1112basic_stringIcSt11char_traitsIcESaIcEED1Ev(ptr noundef nonnull align 8 dereferenceable(32) %error30.i.i) #21
  br label %ehcleanup60.i

_ZN19OpenColorIO_v2_4dev12_GLOBAL__N_115XMLParserHelper5ParseERKNSt7__cxx1112basic_stringIcSt11char_traitsIcESaIcEEEb.exit.i: ; preds = %call3.i.noexc.i
  call void @llvm.lifetime.end.p0(i64 32, ptr nonnull %error.i.i)
  call void @llvm.lifetime.end.p0(i64 1, ptr nonnull %ref.tmp.i.i)
  call void @llvm.lifetime.end.p0(i64 16, ptr nonnull %ref.tmp10.i.i)
  call void @llvm.lifetime.end.p0(i64 1, ptr nonnull %ref.tmp24.i.i)
  call void @llvm.lifetime.end.p0(i64 32, ptr nonnull %error30.i.i)
  call void @llvm.lifetime.end.p0(i64 1, ptr nonnull %ref.tmp31.i.i)
  br label %while.cond.i

lpad.loopexit.i:                                  ; preds = %invoke.cont10.i, %invoke.cont4.i25, %invoke.cont2.i, %while.body.i24, %while.cond.i
  %lpad.loopexit56.i = landingpad { ptr, i32 }
          cleanup
  br label %ehcleanup60.i

lpad.loopexit.split-lp.i:                         ; preds = %while.end.i, %init.end.i.i, %if.then7.i.i, %if.then.i.i
  %lpad.loopexit.split-lp57.i = landingpad { ptr, i32 }
          cleanup
  br label %ehcleanup60.i

while.end.i:                                      ; preds = %invoke.cont.i21
  %call14.i = invoke noundef zeroext i1 @_ZNK19OpenColorIO_v2_4dev21XmlReaderElementStack5emptyEv(ptr noundef nonnull align 8 dereferenceable(32) %m_elms.i)
          to label %invoke.cont13.i unwind label %lpad.loopexit.split-lp.i

invoke.cont13.i:                                  ; preds = %while.end.i
  br i1 %call14.i, label %if.end.i, label %if.then.i

if.then.i:                                        ; preds = %invoke.cont13.i
  call void @_ZNSaIcEC1Ev(ptr noundef nonnull align 1 dereferenceable(1) %ref.tmp.i15) #21
  invoke void @_ZNSt7__cxx1112basic_stringIcSt11char_traitsIcESaIcEEC1EPKcRKS3_(ptr noundef nonnull align 8 dereferenceable(32) %error.i, ptr noundef nonnull @.str.57, ptr noundef nonnull align 1 dereferenceable(1) %ref.tmp.i15)
          to label %invoke.cont16.i unwind label %lpad15.i

invoke.cont16.i:                                  ; preds = %if.then.i
  call void @_ZNSaIcED1Ev(ptr noundef nonnull align 1 dereferenceable(1) %ref.tmp.i15) #21
  invoke void @_ZNK19OpenColorIO_v2_4dev21XmlReaderElementStack4backEv(ptr nonnull sret(%"class.std::shared_ptr.21") align 8 %ref.tmp17.i, ptr noundef nonnull align 8 dereferenceable(32) %m_elms.i)
          to label %invoke.cont20.i unwind label %lpad19.i

invoke.cont20.i:                                  ; preds = %invoke.cont16.i
  %44 = load ptr, ptr %ref.tmp17.i, align 8
  %m_name.i.i = getelementptr inbounds %"class.OpenColorIO_v2_4dev::XmlReaderElement", ptr %44, i64 0, i32 1
  %call23.i = call noundef ptr @_ZNKSt7__cxx1112basic_stringIcSt11char_traitsIcESaIcEE5c_strEv(ptr noundef nonnull align 8 dereferenceable(32) %m_name.i.i) #21
  %call26.i = invoke noundef nonnull align 8 dereferenceable(32) ptr @_ZNSt7__cxx1112basic_stringIcSt11char_traitsIcESaIcEEpLEPKc(ptr noundef nonnull align 8 dereferenceable(32) %error.i, ptr noundef %call23.i)
          to label %invoke.cont25.i unwind label %lpad24.i

invoke.cont25.i:                                  ; preds = %invoke.cont20.i
  %_M_refcount.i.i.i = getelementptr inbounds %"class.std::__shared_ptr.22", ptr %ref.tmp17.i, i64 0, i32 1
  %45 = load ptr, ptr %_M_refcount.i.i.i, align 8
  %cmp.not.i.i.i.i = icmp eq ptr %45, null
  br i1 %cmp.not.i.i.i.i, label %_ZNSt10shared_ptrIN19OpenColorIO_v2_4dev16XmlReaderElementEED2Ev.exit.i, label %if.then.i.i.i.i

if.then.i.i.i.i:                                  ; preds = %invoke.cont25.i
  %_M_use_count.i.i.i.i.i = getelementptr inbounds %"class.std::_Sp_counted_base", ptr %45, i64 0, i32 1
  %46 = load atomic i64, ptr %_M_use_count.i.i.i.i.i acquire, align 8
  %cmp.i.i.i.i.i = icmp eq i64 %46, 4294967297
  %47 = trunc i64 %46 to i32
  br i1 %cmp.i.i.i.i.i, label %if.then.i.i.i.i14.i, label %if.end.i.i.i.i.i

if.then.i.i.i.i14.i:                              ; preds = %if.then.i.i.i.i
  store i32 0, ptr %_M_use_count.i.i.i.i.i, align 8
  %_M_weak_count.i.i.i.i.i = getelementptr inbounds %"class.std::_Sp_counted_base", ptr %45, i64 0, i32 2
  store i32 0, ptr %_M_weak_count.i.i.i.i.i, align 4
  %vtable.i.i.i.i.i = load ptr, ptr %45, align 8
  %vfn.i.i.i.i.i = getelementptr inbounds ptr, ptr %vtable.i.i.i.i.i, i64 2
  %48 = load ptr, ptr %vfn.i.i.i.i.i, align 8
  call void %48(ptr noundef nonnull align 8 dereferenceable(16) %45) #21
  br label %if.end8.sink.split.i.i.i.i.i

if.end.i.i.i.i.i:                                 ; preds = %if.then.i.i.i.i
  %49 = load i8, ptr @__libc_single_threaded, align 1
  %tobool.i.i.not.i.i.i.i.i = icmp eq i8 %49, 0
  br i1 %tobool.i.i.not.i.i.i.i.i, label %if.else.i.i.i.i.i.i, label %if.then.i.i.i.i.i13.i

if.then.i.i.i.i.i13.i:                            ; preds = %if.end.i.i.i.i.i
  %add.i.i.i.i.i.i = add nsw i32 %47, -1
  store i32 %add.i.i.i.i.i.i, ptr %_M_use_count.i.i.i.i.i, align 4
  br label %_ZN9__gnu_cxx27__exchange_and_add_dispatchEPii.exit.i.i.i.i.i

if.else.i.i.i.i.i.i:                              ; preds = %if.end.i.i.i.i.i
  %50 = atomicrmw volatile add ptr %_M_use_count.i.i.i.i.i, i32 -1 acq_rel, align 4
  br label %_ZN9__gnu_cxx27__exchange_and_add_dispatchEPii.exit.i.i.i.i.i

_ZN9__gnu_cxx27__exchange_and_add_dispatchEPii.exit.i.i.i.i.i: ; preds = %if.else.i.i.i.i.i.i, %if.then.i.i.i.i.i13.i
  %retval.i.0.i.i.i.i.i = phi i32 [ %47, %if.then.i.i.i.i.i13.i ], [ %50, %if.else.i.i.i.i.i.i ]
  %cmp6.i.i.i.i.i = icmp eq i32 %retval.i.0.i.i.i.i.i, 1
  br i1 %cmp6.i.i.i.i.i, label %if.then7.i.i.i.i.i, label %_ZNSt10shared_ptrIN19OpenColorIO_v2_4dev16XmlReaderElementEED2Ev.exit.i

if.then7.i.i.i.i.i:                               ; preds = %_ZN9__gnu_cxx27__exchange_and_add_dispatchEPii.exit.i.i.i.i.i
  %vtable.i.i.i.i.i.i.i = load ptr, ptr %45, align 8
  %vfn.i.i.i.i.i.i.i = getelementptr inbounds ptr, ptr %vtable.i.i.i.i.i.i.i, i64 2
  %51 = load ptr, ptr %vfn.i.i.i.i.i.i.i, align 8
  call void %51(ptr noundef nonnull align 8 dereferenceable(16) %45) #21
  %_M_weak_count.i.i.i.i.i.i.i = getelementptr inbounds %"class.std::_Sp_counted_base", ptr %45, i64 0, i32 2
  %52 = load i8, ptr @__libc_single_threaded, align 1
  %tobool.i.i.not.i.i.i.i.i.i.i = icmp eq i8 %52, 0
  br i1 %tobool.i.i.not.i.i.i.i.i.i.i, label %if.else.i.i.i.i.i.i.i.i, label %if.then.i.i.i.i.i.i.i.i

if.then.i.i.i.i.i.i.i.i:                          ; preds = %if.then7.i.i.i.i.i
  %53 = load i32, ptr %_M_weak_count.i.i.i.i.i.i.i, align 4
  %add.i.i.i.i.i.i.i.i = add nsw i32 %53, -1
  store i32 %add.i.i.i.i.i.i.i.i, ptr %_M_weak_count.i.i.i.i.i.i.i, align 4
  br label %_ZN9__gnu_cxx27__exchange_and_add_dispatchEPii.exit.i.i.i.i.i.i.i

if.else.i.i.i.i.i.i.i.i:                          ; preds = %if.then7.i.i.i.i.i
  %54 = atomicrmw volatile add ptr %_M_weak_count.i.i.i.i.i.i.i, i32 -1 acq_rel, align 4
  br label %_ZN9__gnu_cxx27__exchange_and_add_dispatchEPii.exit.i.i.i.i.i.i.i

_ZN9__gnu_cxx27__exchange_and_add_dispatchEPii.exit.i.i.i.i.i.i.i: ; preds = %if.else.i.i.i.i.i.i.i.i, %if.then.i.i.i.i.i.i.i.i
  %retval.i.0.i.i.i.i.i.i.i = phi i32 [ %53, %if.then.i.i.i.i.i.i.i.i ], [ %54, %if.else.i.i.i.i.i.i.i.i ]
  %cmp.i.i.i.i.i.i.i = icmp eq i32 %retval.i.0.i.i.i.i.i.i.i, 1
  br i1 %cmp.i.i.i.i.i.i.i, label %if.end8.sink.split.i.i.i.i.i, label %_ZNSt10shared_ptrIN19OpenColorIO_v2_4dev16XmlReaderElementEED2Ev.exit.i

if.end8.sink.split.i.i.i.i.i:                     ; preds = %_ZN9__gnu_cxx27__exchange_and_add_dispatchEPii.exit.i.i.i.i.i.i.i, %if.then.i.i.i.i14.i
  %vtable2.i.i.i.i.i.i.i = load ptr, ptr %45, align 8
  %vfn3.i.i.i.i.i.i.i = getelementptr inbounds ptr, ptr %vtable2.i.i.i.i.i.i.i, i64 3
  %55 = load ptr, ptr %vfn3.i.i.i.i.i.i.i, align 8
  call void %55(ptr noundef nonnull align 8 dereferenceable(16) %45) #21
  br label %_ZNSt10shared_ptrIN19OpenColorIO_v2_4dev16XmlReaderElementEED2Ev.exit.i

_ZNSt10shared_ptrIN19OpenColorIO_v2_4dev16XmlReaderElementEED2Ev.exit.i: ; preds = %if.end8.sink.split.i.i.i.i.i, %_ZN9__gnu_cxx27__exchange_and_add_dispatchEPii.exit.i.i.i.i.i.i.i, %_ZN9__gnu_cxx27__exchange_and_add_dispatchEPii.exit.i.i.i.i.i, %invoke.cont25.i
  %call28.i = invoke noundef nonnull align 8 dereferenceable(32) ptr @_ZNSt7__cxx1112basic_stringIcSt11char_traitsIcESaIcEEpLEPKc(ptr noundef nonnull align 8 dereferenceable(32) %error.i, ptr noundef nonnull @.str.58)
          to label %invoke.cont27.i unwind label %lpad19.i

invoke.cont27.i:                                  ; preds = %_ZNSt10shared_ptrIN19OpenColorIO_v2_4dev16XmlReaderElementEED2Ev.exit.i
  invoke fastcc void @_ZNK19OpenColorIO_v2_4dev12_GLOBAL__N_115XMLParserHelper12throwMessageERKNSt7__cxx1112basic_stringIcSt11char_traitsIcESaIcEEE(ptr noundef nonnull align 8 dereferenceable(104) %parser, ptr noundef nonnull align 8 dereferenceable(32) %error.i)
          to label %invoke.cont29.unreachable.i unwind label %lpad19.i

invoke.cont29.unreachable.i:                      ; preds = %invoke.cont27.i
  unreachable

lpad15.i:                                         ; preds = %if.then.i
  %56 = landingpad { ptr, i32 }
          cleanup
  call void @_ZNSaIcED1Ev(ptr noundef nonnull align 1 dereferenceable(1) %ref.tmp.i15) #21
  br label %ehcleanup60.i

lpad19.i:                                         ; preds = %invoke.cont27.i, %_ZNSt10shared_ptrIN19OpenColorIO_v2_4dev16XmlReaderElementEED2Ev.exit.i, %invoke.cont16.i
  %57 = landingpad { ptr, i32 }
          cleanup
  br label %ehcleanup.i

lpad24.i:                                         ; preds = %invoke.cont20.i
  %58 = landingpad { ptr, i32 }
          cleanup
  call void @_ZNSt10shared_ptrIN19OpenColorIO_v2_4dev16XmlReaderElementEED2Ev(ptr noundef nonnull align 8 dereferenceable(16) %ref.tmp17.i) #21
  br label %ehcleanup.i

ehcleanup.i:                                      ; preds = %lpad24.i, %lpad19.i
  %.pn.i = phi { ptr, i32 } [ %57, %lpad19.i ], [ %58, %lpad24.i ]
  call void @_ZNSt7__cxx1112basic_stringIcSt11char_traitsIcESaIcEED1Ev(ptr noundef nonnull align 8 dereferenceable(32) %error.i) #21
  br label %ehcleanup60.i

if.end.i:                                         ; preds = %invoke.cont13.i
  %this.val.i = load ptr, ptr %m_transform.i, align 8
  %59 = getelementptr inbounds i8, ptr %parser, i64 96
  %this.val9.i = load ptr, ptr %59, align 8
  call void @llvm.experimental.noalias.scope.decl(metadata !11)
  store ptr %this.val.i, ptr %ref.tmp30.i, align 8, !alias.scope !11
  %_M_refcount.i.i.i15.i = getelementptr inbounds %"class.std::__shared_ptr.10", ptr %ref.tmp30.i, i64 0, i32 1
  store ptr %this.val9.i, ptr %_M_refcount.i.i.i15.i, align 8, !alias.scope !11
  %cmp.not.i.i.i.i16.i = icmp eq ptr %this.val9.i, null
  br i1 %cmp.not.i.i.i.i16.i, label %if.then33.i, label %if.then.i.i.i.i17.i

if.then.i.i.i.i17.i:                              ; preds = %if.end.i
  %_M_use_count.i.i.i.i.i18.i = getelementptr inbounds %"class.std::_Sp_counted_base", ptr %this.val9.i, i64 0, i32 1
  %60 = load i8, ptr @__libc_single_threaded, align 1, !noalias !11
  %tobool.i.not.i.i.i.i.i.i = icmp eq i8 %60, 0
  br i1 %tobool.i.not.i.i.i.i.i.i, label %_ZN19OpenColorIO_v2_4dev12_GLOBAL__N_115XMLParserHelper12getTransformEv.exit.i, label %_ZN19OpenColorIO_v2_4dev12_GLOBAL__N_115XMLParserHelper12getTransformEv.exit.thread.i

_ZN19OpenColorIO_v2_4dev12_GLOBAL__N_115XMLParserHelper12getTransformEv.exit.thread.i: ; preds = %if.then.i.i.i.i17.i
  %61 = load i32, ptr %_M_use_count.i.i.i.i.i18.i, align 4, !noalias !11
  %add.i.i.i.i.i.i20.i = add nsw i32 %61, 1
  store i32 %add.i.i.i.i.i.i20.i, ptr %_M_use_count.i.i.i.i.i18.i, align 4, !noalias !11
  br label %_ZNKSt12__shared_ptrIN19OpenColorIO_v2_4dev18CTFReaderTransformELN9__gnu_cxx12_Lock_policyE2EE9use_countEv.exit.i

_ZN19OpenColorIO_v2_4dev12_GLOBAL__N_115XMLParserHelper12getTransformEv.exit.i: ; preds = %if.then.i.i.i.i17.i
  %62 = atomicrmw volatile add ptr %_M_use_count.i.i.i.i.i18.i, i32 1 acq_rel, align 4, !noalias !11
  %.pr.pre.i = load ptr, ptr %_M_refcount.i.i.i15.i, align 8
  %tobool.not.i.i.i = icmp eq ptr %.pr.pre.i, null
  br i1 %tobool.not.i.i.i, label %if.then33.i, label %_ZNKSt12__shared_ptrIN19OpenColorIO_v2_4dev18CTFReaderTransformELN9__gnu_cxx12_Lock_policyE2EE9use_countEv.exit.i

_ZNKSt12__shared_ptrIN19OpenColorIO_v2_4dev18CTFReaderTransformELN9__gnu_cxx12_Lock_policyE2EE9use_countEv.exit.i: ; preds = %_ZN19OpenColorIO_v2_4dev12_GLOBAL__N_115XMLParserHelper12getTransformEv.exit.i, %_ZN19OpenColorIO_v2_4dev12_GLOBAL__N_115XMLParserHelper12getTransformEv.exit.thread.i
  %63 = phi ptr [ %this.val9.i, %_ZN19OpenColorIO_v2_4dev12_GLOBAL__N_115XMLParserHelper12getTransformEv.exit.thread.i ], [ %.pr.pre.i, %_ZN19OpenColorIO_v2_4dev12_GLOBAL__N_115XMLParserHelper12getTransformEv.exit.i ]
  %_M_use_count.i.i.i.i = getelementptr inbounds %"class.std::_Sp_counted_base", ptr %63, i64 0, i32 1
  %64 = load atomic i32, ptr %_M_use_count.i.i.i.i monotonic, align 8
  %cmp.i23 = icmp eq i32 %64, 0
  br i1 %cmp.i23, label %if.then33.i, label %if.end41.i

if.then33.i:                                      ; preds = %_ZNKSt12__shared_ptrIN19OpenColorIO_v2_4dev18CTFReaderTransformELN9__gnu_cxx12_Lock_policyE2EE9use_countEv.exit.i, %_ZN19OpenColorIO_v2_4dev12_GLOBAL__N_115XMLParserHelper12getTransformEv.exit.i, %if.end.i
  %65 = load atomic i8, ptr @_ZGVZN19OpenColorIO_v2_4dev12_GLOBAL__N_115XMLParserHelper5ParseERSiE5errorB5cxx11 acquire, align 8
  %guard.uninitialized.i = icmp eq i8 %65, 0
  br i1 %guard.uninitialized.i, label %init.check.i, label %init.end56.invoke.i, !prof !10

init.check.i:                                     ; preds = %if.then33.i
  %66 = call i32 @__cxa_guard_acquire(ptr nonnull @_ZGVZN19OpenColorIO_v2_4dev12_GLOBAL__N_115XMLParserHelper5ParseERSiE5errorB5cxx11) #21
  %tobool.not.i = icmp eq i32 %66, 0
  br i1 %tobool.not.i, label %init.end56.invoke.i, label %init.i

init.i:                                           ; preds = %init.check.i
  call void @_ZNSaIcEC1Ev(ptr noundef nonnull align 1 dereferenceable(1) %ref.tmp34.i) #21
  invoke void @_ZNSt7__cxx1112basic_stringIcSt11char_traitsIcESaIcEEC1EPKcRKS3_(ptr noundef nonnull align 8 dereferenceable(32) @_ZZN19OpenColorIO_v2_4dev12_GLOBAL__N_115XMLParserHelper5ParseERSiE5errorB5cxx11, ptr noundef nonnull @.str.59, ptr noundef nonnull align 1 dereferenceable(1) %ref.tmp34.i)
          to label %init.end56.invoke.sink.split.i unwind label %lpad35.i

lpad35.i:                                         ; preds = %init.i
  %67 = landingpad { ptr, i32 }
          cleanup
  call void @_ZNSaIcED1Ev(ptr noundef nonnull align 1 dereferenceable(1) %ref.tmp34.i) #21
  call void @__cxa_guard_abort(ptr nonnull @_ZGVZN19OpenColorIO_v2_4dev12_GLOBAL__N_115XMLParserHelper5ParseERSiE5errorB5cxx11) #21
  br label %ehcleanup59.i

lpad39.i:                                         ; preds = %init.end56.invoke.i
  %68 = landingpad { ptr, i32 }
          cleanup
  br label %ehcleanup59.i

if.end41.i:                                       ; preds = %_ZNKSt12__shared_ptrIN19OpenColorIO_v2_4dev18CTFReaderTransformELN9__gnu_cxx12_Lock_policyE2EE9use_countEv.exit.i
  %69 = load ptr, ptr %ref.tmp30.i, align 8
  %m_ops.i.i = getelementptr inbounds %"class.OpenColorIO_v2_4dev::CTFReaderTransform", ptr %69, i64 0, i32 6
  %70 = load ptr, ptr %m_ops.i.i, align 8
  %_M_finish.i.i.i = getelementptr inbounds %"class.OpenColorIO_v2_4dev::CTFReaderTransform", ptr %69, i64 0, i32 6, i32 0, i32 0, i32 0, i32 1
  %71 = load ptr, ptr %_M_finish.i.i.i, align 8
  %cmp.i.i.i = icmp eq ptr %70, %71
  br i1 %cmp.i.i.i, label %if.then46.i, label %if.then.i.i.i24.i

if.then46.i:                                      ; preds = %if.end41.i
  %72 = load atomic i8, ptr @_ZGVZN19OpenColorIO_v2_4dev12_GLOBAL__N_115XMLParserHelper5ParseERSiE5errorB5cxx11_0 acquire, align 8
  %guard.uninitialized47.i = icmp eq i8 %72, 0
  br i1 %guard.uninitialized47.i, label %init.check48.i, label %init.end56.invoke.i, !prof !10

init.check48.i:                                   ; preds = %if.then46.i
  %73 = call i32 @__cxa_guard_acquire(ptr nonnull @_ZGVZN19OpenColorIO_v2_4dev12_GLOBAL__N_115XMLParserHelper5ParseERSiE5errorB5cxx11_0) #21
  %tobool49.not.i = icmp eq i32 %73, 0
  br i1 %tobool49.not.i, label %init.end56.invoke.i, label %init50.i

init50.i:                                         ; preds = %init.check48.i
  call void @_ZNSaIcEC1Ev(ptr noundef nonnull align 1 dereferenceable(1) %ref.tmp51.i) #21
  invoke void @_ZNSt7__cxx1112basic_stringIcSt11char_traitsIcESaIcEEC1EPKcRKS3_(ptr noundef nonnull align 8 dereferenceable(32) @_ZZN19OpenColorIO_v2_4dev12_GLOBAL__N_115XMLParserHelper5ParseERSiE5errorB5cxx11_0, ptr noundef nonnull @.str.60, ptr noundef nonnull align 1 dereferenceable(1) %ref.tmp51.i)
          to label %init.end56.invoke.sink.split.i unwind label %lpad52.i

init.end56.invoke.sink.split.i:                   ; preds = %init50.i, %init.i
  %ref.tmp34.sink.i = phi ptr [ %ref.tmp34.i, %init.i ], [ %ref.tmp51.i, %init50.i ]
  %_ZZN19OpenColorIO_v2_4dev12_GLOBAL__N_115XMLParserHelper5ParseERSiE5errorB5cxx11.sink.i = phi ptr [ @_ZZN19OpenColorIO_v2_4dev12_GLOBAL__N_115XMLParserHelper5ParseERSiE5errorB5cxx11, %init.i ], [ @_ZZN19OpenColorIO_v2_4dev12_GLOBAL__N_115XMLParserHelper5ParseERSiE5errorB5cxx11_0, %init50.i ]
  %_ZGVZN19OpenColorIO_v2_4dev12_GLOBAL__N_115XMLParserHelper5ParseERSiE5errorB5cxx11.sink.i = phi ptr [ @_ZGVZN19OpenColorIO_v2_4dev12_GLOBAL__N_115XMLParserHelper5ParseERSiE5errorB5cxx11, %init.i ], [ @_ZGVZN19OpenColorIO_v2_4dev12_GLOBAL__N_115XMLParserHelper5ParseERSiE5errorB5cxx11_0, %init50.i ]
  call void @_ZNSaIcED1Ev(ptr noundef nonnull align 1 dereferenceable(1) %ref.tmp34.sink.i) #21
  %74 = call i32 @__cxa_atexit(ptr nonnull @_ZNSt7__cxx1112basic_stringIcSt11char_traitsIcESaIcEED1Ev, ptr nonnull %_ZZN19OpenColorIO_v2_4dev12_GLOBAL__N_115XMLParserHelper5ParseERSiE5errorB5cxx11.sink.i, ptr nonnull @__dso_handle) #21
  call void @__cxa_guard_release(ptr nonnull %_ZGVZN19OpenColorIO_v2_4dev12_GLOBAL__N_115XMLParserHelper5ParseERSiE5errorB5cxx11.sink.i) #21
  br label %init.end56.invoke.i

init.end56.invoke.i:                              ; preds = %init.end56.invoke.sink.split.i, %init.check48.i, %if.then46.i, %init.check.i, %if.then33.i
  %75 = phi ptr [ @_ZZN19OpenColorIO_v2_4dev12_GLOBAL__N_115XMLParserHelper5ParseERSiE5errorB5cxx11_0, %init.check48.i ], [ @_ZZN19OpenColorIO_v2_4dev12_GLOBAL__N_115XMLParserHelper5ParseERSiE5errorB5cxx11_0, %if.then46.i ], [ @_ZZN19OpenColorIO_v2_4dev12_GLOBAL__N_115XMLParserHelper5ParseERSiE5errorB5cxx11, %init.check.i ], [ @_ZZN19OpenColorIO_v2_4dev12_GLOBAL__N_115XMLParserHelper5ParseERSiE5errorB5cxx11, %if.then33.i ], [ %_ZZN19OpenColorIO_v2_4dev12_GLOBAL__N_115XMLParserHelper5ParseERSiE5errorB5cxx11.sink.i, %init.end56.invoke.sink.split.i ]
  invoke fastcc void @_ZNK19OpenColorIO_v2_4dev12_GLOBAL__N_115XMLParserHelper12throwMessageERKNSt7__cxx1112basic_stringIcSt11char_traitsIcESaIcEEE(ptr noundef nonnull align 8 dereferenceable(104) %parser, ptr noundef nonnull align 8 dereferenceable(32) %75)
          to label %init.end56.cont.i unwind label %lpad39.i

init.end56.cont.i:                                ; preds = %init.end56.invoke.i
  unreachable

lpad52.i:                                         ; preds = %init50.i
  %76 = landingpad { ptr, i32 }
          cleanup
  call void @_ZNSaIcED1Ev(ptr noundef nonnull align 1 dereferenceable(1) %ref.tmp51.i) #21
  call void @__cxa_guard_abort(ptr nonnull @_ZGVZN19OpenColorIO_v2_4dev12_GLOBAL__N_115XMLParserHelper5ParseERSiE5errorB5cxx11_0) #21
  br label %ehcleanup59.i

if.then.i.i.i24.i:                                ; preds = %if.end41.i
  %77 = load atomic i64, ptr %_M_use_count.i.i.i.i acquire, align 8
  %cmp.i.i.i.i26.i = icmp eq i64 %77, 4294967297
  %78 = trunc i64 %77 to i32
  br i1 %cmp.i.i.i.i26.i, label %if.then.i.i.i.i49.i, label %if.end.i.i.i.i27.i

if.then.i.i.i.i49.i:                              ; preds = %if.then.i.i.i24.i
  store i32 0, ptr %_M_use_count.i.i.i.i, align 8
  %_M_weak_count.i.i.i.i50.i = getelementptr inbounds %"class.std::_Sp_counted_base", ptr %63, i64 0, i32 2
  store i32 0, ptr %_M_weak_count.i.i.i.i50.i, align 4
  %vtable.i.i.i.i51.i = load ptr, ptr %63, align 8
  %vfn.i.i.i.i52.i = getelementptr inbounds ptr, ptr %vtable.i.i.i.i51.i, i64 2
  %79 = load ptr, ptr %vfn.i.i.i.i52.i, align 8
  call void %79(ptr noundef nonnull align 8 dereferenceable(16) %63) #21
  br label %if.end8.sink.split.i.i.i.i44.i

if.end.i.i.i.i27.i:                               ; preds = %if.then.i.i.i24.i
  %80 = load i8, ptr @__libc_single_threaded, align 1
  %tobool.i.i.not.i.i.i.i28.i = icmp eq i8 %80, 0
  br i1 %tobool.i.i.not.i.i.i.i28.i, label %if.else.i.i.i.i.i48.i, label %if.then.i.i.i.i.i29.i

if.then.i.i.i.i.i29.i:                            ; preds = %if.end.i.i.i.i27.i
  %add.i.i.i.i.i30.i = add nsw i32 %78, -1
  store i32 %add.i.i.i.i.i30.i, ptr %_M_use_count.i.i.i.i, align 4
  br label %_ZN9__gnu_cxx27__exchange_and_add_dispatchEPii.exit.i.i.i.i31.i

if.else.i.i.i.i.i48.i:                            ; preds = %if.end.i.i.i.i27.i
  %81 = atomicrmw volatile add ptr %_M_use_count.i.i.i.i, i32 -1 acq_rel, align 4
  br label %_ZN9__gnu_cxx27__exchange_and_add_dispatchEPii.exit.i.i.i.i31.i

_ZN9__gnu_cxx27__exchange_and_add_dispatchEPii.exit.i.i.i.i31.i: ; preds = %if.else.i.i.i.i.i48.i, %if.then.i.i.i.i.i29.i
  %retval.i.0.i.i.i.i32.i = phi i32 [ %78, %if.then.i.i.i.i.i29.i ], [ %81, %if.else.i.i.i.i.i48.i ]
  %cmp6.i.i.i.i33.i = icmp eq i32 %retval.i.0.i.i.i.i32.i, 1
  br i1 %cmp6.i.i.i.i33.i, label %if.then7.i.i.i.i34.i, label %invoke.cont14

if.then7.i.i.i.i34.i:                             ; preds = %_ZN9__gnu_cxx27__exchange_and_add_dispatchEPii.exit.i.i.i.i31.i
  %vtable.i.i.i.i.i.i35.i = load ptr, ptr %63, align 8
  %vfn.i.i.i.i.i.i36.i = getelementptr inbounds ptr, ptr %vtable.i.i.i.i.i.i35.i, i64 2
  %82 = load ptr, ptr %vfn.i.i.i.i.i.i36.i, align 8
  call void %82(ptr noundef nonnull align 8 dereferenceable(16) %63) #21
  %_M_weak_count.i.i.i.i.i.i37.i = getelementptr inbounds %"class.std::_Sp_counted_base", ptr %63, i64 0, i32 2
  %83 = load i8, ptr @__libc_single_threaded, align 1
  %tobool.i.i.not.i.i.i.i.i.i38.i = icmp eq i8 %83, 0
  br i1 %tobool.i.i.not.i.i.i.i.i.i38.i, label %if.else.i.i.i.i.i.i.i47.i, label %if.then.i.i.i.i.i.i.i39.i

if.then.i.i.i.i.i.i.i39.i:                        ; preds = %if.then7.i.i.i.i34.i
  %84 = load i32, ptr %_M_weak_count.i.i.i.i.i.i37.i, align 4
  %add.i.i.i.i.i.i.i40.i = add nsw i32 %84, -1
  store i32 %add.i.i.i.i.i.i.i40.i, ptr %_M_weak_count.i.i.i.i.i.i37.i, align 4
  br label %_ZN9__gnu_cxx27__exchange_and_add_dispatchEPii.exit.i.i.i.i.i.i41.i

if.else.i.i.i.i.i.i.i47.i:                        ; preds = %if.then7.i.i.i.i34.i
  %85 = atomicrmw volatile add ptr %_M_weak_count.i.i.i.i.i.i37.i, i32 -1 acq_rel, align 4
  br label %_ZN9__gnu_cxx27__exchange_and_add_dispatchEPii.exit.i.i.i.i.i.i41.i

_ZN9__gnu_cxx27__exchange_and_add_dispatchEPii.exit.i.i.i.i.i.i41.i: ; preds = %if.else.i.i.i.i.i.i.i47.i, %if.then.i.i.i.i.i.i.i39.i
  %retval.i.0.i.i.i.i.i.i42.i = phi i32 [ %84, %if.then.i.i.i.i.i.i.i39.i ], [ %85, %if.else.i.i.i.i.i.i.i47.i ]
  %cmp.i.i.i.i.i.i43.i = icmp eq i32 %retval.i.0.i.i.i.i.i.i42.i, 1
  br i1 %cmp.i.i.i.i.i.i43.i, label %if.end8.sink.split.i.i.i.i44.i, label %invoke.cont14

if.end8.sink.split.i.i.i.i44.i:                   ; preds = %_ZN9__gnu_cxx27__exchange_and_add_dispatchEPii.exit.i.i.i.i.i.i41.i, %if.then.i.i.i.i49.i
  %vtable2.i.i.i.i.i.i45.i = load ptr, ptr %63, align 8
  %vfn3.i.i.i.i.i.i46.i = getelementptr inbounds ptr, ptr %vtable2.i.i.i.i.i.i45.i, i64 3
  %86 = load ptr, ptr %vfn3.i.i.i.i.i.i46.i, align 8
  call void %86(ptr noundef nonnull align 8 dereferenceable(16) %63) #21
  br label %invoke.cont14

ehcleanup59.i:                                    ; preds = %lpad52.i, %lpad39.i, %lpad35.i
  %.pn5.i = phi { ptr, i32 } [ %68, %lpad39.i ], [ %76, %lpad52.i ], [ %67, %lpad35.i ]
  call void @_ZNSt10shared_ptrIN19OpenColorIO_v2_4dev18CTFReaderTransformEED2Ev(ptr noundef nonnull align 8 dereferenceable(16) %ref.tmp30.i) #21
  br label %ehcleanup60.i

ehcleanup60.i:                                    ; preds = %ehcleanup59.i, %ehcleanup.i, %lpad15.i, %lpad.loopexit.split-lp.i, %lpad.loopexit.i, %lpad36.i.i, %lpad32.i.i, %lpad25.i.i, %ehcleanup.i.i, %lpad.i.i
  %.pn7.i = phi { ptr, i32 } [ %.pn5.i, %ehcleanup59.i ], [ %.pn.i, %ehcleanup.i ], [ %56, %lpad15.i ], [ %40, %lpad25.i.i ], [ %.pn.i.i, %ehcleanup.i.i ], [ %34, %lpad.i.i ], [ %43, %lpad36.i.i ], [ %42, %lpad32.i.i ], [ %lpad.loopexit56.i, %lpad.loopexit.i ], [ %lpad.loopexit.split-lp57.i, %lpad.loopexit.split-lp.i ]
  call void @_ZNSt7__cxx1112basic_stringIcSt11char_traitsIcESaIcEED1Ev(ptr noundef nonnull align 8 dereferenceable(32) %line.i14) #21
  br label %ehcleanup30

invoke.cont14:                                    ; preds = %if.end8.sink.split.i.i.i.i44.i, %_ZN9__gnu_cxx27__exchange_and_add_dispatchEPii.exit.i.i.i.i.i.i41.i, %_ZN9__gnu_cxx27__exchange_and_add_dispatchEPii.exit.i.i.i.i31.i
  call void @_ZNSt7__cxx1112basic_stringIcSt11char_traitsIcESaIcEED1Ev(ptr noundef nonnull align 8 dereferenceable(32) %line.i14) #21
  call void @llvm.lifetime.end.p0(i64 32, ptr nonnull %line.i14)
  call void @llvm.lifetime.end.p0(i64 32, ptr nonnull %error.i)
  call void @llvm.lifetime.end.p0(i64 1, ptr nonnull %ref.tmp.i15)
  call void @llvm.lifetime.end.p0(i64 16, ptr nonnull %ref.tmp17.i)
  call void @llvm.lifetime.end.p0(i64 16, ptr nonnull %ref.tmp30.i)
  call void @llvm.lifetime.end.p0(i64 1, ptr nonnull %ref.tmp34.i)
  call void @llvm.lifetime.end.p0(i64 1, ptr nonnull %ref.tmp51.i)
  %call16 = invoke noalias noundef nonnull dereferenceable(56) ptr @_Znwm(i64 noundef 56) #22
          to label %invoke.cont18 unwind label %lpad13

invoke.cont18:                                    ; preds = %invoke.cont14
  store ptr getelementptr inbounds ({ [5 x ptr] }, ptr @_ZTVN19OpenColorIO_v2_4dev12_GLOBAL__N_115LocalCachedFileE, i64 0, inrange i32 0, i64 2), ptr %call16, align 8
  %m_transform.i29 = getelementptr inbounds %"class.OpenColorIO_v2_4dev::(anonymous namespace)::LocalCachedFile", ptr %call16, i64 0, i32 1
  call void @llvm.memset.p0.i64(ptr noundef nonnull align 8 dereferenceable(16) %m_transform.i29, i8 0, i64 16, i1 false)
  %m_filePath.i = getelementptr inbounds %"class.OpenColorIO_v2_4dev::(anonymous namespace)::LocalCachedFile", ptr %call16, i64 0, i32 2
  call void @_ZNSt7__cxx1112basic_stringIcSt11char_traitsIcESaIcEEC1Ev(ptr noundef nonnull align 8 dereferenceable(32) %m_filePath.i) #21
  %call.i.i.i.i = invoke noalias noundef nonnull dereferenceable(24) ptr @_Znwm(i64 noundef 24) #22
          to label %invoke.cont20 unwind label %lpad.i.i.i.i

lpad.i.i.i.i:                                     ; preds = %invoke.cont18
  %87 = landingpad { ptr, i32 }
          catch ptr null
  %88 = extractvalue { ptr, i32 } %87, 0
  %89 = call ptr @__cxa_begin_catch(ptr %88) #21
  %vtable.i.i.i.i = load ptr, ptr %call16, align 8
  %vfn.i.i.i.i = getelementptr inbounds ptr, ptr %vtable.i.i.i.i, i64 1
  %90 = load ptr, ptr %vfn.i.i.i.i, align 8
  call void %90(ptr noundef nonnull align 8 dereferenceable(56) %call16) #21
  invoke void @__cxa_rethrow() #25
          to label %unreachable.i.i.i.i unwind label %lpad3.i.i.i.i

lpad3.i.i.i.i:                                    ; preds = %lpad.i.i.i.i
  %91 = landingpad { ptr, i32 }
          cleanup
  invoke void @__cxa_end_catch()
          to label %ehcleanup30 unwind label %terminate.lpad.i.i.i.i

terminate.lpad.i.i.i.i:                           ; preds = %lpad3.i.i.i.i
  %92 = landingpad { ptr, i32 }
          catch ptr null
  %93 = extractvalue { ptr, i32 } %92, 0
  call void @__clang_call_terminate(ptr %93) #26
  unreachable

unreachable.i.i.i.i:                              ; preds = %lpad.i.i.i.i
  unreachable

invoke.cont20:                                    ; preds = %invoke.cont18
  %_M_use_count.i.i.i.i.i.i30 = getelementptr inbounds %"class.std::_Sp_counted_base", ptr %call.i.i.i.i, i64 0, i32 1
  store i32 1, ptr %_M_use_count.i.i.i.i.i.i30, align 8
  %_M_weak_count.i.i.i.i.i.i31 = getelementptr inbounds %"class.std::_Sp_counted_base", ptr %call.i.i.i.i, i64 0, i32 2
  store i32 1, ptr %_M_weak_count.i.i.i.i.i.i31, align 4
  store ptr getelementptr inbounds ({ [7 x ptr] }, ptr @_ZTVSt15_Sp_counted_ptrIPN19OpenColorIO_v2_4dev12_GLOBAL__N_115LocalCachedFileELN9__gnu_cxx12_Lock_policyE2EE, i64 0, inrange i32 0, i64 2), ptr %call.i.i.i.i, align 8
  %_M_ptr.i.i.i.i.i = getelementptr inbounds %"class.std::_Sp_counted_ptr", ptr %call.i.i.i.i, i64 0, i32 1
  store ptr %call16, ptr %_M_ptr.i.i.i.i.i, align 8
  %parser.val = load ptr, ptr %m_transform.i, align 8
  %parser.val12 = load ptr, ptr %59, align 8
  %cmp.not.i.i.i.i35 = icmp eq ptr %parser.val12, null
  br i1 %cmp.not.i.i.i.i35, label %_ZN19OpenColorIO_v2_4dev12_GLOBAL__N_115XMLParserHelper12getTransformEv.exit, label %if.then.i.i.i.i36

if.then.i.i.i.i36:                                ; preds = %invoke.cont20
  %_M_use_count.i.i.i.i.i37 = getelementptr inbounds %"class.std::_Sp_counted_base", ptr %parser.val12, i64 0, i32 1
  %94 = load i8, ptr @__libc_single_threaded, align 1, !noalias !14
  %tobool.i.not.i.i.i.i.i = icmp eq i8 %94, 0
  br i1 %tobool.i.not.i.i.i.i.i, label %if.else.i.i.i.i.i.i40, label %if.then.i.i.i.i.i.i38

if.then.i.i.i.i.i.i38:                            ; preds = %if.then.i.i.i.i36
  %95 = load i32, ptr %_M_use_count.i.i.i.i.i37, align 4, !noalias !14
  %add.i.i.i.i.i.i39 = add nsw i32 %95, 1
  store i32 %add.i.i.i.i.i.i39, ptr %_M_use_count.i.i.i.i.i37, align 4, !noalias !14
  br label %_ZN19OpenColorIO_v2_4dev12_GLOBAL__N_115XMLParserHelper12getTransformEv.exit

if.else.i.i.i.i.i.i40:                            ; preds = %if.then.i.i.i.i36
  %96 = atomicrmw volatile add ptr %_M_use_count.i.i.i.i.i37, i32 1 acq_rel, align 4, !noalias !14
  br label %_ZN19OpenColorIO_v2_4dev12_GLOBAL__N_115XMLParserHelper12getTransformEv.exit

_ZN19OpenColorIO_v2_4dev12_GLOBAL__N_115XMLParserHelper12getTransformEv.exit: ; preds = %invoke.cont20, %if.then.i.i.i.i.i.i38, %if.else.i.i.i.i.i.i40
  store ptr %parser.val, ptr %m_transform.i29, align 8
  %_M_refcount3.i.i.i = getelementptr inbounds %"class.OpenColorIO_v2_4dev::(anonymous namespace)::LocalCachedFile", ptr %call16, i64 0, i32 1, i32 0, i32 1
  %97 = load ptr, ptr %_M_refcount3.i.i.i, align 8
  store ptr %parser.val12, ptr %_M_refcount3.i.i.i, align 8
  %cmp.not.i.i.i.i41 = icmp eq ptr %97, null
  br i1 %cmp.not.i.i.i.i41, label %_ZNSt10shared_ptrIN19OpenColorIO_v2_4dev18CTFReaderTransformEED2Ev.exit, label %if.then.i.i.i.i42

if.then.i.i.i.i42:                                ; preds = %_ZN19OpenColorIO_v2_4dev12_GLOBAL__N_115XMLParserHelper12getTransformEv.exit
  %_M_use_count.i.i.i.i.i43 = getelementptr inbounds %"class.std::_Sp_counted_base", ptr %97, i64 0, i32 1
  %98 = load atomic i64, ptr %_M_use_count.i.i.i.i.i43 acquire, align 8
  %cmp.i.i.i.i.i44 = icmp eq i64 %98, 4294967297
  %99 = trunc i64 %98 to i32
  br i1 %cmp.i.i.i.i.i44, label %if.then.i.i.i.i.i67, label %if.end.i.i.i.i.i45

if.then.i.i.i.i.i67:                              ; preds = %if.then.i.i.i.i42
  store i32 0, ptr %_M_use_count.i.i.i.i.i43, align 8
  %_M_weak_count.i.i.i.i.i68 = getelementptr inbounds %"class.std::_Sp_counted_base", ptr %97, i64 0, i32 2
  store i32 0, ptr %_M_weak_count.i.i.i.i.i68, align 4
  %vtable.i.i.i.i.i69 = load ptr, ptr %97, align 8
  %vfn.i.i.i.i.i70 = getelementptr inbounds ptr, ptr %vtable.i.i.i.i.i69, i64 2
  %100 = load ptr, ptr %vfn.i.i.i.i.i70, align 8
  call void %100(ptr noundef nonnull align 8 dereferenceable(16) %97) #21
  br label %if.end8.sink.split.i.i.i.i.i62

if.end.i.i.i.i.i45:                               ; preds = %if.then.i.i.i.i42
  %101 = load i8, ptr @__libc_single_threaded, align 1
  %tobool.i.i.not.i.i.i.i.i46 = icmp eq i8 %101, 0
  br i1 %tobool.i.i.not.i.i.i.i.i46, label %if.else.i.i.i.i.i.i66, label %if.then.i.i.i.i.i.i47

if.then.i.i.i.i.i.i47:                            ; preds = %if.end.i.i.i.i.i45
  %add.i.i.i.i.i.i48 = add nsw i32 %99, -1
  store i32 %add.i.i.i.i.i.i48, ptr %_M_use_count.i.i.i.i.i43, align 4
  br label %_ZN9__gnu_cxx27__exchange_and_add_dispatchEPii.exit.i.i.i.i.i49

if.else.i.i.i.i.i.i66:                            ; preds = %if.end.i.i.i.i.i45
  %102 = atomicrmw volatile add ptr %_M_use_count.i.i.i.i.i43, i32 -1 acq_rel, align 4
  br label %_ZN9__gnu_cxx27__exchange_and_add_dispatchEPii.exit.i.i.i.i.i49

_ZN9__gnu_cxx27__exchange_and_add_dispatchEPii.exit.i.i.i.i.i49: ; preds = %if.else.i.i.i.i.i.i66, %if.then.i.i.i.i.i.i47
  %retval.i.0.i.i.i.i.i50 = phi i32 [ %99, %if.then.i.i.i.i.i.i47 ], [ %102, %if.else.i.i.i.i.i.i66 ]
  %cmp6.i.i.i.i.i51 = icmp eq i32 %retval.i.0.i.i.i.i.i50, 1
  br i1 %cmp6.i.i.i.i.i51, label %if.then7.i.i.i.i.i52, label %_ZNSt10shared_ptrIN19OpenColorIO_v2_4dev18CTFReaderTransformEED2Ev.exit

if.then7.i.i.i.i.i52:                             ; preds = %_ZN9__gnu_cxx27__exchange_and_add_dispatchEPii.exit.i.i.i.i.i49
  %vtable.i.i.i.i.i.i.i53 = load ptr, ptr %97, align 8
  %vfn.i.i.i.i.i.i.i54 = getelementptr inbounds ptr, ptr %vtable.i.i.i.i.i.i.i53, i64 2
  %103 = load ptr, ptr %vfn.i.i.i.i.i.i.i54, align 8
  call void %103(ptr noundef nonnull align 8 dereferenceable(16) %97) #21
  %_M_weak_count.i.i.i.i.i.i.i55 = getelementptr inbounds %"class.std::_Sp_counted_base", ptr %97, i64 0, i32 2
  %104 = load i8, ptr @__libc_single_threaded, align 1
  %tobool.i.i.not.i.i.i.i.i.i.i56 = icmp eq i8 %104, 0
  br i1 %tobool.i.i.not.i.i.i.i.i.i.i56, label %if.else.i.i.i.i.i.i.i.i65, label %if.then.i.i.i.i.i.i.i.i57

if.then.i.i.i.i.i.i.i.i57:                        ; preds = %if.then7.i.i.i.i.i52
  %105 = load i32, ptr %_M_weak_count.i.i.i.i.i.i.i55, align 4
  %add.i.i.i.i.i.i.i.i58 = add nsw i32 %105, -1
  store i32 %add.i.i.i.i.i.i.i.i58, ptr %_M_weak_count.i.i.i.i.i.i.i55, align 4
  br label %_ZN9__gnu_cxx27__exchange_and_add_dispatchEPii.exit.i.i.i.i.i.i.i59

if.else.i.i.i.i.i.i.i.i65:                        ; preds = %if.then7.i.i.i.i.i52
  %106 = atomicrmw volatile add ptr %_M_weak_count.i.i.i.i.i.i.i55, i32 -1 acq_rel, align 4
  br label %_ZN9__gnu_cxx27__exchange_and_add_dispatchEPii.exit.i.i.i.i.i.i.i59

_ZN9__gnu_cxx27__exchange_and_add_dispatchEPii.exit.i.i.i.i.i.i.i59: ; preds = %if.else.i.i.i.i.i.i.i.i65, %if.then.i.i.i.i.i.i.i.i57
  %retval.i.0.i.i.i.i.i.i.i60 = phi i32 [ %105, %if.then.i.i.i.i.i.i.i.i57 ], [ %106, %if.else.i.i.i.i.i.i.i.i65 ]
  %cmp.i.i.i.i.i.i.i61 = icmp eq i32 %retval.i.0.i.i.i.i.i.i.i60, 1
  br i1 %cmp.i.i.i.i.i.i.i61, label %if.end8.sink.split.i.i.i.i.i62, label %_ZNSt10shared_ptrIN19OpenColorIO_v2_4dev18CTFReaderTransformEED2Ev.exit

if.end8.sink.split.i.i.i.i.i62:                   ; preds = %_ZN9__gnu_cxx27__exchange_and_add_dispatchEPii.exit.i.i.i.i.i.i.i59, %if.then.i.i.i.i.i67
  %vtable2.i.i.i.i.i.i.i63 = load ptr, ptr %97, align 8
  %vfn3.i.i.i.i.i.i.i64 = getelementptr inbounds ptr, ptr %vtable2.i.i.i.i.i.i.i63, i64 3
  %107 = load ptr, ptr %vfn3.i.i.i.i.i.i.i64, align 8
  call void %107(ptr noundef nonnull align 8 dereferenceable(16) %97) #21
  br label %_ZNSt10shared_ptrIN19OpenColorIO_v2_4dev18CTFReaderTransformEED2Ev.exit

_ZNSt10shared_ptrIN19OpenColorIO_v2_4dev18CTFReaderTransformEED2Ev.exit: ; preds = %if.end8.sink.split.i.i.i.i.i62, %_ZN9__gnu_cxx27__exchange_and_add_dispatchEPii.exit.i.i.i.i.i.i.i59, %_ZN9__gnu_cxx27__exchange_and_add_dispatchEPii.exit.i.i.i.i.i49, %_ZN19OpenColorIO_v2_4dev12_GLOBAL__N_115XMLParserHelper12getTransformEv.exit
  %call28 = invoke noundef nonnull align 8 dereferenceable(32) ptr @_ZNSt7__cxx1112basic_stringIcSt11char_traitsIcESaIcEEaSERKS4_(ptr noundef nonnull align 8 dereferenceable(32) %m_filePath.i, ptr noundef nonnull align 8 dereferenceable(32) %filePath)
          to label %_ZNSt10shared_ptrIN19OpenColorIO_v2_4dev12_GLOBAL__N_115LocalCachedFileEED2Ev.exit unwind label %lpad22

_ZNSt10shared_ptrIN19OpenColorIO_v2_4dev12_GLOBAL__N_115LocalCachedFileEED2Ev.exit: ; preds = %_ZNSt10shared_ptrIN19OpenColorIO_v2_4dev18CTFReaderTransformEED2Ev.exit
  store ptr %call16, ptr %agg.result, align 8
  %_M_refcount.i.i87 = getelementptr inbounds %"class.std::__shared_ptr", ptr %agg.result, i64 0, i32 1
  store ptr %call.i.i.i.i, ptr %_M_refcount.i.i87, align 8
  call fastcc void @_ZN19OpenColorIO_v2_4dev12_GLOBAL__N_115XMLParserHelperD2Ev(ptr noundef nonnull align 8 dereferenceable(104) %parser) #21
  ret void

lpad13:                                           ; preds = %invoke.cont14
  %108 = landingpad { ptr, i32 }
          cleanup
  br label %ehcleanup30

lpad22:                                           ; preds = %_ZNSt10shared_ptrIN19OpenColorIO_v2_4dev18CTFReaderTransformEED2Ev.exit
  %109 = landingpad { ptr, i32 }
          cleanup
  call fastcc void @_ZNSt10shared_ptrIN19OpenColorIO_v2_4dev12_GLOBAL__N_115LocalCachedFileEED2Ev(ptr nonnull %call.i.i.i.i) #21
  br label %ehcleanup30

ehcleanup30:                                      ; preds = %ehcleanup60.i, %lpad3.i.i.i.i, %lpad13, %lpad22
  %.pn6 = phi { ptr, i32 } [ %109, %lpad22 ], [ %.pn7.i, %ehcleanup60.i ], [ %108, %lpad13 ], [ %91, %lpad3.i.i.i.i ]
  call fastcc void @_ZN19OpenColorIO_v2_4dev12_GLOBAL__N_115XMLParserHelperD2Ev(ptr noundef nonnull align 8 dereferenceable(104) %parser) #21
  br label %common.resume

unreachable:                                      ; preds = %invoke.cont11
  unreachable
}

; Function Attrs: mustprogress uwtable
define internal void @_ZNK19OpenColorIO_v2_4dev12_GLOBAL__N_115LocalFileFormat4bakeERKNS_5BakerERKNSt7__cxx1112basic_stringIcSt11char_traitsIcESaIcEEERSo(ptr noundef nonnull align 8 dereferenceable(8) %this, ptr noundef nonnull align 8 dereferenceable(8) %baker, ptr noundef nonnull align 8 dereferenceable(32) %formatName, ptr noundef nonnull align 8 dereferenceable(8) %ostream) unnamed_addr #4 align 2 personality ptr @__gxx_personality_v0 {
entry:
  %os = alloca %"class.std::__cxx11::basic_ostringstream", align 8
  %ref.tmp = alloca %"class.std::__cxx11::basic_string", align 8
  %config = alloca %"class.std::shared_ptr.307", align 8
  %shaperSpace = alloca %"class.std::__cxx11::basic_string", align 8
  %ref.tmp29 = alloca %"class.std::allocator", align 1
  %inputToTarget = alloca %"class.std::shared_ptr.310", align 8
  %shaperLut = alloca %"class.std::shared_ptr.313", align 8
  %fromInStart = alloca float, align 4
  %fromInEnd = alloca float, align 4
  %shaperImg = alloca %"class.OpenColorIO_v2_4dev::PackedImageDesc", align 8
  %inputToShaper = alloca %"class.std::shared_ptr.310", align 8
  %cubeData = alloca %"class.std::vector.281", align 8
  %cubeImg = alloca %"class.OpenColorIO_v2_4dev::PackedImageDesc", align 8
  %cubeProc = alloca %"class.std::shared_ptr.310", align 8
  %ref.tmp116 = alloca %"class.std::shared_ptr.310", align 8
  %onedData = alloca %"class.std::vector.281", align 8
  %onedImg = alloca %"class.OpenColorIO_v2_4dev::PackedImageDesc", align 8
  %ops = alloca %"class.OpenColorIO_v2_4dev::OpRcPtrVec", align 8
  %lut1D = alloca %"class.std::shared_ptr.313", align 8
  %lut3D = alloca %"class.std::shared_ptr.321", align 8
  %group = alloca %"class.std::shared_ptr.303", align 8
  %op = alloca %"class.std::shared_ptr.325", align 8
  %ref.tmp228 = alloca %"class.std::shared_ptr.331", align 8
  %call.i.i = tail call noundef i32 @_ZNKSt7__cxx1112basic_stringIcSt11char_traitsIcESaIcEE7compareEPKc(ptr noundef nonnull align 8 dereferenceable(32) %formatName, ptr noundef nonnull @_ZN19OpenColorIO_v2_4devL14FILEFORMAT_CTFE) #21
  %cmp.i.i.not = icmp eq i32 %call.i.i, 0
  br i1 %cmp.i.i.not, label %if.end, label %land.lhs.true

land.lhs.true:                                    ; preds = %entry
  %call.i.i50 = tail call noundef i32 @_ZNKSt7__cxx1112basic_stringIcSt11char_traitsIcESaIcEE7compareEPKc(ptr noundef nonnull align 8 dereferenceable(32) %formatName, ptr noundef nonnull @_ZN19OpenColorIO_v2_4devL14FILEFORMAT_CLFE) #21
  %cmp.i.i51.not = icmp eq i32 %call.i.i50, 0
  br i1 %cmp.i.i51.not, label %if.end, label %if.then

if.then:                                          ; preds = %land.lhs.true
  call void @_ZNSt7__cxx1119basic_ostringstreamIcSt11char_traitsIcESaIcEEC1Ev(ptr noundef nonnull align 8 dereferenceable(112) %os)
  %call3 = invoke noundef nonnull align 8 dereferenceable(8) ptr @_ZStlsISt11char_traitsIcEERSt13basic_ostreamIcT_ES5_PKc(ptr noundef nonnull align 8 dereferenceable(8) %os, ptr noundef nonnull @.str.65)
          to label %invoke.cont unwind label %lpad

invoke.cont:                                      ; preds = %if.then
  %call5 = invoke noundef nonnull align 8 dereferenceable(8) ptr @_ZStlsIcSt11char_traitsIcESaIcEERSt13basic_ostreamIT_T0_ES7_RKNSt7__cxx1112basic_stringIS4_S5_T1_EE(ptr noundef nonnull align 8 dereferenceable(8) %os, ptr noundef nonnull align 8 dereferenceable(32) %formatName)
          to label %invoke.cont4 unwind label %lpad

invoke.cont4:                                     ; preds = %invoke.cont
  %call7 = invoke noundef nonnull align 8 dereferenceable(8) ptr @_ZStlsISt11char_traitsIcEERSt13basic_ostreamIcT_ES5_PKc(ptr noundef nonnull align 8 dereferenceable(8) %call5, ptr noundef nonnull @.str.53)
          to label %invoke.cont6 unwind label %lpad

invoke.cont6:                                     ; preds = %invoke.cont4
  %exception = call ptr @__cxa_allocate_exception(i64 16) #21
  invoke void @_ZNKSt7__cxx1119basic_ostringstreamIcSt11char_traitsIcESaIcEE3strEv(ptr nonnull sret(%"class.std::__cxx11::basic_string") align 8 %ref.tmp, ptr noundef nonnull align 8 dereferenceable(112) %os)
          to label %invoke.cont9 unwind label %ehcleanup.thread

invoke.cont9:                                     ; preds = %invoke.cont6
  %call10 = call noundef ptr @_ZNKSt7__cxx1112basic_stringIcSt11char_traitsIcESaIcEE5c_strEv(ptr noundef nonnull align 8 dereferenceable(32) %ref.tmp) #21
  invoke void @_ZN19OpenColorIO_v2_4dev9ExceptionC1EPKc(ptr noundef nonnull align 8 dereferenceable(16) %exception, ptr noundef %call10)
          to label %invoke.cont12 unwind label %ehcleanup.thread615

ehcleanup.thread615:                              ; preds = %invoke.cont9
  %0 = landingpad { ptr, i32 }
          cleanup
  call void @_ZNSt7__cxx1112basic_stringIcSt11char_traitsIcESaIcEED1Ev(ptr noundef nonnull align 8 dereferenceable(32) %ref.tmp) #21
  br label %cleanup.action

invoke.cont12:                                    ; preds = %invoke.cont9
  invoke void @__cxa_throw(ptr nonnull %exception, ptr nonnull @_ZTIN19OpenColorIO_v2_4dev9ExceptionE, ptr nonnull @_ZN19OpenColorIO_v2_4dev9ExceptionD1Ev) #25
          to label %unreachable unwind label %ehcleanup

lpad:                                             ; preds = %invoke.cont4, %invoke.cont, %if.then
  %1 = landingpad { ptr, i32 }
          cleanup
  br label %ehcleanup13

ehcleanup.thread:                                 ; preds = %invoke.cont6
  %2 = landingpad { ptr, i32 }
          cleanup
  br label %cleanup.action

ehcleanup:                                        ; preds = %invoke.cont12
  %3 = landingpad { ptr, i32 }
          cleanup
  call void @_ZNSt7__cxx1112basic_stringIcSt11char_traitsIcESaIcEED1Ev(ptr noundef nonnull align 8 dereferenceable(32) %ref.tmp) #21
  br label %ehcleanup13

cleanup.action:                                   ; preds = %ehcleanup.thread615, %ehcleanup.thread
  %.pn45614 = phi { ptr, i32 } [ %2, %ehcleanup.thread ], [ %0, %ehcleanup.thread615 ]
  call void @__cxa_free_exception(ptr %exception) #21
  br label %ehcleanup13

ehcleanup13:                                      ; preds = %ehcleanup, %cleanup.action, %lpad
  %.pn45.pn = phi { ptr, i32 } [ %.pn45614, %cleanup.action ], [ %3, %ehcleanup ], [ %1, %lpad ]
  call void @_ZNSt7__cxx1119basic_ostringstreamIcSt11char_traitsIcESaIcEED1Ev(ptr noundef nonnull align 8 dereferenceable(112) %os) #21
  br label %eh.resume

if.end:                                           ; preds = %land.lhs.true, %entry
  call void @_ZNK19OpenColorIO_v2_4dev5Baker9getConfigEv(ptr nonnull sret(%"class.std::shared_ptr.307") align 8 %config, ptr noundef nonnull align 8 dereferenceable(8) %baker)
  %call16 = invoke noundef i32 @_ZNK19OpenColorIO_v2_4dev5Baker11getCubeSizeEv(ptr noundef nonnull align 8 dereferenceable(8) %baker)
          to label %invoke.cont15 unwind label %lpad14

invoke.cont15:                                    ; preds = %if.end
  %cmp = icmp eq i32 %call16, -1
  %spec.store.select = select i1 %cmp, i32 4096, i32 %call16
  %call20 = invoke noundef i32 @_ZNK19OpenColorIO_v2_4dev5Baker11getCubeSizeEv(ptr noundef nonnull align 8 dereferenceable(8) %baker)
          to label %invoke.cont19 unwind label %lpad14

lpad14:                                           ; preds = %invoke.cont19, %invoke.cont15, %if.end
  %4 = landingpad { ptr, i32 }
          cleanup
  br label %ehcleanup244

invoke.cont19:                                    ; preds = %invoke.cont15
  %cmp21 = icmp eq i32 %call20, -1
  %5 = call i32 @llvm.smax.i32(i32 %call20, i32 2)
  %.sroa.speculated = select i1 %cmp21, i32 64, i32 %5
  %call28 = invoke noundef ptr @_ZNK19OpenColorIO_v2_4dev5Baker14getShaperSpaceEv(ptr noundef nonnull align 8 dereferenceable(8) %baker)
          to label %invoke.cont27 unwind label %lpad14

invoke.cont27:                                    ; preds = %invoke.cont19
  call void @_ZNSaIcEC1Ev(ptr noundef nonnull align 1 dereferenceable(1) %ref.tmp29) #21
  invoke void @_ZNSt7__cxx1112basic_stringIcSt11char_traitsIcESaIcEEC1EPKcRKS3_(ptr noundef nonnull align 8 dereferenceable(32) %shaperSpace, ptr noundef %call28, ptr noundef nonnull align 1 dereferenceable(1) %ref.tmp29)
          to label %invoke.cont31 unwind label %lpad30

invoke.cont31:                                    ; preds = %invoke.cont27
  call void @_ZNSaIcED1Ev(ptr noundef nonnull align 1 dereferenceable(1) %ref.tmp29) #21
  invoke void @_ZN19OpenColorIO_v2_4dev25GetInputToTargetProcessorERKNS_5BakerE(ptr nonnull sret(%"class.std::shared_ptr.310") align 8 %inputToTarget, ptr noundef nonnull align 8 dereferenceable(8) %baker)
          to label %invoke.cont34 unwind label %lpad33

invoke.cont34:                                    ; preds = %invoke.cont31
  %6 = load ptr, ptr %inputToTarget, align 8
  %call38 = invoke noundef zeroext i1 @_ZNK19OpenColorIO_v2_4dev12CPUProcessor19hasChannelCrosstalkEv(ptr noundef nonnull align 8 dereferenceable(8) %6)
          to label %invoke.cont37 unwind label %lpad36

invoke.cont37:                                    ; preds = %invoke.cont34
  br i1 %call38, label %if.end51, label %if.then129

lpad30:                                           ; preds = %invoke.cont27
  %7 = landingpad { ptr, i32 }
          cleanup
  call void @_ZNSaIcED1Ev(ptr noundef nonnull align 1 dereferenceable(1) %ref.tmp29) #21
  br label %ehcleanup244

lpad33:                                           ; preds = %invoke.cont31
  %8 = landingpad { ptr, i32 }
          cleanup
  br label %ehcleanup243

lpad36:                                           ; preds = %invoke.cont34
  %9 = landingpad { ptr, i32 }
          cleanup
  br label %ehcleanup242

if.end51:                                         ; preds = %invoke.cont37
  %call40 = call noundef zeroext i1 @_ZNKSt7__cxx1112basic_stringIcSt11char_traitsIcESaIcEE5emptyEv(ptr noundef nonnull align 8 dereferenceable(32) %shaperSpace) #21
  call void @llvm.memset.p0.i64(ptr noundef nonnull align 8 dereferenceable(16) %shaperLut, i8 0, i64 16, i1 false)
  store float 0.000000e+00, ptr %fromInStart, align 4
  store float 1.000000e+00, ptr %fromInEnd, align 4
  br i1 %call40, label %if.then.i, label %if.then53

if.then53:                                        ; preds = %if.end51
  %call56 = invoke noundef i32 @_ZNK19OpenColorIO_v2_4dev5Baker13getShaperSizeEv(ptr noundef nonnull align 8 dereferenceable(8) %baker)
          to label %invoke.cont55 unwind label %lpad54

invoke.cont55:                                    ; preds = %if.then53
  %cmp57 = icmp eq i32 %call56, -1
  br i1 %cmp57, label %if.then58, label %if.else65

if.then58:                                        ; preds = %invoke.cont55
  %call5.i.i.i3.i.i.i.i52 = invoke noalias noundef nonnull dereferenceable(384) ptr @_Znwm(i64 noundef 384) #22
          to label %call5.i.i.i3.i.i.i.i.noexc unwind label %lpad54

call5.i.i.i3.i.i.i.i.noexc:                       ; preds = %if.then58
  %_M_use_count.i.i.i.i.i.i = getelementptr inbounds %"class.std::_Sp_counted_base", ptr %call5.i.i.i3.i.i.i.i52, i64 0, i32 1
  store i32 1, ptr %_M_use_count.i.i.i.i.i.i, align 8, !noalias !17
  %_M_weak_count.i.i.i.i.i.i = getelementptr inbounds %"class.std::_Sp_counted_base", ptr %call5.i.i.i3.i.i.i.i52, i64 0, i32 2
  store i32 1, ptr %_M_weak_count.i.i.i.i.i.i, align 4, !noalias !17
  store ptr getelementptr inbounds ({ [7 x ptr] }, ptr @_ZTVSt23_Sp_counted_ptr_inplaceIN19OpenColorIO_v2_4dev11Lut1DOpDataESaIvELN9__gnu_cxx12_Lock_policyE2EE, i64 0, inrange i32 0, i64 2), ptr %call5.i.i.i3.i.i.i.i52, align 8, !noalias !17
  %_M_impl.i.i.i.i.i.i = getelementptr inbounds %"class.std::_Sp_counted_ptr_inplace.338", ptr %call5.i.i.i3.i.i.i.i52, i64 0, i32 1
  invoke void @_ZN19OpenColorIO_v2_4dev11Lut1DOpDataC1ENS0_9HalfFlagsEmb(ptr noundef nonnull align 8 dereferenceable(364) %_M_impl.i.i.i.i.i.i, i32 noundef 1, i64 noundef 65536, i1 noundef zeroext true)
          to label %invoke.cont63 unwind label %_ZNSt15__allocated_ptrISaISt23_Sp_counted_ptr_inplaceIN19OpenColorIO_v2_4dev11Lut1DOpDataESaIvELN9__gnu_cxx12_Lock_policyE2EEEED2Ev.exit9.i.i.i.i, !noalias !17

_ZNSt15__allocated_ptrISaISt23_Sp_counted_ptr_inplaceIN19OpenColorIO_v2_4dev11Lut1DOpDataESaIvELN9__gnu_cxx12_Lock_policyE2EEEED2Ev.exit9.i.i.i.i: ; preds = %call5.i.i.i3.i.i.i.i.noexc
  %10 = landingpad { ptr, i32 }
          cleanup
  call void @_ZdlPv(ptr noundef nonnull %call5.i.i.i3.i.i.i.i52) #23, !noalias !17
  br label %ehcleanup241

invoke.cont63:                                    ; preds = %call5.i.i.i3.i.i.i.i.noexc
  store ptr %_M_impl.i.i.i.i.i.i, ptr %shaperLut, align 8
  %_M_refcount3.i.i.i = getelementptr inbounds %"class.std::__shared_ptr.314", ptr %shaperLut, i64 0, i32 1
  %11 = load ptr, ptr %_M_refcount3.i.i.i, align 8
  store ptr %call5.i.i.i3.i.i.i.i52, ptr %_M_refcount3.i.i.i, align 8
  %cmp.not.i.i.i.i = icmp eq ptr %11, null
  br i1 %cmp.not.i.i.i.i, label %if.end80, label %if.then.i.i.i.i

if.then.i.i.i.i:                                  ; preds = %invoke.cont63
  %_M_use_count.i.i.i.i.i = getelementptr inbounds %"class.std::_Sp_counted_base", ptr %11, i64 0, i32 1
  %12 = load atomic i64, ptr %_M_use_count.i.i.i.i.i acquire, align 8
  %cmp.i.i.i.i.i = icmp eq i64 %12, 4294967297
  %13 = trunc i64 %12 to i32
  br i1 %cmp.i.i.i.i.i, label %if.then.i.i.i.i.i, label %if.end.i.i.i.i.i

if.then.i.i.i.i.i:                                ; preds = %if.then.i.i.i.i
  store i32 0, ptr %_M_use_count.i.i.i.i.i, align 8
  %_M_weak_count.i.i.i.i.i = getelementptr inbounds %"class.std::_Sp_counted_base", ptr %11, i64 0, i32 2
  store i32 0, ptr %_M_weak_count.i.i.i.i.i, align 4
  %vtable.i.i.i.i.i = load ptr, ptr %11, align 8
  %vfn.i.i.i.i.i = getelementptr inbounds ptr, ptr %vtable.i.i.i.i.i, i64 2
  %14 = load ptr, ptr %vfn.i.i.i.i.i, align 8
  call void %14(ptr noundef nonnull align 8 dereferenceable(16) %11) #21
  br label %if.end8.sink.split.i.i.i.i.i

if.end.i.i.i.i.i:                                 ; preds = %if.then.i.i.i.i
  %15 = load i8, ptr @__libc_single_threaded, align 1
  %tobool.i.i.not.i.i.i.i.i = icmp eq i8 %15, 0
  br i1 %tobool.i.i.not.i.i.i.i.i, label %if.else.i.i.i.i.i.i, label %if.then.i.i.i.i.i.i

if.then.i.i.i.i.i.i:                              ; preds = %if.end.i.i.i.i.i
  %add.i.i.i.i.i.i = add nsw i32 %13, -1
  store i32 %add.i.i.i.i.i.i, ptr %_M_use_count.i.i.i.i.i, align 4
  br label %_ZN9__gnu_cxx27__exchange_and_add_dispatchEPii.exit.i.i.i.i.i

if.else.i.i.i.i.i.i:                              ; preds = %if.end.i.i.i.i.i
  %16 = atomicrmw volatile add ptr %_M_use_count.i.i.i.i.i, i32 -1 acq_rel, align 4
  br label %_ZN9__gnu_cxx27__exchange_and_add_dispatchEPii.exit.i.i.i.i.i

_ZN9__gnu_cxx27__exchange_and_add_dispatchEPii.exit.i.i.i.i.i: ; preds = %if.else.i.i.i.i.i.i, %if.then.i.i.i.i.i.i
  %retval.i.0.i.i.i.i.i = phi i32 [ %13, %if.then.i.i.i.i.i.i ], [ %16, %if.else.i.i.i.i.i.i ]
  %cmp6.i.i.i.i.i = icmp eq i32 %retval.i.0.i.i.i.i.i, 1
  br i1 %cmp6.i.i.i.i.i, label %if.then7.i.i.i.i.i, label %if.end80

if.then7.i.i.i.i.i:                               ; preds = %_ZN9__gnu_cxx27__exchange_and_add_dispatchEPii.exit.i.i.i.i.i
  %vtable.i.i.i.i.i.i.i = load ptr, ptr %11, align 8
  %vfn.i.i.i.i.i.i.i = getelementptr inbounds ptr, ptr %vtable.i.i.i.i.i.i.i, i64 2
  %17 = load ptr, ptr %vfn.i.i.i.i.i.i.i, align 8
  call void %17(ptr noundef nonnull align 8 dereferenceable(16) %11) #21
  %_M_weak_count.i.i.i.i.i.i.i = getelementptr inbounds %"class.std::_Sp_counted_base", ptr %11, i64 0, i32 2
  %18 = load i8, ptr @__libc_single_threaded, align 1
  %tobool.i.i.not.i.i.i.i.i.i.i = icmp eq i8 %18, 0
  br i1 %tobool.i.i.not.i.i.i.i.i.i.i, label %if.else.i.i.i.i.i.i.i.i, label %if.then.i.i.i.i.i.i.i.i

if.then.i.i.i.i.i.i.i.i:                          ; preds = %if.then7.i.i.i.i.i
  %19 = load i32, ptr %_M_weak_count.i.i.i.i.i.i.i, align 4
  %add.i.i.i.i.i.i.i.i = add nsw i32 %19, -1
  store i32 %add.i.i.i.i.i.i.i.i, ptr %_M_weak_count.i.i.i.i.i.i.i, align 4
  br label %_ZN9__gnu_cxx27__exchange_and_add_dispatchEPii.exit.i.i.i.i.i.i.i

if.else.i.i.i.i.i.i.i.i:                          ; preds = %if.then7.i.i.i.i.i
  %20 = atomicrmw volatile add ptr %_M_weak_count.i.i.i.i.i.i.i, i32 -1 acq_rel, align 4
  br label %_ZN9__gnu_cxx27__exchange_and_add_dispatchEPii.exit.i.i.i.i.i.i.i

_ZN9__gnu_cxx27__exchange_and_add_dispatchEPii.exit.i.i.i.i.i.i.i: ; preds = %if.else.i.i.i.i.i.i.i.i, %if.then.i.i.i.i.i.i.i.i
  %retval.i.0.i.i.i.i.i.i.i = phi i32 [ %19, %if.then.i.i.i.i.i.i.i.i ], [ %20, %if.else.i.i.i.i.i.i.i.i ]
  %cmp.i.i.i.i.i.i.i = icmp eq i32 %retval.i.0.i.i.i.i.i.i.i, 1
  br i1 %cmp.i.i.i.i.i.i.i, label %if.end8.sink.split.i.i.i.i.i, label %if.end80

if.end8.sink.split.i.i.i.i.i:                     ; preds = %_ZN9__gnu_cxx27__exchange_and_add_dispatchEPii.exit.i.i.i.i.i.i.i, %if.then.i.i.i.i.i
  %vtable2.i.i.i.i.i.i.i = load ptr, ptr %11, align 8
  %vfn3.i.i.i.i.i.i.i = getelementptr inbounds ptr, ptr %vtable2.i.i.i.i.i.i.i, i64 3
  %21 = load ptr, ptr %vfn3.i.i.i.i.i.i.i, align 8
  call void %21(ptr noundef nonnull align 8 dereferenceable(16) %11) #21
  br label %if.end80

lpad54:                                           ; preds = %invoke.cont66, %if.then58, %invoke.cont83, %if.end80, %if.then72, %if.else65, %if.then53
  %22 = landingpad { ptr, i32 }
          cleanup
  br label %ehcleanup241

if.else65:                                        ; preds = %invoke.cont55
  invoke void @_ZN19OpenColorIO_v2_4dev14GetShaperRangeERKNS_5BakerERfS3_(ptr noundef nonnull align 8 dereferenceable(8) %baker, ptr noundef nonnull align 4 dereferenceable(4) %fromInStart, ptr noundef nonnull align 4 dereferenceable(4) %fromInEnd)
          to label %invoke.cont66 unwind label %lpad54

invoke.cont66:                                    ; preds = %if.else65
  %call5.i.i.i3.i.i.i.i63 = invoke noalias noundef nonnull dereferenceable(384) ptr @_Znwm(i64 noundef 384) #22
          to label %call5.i.i.i3.i.i.i.i.noexc62 unwind label %lpad54

call5.i.i.i3.i.i.i.i.noexc62:                     ; preds = %invoke.cont66
  %_M_use_count.i.i.i.i.i.i56 = getelementptr inbounds %"class.std::_Sp_counted_base", ptr %call5.i.i.i3.i.i.i.i63, i64 0, i32 1
  store i32 1, ptr %_M_use_count.i.i.i.i.i.i56, align 8, !noalias !20
  %_M_weak_count.i.i.i.i.i.i57 = getelementptr inbounds %"class.std::_Sp_counted_base", ptr %call5.i.i.i3.i.i.i.i63, i64 0, i32 2
  store i32 1, ptr %_M_weak_count.i.i.i.i.i.i57, align 4, !noalias !20
  store ptr getelementptr inbounds ({ [7 x ptr] }, ptr @_ZTVSt23_Sp_counted_ptr_inplaceIN19OpenColorIO_v2_4dev11Lut1DOpDataESaIvELN9__gnu_cxx12_Lock_policyE2EE, i64 0, inrange i32 0, i64 2), ptr %call5.i.i.i3.i.i.i.i63, align 8, !noalias !20
  %_M_impl.i.i.i.i.i.i58 = getelementptr inbounds %"class.std::_Sp_counted_ptr_inplace.338", ptr %call5.i.i.i3.i.i.i.i63, i64 0, i32 1
  %conv.i.i.i.i.i.i.i59 = sext i32 %call56 to i64
  invoke void @_ZN19OpenColorIO_v2_4dev11Lut1DOpDataC1Em(ptr noundef nonnull align 8 dereferenceable(364) %_M_impl.i.i.i.i.i.i58, i64 noundef %conv.i.i.i.i.i.i.i59)
          to label %invoke.cont68 unwind label %_ZNSt15__allocated_ptrISaISt23_Sp_counted_ptr_inplaceIN19OpenColorIO_v2_4dev11Lut1DOpDataESaIvELN9__gnu_cxx12_Lock_policyE2EEEED2Ev.exit9.i.i.i.i60, !noalias !20

_ZNSt15__allocated_ptrISaISt23_Sp_counted_ptr_inplaceIN19OpenColorIO_v2_4dev11Lut1DOpDataESaIvELN9__gnu_cxx12_Lock_policyE2EEEED2Ev.exit9.i.i.i.i60: ; preds = %call5.i.i.i3.i.i.i.i.noexc62
  %23 = landingpad { ptr, i32 }
          cleanup
  call void @_ZdlPv(ptr noundef nonnull %call5.i.i.i3.i.i.i.i63) #23, !noalias !20
  br label %ehcleanup241

invoke.cont68:                                    ; preds = %call5.i.i.i3.i.i.i.i.noexc62
  store ptr %_M_impl.i.i.i.i.i.i58, ptr %shaperLut, align 8
  %_M_refcount3.i.i.i67 = getelementptr inbounds %"class.std::__shared_ptr.314", ptr %shaperLut, i64 0, i32 1
  %24 = load ptr, ptr %_M_refcount3.i.i.i67, align 8
  store ptr %call5.i.i.i3.i.i.i.i63, ptr %_M_refcount3.i.i.i67, align 8
  %cmp.not.i.i.i.i68 = icmp eq ptr %24, null
  br i1 %cmp.not.i.i.i.i68, label %_ZNSt10shared_ptrIN19OpenColorIO_v2_4dev11Lut1DOpDataEED2Ev.exit130, label %if.then.i.i.i.i69

if.then.i.i.i.i69:                                ; preds = %invoke.cont68
  %_M_use_count.i.i.i.i.i70 = getelementptr inbounds %"class.std::_Sp_counted_base", ptr %24, i64 0, i32 1
  %25 = load atomic i64, ptr %_M_use_count.i.i.i.i.i70 acquire, align 8
  %cmp.i.i.i.i.i71 = icmp eq i64 %25, 4294967297
  %26 = trunc i64 %25 to i32
  br i1 %cmp.i.i.i.i.i71, label %if.then.i.i.i.i.i94, label %if.end.i.i.i.i.i72

if.then.i.i.i.i.i94:                              ; preds = %if.then.i.i.i.i69
  store i32 0, ptr %_M_use_count.i.i.i.i.i70, align 8
  %_M_weak_count.i.i.i.i.i95 = getelementptr inbounds %"class.std::_Sp_counted_base", ptr %24, i64 0, i32 2
  store i32 0, ptr %_M_weak_count.i.i.i.i.i95, align 4
  %vtable.i.i.i.i.i96 = load ptr, ptr %24, align 8
  %vfn.i.i.i.i.i97 = getelementptr inbounds ptr, ptr %vtable.i.i.i.i.i96, i64 2
  %27 = load ptr, ptr %vfn.i.i.i.i.i97, align 8
  call void %27(ptr noundef nonnull align 8 dereferenceable(16) %24) #21
  br label %if.end8.sink.split.i.i.i.i.i89

if.end.i.i.i.i.i72:                               ; preds = %if.then.i.i.i.i69
  %28 = load i8, ptr @__libc_single_threaded, align 1
  %tobool.i.i.not.i.i.i.i.i73 = icmp eq i8 %28, 0
  br i1 %tobool.i.i.not.i.i.i.i.i73, label %if.else.i.i.i.i.i.i93, label %if.then.i.i.i.i.i.i74

if.then.i.i.i.i.i.i74:                            ; preds = %if.end.i.i.i.i.i72
  %add.i.i.i.i.i.i75 = add nsw i32 %26, -1
  store i32 %add.i.i.i.i.i.i75, ptr %_M_use_count.i.i.i.i.i70, align 4
  br label %_ZN9__gnu_cxx27__exchange_and_add_dispatchEPii.exit.i.i.i.i.i76

if.else.i.i.i.i.i.i93:                            ; preds = %if.end.i.i.i.i.i72
  %29 = atomicrmw volatile add ptr %_M_use_count.i.i.i.i.i70, i32 -1 acq_rel, align 4
  br label %_ZN9__gnu_cxx27__exchange_and_add_dispatchEPii.exit.i.i.i.i.i76

_ZN9__gnu_cxx27__exchange_and_add_dispatchEPii.exit.i.i.i.i.i76: ; preds = %if.else.i.i.i.i.i.i93, %if.then.i.i.i.i.i.i74
  %retval.i.0.i.i.i.i.i77 = phi i32 [ %26, %if.then.i.i.i.i.i.i74 ], [ %29, %if.else.i.i.i.i.i.i93 ]
  %cmp6.i.i.i.i.i78 = icmp eq i32 %retval.i.0.i.i.i.i.i77, 1
  br i1 %cmp6.i.i.i.i.i78, label %if.then7.i.i.i.i.i79, label %_ZNSt10shared_ptrIN19OpenColorIO_v2_4dev11Lut1DOpDataEED2Ev.exit130

if.then7.i.i.i.i.i79:                             ; preds = %_ZN9__gnu_cxx27__exchange_and_add_dispatchEPii.exit.i.i.i.i.i76
  %vtable.i.i.i.i.i.i.i80 = load ptr, ptr %24, align 8
  %vfn.i.i.i.i.i.i.i81 = getelementptr inbounds ptr, ptr %vtable.i.i.i.i.i.i.i80, i64 2
  %30 = load ptr, ptr %vfn.i.i.i.i.i.i.i81, align 8
  call void %30(ptr noundef nonnull align 8 dereferenceable(16) %24) #21
  %_M_weak_count.i.i.i.i.i.i.i82 = getelementptr inbounds %"class.std::_Sp_counted_base", ptr %24, i64 0, i32 2
  %31 = load i8, ptr @__libc_single_threaded, align 1
  %tobool.i.i.not.i.i.i.i.i.i.i83 = icmp eq i8 %31, 0
  br i1 %tobool.i.i.not.i.i.i.i.i.i.i83, label %if.else.i.i.i.i.i.i.i.i92, label %if.then.i.i.i.i.i.i.i.i84

if.then.i.i.i.i.i.i.i.i84:                        ; preds = %if.then7.i.i.i.i.i79
  %32 = load i32, ptr %_M_weak_count.i.i.i.i.i.i.i82, align 4
  %add.i.i.i.i.i.i.i.i85 = add nsw i32 %32, -1
  store i32 %add.i.i.i.i.i.i.i.i85, ptr %_M_weak_count.i.i.i.i.i.i.i82, align 4
  br label %_ZN9__gnu_cxx27__exchange_and_add_dispatchEPii.exit.i.i.i.i.i.i.i86

if.else.i.i.i.i.i.i.i.i92:                        ; preds = %if.then7.i.i.i.i.i79
  %33 = atomicrmw volatile add ptr %_M_weak_count.i.i.i.i.i.i.i82, i32 -1 acq_rel, align 4
  br label %_ZN9__gnu_cxx27__exchange_and_add_dispatchEPii.exit.i.i.i.i.i.i.i86

_ZN9__gnu_cxx27__exchange_and_add_dispatchEPii.exit.i.i.i.i.i.i.i86: ; preds = %if.else.i.i.i.i.i.i.i.i92, %if.then.i.i.i.i.i.i.i.i84
  %retval.i.0.i.i.i.i.i.i.i87 = phi i32 [ %32, %if.then.i.i.i.i.i.i.i.i84 ], [ %33, %if.else.i.i.i.i.i.i.i.i92 ]
  %cmp.i.i.i.i.i.i.i88 = icmp eq i32 %retval.i.0.i.i.i.i.i.i.i87, 1
  br i1 %cmp.i.i.i.i.i.i.i88, label %if.end8.sink.split.i.i.i.i.i89, label %_ZNSt10shared_ptrIN19OpenColorIO_v2_4dev11Lut1DOpDataEED2Ev.exit130

if.end8.sink.split.i.i.i.i.i89:                   ; preds = %_ZN9__gnu_cxx27__exchange_and_add_dispatchEPii.exit.i.i.i.i.i.i.i86, %if.then.i.i.i.i.i94
  %vtable2.i.i.i.i.i.i.i90 = load ptr, ptr %24, align 8
  %vfn3.i.i.i.i.i.i.i91 = getelementptr inbounds ptr, ptr %vtable2.i.i.i.i.i.i.i90, i64 3
  %34 = load ptr, ptr %vfn3.i.i.i.i.i.i.i91, align 8
  call void %34(ptr noundef nonnull align 8 dereferenceable(16) %24) #21
  br label %_ZNSt10shared_ptrIN19OpenColorIO_v2_4dev11Lut1DOpDataEED2Ev.exit130

_ZNSt10shared_ptrIN19OpenColorIO_v2_4dev11Lut1DOpDataEED2Ev.exit130: ; preds = %if.end8.sink.split.i.i.i.i.i89, %_ZN9__gnu_cxx27__exchange_and_add_dispatchEPii.exit.i.i.i.i.i.i.i86, %_ZN9__gnu_cxx27__exchange_and_add_dispatchEPii.exit.i.i.i.i.i76, %invoke.cont68
  %35 = load float, ptr %fromInStart, align 4
  %cmp70 = fcmp une float %35, 0.000000e+00
  %36 = load float, ptr %fromInEnd, align 4
  %cmp71 = fcmp une float %36, 1.000000e+00
  %or.cond = select i1 %cmp70, i1 true, i1 %cmp71
  br i1 %or.cond, label %if.then72, label %if.end80

if.then72:                                        ; preds = %_ZNSt10shared_ptrIN19OpenColorIO_v2_4dev11Lut1DOpDataEED2Ev.exit130
  %37 = load ptr, ptr %shaperLut, align 8
  %m_data.i = getelementptr inbounds %"class.OpenColorIO_v2_4dev::Lut1DOpData", ptr %37, i64 0, i32 3, i32 0, i32 3
  %38 = load ptr, ptr %m_data.i, align 8
  invoke void @_ZN19OpenColorIO_v2_4dev24GenerateLinearScaleLut1DEPfiiff(ptr noundef %38, i32 noundef %call56, i32 noundef 3, float noundef %35, float noundef %36)
          to label %if.end80 unwind label %lpad54

if.end80:                                         ; preds = %invoke.cont63, %_ZN9__gnu_cxx27__exchange_and_add_dispatchEPii.exit.i.i.i.i.i, %_ZN9__gnu_cxx27__exchange_and_add_dispatchEPii.exit.i.i.i.i.i.i.i, %if.end8.sink.split.i.i.i.i.i, %_ZNSt10shared_ptrIN19OpenColorIO_v2_4dev11Lut1DOpDataEED2Ev.exit130, %if.then72
  %39 = load ptr, ptr %shaperLut, align 8
  %m_array.i131 = getelementptr inbounds %"class.OpenColorIO_v2_4dev::Lut1DOpData", ptr %39, i64 0, i32 3
  %vtable = load ptr, ptr %m_array.i131, align 8
  %vfn = getelementptr inbounds ptr, ptr %vtable, i64 4
  %40 = load ptr, ptr %vfn, align 8
  %call84 = invoke noundef i64 %40(ptr noundef nonnull align 8 dereferenceable(48) %m_array.i131)
          to label %invoke.cont83 unwind label %lpad54

invoke.cont83:                                    ; preds = %if.end80
  %41 = load ptr, ptr %shaperLut, align 8
  %m_data.i133 = getelementptr inbounds %"class.OpenColorIO_v2_4dev::Lut1DOpData", ptr %41, i64 0, i32 3, i32 0, i32 3
  %42 = load ptr, ptr %m_data.i133, align 8
  invoke void @_ZN19OpenColorIO_v2_4dev15PackedImageDescC1EPvlll(ptr noundef nonnull align 8 dereferenceable(16) %shaperImg, ptr noundef %42, i64 noundef %call84, i64 noundef 1, i64 noundef 3)
          to label %invoke.cont90 unwind label %lpad54

invoke.cont90:                                    ; preds = %invoke.cont83
  invoke void @_ZN19OpenColorIO_v2_4dev25GetInputToShaperProcessorERKNS_5BakerE(ptr nonnull sret(%"class.std::shared_ptr.310") align 8 %inputToShaper, ptr noundef nonnull align 8 dereferenceable(8) %baker)
          to label %invoke.cont92 unwind label %lpad91

invoke.cont92:                                    ; preds = %invoke.cont90
  %43 = load ptr, ptr %inputToShaper, align 8
  invoke void @_ZNK19OpenColorIO_v2_4dev12CPUProcessor5applyERKNS_9ImageDescE(ptr noundef nonnull align 8 dereferenceable(8) %43, ptr noundef nonnull align 8 dereferenceable(8) %shaperImg)
          to label %invoke.cont95 unwind label %lpad94

invoke.cont95:                                    ; preds = %invoke.cont92
  %_M_refcount.i.i134 = getelementptr inbounds %"class.std::__shared_ptr.311", ptr %inputToShaper, i64 0, i32 1
  %44 = load ptr, ptr %_M_refcount.i.i134, align 8
  %cmp.not.i.i.i135 = icmp eq ptr %44, null
  br i1 %cmp.not.i.i.i135, label %if.end98.thread, label %if.then.i.i.i136

if.then.i.i.i136:                                 ; preds = %invoke.cont95
  %_M_use_count.i.i.i.i137 = getelementptr inbounds %"class.std::_Sp_counted_base", ptr %44, i64 0, i32 1
  %45 = load atomic i64, ptr %_M_use_count.i.i.i.i137 acquire, align 8
  %cmp.i.i.i.i138 = icmp eq i64 %45, 4294967297
  %46 = trunc i64 %45 to i32
  br i1 %cmp.i.i.i.i138, label %if.then.i.i.i.i161, label %if.end.i.i.i.i139

if.then.i.i.i.i161:                               ; preds = %if.then.i.i.i136
  store i32 0, ptr %_M_use_count.i.i.i.i137, align 8
  %_M_weak_count.i.i.i.i162 = getelementptr inbounds %"class.std::_Sp_counted_base", ptr %44, i64 0, i32 2
  store i32 0, ptr %_M_weak_count.i.i.i.i162, align 4
  %vtable.i.i.i.i163 = load ptr, ptr %44, align 8
  %vfn.i.i.i.i164 = getelementptr inbounds ptr, ptr %vtable.i.i.i.i163, i64 2
  %47 = load ptr, ptr %vfn.i.i.i.i164, align 8
  call void %47(ptr noundef nonnull align 8 dereferenceable(16) %44) #21
  br label %if.end8.sink.split.i.i.i.i156

if.end.i.i.i.i139:                                ; preds = %if.then.i.i.i136
  %48 = load i8, ptr @__libc_single_threaded, align 1
  %tobool.i.i.not.i.i.i.i140 = icmp eq i8 %48, 0
  br i1 %tobool.i.i.not.i.i.i.i140, label %if.else.i.i.i.i.i160, label %if.then.i.i.i.i.i141

if.then.i.i.i.i.i141:                             ; preds = %if.end.i.i.i.i139
  %add.i.i.i.i.i142 = add nsw i32 %46, -1
  store i32 %add.i.i.i.i.i142, ptr %_M_use_count.i.i.i.i137, align 4
  br label %_ZN9__gnu_cxx27__exchange_and_add_dispatchEPii.exit.i.i.i.i143

if.else.i.i.i.i.i160:                             ; preds = %if.end.i.i.i.i139
  %49 = atomicrmw volatile add ptr %_M_use_count.i.i.i.i137, i32 -1 acq_rel, align 4
  br label %_ZN9__gnu_cxx27__exchange_and_add_dispatchEPii.exit.i.i.i.i143

_ZN9__gnu_cxx27__exchange_and_add_dispatchEPii.exit.i.i.i.i143: ; preds = %if.else.i.i.i.i.i160, %if.then.i.i.i.i.i141
  %retval.i.0.i.i.i.i144 = phi i32 [ %46, %if.then.i.i.i.i.i141 ], [ %49, %if.else.i.i.i.i.i160 ]
  %cmp6.i.i.i.i145 = icmp eq i32 %retval.i.0.i.i.i.i144, 1
  br i1 %cmp6.i.i.i.i145, label %if.then7.i.i.i.i146, label %if.end98.thread

if.then7.i.i.i.i146:                              ; preds = %_ZN9__gnu_cxx27__exchange_and_add_dispatchEPii.exit.i.i.i.i143
  %vtable.i.i.i.i.i.i147 = load ptr, ptr %44, align 8
  %vfn.i.i.i.i.i.i148 = getelementptr inbounds ptr, ptr %vtable.i.i.i.i.i.i147, i64 2
  %50 = load ptr, ptr %vfn.i.i.i.i.i.i148, align 8
  call void %50(ptr noundef nonnull align 8 dereferenceable(16) %44) #21
  %_M_weak_count.i.i.i.i.i.i149 = getelementptr inbounds %"class.std::_Sp_counted_base", ptr %44, i64 0, i32 2
  %51 = load i8, ptr @__libc_single_threaded, align 1
  %tobool.i.i.not.i.i.i.i.i.i150 = icmp eq i8 %51, 0
  br i1 %tobool.i.i.not.i.i.i.i.i.i150, label %if.else.i.i.i.i.i.i.i159, label %if.then.i.i.i.i.i.i.i151

if.then.i.i.i.i.i.i.i151:                         ; preds = %if.then7.i.i.i.i146
  %52 = load i32, ptr %_M_weak_count.i.i.i.i.i.i149, align 4
  %add.i.i.i.i.i.i.i152 = add nsw i32 %52, -1
  store i32 %add.i.i.i.i.i.i.i152, ptr %_M_weak_count.i.i.i.i.i.i149, align 4
  br label %_ZN9__gnu_cxx27__exchange_and_add_dispatchEPii.exit.i.i.i.i.i.i153

if.else.i.i.i.i.i.i.i159:                         ; preds = %if.then7.i.i.i.i146
  %53 = atomicrmw volatile add ptr %_M_weak_count.i.i.i.i.i.i149, i32 -1 acq_rel, align 4
  br label %_ZN9__gnu_cxx27__exchange_and_add_dispatchEPii.exit.i.i.i.i.i.i153

_ZN9__gnu_cxx27__exchange_and_add_dispatchEPii.exit.i.i.i.i.i.i153: ; preds = %if.else.i.i.i.i.i.i.i159, %if.then.i.i.i.i.i.i.i151
  %retval.i.0.i.i.i.i.i.i154 = phi i32 [ %52, %if.then.i.i.i.i.i.i.i151 ], [ %53, %if.else.i.i.i.i.i.i.i159 ]
  %cmp.i.i.i.i.i.i155 = icmp eq i32 %retval.i.0.i.i.i.i.i.i154, 1
  br i1 %cmp.i.i.i.i.i.i155, label %if.end8.sink.split.i.i.i.i156, label %if.end98.thread

if.end8.sink.split.i.i.i.i156:                    ; preds = %_ZN9__gnu_cxx27__exchange_and_add_dispatchEPii.exit.i.i.i.i.i.i153, %if.then.i.i.i.i161
  %vtable2.i.i.i.i.i.i157 = load ptr, ptr %44, align 8
  %vfn3.i.i.i.i.i.i158 = getelementptr inbounds ptr, ptr %vtable2.i.i.i.i.i.i157, i64 3
  %54 = load ptr, ptr %vfn3.i.i.i.i.i.i158, align 8
  call void %54(ptr noundef nonnull align 8 dereferenceable(16) %44) #21
  br label %if.end98.thread

if.end98.thread:                                  ; preds = %if.end8.sink.split.i.i.i.i156, %_ZN9__gnu_cxx27__exchange_and_add_dispatchEPii.exit.i.i.i.i.i.i153, %_ZN9__gnu_cxx27__exchange_and_add_dispatchEPii.exit.i.i.i.i143, %invoke.cont95
  call void @_ZN19OpenColorIO_v2_4dev15PackedImageDescD1Ev(ptr noundef nonnull align 8 dereferenceable(16) %shaperImg) #21
  br label %if.then.i

lpad91:                                           ; preds = %invoke.cont90
  %55 = landingpad { ptr, i32 }
          cleanup
  br label %ehcleanup97

lpad94:                                           ; preds = %invoke.cont92
  %56 = landingpad { ptr, i32 }
          cleanup
  call void @_ZNSt10shared_ptrIKN19OpenColorIO_v2_4dev12CPUProcessorEED2Ev(ptr noundef nonnull align 8 dereferenceable(16) %inputToShaper) #21
  br label %ehcleanup97

ehcleanup97:                                      ; preds = %lpad94, %lpad91
  %.pn = phi { ptr, i32 } [ %56, %lpad94 ], [ %55, %lpad91 ]
  call void @_ZN19OpenColorIO_v2_4dev15PackedImageDescD1Ev(ptr noundef nonnull align 8 dereferenceable(16) %shaperImg) #21
  br label %ehcleanup241

if.then.i:                                        ; preds = %if.end51, %if.end98.thread
  call void @llvm.memset.p0.i64(ptr noundef nonnull align 8 dereferenceable(24) %cubeData, i8 0, i64 24, i1 false)
  %cmp52619625 = xor i1 %call40, true
  %mul = mul nsw i32 %.sroa.speculated, %.sroa.speculated
  %mul103 = mul nsw i32 %mul, %.sroa.speculated
  %mul104 = mul nsw i32 %mul103, 3
  %conv = zext nneg i32 %mul104 to i64
  invoke void @_ZNSt6vectorIfSaIfEE17_M_default_appendEm(ptr noundef nonnull align 8 dereferenceable(24) %cubeData, i64 noundef %conv)
          to label %invoke.cont106 unwind label %lpad105

invoke.cont106:                                   ; preds = %if.then.i
  %.pre = load ptr, ptr %cubeData, align 8
  invoke void @_ZN19OpenColorIO_v2_4dev21GenerateIdentityLut3DEPfiiNS_10Lut3DOrderE(ptr noundef nonnull %.pre, i32 noundef %.sroa.speculated, i32 noundef 3, i32 noundef 1)
          to label %invoke.cont108 unwind label %lpad105

invoke.cont108:                                   ; preds = %invoke.cont106
  %57 = load ptr, ptr %cubeData, align 8
  %conv112 = zext nneg i32 %mul103 to i64
  invoke void @_ZN19OpenColorIO_v2_4dev15PackedImageDescC1EPvlll(ptr noundef nonnull align 8 dereferenceable(16) %cubeImg, ptr noundef nonnull %57, i64 noundef %conv112, i64 noundef 1, i64 noundef 3)
          to label %invoke.cont113 unwind label %lpad105

invoke.cont113:                                   ; preds = %invoke.cont108
  call void @llvm.memset.p0.i64(ptr noundef nonnull align 8 dereferenceable(16) %cubeProc, i8 0, i64 16, i1 false)
  br i1 %call40, label %if.else120, label %if.then115

if.then115:                                       ; preds = %invoke.cont113
  invoke void @_ZN19OpenColorIO_v2_4dev26GetShaperToTargetProcessorERKNS_5BakerE(ptr nonnull sret(%"class.std::shared_ptr.310") align 8 %ref.tmp116, ptr noundef nonnull align 8 dereferenceable(8) %baker)
          to label %_ZNSt10shared_ptrIKN19OpenColorIO_v2_4dev12CPUProcessorEEaSEOS3_.exit unwind label %lpad117

_ZNSt10shared_ptrIKN19OpenColorIO_v2_4dev12CPUProcessorEEaSEOS3_.exit: ; preds = %if.then115
  %58 = load ptr, ptr %ref.tmp116, align 8
  %_M_refcount4.i.i.i166 = getelementptr inbounds %"class.std::__shared_ptr.311", ptr %ref.tmp116, i64 0, i32 1
  %59 = load ptr, ptr %_M_refcount4.i.i.i166, align 8
  call void @llvm.memset.p0.i64(ptr noundef nonnull align 8 dereferenceable(16) %ref.tmp116, i8 0, i64 16, i1 false)
  store ptr %58, ptr %cubeProc, align 8
  %_M_refcount3.i.i.i167 = getelementptr inbounds %"class.std::__shared_ptr.311", ptr %cubeProc, i64 0, i32 1
  store ptr %59, ptr %_M_refcount3.i.i.i167, align 8
  br label %if.end122

lpad105:                                          ; preds = %if.then.i, %invoke.cont108, %invoke.cont106
  %60 = landingpad { ptr, i32 }
          cleanup
  br label %ehcleanup240

lpad117:                                          ; preds = %if.end122, %if.then115
  %61 = landingpad { ptr, i32 }
          cleanup
  call void @_ZNSt10shared_ptrIKN19OpenColorIO_v2_4dev12CPUProcessorEED2Ev(ptr noundef nonnull align 8 dereferenceable(16) %cubeProc) #21
  call void @_ZN19OpenColorIO_v2_4dev15PackedImageDescD1Ev(ptr noundef nonnull align 8 dereferenceable(16) %cubeImg) #21
  br label %ehcleanup240

if.else120:                                       ; preds = %invoke.cont113
  %62 = load ptr, ptr %inputToTarget, align 8
  store ptr %62, ptr %cubeProc, align 8
  %_M_refcount.i.i230 = getelementptr inbounds %"class.std::__shared_ptr.311", ptr %cubeProc, i64 0, i32 1
  %_M_refcount3.i.i = getelementptr inbounds %"class.std::__shared_ptr.311", ptr %inputToTarget, i64 0, i32 1
  %63 = load ptr, ptr %_M_refcount3.i.i, align 8
  %cmp.not.i.i.i231 = icmp eq ptr %63, null
  br i1 %cmp.not.i.i.i231, label %if.end122, label %if.then4.i.i.i

if.then4.i.i.i:                                   ; preds = %if.else120
  %_M_use_count.i.i.i.i233 = getelementptr inbounds %"class.std::_Sp_counted_base", ptr %63, i64 0, i32 1
  %64 = load i8, ptr @__libc_single_threaded, align 1
  %tobool.i.not.i.i.i.i = icmp eq i8 %64, 0
  br i1 %tobool.i.not.i.i.i.i, label %if.end.i.i.i, label %if.end.i.i.i.thread

if.end.i.i.i.thread:                              ; preds = %if.then4.i.i.i
  %65 = load i32, ptr %_M_use_count.i.i.i.i233, align 4
  %add.i.i.i.i.i235 = add nsw i32 %65, 1
  store i32 %add.i.i.i.i.i235, ptr %_M_use_count.i.i.i.i233, align 4
  br label %if.end9.i.i.i

if.end.i.i.i:                                     ; preds = %if.then4.i.i.i
  %66 = atomicrmw volatile add ptr %_M_use_count.i.i.i.i233, i32 1 acq_rel, align 4
  %.pr.i.i.i.pre = load ptr, ptr %_M_refcount.i.i230, align 8
  %cmp6.not.i.i.i = icmp eq ptr %.pr.i.i.i.pre, null
  br i1 %cmp6.not.i.i.i, label %if.end9.i.i.i, label %if.then7.i.i.i

if.then7.i.i.i:                                   ; preds = %if.end.i.i.i
  %_M_use_count.i5.i.i.i = getelementptr inbounds %"class.std::_Sp_counted_base", ptr %.pr.i.i.i.pre, i64 0, i32 1
  %67 = load atomic i64, ptr %_M_use_count.i5.i.i.i acquire, align 8
  %cmp.i.i.i.i236 = icmp eq i64 %67, 4294967297
  %68 = trunc i64 %67 to i32
  br i1 %cmp.i.i.i.i236, label %if.then.i.i.i.i256, label %if.end.i.i.i.i237

if.then.i.i.i.i256:                               ; preds = %if.then7.i.i.i
  store i32 0, ptr %_M_use_count.i5.i.i.i, align 8
  %_M_weak_count.i.i.i.i257 = getelementptr inbounds %"class.std::_Sp_counted_base", ptr %.pr.i.i.i.pre, i64 0, i32 2
  store i32 0, ptr %_M_weak_count.i.i.i.i257, align 4
  %vtable.i.i.i.i258 = load ptr, ptr %.pr.i.i.i.pre, align 8
  %vfn.i.i.i.i259 = getelementptr inbounds ptr, ptr %vtable.i.i.i.i258, i64 2
  %69 = load ptr, ptr %vfn.i.i.i.i259, align 8
  call void %69(ptr noundef nonnull align 8 dereferenceable(16) %.pr.i.i.i.pre) #21
  br label %if.end8.sink.split.i.i.i.i252

if.end.i.i.i.i237:                                ; preds = %if.then7.i.i.i
  %70 = load i8, ptr @__libc_single_threaded, align 1
  %tobool.i.i.not.i.i.i.i238 = icmp eq i8 %70, 0
  br i1 %tobool.i.i.not.i.i.i.i238, label %if.else.i.i8.i.i.i, label %if.then.i.i6.i.i.i

if.then.i.i6.i.i.i:                               ; preds = %if.end.i.i.i.i237
  %add.i.i7.i.i.i = add nsw i32 %68, -1
  store i32 %add.i.i7.i.i.i, ptr %_M_use_count.i5.i.i.i, align 4
  br label %_ZN9__gnu_cxx27__exchange_and_add_dispatchEPii.exit.i.i.i.i239

if.else.i.i8.i.i.i:                               ; preds = %if.end.i.i.i.i237
  %71 = atomicrmw volatile add ptr %_M_use_count.i5.i.i.i, i32 -1 acq_rel, align 4
  br label %_ZN9__gnu_cxx27__exchange_and_add_dispatchEPii.exit.i.i.i.i239

_ZN9__gnu_cxx27__exchange_and_add_dispatchEPii.exit.i.i.i.i239: ; preds = %if.else.i.i8.i.i.i, %if.then.i.i6.i.i.i
  %retval.i.0.i.i.i.i240 = phi i32 [ %68, %if.then.i.i6.i.i.i ], [ %71, %if.else.i.i8.i.i.i ]
  %cmp6.i.i.i.i241 = icmp eq i32 %retval.i.0.i.i.i.i240, 1
  br i1 %cmp6.i.i.i.i241, label %if.then7.i.i.i.i242, label %if.end9.i.i.i

if.then7.i.i.i.i242:                              ; preds = %_ZN9__gnu_cxx27__exchange_and_add_dispatchEPii.exit.i.i.i.i239
  %vtable.i.i.i.i.i.i243 = load ptr, ptr %.pr.i.i.i.pre, align 8
  %vfn.i.i.i.i.i.i244 = getelementptr inbounds ptr, ptr %vtable.i.i.i.i.i.i243, i64 2
  %72 = load ptr, ptr %vfn.i.i.i.i.i.i244, align 8
  call void %72(ptr noundef nonnull align 8 dereferenceable(16) %.pr.i.i.i.pre) #21
  %_M_weak_count.i.i.i.i.i.i245 = getelementptr inbounds %"class.std::_Sp_counted_base", ptr %.pr.i.i.i.pre, i64 0, i32 2
  %73 = load i8, ptr @__libc_single_threaded, align 1
  %tobool.i.i.not.i.i.i.i.i.i246 = icmp eq i8 %73, 0
  br i1 %tobool.i.i.not.i.i.i.i.i.i246, label %if.else.i.i.i.i.i.i.i255, label %if.then.i.i.i.i.i.i.i247

if.then.i.i.i.i.i.i.i247:                         ; preds = %if.then7.i.i.i.i242
  %74 = load i32, ptr %_M_weak_count.i.i.i.i.i.i245, align 4
  %add.i.i.i.i.i.i.i248 = add nsw i32 %74, -1
  store i32 %add.i.i.i.i.i.i.i248, ptr %_M_weak_count.i.i.i.i.i.i245, align 4
  br label %_ZN9__gnu_cxx27__exchange_and_add_dispatchEPii.exit.i.i.i.i.i.i249

if.else.i.i.i.i.i.i.i255:                         ; preds = %if.then7.i.i.i.i242
  %75 = atomicrmw volatile add ptr %_M_weak_count.i.i.i.i.i.i245, i32 -1 acq_rel, align 4
  br label %_ZN9__gnu_cxx27__exchange_and_add_dispatchEPii.exit.i.i.i.i.i.i249

_ZN9__gnu_cxx27__exchange_and_add_dispatchEPii.exit.i.i.i.i.i.i249: ; preds = %if.else.i.i.i.i.i.i.i255, %if.then.i.i.i.i.i.i.i247
  %retval.i.0.i.i.i.i.i.i250 = phi i32 [ %74, %if.then.i.i.i.i.i.i.i247 ], [ %75, %if.else.i.i.i.i.i.i.i255 ]
  %cmp.i.i.i.i.i.i251 = icmp eq i32 %retval.i.0.i.i.i.i.i.i250, 1
  br i1 %cmp.i.i.i.i.i.i251, label %if.end8.sink.split.i.i.i.i252, label %if.end9.i.i.i

if.end8.sink.split.i.i.i.i252:                    ; preds = %_ZN9__gnu_cxx27__exchange_and_add_dispatchEPii.exit.i.i.i.i.i.i249, %if.then.i.i.i.i256
  %vtable2.i.i.i.i.i.i253 = load ptr, ptr %.pr.i.i.i.pre, align 8
  %vfn3.i.i.i.i.i.i254 = getelementptr inbounds ptr, ptr %vtable2.i.i.i.i.i.i253, i64 3
  %76 = load ptr, ptr %vfn3.i.i.i.i.i.i254, align 8
  call void %76(ptr noundef nonnull align 8 dereferenceable(16) %.pr.i.i.i.pre) #21
  br label %if.end9.i.i.i

if.end9.i.i.i:                                    ; preds = %if.end.i.i.i.thread, %if.end8.sink.split.i.i.i.i252, %_ZN9__gnu_cxx27__exchange_and_add_dispatchEPii.exit.i.i.i.i.i.i249, %_ZN9__gnu_cxx27__exchange_and_add_dispatchEPii.exit.i.i.i.i239, %if.end.i.i.i
  store ptr %63, ptr %_M_refcount.i.i230, align 8
  %.pre631 = load ptr, ptr %cubeProc, align 8
  br label %if.end122

if.end122:                                        ; preds = %_ZNSt10shared_ptrIKN19OpenColorIO_v2_4dev12CPUProcessorEEaSEOS3_.exit, %if.end9.i.i.i, %if.else120
  %77 = phi ptr [ %63, %if.end9.i.i.i ], [ null, %if.else120 ], [ %59, %_ZNSt10shared_ptrIKN19OpenColorIO_v2_4dev12CPUProcessorEEaSEOS3_.exit ]
  %78 = phi ptr [ %.pre631, %if.end9.i.i.i ], [ %62, %if.else120 ], [ %58, %_ZNSt10shared_ptrIKN19OpenColorIO_v2_4dev12CPUProcessorEEaSEOS3_.exit ]
  invoke void @_ZNK19OpenColorIO_v2_4dev12CPUProcessor5applyERKNS_9ImageDescE(ptr noundef nonnull align 8 dereferenceable(8) %78, ptr noundef nonnull align 8 dereferenceable(8) %cubeImg)
          to label %invoke.cont124 unwind label %lpad117

invoke.cont124:                                   ; preds = %if.end122
  %cmp.not.i.i.i262 = icmp eq ptr %77, null
  br i1 %cmp.not.i.i.i262, label %if.end127.thread, label %if.then.i.i.i263

if.then.i.i.i263:                                 ; preds = %invoke.cont124
  %_M_use_count.i.i.i.i264 = getelementptr inbounds %"class.std::_Sp_counted_base", ptr %77, i64 0, i32 1
  %79 = load atomic i64, ptr %_M_use_count.i.i.i.i264 acquire, align 8
  %cmp.i.i.i.i265 = icmp eq i64 %79, 4294967297
  %80 = trunc i64 %79 to i32
  br i1 %cmp.i.i.i.i265, label %if.then.i.i.i.i288, label %if.end.i.i.i.i266

if.then.i.i.i.i288:                               ; preds = %if.then.i.i.i263
  store i32 0, ptr %_M_use_count.i.i.i.i264, align 8
  %_M_weak_count.i.i.i.i289 = getelementptr inbounds %"class.std::_Sp_counted_base", ptr %77, i64 0, i32 2
  store i32 0, ptr %_M_weak_count.i.i.i.i289, align 4
  %vtable.i.i.i.i290 = load ptr, ptr %77, align 8
  %vfn.i.i.i.i291 = getelementptr inbounds ptr, ptr %vtable.i.i.i.i290, i64 2
  %81 = load ptr, ptr %vfn.i.i.i.i291, align 8
  call void %81(ptr noundef nonnull align 8 dereferenceable(16) %77) #21
  br label %if.end8.sink.split.i.i.i.i283

if.end.i.i.i.i266:                                ; preds = %if.then.i.i.i263
  %82 = load i8, ptr @__libc_single_threaded, align 1
  %tobool.i.i.not.i.i.i.i267 = icmp eq i8 %82, 0
  br i1 %tobool.i.i.not.i.i.i.i267, label %if.else.i.i.i.i.i287, label %if.then.i.i.i.i.i268

if.then.i.i.i.i.i268:                             ; preds = %if.end.i.i.i.i266
  %add.i.i.i.i.i269 = add nsw i32 %80, -1
  store i32 %add.i.i.i.i.i269, ptr %_M_use_count.i.i.i.i264, align 4
  br label %_ZN9__gnu_cxx27__exchange_and_add_dispatchEPii.exit.i.i.i.i270

if.else.i.i.i.i.i287:                             ; preds = %if.end.i.i.i.i266
  %83 = atomicrmw volatile add ptr %_M_use_count.i.i.i.i264, i32 -1 acq_rel, align 4
  br label %_ZN9__gnu_cxx27__exchange_and_add_dispatchEPii.exit.i.i.i.i270

_ZN9__gnu_cxx27__exchange_and_add_dispatchEPii.exit.i.i.i.i270: ; preds = %if.else.i.i.i.i.i287, %if.then.i.i.i.i.i268
  %retval.i.0.i.i.i.i271 = phi i32 [ %80, %if.then.i.i.i.i.i268 ], [ %83, %if.else.i.i.i.i.i287 ]
  %cmp6.i.i.i.i272 = icmp eq i32 %retval.i.0.i.i.i.i271, 1
  br i1 %cmp6.i.i.i.i272, label %if.then7.i.i.i.i273, label %if.end127.thread

if.then7.i.i.i.i273:                              ; preds = %_ZN9__gnu_cxx27__exchange_and_add_dispatchEPii.exit.i.i.i.i270
  %vtable.i.i.i.i.i.i274 = load ptr, ptr %77, align 8
  %vfn.i.i.i.i.i.i275 = getelementptr inbounds ptr, ptr %vtable.i.i.i.i.i.i274, i64 2
  %84 = load ptr, ptr %vfn.i.i.i.i.i.i275, align 8
  call void %84(ptr noundef nonnull align 8 dereferenceable(16) %77) #21
  %_M_weak_count.i.i.i.i.i.i276 = getelementptr inbounds %"class.std::_Sp_counted_base", ptr %77, i64 0, i32 2
  %85 = load i8, ptr @__libc_single_threaded, align 1
  %tobool.i.i.not.i.i.i.i.i.i277 = icmp eq i8 %85, 0
  br i1 %tobool.i.i.not.i.i.i.i.i.i277, label %if.else.i.i.i.i.i.i.i286, label %if.then.i.i.i.i.i.i.i278

if.then.i.i.i.i.i.i.i278:                         ; preds = %if.then7.i.i.i.i273
  %86 = load i32, ptr %_M_weak_count.i.i.i.i.i.i276, align 4
  %add.i.i.i.i.i.i.i279 = add nsw i32 %86, -1
  store i32 %add.i.i.i.i.i.i.i279, ptr %_M_weak_count.i.i.i.i.i.i276, align 4
  br label %_ZN9__gnu_cxx27__exchange_and_add_dispatchEPii.exit.i.i.i.i.i.i280

if.else.i.i.i.i.i.i.i286:                         ; preds = %if.then7.i.i.i.i273
  %87 = atomicrmw volatile add ptr %_M_weak_count.i.i.i.i.i.i276, i32 -1 acq_rel, align 4
  br label %_ZN9__gnu_cxx27__exchange_and_add_dispatchEPii.exit.i.i.i.i.i.i280

_ZN9__gnu_cxx27__exchange_and_add_dispatchEPii.exit.i.i.i.i.i.i280: ; preds = %if.else.i.i.i.i.i.i.i286, %if.then.i.i.i.i.i.i.i278
  %retval.i.0.i.i.i.i.i.i281 = phi i32 [ %86, %if.then.i.i.i.i.i.i.i278 ], [ %87, %if.else.i.i.i.i.i.i.i286 ]
  %cmp.i.i.i.i.i.i282 = icmp eq i32 %retval.i.0.i.i.i.i.i.i281, 1
  br i1 %cmp.i.i.i.i.i.i282, label %if.end8.sink.split.i.i.i.i283, label %if.end127.thread

if.end8.sink.split.i.i.i.i283:                    ; preds = %_ZN9__gnu_cxx27__exchange_and_add_dispatchEPii.exit.i.i.i.i.i.i280, %if.then.i.i.i.i288
  %vtable2.i.i.i.i.i.i284 = load ptr, ptr %77, align 8
  %vfn3.i.i.i.i.i.i285 = getelementptr inbounds ptr, ptr %vtable2.i.i.i.i.i.i284, i64 3
  %88 = load ptr, ptr %vfn3.i.i.i.i.i.i285, align 8
  call void %88(ptr noundef nonnull align 8 dereferenceable(16) %77) #21
  br label %if.end127.thread

if.end127.thread:                                 ; preds = %if.end8.sink.split.i.i.i.i283, %_ZN9__gnu_cxx27__exchange_and_add_dispatchEPii.exit.i.i.i.i.i.i280, %_ZN9__gnu_cxx27__exchange_and_add_dispatchEPii.exit.i.i.i.i270, %invoke.cont124
  call void @_ZN19OpenColorIO_v2_4dev15PackedImageDescD1Ev(ptr noundef nonnull align 8 dereferenceable(16) %cubeImg) #21
  call void @llvm.memset.p0.i64(ptr noundef nonnull align 8 dereferenceable(24) %onedData, i8 0, i64 24, i1 false)
  br label %if.end150

if.then129:                                       ; preds = %invoke.cont37
  call void @llvm.memset.p0.i64(ptr noundef nonnull align 8 dereferenceable(16) %shaperLut, i8 0, i64 16, i1 false)
  store float 0.000000e+00, ptr %fromInStart, align 4
  store float 1.000000e+00, ptr %fromInEnd, align 4
  call void @llvm.memset.p0.i64(ptr noundef nonnull align 8 dereferenceable(24) %cubeData, i8 0, i64 24, i1 false)
  call void @llvm.memset.p0.i64(ptr noundef nonnull align 8 dereferenceable(24) %onedData, i8 0, i64 24, i1 false)
  %cmp.i298.not = icmp eq i32 %spec.store.select, 0
  br i1 %cmp.i298.not, label %invoke.cont133, label %if.then.i305

if.then.i305:                                     ; preds = %if.then129
  %mul130 = mul nsw i32 %spec.store.select, 3
  %conv131 = sext i32 %mul130 to i64
  invoke void @_ZNSt6vectorIfSaIfEE17_M_default_appendEm(ptr noundef nonnull align 8 dereferenceable(24) %onedData, i64 noundef %conv131)
          to label %invoke.cont133 unwind label %lpad132

invoke.cont133:                                   ; preds = %if.then129, %if.then.i305
  %call134 = call noundef zeroext i1 @_ZNKSt7__cxx1112basic_stringIcSt11char_traitsIcESaIcEE5emptyEv(ptr noundef nonnull align 8 dereferenceable(32) %shaperSpace) #21
  br i1 %call134, label %if.else139, label %if.then135

if.then135:                                       ; preds = %invoke.cont133
  invoke void @_ZN19OpenColorIO_v2_4dev14GetShaperRangeERKNS_5BakerERfS3_(ptr noundef nonnull align 8 dereferenceable(8) %baker, ptr noundef nonnull align 4 dereferenceable(4) %fromInStart, ptr noundef nonnull align 4 dereferenceable(4) %fromInEnd)
          to label %invoke.cont136 unwind label %lpad132

invoke.cont136:                                   ; preds = %if.then135
  %89 = load ptr, ptr %onedData, align 8
  %90 = load float, ptr %fromInStart, align 4
  %91 = load float, ptr %fromInEnd, align 4
  invoke void @_ZN19OpenColorIO_v2_4dev24GenerateLinearScaleLut1DEPfiiff(ptr noundef %89, i32 noundef %spec.store.select, i32 noundef 3, float noundef %90, float noundef %91)
          to label %if.end142 unwind label %lpad132

lpad132:                                          ; preds = %if.then.i305, %if.end150, %if.end142, %if.else139, %invoke.cont136, %if.then135
  %92 = landingpad { ptr, i32 }
          cleanup
  br label %ehcleanup239

if.else139:                                       ; preds = %invoke.cont133
  %93 = load ptr, ptr %onedData, align 8
  invoke void @_ZN19OpenColorIO_v2_4dev21GenerateIdentityLut1DEPfii(ptr noundef nonnull %93, i32 noundef %spec.store.select, i32 noundef 3)
          to label %if.end142 unwind label %lpad132

if.end142:                                        ; preds = %if.else139, %invoke.cont136
  %94 = load ptr, ptr %onedData, align 8
  %conv144 = sext i32 %spec.store.select to i64
  invoke void @_ZN19OpenColorIO_v2_4dev15PackedImageDescC1EPvlll(ptr noundef nonnull align 8 dereferenceable(16) %onedImg, ptr noundef nonnull %94, i64 noundef %conv144, i64 noundef 1, i64 noundef 3)
          to label %invoke.cont145 unwind label %lpad132

invoke.cont145:                                   ; preds = %if.end142
  %95 = load ptr, ptr %inputToTarget, align 8
  invoke void @_ZNK19OpenColorIO_v2_4dev12CPUProcessor5applyERKNS_9ImageDescE(ptr noundef nonnull align 8 dereferenceable(8) %95, ptr noundef nonnull align 8 dereferenceable(8) %onedImg)
          to label %invoke.cont148 unwind label %lpad147

invoke.cont148:                                   ; preds = %invoke.cont145
  call void @_ZN19OpenColorIO_v2_4dev15PackedImageDescD1Ev(ptr noundef nonnull align 8 dereferenceable(16) %onedImg) #21
  br label %if.end150

lpad147:                                          ; preds = %invoke.cont145
  %96 = landingpad { ptr, i32 }
          cleanup
  call void @_ZN19OpenColorIO_v2_4dev15PackedImageDescD1Ev(ptr noundef nonnull align 8 dereferenceable(16) %onedImg) #21
  br label %ehcleanup239

if.end150:                                        ; preds = %if.end127.thread, %invoke.cont148
  %cmp52619624635 = phi i1 [ %cmp52619625, %if.end127.thread ], [ false, %invoke.cont148 ]
  invoke void @_ZN19OpenColorIO_v2_4dev10OpRcPtrVecC1Ev(ptr noundef nonnull align 8 dereferenceable(144) %ops)
          to label %invoke.cont151 unwind label %lpad132

invoke.cont151:                                   ; preds = %if.end150
  br i1 %call38, label %if.else175, label %if.then153

if.then153:                                       ; preds = %invoke.cont151
  %97 = load float, ptr %fromInStart, align 4
  %cmp154 = fcmp une float %97, 0.000000e+00
  %98 = load float, ptr %fromInEnd, align 4
  %cmp156 = fcmp une float %98, 1.000000e+00
  %or.cond3 = select i1 %cmp154, i1 true, i1 %cmp156
  br i1 %or.cond3, label %if.then157, label %if.end162

if.then157:                                       ; preds = %if.then153
  %conv158 = fpext float %97 to double
  %conv159 = fpext float %98 to double
  invoke void @_ZN19OpenColorIO_v2_4dev13CreateRangeOpERNS_10OpRcPtrVecEddddNS_18TransformDirectionE(ptr noundef nonnull align 8 dereferenceable(144) %ops, double noundef %conv158, double noundef %conv159, double noundef 0.000000e+00, double noundef 1.000000e+00, i32 noundef 0)
          to label %if.end162 unwind label %lpad160

lpad160:                                          ; preds = %if.then192, %if.end162, %if.end206, %if.end185, %if.then181, %if.then157
  %99 = landingpad { ptr, i32 }
          cleanup
  br label %ehcleanup238

if.end162:                                        ; preds = %if.then157, %if.then153
  call void @llvm.experimental.noalias.scope.decl(metadata !23)
  store ptr null, ptr %lut1D, align 8, !alias.scope !23
  %call5.i.i.i3.i.i.i.i315 = invoke noalias noundef nonnull dereferenceable(384) ptr @_Znwm(i64 noundef 384) #22
          to label %call5.i.i.i3.i.i.i.i.noexc314 unwind label %lpad160

call5.i.i.i3.i.i.i.i.noexc314:                    ; preds = %if.end162
  %conv164 = sext i32 %spec.store.select to i64
  %_M_use_count.i.i.i.i.i.i309 = getelementptr inbounds %"class.std::_Sp_counted_base", ptr %call5.i.i.i3.i.i.i.i315, i64 0, i32 1
  store i32 1, ptr %_M_use_count.i.i.i.i.i.i309, align 8, !noalias !23
  %_M_weak_count.i.i.i.i.i.i310 = getelementptr inbounds %"class.std::_Sp_counted_base", ptr %call5.i.i.i3.i.i.i.i315, i64 0, i32 2
  store i32 1, ptr %_M_weak_count.i.i.i.i.i.i310, align 4, !noalias !23
  store ptr getelementptr inbounds ({ [7 x ptr] }, ptr @_ZTVSt23_Sp_counted_ptr_inplaceIN19OpenColorIO_v2_4dev11Lut1DOpDataESaIvELN9__gnu_cxx12_Lock_policyE2EE, i64 0, inrange i32 0, i64 2), ptr %call5.i.i.i3.i.i.i.i315, align 8, !noalias !23
  %_M_impl.i.i.i.i.i.i311 = getelementptr inbounds %"class.std::_Sp_counted_ptr_inplace.338", ptr %call5.i.i.i3.i.i.i.i315, i64 0, i32 1
  invoke void @_ZN19OpenColorIO_v2_4dev11Lut1DOpDataC1Em(ptr noundef nonnull align 8 dereferenceable(364) %_M_impl.i.i.i.i.i.i311, i64 noundef %conv164)
          to label %invoke.cont165 unwind label %_ZNSt15__allocated_ptrISaISt23_Sp_counted_ptr_inplaceIN19OpenColorIO_v2_4dev11Lut1DOpDataESaIvELN9__gnu_cxx12_Lock_policyE2EEEED2Ev.exit9.i.i.i.i312, !noalias !23

_ZNSt15__allocated_ptrISaISt23_Sp_counted_ptr_inplaceIN19OpenColorIO_v2_4dev11Lut1DOpDataESaIvELN9__gnu_cxx12_Lock_policyE2EEEED2Ev.exit9.i.i.i.i312: ; preds = %call5.i.i.i3.i.i.i.i.noexc314
  %100 = landingpad { ptr, i32 }
          cleanup
  call void @_ZdlPv(ptr noundef nonnull %call5.i.i.i3.i.i.i.i315) #23, !noalias !23
  br label %ehcleanup238

invoke.cont165:                                   ; preds = %call5.i.i.i3.i.i.i.i.noexc314
  %_M_refcount.i.i.i313 = getelementptr inbounds %"class.std::__shared_ptr.314", ptr %lut1D, i64 0, i32 1
  store ptr %call5.i.i.i3.i.i.i.i315, ptr %_M_refcount.i.i.i313, align 8, !alias.scope !23
  store ptr %_M_impl.i.i.i.i.i.i311, ptr %lut1D, align 8, !alias.scope !23
  %m_data.i318 = getelementptr inbounds %"class.std::_Sp_counted_ptr_inplace.338", ptr %call5.i.i.i3.i.i.i.i315, i64 0, i32 1, i32 0, i32 0, i32 0, i64 200
  %call172 = invoke noundef nonnull align 8 dereferenceable(24) ptr @_ZNSt6vectorIfSaIfEEaSERKS1_(ptr noundef nonnull align 8 dereferenceable(24) %m_data.i318, ptr noundef nonnull align 8 dereferenceable(24) %onedData)
          to label %invoke.cont171 unwind label %lpad168

invoke.cont171:                                   ; preds = %invoke.cont165
  invoke void @_ZN19OpenColorIO_v2_4dev13CreateLut1DOpERNS_10OpRcPtrVecERSt10shared_ptrINS_11Lut1DOpDataEENS_18TransformDirectionE(ptr noundef nonnull align 8 dereferenceable(144) %ops, ptr noundef nonnull align 8 dereferenceable(16) %lut1D, i32 noundef 0)
          to label %invoke.cont173 unwind label %lpad168

invoke.cont173:                                   ; preds = %invoke.cont171
  %101 = load ptr, ptr %_M_refcount.i.i.i313, align 8
  %cmp.not.i.i.i320 = icmp eq ptr %101, null
  br i1 %cmp.not.i.i.i320, label %if.end206, label %if.then.i.i.i321

if.then.i.i.i321:                                 ; preds = %invoke.cont173
  %_M_use_count.i.i.i.i322 = getelementptr inbounds %"class.std::_Sp_counted_base", ptr %101, i64 0, i32 1
  %102 = load atomic i64, ptr %_M_use_count.i.i.i.i322 acquire, align 8
  %cmp.i.i.i.i323 = icmp eq i64 %102, 4294967297
  %103 = trunc i64 %102 to i32
  br i1 %cmp.i.i.i.i323, label %if.end206.sink.split.sink.split, label %if.end.i.i.i.i324

if.end.i.i.i.i324:                                ; preds = %if.then.i.i.i321
  %104 = load i8, ptr @__libc_single_threaded, align 1
  %tobool.i.i.not.i.i.i.i325 = icmp eq i8 %104, 0
  br i1 %tobool.i.i.not.i.i.i.i325, label %if.else.i.i.i.i.i345, label %if.then.i.i.i.i.i326

if.then.i.i.i.i.i326:                             ; preds = %if.end.i.i.i.i324
  %add.i.i.i.i.i327 = add nsw i32 %103, -1
  store i32 %add.i.i.i.i.i327, ptr %_M_use_count.i.i.i.i322, align 4
  br label %_ZN9__gnu_cxx27__exchange_and_add_dispatchEPii.exit.i.i.i.i328

if.else.i.i.i.i.i345:                             ; preds = %if.end.i.i.i.i324
  %105 = atomicrmw volatile add ptr %_M_use_count.i.i.i.i322, i32 -1 acq_rel, align 4
  br label %_ZN9__gnu_cxx27__exchange_and_add_dispatchEPii.exit.i.i.i.i328

_ZN9__gnu_cxx27__exchange_and_add_dispatchEPii.exit.i.i.i.i328: ; preds = %if.else.i.i.i.i.i345, %if.then.i.i.i.i.i326
  %retval.i.0.i.i.i.i329 = phi i32 [ %103, %if.then.i.i.i.i.i326 ], [ %105, %if.else.i.i.i.i.i345 ]
  %cmp6.i.i.i.i330 = icmp eq i32 %retval.i.0.i.i.i.i329, 1
  br i1 %cmp6.i.i.i.i330, label %if.then7.i.i.i.i331, label %if.end206

if.then7.i.i.i.i331:                              ; preds = %_ZN9__gnu_cxx27__exchange_and_add_dispatchEPii.exit.i.i.i.i328
  %vtable.i.i.i.i.i.i332 = load ptr, ptr %101, align 8
  %vfn.i.i.i.i.i.i333 = getelementptr inbounds ptr, ptr %vtable.i.i.i.i.i.i332, i64 2
  %106 = load ptr, ptr %vfn.i.i.i.i.i.i333, align 8
  call void %106(ptr noundef nonnull align 8 dereferenceable(16) %101) #21
  %_M_weak_count.i.i.i.i.i.i334 = getelementptr inbounds %"class.std::_Sp_counted_base", ptr %101, i64 0, i32 2
  %107 = load i8, ptr @__libc_single_threaded, align 1
  %tobool.i.i.not.i.i.i.i.i.i335 = icmp eq i8 %107, 0
  br i1 %tobool.i.i.not.i.i.i.i.i.i335, label %if.else.i.i.i.i.i.i.i344, label %if.then.i.i.i.i.i.i.i336

if.then.i.i.i.i.i.i.i336:                         ; preds = %if.then7.i.i.i.i331
  %108 = load i32, ptr %_M_weak_count.i.i.i.i.i.i334, align 4
  %add.i.i.i.i.i.i.i337 = add nsw i32 %108, -1
  store i32 %add.i.i.i.i.i.i.i337, ptr %_M_weak_count.i.i.i.i.i.i334, align 4
  br label %_ZN9__gnu_cxx27__exchange_and_add_dispatchEPii.exit.i.i.i.i.i.i338

if.else.i.i.i.i.i.i.i344:                         ; preds = %if.then7.i.i.i.i331
  %109 = atomicrmw volatile add ptr %_M_weak_count.i.i.i.i.i.i334, i32 -1 acq_rel, align 4
  br label %_ZN9__gnu_cxx27__exchange_and_add_dispatchEPii.exit.i.i.i.i.i.i338

_ZN9__gnu_cxx27__exchange_and_add_dispatchEPii.exit.i.i.i.i.i.i338: ; preds = %if.else.i.i.i.i.i.i.i344, %if.then.i.i.i.i.i.i.i336
  %retval.i.0.i.i.i.i.i.i339 = phi i32 [ %108, %if.then.i.i.i.i.i.i.i336 ], [ %109, %if.else.i.i.i.i.i.i.i344 ]
  %cmp.i.i.i.i.i.i340 = icmp eq i32 %retval.i.0.i.i.i.i.i.i339, 1
  br i1 %cmp.i.i.i.i.i.i340, label %if.end206.sink.split, label %if.end206

lpad168:                                          ; preds = %invoke.cont171, %invoke.cont165
  %110 = landingpad { ptr, i32 }
          cleanup
  call void @_ZNSt10shared_ptrIN19OpenColorIO_v2_4dev11Lut1DOpDataEED2Ev(ptr noundef nonnull align 8 dereferenceable(16) %lut1D) #21
  br label %ehcleanup238

if.else175:                                       ; preds = %invoke.cont151
  br i1 %cmp52619624635, label %if.then177, label %if.then192

if.then177:                                       ; preds = %if.else175
  %111 = load float, ptr %fromInStart, align 4
  %cmp178 = fcmp une float %111, 0.000000e+00
  %112 = load float, ptr %fromInEnd, align 4
  %cmp180 = fcmp une float %112, 1.000000e+00
  %or.cond4 = select i1 %cmp178, i1 true, i1 %cmp180
  br i1 %or.cond4, label %if.then181, label %if.end185

if.then181:                                       ; preds = %if.then177
  %conv182 = fpext float %111 to double
  %conv183 = fpext float %112 to double
  invoke void @_ZN19OpenColorIO_v2_4dev13CreateRangeOpERNS_10OpRcPtrVecEddddNS_18TransformDirectionE(ptr noundef nonnull align 8 dereferenceable(144) %ops, double noundef %conv182, double noundef %conv183, double noundef 0.000000e+00, double noundef 1.000000e+00, i32 noundef 0)
          to label %if.end185 unwind label %lpad160

if.end185:                                        ; preds = %if.then181, %if.then177
  invoke void @_ZN19OpenColorIO_v2_4dev13CreateLut1DOpERNS_10OpRcPtrVecERSt10shared_ptrINS_11Lut1DOpDataEENS_18TransformDirectionE(ptr noundef nonnull align 8 dereferenceable(144) %ops, ptr noundef nonnull align 8 dereferenceable(16) %shaperLut, i32 noundef 0)
          to label %if.then192 unwind label %lpad160

if.then192:                                       ; preds = %if.end185, %if.else175
  call void @llvm.experimental.noalias.scope.decl(metadata !26)
  store ptr null, ptr %lut3D, align 8, !alias.scope !26
  %call5.i.i.i3.i.i.i.i356 = invoke noalias noundef nonnull dereferenceable(248) ptr @_Znwm(i64 noundef 248) #22
          to label %call5.i.i.i3.i.i.i.i.noexc355 unwind label %lpad160

call5.i.i.i3.i.i.i.i.noexc355:                    ; preds = %if.then192
  %conv194 = zext nneg i32 %.sroa.speculated to i64
  %_M_use_count.i.i.i.i.i.i351 = getelementptr inbounds %"class.std::_Sp_counted_base", ptr %call5.i.i.i3.i.i.i.i356, i64 0, i32 1
  store i32 1, ptr %_M_use_count.i.i.i.i.i.i351, align 8, !noalias !26
  %_M_weak_count.i.i.i.i.i.i352 = getelementptr inbounds %"class.std::_Sp_counted_base", ptr %call5.i.i.i3.i.i.i.i356, i64 0, i32 2
  store i32 1, ptr %_M_weak_count.i.i.i.i.i.i352, align 4, !noalias !26
  store ptr getelementptr inbounds ({ [7 x ptr] }, ptr @_ZTVSt23_Sp_counted_ptr_inplaceIN19OpenColorIO_v2_4dev11Lut3DOpDataESaIvELN9__gnu_cxx12_Lock_policyE2EE, i64 0, inrange i32 0, i64 2), ptr %call5.i.i.i3.i.i.i.i356, align 8, !noalias !26
  %_M_impl.i.i.i.i.i.i353 = getelementptr inbounds %"class.std::_Sp_counted_ptr_inplace.348", ptr %call5.i.i.i3.i.i.i.i356, i64 0, i32 1
  invoke void @_ZN19OpenColorIO_v2_4dev11Lut3DOpDataC1Em(ptr noundef nonnull align 8 dereferenceable(232) %_M_impl.i.i.i.i.i.i353, i64 noundef %conv194)
          to label %invoke.cont195 unwind label %_ZNSt15__allocated_ptrISaISt23_Sp_counted_ptr_inplaceIN19OpenColorIO_v2_4dev11Lut3DOpDataESaIvELN9__gnu_cxx12_Lock_policyE2EEEED2Ev.exit9.i.i.i.i, !noalias !26

_ZNSt15__allocated_ptrISaISt23_Sp_counted_ptr_inplaceIN19OpenColorIO_v2_4dev11Lut3DOpDataESaIvELN9__gnu_cxx12_Lock_policyE2EEEED2Ev.exit9.i.i.i.i: ; preds = %call5.i.i.i3.i.i.i.i.noexc355
  %113 = landingpad { ptr, i32 }
          cleanup
  call void @_ZdlPv(ptr noundef nonnull %call5.i.i.i3.i.i.i.i356) #23, !noalias !26
  br label %ehcleanup238

invoke.cont195:                                   ; preds = %call5.i.i.i3.i.i.i.i.noexc355
  %_M_refcount.i.i.i354 = getelementptr inbounds %"class.std::__shared_ptr.322", ptr %lut3D, i64 0, i32 1
  store ptr %call5.i.i.i3.i.i.i.i356, ptr %_M_refcount.i.i.i354, align 8, !alias.scope !26
  store ptr %_M_impl.i.i.i.i.i.i353, ptr %lut3D, align 8, !alias.scope !26
  %m_data.i360 = getelementptr inbounds %"class.std::_Sp_counted_ptr_inplace.348", ptr %call5.i.i.i3.i.i.i.i356, i64 0, i32 1, i32 0, i32 0, i32 0, i64 200
  %call203 = invoke noundef nonnull align 8 dereferenceable(24) ptr @_ZNSt6vectorIfSaIfEEaSERKS1_(ptr noundef nonnull align 8 dereferenceable(24) %m_data.i360, ptr noundef nonnull align 8 dereferenceable(24) %cubeData)
          to label %invoke.cont202 unwind label %lpad197

invoke.cont202:                                   ; preds = %invoke.cont195
  invoke void @_ZN19OpenColorIO_v2_4dev13CreateLut3DOpERNS_10OpRcPtrVecERSt10shared_ptrINS_11Lut3DOpDataEENS_18TransformDirectionE(ptr noundef nonnull align 8 dereferenceable(144) %ops, ptr noundef nonnull align 8 dereferenceable(16) %lut3D, i32 noundef 0)
          to label %invoke.cont204 unwind label %lpad197

invoke.cont204:                                   ; preds = %invoke.cont202
  %114 = load ptr, ptr %_M_refcount.i.i.i354, align 8
  %cmp.not.i.i.i362 = icmp eq ptr %114, null
  br i1 %cmp.not.i.i.i362, label %if.end206, label %if.then.i.i.i363

if.then.i.i.i363:                                 ; preds = %invoke.cont204
  %_M_use_count.i.i.i.i364 = getelementptr inbounds %"class.std::_Sp_counted_base", ptr %114, i64 0, i32 1
  %115 = load atomic i64, ptr %_M_use_count.i.i.i.i364 acquire, align 8
  %cmp.i.i.i.i365 = icmp eq i64 %115, 4294967297
  %116 = trunc i64 %115 to i32
  br i1 %cmp.i.i.i.i365, label %if.end206.sink.split.sink.split, label %if.end.i.i.i.i366

if.end.i.i.i.i366:                                ; preds = %if.then.i.i.i363
  %117 = load i8, ptr @__libc_single_threaded, align 1
  %tobool.i.i.not.i.i.i.i367 = icmp eq i8 %117, 0
  br i1 %tobool.i.i.not.i.i.i.i367, label %if.else.i.i.i.i.i387, label %if.then.i.i.i.i.i368

if.then.i.i.i.i.i368:                             ; preds = %if.end.i.i.i.i366
  %add.i.i.i.i.i369 = add nsw i32 %116, -1
  store i32 %add.i.i.i.i.i369, ptr %_M_use_count.i.i.i.i364, align 4
  br label %_ZN9__gnu_cxx27__exchange_and_add_dispatchEPii.exit.i.i.i.i370

if.else.i.i.i.i.i387:                             ; preds = %if.end.i.i.i.i366
  %118 = atomicrmw volatile add ptr %_M_use_count.i.i.i.i364, i32 -1 acq_rel, align 4
  br label %_ZN9__gnu_cxx27__exchange_and_add_dispatchEPii.exit.i.i.i.i370

_ZN9__gnu_cxx27__exchange_and_add_dispatchEPii.exit.i.i.i.i370: ; preds = %if.else.i.i.i.i.i387, %if.then.i.i.i.i.i368
  %retval.i.0.i.i.i.i371 = phi i32 [ %116, %if.then.i.i.i.i.i368 ], [ %118, %if.else.i.i.i.i.i387 ]
  %cmp6.i.i.i.i372 = icmp eq i32 %retval.i.0.i.i.i.i371, 1
  br i1 %cmp6.i.i.i.i372, label %if.then7.i.i.i.i373, label %if.end206

if.then7.i.i.i.i373:                              ; preds = %_ZN9__gnu_cxx27__exchange_and_add_dispatchEPii.exit.i.i.i.i370
  %vtable.i.i.i.i.i.i374 = load ptr, ptr %114, align 8
  %vfn.i.i.i.i.i.i375 = getelementptr inbounds ptr, ptr %vtable.i.i.i.i.i.i374, i64 2
  %119 = load ptr, ptr %vfn.i.i.i.i.i.i375, align 8
  call void %119(ptr noundef nonnull align 8 dereferenceable(16) %114) #21
  %_M_weak_count.i.i.i.i.i.i376 = getelementptr inbounds %"class.std::_Sp_counted_base", ptr %114, i64 0, i32 2
  %120 = load i8, ptr @__libc_single_threaded, align 1
  %tobool.i.i.not.i.i.i.i.i.i377 = icmp eq i8 %120, 0
  br i1 %tobool.i.i.not.i.i.i.i.i.i377, label %if.else.i.i.i.i.i.i.i386, label %if.then.i.i.i.i.i.i.i378

if.then.i.i.i.i.i.i.i378:                         ; preds = %if.then7.i.i.i.i373
  %121 = load i32, ptr %_M_weak_count.i.i.i.i.i.i376, align 4
  %add.i.i.i.i.i.i.i379 = add nsw i32 %121, -1
  store i32 %add.i.i.i.i.i.i.i379, ptr %_M_weak_count.i.i.i.i.i.i376, align 4
  br label %_ZN9__gnu_cxx27__exchange_and_add_dispatchEPii.exit.i.i.i.i.i.i380

if.else.i.i.i.i.i.i.i386:                         ; preds = %if.then7.i.i.i.i373
  %122 = atomicrmw volatile add ptr %_M_weak_count.i.i.i.i.i.i376, i32 -1 acq_rel, align 4
  br label %_ZN9__gnu_cxx27__exchange_and_add_dispatchEPii.exit.i.i.i.i.i.i380

_ZN9__gnu_cxx27__exchange_and_add_dispatchEPii.exit.i.i.i.i.i.i380: ; preds = %if.else.i.i.i.i.i.i.i386, %if.then.i.i.i.i.i.i.i378
  %retval.i.0.i.i.i.i.i.i381 = phi i32 [ %121, %if.then.i.i.i.i.i.i.i378 ], [ %122, %if.else.i.i.i.i.i.i.i386 ]
  %cmp.i.i.i.i.i.i382 = icmp eq i32 %retval.i.0.i.i.i.i.i.i381, 1
  br i1 %cmp.i.i.i.i.i.i382, label %if.end206.sink.split, label %if.end206

lpad197:                                          ; preds = %invoke.cont202, %invoke.cont195
  %123 = landingpad { ptr, i32 }
          cleanup
  call void @_ZNSt10shared_ptrIN19OpenColorIO_v2_4dev11Lut3DOpDataEED2Ev(ptr noundef nonnull align 8 dereferenceable(16) %lut3D) #21
  br label %ehcleanup238

if.end206.sink.split.sink.split:                  ; preds = %if.then.i.i.i363, %if.then.i.i.i321
  %_M_use_count.i.i.i.i364.sink = phi ptr [ %_M_use_count.i.i.i.i322, %if.then.i.i.i321 ], [ %_M_use_count.i.i.i.i364, %if.then.i.i.i363 ]
  %.sink640 = phi ptr [ %101, %if.then.i.i.i321 ], [ %114, %if.then.i.i.i363 ]
  store i32 0, ptr %_M_use_count.i.i.i.i364.sink, align 8
  %_M_weak_count.i.i.i.i389 = getelementptr inbounds %"class.std::_Sp_counted_base", ptr %.sink640, i64 0, i32 2
  store i32 0, ptr %_M_weak_count.i.i.i.i389, align 4
  %vtable.i.i.i.i390 = load ptr, ptr %.sink640, align 8
  %vfn.i.i.i.i391 = getelementptr inbounds ptr, ptr %vtable.i.i.i.i390, i64 2
  %124 = load ptr, ptr %vfn.i.i.i.i391, align 8
  call void %124(ptr noundef nonnull align 8 dereferenceable(16) %.sink640) #21
  br label %if.end206.sink.split

if.end206.sink.split:                             ; preds = %if.end206.sink.split.sink.split, %_ZN9__gnu_cxx27__exchange_and_add_dispatchEPii.exit.i.i.i.i.i.i380, %_ZN9__gnu_cxx27__exchange_and_add_dispatchEPii.exit.i.i.i.i.i.i338
  %.sink637 = phi ptr [ %101, %_ZN9__gnu_cxx27__exchange_and_add_dispatchEPii.exit.i.i.i.i.i.i338 ], [ %114, %_ZN9__gnu_cxx27__exchange_and_add_dispatchEPii.exit.i.i.i.i.i.i380 ], [ %.sink640, %if.end206.sink.split.sink.split ]
  %vtable2.i.i.i.i.i.i342 = load ptr, ptr %.sink637, align 8
  %vfn3.i.i.i.i.i.i343 = getelementptr inbounds ptr, ptr %vtable2.i.i.i.i.i.i342, i64 3
  %125 = load ptr, ptr %vfn3.i.i.i.i.i.i343, align 8
  call void %125(ptr noundef nonnull align 8 dereferenceable(16) %.sink637) #21
  br label %if.end206

if.end206:                                        ; preds = %if.end206.sink.split, %invoke.cont173, %_ZN9__gnu_cxx27__exchange_and_add_dispatchEPii.exit.i.i.i.i328, %_ZN9__gnu_cxx27__exchange_and_add_dispatchEPii.exit.i.i.i.i.i.i338, %_ZN9__gnu_cxx27__exchange_and_add_dispatchEPii.exit.i.i.i.i.i.i380, %_ZN9__gnu_cxx27__exchange_and_add_dispatchEPii.exit.i.i.i.i370, %invoke.cont204
  invoke void @_ZN19OpenColorIO_v2_4dev14GroupTransform6CreateEv(ptr nonnull sret(%"class.std::shared_ptr.303") align 8 %group)
          to label %invoke.cont207 unwind label %lpad160

invoke.cont207:                                   ; preds = %if.end206
  %126 = load ptr, ptr %ops, align 8
  %_M_finish.i.i392 = getelementptr inbounds %"struct.std::_Vector_base<std::shared_ptr<OpenColorIO_v2_4dev::Op>, std::allocator<std::shared_ptr<OpenColorIO_v2_4dev::Op>>>::_Vector_impl_data", ptr %ops, i64 0, i32 1
  %127 = load ptr, ptr %_M_finish.i.i392, align 8
  %cmp.i393.not628 = icmp eq ptr %126, %127
  br i1 %cmp.i393.not628, label %for.end, label %for.body.lr.ph

for.body.lr.ph:                                   ; preds = %invoke.cont207
  %_M_refcount.i.i394 = getelementptr inbounds %"class.std::__shared_ptr.326", ptr %op, i64 0, i32 1
  br label %for.body

for.body:                                         ; preds = %for.body.lr.ph, %_ZNSt10shared_ptrIKN19OpenColorIO_v2_4dev2OpEED2Ev.exit
  %__begin2.sroa.0.0629 = phi ptr [ %126, %for.body.lr.ph ], [ %incdec.ptr.i, %_ZNSt10shared_ptrIKN19OpenColorIO_v2_4dev2OpEED2Ev.exit ]
  %128 = load ptr, ptr %__begin2.sroa.0.0629, align 8
  store ptr %128, ptr %op, align 8
  %_M_refcount3.i.i395 = getelementptr inbounds %"class.std::__shared_ptr.329", ptr %__begin2.sroa.0.0629, i64 0, i32 1
  %129 = load ptr, ptr %_M_refcount3.i.i395, align 8
  store ptr %129, ptr %_M_refcount.i.i394, align 8
  %cmp.not.i.i.i396 = icmp eq ptr %129, null
  br i1 %cmp.not.i.i.i396, label %_ZNSt10shared_ptrIKN19OpenColorIO_v2_4dev2OpEEC2IS1_vEERKS_IT_E.exit, label %if.then.i.i.i397

if.then.i.i.i397:                                 ; preds = %for.body
  %_M_use_count.i.i.i.i398 = getelementptr inbounds %"class.std::_Sp_counted_base", ptr %129, i64 0, i32 1
  %130 = load i8, ptr @__libc_single_threaded, align 1
  %tobool.i.not.i.i.i.i399 = icmp eq i8 %130, 0
  br i1 %tobool.i.not.i.i.i.i399, label %if.else.i.i.i.i.i402, label %if.then.i.i.i.i.i400

if.then.i.i.i.i.i400:                             ; preds = %if.then.i.i.i397
  %131 = load i32, ptr %_M_use_count.i.i.i.i398, align 4
  %add.i.i.i.i.i401 = add nsw i32 %131, 1
  store i32 %add.i.i.i.i.i401, ptr %_M_use_count.i.i.i.i398, align 4
  br label %_ZNSt10shared_ptrIKN19OpenColorIO_v2_4dev2OpEEC2IS1_vEERKS_IT_E.exit

if.else.i.i.i.i.i402:                             ; preds = %if.then.i.i.i397
  %132 = atomicrmw volatile add ptr %_M_use_count.i.i.i.i398, i32 1 acq_rel, align 4
  br label %_ZNSt10shared_ptrIKN19OpenColorIO_v2_4dev2OpEEC2IS1_vEERKS_IT_E.exit

_ZNSt10shared_ptrIKN19OpenColorIO_v2_4dev2OpEEC2IS1_vEERKS_IT_E.exit: ; preds = %for.body, %if.then.i.i.i.i.i400, %if.else.i.i.i.i.i402
  invoke void @_ZN19OpenColorIO_v2_4dev15CreateTransformERSt10shared_ptrINS_14GroupTransformEERS0_IKNS_2OpEE(ptr noundef nonnull align 8 dereferenceable(16) %group, ptr noundef nonnull align 8 dereferenceable(16) %op)
          to label %invoke.cont214 unwind label %lpad213

invoke.cont214:                                   ; preds = %_ZNSt10shared_ptrIKN19OpenColorIO_v2_4dev2OpEEC2IS1_vEERKS_IT_E.exit
  %133 = load ptr, ptr %_M_refcount.i.i394, align 8
  %cmp.not.i.i.i404 = icmp eq ptr %133, null
  br i1 %cmp.not.i.i.i404, label %_ZNSt10shared_ptrIKN19OpenColorIO_v2_4dev2OpEED2Ev.exit, label %if.then.i.i.i405

if.then.i.i.i405:                                 ; preds = %invoke.cont214
  %_M_use_count.i.i.i.i406 = getelementptr inbounds %"class.std::_Sp_counted_base", ptr %133, i64 0, i32 1
  %134 = load atomic i64, ptr %_M_use_count.i.i.i.i406 acquire, align 8
  %cmp.i.i.i.i407 = icmp eq i64 %134, 4294967297
  %135 = trunc i64 %134 to i32
  br i1 %cmp.i.i.i.i407, label %if.then.i.i.i.i430, label %if.end.i.i.i.i408

if.then.i.i.i.i430:                               ; preds = %if.then.i.i.i405
  store i32 0, ptr %_M_use_count.i.i.i.i406, align 8
  %_M_weak_count.i.i.i.i431 = getelementptr inbounds %"class.std::_Sp_counted_base", ptr %133, i64 0, i32 2
  store i32 0, ptr %_M_weak_count.i.i.i.i431, align 4
  %vtable.i.i.i.i432 = load ptr, ptr %133, align 8
  %vfn.i.i.i.i433 = getelementptr inbounds ptr, ptr %vtable.i.i.i.i432, i64 2
  %136 = load ptr, ptr %vfn.i.i.i.i433, align 8
  call void %136(ptr noundef nonnull align 8 dereferenceable(16) %133) #21
  br label %if.end8.sink.split.i.i.i.i425

if.end.i.i.i.i408:                                ; preds = %if.then.i.i.i405
  %137 = load i8, ptr @__libc_single_threaded, align 1
  %tobool.i.i.not.i.i.i.i409 = icmp eq i8 %137, 0
  br i1 %tobool.i.i.not.i.i.i.i409, label %if.else.i.i.i.i.i429, label %if.then.i.i.i.i.i410

if.then.i.i.i.i.i410:                             ; preds = %if.end.i.i.i.i408
  %add.i.i.i.i.i411 = add nsw i32 %135, -1
  store i32 %add.i.i.i.i.i411, ptr %_M_use_count.i.i.i.i406, align 4
  br label %_ZN9__gnu_cxx27__exchange_and_add_dispatchEPii.exit.i.i.i.i412

if.else.i.i.i.i.i429:                             ; preds = %if.end.i.i.i.i408
  %138 = atomicrmw volatile add ptr %_M_use_count.i.i.i.i406, i32 -1 acq_rel, align 4
  br label %_ZN9__gnu_cxx27__exchange_and_add_dispatchEPii.exit.i.i.i.i412

_ZN9__gnu_cxx27__exchange_and_add_dispatchEPii.exit.i.i.i.i412: ; preds = %if.else.i.i.i.i.i429, %if.then.i.i.i.i.i410
  %retval.i.0.i.i.i.i413 = phi i32 [ %135, %if.then.i.i.i.i.i410 ], [ %138, %if.else.i.i.i.i.i429 ]
  %cmp6.i.i.i.i414 = icmp eq i32 %retval.i.0.i.i.i.i413, 1
  br i1 %cmp6.i.i.i.i414, label %if.then7.i.i.i.i415, label %_ZNSt10shared_ptrIKN19OpenColorIO_v2_4dev2OpEED2Ev.exit

if.then7.i.i.i.i415:                              ; preds = %_ZN9__gnu_cxx27__exchange_and_add_dispatchEPii.exit.i.i.i.i412
  %vtable.i.i.i.i.i.i416 = load ptr, ptr %133, align 8
  %vfn.i.i.i.i.i.i417 = getelementptr inbounds ptr, ptr %vtable.i.i.i.i.i.i416, i64 2
  %139 = load ptr, ptr %vfn.i.i.i.i.i.i417, align 8
  call void %139(ptr noundef nonnull align 8 dereferenceable(16) %133) #21
  %_M_weak_count.i.i.i.i.i.i418 = getelementptr inbounds %"class.std::_Sp_counted_base", ptr %133, i64 0, i32 2
  %140 = load i8, ptr @__libc_single_threaded, align 1
  %tobool.i.i.not.i.i.i.i.i.i419 = icmp eq i8 %140, 0
  br i1 %tobool.i.i.not.i.i.i.i.i.i419, label %if.else.i.i.i.i.i.i.i428, label %if.then.i.i.i.i.i.i.i420

if.then.i.i.i.i.i.i.i420:                         ; preds = %if.then7.i.i.i.i415
  %141 = load i32, ptr %_M_weak_count.i.i.i.i.i.i418, align 4
  %add.i.i.i.i.i.i.i421 = add nsw i32 %141, -1
  store i32 %add.i.i.i.i.i.i.i421, ptr %_M_weak_count.i.i.i.i.i.i418, align 4
  br label %_ZN9__gnu_cxx27__exchange_and_add_dispatchEPii.exit.i.i.i.i.i.i422

if.else.i.i.i.i.i.i.i428:                         ; preds = %if.then7.i.i.i.i415
  %142 = atomicrmw volatile add ptr %_M_weak_count.i.i.i.i.i.i418, i32 -1 acq_rel, align 4
  br label %_ZN9__gnu_cxx27__exchange_and_add_dispatchEPii.exit.i.i.i.i.i.i422

_ZN9__gnu_cxx27__exchange_and_add_dispatchEPii.exit.i.i.i.i.i.i422: ; preds = %if.else.i.i.i.i.i.i.i428, %if.then.i.i.i.i.i.i.i420
  %retval.i.0.i.i.i.i.i.i423 = phi i32 [ %141, %if.then.i.i.i.i.i.i.i420 ], [ %142, %if.else.i.i.i.i.i.i.i428 ]
  %cmp.i.i.i.i.i.i424 = icmp eq i32 %retval.i.0.i.i.i.i.i.i423, 1
  br i1 %cmp.i.i.i.i.i.i424, label %if.end8.sink.split.i.i.i.i425, label %_ZNSt10shared_ptrIKN19OpenColorIO_v2_4dev2OpEED2Ev.exit

if.end8.sink.split.i.i.i.i425:                    ; preds = %_ZN9__gnu_cxx27__exchange_and_add_dispatchEPii.exit.i.i.i.i.i.i422, %if.then.i.i.i.i430
  %vtable2.i.i.i.i.i.i426 = load ptr, ptr %133, align 8
  %vfn3.i.i.i.i.i.i427 = getelementptr inbounds ptr, ptr %vtable2.i.i.i.i.i.i426, i64 3
  %143 = load ptr, ptr %vfn3.i.i.i.i.i.i427, align 8
  call void %143(ptr noundef nonnull align 8 dereferenceable(16) %133) #21
  br label %_ZNSt10shared_ptrIKN19OpenColorIO_v2_4dev2OpEED2Ev.exit

_ZNSt10shared_ptrIKN19OpenColorIO_v2_4dev2OpEED2Ev.exit: ; preds = %invoke.cont214, %_ZN9__gnu_cxx27__exchange_and_add_dispatchEPii.exit.i.i.i.i412, %_ZN9__gnu_cxx27__exchange_and_add_dispatchEPii.exit.i.i.i.i.i.i422, %if.end8.sink.split.i.i.i.i425
  %incdec.ptr.i = getelementptr inbounds %"class.std::shared_ptr.328", ptr %__begin2.sroa.0.0629, i64 1
  %cmp.i393.not = icmp eq ptr %incdec.ptr.i, %127
  br i1 %cmp.i393.not, label %for.end, label %for.body

lpad213:                                          ; preds = %_ZNSt10shared_ptrIKN19OpenColorIO_v2_4dev2OpEEC2IS1_vEERKS_IT_E.exit
  %144 = landingpad { ptr, i32 }
          cleanup
  call void @_ZNSt10shared_ptrIKN19OpenColorIO_v2_4dev2OpEED2Ev(ptr noundef nonnull align 8 dereferenceable(16) %op) #21
  br label %ehcleanup237

for.end:                                          ; preds = %_ZNSt10shared_ptrIKN19OpenColorIO_v2_4dev2OpEED2Ev.exit, %invoke.cont207
  %call219 = invoke noundef nonnull align 8 dereferenceable(8) ptr @_ZNK19OpenColorIO_v2_4dev5Baker17getFormatMetadataEv(ptr noundef nonnull align 8 dereferenceable(8) %baker)
          to label %invoke.cont218 unwind label %lpad217

invoke.cont218:                                   ; preds = %for.end
  %145 = load ptr, ptr %group, align 8
  %vtable221 = load ptr, ptr %145, align 8
  %vfn222 = getelementptr inbounds ptr, ptr %vtable221, i64 8
  %146 = load ptr, ptr %vfn222, align 8
  %call223 = call noundef nonnull align 8 dereferenceable(8) ptr %146(ptr noundef nonnull align 8 dereferenceable(8) %145) #21
  %vtable224 = load ptr, ptr %call223, align 8
  %vfn225 = getelementptr inbounds ptr, ptr %vtable224, i64 14
  %147 = load ptr, ptr %vfn225, align 8
  %call227 = invoke noundef nonnull align 8 dereferenceable(8) ptr %147(ptr noundef nonnull align 8 dereferenceable(8) %call223, ptr noundef nonnull align 8 dereferenceable(8) %call219)
          to label %invoke.cont226 unwind label %lpad217

invoke.cont226:                                   ; preds = %invoke.cont218
  %148 = load ptr, ptr %config, align 8
  invoke void @_ZNK19OpenColorIO_v2_4dev6Config17getCurrentContextEv(ptr nonnull sret(%"class.std::shared_ptr.331") align 8 %ref.tmp228, ptr noundef nonnull align 8 dereferenceable(8) %148)
          to label %invoke.cont230 unwind label %lpad217

invoke.cont230:                                   ; preds = %invoke.cont226
  %149 = load ptr, ptr %group, align 8
  %vtable232 = load ptr, ptr %this, align 8
  %vfn233 = getelementptr inbounds ptr, ptr %vtable232, i64 5
  %150 = load ptr, ptr %vfn233, align 8
  invoke void %150(ptr noundef nonnull align 8 dereferenceable(8) %this, ptr noundef nonnull align 8 dereferenceable(16) %config, ptr noundef nonnull align 8 dereferenceable(16) %ref.tmp228, ptr noundef nonnull align 8 dereferenceable(8) %149, ptr noundef nonnull align 8 dereferenceable(32) %formatName, ptr noundef nonnull align 8 dereferenceable(8) %ostream)
          to label %invoke.cont235 unwind label %lpad234

invoke.cont235:                                   ; preds = %invoke.cont230
  %_M_refcount.i.i434 = getelementptr inbounds %"class.std::__shared_ptr.332", ptr %ref.tmp228, i64 0, i32 1
  %151 = load ptr, ptr %_M_refcount.i.i434, align 8
  %cmp.not.i.i.i435 = icmp eq ptr %151, null
  br i1 %cmp.not.i.i.i435, label %_ZNSt10shared_ptrIKN19OpenColorIO_v2_4dev7ContextEED2Ev.exit, label %if.then.i.i.i436

if.then.i.i.i436:                                 ; preds = %invoke.cont235
  %_M_use_count.i.i.i.i437 = getelementptr inbounds %"class.std::_Sp_counted_base", ptr %151, i64 0, i32 1
  %152 = load atomic i64, ptr %_M_use_count.i.i.i.i437 acquire, align 8
  %cmp.i.i.i.i438 = icmp eq i64 %152, 4294967297
  %153 = trunc i64 %152 to i32
  br i1 %cmp.i.i.i.i438, label %if.then.i.i.i.i461, label %if.end.i.i.i.i439

if.then.i.i.i.i461:                               ; preds = %if.then.i.i.i436
  store i32 0, ptr %_M_use_count.i.i.i.i437, align 8
  %_M_weak_count.i.i.i.i462 = getelementptr inbounds %"class.std::_Sp_counted_base", ptr %151, i64 0, i32 2
  store i32 0, ptr %_M_weak_count.i.i.i.i462, align 4
  %vtable.i.i.i.i463 = load ptr, ptr %151, align 8
  %vfn.i.i.i.i464 = getelementptr inbounds ptr, ptr %vtable.i.i.i.i463, i64 2
  %154 = load ptr, ptr %vfn.i.i.i.i464, align 8
  call void %154(ptr noundef nonnull align 8 dereferenceable(16) %151) #21
  br label %if.end8.sink.split.i.i.i.i456

if.end.i.i.i.i439:                                ; preds = %if.then.i.i.i436
  %155 = load i8, ptr @__libc_single_threaded, align 1
  %tobool.i.i.not.i.i.i.i440 = icmp eq i8 %155, 0
  br i1 %tobool.i.i.not.i.i.i.i440, label %if.else.i.i.i.i.i460, label %if.then.i.i.i.i.i441

if.then.i.i.i.i.i441:                             ; preds = %if.end.i.i.i.i439
  %add.i.i.i.i.i442 = add nsw i32 %153, -1
  store i32 %add.i.i.i.i.i442, ptr %_M_use_count.i.i.i.i437, align 4
  br label %_ZN9__gnu_cxx27__exchange_and_add_dispatchEPii.exit.i.i.i.i443

if.else.i.i.i.i.i460:                             ; preds = %if.end.i.i.i.i439
  %156 = atomicrmw volatile add ptr %_M_use_count.i.i.i.i437, i32 -1 acq_rel, align 4
  br label %_ZN9__gnu_cxx27__exchange_and_add_dispatchEPii.exit.i.i.i.i443

_ZN9__gnu_cxx27__exchange_and_add_dispatchEPii.exit.i.i.i.i443: ; preds = %if.else.i.i.i.i.i460, %if.then.i.i.i.i.i441
  %retval.i.0.i.i.i.i444 = phi i32 [ %153, %if.then.i.i.i.i.i441 ], [ %156, %if.else.i.i.i.i.i460 ]
  %cmp6.i.i.i.i445 = icmp eq i32 %retval.i.0.i.i.i.i444, 1
  br i1 %cmp6.i.i.i.i445, label %if.then7.i.i.i.i446, label %_ZNSt10shared_ptrIKN19OpenColorIO_v2_4dev7ContextEED2Ev.exit

if.then7.i.i.i.i446:                              ; preds = %_ZN9__gnu_cxx27__exchange_and_add_dispatchEPii.exit.i.i.i.i443
  %vtable.i.i.i.i.i.i447 = load ptr, ptr %151, align 8
  %vfn.i.i.i.i.i.i448 = getelementptr inbounds ptr, ptr %vtable.i.i.i.i.i.i447, i64 2
  %157 = load ptr, ptr %vfn.i.i.i.i.i.i448, align 8
  call void %157(ptr noundef nonnull align 8 dereferenceable(16) %151) #21
  %_M_weak_count.i.i.i.i.i.i449 = getelementptr inbounds %"class.std::_Sp_counted_base", ptr %151, i64 0, i32 2
  %158 = load i8, ptr @__libc_single_threaded, align 1
  %tobool.i.i.not.i.i.i.i.i.i450 = icmp eq i8 %158, 0
  br i1 %tobool.i.i.not.i.i.i.i.i.i450, label %if.else.i.i.i.i.i.i.i459, label %if.then.i.i.i.i.i.i.i451

if.then.i.i.i.i.i.i.i451:                         ; preds = %if.then7.i.i.i.i446
  %159 = load i32, ptr %_M_weak_count.i.i.i.i.i.i449, align 4
  %add.i.i.i.i.i.i.i452 = add nsw i32 %159, -1
  store i32 %add.i.i.i.i.i.i.i452, ptr %_M_weak_count.i.i.i.i.i.i449, align 4
  br label %_ZN9__gnu_cxx27__exchange_and_add_dispatchEPii.exit.i.i.i.i.i.i453

if.else.i.i.i.i.i.i.i459:                         ; preds = %if.then7.i.i.i.i446
  %160 = atomicrmw volatile add ptr %_M_weak_count.i.i.i.i.i.i449, i32 -1 acq_rel, align 4
  br label %_ZN9__gnu_cxx27__exchange_and_add_dispatchEPii.exit.i.i.i.i.i.i453

_ZN9__gnu_cxx27__exchange_and_add_dispatchEPii.exit.i.i.i.i.i.i453: ; preds = %if.else.i.i.i.i.i.i.i459, %if.then.i.i.i.i.i.i.i451
  %retval.i.0.i.i.i.i.i.i454 = phi i32 [ %159, %if.then.i.i.i.i.i.i.i451 ], [ %160, %if.else.i.i.i.i.i.i.i459 ]
  %cmp.i.i.i.i.i.i455 = icmp eq i32 %retval.i.0.i.i.i.i.i.i454, 1
  br i1 %cmp.i.i.i.i.i.i455, label %if.end8.sink.split.i.i.i.i456, label %_ZNSt10shared_ptrIKN19OpenColorIO_v2_4dev7ContextEED2Ev.exit

if.end8.sink.split.i.i.i.i456:                    ; preds = %_ZN9__gnu_cxx27__exchange_and_add_dispatchEPii.exit.i.i.i.i.i.i453, %if.then.i.i.i.i461
  %vtable2.i.i.i.i.i.i457 = load ptr, ptr %151, align 8
  %vfn3.i.i.i.i.i.i458 = getelementptr inbounds ptr, ptr %vtable2.i.i.i.i.i.i457, i64 3
  %161 = load ptr, ptr %vfn3.i.i.i.i.i.i458, align 8
  call void %161(ptr noundef nonnull align 8 dereferenceable(16) %151) #21
  br label %_ZNSt10shared_ptrIKN19OpenColorIO_v2_4dev7ContextEED2Ev.exit

_ZNSt10shared_ptrIKN19OpenColorIO_v2_4dev7ContextEED2Ev.exit: ; preds = %invoke.cont235, %_ZN9__gnu_cxx27__exchange_and_add_dispatchEPii.exit.i.i.i.i443, %_ZN9__gnu_cxx27__exchange_and_add_dispatchEPii.exit.i.i.i.i.i.i453, %if.end8.sink.split.i.i.i.i456
  %_M_refcount.i.i465 = getelementptr inbounds %"class.std::__shared_ptr.304", ptr %group, i64 0, i32 1
  %162 = load ptr, ptr %_M_refcount.i.i465, align 8
  %cmp.not.i.i.i466 = icmp eq ptr %162, null
  br i1 %cmp.not.i.i.i466, label %_ZNSt10shared_ptrIN19OpenColorIO_v2_4dev14GroupTransformEED2Ev.exit, label %if.then.i.i.i467

if.then.i.i.i467:                                 ; preds = %_ZNSt10shared_ptrIKN19OpenColorIO_v2_4dev7ContextEED2Ev.exit
  %_M_use_count.i.i.i.i468 = getelementptr inbounds %"class.std::_Sp_counted_base", ptr %162, i64 0, i32 1
  %163 = load atomic i64, ptr %_M_use_count.i.i.i.i468 acquire, align 8
  %cmp.i.i.i.i469 = icmp eq i64 %163, 4294967297
  %164 = trunc i64 %163 to i32
  br i1 %cmp.i.i.i.i469, label %if.then.i.i.i.i492, label %if.end.i.i.i.i470

if.then.i.i.i.i492:                               ; preds = %if.then.i.i.i467
  store i32 0, ptr %_M_use_count.i.i.i.i468, align 8
  %_M_weak_count.i.i.i.i493 = getelementptr inbounds %"class.std::_Sp_counted_base", ptr %162, i64 0, i32 2
  store i32 0, ptr %_M_weak_count.i.i.i.i493, align 4
  %vtable.i.i.i.i494 = load ptr, ptr %162, align 8
  %vfn.i.i.i.i495 = getelementptr inbounds ptr, ptr %vtable.i.i.i.i494, i64 2
  %165 = load ptr, ptr %vfn.i.i.i.i495, align 8
  call void %165(ptr noundef nonnull align 8 dereferenceable(16) %162) #21
  br label %if.end8.sink.split.i.i.i.i487

if.end.i.i.i.i470:                                ; preds = %if.then.i.i.i467
  %166 = load i8, ptr @__libc_single_threaded, align 1
  %tobool.i.i.not.i.i.i.i471 = icmp eq i8 %166, 0
  br i1 %tobool.i.i.not.i.i.i.i471, label %if.else.i.i.i.i.i491, label %if.then.i.i.i.i.i472

if.then.i.i.i.i.i472:                             ; preds = %if.end.i.i.i.i470
  %add.i.i.i.i.i473 = add nsw i32 %164, -1
  store i32 %add.i.i.i.i.i473, ptr %_M_use_count.i.i.i.i468, align 4
  br label %_ZN9__gnu_cxx27__exchange_and_add_dispatchEPii.exit.i.i.i.i474

if.else.i.i.i.i.i491:                             ; preds = %if.end.i.i.i.i470
  %167 = atomicrmw volatile add ptr %_M_use_count.i.i.i.i468, i32 -1 acq_rel, align 4
  br label %_ZN9__gnu_cxx27__exchange_and_add_dispatchEPii.exit.i.i.i.i474

_ZN9__gnu_cxx27__exchange_and_add_dispatchEPii.exit.i.i.i.i474: ; preds = %if.else.i.i.i.i.i491, %if.then.i.i.i.i.i472
  %retval.i.0.i.i.i.i475 = phi i32 [ %164, %if.then.i.i.i.i.i472 ], [ %167, %if.else.i.i.i.i.i491 ]
  %cmp6.i.i.i.i476 = icmp eq i32 %retval.i.0.i.i.i.i475, 1
  br i1 %cmp6.i.i.i.i476, label %if.then7.i.i.i.i477, label %_ZNSt10shared_ptrIN19OpenColorIO_v2_4dev14GroupTransformEED2Ev.exit

if.then7.i.i.i.i477:                              ; preds = %_ZN9__gnu_cxx27__exchange_and_add_dispatchEPii.exit.i.i.i.i474
  %vtable.i.i.i.i.i.i478 = load ptr, ptr %162, align 8
  %vfn.i.i.i.i.i.i479 = getelementptr inbounds ptr, ptr %vtable.i.i.i.i.i.i478, i64 2
  %168 = load ptr, ptr %vfn.i.i.i.i.i.i479, align 8
  call void %168(ptr noundef nonnull align 8 dereferenceable(16) %162) #21
  %_M_weak_count.i.i.i.i.i.i480 = getelementptr inbounds %"class.std::_Sp_counted_base", ptr %162, i64 0, i32 2
  %169 = load i8, ptr @__libc_single_threaded, align 1
  %tobool.i.i.not.i.i.i.i.i.i481 = icmp eq i8 %169, 0
  br i1 %tobool.i.i.not.i.i.i.i.i.i481, label %if.else.i.i.i.i.i.i.i490, label %if.then.i.i.i.i.i.i.i482

if.then.i.i.i.i.i.i.i482:                         ; preds = %if.then7.i.i.i.i477
  %170 = load i32, ptr %_M_weak_count.i.i.i.i.i.i480, align 4
  %add.i.i.i.i.i.i.i483 = add nsw i32 %170, -1
  store i32 %add.i.i.i.i.i.i.i483, ptr %_M_weak_count.i.i.i.i.i.i480, align 4
  br label %_ZN9__gnu_cxx27__exchange_and_add_dispatchEPii.exit.i.i.i.i.i.i484

if.else.i.i.i.i.i.i.i490:                         ; preds = %if.then7.i.i.i.i477
  %171 = atomicrmw volatile add ptr %_M_weak_count.i.i.i.i.i.i480, i32 -1 acq_rel, align 4
  br label %_ZN9__gnu_cxx27__exchange_and_add_dispatchEPii.exit.i.i.i.i.i.i484

_ZN9__gnu_cxx27__exchange_and_add_dispatchEPii.exit.i.i.i.i.i.i484: ; preds = %if.else.i.i.i.i.i.i.i490, %if.then.i.i.i.i.i.i.i482
  %retval.i.0.i.i.i.i.i.i485 = phi i32 [ %170, %if.then.i.i.i.i.i.i.i482 ], [ %171, %if.else.i.i.i.i.i.i.i490 ]
  %cmp.i.i.i.i.i.i486 = icmp eq i32 %retval.i.0.i.i.i.i.i.i485, 1
  br i1 %cmp.i.i.i.i.i.i486, label %if.end8.sink.split.i.i.i.i487, label %_ZNSt10shared_ptrIN19OpenColorIO_v2_4dev14GroupTransformEED2Ev.exit

if.end8.sink.split.i.i.i.i487:                    ; preds = %_ZN9__gnu_cxx27__exchange_and_add_dispatchEPii.exit.i.i.i.i.i.i484, %if.then.i.i.i.i492
  %vtable2.i.i.i.i.i.i488 = load ptr, ptr %162, align 8
  %vfn3.i.i.i.i.i.i489 = getelementptr inbounds ptr, ptr %vtable2.i.i.i.i.i.i488, i64 3
  %172 = load ptr, ptr %vfn3.i.i.i.i.i.i489, align 8
  call void %172(ptr noundef nonnull align 8 dereferenceable(16) %162) #21
  br label %_ZNSt10shared_ptrIN19OpenColorIO_v2_4dev14GroupTransformEED2Ev.exit

_ZNSt10shared_ptrIN19OpenColorIO_v2_4dev14GroupTransformEED2Ev.exit: ; preds = %_ZNSt10shared_ptrIKN19OpenColorIO_v2_4dev7ContextEED2Ev.exit, %_ZN9__gnu_cxx27__exchange_and_add_dispatchEPii.exit.i.i.i.i474, %_ZN9__gnu_cxx27__exchange_and_add_dispatchEPii.exit.i.i.i.i.i.i484, %if.end8.sink.split.i.i.i.i487
  call void @_ZN19OpenColorIO_v2_4dev10OpRcPtrVecD2Ev(ptr noundef nonnull align 8 dereferenceable(144) %ops) #21
  %173 = load ptr, ptr %onedData, align 8
  %tobool.not.i.i.i = icmp eq ptr %173, null
  br i1 %tobool.not.i.i.i, label %_ZNSt6vectorIfSaIfEED2Ev.exit, label %if.then.i.i.i496

if.then.i.i.i496:                                 ; preds = %_ZNSt10shared_ptrIN19OpenColorIO_v2_4dev14GroupTransformEED2Ev.exit
  call void @_ZdlPv(ptr noundef nonnull %173) #23
  br label %_ZNSt6vectorIfSaIfEED2Ev.exit

_ZNSt6vectorIfSaIfEED2Ev.exit:                    ; preds = %_ZNSt10shared_ptrIN19OpenColorIO_v2_4dev14GroupTransformEED2Ev.exit, %if.then.i.i.i496
  %174 = load ptr, ptr %cubeData, align 8
  %tobool.not.i.i.i497 = icmp eq ptr %174, null
  br i1 %tobool.not.i.i.i497, label %_ZNSt6vectorIfSaIfEED2Ev.exit499, label %if.then.i.i.i498

if.then.i.i.i498:                                 ; preds = %_ZNSt6vectorIfSaIfEED2Ev.exit
  call void @_ZdlPv(ptr noundef nonnull %174) #23
  br label %_ZNSt6vectorIfSaIfEED2Ev.exit499

_ZNSt6vectorIfSaIfEED2Ev.exit499:                 ; preds = %_ZNSt6vectorIfSaIfEED2Ev.exit, %if.then.i.i.i498
  %_M_refcount.i.i500 = getelementptr inbounds %"class.std::__shared_ptr.314", ptr %shaperLut, i64 0, i32 1
  %175 = load ptr, ptr %_M_refcount.i.i500, align 8
  %cmp.not.i.i.i501 = icmp eq ptr %175, null
  br i1 %cmp.not.i.i.i501, label %_ZNSt10shared_ptrIN19OpenColorIO_v2_4dev11Lut1DOpDataEED2Ev.exit531, label %if.then.i.i.i502

if.then.i.i.i502:                                 ; preds = %_ZNSt6vectorIfSaIfEED2Ev.exit499
  %_M_use_count.i.i.i.i503 = getelementptr inbounds %"class.std::_Sp_counted_base", ptr %175, i64 0, i32 1
  %176 = load atomic i64, ptr %_M_use_count.i.i.i.i503 acquire, align 8
  %cmp.i.i.i.i504 = icmp eq i64 %176, 4294967297
  %177 = trunc i64 %176 to i32
  br i1 %cmp.i.i.i.i504, label %if.then.i.i.i.i527, label %if.end.i.i.i.i505

if.then.i.i.i.i527:                               ; preds = %if.then.i.i.i502
  store i32 0, ptr %_M_use_count.i.i.i.i503, align 8
  %_M_weak_count.i.i.i.i528 = getelementptr inbounds %"class.std::_Sp_counted_base", ptr %175, i64 0, i32 2
  store i32 0, ptr %_M_weak_count.i.i.i.i528, align 4
  %vtable.i.i.i.i529 = load ptr, ptr %175, align 8
  %vfn.i.i.i.i530 = getelementptr inbounds ptr, ptr %vtable.i.i.i.i529, i64 2
  %178 = load ptr, ptr %vfn.i.i.i.i530, align 8
  call void %178(ptr noundef nonnull align 8 dereferenceable(16) %175) #21
  br label %if.end8.sink.split.i.i.i.i522

if.end.i.i.i.i505:                                ; preds = %if.then.i.i.i502
  %179 = load i8, ptr @__libc_single_threaded, align 1
  %tobool.i.i.not.i.i.i.i506 = icmp eq i8 %179, 0
  br i1 %tobool.i.i.not.i.i.i.i506, label %if.else.i.i.i.i.i526, label %if.then.i.i.i.i.i507

if.then.i.i.i.i.i507:                             ; preds = %if.end.i.i.i.i505
  %add.i.i.i.i.i508 = add nsw i32 %177, -1
  store i32 %add.i.i.i.i.i508, ptr %_M_use_count.i.i.i.i503, align 4
  br label %_ZN9__gnu_cxx27__exchange_and_add_dispatchEPii.exit.i.i.i.i509

if.else.i.i.i.i.i526:                             ; preds = %if.end.i.i.i.i505
  %180 = atomicrmw volatile add ptr %_M_use_count.i.i.i.i503, i32 -1 acq_rel, align 4
  br label %_ZN9__gnu_cxx27__exchange_and_add_dispatchEPii.exit.i.i.i.i509

_ZN9__gnu_cxx27__exchange_and_add_dispatchEPii.exit.i.i.i.i509: ; preds = %if.else.i.i.i.i.i526, %if.then.i.i.i.i.i507
  %retval.i.0.i.i.i.i510 = phi i32 [ %177, %if.then.i.i.i.i.i507 ], [ %180, %if.else.i.i.i.i.i526 ]
  %cmp6.i.i.i.i511 = icmp eq i32 %retval.i.0.i.i.i.i510, 1
  br i1 %cmp6.i.i.i.i511, label %if.then7.i.i.i.i512, label %_ZNSt10shared_ptrIN19OpenColorIO_v2_4dev11Lut1DOpDataEED2Ev.exit531

if.then7.i.i.i.i512:                              ; preds = %_ZN9__gnu_cxx27__exchange_and_add_dispatchEPii.exit.i.i.i.i509
  %vtable.i.i.i.i.i.i513 = load ptr, ptr %175, align 8
  %vfn.i.i.i.i.i.i514 = getelementptr inbounds ptr, ptr %vtable.i.i.i.i.i.i513, i64 2
  %181 = load ptr, ptr %vfn.i.i.i.i.i.i514, align 8
  call void %181(ptr noundef nonnull align 8 dereferenceable(16) %175) #21
  %_M_weak_count.i.i.i.i.i.i515 = getelementptr inbounds %"class.std::_Sp_counted_base", ptr %175, i64 0, i32 2
  %182 = load i8, ptr @__libc_single_threaded, align 1
  %tobool.i.i.not.i.i.i.i.i.i516 = icmp eq i8 %182, 0
  br i1 %tobool.i.i.not.i.i.i.i.i.i516, label %if.else.i.i.i.i.i.i.i525, label %if.then.i.i.i.i.i.i.i517

if.then.i.i.i.i.i.i.i517:                         ; preds = %if.then7.i.i.i.i512
  %183 = load i32, ptr %_M_weak_count.i.i.i.i.i.i515, align 4
  %add.i.i.i.i.i.i.i518 = add nsw i32 %183, -1
  store i32 %add.i.i.i.i.i.i.i518, ptr %_M_weak_count.i.i.i.i.i.i515, align 4
  br label %_ZN9__gnu_cxx27__exchange_and_add_dispatchEPii.exit.i.i.i.i.i.i519

if.else.i.i.i.i.i.i.i525:                         ; preds = %if.then7.i.i.i.i512
  %184 = atomicrmw volatile add ptr %_M_weak_count.i.i.i.i.i.i515, i32 -1 acq_rel, align 4
  br label %_ZN9__gnu_cxx27__exchange_and_add_dispatchEPii.exit.i.i.i.i.i.i519

_ZN9__gnu_cxx27__exchange_and_add_dispatchEPii.exit.i.i.i.i.i.i519: ; preds = %if.else.i.i.i.i.i.i.i525, %if.then.i.i.i.i.i.i.i517
  %retval.i.0.i.i.i.i.i.i520 = phi i32 [ %183, %if.then.i.i.i.i.i.i.i517 ], [ %184, %if.else.i.i.i.i.i.i.i525 ]
  %cmp.i.i.i.i.i.i521 = icmp eq i32 %retval.i.0.i.i.i.i.i.i520, 1
  br i1 %cmp.i.i.i.i.i.i521, label %if.end8.sink.split.i.i.i.i522, label %_ZNSt10shared_ptrIN19OpenColorIO_v2_4dev11Lut1DOpDataEED2Ev.exit531

if.end8.sink.split.i.i.i.i522:                    ; preds = %_ZN9__gnu_cxx27__exchange_and_add_dispatchEPii.exit.i.i.i.i.i.i519, %if.then.i.i.i.i527
  %vtable2.i.i.i.i.i.i523 = load ptr, ptr %175, align 8
  %vfn3.i.i.i.i.i.i524 = getelementptr inbounds ptr, ptr %vtable2.i.i.i.i.i.i523, i64 3
  %185 = load ptr, ptr %vfn3.i.i.i.i.i.i524, align 8
  call void %185(ptr noundef nonnull align 8 dereferenceable(16) %175) #21
  br label %_ZNSt10shared_ptrIN19OpenColorIO_v2_4dev11Lut1DOpDataEED2Ev.exit531

_ZNSt10shared_ptrIN19OpenColorIO_v2_4dev11Lut1DOpDataEED2Ev.exit531: ; preds = %_ZNSt6vectorIfSaIfEED2Ev.exit499, %_ZN9__gnu_cxx27__exchange_and_add_dispatchEPii.exit.i.i.i.i509, %_ZN9__gnu_cxx27__exchange_and_add_dispatchEPii.exit.i.i.i.i.i.i519, %if.end8.sink.split.i.i.i.i522
  %_M_refcount.i.i532 = getelementptr inbounds %"class.std::__shared_ptr.311", ptr %inputToTarget, i64 0, i32 1
  %186 = load ptr, ptr %_M_refcount.i.i532, align 8
  %cmp.not.i.i.i533 = icmp eq ptr %186, null
  br i1 %cmp.not.i.i.i533, label %_ZNSt10shared_ptrIKN19OpenColorIO_v2_4dev12CPUProcessorEED2Ev.exit563, label %if.then.i.i.i534

if.then.i.i.i534:                                 ; preds = %_ZNSt10shared_ptrIN19OpenColorIO_v2_4dev11Lut1DOpDataEED2Ev.exit531
  %_M_use_count.i.i.i.i535 = getelementptr inbounds %"class.std::_Sp_counted_base", ptr %186, i64 0, i32 1
  %187 = load atomic i64, ptr %_M_use_count.i.i.i.i535 acquire, align 8
  %cmp.i.i.i.i536 = icmp eq i64 %187, 4294967297
  %188 = trunc i64 %187 to i32
  br i1 %cmp.i.i.i.i536, label %if.then.i.i.i.i559, label %if.end.i.i.i.i537

if.then.i.i.i.i559:                               ; preds = %if.then.i.i.i534
  store i32 0, ptr %_M_use_count.i.i.i.i535, align 8
  %_M_weak_count.i.i.i.i560 = getelementptr inbounds %"class.std::_Sp_counted_base", ptr %186, i64 0, i32 2
  store i32 0, ptr %_M_weak_count.i.i.i.i560, align 4
  %vtable.i.i.i.i561 = load ptr, ptr %186, align 8
  %vfn.i.i.i.i562 = getelementptr inbounds ptr, ptr %vtable.i.i.i.i561, i64 2
  %189 = load ptr, ptr %vfn.i.i.i.i562, align 8
  call void %189(ptr noundef nonnull align 8 dereferenceable(16) %186) #21
  br label %if.end8.sink.split.i.i.i.i554

if.end.i.i.i.i537:                                ; preds = %if.then.i.i.i534
  %190 = load i8, ptr @__libc_single_threaded, align 1
  %tobool.i.i.not.i.i.i.i538 = icmp eq i8 %190, 0
  br i1 %tobool.i.i.not.i.i.i.i538, label %if.else.i.i.i.i.i558, label %if.then.i.i.i.i.i539

if.then.i.i.i.i.i539:                             ; preds = %if.end.i.i.i.i537
  %add.i.i.i.i.i540 = add nsw i32 %188, -1
  store i32 %add.i.i.i.i.i540, ptr %_M_use_count.i.i.i.i535, align 4
  br label %_ZN9__gnu_cxx27__exchange_and_add_dispatchEPii.exit.i.i.i.i541

if.else.i.i.i.i.i558:                             ; preds = %if.end.i.i.i.i537
  %191 = atomicrmw volatile add ptr %_M_use_count.i.i.i.i535, i32 -1 acq_rel, align 4
  br label %_ZN9__gnu_cxx27__exchange_and_add_dispatchEPii.exit.i.i.i.i541

_ZN9__gnu_cxx27__exchange_and_add_dispatchEPii.exit.i.i.i.i541: ; preds = %if.else.i.i.i.i.i558, %if.then.i.i.i.i.i539
  %retval.i.0.i.i.i.i542 = phi i32 [ %188, %if.then.i.i.i.i.i539 ], [ %191, %if.else.i.i.i.i.i558 ]
  %cmp6.i.i.i.i543 = icmp eq i32 %retval.i.0.i.i.i.i542, 1
  br i1 %cmp6.i.i.i.i543, label %if.then7.i.i.i.i544, label %_ZNSt10shared_ptrIKN19OpenColorIO_v2_4dev12CPUProcessorEED2Ev.exit563

if.then7.i.i.i.i544:                              ; preds = %_ZN9__gnu_cxx27__exchange_and_add_dispatchEPii.exit.i.i.i.i541
  %vtable.i.i.i.i.i.i545 = load ptr, ptr %186, align 8
  %vfn.i.i.i.i.i.i546 = getelementptr inbounds ptr, ptr %vtable.i.i.i.i.i.i545, i64 2
  %192 = load ptr, ptr %vfn.i.i.i.i.i.i546, align 8
  call void %192(ptr noundef nonnull align 8 dereferenceable(16) %186) #21
  %_M_weak_count.i.i.i.i.i.i547 = getelementptr inbounds %"class.std::_Sp_counted_base", ptr %186, i64 0, i32 2
  %193 = load i8, ptr @__libc_single_threaded, align 1
  %tobool.i.i.not.i.i.i.i.i.i548 = icmp eq i8 %193, 0
  br i1 %tobool.i.i.not.i.i.i.i.i.i548, label %if.else.i.i.i.i.i.i.i557, label %if.then.i.i.i.i.i.i.i549

if.then.i.i.i.i.i.i.i549:                         ; preds = %if.then7.i.i.i.i544
  %194 = load i32, ptr %_M_weak_count.i.i.i.i.i.i547, align 4
  %add.i.i.i.i.i.i.i550 = add nsw i32 %194, -1
  store i32 %add.i.i.i.i.i.i.i550, ptr %_M_weak_count.i.i.i.i.i.i547, align 4
  br label %_ZN9__gnu_cxx27__exchange_and_add_dispatchEPii.exit.i.i.i.i.i.i551

if.else.i.i.i.i.i.i.i557:                         ; preds = %if.then7.i.i.i.i544
  %195 = atomicrmw volatile add ptr %_M_weak_count.i.i.i.i.i.i547, i32 -1 acq_rel, align 4
  br label %_ZN9__gnu_cxx27__exchange_and_add_dispatchEPii.exit.i.i.i.i.i.i551

_ZN9__gnu_cxx27__exchange_and_add_dispatchEPii.exit.i.i.i.i.i.i551: ; preds = %if.else.i.i.i.i.i.i.i557, %if.then.i.i.i.i.i.i.i549
  %retval.i.0.i.i.i.i.i.i552 = phi i32 [ %194, %if.then.i.i.i.i.i.i.i549 ], [ %195, %if.else.i.i.i.i.i.i.i557 ]
  %cmp.i.i.i.i.i.i553 = icmp eq i32 %retval.i.0.i.i.i.i.i.i552, 1
  br i1 %cmp.i.i.i.i.i.i553, label %if.end8.sink.split.i.i.i.i554, label %_ZNSt10shared_ptrIKN19OpenColorIO_v2_4dev12CPUProcessorEED2Ev.exit563

if.end8.sink.split.i.i.i.i554:                    ; preds = %_ZN9__gnu_cxx27__exchange_and_add_dispatchEPii.exit.i.i.i.i.i.i551, %if.then.i.i.i.i559
  %vtable2.i.i.i.i.i.i555 = load ptr, ptr %186, align 8
  %vfn3.i.i.i.i.i.i556 = getelementptr inbounds ptr, ptr %vtable2.i.i.i.i.i.i555, i64 3
  %196 = load ptr, ptr %vfn3.i.i.i.i.i.i556, align 8
  call void %196(ptr noundef nonnull align 8 dereferenceable(16) %186) #21
  br label %_ZNSt10shared_ptrIKN19OpenColorIO_v2_4dev12CPUProcessorEED2Ev.exit563

_ZNSt10shared_ptrIKN19OpenColorIO_v2_4dev12CPUProcessorEED2Ev.exit563: ; preds = %_ZNSt10shared_ptrIN19OpenColorIO_v2_4dev11Lut1DOpDataEED2Ev.exit531, %_ZN9__gnu_cxx27__exchange_and_add_dispatchEPii.exit.i.i.i.i541, %_ZN9__gnu_cxx27__exchange_and_add_dispatchEPii.exit.i.i.i.i.i.i551, %if.end8.sink.split.i.i.i.i554
  call void @_ZNSt7__cxx1112basic_stringIcSt11char_traitsIcESaIcEED1Ev(ptr noundef nonnull align 8 dereferenceable(32) %shaperSpace) #21
  %_M_refcount.i.i564 = getelementptr inbounds %"class.std::__shared_ptr.308", ptr %config, i64 0, i32 1
  %197 = load ptr, ptr %_M_refcount.i.i564, align 8
  %cmp.not.i.i.i565 = icmp eq ptr %197, null
  br i1 %cmp.not.i.i.i565, label %_ZNSt10shared_ptrIKN19OpenColorIO_v2_4dev6ConfigEED2Ev.exit, label %if.then.i.i.i566

if.then.i.i.i566:                                 ; preds = %_ZNSt10shared_ptrIKN19OpenColorIO_v2_4dev12CPUProcessorEED2Ev.exit563
  %_M_use_count.i.i.i.i567 = getelementptr inbounds %"class.std::_Sp_counted_base", ptr %197, i64 0, i32 1
  %198 = load atomic i64, ptr %_M_use_count.i.i.i.i567 acquire, align 8
  %cmp.i.i.i.i568 = icmp eq i64 %198, 4294967297
  %199 = trunc i64 %198 to i32
  br i1 %cmp.i.i.i.i568, label %if.then.i.i.i.i591, label %if.end.i.i.i.i569

if.then.i.i.i.i591:                               ; preds = %if.then.i.i.i566
  store i32 0, ptr %_M_use_count.i.i.i.i567, align 8
  %_M_weak_count.i.i.i.i592 = getelementptr inbounds %"class.std::_Sp_counted_base", ptr %197, i64 0, i32 2
  store i32 0, ptr %_M_weak_count.i.i.i.i592, align 4
  %vtable.i.i.i.i593 = load ptr, ptr %197, align 8
  %vfn.i.i.i.i594 = getelementptr inbounds ptr, ptr %vtable.i.i.i.i593, i64 2
  %200 = load ptr, ptr %vfn.i.i.i.i594, align 8
  call void %200(ptr noundef nonnull align 8 dereferenceable(16) %197) #21
  br label %if.end8.sink.split.i.i.i.i586

if.end.i.i.i.i569:                                ; preds = %if.then.i.i.i566
  %201 = load i8, ptr @__libc_single_threaded, align 1
  %tobool.i.i.not.i.i.i.i570 = icmp eq i8 %201, 0
  br i1 %tobool.i.i.not.i.i.i.i570, label %if.else.i.i.i.i.i590, label %if.then.i.i.i.i.i571

if.then.i.i.i.i.i571:                             ; preds = %if.end.i.i.i.i569
  %add.i.i.i.i.i572 = add nsw i32 %199, -1
  store i32 %add.i.i.i.i.i572, ptr %_M_use_count.i.i.i.i567, align 4
  br label %_ZN9__gnu_cxx27__exchange_and_add_dispatchEPii.exit.i.i.i.i573

if.else.i.i.i.i.i590:                             ; preds = %if.end.i.i.i.i569
  %202 = atomicrmw volatile add ptr %_M_use_count.i.i.i.i567, i32 -1 acq_rel, align 4
  br label %_ZN9__gnu_cxx27__exchange_and_add_dispatchEPii.exit.i.i.i.i573

_ZN9__gnu_cxx27__exchange_and_add_dispatchEPii.exit.i.i.i.i573: ; preds = %if.else.i.i.i.i.i590, %if.then.i.i.i.i.i571
  %retval.i.0.i.i.i.i574 = phi i32 [ %199, %if.then.i.i.i.i.i571 ], [ %202, %if.else.i.i.i.i.i590 ]
  %cmp6.i.i.i.i575 = icmp eq i32 %retval.i.0.i.i.i.i574, 1
  br i1 %cmp6.i.i.i.i575, label %if.then7.i.i.i.i576, label %_ZNSt10shared_ptrIKN19OpenColorIO_v2_4dev6ConfigEED2Ev.exit

if.then7.i.i.i.i576:                              ; preds = %_ZN9__gnu_cxx27__exchange_and_add_dispatchEPii.exit.i.i.i.i573
  %vtable.i.i.i.i.i.i577 = load ptr, ptr %197, align 8
  %vfn.i.i.i.i.i.i578 = getelementptr inbounds ptr, ptr %vtable.i.i.i.i.i.i577, i64 2
  %203 = load ptr, ptr %vfn.i.i.i.i.i.i578, align 8
  call void %203(ptr noundef nonnull align 8 dereferenceable(16) %197) #21
  %_M_weak_count.i.i.i.i.i.i579 = getelementptr inbounds %"class.std::_Sp_counted_base", ptr %197, i64 0, i32 2
  %204 = load i8, ptr @__libc_single_threaded, align 1
  %tobool.i.i.not.i.i.i.i.i.i580 = icmp eq i8 %204, 0
  br i1 %tobool.i.i.not.i.i.i.i.i.i580, label %if.else.i.i.i.i.i.i.i589, label %if.then.i.i.i.i.i.i.i581

if.then.i.i.i.i.i.i.i581:                         ; preds = %if.then7.i.i.i.i576
  %205 = load i32, ptr %_M_weak_count.i.i.i.i.i.i579, align 4
  %add.i.i.i.i.i.i.i582 = add nsw i32 %205, -1
  store i32 %add.i.i.i.i.i.i.i582, ptr %_M_weak_count.i.i.i.i.i.i579, align 4
  br label %_ZN9__gnu_cxx27__exchange_and_add_dispatchEPii.exit.i.i.i.i.i.i583

if.else.i.i.i.i.i.i.i589:                         ; preds = %if.then7.i.i.i.i576
  %206 = atomicrmw volatile add ptr %_M_weak_count.i.i.i.i.i.i579, i32 -1 acq_rel, align 4
  br label %_ZN9__gnu_cxx27__exchange_and_add_dispatchEPii.exit.i.i.i.i.i.i583

_ZN9__gnu_cxx27__exchange_and_add_dispatchEPii.exit.i.i.i.i.i.i583: ; preds = %if.else.i.i.i.i.i.i.i589, %if.then.i.i.i.i.i.i.i581
  %retval.i.0.i.i.i.i.i.i584 = phi i32 [ %205, %if.then.i.i.i.i.i.i.i581 ], [ %206, %if.else.i.i.i.i.i.i.i589 ]
  %cmp.i.i.i.i.i.i585 = icmp eq i32 %retval.i.0.i.i.i.i.i.i584, 1
  br i1 %cmp.i.i.i.i.i.i585, label %if.end8.sink.split.i.i.i.i586, label %_ZNSt10shared_ptrIKN19OpenColorIO_v2_4dev6ConfigEED2Ev.exit

if.end8.sink.split.i.i.i.i586:                    ; preds = %_ZN9__gnu_cxx27__exchange_and_add_dispatchEPii.exit.i.i.i.i.i.i583, %if.then.i.i.i.i591
  %vtable2.i.i.i.i.i.i587 = load ptr, ptr %197, align 8
  %vfn3.i.i.i.i.i.i588 = getelementptr inbounds ptr, ptr %vtable2.i.i.i.i.i.i587, i64 3
  %207 = load ptr, ptr %vfn3.i.i.i.i.i.i588, align 8
  call void %207(ptr noundef nonnull align 8 dereferenceable(16) %197) #21
  br label %_ZNSt10shared_ptrIKN19OpenColorIO_v2_4dev6ConfigEED2Ev.exit

_ZNSt10shared_ptrIKN19OpenColorIO_v2_4dev6ConfigEED2Ev.exit: ; preds = %_ZNSt10shared_ptrIKN19OpenColorIO_v2_4dev12CPUProcessorEED2Ev.exit563, %_ZN9__gnu_cxx27__exchange_and_add_dispatchEPii.exit.i.i.i.i573, %_ZN9__gnu_cxx27__exchange_and_add_dispatchEPii.exit.i.i.i.i.i.i583, %if.end8.sink.split.i.i.i.i586
  ret void

lpad217:                                          ; preds = %invoke.cont226, %invoke.cont218, %for.end
  %208 = landingpad { ptr, i32 }
          cleanup
  br label %ehcleanup237

lpad234:                                          ; preds = %invoke.cont230
  %209 = landingpad { ptr, i32 }
          cleanup
  call void @_ZNSt10shared_ptrIKN19OpenColorIO_v2_4dev7ContextEED2Ev(ptr noundef nonnull align 8 dereferenceable(16) %ref.tmp228) #21
  br label %ehcleanup237

ehcleanup237:                                     ; preds = %lpad234, %lpad217, %lpad213
  %.pn35 = phi { ptr, i32 } [ %144, %lpad213 ], [ %209, %lpad234 ], [ %208, %lpad217 ]
  call void @_ZNSt10shared_ptrIN19OpenColorIO_v2_4dev14GroupTransformEED2Ev(ptr noundef nonnull align 8 dereferenceable(16) %group) #21
  br label %ehcleanup238

ehcleanup238:                                     ; preds = %_ZNSt15__allocated_ptrISaISt23_Sp_counted_ptr_inplaceIN19OpenColorIO_v2_4dev11Lut1DOpDataESaIvELN9__gnu_cxx12_Lock_policyE2EEEED2Ev.exit9.i.i.i.i312, %_ZNSt15__allocated_ptrISaISt23_Sp_counted_ptr_inplaceIN19OpenColorIO_v2_4dev11Lut3DOpDataESaIvELN9__gnu_cxx12_Lock_policyE2EEEED2Ev.exit9.i.i.i.i, %lpad160, %ehcleanup237, %lpad197, %lpad168
  %.pn35.pn = phi { ptr, i32 } [ %.pn35, %ehcleanup237 ], [ %123, %lpad197 ], [ %110, %lpad168 ], [ %100, %_ZNSt15__allocated_ptrISaISt23_Sp_counted_ptr_inplaceIN19OpenColorIO_v2_4dev11Lut1DOpDataESaIvELN9__gnu_cxx12_Lock_policyE2EEEED2Ev.exit9.i.i.i.i312 ], [ %99, %lpad160 ], [ %113, %_ZNSt15__allocated_ptrISaISt23_Sp_counted_ptr_inplaceIN19OpenColorIO_v2_4dev11Lut3DOpDataESaIvELN9__gnu_cxx12_Lock_policyE2EEEED2Ev.exit9.i.i.i.i ]
  call void @_ZN19OpenColorIO_v2_4dev10OpRcPtrVecD2Ev(ptr noundef nonnull align 8 dereferenceable(144) %ops) #21
  br label %ehcleanup239

ehcleanup239:                                     ; preds = %ehcleanup238, %lpad147, %lpad132
  %.pn35.pn.pn = phi { ptr, i32 } [ %.pn35.pn, %ehcleanup238 ], [ %92, %lpad132 ], [ %96, %lpad147 ]
  %210 = load ptr, ptr %onedData, align 8
  %tobool.not.i.i.i595 = icmp eq ptr %210, null
  br i1 %tobool.not.i.i.i595, label %ehcleanup240, label %if.then.i.i.i596

if.then.i.i.i596:                                 ; preds = %ehcleanup239
  call void @_ZdlPv(ptr noundef nonnull %210) #23
  br label %ehcleanup240

ehcleanup240:                                     ; preds = %if.then.i.i.i596, %ehcleanup239, %lpad117, %lpad105
  %.pn35.pn.pn.pn = phi { ptr, i32 } [ %61, %lpad117 ], [ %60, %lpad105 ], [ %.pn35.pn.pn, %ehcleanup239 ], [ %.pn35.pn.pn, %if.then.i.i.i596 ]
  %211 = load ptr, ptr %cubeData, align 8
  %tobool.not.i.i.i598 = icmp eq ptr %211, null
  br i1 %tobool.not.i.i.i598, label %ehcleanup241, label %if.then.i.i.i599

if.then.i.i.i599:                                 ; preds = %ehcleanup240
  call void @_ZdlPv(ptr noundef nonnull %211) #23
  br label %ehcleanup241

ehcleanup241:                                     ; preds = %if.then.i.i.i599, %ehcleanup240, %_ZNSt15__allocated_ptrISaISt23_Sp_counted_ptr_inplaceIN19OpenColorIO_v2_4dev11Lut1DOpDataESaIvELN9__gnu_cxx12_Lock_policyE2EEEED2Ev.exit9.i.i.i.i, %_ZNSt15__allocated_ptrISaISt23_Sp_counted_ptr_inplaceIN19OpenColorIO_v2_4dev11Lut1DOpDataESaIvELN9__gnu_cxx12_Lock_policyE2EEEED2Ev.exit9.i.i.i.i60, %lpad54, %ehcleanup97
  %.pn35.pn.pn.pn.pn = phi { ptr, i32 } [ %.pn, %ehcleanup97 ], [ %10, %_ZNSt15__allocated_ptrISaISt23_Sp_counted_ptr_inplaceIN19OpenColorIO_v2_4dev11Lut1DOpDataESaIvELN9__gnu_cxx12_Lock_policyE2EEEED2Ev.exit9.i.i.i.i ], [ %22, %lpad54 ], [ %23, %_ZNSt15__allocated_ptrISaISt23_Sp_counted_ptr_inplaceIN19OpenColorIO_v2_4dev11Lut1DOpDataESaIvELN9__gnu_cxx12_Lock_policyE2EEEED2Ev.exit9.i.i.i.i60 ], [ %.pn35.pn.pn.pn, %ehcleanup240 ], [ %.pn35.pn.pn.pn, %if.then.i.i.i599 ]
  call void @_ZNSt10shared_ptrIN19OpenColorIO_v2_4dev11Lut1DOpDataEED2Ev(ptr noundef nonnull align 8 dereferenceable(16) %shaperLut) #21
  br label %ehcleanup242

ehcleanup242:                                     ; preds = %ehcleanup241, %lpad36
  %.pn41 = phi { ptr, i32 } [ %9, %lpad36 ], [ %.pn35.pn.pn.pn.pn, %ehcleanup241 ]
  call void @_ZNSt10shared_ptrIKN19OpenColorIO_v2_4dev12CPUProcessorEED2Ev(ptr noundef nonnull align 8 dereferenceable(16) %inputToTarget) #21
  br label %ehcleanup243

ehcleanup243:                                     ; preds = %ehcleanup242, %lpad33
  %.pn41.pn = phi { ptr, i32 } [ %.pn41, %ehcleanup242 ], [ %8, %lpad33 ]
  call void @_ZNSt7__cxx1112basic_stringIcSt11char_traitsIcESaIcEED1Ev(ptr noundef nonnull align 8 dereferenceable(32) %shaperSpace) #21
  br label %ehcleanup244

ehcleanup244:                                     ; preds = %ehcleanup243, %lpad30, %lpad14
  %.pn41.pn.pn = phi { ptr, i32 } [ %.pn41.pn, %ehcleanup243 ], [ %7, %lpad30 ], [ %4, %lpad14 ]
  call void @_ZNSt10shared_ptrIKN19OpenColorIO_v2_4dev6ConfigEED2Ev(ptr noundef nonnull align 8 dereferenceable(16) %config) #21
  br label %eh.resume

eh.resume:                                        ; preds = %ehcleanup244, %ehcleanup13
  %.pn45.pn.pn = phi { ptr, i32 } [ %.pn45.pn, %ehcleanup13 ], [ %.pn41.pn.pn, %ehcleanup244 ]
  resume { ptr, i32 } %.pn45.pn.pn

unreachable:                                      ; preds = %invoke.cont12
  unreachable
}

; Function Attrs: mustprogress uwtable
define internal void @_ZNK19OpenColorIO_v2_4dev12_GLOBAL__N_115LocalFileFormat5writeERKSt10shared_ptrIKNS_6ConfigEERKS2_IKNS_7ContextEERKNS_14GroupTransformERKNSt7__cxx1112basic_stringIcSt11char_traitsIcESaIcEEERSo(ptr nocapture nonnull readnone align 8 %this, ptr nocapture noundef nonnull readonly align 8 dereferenceable(16) %config, ptr noundef nonnull align 8 dereferenceable(16) %context, ptr noundef nonnull align 8 dereferenceable(8) %group, ptr noundef nonnull align 8 dereferenceable(32) %formatName, ptr noundef nonnull align 8 dereferenceable(8) %ostream) unnamed_addr #4 align 2 personality ptr @__gxx_personality_v0 {
entry:
  %os = alloca %"class.std::__cxx11::basic_ostringstream", align 8
  %ref.tmp = alloca %"class.std::__cxx11::basic_string", align 8
  %ops = alloca %"class.OpenColorIO_v2_4dev::OpRcPtrVec", align 8
  %ref.tmp24 = alloca %"class.OpenColorIO_v2_4dev::FormatMetadataImpl", align 8
  %transform = alloca %"class.std::shared_ptr.9", align 8
  %fmt = alloca %"class.OpenColorIO_v2_4dev::XmlFormatter", align 8
  %writer = alloca %"class.OpenColorIO_v2_4dev::TransformWriter", align 8
  %agg.tmp = alloca %"class.std::shared_ptr.352", align 8
  %call = tail call noundef ptr @_ZNKSt7__cxx1112basic_stringIcSt11char_traitsIcESaIcEE5c_strEv(ptr noundef nonnull align 8 dereferenceable(32) %formatName) #21
  %call2 = tail call noundef i32 @_ZN19OpenColorIO_v2_4dev8Platform10StrcasecmpEPKcS2_(ptr noundef %call, ptr noundef nonnull @_ZN19OpenColorIO_v2_4devL14FILEFORMAT_CLFE)
  %cmp = icmp eq i32 %call2, 0
  br i1 %cmp, label %if.end18, label %if.else

if.else:                                          ; preds = %entry
  %call3 = tail call noundef ptr @_ZNKSt7__cxx1112basic_stringIcSt11char_traitsIcESaIcEE5c_strEv(ptr noundef nonnull align 8 dereferenceable(32) %formatName) #21
  %call4 = tail call noundef i32 @_ZN19OpenColorIO_v2_4dev8Platform10StrcasecmpEPKcS2_(ptr noundef %call3, ptr noundef nonnull @_ZN19OpenColorIO_v2_4devL14FILEFORMAT_CTFE)
  %cmp5.not = icmp eq i32 %call4, 0
  br i1 %cmp5.not, label %if.end18, label %if.then6

if.then6:                                         ; preds = %if.else
  call void @_ZNSt7__cxx1119basic_ostringstreamIcSt11char_traitsIcESaIcEEC1Ev(ptr noundef nonnull align 8 dereferenceable(112) %os)
  %call7 = invoke noundef nonnull align 8 dereferenceable(8) ptr @_ZStlsISt11char_traitsIcEERSt13basic_ostreamIcT_ES5_PKc(ptr noundef nonnull align 8 dereferenceable(8) %os, ptr noundef nonnull @.str.68)
          to label %invoke.cont unwind label %lpad

invoke.cont:                                      ; preds = %if.then6
  %call9 = invoke noundef nonnull align 8 dereferenceable(8) ptr @_ZStlsIcSt11char_traitsIcESaIcEERSt13basic_ostreamIT_T0_ES7_RKNSt7__cxx1112basic_stringIS4_S5_T1_EE(ptr noundef nonnull align 8 dereferenceable(8) %call7, ptr noundef nonnull align 8 dereferenceable(32) %formatName)
          to label %invoke.cont8 unwind label %lpad

invoke.cont8:                                     ; preds = %invoke.cont
  %call11 = invoke noundef nonnull align 8 dereferenceable(8) ptr @_ZStlsISt11char_traitsIcEERSt13basic_ostreamIcT_ES5_PKc(ptr noundef nonnull align 8 dereferenceable(8) %call9, ptr noundef nonnull @.str.46)
          to label %invoke.cont10 unwind label %lpad

invoke.cont10:                                    ; preds = %invoke.cont8
  %exception = call ptr @__cxa_allocate_exception(i64 16) #21
  invoke void @_ZNKSt7__cxx1119basic_ostringstreamIcSt11char_traitsIcESaIcEE3strEv(ptr nonnull sret(%"class.std::__cxx11::basic_string") align 8 %ref.tmp, ptr noundef nonnull align 8 dereferenceable(112) %os)
          to label %invoke.cont13 unwind label %ehcleanup.thread

invoke.cont13:                                    ; preds = %invoke.cont10
  %call14 = call noundef ptr @_ZNKSt7__cxx1112basic_stringIcSt11char_traitsIcESaIcEE5c_strEv(ptr noundef nonnull align 8 dereferenceable(32) %ref.tmp) #21
  invoke void @_ZN19OpenColorIO_v2_4dev9ExceptionC1EPKc(ptr noundef nonnull align 8 dereferenceable(16) %exception, ptr noundef %call14)
          to label %invoke.cont16 unwind label %ehcleanup.thread56

ehcleanup.thread56:                               ; preds = %invoke.cont13
  %0 = landingpad { ptr, i32 }
          cleanup
  call void @_ZNSt7__cxx1112basic_stringIcSt11char_traitsIcESaIcEED1Ev(ptr noundef nonnull align 8 dereferenceable(32) %ref.tmp) #21
  br label %cleanup.action

invoke.cont16:                                    ; preds = %invoke.cont13
  invoke void @__cxa_throw(ptr nonnull %exception, ptr nonnull @_ZTIN19OpenColorIO_v2_4dev9ExceptionE, ptr nonnull @_ZN19OpenColorIO_v2_4dev9ExceptionD1Ev) #25
          to label %unreachable unwind label %ehcleanup

lpad:                                             ; preds = %invoke.cont8, %invoke.cont, %if.then6
  %1 = landingpad { ptr, i32 }
          cleanup
  br label %ehcleanup17

ehcleanup.thread:                                 ; preds = %invoke.cont10
  %2 = landingpad { ptr, i32 }
          cleanup
  br label %cleanup.action

ehcleanup:                                        ; preds = %invoke.cont16
  %3 = landingpad { ptr, i32 }
          cleanup
  call void @_ZNSt7__cxx1112basic_stringIcSt11char_traitsIcESaIcEED1Ev(ptr noundef nonnull align 8 dereferenceable(32) %ref.tmp) #21
  br label %ehcleanup17

cleanup.action:                                   ; preds = %ehcleanup.thread56, %ehcleanup.thread
  %.pn55 = phi { ptr, i32 } [ %2, %ehcleanup.thread ], [ %0, %ehcleanup.thread56 ]
  call void @__cxa_free_exception(ptr %exception) #21
  br label %ehcleanup17

ehcleanup17:                                      ; preds = %ehcleanup, %cleanup.action, %lpad
  %.pn.pn = phi { ptr, i32 } [ %.pn55, %cleanup.action ], [ %3, %ehcleanup ], [ %1, %lpad ]
  call void @_ZNSt7__cxx1119basic_ostringstreamIcSt11char_traitsIcESaIcEED1Ev(ptr noundef nonnull align 8 dereferenceable(112) %os) #21
  br label %eh.resume

if.end18:                                         ; preds = %entry, %if.else
  call void @_ZN19OpenColorIO_v2_4dev10OpRcPtrVecC1Ev(ptr noundef nonnull align 8 dereferenceable(144) %ops)
  %4 = load ptr, ptr %config, align 8
  invoke void @_ZN19OpenColorIO_v2_4dev13BuildGroupOpsERNS_10OpRcPtrVecERKNS_6ConfigERKSt10shared_ptrIKNS_7ContextEERKNS_14GroupTransformENS_18TransformDirectionE(ptr noundef nonnull align 8 dereferenceable(144) %ops, ptr noundef nonnull align 8 dereferenceable(8) %4, ptr noundef nonnull align 8 dereferenceable(16) %context, ptr noundef nonnull align 8 dereferenceable(8) %group, i32 noundef 0)
          to label %invoke.cont21 unwind label %lpad20

invoke.cont21:                                    ; preds = %if.end18
  invoke void @_ZN19OpenColorIO_v2_4dev10OpRcPtrVec8finalizeEv(ptr noundef nonnull align 8 dereferenceable(144) %ops)
          to label %invoke.cont22 unwind label %lpad20

invoke.cont22:                                    ; preds = %invoke.cont21
  invoke void @_ZN19OpenColorIO_v2_4dev10OpRcPtrVec8optimizeENS_17OptimizationFlagsE(ptr noundef nonnull align 8 dereferenceable(144) %ops, i64 noundef 0)
          to label %invoke.cont23 unwind label %lpad20

invoke.cont23:                                    ; preds = %invoke.cont22
  %vtable = load ptr, ptr %group, align 8
  %vfn = getelementptr inbounds ptr, ptr %vtable, i64 7
  %5 = load ptr, ptr %vfn, align 8
  %call25 = call noundef nonnull align 8 dereferenceable(8) ptr %5(ptr noundef nonnull align 8 dereferenceable(8) %group) #21
  invoke void @_ZN19OpenColorIO_v2_4dev18FormatMetadataImplC1ERKNS_14FormatMetadataE(ptr noundef nonnull align 8 dereferenceable(120) %ref.tmp24, ptr noundef nonnull align 8 dereferenceable(8) %call25)
          to label %invoke.cont26 unwind label %lpad20

invoke.cont26:                                    ; preds = %invoke.cont23
  call void @llvm.experimental.noalias.scope.decl(metadata !29)
  store ptr null, ptr %transform, align 8, !alias.scope !29
  %call5.i.i.i3.i.i.i.i13 = invoke noalias noundef nonnull dereferenceable(376) ptr @_Znwm(i64 noundef 376) #22
          to label %call5.i.i.i3.i.i.i.i.noexc unwind label %lpad27

call5.i.i.i3.i.i.i.i.noexc:                       ; preds = %invoke.cont26
  %_M_use_count.i.i.i.i.i.i = getelementptr inbounds %"class.std::_Sp_counted_base", ptr %call5.i.i.i3.i.i.i.i13, i64 0, i32 1
  store i32 1, ptr %_M_use_count.i.i.i.i.i.i, align 8, !noalias !29
  %_M_weak_count.i.i.i.i.i.i = getelementptr inbounds %"class.std::_Sp_counted_base", ptr %call5.i.i.i3.i.i.i.i13, i64 0, i32 2
  store i32 1, ptr %_M_weak_count.i.i.i.i.i.i, align 4, !noalias !29
  store ptr getelementptr inbounds ({ [7 x ptr] }, ptr @_ZTVSt23_Sp_counted_ptr_inplaceIN19OpenColorIO_v2_4dev18CTFReaderTransformESaIvELN9__gnu_cxx12_Lock_policyE2EE, i64 0, inrange i32 0, i64 2), ptr %call5.i.i.i3.i.i.i.i13, align 8, !noalias !29
  %_M_impl.i.i.i.i.i.i = getelementptr inbounds %"class.std::_Sp_counted_ptr_inplace.359", ptr %call5.i.i.i3.i.i.i.i13, i64 0, i32 1
  invoke void @_ZN19OpenColorIO_v2_4dev18CTFReaderTransformC1ERKNS_10OpRcPtrVecERKNS_18FormatMetadataImplE(ptr noundef nonnull align 8 dereferenceable(356) %_M_impl.i.i.i.i.i.i, ptr noundef nonnull align 8 dereferenceable(144) %ops, ptr noundef nonnull align 8 dereferenceable(120) %ref.tmp24)
          to label %invoke.cont28 unwind label %_ZNSt15__allocated_ptrISaISt23_Sp_counted_ptr_inplaceIN19OpenColorIO_v2_4dev18CTFReaderTransformESaIvELN9__gnu_cxx12_Lock_policyE2EEEED2Ev.exit9.i.i.i.i, !noalias !29

_ZNSt15__allocated_ptrISaISt23_Sp_counted_ptr_inplaceIN19OpenColorIO_v2_4dev18CTFReaderTransformESaIvELN9__gnu_cxx12_Lock_policyE2EEEED2Ev.exit9.i.i.i.i: ; preds = %call5.i.i.i3.i.i.i.i.noexc
  %6 = landingpad { ptr, i32 }
          cleanup
  call void @_ZdlPv(ptr noundef nonnull %call5.i.i.i3.i.i.i.i13) #23, !noalias !29
  br label %ehcleanup43

invoke.cont28:                                    ; preds = %call5.i.i.i3.i.i.i.i.noexc
  %_M_refcount.i.i.i = getelementptr inbounds %"class.std::__shared_ptr.10", ptr %transform, i64 0, i32 1
  store ptr %call5.i.i.i3.i.i.i.i13, ptr %_M_refcount.i.i.i, align 8, !alias.scope !29
  store ptr %_M_impl.i.i.i.i.i.i, ptr %transform, align 8, !alias.scope !29
  %call31 = invoke noundef nonnull align 8 dereferenceable(8) ptr @_ZStlsISt11char_traitsIcEERSt13basic_ostreamIcT_ES5_PKc(ptr noundef nonnull align 8 dereferenceable(8) %ostream, ptr noundef nonnull @.str.69)
          to label %invoke.cont30 unwind label %lpad29

invoke.cont30:                                    ; preds = %invoke.cont28
  %call33 = invoke noundef nonnull align 8 dereferenceable(8) ptr @_ZNSolsEPFRSoS_E(ptr noundef nonnull align 8 dereferenceable(8) %call31, ptr noundef nonnull @_ZSt4endlIcSt11char_traitsIcEERSt13basic_ostreamIT_T0_ES6_)
          to label %invoke.cont32 unwind label %lpad29

invoke.cont32:                                    ; preds = %invoke.cont30
  invoke void @_ZN19OpenColorIO_v2_4dev12XmlFormatterC1ERSo(ptr noundef nonnull align 8 dereferenceable(16) %fmt, ptr noundef nonnull align 8 dereferenceable(8) %ostream)
          to label %if.then.i.i.i unwind label %lpad29

if.then.i.i.i:                                    ; preds = %invoke.cont32
  store ptr %_M_impl.i.i.i.i.i.i, ptr %agg.tmp, align 8
  %_M_refcount.i.i = getelementptr inbounds %"class.std::__shared_ptr.353", ptr %agg.tmp, i64 0, i32 1
  store ptr %call5.i.i.i3.i.i.i.i13, ptr %_M_refcount.i.i, align 8
  %7 = load i8, ptr @__libc_single_threaded, align 1
  %tobool.i.not.i.i.i.i = icmp eq i8 %7, 0
  br i1 %tobool.i.not.i.i.i.i, label %if.else.i.i.i.i.i, label %if.then.i.i.i.i.i

if.then.i.i.i.i.i:                                ; preds = %if.then.i.i.i
  %8 = load i32, ptr %_M_use_count.i.i.i.i.i.i, align 4
  %add.i.i.i.i.i = add nsw i32 %8, 1
  store i32 %add.i.i.i.i.i, ptr %_M_use_count.i.i.i.i.i.i, align 4
  br label %_ZNSt10shared_ptrIKN19OpenColorIO_v2_4dev18CTFReaderTransformEEC2IS1_vEERKS_IT_E.exit

if.else.i.i.i.i.i:                                ; preds = %if.then.i.i.i
  %9 = atomicrmw volatile add ptr %_M_use_count.i.i.i.i.i.i, i32 1 acq_rel, align 4
  br label %_ZNSt10shared_ptrIKN19OpenColorIO_v2_4dev18CTFReaderTransformEEC2IS1_vEERKS_IT_E.exit

_ZNSt10shared_ptrIKN19OpenColorIO_v2_4dev18CTFReaderTransformEEC2IS1_vEERKS_IT_E.exit: ; preds = %if.then.i.i.i.i.i, %if.else.i.i.i.i.i
  invoke void @_ZN19OpenColorIO_v2_4dev15TransformWriterC1ERNS_12XmlFormatterESt10shared_ptrIKNS_18CTFReaderTransformEEb(ptr noundef nonnull align 8 dereferenceable(33) %writer, ptr noundef nonnull align 8 dereferenceable(16) %fmt, ptr noundef nonnull %agg.tmp, i1 noundef zeroext %cmp)
          to label %invoke.cont36 unwind label %lpad35

invoke.cont36:                                    ; preds = %_ZNSt10shared_ptrIKN19OpenColorIO_v2_4dev18CTFReaderTransformEEC2IS1_vEERKS_IT_E.exit
  %10 = load ptr, ptr %_M_refcount.i.i, align 8
  %cmp.not.i.i.i15 = icmp eq ptr %10, null
  br i1 %cmp.not.i.i.i15, label %_ZNSt10shared_ptrIKN19OpenColorIO_v2_4dev18CTFReaderTransformEED2Ev.exit, label %if.then.i.i.i16

if.then.i.i.i16:                                  ; preds = %invoke.cont36
  %_M_use_count.i.i.i.i17 = getelementptr inbounds %"class.std::_Sp_counted_base", ptr %10, i64 0, i32 1
  %11 = load atomic i64, ptr %_M_use_count.i.i.i.i17 acquire, align 8
  %cmp.i.i.i.i = icmp eq i64 %11, 4294967297
  %12 = trunc i64 %11 to i32
  br i1 %cmp.i.i.i.i, label %if.then.i.i.i.i, label %if.end.i.i.i.i

if.then.i.i.i.i:                                  ; preds = %if.then.i.i.i16
  store i32 0, ptr %_M_use_count.i.i.i.i17, align 8
  %_M_weak_count.i.i.i.i = getelementptr inbounds %"class.std::_Sp_counted_base", ptr %10, i64 0, i32 2
  store i32 0, ptr %_M_weak_count.i.i.i.i, align 4
  %vtable.i.i.i.i = load ptr, ptr %10, align 8
  %vfn.i.i.i.i = getelementptr inbounds ptr, ptr %vtable.i.i.i.i, i64 2
  %13 = load ptr, ptr %vfn.i.i.i.i, align 8
  call void %13(ptr noundef nonnull align 8 dereferenceable(16) %10) #21
  br label %if.end8.sink.split.i.i.i.i

if.end.i.i.i.i:                                   ; preds = %if.then.i.i.i16
  %14 = load i8, ptr @__libc_single_threaded, align 1
  %tobool.i.i.not.i.i.i.i = icmp eq i8 %14, 0
  br i1 %tobool.i.i.not.i.i.i.i, label %if.else.i.i.i.i.i21, label %if.then.i.i.i.i.i18

if.then.i.i.i.i.i18:                              ; preds = %if.end.i.i.i.i
  %add.i.i.i.i.i19 = add nsw i32 %12, -1
  store i32 %add.i.i.i.i.i19, ptr %_M_use_count.i.i.i.i17, align 4
  br label %_ZN9__gnu_cxx27__exchange_and_add_dispatchEPii.exit.i.i.i.i

if.else.i.i.i.i.i21:                              ; preds = %if.end.i.i.i.i
  %15 = atomicrmw volatile add ptr %_M_use_count.i.i.i.i17, i32 -1 acq_rel, align 4
  br label %_ZN9__gnu_cxx27__exchange_and_add_dispatchEPii.exit.i.i.i.i

_ZN9__gnu_cxx27__exchange_and_add_dispatchEPii.exit.i.i.i.i: ; preds = %if.else.i.i.i.i.i21, %if.then.i.i.i.i.i18
  %retval.i.0.i.i.i.i = phi i32 [ %12, %if.then.i.i.i.i.i18 ], [ %15, %if.else.i.i.i.i.i21 ]
  %cmp6.i.i.i.i = icmp eq i32 %retval.i.0.i.i.i.i, 1
  br i1 %cmp6.i.i.i.i, label %if.then7.i.i.i.i, label %_ZNSt10shared_ptrIKN19OpenColorIO_v2_4dev18CTFReaderTransformEED2Ev.exit

if.then7.i.i.i.i:                                 ; preds = %_ZN9__gnu_cxx27__exchange_and_add_dispatchEPii.exit.i.i.i.i
  %vtable.i.i.i.i.i.i = load ptr, ptr %10, align 8
  %vfn.i.i.i.i.i.i = getelementptr inbounds ptr, ptr %vtable.i.i.i.i.i.i, i64 2
  %16 = load ptr, ptr %vfn.i.i.i.i.i.i, align 8
  call void %16(ptr noundef nonnull align 8 dereferenceable(16) %10) #21
  %_M_weak_count.i.i.i.i.i.i20 = getelementptr inbounds %"class.std::_Sp_counted_base", ptr %10, i64 0, i32 2
  %17 = load i8, ptr @__libc_single_threaded, align 1
  %tobool.i.i.not.i.i.i.i.i.i = icmp eq i8 %17, 0
  br i1 %tobool.i.i.not.i.i.i.i.i.i, label %if.else.i.i.i.i.i.i.i, label %if.then.i.i.i.i.i.i.i

if.then.i.i.i.i.i.i.i:                            ; preds = %if.then7.i.i.i.i
  %18 = load i32, ptr %_M_weak_count.i.i.i.i.i.i20, align 4
  %add.i.i.i.i.i.i.i = add nsw i32 %18, -1
  store i32 %add.i.i.i.i.i.i.i, ptr %_M_weak_count.i.i.i.i.i.i20, align 4
  br label %_ZN9__gnu_cxx27__exchange_and_add_dispatchEPii.exit.i.i.i.i.i.i

if.else.i.i.i.i.i.i.i:                            ; preds = %if.then7.i.i.i.i
  %19 = atomicrmw volatile add ptr %_M_weak_count.i.i.i.i.i.i20, i32 -1 acq_rel, align 4
  br label %_ZN9__gnu_cxx27__exchange_and_add_dispatchEPii.exit.i.i.i.i.i.i

_ZN9__gnu_cxx27__exchange_and_add_dispatchEPii.exit.i.i.i.i.i.i: ; preds = %if.else.i.i.i.i.i.i.i, %if.then.i.i.i.i.i.i.i
  %retval.i.0.i.i.i.i.i.i = phi i32 [ %18, %if.then.i.i.i.i.i.i.i ], [ %19, %if.else.i.i.i.i.i.i.i ]
  %cmp.i.i.i.i.i.i = icmp eq i32 %retval.i.0.i.i.i.i.i.i, 1
  br i1 %cmp.i.i.i.i.i.i, label %if.end8.sink.split.i.i.i.i, label %_ZNSt10shared_ptrIKN19OpenColorIO_v2_4dev18CTFReaderTransformEED2Ev.exit

if.end8.sink.split.i.i.i.i:                       ; preds = %_ZN9__gnu_cxx27__exchange_and_add_dispatchEPii.exit.i.i.i.i.i.i, %if.then.i.i.i.i
  %vtable2.i.i.i.i.i.i = load ptr, ptr %10, align 8
  %vfn3.i.i.i.i.i.i = getelementptr inbounds ptr, ptr %vtable2.i.i.i.i.i.i, i64 3
  %20 = load ptr, ptr %vfn3.i.i.i.i.i.i, align 8
  call void %20(ptr noundef nonnull align 8 dereferenceable(16) %10) #21
  br label %_ZNSt10shared_ptrIKN19OpenColorIO_v2_4dev18CTFReaderTransformEED2Ev.exit

_ZNSt10shared_ptrIKN19OpenColorIO_v2_4dev18CTFReaderTransformEED2Ev.exit: ; preds = %invoke.cont36, %_ZN9__gnu_cxx27__exchange_and_add_dispatchEPii.exit.i.i.i.i, %_ZN9__gnu_cxx27__exchange_and_add_dispatchEPii.exit.i.i.i.i.i.i, %if.end8.sink.split.i.i.i.i
  invoke void @_ZNK19OpenColorIO_v2_4dev15TransformWriter5writeEv(ptr noundef nonnull align 8 dereferenceable(33) %writer)
          to label %invoke.cont39 unwind label %lpad38

invoke.cont39:                                    ; preds = %_ZNSt10shared_ptrIKN19OpenColorIO_v2_4dev18CTFReaderTransformEED2Ev.exit
  call void @_ZN19OpenColorIO_v2_4dev15TransformWriterD1Ev(ptr noundef nonnull align 8 dereferenceable(33) %writer) #21
  call void @_ZN19OpenColorIO_v2_4dev12XmlFormatterD1Ev(ptr noundef nonnull align 8 dereferenceable(16) %fmt) #21
  %21 = load ptr, ptr %_M_refcount.i.i.i, align 8
  %cmp.not.i.i.i23 = icmp eq ptr %21, null
  br i1 %cmp.not.i.i.i23, label %_ZNSt10shared_ptrIN19OpenColorIO_v2_4dev18CTFReaderTransformEED2Ev.exit, label %if.then.i.i.i24

if.then.i.i.i24:                                  ; preds = %invoke.cont39
  %_M_use_count.i.i.i.i25 = getelementptr inbounds %"class.std::_Sp_counted_base", ptr %21, i64 0, i32 1
  %22 = load atomic i64, ptr %_M_use_count.i.i.i.i25 acquire, align 8
  %cmp.i.i.i.i26 = icmp eq i64 %22, 4294967297
  %23 = trunc i64 %22 to i32
  br i1 %cmp.i.i.i.i26, label %if.then.i.i.i.i49, label %if.end.i.i.i.i27

if.then.i.i.i.i49:                                ; preds = %if.then.i.i.i24
  store i32 0, ptr %_M_use_count.i.i.i.i25, align 8
  %_M_weak_count.i.i.i.i50 = getelementptr inbounds %"class.std::_Sp_counted_base", ptr %21, i64 0, i32 2
  store i32 0, ptr %_M_weak_count.i.i.i.i50, align 4
  %vtable.i.i.i.i51 = load ptr, ptr %21, align 8
  %vfn.i.i.i.i52 = getelementptr inbounds ptr, ptr %vtable.i.i.i.i51, i64 2
  %24 = load ptr, ptr %vfn.i.i.i.i52, align 8
  call void %24(ptr noundef nonnull align 8 dereferenceable(16) %21) #21
  br label %if.end8.sink.split.i.i.i.i44

if.end.i.i.i.i27:                                 ; preds = %if.then.i.i.i24
  %25 = load i8, ptr @__libc_single_threaded, align 1
  %tobool.i.i.not.i.i.i.i28 = icmp eq i8 %25, 0
  br i1 %tobool.i.i.not.i.i.i.i28, label %if.else.i.i.i.i.i48, label %if.then.i.i.i.i.i29

if.then.i.i.i.i.i29:                              ; preds = %if.end.i.i.i.i27
  %add.i.i.i.i.i30 = add nsw i32 %23, -1
  store i32 %add.i.i.i.i.i30, ptr %_M_use_count.i.i.i.i25, align 4
  br label %_ZN9__gnu_cxx27__exchange_and_add_dispatchEPii.exit.i.i.i.i31

if.else.i.i.i.i.i48:                              ; preds = %if.end.i.i.i.i27
  %26 = atomicrmw volatile add ptr %_M_use_count.i.i.i.i25, i32 -1 acq_rel, align 4
  br label %_ZN9__gnu_cxx27__exchange_and_add_dispatchEPii.exit.i.i.i.i31

_ZN9__gnu_cxx27__exchange_and_add_dispatchEPii.exit.i.i.i.i31: ; preds = %if.else.i.i.i.i.i48, %if.then.i.i.i.i.i29
  %retval.i.0.i.i.i.i32 = phi i32 [ %23, %if.then.i.i.i.i.i29 ], [ %26, %if.else.i.i.i.i.i48 ]
  %cmp6.i.i.i.i33 = icmp eq i32 %retval.i.0.i.i.i.i32, 1
  br i1 %cmp6.i.i.i.i33, label %if.then7.i.i.i.i34, label %_ZNSt10shared_ptrIN19OpenColorIO_v2_4dev18CTFReaderTransformEED2Ev.exit

if.then7.i.i.i.i34:                               ; preds = %_ZN9__gnu_cxx27__exchange_and_add_dispatchEPii.exit.i.i.i.i31
  %vtable.i.i.i.i.i.i35 = load ptr, ptr %21, align 8
  %vfn.i.i.i.i.i.i36 = getelementptr inbounds ptr, ptr %vtable.i.i.i.i.i.i35, i64 2
  %27 = load ptr, ptr %vfn.i.i.i.i.i.i36, align 8
  call void %27(ptr noundef nonnull align 8 dereferenceable(16) %21) #21
  %_M_weak_count.i.i.i.i.i.i37 = getelementptr inbounds %"class.std::_Sp_counted_base", ptr %21, i64 0, i32 2
  %28 = load i8, ptr @__libc_single_threaded, align 1
  %tobool.i.i.not.i.i.i.i.i.i38 = icmp eq i8 %28, 0
  br i1 %tobool.i.i.not.i.i.i.i.i.i38, label %if.else.i.i.i.i.i.i.i47, label %if.then.i.i.i.i.i.i.i39

if.then.i.i.i.i.i.i.i39:                          ; preds = %if.then7.i.i.i.i34
  %29 = load i32, ptr %_M_weak_count.i.i.i.i.i.i37, align 4
  %add.i.i.i.i.i.i.i40 = add nsw i32 %29, -1
  store i32 %add.i.i.i.i.i.i.i40, ptr %_M_weak_count.i.i.i.i.i.i37, align 4
  br label %_ZN9__gnu_cxx27__exchange_and_add_dispatchEPii.exit.i.i.i.i.i.i41

if.else.i.i.i.i.i.i.i47:                          ; preds = %if.then7.i.i.i.i34
  %30 = atomicrmw volatile add ptr %_M_weak_count.i.i.i.i.i.i37, i32 -1 acq_rel, align 4
  br label %_ZN9__gnu_cxx27__exchange_and_add_dispatchEPii.exit.i.i.i.i.i.i41

_ZN9__gnu_cxx27__exchange_and_add_dispatchEPii.exit.i.i.i.i.i.i41: ; preds = %if.else.i.i.i.i.i.i.i47, %if.then.i.i.i.i.i.i.i39
  %retval.i.0.i.i.i.i.i.i42 = phi i32 [ %29, %if.then.i.i.i.i.i.i.i39 ], [ %30, %if.else.i.i.i.i.i.i.i47 ]
  %cmp.i.i.i.i.i.i43 = icmp eq i32 %retval.i.0.i.i.i.i.i.i42, 1
  br i1 %cmp.i.i.i.i.i.i43, label %if.end8.sink.split.i.i.i.i44, label %_ZNSt10shared_ptrIN19OpenColorIO_v2_4dev18CTFReaderTransformEED2Ev.exit

if.end8.sink.split.i.i.i.i44:                     ; preds = %_ZN9__gnu_cxx27__exchange_and_add_dispatchEPii.exit.i.i.i.i.i.i41, %if.then.i.i.i.i49
  %vtable2.i.i.i.i.i.i45 = load ptr, ptr %21, align 8
  %vfn3.i.i.i.i.i.i46 = getelementptr inbounds ptr, ptr %vtable2.i.i.i.i.i.i45, i64 3
  %31 = load ptr, ptr %vfn3.i.i.i.i.i.i46, align 8
  call void %31(ptr noundef nonnull align 8 dereferenceable(16) %21) #21
  br label %_ZNSt10shared_ptrIN19OpenColorIO_v2_4dev18CTFReaderTransformEED2Ev.exit

_ZNSt10shared_ptrIN19OpenColorIO_v2_4dev18CTFReaderTransformEED2Ev.exit: ; preds = %invoke.cont39, %_ZN9__gnu_cxx27__exchange_and_add_dispatchEPii.exit.i.i.i.i31, %_ZN9__gnu_cxx27__exchange_and_add_dispatchEPii.exit.i.i.i.i.i.i41, %if.end8.sink.split.i.i.i.i44
  call void @_ZN19OpenColorIO_v2_4dev18FormatMetadataImplD1Ev(ptr noundef nonnull align 8 dereferenceable(120) %ref.tmp24) #21
  call void @_ZN19OpenColorIO_v2_4dev10OpRcPtrVecD2Ev(ptr noundef nonnull align 8 dereferenceable(144) %ops) #21
  ret void

lpad20:                                           ; preds = %invoke.cont23, %invoke.cont22, %invoke.cont21, %if.end18
  %32 = landingpad { ptr, i32 }
          cleanup
  br label %ehcleanup44

lpad27:                                           ; preds = %invoke.cont26
  %33 = landingpad { ptr, i32 }
          cleanup
  br label %ehcleanup43

lpad29:                                           ; preds = %invoke.cont32, %invoke.cont30, %invoke.cont28
  %34 = landingpad { ptr, i32 }
          cleanup
  br label %ehcleanup42

lpad35:                                           ; preds = %_ZNSt10shared_ptrIKN19OpenColorIO_v2_4dev18CTFReaderTransformEEC2IS1_vEERKS_IT_E.exit
  %35 = landingpad { ptr, i32 }
          cleanup
  call void @_ZNSt10shared_ptrIKN19OpenColorIO_v2_4dev18CTFReaderTransformEED2Ev(ptr noundef nonnull align 8 dereferenceable(16) %agg.tmp) #21
  br label %ehcleanup41

lpad38:                                           ; preds = %_ZNSt10shared_ptrIKN19OpenColorIO_v2_4dev18CTFReaderTransformEED2Ev.exit
  %36 = landingpad { ptr, i32 }
          cleanup
  call void @_ZN19OpenColorIO_v2_4dev15TransformWriterD1Ev(ptr noundef nonnull align 8 dereferenceable(33) %writer) #21
  br label %ehcleanup41

ehcleanup41:                                      ; preds = %lpad38, %lpad35
  %.pn7 = phi { ptr, i32 } [ %36, %lpad38 ], [ %35, %lpad35 ]
  call void @_ZN19OpenColorIO_v2_4dev12XmlFormatterD1Ev(ptr noundef nonnull align 8 dereferenceable(16) %fmt) #21
  br label %ehcleanup42

ehcleanup42:                                      ; preds = %ehcleanup41, %lpad29
  %.pn7.pn = phi { ptr, i32 } [ %.pn7, %ehcleanup41 ], [ %34, %lpad29 ]
  call void @_ZNSt10shared_ptrIN19OpenColorIO_v2_4dev18CTFReaderTransformEED2Ev(ptr noundef nonnull align 8 dereferenceable(16) %transform) #21
  br label %ehcleanup43

ehcleanup43:                                      ; preds = %lpad27, %_ZNSt15__allocated_ptrISaISt23_Sp_counted_ptr_inplaceIN19OpenColorIO_v2_4dev18CTFReaderTransformESaIvELN9__gnu_cxx12_Lock_policyE2EEEED2Ev.exit9.i.i.i.i, %ehcleanup42
  %.pn7.pn.pn = phi { ptr, i32 } [ %.pn7.pn, %ehcleanup42 ], [ %33, %lpad27 ], [ %6, %_ZNSt15__allocated_ptrISaISt23_Sp_counted_ptr_inplaceIN19OpenColorIO_v2_4dev18CTFReaderTransformESaIvELN9__gnu_cxx12_Lock_policyE2EEEED2Ev.exit9.i.i.i.i ]
  call void @_ZN19OpenColorIO_v2_4dev18FormatMetadataImplD1Ev(ptr noundef nonnull align 8 dereferenceable(120) %ref.tmp24) #21
  br label %ehcleanup44

ehcleanup44:                                      ; preds = %ehcleanup43, %lpad20
  %.pn7.pn.pn.pn = phi { ptr, i32 } [ %.pn7.pn.pn, %ehcleanup43 ], [ %32, %lpad20 ]
  call void @_ZN19OpenColorIO_v2_4dev10OpRcPtrVecD2Ev(ptr noundef nonnull align 8 dereferenceable(144) %ops) #21
  br label %eh.resume

eh.resume:                                        ; preds = %ehcleanup44, %ehcleanup17
  %.pn7.pn.pn.pn.pn = phi { ptr, i32 } [ %.pn7.pn.pn.pn, %ehcleanup44 ], [ %.pn.pn, %ehcleanup17 ]
  resume { ptr, i32 } %.pn7.pn.pn.pn.pn

unreachable:                                      ; preds = %invoke.cont16
  unreachable
}

; Function Attrs: mustprogress uwtable
define internal void @_ZNK19OpenColorIO_v2_4dev12_GLOBAL__N_115LocalFileFormat12buildFileOpsERNS_10OpRcPtrVecERKNS_6ConfigERKSt10shared_ptrIKNS_7ContextEES7_INS_10CachedFileEERKNS_13FileTransformENS_18TransformDirectionE(ptr nocapture nonnull readnone align 8 %this, ptr noundef nonnull align 8 dereferenceable(144) %ops, ptr noundef nonnull align 8 dereferenceable(8) %config, ptr noundef nonnull align 8 dereferenceable(16) %context, ptr nocapture noundef readonly %untypedCachedFile, ptr noundef nonnull align 8 dereferenceable(16) %fileTransform, i32 noundef %dir) unnamed_addr #4 align 2 personality ptr @__gxx_personality_v0 {
entry:
  %opData = alloca %"class.std::shared_ptr.363", align 8
  %opData30 = alloca %"class.std::shared_ptr.363", align 8
  %untypedCachedFile.val = load ptr, ptr %untypedCachedFile, align 8
  %0 = getelementptr i8, ptr %untypedCachedFile, i64 8
  %untypedCachedFile.val15 = load ptr, ptr %0, align 8
  %1 = icmp eq ptr %untypedCachedFile.val, null
  br i1 %1, label %if.then, label %dynamic_cast.end.i.i

dynamic_cast.end.i.i:                             ; preds = %entry
  %2 = tail call ptr @__dynamic_cast(ptr nonnull %untypedCachedFile.val, ptr nonnull @_ZTIN19OpenColorIO_v2_4dev10CachedFileE, ptr nonnull @_ZTIN19OpenColorIO_v2_4dev12_GLOBAL__N_115LocalCachedFileE, i64 0) #21, !noalias !32
  %tobool.not.i.i = icmp eq ptr %2, null
  br i1 %tobool.not.i.i, label %if.then, label %if.then.i.i

if.then.i.i:                                      ; preds = %dynamic_cast.end.i.i
  %cmp.not.i.i.i.i.i = icmp eq ptr %untypedCachedFile.val15, null
  br i1 %cmp.not.i.i.i.i.i, label %if.end, label %if.then.i.i.i.i.i

if.then.i.i.i.i.i:                                ; preds = %if.then.i.i
  %_M_use_count.i.i.i.i.i.i = getelementptr inbounds %"class.std::_Sp_counted_base", ptr %untypedCachedFile.val15, i64 0, i32 1
  %3 = load i8, ptr @__libc_single_threaded, align 1, !noalias !32
  %tobool.i.not.i.i.i.i.i.i = icmp eq i8 %3, 0
  br i1 %tobool.i.not.i.i.i.i.i.i, label %if.else.i.i.i.i.i.i.i, label %if.then.i.i.i.i.i.i.i

if.then.i.i.i.i.i.i.i:                            ; preds = %if.then.i.i.i.i.i
  %4 = load i32, ptr %_M_use_count.i.i.i.i.i.i, align 4, !noalias !32
  %add.i.i.i.i.i.i.i = add nsw i32 %4, 1
  store i32 %add.i.i.i.i.i.i.i, ptr %_M_use_count.i.i.i.i.i.i, align 4, !noalias !32
  br label %if.end

if.else.i.i.i.i.i.i.i:                            ; preds = %if.then.i.i.i.i.i
  %5 = atomicrmw volatile add ptr %_M_use_count.i.i.i.i.i.i, i32 1 acq_rel, align 4, !noalias !32
  br label %if.end

if.then:                                          ; preds = %dynamic_cast.end.i.i, %entry
  %exception = tail call ptr @__cxa_allocate_exception(i64 16) #21
  invoke void @_ZN19OpenColorIO_v2_4dev9ExceptionC1EPKc(ptr noundef nonnull align 8 dereferenceable(16) %exception, ptr noundef nonnull @.str.70)
          to label %invoke.cont unwind label %lpad

invoke.cont:                                      ; preds = %if.then
  invoke void @__cxa_throw(ptr nonnull %exception, ptr nonnull @_ZTIN19OpenColorIO_v2_4dev9ExceptionE, ptr nonnull @_ZN19OpenColorIO_v2_4dev9ExceptionD1Ev) #25
          to label %unreachable unwind label %lpad2

lpad:                                             ; preds = %if.then
  %6 = landingpad { ptr, i32 }
          cleanup
  tail call void @__cxa_free_exception(ptr %exception) #21
  br label %ehcleanup

lpad2:                                            ; preds = %invoke.cont10, %invoke.cont4, %if.end, %invoke.cont
  %cachedFile.sroa.5.0112 = phi ptr [ %untypedCachedFile.val15, %invoke.cont10 ], [ %untypedCachedFile.val15, %invoke.cont4 ], [ %untypedCachedFile.val15, %if.end ], [ null, %invoke.cont ]
  %7 = landingpad { ptr, i32 }
          cleanup
  br label %ehcleanup

if.end:                                           ; preds = %if.then.i.i, %if.else.i.i.i.i.i.i.i, %if.then.i.i.i.i.i.i.i
  %vtable = load ptr, ptr %fileTransform, align 8
  %vfn = getelementptr inbounds ptr, ptr %vtable, i64 1
  %8 = load ptr, ptr %vfn, align 8
  %call3 = tail call noundef i32 %8(ptr noundef nonnull align 8 dereferenceable(16) %fileTransform) #21
  %call5 = invoke noundef i32 @_ZN19OpenColorIO_v2_4dev26CombineTransformDirectionsENS_18TransformDirectionES0_(i32 noundef %dir, i32 noundef %call3)
          to label %invoke.cont4 unwind label %lpad2

invoke.cont4:                                     ; preds = %if.end
  %m_metadata.i = getelementptr inbounds %"class.OpenColorIO_v2_4dev::OpRcPtrVec", ptr %ops, i64 0, i32 1
  %m_transform = getelementptr inbounds %"class.OpenColorIO_v2_4dev::(anonymous namespace)::LocalCachedFile", ptr %2, i64 0, i32 1
  %9 = load ptr, ptr %m_transform, align 8
  invoke void @_ZNK19OpenColorIO_v2_4dev18CTFReaderTransform10toMetadataERNS_18FormatMetadataImplE(ptr noundef nonnull align 8 dereferenceable(356) %9, ptr noundef nonnull align 8 dereferenceable(120) %m_metadata.i)
          to label %invoke.cont10 unwind label %lpad2

invoke.cont10:                                    ; preds = %invoke.cont4
  %10 = load ptr, ptr %m_transform, align 8
  %m_ops.i = getelementptr inbounds %"class.OpenColorIO_v2_4dev::CTFReaderTransform", ptr %10, i64 0, i32 6
  %call16 = invoke noundef i32 @_ZNK19OpenColorIO_v2_4dev13FileTransform16getInterpolationEv(ptr noundef nonnull align 8 dereferenceable(16) %fileTransform)
          to label %invoke.cont15 unwind label %lpad2

invoke.cont15:                                    ; preds = %invoke.cont10
  switch i32 %call5, label %sw.epilog [
    i32 0, label %sw.bb
    i32 1, label %sw.bb26
  ]

sw.bb:                                            ; preds = %invoke.cont15
  %11 = load ptr, ptr %m_ops.i, align 8
  %_M_finish.i = getelementptr inbounds %"class.OpenColorIO_v2_4dev::CTFReaderTransform", ptr %10, i64 0, i32 6, i32 0, i32 0, i32 0, i32 1
  %12 = load ptr, ptr %_M_finish.i, align 8
  %cmp.i20.not118 = icmp eq ptr %11, %12
  br i1 %cmp.i20.not118, label %sw.epilog, label %for.body.lr.ph

for.body.lr.ph:                                   ; preds = %sw.bb
  %_M_refcount.i.i = getelementptr inbounds %"class.std::__shared_ptr.364", ptr %opData, i64 0, i32 1
  br label %for.body

for.body:                                         ; preds = %for.body.lr.ph, %_ZNSt10shared_ptrIKN19OpenColorIO_v2_4dev6OpDataEED2Ev.exit
  %__begin3.sroa.0.0119 = phi ptr [ %11, %for.body.lr.ph ], [ %incdec.ptr.i, %_ZNSt10shared_ptrIKN19OpenColorIO_v2_4dev6OpDataEED2Ev.exit ]
  %13 = load ptr, ptr %__begin3.sroa.0.0119, align 8
  store ptr %13, ptr %opData, align 8
  %_M_refcount3.i.i = getelementptr inbounds %"class.std::__shared_ptr.364", ptr %__begin3.sroa.0.0119, i64 0, i32 1
  %14 = load ptr, ptr %_M_refcount3.i.i, align 8
  store ptr %14, ptr %_M_refcount.i.i, align 8
  %cmp.not.i.i.i = icmp eq ptr %14, null
  br i1 %cmp.not.i.i.i, label %_ZNSt10shared_ptrIKN19OpenColorIO_v2_4dev6OpDataEEC2ERKS3_.exit, label %if.then.i.i.i

if.then.i.i.i:                                    ; preds = %for.body
  %_M_use_count.i.i.i.i = getelementptr inbounds %"class.std::_Sp_counted_base", ptr %14, i64 0, i32 1
  %15 = load i8, ptr @__libc_single_threaded, align 1
  %tobool.i.not.i.i.i.i = icmp eq i8 %15, 0
  br i1 %tobool.i.not.i.i.i.i, label %if.else.i.i.i.i.i, label %if.then.i.i.i.i.i21

if.then.i.i.i.i.i21:                              ; preds = %if.then.i.i.i
  %16 = load i32, ptr %_M_use_count.i.i.i.i, align 4
  %add.i.i.i.i.i = add nsw i32 %16, 1
  store i32 %add.i.i.i.i.i, ptr %_M_use_count.i.i.i.i, align 4
  br label %_ZNSt10shared_ptrIKN19OpenColorIO_v2_4dev6OpDataEEC2ERKS3_.exit

if.else.i.i.i.i.i:                                ; preds = %if.then.i.i.i
  %17 = atomicrmw volatile add ptr %_M_use_count.i.i.i.i, i32 1 acq_rel, align 4
  br label %_ZNSt10shared_ptrIKN19OpenColorIO_v2_4dev6OpDataEEC2ERKS3_.exit

_ZNSt10shared_ptrIKN19OpenColorIO_v2_4dev6OpDataEEC2ERKS3_.exit: ; preds = %for.body, %if.then.i.i.i.i.i21, %if.else.i.i.i.i.i
  invoke fastcc void @_ZN19OpenColorIO_v2_4dev12_GLOBAL__N_19HandleLUTERSt10shared_ptrIKNS_6OpDataEENS_13InterpolationE(ptr noundef nonnull align 8 dereferenceable(16) %opData, i32 noundef %call16)
          to label %invoke.cont23 unwind label %lpad22

invoke.cont23:                                    ; preds = %_ZNSt10shared_ptrIKN19OpenColorIO_v2_4dev6OpDataEEC2ERKS3_.exit
  invoke fastcc void @_ZN19OpenColorIO_v2_4dev12_GLOBAL__N_17BuildOpERNS_10OpRcPtrVecERKNS_6ConfigERKSt10shared_ptrIKNS_7ContextEERKS6_IKNS_6OpDataEENS_18TransformDirectionE(ptr noundef nonnull align 8 dereferenceable(144) %ops, ptr noundef nonnull align 8 dereferenceable(8) %config, ptr noundef nonnull align 8 dereferenceable(16) %context, ptr noundef nonnull align 8 dereferenceable(16) %opData, i32 noundef 0)
          to label %invoke.cont24 unwind label %lpad22

invoke.cont24:                                    ; preds = %invoke.cont23
  %18 = load ptr, ptr %_M_refcount.i.i, align 8
  %cmp.not.i.i.i23 = icmp eq ptr %18, null
  br i1 %cmp.not.i.i.i23, label %_ZNSt10shared_ptrIKN19OpenColorIO_v2_4dev6OpDataEED2Ev.exit, label %if.then.i.i.i24

if.then.i.i.i24:                                  ; preds = %invoke.cont24
  %_M_use_count.i.i.i.i25 = getelementptr inbounds %"class.std::_Sp_counted_base", ptr %18, i64 0, i32 1
  %19 = load atomic i64, ptr %_M_use_count.i.i.i.i25 acquire, align 8
  %cmp.i.i.i.i = icmp eq i64 %19, 4294967297
  %20 = trunc i64 %19 to i32
  br i1 %cmp.i.i.i.i, label %if.then.i.i.i.i, label %if.end.i.i.i.i

if.then.i.i.i.i:                                  ; preds = %if.then.i.i.i24
  store i32 0, ptr %_M_use_count.i.i.i.i25, align 8
  %_M_weak_count.i.i.i.i = getelementptr inbounds %"class.std::_Sp_counted_base", ptr %18, i64 0, i32 2
  store i32 0, ptr %_M_weak_count.i.i.i.i, align 4
  %vtable.i.i.i.i = load ptr, ptr %18, align 8
  %vfn.i.i.i.i = getelementptr inbounds ptr, ptr %vtable.i.i.i.i, i64 2
  %21 = load ptr, ptr %vfn.i.i.i.i, align 8
  call void %21(ptr noundef nonnull align 8 dereferenceable(16) %18) #21
  br label %if.end8.sink.split.i.i.i.i

if.end.i.i.i.i:                                   ; preds = %if.then.i.i.i24
  %22 = load i8, ptr @__libc_single_threaded, align 1
  %tobool.i.i.not.i.i.i.i = icmp eq i8 %22, 0
  br i1 %tobool.i.i.not.i.i.i.i, label %if.else.i.i.i.i.i31, label %if.then.i.i.i.i.i26

if.then.i.i.i.i.i26:                              ; preds = %if.end.i.i.i.i
  %add.i.i.i.i.i27 = add nsw i32 %20, -1
  store i32 %add.i.i.i.i.i27, ptr %_M_use_count.i.i.i.i25, align 4
  br label %_ZN9__gnu_cxx27__exchange_and_add_dispatchEPii.exit.i.i.i.i

if.else.i.i.i.i.i31:                              ; preds = %if.end.i.i.i.i
  %23 = atomicrmw volatile add ptr %_M_use_count.i.i.i.i25, i32 -1 acq_rel, align 4
  br label %_ZN9__gnu_cxx27__exchange_and_add_dispatchEPii.exit.i.i.i.i

_ZN9__gnu_cxx27__exchange_and_add_dispatchEPii.exit.i.i.i.i: ; preds = %if.else.i.i.i.i.i31, %if.then.i.i.i.i.i26
  %retval.i.0.i.i.i.i = phi i32 [ %20, %if.then.i.i.i.i.i26 ], [ %23, %if.else.i.i.i.i.i31 ]
  %cmp6.i.i.i.i = icmp eq i32 %retval.i.0.i.i.i.i, 1
  br i1 %cmp6.i.i.i.i, label %if.then7.i.i.i.i, label %_ZNSt10shared_ptrIKN19OpenColorIO_v2_4dev6OpDataEED2Ev.exit

if.then7.i.i.i.i:                                 ; preds = %_ZN9__gnu_cxx27__exchange_and_add_dispatchEPii.exit.i.i.i.i
  %vtable.i.i.i.i.i.i = load ptr, ptr %18, align 8
  %vfn.i.i.i.i.i.i = getelementptr inbounds ptr, ptr %vtable.i.i.i.i.i.i, i64 2
  %24 = load ptr, ptr %vfn.i.i.i.i.i.i, align 8
  call void %24(ptr noundef nonnull align 8 dereferenceable(16) %18) #21
  %_M_weak_count.i.i.i.i.i.i = getelementptr inbounds %"class.std::_Sp_counted_base", ptr %18, i64 0, i32 2
  %25 = load i8, ptr @__libc_single_threaded, align 1
  %tobool.i.i.not.i.i.i.i.i.i = icmp eq i8 %25, 0
  br i1 %tobool.i.i.not.i.i.i.i.i.i, label %if.else.i.i.i.i.i.i.i30, label %if.then.i.i.i.i.i.i.i28

if.then.i.i.i.i.i.i.i28:                          ; preds = %if.then7.i.i.i.i
  %26 = load i32, ptr %_M_weak_count.i.i.i.i.i.i, align 4
  %add.i.i.i.i.i.i.i29 = add nsw i32 %26, -1
  store i32 %add.i.i.i.i.i.i.i29, ptr %_M_weak_count.i.i.i.i.i.i, align 4
  br label %_ZN9__gnu_cxx27__exchange_and_add_dispatchEPii.exit.i.i.i.i.i.i

if.else.i.i.i.i.i.i.i30:                          ; preds = %if.then7.i.i.i.i
  %27 = atomicrmw volatile add ptr %_M_weak_count.i.i.i.i.i.i, i32 -1 acq_rel, align 4
  br label %_ZN9__gnu_cxx27__exchange_and_add_dispatchEPii.exit.i.i.i.i.i.i

_ZN9__gnu_cxx27__exchange_and_add_dispatchEPii.exit.i.i.i.i.i.i: ; preds = %if.else.i.i.i.i.i.i.i30, %if.then.i.i.i.i.i.i.i28
  %retval.i.0.i.i.i.i.i.i = phi i32 [ %26, %if.then.i.i.i.i.i.i.i28 ], [ %27, %if.else.i.i.i.i.i.i.i30 ]
  %cmp.i.i.i.i.i.i = icmp eq i32 %retval.i.0.i.i.i.i.i.i, 1
  br i1 %cmp.i.i.i.i.i.i, label %if.end8.sink.split.i.i.i.i, label %_ZNSt10shared_ptrIKN19OpenColorIO_v2_4dev6OpDataEED2Ev.exit

if.end8.sink.split.i.i.i.i:                       ; preds = %_ZN9__gnu_cxx27__exchange_and_add_dispatchEPii.exit.i.i.i.i.i.i, %if.then.i.i.i.i
  %vtable2.i.i.i.i.i.i = load ptr, ptr %18, align 8
  %vfn3.i.i.i.i.i.i = getelementptr inbounds ptr, ptr %vtable2.i.i.i.i.i.i, i64 3
  %28 = load ptr, ptr %vfn3.i.i.i.i.i.i, align 8
  call void %28(ptr noundef nonnull align 8 dereferenceable(16) %18) #21
  br label %_ZNSt10shared_ptrIKN19OpenColorIO_v2_4dev6OpDataEED2Ev.exit

_ZNSt10shared_ptrIKN19OpenColorIO_v2_4dev6OpDataEED2Ev.exit: ; preds = %invoke.cont24, %_ZN9__gnu_cxx27__exchange_and_add_dispatchEPii.exit.i.i.i.i, %_ZN9__gnu_cxx27__exchange_and_add_dispatchEPii.exit.i.i.i.i.i.i, %if.end8.sink.split.i.i.i.i
  %incdec.ptr.i = getelementptr inbounds %"class.std::shared_ptr.363", ptr %__begin3.sroa.0.0119, i64 1
  %cmp.i20.not = icmp eq ptr %incdec.ptr.i, %12
  br i1 %cmp.i20.not, label %sw.epilog, label %for.body

lpad22:                                           ; preds = %invoke.cont23, %_ZNSt10shared_ptrIKN19OpenColorIO_v2_4dev6OpDataEEC2ERKS3_.exit
  %29 = landingpad { ptr, i32 }
          cleanup
  call void @_ZNSt10shared_ptrIKN19OpenColorIO_v2_4dev6OpDataEED2Ev(ptr noundef nonnull align 8 dereferenceable(16) %opData) #21
  br label %ehcleanup

sw.bb26:                                          ; preds = %invoke.cont15
  %_M_finish.i32 = getelementptr inbounds %"class.OpenColorIO_v2_4dev::CTFReaderTransform", ptr %10, i64 0, i32 6, i32 0, i32 0, i32 0, i32 1
  %30 = load ptr, ptr %_M_finish.i32, align 8
  %31 = load ptr, ptr %m_ops.i, align 8
  %sub.ptr.lhs.cast.i = ptrtoint ptr %30 to i64
  %sub.ptr.rhs.cast.i = ptrtoint ptr %31 to i64
  %sub.ptr.sub.i = sub i64 %sub.ptr.lhs.cast.i, %sub.ptr.rhs.cast.i
  %sub.ptr.div.i = lshr exact i64 %sub.ptr.sub.i, 4
  %conv = trunc i64 %sub.ptr.div.i to i32
  %cmp116 = icmp sgt i32 %conv, 0
  br i1 %cmp116, label %for.body29.lr.ph, label %sw.epilog

for.body29.lr.ph:                                 ; preds = %sw.bb26
  %_M_refcount.i.i33 = getelementptr inbounds %"class.std::__shared_ptr.364", ptr %opData30, i64 0, i32 1
  %32 = and i64 %sub.ptr.div.i, 4294967295
  br label %for.body29

for.body29:                                       ; preds = %for.body29.lr.ph, %_ZNSt10shared_ptrIKN19OpenColorIO_v2_4dev6OpDataEED2Ev.exit74
  %indvars.iv = phi i64 [ %32, %for.body29.lr.ph ], [ %indvars.iv.next, %_ZNSt10shared_ptrIKN19OpenColorIO_v2_4dev6OpDataEED2Ev.exit74 ]
  %indvars.iv.next = add nsw i64 %indvars.iv, -1
  %33 = load ptr, ptr %m_ops.i, align 8
  %add.ptr.i = getelementptr inbounds %"class.std::shared_ptr.363", ptr %33, i64 %indvars.iv.next
  %34 = load ptr, ptr %add.ptr.i, align 8
  store ptr %34, ptr %opData30, align 8
  %_M_refcount3.i.i34 = getelementptr inbounds %"class.std::__shared_ptr.364", ptr %add.ptr.i, i64 0, i32 1
  %35 = load ptr, ptr %_M_refcount3.i.i34, align 8
  store ptr %35, ptr %_M_refcount.i.i33, align 8
  %cmp.not.i.i.i35 = icmp eq ptr %35, null
  br i1 %cmp.not.i.i.i35, label %_ZNSt10shared_ptrIKN19OpenColorIO_v2_4dev6OpDataEEC2ERKS3_.exit42, label %if.then.i.i.i36

if.then.i.i.i36:                                  ; preds = %for.body29
  %_M_use_count.i.i.i.i37 = getelementptr inbounds %"class.std::_Sp_counted_base", ptr %35, i64 0, i32 1
  %36 = load i8, ptr @__libc_single_threaded, align 1
  %tobool.i.not.i.i.i.i38 = icmp eq i8 %36, 0
  br i1 %tobool.i.not.i.i.i.i38, label %if.else.i.i.i.i.i41, label %if.then.i.i.i.i.i39

if.then.i.i.i.i.i39:                              ; preds = %if.then.i.i.i36
  %37 = load i32, ptr %_M_use_count.i.i.i.i37, align 4
  %add.i.i.i.i.i40 = add nsw i32 %37, 1
  store i32 %add.i.i.i.i.i40, ptr %_M_use_count.i.i.i.i37, align 4
  br label %_ZNSt10shared_ptrIKN19OpenColorIO_v2_4dev6OpDataEEC2ERKS3_.exit42

if.else.i.i.i.i.i41:                              ; preds = %if.then.i.i.i36
  %38 = atomicrmw volatile add ptr %_M_use_count.i.i.i.i37, i32 1 acq_rel, align 4
  br label %_ZNSt10shared_ptrIKN19OpenColorIO_v2_4dev6OpDataEEC2ERKS3_.exit42

_ZNSt10shared_ptrIKN19OpenColorIO_v2_4dev6OpDataEEC2ERKS3_.exit42: ; preds = %for.body29, %if.then.i.i.i.i.i39, %if.else.i.i.i.i.i41
  invoke fastcc void @_ZN19OpenColorIO_v2_4dev12_GLOBAL__N_19HandleLUTERSt10shared_ptrIKNS_6OpDataEENS_13InterpolationE(ptr noundef nonnull align 8 dereferenceable(16) %opData30, i32 noundef %call16)
          to label %invoke.cont34 unwind label %lpad33

invoke.cont34:                                    ; preds = %_ZNSt10shared_ptrIKN19OpenColorIO_v2_4dev6OpDataEEC2ERKS3_.exit42
  invoke fastcc void @_ZN19OpenColorIO_v2_4dev12_GLOBAL__N_17BuildOpERNS_10OpRcPtrVecERKNS_6ConfigERKSt10shared_ptrIKNS_7ContextEERKS6_IKNS_6OpDataEENS_18TransformDirectionE(ptr noundef nonnull align 8 dereferenceable(144) %ops, ptr noundef nonnull align 8 dereferenceable(8) %config, ptr noundef nonnull align 8 dereferenceable(16) %context, ptr noundef nonnull align 8 dereferenceable(16) %opData30, i32 noundef 1)
          to label %invoke.cont35 unwind label %lpad33

invoke.cont35:                                    ; preds = %invoke.cont34
  %39 = load ptr, ptr %_M_refcount.i.i33, align 8
  %cmp.not.i.i.i44 = icmp eq ptr %39, null
  br i1 %cmp.not.i.i.i44, label %_ZNSt10shared_ptrIKN19OpenColorIO_v2_4dev6OpDataEED2Ev.exit74, label %if.then.i.i.i45

if.then.i.i.i45:                                  ; preds = %invoke.cont35
  %_M_use_count.i.i.i.i46 = getelementptr inbounds %"class.std::_Sp_counted_base", ptr %39, i64 0, i32 1
  %40 = load atomic i64, ptr %_M_use_count.i.i.i.i46 acquire, align 8
  %cmp.i.i.i.i47 = icmp eq i64 %40, 4294967297
  %41 = trunc i64 %40 to i32
  br i1 %cmp.i.i.i.i47, label %if.then.i.i.i.i70, label %if.end.i.i.i.i48

if.then.i.i.i.i70:                                ; preds = %if.then.i.i.i45
  store i32 0, ptr %_M_use_count.i.i.i.i46, align 8
  %_M_weak_count.i.i.i.i71 = getelementptr inbounds %"class.std::_Sp_counted_base", ptr %39, i64 0, i32 2
  store i32 0, ptr %_M_weak_count.i.i.i.i71, align 4
  %vtable.i.i.i.i72 = load ptr, ptr %39, align 8
  %vfn.i.i.i.i73 = getelementptr inbounds ptr, ptr %vtable.i.i.i.i72, i64 2
  %42 = load ptr, ptr %vfn.i.i.i.i73, align 8
  call void %42(ptr noundef nonnull align 8 dereferenceable(16) %39) #21
  br label %if.end8.sink.split.i.i.i.i65

if.end.i.i.i.i48:                                 ; preds = %if.then.i.i.i45
  %43 = load i8, ptr @__libc_single_threaded, align 1
  %tobool.i.i.not.i.i.i.i49 = icmp eq i8 %43, 0
  br i1 %tobool.i.i.not.i.i.i.i49, label %if.else.i.i.i.i.i69, label %if.then.i.i.i.i.i50

if.then.i.i.i.i.i50:                              ; preds = %if.end.i.i.i.i48
  %add.i.i.i.i.i51 = add nsw i32 %41, -1
  store i32 %add.i.i.i.i.i51, ptr %_M_use_count.i.i.i.i46, align 4
  br label %_ZN9__gnu_cxx27__exchange_and_add_dispatchEPii.exit.i.i.i.i52

if.else.i.i.i.i.i69:                              ; preds = %if.end.i.i.i.i48
  %44 = atomicrmw volatile add ptr %_M_use_count.i.i.i.i46, i32 -1 acq_rel, align 4
  br label %_ZN9__gnu_cxx27__exchange_and_add_dispatchEPii.exit.i.i.i.i52

_ZN9__gnu_cxx27__exchange_and_add_dispatchEPii.exit.i.i.i.i52: ; preds = %if.else.i.i.i.i.i69, %if.then.i.i.i.i.i50
  %retval.i.0.i.i.i.i53 = phi i32 [ %41, %if.then.i.i.i.i.i50 ], [ %44, %if.else.i.i.i.i.i69 ]
  %cmp6.i.i.i.i54 = icmp eq i32 %retval.i.0.i.i.i.i53, 1
  br i1 %cmp6.i.i.i.i54, label %if.then7.i.i.i.i55, label %_ZNSt10shared_ptrIKN19OpenColorIO_v2_4dev6OpDataEED2Ev.exit74

if.then7.i.i.i.i55:                               ; preds = %_ZN9__gnu_cxx27__exchange_and_add_dispatchEPii.exit.i.i.i.i52
  %vtable.i.i.i.i.i.i56 = load ptr, ptr %39, align 8
  %vfn.i.i.i.i.i.i57 = getelementptr inbounds ptr, ptr %vtable.i.i.i.i.i.i56, i64 2
  %45 = load ptr, ptr %vfn.i.i.i.i.i.i57, align 8
  call void %45(ptr noundef nonnull align 8 dereferenceable(16) %39) #21
  %_M_weak_count.i.i.i.i.i.i58 = getelementptr inbounds %"class.std::_Sp_counted_base", ptr %39, i64 0, i32 2
  %46 = load i8, ptr @__libc_single_threaded, align 1
  %tobool.i.i.not.i.i.i.i.i.i59 = icmp eq i8 %46, 0
  br i1 %tobool.i.i.not.i.i.i.i.i.i59, label %if.else.i.i.i.i.i.i.i68, label %if.then.i.i.i.i.i.i.i60

if.then.i.i.i.i.i.i.i60:                          ; preds = %if.then7.i.i.i.i55
  %47 = load i32, ptr %_M_weak_count.i.i.i.i.i.i58, align 4
  %add.i.i.i.i.i.i.i61 = add nsw i32 %47, -1
  store i32 %add.i.i.i.i.i.i.i61, ptr %_M_weak_count.i.i.i.i.i.i58, align 4
  br label %_ZN9__gnu_cxx27__exchange_and_add_dispatchEPii.exit.i.i.i.i.i.i62

if.else.i.i.i.i.i.i.i68:                          ; preds = %if.then7.i.i.i.i55
  %48 = atomicrmw volatile add ptr %_M_weak_count.i.i.i.i.i.i58, i32 -1 acq_rel, align 4
  br label %_ZN9__gnu_cxx27__exchange_and_add_dispatchEPii.exit.i.i.i.i.i.i62

_ZN9__gnu_cxx27__exchange_and_add_dispatchEPii.exit.i.i.i.i.i.i62: ; preds = %if.else.i.i.i.i.i.i.i68, %if.then.i.i.i.i.i.i.i60
  %retval.i.0.i.i.i.i.i.i63 = phi i32 [ %47, %if.then.i.i.i.i.i.i.i60 ], [ %48, %if.else.i.i.i.i.i.i.i68 ]
  %cmp.i.i.i.i.i.i64 = icmp eq i32 %retval.i.0.i.i.i.i.i.i63, 1
  br i1 %cmp.i.i.i.i.i.i64, label %if.end8.sink.split.i.i.i.i65, label %_ZNSt10shared_ptrIKN19OpenColorIO_v2_4dev6OpDataEED2Ev.exit74

if.end8.sink.split.i.i.i.i65:                     ; preds = %_ZN9__gnu_cxx27__exchange_and_add_dispatchEPii.exit.i.i.i.i.i.i62, %if.then.i.i.i.i70
  %vtable2.i.i.i.i.i.i66 = load ptr, ptr %39, align 8
  %vfn3.i.i.i.i.i.i67 = getelementptr inbounds ptr, ptr %vtable2.i.i.i.i.i.i66, i64 3
  %49 = load ptr, ptr %vfn3.i.i.i.i.i.i67, align 8
  call void %49(ptr noundef nonnull align 8 dereferenceable(16) %39) #21
  br label %_ZNSt10shared_ptrIKN19OpenColorIO_v2_4dev6OpDataEED2Ev.exit74

_ZNSt10shared_ptrIKN19OpenColorIO_v2_4dev6OpDataEED2Ev.exit74: ; preds = %invoke.cont35, %_ZN9__gnu_cxx27__exchange_and_add_dispatchEPii.exit.i.i.i.i52, %_ZN9__gnu_cxx27__exchange_and_add_dispatchEPii.exit.i.i.i.i.i.i62, %if.end8.sink.split.i.i.i.i65
  %cmp = icmp ugt i64 %indvars.iv, 1
  br i1 %cmp, label %for.body29, label %sw.epilog, !llvm.loop !37

lpad33:                                           ; preds = %invoke.cont34, %_ZNSt10shared_ptrIKN19OpenColorIO_v2_4dev6OpDataEEC2ERKS3_.exit42
  %50 = landingpad { ptr, i32 }
          cleanup
  call void @_ZNSt10shared_ptrIKN19OpenColorIO_v2_4dev6OpDataEED2Ev(ptr noundef nonnull align 8 dereferenceable(16) %opData30) #21
  br label %ehcleanup

sw.epilog:                                        ; preds = %_ZNSt10shared_ptrIKN19OpenColorIO_v2_4dev6OpDataEED2Ev.exit74, %_ZNSt10shared_ptrIKN19OpenColorIO_v2_4dev6OpDataEED2Ev.exit, %sw.bb26, %sw.bb, %invoke.cont15
  br i1 %cmp.not.i.i.i.i.i, label %_ZNSt10shared_ptrIN19OpenColorIO_v2_4dev12_GLOBAL__N_115LocalCachedFileEED2Ev.exit, label %if.then.i.i.i76

if.then.i.i.i76:                                  ; preds = %sw.epilog
  %_M_use_count.i.i.i.i77 = getelementptr inbounds %"class.std::_Sp_counted_base", ptr %untypedCachedFile.val15, i64 0, i32 1
  %51 = load atomic i64, ptr %_M_use_count.i.i.i.i77 acquire, align 8
  %cmp.i.i.i.i78 = icmp eq i64 %51, 4294967297
  %52 = trunc i64 %51 to i32
  br i1 %cmp.i.i.i.i78, label %if.then.i.i.i.i101, label %if.end.i.i.i.i79

if.then.i.i.i.i101:                               ; preds = %if.then.i.i.i76
  store i32 0, ptr %_M_use_count.i.i.i.i77, align 8
  %_M_weak_count.i.i.i.i102 = getelementptr inbounds %"class.std::_Sp_counted_base", ptr %untypedCachedFile.val15, i64 0, i32 2
  store i32 0, ptr %_M_weak_count.i.i.i.i102, align 4
  %vtable.i.i.i.i103 = load ptr, ptr %untypedCachedFile.val15, align 8
  %vfn.i.i.i.i104 = getelementptr inbounds ptr, ptr %vtable.i.i.i.i103, i64 2
  %53 = load ptr, ptr %vfn.i.i.i.i104, align 8
  call void %53(ptr noundef nonnull align 8 dereferenceable(16) %untypedCachedFile.val15) #21
  br label %if.end8.sink.split.i.i.i.i96

if.end.i.i.i.i79:                                 ; preds = %if.then.i.i.i76
  %54 = load i8, ptr @__libc_single_threaded, align 1
  %tobool.i.i.not.i.i.i.i80 = icmp eq i8 %54, 0
  br i1 %tobool.i.i.not.i.i.i.i80, label %if.else.i.i.i.i.i100, label %if.then.i.i.i.i.i81

if.then.i.i.i.i.i81:                              ; preds = %if.end.i.i.i.i79
  %add.i.i.i.i.i82 = add nsw i32 %52, -1
  store i32 %add.i.i.i.i.i82, ptr %_M_use_count.i.i.i.i77, align 4
  br label %_ZN9__gnu_cxx27__exchange_and_add_dispatchEPii.exit.i.i.i.i83

if.else.i.i.i.i.i100:                             ; preds = %if.end.i.i.i.i79
  %55 = atomicrmw volatile add ptr %_M_use_count.i.i.i.i77, i32 -1 acq_rel, align 4
  br label %_ZN9__gnu_cxx27__exchange_and_add_dispatchEPii.exit.i.i.i.i83

_ZN9__gnu_cxx27__exchange_and_add_dispatchEPii.exit.i.i.i.i83: ; preds = %if.else.i.i.i.i.i100, %if.then.i.i.i.i.i81
  %retval.i.0.i.i.i.i84 = phi i32 [ %52, %if.then.i.i.i.i.i81 ], [ %55, %if.else.i.i.i.i.i100 ]
  %cmp6.i.i.i.i85 = icmp eq i32 %retval.i.0.i.i.i.i84, 1
  br i1 %cmp6.i.i.i.i85, label %if.then7.i.i.i.i86, label %_ZNSt10shared_ptrIN19OpenColorIO_v2_4dev12_GLOBAL__N_115LocalCachedFileEED2Ev.exit

if.then7.i.i.i.i86:                               ; preds = %_ZN9__gnu_cxx27__exchange_and_add_dispatchEPii.exit.i.i.i.i83
  %vtable.i.i.i.i.i.i87 = load ptr, ptr %untypedCachedFile.val15, align 8
  %vfn.i.i.i.i.i.i88 = getelementptr inbounds ptr, ptr %vtable.i.i.i.i.i.i87, i64 2
  %56 = load ptr, ptr %vfn.i.i.i.i.i.i88, align 8
  call void %56(ptr noundef nonnull align 8 dereferenceable(16) %untypedCachedFile.val15) #21
  %_M_weak_count.i.i.i.i.i.i89 = getelementptr inbounds %"class.std::_Sp_counted_base", ptr %untypedCachedFile.val15, i64 0, i32 2
  %57 = load i8, ptr @__libc_single_threaded, align 1
  %tobool.i.i.not.i.i.i.i.i.i90 = icmp eq i8 %57, 0
  br i1 %tobool.i.i.not.i.i.i.i.i.i90, label %if.else.i.i.i.i.i.i.i99, label %if.then.i.i.i.i.i.i.i91

if.then.i.i.i.i.i.i.i91:                          ; preds = %if.then7.i.i.i.i86
  %58 = load i32, ptr %_M_weak_count.i.i.i.i.i.i89, align 4
  %add.i.i.i.i.i.i.i92 = add nsw i32 %58, -1
  store i32 %add.i.i.i.i.i.i.i92, ptr %_M_weak_count.i.i.i.i.i.i89, align 4
  br label %_ZN9__gnu_cxx27__exchange_and_add_dispatchEPii.exit.i.i.i.i.i.i93

if.else.i.i.i.i.i.i.i99:                          ; preds = %if.then7.i.i.i.i86
  %59 = atomicrmw volatile add ptr %_M_weak_count.i.i.i.i.i.i89, i32 -1 acq_rel, align 4
  br label %_ZN9__gnu_cxx27__exchange_and_add_dispatchEPii.exit.i.i.i.i.i.i93

_ZN9__gnu_cxx27__exchange_and_add_dispatchEPii.exit.i.i.i.i.i.i93: ; preds = %if.else.i.i.i.i.i.i.i99, %if.then.i.i.i.i.i.i.i91
  %retval.i.0.i.i.i.i.i.i94 = phi i32 [ %58, %if.then.i.i.i.i.i.i.i91 ], [ %59, %if.else.i.i.i.i.i.i.i99 ]
  %cmp.i.i.i.i.i.i95 = icmp eq i32 %retval.i.0.i.i.i.i.i.i94, 1
  br i1 %cmp.i.i.i.i.i.i95, label %if.end8.sink.split.i.i.i.i96, label %_ZNSt10shared_ptrIN19OpenColorIO_v2_4dev12_GLOBAL__N_115LocalCachedFileEED2Ev.exit

if.end8.sink.split.i.i.i.i96:                     ; preds = %_ZN9__gnu_cxx27__exchange_and_add_dispatchEPii.exit.i.i.i.i.i.i93, %if.then.i.i.i.i101
  %vtable2.i.i.i.i.i.i97 = load ptr, ptr %untypedCachedFile.val15, align 8
  %vfn3.i.i.i.i.i.i98 = getelementptr inbounds ptr, ptr %vtable2.i.i.i.i.i.i97, i64 3
  %60 = load ptr, ptr %vfn3.i.i.i.i.i.i98, align 8
  call void %60(ptr noundef nonnull align 8 dereferenceable(16) %untypedCachedFile.val15) #21
  br label %_ZNSt10shared_ptrIN19OpenColorIO_v2_4dev12_GLOBAL__N_115LocalCachedFileEED2Ev.exit

_ZNSt10shared_ptrIN19OpenColorIO_v2_4dev12_GLOBAL__N_115LocalCachedFileEED2Ev.exit: ; preds = %sw.epilog, %_ZN9__gnu_cxx27__exchange_and_add_dispatchEPii.exit.i.i.i.i83, %_ZN9__gnu_cxx27__exchange_and_add_dispatchEPii.exit.i.i.i.i.i.i93, %if.end8.sink.split.i.i.i.i96
  ret void

ehcleanup:                                        ; preds = %lpad33, %lpad22, %lpad2, %lpad
  %cachedFile.sroa.5.0111 = phi ptr [ %untypedCachedFile.val15, %lpad33 ], [ %untypedCachedFile.val15, %lpad22 ], [ %cachedFile.sroa.5.0112, %lpad2 ], [ null, %lpad ]
  %.pn = phi { ptr, i32 } [ %50, %lpad33 ], [ %29, %lpad22 ], [ %7, %lpad2 ], [ %6, %lpad ]
  call fastcc void @_ZNSt10shared_ptrIN19OpenColorIO_v2_4dev12_GLOBAL__N_115LocalCachedFileEED2Ev(ptr %cachedFile.sroa.5.0111) #21
  resume { ptr, i32 } %.pn

unreachable:                                      ; preds = %invoke.cont
  unreachable
}

; Function Attrs: mustprogress nounwind uwtable
define linkonce_odr hidden noundef zeroext i1 @_ZNK19OpenColorIO_v2_4dev10FileFormat8isBinaryEv(ptr noundef nonnull align 8 dereferenceable(8) %this) unnamed_addr #3 comdat align 2 {
entry:
  ret i1 false
}

; Function Attrs: nounwind
declare void @_ZN19OpenColorIO_v2_4dev10FileFormatD2Ev(ptr noundef nonnull align 8 dereferenceable(8)) unnamed_addr #1

; Function Attrs: nobuiltin nounwind
declare void @_ZdlPv(ptr noundef) local_unnamed_addr #7

declare noundef nonnull align 8 dereferenceable(32) ptr @_ZNSt7__cxx1112basic_stringIcSt11char_traitsIcESaIcEEaSEPKc(ptr noundef nonnull align 8 dereferenceable(32), ptr noundef) local_unnamed_addr #0

declare i32 @__gxx_personality_v0(...)

; Function Attrs: nounwind
declare void @_ZNSt7__cxx1112basic_stringIcSt11char_traitsIcESaIcEEC1Ev(ptr noundef nonnull align 8 dereferenceable(32)) unnamed_addr #1

; Function Attrs: mustprogress uwtable
define linkonce_odr hidden void @_ZNSt6vectorIN19OpenColorIO_v2_4dev10FormatInfoESaIS1_EE17_M_realloc_insertIJRKS1_EEEvN9__gnu_cxx17__normal_iteratorIPS1_S3_EEDpOT_(ptr noundef nonnull align 8 dereferenceable(24) %this, ptr %__position.coerce, ptr noundef nonnull align 8 dereferenceable(72) %__args) local_unnamed_addr #4 comdat align 2 personality ptr @__gxx_personality_v0 {
entry:
  %_M_finish.i.i = getelementptr inbounds %"struct.std::_Vector_base<OpenColorIO_v2_4dev::FormatInfo, std::allocator<OpenColorIO_v2_4dev::FormatInfo>>::_Vector_impl_data", ptr %this, i64 0, i32 1
  %0 = load ptr, ptr %_M_finish.i.i, align 8
  %1 = load ptr, ptr %this, align 8
  %sub.ptr.lhs.cast.i.i = ptrtoint ptr %0 to i64
  %sub.ptr.rhs.cast.i.i = ptrtoint ptr %1 to i64
  %sub.ptr.sub.i.i = sub i64 %sub.ptr.lhs.cast.i.i, %sub.ptr.rhs.cast.i.i
  %cmp.i = icmp eq i64 %sub.ptr.sub.i.i, 9223372036854775800
  br i1 %cmp.i, label %if.then.i, label %_ZNKSt6vectorIN19OpenColorIO_v2_4dev10FormatInfoESaIS1_EE12_M_check_lenEmPKc.exit

if.then.i:                                        ; preds = %entry
  tail call void @_ZSt20__throw_length_errorPKc(ptr noundef nonnull @.str.14) #25
  unreachable

_ZNKSt6vectorIN19OpenColorIO_v2_4dev10FormatInfoESaIS1_EE12_M_check_lenEmPKc.exit: ; preds = %entry
  %sub.ptr.div.i.i = sdiv exact i64 %sub.ptr.sub.i.i, 72
  %.sroa.speculated.i = tail call i64 @llvm.umax.i64(i64 %sub.ptr.div.i.i, i64 1)
  %add.i = add i64 %.sroa.speculated.i, %sub.ptr.div.i.i
  %cmp7.i = icmp ult i64 %add.i, %sub.ptr.div.i.i
  %cmp9.i = icmp ugt i64 %add.i, 128102389400760775
  %or.cond.i = or i1 %cmp7.i, %cmp9.i
  %cond.i = select i1 %or.cond.i, i64 128102389400760775, i64 %add.i
  %sub.ptr.lhs.cast.i = ptrtoint ptr %__position.coerce to i64
  %sub.ptr.sub.i = sub i64 %sub.ptr.lhs.cast.i, %sub.ptr.rhs.cast.i.i
  %sub.ptr.div.i = sdiv exact i64 %sub.ptr.sub.i, 72
  %cmp.not.i = icmp eq i64 %cond.i, 0
  br i1 %cmp.not.i, label %_ZNSt12_Vector_baseIN19OpenColorIO_v2_4dev10FormatInfoESaIS1_EE11_M_allocateEm.exit, label %_ZNSt16allocator_traitsISaIN19OpenColorIO_v2_4dev10FormatInfoEEE8allocateERS2_m.exit.i

_ZNSt16allocator_traitsISaIN19OpenColorIO_v2_4dev10FormatInfoEEE8allocateERS2_m.exit.i: ; preds = %_ZNKSt6vectorIN19OpenColorIO_v2_4dev10FormatInfoESaIS1_EE12_M_check_lenEmPKc.exit
  %mul.i.i.i = mul nuw nsw i64 %cond.i, 72
  %call5.i.i.i = tail call noalias noundef nonnull ptr @_Znwm(i64 noundef %mul.i.i.i) #22
  br label %_ZNSt12_Vector_baseIN19OpenColorIO_v2_4dev10FormatInfoESaIS1_EE11_M_allocateEm.exit

_ZNSt12_Vector_baseIN19OpenColorIO_v2_4dev10FormatInfoESaIS1_EE11_M_allocateEm.exit: ; preds = %_ZNKSt6vectorIN19OpenColorIO_v2_4dev10FormatInfoESaIS1_EE12_M_check_lenEmPKc.exit, %_ZNSt16allocator_traitsISaIN19OpenColorIO_v2_4dev10FormatInfoEEE8allocateERS2_m.exit.i
  %cond.i17 = phi ptr [ %call5.i.i.i, %_ZNSt16allocator_traitsISaIN19OpenColorIO_v2_4dev10FormatInfoEEE8allocateERS2_m.exit.i ], [ null, %_ZNKSt6vectorIN19OpenColorIO_v2_4dev10FormatInfoESaIS1_EE12_M_check_lenEmPKc.exit ]
  %add.ptr = getelementptr inbounds %"struct.OpenColorIO_v2_4dev::FormatInfo", ptr %cond.i17, i64 %sub.ptr.div.i
  invoke void @_ZNSt7__cxx1112basic_stringIcSt11char_traitsIcESaIcEEC1ERKS4_(ptr noundef nonnull align 8 dereferenceable(32) %add.ptr, ptr noundef nonnull align 8 dereferenceable(32) %__args)
          to label %.noexc unwind label %lpad

.noexc:                                           ; preds = %_ZNSt12_Vector_baseIN19OpenColorIO_v2_4dev10FormatInfoESaIS1_EE11_M_allocateEm.exit
  %extension.i.i.i = getelementptr inbounds %"struct.OpenColorIO_v2_4dev::FormatInfo", ptr %cond.i17, i64 %sub.ptr.div.i, i32 1
  %extension3.i.i.i = getelementptr inbounds %"struct.OpenColorIO_v2_4dev::FormatInfo", ptr %__args, i64 0, i32 1
  invoke void @_ZNSt7__cxx1112basic_stringIcSt11char_traitsIcESaIcEEC1ERKS4_(ptr noundef nonnull align 8 dereferenceable(32) %extension.i.i.i, ptr noundef nonnull align 8 dereferenceable(32) %extension3.i.i.i)
          to label %invoke.cont unwind label %lpad.i.i.i

lpad.i.i.i:                                       ; preds = %.noexc
  %2 = landingpad { ptr, i32 }
          catch ptr null
  tail call void @_ZNSt7__cxx1112basic_stringIcSt11char_traitsIcESaIcEED1Ev(ptr noundef nonnull align 8 dereferenceable(32) %add.ptr) #21
  br label %lpad.body

invoke.cont:                                      ; preds = %.noexc
  %capabilities.i.i.i = getelementptr inbounds %"struct.OpenColorIO_v2_4dev::FormatInfo", ptr %cond.i17, i64 %sub.ptr.div.i, i32 2
  %capabilities4.i.i.i = getelementptr inbounds %"struct.OpenColorIO_v2_4dev::FormatInfo", ptr %__args, i64 0, i32 2
  %3 = load i64, ptr %capabilities4.i.i.i, align 8
  store i64 %3, ptr %capabilities.i.i.i, align 8
  %cmp.not5.i.i.i.i = icmp eq ptr %1, %__position.coerce
  br i1 %cmp.not5.i.i.i.i, label %_ZNSt6vectorIN19OpenColorIO_v2_4dev10FormatInfoESaIS1_EE11_S_relocateEPS1_S4_S4_RS2_.exit, label %for.body.i.i.i.i

for.body.i.i.i.i:                                 ; preds = %invoke.cont, %for.body.i.i.i.i
  %__cur.07.i.i.i.i = phi ptr [ %incdec.ptr1.i.i.i.i, %for.body.i.i.i.i ], [ %cond.i17, %invoke.cont ]
  %__first.addr.06.i.i.i.i = phi ptr [ %incdec.ptr.i.i.i.i, %for.body.i.i.i.i ], [ %1, %invoke.cont ]
  tail call void @llvm.experimental.noalias.scope.decl(metadata !38)
  tail call void @llvm.experimental.noalias.scope.decl(metadata !41)
  tail call void @_ZNSt7__cxx1112basic_stringIcSt11char_traitsIcESaIcEEC1EOS4_(ptr noundef nonnull align 8 dereferenceable(32) %__cur.07.i.i.i.i, ptr noundef nonnull align 8 dereferenceable(32) %__first.addr.06.i.i.i.i) #21
  %extension.i.i.i.i.i.i.i.i = getelementptr inbounds %"struct.OpenColorIO_v2_4dev::FormatInfo", ptr %__cur.07.i.i.i.i, i64 0, i32 1
  %extension3.i.i.i.i.i.i.i.i = getelementptr inbounds %"struct.OpenColorIO_v2_4dev::FormatInfo", ptr %__first.addr.06.i.i.i.i, i64 0, i32 1
  tail call void @_ZNSt7__cxx1112basic_stringIcSt11char_traitsIcESaIcEEC1EOS4_(ptr noundef nonnull align 8 dereferenceable(32) %extension.i.i.i.i.i.i.i.i, ptr noundef nonnull align 8 dereferenceable(32) %extension3.i.i.i.i.i.i.i.i) #21
  %capabilities.i.i.i.i.i.i.i.i = getelementptr inbounds %"struct.OpenColorIO_v2_4dev::FormatInfo", ptr %__cur.07.i.i.i.i, i64 0, i32 2
  %capabilities4.i.i.i.i.i.i.i.i = getelementptr inbounds %"struct.OpenColorIO_v2_4dev::FormatInfo", ptr %__first.addr.06.i.i.i.i, i64 0, i32 2
  %4 = load i64, ptr %capabilities4.i.i.i.i.i.i.i.i, align 8, !alias.scope !41, !noalias !38
  store i64 %4, ptr %capabilities.i.i.i.i.i.i.i.i, align 8, !alias.scope !38, !noalias !41
  tail call void @_ZNSt7__cxx1112basic_stringIcSt11char_traitsIcESaIcEED1Ev(ptr noundef nonnull align 8 dereferenceable(32) %extension3.i.i.i.i.i.i.i.i) #21
  tail call void @_ZNSt7__cxx1112basic_stringIcSt11char_traitsIcESaIcEED1Ev(ptr noundef nonnull align 8 dereferenceable(32) %__first.addr.06.i.i.i.i) #21
  %incdec.ptr.i.i.i.i = getelementptr inbounds %"struct.OpenColorIO_v2_4dev::FormatInfo", ptr %__first.addr.06.i.i.i.i, i64 1
  %incdec.ptr1.i.i.i.i = getelementptr inbounds %"struct.OpenColorIO_v2_4dev::FormatInfo", ptr %__cur.07.i.i.i.i, i64 1
  %cmp.not.i.i.i.i = icmp eq ptr %incdec.ptr.i.i.i.i, %__position.coerce
  br i1 %cmp.not.i.i.i.i, label %_ZNSt6vectorIN19OpenColorIO_v2_4dev10FormatInfoESaIS1_EE11_S_relocateEPS1_S4_S4_RS2_.exit, label %for.body.i.i.i.i, !llvm.loop !43

_ZNSt6vectorIN19OpenColorIO_v2_4dev10FormatInfoESaIS1_EE11_S_relocateEPS1_S4_S4_RS2_.exit: ; preds = %for.body.i.i.i.i, %invoke.cont
  %__cur.0.lcssa.i.i.i.i = phi ptr [ %cond.i17, %invoke.cont ], [ %incdec.ptr1.i.i.i.i, %for.body.i.i.i.i ]
  %incdec.ptr = getelementptr inbounds %"struct.OpenColorIO_v2_4dev::FormatInfo", ptr %__cur.0.lcssa.i.i.i.i, i64 1
  %cmp.not5.i.i.i.i18 = icmp eq ptr %0, %__position.coerce
  br i1 %cmp.not5.i.i.i.i18, label %_ZNSt6vectorIN19OpenColorIO_v2_4dev10FormatInfoESaIS1_EE11_S_relocateEPS1_S4_S4_RS2_.exit30, label %for.body.i.i.i.i19

for.body.i.i.i.i19:                               ; preds = %_ZNSt6vectorIN19OpenColorIO_v2_4dev10FormatInfoESaIS1_EE11_S_relocateEPS1_S4_S4_RS2_.exit, %for.body.i.i.i.i19
  %__cur.07.i.i.i.i20 = phi ptr [ %incdec.ptr1.i.i.i.i27, %for.body.i.i.i.i19 ], [ %incdec.ptr, %_ZNSt6vectorIN19OpenColorIO_v2_4dev10FormatInfoESaIS1_EE11_S_relocateEPS1_S4_S4_RS2_.exit ]
  %__first.addr.06.i.i.i.i21 = phi ptr [ %incdec.ptr.i.i.i.i26, %for.body.i.i.i.i19 ], [ %__position.coerce, %_ZNSt6vectorIN19OpenColorIO_v2_4dev10FormatInfoESaIS1_EE11_S_relocateEPS1_S4_S4_RS2_.exit ]
  tail call void @llvm.experimental.noalias.scope.decl(metadata !44)
  tail call void @llvm.experimental.noalias.scope.decl(metadata !47)
  tail call void @_ZNSt7__cxx1112basic_stringIcSt11char_traitsIcESaIcEEC1EOS4_(ptr noundef nonnull align 8 dereferenceable(32) %__cur.07.i.i.i.i20, ptr noundef nonnull align 8 dereferenceable(32) %__first.addr.06.i.i.i.i21) #21
  %extension.i.i.i.i.i.i.i.i22 = getelementptr inbounds %"struct.OpenColorIO_v2_4dev::FormatInfo", ptr %__cur.07.i.i.i.i20, i64 0, i32 1
  %extension3.i.i.i.i.i.i.i.i23 = getelementptr inbounds %"struct.OpenColorIO_v2_4dev::FormatInfo", ptr %__first.addr.06.i.i.i.i21, i64 0, i32 1
  tail call void @_ZNSt7__cxx1112basic_stringIcSt11char_traitsIcESaIcEEC1EOS4_(ptr noundef nonnull align 8 dereferenceable(32) %extension.i.i.i.i.i.i.i.i22, ptr noundef nonnull align 8 dereferenceable(32) %extension3.i.i.i.i.i.i.i.i23) #21
  %capabilities.i.i.i.i.i.i.i.i24 = getelementptr inbounds %"struct.OpenColorIO_v2_4dev::FormatInfo", ptr %__cur.07.i.i.i.i20, i64 0, i32 2
  %capabilities4.i.i.i.i.i.i.i.i25 = getelementptr inbounds %"struct.OpenColorIO_v2_4dev::FormatInfo", ptr %__first.addr.06.i.i.i.i21, i64 0, i32 2
  %5 = load i64, ptr %capabilities4.i.i.i.i.i.i.i.i25, align 8, !alias.scope !47, !noalias !44
  store i64 %5, ptr %capabilities.i.i.i.i.i.i.i.i24, align 8, !alias.scope !44, !noalias !47
  tail call void @_ZNSt7__cxx1112basic_stringIcSt11char_traitsIcESaIcEED1Ev(ptr noundef nonnull align 8 dereferenceable(32) %extension3.i.i.i.i.i.i.i.i23) #21
  tail call void @_ZNSt7__cxx1112basic_stringIcSt11char_traitsIcESaIcEED1Ev(ptr noundef nonnull align 8 dereferenceable(32) %__first.addr.06.i.i.i.i21) #21
  %incdec.ptr.i.i.i.i26 = getelementptr inbounds %"struct.OpenColorIO_v2_4dev::FormatInfo", ptr %__first.addr.06.i.i.i.i21, i64 1
  %incdec.ptr1.i.i.i.i27 = getelementptr inbounds %"struct.OpenColorIO_v2_4dev::FormatInfo", ptr %__cur.07.i.i.i.i20, i64 1
  %cmp.not.i.i.i.i28 = icmp eq ptr %incdec.ptr.i.i.i.i26, %0
  br i1 %cmp.not.i.i.i.i28, label %_ZNSt6vectorIN19OpenColorIO_v2_4dev10FormatInfoESaIS1_EE11_S_relocateEPS1_S4_S4_RS2_.exit30, label %for.body.i.i.i.i19, !llvm.loop !43

_ZNSt6vectorIN19OpenColorIO_v2_4dev10FormatInfoESaIS1_EE11_S_relocateEPS1_S4_S4_RS2_.exit30: ; preds = %for.body.i.i.i.i19, %_ZNSt6vectorIN19OpenColorIO_v2_4dev10FormatInfoESaIS1_EE11_S_relocateEPS1_S4_S4_RS2_.exit
  %__cur.0.lcssa.i.i.i.i29 = phi ptr [ %incdec.ptr, %_ZNSt6vectorIN19OpenColorIO_v2_4dev10FormatInfoESaIS1_EE11_S_relocateEPS1_S4_S4_RS2_.exit ], [ %incdec.ptr1.i.i.i.i27, %for.body.i.i.i.i19 ]
  %tobool.not.i = icmp eq ptr %1, null
  br i1 %tobool.not.i, label %_ZNSt12_Vector_baseIN19OpenColorIO_v2_4dev10FormatInfoESaIS1_EE13_M_deallocateEPS1_m.exit, label %if.then.i31

if.then.i31:                                      ; preds = %_ZNSt6vectorIN19OpenColorIO_v2_4dev10FormatInfoESaIS1_EE11_S_relocateEPS1_S4_S4_RS2_.exit30
  tail call void @_ZdlPv(ptr noundef nonnull %1) #23
  br label %_ZNSt12_Vector_baseIN19OpenColorIO_v2_4dev10FormatInfoESaIS1_EE13_M_deallocateEPS1_m.exit

_ZNSt12_Vector_baseIN19OpenColorIO_v2_4dev10FormatInfoESaIS1_EE13_M_deallocateEPS1_m.exit: ; preds = %_ZNSt6vectorIN19OpenColorIO_v2_4dev10FormatInfoESaIS1_EE11_S_relocateEPS1_S4_S4_RS2_.exit30, %if.then.i31
  %_M_end_of_storage = getelementptr inbounds %"struct.std::_Vector_base<OpenColorIO_v2_4dev::FormatInfo, std::allocator<OpenColorIO_v2_4dev::FormatInfo>>::_Vector_impl_data", ptr %this, i64 0, i32 2
  store ptr %cond.i17, ptr %this, align 8
  store ptr %__cur.0.lcssa.i.i.i.i29, ptr %_M_finish.i.i, align 8
  %add.ptr26 = getelementptr inbounds %"struct.OpenColorIO_v2_4dev::FormatInfo", ptr %cond.i17, i64 %cond.i
  store ptr %add.ptr26, ptr %_M_end_of_storage, align 8
  ret void

lpad:                                             ; preds = %_ZNSt12_Vector_baseIN19OpenColorIO_v2_4dev10FormatInfoESaIS1_EE11_M_allocateEm.exit
  %6 = landingpad { ptr, i32 }
          catch ptr null
  br label %lpad.body

lpad.body:                                        ; preds = %lpad.i.i.i, %lpad
  %eh.lpad-body = phi { ptr, i32 } [ %6, %lpad ], [ %2, %lpad.i.i.i ]
  %7 = extractvalue { ptr, i32 } %eh.lpad-body, 0
  %8 = tail call ptr @__cxa_begin_catch(ptr %7) #21
  %tobool.not = icmp eq ptr %cond.i17, null
  br i1 %tobool.not, label %if.end.thread, label %if.then.i34

if.end.thread:                                    ; preds = %lpad.body
  %extension.i.i.i32 = getelementptr inbounds %"struct.OpenColorIO_v2_4dev::FormatInfo", ptr null, i64 %sub.ptr.div.i, i32 1
  tail call void @_ZNSt7__cxx1112basic_stringIcSt11char_traitsIcESaIcEED1Ev(ptr noundef nonnull align 8 dereferenceable(32) %extension.i.i.i32) #21
  tail call void @_ZNSt7__cxx1112basic_stringIcSt11char_traitsIcESaIcEED1Ev(ptr noundef nonnull align 8 dereferenceable(32) %add.ptr) #21
  br label %invoke.cont19

lpad17:                                           ; preds = %invoke.cont19
  %9 = landingpad { ptr, i32 }
          cleanup
  invoke void @__cxa_end_catch()
          to label %eh.resume unwind label %terminate.lpad

if.then.i34:                                      ; preds = %lpad.body
  tail call void @_ZdlPv(ptr noundef nonnull %cond.i17) #23
  br label %invoke.cont19

invoke.cont19:                                    ; preds = %if.then.i34, %if.end.thread
  invoke void @__cxa_rethrow() #25
          to label %unreachable unwind label %lpad17

eh.resume:                                        ; preds = %lpad17
  resume { ptr, i32 } %9

terminate.lpad:                                   ; preds = %lpad17
  %10 = landingpad { ptr, i32 }
          catch ptr null
  %11 = extractvalue { ptr, i32 } %10, 0
  tail call void @__clang_call_terminate(ptr %11) #26
  unreachable

unreachable:                                      ; preds = %invoke.cont19
  unreachable
}

declare void @_ZNSt7__cxx1112basic_stringIcSt11char_traitsIcESaIcEEC1ERKS4_(ptr noundef nonnull align 8 dereferenceable(32), ptr noundef nonnull align 8 dereferenceable(32)) unnamed_addr #0

; Function Attrs: mustprogress nocallback nofree nounwind willreturn memory(argmem: readwrite)
declare void @llvm.memcpy.p0.p0.i64(ptr noalias nocapture writeonly, ptr noalias nocapture readonly, i64, i1 immarg) #8

; Function Attrs: nounwind
declare void @_ZNSt7__cxx1112basic_stringIcSt11char_traitsIcESaIcEED1Ev(ptr noundef nonnull align 8 dereferenceable(32)) unnamed_addr #1

declare ptr @__cxa_begin_catch(ptr) local_unnamed_addr

declare void @__cxa_rethrow() local_unnamed_addr

declare void @__cxa_end_catch() local_unnamed_addr

; Function Attrs: noreturn nounwind uwtable
define linkonce_odr hidden void @__clang_call_terminate(ptr noundef %0) local_unnamed_addr #9 comdat {
  %2 = tail call ptr @__cxa_begin_catch(ptr %0) #21
  tail call void @_ZSt9terminatev() #26
  unreachable
}

declare void @_ZSt9terminatev() local_unnamed_addr

; Function Attrs: noreturn
declare void @_ZSt20__throw_length_errorPKc(ptr noundef) local_unnamed_addr #10

; Function Attrs: noreturn
declare void @_ZSt28__throw_bad_array_new_lengthv() local_unnamed_addr #10

; Function Attrs: nounwind
declare void @_ZNSt7__cxx1112basic_stringIcSt11char_traitsIcESaIcEEC1EOS4_(ptr noundef nonnull align 8 dereferenceable(32), ptr noundef nonnull align 8 dereferenceable(32)) unnamed_addr #1

declare void @_ZNSt7__cxx1119basic_ostringstreamIcSt11char_traitsIcESaIcEEC1Ev(ptr noundef nonnull align 8 dereferenceable(112)) unnamed_addr #0

declare noundef nonnull align 8 dereferenceable(8) ptr @_ZStlsISt11char_traitsIcEERSt13basic_ostreamIcT_ES5_PKc(ptr noundef nonnull align 8 dereferenceable(8), ptr noundef) local_unnamed_addr #0

declare noundef nonnull align 8 dereferenceable(8) ptr @_ZStlsIcSt11char_traitsIcESaIcEERSt13basic_ostreamIT_T0_ES7_RKNSt7__cxx1112basic_stringIS4_S5_T1_EE(ptr noundef nonnull align 8 dereferenceable(8), ptr noundef nonnull align 8 dereferenceable(32)) local_unnamed_addr #0

declare ptr @__cxa_allocate_exception(i64) local_unnamed_addr

declare void @_ZNKSt7__cxx1119basic_ostringstreamIcSt11char_traitsIcESaIcEE3strEv(ptr sret(%"class.std::__cxx11::basic_string") align 8, ptr noundef nonnull align 8 dereferenceable(112)) local_unnamed_addr #0

; Function Attrs: nounwind
declare noundef ptr @_ZNKSt7__cxx1112basic_stringIcSt11char_traitsIcESaIcEE5c_strEv(ptr noundef nonnull align 8 dereferenceable(32)) local_unnamed_addr #1

declare void @_ZN19OpenColorIO_v2_4dev9ExceptionC1EPKc(ptr noundef nonnull align 8 dereferenceable(16), ptr noundef) unnamed_addr #0

; Function Attrs: nounwind
declare void @_ZN19OpenColorIO_v2_4dev9ExceptionD1Ev(ptr noundef nonnull align 8 dereferenceable(16)) unnamed_addr #1

declare void @__cxa_throw(ptr, ptr, ptr) local_unnamed_addr

declare void @__cxa_free_exception(ptr) local_unnamed_addr

; Function Attrs: nounwind
declare void @_ZNSt7__cxx1119basic_ostringstreamIcSt11char_traitsIcESaIcEED1Ev(ptr noundef nonnull align 8 dereferenceable(112)) unnamed_addr #1

; Function Attrs: mustprogress nounwind uwtable
define linkonce_odr hidden void @_ZNSt10shared_ptrIN19OpenColorIO_v2_4dev18CTFReaderTransformEED2Ev(ptr noundef nonnull align 8 dereferenceable(16) %this) unnamed_addr #3 comdat align 2 personality ptr @__gxx_personality_v0 {
entry:
  %_M_refcount.i = getelementptr inbounds %"class.std::__shared_ptr.10", ptr %this, i64 0, i32 1
  %0 = load ptr, ptr %_M_refcount.i, align 8
  %cmp.not.i.i = icmp eq ptr %0, null
  br i1 %cmp.not.i.i, label %_ZNSt12__shared_ptrIN19OpenColorIO_v2_4dev18CTFReaderTransformELN9__gnu_cxx12_Lock_policyE2EED2Ev.exit, label %if.then.i.i

if.then.i.i:                                      ; preds = %entry
  %_M_use_count.i.i.i = getelementptr inbounds %"class.std::_Sp_counted_base", ptr %0, i64 0, i32 1
  %1 = load atomic i64, ptr %_M_use_count.i.i.i acquire, align 8
  %cmp.i.i.i = icmp eq i64 %1, 4294967297
  %2 = trunc i64 %1 to i32
  br i1 %cmp.i.i.i, label %if.then.i.i.i, label %if.end.i.i.i

if.then.i.i.i:                                    ; preds = %if.then.i.i
  store i32 0, ptr %_M_use_count.i.i.i, align 8
  %_M_weak_count.i.i.i = getelementptr inbounds %"class.std::_Sp_counted_base", ptr %0, i64 0, i32 2
  store i32 0, ptr %_M_weak_count.i.i.i, align 4
  %vtable.i.i.i = load ptr, ptr %0, align 8
  %vfn.i.i.i = getelementptr inbounds ptr, ptr %vtable.i.i.i, i64 2
  %3 = load ptr, ptr %vfn.i.i.i, align 8
  tail call void %3(ptr noundef nonnull align 8 dereferenceable(16) %0) #21
  br label %if.end8.sink.split.i.i.i

if.end.i.i.i:                                     ; preds = %if.then.i.i
  %4 = load i8, ptr @__libc_single_threaded, align 1
  %tobool.i.i.not.i.i.i = icmp eq i8 %4, 0
  br i1 %tobool.i.i.not.i.i.i, label %if.else.i.i.i.i, label %if.then.i.i.i.i

if.then.i.i.i.i:                                  ; preds = %if.end.i.i.i
  %add.i.i.i.i = add nsw i32 %2, -1
  store i32 %add.i.i.i.i, ptr %_M_use_count.i.i.i, align 4
  br label %_ZN9__gnu_cxx27__exchange_and_add_dispatchEPii.exit.i.i.i

if.else.i.i.i.i:                                  ; preds = %if.end.i.i.i
  %5 = atomicrmw volatile add ptr %_M_use_count.i.i.i, i32 -1 acq_rel, align 4
  br label %_ZN9__gnu_cxx27__exchange_and_add_dispatchEPii.exit.i.i.i

_ZN9__gnu_cxx27__exchange_and_add_dispatchEPii.exit.i.i.i: ; preds = %if.else.i.i.i.i, %if.then.i.i.i.i
  %retval.i.0.i.i.i = phi i32 [ %2, %if.then.i.i.i.i ], [ %5, %if.else.i.i.i.i ]
  %cmp6.i.i.i = icmp eq i32 %retval.i.0.i.i.i, 1
  br i1 %cmp6.i.i.i, label %if.then7.i.i.i, label %_ZNSt12__shared_ptrIN19OpenColorIO_v2_4dev18CTFReaderTransformELN9__gnu_cxx12_Lock_policyE2EED2Ev.exit

if.then7.i.i.i:                                   ; preds = %_ZN9__gnu_cxx27__exchange_and_add_dispatchEPii.exit.i.i.i
  %vtable.i.i.i.i.i = load ptr, ptr %0, align 8
  %vfn.i.i.i.i.i = getelementptr inbounds ptr, ptr %vtable.i.i.i.i.i, i64 2
  %6 = load ptr, ptr %vfn.i.i.i.i.i, align 8
  tail call void %6(ptr noundef nonnull align 8 dereferenceable(16) %0) #21
  %_M_weak_count.i.i.i.i.i = getelementptr inbounds %"class.std::_Sp_counted_base", ptr %0, i64 0, i32 2
  %7 = load i8, ptr @__libc_single_threaded, align 1
  %tobool.i.i.not.i.i.i.i.i = icmp eq i8 %7, 0
  br i1 %tobool.i.i.not.i.i.i.i.i, label %if.else.i.i.i.i.i.i, label %if.then.i.i.i.i.i.i

if.then.i.i.i.i.i.i:                              ; preds = %if.then7.i.i.i
  %8 = load i32, ptr %_M_weak_count.i.i.i.i.i, align 4
  %add.i.i.i.i.i.i = add nsw i32 %8, -1
  store i32 %add.i.i.i.i.i.i, ptr %_M_weak_count.i.i.i.i.i, align 4
  br label %_ZN9__gnu_cxx27__exchange_and_add_dispatchEPii.exit.i.i.i.i.i

if.else.i.i.i.i.i.i:                              ; preds = %if.then7.i.i.i
  %9 = atomicrmw volatile add ptr %_M_weak_count.i.i.i.i.i, i32 -1 acq_rel, align 4
  br label %_ZN9__gnu_cxx27__exchange_and_add_dispatchEPii.exit.i.i.i.i.i

_ZN9__gnu_cxx27__exchange_and_add_dispatchEPii.exit.i.i.i.i.i: ; preds = %if.else.i.i.i.i.i.i, %if.then.i.i.i.i.i.i
  %retval.i.0.i.i.i.i.i = phi i32 [ %8, %if.then.i.i.i.i.i.i ], [ %9, %if.else.i.i.i.i.i.i ]
  %cmp.i.i.i.i.i = icmp eq i32 %retval.i.0.i.i.i.i.i, 1
  br i1 %cmp.i.i.i.i.i, label %if.end8.sink.split.i.i.i, label %_ZNSt12__shared_ptrIN19OpenColorIO_v2_4dev18CTFReaderTransformELN9__gnu_cxx12_Lock_policyE2EED2Ev.exit

if.end8.sink.split.i.i.i:                         ; preds = %_ZN9__gnu_cxx27__exchange_and_add_dispatchEPii.exit.i.i.i.i.i, %if.then.i.i.i
  %vtable2.i.i.i.i.i = load ptr, ptr %0, align 8
  %vfn3.i.i.i.i.i = getelementptr inbounds ptr, ptr %vtable2.i.i.i.i.i, i64 3
  %10 = load ptr, ptr %vfn3.i.i.i.i.i, align 8
  tail call void %10(ptr noundef nonnull align 8 dereferenceable(16) %0) #21
  br label %_ZNSt12__shared_ptrIN19OpenColorIO_v2_4dev18CTFReaderTransformELN9__gnu_cxx12_Lock_policyE2EED2Ev.exit

_ZNSt12__shared_ptrIN19OpenColorIO_v2_4dev18CTFReaderTransformELN9__gnu_cxx12_Lock_policyE2EED2Ev.exit: ; preds = %entry, %_ZN9__gnu_cxx27__exchange_and_add_dispatchEPii.exit.i.i.i, %_ZN9__gnu_cxx27__exchange_and_add_dispatchEPii.exit.i.i.i.i.i, %if.end8.sink.split.i.i.i
  ret void
}

declare noundef nonnull align 8 dereferenceable(32) ptr @_ZNSt7__cxx1112basic_stringIcSt11char_traitsIcESaIcEEaSERKS4_(ptr noundef nonnull align 8 dereferenceable(32), ptr noundef nonnull align 8 dereferenceable(32)) local_unnamed_addr #0

; Function Attrs: mustprogress nounwind uwtable
define internal fastcc void @_ZNSt10shared_ptrIN19OpenColorIO_v2_4dev12_GLOBAL__N_115LocalCachedFileEED2Ev(ptr %this.8.val) unnamed_addr #3 align 2 personality ptr @__gxx_personality_v0 {
entry:
  %cmp.not.i.i = icmp eq ptr %this.8.val, null
  br i1 %cmp.not.i.i, label %_ZNSt12__shared_ptrIN19OpenColorIO_v2_4dev12_GLOBAL__N_115LocalCachedFileELN9__gnu_cxx12_Lock_policyE2EED2Ev.exit, label %if.then.i.i

if.then.i.i:                                      ; preds = %entry
  %_M_use_count.i.i.i = getelementptr inbounds %"class.std::_Sp_counted_base", ptr %this.8.val, i64 0, i32 1
  %0 = load atomic i64, ptr %_M_use_count.i.i.i acquire, align 8
  %cmp.i.i.i = icmp eq i64 %0, 4294967297
  %1 = trunc i64 %0 to i32
  br i1 %cmp.i.i.i, label %if.then.i.i.i, label %if.end.i.i.i

if.then.i.i.i:                                    ; preds = %if.then.i.i
  store i32 0, ptr %_M_use_count.i.i.i, align 8
  %_M_weak_count.i.i.i = getelementptr inbounds %"class.std::_Sp_counted_base", ptr %this.8.val, i64 0, i32 2
  store i32 0, ptr %_M_weak_count.i.i.i, align 4
  %vtable.i.i.i = load ptr, ptr %this.8.val, align 8
  %vfn.i.i.i = getelementptr inbounds ptr, ptr %vtable.i.i.i, i64 2
  %2 = load ptr, ptr %vfn.i.i.i, align 8
  tail call void %2(ptr noundef nonnull align 8 dereferenceable(16) %this.8.val) #21
  br label %if.end8.sink.split.i.i.i

if.end.i.i.i:                                     ; preds = %if.then.i.i
  %3 = load i8, ptr @__libc_single_threaded, align 1
  %tobool.i.i.not.i.i.i = icmp eq i8 %3, 0
  br i1 %tobool.i.i.not.i.i.i, label %if.else.i.i.i.i, label %if.then.i.i.i.i

if.then.i.i.i.i:                                  ; preds = %if.end.i.i.i
  %add.i.i.i.i = add nsw i32 %1, -1
  store i32 %add.i.i.i.i, ptr %_M_use_count.i.i.i, align 4
  br label %_ZN9__gnu_cxx27__exchange_and_add_dispatchEPii.exit.i.i.i

if.else.i.i.i.i:                                  ; preds = %if.end.i.i.i
  %4 = atomicrmw volatile add ptr %_M_use_count.i.i.i, i32 -1 acq_rel, align 4
  br label %_ZN9__gnu_cxx27__exchange_and_add_dispatchEPii.exit.i.i.i

_ZN9__gnu_cxx27__exchange_and_add_dispatchEPii.exit.i.i.i: ; preds = %if.else.i.i.i.i, %if.then.i.i.i.i
  %retval.i.0.i.i.i = phi i32 [ %1, %if.then.i.i.i.i ], [ %4, %if.else.i.i.i.i ]
  %cmp6.i.i.i = icmp eq i32 %retval.i.0.i.i.i, 1
  br i1 %cmp6.i.i.i, label %if.then7.i.i.i, label %_ZNSt12__shared_ptrIN19OpenColorIO_v2_4dev12_GLOBAL__N_115LocalCachedFileELN9__gnu_cxx12_Lock_policyE2EED2Ev.exit

if.then7.i.i.i:                                   ; preds = %_ZN9__gnu_cxx27__exchange_and_add_dispatchEPii.exit.i.i.i
  %vtable.i.i.i.i.i = load ptr, ptr %this.8.val, align 8
  %vfn.i.i.i.i.i = getelementptr inbounds ptr, ptr %vtable.i.i.i.i.i, i64 2
  %5 = load ptr, ptr %vfn.i.i.i.i.i, align 8
  tail call void %5(ptr noundef nonnull align 8 dereferenceable(16) %this.8.val) #21
  %_M_weak_count.i.i.i.i.i = getelementptr inbounds %"class.std::_Sp_counted_base", ptr %this.8.val, i64 0, i32 2
  %6 = load i8, ptr @__libc_single_threaded, align 1
  %tobool.i.i.not.i.i.i.i.i = icmp eq i8 %6, 0
  br i1 %tobool.i.i.not.i.i.i.i.i, label %if.else.i.i.i.i.i.i, label %if.then.i.i.i.i.i.i

if.then.i.i.i.i.i.i:                              ; preds = %if.then7.i.i.i
  %7 = load i32, ptr %_M_weak_count.i.i.i.i.i, align 4
  %add.i.i.i.i.i.i = add nsw i32 %7, -1
  store i32 %add.i.i.i.i.i.i, ptr %_M_weak_count.i.i.i.i.i, align 4
  br label %_ZN9__gnu_cxx27__exchange_and_add_dispatchEPii.exit.i.i.i.i.i

if.else.i.i.i.i.i.i:                              ; preds = %if.then7.i.i.i
  %8 = atomicrmw volatile add ptr %_M_weak_count.i.i.i.i.i, i32 -1 acq_rel, align 4
  br label %_ZN9__gnu_cxx27__exchange_and_add_dispatchEPii.exit.i.i.i.i.i

_ZN9__gnu_cxx27__exchange_and_add_dispatchEPii.exit.i.i.i.i.i: ; preds = %if.else.i.i.i.i.i.i, %if.then.i.i.i.i.i.i
  %retval.i.0.i.i.i.i.i = phi i32 [ %7, %if.then.i.i.i.i.i.i ], [ %8, %if.else.i.i.i.i.i.i ]
  %cmp.i.i.i.i.i = icmp eq i32 %retval.i.0.i.i.i.i.i, 1
  br i1 %cmp.i.i.i.i.i, label %if.end8.sink.split.i.i.i, label %_ZNSt12__shared_ptrIN19OpenColorIO_v2_4dev12_GLOBAL__N_115LocalCachedFileELN9__gnu_cxx12_Lock_policyE2EED2Ev.exit

if.end8.sink.split.i.i.i:                         ; preds = %_ZN9__gnu_cxx27__exchange_and_add_dispatchEPii.exit.i.i.i.i.i, %if.then.i.i.i
  %vtable2.i.i.i.i.i = load ptr, ptr %this.8.val, align 8
  %vfn3.i.i.i.i.i = getelementptr inbounds ptr, ptr %vtable2.i.i.i.i.i, i64 3
  %9 = load ptr, ptr %vfn3.i.i.i.i.i, align 8
  tail call void %9(ptr noundef nonnull align 8 dereferenceable(16) %this.8.val) #21
  br label %_ZNSt12__shared_ptrIN19OpenColorIO_v2_4dev12_GLOBAL__N_115LocalCachedFileELN9__gnu_cxx12_Lock_policyE2EED2Ev.exit

_ZNSt12__shared_ptrIN19OpenColorIO_v2_4dev12_GLOBAL__N_115LocalCachedFileELN9__gnu_cxx12_Lock_policyE2EED2Ev.exit: ; preds = %entry, %_ZN9__gnu_cxx27__exchange_and_add_dispatchEPii.exit.i.i.i, %_ZN9__gnu_cxx27__exchange_and_add_dispatchEPii.exit.i.i.i.i.i, %if.end8.sink.split.i.i.i
  ret void
}

; Function Attrs: mustprogress nounwind uwtable
define internal fastcc void @_ZN19OpenColorIO_v2_4dev12_GLOBAL__N_115XMLParserHelperD2Ev(ptr noundef nonnull align 8 dereferenceable(104) %this) unnamed_addr #3 align 2 personality ptr @__gxx_personality_v0 {
entry:
  %0 = load ptr, ptr %this, align 8
  invoke void @XML_ParserFree(ptr noundef %0)
          to label %invoke.cont unwind label %terminate.lpad

invoke.cont:                                      ; preds = %entry
  %_M_refcount.i.i = getelementptr inbounds %"class.OpenColorIO_v2_4dev::(anonymous namespace)::XMLParserHelper", ptr %this, i64 0, i32 5, i32 0, i32 1
  %1 = load ptr, ptr %_M_refcount.i.i, align 8
  %cmp.not.i.i.i = icmp eq ptr %1, null
  br i1 %cmp.not.i.i.i, label %_ZNSt10shared_ptrIN19OpenColorIO_v2_4dev18CTFReaderTransformEED2Ev.exit, label %if.then.i.i.i

if.then.i.i.i:                                    ; preds = %invoke.cont
  %_M_use_count.i.i.i.i = getelementptr inbounds %"class.std::_Sp_counted_base", ptr %1, i64 0, i32 1
  %2 = load atomic i64, ptr %_M_use_count.i.i.i.i acquire, align 8
  %cmp.i.i.i.i = icmp eq i64 %2, 4294967297
  %3 = trunc i64 %2 to i32
  br i1 %cmp.i.i.i.i, label %if.then.i.i.i.i, label %if.end.i.i.i.i

if.then.i.i.i.i:                                  ; preds = %if.then.i.i.i
  store i32 0, ptr %_M_use_count.i.i.i.i, align 8
  %_M_weak_count.i.i.i.i = getelementptr inbounds %"class.std::_Sp_counted_base", ptr %1, i64 0, i32 2
  store i32 0, ptr %_M_weak_count.i.i.i.i, align 4
  %vtable.i.i.i.i = load ptr, ptr %1, align 8
  %vfn.i.i.i.i = getelementptr inbounds ptr, ptr %vtable.i.i.i.i, i64 2
  %4 = load ptr, ptr %vfn.i.i.i.i, align 8
  tail call void %4(ptr noundef nonnull align 8 dereferenceable(16) %1) #21
  br label %if.end8.sink.split.i.i.i.i

if.end.i.i.i.i:                                   ; preds = %if.then.i.i.i
  %5 = load i8, ptr @__libc_single_threaded, align 1
  %tobool.i.i.not.i.i.i.i = icmp eq i8 %5, 0
  br i1 %tobool.i.i.not.i.i.i.i, label %if.else.i.i.i.i.i, label %if.then.i.i.i.i.i

if.then.i.i.i.i.i:                                ; preds = %if.end.i.i.i.i
  %add.i.i.i.i.i = add nsw i32 %3, -1
  store i32 %add.i.i.i.i.i, ptr %_M_use_count.i.i.i.i, align 4
  br label %_ZN9__gnu_cxx27__exchange_and_add_dispatchEPii.exit.i.i.i.i

if.else.i.i.i.i.i:                                ; preds = %if.end.i.i.i.i
  %6 = atomicrmw volatile add ptr %_M_use_count.i.i.i.i, i32 -1 acq_rel, align 4
  br label %_ZN9__gnu_cxx27__exchange_and_add_dispatchEPii.exit.i.i.i.i

_ZN9__gnu_cxx27__exchange_and_add_dispatchEPii.exit.i.i.i.i: ; preds = %if.else.i.i.i.i.i, %if.then.i.i.i.i.i
  %retval.i.0.i.i.i.i = phi i32 [ %3, %if.then.i.i.i.i.i ], [ %6, %if.else.i.i.i.i.i ]
  %cmp6.i.i.i.i = icmp eq i32 %retval.i.0.i.i.i.i, 1
  br i1 %cmp6.i.i.i.i, label %if.then7.i.i.i.i, label %_ZNSt10shared_ptrIN19OpenColorIO_v2_4dev18CTFReaderTransformEED2Ev.exit

if.then7.i.i.i.i:                                 ; preds = %_ZN9__gnu_cxx27__exchange_and_add_dispatchEPii.exit.i.i.i.i
  %vtable.i.i.i.i.i.i = load ptr, ptr %1, align 8
  %vfn.i.i.i.i.i.i = getelementptr inbounds ptr, ptr %vtable.i.i.i.i.i.i, i64 2
  %7 = load ptr, ptr %vfn.i.i.i.i.i.i, align 8
  tail call void %7(ptr noundef nonnull align 8 dereferenceable(16) %1) #21
  %_M_weak_count.i.i.i.i.i.i = getelementptr inbounds %"class.std::_Sp_counted_base", ptr %1, i64 0, i32 2
  %8 = load i8, ptr @__libc_single_threaded, align 1
  %tobool.i.i.not.i.i.i.i.i.i = icmp eq i8 %8, 0
  br i1 %tobool.i.i.not.i.i.i.i.i.i, label %if.else.i.i.i.i.i.i.i, label %if.then.i.i.i.i.i.i.i

if.then.i.i.i.i.i.i.i:                            ; preds = %if.then7.i.i.i.i
  %9 = load i32, ptr %_M_weak_count.i.i.i.i.i.i, align 4
  %add.i.i.i.i.i.i.i = add nsw i32 %9, -1
  store i32 %add.i.i.i.i.i.i.i, ptr %_M_weak_count.i.i.i.i.i.i, align 4
  br label %_ZN9__gnu_cxx27__exchange_and_add_dispatchEPii.exit.i.i.i.i.i.i

if.else.i.i.i.i.i.i.i:                            ; preds = %if.then7.i.i.i.i
  %10 = atomicrmw volatile add ptr %_M_weak_count.i.i.i.i.i.i, i32 -1 acq_rel, align 4
  br label %_ZN9__gnu_cxx27__exchange_and_add_dispatchEPii.exit.i.i.i.i.i.i

_ZN9__gnu_cxx27__exchange_and_add_dispatchEPii.exit.i.i.i.i.i.i: ; preds = %if.else.i.i.i.i.i.i.i, %if.then.i.i.i.i.i.i.i
  %retval.i.0.i.i.i.i.i.i = phi i32 [ %9, %if.then.i.i.i.i.i.i.i ], [ %10, %if.else.i.i.i.i.i.i.i ]
  %cmp.i.i.i.i.i.i = icmp eq i32 %retval.i.0.i.i.i.i.i.i, 1
  br i1 %cmp.i.i.i.i.i.i, label %if.end8.sink.split.i.i.i.i, label %_ZNSt10shared_ptrIN19OpenColorIO_v2_4dev18CTFReaderTransformEED2Ev.exit

if.end8.sink.split.i.i.i.i:                       ; preds = %_ZN9__gnu_cxx27__exchange_and_add_dispatchEPii.exit.i.i.i.i.i.i, %if.then.i.i.i.i
  %vtable2.i.i.i.i.i.i = load ptr, ptr %1, align 8
  %vfn3.i.i.i.i.i.i = getelementptr inbounds ptr, ptr %vtable2.i.i.i.i.i.i, i64 3
  %11 = load ptr, ptr %vfn3.i.i.i.i.i.i, align 8
  tail call void %11(ptr noundef nonnull align 8 dereferenceable(16) %1) #21
  br label %_ZNSt10shared_ptrIN19OpenColorIO_v2_4dev18CTFReaderTransformEED2Ev.exit

_ZNSt10shared_ptrIN19OpenColorIO_v2_4dev18CTFReaderTransformEED2Ev.exit: ; preds = %invoke.cont, %_ZN9__gnu_cxx27__exchange_and_add_dispatchEPii.exit.i.i.i.i, %_ZN9__gnu_cxx27__exchange_and_add_dispatchEPii.exit.i.i.i.i.i.i, %if.end8.sink.split.i.i.i.i
  %m_elms = getelementptr inbounds %"class.OpenColorIO_v2_4dev::(anonymous namespace)::XMLParserHelper", ptr %this, i64 0, i32 4
  tail call void @_ZN19OpenColorIO_v2_4dev21XmlReaderElementStackD1Ev(ptr noundef nonnull align 8 dereferenceable(32) %m_elms) #21
  %m_fileName = getelementptr inbounds %"class.OpenColorIO_v2_4dev::(anonymous namespace)::XMLParserHelper", ptr %this, i64 0, i32 2
  tail call void @_ZNSt7__cxx1112basic_stringIcSt11char_traitsIcESaIcEED1Ev(ptr noundef nonnull align 8 dereferenceable(32) %m_fileName) #21
  ret void

terminate.lpad:                                   ; preds = %entry
  %12 = landingpad { ptr, i32 }
          catch ptr null
  %13 = extractvalue { ptr, i32 } %12, 0
  tail call void @__clang_call_terminate(ptr %13) #26
  unreachable
}

declare { i64, i64 } @_ZNSi5tellgEv(ptr noundef nonnull align 8 dereferenceable(16)) local_unnamed_addr #0

declare noundef zeroext i1 @_ZNKSt9basic_iosIcSt11char_traitsIcEE4goodEv(ptr noundef nonnull align 8 dereferenceable(264)) local_unnamed_addr #0

declare noundef nonnull align 8 dereferenceable(16) ptr @_ZNSi7getlineEPcl(ptr noundef nonnull align 8 dereferenceable(16), ptr noundef, i64 noundef) local_unnamed_addr #0

; Function Attrs: mustprogress nofree nounwind willreturn memory(argmem: read)
declare noundef ptr @strstr(ptr noundef, ptr nocapture noundef) local_unnamed_addr #11

; Function Attrs: mustprogress nofree nounwind willreturn memory(argmem: read)
declare i64 @strlen(ptr nocapture noundef) local_unnamed_addr #11

declare noundef nonnull align 8 dereferenceable(16) ptr @_ZNSi5seekgESt4fposI11__mbstate_tE(ptr noundef nonnull align 8 dereferenceable(16), i64, i64) local_unnamed_addr #0

declare ptr @XML_ParserCreate(ptr noundef) local_unnamed_addr #0

declare void @_ZN19OpenColorIO_v2_4dev21XmlReaderElementStackC1Ev(ptr noundef nonnull align 8 dereferenceable(32)) unnamed_addr #0

declare void @XML_SetUserData(ptr noundef, ptr noundef) local_unnamed_addr #0

declare void @XML_SetElementHandler(ptr noundef, ptr noundef, ptr noundef) local_unnamed_addr #0

; Function Attrs: mustprogress uwtable
define internal void @_ZN19OpenColorIO_v2_4dev12_GLOBAL__N_115XMLParserHelper19StartElementHandlerEPvPKcPS4_(ptr noundef %userData, ptr noundef %name, ptr noundef %atts) #4 align 2 personality ptr @__gxx_personality_v0 {
entry:
  %name.addr = alloca ptr, align 8
  %ref.tmp = alloca [4 x ptr], align 8
  %ref.tmp1 = alloca %"class.std::allocator.18", align 1
  %ref.tmp7 = alloca [3 x ptr], align 8
  %ref.tmp12 = alloca %"class.std::allocator.18", align 1
  %ref.tmp21 = alloca [10 x ptr], align 8
  %ref.tmp26 = alloca %"class.std::allocator.18", align 1
  %ref.tmp35 = alloca [6 x ptr], align 8
  %ref.tmp40 = alloca %"class.std::allocator.18", align 1
  %ref.tmp49 = alloca [4 x ptr], align 8
  %ref.tmp54 = alloca %"class.std::allocator.18", align 1
  %ref.tmp66 = alloca %"class.std::__cxx11::basic_string", align 8
  %ref.tmp67 = alloca %"class.std::allocator", align 1
  %pElt = alloca %"class.std::shared_ptr.21", align 8
  %pMD = alloca %"class.std::shared_ptr.24", align 8
  %agg.tmp78 = alloca %"class.std::shared_ptr.21", align 8
  %ref.tmp79 = alloca %"class.std::shared_ptr.24", align 8
  %ref.tmp86 = alloca %"class.std::shared_ptr.21", align 8
  %pElt103 = alloca %"class.std::shared_ptr.21", align 8
  %pT = alloca %"class.std::shared_ptr.27", align 8
  %agg.tmp106 = alloca %"class.std::shared_ptr.21", align 8
  %ref.tmp107 = alloca %"class.std::shared_ptr.30", align 8
  %ref.tmp108 = alloca i32, align 4
  %pT122 = alloca %"class.std::shared_ptr.27", align 8
  %ref.tmp123 = alloca i32, align 4
  %ref.tmp126 = alloca i8, align 1
  %agg.tmp129 = alloca %"class.std::shared_ptr.21", align 8
  %pElt142 = alloca %"class.std::shared_ptr.21", align 16
  %ref.tmp149 = alloca %"class.std::shared_ptr.21", align 16
  %recognizedName = alloca i8, align 1
  %pT242 = alloca %"class.std::shared_ptr.27", align 8
  %pContainer = alloca %"class.std::shared_ptr.33", align 8
  %agg.tmp246 = alloca %"class.std::shared_ptr.21", align 16
  %ref.tmp247 = alloca %"class.std::shared_ptr.30", align 16
  %ref.tmp248 = alloca i32, align 4
  %ref.tmp254 = alloca ptr, align 8
  %agg.tmp265 = alloca %"class.std::shared_ptr.21", align 16
  %ref.tmp266 = alloca %"class.std::shared_ptr.36", align 16
  %ref.tmp267 = alloca i32, align 4
  %pA = alloca %"class.std::shared_ptr.39", align 8
  %agg.tmp303 = alloca %"class.std::shared_ptr.21", align 16
  %ref.tmp304 = alloca %"class.std::shared_ptr.30", align 16
  %ref.tmp305 = alloca %"class.std::shared_ptr.21", align 8
  %ref.tmp311 = alloca i32, align 4
  %agg.tmp325 = alloca %"class.std::shared_ptr.21", align 16
  %ref.tmp326 = alloca %"class.std::shared_ptr.30", align 16
  %ref.tmp327 = alloca %"class.std::shared_ptr.21", align 8
  %ref.tmp336 = alloca i32, align 4
  %agg.tmp351 = alloca %"class.std::shared_ptr.21", align 16
  %ref.tmp352 = alloca %"class.std::shared_ptr.42", align 16
  %ref.tmp353 = alloca i32, align 4
  %agg.tmp376 = alloca %"class.std::shared_ptr.21", align 16
  %ref.tmp377 = alloca %"class.std::shared_ptr.45", align 16
  %ref.tmp378 = alloca i32, align 4
  %ref.tmp391 = alloca %"class.std::shared_ptr.48", align 8
  %agg.tmp395 = alloca %"class.std::shared_ptr.21", align 16
  %ref.tmp396 = alloca %"class.std::shared_ptr.51", align 16
  %ref.tmp397 = alloca i32, align 4
  %agg.tmp412 = alloca %"class.std::shared_ptr.21", align 16
  %ref.tmp413 = alloca %"class.std::shared_ptr.54", align 16
  %ref.tmp414 = alloca i32, align 4
  %agg.tmp433 = alloca %"class.std::shared_ptr.21", align 16
  %ref.tmp434 = alloca %"class.std::shared_ptr.57", align 16
  %ref.tmp435 = alloca %"class.std::__cxx11::basic_string", align 8
  %ref.tmp436 = alloca %"class.std::allocator", align 1
  %agg.tmp439 = alloca %"class.std::shared_ptr.33", align 8
  %pA462 = alloca %"class.std::shared_ptr.63", align 8
  %agg.tmp473 = alloca %"class.std::shared_ptr.21", align 16
  %ref.tmp474 = alloca %"class.std::shared_ptr.30", align 16
  %ref.tmp475 = alloca %"class.std::shared_ptr.21", align 8
  %ref.tmp484 = alloca i32, align 4
  %ref.tmp497 = alloca %"class.std::__cxx11::basic_string", align 8
  %ref.tmp498 = alloca %"class.std::allocator", align 1
  %agg.tmp508 = alloca %"class.std::shared_ptr.21", align 16
  %ref.tmp509 = alloca %"class.std::shared_ptr.66", align 16
  %ref.tmp510 = alloca i32, align 4
  %agg.tmp527 = alloca %"class.std::shared_ptr.21", align 16
  %ref.tmp528 = alloca %"class.std::shared_ptr.69", align 16
  %ref.tmp529 = alloca i32, align 4
  %agg.tmp544 = alloca %"class.std::shared_ptr.21", align 16
  %ref.tmp545 = alloca %"class.std::shared_ptr.72", align 16
  %ref.tmp546 = alloca i32, align 4
  %pLog = alloca %"class.std::shared_ptr.75", align 8
  %agg.tmp571 = alloca %"class.std::shared_ptr.21", align 16
  %ref.tmp572 = alloca %"class.std::shared_ptr.30", align 16
  %ref.tmp573 = alloca %"class.std::shared_ptr.21", align 8
  %ref.tmp583 = alloca i32, align 4
  %agg.tmp597 = alloca %"class.std::shared_ptr.21", align 16
  %ref.tmp598 = alloca %"class.std::shared_ptr.86", align 16
  %ref.tmp600 = alloca %"class.std::__cxx11::basic_string", align 8
  %ref.tmp601 = alloca %"class.std::allocator", align 1
  %agg.tmp604 = alloca %"class.std::shared_ptr.33", align 8
  %agg.tmp627 = alloca %"class.std::shared_ptr.21", align 16
  %ref.tmp628 = alloca %"class.std::shared_ptr.89", align 16
  %ref.tmp629 = alloca i32, align 4
  %agg.tmp644 = alloca %"class.std::shared_ptr.21", align 16
  %ref.tmp645 = alloca %"class.std::shared_ptr.92", align 16
  %ref.tmp646 = alloca i32, align 4
  %pCDL = alloca %"class.std::shared_ptr.95", align 8
  %satNodeElt = alloca %"class.std::shared_ptr.98", align 8
  %ref.tmp663 = alloca i32, align 4
  %agg.tmp671 = alloca %"class.std::shared_ptr.21", align 8
  %agg.tmp682 = alloca %"class.std::shared_ptr.21", align 16
  %ref.tmp683 = alloca %"class.std::shared_ptr.101", align 16
  %ref.tmp684 = alloca i32, align 4
  %pCDL698 = alloca %"class.std::shared_ptr.95", align 8
  %sopNodeElt = alloca %"class.std::shared_ptr.104", align 8
  %ref.tmp699 = alloca i32, align 4
  %agg.tmp707 = alloca %"class.std::shared_ptr.21", align 8
  %agg.tmp718 = alloca %"class.std::shared_ptr.21", align 16
  %ref.tmp719 = alloca %"class.std::shared_ptr.107", align 16
  %ref.tmp720 = alloca i32, align 4
  %agg.tmp735 = alloca %"class.std::shared_ptr.21", align 16
  %ref.tmp736 = alloca %"class.std::shared_ptr.110", align 16
  %ref.tmp737 = alloca i32, align 4
  %agg.tmp752 = alloca %"class.std::shared_ptr.21", align 16
  %ref.tmp753 = alloca %"class.std::shared_ptr.113", align 16
  %ref.tmp754 = alloca i32, align 4
  %agg.tmp769 = alloca %"class.std::shared_ptr.21", align 16
  %ref.tmp770 = alloca %"class.std::shared_ptr.116", align 16
  %ref.tmp771 = alloca i32, align 4
  %agg.tmp786 = alloca %"class.std::shared_ptr.21", align 16
  %ref.tmp787 = alloca %"class.std::shared_ptr.119", align 16
  %ref.tmp788 = alloca i32, align 4
  %agg.tmp803 = alloca %"class.std::shared_ptr.21", align 16
  %ref.tmp804 = alloca %"class.std::shared_ptr.122", align 16
  %ref.tmp805 = alloca i32, align 4
  %oss = alloca %"class.std::__cxx11::basic_ostringstream", align 8
  %agg.tmp827 = alloca %"class.std::shared_ptr.21", align 16
  %ref.tmp828 = alloca %"class.std::shared_ptr.30", align 16
  %ref.tmp829 = alloca %"class.std::shared_ptr.21", align 8
  %ref.tmp838 = alloca i32, align 4
  %ref.tmp844 = alloca ptr, align 8
  %ref.tmp845 = alloca %"class.std::__cxx11::basic_string", align 8
  %agg.tmp859 = alloca %"class.std::shared_ptr.21", align 16
  %ref.tmp860 = alloca %"class.std::shared_ptr.30", align 16
  %ref.tmp861 = alloca %"class.std::shared_ptr.21", align 8
  %ref.tmp870 = alloca i32, align 4
  %ref.tmp926 = alloca %"class.std::shared_ptr.21", align 8
  store ptr %name, ptr %name.addr, align 8
  %0 = load atomic i8, ptr @_ZGVZN19OpenColorIO_v2_4dev12_GLOBAL__N_115XMLParserHelper19StartElementHandlerEPvPKcPS4_E16rangeSubElements acquire, align 8
  %guard.uninitialized = icmp eq i8 %0, 0
  br i1 %guard.uninitialized, label %init.check, label %init.end, !prof !10

init.check:                                       ; preds = %entry
  %1 = tail call i32 @__cxa_guard_acquire(ptr nonnull @_ZGVZN19OpenColorIO_v2_4dev12_GLOBAL__N_115XMLParserHelper19StartElementHandlerEPvPKcPS4_E16rangeSubElements) #21
  %tobool.not = icmp eq i32 %1, 0
  br i1 %tobool.not, label %init.end, label %init

init:                                             ; preds = %init.check
  call void @llvm.memcpy.p0.p0.i64(ptr noundef nonnull align 8 dereferenceable(32) %ref.tmp, ptr noundef nonnull align 8 dereferenceable(32) @constinit, i64 32, i1 false)
  invoke void @_ZNSt6vectorIPKcSaIS1_EEC2ESt16initializer_listIS1_ERKS2_(ptr noundef nonnull align 8 dereferenceable(24) @_ZZN19OpenColorIO_v2_4dev12_GLOBAL__N_115XMLParserHelper19StartElementHandlerEPvPKcPS4_E16rangeSubElements, ptr nonnull %ref.tmp, i64 4, ptr noundef nonnull align 1 dereferenceable(1) %ref.tmp1)
          to label %invoke.cont unwind label %lpad

invoke.cont:                                      ; preds = %init
  %2 = call i32 @__cxa_atexit(ptr nonnull @_ZNSt6vectorIPKcSaIS1_EED2Ev, ptr nonnull @_ZZN19OpenColorIO_v2_4dev12_GLOBAL__N_115XMLParserHelper19StartElementHandlerEPvPKcPS4_E16rangeSubElements, ptr nonnull @__dso_handle) #21
  call void @__cxa_guard_release(ptr nonnull @_ZGVZN19OpenColorIO_v2_4dev12_GLOBAL__N_115XMLParserHelper19StartElementHandlerEPvPKcPS4_E16rangeSubElements) #21
  br label %init.end

init.end:                                         ; preds = %invoke.cont, %init.check, %entry
  %3 = load atomic i8, ptr @_ZGVZN19OpenColorIO_v2_4dev12_GLOBAL__N_115XMLParserHelper19StartElementHandlerEPvPKcPS4_E14sopSubElements acquire, align 8
  %guard.uninitialized2 = icmp eq i8 %3, 0
  br i1 %guard.uninitialized2, label %init.check3, label %init.end15, !prof !10

init.check3:                                      ; preds = %init.end
  %4 = call i32 @__cxa_guard_acquire(ptr nonnull @_ZGVZN19OpenColorIO_v2_4dev12_GLOBAL__N_115XMLParserHelper19StartElementHandlerEPvPKcPS4_E14sopSubElements) #21
  %tobool4.not = icmp eq i32 %4, 0
  br i1 %tobool4.not, label %init.end15, label %init5

init5:                                            ; preds = %init.check3
  call void @llvm.memcpy.p0.p0.i64(ptr noundef nonnull align 8 dereferenceable(24) %ref.tmp7, ptr noundef nonnull align 8 dereferenceable(24) @constinit.19, i64 24, i1 false)
  invoke void @_ZNSt6vectorIPKcSaIS1_EEC2ESt16initializer_listIS1_ERKS2_(ptr noundef nonnull align 8 dereferenceable(24) @_ZZN19OpenColorIO_v2_4dev12_GLOBAL__N_115XMLParserHelper19StartElementHandlerEPvPKcPS4_E14sopSubElements, ptr nonnull %ref.tmp7, i64 3, ptr noundef nonnull align 1 dereferenceable(1) %ref.tmp12)
          to label %invoke.cont14 unwind label %lpad13

invoke.cont14:                                    ; preds = %init5
  %5 = call i32 @__cxa_atexit(ptr nonnull @_ZNSt6vectorIPKcSaIS1_EED2Ev, ptr nonnull @_ZZN19OpenColorIO_v2_4dev12_GLOBAL__N_115XMLParserHelper19StartElementHandlerEPvPKcPS4_E14sopSubElements, ptr nonnull @__dso_handle) #21
  call void @__cxa_guard_release(ptr nonnull @_ZGVZN19OpenColorIO_v2_4dev12_GLOBAL__N_115XMLParserHelper19StartElementHandlerEPvPKcPS4_E14sopSubElements) #21
  br label %init.end15

init.end15:                                       ; preds = %invoke.cont14, %init.check3, %init.end
  %6 = load atomic i8, ptr @_ZGVZN19OpenColorIO_v2_4dev12_GLOBAL__N_115XMLParserHelper19StartElementHandlerEPvPKcPS4_E25gradingPrimarySubElements acquire, align 8
  %guard.uninitialized16 = icmp eq i8 %6, 0
  br i1 %guard.uninitialized16, label %init.check17, label %init.end29, !prof !10

init.check17:                                     ; preds = %init.end15
  %7 = call i32 @__cxa_guard_acquire(ptr nonnull @_ZGVZN19OpenColorIO_v2_4dev12_GLOBAL__N_115XMLParserHelper19StartElementHandlerEPvPKcPS4_E25gradingPrimarySubElements) #21
  %tobool18.not = icmp eq i32 %7, 0
  br i1 %tobool18.not, label %init.end29, label %init19

init19:                                           ; preds = %init.check17
  call void @llvm.memcpy.p0.p0.i64(ptr noundef nonnull align 8 dereferenceable(80) %ref.tmp21, ptr noundef nonnull align 8 dereferenceable(80) @constinit.20, i64 80, i1 false)
  invoke void @_ZNSt6vectorIPKcSaIS1_EEC2ESt16initializer_listIS1_ERKS2_(ptr noundef nonnull align 8 dereferenceable(24) @_ZZN19OpenColorIO_v2_4dev12_GLOBAL__N_115XMLParserHelper19StartElementHandlerEPvPKcPS4_E25gradingPrimarySubElements, ptr nonnull %ref.tmp21, i64 10, ptr noundef nonnull align 1 dereferenceable(1) %ref.tmp26)
          to label %invoke.cont28 unwind label %lpad27

invoke.cont28:                                    ; preds = %init19
  %8 = call i32 @__cxa_atexit(ptr nonnull @_ZNSt6vectorIPKcSaIS1_EED2Ev, ptr nonnull @_ZZN19OpenColorIO_v2_4dev12_GLOBAL__N_115XMLParserHelper19StartElementHandlerEPvPKcPS4_E25gradingPrimarySubElements, ptr nonnull @__dso_handle) #21
  call void @__cxa_guard_release(ptr nonnull @_ZGVZN19OpenColorIO_v2_4dev12_GLOBAL__N_115XMLParserHelper19StartElementHandlerEPvPKcPS4_E25gradingPrimarySubElements) #21
  br label %init.end29

init.end29:                                       ; preds = %invoke.cont28, %init.check17, %init.end15
  %9 = load atomic i8, ptr @_ZGVZN19OpenColorIO_v2_4dev12_GLOBAL__N_115XMLParserHelper19StartElementHandlerEPvPKcPS4_E22gradingToneSubElements acquire, align 8
  %guard.uninitialized30 = icmp eq i8 %9, 0
  br i1 %guard.uninitialized30, label %init.check31, label %init.end43, !prof !10

init.check31:                                     ; preds = %init.end29
  %10 = call i32 @__cxa_guard_acquire(ptr nonnull @_ZGVZN19OpenColorIO_v2_4dev12_GLOBAL__N_115XMLParserHelper19StartElementHandlerEPvPKcPS4_E22gradingToneSubElements) #21
  %tobool32.not = icmp eq i32 %10, 0
  br i1 %tobool32.not, label %init.end43, label %init33

init33:                                           ; preds = %init.check31
  call void @llvm.memcpy.p0.p0.i64(ptr noundef nonnull align 8 dereferenceable(48) %ref.tmp35, ptr noundef nonnull align 8 dereferenceable(48) @constinit.21, i64 48, i1 false)
  invoke void @_ZNSt6vectorIPKcSaIS1_EEC2ESt16initializer_listIS1_ERKS2_(ptr noundef nonnull align 8 dereferenceable(24) @_ZZN19OpenColorIO_v2_4dev12_GLOBAL__N_115XMLParserHelper19StartElementHandlerEPvPKcPS4_E22gradingToneSubElements, ptr nonnull %ref.tmp35, i64 6, ptr noundef nonnull align 1 dereferenceable(1) %ref.tmp40)
          to label %invoke.cont42 unwind label %lpad41

invoke.cont42:                                    ; preds = %init33
  %11 = call i32 @__cxa_atexit(ptr nonnull @_ZNSt6vectorIPKcSaIS1_EED2Ev, ptr nonnull @_ZZN19OpenColorIO_v2_4dev12_GLOBAL__N_115XMLParserHelper19StartElementHandlerEPvPKcPS4_E22gradingToneSubElements, ptr nonnull @__dso_handle) #21
  call void @__cxa_guard_release(ptr nonnull @_ZGVZN19OpenColorIO_v2_4dev12_GLOBAL__N_115XMLParserHelper19StartElementHandlerEPvPKcPS4_E22gradingToneSubElements) #21
  br label %init.end43

init.end43:                                       ; preds = %invoke.cont42, %init.check31, %init.end29
  %12 = load atomic i8, ptr @_ZGVZN19OpenColorIO_v2_4dev12_GLOBAL__N_115XMLParserHelper19StartElementHandlerEPvPKcPS4_E26gradingRGBCurveSubElements acquire, align 8
  %guard.uninitialized44 = icmp eq i8 %12, 0
  br i1 %guard.uninitialized44, label %init.check45, label %init.end57, !prof !10

init.check45:                                     ; preds = %init.end43
  %13 = call i32 @__cxa_guard_acquire(ptr nonnull @_ZGVZN19OpenColorIO_v2_4dev12_GLOBAL__N_115XMLParserHelper19StartElementHandlerEPvPKcPS4_E26gradingRGBCurveSubElements) #21
  %tobool46.not = icmp eq i32 %13, 0
  br i1 %tobool46.not, label %init.end57, label %init47

init47:                                           ; preds = %init.check45
  call void @llvm.memcpy.p0.p0.i64(ptr noundef nonnull align 8 dereferenceable(32) %ref.tmp49, ptr noundef nonnull align 8 dereferenceable(32) @constinit.22, i64 32, i1 false)
  invoke void @_ZNSt6vectorIPKcSaIS1_EEC2ESt16initializer_listIS1_ERKS2_(ptr noundef nonnull align 8 dereferenceable(24) @_ZZN19OpenColorIO_v2_4dev12_GLOBAL__N_115XMLParserHelper19StartElementHandlerEPvPKcPS4_E26gradingRGBCurveSubElements, ptr nonnull %ref.tmp49, i64 4, ptr noundef nonnull align 1 dereferenceable(1) %ref.tmp54)
          to label %invoke.cont56 unwind label %lpad55

invoke.cont56:                                    ; preds = %init47
  %14 = call i32 @__cxa_atexit(ptr nonnull @_ZNSt6vectorIPKcSaIS1_EED2Ev, ptr nonnull @_ZZN19OpenColorIO_v2_4dev12_GLOBAL__N_115XMLParserHelper19StartElementHandlerEPvPKcPS4_E26gradingRGBCurveSubElements, ptr nonnull @__dso_handle) #21
  call void @__cxa_guard_release(ptr nonnull @_ZGVZN19OpenColorIO_v2_4dev12_GLOBAL__N_115XMLParserHelper19StartElementHandlerEPvPKcPS4_E26gradingRGBCurveSubElements) #21
  br label %init.end57

init.end57:                                       ; preds = %invoke.cont56, %init.check45, %init.end43
  %tobool58 = icmp ne ptr %userData, null
  %15 = load ptr, ptr %name.addr, align 8
  %tobool59 = icmp ne ptr %15, null
  %or.cond = select i1 %tobool58, i1 %tobool59, i1 false
  br i1 %or.cond, label %lor.lhs.false60, label %if.then

lor.lhs.false60:                                  ; preds = %init.end57
  %16 = load i8, ptr %15, align 1
  %tobool61.not = icmp eq i8 %16, 0
  br i1 %tobool61.not, label %if.else, label %if.end72

if.then:                                          ; preds = %init.end57
  br i1 %tobool58, label %if.else, label %if.then63

if.then63:                                        ; preds = %if.then
  %exception = call ptr @__cxa_allocate_exception(i64 16) #21
  invoke void @_ZN19OpenColorIO_v2_4dev9ExceptionC1EPKc(ptr noundef nonnull align 8 dereferenceable(16) %exception, ptr noundef nonnull @.str.23)
          to label %invoke.cont65 unwind label %lpad64

invoke.cont65:                                    ; preds = %if.then63
  call void @__cxa_throw(ptr nonnull %exception, ptr nonnull @_ZTIN19OpenColorIO_v2_4dev9ExceptionE, ptr nonnull @_ZN19OpenColorIO_v2_4dev9ExceptionD1Ev) #25
  unreachable

lpad:                                             ; preds = %init
  %17 = landingpad { ptr, i32 }
          cleanup
  call void @__cxa_guard_abort(ptr nonnull @_ZGVZN19OpenColorIO_v2_4dev12_GLOBAL__N_115XMLParserHelper19StartElementHandlerEPvPKcPS4_E16rangeSubElements) #21
  br label %common.resume

lpad13:                                           ; preds = %init5
  %18 = landingpad { ptr, i32 }
          cleanup
  call void @__cxa_guard_abort(ptr nonnull @_ZGVZN19OpenColorIO_v2_4dev12_GLOBAL__N_115XMLParserHelper19StartElementHandlerEPvPKcPS4_E14sopSubElements) #21
  br label %common.resume

lpad27:                                           ; preds = %init19
  %19 = landingpad { ptr, i32 }
          cleanup
  call void @__cxa_guard_abort(ptr nonnull @_ZGVZN19OpenColorIO_v2_4dev12_GLOBAL__N_115XMLParserHelper19StartElementHandlerEPvPKcPS4_E25gradingPrimarySubElements) #21
  br label %common.resume

lpad41:                                           ; preds = %init33
  %20 = landingpad { ptr, i32 }
          cleanup
  call void @__cxa_guard_abort(ptr nonnull @_ZGVZN19OpenColorIO_v2_4dev12_GLOBAL__N_115XMLParserHelper19StartElementHandlerEPvPKcPS4_E22gradingToneSubElements) #21
  br label %common.resume

lpad55:                                           ; preds = %init47
  %21 = landingpad { ptr, i32 }
          cleanup
  call void @__cxa_guard_abort(ptr nonnull @_ZGVZN19OpenColorIO_v2_4dev12_GLOBAL__N_115XMLParserHelper19StartElementHandlerEPvPKcPS4_E26gradingRGBCurveSubElements) #21
  br label %common.resume

lpad64:                                           ; preds = %if.then63
  %22 = landingpad { ptr, i32 }
          cleanup
  call void @__cxa_free_exception(ptr %exception) #21
  br label %common.resume

if.else:                                          ; preds = %lor.lhs.false60, %if.then
  call void @_ZNSaIcEC1Ev(ptr noundef nonnull align 1 dereferenceable(1) %ref.tmp67) #21
  invoke void @_ZNSt7__cxx1112basic_stringIcSt11char_traitsIcESaIcEEC1EPKcRKS3_(ptr noundef nonnull align 8 dereferenceable(32) %ref.tmp66, ptr noundef nonnull @.str.24, ptr noundef nonnull align 1 dereferenceable(1) %ref.tmp67)
          to label %invoke.cont69 unwind label %lpad68

invoke.cont69:                                    ; preds = %if.else
  invoke fastcc void @_ZNK19OpenColorIO_v2_4dev12_GLOBAL__N_115XMLParserHelper12throwMessageERKNSt7__cxx1112basic_stringIcSt11char_traitsIcESaIcEEE(ptr noundef nonnull align 8 dereferenceable(104) %userData, ptr noundef nonnull align 8 dereferenceable(32) %ref.tmp66)
          to label %invoke.cont71.unreachable unwind label %lpad70

invoke.cont71.unreachable:                        ; preds = %invoke.cont69
  unreachable

lpad68:                                           ; preds = %if.else
  %23 = landingpad { ptr, i32 }
          cleanup
  br label %ehcleanup

lpad70:                                           ; preds = %invoke.cont69
  %24 = landingpad { ptr, i32 }
          cleanup
  call void @_ZNSt7__cxx1112basic_stringIcSt11char_traitsIcESaIcEED1Ev(ptr noundef nonnull align 8 dereferenceable(32) %ref.tmp66) #21
  br label %ehcleanup

ehcleanup:                                        ; preds = %lpad70, %lpad68
  %.pn = phi { ptr, i32 } [ %24, %lpad70 ], [ %23, %lpad68 ]
  call void @_ZNSaIcED1Ev(ptr noundef nonnull align 1 dereferenceable(1) %ref.tmp67) #21
  br label %common.resume

if.end72:                                         ; preds = %lor.lhs.false60
  %m_elms = getelementptr inbounds %"class.OpenColorIO_v2_4dev::(anonymous namespace)::XMLParserHelper", ptr %userData, i64 0, i32 4
  %call = call noundef zeroext i1 @_ZNK19OpenColorIO_v2_4dev21XmlReaderElementStack5emptyEv(ptr noundef nonnull align 8 dereferenceable(32) %m_elms)
  br i1 %call, label %if.end97, label %if.then73

if.then73:                                        ; preds = %if.end72
  call void @_ZNK19OpenColorIO_v2_4dev21XmlReaderElementStack4backEv(ptr nonnull sret(%"class.std::shared_ptr.21") align 8 %pElt, ptr noundef nonnull align 8 dereferenceable(32) %m_elms)
  call void @llvm.experimental.noalias.scope.decl(metadata !49)
  %25 = load ptr, ptr %pElt, align 8, !noalias !49
  %26 = icmp eq ptr %25, null
  br i1 %26, label %_ZSt20dynamic_pointer_castIN19OpenColorIO_v2_4dev20CTFReaderMetadataEltENS0_16XmlReaderElementEESt10shared_ptrIT_ERKS3_IT0_E.exit.thread991, label %dynamic_cast.end.i

dynamic_cast.end.i:                               ; preds = %if.then73
  %27 = call ptr @__dynamic_cast(ptr nonnull %25, ptr nonnull @_ZTIN19OpenColorIO_v2_4dev16XmlReaderElementE, ptr nonnull @_ZTIN19OpenColorIO_v2_4dev20CTFReaderMetadataEltE, i64 0) #21, !noalias !49
  %tobool.not.i = icmp eq ptr %27, null
  br i1 %tobool.not.i, label %_ZSt20dynamic_pointer_castIN19OpenColorIO_v2_4dev20CTFReaderMetadataEltENS0_16XmlReaderElementEESt10shared_ptrIT_ERKS3_IT0_E.exit.thread991, label %if.then.i

if.then.i:                                        ; preds = %dynamic_cast.end.i
  store ptr %27, ptr %pMD, align 8, !alias.scope !49
  %_M_refcount.i.i.i = getelementptr inbounds %"class.std::__shared_ptr.25", ptr %pMD, i64 0, i32 1
  %_M_refcount2.i.i.i = getelementptr inbounds %"class.std::__shared_ptr.22", ptr %pElt, i64 0, i32 1
  %28 = load ptr, ptr %_M_refcount2.i.i.i, align 8, !noalias !49
  store ptr %28, ptr %_M_refcount.i.i.i, align 8, !alias.scope !49
  %cmp.not.i.i.i.i = icmp eq ptr %28, null
  br i1 %cmp.not.i.i.i.i, label %if.then76, label %if.then.i.i.i.i

if.then.i.i.i.i:                                  ; preds = %if.then.i
  %_M_use_count.i.i.i.i.i = getelementptr inbounds %"class.std::_Sp_counted_base", ptr %28, i64 0, i32 1
  %29 = load i8, ptr @__libc_single_threaded, align 1, !noalias !49
  %tobool.i.not.i.i.i.i.i = icmp eq i8 %29, 0
  br i1 %tobool.i.not.i.i.i.i.i, label %_ZSt20dynamic_pointer_castIN19OpenColorIO_v2_4dev20CTFReaderMetadataEltENS0_16XmlReaderElementEESt10shared_ptrIT_ERKS3_IT0_E.exit, label %if.then.i.i.i.i.i.i

if.then.i.i.i.i.i.i:                              ; preds = %if.then.i.i.i.i
  %30 = load i32, ptr %_M_use_count.i.i.i.i.i, align 4, !noalias !49
  %add.i.i.i.i.i.i = add nsw i32 %30, 1
  store i32 %add.i.i.i.i.i.i, ptr %_M_use_count.i.i.i.i.i, align 4, !noalias !49
  br label %if.then76

_ZSt20dynamic_pointer_castIN19OpenColorIO_v2_4dev20CTFReaderMetadataEltENS0_16XmlReaderElementEESt10shared_ptrIT_ERKS3_IT0_E.exit.thread991: ; preds = %if.then73, %dynamic_cast.end.i
  call void @llvm.memset.p0.i64(ptr noundef nonnull align 8 dereferenceable(16) %pMD, i8 0, i64 16, i1 false), !alias.scope !49
  br label %cleanup

_ZSt20dynamic_pointer_castIN19OpenColorIO_v2_4dev20CTFReaderMetadataEltENS0_16XmlReaderElementEESt10shared_ptrIT_ERKS3_IT0_E.exit: ; preds = %if.then.i.i.i.i
  %31 = atomicrmw volatile add ptr %_M_use_count.i.i.i.i.i, i32 1 acq_rel, align 4, !noalias !49
  %.pr.pre = load ptr, ptr %pMD, align 8
  %cmp.i.not = icmp eq ptr %.pr.pre, null
  br i1 %cmp.i.not, label %cleanup, label %if.then76

if.then76:                                        ; preds = %if.then.i, %if.then.i.i.i.i.i.i, %_ZSt20dynamic_pointer_castIN19OpenColorIO_v2_4dev20CTFReaderMetadataEltENS0_16XmlReaderElementEESt10shared_ptrIT_ERKS3_IT0_E.exit
  call void @llvm.experimental.noalias.scope.decl(metadata !52)
  store ptr null, ptr %ref.tmp79, align 8, !alias.scope !52
  %call5.i.i.i3.i.i.i.i217 = invoke noalias noundef nonnull dereferenceable(232) ptr @_Znwm(i64 noundef 232) #22
          to label %call5.i.i.i3.i.i.i.i.noexc unwind label %lpad80

call5.i.i.i3.i.i.i.i.noexc:                       ; preds = %if.then76
  %m_fileName = getelementptr inbounds %"class.OpenColorIO_v2_4dev::(anonymous namespace)::XMLParserHelper", ptr %userData, i64 0, i32 2
  %m_lineNumber = getelementptr inbounds %"class.OpenColorIO_v2_4dev::(anonymous namespace)::XMLParserHelper", ptr %userData, i64 0, i32 1
  %_M_use_count.i.i.i.i.i.i = getelementptr inbounds %"class.std::_Sp_counted_base", ptr %call5.i.i.i3.i.i.i.i217, i64 0, i32 1
  store i32 1, ptr %_M_use_count.i.i.i.i.i.i, align 8, !noalias !52
  %_M_weak_count.i.i.i.i.i.i = getelementptr inbounds %"class.std::_Sp_counted_base", ptr %call5.i.i.i3.i.i.i.i217, i64 0, i32 2
  store i32 1, ptr %_M_weak_count.i.i.i.i.i.i, align 4, !noalias !52
  store ptr getelementptr inbounds ({ [7 x ptr] }, ptr @_ZTVSt23_Sp_counted_ptr_inplaceIN19OpenColorIO_v2_4dev20CTFReaderMetadataEltESaIvELN9__gnu_cxx12_Lock_policyE2EE, i64 0, inrange i32 0, i64 2), ptr %call5.i.i.i3.i.i.i.i217, align 8, !noalias !52
  %_M_impl.i.i.i.i.i.i = getelementptr inbounds %"class.std::_Sp_counted_ptr_inplace", ptr %call5.i.i.i3.i.i.i.i217, i64 0, i32 1
  invoke void @_ZSt10_ConstructIN19OpenColorIO_v2_4dev20CTFReaderMetadataEltEJRPKcRSt10shared_ptrIS1_ERjRNSt7__cxx1112basic_stringIcSt11char_traitsIcESaIcEEEEEvPT_DpOT0_(ptr noundef nonnull %_M_impl.i.i.i.i.i.i, ptr noundef nonnull align 8 dereferenceable(8) %name.addr, ptr noundef nonnull align 8 dereferenceable(16) %pMD, ptr noundef nonnull align 4 dereferenceable(4) %m_lineNumber, ptr noundef nonnull align 8 dereferenceable(32) %m_fileName)
          to label %invoke.cont81 unwind label %_ZNSt15__allocated_ptrISaISt23_Sp_counted_ptr_inplaceIN19OpenColorIO_v2_4dev20CTFReaderMetadataEltESaIvELN9__gnu_cxx12_Lock_policyE2EEEED2Ev.exit9.i.i.i.i, !noalias !52

_ZNSt15__allocated_ptrISaISt23_Sp_counted_ptr_inplaceIN19OpenColorIO_v2_4dev20CTFReaderMetadataEltESaIvELN9__gnu_cxx12_Lock_policyE2EEEED2Ev.exit9.i.i.i.i: ; preds = %call5.i.i.i3.i.i.i.i.noexc
  %32 = landingpad { ptr, i32 }
          cleanup
  call void @_ZdlPv(ptr noundef nonnull %call5.i.i.i3.i.i.i.i217) #23, !noalias !52
  br label %ehcleanup94

invoke.cont81:                                    ; preds = %call5.i.i.i3.i.i.i.i.noexc
  %_M_refcount.i.i.i216 = getelementptr inbounds %"class.std::__shared_ptr.25", ptr %ref.tmp79, i64 0, i32 1
  store ptr %_M_impl.i.i.i.i.i.i, ptr %agg.tmp78, align 8
  %_M_refcount.i.i = getelementptr inbounds %"class.std::__shared_ptr.22", ptr %agg.tmp78, i64 0, i32 1
  store ptr null, ptr %_M_refcount.i.i.i216, align 8
  store ptr %call5.i.i.i3.i.i.i.i217, ptr %_M_refcount.i.i, align 8
  store ptr null, ptr %ref.tmp79, align 8
  invoke void @_ZN19OpenColorIO_v2_4dev21XmlReaderElementStack9push_backESt10shared_ptrINS_16XmlReaderElementEE(ptr noundef nonnull align 8 dereferenceable(32) %m_elms, ptr noundef nonnull %agg.tmp78)
          to label %invoke.cont83 unwind label %lpad82

invoke.cont83:                                    ; preds = %invoke.cont81
  %33 = load ptr, ptr %_M_refcount.i.i, align 8
  %cmp.not.i.i.i = icmp eq ptr %33, null
  br i1 %cmp.not.i.i.i, label %_ZNSt10shared_ptrIN19OpenColorIO_v2_4dev16XmlReaderElementEED2Ev.exit, label %if.then.i.i.i

if.then.i.i.i:                                    ; preds = %invoke.cont83
  %_M_use_count.i.i.i.i = getelementptr inbounds %"class.std::_Sp_counted_base", ptr %33, i64 0, i32 1
  %34 = load atomic i64, ptr %_M_use_count.i.i.i.i acquire, align 8
  %cmp.i.i.i.i = icmp eq i64 %34, 4294967297
  %35 = trunc i64 %34 to i32
  br i1 %cmp.i.i.i.i, label %if.then.i.i.i.i220, label %if.end.i.i.i.i

if.then.i.i.i.i220:                               ; preds = %if.then.i.i.i
  store i32 0, ptr %_M_use_count.i.i.i.i, align 8
  %_M_weak_count.i.i.i.i = getelementptr inbounds %"class.std::_Sp_counted_base", ptr %33, i64 0, i32 2
  store i32 0, ptr %_M_weak_count.i.i.i.i, align 4
  %vtable.i.i.i.i = load ptr, ptr %33, align 8
  %vfn.i.i.i.i = getelementptr inbounds ptr, ptr %vtable.i.i.i.i, i64 2
  %36 = load ptr, ptr %vfn.i.i.i.i, align 8
  call void %36(ptr noundef nonnull align 8 dereferenceable(16) %33) #21
  br label %if.end8.sink.split.i.i.i.i

if.end.i.i.i.i:                                   ; preds = %if.then.i.i.i
  %37 = load i8, ptr @__libc_single_threaded, align 1
  %tobool.i.i.not.i.i.i.i = icmp eq i8 %37, 0
  br i1 %tobool.i.i.not.i.i.i.i, label %if.else.i.i.i.i.i, label %if.then.i.i.i.i.i

if.then.i.i.i.i.i:                                ; preds = %if.end.i.i.i.i
  %add.i.i.i.i.i = add nsw i32 %35, -1
  store i32 %add.i.i.i.i.i, ptr %_M_use_count.i.i.i.i, align 4
  br label %_ZN9__gnu_cxx27__exchange_and_add_dispatchEPii.exit.i.i.i.i

if.else.i.i.i.i.i:                                ; preds = %if.end.i.i.i.i
  %38 = atomicrmw volatile add ptr %_M_use_count.i.i.i.i, i32 -1 acq_rel, align 4
  br label %_ZN9__gnu_cxx27__exchange_and_add_dispatchEPii.exit.i.i.i.i

_ZN9__gnu_cxx27__exchange_and_add_dispatchEPii.exit.i.i.i.i: ; preds = %if.else.i.i.i.i.i, %if.then.i.i.i.i.i
  %retval.i.0.i.i.i.i = phi i32 [ %35, %if.then.i.i.i.i.i ], [ %38, %if.else.i.i.i.i.i ]
  %cmp6.i.i.i.i = icmp eq i32 %retval.i.0.i.i.i.i, 1
  br i1 %cmp6.i.i.i.i, label %if.then7.i.i.i.i, label %_ZNSt10shared_ptrIN19OpenColorIO_v2_4dev16XmlReaderElementEED2Ev.exit

if.then7.i.i.i.i:                                 ; preds = %_ZN9__gnu_cxx27__exchange_and_add_dispatchEPii.exit.i.i.i.i
  %vtable.i.i.i.i.i.i = load ptr, ptr %33, align 8
  %vfn.i.i.i.i.i.i = getelementptr inbounds ptr, ptr %vtable.i.i.i.i.i.i, i64 2
  %39 = load ptr, ptr %vfn.i.i.i.i.i.i, align 8
  call void %39(ptr noundef nonnull align 8 dereferenceable(16) %33) #21
  %_M_weak_count.i.i.i.i.i.i219 = getelementptr inbounds %"class.std::_Sp_counted_base", ptr %33, i64 0, i32 2
  %40 = load i8, ptr @__libc_single_threaded, align 1
  %tobool.i.i.not.i.i.i.i.i.i = icmp eq i8 %40, 0
  br i1 %tobool.i.i.not.i.i.i.i.i.i, label %if.else.i.i.i.i.i.i.i, label %if.then.i.i.i.i.i.i.i

if.then.i.i.i.i.i.i.i:                            ; preds = %if.then7.i.i.i.i
  %41 = load i32, ptr %_M_weak_count.i.i.i.i.i.i219, align 4
  %add.i.i.i.i.i.i.i = add nsw i32 %41, -1
  store i32 %add.i.i.i.i.i.i.i, ptr %_M_weak_count.i.i.i.i.i.i219, align 4
  br label %_ZN9__gnu_cxx27__exchange_and_add_dispatchEPii.exit.i.i.i.i.i.i

if.else.i.i.i.i.i.i.i:                            ; preds = %if.then7.i.i.i.i
  %42 = atomicrmw volatile add ptr %_M_weak_count.i.i.i.i.i.i219, i32 -1 acq_rel, align 4
  br label %_ZN9__gnu_cxx27__exchange_and_add_dispatchEPii.exit.i.i.i.i.i.i

_ZN9__gnu_cxx27__exchange_and_add_dispatchEPii.exit.i.i.i.i.i.i: ; preds = %if.else.i.i.i.i.i.i.i, %if.then.i.i.i.i.i.i.i
  %retval.i.0.i.i.i.i.i.i = phi i32 [ %41, %if.then.i.i.i.i.i.i.i ], [ %42, %if.else.i.i.i.i.i.i.i ]
  %cmp.i.i.i.i.i.i = icmp eq i32 %retval.i.0.i.i.i.i.i.i, 1
  br i1 %cmp.i.i.i.i.i.i, label %if.end8.sink.split.i.i.i.i, label %_ZNSt10shared_ptrIN19OpenColorIO_v2_4dev16XmlReaderElementEED2Ev.exit

if.end8.sink.split.i.i.i.i:                       ; preds = %_ZN9__gnu_cxx27__exchange_and_add_dispatchEPii.exit.i.i.i.i.i.i, %if.then.i.i.i.i220
  %vtable2.i.i.i.i.i.i = load ptr, ptr %33, align 8
  %vfn3.i.i.i.i.i.i = getelementptr inbounds ptr, ptr %vtable2.i.i.i.i.i.i, i64 3
  %43 = load ptr, ptr %vfn3.i.i.i.i.i.i, align 8
  call void %43(ptr noundef nonnull align 8 dereferenceable(16) %33) #21
  br label %_ZNSt10shared_ptrIN19OpenColorIO_v2_4dev16XmlReaderElementEED2Ev.exit

_ZNSt10shared_ptrIN19OpenColorIO_v2_4dev16XmlReaderElementEED2Ev.exit: ; preds = %invoke.cont83, %_ZN9__gnu_cxx27__exchange_and_add_dispatchEPii.exit.i.i.i.i, %_ZN9__gnu_cxx27__exchange_and_add_dispatchEPii.exit.i.i.i.i.i.i, %if.end8.sink.split.i.i.i.i
  %44 = load ptr, ptr %_M_refcount.i.i.i216, align 8
  %cmp.not.i.i.i222 = icmp eq ptr %44, null
  br i1 %cmp.not.i.i.i222, label %_ZNSt10shared_ptrIN19OpenColorIO_v2_4dev20CTFReaderMetadataEltEED2Ev.exit, label %if.then.i.i.i223

if.then.i.i.i223:                                 ; preds = %_ZNSt10shared_ptrIN19OpenColorIO_v2_4dev16XmlReaderElementEED2Ev.exit
  %_M_use_count.i.i.i.i224 = getelementptr inbounds %"class.std::_Sp_counted_base", ptr %44, i64 0, i32 1
  %45 = load atomic i64, ptr %_M_use_count.i.i.i.i224 acquire, align 8
  %cmp.i.i.i.i225 = icmp eq i64 %45, 4294967297
  %46 = trunc i64 %45 to i32
  br i1 %cmp.i.i.i.i225, label %if.then.i.i.i.i248, label %if.end.i.i.i.i226

if.then.i.i.i.i248:                               ; preds = %if.then.i.i.i223
  store i32 0, ptr %_M_use_count.i.i.i.i224, align 8
  %_M_weak_count.i.i.i.i249 = getelementptr inbounds %"class.std::_Sp_counted_base", ptr %44, i64 0, i32 2
  store i32 0, ptr %_M_weak_count.i.i.i.i249, align 4
  %vtable.i.i.i.i250 = load ptr, ptr %44, align 8
  %vfn.i.i.i.i251 = getelementptr inbounds ptr, ptr %vtable.i.i.i.i250, i64 2
  %47 = load ptr, ptr %vfn.i.i.i.i251, align 8
  call void %47(ptr noundef nonnull align 8 dereferenceable(16) %44) #21
  br label %if.end8.sink.split.i.i.i.i243

if.end.i.i.i.i226:                                ; preds = %if.then.i.i.i223
  %48 = load i8, ptr @__libc_single_threaded, align 1
  %tobool.i.i.not.i.i.i.i227 = icmp eq i8 %48, 0
  br i1 %tobool.i.i.not.i.i.i.i227, label %if.else.i.i.i.i.i247, label %if.then.i.i.i.i.i228

if.then.i.i.i.i.i228:                             ; preds = %if.end.i.i.i.i226
  %add.i.i.i.i.i229 = add nsw i32 %46, -1
  store i32 %add.i.i.i.i.i229, ptr %_M_use_count.i.i.i.i224, align 4
  br label %_ZN9__gnu_cxx27__exchange_and_add_dispatchEPii.exit.i.i.i.i230

if.else.i.i.i.i.i247:                             ; preds = %if.end.i.i.i.i226
  %49 = atomicrmw volatile add ptr %_M_use_count.i.i.i.i224, i32 -1 acq_rel, align 4
  br label %_ZN9__gnu_cxx27__exchange_and_add_dispatchEPii.exit.i.i.i.i230

_ZN9__gnu_cxx27__exchange_and_add_dispatchEPii.exit.i.i.i.i230: ; preds = %if.else.i.i.i.i.i247, %if.then.i.i.i.i.i228
  %retval.i.0.i.i.i.i231 = phi i32 [ %46, %if.then.i.i.i.i.i228 ], [ %49, %if.else.i.i.i.i.i247 ]
  %cmp6.i.i.i.i232 = icmp eq i32 %retval.i.0.i.i.i.i231, 1
  br i1 %cmp6.i.i.i.i232, label %if.then7.i.i.i.i233, label %_ZNSt10shared_ptrIN19OpenColorIO_v2_4dev20CTFReaderMetadataEltEED2Ev.exit

if.then7.i.i.i.i233:                              ; preds = %_ZN9__gnu_cxx27__exchange_and_add_dispatchEPii.exit.i.i.i.i230
  %vtable.i.i.i.i.i.i234 = load ptr, ptr %44, align 8
  %vfn.i.i.i.i.i.i235 = getelementptr inbounds ptr, ptr %vtable.i.i.i.i.i.i234, i64 2
  %50 = load ptr, ptr %vfn.i.i.i.i.i.i235, align 8
  call void %50(ptr noundef nonnull align 8 dereferenceable(16) %44) #21
  %_M_weak_count.i.i.i.i.i.i236 = getelementptr inbounds %"class.std::_Sp_counted_base", ptr %44, i64 0, i32 2
  %51 = load i8, ptr @__libc_single_threaded, align 1
  %tobool.i.i.not.i.i.i.i.i.i237 = icmp eq i8 %51, 0
  br i1 %tobool.i.i.not.i.i.i.i.i.i237, label %if.else.i.i.i.i.i.i.i246, label %if.then.i.i.i.i.i.i.i238

if.then.i.i.i.i.i.i.i238:                         ; preds = %if.then7.i.i.i.i233
  %52 = load i32, ptr %_M_weak_count.i.i.i.i.i.i236, align 4
  %add.i.i.i.i.i.i.i239 = add nsw i32 %52, -1
  store i32 %add.i.i.i.i.i.i.i239, ptr %_M_weak_count.i.i.i.i.i.i236, align 4
  br label %_ZN9__gnu_cxx27__exchange_and_add_dispatchEPii.exit.i.i.i.i.i.i240

if.else.i.i.i.i.i.i.i246:                         ; preds = %if.then7.i.i.i.i233
  %53 = atomicrmw volatile add ptr %_M_weak_count.i.i.i.i.i.i236, i32 -1 acq_rel, align 4
  br label %_ZN9__gnu_cxx27__exchange_and_add_dispatchEPii.exit.i.i.i.i.i.i240

_ZN9__gnu_cxx27__exchange_and_add_dispatchEPii.exit.i.i.i.i.i.i240: ; preds = %if.else.i.i.i.i.i.i.i246, %if.then.i.i.i.i.i.i.i238
  %retval.i.0.i.i.i.i.i.i241 = phi i32 [ %52, %if.then.i.i.i.i.i.i.i238 ], [ %53, %if.else.i.i.i.i.i.i.i246 ]
  %cmp.i.i.i.i.i.i242 = icmp eq i32 %retval.i.0.i.i.i.i.i.i241, 1
  br i1 %cmp.i.i.i.i.i.i242, label %if.end8.sink.split.i.i.i.i243, label %_ZNSt10shared_ptrIN19OpenColorIO_v2_4dev20CTFReaderMetadataEltEED2Ev.exit

if.end8.sink.split.i.i.i.i243:                    ; preds = %_ZN9__gnu_cxx27__exchange_and_add_dispatchEPii.exit.i.i.i.i.i.i240, %if.then.i.i.i.i248
  %vtable2.i.i.i.i.i.i244 = load ptr, ptr %44, align 8
  %vfn3.i.i.i.i.i.i245 = getelementptr inbounds ptr, ptr %vtable2.i.i.i.i.i.i244, i64 3
  %54 = load ptr, ptr %vfn3.i.i.i.i.i.i245, align 8
  call void %54(ptr noundef nonnull align 8 dereferenceable(16) %44) #21
  br label %_ZNSt10shared_ptrIN19OpenColorIO_v2_4dev20CTFReaderMetadataEltEED2Ev.exit

_ZNSt10shared_ptrIN19OpenColorIO_v2_4dev20CTFReaderMetadataEltEED2Ev.exit: ; preds = %_ZNSt10shared_ptrIN19OpenColorIO_v2_4dev16XmlReaderElementEED2Ev.exit, %_ZN9__gnu_cxx27__exchange_and_add_dispatchEPii.exit.i.i.i.i230, %_ZN9__gnu_cxx27__exchange_and_add_dispatchEPii.exit.i.i.i.i.i.i240, %if.end8.sink.split.i.i.i.i243
  invoke void @_ZNK19OpenColorIO_v2_4dev21XmlReaderElementStack4backEv(ptr nonnull sret(%"class.std::shared_ptr.21") align 8 %ref.tmp86, ptr noundef nonnull align 8 dereferenceable(32) %m_elms)
          to label %invoke.cont88 unwind label %lpad80

invoke.cont88:                                    ; preds = %_ZNSt10shared_ptrIN19OpenColorIO_v2_4dev20CTFReaderMetadataEltEED2Ev.exit
  %55 = load ptr, ptr %ref.tmp86, align 8
  %vtable = load ptr, ptr %55, align 8
  %vfn = getelementptr inbounds ptr, ptr %vtable, i64 2
  %56 = load ptr, ptr %vfn, align 8
  invoke void %56(ptr noundef nonnull align 8 dereferenceable(80) %55, ptr noundef %atts)
          to label %invoke.cont91 unwind label %lpad90

invoke.cont91:                                    ; preds = %invoke.cont88
  %_M_refcount.i.i252 = getelementptr inbounds %"class.std::__shared_ptr.22", ptr %ref.tmp86, i64 0, i32 1
  %57 = load ptr, ptr %_M_refcount.i.i252, align 8
  %cmp.not.i.i.i253 = icmp eq ptr %57, null
  br i1 %cmp.not.i.i.i253, label %cleanup, label %if.then.i.i.i254

if.then.i.i.i254:                                 ; preds = %invoke.cont91
  %_M_use_count.i.i.i.i255 = getelementptr inbounds %"class.std::_Sp_counted_base", ptr %57, i64 0, i32 1
  %58 = load atomic i64, ptr %_M_use_count.i.i.i.i255 acquire, align 8
  %cmp.i.i.i.i256 = icmp eq i64 %58, 4294967297
  %59 = trunc i64 %58 to i32
  br i1 %cmp.i.i.i.i256, label %if.then.i.i.i.i279, label %if.end.i.i.i.i257

if.then.i.i.i.i279:                               ; preds = %if.then.i.i.i254
  store i32 0, ptr %_M_use_count.i.i.i.i255, align 8
  %_M_weak_count.i.i.i.i280 = getelementptr inbounds %"class.std::_Sp_counted_base", ptr %57, i64 0, i32 2
  store i32 0, ptr %_M_weak_count.i.i.i.i280, align 4
  %vtable.i.i.i.i281 = load ptr, ptr %57, align 8
  %vfn.i.i.i.i282 = getelementptr inbounds ptr, ptr %vtable.i.i.i.i281, i64 2
  %60 = load ptr, ptr %vfn.i.i.i.i282, align 8
  call void %60(ptr noundef nonnull align 8 dereferenceable(16) %57) #21
  br label %if.end8.sink.split.i.i.i.i274

if.end.i.i.i.i257:                                ; preds = %if.then.i.i.i254
  %61 = load i8, ptr @__libc_single_threaded, align 1
  %tobool.i.i.not.i.i.i.i258 = icmp eq i8 %61, 0
  br i1 %tobool.i.i.not.i.i.i.i258, label %if.else.i.i.i.i.i278, label %if.then.i.i.i.i.i259

if.then.i.i.i.i.i259:                             ; preds = %if.end.i.i.i.i257
  %add.i.i.i.i.i260 = add nsw i32 %59, -1
  store i32 %add.i.i.i.i.i260, ptr %_M_use_count.i.i.i.i255, align 4
  br label %_ZN9__gnu_cxx27__exchange_and_add_dispatchEPii.exit.i.i.i.i261

if.else.i.i.i.i.i278:                             ; preds = %if.end.i.i.i.i257
  %62 = atomicrmw volatile add ptr %_M_use_count.i.i.i.i255, i32 -1 acq_rel, align 4
  br label %_ZN9__gnu_cxx27__exchange_and_add_dispatchEPii.exit.i.i.i.i261

_ZN9__gnu_cxx27__exchange_and_add_dispatchEPii.exit.i.i.i.i261: ; preds = %if.else.i.i.i.i.i278, %if.then.i.i.i.i.i259
  %retval.i.0.i.i.i.i262 = phi i32 [ %59, %if.then.i.i.i.i.i259 ], [ %62, %if.else.i.i.i.i.i278 ]
  %cmp6.i.i.i.i263 = icmp eq i32 %retval.i.0.i.i.i.i262, 1
  br i1 %cmp6.i.i.i.i263, label %if.then7.i.i.i.i264, label %cleanup

if.then7.i.i.i.i264:                              ; preds = %_ZN9__gnu_cxx27__exchange_and_add_dispatchEPii.exit.i.i.i.i261
  %vtable.i.i.i.i.i.i265 = load ptr, ptr %57, align 8
  %vfn.i.i.i.i.i.i266 = getelementptr inbounds ptr, ptr %vtable.i.i.i.i.i.i265, i64 2
  %63 = load ptr, ptr %vfn.i.i.i.i.i.i266, align 8
  call void %63(ptr noundef nonnull align 8 dereferenceable(16) %57) #21
  %_M_weak_count.i.i.i.i.i.i267 = getelementptr inbounds %"class.std::_Sp_counted_base", ptr %57, i64 0, i32 2
  %64 = load i8, ptr @__libc_single_threaded, align 1
  %tobool.i.i.not.i.i.i.i.i.i268 = icmp eq i8 %64, 0
  br i1 %tobool.i.i.not.i.i.i.i.i.i268, label %if.else.i.i.i.i.i.i.i277, label %if.then.i.i.i.i.i.i.i269

if.then.i.i.i.i.i.i.i269:                         ; preds = %if.then7.i.i.i.i264
  %65 = load i32, ptr %_M_weak_count.i.i.i.i.i.i267, align 4
  %add.i.i.i.i.i.i.i270 = add nsw i32 %65, -1
  store i32 %add.i.i.i.i.i.i.i270, ptr %_M_weak_count.i.i.i.i.i.i267, align 4
  br label %_ZN9__gnu_cxx27__exchange_and_add_dispatchEPii.exit.i.i.i.i.i.i271

if.else.i.i.i.i.i.i.i277:                         ; preds = %if.then7.i.i.i.i264
  %66 = atomicrmw volatile add ptr %_M_weak_count.i.i.i.i.i.i267, i32 -1 acq_rel, align 4
  br label %_ZN9__gnu_cxx27__exchange_and_add_dispatchEPii.exit.i.i.i.i.i.i271

_ZN9__gnu_cxx27__exchange_and_add_dispatchEPii.exit.i.i.i.i.i.i271: ; preds = %if.else.i.i.i.i.i.i.i277, %if.then.i.i.i.i.i.i.i269
  %retval.i.0.i.i.i.i.i.i272 = phi i32 [ %65, %if.then.i.i.i.i.i.i.i269 ], [ %66, %if.else.i.i.i.i.i.i.i277 ]
  %cmp.i.i.i.i.i.i273 = icmp eq i32 %retval.i.0.i.i.i.i.i.i272, 1
  br i1 %cmp.i.i.i.i.i.i273, label %if.end8.sink.split.i.i.i.i274, label %cleanup

if.end8.sink.split.i.i.i.i274:                    ; preds = %_ZN9__gnu_cxx27__exchange_and_add_dispatchEPii.exit.i.i.i.i.i.i271, %if.then.i.i.i.i279
  %vtable2.i.i.i.i.i.i275 = load ptr, ptr %57, align 8
  %vfn3.i.i.i.i.i.i276 = getelementptr inbounds ptr, ptr %vtable2.i.i.i.i.i.i275, i64 3
  %67 = load ptr, ptr %vfn3.i.i.i.i.i.i276, align 8
  call void %67(ptr noundef nonnull align 8 dereferenceable(16) %57) #21
  br label %cleanup

lpad80:                                           ; preds = %if.then76, %_ZNSt10shared_ptrIN19OpenColorIO_v2_4dev20CTFReaderMetadataEltEED2Ev.exit
  %68 = landingpad { ptr, i32 }
          cleanup
  br label %ehcleanup94

lpad82:                                           ; preds = %invoke.cont81
  %69 = landingpad { ptr, i32 }
          cleanup
  call void @_ZNSt10shared_ptrIN19OpenColorIO_v2_4dev16XmlReaderElementEED2Ev(ptr noundef nonnull align 8 dereferenceable(16) %agg.tmp78) #21
  call void @_ZNSt10shared_ptrIN19OpenColorIO_v2_4dev20CTFReaderMetadataEltEED2Ev(ptr noundef nonnull align 8 dereferenceable(16) %ref.tmp79) #21
  br label %ehcleanup94

lpad90:                                           ; preds = %invoke.cont88
  %70 = landingpad { ptr, i32 }
          cleanup
  call void @_ZNSt10shared_ptrIN19OpenColorIO_v2_4dev16XmlReaderElementEED2Ev(ptr noundef nonnull align 8 dereferenceable(16) %ref.tmp86) #21
  br label %ehcleanup94

cleanup:                                          ; preds = %_ZSt20dynamic_pointer_castIN19OpenColorIO_v2_4dev20CTFReaderMetadataEltENS0_16XmlReaderElementEESt10shared_ptrIT_ERKS3_IT0_E.exit.thread991, %if.end8.sink.split.i.i.i.i274, %_ZN9__gnu_cxx27__exchange_and_add_dispatchEPii.exit.i.i.i.i.i.i271, %_ZN9__gnu_cxx27__exchange_and_add_dispatchEPii.exit.i.i.i.i261, %invoke.cont91, %_ZSt20dynamic_pointer_castIN19OpenColorIO_v2_4dev20CTFReaderMetadataEltENS0_16XmlReaderElementEESt10shared_ptrIT_ERKS3_IT0_E.exit
  %cmp.i.not990 = phi i1 [ false, %if.end8.sink.split.i.i.i.i274 ], [ false, %_ZN9__gnu_cxx27__exchange_and_add_dispatchEPii.exit.i.i.i.i.i.i271 ], [ false, %_ZN9__gnu_cxx27__exchange_and_add_dispatchEPii.exit.i.i.i.i261 ], [ false, %invoke.cont91 ], [ true, %_ZSt20dynamic_pointer_castIN19OpenColorIO_v2_4dev20CTFReaderMetadataEltENS0_16XmlReaderElementEESt10shared_ptrIT_ERKS3_IT0_E.exit ], [ true, %_ZSt20dynamic_pointer_castIN19OpenColorIO_v2_4dev20CTFReaderMetadataEltENS0_16XmlReaderElementEESt10shared_ptrIT_ERKS3_IT0_E.exit.thread991 ]
  %_M_refcount.i.i284 = getelementptr inbounds %"class.std::__shared_ptr.25", ptr %pMD, i64 0, i32 1
  %71 = load ptr, ptr %_M_refcount.i.i284, align 8
  %cmp.not.i.i.i285 = icmp eq ptr %71, null
  br i1 %cmp.not.i.i.i285, label %_ZNSt10shared_ptrIN19OpenColorIO_v2_4dev20CTFReaderMetadataEltEED2Ev.exit315, label %if.then.i.i.i286

if.then.i.i.i286:                                 ; preds = %cleanup
  %_M_use_count.i.i.i.i287 = getelementptr inbounds %"class.std::_Sp_counted_base", ptr %71, i64 0, i32 1
  %72 = load atomic i64, ptr %_M_use_count.i.i.i.i287 acquire, align 8
  %cmp.i.i.i.i288 = icmp eq i64 %72, 4294967297
  %73 = trunc i64 %72 to i32
  br i1 %cmp.i.i.i.i288, label %if.then.i.i.i.i311, label %if.end.i.i.i.i289

if.then.i.i.i.i311:                               ; preds = %if.then.i.i.i286
  store i32 0, ptr %_M_use_count.i.i.i.i287, align 8
  %_M_weak_count.i.i.i.i312 = getelementptr inbounds %"class.std::_Sp_counted_base", ptr %71, i64 0, i32 2
  store i32 0, ptr %_M_weak_count.i.i.i.i312, align 4
  %vtable.i.i.i.i313 = load ptr, ptr %71, align 8
  %vfn.i.i.i.i314 = getelementptr inbounds ptr, ptr %vtable.i.i.i.i313, i64 2
  %74 = load ptr, ptr %vfn.i.i.i.i314, align 8
  call void %74(ptr noundef nonnull align 8 dereferenceable(16) %71) #21
  br label %if.end8.sink.split.i.i.i.i306

if.end.i.i.i.i289:                                ; preds = %if.then.i.i.i286
  %75 = load i8, ptr @__libc_single_threaded, align 1
  %tobool.i.i.not.i.i.i.i290 = icmp eq i8 %75, 0
  br i1 %tobool.i.i.not.i.i.i.i290, label %if.else.i.i.i.i.i310, label %if.then.i.i.i.i.i291

if.then.i.i.i.i.i291:                             ; preds = %if.end.i.i.i.i289
  %add.i.i.i.i.i292 = add nsw i32 %73, -1
  store i32 %add.i.i.i.i.i292, ptr %_M_use_count.i.i.i.i287, align 4
  br label %_ZN9__gnu_cxx27__exchange_and_add_dispatchEPii.exit.i.i.i.i293

if.else.i.i.i.i.i310:                             ; preds = %if.end.i.i.i.i289
  %76 = atomicrmw volatile add ptr %_M_use_count.i.i.i.i287, i32 -1 acq_rel, align 4
  br label %_ZN9__gnu_cxx27__exchange_and_add_dispatchEPii.exit.i.i.i.i293

_ZN9__gnu_cxx27__exchange_and_add_dispatchEPii.exit.i.i.i.i293: ; preds = %if.else.i.i.i.i.i310, %if.then.i.i.i.i.i291
  %retval.i.0.i.i.i.i294 = phi i32 [ %73, %if.then.i.i.i.i.i291 ], [ %76, %if.else.i.i.i.i.i310 ]
  %cmp6.i.i.i.i295 = icmp eq i32 %retval.i.0.i.i.i.i294, 1
  br i1 %cmp6.i.i.i.i295, label %if.then7.i.i.i.i296, label %_ZNSt10shared_ptrIN19OpenColorIO_v2_4dev20CTFReaderMetadataEltEED2Ev.exit315

if.then7.i.i.i.i296:                              ; preds = %_ZN9__gnu_cxx27__exchange_and_add_dispatchEPii.exit.i.i.i.i293
  %vtable.i.i.i.i.i.i297 = load ptr, ptr %71, align 8
  %vfn.i.i.i.i.i.i298 = getelementptr inbounds ptr, ptr %vtable.i.i.i.i.i.i297, i64 2
  %77 = load ptr, ptr %vfn.i.i.i.i.i.i298, align 8
  call void %77(ptr noundef nonnull align 8 dereferenceable(16) %71) #21
  %_M_weak_count.i.i.i.i.i.i299 = getelementptr inbounds %"class.std::_Sp_counted_base", ptr %71, i64 0, i32 2
  %78 = load i8, ptr @__libc_single_threaded, align 1
  %tobool.i.i.not.i.i.i.i.i.i300 = icmp eq i8 %78, 0
  br i1 %tobool.i.i.not.i.i.i.i.i.i300, label %if.else.i.i.i.i.i.i.i309, label %if.then.i.i.i.i.i.i.i301

if.then.i.i.i.i.i.i.i301:                         ; preds = %if.then7.i.i.i.i296
  %79 = load i32, ptr %_M_weak_count.i.i.i.i.i.i299, align 4
  %add.i.i.i.i.i.i.i302 = add nsw i32 %79, -1
  store i32 %add.i.i.i.i.i.i.i302, ptr %_M_weak_count.i.i.i.i.i.i299, align 4
  br label %_ZN9__gnu_cxx27__exchange_and_add_dispatchEPii.exit.i.i.i.i.i.i303

if.else.i.i.i.i.i.i.i309:                         ; preds = %if.then7.i.i.i.i296
  %80 = atomicrmw volatile add ptr %_M_weak_count.i.i.i.i.i.i299, i32 -1 acq_rel, align 4
  br label %_ZN9__gnu_cxx27__exchange_and_add_dispatchEPii.exit.i.i.i.i.i.i303

_ZN9__gnu_cxx27__exchange_and_add_dispatchEPii.exit.i.i.i.i.i.i303: ; preds = %if.else.i.i.i.i.i.i.i309, %if.then.i.i.i.i.i.i.i301
  %retval.i.0.i.i.i.i.i.i304 = phi i32 [ %79, %if.then.i.i.i.i.i.i.i301 ], [ %80, %if.else.i.i.i.i.i.i.i309 ]
  %cmp.i.i.i.i.i.i305 = icmp eq i32 %retval.i.0.i.i.i.i.i.i304, 1
  br i1 %cmp.i.i.i.i.i.i305, label %if.end8.sink.split.i.i.i.i306, label %_ZNSt10shared_ptrIN19OpenColorIO_v2_4dev20CTFReaderMetadataEltEED2Ev.exit315

if.end8.sink.split.i.i.i.i306:                    ; preds = %_ZN9__gnu_cxx27__exchange_and_add_dispatchEPii.exit.i.i.i.i.i.i303, %if.then.i.i.i.i311
  %vtable2.i.i.i.i.i.i307 = load ptr, ptr %71, align 8
  %vfn3.i.i.i.i.i.i308 = getelementptr inbounds ptr, ptr %vtable2.i.i.i.i.i.i307, i64 3
  %81 = load ptr, ptr %vfn3.i.i.i.i.i.i308, align 8
  call void %81(ptr noundef nonnull align 8 dereferenceable(16) %71) #21
  br label %_ZNSt10shared_ptrIN19OpenColorIO_v2_4dev20CTFReaderMetadataEltEED2Ev.exit315

_ZNSt10shared_ptrIN19OpenColorIO_v2_4dev20CTFReaderMetadataEltEED2Ev.exit315: ; preds = %cleanup, %_ZN9__gnu_cxx27__exchange_and_add_dispatchEPii.exit.i.i.i.i293, %_ZN9__gnu_cxx27__exchange_and_add_dispatchEPii.exit.i.i.i.i.i.i303, %if.end8.sink.split.i.i.i.i306
  %_M_refcount.i.i316 = getelementptr inbounds %"class.std::__shared_ptr.22", ptr %pElt, i64 0, i32 1
  %82 = load ptr, ptr %_M_refcount.i.i316, align 8
  %cmp.not.i.i.i317 = icmp eq ptr %82, null
  br i1 %cmp.not.i.i.i317, label %_ZNSt10shared_ptrIN19OpenColorIO_v2_4dev16XmlReaderElementEED2Ev.exit347, label %if.then.i.i.i318

if.then.i.i.i318:                                 ; preds = %_ZNSt10shared_ptrIN19OpenColorIO_v2_4dev20CTFReaderMetadataEltEED2Ev.exit315
  %_M_use_count.i.i.i.i319 = getelementptr inbounds %"class.std::_Sp_counted_base", ptr %82, i64 0, i32 1
  %83 = load atomic i64, ptr %_M_use_count.i.i.i.i319 acquire, align 8
  %cmp.i.i.i.i320 = icmp eq i64 %83, 4294967297
