; ModuleID = 'bench/z3/original/eq2bv_tactic.cpp.ll'
source_filename = "bench/z3/original/eq2bv_tactic.cpp.ll"
target datalayout = "e-m:e-p270:32:32-p271:32:32-p272:64:64-i64:64-i128:128-f80:128-n8:16:32:64-S128"
target triple = "x86_64-unknown-linux-gnu"

%"class.std::ios_base::Init" = type { i8 }
%class.symbol = type { ptr }
%struct.app_flags = type { i24 }
%class.tactic = type <{ %"class.user_propagator::core", i32, [4 x i8] }>
%"class.user_propagator::core" = type { ptr }
%class.eq2bv_tactic = type { %class.tactic.base, ptr, %class.arith_util, %class.bv_util, %"class.eq2bv_tactic::eq_rewriter", %class.ref_vector, %class.bound_manager, %class.obj_map.20, %class.obj_map.25, %class.obj_mark, %class.obj_mark, %class.ptr_vector.1 }
%class.tactic.base = type <{ %"class.user_propagator::core", i32 }>
%class.arith_util = type { ptr, ptr }
%class.bv_util = type { %class.bv_recognizers, ptr, ptr }
%class.bv_recognizers = type { i32 }
%"class.eq2bv_tactic::eq_rewriter" = type { %class.rewriter_tpl, %"struct.eq2bv_tactic::eq_rewriter_cfg" }
%class.rewriter_tpl = type { %class.rewriter_core, ptr, i32, %class.ptr_vector.1, %class.var_shifter, %class.inv_var_shifter, %class.obj_ref, %class.obj_ref.10, %class.obj_ref.10, %class.svector.11 }
%class.rewriter_core = type { ptr, ptr, i8, i8, %class.ptr_vector, ptr, %class.svector, %class.ref_vector, %class.ptr_vector, ptr, %class.ref_vector.3, %class.obj_hashtable, ptr, i32, %class.svector.8 }
%class.svector = type { %class.vector.0 }
%class.vector.0 = type { ptr }
%class.ptr_vector = type { %class.vector }
%class.vector = type { ptr }
%class.ref_vector.3 = type { %class.ref_vector_core.4 }
%class.ref_vector_core.4 = type { %class.ref_manager_wrapper.5, %class.ptr_vector.6 }
%class.ref_manager_wrapper.5 = type { ptr }
%class.ptr_vector.6 = type { %class.vector.7 }
%class.vector.7 = type { ptr }
%class.obj_hashtable = type { %class.core_hashtable.base, [4 x i8] }
%class.core_hashtable.base = type <{ ptr, i32, i32, i32 }>
%class.svector.8 = type { %class.vector.9 }
%class.vector.9 = type { ptr }
%class.var_shifter = type <{ %class.var_shifter_core, i32, i32, i32, [4 x i8] }>
%class.var_shifter_core = type { %class.rewriter_core }
%class.inv_var_shifter = type <{ %class.var_shifter_core, i32, [4 x i8] }>
%class.obj_ref = type { ptr, ptr }
%class.obj_ref.10 = type { ptr, ptr }
%class.svector.11 = type { %class.vector.12 }
%class.vector.12 = type { ptr }
%"struct.eq2bv_tactic::eq_rewriter_cfg" = type { ptr, ptr }
%class.ref_vector = type { %class.ref_vector_core }
%class.ref_vector_core = type { %class.ref_manager_wrapper, %class.ptr_vector.1 }
%class.ref_manager_wrapper = type { ptr }
%class.bound_manager = type { %class.arith_util, %class.obj_map, %class.obj_map, %class.obj_map.15, %class.obj_map.15, %class.ref_vector }
%class.obj_map = type { %class.core_hashtable.13 }
%class.core_hashtable.13 = type <{ ptr, i32, i32, i32, [4 x i8] }>
%class.obj_map.15 = type { %class.core_hashtable.16 }
%class.core_hashtable.16 = type <{ ptr, i32, i32, i32, [4 x i8] }>
%class.obj_map.20 = type { %class.core_hashtable.21 }
%class.core_hashtable.21 = type <{ ptr, i32, i32, i32, [4 x i8] }>
%class.obj_map.25 = type { %class.core_hashtable.26 }
%class.core_hashtable.26 = type <{ ptr, i32, i32, i32, [4 x i8] }>
%class.obj_mark = type { %struct.default_t2uint, %class.bit_vector }
%struct.default_t2uint = type { i8 }
%class.bit_vector = type { i32, i32, ptr }
%class.ptr_vector.1 = type { %class.vector.2 }
%class.vector.2 = type { ptr }
%"struct.obj_map<expr, rational>::key_data" = type { ptr, %class.rational }
%class.rational = type { %class.mpq }
%class.mpq = type { %class.mpz, %class.mpz }
%class.mpz = type { i32, i8, ptr }
%"class.obj_map<expr, rational>::obj_map_entry" = type { %"struct.obj_map<expr, rational>::key_data" }
%class.ast = type { i32, i24, i32, i32 }
%"class.std::__cxx11::basic_string" = type { %"struct.std::__cxx11::basic_string<char>::_Alloc_hider", i64, %union.anon }
%"struct.std::__cxx11::basic_string<char>::_Alloc_hider" = type { ptr }
%union.anon = type { i64, [8 x i8] }
%"class.std::allocator" = type { i8 }
%class.default_exception = type { %class.z3_exception, %"class.std::__cxx11::basic_string" }
%class.z3_exception = type { ptr }
%class.ref = type { ptr }
%class.tactic_report = type { ptr }
%"class.obj_map<expr, expr *>::obj_map_entry" = type { %"struct.obj_map<expr, expr *>::key_data" }
%"struct.obj_map<expr, expr *>::key_data" = type { ptr, ptr }
%class.converter = type <{ ptr, i32, [4 x i8] }>
%class.model_converter = type <{ %class.converter.base, [4 x i8], ptr, i8, [7 x i8] }>
%class.converter.base = type <{ ptr, i32 }>
%"class.eq2bv_tactic::bvmc" = type { %class.model_converter.base, [7 x i8], %class.obj_map.58, %class.ref_vector.63, %class.vector.68 }
%class.model_converter.base = type <{ %class.converter.base, [4 x i8], ptr, i8 }>
%class.obj_map.58 = type { %class.core_hashtable.59 }
%class.core_hashtable.59 = type <{ ptr, i32, i32, i32, [4 x i8] }>
%class.ref_vector.63 = type { %class.ref_vector_core.64 }
%class.ref_vector_core.64 = type { %class.ref_manager_wrapper.65, %class.ptr_vector.66 }
%class.ref_manager_wrapper.65 = type { ptr }
%class.ptr_vector.66 = type { %class.vector.67 }
%class.vector.67 = type { ptr }
%class.vector.68 = type { ptr }
%class.goal = type <{ ptr, %class.ref.70, %class.ref.71, %class.ref.72, i32, [4 x i8], %"class.std::__cxx11::basic_string", %"class.parray_manager<ast_manager::expr_array_config>::ref", %"class.parray_manager<ast_manager::expr_array_config>::ref", %"class.parray_manager<ast_manager::expr_dependency_array_config>::ref", i32, [4 x i8] }>
%class.ref.70 = type { ptr }
%class.ref.71 = type { ptr }
%class.ref.72 = type { ptr }
%"class.parray_manager<ast_manager::expr_array_config>::ref" = type <{ ptr, i32, [4 x i8] }>
%"class.parray_manager<ast_manager::expr_dependency_array_config>::ref" = type <{ ptr, i32, [4 x i8] }>
%"struct.parray_manager<ast_manager::expr_array_config>::cell" = type { i32, %union.anon.108, ptr, %union.anon.109 }
%union.anon.108 = type { i32 }
%union.anon.109 = type { ptr }
%class.ast_manager = type { %class.reslimit, %class.small_object_allocator, %class.family_manager, %class.parray_manager, %class.dependency_manager, %class.parray_manager.45, %class.ptr_vector.48, i32, i8, %class.ast_table, %class.obj_map.51, %class.id_gen, %class.id_gen, ptr, ptr, ptr, ptr, ptr, i32, i8, [3 x i8], %class.u_map, ptr, i8, i8, ptr, %class.symbol, %class.obj_map.58, ptr }
%class.reslimit = type { %"struct.std::atomic", i8, i64, i64, %class.svector.30, %class.ptr_vector.32 }
%"struct.std::atomic" = type { %"struct.std::__atomic_base" }
%"struct.std::__atomic_base" = type { i32 }
%class.svector.30 = type { %class.vector.31 }
%class.vector.31 = type { ptr }
%class.ptr_vector.32 = type { %class.vector.33 }
%class.vector.33 = type { ptr }
%class.small_object_allocator = type { [32 x ptr], [32 x ptr], i64 }
%class.family_manager = type { i32, %class.symbol_table, %class.svector.39 }
%class.symbol_table = type { %class.core_hashtable.34, %class.vector.36, %class.svector.37 }
%class.core_hashtable.34 = type <{ ptr, i32, i32, i32, [4 x i8] }>
%class.vector.36 = type { ptr }
%class.svector.37 = type { %class.vector.38 }
%class.vector.38 = type { ptr }
%class.svector.39 = type { %class.vector.40 }
%class.vector.40 = type { ptr }
%class.parray_manager = type { ptr, ptr, %class.ptr_vector.41, %class.ptr_vector.41 }
%class.ptr_vector.41 = type { %class.vector.42 }
%class.vector.42 = type { ptr }
%class.dependency_manager = type { ptr, ptr, %class.ptr_vector.43 }
%class.ptr_vector.43 = type { %class.vector.44 }
%class.vector.44 = type { ptr }
%class.parray_manager.45 = type { ptr, ptr, %class.ptr_vector.46, %class.ptr_vector.46 }
%class.ptr_vector.46 = type { %class.vector.47 }
%class.vector.47 = type { ptr }
%class.ptr_vector.48 = type { %class.vector.49 }
%class.vector.49 = type { ptr }
%class.ast_table = type { %class.chashtable }
%class.chashtable = type { ptr, i32, i32, i32, i32, i32, i32, i32, ptr, ptr, ptr }
%class.obj_map.51 = type { %class.core_hashtable.52 }
%class.core_hashtable.52 = type <{ ptr, i32, i32, i32, [4 x i8] }>
%class.id_gen = type { i32, %class.svector.11 }
%class.u_map = type { %class.map }
%class.map = type { %class.table2map }
%class.table2map = type { %class.core_hashtable.56 }
%class.core_hashtable.56 = type <{ ptr, i32, i32, i32, [4 x i8] }>
%"struct.parray_manager<ast_manager::expr_dependency_array_config>::cell" = type { i32, %union.anon.110, ptr, %union.anon.111 }
%union.anon.110 = type { i32 }
%union.anon.111 = type { ptr }
%class.buffer = type { ptr, i32, i32, [16 x %"union.std::aligned_storage<8, 8>::type"] }
%"union.std::aligned_storage<8, 8>::type" = type { [8 x i8] }
%class.app = type { %class.expr, ptr, i32, [0 x ptr] }
%class.expr = type { %class.ast }
%class.decl = type { %class.ast, %class.symbol, ptr }
%class.decl_info = type <{ i32, i32, %class.vector.93, i8, [7 x i8] }>
%class.vector.93 = type { ptr }
%"class.obj_map<expr, dependency_manager<ast_manager::expr_dependency_config>::dependency *>::obj_map_entry" = type { %"struct.obj_map<expr, dependency_manager<ast_manager::expr_dependency_config>::dependency *>::key_data" }
%"struct.obj_map<expr, dependency_manager<ast_manager::expr_dependency_config>::dependency *>::key_data" = type { ptr, ptr }
%struct._Guard = type { ptr }
%class.quantifier = type { %class.expr, i32, i32, ptr, ptr, i32, i32, i8, i8, %class.symbol, %class.symbol, i32, i32, [0 x i8] }
%"struct.obj_map<func_decl, func_decl *>::key_data" = type { ptr, ptr }
%"struct.std::pair.112" = type <{ %class.rational, i8, [7 x i8] }>
%"struct.obj_map<expr, std::pair<rational, bool>>::key_data" = type { ptr, %"struct.std::pair.112" }
%struct.mk_pp = type { %struct.mk_ismt2_pp }
%struct.mk_ismt2_pp = type { ptr, ptr, %class.params_ref, ptr, i32, i32, ptr }
%class.params_ref = type { ptr }
%"class.obj_map<func_decl, func_decl *>::obj_map_entry" = type { %"struct.obj_map<func_decl, func_decl *>::key_data" }
%class.func_decl = type { %class.decl, i32, ptr, [0 x ptr] }
%class.ref.92 = type { ptr }
%class.model_core = type { ptr, ptr, i32, [4 x i8], %class.obj_map.73, %class.obj_map.78, %class.ptr_vector.66, %class.ptr_vector.66, %class.ptr_vector.66 }
%class.obj_map.73 = type { %class.core_hashtable.74 }
%class.core_hashtable.74 = type <{ ptr, i32, i32, i32, [4 x i8] }>
%class.obj_map.78 = type { %class.core_hashtable.79 }
%class.core_hashtable.79 = type <{ ptr, i32, i32, i32, [4 x i8] }>
%"class.obj_map<func_decl, std::pair<unsigned int, expr *>>::obj_map_entry" = type { %"struct.obj_map<func_decl, std::pair<unsigned int, expr *>>::key_data" }
%"struct.obj_map<func_decl, std::pair<unsigned int, expr *>>::key_data" = type { ptr, %"struct.std::pair" }
%"struct.std::pair" = type { i32, ptr }
%class.ast_translation = type <{ ptr, ptr, %class.svector.94, %class.ptr_vector.96, %class.ptr_vector.96, %class.obj_map.98, i32, i32, i32, i32, i32, [4 x i8] }>
%class.svector.94 = type { %class.vector.95 }
%class.vector.95 = type { ptr }
%class.ptr_vector.96 = type { %class.vector.97 }
%class.vector.97 = type { ptr }
%class.obj_map.98 = type { %class.core_hashtable.99 }
%class.core_hashtable.99 = type <{ ptr, i32, i32, i32, [4 x i8] }>
%class.core_hashtable.104 = type <{ ptr, i32, i32, i32, [4 x i8] }>
%"class.obj_map<expr, bool>::obj_map_entry" = type { %"struct.obj_map<expr, bool>::key_data" }
%"struct.obj_map<expr, bool>::key_data" = type <{ ptr, i8, [7 x i8] }>
%"struct.dependency_manager<ast_manager::expr_dependency_config>::leaf" = type { %"class.dependency_manager<ast_manager::expr_dependency_config>::dependency", ptr }
%"class.dependency_manager<ast_manager::expr_dependency_config>::dependency" = type { i32 }
%"struct.dependency_manager<ast_manager::expr_dependency_config>::join" = type { %"class.dependency_manager<ast_manager::expr_dependency_config>::dependency", [2 x ptr] }
%"class.obj_map<expr, std::pair<rational, bool>>::obj_map_entry" = type { %"struct.obj_map<expr, std::pair<rational, bool>>::key_data" }
%"struct.rewriter_core::frame" = type { ptr, i32, i32 }
%class.obj_hash_entry = type { ptr }
%class.var = type { %class.expr, i32, ptr }
%class.core_hashtable = type <{ ptr, i32, i32, i32, [4 x i8] }>
%class.obj_ref.122 = type { ptr, ptr }

$_ZN12eq2bv_tacticC2ER11ast_manager = comdat any

$_ZN7obj_mapI4exprPS0_ED2Ev = comdat any

$_ZN10ref_vectorI4expr11ast_managerED2Ev = comdat any

$_ZN12eq2bv_tactic11eq_rewriterD2Ev = comdat any

$_ZN12eq2bv_tacticD2Ev = comdat any

$_ZN12eq2bv_tacticD0Ev = comdat any

$_ZN6tactic19user_propagate_initEPvRSt8functionIFvS0_PN15user_propagator8callbackEEERS1_IFvS0_S4_jEERS1_IFS0_S0_R11ast_managerRPNS2_11context_objEEE = comdat any

$_ZN15user_propagator4core29user_propagate_register_fixedERSt8functionIFvPvPNS_8callbackEP4exprS6_EE = comdat any

$_ZN15user_propagator4core29user_propagate_register_finalERSt8functionIFvPvPNS_8callbackEEE = comdat any

$_ZN15user_propagator4core26user_propagate_register_eqERSt8functionIFvPvPNS_8callbackEP4exprS6_EE = comdat any

$_ZN15user_propagator4core29user_propagate_register_diseqERSt8functionIFvPvPNS_8callbackEP4exprS6_EE = comdat any

$_ZN6tactic28user_propagate_register_exprEP4expr = comdat any

$_ZN15user_propagator4core31user_propagate_register_createdERSt8functionIFvPvPNS_8callbackEP4exprEE = comdat any

$_ZN15user_propagator4core30user_propagate_register_decideERSt8functionIFvPvPNS_8callbackEP4exprjbEE = comdat any

$_ZN15user_propagator4core20user_propagate_clearEv = comdat any

$_ZN6tactic18register_on_clauseEPvRSt8functionIFvS0_P4exprjPKjjPKS3_EE = comdat any

$_ZN12eq2bv_tactic11updt_paramsERK10params_ref = comdat any

$_ZN12eq2bv_tactic20collect_param_descrsER12param_descrs = comdat any

$_ZN12eq2bv_tacticclERK3refI4goalER11sref_bufferIS1_Lj16EE = comdat any

$_ZNK6tactic18collect_statisticsER10statistics = comdat any

$_ZN6tactic16reset_statisticsEv = comdat any

$_ZN12eq2bv_tactic7cleanupEv = comdat any

$_ZN6tactic5resetEv = comdat any

$_ZN6tactic9set_logicERK6symbol = comdat any

$_ZN6tactic21set_progress_callbackEP17progress_callback = comdat any

$_ZN12eq2bv_tactic9translateER11ast_manager = comdat any

$_ZNK12eq2bv_tactic4nameEv = comdat any

$_ZNSt7__cxx1112basic_stringIcSt11char_traitsIcESaIcEEC2IS3_EEPKcRKS3_ = comdat any

$_ZN17default_exceptionD2Ev = comdat any

$_ZNSt7__cxx1112basic_stringIcSt11char_traitsIcESaIcEE12_M_constructIPKcEEvT_S8_St20forward_iterator_tag = comdat any

$_ZZNSt7__cxx1112basic_stringIcSt11char_traitsIcESaIcEE12_M_constructIPKcEEvT_S8_St20forward_iterator_tagEN6_GuardD2Ev = comdat any

$__clang_call_terminate = comdat any

$_ZN12eq2bv_tactic11eq_rewriterD0Ev = comdat any

$_ZN7obj_refI3app11ast_managerED2Ev = comdat any

$_ZN7obj_refI4expr11ast_managerED2Ev = comdat any

$_ZN10ptr_vectorI4exprED2Ev = comdat any

$_ZN12rewriter_tplIN12eq2bv_tactic15eq_rewriter_cfgEED2Ev = comdat any

$_ZN12rewriter_tplIN12eq2bv_tactic15eq_rewriter_cfgEED0Ev = comdat any

$_ZN7obj_mapI4expr8rationalE8key_dataD2Ev = comdat any

$_ZN8rationalD2Ev = comdat any

$_ZN15ref_vector_coreI4expr19ref_manager_wrapperIS0_11ast_managerEED2Ev = comdat any

$_ZN12eq2bv_tactic10collect_fdEP4expr = comdat any

$_ZN12eq2bv_tactic10cleanup_fdER3refINS_4bvmcEE = comdat any

$_ZNK13bound_manager9has_upperEP4exprR8rationalRb = comdat any

$_ZNK13bound_manager9has_lowerEP4exprR8rationalRb = comdat any

$_ZN7obj_refI4expr11ast_managerEaSEPS0_ = comdat any

$_ZN12rewriter_tplIN12eq2bv_tactic15eq_rewriter_cfgEEclEP4exprR7obj_refIS3_11ast_managerERS5_I3appS6_E = comdat any

$_ZN3refIN12eq2bv_tactic4bvmcEED2Ev = comdat any

$_ZN14core_hashtableIN7obj_mapI4expr8rationalE13obj_map_entryE8obj_hashINS3_8key_dataEE10default_eqIS6_EE5resetEv = comdat any

$_ZN12eq2bv_tactic4bvmcD2Ev = comdat any

$_ZN12eq2bv_tactic4bvmcD0Ev = comdat any

$_ZN9converter6cancelEv = comdat any

$_ZN12eq2bv_tactic4bvmc7displayERSo = comdat any

$_ZN12eq2bv_tactic4bvmcclER3refI5modelE = comdat any

$_ZN15model_converterclER10labels_vec = comdat any

$_ZN15model_converterclER7obj_refI4expr11ast_managerE = comdat any

$_ZN12eq2bv_tactic4bvmc9translateER15ast_translation = comdat any

$_ZN12eq2bv_tactic4bvmc9get_unitsER7obj_mapI4exprbE = comdat any

$_ZN3refI5modelED2Ev = comdat any

$_ZN14core_hashtableIN7obj_mapI9func_declPS1_E13obj_map_entryE8obj_hashINS3_8key_dataEE10default_eqIS6_EE6insertEOS6_ = comdat any

$_ZN14core_hashtableIN7obj_mapI9func_declPS1_E13obj_map_entryE8obj_hashINS3_8key_dataEE10default_eqIS6_EE12expand_tableEv = comdat any

$_ZN14parray_managerIN11ast_manager17expr_array_configEE6rerootERNS2_3refE = comdat any

$_ZN14parray_managerIN11ast_manager17expr_array_configEE6unfoldEPNS2_4cellE = comdat any

$_ZN6vectorIPN14parray_managerIN11ast_manager17expr_array_configEE4cellELb0EjE13expand_vectorEv = comdat any

$_ZN14parray_managerIN11ast_manager17expr_array_configEE10get_valuesEPNS2_4cellERPP4expr = comdat any

$_ZN14parray_managerIN11ast_manager17expr_array_configEE3delEPNS2_4cellE = comdat any

$_ZN14parray_managerIN11ast_manager28expr_dependency_array_configEE6rerootERNS2_3refE = comdat any

$_ZN14parray_managerIN11ast_manager28expr_dependency_array_configEE6unfoldEPNS2_4cellE = comdat any

$_ZN6vectorIPN14parray_managerIN11ast_manager28expr_dependency_array_configEE4cellELb0EjE13expand_vectorEv = comdat any

$_ZN14parray_managerIN11ast_manager28expr_dependency_array_configEE10get_valuesEPNS2_4cellERPPN18dependency_managerINS0_22expr_dependency_configEE10dependencyE = comdat any

$_ZN14parray_managerIN11ast_manager28expr_dependency_array_configEE10rpush_backERPPN18dependency_managerINS0_22expr_dependency_configEE10dependencyERjRKS7_ = comdat any

$_ZN18dependency_managerIN11ast_manager22expr_dependency_configEE3delEPNS2_10dependencyE = comdat any

$_ZN6vectorIPN18dependency_managerIN11ast_manager22expr_dependency_configEE10dependencyELb0EjE13expand_vectorEv = comdat any

$_ZN14parray_managerIN11ast_manager28expr_dependency_array_configEE3delEPNS2_4cellE = comdat any

$_ZN15ref_vector_coreI4expr19ref_manager_wrapperIS0_11ast_managerEE9push_backEPS0_ = comdat any

$_ZN12eq2bv_tactic5is_fdEP4exprS1_ = comdat any

$_ZN6vectorIP4exprLb0EjE13expand_vectorEv = comdat any

$_ZN12eq2bv_tactic6add_fdEP4expr8rational = comdat any

$_ZN7obj_mapI4expr8rationalE6insertEPS0_RKS1_ = comdat any

$_ZNK7obj_mapI4expr8rationalE9find_coreEPS0_ = comdat any

$_ZN14core_hashtableIN7obj_mapI4expr8rationalE13obj_map_entryE8obj_hashINS3_8key_dataEE10default_eqIS6_EE6insertEOS6_ = comdat any

$_ZN14core_hashtableIN7obj_mapI4expr8rationalE13obj_map_entryE8obj_hashINS3_8key_dataEE10default_eqIS6_EE12expand_tableEv = comdat any

$_ZN14core_hashtableIN7obj_mapI4expr8rationalE13obj_map_entryE8obj_hashINS3_8key_dataEE10default_eqIS6_EE10move_tableEPS4_jSB_j = comdat any

$_ZNK8rational12get_num_bitsEv = comdat any

$_ZN14core_hashtableIN7obj_mapI4expr8rationalE13obj_map_entryE8obj_hashINS3_8key_dataEE10default_eqIS6_EE6removeERKS6_ = comdat any

$_ZN14core_hashtableIN7obj_mapI4expr8rationalE13obj_map_entryE8obj_hashINS3_8key_dataEE10default_eqIS6_EE22remove_deleted_entriesEv = comdat any

$_ZN11mpq_managerILb1EE3addERK3mpqS3_RS1_ = comdat any

$_ZNK8rational14get_num_digitsERKS_ = comdat any

$_ZN14core_hashtableIN7obj_mapI4exprPS1_E13obj_map_entryE8obj_hashINS3_8key_dataEE10default_eqIS6_EE6insertEOS6_ = comdat any

$_ZN14core_hashtableIN7obj_mapI4exprPS1_E13obj_map_entryE8obj_hashINS3_8key_dataEE10default_eqIS6_EE12expand_tableEv = comdat any

$_ZN12eq2bv_tactic17is_var_const_pairEP4exprS1_Rj = comdat any

$_ZNSt4pairI8rationalbED2Ev = comdat any

$_ZNK7obj_mapI4exprSt4pairI8rationalbEE9find_coreEPS0_ = comdat any

$_ZN6vectorI8rationalLb1EjE9push_backERKS0_ = comdat any

$_ZN6vectorIP9func_declLb0EjE13expand_vectorEv = comdat any

$_ZN6vectorI8rationalLb1EjE13expand_vectorEv = comdat any

$_ZN12rewriter_tplIN12eq2bv_tactic15eq_rewriter_cfgEE9main_loopILb1EEEvP4exprR7obj_refIS4_11ast_managerERS6_I3appS7_E = comdat any

$_ZN12rewriter_tplIN12eq2bv_tactic15eq_rewriter_cfgEE9main_loopILb0EEEvP4exprR7obj_refIS4_11ast_managerERS6_I3appS7_E = comdat any

$_ZN12rewriter_tplIN12eq2bv_tactic15eq_rewriter_cfgEE5resetEv = comdat any

$_ZN18rewriter_exceptionD2Ev = comdat any

$_ZN12rewriter_tplIN12eq2bv_tactic15eq_rewriter_cfgEE5visitILb1EEEbP4exprj = comdat any

$_ZN12rewriter_tplIN12eq2bv_tactic15eq_rewriter_cfgEE11resume_coreILb1EEEvR7obj_refI4expr11ast_managerERS4_I3appS6_E = comdat any

$_ZN18rewriter_exceptionD0Ev = comdat any

$_ZN12rewriter_tplIN12eq2bv_tactic15eq_rewriter_cfgEE13process_constILb1EEEbP3app = comdat any

$_ZNK13rewriter_core10is_blockedEP4expr = comdat any

$_ZN12rewriter_tplIN12eq2bv_tactic15eq_rewriter_cfgEEC2ER11ast_managerbRS1_ = comdat any

$_ZN7obj_refI4expr11ast_managerEaSERKS2_ = comdat any

$_ZN12rewriter_tplIN12eq2bv_tactic15eq_rewriter_cfgEE11process_varILb1EEEvP3var = comdat any

$_ZN6vectorIP3appLb0EjE13expand_vectorEv = comdat any

$_ZN12eq2bv_tactic15eq_rewriter_cfg5is_fdEP4exprS2_R7obj_refIS1_11ast_managerE = comdat any

$_ZN14core_hashtableI14obj_hash_entryI4exprE12obj_ptr_hashIS1_E6ptr_eqIS1_EE6insertEOPS1_ = comdat any

$_ZN14core_hashtableI14obj_hash_entryI4exprE12obj_ptr_hashIS1_E6ptr_eqIS1_EE12expand_tableEv = comdat any

$_ZN6vectorIN13rewriter_core5frameELb0EjE13expand_vectorEv = comdat any

$_ZN12rewriter_tplIN12eq2bv_tactic15eq_rewriter_cfgEE11process_appILb1EEEvP3appRN13rewriter_core5frameE = comdat any

$_ZN12rewriter_tplIN12eq2bv_tactic15eq_rewriter_cfgEE18process_quantifierILb1EEEvP10quantifierRN13rewriter_core5frameE = comdat any

$_ZN7obj_refI10quantifier11ast_managerED2Ev = comdat any

$_ZN6vectorIjLb0EjE13expand_vectorEv = comdat any

$_ZN12rewriter_tplIN12eq2bv_tactic15eq_rewriter_cfgEE5visitILb0EEEbP4exprj = comdat any

$_ZN12rewriter_tplIN12eq2bv_tactic15eq_rewriter_cfgEE11resume_coreILb0EEEvR7obj_refI4expr11ast_managerERS4_I3appS6_E = comdat any

$_ZN12rewriter_tplIN12eq2bv_tactic15eq_rewriter_cfgEE13process_constILb0EEEbP3app = comdat any

$_ZN12rewriter_tplIN12eq2bv_tactic15eq_rewriter_cfgEE11process_varILb0EEEvP3var = comdat any

$_ZN12rewriter_tplIN12eq2bv_tactic15eq_rewriter_cfgEE11process_appILb0EEEvP3appRN13rewriter_core5frameE = comdat any

$_ZN12rewriter_tplIN12eq2bv_tactic15eq_rewriter_cfgEE18process_quantifierILb0EEEvP10quantifierRN13rewriter_core5frameE = comdat any

$_ZN12rewriter_tplIN12eq2bv_tactic15eq_rewriter_cfgEE13constant_foldEP3appRN13rewriter_core5frameE = comdat any

$_ZTV12eq2bv_tactic = comdat any

$_ZTS12eq2bv_tactic = comdat any

$_ZTS6tactic = comdat any

$_ZTSN15user_propagator4coreE = comdat any

$_ZTIN15user_propagator4coreE = comdat any

$_ZTI6tactic = comdat any

$_ZTI12eq2bv_tactic = comdat any

$_ZTVN12eq2bv_tactic11eq_rewriterE = comdat any

$_ZTSN12eq2bv_tactic11eq_rewriterE = comdat any

$_ZTS12rewriter_tplIN12eq2bv_tactic15eq_rewriter_cfgEE = comdat any

$_ZTI12rewriter_tplIN12eq2bv_tactic15eq_rewriter_cfgEE = comdat any

$_ZTIN12eq2bv_tactic11eq_rewriterE = comdat any

$_ZTV12rewriter_tplIN12eq2bv_tactic15eq_rewriter_cfgEE = comdat any

$_ZTVN12eq2bv_tactic4bvmcE = comdat any

$_ZTSN12eq2bv_tactic4bvmcE = comdat any

$_ZTIN12eq2bv_tactic4bvmcE = comdat any

$_ZTS18rewriter_exception = comdat any

$_ZTI18rewriter_exception = comdat any

$_ZTV18rewriter_exception = comdat any

@_ZStL8__ioinit = internal global %"class.std::ios_base::Init" zeroinitializer, align 1
@__dso_handle = external hidden global i8
@_ZTV12eq2bv_tactic = linkonce_odr hidden unnamed_addr constant { [25 x ptr] } { [25 x ptr] [ptr null, ptr @_ZTI12eq2bv_tactic, ptr @_ZN12eq2bv_tacticD2Ev, ptr @_ZN12eq2bv_tacticD0Ev, ptr @_ZN6tactic19user_propagate_initEPvRSt8functionIFvS0_PN15user_propagator8callbackEEERS1_IFvS0_S4_jEERS1_IFS0_S0_R11ast_managerRPNS2_11context_objEEE, ptr @_ZN15user_propagator4core29user_propagate_register_fixedERSt8functionIFvPvPNS_8callbackEP4exprS6_EE, ptr @_ZN15user_propagator4core29user_propagate_register_finalERSt8functionIFvPvPNS_8callbackEEE, ptr @_ZN15user_propagator4core26user_propagate_register_eqERSt8functionIFvPvPNS_8callbackEP4exprS6_EE, ptr @_ZN15user_propagator4core29user_propagate_register_diseqERSt8functionIFvPvPNS_8callbackEP4exprS6_EE, ptr @_ZN6tactic28user_propagate_register_exprEP4expr, ptr @_ZN15user_propagator4core31user_propagate_register_createdERSt8functionIFvPvPNS_8callbackEP4exprEE, ptr @_ZN15user_propagator4core30user_propagate_register_decideERSt8functionIFvPvPNS_8callbackEP4exprjbEE, ptr @_ZN15user_propagator4core20user_propagate_clearEv, ptr @_ZN6tactic18register_on_clauseEPvRSt8functionIFvS0_P4exprjPKjjPKS3_EE, ptr @_ZN12eq2bv_tactic11updt_paramsERK10params_ref, ptr @_ZN12eq2bv_tactic20collect_param_descrsER12param_descrs, ptr @_ZN12eq2bv_tacticclERK3refI4goalER11sref_bufferIS1_Lj16EE, ptr @_ZNK6tactic18collect_statisticsER10statistics, ptr @_ZN6tactic16reset_statisticsEv, ptr @_ZN12eq2bv_tactic7cleanupEv, ptr @_ZN6tactic5resetEv, ptr @_ZN6tactic9set_logicERK6symbol, ptr @_ZN6tactic21set_progress_callbackEP17progress_callback, ptr @_ZN12eq2bv_tactic9translateER11ast_manager, ptr @_ZNK12eq2bv_tactic4nameEv] }, comdat, align 8
@_ZTVN10__cxxabiv120__si_class_type_infoE = external global [0 x ptr]
@_ZTS12eq2bv_tactic = linkonce_odr hidden constant [15 x i8] c"12eq2bv_tactic\00", comdat, align 1
@_ZTS6tactic = linkonce_odr hidden constant [8 x i8] c"6tactic\00", comdat, align 1
@_ZTVN10__cxxabiv117__class_type_infoE = external global [0 x ptr]
@_ZTSN15user_propagator4coreE = linkonce_odr hidden constant [25 x i8] c"N15user_propagator4coreE\00", comdat, align 1
@_ZTIN15user_propagator4coreE = linkonce_odr hidden constant { ptr, ptr } { ptr getelementptr inbounds (ptr, ptr @_ZTVN10__cxxabiv117__class_type_infoE, i64 2), ptr @_ZTSN15user_propagator4coreE }, comdat, align 8
@_ZTI6tactic = linkonce_odr hidden constant { ptr, ptr, ptr } { ptr getelementptr inbounds (ptr, ptr @_ZTVN10__cxxabiv120__si_class_type_infoE, i64 2), ptr @_ZTS6tactic, ptr @_ZTIN15user_propagator4coreE }, comdat, align 8
@_ZTI12eq2bv_tactic = linkonce_odr hidden constant { ptr, ptr, ptr } { ptr getelementptr inbounds (ptr, ptr @_ZTVN10__cxxabiv120__si_class_type_infoE, i64 2), ptr @_ZTS12eq2bv_tactic, ptr @_ZTI6tactic }, comdat, align 8
@.str = private unnamed_addr constant [54 x i8] c"user-propagators are only supported on the SMT solver\00", align 1
@_ZTI17default_exception = external constant ptr
@.str.1 = private unnamed_addr constant [50 x i8] c"basic_string: construction from null is not valid\00", align 1
@_ZTV17default_exception = external unnamed_addr constant { [6 x ptr] }, align 8
@_ZTVN12eq2bv_tactic11eq_rewriterE = linkonce_odr hidden unnamed_addr constant { [4 x ptr] } { [4 x ptr] [ptr null, ptr @_ZTIN12eq2bv_tactic11eq_rewriterE, ptr @_ZN12eq2bv_tactic11eq_rewriterD2Ev, ptr @_ZN12eq2bv_tactic11eq_rewriterD0Ev] }, comdat, align 8
@_ZTSN12eq2bv_tactic11eq_rewriterE = linkonce_odr hidden constant [30 x i8] c"N12eq2bv_tactic11eq_rewriterE\00", comdat, align 1
@_ZTS12rewriter_tplIN12eq2bv_tactic15eq_rewriter_cfgEE = linkonce_odr hidden constant [50 x i8] c"12rewriter_tplIN12eq2bv_tactic15eq_rewriter_cfgEE\00", comdat, align 1
@_ZTI13rewriter_core = external constant ptr
@_ZTI12rewriter_tplIN12eq2bv_tactic15eq_rewriter_cfgEE = linkonce_odr hidden constant { ptr, ptr, ptr } { ptr getelementptr inbounds (ptr, ptr @_ZTVN10__cxxabiv120__si_class_type_infoE, i64 2), ptr @_ZTS12rewriter_tplIN12eq2bv_tactic15eq_rewriter_cfgEE, ptr @_ZTI13rewriter_core }, comdat, align 8
@_ZTIN12eq2bv_tactic11eq_rewriterE = linkonce_odr hidden constant { ptr, ptr, ptr } { ptr getelementptr inbounds (ptr, ptr @_ZTVN10__cxxabiv120__si_class_type_infoE, i64 2), ptr @_ZTSN12eq2bv_tactic11eq_rewriterE, ptr @_ZTI12rewriter_tplIN12eq2bv_tactic15eq_rewriter_cfgEE }, comdat, align 8
@_ZTV12rewriter_tplIN12eq2bv_tactic15eq_rewriter_cfgEE = linkonce_odr hidden unnamed_addr constant { [4 x ptr] } { [4 x ptr] [ptr null, ptr @_ZTI12rewriter_tplIN12eq2bv_tactic15eq_rewriter_cfgEE, ptr @_ZN12rewriter_tplIN12eq2bv_tactic15eq_rewriter_cfgEED2Ev, ptr @_ZN12rewriter_tplIN12eq2bv_tactic15eq_rewriter_cfgEED0Ev] }, comdat, align 8
@_ZTV11var_shifter = external unnamed_addr constant { [5 x ptr] }, align 8
@_ZTV15inv_var_shifter = external unnamed_addr constant { [5 x ptr] }, align 8
@_ZN8rational13g_mpq_managerE = external local_unnamed_addr global ptr, align 8
@.str.3 = private unnamed_addr constant [41 x i8] c"tactic does not support user propagation\00", align 1
@.str.4 = private unnamed_addr constant [39 x i8] c"tactic does not support clause logging\00", align 1
@.str.5 = private unnamed_addr constant [6 x i8] c"eq2bv\00", align 1
@_ZTVN12eq2bv_tactic4bvmcE = linkonce_odr hidden unnamed_addr constant { [12 x ptr] } { [12 x ptr] [ptr null, ptr @_ZTIN12eq2bv_tactic4bvmcE, ptr @_ZN12eq2bv_tactic4bvmcD2Ev, ptr @_ZN12eq2bv_tactic4bvmcD0Ev, ptr @_ZN9converter6cancelEv, ptr @_ZN12eq2bv_tactic4bvmc7displayERSo, ptr @_ZN12eq2bv_tactic4bvmcclER3refI5modelE, ptr @_ZN15model_converterclER10labels_vec, ptr @_ZN15model_converterclER7obj_refI4expr11ast_managerE, ptr @_ZN12eq2bv_tactic4bvmc9translateER15ast_translation, ptr @_ZN15model_converter7set_envEP11ast_pp_util, ptr @_ZN12eq2bv_tactic4bvmc9get_unitsER7obj_mapI4exprbE] }, comdat, align 8
@_ZTSN12eq2bv_tactic4bvmcE = linkonce_odr hidden constant [22 x i8] c"N12eq2bv_tactic4bvmcE\00", comdat, align 1
@_ZTI15model_converter = external constant ptr
@_ZTIN12eq2bv_tactic4bvmcE = linkonce_odr hidden constant { ptr, ptr, ptr } { ptr getelementptr inbounds (ptr, ptr @_ZTVN10__cxxabiv120__si_class_type_infoE, i64 2), ptr @_ZTSN12eq2bv_tactic4bvmcE, ptr @_ZTI15model_converter }, comdat, align 8
@.str.6 = private unnamed_addr constant [12 x i8] c"(model-set \00", align 1
@.str.7 = private unnamed_addr constant [2 x i8] c" \00", align 1
@.str.8 = private unnamed_addr constant [3 x i8] c")\0A\00", align 1
@.str.9 = private unnamed_addr constant [12 x i8] c"(model-add \00", align 1
@.str.10 = private unnamed_addr constant [5 x i8] c" () \00", align 1
@.str.11 = private unnamed_addr constant [5 x i8] c"null\00", align 1
@.str.12 = private unnamed_addr constant [3 x i8] c"k!\00", align 1
@.str.13 = private unnamed_addr constant [120 x i8] c"generated/home/dtcxzyw/WorkSpace/Projects/compilers/llvm-opt-benchmark/bench/z3/z3/src/ast/converters/model_converter.h\00", align 1
@.str.14 = private unnamed_addr constant [29 x i8] c"UNEXPECTED CODE WAS REACHED.\00", align 1
@.str.15 = private unnamed_addr constant [104 x i8] c"generated/home/dtcxzyw/WorkSpace/Projects/compilers/llvm-opt-benchmark/bench/z3/z3/src/util/hashtable.h\00", align 1
@.str.16 = private unnamed_addr constant [101 x i8] c"generated/home/dtcxzyw/WorkSpace/Projects/compilers/llvm-opt-benchmark/bench/z3/z3/src/util/parray.h\00", align 1
@.str.17 = private unnamed_addr constant [43 x i8] c"Overflow encountered when expanding vector\00", align 1
@.str.18 = private unnamed_addr constant [2 x i8] c"z\00", align 1
@_ZN6symbol4nullE = external global %class.symbol, align 8
@_ZTS18rewriter_exception = linkonce_odr hidden constant [21 x i8] c"18rewriter_exception\00", comdat, align 1
@_ZTI18rewriter_exception = linkonce_odr hidden constant { ptr, ptr, ptr } { ptr getelementptr inbounds (ptr, ptr @_ZTVN10__cxxabiv120__si_class_type_infoE, i64 2), ptr @_ZTS18rewriter_exception, ptr @_ZTI17default_exception }, comdat, align 8
@_ZTV18rewriter_exception = linkonce_odr hidden unnamed_addr constant { [6 x ptr] } { [6 x ptr] [ptr null, ptr @_ZTI18rewriter_exception, ptr @_ZN18rewriter_exceptionD2Ev, ptr @_ZN18rewriter_exceptionD0Ev, ptr @_ZNK17default_exception3msgEv, ptr @_ZNK12z3_exception10error_codeEv] }, comdat, align 8
@.str.19 = private unnamed_addr constant [115 x i8] c"generated/home/dtcxzyw/WorkSpace/Projects/compilers/llvm-opt-benchmark/bench/z3/z3/src/ast/rewriter/rewriter_def.h\00", align 1
@_ZN3app16g_constant_flagsE = external local_unnamed_addr global %struct.app_flags, align 4
@.str.20 = private unnamed_addr constant [21 x i8] c"NOT IMPLEMENTED YET!\00", align 1
@llvm.global_ctors = appending global [1 x { i32, ptr, ptr }] [{ i32, ptr, ptr } { i32 65535, ptr @_GLOBAL__sub_I_eq2bv_tactic.cpp, ptr null }]

declare void @_ZNSt8ios_base4InitC1Ev(ptr noundef nonnull align 1 dereferenceable(1)) unnamed_addr #0

; Function Attrs: nounwind
declare void @_ZNSt8ios_base4InitD1Ev(ptr noundef nonnull align 1 dereferenceable(1)) unnamed_addr #1

; Function Attrs: nofree nounwind
declare i32 @__cxa_atexit(ptr, ptr, ptr) local_unnamed_addr #2

; Function Attrs: mustprogress uwtable
define hidden noundef ptr @_Z15mk_eq2bv_tacticR11ast_manager(ptr noundef nonnull align 8 dereferenceable(976) %m) local_unnamed_addr #3 {
entry:
  %call = tail call noalias noundef ptr @_ZN6memory8allocateEm(i64 noundef 864)
  tail call void @_ZN12eq2bv_tacticC2ER11ast_manager(ptr noundef nonnull align 8 dereferenceable(864) %call, ptr noundef nonnull align 8 dereferenceable(976) %m)
  %call1 = tail call noundef ptr @_Z5cleanP6tactic(ptr noundef nonnull %call)
  ret ptr %call1
}

declare noundef ptr @_Z5cleanP6tactic(ptr noundef) local_unnamed_addr #0

declare noalias noundef ptr @_ZN6memory8allocateEm(i64 noundef) local_unnamed_addr #0

; Function Attrs: mustprogress uwtable
define linkonce_odr hidden void @_ZN12eq2bv_tacticC2ER11ast_manager(ptr noundef nonnull align 8 dereferenceable(864) %this, ptr noundef nonnull align 8 dereferenceable(976) %_m) unnamed_addr #3 comdat align 2 personality ptr @__gxx_personality_v0 {
entry:
  %m_ref_count.i = getelementptr inbounds %class.tactic, ptr %this, i64 0, i32 1
  store i32 0, ptr %m_ref_count.i, align 8
  store ptr getelementptr inbounds ({ [25 x ptr] }, ptr @_ZTV12eq2bv_tactic, i64 0, inrange i32 0, i64 2), ptr %this, align 8
  %m = getelementptr inbounds %class.eq2bv_tactic, ptr %this, i64 0, i32 1
  store ptr %_m, ptr %m, align 8
  %a = getelementptr inbounds %class.eq2bv_tactic, ptr %this, i64 0, i32 2
  tail call void @_ZN10arith_utilC1ER11ast_manager(ptr noundef nonnull align 8 dereferenceable(16) %a, ptr noundef nonnull align 8 dereferenceable(976) %_m)
  %bv = getelementptr inbounds %class.eq2bv_tactic, ptr %this, i64 0, i32 3
  %0 = load ptr, ptr %m, align 8
  tail call void @_ZN7bv_utilC1ER11ast_manager(ptr noundef nonnull align 8 dereferenceable(24) %bv, ptr noundef nonnull align 8 dereferenceable(976) %0)
  %m_rw = getelementptr inbounds %class.eq2bv_tactic, ptr %this, i64 0, i32 4
  store ptr getelementptr inbounds ({ [4 x ptr] }, ptr @_ZTVN12eq2bv_tactic11eq_rewriterE, i64 0, inrange i32 0, i64 2), ptr %m_rw, align 8
  %1 = load ptr, ptr %m, align 8
  %m_cfg.i = getelementptr inbounds %class.eq2bv_tactic, ptr %this, i64 0, i32 4, i32 1
  tail call void @_ZN12rewriter_tplIN12eq2bv_tactic15eq_rewriter_cfgEEC2ER11ast_managerbRS1_(ptr noundef nonnull align 8 dereferenceable(536) %m_rw, ptr noundef nonnull align 8 dereferenceable(976) %1, i1 noundef zeroext false, ptr noundef nonnull align 8 dereferenceable(16) %m_cfg.i)
  store ptr getelementptr inbounds ({ [4 x ptr] }, ptr @_ZTVN12eq2bv_tactic11eq_rewriterE, i64 0, inrange i32 0, i64 2), ptr %m_rw, align 8
  %2 = load ptr, ptr %m, align 8
  store ptr %2, ptr %m_cfg.i, align 8
  %t3.i.i = getelementptr inbounds %class.eq2bv_tactic, ptr %this, i64 0, i32 4, i32 1, i32 1
  store ptr %this, ptr %t3.i.i, align 8
  %m_trail = getelementptr inbounds %class.eq2bv_tactic, ptr %this, i64 0, i32 5
  store ptr %2, ptr %m_trail, align 8
  %m_nodes.i.i = getelementptr inbounds %class.eq2bv_tactic, ptr %this, i64 0, i32 5, i32 0, i32 1
  store ptr null, ptr %m_nodes.i.i, align 8
  %m_bounds = getelementptr inbounds %class.eq2bv_tactic, ptr %this, i64 0, i32 6
  invoke void @_ZN13bound_managerC1ER11ast_manager(ptr noundef nonnull align 8 dereferenceable(128) %m_bounds, ptr noundef nonnull align 8 dereferenceable(976) %2)
          to label %invoke.cont11 unwind label %lpad10

invoke.cont11:                                    ; preds = %entry
  %m_fd = getelementptr inbounds %class.eq2bv_tactic, ptr %this, i64 0, i32 7
  %call.i.i.i.i7 = invoke noalias noundef ptr @_ZN6memory8allocateEm(i64 noundef 128)
          to label %invoke.cont13 unwind label %lpad12

invoke.cont13:                                    ; preds = %invoke.cont11
  tail call void @llvm.memset.p0.i64(ptr noundef nonnull align 8 dereferenceable(128) %call.i.i.i.i7, i8 0, i64 128, i1 false)
  store ptr %call.i.i.i.i7, ptr %m_fd, align 8
  %m_capacity.i.i = getelementptr inbounds %class.eq2bv_tactic, ptr %this, i64 0, i32 7, i32 0, i32 1
  store i32 8, ptr %m_capacity.i.i, align 8
  %m_size.i.i = getelementptr inbounds %class.eq2bv_tactic, ptr %this, i64 0, i32 7, i32 0, i32 2
  store i32 0, ptr %m_size.i.i, align 4
  %m_num_deleted.i.i = getelementptr inbounds %class.eq2bv_tactic, ptr %this, i64 0, i32 7, i32 0, i32 3
  store i32 0, ptr %m_num_deleted.i.i, align 8
  %call.i.i.i.i11 = invoke noalias noundef ptr @_ZN6memory8allocateEm(i64 noundef 320)
          to label %for.body.i.i.i.i unwind label %lpad14

for.body.i.i.i.i:                                 ; preds = %invoke.cont13, %for.body.i.i.i.i
  %i.07.i.i.i.i = phi i32 [ %inc.i.i.i.i, %for.body.i.i.i.i ], [ 0, %invoke.cont13 ]
  %curr.06.i.i.i.i = phi ptr [ %incdec.ptr.i.i.i.i, %for.body.i.i.i.i ], [ %call.i.i.i.i11, %invoke.cont13 ]
  %m_den.i.i.i.i.i.i.i.i = getelementptr inbounds %"struct.obj_map<expr, rational>::key_data", ptr %curr.06.i.i.i.i, i64 0, i32 1, i32 0, i32 1
  tail call void @llvm.memset.p0.i64(ptr noundef nonnull align 8 dereferenceable(32) %curr.06.i.i.i.i, i8 0, i64 32, i1 false)
  store i32 1, ptr %m_den.i.i.i.i.i.i.i.i, align 8
  %m_ptr.i4.i.i.i.i.i.i.i.i = getelementptr inbounds %"struct.obj_map<expr, rational>::key_data", ptr %curr.06.i.i.i.i, i64 0, i32 1, i32 0, i32 1, i32 2
  store ptr null, ptr %m_ptr.i4.i.i.i.i.i.i.i.i, align 8
  %inc.i.i.i.i = add nuw nsw i32 %i.07.i.i.i.i, 1
  %incdec.ptr.i.i.i.i = getelementptr inbounds %"class.obj_map<expr, rational>::obj_map_entry", ptr %curr.06.i.i.i.i, i64 1
  %exitcond.not.i.i.i.i = icmp eq i32 %inc.i.i.i.i, 8
  br i1 %exitcond.not.i.i.i.i, label %invoke.cont20, label %for.body.i.i.i.i, !llvm.loop !4

invoke.cont20:                                    ; preds = %for.body.i.i.i.i
  %m_max = getelementptr inbounds %class.eq2bv_tactic, ptr %this, i64 0, i32 8
  store ptr %call.i.i.i.i11, ptr %m_max, align 8
  %m_capacity.i.i8 = getelementptr inbounds %class.eq2bv_tactic, ptr %this, i64 0, i32 8, i32 0, i32 1
  store i32 8, ptr %m_capacity.i.i8, align 8
  %m_size.i.i9 = getelementptr inbounds %class.eq2bv_tactic, ptr %this, i64 0, i32 8, i32 0, i32 2
  store i32 0, ptr %m_size.i.i9, align 4
  %m_num_deleted.i.i10 = getelementptr inbounds %class.eq2bv_tactic, ptr %this, i64 0, i32 8, i32 0, i32 3
  store i32 0, ptr %m_num_deleted.i.i10, align 8
  %m_marks.i = getelementptr inbounds %class.eq2bv_tactic, ptr %this, i64 0, i32 9, i32 1
  tail call void @llvm.memset.p0.i64(ptr noundef nonnull align 8 dereferenceable(16) %m_marks.i, i8 0, i64 16, i1 false)
  %m_marks.i12 = getelementptr inbounds %class.eq2bv_tactic, ptr %this, i64 0, i32 10, i32 1
  tail call void @llvm.memset.p0.i64(ptr noundef nonnull align 8 dereferenceable(24) %m_marks.i12, i8 0, i64 24, i1 false)
  ret void

lpad10:                                           ; preds = %entry
  %3 = landingpad { ptr, i32 }
          cleanup
  br label %ehcleanup26

lpad12:                                           ; preds = %invoke.cont11
  %4 = landingpad { ptr, i32 }
          cleanup
  br label %ehcleanup25

lpad14:                                           ; preds = %invoke.cont13
  %5 = landingpad { ptr, i32 }
          cleanup
  tail call void @_ZN7obj_mapI4exprPS0_ED2Ev(ptr noundef nonnull align 8 dereferenceable(24) %m_fd) #17
  br label %ehcleanup25

ehcleanup25:                                      ; preds = %lpad14, %lpad12
  %.pn.pn.pn = phi { ptr, i32 } [ %5, %lpad14 ], [ %4, %lpad12 ]
  tail call void @_ZN13bound_managerD1Ev(ptr noundef nonnull align 8 dereferenceable(128) %m_bounds) #17
  br label %ehcleanup26

ehcleanup26:                                      ; preds = %ehcleanup25, %lpad10
  %.pn.pn.pn.pn = phi { ptr, i32 } [ %.pn.pn.pn, %ehcleanup25 ], [ %3, %lpad10 ]
  tail call void @_ZN10ref_vectorI4expr11ast_managerED2Ev(ptr noundef nonnull align 8 dereferenceable(16) %m_trail) #17
  tail call void @_ZN12rewriter_tplIN12eq2bv_tactic15eq_rewriter_cfgEED2Ev(ptr noundef nonnull align 8 dereferenceable(536) %m_rw) #17
  resume { ptr, i32 } %.pn.pn.pn.pn
}

declare void @_ZN10arith_utilC1ER11ast_manager(ptr noundef nonnull align 8 dereferenceable(16), ptr noundef nonnull align 8 dereferenceable(976)) unnamed_addr #0

declare i32 @__gxx_personality_v0(...)

declare void @_ZN7bv_utilC1ER11ast_manager(ptr noundef nonnull align 8 dereferenceable(24), ptr noundef nonnull align 8 dereferenceable(976)) unnamed_addr #0

declare void @_ZN13bound_managerC1ER11ast_manager(ptr noundef nonnull align 8 dereferenceable(128), ptr noundef nonnull align 8 dereferenceable(976)) unnamed_addr #0

; Function Attrs: mustprogress nounwind uwtable
define linkonce_odr hidden void @_ZN7obj_mapI4exprPS0_ED2Ev(ptr noundef nonnull align 8 dereferenceable(24) %this) unnamed_addr #4 comdat align 2 personality ptr @__gxx_personality_v0 {
entry:
  %0 = load ptr, ptr %this, align 8
  %cmp.i.i.i = icmp eq ptr %0, null
  br i1 %cmp.i.i.i, label %_ZN14core_hashtableIN7obj_mapI4exprPS1_E13obj_map_entryE8obj_hashINS3_8key_dataEE10default_eqIS6_EED2Ev.exit, label %for.cond.preheader.i.i.i

for.cond.preheader.i.i.i:                         ; preds = %entry
  invoke void @_ZN6memory10deallocateEPv(ptr noundef nonnull %0)
          to label %_ZN14core_hashtableIN7obj_mapI4exprPS1_E13obj_map_entryE8obj_hashINS3_8key_dataEE10default_eqIS6_EED2Ev.exit unwind label %terminate.lpad.i

terminate.lpad.i:                                 ; preds = %for.cond.preheader.i.i.i
  %1 = landingpad { ptr, i32 }
          catch ptr null
  %2 = extractvalue { ptr, i32 } %1, 0
  tail call void @__clang_call_terminate(ptr %2) #18
  unreachable

_ZN14core_hashtableIN7obj_mapI4exprPS1_E13obj_map_entryE8obj_hashINS3_8key_dataEE10default_eqIS6_EED2Ev.exit: ; preds = %entry, %for.cond.preheader.i.i.i
  store ptr null, ptr %this, align 8
  ret void
}

; Function Attrs: nounwind
declare void @_ZN13bound_managerD1Ev(ptr noundef nonnull align 8 dereferenceable(128)) unnamed_addr #1

; Function Attrs: mustprogress nounwind uwtable
define linkonce_odr hidden void @_ZN10ref_vectorI4expr11ast_managerED2Ev(ptr noundef nonnull align 8 dereferenceable(16) %this) unnamed_addr #4 comdat align 2 personality ptr @__gxx_personality_v0 {
entry:
  %m_nodes.i = getelementptr inbounds %class.ref_vector_core, ptr %this, i64 0, i32 1
  %0 = load ptr, ptr %m_nodes.i, align 8
  %cmp.i.i = icmp eq ptr %0, null
  br i1 %cmp.i.i, label %_ZN15ref_vector_coreI4expr19ref_manager_wrapperIS0_11ast_managerEED2Ev.exit, label %_ZNK6vectorIP4exprLb0EjE4sizeEv.exit.i

_ZNK6vectorIP4exprLb0EjE4sizeEv.exit.i:           ; preds = %entry
  %arrayidx.i.i = getelementptr inbounds i32, ptr %0, i64 -1
  %1 = load i32, ptr %arrayidx.i.i, align 4
  %2 = zext i32 %1 to i64
  %add.ptr.i = getelementptr inbounds ptr, ptr %0, i64 %2
  %cmp3.i.not.i = icmp eq i32 %1, 0
  br i1 %cmp3.i.not.i, label %if.then.i.i.i.i, label %for.body.i.i

for.body.i.i:                                     ; preds = %_ZNK6vectorIP4exprLb0EjE4sizeEv.exit.i, %_ZN15ref_vector_coreI4expr19ref_manager_wrapperIS0_11ast_managerEE7dec_refEPS0_.exit.i.i
  %it.04.i.i = phi ptr [ %incdec.ptr.i.i, %_ZN15ref_vector_coreI4expr19ref_manager_wrapperIS0_11ast_managerEE7dec_refEPS0_.exit.i.i ], [ %0, %_ZNK6vectorIP4exprLb0EjE4sizeEv.exit.i ]
  %3 = load ptr, ptr %it.04.i.i, align 8
  %4 = load ptr, ptr %this, align 8
  %tobool.not.i.i.i.i.i = icmp eq ptr %3, null
  br i1 %tobool.not.i.i.i.i.i, label %_ZN15ref_vector_coreI4expr19ref_manager_wrapperIS0_11ast_managerEE7dec_refEPS0_.exit.i.i, label %if.then.i.i.i.i.i

if.then.i.i.i.i.i:                                ; preds = %for.body.i.i
  %m_ref_count.i.i.i.i.i.i = getelementptr inbounds %class.ast, ptr %3, i64 0, i32 2
  %5 = load i32, ptr %m_ref_count.i.i.i.i.i.i, align 4
  %dec.i.i.i.i.i.i = add i32 %5, -1
  store i32 %dec.i.i.i.i.i.i, ptr %m_ref_count.i.i.i.i.i.i, align 4
  %cmp.i.i.i.i.i = icmp eq i32 %dec.i.i.i.i.i.i, 0
  br i1 %cmp.i.i.i.i.i, label %if.then2.i.i.i.i.i, label %_ZN15ref_vector_coreI4expr19ref_manager_wrapperIS0_11ast_managerEE7dec_refEPS0_.exit.i.i

if.then2.i.i.i.i.i:                               ; preds = %if.then.i.i.i.i.i
  invoke void @_ZN11ast_manager11delete_nodeEP3ast(ptr noundef nonnull align 8 dereferenceable(976) %4, ptr noundef nonnull %3)
          to label %_ZN15ref_vector_coreI4expr19ref_manager_wrapperIS0_11ast_managerEE7dec_refEPS0_.exit.i.i unwind label %terminate.lpad.i

_ZN15ref_vector_coreI4expr19ref_manager_wrapperIS0_11ast_managerEE7dec_refEPS0_.exit.i.i: ; preds = %if.then2.i.i.i.i.i, %if.then.i.i.i.i.i, %for.body.i.i
  %incdec.ptr.i.i = getelementptr inbounds ptr, ptr %it.04.i.i, i64 1
  %cmp.i1.i = icmp ult ptr %incdec.ptr.i.i, %add.ptr.i
  br i1 %cmp.i1.i, label %for.body.i.i, label %invoke.cont8.i, !llvm.loop !6

invoke.cont8.i:                                   ; preds = %_ZN15ref_vector_coreI4expr19ref_manager_wrapperIS0_11ast_managerEE7dec_refEPS0_.exit.i.i
  %.pre.i = load ptr, ptr %m_nodes.i, align 8
  %tobool.not.i.i.i.i = icmp eq ptr %.pre.i, null
  br i1 %tobool.not.i.i.i.i, label %_ZN15ref_vector_coreI4expr19ref_manager_wrapperIS0_11ast_managerEED2Ev.exit, label %if.then.i.i.i.i

if.then.i.i.i.i:                                  ; preds = %invoke.cont8.i, %_ZNK6vectorIP4exprLb0EjE4sizeEv.exit.i
  %6 = phi ptr [ %.pre.i, %invoke.cont8.i ], [ %0, %_ZNK6vectorIP4exprLb0EjE4sizeEv.exit.i ]
  %add.ptr.i.i.i.i.i = getelementptr inbounds i32, ptr %6, i64 -2
  invoke void @_ZN6memory10deallocateEPv(ptr noundef nonnull %add.ptr.i.i.i.i.i)
          to label %_ZN15ref_vector_coreI4expr19ref_manager_wrapperIS0_11ast_managerEED2Ev.exit unwind label %terminate.lpad.i.i.i

terminate.lpad.i.i.i:                             ; preds = %if.then.i.i.i.i
  %7 = landingpad { ptr, i32 }
          catch ptr null
  %8 = extractvalue { ptr, i32 } %7, 0
  tail call void @__clang_call_terminate(ptr %8) #18
  unreachable

terminate.lpad.i:                                 ; preds = %if.then2.i.i.i.i.i
  %9 = landingpad { ptr, i32 }
          catch ptr null
  %10 = extractvalue { ptr, i32 } %9, 0
  tail call void @__clang_call_terminate(ptr %10) #18
  unreachable

_ZN15ref_vector_coreI4expr19ref_manager_wrapperIS0_11ast_managerEED2Ev.exit: ; preds = %entry, %invoke.cont8.i, %if.then.i.i.i.i
  ret void
}

; Function Attrs: mustprogress nounwind uwtable
define linkonce_odr hidden void @_ZN12eq2bv_tactic11eq_rewriterD2Ev(ptr noundef nonnull align 8 dereferenceable(552) %this) unnamed_addr #4 comdat align 2 {
entry:
  tail call void @_ZN12rewriter_tplIN12eq2bv_tactic15eq_rewriter_cfgEED2Ev(ptr noundef nonnull align 8 dereferenceable(536) %this) #17
  ret void
}

; Function Attrs: mustprogress nounwind uwtable
define linkonce_odr hidden void @_ZN12eq2bv_tacticD2Ev(ptr noundef nonnull align 8 dereferenceable(864) %this) unnamed_addr #4 comdat align 2 personality ptr @__gxx_personality_v0 {
entry:
  store ptr getelementptr inbounds ({ [25 x ptr] }, ptr @_ZTV12eq2bv_tactic, i64 0, inrange i32 0, i64 2), ptr %this, align 8
  %m_todo = getelementptr inbounds %class.eq2bv_tactic, ptr %this, i64 0, i32 11
  %0 = load ptr, ptr %m_todo, align 8
  %tobool.not.i.i.i = icmp eq ptr %0, null
  br i1 %tobool.not.i.i.i, label %_ZN10ptr_vectorI4exprED2Ev.exit, label %if.then.i.i.i

if.then.i.i.i:                                    ; preds = %entry
  %add.ptr.i.i.i.i = getelementptr inbounds i32, ptr %0, i64 -2
  invoke void @_ZN6memory10deallocateEPv(ptr noundef nonnull %add.ptr.i.i.i.i)
          to label %_ZN10ptr_vectorI4exprED2Ev.exit unwind label %terminate.lpad.i.i

terminate.lpad.i.i:                               ; preds = %if.then.i.i.i
  %1 = landingpad { ptr, i32 }
          catch ptr null
  %2 = extractvalue { ptr, i32 } %1, 0
  tail call void @__clang_call_terminate(ptr %2) #18
  unreachable

_ZN10ptr_vectorI4exprED2Ev.exit:                  ; preds = %entry, %if.then.i.i.i
  %m_data.i.i = getelementptr inbounds %class.eq2bv_tactic, ptr %this, i64 0, i32 10, i32 1, i32 2
  %3 = load ptr, ptr %m_data.i.i, align 8
  %cmp.i.i.i = icmp eq ptr %3, null
  br i1 %cmp.i.i.i, label %_ZN8obj_markI4expr10bit_vector14default_t2uintIS0_EED2Ev.exit, label %if.end.i.i.i

if.end.i.i.i:                                     ; preds = %_ZN10ptr_vectorI4exprED2Ev.exit
  invoke void @_ZN6memory10deallocateEPv(ptr noundef nonnull %3)
          to label %_ZN8obj_markI4expr10bit_vector14default_t2uintIS0_EED2Ev.exit unwind label %terminate.lpad.i.i1

terminate.lpad.i.i1:                              ; preds = %if.end.i.i.i
  %4 = landingpad { ptr, i32 }
          catch ptr null
  %5 = extractvalue { ptr, i32 } %4, 0
  tail call void @__clang_call_terminate(ptr %5) #18
  unreachable

_ZN8obj_markI4expr10bit_vector14default_t2uintIS0_EED2Ev.exit: ; preds = %_ZN10ptr_vectorI4exprED2Ev.exit, %if.end.i.i.i
  %m_data.i.i2 = getelementptr inbounds %class.eq2bv_tactic, ptr %this, i64 0, i32 9, i32 1, i32 2
  %6 = load ptr, ptr %m_data.i.i2, align 8
  %cmp.i.i.i3 = icmp eq ptr %6, null
  br i1 %cmp.i.i.i3, label %_ZN8obj_markI4expr10bit_vector14default_t2uintIS0_EED2Ev.exit6, label %if.end.i.i.i4

if.end.i.i.i4:                                    ; preds = %_ZN8obj_markI4expr10bit_vector14default_t2uintIS0_EED2Ev.exit
  invoke void @_ZN6memory10deallocateEPv(ptr noundef nonnull %6)
          to label %_ZN8obj_markI4expr10bit_vector14default_t2uintIS0_EED2Ev.exit6 unwind label %terminate.lpad.i.i5

terminate.lpad.i.i5:                              ; preds = %if.end.i.i.i4
  %7 = landingpad { ptr, i32 }
          catch ptr null
  %8 = extractvalue { ptr, i32 } %7, 0
  tail call void @__clang_call_terminate(ptr %8) #18
  unreachable

_ZN8obj_markI4expr10bit_vector14default_t2uintIS0_EED2Ev.exit6: ; preds = %_ZN8obj_markI4expr10bit_vector14default_t2uintIS0_EED2Ev.exit, %if.end.i.i.i4
  %m_max = getelementptr inbounds %class.eq2bv_tactic, ptr %this, i64 0, i32 8
  %9 = load ptr, ptr %m_max, align 8
  %m_capacity.i.i.i = getelementptr inbounds %class.eq2bv_tactic, ptr %this, i64 0, i32 8, i32 0, i32 1
  %10 = load i32, ptr %m_capacity.i.i.i, align 8
  %cmp.i.i.i.i = icmp eq ptr %9, null
  br i1 %cmp.i.i.i.i, label %_ZN7obj_mapI4expr8rationalED2Ev.exit, label %for.cond.preheader.i.i.i.i

for.cond.preheader.i.i.i.i:                       ; preds = %_ZN8obj_markI4expr10bit_vector14default_t2uintIS0_EED2Ev.exit6
  %cmp15.not.i.i.i.i = icmp eq i32 %10, 0
  br i1 %cmp15.not.i.i.i.i, label %for.end.i.i.i.i, label %for.body.i.i.i.i

for.body.i.i.i.i:                                 ; preds = %for.cond.preheader.i.i.i.i, %_ZN7obj_mapI4expr8rationalE13obj_map_entryD2Ev.exit.i.i.i.i
  %i.07.i.i.i.i = phi i32 [ %inc.i.i.i.i, %_ZN7obj_mapI4expr8rationalE13obj_map_entryD2Ev.exit.i.i.i.i ], [ 0, %for.cond.preheader.i.i.i.i ]
  %curr.06.i.i.i.i = phi ptr [ %incdec.ptr.i.i.i.i, %_ZN7obj_mapI4expr8rationalE13obj_map_entryD2Ev.exit.i.i.i.i ], [ %9, %for.cond.preheader.i.i.i.i ]
  %m_value.i.i.i.i.i.i = getelementptr inbounds %"struct.obj_map<expr, rational>::key_data", ptr %curr.06.i.i.i.i, i64 0, i32 1
  %11 = load ptr, ptr @_ZN8rational13g_mpq_managerE, align 8
  invoke void @_ZN11mpz_managerILb1EE3delEPS0_R3mpz(ptr noundef %11, ptr noundef nonnull align 8 dereferenceable(16) %m_value.i.i.i.i.i.i)
          to label %.noexc.i.i.i.i.i.i.i unwind label %terminate.lpad.i.i.i.i.i.i.i

.noexc.i.i.i.i.i.i.i:                             ; preds = %for.body.i.i.i.i
  %m_den.i.i.i.i.i.i.i.i = getelementptr inbounds %"struct.obj_map<expr, rational>::key_data", ptr %curr.06.i.i.i.i, i64 0, i32 1, i32 0, i32 1
  invoke void @_ZN11mpz_managerILb1EE3delEPS0_R3mpz(ptr noundef %11, ptr noundef nonnull align 8 dereferenceable(16) %m_den.i.i.i.i.i.i.i.i)
          to label %_ZN7obj_mapI4expr8rationalE13obj_map_entryD2Ev.exit.i.i.i.i unwind label %terminate.lpad.i.i.i.i.i.i.i

terminate.lpad.i.i.i.i.i.i.i:                     ; preds = %.noexc.i.i.i.i.i.i.i, %for.body.i.i.i.i
  %12 = landingpad { ptr, i32 }
          catch ptr null
  %13 = extractvalue { ptr, i32 } %12, 0
  tail call void @__clang_call_terminate(ptr %13) #18
  unreachable

_ZN7obj_mapI4expr8rationalE13obj_map_entryD2Ev.exit.i.i.i.i: ; preds = %.noexc.i.i.i.i.i.i.i
  %inc.i.i.i.i = add nuw i32 %i.07.i.i.i.i, 1
  %incdec.ptr.i.i.i.i = getelementptr inbounds %"class.obj_map<expr, rational>::obj_map_entry", ptr %curr.06.i.i.i.i, i64 1
  %exitcond.not.i.i.i.i = icmp eq i32 %inc.i.i.i.i, %10
  br i1 %exitcond.not.i.i.i.i, label %for.end.i.i.i.i, label %for.body.i.i.i.i, !llvm.loop !7

for.end.i.i.i.i:                                  ; preds = %_ZN7obj_mapI4expr8rationalE13obj_map_entryD2Ev.exit.i.i.i.i, %for.cond.preheader.i.i.i.i
  invoke void @_ZN6memory10deallocateEPv(ptr noundef nonnull %9)
          to label %_ZN7obj_mapI4expr8rationalED2Ev.exit unwind label %terminate.lpad.i.i7

terminate.lpad.i.i7:                              ; preds = %for.end.i.i.i.i
  %14 = landingpad { ptr, i32 }
          catch ptr null
  %15 = extractvalue { ptr, i32 } %14, 0
  tail call void @__clang_call_terminate(ptr %15) #18
  unreachable

_ZN7obj_mapI4expr8rationalED2Ev.exit:             ; preds = %_ZN8obj_markI4expr10bit_vector14default_t2uintIS0_EED2Ev.exit6, %for.end.i.i.i.i
  store ptr null, ptr %m_max, align 8
  %m_fd = getelementptr inbounds %class.eq2bv_tactic, ptr %this, i64 0, i32 7
  %16 = load ptr, ptr %m_fd, align 8
  %cmp.i.i.i.i8 = icmp eq ptr %16, null
  br i1 %cmp.i.i.i.i8, label %_ZN7obj_mapI4exprPS0_ED2Ev.exit, label %for.cond.preheader.i.i.i.i9

for.cond.preheader.i.i.i.i9:                      ; preds = %_ZN7obj_mapI4expr8rationalED2Ev.exit
  invoke void @_ZN6memory10deallocateEPv(ptr noundef nonnull %16)
          to label %_ZN7obj_mapI4exprPS0_ED2Ev.exit unwind label %terminate.lpad.i.i10

terminate.lpad.i.i10:                             ; preds = %for.cond.preheader.i.i.i.i9
  %17 = landingpad { ptr, i32 }
          catch ptr null
  %18 = extractvalue { ptr, i32 } %17, 0
  tail call void @__clang_call_terminate(ptr %18) #18
  unreachable

_ZN7obj_mapI4exprPS0_ED2Ev.exit:                  ; preds = %_ZN7obj_mapI4expr8rationalED2Ev.exit, %for.cond.preheader.i.i.i.i9
  store ptr null, ptr %m_fd, align 8
  %m_bounds = getelementptr inbounds %class.eq2bv_tactic, ptr %this, i64 0, i32 6
  tail call void @_ZN13bound_managerD1Ev(ptr noundef nonnull align 8 dereferenceable(128) %m_bounds) #17
  %m_trail = getelementptr inbounds %class.eq2bv_tactic, ptr %this, i64 0, i32 5
  %m_nodes.i.i = getelementptr inbounds %class.eq2bv_tactic, ptr %this, i64 0, i32 5, i32 0, i32 1
  %19 = load ptr, ptr %m_nodes.i.i, align 8
  %cmp.i.i.i11 = icmp eq ptr %19, null
  br i1 %cmp.i.i.i11, label %_ZN10ref_vectorI4expr11ast_managerED2Ev.exit, label %_ZNK6vectorIP4exprLb0EjE4sizeEv.exit.i.i

_ZNK6vectorIP4exprLb0EjE4sizeEv.exit.i.i:         ; preds = %_ZN7obj_mapI4exprPS0_ED2Ev.exit
  %arrayidx.i.i.i = getelementptr inbounds i32, ptr %19, i64 -1
  %20 = load i32, ptr %arrayidx.i.i.i, align 4
  %21 = zext i32 %20 to i64
  %add.ptr.i.i = getelementptr inbounds ptr, ptr %19, i64 %21
  %cmp3.i.not.i.i = icmp eq i32 %20, 0
  br i1 %cmp3.i.not.i.i, label %if.then.i.i.i.i.i, label %for.body.i.i.i

for.body.i.i.i:                                   ; preds = %_ZNK6vectorIP4exprLb0EjE4sizeEv.exit.i.i, %_ZN15ref_vector_coreI4expr19ref_manager_wrapperIS0_11ast_managerEE7dec_refEPS0_.exit.i.i.i
  %it.04.i.i.i = phi ptr [ %incdec.ptr.i.i.i, %_ZN15ref_vector_coreI4expr19ref_manager_wrapperIS0_11ast_managerEE7dec_refEPS0_.exit.i.i.i ], [ %19, %_ZNK6vectorIP4exprLb0EjE4sizeEv.exit.i.i ]
  %22 = load ptr, ptr %it.04.i.i.i, align 8
  %23 = load ptr, ptr %m_trail, align 8
  %tobool.not.i.i.i.i.i.i = icmp eq ptr %22, null
  br i1 %tobool.not.i.i.i.i.i.i, label %_ZN15ref_vector_coreI4expr19ref_manager_wrapperIS0_11ast_managerEE7dec_refEPS0_.exit.i.i.i, label %if.then.i.i.i.i.i.i

if.then.i.i.i.i.i.i:                              ; preds = %for.body.i.i.i
  %m_ref_count.i.i.i.i.i.i.i = getelementptr inbounds %class.ast, ptr %22, i64 0, i32 2
  %24 = load i32, ptr %m_ref_count.i.i.i.i.i.i.i, align 4
  %dec.i.i.i.i.i.i.i = add i32 %24, -1
  store i32 %dec.i.i.i.i.i.i.i, ptr %m_ref_count.i.i.i.i.i.i.i, align 4
  %cmp.i.i.i.i.i.i = icmp eq i32 %dec.i.i.i.i.i.i.i, 0
  br i1 %cmp.i.i.i.i.i.i, label %if.then2.i.i.i.i.i.i, label %_ZN15ref_vector_coreI4expr19ref_manager_wrapperIS0_11ast_managerEE7dec_refEPS0_.exit.i.i.i

if.then2.i.i.i.i.i.i:                             ; preds = %if.then.i.i.i.i.i.i
  invoke void @_ZN11ast_manager11delete_nodeEP3ast(ptr noundef nonnull align 8 dereferenceable(976) %23, ptr noundef nonnull %22)
          to label %_ZN15ref_vector_coreI4expr19ref_manager_wrapperIS0_11ast_managerEE7dec_refEPS0_.exit.i.i.i unwind label %terminate.lpad.i.i12

_ZN15ref_vector_coreI4expr19ref_manager_wrapperIS0_11ast_managerEE7dec_refEPS0_.exit.i.i.i: ; preds = %if.then2.i.i.i.i.i.i, %if.then.i.i.i.i.i.i, %for.body.i.i.i
  %incdec.ptr.i.i.i = getelementptr inbounds ptr, ptr %it.04.i.i.i, i64 1
  %cmp.i1.i.i = icmp ult ptr %incdec.ptr.i.i.i, %add.ptr.i.i
  br i1 %cmp.i1.i.i, label %for.body.i.i.i, label %invoke.cont8.i.i, !llvm.loop !6

invoke.cont8.i.i:                                 ; preds = %_ZN15ref_vector_coreI4expr19ref_manager_wrapperIS0_11ast_managerEE7dec_refEPS0_.exit.i.i.i
  %.pre.i.i = load ptr, ptr %m_nodes.i.i, align 8
  %tobool.not.i.i.i.i.i = icmp eq ptr %.pre.i.i, null
  br i1 %tobool.not.i.i.i.i.i, label %_ZN10ref_vectorI4expr11ast_managerED2Ev.exit, label %if.then.i.i.i.i.i

if.then.i.i.i.i.i:                                ; preds = %invoke.cont8.i.i, %_ZNK6vectorIP4exprLb0EjE4sizeEv.exit.i.i
  %25 = phi ptr [ %.pre.i.i, %invoke.cont8.i.i ], [ %19, %_ZNK6vectorIP4exprLb0EjE4sizeEv.exit.i.i ]
  %add.ptr.i.i.i.i.i.i = getelementptr inbounds i32, ptr %25, i64 -2
  invoke void @_ZN6memory10deallocateEPv(ptr noundef nonnull %add.ptr.i.i.i.i.i.i)
          to label %_ZN10ref_vectorI4expr11ast_managerED2Ev.exit unwind label %terminate.lpad.i.i.i.i

terminate.lpad.i.i.i.i:                           ; preds = %if.then.i.i.i.i.i
  %26 = landingpad { ptr, i32 }
          catch ptr null
  %27 = extractvalue { ptr, i32 } %26, 0
  tail call void @__clang_call_terminate(ptr %27) #18
  unreachable

terminate.lpad.i.i12:                             ; preds = %if.then2.i.i.i.i.i.i
  %28 = landingpad { ptr, i32 }
          catch ptr null
  %29 = extractvalue { ptr, i32 } %28, 0
  tail call void @__clang_call_terminate(ptr %29) #18
  unreachable

_ZN10ref_vectorI4expr11ast_managerED2Ev.exit:     ; preds = %_ZN7obj_mapI4exprPS0_ED2Ev.exit, %invoke.cont8.i.i, %if.then.i.i.i.i.i
  %m_rw = getelementptr inbounds %class.eq2bv_tactic, ptr %this, i64 0, i32 4
  tail call void @_ZN12rewriter_tplIN12eq2bv_tactic15eq_rewriter_cfgEED2Ev(ptr noundef nonnull align 8 dereferenceable(536) %m_rw) #17
  ret void
}

; Function Attrs: mustprogress nounwind uwtable
define linkonce_odr hidden void @_ZN12eq2bv_tacticD0Ev(ptr noundef nonnull align 8 dereferenceable(864) %this) unnamed_addr #4 comdat align 2 {
entry:
  tail call void @_ZN12eq2bv_tacticD2Ev(ptr noundef nonnull align 8 dereferenceable(864) %this) #17
  tail call void @_ZdlPv(ptr noundef nonnull %this) #19
  ret void
}

; Function Attrs: mustprogress uwtable
define linkonce_odr hidden void @_ZN6tactic19user_propagate_initEPvRSt8functionIFvS0_PN15user_propagator8callbackEEERS1_IFvS0_S4_jEERS1_IFS0_S0_R11ast_managerRPNS2_11context_objEEE(ptr noundef nonnull align 8 dereferenceable(12) %this, ptr noundef %ctx, ptr noundef nonnull align 1 %push_eh, ptr noundef nonnull align 1 %pop_eh, ptr noundef nonnull align 1 %fresh_eh) unnamed_addr #3 comdat align 2 personality ptr @__gxx_personality_v0 {
entry:
  %ref.tmp = alloca %"class.std::__cxx11::basic_string", align 8
  %ref.tmp2 = alloca %"class.std::allocator", align 1
  %exception = tail call ptr @__cxa_allocate_exception(i64 40) #17
  call void @_ZNSaIcEC1Ev(ptr noundef nonnull align 1 dereferenceable(1) %ref.tmp2) #17
  %call.i2 = invoke noundef ptr @_ZNSt7__cxx1112basic_stringIcSt11char_traitsIcESaIcEE13_M_local_dataEv(ptr noundef nonnull align 8 dereferenceable(32) %ref.tmp)
          to label %call.i.noexc unwind label %lpad

call.i.noexc:                                     ; preds = %entry
  invoke void @_ZNSt7__cxx1112basic_stringIcSt11char_traitsIcESaIcEE12_Alloc_hiderC1EPcRKS3_(ptr noundef nonnull align 8 dereferenceable(8) %ref.tmp, ptr noundef %call.i2, ptr noundef nonnull align 1 dereferenceable(1) %ref.tmp2)
          to label %.noexc unwind label %lpad

.noexc:                                           ; preds = %call.i.noexc
  invoke void @_ZNSt7__cxx1112basic_stringIcSt11char_traitsIcESaIcEE12_M_constructIPKcEEvT_S8_St20forward_iterator_tag(ptr noundef nonnull align 8 dereferenceable(32) %ref.tmp, ptr noundef nonnull @.str.3, ptr noundef nonnull getelementptr inbounds ([41 x i8], ptr @.str.3, i64 0, i64 40))
          to label %invoke.cont unwind label %lpad.i

lpad.i:                                           ; preds = %.noexc
  %0 = landingpad { ptr, i32 }
          cleanup
  call void @_ZNSaIcED2Ev(ptr noundef nonnull align 1 dereferenceable(1) %ref.tmp) #17
  br label %cleanup.action

invoke.cont:                                      ; preds = %.noexc
  store ptr getelementptr inbounds ({ [6 x ptr] }, ptr @_ZTV17default_exception, i64 0, inrange i32 0, i64 2), ptr %exception, align 8
  %m_msg.i = getelementptr inbounds %class.default_exception, ptr %exception, i64 0, i32 1
  call void @_ZNSt7__cxx1112basic_stringIcSt11char_traitsIcESaIcEEC1EOS4_(ptr noundef nonnull align 8 dereferenceable(32) %m_msg.i, ptr noundef nonnull align 8 dereferenceable(32) %ref.tmp) #17
  invoke void @__cxa_throw(ptr nonnull %exception, ptr nonnull @_ZTI17default_exception, ptr nonnull @_ZN17default_exceptionD2Ev) #20
          to label %unreachable unwind label %ehcleanup

lpad:                                             ; preds = %call.i.noexc, %entry
  %1 = landingpad { ptr, i32 }
          cleanup
  br label %cleanup.action

ehcleanup:                                        ; preds = %invoke.cont
  %2 = landingpad { ptr, i32 }
          cleanup
  call void @_ZNSt7__cxx1112basic_stringIcSt11char_traitsIcESaIcEED1Ev(ptr noundef nonnull align 8 dereferenceable(32) %ref.tmp) #17
  call void @_ZNSaIcED1Ev(ptr noundef nonnull align 1 dereferenceable(1) %ref.tmp2) #17
  br label %eh.resume

cleanup.action:                                   ; preds = %lpad.i, %lpad
  %.pn.ph = phi { ptr, i32 } [ %0, %lpad.i ], [ %1, %lpad ]
  call void @_ZNSaIcED1Ev(ptr noundef nonnull align 1 dereferenceable(1) %ref.tmp2) #17
  call void @__cxa_free_exception(ptr %exception) #17
  br label %eh.resume

eh.resume:                                        ; preds = %ehcleanup, %cleanup.action
  %.pn5 = phi { ptr, i32 } [ %2, %ehcleanup ], [ %.pn.ph, %cleanup.action ]
  resume { ptr, i32 } %.pn5

unreachable:                                      ; preds = %invoke.cont
  unreachable
}

; Function Attrs: mustprogress uwtable
define linkonce_odr hidden void @_ZN15user_propagator4core29user_propagate_register_fixedERSt8functionIFvPvPNS_8callbackEP4exprS6_EE(ptr noundef nonnull align 8 dereferenceable(8) %this, ptr noundef nonnull align 1 %fixed_eh) unnamed_addr #3 comdat align 2 personality ptr @__gxx_personality_v0 {
entry:
  %ref.tmp = alloca %"class.std::__cxx11::basic_string", align 8
  %ref.tmp2 = alloca %"class.std::allocator", align 1
  %exception = tail call ptr @__cxa_allocate_exception(i64 40) #17
  call void @_ZNSaIcEC1Ev(ptr noundef nonnull align 1 dereferenceable(1) %ref.tmp2) #17
  %call.i2 = invoke noundef ptr @_ZNSt7__cxx1112basic_stringIcSt11char_traitsIcESaIcEE13_M_local_dataEv(ptr noundef nonnull align 8 dereferenceable(32) %ref.tmp)
          to label %call.i.noexc unwind label %lpad

call.i.noexc:                                     ; preds = %entry
  invoke void @_ZNSt7__cxx1112basic_stringIcSt11char_traitsIcESaIcEE12_Alloc_hiderC1EPcRKS3_(ptr noundef nonnull align 8 dereferenceable(8) %ref.tmp, ptr noundef %call.i2, ptr noundef nonnull align 1 dereferenceable(1) %ref.tmp2)
          to label %.noexc unwind label %lpad

.noexc:                                           ; preds = %call.i.noexc
  invoke void @_ZNSt7__cxx1112basic_stringIcSt11char_traitsIcESaIcEE12_M_constructIPKcEEvT_S8_St20forward_iterator_tag(ptr noundef nonnull align 8 dereferenceable(32) %ref.tmp, ptr noundef nonnull @.str, ptr noundef nonnull getelementptr inbounds ([54 x i8], ptr @.str, i64 0, i64 53))
          to label %invoke.cont unwind label %lpad.i

lpad.i:                                           ; preds = %.noexc
  %0 = landingpad { ptr, i32 }
          cleanup
  call void @_ZNSaIcED2Ev(ptr noundef nonnull align 1 dereferenceable(1) %ref.tmp) #17
  br label %cleanup.action

invoke.cont:                                      ; preds = %.noexc
  store ptr getelementptr inbounds ({ [6 x ptr] }, ptr @_ZTV17default_exception, i64 0, inrange i32 0, i64 2), ptr %exception, align 8
  %m_msg.i = getelementptr inbounds %class.default_exception, ptr %exception, i64 0, i32 1
  call void @_ZNSt7__cxx1112basic_stringIcSt11char_traitsIcESaIcEEC1EOS4_(ptr noundef nonnull align 8 dereferenceable(32) %m_msg.i, ptr noundef nonnull align 8 dereferenceable(32) %ref.tmp) #17
  invoke void @__cxa_throw(ptr nonnull %exception, ptr nonnull @_ZTI17default_exception, ptr nonnull @_ZN17default_exceptionD2Ev) #20
          to label %unreachable unwind label %ehcleanup

lpad:                                             ; preds = %call.i.noexc, %entry
  %1 = landingpad { ptr, i32 }
          cleanup
  br label %cleanup.action

ehcleanup:                                        ; preds = %invoke.cont
  %2 = landingpad { ptr, i32 }
          cleanup
  call void @_ZNSt7__cxx1112basic_stringIcSt11char_traitsIcESaIcEED1Ev(ptr noundef nonnull align 8 dereferenceable(32) %ref.tmp) #17
  call void @_ZNSaIcED1Ev(ptr noundef nonnull align 1 dereferenceable(1) %ref.tmp2) #17
  br label %eh.resume

cleanup.action:                                   ; preds = %lpad.i, %lpad
  %.pn.ph = phi { ptr, i32 } [ %0, %lpad.i ], [ %1, %lpad ]
  call void @_ZNSaIcED1Ev(ptr noundef nonnull align 1 dereferenceable(1) %ref.tmp2) #17
  call void @__cxa_free_exception(ptr %exception) #17
  br label %eh.resume

eh.resume:                                        ; preds = %ehcleanup, %cleanup.action
  %.pn5 = phi { ptr, i32 } [ %2, %ehcleanup ], [ %.pn.ph, %cleanup.action ]
  resume { ptr, i32 } %.pn5

unreachable:                                      ; preds = %invoke.cont
  unreachable
}

; Function Attrs: mustprogress uwtable
define linkonce_odr hidden void @_ZN15user_propagator4core29user_propagate_register_finalERSt8functionIFvPvPNS_8callbackEEE(ptr noundef nonnull align 8 dereferenceable(8) %this, ptr noundef nonnull align 1 %final_eh) unnamed_addr #3 comdat align 2 personality ptr @__gxx_personality_v0 {
entry:
  %ref.tmp = alloca %"class.std::__cxx11::basic_string", align 8
  %ref.tmp2 = alloca %"class.std::allocator", align 1
  %exception = tail call ptr @__cxa_allocate_exception(i64 40) #17
  call void @_ZNSaIcEC1Ev(ptr noundef nonnull align 1 dereferenceable(1) %ref.tmp2) #17
  %call.i2 = invoke noundef ptr @_ZNSt7__cxx1112basic_stringIcSt11char_traitsIcESaIcEE13_M_local_dataEv(ptr noundef nonnull align 8 dereferenceable(32) %ref.tmp)
          to label %call.i.noexc unwind label %lpad

call.i.noexc:                                     ; preds = %entry
  invoke void @_ZNSt7__cxx1112basic_stringIcSt11char_traitsIcESaIcEE12_Alloc_hiderC1EPcRKS3_(ptr noundef nonnull align 8 dereferenceable(8) %ref.tmp, ptr noundef %call.i2, ptr noundef nonnull align 1 dereferenceable(1) %ref.tmp2)
          to label %.noexc unwind label %lpad

.noexc:                                           ; preds = %call.i.noexc
  invoke void @_ZNSt7__cxx1112basic_stringIcSt11char_traitsIcESaIcEE12_M_constructIPKcEEvT_S8_St20forward_iterator_tag(ptr noundef nonnull align 8 dereferenceable(32) %ref.tmp, ptr noundef nonnull @.str, ptr noundef nonnull getelementptr inbounds ([54 x i8], ptr @.str, i64 0, i64 53))
          to label %invoke.cont unwind label %lpad.i

lpad.i:                                           ; preds = %.noexc
  %0 = landingpad { ptr, i32 }
          cleanup
  call void @_ZNSaIcED2Ev(ptr noundef nonnull align 1 dereferenceable(1) %ref.tmp) #17
  br label %cleanup.action

invoke.cont:                                      ; preds = %.noexc
  store ptr getelementptr inbounds ({ [6 x ptr] }, ptr @_ZTV17default_exception, i64 0, inrange i32 0, i64 2), ptr %exception, align 8
  %m_msg.i = getelementptr inbounds %class.default_exception, ptr %exception, i64 0, i32 1
  call void @_ZNSt7__cxx1112basic_stringIcSt11char_traitsIcESaIcEEC1EOS4_(ptr noundef nonnull align 8 dereferenceable(32) %m_msg.i, ptr noundef nonnull align 8 dereferenceable(32) %ref.tmp) #17
  invoke void @__cxa_throw(ptr nonnull %exception, ptr nonnull @_ZTI17default_exception, ptr nonnull @_ZN17default_exceptionD2Ev) #20
          to label %unreachable unwind label %ehcleanup

lpad:                                             ; preds = %call.i.noexc, %entry
  %1 = landingpad { ptr, i32 }
          cleanup
  br label %cleanup.action

ehcleanup:                                        ; preds = %invoke.cont
  %2 = landingpad { ptr, i32 }
          cleanup
  call void @_ZNSt7__cxx1112basic_stringIcSt11char_traitsIcESaIcEED1Ev(ptr noundef nonnull align 8 dereferenceable(32) %ref.tmp) #17
  call void @_ZNSaIcED1Ev(ptr noundef nonnull align 1 dereferenceable(1) %ref.tmp2) #17
  br label %eh.resume

cleanup.action:                                   ; preds = %lpad.i, %lpad
  %.pn.ph = phi { ptr, i32 } [ %0, %lpad.i ], [ %1, %lpad ]
  call void @_ZNSaIcED1Ev(ptr noundef nonnull align 1 dereferenceable(1) %ref.tmp2) #17
  call void @__cxa_free_exception(ptr %exception) #17
  br label %eh.resume

eh.resume:                                        ; preds = %ehcleanup, %cleanup.action
  %.pn5 = phi { ptr, i32 } [ %2, %ehcleanup ], [ %.pn.ph, %cleanup.action ]
  resume { ptr, i32 } %.pn5

unreachable:                                      ; preds = %invoke.cont
  unreachable
}

; Function Attrs: mustprogress uwtable
define linkonce_odr hidden void @_ZN15user_propagator4core26user_propagate_register_eqERSt8functionIFvPvPNS_8callbackEP4exprS6_EE(ptr noundef nonnull align 8 dereferenceable(8) %this, ptr noundef nonnull align 1 %eq_eh) unnamed_addr #3 comdat align 2 personality ptr @__gxx_personality_v0 {
entry:
  %ref.tmp = alloca %"class.std::__cxx11::basic_string", align 8
  %ref.tmp2 = alloca %"class.std::allocator", align 1
  %exception = tail call ptr @__cxa_allocate_exception(i64 40) #17
  call void @_ZNSaIcEC1Ev(ptr noundef nonnull align 1 dereferenceable(1) %ref.tmp2) #17
  %call.i2 = invoke noundef ptr @_ZNSt7__cxx1112basic_stringIcSt11char_traitsIcESaIcEE13_M_local_dataEv(ptr noundef nonnull align 8 dereferenceable(32) %ref.tmp)
          to label %call.i.noexc unwind label %lpad

call.i.noexc:                                     ; preds = %entry
  invoke void @_ZNSt7__cxx1112basic_stringIcSt11char_traitsIcESaIcEE12_Alloc_hiderC1EPcRKS3_(ptr noundef nonnull align 8 dereferenceable(8) %ref.tmp, ptr noundef %call.i2, ptr noundef nonnull align 1 dereferenceable(1) %ref.tmp2)
          to label %.noexc unwind label %lpad

.noexc:                                           ; preds = %call.i.noexc
  invoke void @_ZNSt7__cxx1112basic_stringIcSt11char_traitsIcESaIcEE12_M_constructIPKcEEvT_S8_St20forward_iterator_tag(ptr noundef nonnull align 8 dereferenceable(32) %ref.tmp, ptr noundef nonnull @.str, ptr noundef nonnull getelementptr inbounds ([54 x i8], ptr @.str, i64 0, i64 53))
          to label %invoke.cont unwind label %lpad.i

lpad.i:                                           ; preds = %.noexc
  %0 = landingpad { ptr, i32 }
          cleanup
  call void @_ZNSaIcED2Ev(ptr noundef nonnull align 1 dereferenceable(1) %ref.tmp) #17
  br label %cleanup.action

invoke.cont:                                      ; preds = %.noexc
  store ptr getelementptr inbounds ({ [6 x ptr] }, ptr @_ZTV17default_exception, i64 0, inrange i32 0, i64 2), ptr %exception, align 8
  %m_msg.i = getelementptr inbounds %class.default_exception, ptr %exception, i64 0, i32 1
  call void @_ZNSt7__cxx1112basic_stringIcSt11char_traitsIcESaIcEEC1EOS4_(ptr noundef nonnull align 8 dereferenceable(32) %m_msg.i, ptr noundef nonnull align 8 dereferenceable(32) %ref.tmp) #17
  invoke void @__cxa_throw(ptr nonnull %exception, ptr nonnull @_ZTI17default_exception, ptr nonnull @_ZN17default_exceptionD2Ev) #20
          to label %unreachable unwind label %ehcleanup

lpad:                                             ; preds = %call.i.noexc, %entry
  %1 = landingpad { ptr, i32 }
          cleanup
  br label %cleanup.action

ehcleanup:                                        ; preds = %invoke.cont
  %2 = landingpad { ptr, i32 }
          cleanup
  call void @_ZNSt7__cxx1112basic_stringIcSt11char_traitsIcESaIcEED1Ev(ptr noundef nonnull align 8 dereferenceable(32) %ref.tmp) #17
  call void @_ZNSaIcED1Ev(ptr noundef nonnull align 1 dereferenceable(1) %ref.tmp2) #17
  br label %eh.resume

cleanup.action:                                   ; preds = %lpad.i, %lpad
  %.pn.ph = phi { ptr, i32 } [ %0, %lpad.i ], [ %1, %lpad ]
  call void @_ZNSaIcED1Ev(ptr noundef nonnull align 1 dereferenceable(1) %ref.tmp2) #17
  call void @__cxa_free_exception(ptr %exception) #17
  br label %eh.resume

eh.resume:                                        ; preds = %ehcleanup, %cleanup.action
  %.pn5 = phi { ptr, i32 } [ %2, %ehcleanup ], [ %.pn.ph, %cleanup.action ]
  resume { ptr, i32 } %.pn5

unreachable:                                      ; preds = %invoke.cont
  unreachable
}

; Function Attrs: mustprogress uwtable
define linkonce_odr hidden void @_ZN15user_propagator4core29user_propagate_register_diseqERSt8functionIFvPvPNS_8callbackEP4exprS6_EE(ptr noundef nonnull align 8 dereferenceable(8) %this, ptr noundef nonnull align 1 %diseq_eh) unnamed_addr #3 comdat align 2 personality ptr @__gxx_personality_v0 {
entry:
  %ref.tmp = alloca %"class.std::__cxx11::basic_string", align 8
  %ref.tmp2 = alloca %"class.std::allocator", align 1
  %exception = tail call ptr @__cxa_allocate_exception(i64 40) #17
  call void @_ZNSaIcEC1Ev(ptr noundef nonnull align 1 dereferenceable(1) %ref.tmp2) #17
  %call.i2 = invoke noundef ptr @_ZNSt7__cxx1112basic_stringIcSt11char_traitsIcESaIcEE13_M_local_dataEv(ptr noundef nonnull align 8 dereferenceable(32) %ref.tmp)
          to label %call.i.noexc unwind label %lpad

call.i.noexc:                                     ; preds = %entry
  invoke void @_ZNSt7__cxx1112basic_stringIcSt11char_traitsIcESaIcEE12_Alloc_hiderC1EPcRKS3_(ptr noundef nonnull align 8 dereferenceable(8) %ref.tmp, ptr noundef %call.i2, ptr noundef nonnull align 1 dereferenceable(1) %ref.tmp2)
          to label %.noexc unwind label %lpad

.noexc:                                           ; preds = %call.i.noexc
  invoke void @_ZNSt7__cxx1112basic_stringIcSt11char_traitsIcESaIcEE12_M_constructIPKcEEvT_S8_St20forward_iterator_tag(ptr noundef nonnull align 8 dereferenceable(32) %ref.tmp, ptr noundef nonnull @.str, ptr noundef nonnull getelementptr inbounds ([54 x i8], ptr @.str, i64 0, i64 53))
          to label %invoke.cont unwind label %lpad.i

lpad.i:                                           ; preds = %.noexc
  %0 = landingpad { ptr, i32 }
          cleanup
  call void @_ZNSaIcED2Ev(ptr noundef nonnull align 1 dereferenceable(1) %ref.tmp) #17
  br label %cleanup.action

invoke.cont:                                      ; preds = %.noexc
  store ptr getelementptr inbounds ({ [6 x ptr] }, ptr @_ZTV17default_exception, i64 0, inrange i32 0, i64 2), ptr %exception, align 8
  %m_msg.i = getelementptr inbounds %class.default_exception, ptr %exception, i64 0, i32 1
  call void @_ZNSt7__cxx1112basic_stringIcSt11char_traitsIcESaIcEEC1EOS4_(ptr noundef nonnull align 8 dereferenceable(32) %m_msg.i, ptr noundef nonnull align 8 dereferenceable(32) %ref.tmp) #17
  invoke void @__cxa_throw(ptr nonnull %exception, ptr nonnull @_ZTI17default_exception, ptr nonnull @_ZN17default_exceptionD2Ev) #20
          to label %unreachable unwind label %ehcleanup

lpad:                                             ; preds = %call.i.noexc, %entry
  %1 = landingpad { ptr, i32 }
          cleanup
  br label %cleanup.action

ehcleanup:                                        ; preds = %invoke.cont
  %2 = landingpad { ptr, i32 }
          cleanup
  call void @_ZNSt7__cxx1112basic_stringIcSt11char_traitsIcESaIcEED1Ev(ptr noundef nonnull align 8 dereferenceable(32) %ref.tmp) #17
  call void @_ZNSaIcED1Ev(ptr noundef nonnull align 1 dereferenceable(1) %ref.tmp2) #17
  br label %eh.resume

cleanup.action:                                   ; preds = %lpad.i, %lpad
  %.pn.ph = phi { ptr, i32 } [ %0, %lpad.i ], [ %1, %lpad ]
  call void @_ZNSaIcED1Ev(ptr noundef nonnull align 1 dereferenceable(1) %ref.tmp2) #17
  call void @__cxa_free_exception(ptr %exception) #17
  br label %eh.resume

eh.resume:                                        ; preds = %ehcleanup, %cleanup.action
  %.pn5 = phi { ptr, i32 } [ %2, %ehcleanup ], [ %.pn.ph, %cleanup.action ]
  resume { ptr, i32 } %.pn5

unreachable:                                      ; preds = %invoke.cont
  unreachable
}

; Function Attrs: mustprogress nounwind uwtable
define linkonce_odr hidden void @_ZN6tactic28user_propagate_register_exprEP4expr(ptr noundef nonnull align 8 dereferenceable(12) %this, ptr noundef %e) unnamed_addr #4 comdat align 2 {
entry:
  ret void
}

; Function Attrs: mustprogress uwtable
define linkonce_odr hidden void @_ZN15user_propagator4core31user_propagate_register_createdERSt8functionIFvPvPNS_8callbackEP4exprEE(ptr noundef nonnull align 8 dereferenceable(8) %this, ptr noundef nonnull align 1 %r) unnamed_addr #3 comdat align 2 personality ptr @__gxx_personality_v0 {
entry:
  %ref.tmp = alloca %"class.std::__cxx11::basic_string", align 8
  %ref.tmp2 = alloca %"class.std::allocator", align 1
  %exception = tail call ptr @__cxa_allocate_exception(i64 40) #17
  call void @_ZNSaIcEC1Ev(ptr noundef nonnull align 1 dereferenceable(1) %ref.tmp2) #17
  %call.i2 = invoke noundef ptr @_ZNSt7__cxx1112basic_stringIcSt11char_traitsIcESaIcEE13_M_local_dataEv(ptr noundef nonnull align 8 dereferenceable(32) %ref.tmp)
          to label %call.i.noexc unwind label %lpad

call.i.noexc:                                     ; preds = %entry
  invoke void @_ZNSt7__cxx1112basic_stringIcSt11char_traitsIcESaIcEE12_Alloc_hiderC1EPcRKS3_(ptr noundef nonnull align 8 dereferenceable(8) %ref.tmp, ptr noundef %call.i2, ptr noundef nonnull align 1 dereferenceable(1) %ref.tmp2)
          to label %.noexc unwind label %lpad

.noexc:                                           ; preds = %call.i.noexc
  invoke void @_ZNSt7__cxx1112basic_stringIcSt11char_traitsIcESaIcEE12_M_constructIPKcEEvT_S8_St20forward_iterator_tag(ptr noundef nonnull align 8 dereferenceable(32) %ref.tmp, ptr noundef nonnull @.str, ptr noundef nonnull getelementptr inbounds ([54 x i8], ptr @.str, i64 0, i64 53))
          to label %invoke.cont unwind label %lpad.i

lpad.i:                                           ; preds = %.noexc
  %0 = landingpad { ptr, i32 }
          cleanup
  call void @_ZNSaIcED2Ev(ptr noundef nonnull align 1 dereferenceable(1) %ref.tmp) #17
  br label %cleanup.action

invoke.cont:                                      ; preds = %.noexc
  store ptr getelementptr inbounds ({ [6 x ptr] }, ptr @_ZTV17default_exception, i64 0, inrange i32 0, i64 2), ptr %exception, align 8
  %m_msg.i = getelementptr inbounds %class.default_exception, ptr %exception, i64 0, i32 1
  call void @_ZNSt7__cxx1112basic_stringIcSt11char_traitsIcESaIcEEC1EOS4_(ptr noundef nonnull align 8 dereferenceable(32) %m_msg.i, ptr noundef nonnull align 8 dereferenceable(32) %ref.tmp) #17
  invoke void @__cxa_throw(ptr nonnull %exception, ptr nonnull @_ZTI17default_exception, ptr nonnull @_ZN17default_exceptionD2Ev) #20
          to label %unreachable unwind label %ehcleanup

lpad:                                             ; preds = %call.i.noexc, %entry
  %1 = landingpad { ptr, i32 }
          cleanup
  br label %cleanup.action

ehcleanup:                                        ; preds = %invoke.cont
  %2 = landingpad { ptr, i32 }
          cleanup
  call void @_ZNSt7__cxx1112basic_stringIcSt11char_traitsIcESaIcEED1Ev(ptr noundef nonnull align 8 dereferenceable(32) %ref.tmp) #17
  call void @_ZNSaIcED1Ev(ptr noundef nonnull align 1 dereferenceable(1) %ref.tmp2) #17
  br label %eh.resume

cleanup.action:                                   ; preds = %lpad.i, %lpad
  %.pn.ph = phi { ptr, i32 } [ %0, %lpad.i ], [ %1, %lpad ]
  call void @_ZNSaIcED1Ev(ptr noundef nonnull align 1 dereferenceable(1) %ref.tmp2) #17
  call void @__cxa_free_exception(ptr %exception) #17
  br label %eh.resume

eh.resume:                                        ; preds = %ehcleanup, %cleanup.action
  %.pn5 = phi { ptr, i32 } [ %2, %ehcleanup ], [ %.pn.ph, %cleanup.action ]
  resume { ptr, i32 } %.pn5

unreachable:                                      ; preds = %invoke.cont
  unreachable
}

; Function Attrs: mustprogress uwtable
define linkonce_odr hidden void @_ZN15user_propagator4core30user_propagate_register_decideERSt8functionIFvPvPNS_8callbackEP4exprjbEE(ptr noundef nonnull align 8 dereferenceable(8) %this, ptr noundef nonnull align 1 %r) unnamed_addr #3 comdat align 2 personality ptr @__gxx_personality_v0 {
entry:
  %ref.tmp = alloca %"class.std::__cxx11::basic_string", align 8
  %ref.tmp2 = alloca %"class.std::allocator", align 1
  %exception = tail call ptr @__cxa_allocate_exception(i64 40) #17
  call void @_ZNSaIcEC1Ev(ptr noundef nonnull align 1 dereferenceable(1) %ref.tmp2) #17
  %call.i2 = invoke noundef ptr @_ZNSt7__cxx1112basic_stringIcSt11char_traitsIcESaIcEE13_M_local_dataEv(ptr noundef nonnull align 8 dereferenceable(32) %ref.tmp)
          to label %call.i.noexc unwind label %lpad

call.i.noexc:                                     ; preds = %entry
  invoke void @_ZNSt7__cxx1112basic_stringIcSt11char_traitsIcESaIcEE12_Alloc_hiderC1EPcRKS3_(ptr noundef nonnull align 8 dereferenceable(8) %ref.tmp, ptr noundef %call.i2, ptr noundef nonnull align 1 dereferenceable(1) %ref.tmp2)
          to label %.noexc unwind label %lpad

.noexc:                                           ; preds = %call.i.noexc
  invoke void @_ZNSt7__cxx1112basic_stringIcSt11char_traitsIcESaIcEE12_M_constructIPKcEEvT_S8_St20forward_iterator_tag(ptr noundef nonnull align 8 dereferenceable(32) %ref.tmp, ptr noundef nonnull @.str, ptr noundef nonnull getelementptr inbounds ([54 x i8], ptr @.str, i64 0, i64 53))
          to label %invoke.cont unwind label %lpad.i

lpad.i:                                           ; preds = %.noexc
  %0 = landingpad { ptr, i32 }
          cleanup
  call void @_ZNSaIcED2Ev(ptr noundef nonnull align 1 dereferenceable(1) %ref.tmp) #17
  br label %cleanup.action

invoke.cont:                                      ; preds = %.noexc
  store ptr getelementptr inbounds ({ [6 x ptr] }, ptr @_ZTV17default_exception, i64 0, inrange i32 0, i64 2), ptr %exception, align 8
  %m_msg.i = getelementptr inbounds %class.default_exception, ptr %exception, i64 0, i32 1
  call void @_ZNSt7__cxx1112basic_stringIcSt11char_traitsIcESaIcEEC1EOS4_(ptr noundef nonnull align 8 dereferenceable(32) %m_msg.i, ptr noundef nonnull align 8 dereferenceable(32) %ref.tmp) #17
  invoke void @__cxa_throw(ptr nonnull %exception, ptr nonnull @_ZTI17default_exception, ptr nonnull @_ZN17default_exceptionD2Ev) #20
          to label %unreachable unwind label %ehcleanup

lpad:                                             ; preds = %call.i.noexc, %entry
  %1 = landingpad { ptr, i32 }
          cleanup
  br label %cleanup.action

ehcleanup:                                        ; preds = %invoke.cont
  %2 = landingpad { ptr, i32 }
          cleanup
  call void @_ZNSt7__cxx1112basic_stringIcSt11char_traitsIcESaIcEED1Ev(ptr noundef nonnull align 8 dereferenceable(32) %ref.tmp) #17
  call void @_ZNSaIcED1Ev(ptr noundef nonnull align 1 dereferenceable(1) %ref.tmp2) #17
  br label %eh.resume

cleanup.action:                                   ; preds = %lpad.i, %lpad
  %.pn.ph = phi { ptr, i32 } [ %0, %lpad.i ], [ %1, %lpad ]
  call void @_ZNSaIcED1Ev(ptr noundef nonnull align 1 dereferenceable(1) %ref.tmp2) #17
  call void @__cxa_free_exception(ptr %exception) #17
  br label %eh.resume

eh.resume:                                        ; preds = %ehcleanup, %cleanup.action
  %.pn5 = phi { ptr, i32 } [ %2, %ehcleanup ], [ %.pn.ph, %cleanup.action ]
  resume { ptr, i32 } %.pn5

unreachable:                                      ; preds = %invoke.cont
  unreachable
}

; Function Attrs: mustprogress nounwind uwtable
define linkonce_odr hidden void @_ZN15user_propagator4core20user_propagate_clearEv(ptr noundef nonnull align 8 dereferenceable(8) %this) unnamed_addr #4 comdat align 2 {
entry:
  ret void
}

; Function Attrs: mustprogress uwtable
define linkonce_odr hidden void @_ZN6tactic18register_on_clauseEPvRSt8functionIFvS0_P4exprjPKjjPKS3_EE(ptr noundef nonnull align 8 dereferenceable(12) %this, ptr noundef %ctx, ptr noundef nonnull align 1 %on_clause) unnamed_addr #3 comdat align 2 personality ptr @__gxx_personality_v0 {
entry:
  %ref.tmp = alloca %"class.std::__cxx11::basic_string", align 8
  %ref.tmp2 = alloca %"class.std::allocator", align 1
  %exception = tail call ptr @__cxa_allocate_exception(i64 40) #17
  call void @_ZNSaIcEC1Ev(ptr noundef nonnull align 1 dereferenceable(1) %ref.tmp2) #17
  %call.i2 = invoke noundef ptr @_ZNSt7__cxx1112basic_stringIcSt11char_traitsIcESaIcEE13_M_local_dataEv(ptr noundef nonnull align 8 dereferenceable(32) %ref.tmp)
          to label %call.i.noexc unwind label %lpad

call.i.noexc:                                     ; preds = %entry
  invoke void @_ZNSt7__cxx1112basic_stringIcSt11char_traitsIcESaIcEE12_Alloc_hiderC1EPcRKS3_(ptr noundef nonnull align 8 dereferenceable(8) %ref.tmp, ptr noundef %call.i2, ptr noundef nonnull align 1 dereferenceable(1) %ref.tmp2)
          to label %.noexc unwind label %lpad

.noexc:                                           ; preds = %call.i.noexc
  invoke void @_ZNSt7__cxx1112basic_stringIcSt11char_traitsIcESaIcEE12_M_constructIPKcEEvT_S8_St20forward_iterator_tag(ptr noundef nonnull align 8 dereferenceable(32) %ref.tmp, ptr noundef nonnull @.str.4, ptr noundef nonnull getelementptr inbounds ([39 x i8], ptr @.str.4, i64 0, i64 38))
          to label %invoke.cont unwind label %lpad.i

lpad.i:                                           ; preds = %.noexc
  %0 = landingpad { ptr, i32 }
          cleanup
  call void @_ZNSaIcED2Ev(ptr noundef nonnull align 1 dereferenceable(1) %ref.tmp) #17
  br label %cleanup.action

invoke.cont:                                      ; preds = %.noexc
  store ptr getelementptr inbounds ({ [6 x ptr] }, ptr @_ZTV17default_exception, i64 0, inrange i32 0, i64 2), ptr %exception, align 8
  %m_msg.i = getelementptr inbounds %class.default_exception, ptr %exception, i64 0, i32 1
  call void @_ZNSt7__cxx1112basic_stringIcSt11char_traitsIcESaIcEEC1EOS4_(ptr noundef nonnull align 8 dereferenceable(32) %m_msg.i, ptr noundef nonnull align 8 dereferenceable(32) %ref.tmp) #17
  invoke void @__cxa_throw(ptr nonnull %exception, ptr nonnull @_ZTI17default_exception, ptr nonnull @_ZN17default_exceptionD2Ev) #20
          to label %unreachable unwind label %ehcleanup

lpad:                                             ; preds = %call.i.noexc, %entry
  %1 = landingpad { ptr, i32 }
          cleanup
  br label %cleanup.action

ehcleanup:                                        ; preds = %invoke.cont
  %2 = landingpad { ptr, i32 }
          cleanup
  call void @_ZNSt7__cxx1112basic_stringIcSt11char_traitsIcESaIcEED1Ev(ptr noundef nonnull align 8 dereferenceable(32) %ref.tmp) #17
  call void @_ZNSaIcED1Ev(ptr noundef nonnull align 1 dereferenceable(1) %ref.tmp2) #17
  br label %eh.resume

cleanup.action:                                   ; preds = %lpad.i, %lpad
  %.pn.ph = phi { ptr, i32 } [ %0, %lpad.i ], [ %1, %lpad ]
  call void @_ZNSaIcED1Ev(ptr noundef nonnull align 1 dereferenceable(1) %ref.tmp2) #17
  call void @__cxa_free_exception(ptr %exception) #17
  br label %eh.resume

eh.resume:                                        ; preds = %ehcleanup, %cleanup.action
  %.pn5 = phi { ptr, i32 } [ %2, %ehcleanup ], [ %.pn.ph, %cleanup.action ]
  resume { ptr, i32 } %.pn5

unreachable:                                      ; preds = %invoke.cont
  unreachable
}

; Function Attrs: mustprogress nounwind uwtable
define linkonce_odr hidden void @_ZN12eq2bv_tactic11updt_paramsERK10params_ref(ptr noundef nonnull align 8 dereferenceable(864) %this, ptr noundef nonnull align 8 dereferenceable(8) %p) unnamed_addr #4 comdat align 2 {
entry:
  ret void
}

; Function Attrs: mustprogress nounwind uwtable
define linkonce_odr hidden void @_ZN12eq2bv_tactic20collect_param_descrsER12param_descrs(ptr noundef nonnull align 8 dereferenceable(864) %this, ptr noundef nonnull align 8 dereferenceable(8) %r) unnamed_addr #4 comdat align 2 {
entry:
  ret void
}

; Function Attrs: mustprogress uwtable
define linkonce_odr hidden void @_ZN12eq2bv_tacticclERK3refI4goalER11sref_bufferIS1_Lj16EE(ptr noundef nonnull align 8 dereferenceable(864) %this, ptr noundef nonnull align 8 dereferenceable(8) %g, ptr noundef nonnull align 8 dereferenceable(144) %result) unnamed_addr #3 comdat align 2 personality ptr @__gxx_personality_v0 {
entry:
  %k.i478 = alloca i32, align 4
  %k.i = alloca i32, align 4
  %mc1 = alloca %class.ref, align 8
  %report = alloca %class.tactic_report, align 8
  %new_curr = alloca %class.obj_ref, align 8
  %new_pr = alloca %class.obj_ref.10, align 8
  %var = alloca %class.obj_ref.10, align 8
  %strict = alloca i8, align 1
  %v = alloca %class.rational, align 8
  %strict295 = alloca i8, align 1
  %r = alloca %class.rational, align 8
  %fml = alloca %class.obj_ref, align 8
  %m_trail = getelementptr inbounds %class.eq2bv_tactic, ptr %this, i64 0, i32 5
  %m_nodes.i = getelementptr inbounds %class.eq2bv_tactic, ptr %this, i64 0, i32 5, i32 0, i32 1
  %0 = load ptr, ptr %m_nodes.i, align 8
  %cmp.i.i = icmp eq ptr %0, null
  br i1 %cmp.i.i, label %_ZN15ref_vector_coreI4expr19ref_manager_wrapperIS0_11ast_managerEE5resetEv.exit, label %_ZNK6vectorIP4exprLb0EjE4sizeEv.exit.i

_ZNK6vectorIP4exprLb0EjE4sizeEv.exit.i:           ; preds = %entry
  %arrayidx.i.i = getelementptr inbounds i32, ptr %0, i64 -1
  %1 = load i32, ptr %arrayidx.i.i, align 4
  %2 = zext i32 %1 to i64
  %add.ptr.i = getelementptr inbounds ptr, ptr %0, i64 %2
  %cmp3.i.not.i = icmp eq i32 %1, 0
  br i1 %cmp3.i.not.i, label %if.then.i.i, label %for.body.i.i

for.body.i.i:                                     ; preds = %_ZNK6vectorIP4exprLb0EjE4sizeEv.exit.i, %_ZN15ref_vector_coreI4expr19ref_manager_wrapperIS0_11ast_managerEE7dec_refEPS0_.exit.i.i
  %it.04.i.i = phi ptr [ %incdec.ptr.i.i, %_ZN15ref_vector_coreI4expr19ref_manager_wrapperIS0_11ast_managerEE7dec_refEPS0_.exit.i.i ], [ %0, %_ZNK6vectorIP4exprLb0EjE4sizeEv.exit.i ]
  %3 = load ptr, ptr %it.04.i.i, align 8
  %4 = load ptr, ptr %m_trail, align 8
  %tobool.not.i.i.i.i.i = icmp eq ptr %3, null
  br i1 %tobool.not.i.i.i.i.i, label %_ZN15ref_vector_coreI4expr19ref_manager_wrapperIS0_11ast_managerEE7dec_refEPS0_.exit.i.i, label %if.then.i.i.i.i.i

if.then.i.i.i.i.i:                                ; preds = %for.body.i.i
  %m_ref_count.i.i.i.i.i.i = getelementptr inbounds %class.ast, ptr %3, i64 0, i32 2
  %5 = load i32, ptr %m_ref_count.i.i.i.i.i.i, align 4
  %dec.i.i.i.i.i.i = add i32 %5, -1
  store i32 %dec.i.i.i.i.i.i, ptr %m_ref_count.i.i.i.i.i.i, align 4
  %cmp.i.i.i.i.i = icmp eq i32 %dec.i.i.i.i.i.i, 0
  br i1 %cmp.i.i.i.i.i, label %if.then2.i.i.i.i.i, label %_ZN15ref_vector_coreI4expr19ref_manager_wrapperIS0_11ast_managerEE7dec_refEPS0_.exit.i.i

if.then2.i.i.i.i.i:                               ; preds = %if.then.i.i.i.i.i
  tail call void @_ZN11ast_manager11delete_nodeEP3ast(ptr noundef nonnull align 8 dereferenceable(976) %4, ptr noundef nonnull %3)
  br label %_ZN15ref_vector_coreI4expr19ref_manager_wrapperIS0_11ast_managerEE7dec_refEPS0_.exit.i.i

_ZN15ref_vector_coreI4expr19ref_manager_wrapperIS0_11ast_managerEE7dec_refEPS0_.exit.i.i: ; preds = %if.then2.i.i.i.i.i, %if.then.i.i.i.i.i, %for.body.i.i
  %incdec.ptr.i.i = getelementptr inbounds ptr, ptr %it.04.i.i, i64 1
  %cmp.i1.i = icmp ult ptr %incdec.ptr.i.i, %add.ptr.i
  br i1 %cmp.i1.i, label %for.body.i.i, label %_ZN15ref_vector_coreI4expr19ref_manager_wrapperIS0_11ast_managerEE13dec_range_refEPKPS0_S7_.exit.i, !llvm.loop !6

_ZN15ref_vector_coreI4expr19ref_manager_wrapperIS0_11ast_managerEE13dec_range_refEPKPS0_S7_.exit.i: ; preds = %_ZN15ref_vector_coreI4expr19ref_manager_wrapperIS0_11ast_managerEE7dec_refEPS0_.exit.i.i
  %.pre.i = load ptr, ptr %m_nodes.i, align 8
  %tobool.not.i.i = icmp eq ptr %.pre.i, null
  br i1 %tobool.not.i.i, label %_ZN15ref_vector_coreI4expr19ref_manager_wrapperIS0_11ast_managerEE5resetEv.exit, label %if.then.i.i

if.then.i.i:                                      ; preds = %_ZN15ref_vector_coreI4expr19ref_manager_wrapperIS0_11ast_managerEE13dec_range_refEPKPS0_S7_.exit.i, %_ZNK6vectorIP4exprLb0EjE4sizeEv.exit.i
  %6 = phi ptr [ %.pre.i, %_ZN15ref_vector_coreI4expr19ref_manager_wrapperIS0_11ast_managerEE13dec_range_refEPKPS0_S7_.exit.i ], [ %0, %_ZNK6vectorIP4exprLb0EjE4sizeEv.exit.i ]
  %arrayidx.i2.i = getelementptr inbounds i32, ptr %6, i64 -1
  store i32 0, ptr %arrayidx.i2.i, align 4
  br label %_ZN15ref_vector_coreI4expr19ref_manager_wrapperIS0_11ast_managerEE5resetEv.exit

_ZN15ref_vector_coreI4expr19ref_manager_wrapperIS0_11ast_managerEE5resetEv.exit: ; preds = %entry, %_ZN15ref_vector_coreI4expr19ref_manager_wrapperIS0_11ast_managerEE13dec_range_refEPKPS0_S7_.exit.i, %if.then.i.i
  %m_fd = getelementptr inbounds %class.eq2bv_tactic, ptr %this, i64 0, i32 7
  %m_size.i.i = getelementptr inbounds %class.eq2bv_tactic, ptr %this, i64 0, i32 7, i32 0, i32 2
  %7 = load i32, ptr %m_size.i.i, align 4
  %cmp.i.i67 = icmp eq i32 %7, 0
  %m_num_deleted.i.i = getelementptr inbounds %class.eq2bv_tactic, ptr %this, i64 0, i32 7, i32 0, i32 3
  %8 = load i32, ptr %m_num_deleted.i.i, align 8
  %cmp2.i.i = icmp eq i32 %8, 0
  %or.cond.i.i = select i1 %cmp.i.i67, i1 %cmp2.i.i, i1 false
  br i1 %or.cond.i.i, label %_ZN7obj_mapI4exprPS0_E5resetEv.exit, label %if.end.i.i

if.end.i.i:                                       ; preds = %_ZN15ref_vector_coreI4expr19ref_manager_wrapperIS0_11ast_managerEE5resetEv.exit
  %9 = load ptr, ptr %m_fd, align 8
  %m_capacity.i.i = getelementptr inbounds %class.eq2bv_tactic, ptr %this, i64 0, i32 7, i32 0, i32 1
  %10 = load i32, ptr %m_capacity.i.i, align 8
  %idx.ext.i.i = zext i32 %10 to i64
  %add.ptr.i.i = getelementptr inbounds %"class.obj_map<expr, expr *>::obj_map_entry", ptr %9, i64 %idx.ext.i.i
  %cmp4.not5.i.i = icmp eq i32 %10, 0
  br i1 %cmp4.not5.i.i, label %if.end18.i.i, label %for.body.i.i68

for.body.i.i68:                                   ; preds = %if.end.i.i, %for.inc.i.i
  %overhead.07.i.i = phi i32 [ %overhead.1.i.i, %for.inc.i.i ], [ 0, %if.end.i.i ]
  %curr.06.i.i = phi ptr [ %incdec.ptr.i.i69, %for.inc.i.i ], [ %9, %if.end.i.i ]
  %11 = load ptr, ptr %curr.06.i.i, align 8
  %cmp.i.i.i = icmp eq ptr %11, null
  br i1 %cmp.i.i.i, label %if.else.i.i, label %if.then5.i.i

if.then5.i.i:                                     ; preds = %for.body.i.i68
  store ptr null, ptr %curr.06.i.i, align 8
  br label %for.inc.i.i

if.else.i.i:                                      ; preds = %for.body.i.i68
  %inc.i.i = add i32 %overhead.07.i.i, 1
  br label %for.inc.i.i

for.inc.i.i:                                      ; preds = %if.else.i.i, %if.then5.i.i
  %overhead.1.i.i = phi i32 [ %inc.i.i, %if.else.i.i ], [ %overhead.07.i.i, %if.then5.i.i ]
  %incdec.ptr.i.i69 = getelementptr inbounds %"class.obj_map<expr, expr *>::obj_map_entry", ptr %curr.06.i.i, i64 1
  %cmp4.not.i.i = icmp eq ptr %incdec.ptr.i.i69, %add.ptr.i.i
  br i1 %cmp4.not.i.i, label %for.end.i.i, label %for.body.i.i68, !llvm.loop !8

for.end.i.i:                                      ; preds = %for.inc.i.i
  %.pre.i.i = load i32, ptr %m_capacity.i.i, align 8
  %12 = shl i32 %overhead.1.i.i, 2
  %cmp8.i.i = icmp ugt i32 %.pre.i.i, 16
  %mul.i.i = mul i32 %.pre.i.i, 3
  %cmp11.i.i = icmp ugt i32 %12, %mul.i.i
  %or.cond11.i.i = select i1 %cmp8.i.i, i1 %cmp11.i.i, i1 false
  br i1 %or.cond11.i.i, label %if.then12.i.i, label %if.end18.i.i

if.then12.i.i:                                    ; preds = %for.end.i.i
  %13 = load ptr, ptr %m_fd, align 8
  %cmp.i.i.i.i = icmp eq ptr %13, null
  br i1 %cmp.i.i.i.i, label %_ZN14core_hashtableIN7obj_mapI4exprPS1_E13obj_map_entryE8obj_hashINS3_8key_dataEE10default_eqIS6_EE12delete_tableEv.exit.i.i, label %for.cond.preheader.i.i.i.i

for.cond.preheader.i.i.i.i:                       ; preds = %if.then12.i.i
  tail call void @_ZN6memory10deallocateEPv(ptr noundef nonnull %13)
  %.pre8.i.i = load i32, ptr %m_capacity.i.i, align 8
  br label %_ZN14core_hashtableIN7obj_mapI4exprPS1_E13obj_map_entryE8obj_hashINS3_8key_dataEE10default_eqIS6_EE12delete_tableEv.exit.i.i

_ZN14core_hashtableIN7obj_mapI4exprPS1_E13obj_map_entryE8obj_hashINS3_8key_dataEE10default_eqIS6_EE12delete_tableEv.exit.i.i: ; preds = %for.cond.preheader.i.i.i.i, %if.then12.i.i
  %14 = phi i32 [ %.pre.i.i, %if.then12.i.i ], [ %.pre8.i.i, %for.cond.preheader.i.i.i.i ]
  store ptr null, ptr %m_fd, align 8
  %shr.i.i = lshr i32 %14, 1
  store i32 %shr.i.i, ptr %m_capacity.i.i, align 8
  %conv.i.i.i.i = zext nneg i32 %shr.i.i to i64
  %mul.i.i.i.i = shl nuw nsw i64 %conv.i.i.i.i, 4
  %call.i.i.i.i = tail call noalias noundef ptr @_ZN6memory8allocateEm(i64 noundef %mul.i.i.i.i)
  %cmp5.not.i.i.i.i = icmp ult i32 %14, 2
  br i1 %cmp5.not.i.i.i.i, label %_ZN14core_hashtableIN7obj_mapI4exprPS1_E13obj_map_entryE8obj_hashINS3_8key_dataEE10default_eqIS6_EE11alloc_tableEj.exit.i.i, label %for.body.i.preheader.i.i.i

for.body.i.preheader.i.i.i:                       ; preds = %_ZN14core_hashtableIN7obj_mapI4exprPS1_E13obj_map_entryE8obj_hashINS3_8key_dataEE10default_eqIS6_EE12delete_tableEv.exit.i.i
  tail call void @llvm.memset.p0.i64(ptr align 8 %call.i.i.i.i, i8 0, i64 %mul.i.i.i.i, i1 false)
  br label %_ZN14core_hashtableIN7obj_mapI4exprPS1_E13obj_map_entryE8obj_hashINS3_8key_dataEE10default_eqIS6_EE11alloc_tableEj.exit.i.i

_ZN14core_hashtableIN7obj_mapI4exprPS1_E13obj_map_entryE8obj_hashINS3_8key_dataEE10default_eqIS6_EE11alloc_tableEj.exit.i.i: ; preds = %for.body.i.preheader.i.i.i, %_ZN14core_hashtableIN7obj_mapI4exprPS1_E13obj_map_entryE8obj_hashINS3_8key_dataEE10default_eqIS6_EE12delete_tableEv.exit.i.i
  store ptr %call.i.i.i.i, ptr %m_fd, align 8
  br label %if.end18.i.i

if.end18.i.i:                                     ; preds = %_ZN14core_hashtableIN7obj_mapI4exprPS1_E13obj_map_entryE8obj_hashINS3_8key_dataEE10default_eqIS6_EE11alloc_tableEj.exit.i.i, %for.end.i.i, %if.end.i.i
  store i32 0, ptr %m_size.i.i, align 4
  store i32 0, ptr %m_num_deleted.i.i, align 8
  br label %_ZN7obj_mapI4exprPS0_E5resetEv.exit

_ZN7obj_mapI4exprPS0_E5resetEv.exit:              ; preds = %_ZN15ref_vector_coreI4expr19ref_manager_wrapperIS0_11ast_managerEE5resetEv.exit, %if.end18.i.i
  %m_max = getelementptr inbounds %class.eq2bv_tactic, ptr %this, i64 0, i32 8
  tail call void @_ZN14core_hashtableIN7obj_mapI4expr8rationalE13obj_map_entryE8obj_hashINS3_8key_dataEE10default_eqIS6_EE5resetEv(ptr noundef nonnull align 8 dereferenceable(20) %m_max)
  %m_data.i.i = getelementptr inbounds %class.eq2bv_tactic, ptr %this, i64 0, i32 9, i32 1, i32 2
  %15 = load ptr, ptr %m_data.i.i, align 8
  %tobool.not.i.i70 = icmp eq ptr %15, null
  br i1 %tobool.not.i.i70, label %_ZN8obj_markI4expr10bit_vector14default_t2uintIS0_EE5resetEv.exit, label %if.then.i.i71

if.then.i.i71:                                    ; preds = %_ZN7obj_mapI4exprPS0_E5resetEv.exit
  %m_capacity.i.i72 = getelementptr inbounds %class.eq2bv_tactic, ptr %this, i64 0, i32 9, i32 1, i32 1
  %16 = load i32, ptr %m_capacity.i.i72, align 4
  %conv.i.i = zext i32 %16 to i64
  %mul.i.i73 = shl nuw nsw i64 %conv.i.i, 2
  tail call void @llvm.memset.p0.i64(ptr nonnull align 4 %15, i8 0, i64 %mul.i.i73, i1 false)
  br label %_ZN8obj_markI4expr10bit_vector14default_t2uintIS0_EE5resetEv.exit

_ZN8obj_markI4expr10bit_vector14default_t2uintIS0_EE5resetEv.exit: ; preds = %_ZN7obj_mapI4exprPS0_E5resetEv.exit, %if.then.i.i71
  %m_marks.i = getelementptr inbounds %class.eq2bv_tactic, ptr %this, i64 0, i32 9, i32 1
  store i32 0, ptr %m_marks.i, align 8
  %m_data.i.i74 = getelementptr inbounds %class.eq2bv_tactic, ptr %this, i64 0, i32 10, i32 1, i32 2
  %17 = load ptr, ptr %m_data.i.i74, align 8
  %tobool.not.i.i75 = icmp eq ptr %17, null
  br i1 %tobool.not.i.i75, label %_ZN3refIN12eq2bv_tactic4bvmcEEC2EPS1_.exit, label %if.then.i.i76

if.then.i.i76:                                    ; preds = %_ZN8obj_markI4expr10bit_vector14default_t2uintIS0_EE5resetEv.exit
  %m_capacity.i.i77 = getelementptr inbounds %class.eq2bv_tactic, ptr %this, i64 0, i32 10, i32 1, i32 1
  %18 = load i32, ptr %m_capacity.i.i77, align 4
  %conv.i.i78 = zext i32 %18 to i64
  %mul.i.i79 = shl nuw nsw i64 %conv.i.i78, 2
  tail call void @llvm.memset.p0.i64(ptr nonnull align 4 %17, i8 0, i64 %mul.i.i79, i1 false)
  br label %_ZN3refIN12eq2bv_tactic4bvmcEEC2EPS1_.exit

_ZN3refIN12eq2bv_tactic4bvmcEEC2EPS1_.exit:       ; preds = %_ZN8obj_markI4expr10bit_vector14default_t2uintIS0_EE5resetEv.exit, %if.then.i.i76
  %m_marks.i80 = getelementptr inbounds %class.eq2bv_tactic, ptr %this, i64 0, i32 10, i32 1
  store i32 0, ptr %m_marks.i80, align 8
  %m_bounds = getelementptr inbounds %class.eq2bv_tactic, ptr %this, i64 0, i32 6
  tail call void @_ZN13bound_manager5resetEv(ptr noundef nonnull align 8 dereferenceable(128) %m_bounds)
  %call = tail call noalias noundef ptr @_ZN6memory8allocateEm(i64 noundef 80)
  %m = getelementptr inbounds %class.eq2bv_tactic, ptr %this, i64 0, i32 1
  %19 = load ptr, ptr %m, align 8
  %m_ref_count.i.i.i = getelementptr inbounds %class.converter, ptr %call, i64 0, i32 1
  store i32 0, ptr %m_ref_count.i.i.i, align 8
  %m_env.i.i = getelementptr inbounds %class.model_converter, ptr %call, i64 0, i32 2
  store ptr null, ptr %m_env.i.i, align 8
  %m_completion.i.i = getelementptr inbounds %class.model_converter, ptr %call, i64 0, i32 3
  store i8 1, ptr %m_completion.i.i, align 8
  store ptr getelementptr inbounds ({ [12 x ptr] }, ptr @_ZTVN12eq2bv_tactic4bvmcE, i64 0, inrange i32 0, i64 2), ptr %call, align 8
  %m_map.i = getelementptr inbounds %"class.eq2bv_tactic::bvmc", ptr %call, i64 0, i32 2
  %call.i.i.i.i2.i = tail call noalias noundef ptr @_ZN6memory8allocateEm(i64 noundef 128)
  tail call void @llvm.memset.p0.i64(ptr noundef nonnull align 8 dereferenceable(128) %call.i.i.i.i2.i, i8 0, i64 128, i1 false)
  store ptr %call.i.i.i.i2.i, ptr %m_map.i, align 8
  %m_capacity.i.i.i = getelementptr inbounds %"class.eq2bv_tactic::bvmc", ptr %call, i64 0, i32 2, i32 0, i32 1
  store i32 8, ptr %m_capacity.i.i.i, align 8
  %m_size.i.i.i = getelementptr inbounds %"class.eq2bv_tactic::bvmc", ptr %call, i64 0, i32 2, i32 0, i32 2
  store i32 0, ptr %m_size.i.i.i, align 4
  %m_num_deleted.i.i.i = getelementptr inbounds %"class.eq2bv_tactic::bvmc", ptr %call, i64 0, i32 2, i32 0, i32 3
  store i32 0, ptr %m_num_deleted.i.i.i, align 8
  %m_vars.i = getelementptr inbounds %"class.eq2bv_tactic::bvmc", ptr %call, i64 0, i32 3
  store ptr %19, ptr %m_vars.i, align 8
  %m_nodes.i.i.i = getelementptr inbounds %"class.eq2bv_tactic::bvmc", ptr %call, i64 0, i32 3, i32 0, i32 1
  tail call void @llvm.memset.p0.i64(ptr noundef nonnull align 8 dereferenceable(16) %m_nodes.i.i.i, i8 0, i64 16, i1 false)
  store ptr %call, ptr %mc1, align 8
  %20 = load i32, ptr %m_ref_count.i.i.i, align 8
  %inc.i.i.i = add i32 %20, 1
  store i32 %inc.i.i.i, ptr %m_ref_count.i.i.i, align 8
  %21 = load ptr, ptr %g, align 8
  invoke void @_ZN13tactic_reportC1EPKcRK4goal(ptr noundef nonnull align 8 dereferenceable(8) %report, ptr noundef nonnull @.str.5, ptr noundef nonnull align 8 dereferenceable(124) %21)
          to label %for.cond unwind label %lpad

for.cond:                                         ; preds = %_ZN3refIN12eq2bv_tactic4bvmcEEC2EPS1_.exit, %for.inc
  %indvars.iv = phi i64 [ %indvars.iv.next, %for.inc ], [ 0, %_ZN3refIN12eq2bv_tactic4bvmcEEC2EPS1_.exit ]
  %22 = load ptr, ptr %g, align 8
  %m_forms.i = getelementptr inbounds %class.goal, ptr %22, i64 0, i32 7
  %23 = load ptr, ptr %m_forms.i, align 8
  %cmp.i.i.i85 = icmp eq ptr %23, null
  br i1 %cmp.i.i.i85, label %invoke.cont7, label %while.body.i.i.i

while.body.i.i.i:                                 ; preds = %for.cond, %sw.bb.i.i.i
  %c.0.i.i.i = phi ptr [ %25, %sw.bb.i.i.i ], [ %23, %for.cond ]
  %bf.load.i.i.i.i = load i32, ptr %c.0.i.i.i, align 8
  %bf.lshr.i.i.i.i = lshr i32 %bf.load.i.i.i.i, 30
  switch i32 %bf.lshr.i.i.i.i, label %while.body.unreachabledefault.i.i.i [
    i32 0, label %sw.bb.i.i.i
    i32 1, label %sw.bb3.i.i.i
    i32 2, label %sw.bb5.i.i.i
    i32 3, label %sw.bb7.i.i.i
  ]

sw.bb.i.i.i:                                      ; preds = %while.body.i.i.i
  %24 = getelementptr inbounds %"struct.parray_manager<ast_manager::expr_array_config>::cell", ptr %c.0.i.i.i, i64 0, i32 3
  %25 = load ptr, ptr %24, align 8
  br label %while.body.i.i.i, !llvm.loop !9

sw.bb3.i.i.i:                                     ; preds = %while.body.i.i.i
  %26 = getelementptr inbounds %"struct.parray_manager<ast_manager::expr_array_config>::cell", ptr %c.0.i.i.i, i64 0, i32 1
  %27 = load i32, ptr %26, align 4
  %add.i.i.i = add i32 %27, 1
  br label %invoke.cont7

sw.bb5.i.i.i:                                     ; preds = %while.body.i.i.i
  %28 = getelementptr inbounds %"struct.parray_manager<ast_manager::expr_array_config>::cell", ptr %c.0.i.i.i, i64 0, i32 1
  %29 = load i32, ptr %28, align 4
  %sub.i.i.i = add i32 %29, -1
  br label %invoke.cont7

sw.bb7.i.i.i:                                     ; preds = %while.body.i.i.i
  %30 = getelementptr inbounds %"struct.parray_manager<ast_manager::expr_array_config>::cell", ptr %c.0.i.i.i, i64 0, i32 1
  %31 = load i32, ptr %30, align 4
  br label %invoke.cont7

while.body.unreachabledefault.i.i.i:              ; preds = %while.body.i.i.i
  unreachable

invoke.cont7:                                     ; preds = %sw.bb7.i.i.i, %sw.bb5.i.i.i, %sw.bb3.i.i.i, %for.cond
  %retval.0.i.i.i = phi i32 [ %31, %sw.bb7.i.i.i ], [ %sub.i.i.i, %sw.bb5.i.i.i ], [ %add.i.i.i, %sw.bb3.i.i.i ], [ 0, %for.cond ]
  %32 = zext i32 %retval.0.i.i.i to i64
  %cmp = icmp ult i64 %indvars.iv, %32
  br i1 %cmp, label %for.body, label %for.end

for.body:                                         ; preds = %invoke.cont7
  %m_inconsistent.i.i = getelementptr inbounds %class.goal, ptr %22, i64 0, i32 10
  %bf.load.i.i = load i32, ptr %m_inconsistent.i.i, align 8
  %33 = and i32 %bf.load.i.i, 536870912
  %tobool.i.not.i = icmp eq i32 %33, 0
  %34 = load ptr, ptr %22, align 8
  br i1 %tobool.i.not.i, label %cond.false.i, label %cond.true.i

cond.true.i:                                      ; preds = %for.body
  %m_false.i.i = getelementptr inbounds %class.ast_manager, ptr %34, i64 0, i32 16
  br label %invoke.cont12

cond.false.i:                                     ; preds = %for.body
  %m_expr_array_manager.i.i = getelementptr inbounds %class.ast_manager, ptr %34, i64 0, i32 3
  br label %if.end.i.i.i

if.then.i.i.i:                                    ; preds = %sw.epilog.i.i.i
  invoke void @_ZN14parray_managerIN11ast_manager17expr_array_configEE6rerootERNS2_3refE(ptr noundef nonnull align 8 dereferenceable(32) %m_expr_array_manager.i.i, ptr noundef nonnull align 8 dereferenceable(12) %m_forms.i)
          to label %.noexc unwind label %lpad4.loopexit.split-lp.loopexit

.noexc:                                           ; preds = %if.then.i.i.i
  %35 = load ptr, ptr %m_forms.i, align 8
  %36 = getelementptr inbounds %"struct.parray_manager<ast_manager::expr_array_config>::cell", ptr %35, i64 0, i32 3
  %37 = load ptr, ptr %36, align 8
  %arrayidx.i.i.i = getelementptr inbounds ptr, ptr %37, i64 %indvars.iv
  %.pre1450 = load ptr, ptr %g, align 8
  %m_core_enabled.i.i.phi.trans.insert = getelementptr inbounds %class.goal, ptr %.pre1450, i64 0, i32 10
  %bf.load.i.i90.pre = load i32, ptr %m_core_enabled.i.i.phi.trans.insert, align 8
  br label %invoke.cont12

if.end.i.i.i:                                     ; preds = %sw.epilog.i.i.i, %cond.false.i
  %c.017.in.i.i.i = phi ptr [ %m_forms.i, %cond.false.i ], [ %c.1.in.i.i.i, %sw.epilog.i.i.i ]
  %trail_sz.016.i.i.i = phi i32 [ 0, %cond.false.i ], [ %trail_sz.1.i.i.i, %sw.epilog.i.i.i ]
  %c.017.i.i.i = load ptr, ptr %c.017.in.i.i.i, align 8
  %bf.load.i.i.i.i87 = load i32, ptr %c.017.i.i.i, align 8
  %bf.lshr.i.i.i.i88 = lshr i32 %bf.load.i.i.i.i87, 30
  switch i32 %bf.lshr.i.i.i.i88, label %if.end.unreachabledefault.i.i.i [
    i32 0, label %sw.bb.i.i.i89
    i32 1, label %sw.bb.i.i.i89
    i32 2, label %sw.epilog.i.i.i
    i32 3, label %sw.bb12.i.i.i
  ]

sw.bb.i.i.i89:                                    ; preds = %if.end.i.i.i, %if.end.i.i.i
  %38 = getelementptr inbounds %"struct.parray_manager<ast_manager::expr_array_config>::cell", ptr %c.017.i.i.i, i64 0, i32 1
  %39 = load i32, ptr %38, align 4
  %40 = zext i32 %39 to i64
  %cmp4.i.i.i = icmp eq i64 %indvars.iv, %40
  br i1 %cmp4.i.i.i, label %if.then5.i.i.i, label %sw.epilog.i.i.i

if.then5.i.i.i:                                   ; preds = %sw.bb.i.i.i89
  %m_elem.i.i.i.i = getelementptr inbounds %"struct.parray_manager<ast_manager::expr_array_config>::cell", ptr %c.017.i.i.i, i64 0, i32 2
  br label %invoke.cont12

sw.bb12.i.i.i:                                    ; preds = %if.end.i.i.i
  %41 = getelementptr inbounds %"struct.parray_manager<ast_manager::expr_array_config>::cell", ptr %c.017.i.i.i, i64 0, i32 3
  %42 = load ptr, ptr %41, align 8
  %arrayidx14.i.i.i = getelementptr inbounds ptr, ptr %42, i64 %indvars.iv
  br label %invoke.cont12

if.end.unreachabledefault.i.i.i:                  ; preds = %if.end.i.i.i
  unreachable

sw.epilog.i.i.i:                                  ; preds = %sw.bb.i.i.i89, %if.end.i.i.i
  %c.1.in.i.i.i = getelementptr inbounds %"struct.parray_manager<ast_manager::expr_array_config>::cell", ptr %c.017.i.i.i, i64 0, i32 3
  %trail_sz.1.i.i.i = add nuw nsw i32 %trail_sz.016.i.i.i, 1
  %exitcond.i.i.i = icmp eq i32 %trail_sz.1.i.i.i, 17
  br i1 %exitcond.i.i.i, label %if.then.i.i.i, label %if.end.i.i.i, !llvm.loop !10

invoke.cont12:                                    ; preds = %sw.bb12.i.i.i, %if.then5.i.i.i, %.noexc, %cond.true.i
  %bf.load.i.i90 = phi i32 [ %bf.load.i.i, %cond.true.i ], [ %bf.load.i.i90.pre, %.noexc ], [ %bf.load.i.i, %sw.bb12.i.i.i ], [ %bf.load.i.i, %if.then5.i.i.i ]
  %43 = phi ptr [ %22, %cond.true.i ], [ %.pre1450, %.noexc ], [ %22, %sw.bb12.i.i.i ], [ %22, %if.then5.i.i.i ]
  %cond.in.i = phi ptr [ %m_false.i.i, %cond.true.i ], [ %arrayidx.i.i.i, %.noexc ], [ %arrayidx14.i.i.i, %sw.bb12.i.i.i ], [ %m_elem.i.i.i.i, %if.then5.i.i.i ]
  %cond.i = load ptr, ptr %cond.in.i, align 8
  %44 = and i32 %bf.load.i.i90, 268435456
  %tobool.i.not.i91 = icmp eq i32 %44, 0
  br i1 %tobool.i.not.i91, label %invoke.cont16, label %cond.true.i92

cond.true.i92:                                    ; preds = %invoke.cont12
  %45 = load ptr, ptr %43, align 8
  %m_dependencies.i = getelementptr inbounds %class.goal, ptr %43, i64 0, i32 9
  %m_expr_dependency_array_manager.i.i = getelementptr inbounds %class.ast_manager, ptr %45, i64 0, i32 5
  br label %if.end.i.i.i93

if.then.i.i.i108:                                 ; preds = %sw.epilog.i.i.i104
  invoke void @_ZN14parray_managerIN11ast_manager28expr_dependency_array_configEE6rerootERNS2_3refE(ptr noundef nonnull align 8 dereferenceable(32) %m_expr_dependency_array_manager.i.i, ptr noundef nonnull align 8 dereferenceable(12) %m_dependencies.i)
          to label %.noexc116 unwind label %lpad4.loopexit.split-lp.loopexit

.noexc116:                                        ; preds = %if.then.i.i.i108
  %46 = load ptr, ptr %m_dependencies.i, align 8
  %47 = getelementptr inbounds %"struct.parray_manager<ast_manager::expr_dependency_array_config>::cell", ptr %46, i64 0, i32 3
  %48 = load ptr, ptr %47, align 8
  %arrayidx.i.i.i110 = getelementptr inbounds ptr, ptr %48, i64 %indvars.iv
  %.pre1452.pre = load ptr, ptr %g, align 8
  br label %_ZNK11ast_manager3getERKN14parray_managerINS_28expr_dependency_array_configEE3refEj.exit.i

if.end.i.i.i93:                                   ; preds = %sw.epilog.i.i.i104, %cond.true.i92
  %c.017.in.i.i.i94 = phi ptr [ %m_dependencies.i, %cond.true.i92 ], [ %c.1.in.i.i.i105, %sw.epilog.i.i.i104 ]
  %trail_sz.016.i.i.i95 = phi i32 [ 0, %cond.true.i92 ], [ %trail_sz.1.i.i.i106, %sw.epilog.i.i.i104 ]
  %c.017.i.i.i96 = load ptr, ptr %c.017.in.i.i.i94, align 8
  %bf.load.i.i.i.i97 = load i32, ptr %c.017.i.i.i96, align 8
  %bf.lshr.i.i.i.i98 = lshr i32 %bf.load.i.i.i.i97, 30
  switch i32 %bf.lshr.i.i.i.i98, label %if.end.unreachabledefault.i.i.i115 [
    i32 0, label %sw.bb.i.i.i111
    i32 1, label %sw.bb.i.i.i111
    i32 2, label %sw.epilog.i.i.i104
    i32 3, label %sw.bb12.i.i.i99
  ]

sw.bb.i.i.i111:                                   ; preds = %if.end.i.i.i93, %if.end.i.i.i93
  %49 = getelementptr inbounds %"struct.parray_manager<ast_manager::expr_dependency_array_config>::cell", ptr %c.017.i.i.i96, i64 0, i32 1
  %50 = load i32, ptr %49, align 4
  %51 = zext i32 %50 to i64
  %cmp4.i.i.i112 = icmp eq i64 %indvars.iv, %51
  br i1 %cmp4.i.i.i112, label %if.then5.i.i.i113, label %sw.epilog.i.i.i104

if.then5.i.i.i113:                                ; preds = %sw.bb.i.i.i111
  %m_elem.i.i.i.i114 = getelementptr inbounds %"struct.parray_manager<ast_manager::expr_dependency_array_config>::cell", ptr %c.017.i.i.i96, i64 0, i32 2
  br label %_ZNK11ast_manager3getERKN14parray_managerINS_28expr_dependency_array_configEE3refEj.exit.i

sw.bb12.i.i.i99:                                  ; preds = %if.end.i.i.i93
  %52 = getelementptr inbounds %"struct.parray_manager<ast_manager::expr_dependency_array_config>::cell", ptr %c.017.i.i.i96, i64 0, i32 3
  %53 = load ptr, ptr %52, align 8
  %arrayidx14.i.i.i101 = getelementptr inbounds ptr, ptr %53, i64 %indvars.iv
  br label %_ZNK11ast_manager3getERKN14parray_managerINS_28expr_dependency_array_configEE3refEj.exit.i

if.end.unreachabledefault.i.i.i115:               ; preds = %if.end.i.i.i93
  unreachable

sw.epilog.i.i.i104:                               ; preds = %sw.bb.i.i.i111, %if.end.i.i.i93
  %c.1.in.i.i.i105 = getelementptr inbounds %"struct.parray_manager<ast_manager::expr_dependency_array_config>::cell", ptr %c.017.i.i.i96, i64 0, i32 3
  %trail_sz.1.i.i.i106 = add nuw nsw i32 %trail_sz.016.i.i.i95, 1
  %exitcond.i.i.i107 = icmp eq i32 %trail_sz.1.i.i.i106, 17
  br i1 %exitcond.i.i.i107, label %if.then.i.i.i108, label %if.end.i.i.i93, !llvm.loop !11

_ZNK11ast_manager3getERKN14parray_managerINS_28expr_dependency_array_configEE3refEj.exit.i: ; preds = %sw.bb12.i.i.i99, %if.then5.i.i.i113, %.noexc116
  %.pre1452 = phi ptr [ %.pre1452.pre, %.noexc116 ], [ %43, %sw.bb12.i.i.i99 ], [ %43, %if.then5.i.i.i113 ]
  %retval.0.i.i.i102 = phi ptr [ %arrayidx.i.i.i110, %.noexc116 ], [ %arrayidx14.i.i.i101, %sw.bb12.i.i.i99 ], [ %m_elem.i.i.i.i114, %if.then5.i.i.i113 ]
  %54 = load ptr, ptr %retval.0.i.i.i102, align 8
  br label %invoke.cont16

invoke.cont16:                                    ; preds = %_ZNK11ast_manager3getERKN14parray_managerINS_28expr_dependency_array_configEE3refEj.exit.i, %invoke.cont12
  %55 = phi ptr [ %.pre1452, %_ZNK11ast_manager3getERKN14parray_managerINS_28expr_dependency_array_configEE3refEj.exit.i ], [ %43, %invoke.cont12 ]
  %cond.i103 = phi ptr [ %54, %_ZNK11ast_manager3getERKN14parray_managerINS_28expr_dependency_array_configEE3refEj.exit.i ], [ null, %invoke.cont12 ]
  %m_proofs.i = getelementptr inbounds %class.goal, ptr %55, i64 0, i32 8
  %56 = load ptr, ptr %m_proofs.i, align 8
  %cmp.i.i.i117 = icmp eq ptr %56, null
  br i1 %cmp.i.i.i117, label %invoke.cont20, label %while.body.i.i.i118

while.body.i.i.i118:                              ; preds = %invoke.cont16, %sw.bb.i.i.i149
  %c.0.i.i.i119 = phi ptr [ %58, %sw.bb.i.i.i149 ], [ %56, %invoke.cont16 ]
  %bf.load.i.i.i.i120 = load i32, ptr %c.0.i.i.i119, align 8
  %bf.lshr.i.i.i.i121 = lshr i32 %bf.load.i.i.i.i120, 30
  switch i32 %bf.lshr.i.i.i.i121, label %while.body.unreachabledefault.i.i.i150 [
    i32 0, label %sw.bb.i.i.i149
    i32 1, label %sw.bb3.i.i.i147
    i32 2, label %sw.bb5.i.i.i145
    i32 3, label %sw.bb7.i.i.i122
  ]

sw.bb.i.i.i149:                                   ; preds = %while.body.i.i.i118
  %57 = getelementptr inbounds %"struct.parray_manager<ast_manager::expr_array_config>::cell", ptr %c.0.i.i.i119, i64 0, i32 3
  %58 = load ptr, ptr %57, align 8
  br label %while.body.i.i.i118, !llvm.loop !9

sw.bb3.i.i.i147:                                  ; preds = %while.body.i.i.i118
  %59 = getelementptr inbounds %"struct.parray_manager<ast_manager::expr_array_config>::cell", ptr %c.0.i.i.i119, i64 0, i32 1
  %60 = load i32, ptr %59, align 4
  %add.i.i.i148 = add i32 %60, 1
  br label %_ZNK11ast_manager4sizeERKN14parray_managerINS_17expr_array_configEE3refE.exit.i

sw.bb5.i.i.i145:                                  ; preds = %while.body.i.i.i118
  %61 = getelementptr inbounds %"struct.parray_manager<ast_manager::expr_array_config>::cell", ptr %c.0.i.i.i119, i64 0, i32 1
  %62 = load i32, ptr %61, align 4
  %sub.i.i.i146 = add i32 %62, -1
  br label %_ZNK11ast_manager4sizeERKN14parray_managerINS_17expr_array_configEE3refE.exit.i

sw.bb7.i.i.i122:                                  ; preds = %while.body.i.i.i118
  %63 = getelementptr inbounds %"struct.parray_manager<ast_manager::expr_array_config>::cell", ptr %c.0.i.i.i119, i64 0, i32 1
  %64 = load i32, ptr %63, align 4
  br label %_ZNK11ast_manager4sizeERKN14parray_managerINS_17expr_array_configEE3refE.exit.i

while.body.unreachabledefault.i.i.i150:           ; preds = %while.body.i.i.i118
  unreachable

_ZNK11ast_manager4sizeERKN14parray_managerINS_17expr_array_configEE3refE.exit.i: ; preds = %sw.bb7.i.i.i122, %sw.bb5.i.i.i145, %sw.bb3.i.i.i147
  %retval.0.i.i.i123 = phi i32 [ %64, %sw.bb7.i.i.i122 ], [ %sub.i.i.i146, %sw.bb5.i.i.i145 ], [ %add.i.i.i148, %sw.bb3.i.i.i147 ]
  %65 = zext i32 %retval.0.i.i.i123 to i64
  %cmp.i = icmp ult i64 %indvars.iv, %65
  br i1 %cmp.i, label %cond.true.i125, label %invoke.cont20

cond.true.i125:                                   ; preds = %_ZNK11ast_manager4sizeERKN14parray_managerINS_17expr_array_configEE3refE.exit.i
  %66 = load ptr, ptr %55, align 8
  %m_expr_array_manager.i.i126 = getelementptr inbounds %class.ast_manager, ptr %66, i64 0, i32 3
  br label %if.end.i.i.i127

if.then.i.i.i138:                                 ; preds = %sw.epilog.i.i.i134
  invoke void @_ZN14parray_managerIN11ast_manager17expr_array_configEE6rerootERNS2_3refE(ptr noundef nonnull align 8 dereferenceable(32) %m_expr_array_manager.i.i126, ptr noundef nonnull align 8 dereferenceable(12) %m_proofs.i)
          to label %.noexc151 unwind label %lpad4.loopexit.split-lp.loopexit

.noexc151:                                        ; preds = %if.then.i.i.i138
  %67 = load ptr, ptr %m_proofs.i, align 8
  %68 = getelementptr inbounds %"struct.parray_manager<ast_manager::expr_array_config>::cell", ptr %67, i64 0, i32 3
  %69 = load ptr, ptr %68, align 8
  %arrayidx.i.i.i140 = getelementptr inbounds ptr, ptr %69, i64 %indvars.iv
  br label %_ZNK11ast_manager3getERKN14parray_managerINS_17expr_array_configEE3refEj.exit.i

if.end.i.i.i127:                                  ; preds = %sw.epilog.i.i.i134, %cond.true.i125
  %c.017.in.i.i.i128 = phi ptr [ %m_proofs.i, %cond.true.i125 ], [ %c.1.in.i.i.i135, %sw.epilog.i.i.i134 ]
  %trail_sz.016.i.i.i129 = phi i32 [ 0, %cond.true.i125 ], [ %trail_sz.1.i.i.i136, %sw.epilog.i.i.i134 ]
  %c.017.i.i.i130 = load ptr, ptr %c.017.in.i.i.i128, align 8
  %bf.load.i.i.i2.i = load i32, ptr %c.017.i.i.i130, align 8
  %bf.lshr.i.i.i3.i = lshr i32 %bf.load.i.i.i2.i, 30
  switch i32 %bf.lshr.i.i.i3.i, label %if.end.unreachabledefault.i.i.i144 [
    i32 0, label %sw.bb.i.i5.i
    i32 1, label %sw.bb.i.i5.i
    i32 2, label %sw.epilog.i.i.i134
    i32 3, label %sw.bb12.i.i.i131
  ]

sw.bb.i.i5.i:                                     ; preds = %if.end.i.i.i127, %if.end.i.i.i127
  %70 = getelementptr inbounds %"struct.parray_manager<ast_manager::expr_array_config>::cell", ptr %c.017.i.i.i130, i64 0, i32 1
  %71 = load i32, ptr %70, align 4
  %72 = zext i32 %71 to i64
  %cmp4.i.i.i141 = icmp eq i64 %indvars.iv, %72
  br i1 %cmp4.i.i.i141, label %if.then5.i.i.i142, label %sw.epilog.i.i.i134

if.then5.i.i.i142:                                ; preds = %sw.bb.i.i5.i
  %m_elem.i.i.i.i143 = getelementptr inbounds %"struct.parray_manager<ast_manager::expr_array_config>::cell", ptr %c.017.i.i.i130, i64 0, i32 2
  br label %_ZNK11ast_manager3getERKN14parray_managerINS_17expr_array_configEE3refEj.exit.i

sw.bb12.i.i.i131:                                 ; preds = %if.end.i.i.i127
  %73 = getelementptr inbounds %"struct.parray_manager<ast_manager::expr_array_config>::cell", ptr %c.017.i.i.i130, i64 0, i32 3
  %74 = load ptr, ptr %73, align 8
  %arrayidx14.i.i.i133 = getelementptr inbounds ptr, ptr %74, i64 %indvars.iv
  br label %_ZNK11ast_manager3getERKN14parray_managerINS_17expr_array_configEE3refEj.exit.i

if.end.unreachabledefault.i.i.i144:               ; preds = %if.end.i.i.i127
  unreachable

sw.epilog.i.i.i134:                               ; preds = %sw.bb.i.i5.i, %if.end.i.i.i127
  %c.1.in.i.i.i135 = getelementptr inbounds %"struct.parray_manager<ast_manager::expr_array_config>::cell", ptr %c.017.i.i.i130, i64 0, i32 3
  %trail_sz.1.i.i.i136 = add nuw nsw i32 %trail_sz.016.i.i.i129, 1
  %exitcond.i.i.i137 = icmp eq i32 %trail_sz.1.i.i.i136, 17
  br i1 %exitcond.i.i.i137, label %if.then.i.i.i138, label %if.end.i.i.i127, !llvm.loop !10

_ZNK11ast_manager3getERKN14parray_managerINS_17expr_array_configEE3refEj.exit.i: ; preds = %sw.bb12.i.i.i131, %if.then5.i.i.i142, %.noexc151
  %retval.0.i.i4.i = phi ptr [ %arrayidx.i.i.i140, %.noexc151 ], [ %arrayidx14.i.i.i133, %sw.bb12.i.i.i131 ], [ %m_elem.i.i.i.i143, %if.then5.i.i.i142 ]
  %75 = load ptr, ptr %retval.0.i.i4.i, align 8
  br label %invoke.cont20

invoke.cont20:                                    ; preds = %_ZNK11ast_manager3getERKN14parray_managerINS_17expr_array_configEE3refEj.exit.i, %_ZNK11ast_manager4sizeERKN14parray_managerINS_17expr_array_configEE3refE.exit.i, %invoke.cont16
  %cond.i124 = phi ptr [ %75, %_ZNK11ast_manager3getERKN14parray_managerINS_17expr_array_configEE3refEj.exit.i ], [ null, %_ZNK11ast_manager4sizeERKN14parray_managerINS_17expr_array_configEE3refE.exit.i ], [ null, %invoke.cont16 ]
  invoke void @_ZN13bound_managerclEP4exprPN18dependency_managerIN11ast_manager22expr_dependency_configEE10dependencyEP3app(ptr noundef nonnull align 8 dereferenceable(128) %m_bounds, ptr noundef %cond.i, ptr noundef %cond.i103, ptr noundef %cond.i124)
          to label %for.inc unwind label %lpad4.loopexit.split-lp.loopexit

for.inc:                                          ; preds = %invoke.cont20
  %indvars.iv.next = add nuw nsw i64 %indvars.iv, 1
  br label %for.cond, !llvm.loop !12

lpad:                                             ; preds = %_ZN3refIN12eq2bv_tactic4bvmcEEC2EPS1_.exit
  %76 = landingpad { ptr, i32 }
          cleanup
  br label %ehcleanup381

lpad4.loopexit:                                   ; preds = %invoke.cont46, %if.then.i.i.i203
  %lpad.loopexit = landingpad { ptr, i32 }
          cleanup
  br label %ehcleanup377

lpad4.loopexit.split-lp.loopexit:                 ; preds = %if.then.i.i.i138, %if.then.i.i.i108, %if.then.i.i.i, %invoke.cont20
  %lpad.loopexit1256 = landingpad { ptr, i32 }
          cleanup
  br label %ehcleanup377

lpad4.loopexit.split-lp.loopexit.split-lp:        ; preds = %if.end.i.i.i.i.i1046, %if.then.i.i1027, %if.then.i.i.i.i1015, %for.end364, %if.end.i.i.i.i.i242, %if.then.i.i223, %if.end.i.i.i.i.i, %if.then.i.i155, %for.end51, %for.end
  %lpad.loopexit.split-lp1257 = landingpad { ptr, i32 }
          cleanup
  br label %ehcleanup377

for.end:                                          ; preds = %invoke.cont7
  %call25 = invoke noundef zeroext i1 @_ZNK13bound_manager12inconsistentEv(ptr noundef nonnull align 8 dereferenceable(128) %m_bounds)
          to label %invoke.cont24 unwind label %lpad4.loopexit.split-lp.loopexit.split-lp

invoke.cont24:                                    ; preds = %for.end
  %.pre1448 = load ptr, ptr %g, align 8
  %m_depth.i.phi.trans.insert = getelementptr inbounds %class.goal, ptr %.pre1448, i64 0, i32 10
  %bf.load.i152.pre = load i32, ptr %m_depth.i.phi.trans.insert, align 8
  %77 = and i32 %bf.load.i152.pre, 134217728
  %tobool.i.not = icmp ne i32 %77, 0
  %or.cond.not1548 = select i1 %call25, i1 true, i1 %tobool.i.not
  br i1 %or.cond.not1548, label %if.then, label %for.cond37

if.then:                                          ; preds = %invoke.cont24
  %m_depth.i = getelementptr inbounds %class.goal, ptr %.pre1448, i64 0, i32 10
  %inc.i = add i32 %bf.load.i152.pre, 1
  %bf.value.i = and i32 %inc.i, 67108863
  %bf.clear3.i = and i32 %bf.load.i152.pre, -67108864
  %bf.set.i = or disjoint i32 %bf.value.i, %bf.clear3.i
  store i32 %bf.set.i, ptr %m_depth.i, align 8
  %78 = load ptr, ptr %g, align 8
  %tobool.not.i.i.i = icmp eq ptr %78, null
  br i1 %tobool.not.i.i.i, label %_ZN15ref_buffer_coreI4goal21ref_unmanaged_wrapperIS0_ELj16EE7inc_refEPS0_.exit.i, label %if.then.i.i.i153

if.then.i.i.i153:                                 ; preds = %if.then
  %m_ref_count.i.i.i.i = getelementptr inbounds %class.goal, ptr %78, i64 0, i32 4
  %79 = load i32, ptr %m_ref_count.i.i.i.i, align 8
  %inc.i.i.i.i = add i32 %79, 1
  store i32 %inc.i.i.i.i, ptr %m_ref_count.i.i.i.i, align 8
  br label %_ZN15ref_buffer_coreI4goal21ref_unmanaged_wrapperIS0_ELj16EE7inc_refEPS0_.exit.i

_ZN15ref_buffer_coreI4goal21ref_unmanaged_wrapperIS0_ELj16EE7inc_refEPS0_.exit.i: ; preds = %if.then.i.i.i153, %if.then
  %m_pos.i.i = getelementptr inbounds %class.buffer, ptr %result, i64 0, i32 1
  %80 = load i32, ptr %m_pos.i.i, align 8
  %m_capacity.i.i154 = getelementptr inbounds %class.buffer, ptr %result, i64 0, i32 2
  %81 = load i32, ptr %m_capacity.i.i154, align 4
  %cmp.not.i.i = icmp ult i32 %80, %81
  br i1 %cmp.not.i.i, label %entry.if.end_crit_edge.i.i, label %if.then.i.i155

entry.if.end_crit_edge.i.i:                       ; preds = %_ZN15ref_buffer_coreI4goal21ref_unmanaged_wrapperIS0_ELj16EE7inc_refEPS0_.exit.i
  %.pre.i.i161 = load ptr, ptr %result, align 8
  br label %cleanup376

if.then.i.i155:                                   ; preds = %_ZN15ref_buffer_coreI4goal21ref_unmanaged_wrapperIS0_ELj16EE7inc_refEPS0_.exit.i
  %shl.i.i.i = shl i32 %81, 1
  %conv.i.i.i = zext i32 %shl.i.i.i to i64
  %mul.i.i.i = shl nuw nsw i64 %conv.i.i.i, 3
  %call.i.i.i162 = invoke noalias noundef ptr @_ZN6memory8allocateEm(i64 noundef %mul.i.i.i)
          to label %call.i.i.i.noexc unwind label %lpad4.loopexit.split-lp.loopexit.split-lp

call.i.i.i.noexc:                                 ; preds = %if.then.i.i155
  %82 = load i32, ptr %m_pos.i.i, align 8
  %cmp6.not.i.i.i = icmp eq i32 %82, 0
  %.pre.i.i.i = load ptr, ptr %result, align 8
  br i1 %cmp6.not.i.i.i, label %for.end.i.i.i, label %for.body.lr.ph.i.i.i

for.body.lr.ph.i.i.i:                             ; preds = %call.i.i.i.noexc
  %wide.trip.count.i.i.i = zext i32 %82 to i64
  br label %for.body.i.i.i

for.body.i.i.i:                                   ; preds = %for.body.i.i.i, %for.body.lr.ph.i.i.i
  %indvars.iv.i.i.i = phi i64 [ 0, %for.body.lr.ph.i.i.i ], [ %indvars.iv.next.i.i.i, %for.body.i.i.i ]
  %arrayidx.i.i.i156 = getelementptr inbounds ptr, ptr %call.i.i.i162, i64 %indvars.iv.i.i.i
  %arrayidx3.i.i.i = getelementptr inbounds ptr, ptr %.pre.i.i.i, i64 %indvars.iv.i.i.i
  %83 = load ptr, ptr %arrayidx3.i.i.i, align 8
  store ptr %83, ptr %arrayidx.i.i.i156, align 8
  %indvars.iv.next.i.i.i = add nuw nsw i64 %indvars.iv.i.i.i, 1
  %exitcond.not.i.i.i = icmp eq i64 %indvars.iv.next.i.i.i, %wide.trip.count.i.i.i
  br i1 %exitcond.not.i.i.i, label %for.end.i.i.i, label %for.body.i.i.i, !llvm.loop !13

for.end.i.i.i:                                    ; preds = %for.body.i.i.i, %call.i.i.i.noexc
  %m_initial_buffer.i.i.i.i = getelementptr inbounds %class.buffer, ptr %result, i64 0, i32 3
  %cmp.not.i.i.i.i = icmp eq ptr %.pre.i.i.i, %m_initial_buffer.i.i.i.i
  %cmp.i.i.i.i.i157 = icmp eq ptr %.pre.i.i.i, null
  %or.cond.i.i.i.i = or i1 %cmp.not.i.i.i.i, %cmp.i.i.i.i.i157
  br i1 %or.cond.i.i.i.i, label %_ZN6bufferIP4goalLb0ELj16EE6expandEv.exit.i.i, label %if.end.i.i.i.i.i

if.end.i.i.i.i.i:                                 ; preds = %for.end.i.i.i
  invoke void @_ZN6memory10deallocateEPv(ptr noundef nonnull %.pre.i.i.i)
          to label %.noexc163 unwind label %lpad4.loopexit.split-lp.loopexit.split-lp

.noexc163:                                        ; preds = %if.end.i.i.i.i.i
  %.pre1.pre.i.i = load i32, ptr %m_pos.i.i, align 8
  br label %_ZN6bufferIP4goalLb0ELj16EE6expandEv.exit.i.i

_ZN6bufferIP4goalLb0ELj16EE6expandEv.exit.i.i:    ; preds = %.noexc163, %for.end.i.i.i
  %.pre1.i.i = phi i32 [ %82, %for.end.i.i.i ], [ %.pre1.pre.i.i, %.noexc163 ]
  store ptr %call.i.i.i162, ptr %result, align 8
  store i32 %shl.i.i.i, ptr %m_capacity.i.i154, align 4
  br label %cleanup376

for.cond37:                                       ; preds = %invoke.cont24, %for.inc49
  %84 = phi ptr [ %.pre, %for.inc49 ], [ %.pre1448, %invoke.cont24 ]
  %indvars.iv1424 = phi i64 [ %indvars.iv.next1425, %for.inc49 ], [ 0, %invoke.cont24 ]
  %m_forms.i164 = getelementptr inbounds %class.goal, ptr %84, i64 0, i32 7
  %85 = load ptr, ptr %m_forms.i164, align 8
  %cmp.i.i.i165 = icmp eq ptr %85, null
  br i1 %cmp.i.i.i165, label %invoke.cont40, label %while.body.i.i.i166

while.body.i.i.i166:                              ; preds = %for.cond37, %sw.bb.i.i.i177
  %c.0.i.i.i167 = phi ptr [ %87, %sw.bb.i.i.i177 ], [ %85, %for.cond37 ]
  %bf.load.i.i.i.i168 = load i32, ptr %c.0.i.i.i167, align 8
  %bf.lshr.i.i.i.i169 = lshr i32 %bf.load.i.i.i.i168, 30
  switch i32 %bf.lshr.i.i.i.i169, label %while.body.unreachabledefault.i.i.i178 [
    i32 0, label %sw.bb.i.i.i177
    i32 1, label %sw.bb3.i.i.i175
    i32 2, label %sw.bb5.i.i.i173
    i32 3, label %sw.bb7.i.i.i170
  ]

sw.bb.i.i.i177:                                   ; preds = %while.body.i.i.i166
  %86 = getelementptr inbounds %"struct.parray_manager<ast_manager::expr_array_config>::cell", ptr %c.0.i.i.i167, i64 0, i32 3
  %87 = load ptr, ptr %86, align 8
  br label %while.body.i.i.i166, !llvm.loop !9

sw.bb3.i.i.i175:                                  ; preds = %while.body.i.i.i166
  %88 = getelementptr inbounds %"struct.parray_manager<ast_manager::expr_array_config>::cell", ptr %c.0.i.i.i167, i64 0, i32 1
  %89 = load i32, ptr %88, align 4
  %add.i.i.i176 = add i32 %89, 1
  br label %invoke.cont40

sw.bb5.i.i.i173:                                  ; preds = %while.body.i.i.i166
  %90 = getelementptr inbounds %"struct.parray_manager<ast_manager::expr_array_config>::cell", ptr %c.0.i.i.i167, i64 0, i32 1
  %91 = load i32, ptr %90, align 4
  %sub.i.i.i174 = add i32 %91, -1
  br label %invoke.cont40

sw.bb7.i.i.i170:                                  ; preds = %while.body.i.i.i166
  %92 = getelementptr inbounds %"struct.parray_manager<ast_manager::expr_array_config>::cell", ptr %c.0.i.i.i167, i64 0, i32 1
  %93 = load i32, ptr %92, align 4
  br label %invoke.cont40

while.body.unreachabledefault.i.i.i178:           ; preds = %while.body.i.i.i166
  unreachable

invoke.cont40:                                    ; preds = %sw.bb7.i.i.i170, %sw.bb5.i.i.i173, %sw.bb3.i.i.i175, %for.cond37
  %retval.0.i.i.i172 = phi i32 [ %93, %sw.bb7.i.i.i170 ], [ %sub.i.i.i174, %sw.bb5.i.i.i173 ], [ %add.i.i.i176, %sw.bb3.i.i.i175 ], [ 0, %for.cond37 ]
  %94 = zext i32 %retval.0.i.i.i172 to i64
  %cmp42 = icmp ult i64 %indvars.iv1424, %94
  br i1 %cmp42, label %for.body43, label %for.end51

for.body43:                                       ; preds = %invoke.cont40
  %m_inconsistent.i.i180 = getelementptr inbounds %class.goal, ptr %84, i64 0, i32 10
  %bf.load.i.i181 = load i32, ptr %m_inconsistent.i.i180, align 8
  %95 = and i32 %bf.load.i.i181, 536870912
  %tobool.i.not.i182 = icmp eq i32 %95, 0
  %96 = load ptr, ptr %84, align 8
  br i1 %tobool.i.not.i182, label %cond.false.i187, label %cond.true.i183

cond.true.i183:                                   ; preds = %for.body43
  %m_false.i.i184 = getelementptr inbounds %class.ast_manager, ptr %96, i64 0, i32 16
  br label %invoke.cont46

cond.false.i187:                                  ; preds = %for.body43
  %m_expr_array_manager.i.i189 = getelementptr inbounds %class.ast_manager, ptr %96, i64 0, i32 3
  br label %if.end.i.i.i190

if.then.i.i.i203:                                 ; preds = %sw.epilog.i.i.i199
  invoke void @_ZN14parray_managerIN11ast_manager17expr_array_configEE6rerootERNS2_3refE(ptr noundef nonnull align 8 dereferenceable(32) %m_expr_array_manager.i.i189, ptr noundef nonnull align 8 dereferenceable(12) %m_forms.i164)
          to label %.noexc211 unwind label %lpad4.loopexit

.noexc211:                                        ; preds = %if.then.i.i.i203
  %97 = load ptr, ptr %m_forms.i164, align 8
  %98 = getelementptr inbounds %"struct.parray_manager<ast_manager::expr_array_config>::cell", ptr %97, i64 0, i32 3
  %99 = load ptr, ptr %98, align 8
  %arrayidx.i.i.i205 = getelementptr inbounds ptr, ptr %99, i64 %indvars.iv1424
  br label %invoke.cont46

if.end.i.i.i190:                                  ; preds = %sw.epilog.i.i.i199, %cond.false.i187
  %c.017.in.i.i.i191 = phi ptr [ %m_forms.i164, %cond.false.i187 ], [ %c.1.in.i.i.i200, %sw.epilog.i.i.i199 ]
  %trail_sz.016.i.i.i192 = phi i32 [ 0, %cond.false.i187 ], [ %trail_sz.1.i.i.i201, %sw.epilog.i.i.i199 ]
  %c.017.i.i.i193 = load ptr, ptr %c.017.in.i.i.i191, align 8
  %bf.load.i.i.i.i194 = load i32, ptr %c.017.i.i.i193, align 8
  %bf.lshr.i.i.i.i195 = lshr i32 %bf.load.i.i.i.i194, 30
  switch i32 %bf.lshr.i.i.i.i195, label %if.end.unreachabledefault.i.i.i210 [
    i32 0, label %sw.bb.i.i.i206
    i32 1, label %sw.bb.i.i.i206
    i32 2, label %sw.epilog.i.i.i199
    i32 3, label %sw.bb12.i.i.i196
  ]

sw.bb.i.i.i206:                                   ; preds = %if.end.i.i.i190, %if.end.i.i.i190
  %100 = getelementptr inbounds %"struct.parray_manager<ast_manager::expr_array_config>::cell", ptr %c.017.i.i.i193, i64 0, i32 1
  %101 = load i32, ptr %100, align 4
  %102 = zext i32 %101 to i64
  %cmp4.i.i.i207 = icmp eq i64 %indvars.iv1424, %102
  br i1 %cmp4.i.i.i207, label %if.then5.i.i.i208, label %sw.epilog.i.i.i199

if.then5.i.i.i208:                                ; preds = %sw.bb.i.i.i206
  %m_elem.i.i.i.i209 = getelementptr inbounds %"struct.parray_manager<ast_manager::expr_array_config>::cell", ptr %c.017.i.i.i193, i64 0, i32 2
  br label %invoke.cont46

sw.bb12.i.i.i196:                                 ; preds = %if.end.i.i.i190
  %103 = getelementptr inbounds %"struct.parray_manager<ast_manager::expr_array_config>::cell", ptr %c.017.i.i.i193, i64 0, i32 3
  %104 = load ptr, ptr %103, align 8
  %arrayidx14.i.i.i198 = getelementptr inbounds ptr, ptr %104, i64 %indvars.iv1424
  br label %invoke.cont46

if.end.unreachabledefault.i.i.i210:               ; preds = %if.end.i.i.i190
  unreachable

sw.epilog.i.i.i199:                               ; preds = %sw.bb.i.i.i206, %if.end.i.i.i190
  %c.1.in.i.i.i200 = getelementptr inbounds %"struct.parray_manager<ast_manager::expr_array_config>::cell", ptr %c.017.i.i.i193, i64 0, i32 3
  %trail_sz.1.i.i.i201 = add nuw nsw i32 %trail_sz.016.i.i.i192, 1
  %exitcond.i.i.i202 = icmp eq i32 %trail_sz.1.i.i.i201, 17
  br i1 %exitcond.i.i.i202, label %if.then.i.i.i203, label %if.end.i.i.i190, !llvm.loop !10

invoke.cont46:                                    ; preds = %sw.bb12.i.i.i196, %if.then5.i.i.i208, %.noexc211, %cond.true.i183
  %cond.in.i185 = phi ptr [ %m_false.i.i184, %cond.true.i183 ], [ %arrayidx.i.i.i205, %.noexc211 ], [ %arrayidx14.i.i.i198, %sw.bb12.i.i.i196 ], [ %m_elem.i.i.i.i209, %if.then5.i.i.i208 ]
  %cond.i186 = load ptr, ptr %cond.in.i185, align 8
  invoke void @_ZN12eq2bv_tactic10collect_fdEP4expr(ptr noundef nonnull align 8 dereferenceable(864) %this, ptr noundef %cond.i186)
          to label %for.inc49 unwind label %lpad4.loopexit

for.inc49:                                        ; preds = %invoke.cont46
  %indvars.iv.next1425 = add nuw nsw i64 %indvars.iv1424, 1
  %.pre = load ptr, ptr %g, align 8
  br label %for.cond37, !llvm.loop !14

for.end51:                                        ; preds = %invoke.cont40
  invoke void @_ZN12eq2bv_tactic10cleanup_fdER3refINS_4bvmcEE(ptr noundef nonnull align 8 dereferenceable(864) %this, ptr noundef nonnull align 8 dereferenceable(8) %mc1)
          to label %invoke.cont54 unwind label %lpad4.loopexit.split-lp.loopexit.split-lp

invoke.cont54:                                    ; preds = %for.end51
  %m_size.i.i213 = getelementptr inbounds %class.eq2bv_tactic, ptr %this, i64 0, i32 8, i32 0, i32 2
  %105 = load i32, ptr %m_size.i.i213, align 4
  %cmp.i.i214 = icmp eq i32 %105, 0
  %106 = load ptr, ptr %g, align 8
  br i1 %cmp.i.i214, label %if.then56, label %for.cond62.preheader

for.cond62.preheader:                             ; preds = %invoke.cont54
  %m_inconsistent.i1333 = getelementptr inbounds %class.goal, ptr %106, i64 0, i32 10
  %bf.load.i2551334 = load i32, ptr %m_inconsistent.i1333, align 8
  %107 = and i32 %bf.load.i2551334, 536870912
  %tobool.i256.not1335 = icmp eq i32 %107, 0
  br i1 %tobool.i256.not1335, label %land.rhs.lr.ph, label %for.end283

land.rhs.lr.ph:                                   ; preds = %for.cond62.preheader
  %m_manager.i = getelementptr inbounds %class.obj_ref, ptr %new_curr, i64 0, i32 1
  %m_manager.i273 = getelementptr inbounds %class.obj_ref.10, ptr %new_pr, i64 0, i32 1
  %m_manager.i274 = getelementptr inbounds %class.obj_ref.10, ptr %var, i64 0, i32 1
  %m_kind.i.i.i = getelementptr inbounds %class.mpz, ptr %v, i64 0, i32 1
  %m_ptr.i.i.i = getelementptr inbounds %class.mpz, ptr %v, i64 0, i32 2
  %m_den.i.i = getelementptr inbounds %class.mpq, ptr %v, i64 0, i32 1
  %m_kind.i1.i.i = getelementptr inbounds %class.mpq, ptr %v, i64 0, i32 1, i32 1
  %m_ptr.i4.i.i = getelementptr inbounds %class.mpq, ptr %v, i64 0, i32 1, i32 2
  %m_rw = getelementptr inbounds %class.eq2bv_tactic, ptr %this, i64 0, i32 4
  br label %land.rhs

if.then56:                                        ; preds = %invoke.cont54
  %tobool.not.i.i.i215 = icmp eq ptr %106, null
  br i1 %tobool.not.i.i.i215, label %_ZN15ref_buffer_coreI4goal21ref_unmanaged_wrapperIS0_ELj16EE7inc_refEPS0_.exit.i219, label %if.then.i.i.i216

if.then.i.i.i216:                                 ; preds = %if.then56
  %m_ref_count.i.i.i.i217 = getelementptr inbounds %class.goal, ptr %106, i64 0, i32 4
  %108 = load i32, ptr %m_ref_count.i.i.i.i217, align 8
  %inc.i.i.i.i218 = add i32 %108, 1
  store i32 %inc.i.i.i.i218, ptr %m_ref_count.i.i.i.i217, align 8
  br label %_ZN15ref_buffer_coreI4goal21ref_unmanaged_wrapperIS0_ELj16EE7inc_refEPS0_.exit.i219

_ZN15ref_buffer_coreI4goal21ref_unmanaged_wrapperIS0_ELj16EE7inc_refEPS0_.exit.i219: ; preds = %if.then.i.i.i216, %if.then56
  %m_pos.i.i220 = getelementptr inbounds %class.buffer, ptr %result, i64 0, i32 1
  %109 = load i32, ptr %m_pos.i.i220, align 8
  %m_capacity.i.i221 = getelementptr inbounds %class.buffer, ptr %result, i64 0, i32 2
  %110 = load i32, ptr %m_capacity.i.i221, align 4
  %cmp.not.i.i222 = icmp ult i32 %109, %110
  br i1 %cmp.not.i.i222, label %entry.if.end_crit_edge.i.i249, label %if.then.i.i223

entry.if.end_crit_edge.i.i249:                    ; preds = %_ZN15ref_buffer_coreI4goal21ref_unmanaged_wrapperIS0_ELj16EE7inc_refEPS0_.exit.i219
  %.pre.i.i250 = load ptr, ptr %result, align 8
  br label %cleanup376

if.then.i.i223:                                   ; preds = %_ZN15ref_buffer_coreI4goal21ref_unmanaged_wrapperIS0_ELj16EE7inc_refEPS0_.exit.i219
  %shl.i.i.i224 = shl i32 %110, 1
  %conv.i.i.i225 = zext i32 %shl.i.i.i224 to i64
  %mul.i.i.i226 = shl nuw nsw i64 %conv.i.i.i225, 3
  %call.i.i.i252 = invoke noalias noundef ptr @_ZN6memory8allocateEm(i64 noundef %mul.i.i.i226)
          to label %call.i.i.i.noexc251 unwind label %lpad4.loopexit.split-lp.loopexit.split-lp

call.i.i.i.noexc251:                              ; preds = %if.then.i.i223
  %111 = load i32, ptr %m_pos.i.i220, align 8
  %cmp6.not.i.i.i227 = icmp eq i32 %111, 0
  %.pre.i.i.i228 = load ptr, ptr %result, align 8
  br i1 %cmp6.not.i.i.i227, label %for.end.i.i.i237, label %for.body.lr.ph.i.i.i229

for.body.lr.ph.i.i.i229:                          ; preds = %call.i.i.i.noexc251
  %wide.trip.count.i.i.i230 = zext i32 %111 to i64
  br label %for.body.i.i.i231

for.body.i.i.i231:                                ; preds = %for.body.i.i.i231, %for.body.lr.ph.i.i.i229
  %indvars.iv.i.i.i232 = phi i64 [ 0, %for.body.lr.ph.i.i.i229 ], [ %indvars.iv.next.i.i.i235, %for.body.i.i.i231 ]
  %arrayidx.i.i.i233 = getelementptr inbounds ptr, ptr %call.i.i.i252, i64 %indvars.iv.i.i.i232
  %arrayidx3.i.i.i234 = getelementptr inbounds ptr, ptr %.pre.i.i.i228, i64 %indvars.iv.i.i.i232
  %112 = load ptr, ptr %arrayidx3.i.i.i234, align 8
  store ptr %112, ptr %arrayidx.i.i.i233, align 8
  %indvars.iv.next.i.i.i235 = add nuw nsw i64 %indvars.iv.i.i.i232, 1
  %exitcond.not.i.i.i236 = icmp eq i64 %indvars.iv.next.i.i.i235, %wide.trip.count.i.i.i230
  br i1 %exitcond.not.i.i.i236, label %for.end.i.i.i237, label %for.body.i.i.i231, !llvm.loop !13

for.end.i.i.i237:                                 ; preds = %for.body.i.i.i231, %call.i.i.i.noexc251
  %m_initial_buffer.i.i.i.i238 = getelementptr inbounds %class.buffer, ptr %result, i64 0, i32 3
  %cmp.not.i.i.i.i239 = icmp eq ptr %.pre.i.i.i228, %m_initial_buffer.i.i.i.i238
  %cmp.i.i.i.i.i240 = icmp eq ptr %.pre.i.i.i228, null
  %or.cond.i.i.i.i241 = or i1 %cmp.not.i.i.i.i239, %cmp.i.i.i.i.i240
  br i1 %or.cond.i.i.i.i241, label %_ZN6bufferIP4goalLb0ELj16EE6expandEv.exit.i.i244, label %if.end.i.i.i.i.i242

if.end.i.i.i.i.i242:                              ; preds = %for.end.i.i.i237
  invoke void @_ZN6memory10deallocateEPv(ptr noundef nonnull %.pre.i.i.i228)
          to label %.noexc253 unwind label %lpad4.loopexit.split-lp.loopexit.split-lp

.noexc253:                                        ; preds = %if.end.i.i.i.i.i242
  %.pre1.pre.i.i243 = load i32, ptr %m_pos.i.i220, align 8
  br label %_ZN6bufferIP4goalLb0ELj16EE6expandEv.exit.i.i244

_ZN6bufferIP4goalLb0ELj16EE6expandEv.exit.i.i244: ; preds = %.noexc253, %for.end.i.i.i237
  %.pre1.i.i245 = phi i32 [ %111, %for.end.i.i.i237 ], [ %.pre1.pre.i.i243, %.noexc253 ]
  store ptr %call.i.i.i252, ptr %result, align 8
  store i32 %shl.i.i.i224, ptr %m_capacity.i.i221, align 4
  br label %cleanup376

land.rhs:                                         ; preds = %land.rhs.lr.ph, %_ZN7obj_refI4expr11ast_managerED2Ev.exit
  %indvars.iv1427 = phi i64 [ 0, %land.rhs.lr.ph ], [ %indvars.iv.next1428, %_ZN7obj_refI4expr11ast_managerED2Ev.exit ]
  %113 = phi ptr [ %106, %land.rhs.lr.ph ], [ %435, %_ZN7obj_refI4expr11ast_managerED2Ev.exit ]
  %m_forms.i257 = getelementptr inbounds %class.goal, ptr %113, i64 0, i32 7
  %114 = load ptr, ptr %m_forms.i257, align 8
  %cmp.i.i.i258 = icmp eq ptr %114, null
  br i1 %cmp.i.i.i258, label %invoke.cont69, label %while.body.i.i.i259

while.body.i.i.i259:                              ; preds = %land.rhs, %sw.bb.i.i.i270
  %c.0.i.i.i260 = phi ptr [ %116, %sw.bb.i.i.i270 ], [ %114, %land.rhs ]
  %bf.load.i.i.i.i261 = load i32, ptr %c.0.i.i.i260, align 8
  %bf.lshr.i.i.i.i262 = lshr i32 %bf.load.i.i.i.i261, 30
  switch i32 %bf.lshr.i.i.i.i262, label %while.body.unreachabledefault.i.i.i271 [
    i32 0, label %sw.bb.i.i.i270
    i32 1, label %sw.bb3.i.i.i268
    i32 2, label %sw.bb5.i.i.i266
    i32 3, label %sw.bb7.i.i.i263
  ]

sw.bb.i.i.i270:                                   ; preds = %while.body.i.i.i259
  %115 = getelementptr inbounds %"struct.parray_manager<ast_manager::expr_array_config>::cell", ptr %c.0.i.i.i260, i64 0, i32 3
  %116 = load ptr, ptr %115, align 8
  br label %while.body.i.i.i259, !llvm.loop !9

sw.bb3.i.i.i268:                                  ; preds = %while.body.i.i.i259
  %117 = getelementptr inbounds %"struct.parray_manager<ast_manager::expr_array_config>::cell", ptr %c.0.i.i.i260, i64 0, i32 1
  %118 = load i32, ptr %117, align 4
  %add.i.i.i269 = add i32 %118, 1
  br label %invoke.cont69

sw.bb5.i.i.i266:                                  ; preds = %while.body.i.i.i259
  %119 = getelementptr inbounds %"struct.parray_manager<ast_manager::expr_array_config>::cell", ptr %c.0.i.i.i260, i64 0, i32 1
  %120 = load i32, ptr %119, align 4
  %sub.i.i.i267 = add i32 %120, -1
  br label %invoke.cont69

sw.bb7.i.i.i263:                                  ; preds = %while.body.i.i.i259
  %121 = getelementptr inbounds %"struct.parray_manager<ast_manager::expr_array_config>::cell", ptr %c.0.i.i.i260, i64 0, i32 1
  %122 = load i32, ptr %121, align 4
  br label %invoke.cont69

while.body.unreachabledefault.i.i.i271:           ; preds = %while.body.i.i.i259
  unreachable

invoke.cont69:                                    ; preds = %sw.bb7.i.i.i263, %sw.bb5.i.i.i266, %sw.bb3.i.i.i268, %land.rhs
  %retval.0.i.i.i265 = phi i32 [ %122, %sw.bb7.i.i.i263 ], [ %sub.i.i.i267, %sw.bb5.i.i.i266 ], [ %add.i.i.i269, %sw.bb3.i.i.i268 ], [ 0, %land.rhs ]
  %123 = zext i32 %retval.0.i.i.i265 to i64
  %cmp71 = icmp ult i64 %indvars.iv1427, %123
  br i1 %cmp71, label %for.body72, label %for.end283

for.body72:                                       ; preds = %invoke.cont69
  %124 = load ptr, ptr %m, align 8
  store ptr null, ptr %new_curr, align 8
  store ptr %124, ptr %m_manager.i, align 8
  store ptr null, ptr %new_pr, align 8
  store ptr %124, ptr %m_manager.i273, align 8
  store ptr null, ptr %var, align 8
  store ptr %124, ptr %m_manager.i274, align 8
  %125 = load ptr, ptr %113, align 8
  %m_expr_array_manager.i.i284 = getelementptr inbounds %class.ast_manager, ptr %125, i64 0, i32 3
  br label %if.end.i.i.i285

if.then.i.i.i298:                                 ; preds = %sw.epilog.i.i.i294
  invoke void @_ZN14parray_managerIN11ast_manager17expr_array_configEE6rerootERNS2_3refE(ptr noundef nonnull align 8 dereferenceable(32) %m_expr_array_manager.i.i284, ptr noundef nonnull align 8 dereferenceable(12) %m_forms.i257)
          to label %.noexc306 unwind label %lpad81

.noexc306:                                        ; preds = %if.then.i.i.i298
  %126 = load ptr, ptr %m_forms.i257, align 8
  %127 = getelementptr inbounds %"struct.parray_manager<ast_manager::expr_array_config>::cell", ptr %126, i64 0, i32 3
  %128 = load ptr, ptr %127, align 8
  %arrayidx.i.i.i300 = getelementptr inbounds ptr, ptr %128, i64 %indvars.iv1427
  br label %invoke.cont84

if.end.i.i.i285:                                  ; preds = %sw.epilog.i.i.i294, %for.body72
  %c.017.in.i.i.i286 = phi ptr [ %m_forms.i257, %for.body72 ], [ %c.1.in.i.i.i295, %sw.epilog.i.i.i294 ]
  %trail_sz.016.i.i.i287 = phi i32 [ 0, %for.body72 ], [ %trail_sz.1.i.i.i296, %sw.epilog.i.i.i294 ]
  %c.017.i.i.i288 = load ptr, ptr %c.017.in.i.i.i286, align 8
  %bf.load.i.i.i.i289 = load i32, ptr %c.017.i.i.i288, align 8
  %bf.lshr.i.i.i.i290 = lshr i32 %bf.load.i.i.i.i289, 30
  switch i32 %bf.lshr.i.i.i.i290, label %if.end.unreachabledefault.i.i.i305 [
    i32 0, label %sw.bb.i.i.i301
    i32 1, label %sw.bb.i.i.i301
    i32 2, label %sw.epilog.i.i.i294
    i32 3, label %sw.bb12.i.i.i291
  ]

sw.bb.i.i.i301:                                   ; preds = %if.end.i.i.i285, %if.end.i.i.i285
  %129 = getelementptr inbounds %"struct.parray_manager<ast_manager::expr_array_config>::cell", ptr %c.017.i.i.i288, i64 0, i32 1
  %130 = load i32, ptr %129, align 4
  %131 = zext i32 %130 to i64
  %cmp4.i.i.i302 = icmp eq i64 %indvars.iv1427, %131
  br i1 %cmp4.i.i.i302, label %if.then5.i.i.i303, label %sw.epilog.i.i.i294

if.then5.i.i.i303:                                ; preds = %sw.bb.i.i.i301
  %m_elem.i.i.i.i304 = getelementptr inbounds %"struct.parray_manager<ast_manager::expr_array_config>::cell", ptr %c.017.i.i.i288, i64 0, i32 2
  br label %invoke.cont84

sw.bb12.i.i.i291:                                 ; preds = %if.end.i.i.i285
  %132 = getelementptr inbounds %"struct.parray_manager<ast_manager::expr_array_config>::cell", ptr %c.017.i.i.i288, i64 0, i32 3
  %133 = load ptr, ptr %132, align 8
  %arrayidx14.i.i.i293 = getelementptr inbounds ptr, ptr %133, i64 %indvars.iv1427
  br label %invoke.cont84

if.end.unreachabledefault.i.i.i305:               ; preds = %if.end.i.i.i285
  unreachable

sw.epilog.i.i.i294:                               ; preds = %sw.bb.i.i.i301, %if.end.i.i.i285
  %c.1.in.i.i.i295 = getelementptr inbounds %"struct.parray_manager<ast_manager::expr_array_config>::cell", ptr %c.017.i.i.i288, i64 0, i32 3
  %trail_sz.1.i.i.i296 = add nuw nsw i32 %trail_sz.016.i.i.i287, 1
  %exitcond.i.i.i297 = icmp eq i32 %trail_sz.1.i.i.i296, 17
  br i1 %exitcond.i.i.i297, label %if.then.i.i.i298, label %if.end.i.i.i285, !llvm.loop !10

invoke.cont84:                                    ; preds = %sw.bb12.i.i.i291, %if.then5.i.i.i303, %.noexc306
  %cond.in.i280 = phi ptr [ %arrayidx.i.i.i300, %.noexc306 ], [ %arrayidx14.i.i.i293, %sw.bb12.i.i.i291 ], [ %m_elem.i.i.i.i304, %if.then5.i.i.i303 ]
  %cond.i281 = load ptr, ptr %cond.in.i280, align 8
  call void @llvm.lifetime.start.p0(i64 4, ptr nonnull %k.i)
  %m_kind.i.i.i.i.i1078 = getelementptr inbounds %class.ast, ptr %cond.i281, i64 0, i32 1
  %bf.load.i.i.i.i.i1079 = load i32, ptr %m_kind.i.i.i.i.i1078, align 4
  %bf.clear.i.i.i.i.i1080 = and i32 %bf.load.i.i.i.i.i1079, 65535
  %cmp.i.i.i.i1081 = icmp eq i32 %bf.clear.i.i.i.i.i1080, 0
  br i1 %cmp.i.i.i.i1081, label %land.rhs.i.i.i.i1083, label %lor.rhs.i

land.rhs.i.i.i.i1083:                             ; preds = %invoke.cont84
  %m_decl.i.i.i.i.i1084 = getelementptr inbounds %class.app, ptr %cond.i281, i64 0, i32 1
  %134 = load ptr, ptr %m_decl.i.i.i.i.i1084, align 8
  %m_info.i.i.i.i.i.i1085 = getelementptr inbounds %class.decl, ptr %134, i64 0, i32 2
  %135 = load ptr, ptr %m_info.i.i.i.i.i.i1085, align 8
  %tobool.not.i.i.i.i.i.i1086 = icmp eq ptr %135, null
  br i1 %tobool.not.i.i.i.i.i.i1086, label %lor.rhs.i, label %_ZNK17arith_recognizers5is_leEPK4expr.exit.i.i1087

_ZNK17arith_recognizers5is_leEPK4expr.exit.i.i1087: ; preds = %land.rhs.i.i.i.i1083
  %136 = load i32, ptr %135, align 8
  %cmp.i.i.i.i.i.i.i1088 = icmp eq i32 %136, 5
  %m_kind.i.i.i.i.i.i.i1089 = getelementptr inbounds %class.decl_info, ptr %135, i64 0, i32 1
  %137 = load i32, ptr %m_kind.i.i.i.i.i.i.i1089, align 4
  %cmp2.i.i.i.i.i.i.i1090 = icmp eq i32 %137, 2
  %138 = select i1 %cmp.i.i.i.i.i.i.i1088, i1 %cmp2.i.i.i.i.i.i.i1090, i1 false
  br i1 %138, label %land.lhs.true.i.i1120, label %_ZNK17arith_recognizers5is_geEPK4expr.exit.i.i1091

land.lhs.true.i.i1120:                            ; preds = %_ZNK17arith_recognizers5is_leEPK4expr.exit.i.i1087
  %m_num_args.i.i.i1121 = getelementptr inbounds %class.app, ptr %cond.i281, i64 0, i32 2
  %139 = load i32, ptr %m_num_args.i.i.i1121, align 8
  %cmp.i.i1122 = icmp eq i32 %139, 2
  br i1 %cmp.i.i1122, label %_ZNK17arith_recognizers5is_leEPK4exprRPS0_S4_.exit.i1123, label %lor.rhs.i

_ZNK17arith_recognizers5is_leEPK4exprRPS0_S4_.exit.i1123: ; preds = %land.lhs.true.i.i1120
  %arrayidx.i.i.i1124 = getelementptr inbounds %class.app, ptr %cond.i281, i64 0, i32 3, i64 0
  %arrayidx.i4.i.i1125 = getelementptr inbounds %class.app, ptr %cond.i281, i64 0, i32 3, i64 1
  br label %land.lhs.true.i1101

_ZNK17arith_recognizers5is_geEPK4expr.exit.i.i1091: ; preds = %_ZNK17arith_recognizers5is_leEPK4expr.exit.i.i1087
  %cmp2.i.i.i.i.i.i13.i1094 = icmp eq i32 %137, 3
  %140 = select i1 %cmp.i.i.i.i.i.i.i1088, i1 %cmp2.i.i.i.i.i.i13.i1094, i1 false
  br i1 %140, label %land.lhs.true.i14.i1095, label %lor.rhs.i

land.lhs.true.i14.i1095:                          ; preds = %_ZNK17arith_recognizers5is_geEPK4expr.exit.i.i1091
  %m_num_args.i.i15.i1096 = getelementptr inbounds %class.app, ptr %cond.i281, i64 0, i32 2
  %141 = load i32, ptr %m_num_args.i.i15.i1096, align 8
  %cmp.i16.i1097 = icmp eq i32 %141, 2
  br i1 %cmp.i16.i1097, label %_ZNK17arith_recognizers5is_geEPK4exprRPS0_S4_.exit.i1098, label %lor.rhs.i

_ZNK17arith_recognizers5is_geEPK4exprRPS0_S4_.exit.i1098: ; preds = %land.lhs.true.i14.i1095
  %arrayidx.i.i18.i1099 = getelementptr inbounds %class.app, ptr %cond.i281, i64 0, i32 3, i64 0
  %arrayidx.i4.i19.i1100 = getelementptr inbounds %class.app, ptr %cond.i281, i64 0, i32 3, i64 1
  br label %land.lhs.true.i1101

land.lhs.true.i1101:                              ; preds = %_ZNK17arith_recognizers5is_geEPK4exprRPS0_S4_.exit.i1098, %_ZNK17arith_recognizers5is_leEPK4exprRPS0_S4_.exit.i1123
  %e1.2.in.i1102 = phi ptr [ %arrayidx.i.i.i1124, %_ZNK17arith_recognizers5is_leEPK4exprRPS0_S4_.exit.i1123 ], [ %arrayidx.i4.i19.i1100, %_ZNK17arith_recognizers5is_geEPK4exprRPS0_S4_.exit.i1098 ]
  %e2.2.in.i1103 = phi ptr [ %arrayidx.i4.i.i1125, %_ZNK17arith_recognizers5is_leEPK4exprRPS0_S4_.exit.i1123 ], [ %arrayidx.i.i18.i1099, %_ZNK17arith_recognizers5is_geEPK4exprRPS0_S4_.exit.i1098 ]
  %e2.2.i1104 = load ptr, ptr %e2.2.in.i1103, align 8
  %e1.2.i1105 = load ptr, ptr %e1.2.in.i1102, align 8
  %call4.i1127 = invoke noundef zeroext i1 @_ZN12eq2bv_tactic17is_var_const_pairEP4exprS1_Rj(ptr noundef nonnull align 8 dereferenceable(864) %this, ptr noundef %e2.2.i1104, ptr noundef %e1.2.i1105, ptr noundef nonnull align 4 dereferenceable(4) %k.i)
          to label %call4.i.noexc1126 unwind label %lpad81

call4.i.noexc1126:                                ; preds = %land.lhs.true.i1101
  br i1 %call4.i1127, label %if.then.i1106, label %call4.i.noexc1126.lor.rhs.i_crit_edge

call4.i.noexc1126.lor.rhs.i_crit_edge:            ; preds = %call4.i.noexc1126
  %bf.load.i.i.i.i.i.pre = load i32, ptr %m_kind.i.i.i.i.i1078, align 4
  br label %lor.rhs.i

if.then.i1106:                                    ; preds = %call4.i.noexc1126
  %tobool.not.i.i1107 = icmp eq ptr %e2.2.i1104, null
  br i1 %tobool.not.i.i1107, label %if.end.i.i1111, label %_ZN11ast_manager7inc_refEP3ast.exit.i.i1108

_ZN11ast_manager7inc_refEP3ast.exit.i.i1108:      ; preds = %if.then.i1106
  %m_ref_count.i.i.i.i1109 = getelementptr inbounds %class.ast, ptr %e2.2.i1104, i64 0, i32 2
  %142 = load i32, ptr %m_ref_count.i.i.i.i1109, align 4
  %inc.i.i.i.i1110 = add i32 %142, 1
  store i32 %inc.i.i.i.i1110, ptr %m_ref_count.i.i.i.i1109, align 4
  br label %if.end.i.i1111

if.end.i.i1111:                                   ; preds = %_ZN11ast_manager7inc_refEP3ast.exit.i.i1108, %if.then.i1106
  %143 = load ptr, ptr %var, align 8
  %tobool.not.i3.i.i1112 = icmp eq ptr %143, null
  br i1 %tobool.not.i3.i.i1112, label %land.lhs.true, label %if.then.i.i.i.i1113

if.then.i.i.i.i1113:                              ; preds = %if.end.i.i1111
  %144 = load ptr, ptr %m_manager.i274, align 8
  %m_ref_count.i.i.i.i.i1115 = getelementptr inbounds %class.ast, ptr %143, i64 0, i32 2
  %145 = load i32, ptr %m_ref_count.i.i.i.i.i1115, align 4
  %dec.i.i.i.i.i1116 = add i32 %145, -1
  store i32 %dec.i.i.i.i.i1116, ptr %m_ref_count.i.i.i.i.i1115, align 4
  %cmp.i.i.i20.i1117 = icmp eq i32 %dec.i.i.i.i.i1116, 0
  br i1 %cmp.i.i.i20.i1117, label %if.then2.i.i.i.i1119, label %land.lhs.true

if.then2.i.i.i.i1119:                             ; preds = %if.then.i.i.i.i1113
  invoke void @_ZN11ast_manager11delete_nodeEP3ast(ptr noundef nonnull align 8 dereferenceable(976) %144, ptr noundef nonnull %143)
          to label %land.lhs.true unwind label %lpad81

lor.rhs.i:                                        ; preds = %call4.i.noexc1126.lor.rhs.i_crit_edge, %land.lhs.true.i.i1120, %land.lhs.true.i14.i1095, %_ZNK17arith_recognizers5is_geEPK4expr.exit.i.i1091, %invoke.cont84, %land.rhs.i.i.i.i1083
  %bf.load.i.i.i.i.i = phi i32 [ %bf.load.i.i.i.i.i.pre, %call4.i.noexc1126.lor.rhs.i_crit_edge ], [ %bf.load.i.i.i.i.i1079, %land.lhs.true.i.i1120 ], [ %bf.load.i.i.i.i.i1079, %land.lhs.true.i14.i1095 ], [ %bf.load.i.i.i.i.i1079, %_ZNK17arith_recognizers5is_geEPK4expr.exit.i.i1091 ], [ %bf.load.i.i.i.i.i1079, %invoke.cont84 ], [ %bf.load.i.i.i.i.i1079, %land.rhs.i.i.i.i1083 ]
  %bf.clear.i.i.i.i.i = and i32 %bf.load.i.i.i.i.i, 65535
  %cmp.i.i.i.i1065 = icmp eq i32 %bf.clear.i.i.i.i.i, 0
  br i1 %cmp.i.i.i.i1065, label %land.rhs.i.i.i.i1066, label %invoke.cont86.thread

land.rhs.i.i.i.i1066:                             ; preds = %lor.rhs.i
  %m_decl.i.i.i.i.i = getelementptr inbounds %class.app, ptr %cond.i281, i64 0, i32 1
  %146 = load ptr, ptr %m_decl.i.i.i.i.i, align 8
  %m_info.i.i.i.i.i.i = getelementptr inbounds %class.decl, ptr %146, i64 0, i32 2
  %147 = load ptr, ptr %m_info.i.i.i.i.i.i, align 8
  %tobool.not.i.i.i.i.i.i = icmp eq ptr %147, null
  br i1 %tobool.not.i.i.i.i.i.i, label %invoke.cont86.thread, label %_ZNK17arith_recognizers5is_leEPK4expr.exit.i.i

_ZNK17arith_recognizers5is_leEPK4expr.exit.i.i:   ; preds = %land.rhs.i.i.i.i1066
  %148 = load i32, ptr %147, align 8
  %cmp.i.i.i.i.i.i.i1067 = icmp eq i32 %148, 5
  %m_kind.i.i.i.i.i.i.i1068 = getelementptr inbounds %class.decl_info, ptr %147, i64 0, i32 1
  %149 = load i32, ptr %m_kind.i.i.i.i.i.i.i1068, align 4
  %cmp2.i.i.i.i.i.i.i = icmp eq i32 %149, 2
  %150 = select i1 %cmp.i.i.i.i.i.i.i1067, i1 %cmp2.i.i.i.i.i.i.i, i1 false
  br i1 %150, label %land.lhs.true.i.i, label %_ZNK17arith_recognizers5is_geEPK4expr.exit.i.i

land.lhs.true.i.i:                                ; preds = %_ZNK17arith_recognizers5is_leEPK4expr.exit.i.i
  %m_num_args.i.i.i = getelementptr inbounds %class.app, ptr %cond.i281, i64 0, i32 2
  %151 = load i32, ptr %m_num_args.i.i.i, align 8
  %cmp.i.i1074 = icmp eq i32 %151, 2
  br i1 %cmp.i.i1074, label %_ZNK17arith_recognizers5is_leEPK4exprRPS0_S4_.exit.i, label %invoke.cont86.thread

_ZNK17arith_recognizers5is_leEPK4exprRPS0_S4_.exit.i: ; preds = %land.lhs.true.i.i
  %arrayidx.i.i.i1075 = getelementptr inbounds %class.app, ptr %cond.i281, i64 0, i32 3, i64 0
  %arrayidx.i4.i.i = getelementptr inbounds %class.app, ptr %cond.i281, i64 0, i32 3, i64 1
  br label %land.lhs.true.i

_ZNK17arith_recognizers5is_geEPK4expr.exit.i.i:   ; preds = %_ZNK17arith_recognizers5is_leEPK4expr.exit.i.i
  %cmp2.i.i.i.i.i.i13.i = icmp eq i32 %149, 3
  %152 = select i1 %cmp.i.i.i.i.i.i.i1067, i1 %cmp2.i.i.i.i.i.i13.i, i1 false
  br i1 %152, label %land.lhs.true.i14.i, label %invoke.cont86.thread

land.lhs.true.i14.i:                              ; preds = %_ZNK17arith_recognizers5is_geEPK4expr.exit.i.i
  %m_num_args.i.i15.i = getelementptr inbounds %class.app, ptr %cond.i281, i64 0, i32 2
  %153 = load i32, ptr %m_num_args.i.i15.i, align 8
  %cmp.i16.i = icmp eq i32 %153, 2
  br i1 %cmp.i16.i, label %_ZNK17arith_recognizers5is_geEPK4exprRPS0_S4_.exit.i, label %invoke.cont86.thread

_ZNK17arith_recognizers5is_geEPK4exprRPS0_S4_.exit.i: ; preds = %land.lhs.true.i14.i
  %arrayidx.i.i18.i = getelementptr inbounds %class.app, ptr %cond.i281, i64 0, i32 3, i64 0
  %arrayidx.i4.i19.i = getelementptr inbounds %class.app, ptr %cond.i281, i64 0, i32 3, i64 1
  br label %land.lhs.true.i

land.lhs.true.i:                                  ; preds = %_ZNK17arith_recognizers5is_geEPK4exprRPS0_S4_.exit.i, %_ZNK17arith_recognizers5is_leEPK4exprRPS0_S4_.exit.i
  %e1.2.in.i = phi ptr [ %arrayidx.i.i.i1075, %_ZNK17arith_recognizers5is_leEPK4exprRPS0_S4_.exit.i ], [ %arrayidx.i4.i19.i, %_ZNK17arith_recognizers5is_geEPK4exprRPS0_S4_.exit.i ]
  %e2.2.in.i = phi ptr [ %arrayidx.i4.i.i, %_ZNK17arith_recognizers5is_leEPK4exprRPS0_S4_.exit.i ], [ %arrayidx.i.i18.i, %_ZNK17arith_recognizers5is_geEPK4exprRPS0_S4_.exit.i ]
  %e2.2.i = load ptr, ptr %e2.2.in.i, align 8
  %e1.2.i = load ptr, ptr %e1.2.in.i, align 8
  %call4.i1076 = invoke noundef zeroext i1 @_ZN12eq2bv_tactic17is_var_const_pairEP4exprS1_Rj(ptr noundef nonnull align 8 dereferenceable(864) %this, ptr noundef %e1.2.i, ptr noundef %e2.2.i, ptr noundef nonnull align 4 dereferenceable(4) %k.i)
          to label %call4.i.noexc unwind label %lpad81

call4.i.noexc:                                    ; preds = %land.lhs.true.i
  br i1 %call4.i1076, label %if.then.i, label %invoke.cont86.thread

if.then.i:                                        ; preds = %call4.i.noexc
  %tobool.not.i.i1069 = icmp eq ptr %e1.2.i, null
  br i1 %tobool.not.i.i1069, label %if.end.i.i1072, label %_ZN11ast_manager7inc_refEP3ast.exit.i.i

_ZN11ast_manager7inc_refEP3ast.exit.i.i:          ; preds = %if.then.i
  %m_ref_count.i.i.i.i1070 = getelementptr inbounds %class.ast, ptr %e1.2.i, i64 0, i32 2
  %154 = load i32, ptr %m_ref_count.i.i.i.i1070, align 4
  %inc.i.i.i.i1071 = add i32 %154, 1
  store i32 %inc.i.i.i.i1071, ptr %m_ref_count.i.i.i.i1070, align 4
  br label %if.end.i.i1072

if.end.i.i1072:                                   ; preds = %_ZN11ast_manager7inc_refEP3ast.exit.i.i, %if.then.i
  %155 = load ptr, ptr %var, align 8
  %tobool.not.i3.i.i = icmp eq ptr %155, null
  br i1 %tobool.not.i3.i.i, label %land.lhs.true, label %if.then.i.i.i.i1073

if.then.i.i.i.i1073:                              ; preds = %if.end.i.i1072
  %156 = load ptr, ptr %m_manager.i274, align 8
  %m_ref_count.i.i.i.i.i = getelementptr inbounds %class.ast, ptr %155, i64 0, i32 2
  %157 = load i32, ptr %m_ref_count.i.i.i.i.i, align 4
  %dec.i.i.i.i.i = add i32 %157, -1
  store i32 %dec.i.i.i.i.i, ptr %m_ref_count.i.i.i.i.i, align 4
  %cmp.i.i.i20.i = icmp eq i32 %dec.i.i.i.i.i, 0
  br i1 %cmp.i.i.i20.i, label %if.then2.i.i.i.i, label %land.lhs.true

if.then2.i.i.i.i:                                 ; preds = %if.then.i.i.i.i1073
  invoke void @_ZN11ast_manager11delete_nodeEP3ast(ptr noundef nonnull align 8 dereferenceable(976) %156, ptr noundef nonnull %155)
          to label %land.lhs.true unwind label %lpad81

invoke.cont86.thread:                             ; preds = %call4.i.noexc, %land.lhs.true.i14.i, %_ZNK17arith_recognizers5is_geEPK4expr.exit.i.i, %lor.rhs.i, %land.rhs.i.i.i.i1066, %land.lhs.true.i.i
  call void @llvm.lifetime.end.p0(i64 4, ptr nonnull %k.i)
  br label %if.end164

land.lhs.true:                                    ; preds = %if.end.i.i1072, %if.then.i.i.i.i1073, %if.then2.i.i.i.i, %if.then2.i.i.i.i1119, %if.then.i.i.i.i1113, %if.end.i.i1111
  %158 = phi ptr [ %e2.2.i1104, %if.end.i.i1111 ], [ %e2.2.i1104, %if.then.i.i.i.i1113 ], [ %e2.2.i1104, %if.then2.i.i.i.i1119 ], [ %e1.2.i, %if.then2.i.i.i.i ], [ %e1.2.i, %if.then.i.i.i.i1073 ], [ %e1.2.i, %if.end.i.i1072 ]
  store ptr %158, ptr %var, align 8
  call void @llvm.lifetime.end.p0(i64 4, ptr nonnull %k.i)
  %159 = load i32, ptr %158, align 4
  %160 = load i32, ptr %m_marks.i80, align 8
  %cmp.i.i310 = icmp ult i32 %159, %160
  br i1 %cmp.i.i310, label %invoke.cont91, label %if.then93

invoke.cont91:                                    ; preds = %land.lhs.true
  %161 = load ptr, ptr %m_data.i.i74, align 8
  %div1.i.i.i.i = lshr i32 %159, 5
  %idxprom.i.i.i.i = zext nneg i32 %div1.i.i.i.i to i64
  %arrayidx.i.i.i.i = getelementptr inbounds i32, ptr %161, i64 %idxprom.i.i.i.i
  %162 = load i32, ptr %arrayidx.i.i.i.i, align 4
  %rem.i.i.i.i = and i32 %159, 31
  %shl.i.i.i.i = shl nuw i32 1, %rem.i.i.i.i
  %and.i.i.i = and i32 %162, %shl.i.i.i.i
  %cmp.i.i.i311.not = icmp eq i32 %and.i.i.i, 0
  br i1 %cmp.i.i.i311.not, label %if.then93, label %if.end164

if.then93:                                        ; preds = %land.lhs.true, %invoke.cont91
  %163 = load ptr, ptr %m, align 8
  %m_proof_mode.i = getelementptr inbounds %class.ast_manager, ptr %163, i64 0, i32 7
  %164 = load i32, ptr %m_proof_mode.i, align 8
  %cmp.i312.not = icmp eq i32 %164, 0
  br i1 %cmp.i312.not, label %invoke.cont122, label %if.then97

if.then97:                                        ; preds = %if.then93
  %165 = load ptr, ptr %g, align 8
  %m_inconsistent.i.i313 = getelementptr inbounds %class.goal, ptr %165, i64 0, i32 10
  %bf.load.i.i314 = load i32, ptr %m_inconsistent.i.i313, align 8
  %166 = and i32 %bf.load.i.i314, 536870912
  %tobool.i.not.i315 = icmp eq i32 %166, 0
  %167 = load ptr, ptr %165, align 8
  br i1 %tobool.i.not.i315, label %cond.false.i320, label %cond.true.i316

cond.true.i316:                                   ; preds = %if.then97
  %m_false.i.i317 = getelementptr inbounds %class.ast_manager, ptr %167, i64 0, i32 16
  br label %invoke.cont101

cond.false.i320:                                  ; preds = %if.then97
  %m_forms.i321 = getelementptr inbounds %class.goal, ptr %165, i64 0, i32 7
  %m_expr_array_manager.i.i322 = getelementptr inbounds %class.ast_manager, ptr %167, i64 0, i32 3
  br label %if.end.i.i.i323

if.then.i.i.i336:                                 ; preds = %sw.epilog.i.i.i332
  invoke void @_ZN14parray_managerIN11ast_manager17expr_array_configEE6rerootERNS2_3refE(ptr noundef nonnull align 8 dereferenceable(32) %m_expr_array_manager.i.i322, ptr noundef nonnull align 8 dereferenceable(12) %m_forms.i321)
          to label %.noexc344 unwind label %lpad81

.noexc344:                                        ; preds = %if.then.i.i.i336
  %168 = load ptr, ptr %m_forms.i321, align 8
  %169 = getelementptr inbounds %"struct.parray_manager<ast_manager::expr_array_config>::cell", ptr %168, i64 0, i32 3
  %170 = load ptr, ptr %169, align 8
  %arrayidx.i.i.i338 = getelementptr inbounds ptr, ptr %170, i64 %indvars.iv1427
  %.pre1431 = load ptr, ptr %m, align 8
  br label %invoke.cont101

if.end.i.i.i323:                                  ; preds = %sw.epilog.i.i.i332, %cond.false.i320
  %c.017.in.i.i.i324 = phi ptr [ %m_forms.i321, %cond.false.i320 ], [ %c.1.in.i.i.i333, %sw.epilog.i.i.i332 ]
  %trail_sz.016.i.i.i325 = phi i32 [ 0, %cond.false.i320 ], [ %trail_sz.1.i.i.i334, %sw.epilog.i.i.i332 ]
  %c.017.i.i.i326 = load ptr, ptr %c.017.in.i.i.i324, align 8
  %bf.load.i.i.i.i327 = load i32, ptr %c.017.i.i.i326, align 8
  %bf.lshr.i.i.i.i328 = lshr i32 %bf.load.i.i.i.i327, 30
  switch i32 %bf.lshr.i.i.i.i328, label %if.end.unreachabledefault.i.i.i343 [
    i32 0, label %sw.bb.i.i.i339
    i32 1, label %sw.bb.i.i.i339
    i32 2, label %sw.epilog.i.i.i332
    i32 3, label %sw.bb12.i.i.i329
  ]

sw.bb.i.i.i339:                                   ; preds = %if.end.i.i.i323, %if.end.i.i.i323
  %171 = getelementptr inbounds %"struct.parray_manager<ast_manager::expr_array_config>::cell", ptr %c.017.i.i.i326, i64 0, i32 1
  %172 = load i32, ptr %171, align 4
  %173 = zext i32 %172 to i64
  %cmp4.i.i.i340 = icmp eq i64 %indvars.iv1427, %173
  br i1 %cmp4.i.i.i340, label %if.then5.i.i.i341, label %sw.epilog.i.i.i332

if.then5.i.i.i341:                                ; preds = %sw.bb.i.i.i339
  %m_elem.i.i.i.i342 = getelementptr inbounds %"struct.parray_manager<ast_manager::expr_array_config>::cell", ptr %c.017.i.i.i326, i64 0, i32 2
  br label %invoke.cont101

sw.bb12.i.i.i329:                                 ; preds = %if.end.i.i.i323
  %174 = getelementptr inbounds %"struct.parray_manager<ast_manager::expr_array_config>::cell", ptr %c.017.i.i.i326, i64 0, i32 3
  %175 = load ptr, ptr %174, align 8
  %arrayidx14.i.i.i331 = getelementptr inbounds ptr, ptr %175, i64 %indvars.iv1427
  br label %invoke.cont101

if.end.unreachabledefault.i.i.i343:               ; preds = %if.end.i.i.i323
  unreachable

sw.epilog.i.i.i332:                               ; preds = %sw.bb.i.i.i339, %if.end.i.i.i323
  %c.1.in.i.i.i333 = getelementptr inbounds %"struct.parray_manager<ast_manager::expr_array_config>::cell", ptr %c.017.i.i.i326, i64 0, i32 3
  %trail_sz.1.i.i.i334 = add nuw nsw i32 %trail_sz.016.i.i.i325, 1
  %exitcond.i.i.i335 = icmp eq i32 %trail_sz.1.i.i.i334, 17
  br i1 %exitcond.i.i.i335, label %if.then.i.i.i336, label %if.end.i.i.i323, !llvm.loop !10

invoke.cont101:                                   ; preds = %sw.bb12.i.i.i329, %if.then5.i.i.i341, %.noexc344, %cond.true.i316
  %176 = phi ptr [ %163, %cond.true.i316 ], [ %.pre1431, %.noexc344 ], [ %163, %sw.bb12.i.i.i329 ], [ %163, %if.then5.i.i.i341 ]
  %cond.in.i318 = phi ptr [ %m_false.i.i317, %cond.true.i316 ], [ %arrayidx.i.i.i338, %.noexc344 ], [ %arrayidx14.i.i.i331, %sw.bb12.i.i.i329 ], [ %m_elem.i.i.i.i342, %if.then5.i.i.i341 ]
  %cond.i319 = load ptr, ptr %cond.in.i318, align 8
  %m_true.i = getelementptr inbounds %class.ast_manager, ptr %176, i64 0, i32 15
  %177 = load ptr, ptr %m_true.i, align 8
  %call107 = invoke noundef ptr @_ZN11ast_manager10mk_rewriteEP4exprS1_(ptr noundef nonnull align 8 dereferenceable(976) %163, ptr noundef %cond.i319, ptr noundef %177)
          to label %invoke.cont106 unwind label %lpad81

invoke.cont106:                                   ; preds = %invoke.cont101
  %tobool.not.i = icmp eq ptr %call107, null
  br i1 %tobool.not.i, label %if.end.i, label %_ZN11ast_manager7inc_refEP3ast.exit.i

_ZN11ast_manager7inc_refEP3ast.exit.i:            ; preds = %invoke.cont106
  %m_ref_count.i.i.i346 = getelementptr inbounds %class.ast, ptr %call107, i64 0, i32 2
  %178 = load i32, ptr %m_ref_count.i.i.i346, align 4
  %inc.i.i.i347 = add i32 %178, 1
  store i32 %inc.i.i.i347, ptr %m_ref_count.i.i.i346, align 4
  br label %if.end.i

if.end.i:                                         ; preds = %_ZN11ast_manager7inc_refEP3ast.exit.i, %invoke.cont106
  %179 = load ptr, ptr %new_pr, align 8
  %tobool.not.i3.i = icmp eq ptr %179, null
  br i1 %tobool.not.i3.i, label %invoke.cont108, label %if.then.i.i.i348

if.then.i.i.i348:                                 ; preds = %if.end.i
  %180 = load ptr, ptr %m_manager.i273, align 8
  %m_ref_count.i.i.i.i349 = getelementptr inbounds %class.ast, ptr %179, i64 0, i32 2
  %181 = load i32, ptr %m_ref_count.i.i.i.i349, align 4
  %dec.i.i.i.i = add i32 %181, -1
  store i32 %dec.i.i.i.i, ptr %m_ref_count.i.i.i.i349, align 4
  %cmp.i.i.i350 = icmp eq i32 %dec.i.i.i.i, 0
  br i1 %cmp.i.i.i350, label %if.then2.i.i.i, label %invoke.cont108

if.then2.i.i.i:                                   ; preds = %if.then.i.i.i348
  invoke void @_ZN11ast_manager11delete_nodeEP3ast(ptr noundef nonnull align 8 dereferenceable(976) %180, ptr noundef nonnull %179)
          to label %invoke.cont108 unwind label %lpad81

invoke.cont108:                                   ; preds = %if.then.i.i.i348, %if.end.i, %if.then2.i.i.i
  store ptr %call107, ptr %new_pr, align 8
  %182 = load ptr, ptr %m, align 8
  %183 = load ptr, ptr %g, align 8
  %m_proofs.i352 = getelementptr inbounds %class.goal, ptr %183, i64 0, i32 8
  %184 = load ptr, ptr %m_proofs.i352, align 8
  %cmp.i.i.i353 = icmp eq ptr %184, null
  br i1 %cmp.i.i.i353, label %invoke.cont113, label %while.body.i.i.i354

while.body.i.i.i354:                              ; preds = %invoke.cont108, %sw.bb.i.i.i392
  %c.0.i.i.i355 = phi ptr [ %186, %sw.bb.i.i.i392 ], [ %184, %invoke.cont108 ]
  %bf.load.i.i.i.i356 = load i32, ptr %c.0.i.i.i355, align 8
  %bf.lshr.i.i.i.i357 = lshr i32 %bf.load.i.i.i.i356, 30
  switch i32 %bf.lshr.i.i.i.i357, label %while.body.unreachabledefault.i.i.i393 [
    i32 0, label %sw.bb.i.i.i392
    i32 1, label %sw.bb3.i.i.i390
    i32 2, label %sw.bb5.i.i.i388
    i32 3, label %sw.bb7.i.i.i358
  ]

sw.bb.i.i.i392:                                   ; preds = %while.body.i.i.i354
  %185 = getelementptr inbounds %"struct.parray_manager<ast_manager::expr_array_config>::cell", ptr %c.0.i.i.i355, i64 0, i32 3
  %186 = load ptr, ptr %185, align 8
  br label %while.body.i.i.i354, !llvm.loop !9

sw.bb3.i.i.i390:                                  ; preds = %while.body.i.i.i354
  %187 = getelementptr inbounds %"struct.parray_manager<ast_manager::expr_array_config>::cell", ptr %c.0.i.i.i355, i64 0, i32 1
  %188 = load i32, ptr %187, align 4
  %add.i.i.i391 = add i32 %188, 1
  br label %_ZNK11ast_manager4sizeERKN14parray_managerINS_17expr_array_configEE3refE.exit.i359

sw.bb5.i.i.i388:                                  ; preds = %while.body.i.i.i354
  %189 = getelementptr inbounds %"struct.parray_manager<ast_manager::expr_array_config>::cell", ptr %c.0.i.i.i355, i64 0, i32 1
  %190 = load i32, ptr %189, align 4
  %sub.i.i.i389 = add i32 %190, -1
  br label %_ZNK11ast_manager4sizeERKN14parray_managerINS_17expr_array_configEE3refE.exit.i359

sw.bb7.i.i.i358:                                  ; preds = %while.body.i.i.i354
  %191 = getelementptr inbounds %"struct.parray_manager<ast_manager::expr_array_config>::cell", ptr %c.0.i.i.i355, i64 0, i32 1
  %192 = load i32, ptr %191, align 4
  br label %_ZNK11ast_manager4sizeERKN14parray_managerINS_17expr_array_configEE3refE.exit.i359

while.body.unreachabledefault.i.i.i393:           ; preds = %while.body.i.i.i354
  unreachable

_ZNK11ast_manager4sizeERKN14parray_managerINS_17expr_array_configEE3refE.exit.i359: ; preds = %sw.bb7.i.i.i358, %sw.bb5.i.i.i388, %sw.bb3.i.i.i390
  %retval.0.i.i.i360 = phi i32 [ %192, %sw.bb7.i.i.i358 ], [ %sub.i.i.i389, %sw.bb5.i.i.i388 ], [ %add.i.i.i391, %sw.bb3.i.i.i390 ]
  %193 = zext i32 %retval.0.i.i.i360 to i64
  %cmp.i361 = icmp ult i64 %indvars.iv1427, %193
  br i1 %cmp.i361, label %cond.true.i363, label %invoke.cont113

cond.true.i363:                                   ; preds = %_ZNK11ast_manager4sizeERKN14parray_managerINS_17expr_array_configEE3refE.exit.i359
  %194 = load ptr, ptr %183, align 8
  %m_expr_array_manager.i.i364 = getelementptr inbounds %class.ast_manager, ptr %194, i64 0, i32 3
  br label %if.end.i.i.i365

if.then.i.i.i380:                                 ; preds = %sw.epilog.i.i.i376
  invoke void @_ZN14parray_managerIN11ast_manager17expr_array_configEE6rerootERNS2_3refE(ptr noundef nonnull align 8 dereferenceable(32) %m_expr_array_manager.i.i364, ptr noundef nonnull align 8 dereferenceable(12) %m_proofs.i352)
          to label %.noexc394 unwind label %lpad81

.noexc394:                                        ; preds = %if.then.i.i.i380
  %195 = load ptr, ptr %m_proofs.i352, align 8
  %196 = getelementptr inbounds %"struct.parray_manager<ast_manager::expr_array_config>::cell", ptr %195, i64 0, i32 3
  %197 = load ptr, ptr %196, align 8
  %arrayidx.i.i.i382 = getelementptr inbounds ptr, ptr %197, i64 %indvars.iv1427
  %.pre1432.pre = load ptr, ptr %new_pr, align 8
  br label %_ZNK11ast_manager3getERKN14parray_managerINS_17expr_array_configEE3refEj.exit.i374

if.end.i.i.i365:                                  ; preds = %sw.epilog.i.i.i376, %cond.true.i363
  %c.017.in.i.i.i366 = phi ptr [ %m_proofs.i352, %cond.true.i363 ], [ %c.1.in.i.i.i377, %sw.epilog.i.i.i376 ]
  %trail_sz.016.i.i.i367 = phi i32 [ 0, %cond.true.i363 ], [ %trail_sz.1.i.i.i378, %sw.epilog.i.i.i376 ]
  %c.017.i.i.i368 = load ptr, ptr %c.017.in.i.i.i366, align 8
  %bf.load.i.i.i2.i369 = load i32, ptr %c.017.i.i.i368, align 8
  %bf.lshr.i.i.i3.i370 = lshr i32 %bf.load.i.i.i2.i369, 30
  switch i32 %bf.lshr.i.i.i3.i370, label %if.end.unreachabledefault.i.i.i387 [
    i32 0, label %sw.bb.i.i5.i383
    i32 1, label %sw.bb.i.i5.i383
    i32 2, label %sw.epilog.i.i.i376
    i32 3, label %sw.bb12.i.i.i371
  ]

sw.bb.i.i5.i383:                                  ; preds = %if.end.i.i.i365, %if.end.i.i.i365
  %198 = getelementptr inbounds %"struct.parray_manager<ast_manager::expr_array_config>::cell", ptr %c.017.i.i.i368, i64 0, i32 1
  %199 = load i32, ptr %198, align 4
  %200 = zext i32 %199 to i64
  %cmp4.i.i.i384 = icmp eq i64 %indvars.iv1427, %200
  br i1 %cmp4.i.i.i384, label %if.then5.i.i.i385, label %sw.epilog.i.i.i376

if.then5.i.i.i385:                                ; preds = %sw.bb.i.i5.i383
  %m_elem.i.i.i.i386 = getelementptr inbounds %"struct.parray_manager<ast_manager::expr_array_config>::cell", ptr %c.017.i.i.i368, i64 0, i32 2
  br label %_ZNK11ast_manager3getERKN14parray_managerINS_17expr_array_configEE3refEj.exit.i374

sw.bb12.i.i.i371:                                 ; preds = %if.end.i.i.i365
  %201 = getelementptr inbounds %"struct.parray_manager<ast_manager::expr_array_config>::cell", ptr %c.017.i.i.i368, i64 0, i32 3
  %202 = load ptr, ptr %201, align 8
  %arrayidx14.i.i.i373 = getelementptr inbounds ptr, ptr %202, i64 %indvars.iv1427
  br label %_ZNK11ast_manager3getERKN14parray_managerINS_17expr_array_configEE3refEj.exit.i374

if.end.unreachabledefault.i.i.i387:               ; preds = %if.end.i.i.i365
  unreachable

sw.epilog.i.i.i376:                               ; preds = %sw.bb.i.i5.i383, %if.end.i.i.i365
  %c.1.in.i.i.i377 = getelementptr inbounds %"struct.parray_manager<ast_manager::expr_array_config>::cell", ptr %c.017.i.i.i368, i64 0, i32 3
  %trail_sz.1.i.i.i378 = add nuw nsw i32 %trail_sz.016.i.i.i367, 1
  %exitcond.i.i.i379 = icmp eq i32 %trail_sz.1.i.i.i378, 17
  br i1 %exitcond.i.i.i379, label %if.then.i.i.i380, label %if.end.i.i.i365, !llvm.loop !10

_ZNK11ast_manager3getERKN14parray_managerINS_17expr_array_configEE3refEj.exit.i374: ; preds = %sw.bb12.i.i.i371, %if.then5.i.i.i385, %.noexc394
  %.pre1432 = phi ptr [ %.pre1432.pre, %.noexc394 ], [ %call107, %sw.bb12.i.i.i371 ], [ %call107, %if.then5.i.i.i385 ]
  %retval.0.i.i4.i375 = phi ptr [ %arrayidx.i.i.i382, %.noexc394 ], [ %arrayidx14.i.i.i373, %sw.bb12.i.i.i371 ], [ %m_elem.i.i.i.i386, %if.then5.i.i.i385 ]
  %203 = load ptr, ptr %retval.0.i.i4.i375, align 8
  br label %invoke.cont113

invoke.cont113:                                   ; preds = %_ZNK11ast_manager3getERKN14parray_managerINS_17expr_array_configEE3refEj.exit.i374, %_ZNK11ast_manager4sizeERKN14parray_managerINS_17expr_array_configEE3refE.exit.i359, %invoke.cont108
  %204 = phi ptr [ %.pre1432, %_ZNK11ast_manager3getERKN14parray_managerINS_17expr_array_configEE3refEj.exit.i374 ], [ %call107, %_ZNK11ast_manager4sizeERKN14parray_managerINS_17expr_array_configEE3refE.exit.i359 ], [ %call107, %invoke.cont108 ]
  %cond.i362 = phi ptr [ %203, %_ZNK11ast_manager3getERKN14parray_managerINS_17expr_array_configEE3refEj.exit.i374 ], [ null, %_ZNK11ast_manager4sizeERKN14parray_managerINS_17expr_array_configEE3refE.exit.i359 ], [ null, %invoke.cont108 ]
  %call118 = invoke noundef ptr @_ZN11ast_manager15mk_modus_ponensEP3appS1_(ptr noundef nonnull align 8 dereferenceable(976) %182, ptr noundef %cond.i362, ptr noundef %204)
          to label %invoke.cont117 unwind label %lpad81

invoke.cont117:                                   ; preds = %invoke.cont113
  %tobool.not.i396 = icmp eq ptr %call118, null
  br i1 %tobool.not.i396, label %if.end.i400, label %_ZN11ast_manager7inc_refEP3ast.exit.i397

_ZN11ast_manager7inc_refEP3ast.exit.i397:         ; preds = %invoke.cont117
  %m_ref_count.i.i.i398 = getelementptr inbounds %class.ast, ptr %call118, i64 0, i32 2
  %205 = load i32, ptr %m_ref_count.i.i.i398, align 4
  %inc.i.i.i399 = add i32 %205, 1
  store i32 %inc.i.i.i399, ptr %m_ref_count.i.i.i398, align 4
  br label %if.end.i400

if.end.i400:                                      ; preds = %_ZN11ast_manager7inc_refEP3ast.exit.i397, %invoke.cont117
  %206 = load ptr, ptr %new_pr, align 8
  %tobool.not.i3.i401 = icmp eq ptr %206, null
  br i1 %tobool.not.i3.i401, label %_ZN7obj_refI3app11ast_managerEaSEPS0_.exit409, label %if.then.i.i.i402

if.then.i.i.i402:                                 ; preds = %if.end.i400
  %207 = load ptr, ptr %m_manager.i273, align 8
  %m_ref_count.i.i.i.i404 = getelementptr inbounds %class.ast, ptr %206, i64 0, i32 2
  %208 = load i32, ptr %m_ref_count.i.i.i.i404, align 4
  %dec.i.i.i.i405 = add i32 %208, -1
  store i32 %dec.i.i.i.i405, ptr %m_ref_count.i.i.i.i404, align 4
  %cmp.i.i.i406 = icmp eq i32 %dec.i.i.i.i405, 0
  br i1 %cmp.i.i.i406, label %if.then2.i.i.i407, label %_ZN7obj_refI3app11ast_managerEaSEPS0_.exit409

if.then2.i.i.i407:                                ; preds = %if.then.i.i.i402
  invoke void @_ZN11ast_manager11delete_nodeEP3ast(ptr noundef nonnull align 8 dereferenceable(976) %207, ptr noundef nonnull %206)
          to label %_ZN7obj_refI3app11ast_managerEaSEPS0_.exit409 unwind label %lpad81

_ZN7obj_refI3app11ast_managerEaSEPS0_.exit409:    ; preds = %if.then2.i.i.i407, %if.end.i400, %if.then.i.i.i402
  store ptr %call118, ptr %new_pr, align 8
  br label %invoke.cont122

lpad81:                                           ; preds = %invoke.cont271.invoke, %if.then2.i.i.i.i1222, %land.lhs.true.i1204, %if.then2.i.i.i.i1170, %land.lhs.true.i1152, %if.then2.i.i.i.i1119, %land.lhs.true.i1101, %if.then2.i.i.i.i, %land.lhs.true.i, %if.then.i.i.i805, %if.then2.i.i.i780, %if.then.i.i.i753, %if.then2.i.i.i722, %if.then.i.i.i701, %if.then.i.i.i665, %if.then.i.i.i632, %if.then2.i.i.i606, %if.then.i.i.i579, %if.then2.i.i.i548, %if.then.i.i.i527, %if.then2.i.i.i500, %land.lhs.true171, %if.then.i.i.i468, %if.then2.i.i.i407, %if.then.i.i.i380, %if.then2.i.i.i, %if.then.i.i.i336, %if.then.i.i.i298, %invoke.cont254, %invoke.cont242, %invoke.cont220, %invoke.cont201, %invoke.cont190, %invoke.cont113, %invoke.cont101
  %209 = landingpad { ptr, i32 }
          cleanup
  br label %ehcleanup

invoke.cont122:                                   ; preds = %if.then93, %_ZN7obj_refI3app11ast_managerEaSEPS0_.exit409
  store i8 1, ptr %strict, align 1
  store i32 0, ptr %v, align 8
  %bf.load.i.i.i = load i8, ptr %m_kind.i.i.i, align 4
  %bf.clear3.i.i.i = and i8 %bf.load.i.i.i, -4
  store i8 %bf.clear3.i.i.i, ptr %m_kind.i.i.i, align 4
  store ptr null, ptr %m_ptr.i.i.i, align 8
  store i32 1, ptr %m_den.i.i, align 8
  %bf.load.i2.i.i = load i8, ptr %m_kind.i1.i.i, align 4
  %bf.clear3.i3.i.i = and i8 %bf.load.i2.i.i, -4
  store i8 %bf.clear3.i3.i.i, ptr %m_kind.i1.i.i, align 4
  store ptr null, ptr %m_ptr.i4.i.i, align 8
  %call128 = invoke noundef zeroext i1 @_ZNK13bound_manager9has_upperEP4exprR8rationalRb(ptr noundef nonnull align 8 dereferenceable(128) %m_bounds, ptr noundef nonnull %158, ptr noundef nonnull align 8 dereferenceable(32) %v, ptr noundef nonnull align 1 dereferenceable(1) %strict)
          to label %invoke.cont127 unwind label %lpad124

invoke.cont127:                                   ; preds = %invoke.cont122
  br i1 %call128, label %land.lhs.true129, label %lor.rhs

land.lhs.true129:                                 ; preds = %invoke.cont127
  %210 = load i8, ptr %strict, align 1
  %211 = and i8 %210, 1
  %tobool.not = icmp eq i8 %211, 0
  br i1 %tobool.not, label %land.lhs.true130, label %lor.rhs

land.lhs.true130:                                 ; preds = %land.lhs.true129
  %bf.load.i.i.i.i.i.i.i = load i8, ptr %m_kind.i1.i.i, align 4
  %bf.clear.i.i.i.i.i.i.i = and i8 %bf.load.i.i.i.i.i.i.i, 1
  %cmp.i.i.i.i.i.i.i = icmp eq i8 %bf.clear.i.i.i.i.i.i.i, 0
  %212 = load i32, ptr %m_den.i.i, align 8
  %cmp.i.i.i.i.i.i = icmp eq i32 %212, 1
  %213 = select i1 %cmp.i.i.i.i.i.i.i, i1 %cmp.i.i.i.i.i.i, i1 false
  br i1 %213, label %_ZNK8rational9is_uint64Ev.exit.i, label %lor.rhs

_ZNK8rational9is_uint64Ev.exit.i:                 ; preds = %land.lhs.true130
  %214 = load ptr, ptr @_ZN8rational13g_mpq_managerE, align 8
  %call.i.i.i.i410412 = invoke noundef zeroext i1 @_ZNK11mpz_managerILb1EE9is_uint64ERK3mpz(ptr noundef nonnull align 8 dereferenceable(600) %214, ptr noundef nonnull align 8 dereferenceable(16) %v)
          to label %call.i.i.i.i410.noexc unwind label %lpad124

call.i.i.i.i410.noexc:                            ; preds = %_ZNK8rational9is_uint64Ev.exit.i
  br i1 %call.i.i.i.i410412, label %land.rhs.i, label %lor.rhs

land.rhs.i:                                       ; preds = %call.i.i.i.i410.noexc
  %215 = load ptr, ptr @_ZN8rational13g_mpq_managerE, align 8
  %call.i.i.i1.i413 = invoke noundef i64 @_ZNK11mpz_managerILb1EE10get_uint64ERK3mpz(ptr noundef nonnull align 8 dereferenceable(600) %215, ptr noundef nonnull align 8 dereferenceable(16) %v)
          to label %invoke.cont131 unwind label %lpad124

invoke.cont131:                                   ; preds = %land.rhs.i
  %cmp.i411 = icmp ult i64 %call.i.i.i1.i413, 4294967296
  br i1 %cmp.i411, label %if.then145, label %lor.rhs

lor.rhs:                                          ; preds = %land.lhs.true130, %call.i.i.i.i410.noexc, %invoke.cont131, %land.lhs.true129, %invoke.cont127
  %call137 = invoke noundef zeroext i1 @_ZNK13bound_manager9has_lowerEP4exprR8rationalRb(ptr noundef nonnull align 8 dereferenceable(128) %m_bounds, ptr noundef nonnull %158, ptr noundef nonnull align 8 dereferenceable(32) %v, ptr noundef nonnull align 1 dereferenceable(1) %strict)
          to label %invoke.cont136 unwind label %lpad124

invoke.cont136:                                   ; preds = %lor.rhs
  br i1 %call137, label %land.lhs.true138, label %if.end164.critedge

land.lhs.true138:                                 ; preds = %invoke.cont136
  %216 = load i8, ptr %strict, align 1
  %217 = and i8 %216, 1
  %tobool139.not = icmp eq i8 %217, 0
  br i1 %tobool139.not, label %land.rhs140, label %if.end164.critedge

land.rhs140:                                      ; preds = %land.lhs.true138
  %bf.load.i.i.i.i.i.i.i416 = load i8, ptr %m_kind.i1.i.i, align 4
  %bf.clear.i.i.i.i.i.i.i417 = and i8 %bf.load.i.i.i.i.i.i.i416, 1
  %cmp.i.i.i.i.i.i.i418 = icmp eq i8 %bf.clear.i.i.i.i.i.i.i417, 0
  %218 = load i32, ptr %m_den.i.i, align 8
  %cmp.i.i.i.i.i.i419 = icmp eq i32 %218, 1
  %219 = select i1 %cmp.i.i.i.i.i.i.i418, i1 %cmp.i.i.i.i.i.i419, i1 false
  br i1 %219, label %_ZNK8rational9is_uint64Ev.exit.i420, label %if.end164.critedge

_ZNK8rational9is_uint64Ev.exit.i420:              ; preds = %land.rhs140
  %220 = load ptr, ptr @_ZN8rational13g_mpq_managerE, align 8
  %call.i.i.i.i421424 = invoke noundef zeroext i1 @_ZNK11mpz_managerILb1EE9is_uint64ERK3mpz(ptr noundef nonnull align 8 dereferenceable(600) %220, ptr noundef nonnull align 8 dereferenceable(16) %v)
          to label %call.i.i.i.i421.noexc unwind label %lpad124

call.i.i.i.i421.noexc:                            ; preds = %_ZNK8rational9is_uint64Ev.exit.i420
  br i1 %call.i.i.i.i421424, label %land.rhs.i422, label %if.end164.critedge

land.rhs.i422:                                    ; preds = %call.i.i.i.i421.noexc
  %221 = load ptr, ptr @_ZN8rational13g_mpq_managerE, align 8
  %call.i.i.i1.i426 = invoke noundef i64 @_ZNK11mpz_managerILb1EE10get_uint64ERK3mpz(ptr noundef nonnull align 8 dereferenceable(600) %221, ptr noundef nonnull align 8 dereferenceable(16) %v)
          to label %lor.end unwind label %lpad124

lor.end:                                          ; preds = %land.rhs.i422
  %cmp.i423 = icmp ult i64 %call.i.i.i1.i426, 4294967296
  br i1 %cmp.i423, label %if.then145, label %if.end164.critedge

if.then145:                                       ; preds = %invoke.cont131, %lor.end
  %222 = load ptr, ptr %mc1, align 8
  %m_decl.i = getelementptr inbounds %class.app, ptr %158, i64 0, i32 1
  %223 = load ptr, ptr %m_decl.i, align 8
  %tobool.not.i.i.i.i.i428 = icmp eq ptr %223, null
  br i1 %tobool.not.i.i.i.i.i428, label %_ZN15ref_vector_coreI9func_decl19ref_manager_wrapperIS0_11ast_managerEE7inc_refEPS0_.exit.i.i, label %if.then.i.i.i.i.i429

if.then.i.i.i.i.i429:                             ; preds = %if.then145
  %m_ref_count.i.i.i.i.i.i430 = getelementptr inbounds %class.ast, ptr %223, i64 0, i32 2
  %224 = load i32, ptr %m_ref_count.i.i.i.i.i.i430, align 4
  %inc.i.i.i.i.i.i = add i32 %224, 1
  store i32 %inc.i.i.i.i.i.i, ptr %m_ref_count.i.i.i.i.i.i430, align 4
  br label %_ZN15ref_vector_coreI9func_decl19ref_manager_wrapperIS0_11ast_managerEE7inc_refEPS0_.exit.i.i

_ZN15ref_vector_coreI9func_decl19ref_manager_wrapperIS0_11ast_managerEE7inc_refEPS0_.exit.i.i: ; preds = %if.then.i.i.i.i.i429, %if.then145
  %m_nodes.i.i = getelementptr inbounds %"class.eq2bv_tactic::bvmc", ptr %222, i64 0, i32 3, i32 0, i32 1
  %225 = load ptr, ptr %m_nodes.i.i, align 8
  %cmp.i.i.i431 = icmp eq ptr %225, null
  br i1 %cmp.i.i.i431, label %if.then.i.i.i434, label %lor.lhs.false.i.i.i

lor.lhs.false.i.i.i:                              ; preds = %_ZN15ref_vector_coreI9func_decl19ref_manager_wrapperIS0_11ast_managerEE7inc_refEPS0_.exit.i.i
  %arrayidx.i.i.i432 = getelementptr inbounds i32, ptr %225, i64 -1
  %226 = load i32, ptr %arrayidx.i.i.i432, align 4
  %arrayidx4.i.i.i = getelementptr inbounds i32, ptr %225, i64 -2
  %227 = load i32, ptr %arrayidx4.i.i.i, align 4
  %cmp5.i.i.i = icmp eq i32 %226, %227
  br i1 %cmp5.i.i.i, label %if.then.i.i.i434, label %_ZN15ref_vector_coreI9func_decl19ref_manager_wrapperIS0_11ast_managerEE9push_backEPS0_.exit.i

if.then.i.i.i434:                                 ; preds = %lor.lhs.false.i.i.i, %_ZN15ref_vector_coreI9func_decl19ref_manager_wrapperIS0_11ast_managerEE7inc_refEPS0_.exit.i.i
  invoke void @_ZN6vectorIP9func_declLb0EjE13expand_vectorEv(ptr noundef nonnull align 8 dereferenceable(8) %m_nodes.i.i)
          to label %.noexc436 unwind label %lpad124

.noexc436:                                        ; preds = %if.then.i.i.i434
  %.pre.i.i.i435 = load ptr, ptr %m_nodes.i.i, align 8
  %arrayidx8.phi.trans.insert.i.i.i = getelementptr inbounds i32, ptr %.pre.i.i.i435, i64 -1
  %.pre1.i.i.i = load i32, ptr %arrayidx8.phi.trans.insert.i.i.i, align 4
  br label %_ZN15ref_vector_coreI9func_decl19ref_manager_wrapperIS0_11ast_managerEE9push_backEPS0_.exit.i

_ZN15ref_vector_coreI9func_decl19ref_manager_wrapperIS0_11ast_managerEE9push_backEPS0_.exit.i: ; preds = %.noexc436, %lor.lhs.false.i.i.i
  %228 = phi i32 [ %.pre1.i.i.i, %.noexc436 ], [ %226, %lor.lhs.false.i.i.i ]
  %229 = phi ptr [ %.pre.i.i.i435, %.noexc436 ], [ %225, %lor.lhs.false.i.i.i ]
  %idx.ext.i.i.i = zext i32 %228 to i64
  %add.ptr.i.i.i = getelementptr inbounds ptr, ptr %229, i64 %idx.ext.i.i.i
  store ptr %223, ptr %add.ptr.i.i.i, align 8
  %230 = load ptr, ptr %m_nodes.i.i, align 8
  %arrayidx10.i.i.i = getelementptr inbounds i32, ptr %230, i64 -1
  %231 = load i32, ptr %arrayidx10.i.i.i, align 4
  %inc.i.i.i433 = add i32 %231, 1
  store i32 %inc.i.i.i433, ptr %arrayidx10.i.i.i, align 4
  %m_values.i = getelementptr inbounds %"class.eq2bv_tactic::bvmc", ptr %222, i64 0, i32 4
  %call2.i438 = invoke noundef nonnull align 8 dereferenceable(8) ptr @_ZN6vectorI8rationalLb1EjE9push_backERKS0_(ptr noundef nonnull align 8 dereferenceable(8) %m_values.i, ptr noundef nonnull align 8 dereferenceable(32) %v)
          to label %invoke.cont154 unwind label %lpad124

invoke.cont154:                                   ; preds = %_ZN15ref_vector_coreI9func_decl19ref_manager_wrapperIS0_11ast_managerEE9push_backEPS0_.exit.i
  %232 = load ptr, ptr %g, align 8
  %233 = load ptr, ptr %m, align 8
  %m_true.i439 = getelementptr inbounds %class.ast_manager, ptr %233, i64 0, i32 15
  %234 = load ptr, ptr %m_true.i439, align 8
  %235 = load ptr, ptr %new_pr, align 8
  %236 = trunc i64 %indvars.iv1427 to i32
  invoke void @_ZN4goal6updateEjP4exprP3appPN18dependency_managerIN11ast_manager22expr_dependency_configEE10dependencyE(ptr noundef nonnull align 8 dereferenceable(124) %232, i32 noundef %236, ptr noundef %234, ptr noundef %235, ptr noundef null)
          to label %cleanup unwind label %lpad124

lpad124:                                          ; preds = %_ZN15ref_vector_coreI9func_decl19ref_manager_wrapperIS0_11ast_managerEE9push_backEPS0_.exit.i, %if.then.i.i.i434, %land.rhs.i422, %_ZNK8rational9is_uint64Ev.exit.i420, %land.rhs.i, %_ZNK8rational9is_uint64Ev.exit.i, %invoke.cont154, %lor.rhs, %invoke.cont122
  %237 = landingpad { ptr, i32 }
          cleanup
  call void @_ZN8rationalD2Ev(ptr noundef nonnull align 8 dereferenceable(32) %v) #17
  br label %ehcleanup

cleanup:                                          ; preds = %invoke.cont154
  %238 = load ptr, ptr @_ZN8rational13g_mpq_managerE, align 8
  invoke void @_ZN11mpz_managerILb1EE3delEPS0_R3mpz(ptr noundef %238, ptr noundef nonnull align 8 dereferenceable(16) %v)
          to label %.noexc.i unwind label %terminate.lpad.i

.noexc.i:                                         ; preds = %cleanup
  invoke void @_ZN11mpz_managerILb1EE3delEPS0_R3mpz(ptr noundef %238, ptr noundef nonnull align 8 dereferenceable(16) %m_den.i.i)
          to label %cleanup274 unwind label %terminate.lpad.i

terminate.lpad.i:                                 ; preds = %.noexc.i, %cleanup
  %239 = landingpad { ptr, i32 }
          catch ptr null
  %240 = extractvalue { ptr, i32 } %239, 0
  call void @__clang_call_terminate(ptr %240) #18
  unreachable

if.end164.critedge:                               ; preds = %land.rhs140, %call.i.i.i.i421.noexc, %invoke.cont136, %land.lhs.true138, %lor.end
  %241 = load ptr, ptr @_ZN8rational13g_mpq_managerE, align 8
  invoke void @_ZN11mpz_managerILb1EE3delEPS0_R3mpz(ptr noundef %241, ptr noundef nonnull align 8 dereferenceable(16) %v)
          to label %.noexc.i442 unwind label %terminate.lpad.i441

.noexc.i442:                                      ; preds = %if.end164.critedge
  invoke void @_ZN11mpz_managerILb1EE3delEPS0_R3mpz(ptr noundef %241, ptr noundef nonnull align 8 dereferenceable(16) %m_den.i.i)
          to label %if.end164 unwind label %terminate.lpad.i441

terminate.lpad.i441:                              ; preds = %.noexc.i442, %if.end164.critedge
  %242 = landingpad { ptr, i32 }
          catch ptr null
  %243 = extractvalue { ptr, i32 } %242, 0
  call void @__clang_call_terminate(ptr %243) #18
  unreachable

if.end164:                                        ; preds = %.noexc.i442, %invoke.cont86.thread, %invoke.cont91
  %244 = load ptr, ptr %g, align 8
  %m_inconsistent.i.i445 = getelementptr inbounds %class.goal, ptr %244, i64 0, i32 10
  %bf.load.i.i446 = load i32, ptr %m_inconsistent.i.i445, align 8
  %245 = and i32 %bf.load.i.i446, 536870912
  %tobool.i.not.i447 = icmp eq i32 %245, 0
  %246 = load ptr, ptr %244, align 8
  br i1 %tobool.i.not.i447, label %cond.false.i452, label %cond.true.i448

cond.true.i448:                                   ; preds = %if.end164
  %m_false.i.i449 = getelementptr inbounds %class.ast_manager, ptr %246, i64 0, i32 16
  br label %invoke.cont167

cond.false.i452:                                  ; preds = %if.end164
  %m_forms.i453 = getelementptr inbounds %class.goal, ptr %244, i64 0, i32 7
  %m_expr_array_manager.i.i454 = getelementptr inbounds %class.ast_manager, ptr %246, i64 0, i32 3
  br label %if.end.i.i.i455

if.then.i.i.i468:                                 ; preds = %sw.epilog.i.i.i464
  invoke void @_ZN14parray_managerIN11ast_manager17expr_array_configEE6rerootERNS2_3refE(ptr noundef nonnull align 8 dereferenceable(32) %m_expr_array_manager.i.i454, ptr noundef nonnull align 8 dereferenceable(12) %m_forms.i453)
          to label %.noexc476 unwind label %lpad81

.noexc476:                                        ; preds = %if.then.i.i.i468
  %247 = load ptr, ptr %m_forms.i453, align 8
  %248 = getelementptr inbounds %"struct.parray_manager<ast_manager::expr_array_config>::cell", ptr %247, i64 0, i32 3
  %249 = load ptr, ptr %248, align 8
  %arrayidx.i.i.i470 = getelementptr inbounds ptr, ptr %249, i64 %indvars.iv1427
  br label %invoke.cont167

if.end.i.i.i455:                                  ; preds = %sw.epilog.i.i.i464, %cond.false.i452
  %c.017.in.i.i.i456 = phi ptr [ %m_forms.i453, %cond.false.i452 ], [ %c.1.in.i.i.i465, %sw.epilog.i.i.i464 ]
  %trail_sz.016.i.i.i457 = phi i32 [ 0, %cond.false.i452 ], [ %trail_sz.1.i.i.i466, %sw.epilog.i.i.i464 ]
  %c.017.i.i.i458 = load ptr, ptr %c.017.in.i.i.i456, align 8
  %bf.load.i.i.i.i459 = load i32, ptr %c.017.i.i.i458, align 8
  %bf.lshr.i.i.i.i460 = lshr i32 %bf.load.i.i.i.i459, 30
  switch i32 %bf.lshr.i.i.i.i460, label %if.end.unreachabledefault.i.i.i475 [
    i32 0, label %sw.bb.i.i.i471
    i32 1, label %sw.bb.i.i.i471
    i32 2, label %sw.epilog.i.i.i464
    i32 3, label %sw.bb12.i.i.i461
  ]

sw.bb.i.i.i471:                                   ; preds = %if.end.i.i.i455, %if.end.i.i.i455
  %250 = getelementptr inbounds %"struct.parray_manager<ast_manager::expr_array_config>::cell", ptr %c.017.i.i.i458, i64 0, i32 1
  %251 = load i32, ptr %250, align 4
  %252 = zext i32 %251 to i64
  %cmp4.i.i.i472 = icmp eq i64 %indvars.iv1427, %252
  br i1 %cmp4.i.i.i472, label %if.then5.i.i.i473, label %sw.epilog.i.i.i464

if.then5.i.i.i473:                                ; preds = %sw.bb.i.i.i471
  %m_elem.i.i.i.i474 = getelementptr inbounds %"struct.parray_manager<ast_manager::expr_array_config>::cell", ptr %c.017.i.i.i458, i64 0, i32 2
  br label %invoke.cont167

sw.bb12.i.i.i461:                                 ; preds = %if.end.i.i.i455
  %253 = getelementptr inbounds %"struct.parray_manager<ast_manager::expr_array_config>::cell", ptr %c.017.i.i.i458, i64 0, i32 3
  %254 = load ptr, ptr %253, align 8
  %arrayidx14.i.i.i463 = getelementptr inbounds ptr, ptr %254, i64 %indvars.iv1427
  br label %invoke.cont167

if.end.unreachabledefault.i.i.i475:               ; preds = %if.end.i.i.i455
  unreachable

sw.epilog.i.i.i464:                               ; preds = %sw.bb.i.i.i471, %if.end.i.i.i455
  %c.1.in.i.i.i465 = getelementptr inbounds %"struct.parray_manager<ast_manager::expr_array_config>::cell", ptr %c.017.i.i.i458, i64 0, i32 3
  %trail_sz.1.i.i.i466 = add nuw nsw i32 %trail_sz.016.i.i.i457, 1
  %exitcond.i.i.i467 = icmp eq i32 %trail_sz.1.i.i.i466, 17
  br i1 %exitcond.i.i.i467, label %if.then.i.i.i468, label %if.end.i.i.i455, !llvm.loop !10

invoke.cont167:                                   ; preds = %sw.bb12.i.i.i461, %if.then5.i.i.i473, %.noexc476, %cond.true.i448
  %cond.in.i450 = phi ptr [ %m_false.i.i449, %cond.true.i448 ], [ %arrayidx.i.i.i470, %.noexc476 ], [ %arrayidx14.i.i.i463, %sw.bb12.i.i.i461 ], [ %m_elem.i.i.i.i474, %if.then5.i.i.i473 ]
  %cond.i451 = load ptr, ptr %cond.in.i450, align 8
  call void @llvm.lifetime.start.p0(i64 4, ptr nonnull %k.i478)
  %m_kind.i.i.i.i.i1181 = getelementptr inbounds %class.ast, ptr %cond.i451, i64 0, i32 1
  %bf.load.i.i.i.i.i1182 = load i32, ptr %m_kind.i.i.i.i.i1181, align 4
  %bf.clear.i.i.i.i.i1183 = and i32 %bf.load.i.i.i.i.i1182, 65535
  %cmp.i.i.i.i1184 = icmp eq i32 %bf.clear.i.i.i.i.i1183, 0
  br i1 %cmp.i.i.i.i1184, label %land.rhs.i.i.i.i1186, label %lor.rhs.i479

land.rhs.i.i.i.i1186:                             ; preds = %invoke.cont167
  %m_decl.i.i.i.i.i1187 = getelementptr inbounds %class.app, ptr %cond.i451, i64 0, i32 1
  %255 = load ptr, ptr %m_decl.i.i.i.i.i1187, align 8
  %m_info.i.i.i.i.i.i1188 = getelementptr inbounds %class.decl, ptr %255, i64 0, i32 2
  %256 = load ptr, ptr %m_info.i.i.i.i.i.i1188, align 8
  %tobool.not.i.i.i.i.i.i1189 = icmp eq ptr %256, null
  br i1 %tobool.not.i.i.i.i.i.i1189, label %lor.rhs.i479, label %_ZNK17arith_recognizers5is_leEPK4expr.exit.i.i1190

_ZNK17arith_recognizers5is_leEPK4expr.exit.i.i1190: ; preds = %land.rhs.i.i.i.i1186
  %257 = load i32, ptr %256, align 8
  %cmp.i.i.i.i.i.i.i1191 = icmp eq i32 %257, 5
  %m_kind.i.i.i.i.i.i.i1192 = getelementptr inbounds %class.decl_info, ptr %256, i64 0, i32 1
  %258 = load i32, ptr %m_kind.i.i.i.i.i.i.i1192, align 4
  %cmp2.i.i.i.i.i.i.i1193 = icmp eq i32 %258, 2
  %259 = select i1 %cmp.i.i.i.i.i.i.i1191, i1 %cmp2.i.i.i.i.i.i.i1193, i1 false
  br i1 %259, label %land.lhs.true.i.i1223, label %_ZNK17arith_recognizers5is_geEPK4expr.exit.i.i1194

land.lhs.true.i.i1223:                            ; preds = %_ZNK17arith_recognizers5is_leEPK4expr.exit.i.i1190
  %m_num_args.i.i.i1224 = getelementptr inbounds %class.app, ptr %cond.i451, i64 0, i32 2
  %260 = load i32, ptr %m_num_args.i.i.i1224, align 8
  %cmp.i.i1225 = icmp eq i32 %260, 2
  br i1 %cmp.i.i1225, label %_ZNK17arith_recognizers5is_leEPK4exprRPS0_S4_.exit.i1226, label %lor.rhs.i479

_ZNK17arith_recognizers5is_leEPK4exprRPS0_S4_.exit.i1226: ; preds = %land.lhs.true.i.i1223
  %arrayidx.i.i.i1227 = getelementptr inbounds %class.app, ptr %cond.i451, i64 0, i32 3, i64 0
  %arrayidx.i4.i.i1228 = getelementptr inbounds %class.app, ptr %cond.i451, i64 0, i32 3, i64 1
  br label %land.lhs.true.i1204

_ZNK17arith_recognizers5is_geEPK4expr.exit.i.i1194: ; preds = %_ZNK17arith_recognizers5is_leEPK4expr.exit.i.i1190
  %cmp2.i.i.i.i.i.i13.i1197 = icmp eq i32 %258, 3
  %261 = select i1 %cmp.i.i.i.i.i.i.i1191, i1 %cmp2.i.i.i.i.i.i13.i1197, i1 false
  br i1 %261, label %land.lhs.true.i14.i1198, label %lor.rhs.i479

land.lhs.true.i14.i1198:                          ; preds = %_ZNK17arith_recognizers5is_geEPK4expr.exit.i.i1194
  %m_num_args.i.i15.i1199 = getelementptr inbounds %class.app, ptr %cond.i451, i64 0, i32 2
  %262 = load i32, ptr %m_num_args.i.i15.i1199, align 8
  %cmp.i16.i1200 = icmp eq i32 %262, 2
  br i1 %cmp.i16.i1200, label %_ZNK17arith_recognizers5is_geEPK4exprRPS0_S4_.exit.i1201, label %lor.rhs.i479

_ZNK17arith_recognizers5is_geEPK4exprRPS0_S4_.exit.i1201: ; preds = %land.lhs.true.i14.i1198
  %arrayidx.i.i18.i1202 = getelementptr inbounds %class.app, ptr %cond.i451, i64 0, i32 3, i64 0
  %arrayidx.i4.i19.i1203 = getelementptr inbounds %class.app, ptr %cond.i451, i64 0, i32 3, i64 1
  br label %land.lhs.true.i1204

land.lhs.true.i1204:                              ; preds = %_ZNK17arith_recognizers5is_geEPK4exprRPS0_S4_.exit.i1201, %_ZNK17arith_recognizers5is_leEPK4exprRPS0_S4_.exit.i1226
  %e1.2.in.i1205 = phi ptr [ %arrayidx.i.i.i1227, %_ZNK17arith_recognizers5is_leEPK4exprRPS0_S4_.exit.i1226 ], [ %arrayidx.i4.i19.i1203, %_ZNK17arith_recognizers5is_geEPK4exprRPS0_S4_.exit.i1201 ]
  %e2.2.in.i1206 = phi ptr [ %arrayidx.i4.i.i1228, %_ZNK17arith_recognizers5is_leEPK4exprRPS0_S4_.exit.i1226 ], [ %arrayidx.i.i18.i1202, %_ZNK17arith_recognizers5is_geEPK4exprRPS0_S4_.exit.i1201 ]
  %e2.2.i1207 = load ptr, ptr %e2.2.in.i1206, align 8
  %e1.2.i1208 = load ptr, ptr %e1.2.in.i1205, align 8
  %call4.i1230 = invoke noundef zeroext i1 @_ZN12eq2bv_tactic17is_var_const_pairEP4exprS1_Rj(ptr noundef nonnull align 8 dereferenceable(864) %this, ptr noundef %e2.2.i1207, ptr noundef %e1.2.i1208, ptr noundef nonnull align 4 dereferenceable(4) %k.i478)
          to label %call4.i.noexc1229 unwind label %lpad81

call4.i.noexc1229:                                ; preds = %land.lhs.true.i1204
  br i1 %call4.i1230, label %if.then.i1209, label %call4.i.noexc1229.lor.rhs.i479_crit_edge

call4.i.noexc1229.lor.rhs.i479_crit_edge:         ; preds = %call4.i.noexc1229
  %bf.load.i.i.i.i.i1130.pre = load i32, ptr %m_kind.i.i.i.i.i1181, align 4
  br label %lor.rhs.i479

if.then.i1209:                                    ; preds = %call4.i.noexc1229
  %tobool.not.i.i1210 = icmp eq ptr %e2.2.i1207, null
  br i1 %tobool.not.i.i1210, label %if.end.i.i1214, label %_ZN11ast_manager7inc_refEP3ast.exit.i.i1211

_ZN11ast_manager7inc_refEP3ast.exit.i.i1211:      ; preds = %if.then.i1209
  %m_ref_count.i.i.i.i1212 = getelementptr inbounds %class.ast, ptr %e2.2.i1207, i64 0, i32 2
  %263 = load i32, ptr %m_ref_count.i.i.i.i1212, align 4
  %inc.i.i.i.i1213 = add i32 %263, 1
  store i32 %inc.i.i.i.i1213, ptr %m_ref_count.i.i.i.i1212, align 4
  br label %if.end.i.i1214

if.end.i.i1214:                                   ; preds = %_ZN11ast_manager7inc_refEP3ast.exit.i.i1211, %if.then.i1209
  %264 = load ptr, ptr %var, align 8
  %tobool.not.i3.i.i1215 = icmp eq ptr %264, null
  br i1 %tobool.not.i3.i.i1215, label %land.lhs.true171, label %if.then.i.i.i.i1216

if.then.i.i.i.i1216:                              ; preds = %if.end.i.i1214
  %265 = load ptr, ptr %m_manager.i274, align 8
  %m_ref_count.i.i.i.i.i1218 = getelementptr inbounds %class.ast, ptr %264, i64 0, i32 2
  %266 = load i32, ptr %m_ref_count.i.i.i.i.i1218, align 4
  %dec.i.i.i.i.i1219 = add i32 %266, -1
  store i32 %dec.i.i.i.i.i1219, ptr %m_ref_count.i.i.i.i.i1218, align 4
  %cmp.i.i.i20.i1220 = icmp eq i32 %dec.i.i.i.i.i1219, 0
  br i1 %cmp.i.i.i20.i1220, label %if.then2.i.i.i.i1222, label %land.lhs.true171

if.then2.i.i.i.i1222:                             ; preds = %if.then.i.i.i.i1216
  invoke void @_ZN11ast_manager11delete_nodeEP3ast(ptr noundef nonnull align 8 dereferenceable(976) %265, ptr noundef nonnull %264)
          to label %land.lhs.true171 unwind label %lpad81

lor.rhs.i479:                                     ; preds = %call4.i.noexc1229.lor.rhs.i479_crit_edge, %land.lhs.true.i.i1223, %land.lhs.true.i14.i1198, %_ZNK17arith_recognizers5is_geEPK4expr.exit.i.i1194, %invoke.cont167, %land.rhs.i.i.i.i1186
  %bf.load.i.i.i.i.i1130 = phi i32 [ %bf.load.i.i.i.i.i1130.pre, %call4.i.noexc1229.lor.rhs.i479_crit_edge ], [ %bf.load.i.i.i.i.i1182, %land.lhs.true.i.i1223 ], [ %bf.load.i.i.i.i.i1182, %land.lhs.true.i14.i1198 ], [ %bf.load.i.i.i.i.i1182, %_ZNK17arith_recognizers5is_geEPK4expr.exit.i.i1194 ], [ %bf.load.i.i.i.i.i1182, %invoke.cont167 ], [ %bf.load.i.i.i.i.i1182, %land.rhs.i.i.i.i1186 ]
  %bf.clear.i.i.i.i.i1131 = and i32 %bf.load.i.i.i.i.i1130, 65535
  %cmp.i.i.i.i1132 = icmp eq i32 %bf.clear.i.i.i.i.i1131, 0
  br i1 %cmp.i.i.i.i1132, label %land.rhs.i.i.i.i1134, label %invoke.cont169.thread

land.rhs.i.i.i.i1134:                             ; preds = %lor.rhs.i479
  %m_decl.i.i.i.i.i1135 = getelementptr inbounds %class.app, ptr %cond.i451, i64 0, i32 1
  %267 = load ptr, ptr %m_decl.i.i.i.i.i1135, align 8
  %m_info.i.i.i.i.i.i1136 = getelementptr inbounds %class.decl, ptr %267, i64 0, i32 2
  %268 = load ptr, ptr %m_info.i.i.i.i.i.i1136, align 8
  %tobool.not.i.i.i.i.i.i1137 = icmp eq ptr %268, null
  br i1 %tobool.not.i.i.i.i.i.i1137, label %invoke.cont169.thread, label %_ZNK17arith_recognizers5is_leEPK4expr.exit.i.i1138

_ZNK17arith_recognizers5is_leEPK4expr.exit.i.i1138: ; preds = %land.rhs.i.i.i.i1134
  %269 = load i32, ptr %268, align 8
  %cmp.i.i.i.i.i.i.i1139 = icmp eq i32 %269, 5
  %m_kind.i.i.i.i.i.i.i1140 = getelementptr inbounds %class.decl_info, ptr %268, i64 0, i32 1
  %270 = load i32, ptr %m_kind.i.i.i.i.i.i.i1140, align 4
  %cmp2.i.i.i.i.i.i.i1141 = icmp eq i32 %270, 2
  %271 = select i1 %cmp.i.i.i.i.i.i.i1139, i1 %cmp2.i.i.i.i.i.i.i1141, i1 false
  br i1 %271, label %land.lhs.true.i.i1171, label %_ZNK17arith_recognizers5is_geEPK4expr.exit.i.i1142

land.lhs.true.i.i1171:                            ; preds = %_ZNK17arith_recognizers5is_leEPK4expr.exit.i.i1138
  %m_num_args.i.i.i1172 = getelementptr inbounds %class.app, ptr %cond.i451, i64 0, i32 2
  %272 = load i32, ptr %m_num_args.i.i.i1172, align 8
  %cmp.i.i1173 = icmp eq i32 %272, 2
  br i1 %cmp.i.i1173, label %_ZNK17arith_recognizers5is_leEPK4exprRPS0_S4_.exit.i1174, label %invoke.cont169.thread

_ZNK17arith_recognizers5is_leEPK4exprRPS0_S4_.exit.i1174: ; preds = %land.lhs.true.i.i1171
  %arrayidx.i.i.i1175 = getelementptr inbounds %class.app, ptr %cond.i451, i64 0, i32 3, i64 0
  %arrayidx.i4.i.i1176 = getelementptr inbounds %class.app, ptr %cond.i451, i64 0, i32 3, i64 1
  br label %land.lhs.true.i1152

_ZNK17arith_recognizers5is_geEPK4expr.exit.i.i1142: ; preds = %_ZNK17arith_recognizers5is_leEPK4expr.exit.i.i1138
  %cmp2.i.i.i.i.i.i13.i1145 = icmp eq i32 %270, 3
  %273 = select i1 %cmp.i.i.i.i.i.i.i1139, i1 %cmp2.i.i.i.i.i.i13.i1145, i1 false
  br i1 %273, label %land.lhs.true.i14.i1146, label %invoke.cont169.thread

land.lhs.true.i14.i1146:                          ; preds = %_ZNK17arith_recognizers5is_geEPK4expr.exit.i.i1142
  %m_num_args.i.i15.i1147 = getelementptr inbounds %class.app, ptr %cond.i451, i64 0, i32 2
  %274 = load i32, ptr %m_num_args.i.i15.i1147, align 8
  %cmp.i16.i1148 = icmp eq i32 %274, 2
  br i1 %cmp.i16.i1148, label %_ZNK17arith_recognizers5is_geEPK4exprRPS0_S4_.exit.i1149, label %invoke.cont169.thread

_ZNK17arith_recognizers5is_geEPK4exprRPS0_S4_.exit.i1149: ; preds = %land.lhs.true.i14.i1146
  %arrayidx.i.i18.i1150 = getelementptr inbounds %class.app, ptr %cond.i451, i64 0, i32 3, i64 0
  %arrayidx.i4.i19.i1151 = getelementptr inbounds %class.app, ptr %cond.i451, i64 0, i32 3, i64 1
  br label %land.lhs.true.i1152

land.lhs.true.i1152:                              ; preds = %_ZNK17arith_recognizers5is_geEPK4exprRPS0_S4_.exit.i1149, %_ZNK17arith_recognizers5is_leEPK4exprRPS0_S4_.exit.i1174
  %e1.2.in.i1153 = phi ptr [ %arrayidx.i.i.i1175, %_ZNK17arith_recognizers5is_leEPK4exprRPS0_S4_.exit.i1174 ], [ %arrayidx.i4.i19.i1151, %_ZNK17arith_recognizers5is_geEPK4exprRPS0_S4_.exit.i1149 ]
  %e2.2.in.i1154 = phi ptr [ %arrayidx.i4.i.i1176, %_ZNK17arith_recognizers5is_leEPK4exprRPS0_S4_.exit.i1174 ], [ %arrayidx.i.i18.i1150, %_ZNK17arith_recognizers5is_geEPK4exprRPS0_S4_.exit.i1149 ]
  %e2.2.i1155 = load ptr, ptr %e2.2.in.i1154, align 8
  %e1.2.i1156 = load ptr, ptr %e1.2.in.i1153, align 8
  %call4.i1178 = invoke noundef zeroext i1 @_ZN12eq2bv_tactic17is_var_const_pairEP4exprS1_Rj(ptr noundef nonnull align 8 dereferenceable(864) %this, ptr noundef %e1.2.i1156, ptr noundef %e2.2.i1155, ptr noundef nonnull align 4 dereferenceable(4) %k.i478)
          to label %call4.i.noexc1177 unwind label %lpad81

call4.i.noexc1177:                                ; preds = %land.lhs.true.i1152
  br i1 %call4.i1178, label %if.then.i1157, label %invoke.cont169.thread

if.then.i1157:                                    ; preds = %call4.i.noexc1177
  %tobool.not.i.i1158 = icmp eq ptr %e1.2.i1156, null
  br i1 %tobool.not.i.i1158, label %if.end.i.i1162, label %_ZN11ast_manager7inc_refEP3ast.exit.i.i1159

_ZN11ast_manager7inc_refEP3ast.exit.i.i1159:      ; preds = %if.then.i1157
  %m_ref_count.i.i.i.i1160 = getelementptr inbounds %class.ast, ptr %e1.2.i1156, i64 0, i32 2
  %275 = load i32, ptr %m_ref_count.i.i.i.i1160, align 4
  %inc.i.i.i.i1161 = add i32 %275, 1
  store i32 %inc.i.i.i.i1161, ptr %m_ref_count.i.i.i.i1160, align 4
  br label %if.end.i.i1162

if.end.i.i1162:                                   ; preds = %_ZN11ast_manager7inc_refEP3ast.exit.i.i1159, %if.then.i1157
  %276 = load ptr, ptr %var, align 8
  %tobool.not.i3.i.i1163 = icmp eq ptr %276, null
  br i1 %tobool.not.i3.i.i1163, label %land.lhs.true171, label %if.then.i.i.i.i1164

if.then.i.i.i.i1164:                              ; preds = %if.end.i.i1162
  %277 = load ptr, ptr %m_manager.i274, align 8
  %m_ref_count.i.i.i.i.i1166 = getelementptr inbounds %class.ast, ptr %276, i64 0, i32 2
  %278 = load i32, ptr %m_ref_count.i.i.i.i.i1166, align 4
  %dec.i.i.i.i.i1167 = add i32 %278, -1
  store i32 %dec.i.i.i.i.i1167, ptr %m_ref_count.i.i.i.i.i1166, align 4
  %cmp.i.i.i20.i1168 = icmp eq i32 %dec.i.i.i.i.i1167, 0
  br i1 %cmp.i.i.i20.i1168, label %if.then2.i.i.i.i1170, label %land.lhs.true171

if.then2.i.i.i.i1170:                             ; preds = %if.then.i.i.i.i1164
  invoke void @_ZN11ast_manager11delete_nodeEP3ast(ptr noundef nonnull align 8 dereferenceable(976) %277, ptr noundef nonnull %276)
          to label %land.lhs.true171 unwind label %lpad81

invoke.cont169.thread:                            ; preds = %call4.i.noexc1177, %land.lhs.true.i14.i1146, %_ZNK17arith_recognizers5is_geEPK4expr.exit.i.i1142, %lor.rhs.i479, %land.rhs.i.i.i.i1134, %land.lhs.true.i.i1171
  call void @llvm.lifetime.end.p0(i64 4, ptr nonnull %k.i478)
  br label %if.end217

land.lhs.true171:                                 ; preds = %if.end.i.i1162, %if.then.i.i.i.i1164, %if.then2.i.i.i.i1170, %if.then2.i.i.i.i1222, %if.then.i.i.i.i1216, %if.end.i.i1214
  %storemerge1249 = phi ptr [ %e2.2.i1207, %if.end.i.i1214 ], [ %e2.2.i1207, %if.then.i.i.i.i1216 ], [ %e2.2.i1207, %if.then2.i.i.i.i1222 ], [ %e1.2.i1156, %if.then2.i.i.i.i1170 ], [ %e1.2.i1156, %if.then.i.i.i.i1164 ], [ %e1.2.i1156, %if.end.i.i1162 ]
  store ptr %storemerge1249, ptr %var, align 8
  call void @llvm.lifetime.end.p0(i64 4, ptr nonnull %k.i478)
  %call.i487 = invoke noundef ptr @_ZNK7obj_mapI4expr8rationalE9find_coreEPS0_(ptr noundef nonnull align 8 dereferenceable(24) %m_max, ptr noundef %storemerge1249)
          to label %invoke.cont175 unwind label %lpad81

invoke.cont175:                                   ; preds = %land.lhs.true171
  %cmp.i485.not = icmp eq ptr %call.i487, null
  br i1 %cmp.i485.not, label %if.end217, label %if.then177

if.then177:                                       ; preds = %invoke.cont175
  %279 = load ptr, ptr %m, align 8
  %m_true.i488 = getelementptr inbounds %class.ast_manager, ptr %279, i64 0, i32 15
  %280 = load ptr, ptr %m_true.i488, align 8
  %tobool.not.i489 = icmp eq ptr %280, null
  br i1 %tobool.not.i489, label %if.end.i493, label %_ZN11ast_manager7inc_refEP3ast.exit.i490

_ZN11ast_manager7inc_refEP3ast.exit.i490:         ; preds = %if.then177
  %m_ref_count.i.i.i491 = getelementptr inbounds %class.ast, ptr %280, i64 0, i32 2
  %281 = load i32, ptr %m_ref_count.i.i.i491, align 4
  %inc.i.i.i492 = add i32 %281, 1
  store i32 %inc.i.i.i492, ptr %m_ref_count.i.i.i491, align 4
  br label %if.end.i493

if.end.i493:                                      ; preds = %_ZN11ast_manager7inc_refEP3ast.exit.i490, %if.then177
  %282 = load ptr, ptr %new_curr, align 8
  %tobool.not.i3.i494 = icmp eq ptr %282, null
  br i1 %tobool.not.i3.i494, label %invoke.cont181, label %if.then.i.i.i495

if.then.i.i.i495:                                 ; preds = %if.end.i493
  %283 = load ptr, ptr %m_manager.i, align 8
  %m_ref_count.i.i.i.i497 = getelementptr inbounds %class.ast, ptr %282, i64 0, i32 2
  %284 = load i32, ptr %m_ref_count.i.i.i.i497, align 4
  %dec.i.i.i.i498 = add i32 %284, -1
  store i32 %dec.i.i.i.i498, ptr %m_ref_count.i.i.i.i497, align 4
  %cmp.i.i.i499 = icmp eq i32 %dec.i.i.i.i498, 0
  br i1 %cmp.i.i.i499, label %if.then2.i.i.i500, label %invoke.cont181

if.then2.i.i.i500:                                ; preds = %if.then.i.i.i495
  invoke void @_ZN11ast_manager11delete_nodeEP3ast(ptr noundef nonnull align 8 dereferenceable(976) %283, ptr noundef nonnull %282)
          to label %invoke.cont181 unwind label %lpad81

invoke.cont181:                                   ; preds = %if.then.i.i.i495, %if.end.i493, %if.then2.i.i.i500
  store ptr %280, ptr %new_curr, align 8
  %285 = load ptr, ptr %m, align 8
  %m_proof_mode.i502 = getelementptr inbounds %class.ast_manager, ptr %285, i64 0, i32 7
  %286 = load i32, ptr %m_proof_mode.i502, align 8
  %cmp.i503.not = icmp eq i32 %286, 0
  br i1 %cmp.i503.not, label %invoke.cont181.if.end209_crit_edge, label %if.then186

invoke.cont181.if.end209_crit_edge:               ; preds = %invoke.cont181
  %.pre1437 = load ptr, ptr %new_pr, align 8
  br label %if.end209

if.then186:                                       ; preds = %invoke.cont181
  %287 = load ptr, ptr %g, align 8
  %m_inconsistent.i.i504 = getelementptr inbounds %class.goal, ptr %287, i64 0, i32 10
  %bf.load.i.i505 = load i32, ptr %m_inconsistent.i.i504, align 8
  %288 = and i32 %bf.load.i.i505, 536870912
  %tobool.i.not.i506 = icmp eq i32 %288, 0
  %289 = load ptr, ptr %287, align 8
  br i1 %tobool.i.not.i506, label %cond.false.i511, label %cond.true.i507

cond.true.i507:                                   ; preds = %if.then186
  %m_false.i.i508 = getelementptr inbounds %class.ast_manager, ptr %289, i64 0, i32 16
  br label %invoke.cont190

cond.false.i511:                                  ; preds = %if.then186
  %m_forms.i512 = getelementptr inbounds %class.goal, ptr %287, i64 0, i32 7
  %m_expr_array_manager.i.i513 = getelementptr inbounds %class.ast_manager, ptr %289, i64 0, i32 3
  br label %if.end.i.i.i514

if.then.i.i.i527:                                 ; preds = %sw.epilog.i.i.i523
  invoke void @_ZN14parray_managerIN11ast_manager17expr_array_configEE6rerootERNS2_3refE(ptr noundef nonnull align 8 dereferenceable(32) %m_expr_array_manager.i.i513, ptr noundef nonnull align 8 dereferenceable(12) %m_forms.i512)
          to label %.noexc535 unwind label %lpad81

.noexc535:                                        ; preds = %if.then.i.i.i527
  %290 = load ptr, ptr %m_forms.i512, align 8
  %291 = getelementptr inbounds %"struct.parray_manager<ast_manager::expr_array_config>::cell", ptr %290, i64 0, i32 3
  %292 = load ptr, ptr %291, align 8
  %arrayidx.i.i.i529 = getelementptr inbounds ptr, ptr %292, i64 %indvars.iv1427
  %.pre1434 = load ptr, ptr %new_curr, align 8
  br label %invoke.cont190

if.end.i.i.i514:                                  ; preds = %sw.epilog.i.i.i523, %cond.false.i511
  %c.017.in.i.i.i515 = phi ptr [ %m_forms.i512, %cond.false.i511 ], [ %c.1.in.i.i.i524, %sw.epilog.i.i.i523 ]
  %trail_sz.016.i.i.i516 = phi i32 [ 0, %cond.false.i511 ], [ %trail_sz.1.i.i.i525, %sw.epilog.i.i.i523 ]
  %c.017.i.i.i517 = load ptr, ptr %c.017.in.i.i.i515, align 8
  %bf.load.i.i.i.i518 = load i32, ptr %c.017.i.i.i517, align 8
  %bf.lshr.i.i.i.i519 = lshr i32 %bf.load.i.i.i.i518, 30
  switch i32 %bf.lshr.i.i.i.i519, label %if.end.unreachabledefault.i.i.i534 [
    i32 0, label %sw.bb.i.i.i530
    i32 1, label %sw.bb.i.i.i530
    i32 2, label %sw.epilog.i.i.i523
    i32 3, label %sw.bb12.i.i.i520
  ]

sw.bb.i.i.i530:                                   ; preds = %if.end.i.i.i514, %if.end.i.i.i514
  %293 = getelementptr inbounds %"struct.parray_manager<ast_manager::expr_array_config>::cell", ptr %c.017.i.i.i517, i64 0, i32 1
  %294 = load i32, ptr %293, align 4
  %295 = zext i32 %294 to i64
  %cmp4.i.i.i531 = icmp eq i64 %indvars.iv1427, %295
  br i1 %cmp4.i.i.i531, label %if.then5.i.i.i532, label %sw.epilog.i.i.i523

if.then5.i.i.i532:                                ; preds = %sw.bb.i.i.i530
  %m_elem.i.i.i.i533 = getelementptr inbounds %"struct.parray_manager<ast_manager::expr_array_config>::cell", ptr %c.017.i.i.i517, i64 0, i32 2
  br label %invoke.cont190

sw.bb12.i.i.i520:                                 ; preds = %if.end.i.i.i514
  %296 = getelementptr inbounds %"struct.parray_manager<ast_manager::expr_array_config>::cell", ptr %c.017.i.i.i517, i64 0, i32 3
  %297 = load ptr, ptr %296, align 8
  %arrayidx14.i.i.i522 = getelementptr inbounds ptr, ptr %297, i64 %indvars.iv1427
  br label %invoke.cont190

if.end.unreachabledefault.i.i.i534:               ; preds = %if.end.i.i.i514
  unreachable

sw.epilog.i.i.i523:                               ; preds = %sw.bb.i.i.i530, %if.end.i.i.i514
  %c.1.in.i.i.i524 = getelementptr inbounds %"struct.parray_manager<ast_manager::expr_array_config>::cell", ptr %c.017.i.i.i517, i64 0, i32 3
  %trail_sz.1.i.i.i525 = add nuw nsw i32 %trail_sz.016.i.i.i516, 1
  %exitcond.i.i.i526 = icmp eq i32 %trail_sz.1.i.i.i525, 17
  br i1 %exitcond.i.i.i526, label %if.then.i.i.i527, label %if.end.i.i.i514, !llvm.loop !10

invoke.cont190:                                   ; preds = %sw.bb12.i.i.i520, %if.then5.i.i.i532, %.noexc535, %cond.true.i507
  %298 = phi ptr [ %280, %cond.true.i507 ], [ %.pre1434, %.noexc535 ], [ %280, %sw.bb12.i.i.i520 ], [ %280, %if.then5.i.i.i532 ]
  %cond.in.i509 = phi ptr [ %m_false.i.i508, %cond.true.i507 ], [ %arrayidx.i.i.i529, %.noexc535 ], [ %arrayidx14.i.i.i522, %sw.bb12.i.i.i520 ], [ %m_elem.i.i.i.i533, %if.then5.i.i.i532 ]
  %cond.i510 = load ptr, ptr %cond.in.i509, align 8
  %call195 = invoke noundef ptr @_ZN11ast_manager10mk_rewriteEP4exprS1_(ptr noundef nonnull align 8 dereferenceable(976) %285, ptr noundef %cond.i510, ptr noundef %298)
          to label %invoke.cont194 unwind label %lpad81

invoke.cont194:                                   ; preds = %invoke.cont190
  %tobool.not.i537 = icmp eq ptr %call195, null
  br i1 %tobool.not.i537, label %if.end.i541, label %_ZN11ast_manager7inc_refEP3ast.exit.i538

_ZN11ast_manager7inc_refEP3ast.exit.i538:         ; preds = %invoke.cont194
  %m_ref_count.i.i.i539 = getelementptr inbounds %class.ast, ptr %call195, i64 0, i32 2
  %299 = load i32, ptr %m_ref_count.i.i.i539, align 4
  %inc.i.i.i540 = add i32 %299, 1
  store i32 %inc.i.i.i540, ptr %m_ref_count.i.i.i539, align 4
  br label %if.end.i541

if.end.i541:                                      ; preds = %_ZN11ast_manager7inc_refEP3ast.exit.i538, %invoke.cont194
  %300 = load ptr, ptr %new_pr, align 8
  %tobool.not.i3.i542 = icmp eq ptr %300, null
  br i1 %tobool.not.i3.i542, label %invoke.cont196, label %if.then.i.i.i543

if.then.i.i.i543:                                 ; preds = %if.end.i541
  %301 = load ptr, ptr %m_manager.i273, align 8
  %m_ref_count.i.i.i.i545 = getelementptr inbounds %class.ast, ptr %300, i64 0, i32 2
  %302 = load i32, ptr %m_ref_count.i.i.i.i545, align 4
  %dec.i.i.i.i546 = add i32 %302, -1
  store i32 %dec.i.i.i.i546, ptr %m_ref_count.i.i.i.i545, align 4
  %cmp.i.i.i547 = icmp eq i32 %dec.i.i.i.i546, 0
  br i1 %cmp.i.i.i547, label %if.then2.i.i.i548, label %invoke.cont196

if.then2.i.i.i548:                                ; preds = %if.then.i.i.i543
  invoke void @_ZN11ast_manager11delete_nodeEP3ast(ptr noundef nonnull align 8 dereferenceable(976) %301, ptr noundef nonnull %300)
          to label %invoke.cont196 unwind label %lpad81

invoke.cont196:                                   ; preds = %if.then.i.i.i543, %if.end.i541, %if.then2.i.i.i548
  store ptr %call195, ptr %new_pr, align 8
  %303 = load ptr, ptr %m, align 8
  %304 = load ptr, ptr %g, align 8
  %m_proofs.i551 = getelementptr inbounds %class.goal, ptr %304, i64 0, i32 8
  %305 = load ptr, ptr %m_proofs.i551, align 8
  %cmp.i.i.i552 = icmp eq ptr %305, null
  br i1 %cmp.i.i.i552, label %invoke.cont201, label %while.body.i.i.i553

while.body.i.i.i553:                              ; preds = %invoke.cont196, %sw.bb.i.i.i591
  %c.0.i.i.i554 = phi ptr [ %307, %sw.bb.i.i.i591 ], [ %305, %invoke.cont196 ]
  %bf.load.i.i.i.i555 = load i32, ptr %c.0.i.i.i554, align 8
  %bf.lshr.i.i.i.i556 = lshr i32 %bf.load.i.i.i.i555, 30
  switch i32 %bf.lshr.i.i.i.i556, label %while.body.unreachabledefault.i.i.i592 [
    i32 0, label %sw.bb.i.i.i591
    i32 1, label %sw.bb3.i.i.i589
    i32 2, label %sw.bb5.i.i.i587
    i32 3, label %sw.bb7.i.i.i557
  ]

sw.bb.i.i.i591:                                   ; preds = %while.body.i.i.i553
  %306 = getelementptr inbounds %"struct.parray_manager<ast_manager::expr_array_config>::cell", ptr %c.0.i.i.i554, i64 0, i32 3
  %307 = load ptr, ptr %306, align 8
  br label %while.body.i.i.i553, !llvm.loop !9

sw.bb3.i.i.i589:                                  ; preds = %while.body.i.i.i553
  %308 = getelementptr inbounds %"struct.parray_manager<ast_manager::expr_array_config>::cell", ptr %c.0.i.i.i554, i64 0, i32 1
  %309 = load i32, ptr %308, align 4
  %add.i.i.i590 = add i32 %309, 1
  br label %_ZNK11ast_manager4sizeERKN14parray_managerINS_17expr_array_configEE3refE.exit.i558

sw.bb5.i.i.i587:                                  ; preds = %while.body.i.i.i553
  %310 = getelementptr inbounds %"struct.parray_manager<ast_manager::expr_array_config>::cell", ptr %c.0.i.i.i554, i64 0, i32 1
  %311 = load i32, ptr %310, align 4
  %sub.i.i.i588 = add i32 %311, -1
  br label %_ZNK11ast_manager4sizeERKN14parray_managerINS_17expr_array_configEE3refE.exit.i558

sw.bb7.i.i.i557:                                  ; preds = %while.body.i.i.i553
  %312 = getelementptr inbounds %"struct.parray_manager<ast_manager::expr_array_config>::cell", ptr %c.0.i.i.i554, i64 0, i32 1
  %313 = load i32, ptr %312, align 4
  br label %_ZNK11ast_manager4sizeERKN14parray_managerINS_17expr_array_configEE3refE.exit.i558

while.body.unreachabledefault.i.i.i592:           ; preds = %while.body.i.i.i553
  unreachable

_ZNK11ast_manager4sizeERKN14parray_managerINS_17expr_array_configEE3refE.exit.i558: ; preds = %sw.bb7.i.i.i557, %sw.bb5.i.i.i587, %sw.bb3.i.i.i589
  %retval.0.i.i.i559 = phi i32 [ %313, %sw.bb7.i.i.i557 ], [ %sub.i.i.i588, %sw.bb5.i.i.i587 ], [ %add.i.i.i590, %sw.bb3.i.i.i589 ]
  %314 = zext i32 %retval.0.i.i.i559 to i64
  %cmp.i560 = icmp ult i64 %indvars.iv1427, %314
  br i1 %cmp.i560, label %cond.true.i562, label %invoke.cont201

cond.true.i562:                                   ; preds = %_ZNK11ast_manager4sizeERKN14parray_managerINS_17expr_array_configEE3refE.exit.i558
  %315 = load ptr, ptr %304, align 8
  %m_expr_array_manager.i.i563 = getelementptr inbounds %class.ast_manager, ptr %315, i64 0, i32 3
  br label %if.end.i.i.i564

if.then.i.i.i579:                                 ; preds = %sw.epilog.i.i.i575
  invoke void @_ZN14parray_managerIN11ast_manager17expr_array_configEE6rerootERNS2_3refE(ptr noundef nonnull align 8 dereferenceable(32) %m_expr_array_manager.i.i563, ptr noundef nonnull align 8 dereferenceable(12) %m_proofs.i551)
          to label %.noexc593 unwind label %lpad81

.noexc593:                                        ; preds = %if.then.i.i.i579
  %316 = load ptr, ptr %m_proofs.i551, align 8
  %317 = getelementptr inbounds %"struct.parray_manager<ast_manager::expr_array_config>::cell", ptr %316, i64 0, i32 3
  %318 = load ptr, ptr %317, align 8
  %arrayidx.i.i.i581 = getelementptr inbounds ptr, ptr %318, i64 %indvars.iv1427
  %.pre1435.pre = load ptr, ptr %new_pr, align 8
  br label %_ZNK11ast_manager3getERKN14parray_managerINS_17expr_array_configEE3refEj.exit.i573

if.end.i.i.i564:                                  ; preds = %sw.epilog.i.i.i575, %cond.true.i562
  %c.017.in.i.i.i565 = phi ptr [ %m_proofs.i551, %cond.true.i562 ], [ %c.1.in.i.i.i576, %sw.epilog.i.i.i575 ]
  %trail_sz.016.i.i.i566 = phi i32 [ 0, %cond.true.i562 ], [ %trail_sz.1.i.i.i577, %sw.epilog.i.i.i575 ]
  %c.017.i.i.i567 = load ptr, ptr %c.017.in.i.i.i565, align 8
  %bf.load.i.i.i2.i568 = load i32, ptr %c.017.i.i.i567, align 8
  %bf.lshr.i.i.i3.i569 = lshr i32 %bf.load.i.i.i2.i568, 30
  switch i32 %bf.lshr.i.i.i3.i569, label %if.end.unreachabledefault.i.i.i586 [
    i32 0, label %sw.bb.i.i5.i582
    i32 1, label %sw.bb.i.i5.i582
    i32 2, label %sw.epilog.i.i.i575
    i32 3, label %sw.bb12.i.i.i570
  ]

sw.bb.i.i5.i582:                                  ; preds = %if.end.i.i.i564, %if.end.i.i.i564
  %319 = getelementptr inbounds %"struct.parray_manager<ast_manager::expr_array_config>::cell", ptr %c.017.i.i.i567, i64 0, i32 1
  %320 = load i32, ptr %319, align 4
  %321 = zext i32 %320 to i64
  %cmp4.i.i.i583 = icmp eq i64 %indvars.iv1427, %321
  br i1 %cmp4.i.i.i583, label %if.then5.i.i.i584, label %sw.epilog.i.i.i575

if.then5.i.i.i584:                                ; preds = %sw.bb.i.i5.i582
  %m_elem.i.i.i.i585 = getelementptr inbounds %"struct.parray_manager<ast_manager::expr_array_config>::cell", ptr %c.017.i.i.i567, i64 0, i32 2
  br label %_ZNK11ast_manager3getERKN14parray_managerINS_17expr_array_configEE3refEj.exit.i573

sw.bb12.i.i.i570:                                 ; preds = %if.end.i.i.i564
  %322 = getelementptr inbounds %"struct.parray_manager<ast_manager::expr_array_config>::cell", ptr %c.017.i.i.i567, i64 0, i32 3
  %323 = load ptr, ptr %322, align 8
  %arrayidx14.i.i.i572 = getelementptr inbounds ptr, ptr %323, i64 %indvars.iv1427
  br label %_ZNK11ast_manager3getERKN14parray_managerINS_17expr_array_configEE3refEj.exit.i573

if.end.unreachabledefault.i.i.i586:               ; preds = %if.end.i.i.i564
  unreachable

sw.epilog.i.i.i575:                               ; preds = %sw.bb.i.i5.i582, %if.end.i.i.i564
  %c.1.in.i.i.i576 = getelementptr inbounds %"struct.parray_manager<ast_manager::expr_array_config>::cell", ptr %c.017.i.i.i567, i64 0, i32 3
  %trail_sz.1.i.i.i577 = add nuw nsw i32 %trail_sz.016.i.i.i566, 1
  %exitcond.i.i.i578 = icmp eq i32 %trail_sz.1.i.i.i577, 17
  br i1 %exitcond.i.i.i578, label %if.then.i.i.i579, label %if.end.i.i.i564, !llvm.loop !10

_ZNK11ast_manager3getERKN14parray_managerINS_17expr_array_configEE3refEj.exit.i573: ; preds = %sw.bb12.i.i.i570, %if.then5.i.i.i584, %.noexc593
  %.pre1435 = phi ptr [ %.pre1435.pre, %.noexc593 ], [ %call195, %sw.bb12.i.i.i570 ], [ %call195, %if.then5.i.i.i584 ]
  %retval.0.i.i4.i574 = phi ptr [ %arrayidx.i.i.i581, %.noexc593 ], [ %arrayidx14.i.i.i572, %sw.bb12.i.i.i570 ], [ %m_elem.i.i.i.i585, %if.then5.i.i.i584 ]
  %324 = load ptr, ptr %retval.0.i.i4.i574, align 8
  br label %invoke.cont201

invoke.cont201:                                   ; preds = %_ZNK11ast_manager3getERKN14parray_managerINS_17expr_array_configEE3refEj.exit.i573, %_ZNK11ast_manager4sizeERKN14parray_managerINS_17expr_array_configEE3refE.exit.i558, %invoke.cont196
  %325 = phi ptr [ %.pre1435, %_ZNK11ast_manager3getERKN14parray_managerINS_17expr_array_configEE3refEj.exit.i573 ], [ %call195, %_ZNK11ast_manager4sizeERKN14parray_managerINS_17expr_array_configEE3refE.exit.i558 ], [ %call195, %invoke.cont196 ]
  %cond.i561 = phi ptr [ %324, %_ZNK11ast_manager3getERKN14parray_managerINS_17expr_array_configEE3refEj.exit.i573 ], [ null, %_ZNK11ast_manager4sizeERKN14parray_managerINS_17expr_array_configEE3refE.exit.i558 ], [ null, %invoke.cont196 ]
  %call206 = invoke noundef ptr @_ZN11ast_manager15mk_modus_ponensEP3appS1_(ptr noundef nonnull align 8 dereferenceable(976) %303, ptr noundef %cond.i561, ptr noundef %325)
          to label %invoke.cont205 unwind label %lpad81

invoke.cont205:                                   ; preds = %invoke.cont201
  %tobool.not.i595 = icmp eq ptr %call206, null
  br i1 %tobool.not.i595, label %if.end.i599, label %_ZN11ast_manager7inc_refEP3ast.exit.i596

_ZN11ast_manager7inc_refEP3ast.exit.i596:         ; preds = %invoke.cont205
  %m_ref_count.i.i.i597 = getelementptr inbounds %class.ast, ptr %call206, i64 0, i32 2
  %326 = load i32, ptr %m_ref_count.i.i.i597, align 4
  %inc.i.i.i598 = add i32 %326, 1
  store i32 %inc.i.i.i598, ptr %m_ref_count.i.i.i597, align 4
  br label %if.end.i599

if.end.i599:                                      ; preds = %_ZN11ast_manager7inc_refEP3ast.exit.i596, %invoke.cont205
  %327 = load ptr, ptr %new_pr, align 8
  %tobool.not.i3.i600 = icmp eq ptr %327, null
  br i1 %tobool.not.i3.i600, label %_ZN7obj_refI3app11ast_managerEaSEPS0_.exit608, label %if.then.i.i.i601

if.then.i.i.i601:                                 ; preds = %if.end.i599
  %328 = load ptr, ptr %m_manager.i273, align 8
  %m_ref_count.i.i.i.i603 = getelementptr inbounds %class.ast, ptr %327, i64 0, i32 2
  %329 = load i32, ptr %m_ref_count.i.i.i.i603, align 4
  %dec.i.i.i.i604 = add i32 %329, -1
  store i32 %dec.i.i.i.i604, ptr %m_ref_count.i.i.i.i603, align 4
  %cmp.i.i.i605 = icmp eq i32 %dec.i.i.i.i604, 0
  br i1 %cmp.i.i.i605, label %if.then2.i.i.i606, label %_ZN7obj_refI3app11ast_managerEaSEPS0_.exit608

if.then2.i.i.i606:                                ; preds = %if.then.i.i.i601
  invoke void @_ZN11ast_manager11delete_nodeEP3ast(ptr noundef nonnull align 8 dereferenceable(976) %328, ptr noundef nonnull %327)
          to label %_ZN7obj_refI3app11ast_managerEaSEPS0_.exit608 unwind label %lpad81

_ZN7obj_refI3app11ast_managerEaSEPS0_.exit608:    ; preds = %if.then2.i.i.i606, %if.end.i599, %if.then.i.i.i601
  store ptr %call206, ptr %new_pr, align 8
  %.pre1436 = load ptr, ptr %new_curr, align 8
  br label %if.end209

if.end209:                                        ; preds = %invoke.cont181.if.end209_crit_edge, %_ZN7obj_refI3app11ast_managerEaSEPS0_.exit608
  %330 = phi ptr [ %call206, %_ZN7obj_refI3app11ast_managerEaSEPS0_.exit608 ], [ %.pre1437, %invoke.cont181.if.end209_crit_edge ]
  %331 = phi ptr [ %.pre1436, %_ZN7obj_refI3app11ast_managerEaSEPS0_.exit608 ], [ %280, %invoke.cont181.if.end209_crit_edge ]
  %332 = load ptr, ptr %g, align 8
  br label %invoke.cont271.invoke

if.end217:                                        ; preds = %invoke.cont169.thread, %invoke.cont175
  %333 = load ptr, ptr %g, align 8
  %m_inconsistent.i.i609 = getelementptr inbounds %class.goal, ptr %333, i64 0, i32 10
  %bf.load.i.i610 = load i32, ptr %m_inconsistent.i.i609, align 8
  %334 = and i32 %bf.load.i.i610, 536870912
  %tobool.i.not.i611 = icmp eq i32 %334, 0
  %335 = load ptr, ptr %333, align 8
  br i1 %tobool.i.not.i611, label %cond.false.i616, label %cond.true.i612

cond.true.i612:                                   ; preds = %if.end217
  %m_false.i.i613 = getelementptr inbounds %class.ast_manager, ptr %335, i64 0, i32 16
  br label %invoke.cont220

cond.false.i616:                                  ; preds = %if.end217
  %m_forms.i617 = getelementptr inbounds %class.goal, ptr %333, i64 0, i32 7
  %m_expr_array_manager.i.i618 = getelementptr inbounds %class.ast_manager, ptr %335, i64 0, i32 3
  br label %if.end.i.i.i619

if.then.i.i.i632:                                 ; preds = %sw.epilog.i.i.i628
  invoke void @_ZN14parray_managerIN11ast_manager17expr_array_configEE6rerootERNS2_3refE(ptr noundef nonnull align 8 dereferenceable(32) %m_expr_array_manager.i.i618, ptr noundef nonnull align 8 dereferenceable(12) %m_forms.i617)
          to label %.noexc640 unwind label %lpad81

.noexc640:                                        ; preds = %if.then.i.i.i632
  %336 = load ptr, ptr %m_forms.i617, align 8
  %337 = getelementptr inbounds %"struct.parray_manager<ast_manager::expr_array_config>::cell", ptr %336, i64 0, i32 3
  %338 = load ptr, ptr %337, align 8
  %arrayidx.i.i.i634 = getelementptr inbounds ptr, ptr %338, i64 %indvars.iv1427
  br label %invoke.cont220

if.end.i.i.i619:                                  ; preds = %sw.epilog.i.i.i628, %cond.false.i616
  %c.017.in.i.i.i620 = phi ptr [ %m_forms.i617, %cond.false.i616 ], [ %c.1.in.i.i.i629, %sw.epilog.i.i.i628 ]
  %trail_sz.016.i.i.i621 = phi i32 [ 0, %cond.false.i616 ], [ %trail_sz.1.i.i.i630, %sw.epilog.i.i.i628 ]
  %c.017.i.i.i622 = load ptr, ptr %c.017.in.i.i.i620, align 8
  %bf.load.i.i.i.i623 = load i32, ptr %c.017.i.i.i622, align 8
  %bf.lshr.i.i.i.i624 = lshr i32 %bf.load.i.i.i.i623, 30
  switch i32 %bf.lshr.i.i.i.i624, label %if.end.unreachabledefault.i.i.i639 [
    i32 0, label %sw.bb.i.i.i635
    i32 1, label %sw.bb.i.i.i635
    i32 2, label %sw.epilog.i.i.i628
    i32 3, label %sw.bb12.i.i.i625
  ]

sw.bb.i.i.i635:                                   ; preds = %if.end.i.i.i619, %if.end.i.i.i619
  %339 = getelementptr inbounds %"struct.parray_manager<ast_manager::expr_array_config>::cell", ptr %c.017.i.i.i622, i64 0, i32 1
  %340 = load i32, ptr %339, align 4
  %341 = zext i32 %340 to i64
  %cmp4.i.i.i636 = icmp eq i64 %indvars.iv1427, %341
  br i1 %cmp4.i.i.i636, label %if.then5.i.i.i637, label %sw.epilog.i.i.i628

if.then5.i.i.i637:                                ; preds = %sw.bb.i.i.i635
  %m_elem.i.i.i.i638 = getelementptr inbounds %"struct.parray_manager<ast_manager::expr_array_config>::cell", ptr %c.017.i.i.i622, i64 0, i32 2
  br label %invoke.cont220

sw.bb12.i.i.i625:                                 ; preds = %if.end.i.i.i619
  %342 = getelementptr inbounds %"struct.parray_manager<ast_manager::expr_array_config>::cell", ptr %c.017.i.i.i622, i64 0, i32 3
  %343 = load ptr, ptr %342, align 8
  %arrayidx14.i.i.i627 = getelementptr inbounds ptr, ptr %343, i64 %indvars.iv1427
  br label %invoke.cont220

if.end.unreachabledefault.i.i.i639:               ; preds = %if.end.i.i.i619
  unreachable

sw.epilog.i.i.i628:                               ; preds = %sw.bb.i.i.i635, %if.end.i.i.i619
  %c.1.in.i.i.i629 = getelementptr inbounds %"struct.parray_manager<ast_manager::expr_array_config>::cell", ptr %c.017.i.i.i622, i64 0, i32 3
  %trail_sz.1.i.i.i630 = add nuw nsw i32 %trail_sz.016.i.i.i621, 1
  %exitcond.i.i.i631 = icmp eq i32 %trail_sz.1.i.i.i630, 17
  br i1 %exitcond.i.i.i631, label %if.then.i.i.i632, label %if.end.i.i.i619, !llvm.loop !10

invoke.cont220:                                   ; preds = %sw.bb12.i.i.i625, %if.then5.i.i.i637, %.noexc640, %cond.true.i612
  %cond.in.i614 = phi ptr [ %m_false.i.i613, %cond.true.i612 ], [ %arrayidx.i.i.i634, %.noexc640 ], [ %arrayidx14.i.i.i627, %sw.bb12.i.i.i625 ], [ %m_elem.i.i.i.i638, %if.then5.i.i.i637 ]
  %cond.i615 = load ptr, ptr %cond.in.i614, align 8
  invoke void @_ZN12rewriter_tplIN12eq2bv_tactic15eq_rewriter_cfgEEclEP4exprR7obj_refIS3_11ast_managerERS5_I3appS6_E(ptr noundef nonnull align 8 dereferenceable(536) %m_rw, ptr noundef %cond.i615, ptr noundef nonnull align 8 dereferenceable(16) %new_curr, ptr noundef nonnull align 8 dereferenceable(16) %new_pr)
          to label %invoke.cont222 unwind label %lpad81

invoke.cont222:                                   ; preds = %invoke.cont220
  %344 = load ptr, ptr %g, align 8
  %m_inconsistent.i.i642 = getelementptr inbounds %class.goal, ptr %344, i64 0, i32 10
  %bf.load.i.i643 = load i32, ptr %m_inconsistent.i.i642, align 8
  %345 = and i32 %bf.load.i.i643, 536870912
  %tobool.i.not.i644 = icmp eq i32 %345, 0
  %346 = load ptr, ptr %344, align 8
  br i1 %tobool.i.not.i644, label %cond.false.i649, label %cond.true.i645

cond.true.i645:                                   ; preds = %invoke.cont222
  %m_false.i.i646 = getelementptr inbounds %class.ast_manager, ptr %346, i64 0, i32 16
  br label %invoke.cont225

cond.false.i649:                                  ; preds = %invoke.cont222
  %m_forms.i650 = getelementptr inbounds %class.goal, ptr %344, i64 0, i32 7
  %m_expr_array_manager.i.i651 = getelementptr inbounds %class.ast_manager, ptr %346, i64 0, i32 3
  br label %if.end.i.i.i652

if.then.i.i.i665:                                 ; preds = %sw.epilog.i.i.i661
  invoke void @_ZN14parray_managerIN11ast_manager17expr_array_configEE6rerootERNS2_3refE(ptr noundef nonnull align 8 dereferenceable(32) %m_expr_array_manager.i.i651, ptr noundef nonnull align 8 dereferenceable(12) %m_forms.i650)
          to label %.noexc673 unwind label %lpad81

.noexc673:                                        ; preds = %if.then.i.i.i665
  %347 = load ptr, ptr %m_forms.i650, align 8
  %348 = getelementptr inbounds %"struct.parray_manager<ast_manager::expr_array_config>::cell", ptr %347, i64 0, i32 3
  %349 = load ptr, ptr %348, align 8
  %arrayidx.i.i.i667 = getelementptr inbounds ptr, ptr %349, i64 %indvars.iv1427
  br label %invoke.cont225

if.end.i.i.i652:                                  ; preds = %sw.epilog.i.i.i661, %cond.false.i649
  %c.017.in.i.i.i653 = phi ptr [ %m_forms.i650, %cond.false.i649 ], [ %c.1.in.i.i.i662, %sw.epilog.i.i.i661 ]
  %trail_sz.016.i.i.i654 = phi i32 [ 0, %cond.false.i649 ], [ %trail_sz.1.i.i.i663, %sw.epilog.i.i.i661 ]
  %c.017.i.i.i655 = load ptr, ptr %c.017.in.i.i.i653, align 8
  %bf.load.i.i.i.i656 = load i32, ptr %c.017.i.i.i655, align 8
  %bf.lshr.i.i.i.i657 = lshr i32 %bf.load.i.i.i.i656, 30
  switch i32 %bf.lshr.i.i.i.i657, label %if.end.unreachabledefault.i.i.i672 [
    i32 0, label %sw.bb.i.i.i668
    i32 1, label %sw.bb.i.i.i668
    i32 2, label %sw.epilog.i.i.i661
    i32 3, label %sw.bb12.i.i.i658
  ]

sw.bb.i.i.i668:                                   ; preds = %if.end.i.i.i652, %if.end.i.i.i652
  %350 = getelementptr inbounds %"struct.parray_manager<ast_manager::expr_array_config>::cell", ptr %c.017.i.i.i655, i64 0, i32 1
  %351 = load i32, ptr %350, align 4
  %352 = zext i32 %351 to i64
  %cmp4.i.i.i669 = icmp eq i64 %indvars.iv1427, %352
  br i1 %cmp4.i.i.i669, label %if.then5.i.i.i670, label %sw.epilog.i.i.i661

if.then5.i.i.i670:                                ; preds = %sw.bb.i.i.i668
  %m_elem.i.i.i.i671 = getelementptr inbounds %"struct.parray_manager<ast_manager::expr_array_config>::cell", ptr %c.017.i.i.i655, i64 0, i32 2
  br label %invoke.cont225

sw.bb12.i.i.i658:                                 ; preds = %if.end.i.i.i652
  %353 = getelementptr inbounds %"struct.parray_manager<ast_manager::expr_array_config>::cell", ptr %c.017.i.i.i655, i64 0, i32 3
  %354 = load ptr, ptr %353, align 8
  %arrayidx14.i.i.i660 = getelementptr inbounds ptr, ptr %354, i64 %indvars.iv1427
  br label %invoke.cont225

if.end.unreachabledefault.i.i.i672:               ; preds = %if.end.i.i.i652
  unreachable

sw.epilog.i.i.i661:                               ; preds = %sw.bb.i.i.i668, %if.end.i.i.i652
  %c.1.in.i.i.i662 = getelementptr inbounds %"struct.parray_manager<ast_manager::expr_array_config>::cell", ptr %c.017.i.i.i655, i64 0, i32 3
  %trail_sz.1.i.i.i663 = add nuw nsw i32 %trail_sz.016.i.i.i654, 1
  %exitcond.i.i.i664 = icmp eq i32 %trail_sz.1.i.i.i663, 17
  br i1 %exitcond.i.i.i664, label %if.then.i.i.i665, label %if.end.i.i.i652, !llvm.loop !10

invoke.cont225:                                   ; preds = %sw.bb12.i.i.i658, %if.then5.i.i.i670, %.noexc673, %cond.true.i645
  %cond.in.i647 = phi ptr [ %m_false.i.i646, %cond.true.i645 ], [ %arrayidx.i.i.i667, %.noexc673 ], [ %arrayidx14.i.i.i660, %sw.bb12.i.i.i658 ], [ %m_elem.i.i.i.i671, %if.then5.i.i.i670 ]
  %cond.i648 = load ptr, ptr %cond.in.i647, align 8
  %355 = load ptr, ptr %new_curr, align 8
  %cmp229 = icmp eq ptr %cond.i648, %355
  br i1 %cmp229, label %cleanup274, label %if.end231

if.end231:                                        ; preds = %invoke.cont225
  %356 = load ptr, ptr %m, align 8
  %m_proof_mode.i675 = getelementptr inbounds %class.ast_manager, ptr %356, i64 0, i32 7
  %357 = load i32, ptr %m_proof_mode.i675, align 8
  %cmp.i676.not = icmp eq i32 %357, 0
  %.pre1444 = load ptr, ptr %g, align 8
  %.pre1446 = load ptr, ptr %new_pr, align 8
  br i1 %cmp.i676.not, label %if.end262, label %if.then235

if.then235:                                       ; preds = %if.end231
  %cmp.i677 = icmp eq ptr %.pre1446, null
  br i1 %cmp.i677, label %if.then238, label %if.end250

if.then238:                                       ; preds = %if.then235
  %m_inconsistent.i.i678 = getelementptr inbounds %class.goal, ptr %.pre1444, i64 0, i32 10
  %bf.load.i.i679 = load i32, ptr %m_inconsistent.i.i678, align 8
  %358 = and i32 %bf.load.i.i679, 536870912
  %tobool.i.not.i680 = icmp eq i32 %358, 0
  %359 = load ptr, ptr %.pre1444, align 8
  br i1 %tobool.i.not.i680, label %cond.false.i685, label %cond.true.i681

cond.true.i681:                                   ; preds = %if.then238
  %m_false.i.i682 = getelementptr inbounds %class.ast_manager, ptr %359, i64 0, i32 16
  br label %invoke.cont242

cond.false.i685:                                  ; preds = %if.then238
  %m_forms.i686 = getelementptr inbounds %class.goal, ptr %.pre1444, i64 0, i32 7
  %m_expr_array_manager.i.i687 = getelementptr inbounds %class.ast_manager, ptr %359, i64 0, i32 3
  br label %if.end.i.i.i688

if.then.i.i.i701:                                 ; preds = %sw.epilog.i.i.i697
  invoke void @_ZN14parray_managerIN11ast_manager17expr_array_configEE6rerootERNS2_3refE(ptr noundef nonnull align 8 dereferenceable(32) %m_expr_array_manager.i.i687, ptr noundef nonnull align 8 dereferenceable(12) %m_forms.i686)
          to label %.noexc709 unwind label %lpad81

.noexc709:                                        ; preds = %if.then.i.i.i701
  %360 = load ptr, ptr %m_forms.i686, align 8
  %361 = getelementptr inbounds %"struct.parray_manager<ast_manager::expr_array_config>::cell", ptr %360, i64 0, i32 3
  %362 = load ptr, ptr %361, align 8
  %arrayidx.i.i.i703 = getelementptr inbounds ptr, ptr %362, i64 %indvars.iv1427
  %.pre1438 = load ptr, ptr %new_curr, align 8
  br label %invoke.cont242

if.end.i.i.i688:                                  ; preds = %sw.epilog.i.i.i697, %cond.false.i685
  %c.017.in.i.i.i689 = phi ptr [ %m_forms.i686, %cond.false.i685 ], [ %c.1.in.i.i.i698, %sw.epilog.i.i.i697 ]
  %trail_sz.016.i.i.i690 = phi i32 [ 0, %cond.false.i685 ], [ %trail_sz.1.i.i.i699, %sw.epilog.i.i.i697 ]
  %c.017.i.i.i691 = load ptr, ptr %c.017.in.i.i.i689, align 8
  %bf.load.i.i.i.i692 = load i32, ptr %c.017.i.i.i691, align 8
  %bf.lshr.i.i.i.i693 = lshr i32 %bf.load.i.i.i.i692, 30
  switch i32 %bf.lshr.i.i.i.i693, label %if.end.unreachabledefault.i.i.i708 [
    i32 0, label %sw.bb.i.i.i704
    i32 1, label %sw.bb.i.i.i704
    i32 2, label %sw.epilog.i.i.i697
    i32 3, label %sw.bb12.i.i.i694
  ]

sw.bb.i.i.i704:                                   ; preds = %if.end.i.i.i688, %if.end.i.i.i688
  %363 = getelementptr inbounds %"struct.parray_manager<ast_manager::expr_array_config>::cell", ptr %c.017.i.i.i691, i64 0, i32 1
  %364 = load i32, ptr %363, align 4
  %365 = zext i32 %364 to i64
  %cmp4.i.i.i705 = icmp eq i64 %indvars.iv1427, %365
  br i1 %cmp4.i.i.i705, label %if.then5.i.i.i706, label %sw.epilog.i.i.i697

if.then5.i.i.i706:                                ; preds = %sw.bb.i.i.i704
  %m_elem.i.i.i.i707 = getelementptr inbounds %"struct.parray_manager<ast_manager::expr_array_config>::cell", ptr %c.017.i.i.i691, i64 0, i32 2
  br label %invoke.cont242

sw.bb12.i.i.i694:                                 ; preds = %if.end.i.i.i688
  %366 = getelementptr inbounds %"struct.parray_manager<ast_manager::expr_array_config>::cell", ptr %c.017.i.i.i691, i64 0, i32 3
  %367 = load ptr, ptr %366, align 8
  %arrayidx14.i.i.i696 = getelementptr inbounds ptr, ptr %367, i64 %indvars.iv1427
  br label %invoke.cont242

if.end.unreachabledefault.i.i.i708:               ; preds = %if.end.i.i.i688
  unreachable

sw.epilog.i.i.i697:                               ; preds = %sw.bb.i.i.i704, %if.end.i.i.i688
  %c.1.in.i.i.i698 = getelementptr inbounds %"struct.parray_manager<ast_manager::expr_array_config>::cell", ptr %c.017.i.i.i691, i64 0, i32 3
  %trail_sz.1.i.i.i699 = add nuw nsw i32 %trail_sz.016.i.i.i690, 1
  %exitcond.i.i.i700 = icmp eq i32 %trail_sz.1.i.i.i699, 17
  br i1 %exitcond.i.i.i700, label %if.then.i.i.i701, label %if.end.i.i.i688, !llvm.loop !10

invoke.cont242:                                   ; preds = %sw.bb12.i.i.i694, %if.then5.i.i.i706, %.noexc709, %cond.true.i681
  %368 = phi ptr [ %355, %cond.true.i681 ], [ %.pre1438, %.noexc709 ], [ %355, %sw.bb12.i.i.i694 ], [ %355, %if.then5.i.i.i706 ]
  %cond.in.i683 = phi ptr [ %m_false.i.i682, %cond.true.i681 ], [ %arrayidx.i.i.i703, %.noexc709 ], [ %arrayidx14.i.i.i696, %sw.bb12.i.i.i694 ], [ %m_elem.i.i.i.i707, %if.then5.i.i.i706 ]
  %cond.i684 = load ptr, ptr %cond.in.i683, align 8
  %call247 = invoke noundef ptr @_ZN11ast_manager10mk_rewriteEP4exprS1_(ptr noundef nonnull align 8 dereferenceable(976) %356, ptr noundef %cond.i684, ptr noundef %368)
          to label %invoke.cont246 unwind label %lpad81

invoke.cont246:                                   ; preds = %invoke.cont242
  %tobool.not.i711 = icmp eq ptr %call247, null
  br i1 %tobool.not.i711, label %if.end.i715, label %_ZN11ast_manager7inc_refEP3ast.exit.i712

_ZN11ast_manager7inc_refEP3ast.exit.i712:         ; preds = %invoke.cont246
  %m_ref_count.i.i.i713 = getelementptr inbounds %class.ast, ptr %call247, i64 0, i32 2
  %369 = load i32, ptr %m_ref_count.i.i.i713, align 4
  %inc.i.i.i714 = add i32 %369, 1
  store i32 %inc.i.i.i714, ptr %m_ref_count.i.i.i713, align 4
  br label %if.end.i715

if.end.i715:                                      ; preds = %_ZN11ast_manager7inc_refEP3ast.exit.i712, %invoke.cont246
  %370 = load ptr, ptr %new_pr, align 8
  %tobool.not.i3.i716 = icmp eq ptr %370, null
  br i1 %tobool.not.i3.i716, label %_ZN7obj_refI3app11ast_managerEaSEPS0_.exit724, label %if.then.i.i.i717

if.then.i.i.i717:                                 ; preds = %if.end.i715
  %371 = load ptr, ptr %m_manager.i273, align 8
  %m_ref_count.i.i.i.i719 = getelementptr inbounds %class.ast, ptr %370, i64 0, i32 2
  %372 = load i32, ptr %m_ref_count.i.i.i.i719, align 4
  %dec.i.i.i.i720 = add i32 %372, -1
  store i32 %dec.i.i.i.i720, ptr %m_ref_count.i.i.i.i719, align 4
  %cmp.i.i.i721 = icmp eq i32 %dec.i.i.i.i720, 0
  br i1 %cmp.i.i.i721, label %if.then2.i.i.i722, label %_ZN7obj_refI3app11ast_managerEaSEPS0_.exit724

if.then2.i.i.i722:                                ; preds = %if.then.i.i.i717
  invoke void @_ZN11ast_manager11delete_nodeEP3ast(ptr noundef nonnull align 8 dereferenceable(976) %371, ptr noundef nonnull %370)
          to label %_ZN7obj_refI3app11ast_managerEaSEPS0_.exit724 unwind label %lpad81

_ZN7obj_refI3app11ast_managerEaSEPS0_.exit724:    ; preds = %if.then2.i.i.i722, %if.end.i715, %if.then.i.i.i717
  store ptr %call247, ptr %new_pr, align 8
  %.pre1439 = load ptr, ptr %m, align 8
  %.pre1440 = load ptr, ptr %g, align 8
  br label %if.end250

if.end250:                                        ; preds = %_ZN7obj_refI3app11ast_managerEaSEPS0_.exit724, %if.then235
  %373 = phi ptr [ %call247, %_ZN7obj_refI3app11ast_managerEaSEPS0_.exit724 ], [ %.pre1446, %if.then235 ]
  %374 = phi ptr [ %.pre1440, %_ZN7obj_refI3app11ast_managerEaSEPS0_.exit724 ], [ %.pre1444, %if.then235 ]
  %375 = phi ptr [ %.pre1439, %_ZN7obj_refI3app11ast_managerEaSEPS0_.exit724 ], [ %356, %if.then235 ]
  %m_proofs.i725 = getelementptr inbounds %class.goal, ptr %374, i64 0, i32 8
  %376 = load ptr, ptr %m_proofs.i725, align 8
  %cmp.i.i.i726 = icmp eq ptr %376, null
  br i1 %cmp.i.i.i726, label %invoke.cont254, label %while.body.i.i.i727

while.body.i.i.i727:                              ; preds = %if.end250, %sw.bb.i.i.i765
  %c.0.i.i.i728 = phi ptr [ %378, %sw.bb.i.i.i765 ], [ %376, %if.end250 ]
  %bf.load.i.i.i.i729 = load i32, ptr %c.0.i.i.i728, align 8
  %bf.lshr.i.i.i.i730 = lshr i32 %bf.load.i.i.i.i729, 30
  switch i32 %bf.lshr.i.i.i.i730, label %while.body.unreachabledefault.i.i.i766 [
    i32 0, label %sw.bb.i.i.i765
    i32 1, label %sw.bb3.i.i.i763
    i32 2, label %sw.bb5.i.i.i761
    i32 3, label %sw.bb7.i.i.i731
  ]

sw.bb.i.i.i765:                                   ; preds = %while.body.i.i.i727
  %377 = getelementptr inbounds %"struct.parray_manager<ast_manager::expr_array_config>::cell", ptr %c.0.i.i.i728, i64 0, i32 3
  %378 = load ptr, ptr %377, align 8
  br label %while.body.i.i.i727, !llvm.loop !9

sw.bb3.i.i.i763:                                  ; preds = %while.body.i.i.i727
  %379 = getelementptr inbounds %"struct.parray_manager<ast_manager::expr_array_config>::cell", ptr %c.0.i.i.i728, i64 0, i32 1
  %380 = load i32, ptr %379, align 4
  %add.i.i.i764 = add i32 %380, 1
  br label %_ZNK11ast_manager4sizeERKN14parray_managerINS_17expr_array_configEE3refE.exit.i732

sw.bb5.i.i.i761:                                  ; preds = %while.body.i.i.i727
