; ModuleID = 'bench/z3/original/horn_tactic.cpp.ll'
source_filename = "bench/z3/original/horn_tactic.cpp.ll"
target datalayout = "e-m:e-p270:32:32-p271:32:32-p272:64:64-i64:64-i128:128-f80:128-n8:16:32:64-S128"
target triple = "x86_64-unknown-linux-gnu"

%"class.std::ios_base::Init" = type { i8 }
%class.symbol = type { ptr }
%class.tactic = type <{ %"class.user_propagator::core", i32, [4 x i8] }>
%"class.user_propagator::core" = type { ptr }
%class.horn_tactic = type { %class.tactic.base, i8, %class.params_ref, %class.statistics, ptr }
%class.tactic.base = type <{ %"class.user_propagator::core", i32 }>
%class.params_ref = type { ptr }
%class.statistics = type { %class.svector, %class.svector.0 }
%class.svector = type { %class.vector }
%class.vector = type { ptr }
%class.svector.0 = type { %class.vector.1 }
%class.vector.1 = type { ptr }
%"struct.horn_tactic::imp" = type { ptr, i8, %"class.datalog::register_engine", %"class.datalog::context", %struct.smt_params, %class.expr_free_vars }
%"class.datalog::register_engine" = type { %"class.datalog::register_engine_base", ptr }
%"class.datalog::register_engine_base" = type { ptr }
%"class.datalog::context" = type <{ ptr, ptr, ptr, %class.params_ref, ptr, i8, i8, [6 x i8], %class.symbol, %"class.datalog::dl_decl_util", %class.th_rewriter, %class.var_subst, %"class.datalog::rule_manager", %"class.datalog::context::contains_pred", %"class.datalog::rule_properties", %"class.datalog::rule_transformer", %class.trail_stack, %class.ref_vector.84, %class.bind_variables, %class.obj_map.120, %class.obj_hashtable.125, %class.map.131, %class.obj_map.135, %"class.datalog::rule_set", %"class.datalog::rule_set", %class.expr_free_vars, i32, [4 x i8], %class.ref_vector, %class.svector.8, %class.vector.159, %class.ref_vector, %class.ref, %class.ref.160, ptr, %class.scoped_ptr.161, i8, i8, i8, i8, i32, %class.obj_ref, %class.obj_ref, i32, [4 x i8] }>
%"class.datalog::dl_decl_util" = type <{ ptr, %class.scoped_ptr, %class.scoped_ptr.30, i32, [4 x i8] }>
%class.scoped_ptr = type { ptr }
%class.scoped_ptr.30 = type { ptr }
%class.th_rewriter = type { ptr, %class.params_ref }
%class.var_subst = type { %class.beta_reducer, i8, [7 x i8] }
%class.beta_reducer = type <{ %class.rewriter_tpl, %struct.beta_reducer_cfg, [7 x i8] }>
%class.rewriter_tpl = type { %class.rewriter_core, ptr, i32, %class.ptr_vector.35, %class.var_shifter, %class.inv_var_shifter, %class.obj_ref, %class.obj_ref.47, %class.obj_ref.47, %class.svector.21 }
%class.rewriter_core = type { ptr, ptr, i8, i8, %class.ptr_vector.31, ptr, %class.svector.33, %class.ref_vector, %class.ptr_vector.31, ptr, %class.ref_vector.37, %class.obj_hashtable, ptr, i32, %class.svector.45 }
%class.svector.33 = type { %class.vector.34 }
%class.vector.34 = type { ptr }
%class.ptr_vector.31 = type { %class.vector.32 }
%class.vector.32 = type { ptr }
%class.ref_vector.37 = type { %class.ref_vector_core.38 }
%class.ref_vector_core.38 = type { %class.ref_manager_wrapper.39, %class.ptr_vector.40 }
%class.ref_manager_wrapper.39 = type { ptr }
%class.ptr_vector.40 = type { %class.vector.41 }
%class.vector.41 = type { ptr }
%class.obj_hashtable = type { %class.core_hashtable.base.44, [4 x i8] }
%class.core_hashtable.base.44 = type <{ ptr, i32, i32, i32 }>
%class.svector.45 = type { %class.vector.46 }
%class.vector.46 = type { ptr }
%class.ptr_vector.35 = type { %class.vector.36 }
%class.vector.36 = type { ptr }
%class.var_shifter = type <{ %class.var_shifter_core, i32, i32, i32, [4 x i8] }>
%class.var_shifter_core = type { %class.rewriter_core }
%class.inv_var_shifter = type <{ %class.var_shifter_core, i32, [4 x i8] }>
%class.obj_ref.47 = type { ptr, ptr }
%class.svector.21 = type { %class.vector.22 }
%class.vector.22 = type { ptr }
%struct.beta_reducer_cfg = type { i8 }
%"class.datalog::rule_manager" = type { ptr, ptr, %"class.datalog::rule_counter", %class.used_vars, %class.uint_set, %class.expr_free_vars, %class.ref_vector.37, %class.obj_ref.47, %class.ref_vector, %class.svector.61, %class.hnf, %class.qe_lite, %class.label_rewriter, %"struct.datalog::uninterpreted_function_finder_proc", %"struct.datalog::quantifier_finder_proc", [5 x i8], %class.expr_sparse_mark, %"struct.datalog::fd_finder_proc" }
%"class.datalog::rule_counter" = type { %class.var_counter }
%class.var_counter = type { %class.counter, %class.ast_fast_mark, %class.expr_free_vars, %class.ptr_vector.35, %class.svector.21 }
%class.counter = type { %class.u_map.48 }
%class.u_map.48 = type { %class.map.49 }
%class.map.49 = type { %class.table2map.50 }
%class.table2map.50 = type { %class.core_hashtable.51 }
%class.core_hashtable.51 = type <{ ptr, i32, i32, i32, [4 x i8] }>
%class.ast_fast_mark = type { %class.ptr_buffer }
%class.ptr_buffer = type { %class.buffer }
%class.buffer = type { ptr, i32, i32, [16 x %"union.std::aligned_storage<8, 8>::type"] }
%"union.std::aligned_storage<8, 8>::type" = type { [8 x i8] }
%class.used_vars = type { %class.ptr_vector.53, %class.hashtable, %class.svector.59, i32, i32 }
%class.ptr_vector.53 = type { %class.vector.54 }
%class.vector.54 = type { ptr }
%class.hashtable = type { %class.core_hashtable.base.58, [4 x i8] }
%class.core_hashtable.base.58 = type <{ ptr, i32, i32, i32 }>
%class.svector.59 = type { %class.vector.60 }
%class.vector.60 = type { ptr }
%class.uint_set = type { %class.svector.21 }
%class.svector.61 = type { %class.vector.62 }
%class.vector.62 = type { ptr }
%class.hnf = type { ptr }
%class.qe_lite = type { ptr }
%class.label_rewriter = type { i32, %class.rewriter_tpl.63 }
%class.rewriter_tpl.63 = type { %class.rewriter_core, ptr, i32, %class.ptr_vector.35, %class.var_shifter, %class.inv_var_shifter, %class.obj_ref, %class.obj_ref.47, %class.obj_ref.47, %class.svector.21 }
%"struct.datalog::uninterpreted_function_finder_proc" = type { ptr, %"class.datatype::util", %"class.datalog::dl_decl_util", i8, ptr }
%"class.datatype::util" = type { ptr, i32, ptr, %class.obj_map.64, %class.obj_map.69, %class.obj_map.74, %class.obj_map.25, %class.obj_map.25, %class.obj_map.25, %class.obj_map.79, %class.obj_map.79, %class.obj_map.79, %class.ref_vector.84, %class.ref_vector_core.89, %class.ptr_vector.92, i32, %class.ptr_vector.53 }
%class.obj_map.64 = type { %class.core_hashtable.65 }
%class.core_hashtable.65 = type <{ ptr, i32, i32, i32, [4 x i8] }>
%class.obj_map.69 = type { %class.core_hashtable.70 }
%class.core_hashtable.70 = type <{ ptr, i32, i32, i32, [4 x i8] }>
%class.obj_map.74 = type { %class.core_hashtable.75 }
%class.core_hashtable.75 = type <{ ptr, i32, i32, i32, [4 x i8] }>
%class.obj_map.25 = type { %class.core_hashtable.26 }
%class.core_hashtable.26 = type <{ ptr, i32, i32, i32, [4 x i8] }>
%class.obj_map.79 = type { %class.core_hashtable.80 }
%class.core_hashtable.80 = type <{ ptr, i32, i32, i32, [4 x i8] }>
%class.ref_vector_core.89 = type { %class.ptr_vector.90 }
%class.ptr_vector.90 = type { %class.vector.91 }
%class.vector.91 = type { ptr }
%class.ptr_vector.92 = type { %class.vector.93 }
%class.vector.93 = type { ptr }
%"struct.datalog::quantifier_finder_proc" = type { i8, i8, i8 }
%class.expr_sparse_mark = type { %class.obj_hashtable }
%"struct.datalog::fd_finder_proc" = type <{ ptr, %class.bv_util, i8, [7 x i8] }>
%class.bv_util = type { %class.bv_recognizers, ptr, ptr }
%class.bv_recognizers = type { i32 }
%"class.datalog::context::contains_pred" = type { %class.i_expr_pred, ptr }
%class.i_expr_pred = type { ptr }
%"class.datalog::rule_properties" = type <{ ptr, ptr, ptr, ptr, %"class.datatype::util", %"class.datalog::dl_decl_util", %class.arith_util, %class.bv_util, %class.array_util, %"class.recfun::util", i8, [7 x i8], ptr, %class.obj_map.94, %class.obj_map.99, %class.ptr_vector.104, %class.ptr_vector.104, %class.ptr_vector.104, i8, i8, [6 x i8] }>
%class.arith_util = type { ptr, ptr }
%class.array_util = type { %class.array_recognizers, ptr }
%class.array_recognizers = type { i32 }
%"class.recfun::util" = type { ptr, i32, ptr }
%class.obj_map.94 = type { %class.core_hashtable.95 }
%class.core_hashtable.95 = type <{ ptr, i32, i32, i32, [4 x i8] }>
%class.obj_map.99 = type { %class.core_hashtable.100 }
%class.core_hashtable.100 = type <{ ptr, i32, i32, i32, [4 x i8] }>
%class.ptr_vector.104 = type { %class.vector.105 }
%class.vector.105 = type { ptr }
%"class.datalog::rule_transformer" = type { ptr, ptr, i8, %class.svector.106 }
%class.svector.106 = type { %class.vector.107 }
%class.vector.107 = type { ptr }
%class.trail_stack = type { %class.ptr_vector.108, %class.svector.21, %class.region }
%class.ptr_vector.108 = type { %class.vector.109 }
%class.vector.109 = type { ptr }
%class.region = type { ptr, ptr, ptr, ptr, ptr }
%class.ref_vector.84 = type { %class.ref_vector_core.85 }
%class.ref_vector_core.85 = type { %class.ref_manager_wrapper.86, %class.ptr_vector.87 }
%class.ref_manager_wrapper.86 = type { ptr }
%class.ptr_vector.87 = type { %class.vector.88 }
%class.vector.88 = type { ptr }
%class.bind_variables = type { ptr, %class.ref_vector.37, %class.obj_map.110, %class.obj_map.115, %class.ref_vector, %class.ptr_vector.53, %class.svector.8, %class.ptr_vector.35, %class.ptr_vector.35 }
%class.obj_map.110 = type { %class.core_hashtable.111 }
%class.core_hashtable.111 = type <{ ptr, i32, i32, i32, [4 x i8] }>
%class.obj_map.115 = type { %class.core_hashtable.116 }
%class.core_hashtable.116 = type <{ ptr, i32, i32, i32, [4 x i8] }>
%class.obj_map.120 = type { %class.core_hashtable.121 }
%class.core_hashtable.121 = type <{ ptr, i32, i32, i32, [4 x i8] }>
%class.obj_hashtable.125 = type { %class.core_hashtable.base.129, [4 x i8] }
%class.core_hashtable.base.129 = type <{ ptr, i32, i32, i32 }>
%class.map.131 = type { %class.table2map.132 }
%class.table2map.132 = type { %class.core_hashtable.133 }
%class.core_hashtable.133 = type <{ ptr, i32, i32, i32, [4 x i8] }>
%class.obj_map.135 = type { %class.core_hashtable.136 }
%class.core_hashtable.136 = type <{ ptr, i32, i32, i32, [4 x i8] }>
%"class.datalog::rule_set" = type { ptr, ptr, %class.ref_vector.140, %class.obj_map.143, %"class.datalog::rule_dependencies", %class.scoped_ptr.153, %class.obj_hashtable.125, %class.obj_map.25, %class.obj_map.25, %class.ref_vector.154, %class.ptr_vector.104 }
%class.ref_vector.140 = type { %class.ref_vector_core.141 }
%class.ref_vector_core.141 = type { %class.ref_manager_wrapper.142, %class.ptr_vector.104 }
%class.ref_manager_wrapper.142 = type { ptr }
%class.obj_map.143 = type { %class.core_hashtable.144 }
%class.core_hashtable.144 = type <{ ptr, i32, i32, i32, [4 x i8] }>
%"class.datalog::rule_dependencies" = type { %class.obj_map.148, ptr, %class.ptr_vector.35, %class.expr_sparse_mark, %class.obj_hashtable.125 }
%class.obj_map.148 = type { %class.core_hashtable.149 }
%class.core_hashtable.149 = type <{ ptr, i32, i32, i32, [4 x i8] }>
%class.scoped_ptr.153 = type { ptr }
%class.ref_vector.154 = type { %class.ref_vector_core.155 }
%class.ref_vector_core.155 = type { %class.ref_manager_wrapper.156, %class.ptr_vector.157 }
%class.ref_manager_wrapper.156 = type { ptr }
%class.ptr_vector.157 = type { %class.vector.158 }
%class.vector.158 = type { ptr }
%class.svector.8 = type { %class.vector.9 }
%class.vector.9 = type { ptr }
%class.vector.159 = type { ptr }
%class.ref_vector = type { %class.ref_vector_core }
%class.ref_vector_core = type { %class.ref_manager_wrapper, %class.ptr_vector.35 }
%class.ref_manager_wrapper = type { ptr }
%class.ref = type { ptr }
%class.ref.160 = type { ptr }
%class.scoped_ptr.161 = type { ptr }
%class.obj_ref = type { ptr, ptr }
%struct.smt_params = type { %struct.preprocessor_params.base, %struct.dyn_ack_params, %struct.qi_params, %struct.theory_arith_params.base, i8, %struct.theory_array_params.base, %struct.theory_bv_params, %struct.theory_str_params.base, %struct.theory_seq_params, %struct.theory_pb_params.base, %struct.theory_datatype_params, i8, i8, i8, i8, i8, i8, i32, i8, i32, double, double, i32, i32, i32, i32, i32, i8, i32, i32, i32, i32, i32, i32, i8, i32, i8, i8, i8, i8, i8, %class.symbol, i32, i32, i8, i8, i8, i8, i32, i8, i32, i32, double, i8, double, double, i32, i8, i32, i32, double, i32, i32, i32, i32, i32, double, i8, i8, i8, %class.symbol, i8, i8, i8, i8, i8, i8, i32, i8, i8, i8, i8, i8, i8, i8, i8, i8, double, i8, %class.symbol }
%struct.preprocessor_params.base = type <{ %struct.pattern_inference_params.base, %struct.bit_blaster_params, i32, i32, i8, i8, i8, i8, i8, i8, i8, i8, i8, i8, i8, i8, i8, i8, i8, i8, i8, i8, i8 }>
%struct.pattern_inference_params.base = type <{ i8, [3 x i8], i32, i8, i8, [2 x i8], i32, i8, [3 x i8], i32, i32, i8, [3 x i8], i32, i8, i8 }>
%struct.bit_blaster_params = type { i8, i8 }
%struct.dyn_ack_params = type { i32, i8, double, i32, i32, double }
%struct.qi_params = type { %"class.std::__cxx11::basic_string", %"class.std::__cxx11::basic_string", double, double, i32, i32, i8, i32, i32, i8, i8, i32, i8, i8, i8, i8, i32, i32, i32, i8, i32, ptr }
%"class.std::__cxx11::basic_string" = type { %"struct.std::__cxx11::basic_string<char>::_Alloc_hider", i64, %union.anon }
%"struct.std::__cxx11::basic_string<char>::_Alloc_hider" = type { ptr }
%union.anon = type { i64, [8 x i8] }
%struct.theory_arith_params.base = type <{ i8, i8, [2 x i8], i32, i8, [3 x i8], i32, i8, [3 x i8], i32, i8, i8, [2 x i8], i32, i32, i8, i8, [2 x i8], i32, i32, i8, [3 x i8], i32, i32, i8, [3 x i8], double, double, i8, [3 x i8], i32, i8, i8, i8, i8, i8, [3 x i8], i32, i32, i8, [3 x i8], i32, i8, i8, i8, i8, i8, i8, [2 x i8], i32, i8, i8, [2 x i8], i32, i8, [3 x i8], i32, i8, i8, i8 }>
%struct.theory_array_params.base = type <{ i8, i8, [2 x i8], i32, i8, i8, [2 x i8], i32, i8, i8, i8, i8, i32, i8 }>
%struct.theory_bv_params = type { i32, i8, i8, i8, i8, i32, i8, i8, i8, i8, i32 }
%struct.theory_str_params.base = type <{ i8, i8, i8, i8, i8, i8, i8, i8, double, i32, i32, i32, i32, i32, i8, i8 }>
%struct.theory_seq_params = type { i8, i8, i32, i32 }
%struct.theory_pb_params.base = type <{ i32, i8 }>
%struct.theory_datatype_params = type { i32 }
%class.expr_free_vars = type { %class.expr_sparse_mark, %class.ptr_vector.53, %class.ptr_vector.35 }
%"class.std::allocator" = type { i8 }
%class.default_exception = type { %class.z3_exception, %"class.std::__cxx11::basic_string" }
%class.z3_exception = type { ptr }
%struct._Guard = type { ptr }
%struct.pattern_inference_params = type <{ i8, [3 x i8], i32, i8, i8, [2 x i8], i32, i8, [3 x i8], i32, i32, i8, [3 x i8], i32, i8, i8, [2 x i8] }>
%struct.preprocessor_params = type <{ %struct.pattern_inference_params.base, %struct.bit_blaster_params, i32, i32, i8, i8, i8, i8, i8, i8, i8, i8, i8, i8, i8, i8, i8, i8, i8, i8, i8, i8, i8, i8 }>
%"struct.generic_model_converter::entry" = type <{ %class.obj_ref.172, %class.obj_ref, i32, [4 x i8] }>
%class.obj_ref.172 = type { ptr, ptr }
%class.tactic_report = type { ptr }
%"class.std::__cxx11::basic_stringstream" = type { %"class.std::basic_iostream.base", %"class.std::__cxx11::basic_stringbuf", %"class.std::basic_ios" }
%"class.std::basic_iostream.base" = type { %"class.std::basic_istream.base", %"class.std::basic_ostream.base" }
%"class.std::basic_istream.base" = type { ptr, i64 }
%"class.std::basic_ostream.base" = type { ptr }
%"class.std::__cxx11::basic_stringbuf" = type { %"class.std::basic_streambuf", i32, %"class.std::__cxx11::basic_string" }
%"class.std::basic_streambuf" = type { ptr, ptr, ptr, ptr, ptr, ptr, ptr, %"class.std::locale" }
%"class.std::locale" = type { ptr }
%"class.std::basic_ios" = type { %"class.std::ios_base", ptr, i8, i8, ptr, ptr, ptr, ptr }
%"class.std::ios_base" = type { ptr, i64, i64, i32, i32, i32, ptr, %"struct.std::ios_base::_Words", [8 x %"struct.std::ios_base::_Words"], i32, ptr, %"class.std::locale" }
%"struct.std::ios_base::_Words" = type { ptr, i64 }
%struct.mk_pp = type { %struct.mk_ismt2_pp }
%struct.mk_ismt2_pp = type { ptr, ptr, %class.params_ref, ptr, i32, i32, ptr }
%class.goal = type <{ ptr, %class.ref, %class.ref.160, %class.ref.166, i32, [4 x i8], %"class.std::__cxx11::basic_string", %"class.parray_manager<ast_manager::expr_array_config>::ref", %"class.parray_manager<ast_manager::expr_array_config>::ref", %"class.parray_manager<ast_manager::expr_dependency_array_config>::ref", i32, [4 x i8] }>
%class.ref.166 = type { ptr }
%"class.parray_manager<ast_manager::expr_array_config>::ref" = type <{ ptr, i32, [4 x i8] }>
%"class.parray_manager<ast_manager::expr_dependency_array_config>::ref" = type <{ ptr, i32, [4 x i8] }>
%"struct.parray_manager<ast_manager::expr_array_config>::cell" = type { i32, %union.anon.168, ptr, %union.anon.169 }
%union.anon.168 = type { i32 }
%union.anon.169 = type { ptr }
%class.ast_manager = type { %class.reslimit, %class.small_object_allocator, %class.family_manager, %class.parray_manager, %class.dependency_manager, %class.parray_manager.14, %class.ptr_vector.17, i32, i8, %class.ast_table, %class.obj_map, %class.id_gen, %class.id_gen, ptr, ptr, ptr, ptr, ptr, i32, i8, [3 x i8], %class.u_map, ptr, i8, i8, ptr, %class.symbol, %class.obj_map.25, ptr }
%class.reslimit = type { %"struct.std::atomic", i8, i64, i64, %class.svector.2, %class.ptr_vector }
%"struct.std::atomic" = type { %"struct.std::__atomic_base" }
%"struct.std::__atomic_base" = type { i32 }
%class.svector.2 = type { %class.vector.3 }
%class.vector.3 = type { ptr }
%class.ptr_vector = type { %class.vector.4 }
%class.vector.4 = type { ptr }
%class.small_object_allocator = type { [32 x ptr], [32 x ptr], i64 }
%class.family_manager = type { i32, %class.symbol_table, %class.svector.8 }
%class.symbol_table = type { %class.core_hashtable, %class.vector.5, %class.svector.6 }
%class.core_hashtable = type <{ ptr, i32, i32, i32, [4 x i8] }>
%class.vector.5 = type { ptr }
%class.svector.6 = type { %class.vector.7 }
%class.vector.7 = type { ptr }
%class.parray_manager = type { ptr, ptr, %class.ptr_vector.10, %class.ptr_vector.10 }
%class.ptr_vector.10 = type { %class.vector.11 }
%class.vector.11 = type { ptr }
%class.dependency_manager = type { ptr, ptr, %class.ptr_vector.12 }
%class.ptr_vector.12 = type { %class.vector.13 }
%class.vector.13 = type { ptr }
%class.parray_manager.14 = type { ptr, ptr, %class.ptr_vector.15, %class.ptr_vector.15 }
%class.ptr_vector.15 = type { %class.vector.16 }
%class.vector.16 = type { ptr }
%class.ptr_vector.17 = type { %class.vector.18 }
%class.vector.18 = type { ptr }
%class.ast_table = type { %class.chashtable }
%class.chashtable = type { ptr, i32, i32, i32, i32, i32, i32, i32, ptr, ptr, ptr }
%class.obj_map = type { %class.core_hashtable.19 }
%class.core_hashtable.19 = type <{ ptr, i32, i32, i32, [4 x i8] }>
%class.id_gen = type { i32, %class.svector.21 }
%class.u_map = type { %class.map }
%class.map = type { %class.table2map }
%class.table2map = type { %class.core_hashtable.23 }
%class.core_hashtable.23 = type <{ ptr, i32, i32, i32, [4 x i8] }>
%class.ast = type { i32, i24, i32, i32 }
%class.tactic_exception = type { %class.z3_exception, %"class.std::__cxx11::basic_string" }
%class.app = type { %class.expr, ptr, i32, [0 x ptr] }
%class.expr = type { %class.ast }
%class.generic_model_converter = type { %class.model_converter.base, ptr, %"class.std::__cxx11::basic_string", %class.vector.167 }
%class.model_converter.base = type <{ %class.converter.base, [4 x i8], ptr, i8 }>
%class.converter.base = type <{ ptr, i32 }>
%class.vector.167 = type { ptr }
%class.converter = type <{ ptr, i32, [4 x i8] }>
%struct.fp_params = type { ptr, %class.params_ref }
%class.ast_mark = type { ptr, %class.obj_mark, %class.obj_mark.170 }
%class.obj_mark = type { %struct.default_t2uint, %class.bit_vector }
%struct.default_t2uint = type { i8 }
%class.bit_vector = type { i32, i32, ptr }
%class.obj_mark.170 = type { %"struct.ast_mark::decl2uint", %class.bit_vector }
%"struct.ast_mark::decl2uint" = type { i8 }
%class.decl = type { %class.ast, %class.symbol, ptr }
%class.decl_info = type <{ i32, i32, %class.vector.171, i8, [7 x i8] }>
%class.vector.171 = type { ptr }
%class.quantifier = type { %class.expr, i32, i32, ptr, ptr, i32, i32, i8, i8, %class.symbol, %class.symbol, i32, i32, [0 x i8] }
%class.model_converter = type <{ %class.converter.base, [4 x i8], ptr, i8, [7 x i8] }>
%class.expr_substitution = type <{ ptr, %class.obj_map.110, %class.scoped_ptr.180, %class.scoped_ptr.181, i8, [7 x i8] }>
%class.scoped_ptr.180 = type { ptr }
%class.scoped_ptr.181 = type { ptr }
%class.scoped_ptr.182 = type { ptr }
%class.buffer.165 = type { ptr, i32, i32, [16 x %"union.std::aligned_storage<8, 8>::type"] }
%class.ref.184 = type { ptr }
%class.model_core = type { ptr, ptr, i32, [4 x i8], %class.obj_map.185, %class.obj_map.190, %class.ptr_vector.157, %class.ptr_vector.157, %class.ptr_vector.157 }
%class.obj_map.185 = type { %class.core_hashtable.186 }
%class.core_hashtable.186 = type <{ ptr, i32, i32, i32, [4 x i8] }>
%class.obj_map.190 = type { %class.core_hashtable.191 }
%class.core_hashtable.191 = type <{ ptr, i32, i32, i32, [4 x i8] }>
%class.core_hashtable.126 = type <{ ptr, i32, i32, i32, [4 x i8] }>
%class.obj_hash_entry.183 = type { ptr }

$_ZN11horn_tactic3impC2EbR11ast_managerRK10params_ref = comdat any

$_ZN10statisticsD2Ev = comdat any

$_ZN11horn_tacticD2Ev = comdat any

$_ZN11horn_tacticD0Ev = comdat any

$_ZN6tactic19user_propagate_initEPvRSt8functionIFvS0_PN15user_propagator8callbackEEERS1_IFvS0_S4_jEERS1_IFS0_S0_R11ast_managerRPNS2_11context_objEEE = comdat any

$_ZN15user_propagator4core29user_propagate_register_fixedERSt8functionIFvPvPNS_8callbackEP4exprS6_EE = comdat any

$_ZN15user_propagator4core29user_propagate_register_finalERSt8functionIFvPvPNS_8callbackEEE = comdat any

$_ZN15user_propagator4core26user_propagate_register_eqERSt8functionIFvPvPNS_8callbackEP4exprS6_EE = comdat any

$_ZN15user_propagator4core29user_propagate_register_diseqERSt8functionIFvPvPNS_8callbackEP4exprS6_EE = comdat any

$_ZN6tactic28user_propagate_register_exprEP4expr = comdat any

$_ZN15user_propagator4core31user_propagate_register_createdERSt8functionIFvPvPNS_8callbackEP4exprEE = comdat any

$_ZN15user_propagator4core30user_propagate_register_decideERSt8functionIFvPvPNS_8callbackEP4exprjbEE = comdat any

$_ZN15user_propagator4core20user_propagate_clearEv = comdat any

$_ZN6tactic18register_on_clauseEPvRSt8functionIFvS0_P4exprjPKjjPKS3_EE = comdat any

$_ZN11horn_tactic11updt_paramsERK10params_ref = comdat any

$_ZN11horn_tactic20collect_param_descrsER12param_descrs = comdat any

$_ZN11horn_tacticclERK3refI4goalER11sref_bufferIS1_Lj16EE = comdat any

$_ZNK11horn_tactic18collect_statisticsER10statistics = comdat any

$_ZN11horn_tactic16reset_statisticsEv = comdat any

$_ZN11horn_tactic7cleanupEv = comdat any

$_ZN6tactic5resetEv = comdat any

$_ZN6tactic9set_logicERK6symbol = comdat any

$_ZN6tactic21set_progress_callbackEP17progress_callback = comdat any

$_ZN11horn_tactic9translateER11ast_manager = comdat any

$_ZNK11horn_tactic4nameEv = comdat any

$_ZNSt7__cxx1112basic_stringIcSt11char_traitsIcESaIcEEC2IS3_EEPKcRKS3_ = comdat any

$_ZN17default_exceptionD2Ev = comdat any

$_ZNSt7__cxx1112basic_stringIcSt11char_traitsIcESaIcEE12_M_constructIPKcEEvT_S8_St20forward_iterator_tag = comdat any

$_ZZNSt7__cxx1112basic_stringIcSt11char_traitsIcESaIcEE12_M_constructIPKcEEvT_S8_St20forward_iterator_tagEN6_GuardD2Ev = comdat any

$__clang_call_terminate = comdat any

$_ZN10smt_paramsC2ERK10params_ref = comdat any

$_ZN14expr_free_varsD2Ev = comdat any

$_ZN9qi_paramsC2ERK10params_ref = comdat any

$_ZN10ptr_vectorI4exprED2Ev = comdat any

$_ZN11horn_tactic3impD2Ev = comdat any

$_ZN11horn_tactic3impclERK3refI4goalER11sref_bufferIS2_Lj16EE = comdat any

$_ZN11horn_tactic3imp16check_parametersEv = comdat any

$_ZNK4goal4formEj = comdat any

$_ZN11horn_tactic3imp16get_formula_kindER7obj_refI4expr11ast_managerE = comdat any

$_ZN16tactic_exceptionD2Ev = comdat any

$_ZN7obj_refI4expr11ast_managerED2Ev = comdat any

$_ZN11horn_tactic3imp14bind_variablesER7obj_refI4expr11ast_managerE = comdat any

$_ZN23generic_model_converterC2ER11ast_managerPKc = comdat any

$_ZNK4goal2pcEv = comdat any

$_ZN11horn_tactic3imp8simplifyEP4exprRK3refI4goalER11sref_bufferIS4_Lj16EERS3_I15model_converterERS3_I15proof_converterE = comdat any

$_ZN11horn_tactic3imp6verifyEP4exprRK3refI4goalER11sref_bufferIS4_Lj16EERS3_I15model_converterERS3_I15proof_converterE = comdat any

$_ZN3refI15model_converterED2Ev = comdat any

$_ZN3refI15proof_converterED2Ev = comdat any

$_ZN10ref_vectorI4expr11ast_managerED2Ev = comdat any

$_ZN11horn_tactic3imp13not_supportedEPKc = comdat any

$_ZN14parray_managerIN11ast_manager17expr_array_configEE6rerootERNS2_3refE = comdat any

$_ZN14parray_managerIN11ast_manager17expr_array_configEE6unfoldEPNS2_4cellE = comdat any

$_ZN6vectorIPN14parray_managerIN11ast_manager17expr_array_configEE4cellELb0EjE13expand_vectorEv = comdat any

$_ZN14parray_managerIN11ast_manager17expr_array_configEE10get_valuesEPNS2_4cellERPP4expr = comdat any

$_ZN14parray_managerIN11ast_manager17expr_array_configEE3delEPNS2_4cellE = comdat any

$_ZN11horn_tactic3imp9normalizeER7obj_refI4expr11ast_managerE = comdat any

$_ZN11horn_tactic3imp15check_predicateER8ast_markP4expr = comdat any

$_ZN8ast_markD2Ev = comdat any

$_ZN6vectorIP4exprLb0EjE13expand_vectorEv = comdat any

$_ZN16tactic_exceptionD0Ev = comdat any

$_ZNK16tactic_exception3msgEv = comdat any

$_ZN7svectorI6symboljED2Ev = comdat any

$_ZN6vectorI6symbolLb0EjE13expand_vectorEv = comdat any

$_ZN23generic_model_converter5entryD2Ev = comdat any

$_ZN6vectorIN23generic_model_converter5entryELb1EjE13expand_vectorEv = comdat any

$_ZN6vectorIN23generic_model_converter5entryELb1EjE16destroy_elementsEv = comdat any

$_ZN10scoped_ptrI13expr_replacerED2Ev = comdat any

$_ZN6vectorIP9func_declLb0EjE13expand_vectorEv = comdat any

$_ZN14core_hashtableI14obj_hash_entryI9func_declE12obj_ptr_hashIS1_E6ptr_eqIS1_EE6insertEOPS1_ = comdat any

$_ZN14core_hashtableI14obj_hash_entryI9func_declE12obj_ptr_hashIS1_E6ptr_eqIS1_EE12expand_tableEv = comdat any

$_ZN7obj_refI3app11ast_managerED2Ev = comdat any

$_ZN3refI5modelED2Ev = comdat any

$_ZTV11horn_tactic = comdat any

$_ZTS11horn_tactic = comdat any

$_ZTS6tactic = comdat any

$_ZTSN15user_propagator4coreE = comdat any

$_ZTIN15user_propagator4coreE = comdat any

$_ZTI6tactic = comdat any

$_ZTI11horn_tactic = comdat any

$_ZTS16tactic_exception = comdat any

$_ZTI16tactic_exception = comdat any

$_ZTV16tactic_exception = comdat any

@_ZStL8__ioinit = internal global %"class.std::ios_base::Init" zeroinitializer, align 1
@__dso_handle = external hidden global i8
@_ZTV11horn_tactic = linkonce_odr hidden unnamed_addr constant { [25 x ptr] } { [25 x ptr] [ptr null, ptr @_ZTI11horn_tactic, ptr @_ZN11horn_tacticD2Ev, ptr @_ZN11horn_tacticD0Ev, ptr @_ZN6tactic19user_propagate_initEPvRSt8functionIFvS0_PN15user_propagator8callbackEEERS1_IFvS0_S4_jEERS1_IFS0_S0_R11ast_managerRPNS2_11context_objEEE, ptr @_ZN15user_propagator4core29user_propagate_register_fixedERSt8functionIFvPvPNS_8callbackEP4exprS6_EE, ptr @_ZN15user_propagator4core29user_propagate_register_finalERSt8functionIFvPvPNS_8callbackEEE, ptr @_ZN15user_propagator4core26user_propagate_register_eqERSt8functionIFvPvPNS_8callbackEP4exprS6_EE, ptr @_ZN15user_propagator4core29user_propagate_register_diseqERSt8functionIFvPvPNS_8callbackEP4exprS6_EE, ptr @_ZN6tactic28user_propagate_register_exprEP4expr, ptr @_ZN15user_propagator4core31user_propagate_register_createdERSt8functionIFvPvPNS_8callbackEP4exprEE, ptr @_ZN15user_propagator4core30user_propagate_register_decideERSt8functionIFvPvPNS_8callbackEP4exprjbEE, ptr @_ZN15user_propagator4core20user_propagate_clearEv, ptr @_ZN6tactic18register_on_clauseEPvRSt8functionIFvS0_P4exprjPKjjPKS3_EE, ptr @_ZN11horn_tactic11updt_paramsERK10params_ref, ptr @_ZN11horn_tactic20collect_param_descrsER12param_descrs, ptr @_ZN11horn_tacticclERK3refI4goalER11sref_bufferIS1_Lj16EE, ptr @_ZNK11horn_tactic18collect_statisticsER10statistics, ptr @_ZN11horn_tactic16reset_statisticsEv, ptr @_ZN11horn_tactic7cleanupEv, ptr @_ZN6tactic5resetEv, ptr @_ZN6tactic9set_logicERK6symbol, ptr @_ZN6tactic21set_progress_callbackEP17progress_callback, ptr @_ZN11horn_tactic9translateER11ast_manager, ptr @_ZNK11horn_tactic4nameEv] }, comdat, align 8
@_ZTVN10__cxxabiv120__si_class_type_infoE = external global [0 x ptr]
@_ZTS11horn_tactic = linkonce_odr hidden constant [14 x i8] c"11horn_tactic\00", comdat, align 1
@_ZTS6tactic = linkonce_odr hidden constant [8 x i8] c"6tactic\00", comdat, align 1
@_ZTVN10__cxxabiv117__class_type_infoE = external global [0 x ptr]
@_ZTSN15user_propagator4coreE = linkonce_odr hidden constant [25 x i8] c"N15user_propagator4coreE\00", comdat, align 1
@_ZTIN15user_propagator4coreE = linkonce_odr hidden constant { ptr, ptr } { ptr getelementptr inbounds (ptr, ptr @_ZTVN10__cxxabiv117__class_type_infoE, i64 2), ptr @_ZTSN15user_propagator4coreE }, comdat, align 8
@_ZTI6tactic = linkonce_odr hidden constant { ptr, ptr, ptr } { ptr getelementptr inbounds (ptr, ptr @_ZTVN10__cxxabiv120__si_class_type_infoE, i64 2), ptr @_ZTS6tactic, ptr @_ZTIN15user_propagator4coreE }, comdat, align 8
@_ZTI11horn_tactic = linkonce_odr hidden constant { ptr, ptr, ptr } { ptr getelementptr inbounds (ptr, ptr @_ZTVN10__cxxabiv120__si_class_type_infoE, i64 2), ptr @_ZTS11horn_tactic, ptr @_ZTI6tactic }, comdat, align 8
@.str = private unnamed_addr constant [54 x i8] c"user-propagators are only supported on the SMT solver\00", align 1
@_ZTI17default_exception = external constant ptr
@.str.1 = private unnamed_addr constant [50 x i8] c"basic_string: construction from null is not valid\00", align 1
@_ZTV17default_exception = external unnamed_addr constant { [6 x ptr] }, align 8
@_ZN6symbol4nullE = external global %class.symbol, align 8
@.str.3 = private unnamed_addr constant [5 x i8] c"auto\00", align 1
@.str.4 = private unnamed_addr constant [22 x i8] c"(+ weight generation)\00", align 1
@.str.5 = private unnamed_addr constant [5 x i8] c"cost\00", align 1
@.str.6 = private unnamed_addr constant [41 x i8] c"tactic does not support user propagation\00", align 1
@.str.7 = private unnamed_addr constant [39 x i8] c"tactic does not support clause logging\00", align 1
@.str.8 = private unnamed_addr constant [5 x i8] c"horn\00", align 1
@.str.9 = private unnamed_addr constant [21 x i8] c"generate_proof_trace\00", align 1
@.str.10 = private unnamed_addr constant [34 x i8] c"formula is not in Horn fragment: \00", align 1
@.str.11 = private unnamed_addr constant [2 x i8] c"\0A\00", align 1
@_ZTS16tactic_exception = linkonce_odr hidden constant [19 x i8] c"16tactic_exception\00", comdat, align 1
@_ZTI12z3_exception = external constant ptr
@_ZTI16tactic_exception = linkonce_odr hidden constant { ptr, ptr, ptr } { ptr getelementptr inbounds (ptr, ptr @_ZTVN10__cxxabiv120__si_class_type_infoE, i64 2), ptr @_ZTS16tactic_exception, ptr @_ZTI12z3_exception }, comdat, align 8
@.str.12 = private unnamed_addr constant [6 x i8] c"query\00", align 1
@.str.13 = private unnamed_addr constant [8 x i8] c"datalog\00", align 1
@.str.14 = private unnamed_addr constant [15 x i8] c"engine=datalog\00", align 1
@.str.15 = private unnamed_addr constant [30 x i8] c"datalog.generate_explanations\00", align 1
@.str.16 = private unnamed_addr constant [31 x i8] c"datalog.magic_sets_for_queries\00", align 1
@.str.17 = private unnamed_addr constant [25 x i8] c"xform.instantiate_arrays\00", align 1
@.str.18 = private unnamed_addr constant [12 x i8] c"xform.magic\00", align 1
@.str.19 = private unnamed_addr constant [22 x i8] c"xform.quantify_arrays\00", align 1
@.str.20 = private unnamed_addr constant [12 x i8] c"xform.scale\00", align 1
@.str.21 = private unnamed_addr constant [7 x i8] c"engine\00", align 1
@.str.22 = private unnamed_addr constant [12 x i8] c"auto-config\00", align 1
@.str.23 = private unnamed_addr constant [23 x i8] c"unsupported parameter \00", align 1
@.str.24 = private unnamed_addr constant [101 x i8] c"generated/home/dtcxzyw/WorkSpace/Projects/compilers/llvm-opt-benchmark/bench/z3/z3/src/util/parray.h\00", align 1
@.str.25 = private unnamed_addr constant [29 x i8] c"UNEXPECTED CODE WAS REACHED.\00", align 1
@.str.26 = private unnamed_addr constant [43 x i8] c"Overflow encountered when expanding vector\00", align 1
@_ZTV8ast_mark = external unnamed_addr constant { [6 x ptr] }, align 8
@_ZTV16tactic_exception = linkonce_odr hidden unnamed_addr constant { [6 x ptr] } { [6 x ptr] [ptr null, ptr @_ZTI16tactic_exception, ptr @_ZN16tactic_exceptionD2Ev, ptr @_ZN16tactic_exceptionD0Ev, ptr @_ZNK16tactic_exception3msgEv, ptr @_ZNK12z3_exception10error_codeEv] }, comdat, align 8
@_ZTV23generic_model_converter = external unnamed_addr constant { [12 x ptr] }, align 8
@.str.27 = private unnamed_addr constant [104 x i8] c"generated/home/dtcxzyw/WorkSpace/Projects/compilers/llvm-opt-benchmark/bench/z3/z3/src/util/hashtable.h\00", align 1
@llvm.global_ctors = appending global [1 x { i32, ptr, ptr }] [{ i32, ptr, ptr } { i32 65535, ptr @_GLOBAL__sub_I_horn_tactic.cpp, ptr null }]

declare void @_ZNSt8ios_base4InitC1Ev(ptr noundef nonnull align 1 dereferenceable(1)) unnamed_addr #0

; Function Attrs: nounwind
declare void @_ZNSt8ios_base4InitD1Ev(ptr noundef nonnull align 1 dereferenceable(1)) unnamed_addr #1

; Function Attrs: nofree nounwind
declare i32 @__cxa_atexit(ptr, ptr, ptr) local_unnamed_addr #2

; Function Attrs: mustprogress uwtable
define hidden noundef ptr @_Z14mk_horn_tacticR11ast_managerRK10params_ref(ptr noundef nonnull align 8 dereferenceable(976) %m, ptr noundef nonnull align 8 dereferenceable(8) %p) local_unnamed_addr #3 personality ptr @__gxx_personality_v0 {
entry:
  %call = tail call noalias noundef ptr @_ZN6memory8allocateEm(i64 noundef 48)
  %m_ref_count.i.i = getelementptr inbounds %class.tactic, ptr %call, i64 0, i32 1
  store i32 0, ptr %m_ref_count.i.i, align 8
  store ptr getelementptr inbounds ({ [25 x ptr] }, ptr @_ZTV11horn_tactic, i64 0, inrange i32 0, i64 2), ptr %call, align 8
  %m_is_simplify.i = getelementptr inbounds %class.horn_tactic, ptr %call, i64 0, i32 1
  store i8 0, ptr %m_is_simplify.i, align 4
  %m_params.i = getelementptr inbounds %class.horn_tactic, ptr %call, i64 0, i32 2
  tail call void @_ZN10params_refC1ERKS_(ptr noundef nonnull align 8 dereferenceable(8) %m_params.i, ptr noundef nonnull align 8 dereferenceable(8) %p)
  %m_stats.i = getelementptr inbounds %class.horn_tactic, ptr %call, i64 0, i32 3
  tail call void @llvm.memset.p0.i64(ptr noundef nonnull align 8 dereferenceable(16) %m_stats.i, i8 0, i64 16, i1 false)
  %call.i = invoke noalias noundef ptr @_ZN6memory8allocateEm(i64 noundef 4432)
          to label %invoke.cont6.i unwind label %lpad5.i

invoke.cont6.i:                                   ; preds = %entry
  invoke void @_ZN11horn_tactic3impC2EbR11ast_managerRK10params_ref(ptr noundef nonnull align 8 dereferenceable(4432) %call.i, i1 noundef zeroext false, ptr noundef nonnull align 8 dereferenceable(976) %m, ptr noundef nonnull align 8 dereferenceable(8) %p)
          to label %_ZN11horn_tacticC2EbR11ast_managerRK10params_ref.exit unwind label %lpad5.i

lpad5.i:                                          ; preds = %invoke.cont6.i, %entry
  %0 = landingpad { ptr, i32 }
          cleanup
  tail call void @_ZN10statisticsD2Ev(ptr noundef nonnull align 8 dereferenceable(16) %m_stats.i) #14
  tail call void @_ZN10params_refD1Ev(ptr noundef nonnull align 8 dereferenceable(8) %m_params.i) #14
  resume { ptr, i32 } %0

_ZN11horn_tacticC2EbR11ast_managerRK10params_ref.exit: ; preds = %invoke.cont6.i
  %m_imp.i = getelementptr inbounds %class.horn_tactic, ptr %call, i64 0, i32 4
  store ptr %call.i, ptr %m_imp.i, align 8
  %call1 = tail call noundef ptr @_Z5cleanP6tactic(ptr noundef nonnull %call)
  ret ptr %call1
}

declare noundef ptr @_Z5cleanP6tactic(ptr noundef) local_unnamed_addr #0

declare noalias noundef ptr @_ZN6memory8allocateEm(i64 noundef) local_unnamed_addr #0

; Function Attrs: mustprogress uwtable
define hidden noundef ptr @_Z23mk_horn_simplify_tacticR11ast_managerRK10params_ref(ptr noundef nonnull align 8 dereferenceable(976) %m, ptr noundef nonnull align 8 dereferenceable(8) %p) local_unnamed_addr #3 personality ptr @__gxx_personality_v0 {
entry:
  %call = tail call noalias noundef ptr @_ZN6memory8allocateEm(i64 noundef 48)
  %m_ref_count.i.i = getelementptr inbounds %class.tactic, ptr %call, i64 0, i32 1
  store i32 0, ptr %m_ref_count.i.i, align 8
  store ptr getelementptr inbounds ({ [25 x ptr] }, ptr @_ZTV11horn_tactic, i64 0, inrange i32 0, i64 2), ptr %call, align 8
  %m_is_simplify.i = getelementptr inbounds %class.horn_tactic, ptr %call, i64 0, i32 1
  store i8 1, ptr %m_is_simplify.i, align 4
  %m_params.i = getelementptr inbounds %class.horn_tactic, ptr %call, i64 0, i32 2
  tail call void @_ZN10params_refC1ERKS_(ptr noundef nonnull align 8 dereferenceable(8) %m_params.i, ptr noundef nonnull align 8 dereferenceable(8) %p)
  %m_stats.i = getelementptr inbounds %class.horn_tactic, ptr %call, i64 0, i32 3
  tail call void @llvm.memset.p0.i64(ptr noundef nonnull align 8 dereferenceable(16) %m_stats.i, i8 0, i64 16, i1 false)
  %call.i = invoke noalias noundef ptr @_ZN6memory8allocateEm(i64 noundef 4432)
          to label %invoke.cont6.i unwind label %lpad5.i

invoke.cont6.i:                                   ; preds = %entry
  invoke void @_ZN11horn_tactic3impC2EbR11ast_managerRK10params_ref(ptr noundef nonnull align 8 dereferenceable(4432) %call.i, i1 noundef zeroext true, ptr noundef nonnull align 8 dereferenceable(976) %m, ptr noundef nonnull align 8 dereferenceable(8) %p)
          to label %_ZN11horn_tacticC2EbR11ast_managerRK10params_ref.exit unwind label %lpad5.i

lpad5.i:                                          ; preds = %invoke.cont6.i, %entry
  %0 = landingpad { ptr, i32 }
          cleanup
  tail call void @_ZN10statisticsD2Ev(ptr noundef nonnull align 8 dereferenceable(16) %m_stats.i) #14
  tail call void @_ZN10params_refD1Ev(ptr noundef nonnull align 8 dereferenceable(8) %m_params.i) #14
  resume { ptr, i32 } %0

_ZN11horn_tacticC2EbR11ast_managerRK10params_ref.exit: ; preds = %invoke.cont6.i
  %m_imp.i = getelementptr inbounds %class.horn_tactic, ptr %call, i64 0, i32 4
  store ptr %call.i, ptr %m_imp.i, align 8
  %call1 = tail call noundef ptr @_Z5cleanP6tactic(ptr noundef nonnull %call)
  ret ptr %call1
}

declare void @_ZN10params_refC1ERKS_(ptr noundef nonnull align 8 dereferenceable(8), ptr noundef nonnull align 8 dereferenceable(8)) unnamed_addr #0

declare i32 @__gxx_personality_v0(...)

; Function Attrs: mustprogress uwtable
define linkonce_odr hidden void @_ZN11horn_tactic3impC2EbR11ast_managerRK10params_ref(ptr noundef nonnull align 8 dereferenceable(4432) %this, i1 noundef zeroext %t, ptr noundef nonnull align 8 dereferenceable(976) %m, ptr noundef nonnull align 8 dereferenceable(8) %p) unnamed_addr #3 comdat align 2 personality ptr @__gxx_personality_v0 {
entry:
  %ref.tmp = alloca %class.params_ref, align 8
  %ref.tmp8 = alloca %class.params_ref, align 8
  %frombool = zext i1 %t to i8
  store ptr %m, ptr %this, align 8
  %m_is_simplify = getelementptr inbounds %"struct.horn_tactic::imp", ptr %this, i64 0, i32 1
  store i8 %frombool, ptr %m_is_simplify, align 8
  %m_register_engine = getelementptr inbounds %"struct.horn_tactic::imp", ptr %this, i64 0, i32 2
  tail call void @_ZN7datalog15register_engineC1Ev(ptr noundef nonnull align 8 dereferenceable(16) %m_register_engine)
  %m_ctx = getelementptr inbounds %"struct.horn_tactic::imp", ptr %this, i64 0, i32 3
  %m_fparams = getelementptr inbounds %"struct.horn_tactic::imp", ptr %this, i64 0, i32 4
  store ptr null, ptr %ref.tmp, align 8
  invoke void @_ZN7datalog7contextC1ER11ast_managerRNS_20register_engine_baseER10smt_paramsRK10params_ref(ptr noundef nonnull align 8 dereferenceable(3556) %m_ctx, ptr noundef nonnull align 8 dereferenceable(976) %m, ptr noundef nonnull align 8 dereferenceable(8) %m_register_engine, ptr noundef nonnull align 8 dereferenceable(800) %m_fparams, ptr noundef nonnull align 8 dereferenceable(8) %ref.tmp)
          to label %invoke.cont6 unwind label %lpad5

invoke.cont6:                                     ; preds = %entry
  call void @_ZN10params_refD1Ev(ptr noundef nonnull align 8 dereferenceable(8) %ref.tmp) #14
  store ptr null, ptr %ref.tmp8, align 8
  invoke void @_ZN10smt_paramsC2ERK10params_ref(ptr noundef nonnull align 8 dereferenceable(800) %m_fparams, ptr noundef nonnull align 8 dereferenceable(8) %ref.tmp8)
          to label %invoke.cont12 unwind label %lpad11

invoke.cont12:                                    ; preds = %invoke.cont6
  call void @_ZN10params_refD1Ev(ptr noundef nonnull align 8 dereferenceable(8) %ref.tmp8) #14
  %m_free_vars = getelementptr inbounds %"struct.horn_tactic::imp", ptr %this, i64 0, i32 5
  %call.i.i.i.i.i.i5 = invoke noalias noundef ptr @_ZN6memory8allocateEm(i64 noundef 64)
          to label %invoke.cont14 unwind label %lpad13

invoke.cont14:                                    ; preds = %invoke.cont12
  call void @llvm.memset.p0.i64(ptr noundef nonnull align 8 dereferenceable(64) %call.i.i.i.i.i.i5, i8 0, i64 64, i1 false)
  store ptr %call.i.i.i.i.i.i5, ptr %m_free_vars, align 8
  %m_capacity.i.i.i.i = getelementptr inbounds %"struct.horn_tactic::imp", ptr %this, i64 0, i32 5, i32 0, i32 0, i32 0, i32 1
  store i32 8, ptr %m_capacity.i.i.i.i, align 8
  %m_size.i.i.i.i = getelementptr inbounds %"struct.horn_tactic::imp", ptr %this, i64 0, i32 5, i32 0, i32 0, i32 0, i32 2
  store i32 0, ptr %m_size.i.i.i.i, align 4
  %m_num_deleted.i.i.i.i = getelementptr inbounds %"struct.horn_tactic::imp", ptr %this, i64 0, i32 5, i32 0, i32 0, i32 0, i32 3
  store i32 0, ptr %m_num_deleted.i.i.i.i, align 8
  %m_sorts.i = getelementptr inbounds %"struct.horn_tactic::imp", ptr %this, i64 0, i32 5, i32 1
  call void @llvm.memset.p0.i64(ptr noundef nonnull align 8 dereferenceable(16) %m_sorts.i, i8 0, i64 16, i1 false)
  invoke void @_ZN7datalog7context11updt_paramsERK10params_ref(ptr noundef nonnull align 8 dereferenceable(3556) %m_ctx, ptr noundef nonnull align 8 dereferenceable(8) %p)
          to label %invoke.cont16 unwind label %lpad15

invoke.cont16:                                    ; preds = %invoke.cont14
  ret void

lpad5:                                            ; preds = %entry
  %0 = landingpad { ptr, i32 }
          cleanup
  call void @_ZN10params_refD1Ev(ptr noundef nonnull align 8 dereferenceable(8) %ref.tmp) #14
  br label %ehcleanup18

lpad11:                                           ; preds = %invoke.cont6
  %1 = landingpad { ptr, i32 }
          cleanup
  call void @_ZN10params_refD1Ev(ptr noundef nonnull align 8 dereferenceable(8) %ref.tmp8) #14
  br label %ehcleanup17

lpad13:                                           ; preds = %invoke.cont12
  %2 = landingpad { ptr, i32 }
          cleanup
  br label %ehcleanup

lpad15:                                           ; preds = %invoke.cont14
  %3 = landingpad { ptr, i32 }
          cleanup
  call void @_ZN14expr_free_varsD2Ev(ptr noundef nonnull align 8 dereferenceable(40) %m_free_vars) #14
  br label %ehcleanup

ehcleanup:                                        ; preds = %lpad15, %lpad13
  %.pn = phi { ptr, i32 } [ %3, %lpad15 ], [ %2, %lpad13 ]
  %4 = getelementptr inbounds %"struct.horn_tactic::imp", ptr %this, i64 0, i32 4, i32 2
  %m_qi_new_gen.i.i = getelementptr inbounds %"struct.horn_tactic::imp", ptr %this, i64 0, i32 4, i32 2, i32 1
  call void @_ZNSt7__cxx1112basic_stringIcSt11char_traitsIcESaIcEED1Ev(ptr noundef nonnull align 8 dereferenceable(32) %m_qi_new_gen.i.i) #14
  call void @_ZNSt7__cxx1112basic_stringIcSt11char_traitsIcESaIcEED1Ev(ptr noundef nonnull align 8 dereferenceable(32) %4) #14
  br label %ehcleanup17

ehcleanup17:                                      ; preds = %ehcleanup, %lpad11
  %.pn.pn = phi { ptr, i32 } [ %.pn, %ehcleanup ], [ %1, %lpad11 ]
  call void @_ZN7datalog7contextD1Ev(ptr noundef nonnull align 8 dereferenceable(3556) %m_ctx) #14
  br label %ehcleanup18

ehcleanup18:                                      ; preds = %ehcleanup17, %lpad5
  %.pn.pn.pn = phi { ptr, i32 } [ %.pn.pn, %ehcleanup17 ], [ %0, %lpad5 ]
  resume { ptr, i32 } %.pn.pn.pn
}

; Function Attrs: mustprogress nounwind uwtable
define linkonce_odr hidden void @_ZN10statisticsD2Ev(ptr noundef nonnull align 8 dereferenceable(16) %this) unnamed_addr #4 comdat align 2 personality ptr @__gxx_personality_v0 {
entry:
  %m_d_stats = getelementptr inbounds %class.statistics, ptr %this, i64 0, i32 1
  %0 = load ptr, ptr %m_d_stats, align 8
  %tobool.not.i.i.i = icmp eq ptr %0, null
  br i1 %tobool.not.i.i.i, label %_ZN7svectorISt4pairIPKcdEjED2Ev.exit, label %if.then.i.i.i

if.then.i.i.i:                                    ; preds = %entry
  %add.ptr.i.i.i.i = getelementptr inbounds i32, ptr %0, i64 -2
  invoke void @_ZN6memory10deallocateEPv(ptr noundef nonnull %add.ptr.i.i.i.i)
          to label %_ZN7svectorISt4pairIPKcdEjED2Ev.exit unwind label %terminate.lpad.i.i

terminate.lpad.i.i:                               ; preds = %if.then.i.i.i
  %1 = landingpad { ptr, i32 }
          catch ptr null
  %2 = extractvalue { ptr, i32 } %1, 0
  tail call void @__clang_call_terminate(ptr %2) #15
  unreachable

_ZN7svectorISt4pairIPKcdEjED2Ev.exit:             ; preds = %entry, %if.then.i.i.i
  %3 = load ptr, ptr %this, align 8
  %tobool.not.i.i.i1 = icmp eq ptr %3, null
  br i1 %tobool.not.i.i.i1, label %_ZN7svectorISt4pairIPKcjEjED2Ev.exit, label %if.then.i.i.i2

if.then.i.i.i2:                                   ; preds = %_ZN7svectorISt4pairIPKcdEjED2Ev.exit
  %add.ptr.i.i.i.i3 = getelementptr inbounds i32, ptr %3, i64 -2
  invoke void @_ZN6memory10deallocateEPv(ptr noundef nonnull %add.ptr.i.i.i.i3)
          to label %_ZN7svectorISt4pairIPKcjEjED2Ev.exit unwind label %terminate.lpad.i.i4

terminate.lpad.i.i4:                              ; preds = %if.then.i.i.i2
  %4 = landingpad { ptr, i32 }
          catch ptr null
  %5 = extractvalue { ptr, i32 } %4, 0
  tail call void @__clang_call_terminate(ptr %5) #15
  unreachable

_ZN7svectorISt4pairIPKcjEjED2Ev.exit:             ; preds = %_ZN7svectorISt4pairIPKcdEjED2Ev.exit, %if.then.i.i.i2
  ret void
}

; Function Attrs: nounwind
declare void @_ZN10params_refD1Ev(ptr noundef nonnull align 8 dereferenceable(8)) unnamed_addr #1

; Function Attrs: mustprogress nounwind uwtable
define linkonce_odr hidden void @_ZN11horn_tacticD2Ev(ptr noundef nonnull align 8 dereferenceable(48) %this) unnamed_addr #4 comdat align 2 personality ptr @__gxx_personality_v0 {
entry:
  store ptr getelementptr inbounds ({ [25 x ptr] }, ptr @_ZTV11horn_tactic, i64 0, inrange i32 0, i64 2), ptr %this, align 8
  %m_imp = getelementptr inbounds %class.horn_tactic, ptr %this, i64 0, i32 4
  %0 = load ptr, ptr %m_imp, align 8
  %cmp.i = icmp eq ptr %0, null
  br i1 %cmp.i, label %invoke.cont, label %if.end.i

if.end.i:                                         ; preds = %entry
  tail call void @_ZN11horn_tactic3impD2Ev(ptr noundef nonnull align 8 dereferenceable(4432) %0) #14
  invoke void @_ZN6memory10deallocateEPv(ptr noundef nonnull %0)
          to label %invoke.cont unwind label %terminate.lpad

invoke.cont:                                      ; preds = %entry, %if.end.i
  %m_stats = getelementptr inbounds %class.horn_tactic, ptr %this, i64 0, i32 3
  %m_d_stats.i = getelementptr inbounds %class.horn_tactic, ptr %this, i64 0, i32 3, i32 1
  %1 = load ptr, ptr %m_d_stats.i, align 8
  %tobool.not.i.i.i.i = icmp eq ptr %1, null
  br i1 %tobool.not.i.i.i.i, label %_ZN7svectorISt4pairIPKcdEjED2Ev.exit.i, label %if.then.i.i.i.i

if.then.i.i.i.i:                                  ; preds = %invoke.cont
  %add.ptr.i.i.i.i.i = getelementptr inbounds i32, ptr %1, i64 -2
  invoke void @_ZN6memory10deallocateEPv(ptr noundef nonnull %add.ptr.i.i.i.i.i)
          to label %_ZN7svectorISt4pairIPKcdEjED2Ev.exit.i unwind label %terminate.lpad.i.i.i

terminate.lpad.i.i.i:                             ; preds = %if.then.i.i.i.i
  %2 = landingpad { ptr, i32 }
          catch ptr null
  %3 = extractvalue { ptr, i32 } %2, 0
  tail call void @__clang_call_terminate(ptr %3) #15
  unreachable

_ZN7svectorISt4pairIPKcdEjED2Ev.exit.i:           ; preds = %if.then.i.i.i.i, %invoke.cont
  %4 = load ptr, ptr %m_stats, align 8
  %tobool.not.i.i.i1.i = icmp eq ptr %4, null
  br i1 %tobool.not.i.i.i1.i, label %_ZN10statisticsD2Ev.exit, label %if.then.i.i.i2.i

if.then.i.i.i2.i:                                 ; preds = %_ZN7svectorISt4pairIPKcdEjED2Ev.exit.i
  %add.ptr.i.i.i.i3.i = getelementptr inbounds i32, ptr %4, i64 -2
  invoke void @_ZN6memory10deallocateEPv(ptr noundef nonnull %add.ptr.i.i.i.i3.i)
          to label %_ZN10statisticsD2Ev.exit unwind label %terminate.lpad.i.i4.i

terminate.lpad.i.i4.i:                            ; preds = %if.then.i.i.i2.i
  %5 = landingpad { ptr, i32 }
          catch ptr null
  %6 = extractvalue { ptr, i32 } %5, 0
  tail call void @__clang_call_terminate(ptr %6) #15
  unreachable

_ZN10statisticsD2Ev.exit:                         ; preds = %_ZN7svectorISt4pairIPKcdEjED2Ev.exit.i, %if.then.i.i.i2.i
  %m_params = getelementptr inbounds %class.horn_tactic, ptr %this, i64 0, i32 2
  tail call void @_ZN10params_refD1Ev(ptr noundef nonnull align 8 dereferenceable(8) %m_params) #14
  ret void

terminate.lpad:                                   ; preds = %if.end.i
  %7 = landingpad { ptr, i32 }
          catch ptr null
  %8 = extractvalue { ptr, i32 } %7, 0
  tail call void @__clang_call_terminate(ptr %8) #15
  unreachable
}

; Function Attrs: mustprogress nounwind uwtable
define linkonce_odr hidden void @_ZN11horn_tacticD0Ev(ptr noundef nonnull align 8 dereferenceable(48) %this) unnamed_addr #4 comdat align 2 {
entry:
  tail call void @_ZN11horn_tacticD2Ev(ptr noundef nonnull align 8 dereferenceable(48) %this) #14
  tail call void @_ZdlPv(ptr noundef nonnull %this) #16
  ret void
}

; Function Attrs: mustprogress uwtable
define linkonce_odr hidden void @_ZN6tactic19user_propagate_initEPvRSt8functionIFvS0_PN15user_propagator8callbackEEERS1_IFvS0_S4_jEERS1_IFS0_S0_R11ast_managerRPNS2_11context_objEEE(ptr noundef nonnull align 8 dereferenceable(12) %this, ptr noundef %ctx, ptr noundef nonnull align 1 %push_eh, ptr noundef nonnull align 1 %pop_eh, ptr noundef nonnull align 1 %fresh_eh) unnamed_addr #3 comdat align 2 personality ptr @__gxx_personality_v0 {
entry:
  %ref.tmp = alloca %"class.std::__cxx11::basic_string", align 8
  %ref.tmp2 = alloca %"class.std::allocator", align 1
  %exception = tail call ptr @__cxa_allocate_exception(i64 40) #14
  call void @_ZNSaIcEC1Ev(ptr noundef nonnull align 1 dereferenceable(1) %ref.tmp2) #14
  %call.i2 = invoke noundef ptr @_ZNSt7__cxx1112basic_stringIcSt11char_traitsIcESaIcEE13_M_local_dataEv(ptr noundef nonnull align 8 dereferenceable(32) %ref.tmp)
          to label %call.i.noexc unwind label %lpad

call.i.noexc:                                     ; preds = %entry
  invoke void @_ZNSt7__cxx1112basic_stringIcSt11char_traitsIcESaIcEE12_Alloc_hiderC1EPcRKS3_(ptr noundef nonnull align 8 dereferenceable(8) %ref.tmp, ptr noundef %call.i2, ptr noundef nonnull align 1 dereferenceable(1) %ref.tmp2)
          to label %.noexc unwind label %lpad

.noexc:                                           ; preds = %call.i.noexc
  invoke void @_ZNSt7__cxx1112basic_stringIcSt11char_traitsIcESaIcEE12_M_constructIPKcEEvT_S8_St20forward_iterator_tag(ptr noundef nonnull align 8 dereferenceable(32) %ref.tmp, ptr noundef nonnull @.str.6, ptr noundef nonnull getelementptr inbounds ([41 x i8], ptr @.str.6, i64 0, i64 40))
          to label %invoke.cont unwind label %lpad.i

lpad.i:                                           ; preds = %.noexc
  %0 = landingpad { ptr, i32 }
          cleanup
  call void @_ZNSaIcED2Ev(ptr noundef nonnull align 1 dereferenceable(1) %ref.tmp) #14
  br label %cleanup.action

invoke.cont:                                      ; preds = %.noexc
  store ptr getelementptr inbounds ({ [6 x ptr] }, ptr @_ZTV17default_exception, i64 0, inrange i32 0, i64 2), ptr %exception, align 8
  %m_msg.i = getelementptr inbounds %class.default_exception, ptr %exception, i64 0, i32 1
  call void @_ZNSt7__cxx1112basic_stringIcSt11char_traitsIcESaIcEEC1EOS4_(ptr noundef nonnull align 8 dereferenceable(32) %m_msg.i, ptr noundef nonnull align 8 dereferenceable(32) %ref.tmp) #14
  invoke void @__cxa_throw(ptr nonnull %exception, ptr nonnull @_ZTI17default_exception, ptr nonnull @_ZN17default_exceptionD2Ev) #17
          to label %unreachable unwind label %ehcleanup

lpad:                                             ; preds = %call.i.noexc, %entry
  %1 = landingpad { ptr, i32 }
          cleanup
  br label %cleanup.action

ehcleanup:                                        ; preds = %invoke.cont
  %2 = landingpad { ptr, i32 }
          cleanup
  call void @_ZNSt7__cxx1112basic_stringIcSt11char_traitsIcESaIcEED1Ev(ptr noundef nonnull align 8 dereferenceable(32) %ref.tmp) #14
  call void @_ZNSaIcED1Ev(ptr noundef nonnull align 1 dereferenceable(1) %ref.tmp2) #14
  br label %eh.resume

cleanup.action:                                   ; preds = %lpad.i, %lpad
  %.pn.ph = phi { ptr, i32 } [ %0, %lpad.i ], [ %1, %lpad ]
  call void @_ZNSaIcED1Ev(ptr noundef nonnull align 1 dereferenceable(1) %ref.tmp2) #14
  call void @__cxa_free_exception(ptr %exception) #14
  br label %eh.resume

eh.resume:                                        ; preds = %ehcleanup, %cleanup.action
  %.pn5 = phi { ptr, i32 } [ %2, %ehcleanup ], [ %.pn.ph, %cleanup.action ]
  resume { ptr, i32 } %.pn5

unreachable:                                      ; preds = %invoke.cont
  unreachable
}

; Function Attrs: mustprogress uwtable
define linkonce_odr hidden void @_ZN15user_propagator4core29user_propagate_register_fixedERSt8functionIFvPvPNS_8callbackEP4exprS6_EE(ptr noundef nonnull align 8 dereferenceable(8) %this, ptr noundef nonnull align 1 %fixed_eh) unnamed_addr #3 comdat align 2 personality ptr @__gxx_personality_v0 {
entry:
  %ref.tmp = alloca %"class.std::__cxx11::basic_string", align 8
  %ref.tmp2 = alloca %"class.std::allocator", align 1
  %exception = tail call ptr @__cxa_allocate_exception(i64 40) #14
  call void @_ZNSaIcEC1Ev(ptr noundef nonnull align 1 dereferenceable(1) %ref.tmp2) #14
  %call.i2 = invoke noundef ptr @_ZNSt7__cxx1112basic_stringIcSt11char_traitsIcESaIcEE13_M_local_dataEv(ptr noundef nonnull align 8 dereferenceable(32) %ref.tmp)
          to label %call.i.noexc unwind label %lpad

call.i.noexc:                                     ; preds = %entry
  invoke void @_ZNSt7__cxx1112basic_stringIcSt11char_traitsIcESaIcEE12_Alloc_hiderC1EPcRKS3_(ptr noundef nonnull align 8 dereferenceable(8) %ref.tmp, ptr noundef %call.i2, ptr noundef nonnull align 1 dereferenceable(1) %ref.tmp2)
          to label %.noexc unwind label %lpad

.noexc:                                           ; preds = %call.i.noexc
  invoke void @_ZNSt7__cxx1112basic_stringIcSt11char_traitsIcESaIcEE12_M_constructIPKcEEvT_S8_St20forward_iterator_tag(ptr noundef nonnull align 8 dereferenceable(32) %ref.tmp, ptr noundef nonnull @.str, ptr noundef nonnull getelementptr inbounds ([54 x i8], ptr @.str, i64 0, i64 53))
          to label %invoke.cont unwind label %lpad.i

lpad.i:                                           ; preds = %.noexc
  %0 = landingpad { ptr, i32 }
          cleanup
  call void @_ZNSaIcED2Ev(ptr noundef nonnull align 1 dereferenceable(1) %ref.tmp) #14
  br label %cleanup.action

invoke.cont:                                      ; preds = %.noexc
  store ptr getelementptr inbounds ({ [6 x ptr] }, ptr @_ZTV17default_exception, i64 0, inrange i32 0, i64 2), ptr %exception, align 8
  %m_msg.i = getelementptr inbounds %class.default_exception, ptr %exception, i64 0, i32 1
  call void @_ZNSt7__cxx1112basic_stringIcSt11char_traitsIcESaIcEEC1EOS4_(ptr noundef nonnull align 8 dereferenceable(32) %m_msg.i, ptr noundef nonnull align 8 dereferenceable(32) %ref.tmp) #14
  invoke void @__cxa_throw(ptr nonnull %exception, ptr nonnull @_ZTI17default_exception, ptr nonnull @_ZN17default_exceptionD2Ev) #17
          to label %unreachable unwind label %ehcleanup

lpad:                                             ; preds = %call.i.noexc, %entry
  %1 = landingpad { ptr, i32 }
          cleanup
  br label %cleanup.action

ehcleanup:                                        ; preds = %invoke.cont
  %2 = landingpad { ptr, i32 }
          cleanup
  call void @_ZNSt7__cxx1112basic_stringIcSt11char_traitsIcESaIcEED1Ev(ptr noundef nonnull align 8 dereferenceable(32) %ref.tmp) #14
  call void @_ZNSaIcED1Ev(ptr noundef nonnull align 1 dereferenceable(1) %ref.tmp2) #14
  br label %eh.resume

cleanup.action:                                   ; preds = %lpad.i, %lpad
  %.pn.ph = phi { ptr, i32 } [ %0, %lpad.i ], [ %1, %lpad ]
  call void @_ZNSaIcED1Ev(ptr noundef nonnull align 1 dereferenceable(1) %ref.tmp2) #14
  call void @__cxa_free_exception(ptr %exception) #14
  br label %eh.resume

eh.resume:                                        ; preds = %ehcleanup, %cleanup.action
  %.pn5 = phi { ptr, i32 } [ %2, %ehcleanup ], [ %.pn.ph, %cleanup.action ]
  resume { ptr, i32 } %.pn5

unreachable:                                      ; preds = %invoke.cont
  unreachable
}

; Function Attrs: mustprogress uwtable
define linkonce_odr hidden void @_ZN15user_propagator4core29user_propagate_register_finalERSt8functionIFvPvPNS_8callbackEEE(ptr noundef nonnull align 8 dereferenceable(8) %this, ptr noundef nonnull align 1 %final_eh) unnamed_addr #3 comdat align 2 personality ptr @__gxx_personality_v0 {
entry:
  %ref.tmp = alloca %"class.std::__cxx11::basic_string", align 8
  %ref.tmp2 = alloca %"class.std::allocator", align 1
  %exception = tail call ptr @__cxa_allocate_exception(i64 40) #14
  call void @_ZNSaIcEC1Ev(ptr noundef nonnull align 1 dereferenceable(1) %ref.tmp2) #14
  %call.i2 = invoke noundef ptr @_ZNSt7__cxx1112basic_stringIcSt11char_traitsIcESaIcEE13_M_local_dataEv(ptr noundef nonnull align 8 dereferenceable(32) %ref.tmp)
          to label %call.i.noexc unwind label %lpad

call.i.noexc:                                     ; preds = %entry
  invoke void @_ZNSt7__cxx1112basic_stringIcSt11char_traitsIcESaIcEE12_Alloc_hiderC1EPcRKS3_(ptr noundef nonnull align 8 dereferenceable(8) %ref.tmp, ptr noundef %call.i2, ptr noundef nonnull align 1 dereferenceable(1) %ref.tmp2)
          to label %.noexc unwind label %lpad

.noexc:                                           ; preds = %call.i.noexc
  invoke void @_ZNSt7__cxx1112basic_stringIcSt11char_traitsIcESaIcEE12_M_constructIPKcEEvT_S8_St20forward_iterator_tag(ptr noundef nonnull align 8 dereferenceable(32) %ref.tmp, ptr noundef nonnull @.str, ptr noundef nonnull getelementptr inbounds ([54 x i8], ptr @.str, i64 0, i64 53))
          to label %invoke.cont unwind label %lpad.i

lpad.i:                                           ; preds = %.noexc
  %0 = landingpad { ptr, i32 }
          cleanup
  call void @_ZNSaIcED2Ev(ptr noundef nonnull align 1 dereferenceable(1) %ref.tmp) #14
  br label %cleanup.action

invoke.cont:                                      ; preds = %.noexc
  store ptr getelementptr inbounds ({ [6 x ptr] }, ptr @_ZTV17default_exception, i64 0, inrange i32 0, i64 2), ptr %exception, align 8
  %m_msg.i = getelementptr inbounds %class.default_exception, ptr %exception, i64 0, i32 1
  call void @_ZNSt7__cxx1112basic_stringIcSt11char_traitsIcESaIcEEC1EOS4_(ptr noundef nonnull align 8 dereferenceable(32) %m_msg.i, ptr noundef nonnull align 8 dereferenceable(32) %ref.tmp) #14
  invoke void @__cxa_throw(ptr nonnull %exception, ptr nonnull @_ZTI17default_exception, ptr nonnull @_ZN17default_exceptionD2Ev) #17
          to label %unreachable unwind label %ehcleanup

lpad:                                             ; preds = %call.i.noexc, %entry
  %1 = landingpad { ptr, i32 }
          cleanup
  br label %cleanup.action

ehcleanup:                                        ; preds = %invoke.cont
  %2 = landingpad { ptr, i32 }
          cleanup
  call void @_ZNSt7__cxx1112basic_stringIcSt11char_traitsIcESaIcEED1Ev(ptr noundef nonnull align 8 dereferenceable(32) %ref.tmp) #14
  call void @_ZNSaIcED1Ev(ptr noundef nonnull align 1 dereferenceable(1) %ref.tmp2) #14
  br label %eh.resume

cleanup.action:                                   ; preds = %lpad.i, %lpad
  %.pn.ph = phi { ptr, i32 } [ %0, %lpad.i ], [ %1, %lpad ]
  call void @_ZNSaIcED1Ev(ptr noundef nonnull align 1 dereferenceable(1) %ref.tmp2) #14
  call void @__cxa_free_exception(ptr %exception) #14
  br label %eh.resume

eh.resume:                                        ; preds = %ehcleanup, %cleanup.action
  %.pn5 = phi { ptr, i32 } [ %2, %ehcleanup ], [ %.pn.ph, %cleanup.action ]
  resume { ptr, i32 } %.pn5

unreachable:                                      ; preds = %invoke.cont
  unreachable
}

; Function Attrs: mustprogress uwtable
define linkonce_odr hidden void @_ZN15user_propagator4core26user_propagate_register_eqERSt8functionIFvPvPNS_8callbackEP4exprS6_EE(ptr noundef nonnull align 8 dereferenceable(8) %this, ptr noundef nonnull align 1 %eq_eh) unnamed_addr #3 comdat align 2 personality ptr @__gxx_personality_v0 {
entry:
  %ref.tmp = alloca %"class.std::__cxx11::basic_string", align 8
  %ref.tmp2 = alloca %"class.std::allocator", align 1
  %exception = tail call ptr @__cxa_allocate_exception(i64 40) #14
  call void @_ZNSaIcEC1Ev(ptr noundef nonnull align 1 dereferenceable(1) %ref.tmp2) #14
  %call.i2 = invoke noundef ptr @_ZNSt7__cxx1112basic_stringIcSt11char_traitsIcESaIcEE13_M_local_dataEv(ptr noundef nonnull align 8 dereferenceable(32) %ref.tmp)
          to label %call.i.noexc unwind label %lpad

call.i.noexc:                                     ; preds = %entry
  invoke void @_ZNSt7__cxx1112basic_stringIcSt11char_traitsIcESaIcEE12_Alloc_hiderC1EPcRKS3_(ptr noundef nonnull align 8 dereferenceable(8) %ref.tmp, ptr noundef %call.i2, ptr noundef nonnull align 1 dereferenceable(1) %ref.tmp2)
          to label %.noexc unwind label %lpad

.noexc:                                           ; preds = %call.i.noexc
  invoke void @_ZNSt7__cxx1112basic_stringIcSt11char_traitsIcESaIcEE12_M_constructIPKcEEvT_S8_St20forward_iterator_tag(ptr noundef nonnull align 8 dereferenceable(32) %ref.tmp, ptr noundef nonnull @.str, ptr noundef nonnull getelementptr inbounds ([54 x i8], ptr @.str, i64 0, i64 53))
          to label %invoke.cont unwind label %lpad.i

lpad.i:                                           ; preds = %.noexc
  %0 = landingpad { ptr, i32 }
          cleanup
  call void @_ZNSaIcED2Ev(ptr noundef nonnull align 1 dereferenceable(1) %ref.tmp) #14
  br label %cleanup.action

invoke.cont:                                      ; preds = %.noexc
  store ptr getelementptr inbounds ({ [6 x ptr] }, ptr @_ZTV17default_exception, i64 0, inrange i32 0, i64 2), ptr %exception, align 8
  %m_msg.i = getelementptr inbounds %class.default_exception, ptr %exception, i64 0, i32 1
  call void @_ZNSt7__cxx1112basic_stringIcSt11char_traitsIcESaIcEEC1EOS4_(ptr noundef nonnull align 8 dereferenceable(32) %m_msg.i, ptr noundef nonnull align 8 dereferenceable(32) %ref.tmp) #14
  invoke void @__cxa_throw(ptr nonnull %exception, ptr nonnull @_ZTI17default_exception, ptr nonnull @_ZN17default_exceptionD2Ev) #17
          to label %unreachable unwind label %ehcleanup

lpad:                                             ; preds = %call.i.noexc, %entry
  %1 = landingpad { ptr, i32 }
          cleanup
  br label %cleanup.action

ehcleanup:                                        ; preds = %invoke.cont
  %2 = landingpad { ptr, i32 }
          cleanup
  call void @_ZNSt7__cxx1112basic_stringIcSt11char_traitsIcESaIcEED1Ev(ptr noundef nonnull align 8 dereferenceable(32) %ref.tmp) #14
  call void @_ZNSaIcED1Ev(ptr noundef nonnull align 1 dereferenceable(1) %ref.tmp2) #14
  br label %eh.resume

cleanup.action:                                   ; preds = %lpad.i, %lpad
  %.pn.ph = phi { ptr, i32 } [ %0, %lpad.i ], [ %1, %lpad ]
  call void @_ZNSaIcED1Ev(ptr noundef nonnull align 1 dereferenceable(1) %ref.tmp2) #14
  call void @__cxa_free_exception(ptr %exception) #14
  br label %eh.resume

eh.resume:                                        ; preds = %ehcleanup, %cleanup.action
  %.pn5 = phi { ptr, i32 } [ %2, %ehcleanup ], [ %.pn.ph, %cleanup.action ]
  resume { ptr, i32 } %.pn5

unreachable:                                      ; preds = %invoke.cont
  unreachable
}

; Function Attrs: mustprogress uwtable
define linkonce_odr hidden void @_ZN15user_propagator4core29user_propagate_register_diseqERSt8functionIFvPvPNS_8callbackEP4exprS6_EE(ptr noundef nonnull align 8 dereferenceable(8) %this, ptr noundef nonnull align 1 %diseq_eh) unnamed_addr #3 comdat align 2 personality ptr @__gxx_personality_v0 {
entry:
  %ref.tmp = alloca %"class.std::__cxx11::basic_string", align 8
  %ref.tmp2 = alloca %"class.std::allocator", align 1
  %exception = tail call ptr @__cxa_allocate_exception(i64 40) #14
  call void @_ZNSaIcEC1Ev(ptr noundef nonnull align 1 dereferenceable(1) %ref.tmp2) #14
  %call.i2 = invoke noundef ptr @_ZNSt7__cxx1112basic_stringIcSt11char_traitsIcESaIcEE13_M_local_dataEv(ptr noundef nonnull align 8 dereferenceable(32) %ref.tmp)
          to label %call.i.noexc unwind label %lpad

call.i.noexc:                                     ; preds = %entry
  invoke void @_ZNSt7__cxx1112basic_stringIcSt11char_traitsIcESaIcEE12_Alloc_hiderC1EPcRKS3_(ptr noundef nonnull align 8 dereferenceable(8) %ref.tmp, ptr noundef %call.i2, ptr noundef nonnull align 1 dereferenceable(1) %ref.tmp2)
          to label %.noexc unwind label %lpad

.noexc:                                           ; preds = %call.i.noexc
  invoke void @_ZNSt7__cxx1112basic_stringIcSt11char_traitsIcESaIcEE12_M_constructIPKcEEvT_S8_St20forward_iterator_tag(ptr noundef nonnull align 8 dereferenceable(32) %ref.tmp, ptr noundef nonnull @.str, ptr noundef nonnull getelementptr inbounds ([54 x i8], ptr @.str, i64 0, i64 53))
          to label %invoke.cont unwind label %lpad.i

lpad.i:                                           ; preds = %.noexc
  %0 = landingpad { ptr, i32 }
          cleanup
  call void @_ZNSaIcED2Ev(ptr noundef nonnull align 1 dereferenceable(1) %ref.tmp) #14
  br label %cleanup.action

invoke.cont:                                      ; preds = %.noexc
  store ptr getelementptr inbounds ({ [6 x ptr] }, ptr @_ZTV17default_exception, i64 0, inrange i32 0, i64 2), ptr %exception, align 8
  %m_msg.i = getelementptr inbounds %class.default_exception, ptr %exception, i64 0, i32 1
  call void @_ZNSt7__cxx1112basic_stringIcSt11char_traitsIcESaIcEEC1EOS4_(ptr noundef nonnull align 8 dereferenceable(32) %m_msg.i, ptr noundef nonnull align 8 dereferenceable(32) %ref.tmp) #14
  invoke void @__cxa_throw(ptr nonnull %exception, ptr nonnull @_ZTI17default_exception, ptr nonnull @_ZN17default_exceptionD2Ev) #17
          to label %unreachable unwind label %ehcleanup

lpad:                                             ; preds = %call.i.noexc, %entry
  %1 = landingpad { ptr, i32 }
          cleanup
  br label %cleanup.action

ehcleanup:                                        ; preds = %invoke.cont
  %2 = landingpad { ptr, i32 }
          cleanup
  call void @_ZNSt7__cxx1112basic_stringIcSt11char_traitsIcESaIcEED1Ev(ptr noundef nonnull align 8 dereferenceable(32) %ref.tmp) #14
  call void @_ZNSaIcED1Ev(ptr noundef nonnull align 1 dereferenceable(1) %ref.tmp2) #14
  br label %eh.resume

cleanup.action:                                   ; preds = %lpad.i, %lpad
  %.pn.ph = phi { ptr, i32 } [ %0, %lpad.i ], [ %1, %lpad ]
  call void @_ZNSaIcED1Ev(ptr noundef nonnull align 1 dereferenceable(1) %ref.tmp2) #14
  call void @__cxa_free_exception(ptr %exception) #14
  br label %eh.resume

eh.resume:                                        ; preds = %ehcleanup, %cleanup.action
  %.pn5 = phi { ptr, i32 } [ %2, %ehcleanup ], [ %.pn.ph, %cleanup.action ]
  resume { ptr, i32 } %.pn5

unreachable:                                      ; preds = %invoke.cont
  unreachable
}

; Function Attrs: mustprogress nounwind uwtable
define linkonce_odr hidden void @_ZN6tactic28user_propagate_register_exprEP4expr(ptr noundef nonnull align 8 dereferenceable(12) %this, ptr noundef %e) unnamed_addr #4 comdat align 2 {
entry:
  ret void
}

; Function Attrs: mustprogress uwtable
define linkonce_odr hidden void @_ZN15user_propagator4core31user_propagate_register_createdERSt8functionIFvPvPNS_8callbackEP4exprEE(ptr noundef nonnull align 8 dereferenceable(8) %this, ptr noundef nonnull align 1 %r) unnamed_addr #3 comdat align 2 personality ptr @__gxx_personality_v0 {
entry:
  %ref.tmp = alloca %"class.std::__cxx11::basic_string", align 8
  %ref.tmp2 = alloca %"class.std::allocator", align 1
  %exception = tail call ptr @__cxa_allocate_exception(i64 40) #14
  call void @_ZNSaIcEC1Ev(ptr noundef nonnull align 1 dereferenceable(1) %ref.tmp2) #14
  %call.i2 = invoke noundef ptr @_ZNSt7__cxx1112basic_stringIcSt11char_traitsIcESaIcEE13_M_local_dataEv(ptr noundef nonnull align 8 dereferenceable(32) %ref.tmp)
          to label %call.i.noexc unwind label %lpad

call.i.noexc:                                     ; preds = %entry
  invoke void @_ZNSt7__cxx1112basic_stringIcSt11char_traitsIcESaIcEE12_Alloc_hiderC1EPcRKS3_(ptr noundef nonnull align 8 dereferenceable(8) %ref.tmp, ptr noundef %call.i2, ptr noundef nonnull align 1 dereferenceable(1) %ref.tmp2)
          to label %.noexc unwind label %lpad

.noexc:                                           ; preds = %call.i.noexc
  invoke void @_ZNSt7__cxx1112basic_stringIcSt11char_traitsIcESaIcEE12_M_constructIPKcEEvT_S8_St20forward_iterator_tag(ptr noundef nonnull align 8 dereferenceable(32) %ref.tmp, ptr noundef nonnull @.str, ptr noundef nonnull getelementptr inbounds ([54 x i8], ptr @.str, i64 0, i64 53))
          to label %invoke.cont unwind label %lpad.i

lpad.i:                                           ; preds = %.noexc
  %0 = landingpad { ptr, i32 }
          cleanup
  call void @_ZNSaIcED2Ev(ptr noundef nonnull align 1 dereferenceable(1) %ref.tmp) #14
  br label %cleanup.action

invoke.cont:                                      ; preds = %.noexc
  store ptr getelementptr inbounds ({ [6 x ptr] }, ptr @_ZTV17default_exception, i64 0, inrange i32 0, i64 2), ptr %exception, align 8
  %m_msg.i = getelementptr inbounds %class.default_exception, ptr %exception, i64 0, i32 1
  call void @_ZNSt7__cxx1112basic_stringIcSt11char_traitsIcESaIcEEC1EOS4_(ptr noundef nonnull align 8 dereferenceable(32) %m_msg.i, ptr noundef nonnull align 8 dereferenceable(32) %ref.tmp) #14
  invoke void @__cxa_throw(ptr nonnull %exception, ptr nonnull @_ZTI17default_exception, ptr nonnull @_ZN17default_exceptionD2Ev) #17
          to label %unreachable unwind label %ehcleanup

lpad:                                             ; preds = %call.i.noexc, %entry
  %1 = landingpad { ptr, i32 }
          cleanup
  br label %cleanup.action

ehcleanup:                                        ; preds = %invoke.cont
  %2 = landingpad { ptr, i32 }
          cleanup
  call void @_ZNSt7__cxx1112basic_stringIcSt11char_traitsIcESaIcEED1Ev(ptr noundef nonnull align 8 dereferenceable(32) %ref.tmp) #14
  call void @_ZNSaIcED1Ev(ptr noundef nonnull align 1 dereferenceable(1) %ref.tmp2) #14
  br label %eh.resume

cleanup.action:                                   ; preds = %lpad.i, %lpad
  %.pn.ph = phi { ptr, i32 } [ %0, %lpad.i ], [ %1, %lpad ]
  call void @_ZNSaIcED1Ev(ptr noundef nonnull align 1 dereferenceable(1) %ref.tmp2) #14
  call void @__cxa_free_exception(ptr %exception) #14
  br label %eh.resume

eh.resume:                                        ; preds = %ehcleanup, %cleanup.action
  %.pn5 = phi { ptr, i32 } [ %2, %ehcleanup ], [ %.pn.ph, %cleanup.action ]
  resume { ptr, i32 } %.pn5

unreachable:                                      ; preds = %invoke.cont
  unreachable
}

; Function Attrs: mustprogress uwtable
define linkonce_odr hidden void @_ZN15user_propagator4core30user_propagate_register_decideERSt8functionIFvPvPNS_8callbackEP4exprjbEE(ptr noundef nonnull align 8 dereferenceable(8) %this, ptr noundef nonnull align 1 %r) unnamed_addr #3 comdat align 2 personality ptr @__gxx_personality_v0 {
entry:
  %ref.tmp = alloca %"class.std::__cxx11::basic_string", align 8
  %ref.tmp2 = alloca %"class.std::allocator", align 1
  %exception = tail call ptr @__cxa_allocate_exception(i64 40) #14
  call void @_ZNSaIcEC1Ev(ptr noundef nonnull align 1 dereferenceable(1) %ref.tmp2) #14
  %call.i2 = invoke noundef ptr @_ZNSt7__cxx1112basic_stringIcSt11char_traitsIcESaIcEE13_M_local_dataEv(ptr noundef nonnull align 8 dereferenceable(32) %ref.tmp)
          to label %call.i.noexc unwind label %lpad

call.i.noexc:                                     ; preds = %entry
  invoke void @_ZNSt7__cxx1112basic_stringIcSt11char_traitsIcESaIcEE12_Alloc_hiderC1EPcRKS3_(ptr noundef nonnull align 8 dereferenceable(8) %ref.tmp, ptr noundef %call.i2, ptr noundef nonnull align 1 dereferenceable(1) %ref.tmp2)
          to label %.noexc unwind label %lpad

.noexc:                                           ; preds = %call.i.noexc
  invoke void @_ZNSt7__cxx1112basic_stringIcSt11char_traitsIcESaIcEE12_M_constructIPKcEEvT_S8_St20forward_iterator_tag(ptr noundef nonnull align 8 dereferenceable(32) %ref.tmp, ptr noundef nonnull @.str, ptr noundef nonnull getelementptr inbounds ([54 x i8], ptr @.str, i64 0, i64 53))
          to label %invoke.cont unwind label %lpad.i

lpad.i:                                           ; preds = %.noexc
  %0 = landingpad { ptr, i32 }
          cleanup
  call void @_ZNSaIcED2Ev(ptr noundef nonnull align 1 dereferenceable(1) %ref.tmp) #14
  br label %cleanup.action

invoke.cont:                                      ; preds = %.noexc
  store ptr getelementptr inbounds ({ [6 x ptr] }, ptr @_ZTV17default_exception, i64 0, inrange i32 0, i64 2), ptr %exception, align 8
  %m_msg.i = getelementptr inbounds %class.default_exception, ptr %exception, i64 0, i32 1
  call void @_ZNSt7__cxx1112basic_stringIcSt11char_traitsIcESaIcEEC1EOS4_(ptr noundef nonnull align 8 dereferenceable(32) %m_msg.i, ptr noundef nonnull align 8 dereferenceable(32) %ref.tmp) #14
  invoke void @__cxa_throw(ptr nonnull %exception, ptr nonnull @_ZTI17default_exception, ptr nonnull @_ZN17default_exceptionD2Ev) #17
          to label %unreachable unwind label %ehcleanup

lpad:                                             ; preds = %call.i.noexc, %entry
  %1 = landingpad { ptr, i32 }
          cleanup
  br label %cleanup.action

ehcleanup:                                        ; preds = %invoke.cont
  %2 = landingpad { ptr, i32 }
          cleanup
  call void @_ZNSt7__cxx1112basic_stringIcSt11char_traitsIcESaIcEED1Ev(ptr noundef nonnull align 8 dereferenceable(32) %ref.tmp) #14
  call void @_ZNSaIcED1Ev(ptr noundef nonnull align 1 dereferenceable(1) %ref.tmp2) #14
  br label %eh.resume

cleanup.action:                                   ; preds = %lpad.i, %lpad
  %.pn.ph = phi { ptr, i32 } [ %0, %lpad.i ], [ %1, %lpad ]
  call void @_ZNSaIcED1Ev(ptr noundef nonnull align 1 dereferenceable(1) %ref.tmp2) #14
  call void @__cxa_free_exception(ptr %exception) #14
  br label %eh.resume

eh.resume:                                        ; preds = %ehcleanup, %cleanup.action
  %.pn5 = phi { ptr, i32 } [ %2, %ehcleanup ], [ %.pn.ph, %cleanup.action ]
  resume { ptr, i32 } %.pn5

unreachable:                                      ; preds = %invoke.cont
  unreachable
}

; Function Attrs: mustprogress nounwind uwtable
define linkonce_odr hidden void @_ZN15user_propagator4core20user_propagate_clearEv(ptr noundef nonnull align 8 dereferenceable(8) %this) unnamed_addr #4 comdat align 2 {
entry:
  ret void
}

; Function Attrs: mustprogress uwtable
define linkonce_odr hidden void @_ZN6tactic18register_on_clauseEPvRSt8functionIFvS0_P4exprjPKjjPKS3_EE(ptr noundef nonnull align 8 dereferenceable(12) %this, ptr noundef %ctx, ptr noundef nonnull align 1 %on_clause) unnamed_addr #3 comdat align 2 personality ptr @__gxx_personality_v0 {
entry:
  %ref.tmp = alloca %"class.std::__cxx11::basic_string", align 8
  %ref.tmp2 = alloca %"class.std::allocator", align 1
  %exception = tail call ptr @__cxa_allocate_exception(i64 40) #14
  call void @_ZNSaIcEC1Ev(ptr noundef nonnull align 1 dereferenceable(1) %ref.tmp2) #14
  %call.i2 = invoke noundef ptr @_ZNSt7__cxx1112basic_stringIcSt11char_traitsIcESaIcEE13_M_local_dataEv(ptr noundef nonnull align 8 dereferenceable(32) %ref.tmp)
          to label %call.i.noexc unwind label %lpad

call.i.noexc:                                     ; preds = %entry
  invoke void @_ZNSt7__cxx1112basic_stringIcSt11char_traitsIcESaIcEE12_Alloc_hiderC1EPcRKS3_(ptr noundef nonnull align 8 dereferenceable(8) %ref.tmp, ptr noundef %call.i2, ptr noundef nonnull align 1 dereferenceable(1) %ref.tmp2)
          to label %.noexc unwind label %lpad

.noexc:                                           ; preds = %call.i.noexc
  invoke void @_ZNSt7__cxx1112basic_stringIcSt11char_traitsIcESaIcEE12_M_constructIPKcEEvT_S8_St20forward_iterator_tag(ptr noundef nonnull align 8 dereferenceable(32) %ref.tmp, ptr noundef nonnull @.str.7, ptr noundef nonnull getelementptr inbounds ([39 x i8], ptr @.str.7, i64 0, i64 38))
          to label %invoke.cont unwind label %lpad.i

lpad.i:                                           ; preds = %.noexc
  %0 = landingpad { ptr, i32 }
          cleanup
  call void @_ZNSaIcED2Ev(ptr noundef nonnull align 1 dereferenceable(1) %ref.tmp) #14
  br label %cleanup.action

invoke.cont:                                      ; preds = %.noexc
  store ptr getelementptr inbounds ({ [6 x ptr] }, ptr @_ZTV17default_exception, i64 0, inrange i32 0, i64 2), ptr %exception, align 8
  %m_msg.i = getelementptr inbounds %class.default_exception, ptr %exception, i64 0, i32 1
  call void @_ZNSt7__cxx1112basic_stringIcSt11char_traitsIcESaIcEEC1EOS4_(ptr noundef nonnull align 8 dereferenceable(32) %m_msg.i, ptr noundef nonnull align 8 dereferenceable(32) %ref.tmp) #14
  invoke void @__cxa_throw(ptr nonnull %exception, ptr nonnull @_ZTI17default_exception, ptr nonnull @_ZN17default_exceptionD2Ev) #17
          to label %unreachable unwind label %ehcleanup

lpad:                                             ; preds = %call.i.noexc, %entry
  %1 = landingpad { ptr, i32 }
          cleanup
  br label %cleanup.action

ehcleanup:                                        ; preds = %invoke.cont
  %2 = landingpad { ptr, i32 }
          cleanup
  call void @_ZNSt7__cxx1112basic_stringIcSt11char_traitsIcESaIcEED1Ev(ptr noundef nonnull align 8 dereferenceable(32) %ref.tmp) #14
  call void @_ZNSaIcED1Ev(ptr noundef nonnull align 1 dereferenceable(1) %ref.tmp2) #14
  br label %eh.resume

cleanup.action:                                   ; preds = %lpad.i, %lpad
  %.pn.ph = phi { ptr, i32 } [ %0, %lpad.i ], [ %1, %lpad ]
  call void @_ZNSaIcED1Ev(ptr noundef nonnull align 1 dereferenceable(1) %ref.tmp2) #14
  call void @__cxa_free_exception(ptr %exception) #14
  br label %eh.resume

eh.resume:                                        ; preds = %ehcleanup, %cleanup.action
  %.pn5 = phi { ptr, i32 } [ %2, %ehcleanup ], [ %.pn.ph, %cleanup.action ]
  resume { ptr, i32 } %.pn5

unreachable:                                      ; preds = %invoke.cont
  unreachable
}

; Function Attrs: mustprogress uwtable
define linkonce_odr hidden void @_ZN11horn_tactic11updt_paramsERK10params_ref(ptr noundef nonnull align 8 dereferenceable(48) %this, ptr noundef nonnull align 8 dereferenceable(8) %p) unnamed_addr #3 comdat align 2 {
entry:
  %m_params = getelementptr inbounds %class.horn_tactic, ptr %this, i64 0, i32 2
  tail call void @_ZN10params_ref4copyERKS_(ptr noundef nonnull align 8 dereferenceable(8) %m_params, ptr noundef nonnull align 8 dereferenceable(8) %p)
  %m_imp = getelementptr inbounds %class.horn_tactic, ptr %this, i64 0, i32 4
  %0 = load ptr, ptr %m_imp, align 8
  %m_ctx.i = getelementptr inbounds %"struct.horn_tactic::imp", ptr %0, i64 0, i32 3
  tail call void @_ZN7datalog7context11updt_paramsERK10params_ref(ptr noundef nonnull align 8 dereferenceable(3556) %m_ctx.i, ptr noundef nonnull align 8 dereferenceable(8) %m_params)
  ret void
}

; Function Attrs: mustprogress uwtable
define linkonce_odr hidden void @_ZN11horn_tactic20collect_param_descrsER12param_descrs(ptr noundef nonnull align 8 dereferenceable(48) %this, ptr noundef nonnull align 8 dereferenceable(8) %r) unnamed_addr #3 comdat align 2 {
entry:
  %m_imp = getelementptr inbounds %class.horn_tactic, ptr %this, i64 0, i32 4
  %0 = load ptr, ptr %m_imp, align 8
  %m_ctx.i = getelementptr inbounds %"struct.horn_tactic::imp", ptr %0, i64 0, i32 3
  tail call void @_ZN7datalog7context14collect_paramsER12param_descrs(ptr noundef nonnull align 8 dereferenceable(3556) %m_ctx.i, ptr noundef nonnull align 8 dereferenceable(8) %r)
  ret void
}

; Function Attrs: mustprogress uwtable
define linkonce_odr hidden void @_ZN11horn_tacticclERK3refI4goalER11sref_bufferIS1_Lj16EE(ptr noundef nonnull align 8 dereferenceable(48) %this, ptr noundef nonnull align 8 dereferenceable(8) %in, ptr noundef nonnull align 8 dereferenceable(144) %result) unnamed_addr #3 comdat align 2 {
entry:
  %m_imp = getelementptr inbounds %class.horn_tactic, ptr %this, i64 0, i32 4
  %0 = load ptr, ptr %m_imp, align 8
  tail call void @_ZN11horn_tactic3impclERK3refI4goalER11sref_bufferIS2_Lj16EE(ptr noundef nonnull align 8 dereferenceable(4432) %0, ptr noundef nonnull align 8 dereferenceable(8) %in, ptr noundef nonnull align 8 dereferenceable(144) %result)
  ret void
}

; Function Attrs: mustprogress uwtable
define linkonce_odr hidden void @_ZNK11horn_tactic18collect_statisticsER10statistics(ptr noundef nonnull align 8 dereferenceable(48) %this, ptr noundef nonnull align 8 dereferenceable(16) %st) unnamed_addr #3 comdat align 2 {
entry:
  %m_imp = getelementptr inbounds %class.horn_tactic, ptr %this, i64 0, i32 4
  %0 = load ptr, ptr %m_imp, align 8
  %m_ctx.i = getelementptr inbounds %"struct.horn_tactic::imp", ptr %0, i64 0, i32 3
  tail call void @_ZNK7datalog7context18collect_statisticsER10statistics(ptr noundef nonnull align 8 dereferenceable(3556) %m_ctx.i, ptr noundef nonnull align 8 dereferenceable(16) %st)
  %m_stats = getelementptr inbounds %class.horn_tactic, ptr %this, i64 0, i32 3
  tail call void @_ZN10statistics4copyERKS_(ptr noundef nonnull align 8 dereferenceable(16) %st, ptr noundef nonnull align 8 dereferenceable(16) %m_stats)
  ret void
}

; Function Attrs: mustprogress uwtable
define linkonce_odr hidden void @_ZN11horn_tactic16reset_statisticsEv(ptr noundef nonnull align 8 dereferenceable(48) %this) unnamed_addr #3 comdat align 2 {
entry:
  %m_stats = getelementptr inbounds %class.horn_tactic, ptr %this, i64 0, i32 3
  tail call void @_ZN10statistics5resetEv(ptr noundef nonnull align 8 dereferenceable(16) %m_stats)
  %m_imp = getelementptr inbounds %class.horn_tactic, ptr %this, i64 0, i32 4
  %0 = load ptr, ptr %m_imp, align 8
  %m_ctx.i = getelementptr inbounds %"struct.horn_tactic::imp", ptr %0, i64 0, i32 3
  tail call void @_ZN7datalog7context16reset_statisticsEv(ptr noundef nonnull align 8 dereferenceable(3556) %m_ctx.i)
  ret void
}

; Function Attrs: mustprogress uwtable
define linkonce_odr hidden void @_ZN11horn_tactic7cleanupEv(ptr noundef nonnull align 8 dereferenceable(48) %this) unnamed_addr #3 comdat align 2 {
entry:
  %m_imp = getelementptr inbounds %class.horn_tactic, ptr %this, i64 0, i32 4
  %0 = load ptr, ptr %m_imp, align 8
  %1 = load ptr, ptr %0, align 8
  %m_stats = getelementptr inbounds %class.horn_tactic, ptr %this, i64 0, i32 3
  %m_ctx.i = getelementptr inbounds %"struct.horn_tactic::imp", ptr %0, i64 0, i32 3
  tail call void @_ZNK7datalog7context18collect_statisticsER10statistics(ptr noundef nonnull align 8 dereferenceable(3556) %m_ctx.i, ptr noundef nonnull align 8 dereferenceable(16) %m_stats)
  %2 = load ptr, ptr %m_imp, align 8
  %cmp.i = icmp eq ptr %2, null
  br i1 %cmp.i, label %_Z7deallocIN11horn_tactic3impEEvPT_.exit, label %if.end.i

if.end.i:                                         ; preds = %entry
  tail call void @_ZN11horn_tactic3impD2Ev(ptr noundef nonnull align 8 dereferenceable(4432) %2) #14
  tail call void @_ZN6memory10deallocateEPv(ptr noundef nonnull %2)
  br label %_Z7deallocIN11horn_tactic3impEEvPT_.exit

_Z7deallocIN11horn_tactic3impEEvPT_.exit:         ; preds = %entry, %if.end.i
  %call = tail call noalias noundef ptr @_ZN6memory8allocateEm(i64 noundef 4432)
  %m_is_simplify = getelementptr inbounds %class.horn_tactic, ptr %this, i64 0, i32 1
  %3 = load i8, ptr %m_is_simplify, align 4
  %4 = and i8 %3, 1
  %tobool = icmp ne i8 %4, 0
  %m_params = getelementptr inbounds %class.horn_tactic, ptr %this, i64 0, i32 2
  tail call void @_ZN11horn_tactic3impC2EbR11ast_managerRK10params_ref(ptr noundef nonnull align 8 dereferenceable(4432) %call, i1 noundef zeroext %tobool, ptr noundef nonnull align 8 dereferenceable(976) %1, ptr noundef nonnull align 8 dereferenceable(8) %m_params)
  store ptr %call, ptr %m_imp, align 8
  ret void
}

; Function Attrs: mustprogress uwtable
define linkonce_odr hidden void @_ZN6tactic5resetEv(ptr noundef nonnull align 8 dereferenceable(12) %this) unnamed_addr #3 comdat align 2 {
entry:
  %vtable = load ptr, ptr %this, align 8
  %vfn = getelementptr inbounds ptr, ptr %vtable, i64 17
  %0 = load ptr, ptr %vfn, align 8
  tail call void %0(ptr noundef nonnull align 8 dereferenceable(12) %this)
  ret void
}

; Function Attrs: mustprogress nounwind uwtable
define linkonce_odr hidden void @_ZN6tactic9set_logicERK6symbol(ptr noundef nonnull align 8 dereferenceable(12) %this, ptr noundef nonnull align 8 dereferenceable(8) %l) unnamed_addr #4 comdat align 2 {
entry:
  ret void
}

; Function Attrs: mustprogress nounwind uwtable
define linkonce_odr hidden void @_ZN6tactic21set_progress_callbackEP17progress_callback(ptr noundef nonnull align 8 dereferenceable(12) %this, ptr noundef %callback) unnamed_addr #4 comdat align 2 {
entry:
  ret void
}

; Function Attrs: mustprogress uwtable
define linkonce_odr hidden noundef ptr @_ZN11horn_tactic9translateER11ast_manager(ptr noundef nonnull align 8 dereferenceable(48) %this, ptr noundef nonnull align 8 dereferenceable(976) %m) unnamed_addr #3 comdat align 2 personality ptr @__gxx_personality_v0 {
entry:
  %call = tail call noalias noundef ptr @_ZN6memory8allocateEm(i64 noundef 48)
  %m_is_simplify = getelementptr inbounds %class.horn_tactic, ptr %this, i64 0, i32 1
  %0 = load i8, ptr %m_is_simplify, align 4
  %1 = and i8 %0, 1
  %m_params = getelementptr inbounds %class.horn_tactic, ptr %this, i64 0, i32 2
  %m_ref_count.i.i = getelementptr inbounds %class.tactic, ptr %call, i64 0, i32 1
  store i32 0, ptr %m_ref_count.i.i, align 8
  store ptr getelementptr inbounds ({ [25 x ptr] }, ptr @_ZTV11horn_tactic, i64 0, inrange i32 0, i64 2), ptr %call, align 8
  %m_is_simplify.i = getelementptr inbounds %class.horn_tactic, ptr %call, i64 0, i32 1
  store i8 %1, ptr %m_is_simplify.i, align 4
  %m_params.i = getelementptr inbounds %class.horn_tactic, ptr %call, i64 0, i32 2
  tail call void @_ZN10params_refC1ERKS_(ptr noundef nonnull align 8 dereferenceable(8) %m_params.i, ptr noundef nonnull align 8 dereferenceable(8) %m_params)
  %m_stats.i = getelementptr inbounds %class.horn_tactic, ptr %call, i64 0, i32 3
  tail call void @llvm.memset.p0.i64(ptr noundef nonnull align 8 dereferenceable(16) %m_stats.i, i8 0, i64 16, i1 false)
  %call.i = invoke noalias noundef ptr @_ZN6memory8allocateEm(i64 noundef 4432)
          to label %invoke.cont6.i unwind label %lpad5.i

invoke.cont6.i:                                   ; preds = %entry
  %tobool = icmp ne i8 %1, 0
  invoke void @_ZN11horn_tactic3impC2EbR11ast_managerRK10params_ref(ptr noundef nonnull align 8 dereferenceable(4432) %call.i, i1 noundef zeroext %tobool, ptr noundef nonnull align 8 dereferenceable(976) %m, ptr noundef nonnull align 8 dereferenceable(8) %m_params)
          to label %_ZN11horn_tacticC2EbR11ast_managerRK10params_ref.exit unwind label %lpad5.i

lpad5.i:                                          ; preds = %invoke.cont6.i, %entry
  %2 = landingpad { ptr, i32 }
          cleanup
  tail call void @_ZN10statisticsD2Ev(ptr noundef nonnull align 8 dereferenceable(16) %m_stats.i) #14
  tail call void @_ZN10params_refD1Ev(ptr noundef nonnull align 8 dereferenceable(8) %m_params.i) #14
  resume { ptr, i32 } %2

_ZN11horn_tacticC2EbR11ast_managerRK10params_ref.exit: ; preds = %invoke.cont6.i
  %m_imp.i = getelementptr inbounds %class.horn_tactic, ptr %call, i64 0, i32 4
  store ptr %call.i, ptr %m_imp.i, align 8
  ret ptr %call
}

; Function Attrs: mustprogress nounwind uwtable
define linkonce_odr hidden noundef ptr @_ZNK11horn_tactic4nameEv(ptr noundef nonnull align 8 dereferenceable(48) %this) unnamed_addr #4 comdat align 2 {
entry:
  ret ptr @.str.8
}

; Function Attrs: nobuiltin nounwind
declare void @_ZdlPv(ptr noundef) local_unnamed_addr #5

declare ptr @__cxa_allocate_exception(i64) local_unnamed_addr

; Function Attrs: nounwind
declare void @_ZNSaIcEC1Ev(ptr noundef nonnull align 1 dereferenceable(1)) unnamed_addr #1

; Function Attrs: mustprogress uwtable
define linkonce_odr hidden void @_ZNSt7__cxx1112basic_stringIcSt11char_traitsIcESaIcEEC2IS3_EEPKcRKS3_(ptr noundef nonnull align 8 dereferenceable(32) %this, ptr noundef %__s, ptr noundef nonnull align 1 dereferenceable(1) %__a) unnamed_addr #3 comdat align 2 personality ptr @__gxx_personality_v0 {
entry:
  %call = tail call noundef ptr @_ZNSt7__cxx1112basic_stringIcSt11char_traitsIcESaIcEE13_M_local_dataEv(ptr noundef nonnull align 8 dereferenceable(32) %this)
  tail call void @_ZNSt7__cxx1112basic_stringIcSt11char_traitsIcESaIcEE12_Alloc_hiderC1EPcRKS3_(ptr noundef nonnull align 8 dereferenceable(8) %this, ptr noundef %call, ptr noundef nonnull align 1 dereferenceable(1) %__a)
  %cmp = icmp eq ptr %__s, null
  br i1 %cmp, label %if.then, label %if.end

if.then:                                          ; preds = %entry
  invoke void @_ZSt19__throw_logic_errorPKc(ptr noundef nonnull @.str.1) #17
          to label %invoke.cont unwind label %lpad

invoke.cont:                                      ; preds = %if.then
  unreachable

lpad:                                             ; preds = %if.end, %if.then
  %0 = landingpad { ptr, i32 }
          cleanup
  tail call void @_ZNSaIcED2Ev(ptr noundef nonnull align 1 dereferenceable(1) %this) #14
  resume { ptr, i32 } %0

if.end:                                           ; preds = %entry
  %call.i = tail call noundef i64 @strlen(ptr noundef nonnull dereferenceable(1) %__s) #14
  %add.ptr = getelementptr inbounds i8, ptr %__s, i64 %call.i
  invoke void @_ZNSt7__cxx1112basic_stringIcSt11char_traitsIcESaIcEE12_M_constructIPKcEEvT_S8_St20forward_iterator_tag(ptr noundef nonnull align 8 dereferenceable(32) %this, ptr noundef nonnull %__s, ptr noundef nonnull %add.ptr)
          to label %invoke.cont4 unwind label %lpad

invoke.cont4:                                     ; preds = %if.end
  ret void
}

; Function Attrs: mustprogress nounwind uwtable
define linkonce_odr hidden void @_ZN17default_exceptionD2Ev(ptr noundef nonnull align 8 dereferenceable(40) %this) unnamed_addr #4 comdat align 2 {
entry:
  store ptr getelementptr inbounds ({ [6 x ptr] }, ptr @_ZTV17default_exception, i64 0, inrange i32 0, i64 2), ptr %this, align 8
  %m_msg = getelementptr inbounds %class.default_exception, ptr %this, i64 0, i32 1
  tail call void @_ZNSt7__cxx1112basic_stringIcSt11char_traitsIcESaIcEED1Ev(ptr noundef nonnull align 8 dereferenceable(32) %m_msg) #14
  ret void
}

declare void @__cxa_throw(ptr, ptr, ptr) local_unnamed_addr

; Function Attrs: nounwind
declare void @_ZNSt7__cxx1112basic_stringIcSt11char_traitsIcESaIcEED1Ev(ptr noundef nonnull align 8 dereferenceable(32)) unnamed_addr #1

; Function Attrs: nounwind
declare void @_ZNSaIcED1Ev(ptr noundef nonnull align 1 dereferenceable(1)) unnamed_addr #1

declare void @__cxa_free_exception(ptr) local_unnamed_addr

declare noundef ptr @_ZNSt7__cxx1112basic_stringIcSt11char_traitsIcESaIcEE13_M_local_dataEv(ptr noundef nonnull align 8 dereferenceable(32)) local_unnamed_addr #0

declare void @_ZNSt7__cxx1112basic_stringIcSt11char_traitsIcESaIcEE12_Alloc_hiderC1EPcRKS3_(ptr noundef nonnull align 8 dereferenceable(8), ptr noundef, ptr noundef nonnull align 1 dereferenceable(1)) unnamed_addr #0

; Function Attrs: noreturn
declare void @_ZSt19__throw_logic_errorPKc(ptr noundef) local_unnamed_addr #6

; Function Attrs: mustprogress uwtable
define linkonce_odr void @_ZNSt7__cxx1112basic_stringIcSt11char_traitsIcESaIcEE12_M_constructIPKcEEvT_S8_St20forward_iterator_tag(ptr noundef nonnull align 8 dereferenceable(32) %this, ptr noundef %__beg, ptr noundef %__end) local_unnamed_addr #3 comdat align 2 personality ptr @__gxx_personality_v0 {
entry:
  %__dnew = alloca i64, align 8
  %__guard = alloca %struct._Guard, align 8
  %sub.ptr.lhs.cast.i.i = ptrtoint ptr %__end to i64
  %sub.ptr.rhs.cast.i.i = ptrtoint ptr %__beg to i64
  %sub.ptr.sub.i.i = sub i64 %sub.ptr.lhs.cast.i.i, %sub.ptr.rhs.cast.i.i
  store i64 %sub.ptr.sub.i.i, ptr %__dnew, align 8
  %cmp = icmp ugt i64 %sub.ptr.sub.i.i, 15
  br i1 %cmp, label %if.then, label %if.else

if.then:                                          ; preds = %entry
  %call2 = call noundef ptr @_ZNSt7__cxx1112basic_stringIcSt11char_traitsIcESaIcEE9_M_createERmm(ptr noundef nonnull align 8 dereferenceable(32) %this, ptr noundef nonnull align 8 dereferenceable(8) %__dnew, i64 noundef 0)
  call void @_ZNSt7__cxx1112basic_stringIcSt11char_traitsIcESaIcEE7_M_dataEPc(ptr noundef nonnull align 8 dereferenceable(32) %this, ptr noundef %call2)
  %0 = load i64, ptr %__dnew, align 8
  call void @_ZNSt7__cxx1112basic_stringIcSt11char_traitsIcESaIcEE11_M_capacityEm(ptr noundef nonnull align 8 dereferenceable(32) %this, i64 noundef %0)
  br label %if.end

if.else:                                          ; preds = %entry
  %call.i = invoke noundef ptr @_ZNSt7__cxx1112basic_stringIcSt11char_traitsIcESaIcEE13_M_local_dataEv(ptr noundef nonnull align 8 dereferenceable(32) %this)
          to label %if.end unwind label %terminate.lpad.i

terminate.lpad.i:                                 ; preds = %if.else
  %1 = landingpad { ptr, i32 }
          catch ptr null
  %2 = extractvalue { ptr, i32 } %1, 0
  tail call void @__clang_call_terminate(ptr %2) #15
  unreachable

if.end:                                           ; preds = %if.else, %if.then
  store ptr %this, ptr %__guard, align 8
  %call4 = invoke noundef ptr @_ZNKSt7__cxx1112basic_stringIcSt11char_traitsIcESaIcEE7_M_dataEv(ptr noundef nonnull align 8 dereferenceable(32) %this)
          to label %invoke.cont unwind label %lpad

invoke.cont:                                      ; preds = %if.end
  call void @_ZNSt7__cxx1112basic_stringIcSt11char_traitsIcESaIcEE13_S_copy_charsEPcPKcS7_(ptr noundef %call4, ptr noundef %__beg, ptr noundef %__end) #14
  store ptr null, ptr %__guard, align 8
  %3 = load i64, ptr %__dnew, align 8
  invoke void @_ZNSt7__cxx1112basic_stringIcSt11char_traitsIcESaIcEE13_M_set_lengthEm(ptr noundef nonnull align 8 dereferenceable(32) %this, i64 noundef %3)
          to label %_ZZNSt7__cxx1112basic_stringIcSt11char_traitsIcESaIcEE12_M_constructIPKcEEvT_S8_St20forward_iterator_tagEN6_GuardD2Ev.exit unwind label %lpad

_ZZNSt7__cxx1112basic_stringIcSt11char_traitsIcESaIcEE12_M_constructIPKcEEvT_S8_St20forward_iterator_tagEN6_GuardD2Ev.exit: ; preds = %invoke.cont
  ret void

lpad:                                             ; preds = %invoke.cont, %if.end
  %4 = landingpad { ptr, i32 }
          cleanup
  call void @_ZZNSt7__cxx1112basic_stringIcSt11char_traitsIcESaIcEE12_M_constructIPKcEEvT_S8_St20forward_iterator_tagEN6_GuardD2Ev(ptr noundef nonnull align 8 dereferenceable(8) %__guard) #14
  resume { ptr, i32 } %4
}

; Function Attrs: mustprogress nofree nounwind willreturn memory(argmem: read)
declare i64 @strlen(ptr nocapture noundef) local_unnamed_addr #7

declare void @_ZNSt7__cxx1112basic_stringIcSt11char_traitsIcESaIcEE7_M_dataEPc(ptr noundef nonnull align 8 dereferenceable(32), ptr noundef) local_unnamed_addr #0

declare noundef ptr @_ZNSt7__cxx1112basic_stringIcSt11char_traitsIcESaIcEE9_M_createERmm(ptr noundef nonnull align 8 dereferenceable(32), ptr noundef nonnull align 8 dereferenceable(8), i64 noundef) local_unnamed_addr #0

declare void @_ZNSt7__cxx1112basic_stringIcSt11char_traitsIcESaIcEE11_M_capacityEm(ptr noundef nonnull align 8 dereferenceable(32), i64 noundef) local_unnamed_addr #0

; Function Attrs: nounwind
declare void @_ZNSt7__cxx1112basic_stringIcSt11char_traitsIcESaIcEE13_S_copy_charsEPcPKcS7_(ptr noundef, ptr noundef, ptr noundef) local_unnamed_addr #1

declare noundef ptr @_ZNKSt7__cxx1112basic_stringIcSt11char_traitsIcESaIcEE7_M_dataEv(ptr noundef nonnull align 8 dereferenceable(32)) local_unnamed_addr #0

declare void @_ZNSt7__cxx1112basic_stringIcSt11char_traitsIcESaIcEE13_M_set_lengthEm(ptr noundef nonnull align 8 dereferenceable(32), i64 noundef) local_unnamed_addr #0

; Function Attrs: mustprogress nounwind uwtable
define linkonce_odr hidden void @_ZZNSt7__cxx1112basic_stringIcSt11char_traitsIcESaIcEE12_M_constructIPKcEEvT_S8_St20forward_iterator_tagEN6_GuardD2Ev(ptr noundef nonnull align 8 dereferenceable(8) %this) unnamed_addr #4 comdat align 2 personality ptr @__gxx_personality_v0 {
entry:
  %0 = load ptr, ptr %this, align 8
  %tobool.not = icmp eq ptr %0, null
  br i1 %tobool.not, label %if.end, label %if.then

if.then:                                          ; preds = %entry
  invoke void @_ZNSt7__cxx1112basic_stringIcSt11char_traitsIcESaIcEE10_M_disposeEv(ptr noundef nonnull align 8 dereferenceable(32) %0)
          to label %if.end unwind label %terminate.lpad

if.end:                                           ; preds = %if.then, %entry
  ret void

terminate.lpad:                                   ; preds = %if.then
  %1 = landingpad { ptr, i32 }
          catch ptr null
  %2 = extractvalue { ptr, i32 } %1, 0
  tail call void @__clang_call_terminate(ptr %2) #15
  unreachable
}

; Function Attrs: noreturn nounwind uwtable
define linkonce_odr hidden void @__clang_call_terminate(ptr noundef %0) local_unnamed_addr #8 comdat {
  %2 = tail call ptr @__cxa_begin_catch(ptr %0) #14
  tail call void @_ZSt9terminatev() #15
  unreachable
}

declare ptr @__cxa_begin_catch(ptr) local_unnamed_addr

declare void @_ZSt9terminatev() local_unnamed_addr

declare void @_ZNSt7__cxx1112basic_stringIcSt11char_traitsIcESaIcEE10_M_disposeEv(ptr noundef nonnull align 8 dereferenceable(32)) local_unnamed_addr #0

; Function Attrs: nounwind
declare void @_ZNSaIcED2Ev(ptr noundef nonnull align 1 dereferenceable(1)) unnamed_addr #1

; Function Attrs: nounwind
declare void @_ZNSt7__cxx1112basic_stringIcSt11char_traitsIcESaIcEEC1EOS4_(ptr noundef nonnull align 8 dereferenceable(32), ptr noundef nonnull align 8 dereferenceable(32)) unnamed_addr #1

; Function Attrs: mustprogress nocallback nofree nounwind willreturn memory(argmem: write)
declare void @llvm.memset.p0.i64(ptr nocapture writeonly, i8, i64, i1 immarg) #9

declare void @_ZN6memory10deallocateEPv(ptr noundef) local_unnamed_addr #0

declare void @_ZN7datalog15register_engineC1Ev(ptr noundef nonnull align 8 dereferenceable(16)) unnamed_addr #0

declare void @_ZN7datalog7contextC1ER11ast_managerRNS_20register_engine_baseER10smt_paramsRK10params_ref(ptr noundef nonnull align 8 dereferenceable(3556), ptr noundef nonnull align 8 dereferenceable(976), ptr noundef nonnull align 8 dereferenceable(8), ptr noundef nonnull align 8 dereferenceable(800), ptr noundef nonnull align 8 dereferenceable(8)) unnamed_addr #0

; Function Attrs: mustprogress uwtable
define linkonce_odr hidden void @_ZN10smt_paramsC2ERK10params_ref(ptr noundef nonnull align 8 dereferenceable(800) %this, ptr noundef nonnull align 8 dereferenceable(8) %p) unnamed_addr #3 comdat align 2 personality ptr @__gxx_personality_v0 {
entry:
  %ref.tmp.i = alloca %class.params_ref, align 8
  %ref.tmp = alloca %class.params_ref, align 8
  %ref.tmp2 = alloca %class.params_ref, align 8
  %ref.tmp5 = alloca %class.params_ref, align 8
  %ref.tmp8 = alloca %class.params_ref, align 8
  %ref.tmp14 = alloca %class.params_ref, align 8
  %ref.tmp18 = alloca %class.params_ref, align 8
  %ref.tmp22 = alloca %class.params_ref, align 8
  %ref.tmp26 = alloca %class.params_ref, align 8
  store ptr null, ptr %ref.tmp, align 8
  call void @llvm.lifetime.start.p0(i64 8, ptr nonnull %ref.tmp.i)
  store ptr null, ptr %ref.tmp.i, align 8
  store i8 1, ptr %this, align 8
  %m_pi_max_multi_patterns.i.i = getelementptr inbounds %struct.pattern_inference_params, ptr %this, i64 0, i32 2
  store i32 1, ptr %m_pi_max_multi_patterns.i.i, align 4
  %m_pi_nopat_weight.i.i = getelementptr inbounds %struct.pattern_inference_params, ptr %this, i64 0, i32 13
  store i32 -1, ptr %m_pi_nopat_weight.i.i, align 8
  %m_pi_avoid_skolems.i.i = getelementptr inbounds %struct.pattern_inference_params, ptr %this, i64 0, i32 14
  store i8 1, ptr %m_pi_avoid_skolems.i.i, align 4
  invoke void @_ZN24pattern_inference_params11updt_paramsERK10params_ref(ptr noundef nonnull align 4 dereferenceable(38) %this, ptr noundef nonnull align 8 dereferenceable(8) %ref.tmp.i)
          to label %invoke.cont.i unwind label %lpad.i

invoke.cont.i:                                    ; preds = %entry
  call void @_ZN10params_refD1Ev(ptr noundef nonnull align 8 dereferenceable(8) %ref.tmp.i) #14
  %0 = getelementptr inbounds i8, ptr %this, i64 38
  %m_propagate_values.i = getelementptr inbounds %struct.preprocessor_params, ptr %this, i64 0, i32 8
  call void @llvm.memset.p0.i64(ptr noundef nonnull align 2 dereferenceable(14) %0, i8 0, i64 14, i1 false)
  %m_eliminate_bounds.i = getelementptr inbounds %struct.preprocessor_params, ptr %this, i64 0, i32 12
  store i32 16843009, ptr %m_propagate_values.i, align 4
  store i8 0, ptr %m_eliminate_bounds.i, align 8
  %m_simplify_bit2int.i = getelementptr inbounds %struct.preprocessor_params, ptr %this, i64 0, i32 13
  store i8 0, ptr %m_simplify_bit2int.i, align 1
  %m_nnf_cnf.i = getelementptr inbounds %struct.preprocessor_params, ptr %this, i64 0, i32 14
  store i8 1, ptr %m_nnf_cnf.i, align 2
  %m_distribute_forall.i = getelementptr inbounds %struct.preprocessor_params, ptr %this, i64 0, i32 15
  %m_max_bv_sharing.i = getelementptr inbounds %struct.preprocessor_params, ptr %this, i64 0, i32 19
  store i32 0, ptr %m_distribute_forall.i, align 1
  store <4 x i8> <i8 1, i8 1, i8 0, i8 1>, ptr %m_max_bv_sharing.i, align 1
  invoke void @_ZN19preprocessor_params17updt_local_paramsERK10params_ref(ptr noundef nonnull align 4 dereferenceable(67) %this, ptr noundef nonnull align 8 dereferenceable(8) %ref.tmp)
          to label %invoke.cont unwind label %lpad

lpad.i:                                           ; preds = %entry
  %1 = landingpad { ptr, i32 }
          cleanup
  call void @_ZN10params_refD1Ev(ptr noundef nonnull align 8 dereferenceable(8) %ref.tmp.i) #14
  br label %lpad.body

invoke.cont:                                      ; preds = %invoke.cont.i
  call void @llvm.lifetime.end.p0(i64 8, ptr nonnull %ref.tmp.i)
  call void @_ZN10params_refD1Ev(ptr noundef nonnull align 8 dereferenceable(8) %ref.tmp) #14
  %2 = getelementptr inbounds i8, ptr %this, i64 72
  store ptr null, ptr %ref.tmp2, align 8
  store i32 1, ptr %2, align 8
  %m_dack_eq.i = getelementptr inbounds i8, ptr %this, i64 76
  store i8 0, ptr %m_dack_eq.i, align 4
  %m_dack_factor.i = getelementptr inbounds i8, ptr %this, i64 80
  store double 1.000000e-01, ptr %m_dack_factor.i, align 8
  %m_dack_threshold.i = getelementptr inbounds i8, ptr %this, i64 88
  store i32 10, ptr %m_dack_threshold.i, align 8
  %m_dack_gc.i = getelementptr inbounds i8, ptr %this, i64 92
  store i32 2000, ptr %m_dack_gc.i, align 4
  %m_dack_gc_inv_decay.i = getelementptr inbounds i8, ptr %this, i64 96
  store double 8.000000e-01, ptr %m_dack_gc_inv_decay.i, align 8
  invoke void @_ZN14dyn_ack_params11updt_paramsERK10params_ref(ptr noundef nonnull align 8 dereferenceable(32) %2, ptr noundef nonnull align 8 dereferenceable(8) %ref.tmp2)
          to label %invoke.cont4 unwind label %lpad3

invoke.cont4:                                     ; preds = %invoke.cont
  call void @_ZN10params_refD1Ev(ptr noundef nonnull align 8 dereferenceable(8) %ref.tmp2) #14
  %3 = getelementptr inbounds i8, ptr %this, i64 104
  store ptr null, ptr %ref.tmp5, align 8
  invoke void @_ZN9qi_paramsC2ERK10params_ref(ptr noundef nonnull align 8 dereferenceable(144) %3, ptr noundef nonnull align 8 dereferenceable(8) %ref.tmp5)
          to label %invoke.cont7 unwind label %lpad6

invoke.cont7:                                     ; preds = %invoke.cont4
  call void @_ZN10params_refD1Ev(ptr noundef nonnull align 8 dereferenceable(8) %ref.tmp5) #14
  %4 = getelementptr inbounds i8, ptr %this, i64 248
  store ptr null, ptr %ref.tmp8, align 8
  store i8 0, ptr %4, align 8
  %m_arith_process_all_eqs.i = getelementptr inbounds i8, ptr %this, i64 249
  store i8 0, ptr %m_arith_process_all_eqs.i, align 1
  %m_arith_mode.i = getelementptr inbounds i8, ptr %this, i64 252
  store i32 6, ptr %m_arith_mode.i, align 4
  %m_arith_auto_config_simplex.i = getelementptr inbounds i8, ptr %this, i64 256
  store i8 0, ptr %m_arith_auto_config_simplex.i, align 8
  %m_arith_blands_rule_threshold.i = getelementptr inbounds i8, ptr %this, i64 260
  store i32 1000, ptr %m_arith_blands_rule_threshold.i, align 4
  %m_arith_propagate_eqs.i = getelementptr inbounds i8, ptr %this, i64 264
  store i8 1, ptr %m_arith_propagate_eqs.i, align 8
  %m_arith_bound_prop.i = getelementptr inbounds i8, ptr %this, i64 268
  store i32 2, ptr %m_arith_bound_prop.i, align 4
  %m_arith_stronger_lemmas.i = getelementptr inbounds i8, ptr %this, i64 272
  store i8 1, ptr %m_arith_stronger_lemmas.i, align 8
  %m_arith_skip_rows_with_big_coeffs.i = getelementptr inbounds i8, ptr %this, i64 273
  store i8 1, ptr %m_arith_skip_rows_with_big_coeffs.i, align 1
  %m_arith_max_lemma_size.i = getelementptr inbounds i8, ptr %this, i64 276
  store i32 128, ptr %m_arith_max_lemma_size.i, align 4
  %m_arith_small_lemma_size.i = getelementptr inbounds i8, ptr %this, i64 280
  store i32 16, ptr %m_arith_small_lemma_size.i, align 8
  %m_arith_reflect.i = getelementptr inbounds i8, ptr %this, i64 284
  store i8 1, ptr %m_arith_reflect.i, align 4
  %m_arith_ignore_int.i = getelementptr inbounds i8, ptr %this, i64 285
  store i8 0, ptr %m_arith_ignore_int.i, align 1
  %m_arith_lazy_pivoting_lvl.i = getelementptr inbounds i8, ptr %this, i64 288
  %m_arith_random_lower.i = getelementptr inbounds i8, ptr %this, i64 300
  call void @llvm.memset.p0.i64(ptr noundef nonnull align 8 dereferenceable(9) %m_arith_lazy_pivoting_lvl.i, i8 0, i64 9, i1 false)
  store i32 -1000, ptr %m_arith_random_lower.i, align 4
  %m_arith_random_upper.i = getelementptr inbounds i8, ptr %this, i64 304
  store i32 1000, ptr %m_arith_random_upper.i, align 8
  %m_arith_adaptive.i = getelementptr inbounds i8, ptr %this, i64 308
  store i8 0, ptr %m_arith_adaptive.i, align 4
  %m_arith_adaptive_assertion_threshold.i = getelementptr inbounds i8, ptr %this, i64 312
  store <2 x double> <double 2.000000e-01, double 4.000000e-01>, ptr %m_arith_adaptive_assertion_threshold.i, align 8
  %m_arith_eager_eq_axioms.i = getelementptr inbounds i8, ptr %this, i64 328
  store i8 1, ptr %m_arith_eager_eq_axioms.i, align 8
  %m_arith_branch_cut_ratio.i = getelementptr inbounds i8, ptr %this, i64 332
  store i32 2, ptr %m_arith_branch_cut_ratio.i, align 4
  %m_arith_int_eq_branching.i = getelementptr inbounds i8, ptr %this, i64 336
  store <4 x i8> <i8 0, i8 0, i8 1, i8 0>, ptr %m_arith_int_eq_branching.i, align 8
  %m_arith_adaptive_gcd.i = getelementptr inbounds i8, ptr %this, i64 340
  store i8 0, ptr %m_arith_adaptive_gcd.i, align 4
  %m_arith_propagation_threshold.i = getelementptr inbounds i8, ptr %this, i64 344
  store i32 -1, ptr %m_arith_propagation_threshold.i, align 8
  %m_arith_pivot_strategy.i = getelementptr inbounds i8, ptr %this, i64 348
  store i32 0, ptr %m_arith_pivot_strategy.i, align 4
  %m_arith_add_binary_bounds.i = getelementptr inbounds i8, ptr %this, i64 352
  store i8 0, ptr %m_arith_add_binary_bounds.i, align 8
  %m_arith_propagation_strategy.i = getelementptr inbounds i8, ptr %this, i64 356
  store i32 1, ptr %m_arith_propagation_strategy.i, align 4
  %m_arith_eq_bounds.i = getelementptr inbounds i8, ptr %this, i64 360
  %m_nl_arith.i = getelementptr inbounds i8, ptr %this, i64 364
  store i32 0, ptr %m_arith_eq_bounds.i, align 8
  store i8 1, ptr %m_nl_arith.i, align 4
  %m_nl_arith_gb.i = getelementptr inbounds i8, ptr %this, i64 365
  store i8 1, ptr %m_nl_arith_gb.i, align 1
  %m_nl_arith_gb_threshold.i = getelementptr inbounds i8, ptr %this, i64 368
  store i32 512, ptr %m_nl_arith_gb_threshold.i, align 8
  %m_nl_arith_gb_eqs.i = getelementptr inbounds i8, ptr %this, i64 372
  store i8 0, ptr %m_nl_arith_gb_eqs.i, align 4
  %m_nl_arith_gb_perturbate.i = getelementptr inbounds i8, ptr %this, i64 373
  store i8 1, ptr %m_nl_arith_gb_perturbate.i, align 1
  %m_nl_arith_max_degree.i = getelementptr inbounds i8, ptr %this, i64 376
  store i32 6, ptr %m_nl_arith_max_degree.i, align 8
  %m_nl_arith_branching.i = getelementptr inbounds i8, ptr %this, i64 380
  store i8 1, ptr %m_nl_arith_branching.i, align 4
  %m_nl_arith_rounds.i = getelementptr inbounds i8, ptr %this, i64 384
  store i32 1024, ptr %m_nl_arith_rounds.i, align 8
  %m_nl_arith_propagate_linear_monomials.i = getelementptr inbounds i8, ptr %this, i64 388
  store i8 1, ptr %m_nl_arith_propagate_linear_monomials.i, align 4
  %m_nl_arith_optimize_bounds.i = getelementptr inbounds i8, ptr %this, i64 389
  store i8 1, ptr %m_nl_arith_optimize_bounds.i, align 1
  %m_nl_arith_cross_nested.i = getelementptr inbounds i8, ptr %this, i64 390
  store i8 1, ptr %m_nl_arith_cross_nested.i, align 2
  invoke void @_ZN19theory_arith_params11updt_paramsERK10params_ref(ptr noundef nonnull align 8 dereferenceable(143) %4, ptr noundef nonnull align 8 dereferenceable(8) %ref.tmp8)
          to label %invoke.cont12 unwind label %lpad11

invoke.cont12:                                    ; preds = %invoke.cont7
  call void @_ZN10params_refD1Ev(ptr noundef nonnull align 8 dereferenceable(8) %ref.tmp8) #14
  %5 = getelementptr inbounds i8, ptr %this, i64 392
  store i8 0, ptr %5, align 8
  %m_array_simplify.i = getelementptr inbounds i8, ptr %this, i64 393
  store i8 1, ptr %m_array_simplify.i, align 1
  %m_array_mode.i = getelementptr inbounds i8, ptr %this, i64 396
  store i32 3, ptr %m_array_mode.i, align 4
  %m_array_weak.i = getelementptr inbounds i8, ptr %this, i64 400
  store i8 0, ptr %m_array_weak.i, align 8
  %m_array_extensional.i = getelementptr inbounds i8, ptr %this, i64 401
  store i8 1, ptr %m_array_extensional.i, align 1
  %m_array_laziness.i = getelementptr inbounds i8, ptr %this, i64 404
  store i32 1, ptr %m_array_laziness.i, align 4
  %m_array_delay_exp_axiom.i = getelementptr inbounds i8, ptr %this, i64 408
  store <4 x i8> <i8 1, i8 0, i8 1, i8 0>, ptr %m_array_delay_exp_axiom.i, align 8
  %m_array_lazy_ieq_delay.i = getelementptr inbounds i8, ptr %this, i64 412
  store i32 10, ptr %m_array_lazy_ieq_delay.i, align 4
  %m_array_fake_support.i = getelementptr inbounds i8, ptr %this, i64 416
  store i8 0, ptr %m_array_fake_support.i, align 8
  %6 = getelementptr inbounds i8, ptr %this, i64 420
  store ptr null, ptr %ref.tmp14, align 8
  store i32 1, ptr %6, align 4
  %m_hi_div0.i = getelementptr inbounds i8, ptr %this, i64 424
  store <4 x i8> <i8 0, i8 1, i8 0, i8 0>, ptr %m_hi_div0.i, align 8
  %m_bv_blast_max_size.i = getelementptr inbounds i8, ptr %this, i64 428
  store i32 2147483647, ptr %m_bv_blast_max_size.i, align 4
  %m_bv_enable_int2bv2int.i = getelementptr inbounds i8, ptr %this, i64 432
  store <4 x i8> <i8 1, i8 0, i8 1, i8 0>, ptr %m_bv_enable_int2bv2int.i, align 8
  %m_bv_solver.i = getelementptr inbounds i8, ptr %this, i64 436
  store i32 0, ptr %m_bv_solver.i, align 4
  invoke void @_ZN16theory_bv_params11updt_paramsERK10params_ref(ptr noundef nonnull align 4 dereferenceable(20) %6, ptr noundef nonnull align 8 dereferenceable(8) %ref.tmp14)
          to label %invoke.cont17 unwind label %lpad16

invoke.cont17:                                    ; preds = %invoke.cont12
  call void @_ZN10params_refD1Ev(ptr noundef nonnull align 8 dereferenceable(8) %ref.tmp14) #14
  %7 = getelementptr inbounds i8, ptr %this, i64 440
  store ptr null, ptr %ref.tmp18, align 8
  store <4 x i8> <i8 1, i8 0, i8 0, i8 1>, ptr %7, align 8
  %m_UseFastLengthTesterCache.i = getelementptr inbounds i8, ptr %this, i64 444
  store i8 0, ptr %m_UseFastLengthTesterCache.i, align 4
  %m_UseFastValueTesterCache.i = getelementptr inbounds i8, ptr %this, i64 445
  store i8 1, ptr %m_UseFastValueTesterCache.i, align 1
  %m_StringConstantCache.i = getelementptr inbounds i8, ptr %this, i64 446
  store i8 1, ptr %m_StringConstantCache.i, align 2
  %m_OverlapTheoryAwarePriority.i = getelementptr inbounds i8, ptr %this, i64 448
  store double -1.000000e-01, ptr %m_OverlapTheoryAwarePriority.i, align 8
  %m_RegexAutomata_DifficultyThreshold.i = getelementptr inbounds i8, ptr %this, i64 456
  store <4 x i32> <i32 1000, i32 1000, i32 10, i32 10>, ptr %m_RegexAutomata_DifficultyThreshold.i, align 8
  %m_RegexAutomata_LengthAttemptThreshold.i = getelementptr inbounds i8, ptr %this, i64 472
  store i32 10, ptr %m_RegexAutomata_LengthAttemptThreshold.i, align 8
  %m_FixedLengthRefinement.i = getelementptr inbounds i8, ptr %this, i64 476
  store i8 0, ptr %m_FixedLengthRefinement.i, align 4
  %m_FixedLengthNaiveCounterexamples.i = getelementptr inbounds i8, ptr %this, i64 477
  store i8 1, ptr %m_FixedLengthNaiveCounterexamples.i, align 1
  invoke void @_ZN17theory_str_params11updt_paramsERK10params_ref(ptr noundef nonnull align 8 dereferenceable(38) %7, ptr noundef nonnull align 8 dereferenceable(8) %ref.tmp18)
          to label %invoke.cont21 unwind label %lpad20

invoke.cont21:                                    ; preds = %invoke.cont17
  call void @_ZN10params_refD1Ev(ptr noundef nonnull align 8 dereferenceable(8) %ref.tmp18) #14
  %8 = getelementptr inbounds i8, ptr %this, i64 480
  store ptr null, ptr %ref.tmp22, align 8
  store i8 0, ptr %8, align 8
  %m_seq_validate.i = getelementptr inbounds i8, ptr %this, i64 481
  store i8 0, ptr %m_seq_validate.i, align 1
  %m_seq_max_unfolding.i = getelementptr inbounds i8, ptr %this, i64 484
  store i32 1073741823, ptr %m_seq_max_unfolding.i, align 4
  %m_seq_min_unfolding.i = getelementptr inbounds i8, ptr %this, i64 488
  store i32 1, ptr %m_seq_min_unfolding.i, align 8
  invoke void @_ZN17theory_seq_params11updt_paramsERK10params_ref(ptr noundef nonnull align 4 dereferenceable(12) %8, ptr noundef nonnull align 8 dereferenceable(8) %ref.tmp22)
          to label %invoke.cont25 unwind label %lpad24

invoke.cont25:                                    ; preds = %invoke.cont21
  call void @_ZN10params_refD1Ev(ptr noundef nonnull align 8 dereferenceable(8) %ref.tmp22) #14
  %9 = getelementptr inbounds i8, ptr %this, i64 492
  store ptr null, ptr %ref.tmp26, align 8
  store i32 1000, ptr %9, align 4
  %m_pb_learn_complements.i = getelementptr inbounds i8, ptr %this, i64 496
  store i8 1, ptr %m_pb_learn_complements.i, align 8
  invoke void @_ZN16theory_pb_params11updt_paramsERK10params_ref(ptr noundef nonnull align 4 dereferenceable(5) %9, ptr noundef nonnull align 8 dereferenceable(8) %ref.tmp26)
          to label %invoke.cont29 unwind label %lpad28

invoke.cont29:                                    ; preds = %invoke.cont25
  call void @_ZN10params_refD1Ev(ptr noundef nonnull align 8 dereferenceable(8) %ref.tmp26) #14
  %10 = getelementptr inbounds i8, ptr %this, i64 500
  store i32 1, ptr %10, align 4
  %m_display_proof = getelementptr inbounds %struct.smt_params, ptr %this, i64 0, i32 11
  %m_eq_propagation = getelementptr inbounds %struct.smt_params, ptr %this, i64 0, i32 15
  store i32 0, ptr %m_display_proof, align 8
  store i8 1, ptr %m_eq_propagation, align 4
  %m_binary_clause_opt = getelementptr inbounds %struct.smt_params, ptr %this, i64 0, i32 16
  store i8 1, ptr %m_binary_clause_opt, align 1
  %m_relevancy_lvl = getelementptr inbounds %struct.smt_params, ptr %this, i64 0, i32 17
  store i32 2, ptr %m_relevancy_lvl, align 8
  %m_relevancy_lemma = getelementptr inbounds %struct.smt_params, ptr %this, i64 0, i32 18
  store i8 0, ptr %m_relevancy_lemma, align 4
  %m_random_seed = getelementptr inbounds %struct.smt_params, ptr %this, i64 0, i32 19
  store i32 0, ptr %m_random_seed, align 8
  %m_random_var_freq = getelementptr inbounds %struct.smt_params, ptr %this, i64 0, i32 20
  store <2 x double> <double 1.000000e-02, double 1.052000e+00>, ptr %m_random_var_freq, align 8
  %m_clause_decay = getelementptr inbounds %struct.smt_params, ptr %this, i64 0, i32 22
  store <4 x i32> <i32 1, i32 1, i32 3, i32 700>, ptr %m_clause_decay, align 8
  %m_phase_caching_off = getelementptr inbounds %struct.smt_params, ptr %this, i64 0, i32 26
  store i32 100, ptr %m_phase_caching_off, align 8
  %m_minimize_lemmas = getelementptr inbounds %struct.smt_params, ptr %this, i64 0, i32 27
  store i8 1, ptr %m_minimize_lemmas, align 4
  %m_max_conflicts = getelementptr inbounds %struct.smt_params, ptr %this, i64 0, i32 28
  store i32 -1, ptr %m_max_conflicts, align 8
  %m_cube_depth = getelementptr inbounds %struct.smt_params, ptr %this, i64 0, i32 30
  store <4 x i32> <i32 1, i32 1, i32 -1, i32 2>, ptr %m_cube_depth, align 8
  %m_simplify_clauses = getelementptr inbounds %struct.smt_params, ptr %this, i64 0, i32 34
  store i8 1, ptr %m_simplify_clauses, align 8
  %m_tick = getelementptr inbounds %struct.smt_params, ptr %this, i64 0, i32 35
  store i32 1000, ptr %m_tick, align 4
  %m_display_features = getelementptr inbounds %struct.smt_params, ptr %this, i64 0, i32 36
  store <4 x i8> <i8 0, i8 1, i8 1, i8 0>, ptr %m_display_features, align 8
  %m_clause_proof = getelementptr inbounds %struct.smt_params, ptr %this, i64 0, i32 40
  store i8 0, ptr %m_clause_proof, align 4
  %m_proof_log = getelementptr inbounds %struct.smt_params, ptr %this, i64 0, i32 41
  store ptr null, ptr %m_proof_log, align 8
  %m_case_split_strategy = getelementptr inbounds %struct.smt_params, ptr %this, i64 0, i32 42
  store i32 1, ptr %m_case_split_strategy, align 8
  %m_rel_case_split_order = getelementptr inbounds %struct.smt_params, ptr %this, i64 0, i32 43
  %m_delay_units_threshold = getelementptr inbounds %struct.smt_params, ptr %this, i64 0, i32 48
  store i64 0, ptr %m_rel_case_split_order, align 4
  store i32 32, ptr %m_delay_units_threshold, align 4
  %m_theory_resolve = getelementptr inbounds %struct.smt_params, ptr %this, i64 0, i32 49
  store i8 0, ptr %m_theory_resolve, align 8
  %m_restart_strategy = getelementptr inbounds %struct.smt_params, ptr %this, i64 0, i32 50
  store i32 1, ptr %m_restart_strategy, align 4
  %m_restart_initial = getelementptr inbounds %struct.smt_params, ptr %this, i64 0, i32 51
  store i32 100, ptr %m_restart_initial, align 8
  %m_restart_factor = getelementptr inbounds %struct.smt_params, ptr %this, i64 0, i32 52
  store double 1.100000e+00, ptr %m_restart_factor, align 8
  %m_restart_adaptive = getelementptr inbounds %struct.smt_params, ptr %this, i64 0, i32 53
  store i8 1, ptr %m_restart_adaptive, align 8
  %m_agility_factor = getelementptr inbounds %struct.smt_params, ptr %this, i64 0, i32 54
  store <2 x double> <double 9.999000e-01, double 1.800000e-01>, ptr %m_agility_factor, align 8
  %m_lemma_gc_strategy = getelementptr inbounds %struct.smt_params, ptr %this, i64 0, i32 56
  store i32 0, ptr %m_lemma_gc_strategy, align 8
  %m_lemma_gc_half = getelementptr inbounds %struct.smt_params, ptr %this, i64 0, i32 57
  store i8 0, ptr %m_lemma_gc_half, align 4
  %m_recent_lemmas_size = getelementptr inbounds %struct.smt_params, ptr %this, i64 0, i32 58
  store i32 100, ptr %m_recent_lemmas_size, align 8
  %m_lemma_gc_initial = getelementptr inbounds %struct.smt_params, ptr %this, i64 0, i32 59
  store i32 5000, ptr %m_lemma_gc_initial, align 4
  %m_lemma_gc_factor = getelementptr inbounds %struct.smt_params, ptr %this, i64 0, i32 60
  store double 1.100000e+00, ptr %m_lemma_gc_factor, align 8
  %m_new_old_ratio = getelementptr inbounds %struct.smt_params, ptr %this, i64 0, i32 61
  store <4 x i32> <i32 16, i32 10, i32 500, i32 45>, ptr %m_new_old_ratio, align 8
  %m_old_clause_relevancy = getelementptr inbounds %struct.smt_params, ptr %this, i64 0, i32 65
  store i32 6, ptr %m_old_clause_relevancy, align 8
  %m_inv_clause_decay = getelementptr inbounds %struct.smt_params, ptr %this, i64 0, i32 66
  store double 1.000000e+00, ptr %m_inv_clause_decay, align 8
  %m_axioms2files = getelementptr inbounds %struct.smt_params, ptr %this, i64 0, i32 67
  store i8 0, ptr %m_axioms2files, align 8
  %m_lemmas2console = getelementptr inbounds %struct.smt_params, ptr %this, i64 0, i32 68
  store i8 0, ptr %m_lemmas2console, align 1
  %m_instantiations2console = getelementptr inbounds %struct.smt_params, ptr %this, i64 0, i32 69
  store i8 0, ptr %m_instantiations2console, align 2
  %m_logic = getelementptr inbounds %struct.smt_params, ptr %this, i64 0, i32 70
  %11 = load i64, ptr @_ZN6symbol4nullE, align 8
  store i64 %11, ptr %m_logic, align 8
  %m_profile_res_sub = getelementptr inbounds %struct.smt_params, ptr %this, i64 0, i32 71
  store <4 x i8> <i8 0, i8 0, i8 0, i8 1>, ptr %m_profile_res_sub, align 8
  %m_model_on_timeout = getelementptr inbounds %struct.smt_params, ptr %this, i64 0, i32 75
  store i8 0, ptr %m_model_on_timeout, align 4
  %m_model_on_final_check = getelementptr inbounds %struct.smt_params, ptr %this, i64 0, i32 76
  store i8 0, ptr %m_model_on_final_check, align 1
  %m_progress_sampling_freq = getelementptr inbounds %struct.smt_params, ptr %this, i64 0, i32 77
  store i32 0, ptr %m_progress_sampling_freq, align 8
  %m_core_validate = getelementptr inbounds %struct.smt_params, ptr %this, i64 0, i32 78
  store i8 0, ptr %m_core_validate, align 4
  %m_preprocess = getelementptr inbounds %struct.smt_params, ptr %this, i64 0, i32 79
  store i8 1, ptr %m_preprocess, align 1
  %m_user_theory_preprocess_axioms = getelementptr inbounds %struct.smt_params, ptr %this, i64 0, i32 80
  %m_auto_config = getelementptr inbounds %struct.smt_params, ptr %this, i64 0, i32 85
  call void @llvm.memset.p0.i64(ptr noundef nonnull align 2 dereferenceable(5) %m_user_theory_preprocess_axioms, i8 0, i64 5, i1 false)
  store i8 1, ptr %m_auto_config, align 1
  %m_string_solver = getelementptr inbounds %struct.smt_params, ptr %this, i64 0, i32 89
  invoke void @_ZN6symbolC1EPKc(ptr noundef nonnull align 8 dereferenceable(8) %m_string_solver, ptr noundef nonnull @.str.3)
          to label %invoke.cont32 unwind label %lpad9

invoke.cont32:                                    ; preds = %invoke.cont29
  invoke void @_ZN10smt_params17updt_local_paramsERK10params_ref(ptr noundef nonnull align 8 dereferenceable(800) %this, ptr noundef nonnull align 8 dereferenceable(8) %p)
          to label %invoke.cont33 unwind label %lpad9

invoke.cont33:                                    ; preds = %invoke.cont32
  ret void

lpad:                                             ; preds = %invoke.cont.i
  %12 = landingpad { ptr, i32 }
          cleanup
  br label %lpad.body

lpad.body:                                        ; preds = %lpad.i, %lpad
  %eh.lpad-body = phi { ptr, i32 } [ %12, %lpad ], [ %1, %lpad.i ]
  call void @_ZN10params_refD1Ev(ptr noundef nonnull align 8 dereferenceable(8) %ref.tmp) #14
  br label %eh.resume

lpad3:                                            ; preds = %invoke.cont
  %13 = landingpad { ptr, i32 }
          cleanup
  call void @_ZN10params_refD1Ev(ptr noundef nonnull align 8 dereferenceable(8) %ref.tmp2) #14
  br label %eh.resume

lpad6:                                            ; preds = %invoke.cont4
  %14 = landingpad { ptr, i32 }
          cleanup
  call void @_ZN10params_refD1Ev(ptr noundef nonnull align 8 dereferenceable(8) %ref.tmp5) #14
  br label %eh.resume

lpad9:                                            ; preds = %invoke.cont32, %invoke.cont29
  %15 = landingpad { ptr, i32 }
          cleanup
  br label %ehcleanup

lpad11:                                           ; preds = %invoke.cont7
  %16 = landingpad { ptr, i32 }
          cleanup
  call void @_ZN10params_refD1Ev(ptr noundef nonnull align 8 dereferenceable(8) %ref.tmp8) #14
  br label %ehcleanup

lpad16:                                           ; preds = %invoke.cont12
  %17 = landingpad { ptr, i32 }
          cleanup
  call void @_ZN10params_refD1Ev(ptr noundef nonnull align 8 dereferenceable(8) %ref.tmp14) #14
  br label %ehcleanup

lpad20:                                           ; preds = %invoke.cont17
  %18 = landingpad { ptr, i32 }
          cleanup
  call void @_ZN10params_refD1Ev(ptr noundef nonnull align 8 dereferenceable(8) %ref.tmp18) #14
  br label %ehcleanup

lpad24:                                           ; preds = %invoke.cont21
  %19 = landingpad { ptr, i32 }
          cleanup
  call void @_ZN10params_refD1Ev(ptr noundef nonnull align 8 dereferenceable(8) %ref.tmp22) #14
  br label %ehcleanup

lpad28:                                           ; preds = %invoke.cont25
  %20 = landingpad { ptr, i32 }
          cleanup
  call void @_ZN10params_refD1Ev(ptr noundef nonnull align 8 dereferenceable(8) %ref.tmp26) #14
  br label %ehcleanup

ehcleanup:                                        ; preds = %lpad28, %lpad24, %lpad20, %lpad16, %lpad11, %lpad9
  %.pn = phi { ptr, i32 } [ %15, %lpad9 ], [ %20, %lpad28 ], [ %19, %lpad24 ], [ %18, %lpad20 ], [ %17, %lpad16 ], [ %16, %lpad11 ]
  %m_qi_new_gen.i = getelementptr inbounds i8, ptr %this, i64 136
  call void @_ZNSt7__cxx1112basic_stringIcSt11char_traitsIcESaIcEED1Ev(ptr noundef nonnull align 8 dereferenceable(32) %m_qi_new_gen.i) #14
  call void @_ZNSt7__cxx1112basic_stringIcSt11char_traitsIcESaIcEED1Ev(ptr noundef nonnull align 8 dereferenceable(32) %3) #14
  br label %eh.resume

eh.resume:                                        ; preds = %ehcleanup, %lpad6, %lpad3, %lpad.body
  %.pn.pn = phi { ptr, i32 } [ %.pn, %ehcleanup ], [ %14, %lpad6 ], [ %13, %lpad3 ], [ %eh.lpad-body, %lpad.body ]
  resume { ptr, i32 } %.pn.pn
}

; Function Attrs: mustprogress nounwind uwtable
define linkonce_odr hidden void @_ZN14expr_free_varsD2Ev(ptr noundef nonnull align 8 dereferenceable(40) %this) unnamed_addr #4 comdat align 2 personality ptr @__gxx_personality_v0 {
entry:
  %m_todo = getelementptr inbounds %class.expr_free_vars, ptr %this, i64 0, i32 2
  %0 = load ptr, ptr %m_todo, align 8
  %tobool.not.i.i.i = icmp eq ptr %0, null
  br i1 %tobool.not.i.i.i, label %_ZN10ptr_vectorI4exprED2Ev.exit, label %if.then.i.i.i

if.then.i.i.i:                                    ; preds = %entry
  %add.ptr.i.i.i.i = getelementptr inbounds i32, ptr %0, i64 -2
  invoke void @_ZN6memory10deallocateEPv(ptr noundef nonnull %add.ptr.i.i.i.i)
          to label %_ZN10ptr_vectorI4exprED2Ev.exit unwind label %terminate.lpad.i.i

terminate.lpad.i.i:                               ; preds = %if.then.i.i.i
  %1 = landingpad { ptr, i32 }
          catch ptr null
  %2 = extractvalue { ptr, i32 } %1, 0
  tail call void @__clang_call_terminate(ptr %2) #15
  unreachable

_ZN10ptr_vectorI4exprED2Ev.exit:                  ; preds = %entry, %if.then.i.i.i
  %m_sorts = getelementptr inbounds %class.expr_free_vars, ptr %this, i64 0, i32 1
  %3 = load ptr, ptr %m_sorts, align 8
  %tobool.not.i.i.i1 = icmp eq ptr %3, null
  br i1 %tobool.not.i.i.i1, label %_ZN10ptr_vectorI4sortED2Ev.exit, label %if.then.i.i.i2

if.then.i.i.i2:                                   ; preds = %_ZN10ptr_vectorI4exprED2Ev.exit
  %add.ptr.i.i.i.i3 = getelementptr inbounds i32, ptr %3, i64 -2
  invoke void @_ZN6memory10deallocateEPv(ptr noundef nonnull %add.ptr.i.i.i.i3)
          to label %_ZN10ptr_vectorI4sortED2Ev.exit unwind label %terminate.lpad.i.i4

terminate.lpad.i.i4:                              ; preds = %if.then.i.i.i2
  %4 = landingpad { ptr, i32 }
          catch ptr null
  %5 = extractvalue { ptr, i32 } %4, 0
  tail call void @__clang_call_terminate(ptr %5) #15
  unreachable

_ZN10ptr_vectorI4sortED2Ev.exit:                  ; preds = %_ZN10ptr_vectorI4exprED2Ev.exit, %if.then.i.i.i2
  %6 = load ptr, ptr %this, align 8
  %cmp.i.i.i.i.i = icmp eq ptr %6, null
  br i1 %cmp.i.i.i.i.i, label %_ZN16expr_sparse_markD2Ev.exit, label %for.cond.preheader.i.i.i.i.i

for.cond.preheader.i.i.i.i.i:                     ; preds = %_ZN10ptr_vectorI4sortED2Ev.exit
  invoke void @_ZN6memory10deallocateEPv(ptr noundef nonnull %6)
          to label %_ZN16expr_sparse_markD2Ev.exit unwind label %terminate.lpad.i.i.i

terminate.lpad.i.i.i:                             ; preds = %for.cond.preheader.i.i.i.i.i
  %7 = landingpad { ptr, i32 }
          catch ptr null
  %8 = extractvalue { ptr, i32 } %7, 0
  tail call void @__clang_call_terminate(ptr %8) #15
  unreachable

_ZN16expr_sparse_markD2Ev.exit:                   ; preds = %_ZN10ptr_vectorI4sortED2Ev.exit, %for.cond.preheader.i.i.i.i.i
  store ptr null, ptr %this, align 8
  ret void
}

; Function Attrs: nounwind
declare void @_ZN7datalog7contextD1Ev(ptr noundef nonnull align 8 dereferenceable(3556)) unnamed_addr #1

; Function Attrs: mustprogress uwtable
define linkonce_odr hidden void @_ZN9qi_paramsC2ERK10params_ref(ptr noundef nonnull align 8 dereferenceable(144) %this, ptr noundef nonnull align 8 dereferenceable(8) %p) unnamed_addr #3 comdat align 2 personality ptr @__gxx_personality_v0 {
entry:
  %ref.tmp = alloca %"class.std::allocator", align 1
  %ref.tmp2 = alloca %"class.std::allocator", align 1
  call void @_ZNSaIcEC1Ev(ptr noundef nonnull align 1 dereferenceable(1) %ref.tmp) #14
  %call.i3 = invoke noundef ptr @_ZNSt7__cxx1112basic_stringIcSt11char_traitsIcESaIcEE13_M_local_dataEv(ptr noundef nonnull align 8 dereferenceable(32) %this)
          to label %call.i.noexc unwind label %lpad

call.i.noexc:                                     ; preds = %entry
  invoke void @_ZNSt7__cxx1112basic_stringIcSt11char_traitsIcESaIcEE12_Alloc_hiderC1EPcRKS3_(ptr noundef nonnull align 8 dereferenceable(8) %this, ptr noundef %call.i3, ptr noundef nonnull align 1 dereferenceable(1) %ref.tmp)
          to label %.noexc unwind label %lpad

.noexc:                                           ; preds = %call.i.noexc
  invoke void @_ZNSt7__cxx1112basic_stringIcSt11char_traitsIcESaIcEE12_M_constructIPKcEEvT_S8_St20forward_iterator_tag(ptr noundef nonnull align 8 dereferenceable(32) %this, ptr noundef nonnull @.str.4, ptr noundef nonnull getelementptr inbounds ([22 x i8], ptr @.str.4, i64 0, i64 21))
          to label %invoke.cont unwind label %lpad.i

lpad.i:                                           ; preds = %.noexc
  %0 = landingpad { ptr, i32 }
          cleanup
  call void @_ZNSaIcED2Ev(ptr noundef nonnull align 1 dereferenceable(1) %this) #14
  br label %lpad.body

invoke.cont:                                      ; preds = %.noexc
  call void @_ZNSaIcED1Ev(ptr noundef nonnull align 1 dereferenceable(1) %ref.tmp) #14
  %m_qi_new_gen = getelementptr inbounds %struct.qi_params, ptr %this, i64 0, i32 1
  call void @_ZNSaIcEC1Ev(ptr noundef nonnull align 1 dereferenceable(1) %ref.tmp2) #14
  %call.i8 = invoke noundef ptr @_ZNSt7__cxx1112basic_stringIcSt11char_traitsIcESaIcEE13_M_local_dataEv(ptr noundef nonnull align 8 dereferenceable(32) %m_qi_new_gen)
          to label %call.i.noexc7 unwind label %lpad3

call.i.noexc7:                                    ; preds = %invoke.cont
  invoke void @_ZNSt7__cxx1112basic_stringIcSt11char_traitsIcESaIcEE12_Alloc_hiderC1EPcRKS3_(ptr noundef nonnull align 8 dereferenceable(8) %m_qi_new_gen, ptr noundef %call.i8, ptr noundef nonnull align 1 dereferenceable(1) %ref.tmp2)
          to label %.noexc9 unwind label %lpad3

.noexc9:                                          ; preds = %call.i.noexc7
  invoke void @_ZNSt7__cxx1112basic_stringIcSt11char_traitsIcESaIcEE12_M_constructIPKcEEvT_S8_St20forward_iterator_tag(ptr noundef nonnull align 8 dereferenceable(32) %m_qi_new_gen, ptr noundef nonnull @.str.5, ptr noundef nonnull getelementptr inbounds ([5 x i8], ptr @.str.5, i64 0, i64 4))
          to label %invoke.cont4 unwind label %lpad.i6

lpad.i6:                                          ; preds = %.noexc9
  %1 = landingpad { ptr, i32 }
          cleanup
  call void @_ZNSaIcED2Ev(ptr noundef nonnull align 1 dereferenceable(1) %m_qi_new_gen) #14
  br label %lpad3.body

invoke.cont4:                                     ; preds = %.noexc9
  call void @_ZNSaIcED1Ev(ptr noundef nonnull align 1 dereferenceable(1) %ref.tmp2) #14
  %m_qi_eager_threshold = getelementptr inbounds %struct.qi_params, ptr %this, i64 0, i32 2
  store <2 x double> <double 1.000000e+01, double 2.000000e+01>, ptr %m_qi_eager_threshold, align 8
  %m_qi_max_eager_multipatterns = getelementptr inbounds %struct.qi_params, ptr %this, i64 0, i32 4
  store i32 0, ptr %m_qi_max_eager_multipatterns, align 8
  %m_qi_max_lazy_multipattern_matching = getelementptr inbounds %struct.qi_params, ptr %this, i64 0, i32 5
  store i32 2, ptr %m_qi_max_lazy_multipattern_matching, align 4
  %m_qi_profile = getelementptr inbounds %struct.qi_params, ptr %this, i64 0, i32 6
  store i8 0, ptr %m_qi_profile, align 8
  %m_qi_profile_freq = getelementptr inbounds %struct.qi_params, ptr %this, i64 0, i32 7
  store i32 -1, ptr %m_qi_profile_freq, align 4
  %m_qi_quick_checker = getelementptr inbounds %struct.qi_params, ptr %this, i64 0, i32 8
  store i32 0, ptr %m_qi_quick_checker, align 8
  %m_qi_lazy_quick_checker = getelementptr inbounds %struct.qi_params, ptr %this, i64 0, i32 9
  store i8 1, ptr %m_qi_lazy_quick_checker, align 4
  %m_qi_promote_unsat = getelementptr inbounds %struct.qi_params, ptr %this, i64 0, i32 10
  store i8 1, ptr %m_qi_promote_unsat, align 1
  %m_qi_max_instances = getelementptr inbounds %struct.qi_params, ptr %this, i64 0, i32 11
  store i32 -1, ptr %m_qi_max_instances, align 8
  %m_qi_lazy_instantiation = getelementptr inbounds %struct.qi_params, ptr %this, i64 0, i32 12
  store <4 x i8> <i8 0, i8 0, i8 0, i8 1>, ptr %m_qi_lazy_instantiation, align 4
  %m_mbqi_max_cexs = getelementptr inbounds %struct.qi_params, ptr %this, i64 0, i32 16
  store i32 1, ptr %m_mbqi_max_cexs, align 8
  %m_mbqi_max_cexs_incr = getelementptr inbounds %struct.qi_params, ptr %this, i64 0, i32 17
  store i32 1, ptr %m_mbqi_max_cexs_incr, align 4
  %m_mbqi_max_iterations = getelementptr inbounds %struct.qi_params, ptr %this, i64 0, i32 18
  store i32 1000, ptr %m_mbqi_max_iterations, align 8
  %m_mbqi_trace = getelementptr inbounds %struct.qi_params, ptr %this, i64 0, i32 19
  store i8 0, ptr %m_mbqi_trace, align 4
  %m_mbqi_force_template = getelementptr inbounds %struct.qi_params, ptr %this, i64 0, i32 20
  store i32 10, ptr %m_mbqi_force_template, align 8
  %m_mbqi_id = getelementptr inbounds %struct.qi_params, ptr %this, i64 0, i32 21
  store ptr null, ptr %m_mbqi_id, align 8
  invoke void @_ZN9qi_params11updt_paramsERK10params_ref(ptr noundef nonnull align 8 dereferenceable(144) %this, ptr noundef nonnull align 8 dereferenceable(8) %p)
          to label %invoke.cont6 unwind label %lpad5

invoke.cont6:                                     ; preds = %invoke.cont4
  ret void

lpad:                                             ; preds = %call.i.noexc, %entry
  %2 = landingpad { ptr, i32 }
          cleanup
  br label %lpad.body

lpad.body:                                        ; preds = %lpad.i, %lpad
  %eh.lpad-body = phi { ptr, i32 } [ %2, %lpad ], [ %0, %lpad.i ]
  call void @_ZNSaIcED1Ev(ptr noundef nonnull align 1 dereferenceable(1) %ref.tmp) #14
  br label %eh.resume

lpad3:                                            ; preds = %call.i.noexc7, %invoke.cont
  %3 = landingpad { ptr, i32 }
          cleanup
  br label %lpad3.body

lpad3.body:                                       ; preds = %lpad.i6, %lpad3
  %eh.lpad-body10 = phi { ptr, i32 } [ %3, %lpad3 ], [ %1, %lpad.i6 ]
  call void @_ZNSaIcED1Ev(ptr noundef nonnull align 1 dereferenceable(1) %ref.tmp2) #14
  br label %ehcleanup

lpad5:                                            ; preds = %invoke.cont4
  %4 = landingpad { ptr, i32 }
          cleanup
  call void @_ZNSt7__cxx1112basic_stringIcSt11char_traitsIcESaIcEED1Ev(ptr noundef nonnull align 8 dereferenceable(32) %m_qi_new_gen) #14
  br label %ehcleanup

ehcleanup:                                        ; preds = %lpad5, %lpad3.body
  %.pn = phi { ptr, i32 } [ %4, %lpad5 ], [ %eh.lpad-body10, %lpad3.body ]
  call void @_ZNSt7__cxx1112basic_stringIcSt11char_traitsIcESaIcEED1Ev(ptr noundef nonnull align 8 dereferenceable(32) %this) #14
  br label %eh.resume

eh.resume:                                        ; preds = %ehcleanup, %lpad.body
  %.pn.pn = phi { ptr, i32 } [ %.pn, %ehcleanup ], [ %eh.lpad-body, %lpad.body ]
  resume { ptr, i32 } %.pn.pn
}

declare void @_ZN6symbolC1EPKc(ptr noundef nonnull align 8 dereferenceable(8), ptr noundef) unnamed_addr #0

declare void @_ZN10smt_params17updt_local_paramsERK10params_ref(ptr noundef nonnull align 8 dereferenceable(800), ptr noundef nonnull align 8 dereferenceable(8)) local_unnamed_addr #0

declare void @_ZN19preprocessor_params17updt_local_paramsERK10params_ref(ptr noundef nonnull align 4 dereferenceable(67), ptr noundef nonnull align 8 dereferenceable(8)) local_unnamed_addr #0

declare void @_ZN24pattern_inference_params11updt_paramsERK10params_ref(ptr noundef nonnull align 4 dereferenceable(38), ptr noundef nonnull align 8 dereferenceable(8)) local_unnamed_addr #0

declare void @_ZN14dyn_ack_params11updt_paramsERK10params_ref(ptr noundef nonnull align 8 dereferenceable(32), ptr noundef nonnull align 8 dereferenceable(8)) local_unnamed_addr #0

declare void @_ZN9qi_params11updt_paramsERK10params_ref(ptr noundef nonnull align 8 dereferenceable(144), ptr noundef nonnull align 8 dereferenceable(8)) local_unnamed_addr #0

declare void @_ZN19theory_arith_params11updt_paramsERK10params_ref(ptr noundef nonnull align 8 dereferenceable(143), ptr noundef nonnull align 8 dereferenceable(8)) local_unnamed_addr #0

declare void @_ZN16theory_bv_params11updt_paramsERK10params_ref(ptr noundef nonnull align 4 dereferenceable(20), ptr noundef nonnull align 8 dereferenceable(8)) local_unnamed_addr #0

declare void @_ZN17theory_str_params11updt_paramsERK10params_ref(ptr noundef nonnull align 8 dereferenceable(38), ptr noundef nonnull align 8 dereferenceable(8)) local_unnamed_addr #0

declare void @_ZN17theory_seq_params11updt_paramsERK10params_ref(ptr noundef nonnull align 4 dereferenceable(12), ptr noundef nonnull align 8 dereferenceable(8)) local_unnamed_addr #0

declare void @_ZN16theory_pb_params11updt_paramsERK10params_ref(ptr noundef nonnull align 4 dereferenceable(5), ptr noundef nonnull align 8 dereferenceable(8)) local_unnamed_addr #0

declare void @_ZN7datalog7context11updt_paramsERK10params_ref(ptr noundef nonnull align 8 dereferenceable(3556), ptr noundef nonnull align 8 dereferenceable(8)) local_unnamed_addr #0

; Function Attrs: mustprogress nounwind uwtable
define linkonce_odr hidden void @_ZN10ptr_vectorI4exprED2Ev(ptr noundef nonnull align 8 dereferenceable(8) %this) unnamed_addr #4 comdat align 2 personality ptr @__gxx_personality_v0 {
entry:
  %0 = load ptr, ptr %this, align 8
  %tobool.not.i.i = icmp eq ptr %0, null
  br i1 %tobool.not.i.i, label %_ZN6vectorIP4exprLb0EjED2Ev.exit, label %if.then.i.i

if.then.i.i:                                      ; preds = %entry
  %add.ptr.i.i.i = getelementptr inbounds i32, ptr %0, i64 -2
  invoke void @_ZN6memory10deallocateEPv(ptr noundef nonnull %add.ptr.i.i.i)
          to label %_ZN6vectorIP4exprLb0EjED2Ev.exit unwind label %terminate.lpad.i

terminate.lpad.i:                                 ; preds = %if.then.i.i
  %1 = landingpad { ptr, i32 }
          catch ptr null
  %2 = extractvalue { ptr, i32 } %1, 0
  tail call void @__clang_call_terminate(ptr %2) #15
  unreachable

_ZN6vectorIP4exprLb0EjED2Ev.exit:                 ; preds = %entry, %if.then.i.i
  ret void
}

; Function Attrs: mustprogress nounwind uwtable
define linkonce_odr hidden void @_ZN11horn_tactic3impD2Ev(ptr noundef nonnull align 8 dereferenceable(4432) %this) unnamed_addr #4 comdat align 2 personality ptr @__gxx_personality_v0 {
entry:
  %m_free_vars = getelementptr inbounds %"struct.horn_tactic::imp", ptr %this, i64 0, i32 5
  %m_todo.i = getelementptr inbounds %"struct.horn_tactic::imp", ptr %this, i64 0, i32 5, i32 2
  %0 = load ptr, ptr %m_todo.i, align 8
  %tobool.not.i.i.i.i = icmp eq ptr %0, null
  br i1 %tobool.not.i.i.i.i, label %_ZN10ptr_vectorI4exprED2Ev.exit.i, label %if.then.i.i.i.i

if.then.i.i.i.i:                                  ; preds = %entry
  %add.ptr.i.i.i.i.i = getelementptr inbounds i32, ptr %0, i64 -2
  invoke void @_ZN6memory10deallocateEPv(ptr noundef nonnull %add.ptr.i.i.i.i.i)
          to label %_ZN10ptr_vectorI4exprED2Ev.exit.i unwind label %terminate.lpad.i.i.i

terminate.lpad.i.i.i:                             ; preds = %if.then.i.i.i.i
  %1 = landingpad { ptr, i32 }
          catch ptr null
  %2 = extractvalue { ptr, i32 } %1, 0
  tail call void @__clang_call_terminate(ptr %2) #15
  unreachable

_ZN10ptr_vectorI4exprED2Ev.exit.i:                ; preds = %if.then.i.i.i.i, %entry
  %m_sorts.i = getelementptr inbounds %"struct.horn_tactic::imp", ptr %this, i64 0, i32 5, i32 1
  %3 = load ptr, ptr %m_sorts.i, align 8
  %tobool.not.i.i.i1.i = icmp eq ptr %3, null
  br i1 %tobool.not.i.i.i1.i, label %_ZN10ptr_vectorI4sortED2Ev.exit.i, label %if.then.i.i.i2.i

if.then.i.i.i2.i:                                 ; preds = %_ZN10ptr_vectorI4exprED2Ev.exit.i
  %add.ptr.i.i.i.i3.i = getelementptr inbounds i32, ptr %3, i64 -2
  invoke void @_ZN6memory10deallocateEPv(ptr noundef nonnull %add.ptr.i.i.i.i3.i)
          to label %_ZN10ptr_vectorI4sortED2Ev.exit.i unwind label %terminate.lpad.i.i4.i

terminate.lpad.i.i4.i:                            ; preds = %if.then.i.i.i2.i
  %4 = landingpad { ptr, i32 }
          catch ptr null
  %5 = extractvalue { ptr, i32 } %4, 0
  tail call void @__clang_call_terminate(ptr %5) #15
  unreachable

_ZN10ptr_vectorI4sortED2Ev.exit.i:                ; preds = %if.then.i.i.i2.i, %_ZN10ptr_vectorI4exprED2Ev.exit.i
  %6 = load ptr, ptr %m_free_vars, align 8
  %cmp.i.i.i.i.i.i = icmp eq ptr %6, null
  br i1 %cmp.i.i.i.i.i.i, label %_ZN14expr_free_varsD2Ev.exit, label %for.cond.preheader.i.i.i.i.i.i

for.cond.preheader.i.i.i.i.i.i:                   ; preds = %_ZN10ptr_vectorI4sortED2Ev.exit.i
  invoke void @_ZN6memory10deallocateEPv(ptr noundef nonnull %6)
          to label %_ZN14expr_free_varsD2Ev.exit unwind label %terminate.lpad.i.i.i.i

terminate.lpad.i.i.i.i:                           ; preds = %for.cond.preheader.i.i.i.i.i.i
  %7 = landingpad { ptr, i32 }
          catch ptr null
  %8 = extractvalue { ptr, i32 } %7, 0
  tail call void @__clang_call_terminate(ptr %8) #15
  unreachable

_ZN14expr_free_varsD2Ev.exit:                     ; preds = %_ZN10ptr_vectorI4sortED2Ev.exit.i, %for.cond.preheader.i.i.i.i.i.i
  store ptr null, ptr %m_free_vars, align 8
  %9 = getelementptr inbounds %"struct.horn_tactic::imp", ptr %this, i64 0, i32 4, i32 2
  %m_qi_new_gen.i.i = getelementptr inbounds %"struct.horn_tactic::imp", ptr %this, i64 0, i32 4, i32 2, i32 1
  tail call void @_ZNSt7__cxx1112basic_stringIcSt11char_traitsIcESaIcEED1Ev(ptr noundef nonnull align 8 dereferenceable(32) %m_qi_new_gen.i.i) #14
  tail call void @_ZNSt7__cxx1112basic_stringIcSt11char_traitsIcESaIcEED1Ev(ptr noundef nonnull align 8 dereferenceable(32) %9) #14
  %m_ctx = getelementptr inbounds %"struct.horn_tactic::imp", ptr %this, i64 0, i32 3
  tail call void @_ZN7datalog7contextD1Ev(ptr noundef nonnull align 8 dereferenceable(3556) %m_ctx) #14
  ret void
}

declare void @_ZN10params_ref4copyERKS_(ptr noundef nonnull align 8 dereferenceable(8), ptr noundef nonnull align 8 dereferenceable(8)) local_unnamed_addr #0

declare void @_ZN7datalog7context14collect_paramsER12param_descrs(ptr noundef nonnull align 8 dereferenceable(3556), ptr noundef nonnull align 8 dereferenceable(8)) local_unnamed_addr #0

; Function Attrs: mustprogress uwtable
define linkonce_odr hidden void @_ZN11horn_tactic3impclERK3refI4goalER11sref_bufferIS2_Lj16EE(ptr noundef nonnull align 8 dereferenceable(4432) %this, ptr noundef nonnull align 8 dereferenceable(8) %g, ptr noundef nonnull align 8 dereferenceable(144) %result) local_unnamed_addr #3 comdat align 2 personality ptr @__gxx_personality_v0 {
entry:
  %ref.tmp.i.i106 = alloca %"struct.generic_model_converter::entry", align 8
  %ref.tmp.i.i = alloca %class.symbol, align 8
  %report = alloca %class.tactic_report, align 8
  %params = alloca %class.params_ref, align 8
  %q = alloca %class.obj_ref, align 8
  %f = alloca %class.obj_ref, align 8
  %queries = alloca %class.ref_vector, align 8
  %msg = alloca %"class.std::__cxx11::basic_stringstream", align 8
  %ref.tmp = alloca %struct.mk_pp, align 8
  %ref.tmp65 = alloca %"class.std::__cxx11::basic_string", align 8
  %pc = alloca %class.ref.160, align 8
  %mc = alloca %class.ref, align 8
  %0 = load ptr, ptr %g, align 8
  call void @_ZN13tactic_reportC1EPKcRK4goal(ptr noundef nonnull align 8 dereferenceable(8) %report, ptr noundef nonnull @.str.8, ptr noundef nonnull align 8 dereferenceable(124) %0)
  %1 = load ptr, ptr %g, align 8
  %m_proofs_enabled.i = getelementptr inbounds %class.goal, ptr %1, i64 0, i32 10
  %bf.load.i = load i32, ptr %m_proofs_enabled.i, align 8
  %2 = and i32 %bf.load.i, 134217728
  %tobool.i.not = icmp eq i32 %2, 0
  br i1 %tobool.i.not, label %if.end15, label %if.then

if.then:                                          ; preds = %entry
  %m_ctx = getelementptr inbounds %"struct.horn_tactic::imp", ptr %this, i64 0, i32 3
  %call6 = invoke noundef zeroext i1 @_ZNK7datalog7context20generate_proof_traceEv(ptr noundef nonnull align 8 dereferenceable(3556) %m_ctx)
          to label %invoke.cont5 unwind label %lpad

invoke.cont5:                                     ; preds = %if.then
  br i1 %call6, label %if.end15, label %if.then7

if.then7:                                         ; preds = %invoke.cont5
  %m_params.i = getelementptr inbounds %"struct.horn_tactic::imp", ptr %this, i64 0, i32 3, i32 4
  %3 = load ptr, ptr %m_params.i, align 8
  %4 = load ptr, ptr %3, align 8
  invoke void @_ZN10params_refC1ERKS_(ptr noundef nonnull align 8 dereferenceable(8) %params, ptr noundef nonnull align 8 dereferenceable(8) %4)
          to label %invoke.cont11 unwind label %lpad

invoke.cont11:                                    ; preds = %if.then7
  invoke void @_ZN10params_ref8set_boolEPKcb(ptr noundef nonnull align 8 dereferenceable(8) %params, ptr noundef nonnull @.str.9, i1 noundef zeroext true)
          to label %invoke.cont13 unwind label %lpad12

invoke.cont13:                                    ; preds = %invoke.cont11
  invoke void @_ZN7datalog7context11updt_paramsERK10params_ref(ptr noundef nonnull align 8 dereferenceable(3556) %m_ctx, ptr noundef nonnull align 8 dereferenceable(8) %params)
          to label %invoke.cont14 unwind label %lpad12

invoke.cont14:                                    ; preds = %invoke.cont13
  call void @_ZN10params_refD1Ev(ptr noundef nonnull align 8 dereferenceable(8) %params) #14
  br label %if.end15

lpad:                                             ; preds = %if.then7, %if.then
  %5 = landingpad { ptr, i32 }
          cleanup
  br label %ehcleanup167

lpad12:                                           ; preds = %invoke.cont13, %invoke.cont11
  %6 = landingpad { ptr, i32 }
          cleanup
  call void @_ZN10params_refD1Ev(ptr noundef nonnull align 8 dereferenceable(8) %params) #14
  br label %ehcleanup167

if.end15:                                         ; preds = %invoke.cont5, %invoke.cont14, %entry
  %7 = load ptr, ptr %g, align 8
  %m_forms.i = getelementptr inbounds %class.goal, ptr %7, i64 0, i32 7
  %8 = load ptr, ptr %m_forms.i, align 8
  %cmp.i.i.i = icmp eq ptr %8, null
  br i1 %cmp.i.i.i, label %invoke.cont26, label %while.body.i.i.i

while.body.i.i.i:                                 ; preds = %if.end15, %sw.bb.i.i.i
  %c.0.i.i.i = phi ptr [ %10, %sw.bb.i.i.i ], [ %8, %if.end15 ]
  %bf.load.i.i.i.i = load i32, ptr %c.0.i.i.i, align 8
  %bf.lshr.i.i.i.i = lshr i32 %bf.load.i.i.i.i, 30
  switch i32 %bf.lshr.i.i.i.i, label %while.body.unreachabledefault.i.i.i [
    i32 0, label %sw.bb.i.i.i
    i32 1, label %sw.bb3.i.i.i
    i32 2, label %sw.bb5.i.i.i
    i32 3, label %sw.bb7.i.i.i
  ]

sw.bb.i.i.i:                                      ; preds = %while.body.i.i.i
  %9 = getelementptr inbounds %"struct.parray_manager<ast_manager::expr_array_config>::cell", ptr %c.0.i.i.i, i64 0, i32 3
  %10 = load ptr, ptr %9, align 8
  br label %while.body.i.i.i, !llvm.loop !4

sw.bb3.i.i.i:                                     ; preds = %while.body.i.i.i
  %11 = getelementptr inbounds %"struct.parray_manager<ast_manager::expr_array_config>::cell", ptr %c.0.i.i.i, i64 0, i32 1
  %12 = load i32, ptr %11, align 4
  %add.i.i.i = add i32 %12, 1
  br label %invoke.cont26

sw.bb5.i.i.i:                                     ; preds = %while.body.i.i.i
  %13 = getelementptr inbounds %"struct.parray_manager<ast_manager::expr_array_config>::cell", ptr %c.0.i.i.i, i64 0, i32 1
  %14 = load i32, ptr %13, align 4
  %sub.i.i.i = add i32 %14, -1
  br label %invoke.cont26

sw.bb7.i.i.i:                                     ; preds = %while.body.i.i.i
  %15 = getelementptr inbounds %"struct.parray_manager<ast_manager::expr_array_config>::cell", ptr %c.0.i.i.i, i64 0, i32 1
  %16 = load i32, ptr %15, align 4
  br label %invoke.cont26

while.body.unreachabledefault.i.i.i:              ; preds = %while.body.i.i.i
  unreachable

invoke.cont26:                                    ; preds = %if.end15, %sw.bb3.i.i.i, %sw.bb5.i.i.i, %sw.bb7.i.i.i
  %retval.0.i.i.i = phi i32 [ %16, %sw.bb7.i.i.i ], [ %sub.i.i.i, %sw.bb5.i.i.i ], [ %add.i.i.i, %sw.bb3.i.i.i ], [ 0, %if.end15 ]
  %17 = load ptr, ptr %this, align 8
  store ptr null, ptr %q, align 8
  %m_manager.i = getelementptr inbounds %class.obj_ref, ptr %q, i64 0, i32 1
  store ptr %17, ptr %m_manager.i, align 8
  store ptr null, ptr %f, align 8
  %m_manager.i23 = getelementptr inbounds %class.obj_ref, ptr %f, i64 0, i32 1
  store ptr %17, ptr %m_manager.i23, align 8
  %18 = ptrtoint ptr %17 to i64
  store i64 %18, ptr %queries, align 8
  %m_nodes.i.i = getelementptr inbounds %class.ref_vector_core, ptr %queries, i64 0, i32 1
  store ptr null, ptr %m_nodes.i.i, align 8
  invoke void @_ZNSt7__cxx1118basic_stringstreamIcSt11char_traitsIcESaIcEEC1Ev(ptr noundef nonnull align 8 dereferenceable(128) %msg)
          to label %invoke.cont28 unwind label %lpad27

invoke.cont28:                                    ; preds = %invoke.cont26
  invoke void @_ZN11horn_tactic3imp16check_parametersEv(ptr noundef nonnull align 8 dereferenceable(4432) %this)
          to label %invoke.cont30 unwind label %lpad29.loopexit.split-lp.loopexit.split-lp.loopexit.split-lp

invoke.cont30:                                    ; preds = %invoke.cont28
  %m_ctx31 = getelementptr inbounds %"struct.horn_tactic::imp", ptr %this, i64 0, i32 3
  invoke void @_ZN7datalog7context5resetEv(ptr noundef nonnull align 8 dereferenceable(3556) %m_ctx31)
          to label %invoke.cont32 unwind label %lpad29.loopexit.split-lp.loopexit.split-lp.loopexit.split-lp

invoke.cont32:                                    ; preds = %invoke.cont30
  invoke void @_ZN7datalog7context13ensure_openedEv(ptr noundef nonnull align 8 dereferenceable(3556) %m_ctx31)
          to label %for.cond.preheader unwind label %lpad29.loopexit.split-lp.loopexit.split-lp.loopexit.split-lp

for.cond.preheader:                               ; preds = %invoke.cont32
  %cmp243.not = icmp eq i32 %retval.0.i.i.i, 0
  br i1 %cmp243.not, label %for.end, label %for.body.preheader

for.body.preheader:                               ; preds = %for.cond.preheader
  %wide.trip.count = zext i32 %retval.0.i.i.i to i64
  br label %for.body

for.body:                                         ; preds = %for.body.preheader, %for.inc
  %indvars.iv = phi i64 [ 0, %for.body.preheader ], [ %indvars.iv.next, %for.inc ]
  %19 = load ptr, ptr %g, align 8
  %m_inconsistent.i.i = getelementptr inbounds %class.goal, ptr %19, i64 0, i32 10
  %bf.load.i.i = load i32, ptr %m_inconsistent.i.i, align 8
  %20 = and i32 %bf.load.i.i, 536870912
  %tobool.i.not.i = icmp eq i32 %20, 0
  %21 = load ptr, ptr %19, align 8
  br i1 %tobool.i.not.i, label %cond.false.i, label %cond.true.i

cond.true.i:                                      ; preds = %for.body
  %m_false.i.i = getelementptr inbounds %class.ast_manager, ptr %21, i64 0, i32 16
  br label %invoke.cont37

cond.false.i:                                     ; preds = %for.body
  %m_forms.i24 = getelementptr inbounds %class.goal, ptr %19, i64 0, i32 7
  %m_expr_array_manager.i.i = getelementptr inbounds %class.ast_manager, ptr %21, i64 0, i32 3
  br label %if.end.i.i.i

if.then.i.i.i:                                    ; preds = %sw.epilog.i.i.i
  invoke void @_ZN14parray_managerIN11ast_manager17expr_array_configEE6rerootERNS2_3refE(ptr noundef nonnull align 8 dereferenceable(32) %m_expr_array_manager.i.i, ptr noundef nonnull align 8 dereferenceable(12) %m_forms.i24)
          to label %.noexc unwind label %lpad29.loopexit.split-lp.loopexit.split-lp.loopexit

.noexc:                                           ; preds = %if.then.i.i.i
  %22 = load ptr, ptr %m_forms.i24, align 8
  %23 = getelementptr inbounds %"struct.parray_manager<ast_manager::expr_array_config>::cell", ptr %22, i64 0, i32 3
  %24 = load ptr, ptr %23, align 8
  %arrayidx.i.i.i = getelementptr inbounds ptr, ptr %24, i64 %indvars.iv
  br label %invoke.cont37

if.end.i.i.i:                                     ; preds = %sw.epilog.i.i.i, %cond.false.i
  %c.017.in.i.i.i = phi ptr [ %m_forms.i24, %cond.false.i ], [ %c.1.in.i.i.i, %sw.epilog.i.i.i ]
  %trail_sz.016.i.i.i = phi i32 [ 0, %cond.false.i ], [ %trail_sz.1.i.i.i, %sw.epilog.i.i.i ]
  %c.017.i.i.i = load ptr, ptr %c.017.in.i.i.i, align 8
  %bf.load.i.i.i.i25 = load i32, ptr %c.017.i.i.i, align 8
  %bf.lshr.i.i.i.i26 = lshr i32 %bf.load.i.i.i.i25, 30
  switch i32 %bf.lshr.i.i.i.i26, label %if.end.unreachabledefault.i.i.i [
    i32 0, label %sw.bb.i.i.i27
    i32 1, label %sw.bb.i.i.i27
    i32 2, label %sw.epilog.i.i.i
    i32 3, label %sw.bb12.i.i.i
  ]

sw.bb.i.i.i27:                                    ; preds = %if.end.i.i.i, %if.end.i.i.i
  %25 = getelementptr inbounds %"struct.parray_manager<ast_manager::expr_array_config>::cell", ptr %c.017.i.i.i, i64 0, i32 1
  %26 = load i32, ptr %25, align 4
  %27 = zext i32 %26 to i64
  %cmp4.i.i.i = icmp eq i64 %indvars.iv, %27
  br i1 %cmp4.i.i.i, label %if.then5.i.i.i, label %sw.epilog.i.i.i

if.then5.i.i.i:                                   ; preds = %sw.bb.i.i.i27
  %m_elem.i.i.i.i = getelementptr inbounds %"struct.parray_manager<ast_manager::expr_array_config>::cell", ptr %c.017.i.i.i, i64 0, i32 2
  br label %invoke.cont37

sw.bb12.i.i.i:                                    ; preds = %if.end.i.i.i
  %28 = getelementptr inbounds %"struct.parray_manager<ast_manager::expr_array_config>::cell", ptr %c.017.i.i.i, i64 0, i32 3
  %29 = load ptr, ptr %28, align 8
  %arrayidx14.i.i.i = getelementptr inbounds ptr, ptr %29, i64 %indvars.iv
  br label %invoke.cont37

if.end.unreachabledefault.i.i.i:                  ; preds = %if.end.i.i.i
  unreachable

sw.epilog.i.i.i:                                  ; preds = %sw.bb.i.i.i27, %if.end.i.i.i
  %c.1.in.i.i.i = getelementptr inbounds %"struct.parray_manager<ast_manager::expr_array_config>::cell", ptr %c.017.i.i.i, i64 0, i32 3
  %trail_sz.1.i.i.i = add nuw nsw i32 %trail_sz.016.i.i.i, 1
  %exitcond.i.i.i = icmp eq i32 %trail_sz.1.i.i.i, 17
  br i1 %exitcond.i.i.i, label %if.then.i.i.i, label %if.end.i.i.i, !llvm.loop !6

invoke.cont37:                                    ; preds = %sw.bb12.i.i.i, %if.then5.i.i.i, %.noexc, %cond.true.i
  %cond.in.i = phi ptr [ %m_false.i.i, %cond.true.i ], [ %arrayidx.i.i.i, %.noexc ], [ %arrayidx14.i.i.i, %sw.bb12.i.i.i ], [ %m_elem.i.i.i.i, %if.then5.i.i.i ]
  %cond.i = load ptr, ptr %cond.in.i, align 8
  %tobool.not.i = icmp eq ptr %cond.i, null
  br i1 %tobool.not.i, label %if.end.i, label %_ZN11ast_manager7inc_refEP3ast.exit.i

_ZN11ast_manager7inc_refEP3ast.exit.i:            ; preds = %invoke.cont37
  %m_ref_count.i.i.i = getelementptr inbounds %class.ast, ptr %cond.i, i64 0, i32 2
  %30 = load i32, ptr %m_ref_count.i.i.i, align 4
  %inc.i.i.i = add i32 %30, 1
  store i32 %inc.i.i.i, ptr %m_ref_count.i.i.i, align 4
  br label %if.end.i

if.end.i:                                         ; preds = %_ZN11ast_manager7inc_refEP3ast.exit.i, %invoke.cont37
  %31 = load ptr, ptr %f, align 8
  %tobool.not.i3.i = icmp eq ptr %31, null
  br i1 %tobool.not.i3.i, label %invoke.cont39, label %if.then.i.i.i28

if.then.i.i.i28:                                  ; preds = %if.end.i
  %32 = load ptr, ptr %m_manager.i23, align 8
  %m_ref_count.i.i.i.i = getelementptr inbounds %class.ast, ptr %31, i64 0, i32 2
  %33 = load i32, ptr %m_ref_count.i.i.i.i, align 4
  %dec.i.i.i.i = add i32 %33, -1
  store i32 %dec.i.i.i.i, ptr %m_ref_count.i.i.i.i, align 4
  %cmp.i.i.i29 = icmp eq i32 %dec.i.i.i.i, 0
  br i1 %cmp.i.i.i29, label %if.then2.i.i.i, label %invoke.cont39

if.then2.i.i.i:                                   ; preds = %if.then.i.i.i28
  invoke void @_ZN11ast_manager11delete_nodeEP3ast(ptr noundef nonnull align 8 dereferenceable(976) %32, ptr noundef nonnull %31)
          to label %invoke.cont39 unwind label %lpad29.loopexit.split-lp.loopexit.split-lp.loopexit

invoke.cont39:                                    ; preds = %if.then.i.i.i28, %if.end.i, %if.then2.i.i.i
  store ptr %cond.i, ptr %f, align 8
  %call42 = invoke noundef i32 @_ZN11horn_tactic3imp16get_formula_kindER7obj_refI4expr11ast_managerE(ptr noundef nonnull align 8 dereferenceable(4432) %this, ptr noundef nonnull align 8 dereferenceable(16) %f)
          to label %invoke.cont41 unwind label %lpad29.loopexit.split-lp.loopexit.split-lp.loopexit

invoke.cont41:                                    ; preds = %invoke.cont39
  switch i32 %call42, label %sw.default [
    i32 0, label %sw.bb
    i32 1, label %sw.bb47
  ]

lpad27:                                           ; preds = %invoke.cont26
  %34 = landingpad { ptr, i32 }
          cleanup
  br label %ehcleanup164

lpad29.loopexit:                                  ; preds = %if.then2.i.i.i.i.i
  %lpad.loopexit = landingpad { ptr, i32 }
          cleanup
  br label %ehcleanup163

lpad29.loopexit.split-lp.loopexit:                ; preds = %invoke.cont94, %invoke.cont102, %_ZN7obj_refI4expr11ast_managerED2Ev.exit
  %lpad.loopexit226 = landingpad { ptr, i32 }
          cleanup
  br label %ehcleanup163

lpad29.loopexit.split-lp.loopexit.split-lp.loopexit: ; preds = %invoke.cont39, %sw.bb, %if.then.i.i.i, %if.then2.i.i.i, %if.then.i.i
  %lpad.loopexit229 = landingpad { ptr, i32 }
          cleanup
  br label %ehcleanup163

lpad29.loopexit.split-lp.loopexit.split-lp.loopexit.split-lp: ; preds = %invoke.cont28, %invoke.cont30, %invoke.cont32, %sw.default, %invoke.cont52, %invoke.cont113, %invoke.cont115, %invoke.cont131, %invoke.cont56, %if.then74, %.noexc37, %call.i.i.noexc, %invoke.cont81, %if.then.i.i100, %invoke.cont121, %if.then.i.i.i.i123, %if.then2.i.i.i140
  %lpad.loopexit.split-lp = landingpad { ptr, i32 }
          cleanup
  br label %ehcleanup163

sw.bb:                                            ; preds = %invoke.cont41
  %35 = load ptr, ptr %f, align 8
  invoke void @_ZN7datalog7context8add_ruleEP4exprRK6symbolj(ptr noundef nonnull align 8 dereferenceable(3556) %m_ctx31, ptr noundef %35, ptr noundef nonnull align 8 dereferenceable(8) @_ZN6symbol4nullE, i32 noundef -1)
          to label %for.inc unwind label %lpad29.loopexit.split-lp.loopexit.split-lp.loopexit

sw.bb47:                                          ; preds = %invoke.cont41
  %36 = load ptr, ptr %f, align 8
  %tobool.not.i.i.i.i = icmp eq ptr %36, null
  br i1 %tobool.not.i.i.i.i, label %_ZN15ref_vector_coreI4expr19ref_manager_wrapperIS0_11ast_managerEE7inc_refEPS0_.exit.i, label %if.then.i.i.i.i

if.then.i.i.i.i:                                  ; preds = %sw.bb47
  %m_ref_count.i.i.i.i.i = getelementptr inbounds %class.ast, ptr %36, i64 0, i32 2
  %37 = load i32, ptr %m_ref_count.i.i.i.i.i, align 4
  %inc.i.i.i.i.i = add i32 %37, 1
  store i32 %inc.i.i.i.i.i, ptr %m_ref_count.i.i.i.i.i, align 4
  br label %_ZN15ref_vector_coreI4expr19ref_manager_wrapperIS0_11ast_managerEE7inc_refEPS0_.exit.i

_ZN15ref_vector_coreI4expr19ref_manager_wrapperIS0_11ast_managerEE7inc_refEPS0_.exit.i: ; preds = %if.then.i.i.i.i, %sw.bb47
  %38 = load ptr, ptr %m_nodes.i.i, align 8
  %cmp.i.i = icmp eq ptr %38, null
  br i1 %cmp.i.i, label %if.then.i.i, label %lor.lhs.false.i.i

lor.lhs.false.i.i:                                ; preds = %_ZN15ref_vector_coreI4expr19ref_manager_wrapperIS0_11ast_managerEE7inc_refEPS0_.exit.i
  %arrayidx.i.i = getelementptr inbounds i32, ptr %38, i64 -1
  %39 = load i32, ptr %arrayidx.i.i, align 4
  %arrayidx4.i.i = getelementptr inbounds i32, ptr %38, i64 -2
  %40 = load i32, ptr %arrayidx4.i.i, align 4
  %cmp5.i.i = icmp eq i32 %39, %40
  br i1 %cmp5.i.i, label %if.then.i.i, label %_ZN15ref_vector_coreI4expr19ref_manager_wrapperIS0_11ast_managerEE9push_backEPS0_.exit

if.then.i.i:                                      ; preds = %lor.lhs.false.i.i, %_ZN15ref_vector_coreI4expr19ref_manager_wrapperIS0_11ast_managerEE7inc_refEPS0_.exit.i
  invoke void @_ZN6vectorIP4exprLb0EjE13expand_vectorEv(ptr noundef nonnull align 8 dereferenceable(8) %m_nodes.i.i)
          to label %.noexc31 unwind label %lpad29.loopexit.split-lp.loopexit.split-lp.loopexit

.noexc31:                                         ; preds = %if.then.i.i
  %.pre.i.i = load ptr, ptr %m_nodes.i.i, align 8
  %arrayidx8.phi.trans.insert.i.i = getelementptr inbounds i32, ptr %.pre.i.i, i64 -1
  %.pre1.i.i = load i32, ptr %arrayidx8.phi.trans.insert.i.i, align 4
  br label %_ZN15ref_vector_coreI4expr19ref_manager_wrapperIS0_11ast_managerEE9push_backEPS0_.exit

_ZN15ref_vector_coreI4expr19ref_manager_wrapperIS0_11ast_managerEE9push_backEPS0_.exit: ; preds = %lor.lhs.false.i.i, %.noexc31
  %41 = phi i32 [ %.pre1.i.i, %.noexc31 ], [ %39, %lor.lhs.false.i.i ]
  %42 = phi ptr [ %.pre.i.i, %.noexc31 ], [ %38, %lor.lhs.false.i.i ]
  %idx.ext.i.i = zext i32 %41 to i64
  %add.ptr.i.i = getelementptr inbounds ptr, ptr %42, i64 %idx.ext.i.i
  store ptr %36, ptr %add.ptr.i.i, align 8
  %43 = load ptr, ptr %m_nodes.i.i, align 8
  %arrayidx10.i.i = getelementptr inbounds i32, ptr %43, i64 -1
  %44 = load i32, ptr %arrayidx10.i.i, align 4
  %inc.i.i = add i32 %44, 1
  store i32 %inc.i.i, ptr %arrayidx10.i.i, align 4
  br label %for.inc

sw.default:                                       ; preds = %invoke.cont41
  %add.ptr = getelementptr inbounds i8, ptr %msg, i64 16
  %call53 = invoke noundef nonnull align 8 dereferenceable(8) ptr @_ZStlsISt11char_traitsIcEERSt13basic_ostreamIcT_ES5_PKc(ptr noundef nonnull align 8 dereferenceable(8) %add.ptr, ptr noundef nonnull @.str.10)
          to label %invoke.cont52 unwind label %lpad29.loopexit.split-lp.loopexit.split-lp.loopexit.split-lp

invoke.cont52:                                    ; preds = %sw.default
  %45 = trunc i64 %indvars.iv to i32
  %46 = load ptr, ptr %g, align 8
  %call57 = invoke noundef ptr @_ZNK4goal4formEj(ptr noundef nonnull align 8 dereferenceable(124) %46, i32 noundef %45)
          to label %invoke.cont56 unwind label %lpad29.loopexit.split-lp.loopexit.split-lp.loopexit.split-lp

invoke.cont56:                                    ; preds = %invoke.cont52
  %47 = load ptr, ptr %this, align 8
  invoke void @_ZN11mk_ismt2_ppC2EP3astR11ast_managerjjPKc(ptr noundef nonnull align 8 dereferenceable(48) %ref.tmp, ptr noundef %call57, ptr noundef nonnull align 8 dereferenceable(976) %47, i32 noundef 0, i32 noundef 0, ptr noundef null)
          to label %invoke.cont59 unwind label %lpad29.loopexit.split-lp.loopexit.split-lp.loopexit.split-lp

invoke.cont59:                                    ; preds = %invoke.cont56
  %call62 = invoke noundef nonnull align 8 dereferenceable(8) ptr @_ZlsRSoRK11mk_ismt2_pp(ptr noundef nonnull align 8 dereferenceable(8) %call53, ptr noundef nonnull align 8 dereferenceable(48) %ref.tmp)
          to label %invoke.cont61 unwind label %lpad60

invoke.cont61:                                    ; preds = %invoke.cont59
  %call64 = invoke noundef nonnull align 8 dereferenceable(8) ptr @_ZStlsISt11char_traitsIcEERSt13basic_ostreamIcT_ES5_PKc(ptr noundef nonnull align 8 dereferenceable(8) %call62, ptr noundef nonnull @.str.11)
          to label %invoke.cont63 unwind label %lpad60

invoke.cont63:                                    ; preds = %invoke.cont61
  %m_empty.i.i = getelementptr inbounds %struct.mk_ismt2_pp, ptr %ref.tmp, i64 0, i32 2
  call void @_ZN10params_refD1Ev(ptr noundef nonnull align 8 dereferenceable(8) %m_empty.i.i) #14
  %exception = call ptr @__cxa_allocate_exception(i64 40) #14
  invoke void @_ZNKSt7__cxx1118basic_stringstreamIcSt11char_traitsIcESaIcEE3strEv(ptr nonnull sret(%"class.std::__cxx11::basic_string") align 8 %ref.tmp65, ptr noundef nonnull align 8 dereferenceable(128) %msg)
          to label %invoke.cont67 unwind label %cleanup.action

invoke.cont67:                                    ; preds = %invoke.cont63
  store ptr getelementptr inbounds ({ [6 x ptr] }, ptr @_ZTV16tactic_exception, i64 0, inrange i32 0, i64 2), ptr %exception, align 8
  %m_msg.i = getelementptr inbounds %class.tactic_exception, ptr %exception, i64 0, i32 1
  call void @_ZNSt7__cxx1112basic_stringIcSt11char_traitsIcESaIcEEC1EOS4_(ptr noundef nonnull align 8 dereferenceable(32) %m_msg.i, ptr noundef nonnull align 8 dereferenceable(32) %ref.tmp65) #14
  invoke void @__cxa_throw(ptr nonnull %exception, ptr nonnull @_ZTI16tactic_exception, ptr nonnull @_ZN16tactic_exceptionD2Ev) #17
          to label %unreachable unwind label %ehcleanup

lpad60:                                           ; preds = %invoke.cont61, %invoke.cont59
  %48 = landingpad { ptr, i32 }
          cleanup
  %m_empty.i.i33 = getelementptr inbounds %struct.mk_ismt2_pp, ptr %ref.tmp, i64 0, i32 2
  call void @_ZN10params_refD1Ev(ptr noundef nonnull align 8 dereferenceable(8) %m_empty.i.i33) #14
  br label %ehcleanup163

ehcleanup:                                        ; preds = %invoke.cont67
  %49 = landingpad { ptr, i32 }
          cleanup
  call void @_ZNSt7__cxx1112basic_stringIcSt11char_traitsIcESaIcEED1Ev(ptr noundef nonnull align 8 dereferenceable(32) %ref.tmp65) #14
  br label %ehcleanup163

cleanup.action:                                   ; preds = %invoke.cont63
  %50 = landingpad { ptr, i32 }
          cleanup
  call void @__cxa_free_exception(ptr %exception) #14
  br label %ehcleanup163

for.inc:                                          ; preds = %_ZN15ref_vector_coreI4expr19ref_manager_wrapperIS0_11ast_managerEE9push_backEPS0_.exit, %sw.bb
  %indvars.iv.next = add nuw nsw i64 %indvars.iv, 1
  %exitcond.not = icmp eq i64 %indvars.iv.next, %wide.trip.count
  br i1 %exitcond.not, label %for.end, label %for.body, !llvm.loop !7

for.end:                                          ; preds = %for.inc, %for.cond.preheader
  %51 = load ptr, ptr %m_nodes.i.i, align 8
  %cmp.i.i35 = icmp eq ptr %51, null
  br i1 %cmp.i.i35, label %if.then74, label %_ZNK15ref_vector_coreI4expr19ref_manager_wrapperIS0_11ast_managerEE4sizeEv.exit

_ZNK15ref_vector_coreI4expr19ref_manager_wrapperIS0_11ast_managerEE4sizeEv.exit: ; preds = %for.end
  %arrayidx.i.i36 = getelementptr inbounds i32, ptr %51, i64 -1
  %52 = load i32, ptr %arrayidx.i.i36, align 4
  %cmp72.not = icmp eq i32 %52, 1
  br i1 %cmp72.not, label %lor.lhs.false, label %if.then74

lor.lhs.false:                                    ; preds = %_ZNK15ref_vector_coreI4expr19ref_manager_wrapperIS0_11ast_managerEE4sizeEv.exit
  %m_is_simplify = getelementptr inbounds %"struct.horn_tactic::imp", ptr %this, i64 0, i32 1
  %53 = load i8, ptr %m_is_simplify, align 8
  %54 = and i8 %53, 1
  %tobool73.not = icmp eq i8 %54, 0
  br i1 %tobool73.not, label %invoke.cont127, label %if.then74

if.then74:                                        ; preds = %for.end, %lor.lhs.false, %_ZNK15ref_vector_coreI4expr19ref_manager_wrapperIS0_11ast_managerEE4sizeEv.exit
  %55 = load ptr, ptr %this, align 8
  %m_bool_sort.i = getelementptr inbounds %class.ast_manager, ptr %55, i64 0, i32 13
  %56 = load ptr, ptr %m_bool_sort.i, align 8
  call void @llvm.lifetime.start.p0(i64 8, ptr nonnull %ref.tmp.i.i)
  invoke void @_ZN6symbolC1EPKc(ptr noundef nonnull align 8 dereferenceable(8) %ref.tmp.i.i, ptr noundef nonnull @.str.12)
          to label %.noexc37 unwind label %lpad29.loopexit.split-lp.loopexit.split-lp.loopexit.split-lp

.noexc37:                                         ; preds = %if.then74
  %call.i.i38 = invoke noundef ptr @_ZN11ast_manager18mk_fresh_func_declERK6symbolS2_jPKP4sortS4_b(ptr noundef nonnull align 8 dereferenceable(976) %55, ptr noundef nonnull align 8 dereferenceable(8) %ref.tmp.i.i, ptr noundef nonnull align 8 dereferenceable(8) @_ZN6symbol4nullE, i32 noundef 0, ptr noundef null, ptr noundef %56, i1 noundef zeroext true)
          to label %call.i.i.noexc unwind label %lpad29.loopexit.split-lp.loopexit.split-lp.loopexit.split-lp

call.i.i.noexc:                                   ; preds = %.noexc37
  call void @llvm.lifetime.end.p0(i64 8, ptr nonnull %ref.tmp.i.i)
  %call.i1.i39 = invoke noundef ptr @_ZN11ast_manager6mk_appEP9func_decljPKP4expr(ptr noundef nonnull align 8 dereferenceable(976) %55, ptr noundef %call.i.i38, i32 noundef 0, ptr noundef null)
          to label %invoke.cont79 unwind label %lpad29.loopexit.split-lp.loopexit.split-lp.loopexit.split-lp

invoke.cont79:                                    ; preds = %call.i.i.noexc
  %tobool.not.i40 = icmp eq ptr %call.i1.i39, null
  br i1 %tobool.not.i40, label %invoke.cont81, label %_ZN11ast_manager7inc_refEP3ast.exit.i41

_ZN11ast_manager7inc_refEP3ast.exit.i41:          ; preds = %invoke.cont79
  %m_ref_count.i.i.i42 = getelementptr inbounds %class.ast, ptr %call.i1.i39, i64 0, i32 2
  %57 = load i32, ptr %m_ref_count.i.i.i42, align 4
  %inc.i.i.i43 = add i32 %57, 1
  store i32 %inc.i.i.i43, ptr %m_ref_count.i.i.i42, align 4
  br label %invoke.cont81

invoke.cont81:                                    ; preds = %invoke.cont79, %_ZN11ast_manager7inc_refEP3ast.exit.i41
  store ptr %call.i1.i39, ptr %q, align 8
  %m_decl.i.i = getelementptr inbounds %class.app, ptr %call.i1.i39, i64 0, i32 1
  %58 = load ptr, ptr %m_decl.i.i, align 8
  invoke void @_ZN7datalog7context18register_predicateEP9func_declb(ptr noundef nonnull align 8 dereferenceable(3556) %m_ctx31, ptr noundef %58, i1 noundef zeroext false)
          to label %for.cond87.preheader unwind label %lpad29.loopexit.split-lp.loopexit.split-lp.loopexit.split-lp

for.cond87.preheader:                             ; preds = %invoke.cont81
  %59 = load ptr, ptr %m_nodes.i.i, align 8
  %cmp.i.i57245 = icmp eq ptr %59, null
  br i1 %cmp.i.i57245, label %if.then.i.i.i.i86, label %_ZNK15ref_vector_coreI4expr19ref_manager_wrapperIS0_11ast_managerEE4sizeEv.exit61.thread

_ZNK15ref_vector_coreI4expr19ref_manager_wrapperIS0_11ast_managerEE4sizeEv.exit61.thread: ; preds = %for.cond87.preheader, %for.inc107
  %indvars.iv260 = phi i64 [ %indvars.iv.next261, %for.inc107 ], [ 0, %for.cond87.preheader ]
  %60 = phi ptr [ %72, %for.inc107 ], [ %59, %for.cond87.preheader ]
  %arrayidx.i.i59 = getelementptr inbounds i32, ptr %60, i64 -1
  %61 = load i32, ptr %arrayidx.i.i59, align 4
  %62 = zext i32 %61 to i64
  %cmp90225 = icmp ult i64 %indvars.iv260, %62
  br i1 %cmp90225, label %invoke.cont94, label %_ZNK6vectorIP4exprLb0EjE4sizeEv.exit.i

invoke.cont94:                                    ; preds = %_ZNK15ref_vector_coreI4expr19ref_manager_wrapperIS0_11ast_managerEE4sizeEv.exit61.thread
  %arrayidx.i.i63 = getelementptr inbounds ptr, ptr %60, i64 %indvars.iv260
  %63 = load ptr, ptr %arrayidx.i.i63, align 8
  %64 = load ptr, ptr %this, align 8, !noalias !8
  %call.i.i68 = invoke noundef ptr @_ZN11ast_manager6mk_appEiiP4exprS1_(ptr noundef nonnull align 8 dereferenceable(976) %64, i32 noundef 0, i32 noundef 9, ptr noundef %63, ptr noundef %call.i1.i39)
          to label %call.i.i.noexc67 unwind label %lpad29.loopexit.split-lp.loopexit

call.i.i.noexc67:                                 ; preds = %invoke.cont94
  %65 = load ptr, ptr %this, align 8, !noalias !8
  %tobool.not.i.i.i = icmp eq ptr %call.i.i68, null
  br i1 %tobool.not.i.i.i, label %invoke.cont100, label %_ZN11ast_manager7inc_refEP3ast.exit.i.i.i

_ZN11ast_manager7inc_refEP3ast.exit.i.i.i:        ; preds = %call.i.i.noexc67
  %m_ref_count.i.i.i.i.i65 = getelementptr inbounds %class.ast, ptr %call.i.i68, i64 0, i32 2
  %66 = load i32, ptr %m_ref_count.i.i.i.i.i65, align 4, !noalias !8
  %inc.i.i.i.i.i66 = add i32 %66, 1
  store i32 %inc.i.i.i.i.i66, ptr %m_ref_count.i.i.i.i.i65, align 4, !noalias !8
  br label %invoke.cont100

invoke.cont100:                                   ; preds = %_ZN11ast_manager7inc_refEP3ast.exit.i.i.i, %call.i.i.noexc67
  %67 = load ptr, ptr %f, align 8
  store ptr %call.i.i68, ptr %f, align 8
  %tobool.not.i.i.i69 = icmp eq ptr %67, null
  br i1 %tobool.not.i.i.i69, label %_ZN7obj_refI4expr11ast_managerED2Ev.exit, label %if.then.i.i.i.i70

if.then.i.i.i.i70:                                ; preds = %invoke.cont100
  %m_ref_count.i.i.i.i.i71 = getelementptr inbounds %class.ast, ptr %67, i64 0, i32 2
  %68 = load i32, ptr %m_ref_count.i.i.i.i.i71, align 4
  %dec.i.i.i.i.i = add i32 %68, -1
  store i32 %dec.i.i.i.i.i, ptr %m_ref_count.i.i.i.i.i71, align 4
  %cmp.i.i.i.i = icmp eq i32 %dec.i.i.i.i.i, 0
  br i1 %cmp.i.i.i.i, label %if.then2.i.i.i.i, label %_ZN7obj_refI4expr11ast_managerED2Ev.exit

if.then2.i.i.i.i:                                 ; preds = %if.then.i.i.i.i70
  invoke void @_ZN11ast_manager11delete_nodeEP3ast(ptr noundef nonnull align 8 dereferenceable(976) %65, ptr noundef nonnull %67)
          to label %_ZN7obj_refI4expr11ast_managerED2Ev.exit unwind label %terminate.lpad.i

terminate.lpad.i:                                 ; preds = %if.then2.i.i.i.i
  %69 = landingpad { ptr, i32 }
          catch ptr null
  %70 = extractvalue { ptr, i32 } %69, 0
  call void @__clang_call_terminate(ptr %70) #15
  unreachable

_ZN7obj_refI4expr11ast_managerED2Ev.exit:         ; preds = %if.then2.i.i.i.i, %if.then.i.i.i.i70, %invoke.cont100
  invoke void @_ZN11horn_tactic3imp14bind_variablesER7obj_refI4expr11ast_managerE(ptr noundef nonnull align 8 dereferenceable(4432) %this, ptr noundef nonnull align 8 dereferenceable(16) %f)
          to label %invoke.cont102 unwind label %lpad29.loopexit.split-lp.loopexit

invoke.cont102:                                   ; preds = %_ZN7obj_refI4expr11ast_managerED2Ev.exit
  %71 = load ptr, ptr %f, align 8
  invoke void @_ZN7datalog7context8add_ruleEP4exprRK6symbolj(ptr noundef nonnull align 8 dereferenceable(3556) %m_ctx31, ptr noundef %71, ptr noundef nonnull align 8 dereferenceable(8) @_ZN6symbol4nullE, i32 noundef -1)
          to label %for.inc107 unwind label %lpad29.loopexit.split-lp.loopexit

for.inc107:                                       ; preds = %invoke.cont102
  %indvars.iv.next261 = add nuw nsw i64 %indvars.iv260, 1
  %72 = load ptr, ptr %m_nodes.i.i, align 8
  %cmp.i.i57 = icmp eq ptr %72, null
  br i1 %cmp.i.i57, label %invoke.cont110, label %_ZNK15ref_vector_coreI4expr19ref_manager_wrapperIS0_11ast_managerEE4sizeEv.exit61.thread, !llvm.loop !11

_ZNK6vectorIP4exprLb0EjE4sizeEv.exit.i:           ; preds = %_ZNK15ref_vector_coreI4expr19ref_manager_wrapperIS0_11ast_managerEE4sizeEv.exit61.thread
  %add.ptr.i = getelementptr inbounds ptr, ptr %60, i64 %62
  %cmp3.i.not.i = icmp eq i32 %61, 0
  br i1 %cmp3.i.not.i, label %if.then.i.i83, label %for.body.i.i

for.body.i.i:                                     ; preds = %_ZNK6vectorIP4exprLb0EjE4sizeEv.exit.i, %_ZN15ref_vector_coreI4expr19ref_manager_wrapperIS0_11ast_managerEE7dec_refEPS0_.exit.i.i
  %it.04.i.i = phi ptr [ %incdec.ptr.i.i, %_ZN15ref_vector_coreI4expr19ref_manager_wrapperIS0_11ast_managerEE7dec_refEPS0_.exit.i.i ], [ %60, %_ZNK6vectorIP4exprLb0EjE4sizeEv.exit.i ]
  %73 = load ptr, ptr %it.04.i.i, align 8
  %74 = load ptr, ptr %queries, align 8
  %tobool.not.i.i.i.i.i = icmp eq ptr %73, null
  br i1 %tobool.not.i.i.i.i.i, label %_ZN15ref_vector_coreI4expr19ref_manager_wrapperIS0_11ast_managerEE7dec_refEPS0_.exit.i.i, label %if.then.i.i.i.i.i

if.then.i.i.i.i.i:                                ; preds = %for.body.i.i
  %m_ref_count.i.i.i.i.i.i = getelementptr inbounds %class.ast, ptr %73, i64 0, i32 2
  %75 = load i32, ptr %m_ref_count.i.i.i.i.i.i, align 4
  %dec.i.i.i.i.i.i = add i32 %75, -1
  store i32 %dec.i.i.i.i.i.i, ptr %m_ref_count.i.i.i.i.i.i, align 4
  %cmp.i.i.i.i.i = icmp eq i32 %dec.i.i.i.i.i.i, 0
  br i1 %cmp.i.i.i.i.i, label %if.then2.i.i.i.i.i, label %_ZN15ref_vector_coreI4expr19ref_manager_wrapperIS0_11ast_managerEE7dec_refEPS0_.exit.i.i

if.then2.i.i.i.i.i:                               ; preds = %if.then.i.i.i.i.i
  invoke void @_ZN11ast_manager11delete_nodeEP3ast(ptr noundef nonnull align 8 dereferenceable(976) %74, ptr noundef nonnull %73)
          to label %_ZN15ref_vector_coreI4expr19ref_manager_wrapperIS0_11ast_managerEE7dec_refEPS0_.exit.i.i unwind label %lpad29.loopexit

_ZN15ref_vector_coreI4expr19ref_manager_wrapperIS0_11ast_managerEE7dec_refEPS0_.exit.i.i: ; preds = %if.then2.i.i.i.i.i, %if.then.i.i.i.i.i, %for.body.i.i
  %incdec.ptr.i.i = getelementptr inbounds ptr, ptr %it.04.i.i, i64 1
  %cmp.i1.i = icmp ult ptr %incdec.ptr.i.i, %add.ptr.i
  br i1 %cmp.i1.i, label %for.body.i.i, label %_ZN15ref_vector_coreI4expr19ref_manager_wrapperIS0_11ast_managerEE13dec_range_refEPKPS0_S7_.exit.i, !llvm.loop !12

_ZN15ref_vector_coreI4expr19ref_manager_wrapperIS0_11ast_managerEE13dec_range_refEPKPS0_S7_.exit.i: ; preds = %_ZN15ref_vector_coreI4expr19ref_manager_wrapperIS0_11ast_managerEE7dec_refEPS0_.exit.i.i
  %.pre.i = load ptr, ptr %m_nodes.i.i, align 8
  %tobool.not.i.i82 = icmp eq ptr %.pre.i, null
  br i1 %tobool.not.i.i82, label %invoke.cont110, label %if.then.i.i83

if.then.i.i83:                                    ; preds = %_ZN15ref_vector_coreI4expr19ref_manager_wrapperIS0_11ast_managerEE13dec_range_refEPKPS0_S7_.exit.i, %_ZNK6vectorIP4exprLb0EjE4sizeEv.exit.i
  %76 = phi ptr [ %.pre.i, %_ZN15ref_vector_coreI4expr19ref_manager_wrapperIS0_11ast_managerEE13dec_range_refEPKPS0_S7_.exit.i ], [ %60, %_ZNK6vectorIP4exprLb0EjE4sizeEv.exit.i ]
  %arrayidx.i2.i = getelementptr inbounds i32, ptr %76, i64 -1
  store i32 0, ptr %arrayidx.i2.i, align 4
  %.pre = load ptr, ptr %q, align 8
  br label %invoke.cont110

invoke.cont110:                                   ; preds = %for.inc107, %if.then.i.i83, %_ZN15ref_vector_coreI4expr19ref_manager_wrapperIS0_11ast_managerEE13dec_range_refEPKPS0_S7_.exit.i
  %77 = phi ptr [ %.pre, %if.then.i.i83 ], [ %call.i1.i39, %_ZN15ref_vector_coreI4expr19ref_manager_wrapperIS0_11ast_managerEE13dec_range_refEPKPS0_S7_.exit.i ], [ %call.i1.i39, %for.inc107 ]
  %tobool.not.i.i.i.i85 = icmp eq ptr %77, null
  br i1 %tobool.not.i.i.i.i85, label %_ZN15ref_vector_coreI4expr19ref_manager_wrapperIS0_11ast_managerEE7inc_refEPS0_.exit.i89, label %if.then.i.i.i.i86

if.then.i.i.i.i86:                                ; preds = %for.cond87.preheader, %invoke.cont110
  %78 = phi ptr [ %77, %invoke.cont110 ], [ %call.i1.i39, %for.cond87.preheader ]
  %m_ref_count.i.i.i.i.i87 = getelementptr inbounds %class.ast, ptr %78, i64 0, i32 2
  %79 = load i32, ptr %m_ref_count.i.i.i.i.i87, align 4
  %inc.i.i.i.i.i88 = add i32 %79, 1
  store i32 %inc.i.i.i.i.i88, ptr %m_ref_count.i.i.i.i.i87, align 4
  br label %_ZN15ref_vector_coreI4expr19ref_manager_wrapperIS0_11ast_managerEE7inc_refEPS0_.exit.i89

_ZN15ref_vector_coreI4expr19ref_manager_wrapperIS0_11ast_managerEE7inc_refEPS0_.exit.i89: ; preds = %if.then.i.i.i.i86, %invoke.cont110
  %80 = phi ptr [ %78, %if.then.i.i.i.i86 ], [ null, %invoke.cont110 ]
  %81 = load ptr, ptr %m_nodes.i.i, align 8
  %cmp.i.i91 = icmp eq ptr %81, null
  br i1 %cmp.i.i91, label %if.then.i.i100, label %lor.lhs.false.i.i92

lor.lhs.false.i.i92:                              ; preds = %_ZN15ref_vector_coreI4expr19ref_manager_wrapperIS0_11ast_managerEE7inc_refEPS0_.exit.i89
  %arrayidx.i.i93 = getelementptr inbounds i32, ptr %81, i64 -1
  %82 = load i32, ptr %arrayidx.i.i93, align 4
  %arrayidx4.i.i94 = getelementptr inbounds i32, ptr %81, i64 -2
  %83 = load i32, ptr %arrayidx4.i.i94, align 4
  %cmp5.i.i95 = icmp eq i32 %82, %83
  br i1 %cmp5.i.i95, label %if.then.i.i100, label %invoke.cont113

if.then.i.i100:                                   ; preds = %lor.lhs.false.i.i92, %_ZN15ref_vector_coreI4expr19ref_manager_wrapperIS0_11ast_managerEE7inc_refEPS0_.exit.i89
  invoke void @_ZN6vectorIP4exprLb0EjE13expand_vectorEv(ptr noundef nonnull align 8 dereferenceable(8) %m_nodes.i.i)
          to label %.noexc104 unwind label %lpad29.loopexit.split-lp.loopexit.split-lp.loopexit.split-lp

.noexc104:                                        ; preds = %if.then.i.i100
  %.pre.i.i101 = load ptr, ptr %m_nodes.i.i, align 8
  %arrayidx8.phi.trans.insert.i.i102 = getelementptr inbounds i32, ptr %.pre.i.i101, i64 -1
  %.pre1.i.i103 = load i32, ptr %arrayidx8.phi.trans.insert.i.i102, align 4
  br label %invoke.cont113

invoke.cont113:                                   ; preds = %.noexc104, %lor.lhs.false.i.i92
  %84 = phi i32 [ %.pre1.i.i103, %.noexc104 ], [ %82, %lor.lhs.false.i.i92 ]
  %85 = phi ptr [ %.pre.i.i101, %.noexc104 ], [ %81, %lor.lhs.false.i.i92 ]
  %idx.ext.i.i96 = zext i32 %84 to i64
  %add.ptr.i.i97 = getelementptr inbounds ptr, ptr %85, i64 %idx.ext.i.i96
  store ptr %80, ptr %add.ptr.i.i97, align 8
  %86 = load ptr, ptr %m_nodes.i.i, align 8
  %arrayidx10.i.i98 = getelementptr inbounds i32, ptr %86, i64 -1
  %87 = load i32, ptr %arrayidx10.i.i98, align 4
  %inc.i.i99 = add i32 %87, 1
  store i32 %inc.i.i99, ptr %arrayidx10.i.i98, align 4
  %call116 = invoke noalias noundef ptr @_ZN6memory8allocateEm(i64 noundef 80)
          to label %invoke.cont115 unwind label %lpad29.loopexit.split-lp.loopexit.split-lp.loopexit.split-lp

invoke.cont115:                                   ; preds = %invoke.cont113
  %88 = load ptr, ptr %this, align 8
  invoke void @_ZN23generic_model_converterC2ER11ast_managerPKc(ptr noundef nonnull align 8 dereferenceable(80) %call116, ptr noundef nonnull align 8 dereferenceable(976) %88, ptr noundef nonnull @.str.8)
          to label %invoke.cont118 unwind label %lpad29.loopexit.split-lp.loopexit.split-lp.loopexit.split-lp

invoke.cont118:                                   ; preds = %invoke.cont115
  %m_decl.i.i107 = getelementptr inbounds %class.app, ptr %80, i64 0, i32 1
  %89 = load ptr, ptr %m_decl.i.i107, align 8
  call void @llvm.lifetime.start.p0(i64 40, ptr nonnull %ref.tmp.i.i106)
  %m_entries.i.i = getelementptr inbounds %class.generic_model_converter, ptr %call116, i64 0, i32 3
  %m.i.i = getelementptr inbounds %class.generic_model_converter, ptr %call116, i64 0, i32 1
  %90 = load ptr, ptr %m.i.i, align 8
  store ptr %89, ptr %ref.tmp.i.i106, align 8
  %m_manager.i.i.i.i = getelementptr inbounds %class.obj_ref.172, ptr %ref.tmp.i.i106, i64 0, i32 1
  store ptr %90, ptr %m_manager.i.i.i.i, align 8
  %tobool.not.i.i.i.i.i108 = icmp eq ptr %89, null
  br i1 %tobool.not.i.i.i.i.i108, label %_ZN23generic_model_converter5entryC2EP9func_declP4exprR11ast_managerNS_11instructionE.exit.i.i, label %_ZN11ast_manager7inc_refEP3ast.exit.i.i.i.i.i

_ZN11ast_manager7inc_refEP3ast.exit.i.i.i.i.i:    ; preds = %invoke.cont118
  %m_ref_count.i.i.i.i.i.i.i = getelementptr inbounds %class.ast, ptr %89, i64 0, i32 2
  %91 = load i32, ptr %m_ref_count.i.i.i.i.i.i.i, align 4
  %inc.i.i.i.i.i.i.i = add i32 %91, 1
  store i32 %inc.i.i.i.i.i.i.i, ptr %m_ref_count.i.i.i.i.i.i.i, align 4
  br label %_ZN23generic_model_converter5entryC2EP9func_declP4exprR11ast_managerNS_11instructionE.exit.i.i

_ZN23generic_model_converter5entryC2EP9func_declP4exprR11ast_managerNS_11instructionE.exit.i.i: ; preds = %_ZN11ast_manager7inc_refEP3ast.exit.i.i.i.i.i, %invoke.cont118
  %m_def.i.i.i = getelementptr inbounds %"struct.generic_model_converter::entry", ptr %ref.tmp.i.i106, i64 0, i32 1
  store ptr null, ptr %m_def.i.i.i, align 8
  %m_manager.i2.i.i.i = getelementptr inbounds %"struct.generic_model_converter::entry", ptr %ref.tmp.i.i106, i64 0, i32 1, i32 1
  store ptr %90, ptr %m_manager.i2.i.i.i, align 8
  %m_instruction.i.i.i = getelementptr inbounds %"struct.generic_model_converter::entry", ptr %ref.tmp.i.i106, i64 0, i32 2
  store i32 0, ptr %m_instruction.i.i.i, align 8
  %92 = load ptr, ptr %m_entries.i.i, align 8
  %cmp.i.i.i109 = icmp eq ptr %92, null
  br i1 %cmp.i.i.i109, label %if.then.i.i.i112, label %lor.lhs.false.i.i.i

lor.lhs.false.i.i.i:                              ; preds = %_ZN23generic_model_converter5entryC2EP9func_declP4exprR11ast_managerNS_11instructionE.exit.i.i
  %arrayidx.i.i.i110 = getelementptr inbounds i32, ptr %92, i64 -1
  %93 = load i32, ptr %arrayidx.i.i.i110, align 4
  %arrayidx4.i.i.i = getelementptr inbounds i32, ptr %92, i64 -2
  %94 = load i32, ptr %arrayidx4.i.i.i, align 4
  %cmp5.i.i.i = icmp eq i32 %93, %94
  br i1 %cmp5.i.i.i, label %if.then.i.i.i112, label %invoke.cont121

if.then.i.i.i112:                                 ; preds = %lor.lhs.false.i.i.i, %_ZN23generic_model_converter5entryC2EP9func_declP4exprR11ast_managerNS_11instructionE.exit.i.i
  invoke void @_ZN6vectorIN23generic_model_converter5entryELb1EjE13expand_vectorEv(ptr noundef nonnull align 8 dereferenceable(8) %m_entries.i.i)
          to label %.noexc.i.i unwind label %lpad.i.i

.noexc.i.i:                                       ; preds = %if.then.i.i.i112
  %.pre.i.i.i = load ptr, ptr %m_entries.i.i, align 8
  %arrayidx8.phi.trans.insert.i.i.i = getelementptr inbounds i32, ptr %.pre.i.i.i, i64 -1
  %.pre1.i.i.i = load i32, ptr %arrayidx8.phi.trans.insert.i.i.i, align 4
  br label %invoke.cont121

lpad.i.i:                                         ; preds = %if.then.i.i.i112
  %95 = landingpad { ptr, i32 }
          cleanup
  call void @_ZN23generic_model_converter5entryD2Ev(ptr noundef nonnull align 8 dereferenceable(36) %ref.tmp.i.i106) #14
  br label %ehcleanup163

invoke.cont121:                                   ; preds = %.noexc.i.i, %lor.lhs.false.i.i.i
  %96 = phi i32 [ %.pre1.i.i.i, %.noexc.i.i ], [ %93, %lor.lhs.false.i.i.i ]
  %97 = phi ptr [ %.pre.i.i.i, %.noexc.i.i ], [ %92, %lor.lhs.false.i.i.i ]
  %idx.ext.i.i.i = zext i32 %96 to i64
  %add.ptr.i.i.i = getelementptr inbounds %"struct.generic_model_converter::entry", ptr %97, i64 %idx.ext.i.i.i
  %m_manager.i.i.i.i.i = getelementptr inbounds %class.obj_ref.172, ptr %add.ptr.i.i.i, i64 0, i32 1
  store ptr %90, ptr %m_manager.i.i.i.i.i, align 8
  store ptr %89, ptr %add.ptr.i.i.i, align 8
  %m_def.i.i.i.i = getelementptr inbounds %"struct.generic_model_converter::entry", ptr %97, i64 %idx.ext.i.i.i, i32 1
  %m_manager.i3.i.i.i.i = getelementptr inbounds %"struct.generic_model_converter::entry", ptr %97, i64 %idx.ext.i.i.i, i32 1, i32 1
  store ptr %90, ptr %m_manager.i3.i.i.i.i, align 8
  store ptr null, ptr %m_def.i.i.i.i, align 8
  %m_instruction.i.i.i.i = getelementptr inbounds %"struct.generic_model_converter::entry", ptr %97, i64 %idx.ext.i.i.i, i32 2
  store i32 0, ptr %m_instruction.i.i.i.i, align 8
  %98 = load ptr, ptr %m_entries.i.i, align 8
  %arrayidx10.i.i.i = getelementptr inbounds i32, ptr %98, i64 -1
  %99 = load i32, ptr %arrayidx10.i.i.i, align 4
  %inc.i.i.i111 = add i32 %99, 1
  store i32 %inc.i.i.i111, ptr %arrayidx10.i.i.i, align 4
  call void @llvm.lifetime.end.p0(i64 40, ptr nonnull %ref.tmp.i.i106)
  %100 = load ptr, ptr %g, align 8
  %m_mc.i = getelementptr inbounds %class.goal, ptr %100, i64 0, i32 1
  %101 = load ptr, ptr %m_mc.i, align 8
  %call2.i124 = invoke noundef ptr @_Z6concatP15model_converterS0_(ptr noundef %101, ptr noundef nonnull %call116)
          to label %call2.i.noexc unwind label %lpad29.loopexit.split-lp.loopexit.split-lp.loopexit.split-lp

call2.i.noexc:                                    ; preds = %invoke.cont121
  %tobool.not.i.i113 = icmp eq ptr %call2.i124, null
  br i1 %tobool.not.i.i113, label %if.end.i.i117, label %if.then.i.i114

if.then.i.i114:                                   ; preds = %call2.i.noexc
  %m_ref_count.i.i.i115 = getelementptr inbounds %class.converter, ptr %call2.i124, i64 0, i32 1
  %102 = load i32, ptr %m_ref_count.i.i.i115, align 8
  %inc.i.i.i116 = add i32 %102, 1
  store i32 %inc.i.i.i116, ptr %m_ref_count.i.i.i115, align 8
  br label %if.end.i.i117

if.end.i.i117:                                    ; preds = %if.then.i.i114, %call2.i.noexc
  %103 = load ptr, ptr %m_mc.i, align 8
  %tobool.not.i.i.i118 = icmp eq ptr %103, null
  br i1 %tobool.not.i.i.i118, label %_ZN4goal3addEP15model_converter.exit, label %if.then.i.i.i119

if.then.i.i.i119:                                 ; preds = %if.end.i.i117
  %m_ref_count.i.i.i.i120 = getelementptr inbounds %class.converter, ptr %103, i64 0, i32 1
  %104 = load i32, ptr %m_ref_count.i.i.i.i120, align 8
  %dec.i.i.i.i121 = add i32 %104, -1
  store i32 %dec.i.i.i.i121, ptr %m_ref_count.i.i.i.i120, align 8
  %cmp.i.i.i.i122 = icmp eq i32 %dec.i.i.i.i121, 0
  br i1 %cmp.i.i.i.i122, label %if.then.i.i.i.i123, label %_ZN4goal3addEP15model_converter.exit

if.then.i.i.i.i123:                               ; preds = %if.then.i.i.i119
  %vtable.i.i.i.i.i = load ptr, ptr %103, align 8
  %105 = load ptr, ptr %vtable.i.i.i.i.i, align 8
  call void %105(ptr noundef nonnull align 8 dereferenceable(12) %103) #14
  invoke void @_ZN6memory10deallocateEPv(ptr noundef nonnull %103)
          to label %_ZN4goal3addEP15model_converter.exit unwind label %lpad29.loopexit.split-lp.loopexit.split-lp.loopexit.split-lp

_ZN4goal3addEP15model_converter.exit:             ; preds = %if.then.i.i.i.i123, %if.end.i.i117, %if.then.i.i.i119
  store ptr %call2.i124, ptr %m_mc.i, align 8
  %.pre263 = load ptr, ptr %m_nodes.i.i, align 8
  br label %invoke.cont127

invoke.cont127:                                   ; preds = %lor.lhs.false, %_ZN4goal3addEP15model_converter.exit
  %106 = phi ptr [ null, %lor.lhs.false ], [ %80, %_ZN4goal3addEP15model_converter.exit ]
  %107 = phi ptr [ %51, %lor.lhs.false ], [ %.pre263, %_ZN4goal3addEP15model_converter.exit ]
  %108 = load ptr, ptr %107, align 8
  %tobool.not.i129 = icmp eq ptr %108, null
  br i1 %tobool.not.i129, label %if.end.i133, label %_ZN11ast_manager7inc_refEP3ast.exit.i130

_ZN11ast_manager7inc_refEP3ast.exit.i130:         ; preds = %invoke.cont127
  %m_ref_count.i.i.i131 = getelementptr inbounds %class.ast, ptr %108, i64 0, i32 2
  %109 = load i32, ptr %m_ref_count.i.i.i131, align 4
  %inc.i.i.i132 = add i32 %109, 1
  store i32 %inc.i.i.i132, ptr %m_ref_count.i.i.i131, align 4
  br label %if.end.i133

if.end.i133:                                      ; preds = %_ZN11ast_manager7inc_refEP3ast.exit.i130, %invoke.cont127
  %tobool.not.i3.i134 = icmp eq ptr %106, null
  br i1 %tobool.not.i3.i134, label %invoke.cont131, label %if.then.i.i.i135

if.then.i.i.i135:                                 ; preds = %if.end.i133
  %110 = load ptr, ptr %m_manager.i, align 8
  %m_ref_count.i.i.i.i137 = getelementptr inbounds %class.ast, ptr %106, i64 0, i32 2
  %111 = load i32, ptr %m_ref_count.i.i.i.i137, align 4
  %dec.i.i.i.i138 = add i32 %111, -1
  store i32 %dec.i.i.i.i138, ptr %m_ref_count.i.i.i.i137, align 4
  %cmp.i.i.i139 = icmp eq i32 %dec.i.i.i.i138, 0
  br i1 %cmp.i.i.i139, label %if.then2.i.i.i140, label %invoke.cont131

if.then2.i.i.i140:                                ; preds = %if.then.i.i.i135
  invoke void @_ZN11ast_manager11delete_nodeEP3ast(ptr noundef nonnull align 8 dereferenceable(976) %110, ptr noundef nonnull %106)
          to label %invoke.cont131 unwind label %lpad29.loopexit.split-lp.loopexit.split-lp.loopexit.split-lp

invoke.cont131:                                   ; preds = %if.then.i.i.i135, %if.end.i133, %if.then2.i.i.i140
  store ptr %108, ptr %q, align 8
  %112 = load ptr, ptr %g, align 8
  %call136 = invoke noundef ptr @_ZNK4goal2pcEv(ptr noundef nonnull align 8 dereferenceable(124) %112)
          to label %invoke.cont135 unwind label %lpad29.loopexit.split-lp.loopexit.split-lp.loopexit.split-lp

invoke.cont135:                                   ; preds = %invoke.cont131
  store ptr %call136, ptr %pc, align 8
  %tobool.not.i.i143 = icmp eq ptr %call136, null
  br i1 %tobool.not.i.i143, label %invoke.cont137, label %if.then.i.i144

if.then.i.i144:                                   ; preds = %invoke.cont135
  %m_ref_count.i.i.i145 = getelementptr inbounds %class.converter, ptr %call136, i64 0, i32 1
  %113 = load i32, ptr %m_ref_count.i.i.i145, align 8
  %inc.i.i.i146 = add i32 %113, 1
  store i32 %inc.i.i.i146, ptr %m_ref_count.i.i.i145, align 8
  br label %invoke.cont137

invoke.cont137:                                   ; preds = %if.then.i.i144, %invoke.cont135
  store ptr null, ptr %mc, align 8
  %m_is_simplify140 = getelementptr inbounds %"struct.horn_tactic::imp", ptr %this, i64 0, i32 1
  %114 = load i8, ptr %m_is_simplify140, align 8
  %115 = and i8 %114, 1
  %tobool141.not = icmp eq i8 %115, 0
  br i1 %tobool141.not, label %if.else, label %if.then142

if.then142:                                       ; preds = %invoke.cont137
  invoke void @_ZN11horn_tactic3imp8simplifyEP4exprRK3refI4goalER11sref_bufferIS4_Lj16EERS3_I15model_converterERS3_I15proof_converterE(ptr noundef nonnull align 8 dereferenceable(4432) %this, ptr noundef %108, ptr noundef nonnull align 8 dereferenceable(8) %g, ptr noundef nonnull align 8 dereferenceable(144) %result, ptr noundef nonnull align 8 dereferenceable(8) %mc, ptr noundef nonnull align 8 dereferenceable(8) %pc)
          to label %if.end150 unwind label %lpad143

lpad143:                                          ; preds = %if.then.i.i.i.i171, %invoke.cont155, %if.then.i.i.i.i157, %if.else, %if.then142
  %116 = landingpad { ptr, i32 }
          cleanup
  call void @_ZN3refI15model_converterED2Ev(ptr noundef nonnull align 8 dereferenceable(8) %mc) #14
  call void @_ZN3refI15proof_converterED2Ev(ptr noundef nonnull align 8 dereferenceable(8) %pc) #14
  br label %ehcleanup163

if.else:                                          ; preds = %invoke.cont137
  invoke void @_ZN11horn_tactic3imp6verifyEP4exprRK3refI4goalER11sref_bufferIS4_Lj16EERS3_I15model_converterERS3_I15proof_converterE(ptr noundef nonnull align 8 dereferenceable(4432) %this, ptr noundef %108, ptr noundef nonnull align 8 dereferenceable(8) %g, ptr noundef nonnull align 8 dereferenceable(144) %result, ptr noundef nonnull align 8 dereferenceable(8) %mc, ptr noundef nonnull align 8 dereferenceable(8) %pc)
          to label %if.end150 unwind label %lpad143

if.end150:                                        ; preds = %if.else, %if.then142
  %117 = load ptr, ptr %g, align 8
  %118 = load ptr, ptr %pc, align 8
  %m_pc.i = getelementptr inbounds %class.goal, ptr %117, i64 0, i32 2
  %tobool.not.i.i147 = icmp eq ptr %118, null
  br i1 %tobool.not.i.i147, label %if.end.i.i151, label %if.then.i.i148

if.then.i.i148:                                   ; preds = %if.end150
  %m_ref_count.i.i.i149 = getelementptr inbounds %class.converter, ptr %118, i64 0, i32 1
  %119 = load i32, ptr %m_ref_count.i.i.i149, align 8
  %inc.i.i.i150 = add i32 %119, 1
  store i32 %inc.i.i.i150, ptr %m_ref_count.i.i.i149, align 8
  br label %if.end.i.i151

if.end.i.i151:                                    ; preds = %if.then.i.i148, %if.end150
  %120 = load ptr, ptr %m_pc.i, align 8
  %tobool.not.i.i.i152 = icmp eq ptr %120, null
  br i1 %tobool.not.i.i.i152, label %invoke.cont155, label %if.then.i.i.i153

if.then.i.i.i153:                                 ; preds = %if.end.i.i151
  %m_ref_count.i.i.i.i154 = getelementptr inbounds %class.converter, ptr %120, i64 0, i32 1
  %121 = load i32, ptr %m_ref_count.i.i.i.i154, align 8
  %dec.i.i.i.i155 = add i32 %121, -1
  store i32 %dec.i.i.i.i155, ptr %m_ref_count.i.i.i.i154, align 8
  %cmp.i.i.i.i156 = icmp eq i32 %dec.i.i.i.i155, 0
  br i1 %cmp.i.i.i.i156, label %if.then.i.i.i.i157, label %invoke.cont155

if.then.i.i.i.i157:                               ; preds = %if.then.i.i.i153
  %vtable.i.i.i.i.i158 = load ptr, ptr %120, align 8
  %122 = load ptr, ptr %vtable.i.i.i.i.i158, align 8
  call void %122(ptr noundef nonnull align 8 dereferenceable(12) %120) #14
  invoke void @_ZN6memory10deallocateEPv(ptr noundef nonnull %120)
          to label %invoke.cont155 unwind label %lpad143

invoke.cont155:                                   ; preds = %if.then.i.i.i153, %if.end.i.i151, %if.then.i.i.i.i157
  store ptr %118, ptr %m_pc.i, align 8
  %123 = load ptr, ptr %g, align 8
  %124 = load ptr, ptr %mc, align 8
  %m_mc.i160 = getelementptr inbounds %class.goal, ptr %123, i64 0, i32 1
  %125 = load ptr, ptr %m_mc.i160, align 8
  %call2.i174 = invoke noundef ptr @_Z6concatP15model_converterS0_(ptr noundef %125, ptr noundef %124)
          to label %call2.i.noexc173 unwind label %lpad143

call2.i.noexc173:                                 ; preds = %invoke.cont155
  %tobool.not.i.i161 = icmp eq ptr %call2.i174, null
  br i1 %tobool.not.i.i161, label %if.end.i.i165, label %if.then.i.i162

if.then.i.i162:                                   ; preds = %call2.i.noexc173
  %m_ref_count.i.i.i163 = getelementptr inbounds %class.converter, ptr %call2.i174, i64 0, i32 1
  %126 = load i32, ptr %m_ref_count.i.i.i163, align 8
  %inc.i.i.i164 = add i32 %126, 1
  store i32 %inc.i.i.i164, ptr %m_ref_count.i.i.i163, align 8
  br label %if.end.i.i165

if.end.i.i165:                                    ; preds = %if.then.i.i162, %call2.i.noexc173
  %127 = load ptr, ptr %m_mc.i160, align 8
  %tobool.not.i.i.i166 = icmp eq ptr %127, null
  br i1 %tobool.not.i.i.i166, label %invoke.cont160, label %if.then.i.i.i167

if.then.i.i.i167:                                 ; preds = %if.end.i.i165
  %m_ref_count.i.i.i.i168 = getelementptr inbounds %class.converter, ptr %127, i64 0, i32 1
  %128 = load i32, ptr %m_ref_count.i.i.i.i168, align 8
  %dec.i.i.i.i169 = add i32 %128, -1
  store i32 %dec.i.i.i.i169, ptr %m_ref_count.i.i.i.i168, align 8
  %cmp.i.i.i.i170 = icmp eq i32 %dec.i.i.i.i169, 0
  br i1 %cmp.i.i.i.i170, label %if.then.i.i.i.i171, label %invoke.cont160

if.then.i.i.i.i171:                               ; preds = %if.then.i.i.i167
  %vtable.i.i.i.i.i172 = load ptr, ptr %127, align 8
  %129 = load ptr, ptr %vtable.i.i.i.i.i172, align 8
  call void %129(ptr noundef nonnull align 8 dereferenceable(12) %127) #14
  invoke void @_ZN6memory10deallocateEPv(ptr noundef nonnull %127)
          to label %invoke.cont160 unwind label %lpad143

invoke.cont160:                                   ; preds = %if.then.i.i.i167, %if.end.i.i165, %if.then.i.i.i.i171
  store ptr %call2.i174, ptr %m_mc.i160, align 8
  %130 = load ptr, ptr %mc, align 8
  %tobool.not.i.i177 = icmp eq ptr %130, null
  br i1 %tobool.not.i.i177, label %_ZN3refI15model_converterED2Ev.exit, label %if.then.i.i178

if.then.i.i178:                                   ; preds = %invoke.cont160
  %m_ref_count.i.i.i179 = getelementptr inbounds %class.converter, ptr %130, i64 0, i32 1
  %131 = load i32, ptr %m_ref_count.i.i.i179, align 8
  %dec.i.i.i = add i32 %131, -1
  store i32 %dec.i.i.i, ptr %m_ref_count.i.i.i179, align 8
  %cmp.i.i.i180 = icmp eq i32 %dec.i.i.i, 0
  br i1 %cmp.i.i.i180, label %if.then.i.i.i181, label %_ZN3refI15model_converterED2Ev.exit

if.then.i.i.i181:                                 ; preds = %if.then.i.i178
  %vtable.i.i.i.i = load ptr, ptr %130, align 8
  %132 = load ptr, ptr %vtable.i.i.i.i, align 8
  call void %132(ptr noundef nonnull align 8 dereferenceable(12) %130) #14
  invoke void @_ZN6memory10deallocateEPv(ptr noundef nonnull %130)
          to label %_ZN3refI15model_converterED2Ev.exit unwind label %terminate.lpad.i182

terminate.lpad.i182:                              ; preds = %if.then.i.i.i181
  %133 = landingpad { ptr, i32 }
          catch ptr null
  %134 = extractvalue { ptr, i32 } %133, 0
  call void @__clang_call_terminate(ptr %134) #15
  unreachable

_ZN3refI15model_converterED2Ev.exit:              ; preds = %invoke.cont160, %if.then.i.i178, %if.then.i.i.i181
  %135 = load ptr, ptr %pc, align 8
  %tobool.not.i.i183 = icmp eq ptr %135, null
  br i1 %tobool.not.i.i183, label %_ZN3refI15proof_converterED2Ev.exit, label %if.then.i.i184

if.then.i.i184:                                   ; preds = %_ZN3refI15model_converterED2Ev.exit
  %m_ref_count.i.i.i185 = getelementptr inbounds %class.converter, ptr %135, i64 0, i32 1
  %136 = load i32, ptr %m_ref_count.i.i.i185, align 8
  %dec.i.i.i186 = add i32 %136, -1
  store i32 %dec.i.i.i186, ptr %m_ref_count.i.i.i185, align 8
  %cmp.i.i.i187 = icmp eq i32 %dec.i.i.i186, 0
  br i1 %cmp.i.i.i187, label %if.then.i.i.i188, label %_ZN3refI15proof_converterED2Ev.exit

if.then.i.i.i188:                                 ; preds = %if.then.i.i184
  %vtable.i.i.i.i189 = load ptr, ptr %135, align 8
  %137 = load ptr, ptr %vtable.i.i.i.i189, align 8
  call void %137(ptr noundef nonnull align 8 dereferenceable(12) %135) #14
  invoke void @_ZN6memory10deallocateEPv(ptr noundef nonnull %135)
          to label %_ZN3refI15proof_converterED2Ev.exit unwind label %terminate.lpad.i190

terminate.lpad.i190:                              ; preds = %if.then.i.i.i188
  %138 = landingpad { ptr, i32 }
          catch ptr null
  %139 = extractvalue { ptr, i32 } %138, 0
  call void @__clang_call_terminate(ptr %139) #15
  unreachable

_ZN3refI15proof_converterED2Ev.exit:              ; preds = %_ZN3refI15model_converterED2Ev.exit, %if.then.i.i184, %if.then.i.i.i188
  call void @_ZNSt7__cxx1118basic_stringstreamIcSt11char_traitsIcESaIcEED1Ev(ptr noundef nonnull align 8 dereferenceable(128) %msg) #14
  %140 = load ptr, ptr %m_nodes.i.i, align 8
  %cmp.i.i.i192 = icmp eq ptr %140, null
  br i1 %cmp.i.i.i192, label %_ZN10ref_vectorI4expr11ast_managerED2Ev.exit, label %_ZNK6vectorIP4exprLb0EjE4sizeEv.exit.i.i

_ZNK6vectorIP4exprLb0EjE4sizeEv.exit.i.i:         ; preds = %_ZN3refI15proof_converterED2Ev.exit
  %arrayidx.i.i.i193 = getelementptr inbounds i32, ptr %140, i64 -1
  %141 = load i32, ptr %arrayidx.i.i.i193, align 4
  %142 = zext i32 %141 to i64
  %add.ptr.i.i194 = getelementptr inbounds ptr, ptr %140, i64 %142
  %cmp3.i.not.i.i = icmp eq i32 %141, 0
  br i1 %cmp3.i.not.i.i, label %if.then.i.i.i.i.i198, label %for.body.i.i.i

for.body.i.i.i:                                   ; preds = %_ZNK6vectorIP4exprLb0EjE4sizeEv.exit.i.i, %_ZN15ref_vector_coreI4expr19ref_manager_wrapperIS0_11ast_managerEE7dec_refEPS0_.exit.i.i.i
  %it.04.i.i.i = phi ptr [ %incdec.ptr.i.i.i, %_ZN15ref_vector_coreI4expr19ref_manager_wrapperIS0_11ast_managerEE7dec_refEPS0_.exit.i.i.i ], [ %140, %_ZNK6vectorIP4exprLb0EjE4sizeEv.exit.i.i ]
  %143 = load ptr, ptr %it.04.i.i.i, align 8
  %144 = load ptr, ptr %queries, align 8
  %tobool.not.i.i.i.i.i.i = icmp eq ptr %143, null
  br i1 %tobool.not.i.i.i.i.i.i, label %_ZN15ref_vector_coreI4expr19ref_manager_wrapperIS0_11ast_managerEE7dec_refEPS0_.exit.i.i.i, label %if.then.i.i.i.i.i.i

if.then.i.i.i.i.i.i:                              ; preds = %for.body.i.i.i
  %m_ref_count.i.i.i.i.i.i.i195 = getelementptr inbounds %class.ast, ptr %143, i64 0, i32 2
  %145 = load i32, ptr %m_ref_count.i.i.i.i.i.i.i195, align 4
  %dec.i.i.i.i.i.i.i = add i32 %145, -1
  store i32 %dec.i.i.i.i.i.i.i, ptr %m_ref_count.i.i.i.i.i.i.i195, align 4
  %cmp.i.i.i.i.i.i = icmp eq i32 %dec.i.i.i.i.i.i.i, 0
  br i1 %cmp.i.i.i.i.i.i, label %if.then2.i.i.i.i.i.i, label %_ZN15ref_vector_coreI4expr19ref_manager_wrapperIS0_11ast_managerEE7dec_refEPS0_.exit.i.i.i

if.then2.i.i.i.i.i.i:                             ; preds = %if.then.i.i.i.i.i.i
  invoke void @_ZN11ast_manager11delete_nodeEP3ast(ptr noundef nonnull align 8 dereferenceable(976) %144, ptr noundef nonnull %143)
          to label %_ZN15ref_vector_coreI4expr19ref_manager_wrapperIS0_11ast_managerEE7dec_refEPS0_.exit.i.i.i unwind label %terminate.lpad.i.i

_ZN15ref_vector_coreI4expr19ref_manager_wrapperIS0_11ast_managerEE7dec_refEPS0_.exit.i.i.i: ; preds = %if.then2.i.i.i.i.i.i, %if.then.i.i.i.i.i.i, %for.body.i.i.i
  %incdec.ptr.i.i.i = getelementptr inbounds ptr, ptr %it.04.i.i.i, i64 1
  %cmp.i1.i.i = icmp ult ptr %incdec.ptr.i.i.i, %add.ptr.i.i194
  br i1 %cmp.i1.i.i, label %for.body.i.i.i, label %invoke.cont.i.i, !llvm.loop !12

invoke.cont.i.i:                                  ; preds = %_ZN15ref_vector_coreI4expr19ref_manager_wrapperIS0_11ast_managerEE7dec_refEPS0_.exit.i.i.i
  %.pre.i.i196 = load ptr, ptr %m_nodes.i.i, align 8
  %tobool.not.i.i.i.i.i197 = icmp eq ptr %.pre.i.i196, null
  br i1 %tobool.not.i.i.i.i.i197, label %_ZN10ref_vectorI4expr11ast_managerED2Ev.exit, label %if.then.i.i.i.i.i198

if.then.i.i.i.i.i198:                             ; preds = %invoke.cont.i.i, %_ZNK6vectorIP4exprLb0EjE4sizeEv.exit.i.i
  %146 = phi ptr [ %.pre.i.i196, %invoke.cont.i.i ], [ %140, %_ZNK6vectorIP4exprLb0EjE4sizeEv.exit.i.i ]
  %add.ptr.i.i.i.i.i.i = getelementptr inbounds i32, ptr %146, i64 -2
  invoke void @_ZN6memory10deallocateEPv(ptr noundef nonnull %add.ptr.i.i.i.i.i.i)
          to label %_ZN10ref_vectorI4expr11ast_managerED2Ev.exit unwind label %terminate.lpad.i.i.i.i

terminate.lpad.i.i.i.i:                           ; preds = %if.then.i.i.i.i.i198
  %147 = landingpad { ptr, i32 }
          catch ptr null
  %148 = extractvalue { ptr, i32 } %147, 0
  call void @__clang_call_terminate(ptr %148) #15
  unreachable

terminate.lpad.i.i:                               ; preds = %if.then2.i.i.i.i.i.i
  %149 = landingpad { ptr, i32 }
          catch ptr null
  %150 = extractvalue { ptr, i32 } %149, 0
  call void @__clang_call_terminate(ptr %150) #15
  unreachable

_ZN10ref_vectorI4expr11ast_managerED2Ev.exit:     ; preds = %_ZN3refI15proof_converterED2Ev.exit, %invoke.cont.i.i, %if.then.i.i.i.i.i198
  %151 = load ptr, ptr %f, align 8
  %tobool.not.i.i199 = icmp eq ptr %151, null
  br i1 %tobool.not.i.i199, label %_ZN7obj_refI4expr11ast_managerED2Ev.exit207, label %if.then.i.i.i200

if.then.i.i.i200:                                 ; preds = %_ZN10ref_vectorI4expr11ast_managerED2Ev.exit
  %152 = load ptr, ptr %m_manager.i23, align 8
  %m_ref_count.i.i.i.i202 = getelementptr inbounds %class.ast, ptr %151, i64 0, i32 2
  %153 = load i32, ptr %m_ref_count.i.i.i.i202, align 4
  %dec.i.i.i.i203 = add i32 %153, -1
  store i32 %dec.i.i.i.i203, ptr %m_ref_count.i.i.i.i202, align 4
  %cmp.i.i.i204 = icmp eq i32 %dec.i.i.i.i203, 0
  br i1 %cmp.i.i.i204, label %if.then2.i.i.i205, label %_ZN7obj_refI4expr11ast_managerED2Ev.exit207

if.then2.i.i.i205:                                ; preds = %if.then.i.i.i200
  invoke void @_ZN11ast_manager11delete_nodeEP3ast(ptr noundef nonnull align 8 dereferenceable(976) %152, ptr noundef nonnull %151)
          to label %_ZN7obj_refI4expr11ast_managerED2Ev.exit207 unwind label %terminate.lpad.i206

terminate.lpad.i206:                              ; preds = %if.then2.i.i.i205
  %154 = landingpad { ptr, i32 }
          catch ptr null
  %155 = extractvalue { ptr, i32 } %154, 0
  call void @__clang_call_terminate(ptr %155) #15
  unreachable

_ZN7obj_refI4expr11ast_managerED2Ev.exit207:      ; preds = %_ZN10ref_vectorI4expr11ast_managerED2Ev.exit, %if.then.i.i.i200, %if.then2.i.i.i205
  %156 = load ptr, ptr %q, align 8
  %tobool.not.i.i208 = icmp eq ptr %156, null
  br i1 %tobool.not.i.i208, label %_ZN7obj_refI4expr11ast_managerED2Ev.exit216, label %if.then.i.i.i209

if.then.i.i.i209:                                 ; preds = %_ZN7obj_refI4expr11ast_managerED2Ev.exit207
  %157 = load ptr, ptr %m_manager.i, align 8
  %m_ref_count.i.i.i.i211 = getelementptr inbounds %class.ast, ptr %156, i64 0, i32 2
  %158 = load i32, ptr %m_ref_count.i.i.i.i211, align 4
  %dec.i.i.i.i212 = add i32 %158, -1
  store i32 %dec.i.i.i.i212, ptr %m_ref_count.i.i.i.i211, align 4
  %cmp.i.i.i213 = icmp eq i32 %dec.i.i.i.i212, 0
  br i1 %cmp.i.i.i213, label %if.then2.i.i.i214, label %_ZN7obj_refI4expr11ast_managerED2Ev.exit216

if.then2.i.i.i214:                                ; preds = %if.then.i.i.i209
  invoke void @_ZN11ast_manager11delete_nodeEP3ast(ptr noundef nonnull align 8 dereferenceable(976) %157, ptr noundef nonnull %156)
          to label %_ZN7obj_refI4expr11ast_managerED2Ev.exit216 unwind label %terminate.lpad.i215

terminate.lpad.i215:                              ; preds = %if.then2.i.i.i214
  %159 = landingpad { ptr, i32 }
          catch ptr null
  %160 = extractvalue { ptr, i32 } %159, 0
  call void @__clang_call_terminate(ptr %160) #15
  unreachable

_ZN7obj_refI4expr11ast_managerED2Ev.exit216:      ; preds = %_ZN7obj_refI4expr11ast_managerED2Ev.exit207, %if.then.i.i.i209, %if.then2.i.i.i214
  call void @_ZN13tactic_reportD1Ev(ptr noundef nonnull align 8 dereferenceable(8) %report) #14
  ret void

ehcleanup163:                                     ; preds = %lpad29.loopexit, %lpad29.loopexit.split-lp.loopexit.split-lp.loopexit, %lpad29.loopexit.split-lp.loopexit.split-lp.loopexit.split-lp, %lpad29.loopexit.split-lp.loopexit, %ehcleanup, %lpad.i.i, %cleanup.action, %lpad143, %lpad60
  %.pn.pn = phi { ptr, i32 } [ %50, %cleanup.action ], [ %49, %ehcleanup ], [ %48, %lpad60 ], [ %116, %lpad143 ], [ %95, %lpad.i.i ], [ %lpad.loopexit, %lpad29.loopexit ], [ %lpad.loopexit226, %lpad29.loopexit.split-lp.loopexit ], [ %lpad.loopexit229, %lpad29.loopexit.split-lp.loopexit.split-lp.loopexit ], [ %lpad.loopexit.split-lp, %lpad29.loopexit.split-lp.loopexit.split-lp.loopexit.split-lp ]
  call void @_ZNSt7__cxx1118basic_stringstreamIcSt11char_traitsIcESaIcEED1Ev(ptr noundef nonnull align 8 dereferenceable(128) %msg) #14
  br label %ehcleanup164

ehcleanup164:                                     ; preds = %ehcleanup163, %lpad27
  %.pn.pn.pn = phi { ptr, i32 } [ %.pn.pn, %ehcleanup163 ], [ %34, %lpad27 ]
  call void @_ZN10ref_vectorI4expr11ast_managerED2Ev(ptr noundef nonnull align 8 dereferenceable(16) %queries) #14
  call void @_ZN7obj_refI4expr11ast_managerED2Ev(ptr noundef nonnull align 8 dereferenceable(16) %f) #14
  call void @_ZN7obj_refI4expr11ast_managerED2Ev(ptr noundef nonnull align 8 dereferenceable(16) %q) #14
  br label %ehcleanup167

ehcleanup167:                                     ; preds = %ehcleanup164, %lpad12, %lpad
  %.pn.pn.pn.pn.pn = phi { ptr, i32 } [ %.pn.pn.pn, %ehcleanup164 ], [ %5, %lpad ], [ %6, %lpad12 ]
  call void @_ZN13tactic_reportD1Ev(ptr noundef nonnull align 8 dereferenceable(8) %report) #14
  resume { ptr, i32 } %.pn.pn.pn.pn.pn

unreachable:                                      ; preds = %invoke.cont67
  unreachable
}

declare void @_ZN13tactic_reportC1EPKcRK4goal(ptr noundef nonnull align 8 dereferenceable(8), ptr noundef, ptr noundef nonnull align 8 dereferenceable(124)) unnamed_addr #0

declare noundef zeroext i1 @_ZNK7datalog7context20generate_proof_traceEv(ptr noundef nonnull align 8 dereferenceable(3556)) local_unnamed_addr #0

declare void @_ZN10params_ref8set_boolEPKcb(ptr noundef nonnull align 8 dereferenceable(8), ptr noundef, i1 noundef zeroext) local_unnamed_addr #0

declare void @_ZNSt7__cxx1118basic_stringstreamIcSt11char_traitsIcESaIcEEC1Ev(ptr noundef nonnull align 8 dereferenceable(128)) unnamed_addr #0

; Function Attrs: mustprogress uwtable
define linkonce_odr hidden void @_ZN11horn_tactic3imp16check_parametersEv(ptr noundef nonnull align 8 dereferenceable(4432) %this) local_unnamed_addr #3 comdat align 2 {
entry:
  %ref.tmp.i = alloca %class.symbol, align 8
  %ref.tmp3 = alloca %class.symbol, align 8
  %m_params.i = getelementptr inbounds %"struct.horn_tactic::imp", ptr %this, i64 0, i32 3, i32 4
  %0 = load ptr, ptr %m_params.i, align 8
  call void @llvm.lifetime.start.p0(i64 8, ptr nonnull %ref.tmp.i)
  %1 = load ptr, ptr %0, align 8
  %g.i = getelementptr inbounds %struct.fp_params, ptr %0, i64 0, i32 1
  call void @_ZN6symbolC1EPKc(ptr noundef nonnull align 8 dereferenceable(8) %ref.tmp.i, ptr noundef nonnull @.str.22)
  %call.i = call ptr @_ZNK10params_ref7get_symEPKcRKS_RK6symbol(ptr noundef nonnull align 8 dereferenceable(8) %1, ptr noundef nonnull @.str.21, ptr noundef nonnull align 8 dereferenceable(8) %g.i, ptr noundef nonnull align 8 dereferenceable(8) %ref.tmp.i)
  call void @llvm.lifetime.end.p0(i64 8, ptr nonnull %ref.tmp.i)
  call void @_ZN6symbolC1EPKc(ptr noundef nonnull align 8 dereferenceable(8) %ref.tmp3, ptr noundef nonnull @.str.13)
  %2 = load ptr, ptr %ref.tmp3, align 8
  %cmp.i = icmp eq ptr %call.i, %2
  br i1 %cmp.i, label %if.then, label %if.end

if.then:                                          ; preds = %entry
  call void @_ZN11horn_tactic3imp13not_supportedEPKc(ptr noundef nonnull align 8 dereferenceable(4432) %this, ptr noundef nonnull @.str.14)
  br label %if.end

if.end:                                           ; preds = %if.then, %entry
  %3 = load ptr, ptr %0, align 8
  %call.i8 = call noundef zeroext i1 @_ZNK10params_ref8get_boolEPKcRKS_b(ptr noundef nonnull align 8 dereferenceable(8) %3, ptr noundef nonnull @.str.15, ptr noundef nonnull align 8 dereferenceable(8) %g.i, i1 noundef zeroext false)
  br i1 %call.i8, label %if.then6, label %if.end7

if.then6:                                         ; preds = %if.end
  call void @_ZN11horn_tactic3imp13not_supportedEPKc(ptr noundef nonnull align 8 dereferenceable(4432) %this, ptr noundef nonnull @.str.15)
  br label %if.end7

if.end7:                                          ; preds = %if.then6, %if.end
  %4 = load ptr, ptr %0, align 8
  %call.i10 = call noundef zeroext i1 @_ZNK10params_ref8get_boolEPKcRKS_b(ptr noundef nonnull align 8 dereferenceable(8) %4, ptr noundef nonnull @.str.16, ptr noundef nonnull align 8 dereferenceable(8) %g.i, i1 noundef zeroext false)
  br i1 %call.i10, label %if.then9, label %if.end10

if.then9:                                         ; preds = %if.end7
  call void @_ZN11horn_tactic3imp13not_supportedEPKc(ptr noundef nonnull align 8 dereferenceable(4432) %this, ptr noundef nonnull @.str.16)
  br label %if.end10

if.end10:                                         ; preds = %if.then9, %if.end7
  %5 = load ptr, ptr %0, align 8
  %call.i12 = call noundef zeroext i1 @_ZNK10params_ref8get_boolEPKcRKS_b(ptr noundef nonnull align 8 dereferenceable(8) %5, ptr noundef nonnull @.str.17, ptr noundef nonnull align 8 dereferenceable(8) %g.i, i1 noundef zeroext false)
  br i1 %call.i12, label %if.then12, label %if.end13

if.then12:                                        ; preds = %if.end10
  call void @_ZN11horn_tactic3imp13not_supportedEPKc(ptr noundef nonnull align 8 dereferenceable(4432) %this, ptr noundef nonnull @.str.17)
  br label %if.end13

if.end13:                                         ; preds = %if.then12, %if.end10
  %6 = load ptr, ptr %0, align 8
  %call.i14 = call noundef zeroext i1 @_ZNK10params_ref8get_boolEPKcRKS_b(ptr noundef nonnull align 8 dereferenceable(8) %6, ptr noundef nonnull @.str.18, ptr noundef nonnull align 8 dereferenceable(8) %g.i, i1 noundef zeroext false)
  br i1 %call.i14, label %if.then15, label %if.end16

if.then15:                                        ; preds = %if.end13
  call void @_ZN11horn_tactic3imp13not_supportedEPKc(ptr noundef nonnull align 8 dereferenceable(4432) %this, ptr noundef nonnull @.str.18)
  br label %if.end16

if.end16:                                         ; preds = %if.then15, %if.end13
  %7 = load ptr, ptr %0, align 8
  %call.i16 = call noundef zeroext i1 @_ZNK10params_ref8get_boolEPKcRKS_b(ptr noundef nonnull align 8 dereferenceable(8) %7, ptr noundef nonnull @.str.19, ptr noundef nonnull align 8 dereferenceable(8) %g.i, i1 noundef zeroext false)
  br i1 %call.i16, label %if.then18, label %if.end19

if.then18:                                        ; preds = %if.end16
  call void @_ZN11horn_tactic3imp13not_supportedEPKc(ptr noundef nonnull align 8 dereferenceable(4432) %this, ptr noundef nonnull @.str.19)
  br label %if.end19

if.end19:                                         ; preds = %if.then18, %if.end16
  %8 = load ptr, ptr %0, align 8
  %call.i18 = call noundef zeroext i1 @_ZNK10params_ref8get_boolEPKcRKS_b(ptr noundef nonnull align 8 dereferenceable(8) %8, ptr noundef nonnull @.str.20, ptr noundef nonnull align 8 dereferenceable(8) %g.i, i1 noundef zeroext false)
  br i1 %call.i18, label %if.then21, label %if.end22

if.then21:                                        ; preds = %if.end19
  call void @_ZN11horn_tactic3imp13not_supportedEPKc(ptr noundef nonnull align 8 dereferenceable(4432) %this, ptr noundef nonnull @.str.20)
  br label %if.end22

if.end22:                                         ; preds = %if.then21, %if.end19
  ret void
}

declare void @_ZN7datalog7context5resetEv(ptr noundef nonnull align 8 dereferenceable(3556)) local_unnamed_addr #0

declare void @_ZN7datalog7context13ensure_openedEv(ptr noundef nonnull align 8 dereferenceable(3556)) local_unnamed_addr #0

; Function Attrs: mustprogress uwtable
define linkonce_odr hidden noundef ptr @_ZNK4goal4formEj(ptr noundef nonnull align 8 dereferenceable(124) %this, i32 noundef %i) local_unnamed_addr #3 comdat align 2 {
entry:
  %m_inconsistent.i = getelementptr inbounds %class.goal, ptr %this, i64 0, i32 10
  %bf.load.i = load i32, ptr %m_inconsistent.i, align 8
  %0 = and i32 %bf.load.i, 536870912
  %tobool.i.not = icmp eq i32 %0, 0
  %1 = load ptr, ptr %this, align 8
  br i1 %tobool.i.not, label %cond.false, label %cond.true

cond.true:                                        ; preds = %entry
  %m_false.i = getelementptr inbounds %class.ast_manager, ptr %1, i64 0, i32 16
  br label %cond.end

cond.false:                                       ; preds = %entry
  %m_forms = getelementptr inbounds %class.goal, ptr %this, i64 0, i32 7
  %m_expr_array_manager.i = getelementptr inbounds %class.ast_manager, ptr %1, i64 0, i32 3
  br label %if.end.i.i

if.then.i.i:                                      ; preds = %sw.epilog.i.i
  tail call void @_ZN14parray_managerIN11ast_manager17expr_array_configEE6rerootERNS2_3refE(ptr noundef nonnull align 8 dereferenceable(32) %m_expr_array_manager.i, ptr noundef nonnull align 8 dereferenceable(12) %m_forms)
  %2 = load ptr, ptr %m_forms, align 8
  %3 = getelementptr inbounds %"struct.parray_manager<ast_manager::expr_array_config>::cell", ptr %2, i64 0, i32 3
  %4 = load ptr, ptr %3, align 8
  %idxprom.i.i = zext i32 %i to i64
  %arrayidx.i.i = getelementptr inbounds ptr, ptr %4, i64 %idxprom.i.i
  br label %cond.end

if.end.i.i:                                       ; preds = %sw.epilog.i.i, %cond.false
  %c.017.in.i.i = phi ptr [ %m_forms, %cond.false ], [ %c.1.in.i.i, %sw.epilog.i.i ]
  %trail_sz.016.i.i = phi i32 [ 0, %cond.false ], [ %trail_sz.1.i.i, %sw.epilog.i.i ]
  %c.017.i.i = load ptr, ptr %c.017.in.i.i, align 8
  %bf.load.i.i.i = load i32, ptr %c.017.i.i, align 8
  %bf.lshr.i.i.i = lshr i32 %bf.load.i.i.i, 30
  switch i32 %bf.lshr.i.i.i, label %if.end.unreachabledefault.i.i [
    i32 0, label %sw.bb.i.i
    i32 1, label %sw.bb.i.i
    i32 2, label %sw.epilog.i.i
    i32 3, label %sw.bb12.i.i
  ]

sw.bb.i.i:                                        ; preds = %if.end.i.i, %if.end.i.i
  %5 = getelementptr inbounds %"struct.parray_manager<ast_manager::expr_array_config>::cell", ptr %c.017.i.i, i64 0, i32 1
  %6 = load i32, ptr %5, align 4
  %cmp4.i.i = icmp eq i32 %6, %i
  br i1 %cmp4.i.i, label %if.then5.i.i, label %sw.epilog.i.i

if.then5.i.i:                                     ; preds = %sw.bb.i.i
  %m_elem.i.i.i = getelementptr inbounds %"struct.parray_manager<ast_manager::expr_array_config>::cell", ptr %c.017.i.i, i64 0, i32 2
  br label %cond.end

sw.bb12.i.i:                                      ; preds = %if.end.i.i
  %7 = getelementptr inbounds %"struct.parray_manager<ast_manager::expr_array_config>::cell", ptr %c.017.i.i, i64 0, i32 3
  %8 = load ptr, ptr %7, align 8
  %idxprom13.i.i = zext i32 %i to i64
  %arrayidx14.i.i = getelementptr inbounds ptr, ptr %8, i64 %idxprom13.i.i
  br label %cond.end

if.end.unreachabledefault.i.i:                    ; preds = %if.end.i.i
  unreachable

sw.epilog.i.i:                                    ; preds = %sw.bb.i.i, %if.end.i.i
  %c.1.in.i.i = getelementptr inbounds %"struct.parray_manager<ast_manager::expr_array_config>::cell", ptr %c.017.i.i, i64 0, i32 3
  %trail_sz.1.i.i = add nuw nsw i32 %trail_sz.016.i.i, 1
  %exitcond.i.i = icmp eq i32 %trail_sz.1.i.i, 17
  br i1 %exitcond.i.i, label %if.then.i.i, label %if.end.i.i, !llvm.loop !6

cond.end:                                         ; preds = %sw.bb12.i.i, %if.then5.i.i, %if.then.i.i, %cond.true
  %cond.in = phi ptr [ %m_false.i, %cond.true ], [ %arrayidx.i.i, %if.then.i.i ], [ %arrayidx14.i.i, %sw.bb12.i.i ], [ %m_elem.i.i.i, %if.then5.i.i ]
  %cond = load ptr, ptr %cond.in, align 8
  ret ptr %cond
}

; Function Attrs: mustprogress uwtable
define linkonce_odr hidden noundef i32 @_ZN11horn_tactic3imp16get_formula_kindER7obj_refI4expr11ast_managerE(ptr noundef nonnull align 8 dereferenceable(4432) %this, ptr noundef nonnull align 8 dereferenceable(16) %f) local_unnamed_addr #3 comdat align 2 personality ptr @__gxx_personality_v0 {
entry:
  %tmp = alloca %class.obj_ref, align 8
  %mark = alloca %class.ast_mark, align 8
  %args = alloca %class.ref_vector, align 8
  %body = alloca %class.ref_vector, align 8
  %head = alloca %class.obj_ref, align 8
  %0 = load ptr, ptr %f, align 8
  store ptr %0, ptr %tmp, align 8
  %m_manager.i = getelementptr inbounds %class.obj_ref, ptr %tmp, i64 0, i32 1
  %m_manager3.i = getelementptr inbounds %class.obj_ref, ptr %f, i64 0, i32 1
  %1 = load ptr, ptr %m_manager3.i, align 8
  store ptr %1, ptr %m_manager.i, align 8
  %tobool.not.i.i = icmp eq ptr %0, null
  br i1 %tobool.not.i.i, label %_ZN7obj_refI4expr11ast_managerEC2ERKS2_.exit, label %_ZN11ast_manager7inc_refEP3ast.exit.i.i

_ZN11ast_manager7inc_refEP3ast.exit.i.i:          ; preds = %entry
  %m_ref_count.i.i.i.i = getelementptr inbounds %class.ast, ptr %0, i64 0, i32 2
  %2 = load i32, ptr %m_ref_count.i.i.i.i, align 4
  %inc.i.i.i.i = add i32 %2, 1
  store i32 %inc.i.i.i.i, ptr %m_ref_count.i.i.i.i, align 4
  br label %_ZN7obj_refI4expr11ast_managerEC2ERKS2_.exit

_ZN7obj_refI4expr11ast_managerEC2ERKS2_.exit:     ; preds = %entry, %_ZN11ast_manager7inc_refEP3ast.exit.i.i
  invoke void @_ZN11horn_tactic3imp9normalizeER7obj_refI4expr11ast_managerE(ptr noundef nonnull align 8 dereferenceable(4432) %this, ptr noundef nonnull align 8 dereferenceable(16) %tmp)
          to label %invoke.cont7 unwind label %lpad

invoke.cont7:                                     ; preds = %_ZN7obj_refI4expr11ast_managerEC2ERKS2_.exit
  store ptr getelementptr inbounds ({ [6 x ptr] }, ptr @_ZTV8ast_mark, i64 0, inrange i32 0, i64 2), ptr %mark, align 8
  %m_marks.i.i = getelementptr inbounds %class.ast_mark, ptr %mark, i64 0, i32 1, i32 1
  call void @llvm.memset.p0.i64(ptr noundef nonnull align 8 dereferenceable(16) %m_marks.i.i, i8 0, i64 16, i1 false)
  %m_marks.i1.i = getelementptr inbounds %class.ast_mark, ptr %mark, i64 0, i32 2, i32 1
  call void @llvm.memset.p0.i64(ptr noundef nonnull align 8 dereferenceable(16) %m_marks.i1.i, i8 0, i64 16, i1 false)
  %3 = load ptr, ptr %this, align 8
  %4 = ptrtoint ptr %3 to i64
  store i64 %4, ptr %args, align 8
  %m_nodes.i.i = getelementptr inbounds %class.ref_vector_core, ptr %args, i64 0, i32 1
  store ptr null, ptr %m_nodes.i.i, align 8
  store i64 %4, ptr %body, align 8
  %m_nodes.i.i15 = getelementptr inbounds %class.ref_vector_core, ptr %body, i64 0, i32 1
  store ptr null, ptr %m_nodes.i.i15, align 8
  store ptr null, ptr %head, align 8
  %m_manager.i16 = getelementptr inbounds %class.obj_ref, ptr %head, i64 0, i32 1
  store ptr %3, ptr %m_manager.i16, align 8
  %5 = load ptr, ptr %tmp, align 8
  invoke void @_Z10flatten_orP4exprR10ref_vectorIS_11ast_managerE(ptr noundef %5, ptr noundef nonnull align 8 dereferenceable(16) %args)
          to label %for.cond unwind label %lpad11.loopexit.split-lp

for.cond:                                         ; preds = %invoke.cont7, %for.inc
  %6 = phi ptr [ %39, %for.inc ], [ null, %invoke.cont7 ]
  %indvars.iv = phi i64 [ %indvars.iv.next, %for.inc ], [ 0, %invoke.cont7 ]
  %7 = load ptr, ptr %m_nodes.i.i, align 8
  %cmp.i.i = icmp eq ptr %7, null
  br i1 %cmp.i.i, label %_ZNK15ref_vector_coreI4expr19ref_manager_wrapperIS0_11ast_managerEE4sizeEv.exit, label %if.end.i.i

if.end.i.i:                                       ; preds = %for.cond
  %arrayidx.i.i = getelementptr inbounds i32, ptr %7, i64 -1
  %8 = load i32, ptr %arrayidx.i.i, align 4
  br label %_ZNK15ref_vector_coreI4expr19ref_manager_wrapperIS0_11ast_managerEE4sizeEv.exit

_ZNK15ref_vector_coreI4expr19ref_manager_wrapperIS0_11ast_managerEE4sizeEv.exit: ; preds = %for.cond, %if.end.i.i
  %retval.0.i.i = phi i32 [ %8, %if.end.i.i ], [ 0, %for.cond ]
  %9 = zext i32 %retval.0.i.i to i64
  %cmp = icmp ult i64 %indvars.iv, %9
  br i1 %cmp, label %invoke.cont16, label %for.end

invoke.cont16:                                    ; preds = %_ZNK15ref_vector_coreI4expr19ref_manager_wrapperIS0_11ast_managerEE4sizeEv.exit
  %arrayidx.i.i18 = getelementptr inbounds ptr, ptr %7, i64 %indvars.iv
  %10 = load ptr, ptr %arrayidx.i.i18, align 8
  invoke void @_ZN11horn_tactic3imp15check_predicateER8ast_markP4expr(ptr noundef nonnull align 8 dereferenceable(4432) %this, ptr noundef nonnull align 8 dereferenceable(56) %mark, ptr noundef %10)
          to label %invoke.cont20 unwind label %lpad11.loopexit

invoke.cont20:                                    ; preds = %invoke.cont16
  %m_kind.i.i.i.i = getelementptr inbounds %class.ast, ptr %10, i64 0, i32 1
  %bf.load.i.i.i.i = load i32, ptr %m_kind.i.i.i.i, align 4
  %bf.clear.i.i.i.i = and i32 %bf.load.i.i.i.i, 65535
  %cmp.i.i.i = icmp eq i32 %bf.clear.i.i.i.i, 0
  br i1 %cmp.i.i.i, label %land.rhs.i.i.i, label %if.else34

land.rhs.i.i.i:                                   ; preds = %invoke.cont20
  %m_decl.i.i.i.i = getelementptr inbounds %class.app, ptr %10, i64 0, i32 1
  %11 = load ptr, ptr %m_decl.i.i.i.i, align 8
  %m_info.i.i.i.i.i = getelementptr inbounds %class.decl, ptr %11, i64 0, i32 2
  %12 = load ptr, ptr %m_info.i.i.i.i.i, align 8
  %tobool.not.i.i.i.i.i = icmp eq ptr %12, null
  br i1 %tobool.not.i.i.i.i.i, label %if.then28, label %_ZNK11ast_manager6is_notEPK4expr.exit.i

_ZNK11ast_manager6is_notEPK4expr.exit.i:          ; preds = %land.rhs.i.i.i
  %13 = load i32, ptr %12, align 8
  %cmp.i.i.i.i.i.i = icmp eq i32 %13, 0
  %m_kind.i.i.i.i.i.i = getelementptr inbounds %class.decl_info, ptr %12, i64 0, i32 1
  %14 = load i32, ptr %m_kind.i.i.i.i.i.i, align 4
  %cmp2.i.i.i.i.i.i = icmp eq i32 %14, 8
  %15 = select i1 %cmp.i.i.i.i.i.i, i1 %cmp2.i.i.i.i.i.i, i1 false
  br i1 %15, label %land.lhs.true.i, label %invoke.cont26

land.lhs.true.i:                                  ; preds = %_ZNK11ast_manager6is_notEPK4expr.exit.i
  %m_num_args.i.i = getelementptr inbounds %class.app, ptr %10, i64 0, i32 2
  %16 = load i32, ptr %m_num_args.i.i, align 8
  %cmp.i = icmp eq i32 %16, 1
  br i1 %cmp.i, label %if.then, label %invoke.cont26

if.then:                                          ; preds = %land.lhs.true.i
  %arrayidx.i.i19 = getelementptr inbounds %class.app, ptr %10, i64 0, i32 3, i64 0
  %17 = load ptr, ptr %arrayidx.i.i19, align 8
  %tobool.not.i.i.i.i = icmp eq ptr %17, null
  br i1 %tobool.not.i.i.i.i, label %_ZN15ref_vector_coreI4expr19ref_manager_wrapperIS0_11ast_managerEE7inc_refEPS0_.exit.i, label %if.then.i.i.i.i

if.then.i.i.i.i:                                  ; preds = %if.then
  %m_ref_count.i.i.i.i.i = getelementptr inbounds %class.ast, ptr %17, i64 0, i32 2
  %18 = load i32, ptr %m_ref_count.i.i.i.i.i, align 4
  %inc.i.i.i.i.i = add i32 %18, 1
  store i32 %inc.i.i.i.i.i, ptr %m_ref_count.i.i.i.i.i, align 4
  br label %_ZN15ref_vector_coreI4expr19ref_manager_wrapperIS0_11ast_managerEE7inc_refEPS0_.exit.i

_ZN15ref_vector_coreI4expr19ref_manager_wrapperIS0_11ast_managerEE7inc_refEPS0_.exit.i: ; preds = %if.then.i.i.i.i, %if.then
  %19 = load ptr, ptr %m_nodes.i.i15, align 8
  %cmp.i.i21 = icmp eq ptr %19, null
  br i1 %cmp.i.i21, label %if.then.i.i, label %lor.lhs.false.i.i

lor.lhs.false.i.i:                                ; preds = %_ZN15ref_vector_coreI4expr19ref_manager_wrapperIS0_11ast_managerEE7inc_refEPS0_.exit.i
  %arrayidx.i.i22 = getelementptr inbounds i32, ptr %19, i64 -1
  %20 = load i32, ptr %arrayidx.i.i22, align 4
  %arrayidx4.i.i = getelementptr inbounds i32, ptr %19, i64 -2
  %21 = load i32, ptr %arrayidx4.i.i, align 4
  %cmp5.i.i = icmp eq i32 %20, %21
  br i1 %cmp5.i.i, label %if.then.i.i, label %_ZN15ref_vector_coreI4expr19ref_manager_wrapperIS0_11ast_managerEE9push_backEPS0_.exit

if.then.i.i:                                      ; preds = %lor.lhs.false.i.i, %_ZN15ref_vector_coreI4expr19ref_manager_wrapperIS0_11ast_managerEE7inc_refEPS0_.exit.i
  invoke void @_ZN6vectorIP4exprLb0EjE13expand_vectorEv(ptr noundef nonnull align 8 dereferenceable(8) %m_nodes.i.i15)
          to label %.noexc unwind label %lpad11.loopexit

.noexc:                                           ; preds = %if.then.i.i
  %.pre.i.i = load ptr, ptr %m_nodes.i.i15, align 8
  %arrayidx8.phi.trans.insert.i.i = getelementptr inbounds i32, ptr %.pre.i.i, i64 -1
  %.pre1.i.i = load i32, ptr %arrayidx8.phi.trans.insert.i.i, align 4
  br label %_ZN15ref_vector_coreI4expr19ref_manager_wrapperIS0_11ast_managerEE9push_backEPS0_.exit

_ZN15ref_vector_coreI4expr19ref_manager_wrapperIS0_11ast_managerEE9push_backEPS0_.exit: ; preds = %lor.lhs.false.i.i, %.noexc
  %22 = phi i32 [ %.pre1.i.i, %.noexc ], [ %20, %lor.lhs.false.i.i ]
  %23 = phi ptr [ %.pre.i.i, %.noexc ], [ %19, %lor.lhs.false.i.i ]
  %idx.ext.i.i = zext i32 %22 to i64
  %add.ptr.i.i = getelementptr inbounds ptr, ptr %23, i64 %idx.ext.i.i
  store ptr %17, ptr %add.ptr.i.i, align 8
  %24 = load ptr, ptr %m_nodes.i.i15, align 8
  %arrayidx10.i.i = getelementptr inbounds i32, ptr %24, i64 -1
  %25 = load i32, ptr %arrayidx10.i.i, align 4
  %inc.i.i = add i32 %25, 1
  store i32 %inc.i.i, ptr %arrayidx10.i.i, align 4
  br label %for.inc

lpad:                                             ; preds = %_ZN7obj_refI4expr11ast_managerEC2ERKS2_.exit
  %26 = landingpad { ptr, i32 }
          cleanup
  br label %ehcleanup85

lpad11.loopexit:                                  ; preds = %invoke.cont16, %if.then.i.i, %if.else34, %if.then.i.i44
  %lpad.loopexit = landingpad { ptr, i32 }
          cleanup
  br label %lpad11

lpad11.loopexit.split-lp:                         ; preds = %invoke.cont7, %invoke.cont53, %if.then2.i.i.i76, %invoke.cont57, %if.then2.i.i.i91, %invoke.cont73, %if.then2.i.i.i114
  %lpad.loopexit.split-lp = landingpad { ptr, i32 }
          cleanup
  br label %lpad11

lpad11:                                           ; preds = %lpad11.loopexit.split-lp, %lpad11.loopexit
  %lpad.phi = phi { ptr, i32 } [ %lpad.loopexit, %lpad11.loopexit ], [ %lpad.loopexit.split-lp, %lpad11.loopexit.split-lp ]
  call void @_ZN7obj_refI4expr11ast_managerED2Ev(ptr noundef nonnull align 8 dereferenceable(16) %head) #14
  call void @_ZN10ref_vectorI4expr11ast_managerED2Ev(ptr noundef nonnull align 8 dereferenceable(16) %body) #14
  call void @_ZN10ref_vectorI4expr11ast_managerED2Ev(ptr noundef nonnull align 8 dereferenceable(16) %args) #14
  call void @_ZN8ast_markD2Ev(ptr noundef nonnull align 8 dereferenceable(56) %mark) #14
  br label %ehcleanup85

invoke.cont26:                                    ; preds = %land.lhs.true.i, %_ZNK11ast_manager6is_notEPK4expr.exit.i
  %27 = load i32, ptr %12, align 8
  %28 = icmp eq i32 %27, -1
  br i1 %28, label %if.then28, label %if.else34

if.then28:                                        ; preds = %land.rhs.i.i.i, %invoke.cont26
  %cmp.i24.not = icmp eq ptr %6, null
  br i1 %cmp.i24.not, label %_ZN7obj_refI4expr11ast_managerEaSEPS0_.exit, label %if.then.i.i.i118

_ZN7obj_refI4expr11ast_managerEaSEPS0_.exit:      ; preds = %if.then28
  %m_ref_count.i.i.i = getelementptr inbounds %class.ast, ptr %10, i64 0, i32 2
  %29 = load i32, ptr %m_ref_count.i.i.i, align 4
  %inc.i.i.i = add i32 %29, 1
  store i32 %inc.i.i.i, ptr %m_ref_count.i.i.i, align 4
  store ptr %10, ptr %head, align 8
  br label %for.inc

if.else34:                                        ; preds = %invoke.cont20, %invoke.cont26
  %30 = load ptr, ptr %this, align 8
  %call.i28 = invoke noundef ptr @_ZN11ast_manager6mk_appEiiP4expr(ptr noundef nonnull align 8 dereferenceable(976) %30, i32 noundef 0, i32 noundef 8, ptr noundef nonnull %10)
          to label %invoke.cont36 unwind label %lpad11.loopexit

invoke.cont36:                                    ; preds = %if.else34
  %tobool.not.i.i.i.i29 = icmp eq ptr %call.i28, null
  br i1 %tobool.not.i.i.i.i29, label %_ZN15ref_vector_coreI4expr19ref_manager_wrapperIS0_11ast_managerEE7inc_refEPS0_.exit.i33, label %if.then.i.i.i.i30

if.then.i.i.i.i30:                                ; preds = %invoke.cont36
  %m_ref_count.i.i.i.i.i31 = getelementptr inbounds %class.ast, ptr %call.i28, i64 0, i32 2
  %31 = load i32, ptr %m_ref_count.i.i.i.i.i31, align 4
  %inc.i.i.i.i.i32 = add i32 %31, 1
  store i32 %inc.i.i.i.i.i32, ptr %m_ref_count.i.i.i.i.i31, align 4
  br label %_ZN15ref_vector_coreI4expr19ref_manager_wrapperIS0_11ast_managerEE7inc_refEPS0_.exit.i33

_ZN15ref_vector_coreI4expr19ref_manager_wrapperIS0_11ast_managerEE7inc_refEPS0_.exit.i33: ; preds = %if.then.i.i.i.i30, %invoke.cont36
  %32 = load ptr, ptr %m_nodes.i.i15, align 8
  %cmp.i.i35 = icmp eq ptr %32, null
  br i1 %cmp.i.i35, label %if.then.i.i44, label %lor.lhs.false.i.i36

lor.lhs.false.i.i36:                              ; preds = %_ZN15ref_vector_coreI4expr19ref_manager_wrapperIS0_11ast_managerEE7inc_refEPS0_.exit.i33
  %arrayidx.i.i37 = getelementptr inbounds i32, ptr %32, i64 -1
  %33 = load i32, ptr %arrayidx.i.i37, align 4
  %arrayidx4.i.i38 = getelementptr inbounds i32, ptr %32, i64 -2
  %34 = load i32, ptr %arrayidx4.i.i38, align 4
  %cmp5.i.i39 = icmp eq i32 %33, %34
  br i1 %cmp5.i.i39, label %if.then.i.i44, label %_ZN15ref_vector_coreI4expr19ref_manager_wrapperIS0_11ast_managerEE9push_backEPS0_.exit49

if.then.i.i44:                                    ; preds = %lor.lhs.false.i.i36, %_ZN15ref_vector_coreI4expr19ref_manager_wrapperIS0_11ast_managerEE7inc_refEPS0_.exit.i33
  invoke void @_ZN6vectorIP4exprLb0EjE13expand_vectorEv(ptr noundef nonnull align 8 dereferenceable(8) %m_nodes.i.i15)
          to label %.noexc48 unwind label %lpad11.loopexit

.noexc48:                                         ; preds = %if.then.i.i44
  %.pre.i.i45 = load ptr, ptr %m_nodes.i.i15, align 8
  %arrayidx8.phi.trans.insert.i.i46 = getelementptr inbounds i32, ptr %.pre.i.i45, i64 -1
  %.pre1.i.i47 = load i32, ptr %arrayidx8.phi.trans.insert.i.i46, align 4
  br label %_ZN15ref_vector_coreI4expr19ref_manager_wrapperIS0_11ast_managerEE9push_backEPS0_.exit49

_ZN15ref_vector_coreI4expr19ref_manager_wrapperIS0_11ast_managerEE9push_backEPS0_.exit49: ; preds = %lor.lhs.false.i.i36, %.noexc48
  %35 = phi i32 [ %.pre1.i.i47, %.noexc48 ], [ %33, %lor.lhs.false.i.i36 ]
  %36 = phi ptr [ %.pre.i.i45, %.noexc48 ], [ %32, %lor.lhs.false.i.i36 ]
  %idx.ext.i.i40 = zext i32 %35 to i64
  %add.ptr.i.i41 = getelementptr inbounds ptr, ptr %36, i64 %idx.ext.i.i40
  store ptr %call.i28, ptr %add.ptr.i.i41, align 8
  %37 = load ptr, ptr %m_nodes.i.i15, align 8
  %arrayidx10.i.i42 = getelementptr inbounds i32, ptr %37, i64 -1
  %38 = load i32, ptr %arrayidx10.i.i42, align 4
  %inc.i.i43 = add i32 %38, 1
  store i32 %inc.i.i43, ptr %arrayidx10.i.i42, align 4
  br label %for.inc

for.inc:                                          ; preds = %_ZN15ref_vector_coreI4expr19ref_manager_wrapperIS0_11ast_managerEE9push_backEPS0_.exit49, %_ZN7obj_refI4expr11ast_managerEaSEPS0_.exit, %_ZN15ref_vector_coreI4expr19ref_manager_wrapperIS0_11ast_managerEE9push_backEPS0_.exit
  %39 = phi ptr [ %6, %_ZN15ref_vector_coreI4expr19ref_manager_wrapperIS0_11ast_managerEE9push_backEPS0_.exit49 ], [ %10, %_ZN7obj_refI4expr11ast_managerEaSEPS0_.exit ], [ %6, %_ZN15ref_vector_coreI4expr19ref_manager_wrapperIS0_11ast_managerEE9push_backEPS0_.exit ]
  %indvars.iv.next = add nuw nsw i64 %indvars.iv, 1
  br label %for.cond, !llvm.loop !13

for.end:                                          ; preds = %_ZNK15ref_vector_coreI4expr19ref_manager_wrapperIS0_11ast_managerEE4sizeEv.exit
  %cmp.i50.not = icmp eq ptr %6, null
  br i1 %cmp.i50.not, label %if.else69, label %if.then44

if.then44:                                        ; preds = %for.end
  %40 = load ptr, ptr %f, align 8
  %m_kind.i.i.i12.i = getelementptr inbounds %class.ast, ptr %40, i64 0, i32 1
  %bf.load.i.i.i13.i = load i32, ptr %m_kind.i.i.i12.i, align 4
  %bf.clear.i.i.i14.i = and i32 %bf.load.i.i.i13.i, 65535
  %cmp.i.i15.i = icmp eq i32 %bf.clear.i.i.i14.i, 2
  br i1 %cmp.i.i15.i, label %land.rhs.i.i.preheader, label %while.cond4.preheader.i

land.rhs.i.i.preheader:                           ; preds = %if.then44
  %m_kind.i.i.i51176 = getelementptr inbounds %class.quantifier, ptr %40, i64 0, i32 1
  %41 = load i32, ptr %m_kind.i.i.i51176, align 8
  %cmp.i.i52177 = icmp eq i32 %41, 0
  br i1 %cmp.i.i52177, label %while.body.i, label %while.cond4.preheader.i

while.cond4.preheader.i:                          ; preds = %land.rhs.i.i, %while.body.i, %land.rhs.i.i.preheader, %if.then44
  %bf.load.i.i.i.i19.i = phi i32 [ %bf.load.i.i.i13.i, %if.then44 ], [ %bf.load.i.i.i13.i, %land.rhs.i.i.preheader ], [ %bf.load.i.i.i.i54, %while.body.i ], [ %bf.load.i.i.i.i54, %land.rhs.i.i ]
  %storemerge.lcssa.i = phi ptr [ %40, %if.then44 ], [ %40, %land.rhs.i.i.preheader ], [ %43, %while.body.i ], [ %43, %land.rhs.i.i ]
  %bf.clear.i.i.i.i20.i = and i32 %bf.load.i.i.i.i19.i, 65535
  %cmp.i.i.i21.i = icmp eq i32 %bf.clear.i.i.i.i20.i, 0
  br i1 %cmp.i.i.i21.i, label %land.rhs.i.i.i.i, label %while.end7.i

land.rhs.i.i:                                     ; preds = %while.body.i
  %m_kind.i.i.i51 = getelementptr inbounds %class.quantifier, ptr %43, i64 0, i32 1
  %42 = load i32, ptr %m_kind.i.i.i51, align 8
  %cmp.i.i52 = icmp eq i32 %42, 0
  br i1 %cmp.i.i52, label %while.body.i, label %while.cond4.preheader.i, !llvm.loop !14

while.body.i:                                     ; preds = %land.rhs.i.i.preheader, %land.rhs.i.i
  %storemerge16.i178 = phi ptr [ %43, %land.rhs.i.i ], [ %40, %land.rhs.i.i.preheader ]
  %m_expr.i.i = getelementptr inbounds %class.quantifier, ptr %storemerge16.i178, i64 0, i32 3
  %43 = load ptr, ptr %m_expr.i.i, align 8
  %m_kind.i.i.i.i53 = getelementptr inbounds %class.ast, ptr %43, i64 0, i32 1
  %bf.load.i.i.i.i54 = load i32, ptr %m_kind.i.i.i.i53, align 4
  %bf.clear.i.i.i.i55 = and i32 %bf.load.i.i.i.i54, 65535
  %cmp.i.i.i56 = icmp eq i32 %bf.clear.i.i.i.i55, 2
  br i1 %cmp.i.i.i56, label %land.rhs.i.i, label %while.cond4.preheader.i, !llvm.loop !14

land.rhs.i.i.i.i:                                 ; preds = %while.cond4.preheader.i, %_ZNK11ast_manager10is_impliesEPK4exprRPS0_S4_.exit.i
  %f.addr.022.i = phi ptr [ %50, %_ZNK11ast_manager10is_impliesEPK4exprRPS0_S4_.exit.i ], [ %storemerge.lcssa.i, %while.cond4.preheader.i ]
  %m_decl.i.i.i.i.i = getelementptr inbounds %class.app, ptr %f.addr.022.i, i64 0, i32 1
  %44 = load ptr, ptr %m_decl.i.i.i.i.i, align 8
  %m_info.i.i.i.i.i.i = getelementptr inbounds %class.decl, ptr %44, i64 0, i32 2
  %45 = load ptr, ptr %m_info.i.i.i.i.i.i, align 8
  %tobool.not.i.i.i.i.i.i = icmp eq ptr %45, null
  br i1 %tobool.not.i.i.i.i.i.i, label %while.end7.loopexit.i, label %_ZNK11ast_manager10is_impliesEPK4expr.exit.i.i

_ZNK11ast_manager10is_impliesEPK4expr.exit.i.i:   ; preds = %land.rhs.i.i.i.i
  %46 = load i32, ptr %45, align 8
  %cmp.i.i.i.i.i.i.i = icmp eq i32 %46, 0
  %m_kind.i.i.i.i.i.i.i = getelementptr inbounds %class.decl_info, ptr %45, i64 0, i32 1
  %47 = load i32, ptr %m_kind.i.i.i.i.i.i.i, align 4
  %cmp2.i.i.i.i.i.i.i = icmp eq i32 %47, 9
  %48 = select i1 %cmp.i.i.i.i.i.i.i, i1 %cmp2.i.i.i.i.i.i.i, i1 false
  br i1 %48, label %land.lhs.true.i.i, label %while.end7.loopexit.i

land.lhs.true.i.i:                                ; preds = %_ZNK11ast_manager10is_impliesEPK4expr.exit.i.i
  %m_num_args.i.i.i = getelementptr inbounds %class.app, ptr %f.addr.022.i, i64 0, i32 2
  %49 = load i32, ptr %m_num_args.i.i.i, align 8
  %cmp.i1.i = icmp eq i32 %49, 2
  br i1 %cmp.i1.i, label %_ZNK11ast_manager10is_impliesEPK4exprRPS0_S4_.exit.i, label %while.end7.loopexit.i

_ZNK11ast_manager10is_impliesEPK4exprRPS0_S4_.exit.i: ; preds = %land.lhs.true.i.i
  %arrayidx.i4.i.i = getelementptr inbounds %class.app, ptr %f.addr.022.i, i64 0, i32 3, i64 1
  %50 = load ptr, ptr %arrayidx.i4.i.i, align 8
  %m_kind.i.i.i.i.i = getelementptr inbounds %class.ast, ptr %50, i64 0, i32 1
  %bf.load.i.i.i.i.i = load i32, ptr %m_kind.i.i.i.i.i, align 4
  %bf.clear.i.i.i.i.i = and i32 %bf.load.i.i.i.i.i, 65535
  %cmp.i.i.i.i = icmp eq i32 %bf.clear.i.i.i.i.i, 0
  br i1 %cmp.i.i.i.i, label %land.rhs.i.i.i.i, label %while.end7.loopexit.i, !llvm.loop !15

while.end7.loopexit.i:                            ; preds = %_ZNK11ast_manager10is_impliesEPK4exprRPS0_S4_.exit.i, %land.lhs.true.i.i, %_ZNK11ast_manager10is_impliesEPK4expr.exit.i.i, %land.rhs.i.i.i.i
  %f.addr.0.lcssa.ph.i = phi ptr [ %f.addr.022.i, %land.rhs.i.i.i.i ], [ %50, %_ZNK11ast_manager10is_impliesEPK4exprRPS0_S4_.exit.i ], [ %f.addr.022.i, %_ZNK11ast_manager10is_impliesEPK4expr.exit.i.i ], [ %f.addr.022.i, %land.lhs.true.i.i ]
  %m_kind.i.i.i2.phi.trans.insert.i = getelementptr inbounds %class.ast, ptr %f.addr.0.lcssa.ph.i, i64 0, i32 1
  %bf.load.i.i.i3.pre.i = load i32, ptr %m_kind.i.i.i2.phi.trans.insert.i, align 4
  br label %while.end7.i

while.end7.i:                                     ; preds = %while.end7.loopexit.i, %while.cond4.preheader.i
  %bf.load.i.i.i3.i = phi i32 [ %bf.load.i.i.i.i19.i, %while.cond4.preheader.i ], [ %bf.load.i.i.i3.pre.i, %while.end7.loopexit.i ]
  %f.addr.0.lcssa.i = phi ptr [ %storemerge.lcssa.i, %while.cond4.preheader.i ], [ %f.addr.0.lcssa.ph.i, %while.end7.loopexit.i ]
  %bf.clear.i.i.i4.i = and i32 %bf.load.i.i.i3.i, 65535
  %cmp.i.i5.i = icmp eq i32 %bf.clear.i.i.i4.i, 0
  br i1 %cmp.i.i5.i, label %land.rhs.i6.i, label %if.then49

land.rhs.i6.i:                                    ; preds = %while.end7.i
  %m_decl.i.i.i = getelementptr inbounds %class.app, ptr %f.addr.0.lcssa.i, i64 0, i32 1
  %51 = load ptr, ptr %m_decl.i.i.i, align 8
  %m_info.i.i.i = getelementptr inbounds %class.decl, ptr %51, i64 0, i32 2
  %52 = load ptr, ptr %m_info.i.i.i, align 8
  %cmp.i2.i.i = icmp eq ptr %52, null
  br i1 %cmp.i2.i.i, label %cleanup, label %invoke.cont47

invoke.cont47:                                    ; preds = %land.rhs.i6.i
  %53 = load i32, ptr %52, align 8
  %54 = icmp eq i32 %53, -1
  br i1 %54, label %cleanup, label %if.then49

if.then49:                                        ; preds = %while.end7.i, %invoke.cont47
  %55 = load ptr, ptr %this, align 8
  %56 = load ptr, ptr %m_nodes.i.i15, align 8
  %cmp.i.i58 = icmp eq ptr %56, null
  br i1 %cmp.i.i58, label %invoke.cont53, label %if.end.i.i59

if.end.i.i59:                                     ; preds = %if.then49
  %arrayidx.i.i60 = getelementptr inbounds i32, ptr %56, i64 -1
  %57 = load i32, ptr %arrayidx.i.i60, align 4
  br label %invoke.cont53

invoke.cont53:                                    ; preds = %if.end.i.i59, %if.then49
  %retval.0.i.i61 = phi i32 [ %57, %if.end.i.i59 ], [ 0, %if.then49 ]
  %call.i64 = invoke noundef ptr @_ZN11ast_manager6mk_appEiijPKP4expr(ptr noundef nonnull align 8 dereferenceable(976) %55, i32 noundef 0, i32 noundef 5, i32 noundef %retval.0.i.i61, ptr noundef %56)
          to label %invoke.cont55 unwind label %lpad11.loopexit.split-lp

invoke.cont55:                                    ; preds = %invoke.cont53
  %tobool.not.i65 = icmp eq ptr %call.i64, null
  br i1 %tobool.not.i65, label %if.end.i69, label %_ZN11ast_manager7inc_refEP3ast.exit.i66

_ZN11ast_manager7inc_refEP3ast.exit.i66:          ; preds = %invoke.cont55
  %m_ref_count.i.i.i67 = getelementptr inbounds %class.ast, ptr %call.i64, i64 0, i32 2
  %58 = load i32, ptr %m_ref_count.i.i.i67, align 4
  %inc.i.i.i68 = add i32 %58, 1
  store i32 %inc.i.i.i68, ptr %m_ref_count.i.i.i67, align 4
  br label %if.end.i69

if.end.i69:                                       ; preds = %_ZN11ast_manager7inc_refEP3ast.exit.i66, %invoke.cont55
  %59 = load ptr, ptr %f, align 8
  %tobool.not.i3.i70 = icmp eq ptr %59, null
  br i1 %tobool.not.i3.i70, label %invoke.cont57, label %if.then.i.i.i71

if.then.i.i.i71:                                  ; preds = %if.end.i69
  %60 = load ptr, ptr %m_manager3.i, align 8
  %m_ref_count.i.i.i.i73 = getelementptr inbounds %class.ast, ptr %59, i64 0, i32 2
  %61 = load i32, ptr %m_ref_count.i.i.i.i73, align 4
  %dec.i.i.i.i74 = add i32 %61, -1
  store i32 %dec.i.i.i.i74, ptr %m_ref_count.i.i.i.i73, align 4
  %cmp.i.i.i75 = icmp eq i32 %dec.i.i.i.i74, 0
  br i1 %cmp.i.i.i75, label %if.then2.i.i.i76, label %invoke.cont57

if.then2.i.i.i76:                                 ; preds = %if.then.i.i.i71
  invoke void @_ZN11ast_manager11delete_nodeEP3ast(ptr noundef nonnull align 8 dereferenceable(976) %60, ptr noundef nonnull %59)
          to label %invoke.cont57 unwind label %lpad11.loopexit.split-lp

invoke.cont57:                                    ; preds = %if.then.i.i.i71, %if.end.i69, %if.then2.i.i.i76
  store ptr %call.i64, ptr %f, align 8
  %62 = load ptr, ptr %this, align 8
  %call.i79 = invoke noundef ptr @_ZN11ast_manager6mk_appEiiP4exprS1_(ptr noundef nonnull align 8 dereferenceable(976) %62, i32 noundef 0, i32 noundef 9, ptr noundef %call.i64, ptr noundef nonnull %6)
          to label %invoke.cont64 unwind label %lpad11.loopexit.split-lp

invoke.cont64:                                    ; preds = %invoke.cont57
  %tobool.not.i80 = icmp eq ptr %call.i79, null
  br i1 %tobool.not.i80, label %if.end.i84, label %_ZN11ast_manager7inc_refEP3ast.exit.i81

_ZN11ast_manager7inc_refEP3ast.exit.i81:          ; preds = %invoke.cont64
  %m_ref_count.i.i.i82 = getelementptr inbounds %class.ast, ptr %call.i79, i64 0, i32 2
  %63 = load i32, ptr %m_ref_count.i.i.i82, align 4
  %inc.i.i.i83 = add i32 %63, 1
  store i32 %inc.i.i.i83, ptr %m_ref_count.i.i.i82, align 4
  br label %if.end.i84

if.end.i84:                                       ; preds = %_ZN11ast_manager7inc_refEP3ast.exit.i81, %invoke.cont64
  %64 = load ptr, ptr %f, align 8
  %tobool.not.i3.i85 = icmp eq ptr %64, null
  br i1 %tobool.not.i3.i85, label %_ZN7obj_refI4expr11ast_managerEaSEPS0_.exit93, label %if.then.i.i.i86

if.then.i.i.i86:                                  ; preds = %if.end.i84
  %65 = load ptr, ptr %m_manager3.i, align 8
  %m_ref_count.i.i.i.i88 = getelementptr inbounds %class.ast, ptr %64, i64 0, i32 2
  %66 = load i32, ptr %m_ref_count.i.i.i.i88, align 4
  %dec.i.i.i.i89 = add i32 %66, -1
  store i32 %dec.i.i.i.i89, ptr %m_ref_count.i.i.i.i88, align 4
  %cmp.i.i.i90 = icmp eq i32 %dec.i.i.i.i89, 0
  br i1 %cmp.i.i.i90, label %if.then2.i.i.i91, label %_ZN7obj_refI4expr11ast_managerEaSEPS0_.exit93

if.then2.i.i.i91:                                 ; preds = %if.then.i.i.i86
  invoke void @_ZN11ast_manager11delete_nodeEP3ast(ptr noundef nonnull align 8 dereferenceable(976) %65, ptr noundef nonnull %64)
          to label %_ZN7obj_refI4expr11ast_managerEaSEPS0_.exit93 unwind label %lpad11.loopexit.split-lp

_ZN7obj_refI4expr11ast_managerEaSEPS0_.exit93:    ; preds = %if.then2.i.i.i91, %if.end.i84, %if.then.i.i.i86
  store ptr %call.i79, ptr %f, align 8
  %.pr.pre = load ptr, ptr %head, align 8
  br label %cleanup

if.else69:                                        ; preds = %for.end
  %67 = load ptr, ptr %this, align 8
  %68 = load ptr, ptr %m_nodes.i.i15, align 8
  %cmp.i.i95 = icmp eq ptr %68, null
  br i1 %cmp.i.i95, label %invoke.cont73, label %if.end.i.i96

if.end.i.i96:                                     ; preds = %if.else69
  %arrayidx.i.i97 = getelementptr inbounds i32, ptr %68, i64 -1
  %69 = load i32, ptr %arrayidx.i.i97, align 4
  br label %invoke.cont73

invoke.cont73:                                    ; preds = %if.end.i.i96, %if.else69
  %retval.0.i.i98 = phi i32 [ %69, %if.end.i.i96 ], [ 0, %if.else69 ]
  %call.i101 = invoke noundef ptr @_ZN11ast_manager6mk_appEiijPKP4expr(ptr noundef nonnull align 8 dereferenceable(976) %67, i32 noundef 0, i32 noundef 5, i32 noundef %retval.0.i.i98, ptr noundef %68)
          to label %invoke.cont75 unwind label %lpad11.loopexit.split-lp

invoke.cont75:                                    ; preds = %invoke.cont73
  %tobool.not.i103 = icmp eq ptr %call.i101, null
  br i1 %tobool.not.i103, label %if.end.i107, label %_ZN11ast_manager7inc_refEP3ast.exit.i104

_ZN11ast_manager7inc_refEP3ast.exit.i104:         ; preds = %invoke.cont75
  %m_ref_count.i.i.i105 = getelementptr inbounds %class.ast, ptr %call.i101, i64 0, i32 2
  %70 = load i32, ptr %m_ref_count.i.i.i105, align 4
  %inc.i.i.i106 = add i32 %70, 1
