; ModuleID = 'bench/z3/original/opt_context.cpp.ll'
source_filename = "bench/z3/original/opt_context.cpp.ll"
target datalayout = "e-m:e-p270:32:32-p271:32:32-p272:64:64-i64:64-i128:128-f80:128-n8:16:32:64-S128"
target triple = "x86_64-unknown-linux-gnu"

%"class.std::ios_base::Init" = type { i8 }
%class.symbol = type { ptr }
%struct.app_flags = type { i24 }
%class.rational = type { %class.mpq }
%class.mpq = type { %class.mpz, %class.mpz }
%class.mpz = type { i32, i8, ptr }
%class.inf_rational = type { %class.rational, %class.rational }
%"class.opt::context::scoped_state" = type { ptr, %class.arith_util, %class.bv_util, %class.svector, %class.svector, %class.svector, %class.svector, %class.svector, %class.map, %class.ref_vector, %class.ref_vector, %class.vector.1 }
%class.arith_util = type { ptr, ptr }
%class.bv_util = type { %class.bv_recognizers, ptr, ptr }
%class.bv_recognizers = type { i32 }
%class.svector = type { %class.vector }
%class.vector = type { ptr }
%class.map = type { %class.table2map }
%class.table2map = type { %class.core_hashtable }
%class.core_hashtable = type <{ ptr, i32, i32, i32, [4 x i8] }>
%class.ref_vector = type { %class.ref_vector_core }
%class.ref_vector_core = type { %class.ref_manager_wrapper, %class.ptr_vector }
%class.ref_manager_wrapper = type { ptr }
%class.ptr_vector = type { %class.vector.0 }
%class.vector.0 = type { ptr }
%class.vector.1 = type { ptr }
%struct._key_data.161 = type <{ %class.symbol, i32, [4 x i8] }>
%class.ast = type { i32, i24, i32, i32 }
%"struct.opt::context::objective" = type <{ i32, [4 x i8], %class.obj_ref, %class.ref_vector, %class.vector.2, %"class.opt::adjust_value", %class.symbol, i32, [4 x i8] }>
%class.obj_ref = type { ptr, ptr }
%class.vector.2 = type { ptr }
%"class.opt::adjust_value" = type <{ %class.rational, i8, [7 x i8] }>
%"class.std::__cxx11::basic_string" = type { %"struct.std::__cxx11::basic_string<char>::_Alloc_hider", i64, %union.anon }
%"struct.std::__cxx11::basic_string<char>::_Alloc_hider" = type { ptr }
%union.anon = type { i64, [8 x i8] }
%"class.std::allocator" = type { i8 }
%class.default_exception = type { %class.z3_exception, %"class.std::__cxx11::basic_string" }
%class.z3_exception = type { ptr }
%class.default_map_entry = type { %class.default_hash_entry }
%class.default_hash_entry = type { i32, i32, %struct._key_data.161 }
%class.decl = type { %class.ast, %class.symbol, ptr }
%class.params_ref = type { ptr }
%class.check_sat_result = type { ptr, ptr, %class.ref_vector, %class.obj_ref, i32, i32, %class.ref, double }
%class.ref = type { ptr }
%"class.opt::context" = type { %class.opt_wrapper, %"class.opt::pareto_callback", %"class.opt::maxsat_context", double, %"struct.opt::on_model_t", %"class.std::function", i8, %class.arith_util, %class.bv_util, %class.ref_vector, %class.ref.34, %class.ref.35, %class.ref.35, %class.scoped_ptr, i8, %class.scoped_ptr.36, %class.ref_vector_core.37, i32, %class.params_ref, %"class.opt::optsmt", %class.map.47, %"class.opt::context::scoped_state", %class.vector.1, %class.ref.46, %class.ref, %class.ref.51, %class.ref_vector_core.37, i32, [4 x i8], %class.obj_map.52, %class.obj_map.57, %class.ref_vector.62, %class.ref_vector, %class.ref.67, i8, i8, i8, i8, i8, i8, %class.symbol, %class.symbol, %class.svector.12, %"class.std::__cxx11::basic_string" }
%class.opt_wrapper = type { %class.check_sat_result }
%"class.opt::pareto_callback" = type { ptr }
%"class.opt::maxsat_context" = type { ptr }
%"struct.opt::on_model_t" = type { ptr, ptr, ptr, ptr }
%"class.std::function" = type { %"class.std::_Function_base", ptr }
%"class.std::_Function_base" = type { %"union.std::_Any_data", ptr }
%"union.std::_Any_data" = type { %"union.std::_Nocopy_types" }
%"union.std::_Nocopy_types" = type { { i64, i64 } }
%class.ref.34 = type { ptr }
%class.ref.35 = type { ptr }
%class.scoped_ptr = type { ptr }
%class.scoped_ptr.36 = type { ptr }
%"class.opt::optsmt" = type { ptr, ptr, ptr, %class.vector.40, %class.vector.40, %class.ref_vector.41, %class.ref_vector, %class.svector.10, %class.symbol, %class.ref.46, %class.ref.46, %class.svector.12, %class.ref_vector_core.37 }
%class.vector.40 = type { ptr }
%class.ref_vector.41 = type { %class.ref_vector_core.42 }
%class.ref_vector_core.42 = type { %class.ref_manager_wrapper.43, %class.ptr_vector.44 }
%class.ref_manager_wrapper.43 = type { ptr }
%class.ptr_vector.44 = type { %class.vector.45 }
%class.vector.45 = type { ptr }
%class.svector.10 = type { %class.vector.11 }
%class.vector.11 = type { ptr }
%class.map.47 = type { %class.table2map.48 }
%class.table2map.48 = type { %class.core_hashtable.49 }
%class.core_hashtable.49 = type <{ ptr, i32, i32, i32, [4 x i8] }>
%class.ref.46 = type { ptr }
%class.ref.51 = type { ptr }
%class.ref_vector_core.37 = type { %class.ptr_vector.38 }
%class.ptr_vector.38 = type { %class.vector.39 }
%class.vector.39 = type { ptr }
%class.obj_map.52 = type { %class.core_hashtable.53 }
%class.core_hashtable.53 = type <{ ptr, i32, i32, i32, [4 x i8] }>
%class.obj_map.57 = type { %class.core_hashtable.58 }
%class.core_hashtable.58 = type <{ ptr, i32, i32, i32, [4 x i8] }>
%class.ref_vector.62 = type { %class.ref_vector_core.63 }
%class.ref_vector_core.63 = type { %class.ref_manager_wrapper.64, %class.ptr_vector.65 }
%class.ref_manager_wrapper.64 = type { ptr }
%class.ptr_vector.65 = type { %class.vector.66 }
%class.vector.66 = type { ptr }
%class.ref.67 = type { ptr }
%class.svector.12 = type { %class.vector.13 }
%class.vector.13 = type { ptr }
%class.converter = type <{ ptr, i32, [4 x i8] }>
%class.model_converter = type <{ %class.converter.base, [4 x i8], ptr, i8, [7 x i8] }>
%class.converter.base = type <{ ptr, i32 }>
%class.generic_model_converter = type { %class.model_converter.base, ptr, %"class.std::__cxx11::basic_string", %class.vector.68 }
%class.model_converter.base = type <{ %class.converter.base, [4 x i8], ptr, i8 }>
%class.vector.68 = type { ptr }
%class.tactic = type <{ %"class.user_propagator::core", i32, [4 x i8] }>
%"class.user_propagator::core" = type { ptr }
%class.model_core = type { ptr, ptr, i32, [4 x i8], %class.obj_map.81, %class.obj_map.86, %class.ptr_vector.65, %class.ptr_vector.65, %class.ptr_vector.65 }
%class.obj_map.81 = type { %class.core_hashtable.82 }
%class.core_hashtable.82 = type <{ ptr, i32, i32, i32, [4 x i8] }>
%class.obj_map.86 = type { %class.core_hashtable.87 }
%class.core_hashtable.87 = type <{ ptr, i32, i32, i32, [4 x i8] }>
%class.inf_eps_rational = type { %class.rational, %class.inf_rational }
%class.default_map_entry.162 = type { %class.default_hash_entry.163 }
%class.default_hash_entry.163 = type { i32, i32, %struct._key_data }
%struct._key_data = type { %class.symbol, ptr }
%class.obj_ref.76 = type { ptr, ptr }
%"class.opt::context::scoped_time" = type { ptr, %class.timer }
%class.timer = type { %class.stopwatch }
%class.stopwatch = type <{ %"class.std::chrono::time_point", %"class.std::chrono::duration", i8, [7 x i8] }>
%"class.std::chrono::time_point" = type { %"class.std::chrono::duration" }
%"class.std::chrono::duration" = type { i64 }
%struct.opt_params = type { ptr, %class.params_ref }
%class.ast_manager = type { %class.reslimit, %class.small_object_allocator, %class.family_manager, %class.parray_manager, %class.dependency_manager, %class.parray_manager.18, %class.ptr_vector.21, i32, i8, %class.ast_table, %class.obj_map, %class.id_gen, %class.id_gen, ptr, ptr, ptr, ptr, ptr, i32, i8, [3 x i8], %class.u_map, ptr, i8, i8, ptr, %class.symbol, %class.obj_map.29, ptr }
%class.reslimit = type { %"struct.std::atomic", i8, i64, i64, %class.svector.3, %class.ptr_vector.5 }
%"struct.std::atomic" = type { %"struct.std::__atomic_base" }
%"struct.std::__atomic_base" = type { i32 }
%class.svector.3 = type { %class.vector.4 }
%class.vector.4 = type { ptr }
%class.ptr_vector.5 = type { %class.vector.6 }
%class.vector.6 = type { ptr }
%class.small_object_allocator = type { [32 x ptr], [32 x ptr], i64 }
%class.family_manager = type { i32, %class.symbol_table, %class.svector.12 }
%class.symbol_table = type { %class.core_hashtable.7, %class.vector.9, %class.svector.10 }
%class.core_hashtable.7 = type <{ ptr, i32, i32, i32, [4 x i8] }>
%class.vector.9 = type { ptr }
%class.parray_manager = type { ptr, ptr, %class.ptr_vector.14, %class.ptr_vector.14 }
%class.ptr_vector.14 = type { %class.vector.15 }
%class.vector.15 = type { ptr }
%class.dependency_manager = type { ptr, ptr, %class.ptr_vector.16 }
%class.ptr_vector.16 = type { %class.vector.17 }
%class.vector.17 = type { ptr }
%class.parray_manager.18 = type { ptr, ptr, %class.ptr_vector.19, %class.ptr_vector.19 }
%class.ptr_vector.19 = type { %class.vector.20 }
%class.vector.20 = type { ptr }
%class.ptr_vector.21 = type { %class.vector.22 }
%class.vector.22 = type { ptr }
%class.ast_table = type { %class.chashtable }
%class.chashtable = type { ptr, i32, i32, i32, i32, i32, i32, i32, ptr, ptr, ptr }
%class.obj_map = type { %class.core_hashtable.23 }
%class.core_hashtable.23 = type <{ ptr, i32, i32, i32, [4 x i8] }>
%class.id_gen = type { i32, %class.svector }
%class.u_map = type { %class.map.25 }
%class.map.25 = type { %class.table2map.26 }
%class.table2map.26 = type { %class.core_hashtable.27 }
%class.core_hashtable.27 = type <{ ptr, i32, i32, i32, [4 x i8] }>
%class.obj_map.29 = type { %class.core_hashtable.30 }
%class.core_hashtable.30 = type <{ ptr, i32, i32, i32, [4 x i8] }>
%class.app = type { %class.expr, ptr, i32, [0 x ptr] }
%class.expr = type { %class.ast }
%"class.opt::opt_solver" = type <{ %class.solver_na2as, %struct.smt_params, %"class.smt::kernel", ptr, ptr, ptr, %class.symbol, %class.ref.46, %class.svector.10, %class.vector.40, %class.ref_vector_core.37, %class.ref_vector, i8, [7 x i8], %class.statistics, i8, i8, [6 x i8] }>
%class.solver_na2as = type { %class.solver, %class.ref_vector, %class.svector }
%class.solver = type { %class.check_sat_result, %"class.user_propagator::core", %class.params_ref, %class.symbol }
%struct.smt_params = type { %struct.preprocessor_params.base, %struct.dyn_ack_params, %struct.qi_params, %struct.theory_arith_params.base, i8, %struct.theory_array_params.base, %struct.theory_bv_params, %struct.theory_str_params.base, %struct.theory_seq_params, %struct.theory_pb_params.base, %struct.theory_datatype_params, i8, i8, i8, i8, i8, i8, i32, i8, i32, double, double, i32, i32, i32, i32, i32, i8, i32, i32, i32, i32, i32, i32, i8, i32, i8, i8, i8, i8, i8, %class.symbol, i32, i32, i8, i8, i8, i8, i32, i8, i32, i32, double, i8, double, double, i32, i8, i32, i32, double, i32, i32, i32, i32, i32, double, i8, i8, i8, %class.symbol, i8, i8, i8, i8, i8, i8, i32, i8, i8, i8, i8, i8, i8, i8, i8, i8, double, i8, %class.symbol }
%struct.preprocessor_params.base = type <{ %struct.pattern_inference_params.base, %struct.bit_blaster_params, i32, i32, i8, i8, i8, i8, i8, i8, i8, i8, i8, i8, i8, i8, i8, i8, i8, i8, i8, i8, i8 }>
%struct.pattern_inference_params.base = type <{ i8, [3 x i8], i32, i8, i8, [2 x i8], i32, i8, [3 x i8], i32, i32, i8, [3 x i8], i32, i8, i8 }>
%struct.bit_blaster_params = type { i8, i8 }
%struct.dyn_ack_params = type { i32, i8, double, i32, i32, double }
%struct.qi_params = type { %"class.std::__cxx11::basic_string", %"class.std::__cxx11::basic_string", double, double, i32, i32, i8, i32, i32, i8, i8, i32, i8, i8, i8, i8, i32, i32, i32, i8, i32, ptr }
%struct.theory_arith_params.base = type <{ i8, i8, [2 x i8], i32, i8, [3 x i8], i32, i8, [3 x i8], i32, i8, i8, [2 x i8], i32, i32, i8, i8, [2 x i8], i32, i32, i8, [3 x i8], i32, i32, i8, [3 x i8], double, double, i8, [3 x i8], i32, i8, i8, i8, i8, i8, [3 x i8], i32, i32, i8, [3 x i8], i32, i8, i8, i8, i8, i8, i8, [2 x i8], i32, i8, i8, [2 x i8], i32, i8, [3 x i8], i32, i8, i8, i8 }>
%struct.theory_array_params.base = type <{ i8, i8, [2 x i8], i32, i8, i8, [2 x i8], i32, i8, i8, i8, i8, i32, i8 }>
%struct.theory_bv_params = type { i32, i8, i8, i8, i8, i32, i8, i8, i8, i8, i32 }
%struct.theory_str_params.base = type <{ i8, i8, i8, i8, i8, i8, i8, i8, double, i32, i32, i32, i32, i32, i8, i8 }>
%struct.theory_seq_params = type { i8, i8, i32, i32 }
%struct.theory_pb_params.base = type <{ i32, i8 }>
%struct.theory_datatype_params = type { i32 }
%"class.smt::kernel" = type { ptr }
%class.statistics = type { %class.svector.77, %class.svector.79 }
%class.svector.77 = type { %class.vector.78 }
%class.vector.78 = type { ptr }
%class.svector.79 = type { %class.vector.80 }
%class.vector.80 = type { ptr }
%"class.opt::pareto_base" = type { ptr, ptr, ptr, %class.ref.35, %class.params_ref, %class.ref.46, %class.svector.12 }
%"class.solver::scoped_push" = type <{ ptr, i8, [7 x i8] }>
%class.decl_info = type <{ i32, i32, %class.vector.100, i8, [7 x i8] }>
%class.vector.100 = type { ptr }
%struct.sat_params = type { ptr, %class.params_ref }
%class.model = type { %class.model_core, %class.ptr_vector.91, %class.obj_map.93, %class.model_evaluator, i8, i8, %class.plugin_manager }
%class.ptr_vector.91 = type { %class.vector.92 }
%class.vector.92 = type { ptr }
%class.obj_map.93 = type { %class.core_hashtable.94 }
%class.core_hashtable.94 = type <{ ptr, i32, i32, i32, [4 x i8] }>
%class.model_evaluator = type { ptr }
%class.plugin_manager = type { %class.ptr_vector.98, %class.ptr_vector.98 }
%class.ptr_vector.98 = type { %class.vector.99 }
%class.vector.99 = type { ptr }
%class.pb_util = type { ptr, i32, %class.vector.2, %class.vector.100, %class.rational }
%class.parameter = type { %"class.std::variant" }
%"class.std::variant" = type { %"struct.std::__detail::__variant::_Variant_base.base", [7 x i8] }
%"struct.std::__detail::__variant::_Variant_base.base" = type { %"struct.std::__detail::__variant::_Move_assign_base.base" }
%"struct.std::__detail::__variant::_Move_assign_base.base" = type { %"struct.std::__detail::__variant::_Copy_assign_base.base" }
%"struct.std::__detail::__variant::_Copy_assign_base.base" = type { %"struct.std::__detail::__variant::_Move_ctor_base.base" }
%"struct.std::__detail::__variant::_Move_ctor_base.base" = type { %"struct.std::__detail::__variant::_Copy_ctor_base.base" }
%"struct.std::__detail::__variant::_Copy_ctor_base.base" = type { %"struct.std::__detail::__variant::_Variant_storage.base" }
%"struct.std::__detail::__variant::_Variant_storage.base" = type <{ %"union.std::__detail::__variant::_Variadic_union", i8 }>
%"union.std::__detail::__variant::_Variadic_union" = type { %"union.std::__detail::__variant::_Variadic_union.165" }
%"union.std::__detail::__variant::_Variadic_union.165" = type { %"struct.std::__detail::__variant::_Uninitialized.166" }
%"struct.std::__detail::__variant::_Uninitialized.166" = type { ptr }
%"struct.std::pair" = type { %class.inf_eps_rational, %class.inf_eps_rational }
%class.ast_fast_mark = type { %class.ptr_buffer }
%class.ptr_buffer = type { %class.buffer }
%class.buffer = type { ptr, i32, i32, [16 x %"union.std::aligned_storage<8, 8>::type"] }
%"union.std::aligned_storage<8, 8>::type" = type { [8 x i8] }
%"struct.opt::context::is_fd" = type { ptr, %class.pb_util, %class.bv_util }
%"class.opt::maxsmt" = type { ptr, ptr, i32, %class.scoped_ptr.69, %class.vector.70, %class.obj_map.71, %class.ref_vector, %class.rational, %class.rational, %class.ref.46, %class.svector.12, %class.params_ref }
%class.scoped_ptr.69 = type { ptr }
%class.vector.70 = type { ptr }
%class.obj_map.71 = type { %class.core_hashtable.72 }
%class.core_hashtable.72 = type <{ ptr, i32, i32, i32, [4 x i8] }>
%"struct.opt::soft" = type <{ %class.obj_ref.76, %class.rational, i32, [4 x i8] }>
%"struct.opt::context::is_propositional_fn" = type { ptr }
%"class.obj_map<func_decl, unsigned int>::obj_map_entry" = type { %"struct.obj_map<func_decl, unsigned int>::key_data" }
%"struct.obj_map<func_decl, unsigned int>::key_data" = type <{ ptr, i32, [4 x i8] }>
%class.ref.102 = type { ptr }
%class.obj_ref.105 = type { ptr, ptr }
%class.sref_buffer = type { %class.ref_buffer_core }
%class.ref_buffer_core = type { %class.ptr_buffer.107 }
%class.ptr_buffer.107 = type { %class.buffer.108 }
%class.buffer.108 = type { ptr, i32, i32, [16 x %"union.std::aligned_storage<8, 8>::type"] }
%class.goal = type <{ ptr, %class.ref, %class.ref.103, %class.ref.104, i32, [4 x i8], %"class.std::__cxx11::basic_string", %"class.parray_manager<ast_manager::expr_array_config>::ref", %"class.parray_manager<ast_manager::expr_array_config>::ref", %"class.parray_manager<ast_manager::expr_dependency_array_config>::ref", i32, [4 x i8] }>
%class.ref.103 = type { ptr }
%class.ref.104 = type { ptr }
%"class.parray_manager<ast_manager::expr_array_config>::ref" = type <{ ptr, i32, [4 x i8] }>
%"class.parray_manager<ast_manager::expr_dependency_array_config>::ref" = type <{ ptr, i32, [4 x i8] }>
%"struct.parray_manager<ast_manager::expr_array_config>::cell" = type { i32, %union.anon.205, ptr, %union.anon.206 }
%union.anon.205 = type { i32 }
%union.anon.206 = type { ptr }
%"struct.parray_manager<ast_manager::expr_dependency_array_config>::cell" = type { i32, %union.anon.214, ptr, %union.anon.215 }
%union.anon.214 = type { i32 }
%union.anon.215 = type { ptr }
%"class.obj_map<func_decl, expr *>::obj_map_entry" = type { %"struct.obj_map<func_decl, expr *>::key_data" }
%"struct.obj_map<func_decl, expr *>::key_data" = type { ptr, ptr }
%struct.mk_pp = type { %struct.mk_ismt2_pp }
%struct.mk_ismt2_pp = type { ptr, ptr, %class.params_ref, ptr, i32, i32, ptr }
%"class.std::__cxx11::basic_ostringstream" = type { %"class.std::basic_ostream.base", %"class.std::__cxx11::basic_stringbuf", %"class.std::basic_ios" }
%"class.std::basic_ostream.base" = type { ptr }
%"class.std::__cxx11::basic_stringbuf" = type { %"class.std::basic_streambuf", i32, %"class.std::__cxx11::basic_string" }
%"class.std::basic_streambuf" = type { ptr, ptr, ptr, ptr, ptr, ptr, ptr, %"class.std::locale" }
%"class.std::locale" = type { ptr }
%"class.std::basic_ios" = type { %"class.std::ios_base", ptr, i8, i8, ptr, ptr, ptr, ptr }
%"class.std::ios_base" = type { ptr, i64, i64, i32, i32, i32, ptr, %"struct.std::ios_base::_Words", [8 x %"struct.std::ios_base::_Words"], i32, ptr, %"class.std::locale" }
%"struct.std::ios_base::_Words" = type { ptr, i64 }
%"struct.std::__detail::__variant::_Variant_storage" = type <{ %"union.std::__detail::__variant::_Variadic_union", i8, [7 x i8] }>
%"class.std::bad_variant_access" = type { %"class.std::exception", ptr }
%"class.std::exception" = type { ptr }
%"struct.generic_model_converter::entry" = type <{ %class.obj_ref.190, %class.obj_ref.76, i32, [4 x i8] }>
%class.obj_ref.190 = type { ptr, ptr }
%class.svector.109 = type { %class.vector.110 }
%class.vector.110 = type { ptr }
%class.smt2_pp_environment_dbg = type { %class.smt2_pp_environment, ptr, %class.arith_util, %class.bv_util, %class.array_util, %class.fpa_util, %class.seq_util, %"class.datatype::util", %"class.datalog::dl_decl_util" }
%class.smt2_pp_environment = type { ptr, %class.smt_renaming }
%class.smt_renaming = type { %class.map.111, %class.map.115 }
%class.map.111 = type { %class.table2map.112 }
%class.table2map.112 = type { %class.core_hashtable.113 }
%class.core_hashtable.113 = type <{ ptr, i32, i32, i32, [4 x i8] }>
%class.map.115 = type { %class.table2map.116 }
%class.table2map.116 = type { %class.core_hashtable.117 }
%class.core_hashtable.117 = type <{ ptr, i32, i32, i32, [4 x i8] }>
%class.array_util = type { %class.array_recognizers, ptr }
%class.array_recognizers = type { i32 }
%class.fpa_util = type { ptr, ptr, i32, %class.arith_util, %class.bv_util }
%class.seq_util = type { ptr, ptr, ptr, i32, [4 x i8], %"class.seq_util::str", %"class.seq_util::rex" }
%"class.seq_util::str" = type <{ ptr, ptr, i32, [4 x i8] }>
%"class.seq_util::rex" = type { ptr, ptr, i32, %class.vector.119, %class.ref_vector, %"struct.seq_util::rex::info", %"struct.seq_util::rex::info" }
%class.vector.119 = type { ptr }
%"struct.seq_util::rex::info" = type { i32, i8, i32, i32 }
%"class.datatype::util" = type { ptr, i32, ptr, %class.obj_map.120, %class.obj_map.125, %class.obj_map.130, %class.obj_map.29, %class.obj_map.29, %class.obj_map.29, %class.obj_map.135, %class.obj_map.135, %class.obj_map.135, %class.ref_vector.140, %class.ref_vector_core.145, %class.ptr_vector.149, i32, %class.ptr_vector.91 }
%class.obj_map.120 = type { %class.core_hashtable.121 }
%class.core_hashtable.121 = type <{ ptr, i32, i32, i32, [4 x i8] }>
%class.obj_map.125 = type { %class.core_hashtable.126 }
%class.core_hashtable.126 = type <{ ptr, i32, i32, i32, [4 x i8] }>
%class.obj_map.130 = type { %class.core_hashtable.131 }
%class.core_hashtable.131 = type <{ ptr, i32, i32, i32, [4 x i8] }>
%class.obj_map.135 = type { %class.core_hashtable.136 }
%class.core_hashtable.136 = type <{ ptr, i32, i32, i32, [4 x i8] }>
%class.ref_vector.140 = type { %class.ref_vector_core.141 }
%class.ref_vector_core.141 = type { %class.ref_manager_wrapper.142, %class.ptr_vector.143 }
%class.ref_manager_wrapper.142 = type { ptr }
%class.ptr_vector.143 = type { %class.vector.144 }
%class.vector.144 = type { ptr }
%class.ref_vector_core.145 = type { %class.ptr_vector.147 }
%class.ptr_vector.147 = type { %class.vector.148 }
%class.vector.148 = type { ptr }
%class.ptr_vector.149 = type { %class.vector.150 }
%class.vector.150 = type { ptr }
%"class.datalog::dl_decl_util" = type <{ ptr, %class.scoped_ptr.151, %class.scoped_ptr.152, i32, [4 x i8] }>
%class.scoped_ptr.151 = type { ptr }
%class.scoped_ptr.152 = type { ptr }
%class.ast_pp_util = type { ptr, %class.obj_hashtable, %class.smt2_pp_environment_dbg, %class.stacked_value, %class.stacked_value, %class.stacked_value, %class.obj_mark, %class.ref_vector, %class.svector, %class.decl_collector }
%class.obj_hashtable = type { %class.core_hashtable.base.155, [4 x i8] }
%class.core_hashtable.base.155 = type <{ ptr, i32, i32, i32 }>
%class.stacked_value = type { i32, %class.vector.156 }
%class.vector.156 = type { ptr }
%class.obj_mark = type { %struct.default_t2uint, %class.bit_vector }
%struct.default_t2uint = type { i8 }
%class.bit_vector = type { i32, i32, ptr }
%class.decl_collector = type { ptr, %class.lim_svector, %class.lim_svector.158, %class.lim_svector.158, %class.ast_mark, %class.ref_vector.140, %class.svector, i32, i32, %"class.datatype::util", %class.array_util, i32, %class.ptr_vector.143 }
%class.lim_svector = type { %class.svector.157, %class.svector }
%class.svector.157 = type { %class.vector.92 }
%class.lim_svector.158 = type { %class.svector.159, %class.svector }
%class.svector.159 = type { %class.vector.66 }
%class.ast_mark = type { ptr, %class.obj_mark, %class.obj_mark.160 }
%class.obj_mark.160 = type { %"struct.ast_mark::decl2uint", %class.bit_vector }
%"struct.ast_mark::decl2uint" = type { i8 }
%class.param_descrs = type { ptr }
%class.seq_decl_plugin = type { %class.decl_plugin.base, %class.ptr_vector.220, %class.ptr_vector.91, i8, %class.symbol, ptr, ptr, ptr, i8, i8, ptr }
%class.decl_plugin.base = type <{ ptr, ptr, i32 }>
%class.ptr_vector.220 = type { %class.vector.221 }
%class.vector.221 = type { ptr }
%class.decl_plugin = type <{ ptr, ptr, i32, [4 x i8] }>
%class.dependent_expr_state_tactic = type <{ %class.tactic.base, [4 x i8], %class.dependent_expr_state, ptr, %class.params_ref, %class.trail_stack, %class.ref.102, %class.dependent_expr, %class.statistics, ptr, %class.ref_vector, %class.scoped_ptr.180, %class.scoped_ptr.181, i8, [7 x i8] }>
%class.tactic.base = type <{ %"class.user_propagator::core", i32 }>
%class.dependent_expr_state = type { ptr, i32, i8, i32, i32, i32, %class.ast_mark, %class.ref_vector.62, %class.trail_stack }
%class.trail_stack = type { %class.ptr_vector.178, %class.svector, %class.region }
%class.ptr_vector.178 = type { %class.vector.179 }
%class.vector.179 = type { ptr }
%class.region = type { ptr, ptr, ptr, ptr, ptr }
%class.dependent_expr = type { ptr, ptr, ptr, ptr }
%class.scoped_ptr.180 = type { ptr }
%class.scoped_ptr.181 = type { ptr }
%class.statistics_report = type { ptr, %"class.std::function.203" }
%"class.std::function.203" = type { %"class.std::_Function_base", ptr }
%class.tactic_report = type { ptr }
%class.tactic_exception = type { %class.z3_exception, %"class.std::__cxx11::basic_string" }
%"struct.dependency_manager<ast_manager::expr_dependency_config>::leaf" = type { %"class.dependency_manager<ast_manager::expr_dependency_config>::dependency", ptr }
%"class.dependency_manager<ast_manager::expr_dependency_config>::dependency" = type { i32 }
%"struct.dependency_manager<ast_manager::expr_dependency_config>::join" = type { %"class.dependency_manager<ast_manager::expr_dependency_config>::dependency", [2 x ptr] }
%class.model_reconstruction_trail = type <{ ptr, ptr, %class.scoped_ptr_vector.186, %class.ref_vector.62, %class.ast_mark, i8, [7 x i8] }>
%class.scoped_ptr_vector.186 = type { %class.ptr_vector.187 }
%class.ptr_vector.187 = type { %class.vector.188 }
%class.vector.188 = type { ptr }
%"struct.model_reconstruction_trail::entry" = type <{ %class.scoped_ptr.185, %class.vector.189, %class.obj_ref.190, %class.vector.191, i8, [7 x i8] }>
%class.scoped_ptr.185 = type { ptr }
%class.vector.189 = type { ptr }
%class.vector.191 = type { ptr }
%"class.std::tuple" = type { %"struct.std::_Tuple_impl" }
%"struct.std::_Tuple_impl" = type { %"struct.std::_Tuple_impl.192", %"struct.std::_Head_base.195" }
%"struct.std::_Tuple_impl.192" = type { %"struct.std::_Tuple_impl.193", %"struct.std::_Head_base.194" }
%"struct.std::_Tuple_impl.193" = type { %"struct.std::_Head_base" }
%"struct.std::_Head_base" = type { %class.obj_ref.105 }
%"struct.std::_Head_base.194" = type { %class.obj_ref.76 }
%"struct.std::_Head_base.195" = type { %class.obj_ref.190 }
%class.value_trail = type <{ %class.trail, ptr, i32, [4 x i8] }>
%class.trail = type { ptr }
%"struct.dependent_expr_state::thaw" = type { %class.trail, i32, ptr }
%struct._Guard = type { ptr }
%class.sbuffer = type { %class.buffer.445 }
%class.buffer.445 = type { ptr, i32, i32, [16 x %"union.std::aligned_storage<16, 8>::type"] }
%"union.std::aligned_storage<16, 8>::type" = type { [16 x i8] }
%"struct.std::pair.447" = type <{ ptr, i32, [4 x i8] }>
%class.quantifier = type { %class.expr, i32, i32, ptr, ptr, i32, i32, i8, i8, %class.symbol, %class.symbol, i32, i32, [0 x i8] }

$_ZNSt7__cxx1112basic_stringIcSt11char_traitsIcESaIcEEC2IS3_EEPKcRKS3_ = comdat any

$_ZN17default_exceptionD2Ev = comdat any

$_ZN6vectorIN3opt7context9objectiveELb1EjE9push_backEOS2_ = comdat any

$_ZN3opt7context9objectiveD2Ev = comdat any

$_ZN6vectorI8rationalLb1EjE9push_backERKS0_ = comdat any

$_ZN7obj_refI3app11ast_managerED2Ev = comdat any

$_ZN3opt7context12scoped_stateC2ER11ast_manager = comdat any

$_ZN23generic_model_converterC2ER11ast_managerPKc = comdat any

$_ZN7svectorI6symboljED2Ev = comdat any

$_ZN3refI6tacticED2Ev = comdat any

$_ZN10ref_vectorI4expr11ast_managerED2Ev = comdat any

$_ZN10ref_vectorI9func_decl11ast_managerED2Ev = comdat any

$_ZN7obj_mapI9func_declP4exprED2Ev = comdat any

$_ZN7obj_mapI9func_decljED2Ev = comdat any

$_ZN15ref_vector_coreI5model21ref_unmanaged_wrapperIS0_EED2Ev = comdat any

$_ZN3refI23generic_model_converterED2Ev = comdat any

$_ZN3refI15model_converterED2Ev = comdat any

$_ZN3refI5modelED2Ev = comdat any

$_ZN6vectorIN3opt7context9objectiveELb1EjED2Ev = comdat any

$_ZN3opt7context12scoped_stateD2Ev = comdat any

$_ZN3mapI6symbolPN3opt6maxsmtE16symbol_hash_proc14symbol_eq_procED2Ev = comdat any

$_ZN3opt6optsmtD2Ev = comdat any

$_ZN10scoped_ptrIN2qe4qmaxEED2Ev = comdat any

$_ZN10scoped_ptrIN3opt11pareto_baseEED2Ev = comdat any

$_ZN3refI6solverED2Ev = comdat any

$_ZN3refIN3opt10opt_solverEED2Ev = comdat any

$__clang_call_terminate = comdat any

$_ZN16inf_eps_rationalI12inf_rationalED2Ev = comdat any

$_ZN8rationalD2Ev = comdat any

$_ZN7obj_refI4expr11ast_managerED2Ev = comdat any

$_ZN3opt7context11scoped_timeD2Ev = comdat any

$_ZN6solver11scoped_pushD2Ev = comdat any

$_ZN6vectorI8rationalLb1EjED2Ev = comdat any

$_ZN10ptr_vectorI4exprED2Ev = comdat any

$_ZN7pb_utilD2Ev = comdat any

$_ZNSt7__cxx119to_stringEj = comdat any

$_ZN13ast_fast_markILj1EED2Ev = comdat any

$_ZN7obj_refIN18dependency_managerIN11ast_manager22expr_dependency_configEE10dependencyES1_ED2Ev = comdat any

$_ZN11sref_bufferI4goalLj16EED2Ev = comdat any

$_ZN3refI4goalED2Ev = comdat any

$_ZNK7bv_util10mk_numeralEmj = comdat any

$_ZN10ptr_vectorI4sortED2Ev = comdat any

$_ZNK3opt12adjust_valueclERK8rational = comdat any

$_ZN3opt12adjust_value10add_offsetERK8rational = comdat any

$_ZN12inf_rationalC2ERK8rational = comdat any

$_ZN12inf_rationalD2Ev = comdat any

$_ZNK3opt12adjust_valueclERK16inf_eps_rationalI12inf_rationalE = comdat any

$_ZN10opt_params20collect_param_descrsER12param_descrs = comdat any

$_ZN7svectorISt4pairIP4exprjEjED2Ev = comdat any

$_ZN23smt2_pp_environment_dbgC2ER11ast_manager = comdat any

$_ZN11ast_pp_utilC2ER11ast_manager = comdat any

$_ZN11ast_pp_utilD2Ev = comdat any

$_ZN23smt2_pp_environment_dbgD2Ev = comdat any

$_ZN3opt7context14get_proof_coreEv = comdat any

$_ZN3opt7context18set_reason_unknownEPKc = comdat any

$_ZNK3opt7context11get_managerEv = comdat any

$_ZN3opt7context5emptyEv = comdat any

$_ZN3opt7context9is_paretoEv = comdat any

$_ZN3opt7context9set_logicERK6symbol = comdat any

$_ZN3opt7context14num_objectivesEv = comdat any

$_ZN3opt7context2fmEv = comdat any

$_ZN3opt7context11smt_contextEv = comdat any

$_ZNK3opt7context11sat_enabledEv = comdat any

$_ZN3opt7context6paramsEv = comdat any

$_ZNK3opt7context13maxsat_engineEv = comdat any

$_ZThn72_N3opt7context14num_objectivesEv = comdat any

$_ZThn80_N3opt7context2fmEv = comdat any

$_ZThn80_NK3opt7context11sat_enabledEv = comdat any

$_ZThn80_NK3opt7context11get_managerEv = comdat any

$_ZThn80_N3opt7context6paramsEv = comdat any

$_ZThn80_NK3opt7context13maxsat_engineEv = comdat any

$_ZThn80_N3opt7context11smt_contextEv = comdat any

$_ZThn80_N3opt7context14num_objectivesEv = comdat any

$_ZN16check_sat_resultD2Ev = comdat any

$_ZN16check_sat_resultD0Ev = comdat any

$_ZN7svectorIjjED2Ev = comdat any

$_ZN15ref_vector_coreI4expr19ref_manager_wrapperIS0_11ast_managerEED2Ev = comdat any

$_ZN11mpq_managerILb1EE3addERK3mpqS3_RS1_ = comdat any

$_ZN3opt11pareto_baseD2Ev = comdat any

$_ZN3opt11pareto_baseD0Ev = comdat any

$_ZN3opt11pareto_base11updt_paramsER10params_ref = comdat any

$_ZN3opt11pareto_base20collect_param_descrsER12param_descrs = comdat any

$_ZNK3opt11pareto_base18collect_statisticsER10statistics = comdat any

$_ZNK3opt11pareto_base7displayERSo = comdat any

$_ZN3opt11pareto_base9get_modelER3refI5modelER7svectorI6symboljE = comdat any

$_ZN27dependent_expr_state_tacticC2ER11ast_managerRK10params_refPFP25dependent_expr_simplifierS1_S4_R20dependent_expr_stateE = comdat any

$_ZZ19mk_solve_eqs_tacticR11ast_managerRK10params_refENUlRT_RT0_RT1_E_8__invokeIS_S2_20dependent_expr_stateEEP25dependent_expr_simplifierS5_S7_S9_ = comdat any

$_ZN14dependent_exprD2Ev = comdat any

$_ZN27dependent_expr_state_tacticD2Ev = comdat any

$_ZN27dependent_expr_state_tacticD0Ev = comdat any

$_ZN6tactic19user_propagate_initEPvRSt8functionIFvS0_PN15user_propagator8callbackEEERS1_IFvS0_S4_jEERS1_IFS0_S0_R11ast_managerRPNS2_11context_objEEE = comdat any

$_ZN15user_propagator4core29user_propagate_register_fixedERSt8functionIFvPvPNS_8callbackEP4exprS6_EE = comdat any

$_ZN15user_propagator4core29user_propagate_register_finalERSt8functionIFvPvPNS_8callbackEEE = comdat any

$_ZN15user_propagator4core26user_propagate_register_eqERSt8functionIFvPvPNS_8callbackEP4exprS6_EE = comdat any

$_ZN15user_propagator4core29user_propagate_register_diseqERSt8functionIFvPvPNS_8callbackEP4exprS6_EE = comdat any

$_ZN27dependent_expr_state_tactic28user_propagate_register_exprEP4expr = comdat any

$_ZN15user_propagator4core31user_propagate_register_createdERSt8functionIFvPvPNS_8callbackEP4exprEE = comdat any

$_ZN15user_propagator4core30user_propagate_register_decideERSt8functionIFvPvPNS_8callbackEP4exprjbEE = comdat any

$_ZN27dependent_expr_state_tactic20user_propagate_clearEv = comdat any

$_ZN6tactic18register_on_clauseEPvRSt8functionIFvS0_P4exprjPKjjPKS3_EE = comdat any

$_ZN27dependent_expr_state_tactic11updt_paramsERK10params_ref = comdat any

$_ZN27dependent_expr_state_tactic20collect_param_descrsER12param_descrs = comdat any

$_ZN27dependent_expr_state_tacticclERK3refI4goalER11sref_bufferIS1_Lj16EE = comdat any

$_ZNK27dependent_expr_state_tactic18collect_statisticsER10statistics = comdat any

$_ZN27dependent_expr_state_tactic16reset_statisticsEv = comdat any

$_ZN27dependent_expr_state_tactic7cleanupEv = comdat any

$_ZN6tactic5resetEv = comdat any

$_ZN6tactic9set_logicERK6symbol = comdat any

$_ZN6tactic21set_progress_callbackEP17progress_callback = comdat any

$_ZN27dependent_expr_state_tactic9translateER11ast_manager = comdat any

$_ZNK27dependent_expr_state_tactic4nameEv = comdat any

$_ZNK27dependent_expr_state_tactic5qtailEv = comdat any

$_ZN27dependent_expr_state_tacticixEj = comdat any

$_ZN27dependent_expr_state_tactic6updateEjRK14dependent_expr = comdat any

$_ZN27dependent_expr_state_tactic3addERK14dependent_expr = comdat any

$_ZN27dependent_expr_state_tactic12inconsistentEv = comdat any

$_ZN27dependent_expr_state_tactic11model_trailEv = comdat any

$_ZN27dependent_expr_state_tactic7updatedEv = comdat any

$_ZN27dependent_expr_state_tactic13reset_updatedEv = comdat any

$_ZThn16_N27dependent_expr_state_tacticD1Ev = comdat any

$_ZThn16_N27dependent_expr_state_tacticD0Ev = comdat any

$_ZThn16_NK27dependent_expr_state_tactic5qtailEv = comdat any

$_ZThn16_N27dependent_expr_state_tacticixEj = comdat any

$_ZThn16_N27dependent_expr_state_tactic6updateEjRK14dependent_expr = comdat any

$_ZThn16_N27dependent_expr_state_tactic3addERK14dependent_expr = comdat any

$_ZThn16_N27dependent_expr_state_tactic12inconsistentEv = comdat any

$_ZThn16_N27dependent_expr_state_tactic11model_trailEv = comdat any

$_ZN20dependent_expr_state14flatten_suffixEv = comdat any

$_ZThn16_N27dependent_expr_state_tactic7updatedEv = comdat any

$_ZThn16_N27dependent_expr_state_tactic13reset_updatedEv = comdat any

$_ZNK20dependent_expr_state7displayERSo = comdat any

$_ZN6tacticD2Ev = comdat any

$_ZN6tacticD0Ev = comdat any

$_ZN6tactic28user_propagate_register_exprEP4expr = comdat any

$_ZN15user_propagator4core20user_propagate_clearEv = comdat any

$_ZN6tactic11updt_paramsERK10params_ref = comdat any

$_ZN6tactic20collect_param_descrsER12param_descrs = comdat any

$_ZNK6tactic18collect_statisticsER10statistics = comdat any

$_ZN6tactic16reset_statisticsEv = comdat any

$_ZN8ast_markD2Ev = comdat any

$_ZN20dependent_expr_stateD2Ev = comdat any

$_ZN20dependent_expr_stateD0Ev = comdat any

$_ZN8obj_markI4expr10bit_vector14default_t2uintIS0_EED2Ev = comdat any

$_ZN10ptr_vectorI5trailED2Ev = comdat any

$_ZN18dependency_managerIN11ast_manager22expr_dependency_configEE3delEPNS2_10dependencyE = comdat any

$_ZN6vectorIPN18dependency_managerIN11ast_manager22expr_dependency_configEE10dependencyELb0EjE13expand_vectorEv = comdat any

$_ZN26model_reconstruction_trailD2Ev = comdat any

$_ZN26model_reconstruction_trail5entryD2Ev = comdat any

$_ZNSt11_Tuple_implILm0EJ7obj_refI9func_decl11ast_managerES0_I4exprS2_ES0_IN18dependency_managerINS2_22expr_dependency_configEE10dependencyES2_EEED2Ev = comdat any

$_ZN20dependent_expr_state4pushEv = comdat any

$_ZN11value_trailIjED2Ev = comdat any

$_ZN20dependent_expr_state4thawD2Ev = comdat any

$_ZN6vectorIP5trailLb0EjE13expand_vectorEv = comdat any

$_ZN11value_trailIjED0Ev = comdat any

$_ZN11value_trailIjE4undoEv = comdat any

$_ZN20dependent_expr_state4thawD0Ev = comdat any

$_ZN20dependent_expr_state4thaw4undoEv = comdat any

$_ZN27dependent_expr_state_tactic4initEv = comdat any

$_ZN16tactic_exceptionD2Ev = comdat any

$_ZN16tactic_exceptionD0Ev = comdat any

$_ZNK16tactic_exception3msgEv = comdat any

$_ZN14dependent_expraSERKS_ = comdat any

$_ZN14parray_managerIN11ast_manager17expr_array_configEE6rerootERNS2_3refE = comdat any

$_ZN14parray_managerIN11ast_manager17expr_array_configEE6unfoldEPNS2_4cellE = comdat any

$_ZN6vectorIPN14parray_managerIN11ast_manager17expr_array_configEE4cellELb0EjE13expand_vectorEv = comdat any

$_ZN14parray_managerIN11ast_manager17expr_array_configEE10get_valuesEPNS2_4cellERPP4expr = comdat any

$_ZN14parray_managerIN11ast_manager17expr_array_configEE3delEPNS2_4cellE = comdat any

$_ZN14parray_managerIN11ast_manager28expr_dependency_array_configEE6rerootERNS2_3refE = comdat any

$_ZN14parray_managerIN11ast_manager28expr_dependency_array_configEE6unfoldEPNS2_4cellE = comdat any

$_ZN6vectorIPN14parray_managerIN11ast_manager28expr_dependency_array_configEE4cellELb0EjE13expand_vectorEv = comdat any

$_ZN14parray_managerIN11ast_manager28expr_dependency_array_configEE10get_valuesEPNS2_4cellERPPN18dependency_managerINS0_22expr_dependency_configEE10dependencyE = comdat any

$_ZN14parray_managerIN11ast_manager28expr_dependency_array_configEE10rpush_backERPPN18dependency_managerINS0_22expr_dependency_configEE10dependencyERjRKS7_ = comdat any

$_ZN14parray_managerIN11ast_manager28expr_dependency_array_configEE3delEPNS2_4cellE = comdat any

$_ZNSt18bad_variant_accessD2Ev = comdat any

$_ZNSt18bad_variant_accessD0Ev = comdat any

$_ZNKSt18bad_variant_access4whatEv = comdat any

$_ZN23generic_model_converter5entryD2Ev = comdat any

$_ZN6vectorIN23generic_model_converter5entryELb1EjE13expand_vectorEv = comdat any

$_ZN6vectorIN23generic_model_converter5entryELb1EjE16destroy_elementsEv = comdat any

$_ZN16inf_eps_rationalI12inf_rationalEC2ERKS1_ = comdat any

$_ZN12inf_rationalC2ERKS_ = comdat any

$_ZN19smt2_pp_environmentD2Ev = comdat any

$_ZN23smt2_pp_environment_dbgD0Ev = comdat any

$_ZNK23smt2_pp_environment_dbg11get_managerEv = comdat any

$_ZN23smt2_pp_environment_dbg9get_autilEv = comdat any

$_ZN23smt2_pp_environment_dbg10get_bvutilEv = comdat any

$_ZN23smt2_pp_environment_dbg10get_arutilEv = comdat any

$_ZN23smt2_pp_environment_dbg9get_futilEv = comdat any

$_ZN23smt2_pp_environment_dbg9get_sutilEv = comdat any

$_ZN23smt2_pp_environment_dbg10get_dlutilEv = comdat any

$_ZN23smt2_pp_environment_dbg10get_dtutilEv = comdat any

$_ZNK23smt2_pp_environment_dbg4usesERK6symbol = comdat any

$_ZN8seq_util3rexD2Ev = comdat any

$_ZN13stacked_valueIjED2Ev = comdat any

$_ZN13obj_hashtableI9func_declED2Ev = comdat any

$_ZN14decl_collectorD2Ev = comdat any

$_ZNSt7__cxx1112basic_stringIcSt11char_traitsIcESaIcEE12_M_constructIPKcEEvT_S8_St20forward_iterator_tag = comdat any

$_ZZNSt7__cxx1112basic_stringIcSt11char_traitsIcESaIcEE12_M_constructIPKcEEvT_S8_St20forward_iterator_tagEN6_GuardD2Ev = comdat any

$_ZN6vectorIjLb0EjE13expand_vectorEv = comdat any

$_ZN6vectorIP4exprLb0EjE13expand_vectorEv = comdat any

$_ZN6vectorIP9func_declLb0EjE13expand_vectorEv = comdat any

$_ZN14core_hashtableI17default_map_entryI6symboljEN9table2mapIS2_16symbol_hash_proc14symbol_eq_procE15entry_hash_procENS6_13entry_eq_procEE6removeERK9_key_dataIS1_jE = comdat any

$_ZN14core_hashtableI17default_map_entryI6symboljEN9table2mapIS2_16symbol_hash_proc14symbol_eq_procE15entry_hash_procENS6_13entry_eq_procEE22remove_deleted_entriesEv = comdat any

$_ZN6vectorIN3opt7context9objectiveELb1EjE13expand_vectorEv = comdat any

$_ZSt16__do_uninit_copyISt13move_iteratorIPN3opt7context9objectiveEES4_ET0_T_S7_S6_ = comdat any

$_ZN14core_hashtableI17default_map_entryI6symboljEN9table2mapIS2_16symbol_hash_proc14symbol_eq_procE15entry_hash_procENS6_13entry_eq_procEE6insertEO9_key_dataIS1_jE = comdat any

$_ZN14core_hashtableI17default_map_entryI6symboljEN9table2mapIS2_16symbol_hash_proc14symbol_eq_procE15entry_hash_procENS6_13entry_eq_procEE12expand_tableEv = comdat any

$_ZN6vectorI8rationalLb1EjE13expand_vectorEv = comdat any

$_ZSt8_DestroyIP8rationalEvT_S2_ = comdat any

$_ZN3opt6maxsmtD2Ev = comdat any

$_ZN6vectorIN3opt4softELb1EjE16destroy_elementsEv = comdat any

$_ZN6vectorI6symbolLb0EjE13expand_vectorEv = comdat any

$_ZN16inf_eps_rationalI12inf_rationalEC2ERK8rationalRKS0_ = comdat any

$_ZN3opt7context9objectiveC2ERKS1_ = comdat any

$_ZSt16__do_uninit_copyIPK8rationalPS0_ET0_T_S5_S4_ = comdat any

$_ZN6vectorIP5modelLb0EjE13expand_vectorEv = comdat any

$_ZNK16inf_eps_rationalI12inf_rationalE9to_stringB5cxx11Ev = comdat any

$_ZNK12inf_rational9to_stringB5cxx11Ev = comdat any

$_Z3absRK8rational = comdat any

$_Z18for_each_expr_coreIN3opt7context5is_fdE13ast_fast_markILj1EELb0ELb0EEvRT_RT0_P4expr = comdat any

$_ZN3opt7context5is_fdclEP3app = comdat any

$_ZN7sbufferISt4pairIP4exprjELj16EED2Ev = comdat any

$_Z18for_each_expr_coreIN3opt7context19is_propositional_fnE13ast_fast_markILj1EELb0ELb0EEvRT_RT0_P4expr = comdat any

$_ZN14core_hashtableI17default_map_entryI6symbolPN3opt6maxsmtEEN9table2mapIS5_16symbol_hash_proc14symbol_eq_procE15entry_hash_procENS9_13entry_eq_procEE6insertEO9_key_dataIS1_S4_E = comdat any

$_ZN14core_hashtableI17default_map_entryI6symbolPN3opt6maxsmtEEN9table2mapIS5_16symbol_hash_proc14symbol_eq_procE15entry_hash_procENS9_13entry_eq_procEE12expand_tableEv = comdat any

$_ZN6vectorIP4sortLb0EjE13expand_vectorEv = comdat any

$_ZN14core_hashtableIN7obj_mapI9func_decljE13obj_map_entryE8obj_hashINS2_8key_dataEE10default_eqIS5_EE6insertEOS5_ = comdat any

$_ZN14core_hashtableIN7obj_mapI9func_decljE13obj_map_entryE8obj_hashINS2_8key_dataEE10default_eqIS5_EE12expand_tableEv = comdat any

$_ZN14core_hashtableIN7obj_mapI9func_declP4exprE13obj_map_entryE8obj_hashINS4_8key_dataEE10default_eqIS7_EE6insertEOS7_ = comdat any

$_ZN14core_hashtableIN7obj_mapI9func_declP4exprE13obj_map_entryE8obj_hashINS4_8key_dataEE10default_eqIS7_EE12expand_tableEv = comdat any

$_ZeqRK12inf_rationalS1_ = comdat any

$_ZTSN3opt7context5is_fd8found_fdE = comdat any

$_ZTIN3opt7context5is_fd8found_fdE = comdat any

$_ZTSN3opt7context19is_propositional_fn5foundE = comdat any

$_ZTIN3opt7context19is_propositional_fn5foundE = comdat any

$_ZTS11opt_wrapper = comdat any

$_ZTS16check_sat_result = comdat any

$_ZTI16check_sat_result = comdat any

$_ZTI11opt_wrapper = comdat any

$_ZTSN3opt15pareto_callbackE = comdat any

$_ZTIN3opt15pareto_callbackE = comdat any

$_ZTSN3opt14maxsat_contextE = comdat any

$_ZTIN3opt14maxsat_contextE = comdat any

$_ZTV16check_sat_result = comdat any

$_ZTVN3opt11pareto_baseE = comdat any

$_ZTSN3opt11pareto_baseE = comdat any

$_ZTIN3opt11pareto_baseE = comdat any

$_ZZNSt8__detail18__to_chars_10_implIjEEvPcjT_E8__digits = comdat any

$_ZTV27dependent_expr_state_tactic = comdat any

$_ZTS27dependent_expr_state_tactic = comdat any

$_ZTS6tactic = comdat any

$_ZTSN15user_propagator4coreE = comdat any

$_ZTIN15user_propagator4coreE = comdat any

$_ZTI6tactic = comdat any

$_ZTS20dependent_expr_state = comdat any

$_ZTI20dependent_expr_state = comdat any

$_ZTI27dependent_expr_state_tactic = comdat any

$_ZTV6tactic = comdat any

$_ZTV20dependent_expr_state = comdat any

$_ZTV11value_trailIjE = comdat any

$_ZTS11value_trailIjE = comdat any

$_ZTS5trail = comdat any

$_ZTI5trail = comdat any

$_ZTI11value_trailIjE = comdat any

$_ZTVN20dependent_expr_state4thawE = comdat any

$_ZTSN20dependent_expr_state4thawE = comdat any

$_ZTIN20dependent_expr_state4thawE = comdat any

$_ZTS18rewriter_exception = comdat any

$_ZTI18rewriter_exception = comdat any

$_ZTS16tactic_exception = comdat any

$_ZTI16tactic_exception = comdat any

$_ZTV16tactic_exception = comdat any

$_ZTSSt18bad_variant_access = comdat any

$_ZTISt18bad_variant_access = comdat any

$_ZTVSt18bad_variant_access = comdat any

$_ZTV23smt2_pp_environment_dbg = comdat any

$_ZTS23smt2_pp_environment_dbg = comdat any

$_ZTI23smt2_pp_environment_dbg = comdat any

@_ZStL8__ioinit = internal global %"class.std::ios_base::Init" zeroinitializer, align 1
@__dso_handle = external hidden global i8
@.str = private unnamed_addr constant [34 x i8] c"Soft constraint should be Boolean\00", align 1
@_ZTI17default_exception = external constant ptr
@.str.7 = private unnamed_addr constant [46 x i8] c"Objective must be bit-vector, integer or real\00", align 1
@_ZTVN3opt7contextE = hidden unnamed_addr constant { [40 x ptr], [9 x ptr], [19 x ptr] } { [40 x ptr] [ptr null, ptr @_ZTIN3opt7contextE, ptr @_ZN3opt7contextD2Ev, ptr @_ZN3opt7contextD0Ev, ptr @_ZNK3opt7context18collect_statisticsER10statistics, ptr @_ZN3opt7context14get_unsat_coreER10ref_vectorI4expr11ast_managerE, ptr @_ZN3opt7context14get_model_coreER3refI5modelE, ptr @_ZN3opt7context14get_proof_coreEv, ptr @_ZNK3opt7context14reason_unknownB5cxx11Ev, ptr @_ZN3opt7context18set_reason_unknownEPKc, ptr @_ZN3opt7context10get_labelsER7svectorI6symboljE, ptr @_ZNK3opt7context11get_managerEv, ptr @_ZN3opt7context5emptyEv, ptr @_ZN3opt7context4pushEv, ptr @_ZN3opt7context3popEj, ptr @_ZN3opt7context8optimizeERK10ref_vectorI4expr11ast_managerE, ptr @_ZN3opt7context20set_hard_constraintsERK10ref_vectorI4expr11ast_managerE, ptr @_ZN3opt7context18display_assignmentERSo, ptr @_ZN3opt7context9is_paretoEv, ptr @_ZN3opt7context9set_logicERK6symbol, ptr @_ZN3opt7context13get_box_modelER3refI5modelEj, ptr @_ZN3opt7context11updt_paramsERK10params_ref, ptr @_ZN3opt7context9set_modelER3refI5modelE, ptr @_ZN3opt7context9fix_modelER3refI5modelE, ptr @_ZN3opt7context14num_objectivesEv, ptr @_ZN3opt7context5mk_gtEjR3refI5modelE, ptr @_ZN3opt7context5mk_geEjR3refI5modelE, ptr @_ZN3opt7context5mk_leEjR3refI5modelE, ptr @_ZN3opt7context2fmEv, ptr @_ZN3opt7context11smt_contextEv, ptr @_ZNK3opt7context11sat_enabledEv, ptr @_ZN3opt7context10get_solverEv, ptr @_ZN3opt7context6paramsEv, ptr @_ZN3opt7context10enable_slsEb, ptr @_ZNK3opt7context13maxsat_engineEv, ptr @_ZN3opt7context14get_base_modelER3refI5modelE, ptr @_ZN3opt7context12verify_modelEjP5modelRK8rational, ptr @_ZN3opt7context13model_updatedEP5model, ptr @_ZN3opt7context6adjustEjRK8rational, ptr @_ZN3opt7context10add_offsetEjRK8rational], [9 x ptr] [ptr inttoptr (i64 -72 to ptr), ptr @_ZTIN3opt7contextE, ptr @_ZThn72_N3opt7contextD1Ev, ptr @_ZThn72_N3opt7contextD0Ev, ptr @_ZThn72_N3opt7context14num_objectivesEv, ptr @_ZThn72_N3opt7context5mk_gtEjR3refI5modelE, ptr @_ZThn72_N3opt7context5mk_geEjR3refI5modelE, ptr @_ZThn72_N3opt7context5mk_leEjR3refI5modelE, ptr @_ZThn72_N3opt7context9fix_modelER3refI5modelE], [19 x ptr] [ptr inttoptr (i64 -80 to ptr), ptr @_ZTIN3opt7contextE, ptr @_ZThn80_N3opt7contextD1Ev, ptr @_ZThn80_N3opt7contextD0Ev, ptr @_ZThn80_N3opt7context2fmEv, ptr @_ZThn80_NK3opt7context11sat_enabledEv, ptr @_ZThn80_N3opt7context10get_solverEv, ptr @_ZThn80_NK3opt7context11get_managerEv, ptr @_ZThn80_N3opt7context6paramsEv, ptr @_ZThn80_N3opt7context10enable_slsEb, ptr @_ZThn80_NK3opt7context13maxsat_engineEv, ptr @_ZThn80_N3opt7context14get_base_modelER3refI5modelE, ptr @_ZThn80_N3opt7context11smt_contextEv, ptr @_ZThn80_N3opt7context14num_objectivesEv, ptr @_ZThn80_N3opt7context12verify_modelEjP5modelRK8rational, ptr @_ZThn80_N3opt7context6adjustEjRK8rational, ptr @_ZThn80_N3opt7context10add_offsetEjRK8rational, ptr @_ZThn80_N3opt7context9set_modelER3refI5modelE, ptr @_ZThn80_N3opt7context13model_updatedEP5model] }, align 8
@.str.8 = private unnamed_addr constant [4 x i8] c"opt\00", align 1
@.str.9 = private unnamed_addr constant [8 x i8] c"unknown\00", align 1
@.str.10 = private unnamed_addr constant [6 x i8] c"model\00", align 1
@.str.11 = private unnamed_addr constant [11 x i8] c"unsat_core\00", align 1
@.str.12 = private unnamed_addr constant [13 x i8] c"elim_to_real\00", align 1
@.str.13 = private unnamed_addr constant [69 x i8] c"Set opt.incremental = true to allow adding constraints during search\00", align 1
@.str.14 = private unnamed_addr constant [58 x i8] c"adding hard constraints is not supported during callbacks\00", align 1
@.str.15 = private unnamed_addr constant [107 x i8] c"generated/home/dtcxzyw/WorkSpace/Projects/compilers/llvm-opt-benchmark/bench/z3/z3/src/opt/opt_context.cpp\00", align 1
@.str.16 = private unnamed_addr constant [29 x i8] c"UNEXPECTED CODE WAS REACHED.\00", align 1
@.str.17 = private unnamed_addr constant [58 x i8] c"optimization with quantified constraints is not supported\00", align 1
@.str.18 = private unnamed_addr constant [22 x i8] c"(optimize:check-sat)\0A\00", align 1
@.str.19 = private unnamed_addr constant [16 x i8] c"(optimize:sat)\0A\00", align 1
@.str.20 = private unnamed_addr constant [7 x i8] c"pareto\00", align 1
@.str.21 = private unnamed_addr constant [4 x i8] c"box\00", align 1
@.str.22 = private unnamed_addr constant [35 x i8] c"index into models is out of bounds\00", align 1
@.str.23 = private unnamed_addr constant [64 x i8] c"unbounded objectives on quantified constraints is not supported\00", align 1
@.str.24 = private unnamed_addr constant [7 x i8] c"maxres\00", align 1
@.str.25 = private unnamed_addr constant [12 x i8] c"(opt :lex)\0A\00", align 1
@_ZN11common_msgs14g_canceled_msgE = external local_unnamed_addr global ptr, align 8
@.str.26 = private unnamed_addr constant [7 x i8] c" |-> [\00", align 1
@.str.27 = private unnamed_addr constant [2 x i8] c":\00", align 1
@.str.28 = private unnamed_addr constant [3 x i8] c"]\0A\00", align 1
@.str.29 = private unnamed_addr constant [6 x i8] c"symba\00", align 1
@.str.30 = private unnamed_addr constant [7 x i8] c"farkas\00", align 1
@.str.31 = private unnamed_addr constant [17 x i8] c"smt.arith.solver\00", align 1
@.str.32 = private unnamed_addr constant [4 x i8] c"rc2\00", align 1
@.str.33 = private unnamed_addr constant [7 x i8] c"rc2tot\00", align 1
@.str.34 = private unnamed_addr constant [7 x i8] c"rc2bin\00", align 1
@.str.35 = private unnamed_addr constant [11 x i8] c"maxres-bin\00", align 1
@.str.36 = private unnamed_addr constant [17 x i8] c"maxres-bin-delay\00", align 1
@.str.37 = private unnamed_addr constant [10 x i8] c"pd-maxres\00", align 1
@.str.38 = private unnamed_addr constant [5 x i8] c"bcd2\00", align 1
@.str.39 = private unnamed_addr constant [4 x i8] c"sls\00", align 1
@.str.40 = private unnamed_addr constant [22 x i8] c"minimize_core_partial\00", align 1
@.str.41 = private unnamed_addr constant [14 x i8] c"minimize_core\00", align 1
@.str.42 = private unnamed_addr constant [15 x i8] c"optimize_model\00", align 1
@_ZTVN10__cxxabiv117__class_type_infoE = external global [0 x ptr]
@_ZTSN3opt7context5is_fd8found_fdE = linkonce_odr hidden constant [30 x i8] c"N3opt7context5is_fd8found_fdE\00", comdat, align 1
@_ZTIN3opt7context5is_fd8found_fdE = linkonce_odr hidden constant { ptr, ptr } { ptr getelementptr inbounds (ptr, ptr @_ZTVN10__cxxabiv117__class_type_infoE, i64 2), ptr @_ZTSN3opt7context5is_fd8found_fdE }, comdat, align 8
@_ZTSN3opt7context19is_propositional_fn5foundE = linkonce_odr hidden constant [42 x i8] c"N3opt7context19is_propositional_fn5foundE\00", comdat, align 1
@_ZTIN3opt7context19is_propositional_fn5foundE = linkonce_odr hidden constant { ptr, ptr } { ptr getelementptr inbounds (ptr, ptr @_ZTVN10__cxxabiv117__class_type_infoE, i64 2), ptr @_ZTSN3opt7context19is_propositional_fn5foundE }, comdat, align 8
@.str.43 = private unnamed_addr constant [17 x i8] c"compile_equality\00", align 1
@.str.44 = private unnamed_addr constant [3 x i8] c": \00", align 1
@.str.45 = private unnamed_addr constant [11 x i8] c" |-> true\0A\00", align 1
@.str.46 = private unnamed_addr constant [12 x i8] c" |-> false\0A\00", align 1
@.str.47 = private unnamed_addr constant [1 x i8] zeroinitializer, align 1
@.str.48 = private unnamed_addr constant [9 x i8] c"maximize\00", align 1
@.str.49 = private unnamed_addr constant [9 x i8] c"minimize\00", align 1
@.str.50 = private unnamed_addr constant [7 x i8] c"maxsat\00", align 1
@.str.51 = private unnamed_addr constant [53 x i8] c"check-sat has not been called with latest objectives\00", align 1
@.str.52 = private unnamed_addr constant [13 x i8] c"(objectives\0A\00", align 1
@.str.53 = private unnamed_addr constant [3 x i8] c" (\00", align 1
@.str.54 = private unnamed_addr constant [13 x i8] c"  (interval \00", align 1
@.str.55 = private unnamed_addr constant [2 x i8] c" \00", align 1
@.str.56 = private unnamed_addr constant [2 x i8] c")\00", align 1
@.str.57 = private unnamed_addr constant [3 x i8] c")\0A\00", align 1
@_ZN6symbol4nullE = external global %class.symbol, align 8
@.str.58 = private unnamed_addr constant [20 x i8] c"index out of bounds\00", align 1
@.str.59 = private unnamed_addr constant [3 x i8] c"oo\00", align 1
@.str.60 = private unnamed_addr constant [8 x i8] c"epsilon\00", align 1
@.str.61 = private unnamed_addr constant [63 x i8] c"only single objective weighted MaxSAT wcnf output is supported\00", align 1
@.str.62 = private unnamed_addr constant [11 x i8] c"(maximize \00", align 1
@.str.63 = private unnamed_addr constant [11 x i8] c"(minimize \00", align 1
@.str.64 = private unnamed_addr constant [14 x i8] c"(assert-soft \00", align 1
@.str.65 = private unnamed_addr constant [10 x i8] c" :weight \00", align 1
@.str.66 = private unnamed_addr constant [6 x i8] c" :id \00", align 1
@.str.67 = private unnamed_addr constant [13 x i8] c"(check-sat)\0A\00", align 1
@_ZTVN10__cxxabiv121__vmi_class_type_infoE = external global [0 x ptr]
@_ZTSN3opt7contextE = hidden constant [15 x i8] c"N3opt7contextE\00", align 1
@_ZTVN10__cxxabiv120__si_class_type_infoE = external global [0 x ptr]
@_ZTS11opt_wrapper = linkonce_odr hidden constant [14 x i8] c"11opt_wrapper\00", comdat, align 1
@_ZTS16check_sat_result = linkonce_odr hidden constant [19 x i8] c"16check_sat_result\00", comdat, align 1
@_ZTI16check_sat_result = linkonce_odr hidden constant { ptr, ptr } { ptr getelementptr inbounds (ptr, ptr @_ZTVN10__cxxabiv117__class_type_infoE, i64 2), ptr @_ZTS16check_sat_result }, comdat, align 8
@_ZTI11opt_wrapper = linkonce_odr hidden constant { ptr, ptr, ptr } { ptr getelementptr inbounds (ptr, ptr @_ZTVN10__cxxabiv120__si_class_type_infoE, i64 2), ptr @_ZTS11opt_wrapper, ptr @_ZTI16check_sat_result }, comdat, align 8
@_ZTSN3opt15pareto_callbackE = linkonce_odr hidden constant [24 x i8] c"N3opt15pareto_callbackE\00", comdat, align 1
@_ZTIN3opt15pareto_callbackE = linkonce_odr hidden constant { ptr, ptr } { ptr getelementptr inbounds (ptr, ptr @_ZTVN10__cxxabiv117__class_type_infoE, i64 2), ptr @_ZTSN3opt15pareto_callbackE }, comdat, align 8
@_ZTSN3opt14maxsat_contextE = linkonce_odr hidden constant [23 x i8] c"N3opt14maxsat_contextE\00", comdat, align 1
@_ZTIN3opt14maxsat_contextE = linkonce_odr hidden constant { ptr, ptr } { ptr getelementptr inbounds (ptr, ptr @_ZTVN10__cxxabiv117__class_type_infoE, i64 2), ptr @_ZTSN3opt14maxsat_contextE }, comdat, align 8
@_ZTIN3opt7contextE = hidden constant { ptr, ptr, i32, i32, ptr, i64, ptr, i64, ptr, i64 } { ptr getelementptr inbounds (ptr, ptr @_ZTVN10__cxxabiv121__vmi_class_type_infoE, i64 2), ptr @_ZTSN3opt7contextE, i32 0, i32 3, ptr @_ZTI11opt_wrapper, i64 2, ptr @_ZTIN3opt15pareto_callbackE, i64 18434, ptr @_ZTIN3opt14maxsat_contextE, i64 20482 }, align 8
@_ZTV17default_exception = external unnamed_addr constant { [6 x ptr] }, align 8
@_ZN8rational13g_mpq_managerE = external local_unnamed_addr global ptr, align 8
@_ZTV16check_sat_result = linkonce_odr hidden unnamed_addr constant { [12 x ptr] } { [12 x ptr] [ptr null, ptr @_ZTI16check_sat_result, ptr @_ZN16check_sat_resultD2Ev, ptr @_ZN16check_sat_resultD0Ev, ptr @__cxa_pure_virtual, ptr @__cxa_pure_virtual, ptr @__cxa_pure_virtual, ptr @__cxa_pure_virtual, ptr @__cxa_pure_virtual, ptr @__cxa_pure_virtual, ptr @__cxa_pure_virtual, ptr @__cxa_pure_virtual] }, comdat, align 8
@_ZTV23generic_model_converter = external unnamed_addr constant { [12 x ptr] }, align 8
@.str.68 = private unnamed_addr constant [9 x i8] c"priority\00", align 1
@.str.69 = private unnamed_addr constant [4 x i8] c"lex\00", align 1
@.str.70 = private unnamed_addr constant [12 x i8] c"dump_models\00", align 1
@_ZN3app16g_constant_flagsE = external local_unnamed_addr global %struct.app_flags, align 4
@.str.71 = private unnamed_addr constant [3 x i8] c"pb\00", align 1
@_ZTVN3opt10gia_paretoE = external unnamed_addr constant { [10 x ptr] }, align 8
@_ZTVN3opt11pareto_baseE = linkonce_odr hidden unnamed_addr constant { [10 x ptr] } { [10 x ptr] [ptr null, ptr @_ZTIN3opt11pareto_baseE, ptr @_ZN3opt11pareto_baseD2Ev, ptr @_ZN3opt11pareto_baseD0Ev, ptr @_ZN3opt11pareto_base11updt_paramsER10params_ref, ptr @_ZN3opt11pareto_base20collect_param_descrsER12param_descrs, ptr @_ZNK3opt11pareto_base18collect_statisticsER10statistics, ptr @_ZNK3opt11pareto_base7displayERSo, ptr @__cxa_pure_virtual, ptr @_ZN3opt11pareto_base9get_modelER3refI5modelER7svectorI6symboljE] }, comdat, align 8
@_ZTSN3opt11pareto_baseE = linkonce_odr hidden constant [20 x i8] c"N3opt11pareto_baseE\00", comdat, align 1
@_ZTIN3opt11pareto_baseE = linkonce_odr hidden constant { ptr, ptr } { ptr getelementptr inbounds (ptr, ptr @_ZTVN10__cxxabiv117__class_type_infoE, i64 2), ptr @_ZTSN3opt11pareto_baseE }, comdat, align 8
@.str.72 = private unnamed_addr constant [14 x i8] c"optsmt_engine\00", align 1
@.str.73 = private unnamed_addr constant [6 x i8] c"basic\00", align 1
@_ZZNSt8__detail18__to_chars_10_implIjEEvPcjT_E8__digits = linkonce_odr local_unnamed_addr constant [201 x i8] c"00010203040506070809101112131415161718192021222324252627282930313233343536373839404142434445464748495051525354555657585960616263646566676869707172737475767778798081828384858687888990919293949596979899\00", comdat, align 16
@.str.74 = private unnamed_addr constant [4 x i8] c"sat\00", align 1
@.str.75 = private unnamed_addr constant [4 x i8] c"euf\00", align 1
@_ZTV27dependent_expr_state_tactic = linkonce_odr hidden unnamed_addr constant { [33 x ptr], [14 x ptr] } { [33 x ptr] [ptr null, ptr @_ZTI27dependent_expr_state_tactic, ptr @_ZN27dependent_expr_state_tacticD2Ev, ptr @_ZN27dependent_expr_state_tacticD0Ev, ptr @_ZN6tactic19user_propagate_initEPvRSt8functionIFvS0_PN15user_propagator8callbackEEERS1_IFvS0_S4_jEERS1_IFS0_S0_R11ast_managerRPNS2_11context_objEEE, ptr @_ZN15user_propagator4core29user_propagate_register_fixedERSt8functionIFvPvPNS_8callbackEP4exprS6_EE, ptr @_ZN15user_propagator4core29user_propagate_register_finalERSt8functionIFvPvPNS_8callbackEEE, ptr @_ZN15user_propagator4core26user_propagate_register_eqERSt8functionIFvPvPNS_8callbackEP4exprS6_EE, ptr @_ZN15user_propagator4core29user_propagate_register_diseqERSt8functionIFvPvPNS_8callbackEP4exprS6_EE, ptr @_ZN27dependent_expr_state_tactic28user_propagate_register_exprEP4expr, ptr @_ZN15user_propagator4core31user_propagate_register_createdERSt8functionIFvPvPNS_8callbackEP4exprEE, ptr @_ZN15user_propagator4core30user_propagate_register_decideERSt8functionIFvPvPNS_8callbackEP4exprjbEE, ptr @_ZN27dependent_expr_state_tactic20user_propagate_clearEv, ptr @_ZN6tactic18register_on_clauseEPvRSt8functionIFvS0_P4exprjPKjjPKS3_EE, ptr @_ZN27dependent_expr_state_tactic11updt_paramsERK10params_ref, ptr @_ZN27dependent_expr_state_tactic20collect_param_descrsER12param_descrs, ptr @_ZN27dependent_expr_state_tacticclERK3refI4goalER11sref_bufferIS1_Lj16EE, ptr @_ZNK27dependent_expr_state_tactic18collect_statisticsER10statistics, ptr @_ZN27dependent_expr_state_tactic16reset_statisticsEv, ptr @_ZN27dependent_expr_state_tactic7cleanupEv, ptr @_ZN6tactic5resetEv, ptr @_ZN6tactic9set_logicERK6symbol, ptr @_ZN6tactic21set_progress_callbackEP17progress_callback, ptr @_ZN27dependent_expr_state_tactic9translateER11ast_manager, ptr @_ZNK27dependent_expr_state_tactic4nameEv, ptr @_ZNK27dependent_expr_state_tactic5qtailEv, ptr @_ZN27dependent_expr_state_tacticixEj, ptr @_ZN27dependent_expr_state_tactic6updateEjRK14dependent_expr, ptr @_ZN27dependent_expr_state_tactic3addERK14dependent_expr, ptr @_ZN27dependent_expr_state_tactic12inconsistentEv, ptr @_ZN27dependent_expr_state_tactic11model_trailEv, ptr @_ZN27dependent_expr_state_tactic7updatedEv, ptr @_ZN27dependent_expr_state_tactic13reset_updatedEv], [14 x ptr] [ptr inttoptr (i64 -16 to ptr), ptr @_ZTI27dependent_expr_state_tactic, ptr @_ZThn16_N27dependent_expr_state_tacticD1Ev, ptr @_ZThn16_N27dependent_expr_state_tacticD0Ev, ptr @_ZThn16_NK27dependent_expr_state_tactic5qtailEv, ptr @_ZThn16_N27dependent_expr_state_tacticixEj, ptr @_ZThn16_N27dependent_expr_state_tactic6updateEjRK14dependent_expr, ptr @_ZThn16_N27dependent_expr_state_tactic3addERK14dependent_expr, ptr @_ZThn16_N27dependent_expr_state_tactic12inconsistentEv, ptr @_ZThn16_N27dependent_expr_state_tactic11model_trailEv, ptr @_ZN20dependent_expr_state14flatten_suffixEv, ptr @_ZThn16_N27dependent_expr_state_tactic7updatedEv, ptr @_ZThn16_N27dependent_expr_state_tactic13reset_updatedEv, ptr @_ZNK20dependent_expr_state7displayERSo] }, comdat, align 8
@_ZTS27dependent_expr_state_tactic = linkonce_odr hidden constant [30 x i8] c"27dependent_expr_state_tactic\00", comdat, align 1
@_ZTS6tactic = linkonce_odr hidden constant [8 x i8] c"6tactic\00", comdat, align 1
@_ZTSN15user_propagator4coreE = linkonce_odr hidden constant [25 x i8] c"N15user_propagator4coreE\00", comdat, align 1
@_ZTIN15user_propagator4coreE = linkonce_odr hidden constant { ptr, ptr } { ptr getelementptr inbounds (ptr, ptr @_ZTVN10__cxxabiv117__class_type_infoE, i64 2), ptr @_ZTSN15user_propagator4coreE }, comdat, align 8
@_ZTI6tactic = linkonce_odr hidden constant { ptr, ptr, ptr } { ptr getelementptr inbounds (ptr, ptr @_ZTVN10__cxxabiv120__si_class_type_infoE, i64 2), ptr @_ZTS6tactic, ptr @_ZTIN15user_propagator4coreE }, comdat, align 8
@_ZTS20dependent_expr_state = linkonce_odr hidden constant [23 x i8] c"20dependent_expr_state\00", comdat, align 1
@_ZTI20dependent_expr_state = linkonce_odr hidden constant { ptr, ptr } { ptr getelementptr inbounds (ptr, ptr @_ZTVN10__cxxabiv117__class_type_infoE, i64 2), ptr @_ZTS20dependent_expr_state }, comdat, align 8
@_ZTI27dependent_expr_state_tactic = linkonce_odr hidden constant { ptr, ptr, i32, i32, ptr, i64, ptr, i64 } { ptr getelementptr inbounds (ptr, ptr @_ZTVN10__cxxabiv121__vmi_class_type_infoE, i64 2), ptr @_ZTS27dependent_expr_state_tactic, i32 0, i32 2, ptr @_ZTI6tactic, i64 2, ptr @_ZTI20dependent_expr_state, i64 4098 }, comdat, align 8
@_ZTV6tactic = linkonce_odr hidden unnamed_addr constant { [25 x ptr] } { [25 x ptr] [ptr null, ptr @_ZTI6tactic, ptr @_ZN6tacticD2Ev, ptr @_ZN6tacticD0Ev, ptr @_ZN6tactic19user_propagate_initEPvRSt8functionIFvS0_PN15user_propagator8callbackEEERS1_IFvS0_S4_jEERS1_IFS0_S0_R11ast_managerRPNS2_11context_objEEE, ptr @_ZN15user_propagator4core29user_propagate_register_fixedERSt8functionIFvPvPNS_8callbackEP4exprS6_EE, ptr @_ZN15user_propagator4core29user_propagate_register_finalERSt8functionIFvPvPNS_8callbackEEE, ptr @_ZN15user_propagator4core26user_propagate_register_eqERSt8functionIFvPvPNS_8callbackEP4exprS6_EE, ptr @_ZN15user_propagator4core29user_propagate_register_diseqERSt8functionIFvPvPNS_8callbackEP4exprS6_EE, ptr @_ZN6tactic28user_propagate_register_exprEP4expr, ptr @_ZN15user_propagator4core31user_propagate_register_createdERSt8functionIFvPvPNS_8callbackEP4exprEE, ptr @_ZN15user_propagator4core30user_propagate_register_decideERSt8functionIFvPvPNS_8callbackEP4exprjbEE, ptr @_ZN15user_propagator4core20user_propagate_clearEv, ptr @_ZN6tactic18register_on_clauseEPvRSt8functionIFvS0_P4exprjPKjjPKS3_EE, ptr @_ZN6tactic11updt_paramsERK10params_ref, ptr @_ZN6tactic20collect_param_descrsER12param_descrs, ptr @__cxa_pure_virtual, ptr @_ZNK6tactic18collect_statisticsER10statistics, ptr @_ZN6tactic16reset_statisticsEv, ptr @__cxa_pure_virtual, ptr @_ZN6tactic5resetEv, ptr @_ZN6tactic9set_logicERK6symbol, ptr @_ZN6tactic21set_progress_callbackEP17progress_callback, ptr @__cxa_pure_virtual, ptr @__cxa_pure_virtual] }, comdat, align 8
@.str.76 = private unnamed_addr constant [54 x i8] c"user-propagators are only supported on the SMT solver\00", align 1
@_ZTV20dependent_expr_state = linkonce_odr hidden unnamed_addr constant { [14 x ptr] } { [14 x ptr] [ptr null, ptr @_ZTI20dependent_expr_state, ptr @_ZN20dependent_expr_stateD2Ev, ptr @_ZN20dependent_expr_stateD0Ev, ptr @__cxa_pure_virtual, ptr @__cxa_pure_virtual, ptr @__cxa_pure_virtual, ptr @__cxa_pure_virtual, ptr @__cxa_pure_virtual, ptr @__cxa_pure_virtual, ptr @_ZN20dependent_expr_state14flatten_suffixEv, ptr @__cxa_pure_virtual, ptr @__cxa_pure_virtual, ptr @_ZNK20dependent_expr_state7displayERSo] }, comdat, align 8
@_ZTV8ast_mark = external unnamed_addr constant { [6 x ptr] }, align 8
@.str.78 = private unnamed_addr constant [43 x i8] c"Overflow encountered when expanding vector\00", align 1
@.str.79 = private unnamed_addr constant [41 x i8] c"tactic does not support user propagation\00", align 1
@_ZTV11value_trailIjE = linkonce_odr hidden unnamed_addr constant { [5 x ptr] } { [5 x ptr] [ptr null, ptr @_ZTI11value_trailIjE, ptr @_ZN11value_trailIjED2Ev, ptr @_ZN11value_trailIjED0Ev, ptr @_ZN11value_trailIjE4undoEv] }, comdat, align 8
@_ZTS11value_trailIjE = linkonce_odr hidden constant [17 x i8] c"11value_trailIjE\00", comdat, align 1
@_ZTS5trail = linkonce_odr hidden constant [7 x i8] c"5trail\00", comdat, align 1
@_ZTI5trail = linkonce_odr hidden constant { ptr, ptr } { ptr getelementptr inbounds (ptr, ptr @_ZTVN10__cxxabiv117__class_type_infoE, i64 2), ptr @_ZTS5trail }, comdat, align 8
@_ZTI11value_trailIjE = linkonce_odr hidden constant { ptr, ptr, ptr } { ptr getelementptr inbounds (ptr, ptr @_ZTVN10__cxxabiv120__si_class_type_infoE, i64 2), ptr @_ZTS11value_trailIjE, ptr @_ZTI5trail }, comdat, align 8
@_ZTVN20dependent_expr_state4thawE = linkonce_odr hidden unnamed_addr constant { [5 x ptr] } { [5 x ptr] [ptr null, ptr @_ZTIN20dependent_expr_state4thawE, ptr @_ZN20dependent_expr_state4thawD2Ev, ptr @_ZN20dependent_expr_state4thawD0Ev, ptr @_ZN20dependent_expr_state4thaw4undoEv] }, comdat, align 8
@_ZTSN20dependent_expr_state4thawE = linkonce_odr hidden constant [30 x i8] c"N20dependent_expr_state4thawE\00", comdat, align 1
@_ZTIN20dependent_expr_state4thawE = linkonce_odr hidden constant { ptr, ptr, ptr } { ptr getelementptr inbounds (ptr, ptr @_ZTVN10__cxxabiv120__si_class_type_infoE, i64 2), ptr @_ZTSN20dependent_expr_state4thawE, ptr @_ZTI5trail }, comdat, align 8
@.str.80 = private unnamed_addr constant [39 x i8] c"tactic does not support clause logging\00", align 1
@_ZTS18rewriter_exception = linkonce_odr hidden constant [21 x i8] c"18rewriter_exception\00", comdat, align 1
@_ZTI18rewriter_exception = linkonce_odr hidden constant { ptr, ptr, ptr } { ptr getelementptr inbounds (ptr, ptr @_ZTVN10__cxxabiv120__si_class_type_infoE, i64 2), ptr @_ZTS18rewriter_exception, ptr @_ZTI17default_exception }, comdat, align 8
@_ZTS16tactic_exception = linkonce_odr hidden constant [19 x i8] c"16tactic_exception\00", comdat, align 1
@_ZTI12z3_exception = external constant ptr
@_ZTI16tactic_exception = linkonce_odr hidden constant { ptr, ptr, ptr } { ptr getelementptr inbounds (ptr, ptr @_ZTVN10__cxxabiv120__si_class_type_infoE, i64 2), ptr @_ZTS16tactic_exception, ptr @_ZTI12z3_exception }, comdat, align 8
@_ZTV16tactic_exception = linkonce_odr hidden unnamed_addr constant { [6 x ptr] } { [6 x ptr] [ptr null, ptr @_ZTI16tactic_exception, ptr @_ZN16tactic_exceptionD2Ev, ptr @_ZN16tactic_exceptionD0Ev, ptr @_ZNK16tactic_exception3msgEv, ptr @_ZNK12z3_exception10error_codeEv] }, comdat, align 8
@.str.81 = private unnamed_addr constant [5 x i8] c"null\00", align 1
@.str.82 = private unnamed_addr constant [101 x i8] c"generated/home/dtcxzyw/WorkSpace/Projects/compilers/llvm-opt-benchmark/bench/z3/z3/src/util/parray.h\00", align 1
@.str.83 = private unnamed_addr constant [8 x i8] c"elim_01\00", align 1
@.str.84 = private unnamed_addr constant [20 x i8] c"pb.compile_equality\00", align 1
@_ZN8rational6m_zeroE = external global %class.rational, align 8
@.str.86 = private unnamed_addr constant [34 x i8] c"std::get: wrong index for variant\00", align 1
@_ZTSSt18bad_variant_access = linkonce_odr constant [23 x i8] c"St18bad_variant_access\00", comdat, align 1
@_ZTISt9exception = external constant ptr
@_ZTISt18bad_variant_access = linkonce_odr constant { ptr, ptr, ptr } { ptr getelementptr inbounds (ptr, ptr @_ZTVN10__cxxabiv120__si_class_type_infoE, i64 2), ptr @_ZTSSt18bad_variant_access, ptr @_ZTISt9exception }, comdat, align 8
@_ZTVSt18bad_variant_access = linkonce_odr unnamed_addr constant { [5 x ptr] } { [5 x ptr] [ptr null, ptr @_ZTISt18bad_variant_access, ptr @_ZNSt18bad_variant_accessD2Ev, ptr @_ZNSt18bad_variant_accessD0Ev, ptr @_ZNKSt18bad_variant_access4whatEv] }, comdat, align 8
@.str.87 = private unnamed_addr constant [3 x i8] c"k!\00", align 1
@.str.88 = private unnamed_addr constant [45 x i8] c"select optimization engine: 'basic', 'symba'\00", align 1
@.str.89 = private unnamed_addr constant [14 x i8] c"maxsat_engine\00", align 1
@.str.90 = private unnamed_addr constant [92 x i8] c"select engine for maxsat: 'core_maxsat', 'wmax', 'maxres', 'pd-maxres', 'maxres-bin', 'rc2'\00", align 1
@.str.91 = private unnamed_addr constant [75 x i8] c"select how to priortize objectives: 'lex' (lexicographic), 'pareto', 'box'\00", align 1
@.str.92 = private unnamed_addr constant [16 x i8] c"dump_benchmarks\00", align 1
@.str.93 = private unnamed_addr constant [30 x i8] c"dump benchmarks for profiling\00", align 1
@.str.94 = private unnamed_addr constant [6 x i8] c"false\00", align 1
@.str.95 = private unnamed_addr constant [38 x i8] c"display intermediary models to stdout\00", align 1
@.str.96 = private unnamed_addr constant [16 x i8] c"solution_prefix\00", align 1
@.str.97 = private unnamed_addr constant [61 x i8] c"path prefix to dump intermediary, but non-optimal, solutions\00", align 1
@.str.98 = private unnamed_addr constant [8 x i8] c"timeout\00", align 1
@.str.99 = private unnamed_addr constant [59 x i8] c"timeout (in milliseconds) (UINT_MAX and 0 mean no timeout)\00", align 1
@.str.100 = private unnamed_addr constant [11 x i8] c"4294967295\00", align 1
@.str.101 = private unnamed_addr constant [7 x i8] c"rlimit\00", align 1
@.str.102 = private unnamed_addr constant [34 x i8] c"resource limit (0 means no limit)\00", align 1
@.str.103 = private unnamed_addr constant [2 x i8] c"0\00", align 1
@.str.104 = private unnamed_addr constant [11 x i8] c"enable_sls\00", align 1
@.str.105 = private unnamed_addr constant [41 x i8] c"enable SLS tuning during weighted maxsat\00", align 1
@.str.106 = private unnamed_addr constant [11 x i8] c"enable_lns\00", align 1
@.str.107 = private unnamed_addr constant [34 x i8] c"enable LNS during weighted maxsat\00", align 1
@.str.108 = private unnamed_addr constant [14 x i8] c"lns_conflicts\00", align 1
@.str.109 = private unnamed_addr constant [38 x i8] c"initial conflict count for LNS search\00", align 1
@.str.110 = private unnamed_addr constant [5 x i8] c"1000\00", align 1
@.str.111 = private unnamed_addr constant [19 x i8] c"enable_core_rotate\00", align 1
@.str.112 = private unnamed_addr constant [62 x i8] c"enable core rotation to both sample cores and correction sets\00", align 1
@.str.113 = private unnamed_addr constant [11 x i8] c"enable_sat\00", align 1
@.str.114 = private unnamed_addr constant [54 x i8] c"enable the new SAT core for propositional constraints\00", align 1
@.str.115 = private unnamed_addr constant [5 x i8] c"true\00", align 1
@.str.116 = private unnamed_addr constant [23 x i8] c"eliminate 01 variables\00", align 1
@.str.117 = private unnamed_addr constant [12 x i8] c"incremental\00", align 1
@.str.118 = private unnamed_addr constant [103 x i8] c"set incremental mode. It disables pre-processing and enables adding constraints in model event handler\00", align 1
@.str.119 = private unnamed_addr constant [8 x i8] c"pp.neat\00", align 1
@.str.120 = private unnamed_addr constant [90 x i8] c"use neat (as opposed to less readable, but faster) pretty printer when displaying context\00", align 1
@.str.121 = private unnamed_addr constant [90 x i8] c"compile arithmetical equalities into pseudo-Boolean equality (instead of two inequalites)\00", align 1
@.str.122 = private unnamed_addr constant [8 x i8] c"pp.wcnf\00", align 1
@.str.123 = private unnamed_addr constant [40 x i8] c"print maxsat benchmark into wcnf format\00", align 1
@.str.124 = private unnamed_addr constant [14 x i8] c"maxlex.enable\00", align 1
@.str.125 = private unnamed_addr constant [58 x i8] c"enable maxlex heuristic for lexicographic MaxSAT problems\00", align 1
@.str.126 = private unnamed_addr constant [14 x i8] c"rc2.totalizer\00", align 1
@.str.127 = private unnamed_addr constant [31 x i8] c"use totalizer for rc2 encoding\00", align 1
@.str.128 = private unnamed_addr constant [18 x i8] c"maxres.hill_climb\00", align 1
@.str.129 = private unnamed_addr constant [39 x i8] c"give preference for large weight cores\00", align 1
@.str.130 = private unnamed_addr constant [29 x i8] c"maxres.add_upper_bound_block\00", align 1
@.str.131 = private unnamed_addr constant [36 x i8] c"restict upper bound with constraint\00", align 1
@.str.132 = private unnamed_addr constant [21 x i8] c"maxres.max_num_cores\00", align 1
@.str.133 = private unnamed_addr constant [34 x i8] c"maximal number of cores per round\00", align 1
@.str.134 = private unnamed_addr constant [4 x i8] c"200\00", align 1
@.str.135 = private unnamed_addr constant [21 x i8] c"maxres.max_core_size\00", align 1
@.str.136 = private unnamed_addr constant [59 x i8] c"break batch of generated cores if size reaches this number\00", align 1
@.str.137 = private unnamed_addr constant [2 x i8] c"3\00", align 1
@.str.138 = private unnamed_addr constant [27 x i8] c"maxres.maximize_assignment\00", align 1
@.str.139 = private unnamed_addr constant [46 x i8] c"find an MSS/MCS to improve current assignment\00", align 1
@.str.140 = private unnamed_addr constant [31 x i8] c"maxres.max_correction_set_size\00", align 1
@.str.141 = private unnamed_addr constant [63 x i8] c"allow generating correction set constraints up to maximal size\00", align 1
@.str.142 = private unnamed_addr constant [12 x i8] c"maxres.wmax\00", align 1
@.str.143 = private unnamed_addr constant [53 x i8] c"use weighted theory solver to constrain upper bounds\00", align 1
@.str.144 = private unnamed_addr constant [31 x i8] c"maxres.pivot_on_correction_set\00", align 1
@.str.145 = private unnamed_addr constant [83 x i8] c"reduce soft constraints if the current correction set is smaller than current core\00", align 1
@_ZTV23smt2_pp_environment_dbg = linkonce_odr hidden unnamed_addr constant { [21 x ptr] } { [21 x ptr] [ptr null, ptr @_ZTI23smt2_pp_environment_dbg, ptr @_ZN23smt2_pp_environment_dbgD2Ev, ptr @_ZN23smt2_pp_environment_dbgD0Ev, ptr @_ZNK23smt2_pp_environment_dbg11get_managerEv, ptr @_ZN23smt2_pp_environment_dbg9get_autilEv, ptr @_ZN23smt2_pp_environment_dbg10get_bvutilEv, ptr @_ZN23smt2_pp_environment_dbg10get_arutilEv, ptr @_ZN23smt2_pp_environment_dbg9get_futilEv, ptr @_ZN23smt2_pp_environment_dbg9get_sutilEv, ptr @_ZN23smt2_pp_environment_dbg10get_dlutilEv, ptr @_ZN23smt2_pp_environment_dbg10get_dtutilEv, ptr @_ZNK23smt2_pp_environment_dbg4usesERK6symbol, ptr @_ZN19smt2_pp_environment8pp_fdeclEP9func_declRj, ptr @_ZN19smt2_pp_environment13pp_bv_literalEP3appbb, ptr @_ZN19smt2_pp_environment16pp_arith_literalEP3appbj, ptr @_ZN19smt2_pp_environment16pp_float_literalEP3appbb, ptr @_ZN19smt2_pp_environment18pp_datalog_literalEP3app, ptr @_ZN19smt2_pp_environment17pp_string_literalEP3app, ptr @_ZN19smt2_pp_environment7pp_sortEP4sort, ptr @_ZN19smt2_pp_environment12pp_fdecl_refEP9func_decl] }, comdat, align 8
@_ZTS23smt2_pp_environment_dbg = linkonce_odr hidden constant [26 x i8] c"23smt2_pp_environment_dbg\00", comdat, align 1
@_ZTI19smt2_pp_environment = external constant ptr
@_ZTI23smt2_pp_environment_dbg = linkonce_odr hidden constant { ptr, ptr, ptr } { ptr getelementptr inbounds (ptr, ptr @_ZTVN10__cxxabiv120__si_class_type_infoE, i64 2), ptr @_ZTS23smt2_pp_environment_dbg, ptr @_ZTI19smt2_pp_environment }, comdat, align 8
@_ZTV19smt2_pp_environment = external unnamed_addr constant { [21 x ptr] }, align 8
@.str.146 = private unnamed_addr constant [4 x i8] c"seq\00", align 1
@.str.147 = private unnamed_addr constant [50 x i8] c"basic_string: construction from null is not valid\00", align 1
@.str.148 = private unnamed_addr constant [104 x i8] c"generated/home/dtcxzyw/WorkSpace/Projects/compilers/llvm-opt-benchmark/bench/z3/z3/src/util/hashtable.h\00", align 1
@_ZN8rational5m_oneE = external global %class.rational, align 8
@_ZN12inf_rational6m_zeroE = external global %class.inf_rational, align 8
@.str.149 = private unnamed_addr constant [4 x i8] c"-oo\00", align 1
@.str.150 = private unnamed_addr constant [4 x i8] c"*oo\00", align 1
@.str.151 = private unnamed_addr constant [2 x i8] c"(\00", align 1
@.str.152 = private unnamed_addr constant [4 x i8] c" + \00", align 1
@.str.153 = private unnamed_addr constant [5 x i8] c" -e*\00", align 1
@.str.154 = private unnamed_addr constant [5 x i8] c" +e*\00", align 1
@.str.155 = private unnamed_addr constant [107 x i8] c"generated/home/dtcxzyw/WorkSpace/Projects/compilers/llvm-opt-benchmark/bench/z3/z3/src/ast/for_each_expr.h\00", align 1
@llvm.global_ctors = appending global [1 x { i32, ptr, ptr }] [{ i32, ptr, ptr } { i32 65535, ptr @_GLOBAL__sub_I_opt_context.cpp, ptr null }]
@switch.table._ZN3opt7context15mk_objective_fnEjNS0_11objective_tEjPKP4expr = private unnamed_addr constant [3 x ptr] [ptr @.str.48, ptr @.str.49, ptr @.str.50], align 8

@_ZN3opt7contextC1ER11ast_manager = hidden unnamed_addr alias void (ptr, ptr), ptr @_ZN3opt7contextC2ER11ast_manager
@_ZN3opt7contextD1Ev = hidden unnamed_addr alias void (ptr), ptr @_ZN3opt7contextD2Ev

declare void @_ZNSt8ios_base4InitC1Ev(ptr noundef nonnull align 1 dereferenceable(1)) unnamed_addr #0

; Function Attrs: nounwind
declare void @_ZNSt8ios_base4InitD1Ev(ptr noundef nonnull align 1 dereferenceable(1)) unnamed_addr #1

; Function Attrs: nofree nounwind
declare i32 @__cxa_atexit(ptr, ptr, ptr) local_unnamed_addr #2

; Function Attrs: mustprogress uwtable
define hidden void @_ZN3opt7context12scoped_state4pushEv(ptr noundef nonnull align 8 dereferenceable(152) %this) local_unnamed_addr #3 align 2 {
entry:
  %m_asms_lim = getelementptr inbounds %"class.opt::context::scoped_state", ptr %this, i64 0, i32 4
  %m_nodes.i = getelementptr inbounds %"class.opt::context::scoped_state", ptr %this, i64 0, i32 10, i32 0, i32 1
  %0 = load ptr, ptr %m_nodes.i, align 8
  %cmp.i.i = icmp eq ptr %0, null
  br i1 %cmp.i.i, label %_ZNK15ref_vector_coreI4expr19ref_manager_wrapperIS0_11ast_managerEE4sizeEv.exit, label %if.end.i.i

if.end.i.i:                                       ; preds = %entry
  %arrayidx.i.i = getelementptr inbounds i32, ptr %0, i64 -1
  %1 = load i32, ptr %arrayidx.i.i, align 4
  br label %_ZNK15ref_vector_coreI4expr19ref_manager_wrapperIS0_11ast_managerEE4sizeEv.exit

_ZNK15ref_vector_coreI4expr19ref_manager_wrapperIS0_11ast_managerEE4sizeEv.exit: ; preds = %entry, %if.end.i.i
  %retval.0.i.i = phi i32 [ %1, %if.end.i.i ], [ 0, %entry ]
  %2 = load ptr, ptr %m_asms_lim, align 8
  %cmp.i = icmp eq ptr %2, null
  br i1 %cmp.i, label %if.then.i, label %lor.lhs.false.i

lor.lhs.false.i:                                  ; preds = %_ZNK15ref_vector_coreI4expr19ref_manager_wrapperIS0_11ast_managerEE4sizeEv.exit
  %arrayidx.i = getelementptr inbounds i32, ptr %2, i64 -1
  %3 = load i32, ptr %arrayidx.i, align 4
  %arrayidx4.i = getelementptr inbounds i32, ptr %2, i64 -2
  %4 = load i32, ptr %arrayidx4.i, align 4
  %cmp5.i = icmp eq i32 %3, %4
  br i1 %cmp5.i, label %if.then.i, label %_ZN6vectorIjLb0EjE9push_backEOj.exit

if.then.i:                                        ; preds = %lor.lhs.false.i, %_ZNK15ref_vector_coreI4expr19ref_manager_wrapperIS0_11ast_managerEE4sizeEv.exit
  tail call void @_ZN6vectorIjLb0EjE13expand_vectorEv(ptr noundef nonnull align 8 dereferenceable(8) %m_asms_lim)
  %.pre.i = load ptr, ptr %m_asms_lim, align 8
  %arrayidx8.phi.trans.insert.i = getelementptr inbounds i32, ptr %.pre.i, i64 -1
  %.pre1.i = load i32, ptr %arrayidx8.phi.trans.insert.i, align 4
  br label %_ZN6vectorIjLb0EjE9push_backEOj.exit

_ZN6vectorIjLb0EjE9push_backEOj.exit:             ; preds = %lor.lhs.false.i, %if.then.i
  %5 = phi i32 [ %.pre1.i, %if.then.i ], [ %3, %lor.lhs.false.i ]
  %6 = phi ptr [ %.pre.i, %if.then.i ], [ %2, %lor.lhs.false.i ]
  %idx.ext.i = zext i32 %5 to i64
  %add.ptr.i = getelementptr inbounds i32, ptr %6, i64 %idx.ext.i
  store i32 %retval.0.i.i, ptr %add.ptr.i, align 4
  %7 = load ptr, ptr %m_asms_lim, align 8
  %arrayidx10.i = getelementptr inbounds i32, ptr %7, i64 -1
  %8 = load i32, ptr %arrayidx10.i, align 4
  %inc.i = add i32 %8, 1
  store i32 %inc.i, ptr %arrayidx10.i, align 4
  %m_hard_lim = getelementptr inbounds %"class.opt::context::scoped_state", ptr %this, i64 0, i32 3
  %m_nodes.i1 = getelementptr inbounds %"class.opt::context::scoped_state", ptr %this, i64 0, i32 9, i32 0, i32 1
  %9 = load ptr, ptr %m_nodes.i1, align 8
  %cmp.i.i2 = icmp eq ptr %9, null
  br i1 %cmp.i.i2, label %_ZNK15ref_vector_coreI4expr19ref_manager_wrapperIS0_11ast_managerEE4sizeEv.exit6, label %if.end.i.i3

if.end.i.i3:                                      ; preds = %_ZN6vectorIjLb0EjE9push_backEOj.exit
  %arrayidx.i.i4 = getelementptr inbounds i32, ptr %9, i64 -1
  %10 = load i32, ptr %arrayidx.i.i4, align 4
  br label %_ZNK15ref_vector_coreI4expr19ref_manager_wrapperIS0_11ast_managerEE4sizeEv.exit6

_ZNK15ref_vector_coreI4expr19ref_manager_wrapperIS0_11ast_managerEE4sizeEv.exit6: ; preds = %_ZN6vectorIjLb0EjE9push_backEOj.exit, %if.end.i.i3
  %retval.0.i.i5 = phi i32 [ %10, %if.end.i.i3 ], [ 0, %_ZN6vectorIjLb0EjE9push_backEOj.exit ]
  %11 = load ptr, ptr %m_hard_lim, align 8
  %cmp.i7 = icmp eq ptr %11, null
  br i1 %cmp.i7, label %if.then.i16, label %lor.lhs.false.i8

lor.lhs.false.i8:                                 ; preds = %_ZNK15ref_vector_coreI4expr19ref_manager_wrapperIS0_11ast_managerEE4sizeEv.exit6
  %arrayidx.i9 = getelementptr inbounds i32, ptr %11, i64 -1
  %12 = load i32, ptr %arrayidx.i9, align 4
  %arrayidx4.i10 = getelementptr inbounds i32, ptr %11, i64 -2
  %13 = load i32, ptr %arrayidx4.i10, align 4
  %cmp5.i11 = icmp eq i32 %12, %13
  br i1 %cmp5.i11, label %if.then.i16, label %_ZN6vectorIjLb0EjE9push_backEOj.exit20

if.then.i16:                                      ; preds = %lor.lhs.false.i8, %_ZNK15ref_vector_coreI4expr19ref_manager_wrapperIS0_11ast_managerEE4sizeEv.exit6
  tail call void @_ZN6vectorIjLb0EjE13expand_vectorEv(ptr noundef nonnull align 8 dereferenceable(8) %m_hard_lim)
  %.pre.i17 = load ptr, ptr %m_hard_lim, align 8
  %arrayidx8.phi.trans.insert.i18 = getelementptr inbounds i32, ptr %.pre.i17, i64 -1
  %.pre1.i19 = load i32, ptr %arrayidx8.phi.trans.insert.i18, align 4
  br label %_ZN6vectorIjLb0EjE9push_backEOj.exit20

_ZN6vectorIjLb0EjE9push_backEOj.exit20:           ; preds = %lor.lhs.false.i8, %if.then.i16
  %14 = phi i32 [ %.pre1.i19, %if.then.i16 ], [ %12, %lor.lhs.false.i8 ]
  %15 = phi ptr [ %.pre.i17, %if.then.i16 ], [ %11, %lor.lhs.false.i8 ]
  %idx.ext.i12 = zext i32 %14 to i64
  %add.ptr.i13 = getelementptr inbounds i32, ptr %15, i64 %idx.ext.i12
  store i32 %retval.0.i.i5, ptr %add.ptr.i13, align 4
  %16 = load ptr, ptr %m_hard_lim, align 8
  %arrayidx10.i14 = getelementptr inbounds i32, ptr %16, i64 -1
  %17 = load i32, ptr %arrayidx10.i14, align 4
  %inc.i15 = add i32 %17, 1
  store i32 %inc.i15, ptr %arrayidx10.i14, align 4
  %m_objectives_lim = getelementptr inbounds %"class.opt::context::scoped_state", ptr %this, i64 0, i32 5
  %m_objectives = getelementptr inbounds %"class.opt::context::scoped_state", ptr %this, i64 0, i32 11
  %18 = load ptr, ptr %m_objectives, align 8
  %cmp.i21 = icmp eq ptr %18, null
  br i1 %cmp.i21, label %_ZNK6vectorIN3opt7context9objectiveELb1EjE4sizeEv.exit, label %if.end.i

if.end.i:                                         ; preds = %_ZN6vectorIjLb0EjE9push_backEOj.exit20
  %arrayidx.i22 = getelementptr inbounds i32, ptr %18, i64 -1
  %19 = load i32, ptr %arrayidx.i22, align 4
  br label %_ZNK6vectorIN3opt7context9objectiveELb1EjE4sizeEv.exit

_ZNK6vectorIN3opt7context9objectiveELb1EjE4sizeEv.exit: ; preds = %_ZN6vectorIjLb0EjE9push_backEOj.exit20, %if.end.i
  %retval.0.i = phi i32 [ %19, %if.end.i ], [ 0, %_ZN6vectorIjLb0EjE9push_backEOj.exit20 ]
  %20 = load ptr, ptr %m_objectives_lim, align 8
  %cmp.i23 = icmp eq ptr %20, null
  br i1 %cmp.i23, label %if.then.i33, label %lor.lhs.false.i24

lor.lhs.false.i24:                                ; preds = %_ZNK6vectorIN3opt7context9objectiveELb1EjE4sizeEv.exit
  %arrayidx.i25 = getelementptr inbounds i32, ptr %20, i64 -1
  %21 = load i32, ptr %arrayidx.i25, align 4
  %arrayidx4.i26 = getelementptr inbounds i32, ptr %20, i64 -2
  %22 = load i32, ptr %arrayidx4.i26, align 4
  %cmp5.i27 = icmp eq i32 %21, %22
  br i1 %cmp5.i27, label %if.then.i33, label %_ZN6vectorIjLb0EjE9push_backEOj.exit37

if.then.i33:                                      ; preds = %lor.lhs.false.i24, %_ZNK6vectorIN3opt7context9objectiveELb1EjE4sizeEv.exit
  tail call void @_ZN6vectorIjLb0EjE13expand_vectorEv(ptr noundef nonnull align 8 dereferenceable(8) %m_objectives_lim)
  %.pre.i34 = load ptr, ptr %m_objectives_lim, align 8
  %arrayidx8.phi.trans.insert.i35 = getelementptr inbounds i32, ptr %.pre.i34, i64 -1
  %.pre1.i36 = load i32, ptr %arrayidx8.phi.trans.insert.i35, align 4
  br label %_ZN6vectorIjLb0EjE9push_backEOj.exit37

_ZN6vectorIjLb0EjE9push_backEOj.exit37:           ; preds = %lor.lhs.false.i24, %if.then.i33
  %23 = phi i32 [ %.pre1.i36, %if.then.i33 ], [ %21, %lor.lhs.false.i24 ]
  %24 = phi ptr [ %.pre.i34, %if.then.i33 ], [ %20, %lor.lhs.false.i24 ]
  %idx.ext.i29 = zext i32 %23 to i64
  %add.ptr.i30 = getelementptr inbounds i32, ptr %24, i64 %idx.ext.i29
  store i32 %retval.0.i, ptr %add.ptr.i30, align 4
  %25 = load ptr, ptr %m_objectives_lim, align 8
  %arrayidx10.i31 = getelementptr inbounds i32, ptr %25, i64 -1
  %26 = load i32, ptr %arrayidx10.i31, align 4
  %inc.i32 = add i32 %26, 1
  store i32 %inc.i32, ptr %arrayidx10.i31, align 4
  %m_objectives_term_trail_lim = getelementptr inbounds %"class.opt::context::scoped_state", ptr %this, i64 0, i32 7
  %m_objectives_term_trail = getelementptr inbounds %"class.opt::context::scoped_state", ptr %this, i64 0, i32 6
  %27 = load ptr, ptr %m_objectives_term_trail, align 8
  %cmp.i38 = icmp eq ptr %27, null
  br i1 %cmp.i38, label %_ZNK6vectorIjLb0EjE4sizeEv.exit, label %if.end.i39

if.end.i39:                                       ; preds = %_ZN6vectorIjLb0EjE9push_backEOj.exit37
  %arrayidx.i40 = getelementptr inbounds i32, ptr %27, i64 -1
  %28 = load i32, ptr %arrayidx.i40, align 4
  br label %_ZNK6vectorIjLb0EjE4sizeEv.exit

_ZNK6vectorIjLb0EjE4sizeEv.exit:                  ; preds = %_ZN6vectorIjLb0EjE9push_backEOj.exit37, %if.end.i39
  %retval.0.i41 = phi i32 [ %28, %if.end.i39 ], [ 0, %_ZN6vectorIjLb0EjE9push_backEOj.exit37 ]
  %29 = load ptr, ptr %m_objectives_term_trail_lim, align 8
  %cmp.i42 = icmp eq ptr %29, null
  br i1 %cmp.i42, label %if.then.i52, label %lor.lhs.false.i43

lor.lhs.false.i43:                                ; preds = %_ZNK6vectorIjLb0EjE4sizeEv.exit
  %arrayidx.i44 = getelementptr inbounds i32, ptr %29, i64 -1
  %30 = load i32, ptr %arrayidx.i44, align 4
  %arrayidx4.i45 = getelementptr inbounds i32, ptr %29, i64 -2
  %31 = load i32, ptr %arrayidx4.i45, align 4
  %cmp5.i46 = icmp eq i32 %30, %31
  br i1 %cmp5.i46, label %if.then.i52, label %_ZN6vectorIjLb0EjE9push_backEOj.exit56

if.then.i52:                                      ; preds = %lor.lhs.false.i43, %_ZNK6vectorIjLb0EjE4sizeEv.exit
  tail call void @_ZN6vectorIjLb0EjE13expand_vectorEv(ptr noundef nonnull align 8 dereferenceable(8) %m_objectives_term_trail_lim)
  %.pre.i53 = load ptr, ptr %m_objectives_term_trail_lim, align 8
  %arrayidx8.phi.trans.insert.i54 = getelementptr inbounds i32, ptr %.pre.i53, i64 -1
  %.pre1.i55 = load i32, ptr %arrayidx8.phi.trans.insert.i54, align 4
  br label %_ZN6vectorIjLb0EjE9push_backEOj.exit56

_ZN6vectorIjLb0EjE9push_backEOj.exit56:           ; preds = %lor.lhs.false.i43, %if.then.i52
  %32 = phi i32 [ %.pre1.i55, %if.then.i52 ], [ %30, %lor.lhs.false.i43 ]
  %33 = phi ptr [ %.pre.i53, %if.then.i52 ], [ %29, %lor.lhs.false.i43 ]
  %idx.ext.i48 = zext i32 %32 to i64
  %add.ptr.i49 = getelementptr inbounds i32, ptr %33, i64 %idx.ext.i48
  store i32 %retval.0.i41, ptr %add.ptr.i49, align 4
  %34 = load ptr, ptr %m_objectives_term_trail_lim, align 8
  %arrayidx10.i50 = getelementptr inbounds i32, ptr %34, i64 -1
  %35 = load i32, ptr %arrayidx10.i50, align 4
  %inc.i51 = add i32 %35, 1
  store i32 %inc.i51, ptr %arrayidx10.i50, align 4
  ret void
}

; Function Attrs: mustprogress uwtable
define hidden void @_ZN3opt7context12scoped_state3popEv(ptr noundef nonnull align 8 dereferenceable(152) %this) local_unnamed_addr #3 align 2 personality ptr @__gxx_personality_v0 {
entry:
  %ref.tmp.i.i = alloca %struct._key_data.161, align 8
  %m_hard = getelementptr inbounds %"class.opt::context::scoped_state", ptr %this, i64 0, i32 9
  %m_hard_lim = getelementptr inbounds %"class.opt::context::scoped_state", ptr %this, i64 0, i32 3
  %0 = load ptr, ptr %m_hard_lim, align 8
  %cmp.i.i = icmp eq ptr %0, null
  br i1 %cmp.i.i, label %_ZN6vectorIjLb0EjE4backEv.exit, label %if.end.i.i

if.end.i.i:                                       ; preds = %entry
  %arrayidx.i.i = getelementptr inbounds i32, ptr %0, i64 -1
  %1 = load i32, ptr %arrayidx.i.i, align 4
  %2 = add i32 %1, -1
  %3 = zext i32 %2 to i64
  br label %_ZN6vectorIjLb0EjE4backEv.exit

_ZN6vectorIjLb0EjE4backEv.exit:                   ; preds = %entry, %if.end.i.i
  %retval.0.i.i = phi i64 [ %3, %if.end.i.i ], [ 4294967295, %entry ]
  %arrayidx.i1.i = getelementptr inbounds i32, ptr %0, i64 %retval.0.i.i
  %4 = load i32, ptr %arrayidx.i1.i, align 4
  %m_nodes.i = getelementptr inbounds %"class.opt::context::scoped_state", ptr %this, i64 0, i32 9, i32 0, i32 1
  %5 = load ptr, ptr %m_nodes.i, align 8
  %cmp.i.i4 = icmp eq ptr %5, null
  br i1 %cmp.i.i4, label %_ZNK6vectorIP4exprLb0EjE4sizeEv.exit.i.i, label %_ZNK6vectorIP4exprLb0EjE4sizeEv.exit.i

_ZNK6vectorIP4exprLb0EjE4sizeEv.exit.i:           ; preds = %_ZN6vectorIjLb0EjE4backEv.exit
  %arrayidx.i.i5 = getelementptr inbounds i32, ptr %5, i64 -1
  %6 = load i32, ptr %arrayidx.i.i5, align 4
  %cmp.i = icmp ugt i32 %6, %4
  br i1 %cmp.i, label %for.body.i.preheader.i, label %_ZNK6vectorIP4exprLb0EjE4sizeEv.exit.thread.i.i

for.body.i.preheader.i:                           ; preds = %_ZNK6vectorIP4exprLb0EjE4sizeEv.exit.i
  %idx.ext8.i = zext i32 %6 to i64
  %add.ptr9.i = getelementptr inbounds ptr, ptr %5, i64 %idx.ext8.i
  %idx.ext.i = zext i32 %4 to i64
  %add.ptr.i = getelementptr inbounds ptr, ptr %5, i64 %idx.ext.i
  br label %for.body.i.i

for.body.i.i:                                     ; preds = %_ZN15ref_vector_coreI4expr19ref_manager_wrapperIS0_11ast_managerEE7dec_refEPS0_.exit.i.i, %for.body.i.preheader.i
  %it.04.i.i = phi ptr [ %incdec.ptr.i.i, %_ZN15ref_vector_coreI4expr19ref_manager_wrapperIS0_11ast_managerEE7dec_refEPS0_.exit.i.i ], [ %add.ptr.i, %for.body.i.preheader.i ]
  %7 = load ptr, ptr %it.04.i.i, align 8
  %8 = load ptr, ptr %m_hard, align 8
  %tobool.not.i.i.i.i.i = icmp eq ptr %7, null
  br i1 %tobool.not.i.i.i.i.i, label %_ZN15ref_vector_coreI4expr19ref_manager_wrapperIS0_11ast_managerEE7dec_refEPS0_.exit.i.i, label %if.then.i.i.i.i.i

if.then.i.i.i.i.i:                                ; preds = %for.body.i.i
  %m_ref_count.i.i.i.i.i.i = getelementptr inbounds %class.ast, ptr %7, i64 0, i32 2
  %9 = load i32, ptr %m_ref_count.i.i.i.i.i.i, align 4
  %dec.i.i.i.i.i.i = add i32 %9, -1
  store i32 %dec.i.i.i.i.i.i, ptr %m_ref_count.i.i.i.i.i.i, align 4
  %cmp.i.i.i.i.i = icmp eq i32 %dec.i.i.i.i.i.i, 0
  br i1 %cmp.i.i.i.i.i, label %if.then2.i.i.i.i.i, label %_ZN15ref_vector_coreI4expr19ref_manager_wrapperIS0_11ast_managerEE7dec_refEPS0_.exit.i.i

if.then2.i.i.i.i.i:                               ; preds = %if.then.i.i.i.i.i
  tail call void @_ZN11ast_manager11delete_nodeEP3ast(ptr noundef nonnull align 8 dereferenceable(976) %8, ptr noundef nonnull %7)
  br label %_ZN15ref_vector_coreI4expr19ref_manager_wrapperIS0_11ast_managerEE7dec_refEPS0_.exit.i.i

_ZN15ref_vector_coreI4expr19ref_manager_wrapperIS0_11ast_managerEE7dec_refEPS0_.exit.i.i: ; preds = %if.then2.i.i.i.i.i, %if.then.i.i.i.i.i, %for.body.i.i
  %incdec.ptr.i.i = getelementptr inbounds ptr, ptr %it.04.i.i, i64 1
  %cmp.i8.i = icmp ult ptr %incdec.ptr.i.i, %add.ptr9.i
  br i1 %cmp.i8.i, label %for.body.i.i, label %if.end.i, !llvm.loop !4

if.end.i:                                         ; preds = %_ZN15ref_vector_coreI4expr19ref_manager_wrapperIS0_11ast_managerEE7dec_refEPS0_.exit.i.i
  %.pr.pre.i = load ptr, ptr %m_nodes.i, align 8
  %cmp.i.i.i = icmp eq ptr %.pr.pre.i, null
  br i1 %cmp.i.i.i, label %_ZNK6vectorIP4exprLb0EjE4sizeEv.exit.i.i, label %if.end.i._ZNK6vectorIP4exprLb0EjE4sizeEv.exit.thread.i.i_crit_edge

if.end.i._ZNK6vectorIP4exprLb0EjE4sizeEv.exit.thread.i.i_crit_edge: ; preds = %if.end.i
  %arrayidx.i.i.i.phi.trans.insert = getelementptr inbounds i32, ptr %.pr.pre.i, i64 -1
  %.pre = load i32, ptr %arrayidx.i.i.i.phi.trans.insert, align 4
  br label %_ZNK6vectorIP4exprLb0EjE4sizeEv.exit.thread.i.i

_ZNK6vectorIP4exprLb0EjE4sizeEv.exit.i.i:         ; preds = %if.end.i, %_ZN6vectorIjLb0EjE4backEv.exit
  %cmp.not.not.i.i = icmp eq i32 %4, 0
  br i1 %cmp.not.not.i.i, label %_ZN15ref_vector_coreI4expr19ref_manager_wrapperIS0_11ast_managerEE6resizeEj.exit, label %while.cond.i.i.preheader

_ZNK6vectorIP4exprLb0EjE4sizeEv.exit.thread.i.i:  ; preds = %if.end.i._ZNK6vectorIP4exprLb0EjE4sizeEv.exit.thread.i.i_crit_edge, %_ZNK6vectorIP4exprLb0EjE4sizeEv.exit.i
  %10 = phi i32 [ %.pre, %if.end.i._ZNK6vectorIP4exprLb0EjE4sizeEv.exit.thread.i.i_crit_edge ], [ %6, %_ZNK6vectorIP4exprLb0EjE4sizeEv.exit.i ]
  %.pr18.i = phi ptr [ %.pr.pre.i, %if.end.i._ZNK6vectorIP4exprLb0EjE4sizeEv.exit.thread.i.i_crit_edge ], [ %5, %_ZNK6vectorIP4exprLb0EjE4sizeEv.exit.i ]
  %cmp.not15.i.i = icmp ult i32 %10, %4
  br i1 %cmp.not15.i.i, label %while.cond.i.i.preheader, label %if.then.i.i.i

while.cond.i.i.preheader:                         ; preds = %_ZNK6vectorIP4exprLb0EjE4sizeEv.exit.i.i, %_ZNK6vectorIP4exprLb0EjE4sizeEv.exit.thread.i.i
  %.ph134 = phi ptr [ %.pr18.i, %_ZNK6vectorIP4exprLb0EjE4sizeEv.exit.thread.i.i ], [ null, %_ZNK6vectorIP4exprLb0EjE4sizeEv.exit.i.i ]
  %retval.0.i16.i.i.ph = phi i32 [ %10, %_ZNK6vectorIP4exprLb0EjE4sizeEv.exit.thread.i.i ], [ 0, %_ZNK6vectorIP4exprLb0EjE4sizeEv.exit.i.i ]
  br label %while.cond.i.i

if.then.i.i.i:                                    ; preds = %_ZNK6vectorIP4exprLb0EjE4sizeEv.exit.thread.i.i
  %arrayidx.i.i.i = getelementptr inbounds i32, ptr %.pr18.i, i64 -1
  store i32 %4, ptr %arrayidx.i.i.i, align 4
  br label %_ZN15ref_vector_coreI4expr19ref_manager_wrapperIS0_11ast_managerEE6resizeEj.exit

while.cond.i.i:                                   ; preds = %while.cond.i.i.preheader, %while.body.i.i
  %11 = phi ptr [ %.pr.pre.i.i, %while.body.i.i ], [ %.ph134, %while.cond.i.i.preheader ]
  %cmp.i10.i.i = icmp eq ptr %11, null
  br i1 %cmp.i10.i.i, label %_ZNK6vectorIP4exprLb0EjE8capacityEv.exit.i.i, label %if.end.i11.i.i

if.end.i11.i.i:                                   ; preds = %while.cond.i.i
  %arrayidx.i12.i.i = getelementptr inbounds i32, ptr %11, i64 -2
  %12 = load i32, ptr %arrayidx.i12.i.i, align 4
  br label %_ZNK6vectorIP4exprLb0EjE8capacityEv.exit.i.i

_ZNK6vectorIP4exprLb0EjE8capacityEv.exit.i.i:     ; preds = %if.end.i11.i.i, %while.cond.i.i
  %retval.0.i13.i.i = phi i32 [ %12, %if.end.i11.i.i ], [ 0, %while.cond.i.i ]
  %cmp3.i9.i = icmp ult i32 %retval.0.i13.i.i, %4
  br i1 %cmp3.i9.i, label %while.body.i.i, label %while.end.i.i

while.body.i.i:                                   ; preds = %_ZNK6vectorIP4exprLb0EjE8capacityEv.exit.i.i
  tail call void @_ZN6vectorIP4exprLb0EjE13expand_vectorEv(ptr noundef nonnull align 8 dereferenceable(8) %m_nodes.i)
  %.pr.pre.i.i = load ptr, ptr %m_nodes.i, align 8
  br label %while.cond.i.i, !llvm.loop !6

while.end.i.i:                                    ; preds = %_ZNK6vectorIP4exprLb0EjE8capacityEv.exit.i.i
  %arrayidx.i10.i = getelementptr inbounds i32, ptr %11, i64 -1
  store i32 %4, ptr %arrayidx.i10.i, align 4
  %cmp8.not17.i.i = icmp eq i32 %retval.0.i16.i.i.ph, %4
  br i1 %cmp8.not17.i.i, label %_ZN15ref_vector_coreI4expr19ref_manager_wrapperIS0_11ast_managerEE6resizeEj.exit, label %for.body.preheader.i.i

for.body.preheader.i.i:                           ; preds = %while.end.i.i
  %idx.ext6.i.i = zext i32 %4 to i64
  %13 = load ptr, ptr %m_nodes.i, align 8
  %idx.ext.i.i = zext i32 %retval.0.i16.i.i.ph to i64
  %add.ptr.i.i = getelementptr ptr, ptr %13, i64 %idx.ext.i.i
  %14 = sub nsw i64 %idx.ext6.i.i, %idx.ext.i.i
  %15 = shl nsw i64 %14, 3
  tail call void @llvm.memset.p0.i64(ptr align 8 %add.ptr.i.i, i8 0, i64 %15, i1 false)
  br label %_ZN15ref_vector_coreI4expr19ref_manager_wrapperIS0_11ast_managerEE6resizeEj.exit

_ZN15ref_vector_coreI4expr19ref_manager_wrapperIS0_11ast_managerEE6resizeEj.exit: ; preds = %_ZNK6vectorIP4exprLb0EjE4sizeEv.exit.i.i, %if.then.i.i.i, %while.end.i.i, %for.body.preheader.i.i
  %m_asms = getelementptr inbounds %"class.opt::context::scoped_state", ptr %this, i64 0, i32 10
  %m_asms_lim = getelementptr inbounds %"class.opt::context::scoped_state", ptr %this, i64 0, i32 4
  %16 = load ptr, ptr %m_asms_lim, align 8
  %cmp.i.i6 = icmp eq ptr %16, null
  br i1 %cmp.i.i6, label %_ZN6vectorIjLb0EjE4backEv.exit11, label %if.end.i.i7

if.end.i.i7:                                      ; preds = %_ZN15ref_vector_coreI4expr19ref_manager_wrapperIS0_11ast_managerEE6resizeEj.exit
  %arrayidx.i.i8 = getelementptr inbounds i32, ptr %16, i64 -1
  %17 = load i32, ptr %arrayidx.i.i8, align 4
  %18 = add i32 %17, -1
  %19 = zext i32 %18 to i64
  br label %_ZN6vectorIjLb0EjE4backEv.exit11

_ZN6vectorIjLb0EjE4backEv.exit11:                 ; preds = %_ZN15ref_vector_coreI4expr19ref_manager_wrapperIS0_11ast_managerEE6resizeEj.exit, %if.end.i.i7
  %retval.0.i.i9 = phi i64 [ %19, %if.end.i.i7 ], [ 4294967295, %_ZN15ref_vector_coreI4expr19ref_manager_wrapperIS0_11ast_managerEE6resizeEj.exit ]
  %arrayidx.i1.i10 = getelementptr inbounds i32, ptr %16, i64 %retval.0.i.i9
  %20 = load i32, ptr %arrayidx.i1.i10, align 4
  %m_nodes.i12 = getelementptr inbounds %"class.opt::context::scoped_state", ptr %this, i64 0, i32 10, i32 0, i32 1
  %21 = load ptr, ptr %m_nodes.i12, align 8
  %cmp.i.i13 = icmp eq ptr %21, null
  br i1 %cmp.i.i13, label %_ZNK6vectorIP4exprLb0EjE4sizeEv.exit.i.i60, label %_ZNK6vectorIP4exprLb0EjE4sizeEv.exit.i14

_ZNK6vectorIP4exprLb0EjE4sizeEv.exit.i14:         ; preds = %_ZN6vectorIjLb0EjE4backEv.exit11
  %arrayidx.i.i15 = getelementptr inbounds i32, ptr %21, i64 -1
  %22 = load i32, ptr %arrayidx.i.i15, align 4
  %cmp.i16 = icmp ugt i32 %22, %20
  br i1 %cmp.i16, label %for.body.i.preheader.i42, label %_ZNK6vectorIP4exprLb0EjE4sizeEv.exit.thread.i.i17

for.body.i.preheader.i42:                         ; preds = %_ZNK6vectorIP4exprLb0EjE4sizeEv.exit.i14
  %idx.ext8.i43 = zext i32 %22 to i64
  %add.ptr9.i44 = getelementptr inbounds ptr, ptr %21, i64 %idx.ext8.i43
  %idx.ext.i45 = zext i32 %20 to i64
  %add.ptr.i46 = getelementptr inbounds ptr, ptr %21, i64 %idx.ext.i45
  br label %for.body.i.i47

for.body.i.i47:                                   ; preds = %_ZN15ref_vector_coreI4expr19ref_manager_wrapperIS0_11ast_managerEE7dec_refEPS0_.exit.i.i54, %for.body.i.preheader.i42
  %it.04.i.i48 = phi ptr [ %incdec.ptr.i.i55, %_ZN15ref_vector_coreI4expr19ref_manager_wrapperIS0_11ast_managerEE7dec_refEPS0_.exit.i.i54 ], [ %add.ptr.i46, %for.body.i.preheader.i42 ]
  %23 = load ptr, ptr %it.04.i.i48, align 8
  %24 = load ptr, ptr %m_asms, align 8
  %tobool.not.i.i.i.i.i49 = icmp eq ptr %23, null
  br i1 %tobool.not.i.i.i.i.i49, label %_ZN15ref_vector_coreI4expr19ref_manager_wrapperIS0_11ast_managerEE7dec_refEPS0_.exit.i.i54, label %if.then.i.i.i.i.i50

if.then.i.i.i.i.i50:                              ; preds = %for.body.i.i47
  %m_ref_count.i.i.i.i.i.i51 = getelementptr inbounds %class.ast, ptr %23, i64 0, i32 2
  %25 = load i32, ptr %m_ref_count.i.i.i.i.i.i51, align 4
  %dec.i.i.i.i.i.i52 = add i32 %25, -1
  store i32 %dec.i.i.i.i.i.i52, ptr %m_ref_count.i.i.i.i.i.i51, align 4
  %cmp.i.i.i.i.i53 = icmp eq i32 %dec.i.i.i.i.i.i52, 0
  br i1 %cmp.i.i.i.i.i53, label %if.then2.i.i.i.i.i62, label %_ZN15ref_vector_coreI4expr19ref_manager_wrapperIS0_11ast_managerEE7dec_refEPS0_.exit.i.i54

if.then2.i.i.i.i.i62:                             ; preds = %if.then.i.i.i.i.i50
  tail call void @_ZN11ast_manager11delete_nodeEP3ast(ptr noundef nonnull align 8 dereferenceable(976) %24, ptr noundef nonnull %23)
  br label %_ZN15ref_vector_coreI4expr19ref_manager_wrapperIS0_11ast_managerEE7dec_refEPS0_.exit.i.i54

_ZN15ref_vector_coreI4expr19ref_manager_wrapperIS0_11ast_managerEE7dec_refEPS0_.exit.i.i54: ; preds = %if.then2.i.i.i.i.i62, %if.then.i.i.i.i.i50, %for.body.i.i47
  %incdec.ptr.i.i55 = getelementptr inbounds ptr, ptr %it.04.i.i48, i64 1
  %cmp.i8.i56 = icmp ult ptr %incdec.ptr.i.i55, %add.ptr9.i44
  br i1 %cmp.i8.i56, label %for.body.i.i47, label %if.end.i57, !llvm.loop !4

if.end.i57:                                       ; preds = %_ZN15ref_vector_coreI4expr19ref_manager_wrapperIS0_11ast_managerEE7dec_refEPS0_.exit.i.i54
  %.pr.pre.i58 = load ptr, ptr %m_nodes.i12, align 8
  %cmp.i.i.i59 = icmp eq ptr %.pr.pre.i58, null
  br i1 %cmp.i.i.i59, label %_ZNK6vectorIP4exprLb0EjE4sizeEv.exit.i.i60, label %if.end.i57._ZNK6vectorIP4exprLb0EjE4sizeEv.exit.thread.i.i17_crit_edge

if.end.i57._ZNK6vectorIP4exprLb0EjE4sizeEv.exit.thread.i.i17_crit_edge: ; preds = %if.end.i57
  %arrayidx.i.i.i19.phi.trans.insert = getelementptr inbounds i32, ptr %.pr.pre.i58, i64 -1
  %.pre129 = load i32, ptr %arrayidx.i.i.i19.phi.trans.insert, align 4
  br label %_ZNK6vectorIP4exprLb0EjE4sizeEv.exit.thread.i.i17

_ZNK6vectorIP4exprLb0EjE4sizeEv.exit.i.i60:       ; preds = %if.end.i57, %_ZN6vectorIjLb0EjE4backEv.exit11
  %cmp.not.not.i.i61 = icmp eq i32 %20, 0
  br i1 %cmp.not.not.i.i61, label %_ZN15ref_vector_coreI4expr19ref_manager_wrapperIS0_11ast_managerEE6resizeEj.exit63, label %while.cond.i.i25.preheader

_ZNK6vectorIP4exprLb0EjE4sizeEv.exit.thread.i.i17: ; preds = %if.end.i57._ZNK6vectorIP4exprLb0EjE4sizeEv.exit.thread.i.i17_crit_edge, %_ZNK6vectorIP4exprLb0EjE4sizeEv.exit.i14
  %26 = phi i32 [ %.pre129, %if.end.i57._ZNK6vectorIP4exprLb0EjE4sizeEv.exit.thread.i.i17_crit_edge ], [ %22, %_ZNK6vectorIP4exprLb0EjE4sizeEv.exit.i14 ]
  %.pr18.i18 = phi ptr [ %.pr.pre.i58, %if.end.i57._ZNK6vectorIP4exprLb0EjE4sizeEv.exit.thread.i.i17_crit_edge ], [ %21, %_ZNK6vectorIP4exprLb0EjE4sizeEv.exit.i14 ]
  %cmp.not15.i.i20 = icmp ult i32 %26, %20
  br i1 %cmp.not15.i.i20, label %while.cond.i.i25.preheader, label %if.then.i.i.i21

while.cond.i.i25.preheader:                       ; preds = %_ZNK6vectorIP4exprLb0EjE4sizeEv.exit.i.i60, %_ZNK6vectorIP4exprLb0EjE4sizeEv.exit.thread.i.i17
  %.ph = phi ptr [ %.pr18.i18, %_ZNK6vectorIP4exprLb0EjE4sizeEv.exit.thread.i.i17 ], [ null, %_ZNK6vectorIP4exprLb0EjE4sizeEv.exit.i.i60 ]
  %retval.0.i16.i.i26.ph = phi i32 [ %26, %_ZNK6vectorIP4exprLb0EjE4sizeEv.exit.thread.i.i17 ], [ 0, %_ZNK6vectorIP4exprLb0EjE4sizeEv.exit.i.i60 ]
  br label %while.cond.i.i25

if.then.i.i.i21:                                  ; preds = %_ZNK6vectorIP4exprLb0EjE4sizeEv.exit.thread.i.i17
  %arrayidx.i.i.i19 = getelementptr inbounds i32, ptr %.pr18.i18, i64 -1
  store i32 %20, ptr %arrayidx.i.i.i19, align 4
  br label %_ZN15ref_vector_coreI4expr19ref_manager_wrapperIS0_11ast_managerEE6resizeEj.exit63

while.cond.i.i25:                                 ; preds = %while.cond.i.i25.preheader, %while.body.i.i40
  %27 = phi ptr [ %.pr.pre.i.i41, %while.body.i.i40 ], [ %.ph, %while.cond.i.i25.preheader ]
  %cmp.i10.i.i27 = icmp eq ptr %27, null
  br i1 %cmp.i10.i.i27, label %_ZNK6vectorIP4exprLb0EjE8capacityEv.exit.i.i30, label %if.end.i11.i.i28

if.end.i11.i.i28:                                 ; preds = %while.cond.i.i25
  %arrayidx.i12.i.i29 = getelementptr inbounds i32, ptr %27, i64 -2
  %28 = load i32, ptr %arrayidx.i12.i.i29, align 4
  br label %_ZNK6vectorIP4exprLb0EjE8capacityEv.exit.i.i30

_ZNK6vectorIP4exprLb0EjE8capacityEv.exit.i.i30:   ; preds = %if.end.i11.i.i28, %while.cond.i.i25
  %retval.0.i13.i.i31 = phi i32 [ %28, %if.end.i11.i.i28 ], [ 0, %while.cond.i.i25 ]
  %cmp3.i9.i32 = icmp ult i32 %retval.0.i13.i.i31, %20
  br i1 %cmp3.i9.i32, label %while.body.i.i40, label %while.end.i.i33

while.body.i.i40:                                 ; preds = %_ZNK6vectorIP4exprLb0EjE8capacityEv.exit.i.i30
  tail call void @_ZN6vectorIP4exprLb0EjE13expand_vectorEv(ptr noundef nonnull align 8 dereferenceable(8) %m_nodes.i12)
  %.pr.pre.i.i41 = load ptr, ptr %m_nodes.i12, align 8
  br label %while.cond.i.i25, !llvm.loop !6

while.end.i.i33:                                  ; preds = %_ZNK6vectorIP4exprLb0EjE8capacityEv.exit.i.i30
  %arrayidx.i10.i34 = getelementptr inbounds i32, ptr %27, i64 -1
  store i32 %20, ptr %arrayidx.i10.i34, align 4
  %cmp8.not17.i.i35 = icmp eq i32 %retval.0.i16.i.i26.ph, %20
  br i1 %cmp8.not17.i.i35, label %_ZN15ref_vector_coreI4expr19ref_manager_wrapperIS0_11ast_managerEE6resizeEj.exit63, label %for.body.preheader.i.i36

for.body.preheader.i.i36:                         ; preds = %while.end.i.i33
  %idx.ext6.i.i37 = zext i32 %20 to i64
  %29 = load ptr, ptr %m_nodes.i12, align 8
  %idx.ext.i.i38 = zext i32 %retval.0.i16.i.i26.ph to i64
  %add.ptr.i.i39 = getelementptr ptr, ptr %29, i64 %idx.ext.i.i38
  %30 = sub nsw i64 %idx.ext6.i.i37, %idx.ext.i.i38
  %31 = shl nsw i64 %30, 3
  tail call void @llvm.memset.p0.i64(ptr align 8 %add.ptr.i.i39, i8 0, i64 %31, i1 false)
  br label %_ZN15ref_vector_coreI4expr19ref_manager_wrapperIS0_11ast_managerEE6resizeEj.exit63

_ZN15ref_vector_coreI4expr19ref_manager_wrapperIS0_11ast_managerEE6resizeEj.exit63: ; preds = %_ZNK6vectorIP4exprLb0EjE4sizeEv.exit.i.i60, %if.then.i.i.i21, %while.end.i.i33, %for.body.preheader.i.i36
  %m_objectives_term_trail_lim = getelementptr inbounds %"class.opt::context::scoped_state", ptr %this, i64 0, i32 7
  %32 = load ptr, ptr %m_objectives_term_trail_lim, align 8
  %cmp.i.i64 = icmp eq ptr %32, null
  br i1 %cmp.i.i64, label %_ZN6vectorIjLb0EjE4backEv.exit69, label %if.end.i.i65

if.end.i.i65:                                     ; preds = %_ZN15ref_vector_coreI4expr19ref_manager_wrapperIS0_11ast_managerEE6resizeEj.exit63
  %arrayidx.i.i66 = getelementptr inbounds i32, ptr %32, i64 -1
  %33 = load i32, ptr %arrayidx.i.i66, align 4
  %34 = add i32 %33, -1
  %35 = zext i32 %34 to i64
  br label %_ZN6vectorIjLb0EjE4backEv.exit69

_ZN6vectorIjLb0EjE4backEv.exit69:                 ; preds = %_ZN15ref_vector_coreI4expr19ref_manager_wrapperIS0_11ast_managerEE6resizeEj.exit63, %if.end.i.i65
  %retval.0.i.i67 = phi i64 [ %35, %if.end.i.i65 ], [ 4294967295, %_ZN15ref_vector_coreI4expr19ref_manager_wrapperIS0_11ast_managerEE6resizeEj.exit63 ]
  %arrayidx.i1.i68 = getelementptr inbounds i32, ptr %32, i64 %retval.0.i.i67
  %36 = load i32, ptr %arrayidx.i1.i68, align 4
  %m_objectives_term_trail = getelementptr inbounds %"class.opt::context::scoped_state", ptr %this, i64 0, i32 6
  %37 = load ptr, ptr %m_objectives_term_trail, align 8
  %cmp.i70127 = icmp eq ptr %37, null
  br i1 %cmp.i70127, label %while.end, label %_ZNK6vectorIjLb0EjE4sizeEv.exit.lr.ph

_ZNK6vectorIjLb0EjE4sizeEv.exit.lr.ph:            ; preds = %_ZN6vectorIjLb0EjE4backEv.exit69
  %m_objectives = getelementptr inbounds %"class.opt::context::scoped_state", ptr %this, i64 0, i32 11
  br label %_ZNK6vectorIjLb0EjE4sizeEv.exit

_ZNK6vectorIjLb0EjE4sizeEv.exit:                  ; preds = %_ZNK6vectorIjLb0EjE4sizeEv.exit.lr.ph, %_ZN6vectorI8rationalLb1EjE8pop_backEv.exit
  %38 = phi ptr [ %37, %_ZNK6vectorIjLb0EjE4sizeEv.exit.lr.ph ], [ %63, %_ZN6vectorI8rationalLb1EjE8pop_backEv.exit ]
  %arrayidx.i = getelementptr inbounds i32, ptr %38, i64 -1
  %39 = load i32, ptr %arrayidx.i, align 4
  %cmp = icmp ugt i32 %39, %36
  br i1 %cmp, label %_ZN6vectorIjLb0EjE4backEv.exit77, label %while.end.loopexit

_ZN6vectorIjLb0EjE4backEv.exit77:                 ; preds = %_ZNK6vectorIjLb0EjE4sizeEv.exit
  %40 = add i32 %39, -1
  %41 = zext i32 %40 to i64
  %arrayidx.i1.i76 = getelementptr inbounds i32, ptr %38, i64 %41
  %42 = load i32, ptr %arrayidx.i1.i76, align 4
  %43 = load ptr, ptr %m_objectives, align 8
  %idxprom.i = zext i32 %42 to i64
  %m_terms = getelementptr inbounds %"struct.opt::context::objective", ptr %43, i64 %idxprom.i, i32 3
  %m_nodes.i79 = getelementptr inbounds %class.ref_vector_core, ptr %m_terms, i64 0, i32 1
  %44 = load ptr, ptr %m_nodes.i79, align 8
  %cmp.i.i.i80 = icmp eq ptr %44, null
  br i1 %cmp.i.i.i80, label %entry._ZN6vectorIP4exprLb0EjE4backEv.exit_crit_edge.i, label %if.end.i.i.i

entry._ZN6vectorIP4exprLb0EjE4backEv.exit_crit_edge.i: ; preds = %_ZN6vectorIjLb0EjE4backEv.exit77
  %.pre.i = load i32, ptr inttoptr (i64 -4 to ptr), align 4
  %.pre1.i = add i32 %.pre.i, -1
  br label %_ZN6vectorIP4exprLb0EjE4backEv.exit.i

if.end.i.i.i:                                     ; preds = %_ZN6vectorIjLb0EjE4backEv.exit77
  %arrayidx.i.i.i81 = getelementptr inbounds i32, ptr %44, i64 -1
  %45 = load i32, ptr %arrayidx.i.i.i81, align 4
  %46 = add i32 %45, -1
  %47 = zext i32 %46 to i64
  br label %_ZN6vectorIP4exprLb0EjE4backEv.exit.i

_ZN6vectorIP4exprLb0EjE4backEv.exit.i:            ; preds = %if.end.i.i.i, %entry._ZN6vectorIP4exprLb0EjE4backEv.exit_crit_edge.i
  %dec.i.pre-phi.i = phi i32 [ %.pre1.i, %entry._ZN6vectorIP4exprLb0EjE4backEv.exit_crit_edge.i ], [ %46, %if.end.i.i.i ]
  %retval.0.i.i.i = phi i64 [ 4294967295, %entry._ZN6vectorIP4exprLb0EjE4backEv.exit_crit_edge.i ], [ %47, %if.end.i.i.i ]
  %arrayidx.i1.i.i = getelementptr inbounds ptr, ptr %44, i64 %retval.0.i.i.i
  %48 = load ptr, ptr %arrayidx.i1.i.i, align 8
  %arrayidx.i.i82 = getelementptr inbounds i32, ptr %44, i64 -1
  store i32 %dec.i.pre-phi.i, ptr %arrayidx.i.i82, align 4
  %49 = load ptr, ptr %m_terms, align 8
  %tobool.not.i.i.i.i = icmp eq ptr %48, null
  br i1 %tobool.not.i.i.i.i, label %_ZN15ref_vector_coreI4expr19ref_manager_wrapperIS0_11ast_managerEE8pop_backEv.exit, label %if.then.i.i.i.i

if.then.i.i.i.i:                                  ; preds = %_ZN6vectorIP4exprLb0EjE4backEv.exit.i
  %m_ref_count.i.i.i.i.i = getelementptr inbounds %class.ast, ptr %48, i64 0, i32 2
  %50 = load i32, ptr %m_ref_count.i.i.i.i.i, align 4
  %dec.i.i.i.i.i = add i32 %50, -1
  store i32 %dec.i.i.i.i.i, ptr %m_ref_count.i.i.i.i.i, align 4
  %cmp.i.i.i.i = icmp eq i32 %dec.i.i.i.i.i, 0
  br i1 %cmp.i.i.i.i, label %if.then2.i.i.i.i, label %_ZN15ref_vector_coreI4expr19ref_manager_wrapperIS0_11ast_managerEE8pop_backEv.exit

if.then2.i.i.i.i:                                 ; preds = %if.then.i.i.i.i
  tail call void @_ZN11ast_manager11delete_nodeEP3ast(ptr noundef nonnull align 8 dereferenceable(976) %49, ptr noundef nonnull %48)
  br label %_ZN15ref_vector_coreI4expr19ref_manager_wrapperIS0_11ast_managerEE8pop_backEv.exit

_ZN15ref_vector_coreI4expr19ref_manager_wrapperIS0_11ast_managerEE8pop_backEv.exit: ; preds = %_ZN6vectorIP4exprLb0EjE4backEv.exit.i, %if.then.i.i.i.i, %if.then2.i.i.i.i
  %51 = load ptr, ptr %m_objectives, align 8
  %m_weights = getelementptr inbounds %"struct.opt::context::objective", ptr %51, i64 %idxprom.i, i32 4
  %52 = load ptr, ptr %m_weights, align 8
  %cmp.i.i.i85 = icmp eq ptr %52, null
  br i1 %cmp.i.i.i85, label %_ZN6vectorI8rationalLb1EjE4backEv.exit.i, label %if.end.i.i.i86

if.end.i.i.i86:                                   ; preds = %_ZN15ref_vector_coreI4expr19ref_manager_wrapperIS0_11ast_managerEE8pop_backEv.exit
  %arrayidx.i.i.i87 = getelementptr inbounds i32, ptr %52, i64 -1
  %53 = load i32, ptr %arrayidx.i.i.i87, align 4
  %54 = add i32 %53, -1
  %55 = zext i32 %54 to i64
  br label %_ZN6vectorI8rationalLb1EjE4backEv.exit.i

_ZN6vectorI8rationalLb1EjE4backEv.exit.i:         ; preds = %if.end.i.i.i86, %_ZN15ref_vector_coreI4expr19ref_manager_wrapperIS0_11ast_managerEE8pop_backEv.exit
  %retval.0.i.i.i88 = phi i64 [ %55, %if.end.i.i.i86 ], [ 4294967295, %_ZN15ref_vector_coreI4expr19ref_manager_wrapperIS0_11ast_managerEE8pop_backEv.exit ]
  %arrayidx.i1.i.i89 = getelementptr inbounds %class.rational, ptr %52, i64 %retval.0.i.i.i88
  %56 = load ptr, ptr @_ZN8rational13g_mpq_managerE, align 8
  invoke void @_ZN11mpz_managerILb1EE3delEPS0_R3mpz(ptr noundef %56, ptr noundef nonnull align 8 dereferenceable(16) %arrayidx.i1.i.i89)
          to label %.noexc.i.i unwind label %terminate.lpad.i.i

.noexc.i.i:                                       ; preds = %_ZN6vectorI8rationalLb1EjE4backEv.exit.i
  %m_den.i.i.i = getelementptr inbounds %class.mpq, ptr %arrayidx.i1.i.i89, i64 0, i32 1
  invoke void @_ZN11mpz_managerILb1EE3delEPS0_R3mpz(ptr noundef %56, ptr noundef nonnull align 8 dereferenceable(16) %m_den.i.i.i)
          to label %_ZN6vectorI8rationalLb1EjE8pop_backEv.exit unwind label %terminate.lpad.i.i

terminate.lpad.i.i:                               ; preds = %.noexc.i.i, %_ZN6vectorI8rationalLb1EjE4backEv.exit.i
  %57 = landingpad { ptr, i32 }
          catch ptr null
  %58 = extractvalue { ptr, i32 } %57, 0
  tail call void @__clang_call_terminate(ptr %58) #23
  unreachable

_ZN6vectorI8rationalLb1EjE8pop_backEv.exit:       ; preds = %.noexc.i.i
  %59 = load ptr, ptr %m_weights, align 8
  %arrayidx.i90 = getelementptr inbounds i32, ptr %59, i64 -1
  %60 = load i32, ptr %arrayidx.i90, align 4
  %dec.i = add i32 %60, -1
  store i32 %dec.i, ptr %arrayidx.i90, align 4
  %61 = load ptr, ptr %m_objectives_term_trail, align 8
  %arrayidx.i91 = getelementptr inbounds i32, ptr %61, i64 -1
  %62 = load i32, ptr %arrayidx.i91, align 4
  %dec.i92 = add i32 %62, -1
  store i32 %dec.i92, ptr %arrayidx.i91, align 4
  %63 = load ptr, ptr %m_objectives_term_trail, align 8
  %cmp.i70 = icmp eq ptr %63, null
  br i1 %cmp.i70, label %while.end.loopexit, label %_ZNK6vectorIjLb0EjE4sizeEv.exit, !llvm.loop !7

while.end.loopexit:                               ; preds = %_ZN6vectorI8rationalLb1EjE8pop_backEv.exit, %_ZNK6vectorIjLb0EjE4sizeEv.exit
  %.pre130 = load ptr, ptr %m_objectives_term_trail_lim, align 8
  br label %while.end

while.end:                                        ; preds = %while.end.loopexit, %_ZN6vectorIjLb0EjE4backEv.exit69
  %64 = phi ptr [ %.pre130, %while.end.loopexit ], [ %32, %_ZN6vectorIjLb0EjE4backEv.exit69 ]
  %arrayidx.i93 = getelementptr inbounds i32, ptr %64, i64 -1
  %65 = load i32, ptr %arrayidx.i93, align 4
  %dec.i94 = add i32 %65, -1
  store i32 %dec.i94, ptr %arrayidx.i93, align 4
  %m_objectives_lim = getelementptr inbounds %"class.opt::context::scoped_state", ptr %this, i64 0, i32 5
  %66 = load ptr, ptr %m_objectives_lim, align 8
  %cmp.i.i95 = icmp eq ptr %66, null
  br i1 %cmp.i.i95, label %_ZN6vectorIjLb0EjE4backEv.exit100, label %if.end.i.i96

if.end.i.i96:                                     ; preds = %while.end
  %arrayidx.i.i97 = getelementptr inbounds i32, ptr %66, i64 -1
  %67 = load i32, ptr %arrayidx.i.i97, align 4
  %68 = add i32 %67, -1
  %69 = zext i32 %68 to i64
  br label %_ZN6vectorIjLb0EjE4backEv.exit100

_ZN6vectorIjLb0EjE4backEv.exit100:                ; preds = %while.end, %if.end.i.i96
  %retval.0.i.i98 = phi i64 [ %69, %if.end.i.i96 ], [ 4294967295, %while.end ]
  %arrayidx.i1.i99 = getelementptr inbounds i32, ptr %66, i64 %retval.0.i.i98
  %70 = load i32, ptr %arrayidx.i1.i99, align 4
  %m_objectives14 = getelementptr inbounds %"class.opt::context::scoped_state", ptr %this, i64 0, i32 11
  %71 = load ptr, ptr %m_objectives14, align 8
  %cmp.i101128 = icmp eq ptr %71, null
  br i1 %cmp.i101128, label %while.end22, label %_ZNK6vectorIN3opt7context9objectiveELb1EjE4sizeEv.exit.lr.ph

_ZNK6vectorIN3opt7context9objectiveELb1EjE4sizeEv.exit.lr.ph: ; preds = %_ZN6vectorIjLb0EjE4backEv.exit100
  %m_indices = getelementptr inbounds %"class.opt::context::scoped_state", ptr %this, i64 0, i32 8
  br label %_ZNK6vectorIN3opt7context9objectiveELb1EjE4sizeEv.exit

_ZNK6vectorIN3opt7context9objectiveELb1EjE4sizeEv.exit: ; preds = %_ZNK6vectorIN3opt7context9objectiveELb1EjE4sizeEv.exit.lr.ph, %_ZN6vectorIN3opt7context9objectiveELb1EjE8pop_backEv.exit
  %72 = phi ptr [ %71, %_ZNK6vectorIN3opt7context9objectiveELb1EjE4sizeEv.exit.lr.ph ], [ %85, %_ZN6vectorIN3opt7context9objectiveELb1EjE8pop_backEv.exit ]
  %arrayidx.i103 = getelementptr inbounds i32, ptr %72, i64 -1
  %73 = load i32, ptr %arrayidx.i103, align 4
  %cmp16 = icmp ugt i32 %73, %70
  br i1 %cmp16, label %_ZN6vectorIN3opt7context9objectiveELb1EjE4backEv.exit, label %while.end22.loopexit

_ZN6vectorIN3opt7context9objectiveELb1EjE4backEv.exit: ; preds = %_ZNK6vectorIN3opt7context9objectiveELb1EjE4sizeEv.exit
  %74 = add i32 %73, -1
  %75 = zext i32 %74 to i64
  %arrayidx.i1.i109 = getelementptr inbounds %"struct.opt::context::objective", ptr %72, i64 %75
  %76 = load i32, ptr %arrayidx.i1.i109, align 8
  %cmp20 = icmp eq i32 %76, 2
  br i1 %cmp20, label %if.end, label %if.end.i.i.i111

if.end:                                           ; preds = %_ZN6vectorIN3opt7context9objectiveELb1EjE4backEv.exit
  %m_id = getelementptr inbounds %"struct.opt::context::objective", ptr %72, i64 %75, i32 6
  call void @llvm.lifetime.start.p0(i64 16, ptr nonnull %ref.tmp.i.i)
  %77 = load i64, ptr %m_id, align 8
  store i64 %77, ptr %ref.tmp.i.i, align 8
  call void @_ZN14core_hashtableI17default_map_entryI6symboljEN9table2mapIS2_16symbol_hash_proc14symbol_eq_procE15entry_hash_procENS6_13entry_eq_procEE6removeERK9_key_dataIS1_jE(ptr noundef nonnull align 8 dereferenceable(20) %m_indices, ptr noundef nonnull align 8 dereferenceable(12) %ref.tmp.i.i)
  call void @llvm.lifetime.end.p0(i64 16, ptr nonnull %ref.tmp.i.i)
  %.pre131 = load ptr, ptr %m_objectives14, align 8
  %cmp.i.i.i110 = icmp eq ptr %.pre131, null
  br i1 %cmp.i.i.i110, label %_ZN6vectorIN3opt7context9objectiveELb1EjE8pop_backEv.exit, label %if.end.i.i.i111

if.end.i.i.i111:                                  ; preds = %_ZN6vectorIN3opt7context9objectiveELb1EjE4backEv.exit, %if.end
  %78 = phi ptr [ %.pre131, %if.end ], [ %72, %_ZN6vectorIN3opt7context9objectiveELb1EjE4backEv.exit ]
  %arrayidx.i.i.i112 = getelementptr inbounds i32, ptr %78, i64 -1
  %79 = load i32, ptr %arrayidx.i.i.i112, align 4
  %80 = add i32 %79, -1
  %81 = zext i32 %80 to i64
  br label %_ZN6vectorIN3opt7context9objectiveELb1EjE8pop_backEv.exit

_ZN6vectorIN3opt7context9objectiveELb1EjE8pop_backEv.exit: ; preds = %if.end, %if.end.i.i.i111
  %82 = phi ptr [ %78, %if.end.i.i.i111 ], [ null, %if.end ]
  %retval.0.i.i.i113 = phi i64 [ %81, %if.end.i.i.i111 ], [ 4294967295, %if.end ]
  %arrayidx.i1.i.i114 = getelementptr inbounds %"struct.opt::context::objective", ptr %82, i64 %retval.0.i.i.i113
  call void @_ZN3opt7context9objectiveD2Ev(ptr noundef nonnull align 8 dereferenceable(100) %arrayidx.i1.i.i114) #24
  %83 = load ptr, ptr %m_objectives14, align 8
  %arrayidx.i115 = getelementptr inbounds i32, ptr %83, i64 -1
  %84 = load i32, ptr %arrayidx.i115, align 4
  %dec.i116 = add i32 %84, -1
  store i32 %dec.i116, ptr %arrayidx.i115, align 4
  %85 = load ptr, ptr %m_objectives14, align 8
  %cmp.i101 = icmp eq ptr %85, null
  br i1 %cmp.i101, label %while.end22.loopexit, label %_ZNK6vectorIN3opt7context9objectiveELb1EjE4sizeEv.exit, !llvm.loop !8

while.end22.loopexit:                             ; preds = %_ZN6vectorIN3opt7context9objectiveELb1EjE8pop_backEv.exit, %_ZNK6vectorIN3opt7context9objectiveELb1EjE4sizeEv.exit
  %.pre132 = load ptr, ptr %m_objectives_lim, align 8
  br label %while.end22

while.end22:                                      ; preds = %while.end22.loopexit, %_ZN6vectorIjLb0EjE4backEv.exit100
  %86 = phi ptr [ %.pre132, %while.end22.loopexit ], [ %66, %_ZN6vectorIjLb0EjE4backEv.exit100 ]
  %arrayidx.i117 = getelementptr inbounds i32, ptr %86, i64 -1
  %87 = load i32, ptr %arrayidx.i117, align 4
  %dec.i118 = add i32 %87, -1
  store i32 %dec.i118, ptr %arrayidx.i117, align 4
  %88 = load ptr, ptr %m_hard_lim, align 8
  %arrayidx.i119 = getelementptr inbounds i32, ptr %88, i64 -1
  %89 = load i32, ptr %arrayidx.i119, align 4
  %dec.i120 = add i32 %89, -1
  store i32 %dec.i120, ptr %arrayidx.i119, align 4
  %90 = load ptr, ptr %m_asms_lim, align 8
  %arrayidx.i121 = getelementptr inbounds i32, ptr %90, i64 -1
  %91 = load i32, ptr %arrayidx.i121, align 4
  %dec.i122 = add i32 %91, -1
  store i32 %dec.i122, ptr %arrayidx.i121, align 4
  ret void
}

; Function Attrs: mustprogress uwtable
define hidden void @_ZN3opt7context12scoped_state3addEP4expr(ptr noundef nonnull align 8 dereferenceable(152) %this, ptr noundef %hard) local_unnamed_addr #3 align 2 {
entry:
  %tobool.not.i.i.i.i = icmp eq ptr %hard, null
  br i1 %tobool.not.i.i.i.i, label %_ZN15ref_vector_coreI4expr19ref_manager_wrapperIS0_11ast_managerEE7inc_refEPS0_.exit.i, label %if.then.i.i.i.i

if.then.i.i.i.i:                                  ; preds = %entry
  %m_ref_count.i.i.i.i.i = getelementptr inbounds %class.ast, ptr %hard, i64 0, i32 2
  %0 = load i32, ptr %m_ref_count.i.i.i.i.i, align 4
  %inc.i.i.i.i.i = add i32 %0, 1
  store i32 %inc.i.i.i.i.i, ptr %m_ref_count.i.i.i.i.i, align 4
  br label %_ZN15ref_vector_coreI4expr19ref_manager_wrapperIS0_11ast_managerEE7inc_refEPS0_.exit.i

_ZN15ref_vector_coreI4expr19ref_manager_wrapperIS0_11ast_managerEE7inc_refEPS0_.exit.i: ; preds = %if.then.i.i.i.i, %entry
  %m_nodes.i = getelementptr inbounds %"class.opt::context::scoped_state", ptr %this, i64 0, i32 9, i32 0, i32 1
  %1 = load ptr, ptr %m_nodes.i, align 8
  %cmp.i.i = icmp eq ptr %1, null
  br i1 %cmp.i.i, label %if.then.i.i, label %lor.lhs.false.i.i

lor.lhs.false.i.i:                                ; preds = %_ZN15ref_vector_coreI4expr19ref_manager_wrapperIS0_11ast_managerEE7inc_refEPS0_.exit.i
  %arrayidx.i.i = getelementptr inbounds i32, ptr %1, i64 -1
  %2 = load i32, ptr %arrayidx.i.i, align 4
  %arrayidx4.i.i = getelementptr inbounds i32, ptr %1, i64 -2
  %3 = load i32, ptr %arrayidx4.i.i, align 4
  %cmp5.i.i = icmp eq i32 %2, %3
  br i1 %cmp5.i.i, label %if.then.i.i, label %_ZN15ref_vector_coreI4expr19ref_manager_wrapperIS0_11ast_managerEE9push_backEPS0_.exit

if.then.i.i:                                      ; preds = %lor.lhs.false.i.i, %_ZN15ref_vector_coreI4expr19ref_manager_wrapperIS0_11ast_managerEE7inc_refEPS0_.exit.i
  tail call void @_ZN6vectorIP4exprLb0EjE13expand_vectorEv(ptr noundef nonnull align 8 dereferenceable(8) %m_nodes.i)
  %.pre.i.i = load ptr, ptr %m_nodes.i, align 8
  %arrayidx8.phi.trans.insert.i.i = getelementptr inbounds i32, ptr %.pre.i.i, i64 -1
  %.pre1.i.i = load i32, ptr %arrayidx8.phi.trans.insert.i.i, align 4
  br label %_ZN15ref_vector_coreI4expr19ref_manager_wrapperIS0_11ast_managerEE9push_backEPS0_.exit

_ZN15ref_vector_coreI4expr19ref_manager_wrapperIS0_11ast_managerEE9push_backEPS0_.exit: ; preds = %lor.lhs.false.i.i, %if.then.i.i
  %4 = phi i32 [ %.pre1.i.i, %if.then.i.i ], [ %2, %lor.lhs.false.i.i ]
  %5 = phi ptr [ %.pre.i.i, %if.then.i.i ], [ %1, %lor.lhs.false.i.i ]
  %idx.ext.i.i = zext i32 %4 to i64
  %add.ptr.i.i = getelementptr inbounds ptr, ptr %5, i64 %idx.ext.i.i
  store ptr %hard, ptr %add.ptr.i.i, align 8
  %6 = load ptr, ptr %m_nodes.i, align 8
  %arrayidx10.i.i = getelementptr inbounds i32, ptr %6, i64 -1
  %7 = load i32, ptr %arrayidx10.i.i, align 4
  %inc.i.i = add i32 %7, 1
  store i32 %inc.i.i, ptr %arrayidx10.i.i, align 4
  ret void
}

; Function Attrs: mustprogress uwtable
define hidden noundef zeroext i1 @_ZN3opt7context12scoped_state3setERK10ref_vectorI4expr11ast_managerE(ptr noundef nonnull align 8 dereferenceable(152) %this, ptr nocapture noundef nonnull readonly align 8 dereferenceable(16) %hard) local_unnamed_addr #3 align 2 {
entry:
  %m_nodes.i = getelementptr inbounds %class.ref_vector_core, ptr %hard, i64 0, i32 1
  %0 = load ptr, ptr %m_nodes.i, align 8
  %cmp.i.i = icmp eq ptr %0, null
  br i1 %cmp.i.i, label %_ZNK15ref_vector_coreI4expr19ref_manager_wrapperIS0_11ast_managerEE4sizeEv.exit, label %if.end.i.i

if.end.i.i:                                       ; preds = %entry
  %arrayidx.i.i = getelementptr inbounds i32, ptr %0, i64 -1
  %1 = load i32, ptr %arrayidx.i.i, align 4
  br label %_ZNK15ref_vector_coreI4expr19ref_manager_wrapperIS0_11ast_managerEE4sizeEv.exit

_ZNK15ref_vector_coreI4expr19ref_manager_wrapperIS0_11ast_managerEE4sizeEv.exit: ; preds = %entry, %if.end.i.i
  %retval.0.i.i = phi i32 [ %1, %if.end.i.i ], [ 0, %entry ]
  %m_hard = getelementptr inbounds %"class.opt::context::scoped_state", ptr %this, i64 0, i32 9
  %m_nodes.i8 = getelementptr inbounds %"class.opt::context::scoped_state", ptr %this, i64 0, i32 9, i32 0, i32 1
  %2 = load ptr, ptr %m_nodes.i8, align 8
  %cmp.i.i9 = icmp eq ptr %2, null
  br i1 %cmp.i.i9, label %_ZNK15ref_vector_coreI4expr19ref_manager_wrapperIS0_11ast_managerEE4sizeEv.exit13, label %if.end.i.i10

if.end.i.i10:                                     ; preds = %_ZNK15ref_vector_coreI4expr19ref_manager_wrapperIS0_11ast_managerEE4sizeEv.exit
  %arrayidx.i.i11 = getelementptr inbounds i32, ptr %2, i64 -1
  %3 = load i32, ptr %arrayidx.i.i11, align 4
  br label %_ZNK15ref_vector_coreI4expr19ref_manager_wrapperIS0_11ast_managerEE4sizeEv.exit13

_ZNK15ref_vector_coreI4expr19ref_manager_wrapperIS0_11ast_managerEE4sizeEv.exit13: ; preds = %_ZNK15ref_vector_coreI4expr19ref_manager_wrapperIS0_11ast_managerEE4sizeEv.exit, %if.end.i.i10
  %retval.0.i.i12 = phi i32 [ %3, %if.end.i.i10 ], [ 0, %_ZNK15ref_vector_coreI4expr19ref_manager_wrapperIS0_11ast_managerEE4sizeEv.exit ]
  %cmp = icmp ne i32 %retval.0.i.i, %retval.0.i.i12
  %brmerge = or i1 %cmp, %cmp.i.i
  br i1 %brmerge, label %for.end, label %land.rhs.lr.ph.split

land.rhs.lr.ph.split:                             ; preds = %_ZNK15ref_vector_coreI4expr19ref_manager_wrapperIS0_11ast_managerEE4sizeEv.exit13
  %arrayidx.i.i17 = getelementptr inbounds i32, ptr %0, i64 -1
  %4 = load i32, ptr %arrayidx.i.i17, align 4
  %cmp435.not = icmp eq i32 %4, 0
  br i1 %cmp435.not, label %for.end, label %for.body.preheader

for.body.preheader:                               ; preds = %land.rhs.lr.ph.split
  %wide.trip.count = zext i32 %4 to i64
  br label %for.body

for.body:                                         ; preds = %for.body, %for.body.preheader
  %indvars.iv = phi i64 [ 0, %for.body.preheader ], [ %indvars.iv.next, %for.body ]
  %arrayidx.i.i21 = getelementptr inbounds ptr, ptr %0, i64 %indvars.iv
  %5 = load ptr, ptr %arrayidx.i.i21, align 8
  %arrayidx.i.i24 = getelementptr inbounds ptr, ptr %2, i64 %indvars.iv
  %6 = load ptr, ptr %arrayidx.i.i24, align 8
  %cmp8.not = icmp ne ptr %5, %6
  %indvars.iv.next = add nuw nsw i64 %indvars.iv, 1
  %exitcond.not = icmp eq i64 %indvars.iv.next, %wide.trip.count
  %or.cond = select i1 %cmp8.not, i1 true, i1 %exitcond.not
  br i1 %or.cond, label %_ZNK6vectorIP4exprLb0EjE4sizeEv.exit.i, label %for.body, !llvm.loop !9

for.end:                                          ; preds = %_ZNK15ref_vector_coreI4expr19ref_manager_wrapperIS0_11ast_managerEE4sizeEv.exit13, %land.rhs.lr.ph.split
  %eq.0.in.lcssa = phi i1 [ %cmp, %_ZNK15ref_vector_coreI4expr19ref_manager_wrapperIS0_11ast_managerEE4sizeEv.exit13 ], [ false, %land.rhs.lr.ph.split ]
  br i1 %cmp.i.i9, label %_ZN15ref_vector_coreI4expr19ref_manager_wrapperIS0_11ast_managerEE5resetEv.exit, label %_ZNK6vectorIP4exprLb0EjE4sizeEv.exit.i

_ZNK6vectorIP4exprLb0EjE4sizeEv.exit.i:           ; preds = %for.body, %for.end
  %eq.0.in.lcssa42 = phi i1 [ %eq.0.in.lcssa, %for.end ], [ %cmp8.not, %for.body ]
  %arrayidx.i.i27 = getelementptr inbounds i32, ptr %2, i64 -1
  %7 = load i32, ptr %arrayidx.i.i27, align 4
  %8 = zext i32 %7 to i64
  %add.ptr.i = getelementptr inbounds ptr, ptr %2, i64 %8
  %cmp3.i.not.i = icmp eq i32 %7, 0
  br i1 %cmp3.i.not.i, label %if.then.i.i, label %for.body.i.i

for.body.i.i:                                     ; preds = %_ZNK6vectorIP4exprLb0EjE4sizeEv.exit.i, %_ZN15ref_vector_coreI4expr19ref_manager_wrapperIS0_11ast_managerEE7dec_refEPS0_.exit.i.i
  %it.04.i.i = phi ptr [ %incdec.ptr.i.i, %_ZN15ref_vector_coreI4expr19ref_manager_wrapperIS0_11ast_managerEE7dec_refEPS0_.exit.i.i ], [ %2, %_ZNK6vectorIP4exprLb0EjE4sizeEv.exit.i ]
  %9 = load ptr, ptr %it.04.i.i, align 8
  %10 = load ptr, ptr %m_hard, align 8
  %tobool.not.i.i.i.i.i = icmp eq ptr %9, null
  br i1 %tobool.not.i.i.i.i.i, label %_ZN15ref_vector_coreI4expr19ref_manager_wrapperIS0_11ast_managerEE7dec_refEPS0_.exit.i.i, label %if.then.i.i.i.i.i

if.then.i.i.i.i.i:                                ; preds = %for.body.i.i
  %m_ref_count.i.i.i.i.i.i = getelementptr inbounds %class.ast, ptr %9, i64 0, i32 2
  %11 = load i32, ptr %m_ref_count.i.i.i.i.i.i, align 4
  %dec.i.i.i.i.i.i = add i32 %11, -1
  store i32 %dec.i.i.i.i.i.i, ptr %m_ref_count.i.i.i.i.i.i, align 4
  %cmp.i.i.i.i.i = icmp eq i32 %dec.i.i.i.i.i.i, 0
  br i1 %cmp.i.i.i.i.i, label %if.then2.i.i.i.i.i, label %_ZN15ref_vector_coreI4expr19ref_manager_wrapperIS0_11ast_managerEE7dec_refEPS0_.exit.i.i

if.then2.i.i.i.i.i:                               ; preds = %if.then.i.i.i.i.i
  tail call void @_ZN11ast_manager11delete_nodeEP3ast(ptr noundef nonnull align 8 dereferenceable(976) %10, ptr noundef nonnull %9)
  br label %_ZN15ref_vector_coreI4expr19ref_manager_wrapperIS0_11ast_managerEE7dec_refEPS0_.exit.i.i

_ZN15ref_vector_coreI4expr19ref_manager_wrapperIS0_11ast_managerEE7dec_refEPS0_.exit.i.i: ; preds = %if.then2.i.i.i.i.i, %if.then.i.i.i.i.i, %for.body.i.i
  %incdec.ptr.i.i = getelementptr inbounds ptr, ptr %it.04.i.i, i64 1
  %cmp.i1.i = icmp ult ptr %incdec.ptr.i.i, %add.ptr.i
  br i1 %cmp.i1.i, label %for.body.i.i, label %_ZN15ref_vector_coreI4expr19ref_manager_wrapperIS0_11ast_managerEE13dec_range_refEPKPS0_S7_.exit.i, !llvm.loop !4

_ZN15ref_vector_coreI4expr19ref_manager_wrapperIS0_11ast_managerEE13dec_range_refEPKPS0_S7_.exit.i: ; preds = %_ZN15ref_vector_coreI4expr19ref_manager_wrapperIS0_11ast_managerEE7dec_refEPS0_.exit.i.i
  %.pre.i = load ptr, ptr %m_nodes.i8, align 8
  %tobool.not.i.i = icmp eq ptr %.pre.i, null
  br i1 %tobool.not.i.i, label %_ZN15ref_vector_coreI4expr19ref_manager_wrapperIS0_11ast_managerEE5resetEv.exit, label %if.then.i.i

if.then.i.i:                                      ; preds = %_ZN15ref_vector_coreI4expr19ref_manager_wrapperIS0_11ast_managerEE13dec_range_refEPKPS0_S7_.exit.i, %_ZNK6vectorIP4exprLb0EjE4sizeEv.exit.i
  %12 = phi ptr [ %.pre.i, %_ZN15ref_vector_coreI4expr19ref_manager_wrapperIS0_11ast_managerEE13dec_range_refEPKPS0_S7_.exit.i ], [ %2, %_ZNK6vectorIP4exprLb0EjE4sizeEv.exit.i ]
  %arrayidx.i2.i = getelementptr inbounds i32, ptr %12, i64 -1
  store i32 0, ptr %arrayidx.i2.i, align 4
  br label %_ZN15ref_vector_coreI4expr19ref_manager_wrapperIS0_11ast_managerEE5resetEv.exit

_ZN15ref_vector_coreI4expr19ref_manager_wrapperIS0_11ast_managerEE5resetEv.exit: ; preds = %for.end, %_ZN15ref_vector_coreI4expr19ref_manager_wrapperIS0_11ast_managerEE13dec_range_refEPKPS0_S7_.exit.i, %if.then.i.i
  %eq.0.in.lcssa43 = phi i1 [ %eq.0.in.lcssa, %for.end ], [ %eq.0.in.lcssa42, %_ZN15ref_vector_coreI4expr19ref_manager_wrapperIS0_11ast_managerEE13dec_range_refEPKPS0_S7_.exit.i ], [ %eq.0.in.lcssa42, %if.then.i.i ]
  br label %for.cond.i

for.cond.i:                                       ; preds = %_ZN15ref_vector_coreI4expr19ref_manager_wrapperIS0_11ast_managerEE9push_backEPS0_.exit.i, %_ZN15ref_vector_coreI4expr19ref_manager_wrapperIS0_11ast_managerEE5resetEv.exit
  %indvars.iv.i = phi i64 [ %indvars.iv.next.i, %_ZN15ref_vector_coreI4expr19ref_manager_wrapperIS0_11ast_managerEE9push_backEPS0_.exit.i ], [ 0, %_ZN15ref_vector_coreI4expr19ref_manager_wrapperIS0_11ast_managerEE5resetEv.exit ]
  %13 = load ptr, ptr %m_nodes.i, align 8
  %cmp.i.i.i = icmp eq ptr %13, null
  br i1 %cmp.i.i.i, label %_ZNK15ref_vector_coreI4expr19ref_manager_wrapperIS0_11ast_managerEE4sizeEv.exit.i, label %if.end.i.i.i

if.end.i.i.i:                                     ; preds = %for.cond.i
  %arrayidx.i.i.i = getelementptr inbounds i32, ptr %13, i64 -1
  %14 = load i32, ptr %arrayidx.i.i.i, align 4
  br label %_ZNK15ref_vector_coreI4expr19ref_manager_wrapperIS0_11ast_managerEE4sizeEv.exit.i

_ZNK15ref_vector_coreI4expr19ref_manager_wrapperIS0_11ast_managerEE4sizeEv.exit.i: ; preds = %if.end.i.i.i, %for.cond.i
  %retval.0.i.i.i = phi i32 [ %14, %if.end.i.i.i ], [ 0, %for.cond.i ]
  %15 = zext i32 %retval.0.i.i.i to i64
  %cmp.i = icmp ult i64 %indvars.iv.i, %15
  br i1 %cmp.i, label %for.body.i, label %_ZN15ref_vector_coreI4expr19ref_manager_wrapperIS0_11ast_managerEE6appendERKS4_.exit

for.body.i:                                       ; preds = %_ZNK15ref_vector_coreI4expr19ref_manager_wrapperIS0_11ast_managerEE4sizeEv.exit.i
  %arrayidx.i.i5.i = getelementptr inbounds ptr, ptr %13, i64 %indvars.iv.i
  %16 = load ptr, ptr %arrayidx.i.i5.i, align 8
  %tobool.not.i.i.i.i.i28 = icmp eq ptr %16, null
  br i1 %tobool.not.i.i.i.i.i28, label %_ZN15ref_vector_coreI4expr19ref_manager_wrapperIS0_11ast_managerEE7inc_refEPS0_.exit.i.i, label %if.then.i.i.i.i.i29

if.then.i.i.i.i.i29:                              ; preds = %for.body.i
  %m_ref_count.i.i.i.i.i.i30 = getelementptr inbounds %class.ast, ptr %16, i64 0, i32 2
  %17 = load i32, ptr %m_ref_count.i.i.i.i.i.i30, align 4
  %inc.i.i.i.i.i.i = add i32 %17, 1
  store i32 %inc.i.i.i.i.i.i, ptr %m_ref_count.i.i.i.i.i.i30, align 4
  br label %_ZN15ref_vector_coreI4expr19ref_manager_wrapperIS0_11ast_managerEE7inc_refEPS0_.exit.i.i

_ZN15ref_vector_coreI4expr19ref_manager_wrapperIS0_11ast_managerEE7inc_refEPS0_.exit.i.i: ; preds = %if.then.i.i.i.i.i29, %for.body.i
  %18 = load ptr, ptr %m_nodes.i8, align 8
  %cmp.i.i7.i = icmp eq ptr %18, null
  br i1 %cmp.i.i7.i, label %if.then.i.i.i, label %lor.lhs.false.i.i.i

lor.lhs.false.i.i.i:                              ; preds = %_ZN15ref_vector_coreI4expr19ref_manager_wrapperIS0_11ast_managerEE7inc_refEPS0_.exit.i.i
  %arrayidx.i.i8.i = getelementptr inbounds i32, ptr %18, i64 -1
  %19 = load i32, ptr %arrayidx.i.i8.i, align 4
  %arrayidx4.i.i.i = getelementptr inbounds i32, ptr %18, i64 -2
  %20 = load i32, ptr %arrayidx4.i.i.i, align 4
  %cmp5.i.i.i = icmp eq i32 %19, %20
  br i1 %cmp5.i.i.i, label %if.then.i.i.i, label %_ZN15ref_vector_coreI4expr19ref_manager_wrapperIS0_11ast_managerEE9push_backEPS0_.exit.i

if.then.i.i.i:                                    ; preds = %lor.lhs.false.i.i.i, %_ZN15ref_vector_coreI4expr19ref_manager_wrapperIS0_11ast_managerEE7inc_refEPS0_.exit.i.i
  tail call void @_ZN6vectorIP4exprLb0EjE13expand_vectorEv(ptr noundef nonnull align 8 dereferenceable(8) %m_nodes.i8)
  %.pre.i.i.i = load ptr, ptr %m_nodes.i8, align 8
  %arrayidx8.phi.trans.insert.i.i.i = getelementptr inbounds i32, ptr %.pre.i.i.i, i64 -1
  %.pre1.i.i.i = load i32, ptr %arrayidx8.phi.trans.insert.i.i.i, align 4
  br label %_ZN15ref_vector_coreI4expr19ref_manager_wrapperIS0_11ast_managerEE9push_backEPS0_.exit.i

_ZN15ref_vector_coreI4expr19ref_manager_wrapperIS0_11ast_managerEE9push_backEPS0_.exit.i: ; preds = %if.then.i.i.i, %lor.lhs.false.i.i.i
  %21 = phi i32 [ %.pre1.i.i.i, %if.then.i.i.i ], [ %19, %lor.lhs.false.i.i.i ]
  %22 = phi ptr [ %.pre.i.i.i, %if.then.i.i.i ], [ %18, %lor.lhs.false.i.i.i ]
  %idx.ext.i.i.i = zext i32 %21 to i64
  %add.ptr.i.i.i = getelementptr inbounds ptr, ptr %22, i64 %idx.ext.i.i.i
  store ptr %16, ptr %add.ptr.i.i.i, align 8
  %23 = load ptr, ptr %m_nodes.i8, align 8
  %arrayidx10.i.i.i = getelementptr inbounds i32, ptr %23, i64 -1
  %24 = load i32, ptr %arrayidx10.i.i.i, align 4
  %inc.i.i.i = add i32 %24, 1
  store i32 %inc.i.i.i, ptr %arrayidx10.i.i.i, align 4
  %indvars.iv.next.i = add nuw nsw i64 %indvars.iv.i, 1
  br label %for.cond.i, !llvm.loop !10

_ZN15ref_vector_coreI4expr19ref_manager_wrapperIS0_11ast_managerEE6appendERKS4_.exit: ; preds = %_ZNK15ref_vector_coreI4expr19ref_manager_wrapperIS0_11ast_managerEE4sizeEv.exit.i
  ret i1 %eq.0.in.lcssa43
}

; Function Attrs: mustprogress uwtable
define hidden noundef i32 @_ZN3opt7context12scoped_state3addEP4exprRK8rationalRK6symbol(ptr noundef nonnull align 8 dereferenceable(152) %this, ptr noundef %f, ptr noundef nonnull align 8 dereferenceable(32) %w, ptr nocapture noundef nonnull readonly align 8 dereferenceable(8) %id) local_unnamed_addr #3 align 2 personality ptr @__gxx_personality_v0 {
entry:
  %ref.tmp.i = alloca %struct._key_data.161, align 8
  %ref.tmp = alloca %"class.std::__cxx11::basic_string", align 8
  %ref.tmp2 = alloca %"class.std::allocator", align 1
  %ref.tmp8 = alloca %"struct.opt::context::objective", align 8
  %0 = load ptr, ptr %this, align 8
  %call = tail call noundef zeroext i1 @_ZNK11ast_manager7is_boolEPK4expr(ptr noundef nonnull align 8 dereferenceable(976) %0, ptr noundef %f)
  br i1 %call, label %if.end, label %if.then

if.then:                                          ; preds = %entry
  %exception = tail call ptr @__cxa_allocate_exception(i64 40) #24
  call void @_ZNSaIcEC1Ev(ptr noundef nonnull align 1 dereferenceable(1) %ref.tmp2) #24
  invoke void @_ZNSt7__cxx1112basic_stringIcSt11char_traitsIcESaIcEEC2IS3_EEPKcRKS3_(ptr noundef nonnull align 8 dereferenceable(32) %ref.tmp, ptr noundef nonnull @.str, ptr noundef nonnull align 1 dereferenceable(1) %ref.tmp2)
          to label %invoke.cont unwind label %cleanup.action

invoke.cont:                                      ; preds = %if.then
  store ptr getelementptr inbounds ({ [6 x ptr] }, ptr @_ZTV17default_exception, i64 0, inrange i32 0, i64 2), ptr %exception, align 8
  %m_msg.i = getelementptr inbounds %class.default_exception, ptr %exception, i64 0, i32 1
  call void @_ZNSt7__cxx1112basic_stringIcSt11char_traitsIcESaIcEEC1EOS4_(ptr noundef nonnull align 8 dereferenceable(32) %m_msg.i, ptr noundef nonnull align 8 dereferenceable(32) %ref.tmp) #24
  invoke void @__cxa_throw(ptr nonnull %exception, ptr nonnull @_ZTI17default_exception, ptr nonnull @_ZN17default_exceptionD2Ev) #25
          to label %unreachable unwind label %ehcleanup

ehcleanup:                                        ; preds = %invoke.cont
  %1 = landingpad { ptr, i32 }
          cleanup
  call void @_ZNSt7__cxx1112basic_stringIcSt11char_traitsIcESaIcEED1Ev(ptr noundef nonnull align 8 dereferenceable(32) %ref.tmp) #24
  call void @_ZNSaIcED1Ev(ptr noundef nonnull align 1 dereferenceable(1) %ref.tmp2) #24
  br label %common.resume

cleanup.action:                                   ; preds = %if.then
  %2 = landingpad { ptr, i32 }
          cleanup
  call void @_ZNSaIcED1Ev(ptr noundef nonnull align 1 dereferenceable(1) %ref.tmp2) #24
  call void @__cxa_free_exception(ptr %exception) #24
  br label %common.resume

if.end:                                           ; preds = %entry
  %m_indices = getelementptr inbounds %"class.opt::context::scoped_state", ptr %this, i64 0, i32 8
  %3 = load i64, ptr %id, align 8
  %4 = inttoptr i64 %3 to ptr
  %cmp.i.i.i.i.i.i.i = icmp eq i64 %3, 0
  br i1 %cmp.i.i.i.i.i.i.i, label %_ZNK14core_hashtableI17default_map_entryI6symboljEN9table2mapIS2_16symbol_hash_proc14symbol_eq_procE15entry_hash_procENS6_13entry_eq_procEE8get_hashERK9_key_dataIS1_jE.exit.i.i.i, label %if.else.i.i.i.i.i.i.i

if.else.i.i.i.i.i.i.i:                            ; preds = %if.end
  %and.i.i.i.i.i.i.i.i = and i64 %3, 7
  %cmp.i.i.i.i.i.i.i.i = icmp eq i64 %and.i.i.i.i.i.i.i.i, 1
  br i1 %cmp.i.i.i.i.i.i.i.i, label %if.then2.i.i.i.i.i.i.i, label %if.else4.i.i.i.i.i.i.i

if.then2.i.i.i.i.i.i.i:                           ; preds = %if.else.i.i.i.i.i.i.i
  %shr.i.i.i.i.i.i.i.i = lshr i64 %3, 3
  %conv.i.i.i.i.i.i.i.i = trunc i64 %shr.i.i.i.i.i.i.i.i to i32
  br label %_ZNK14core_hashtableI17default_map_entryI6symboljEN9table2mapIS2_16symbol_hash_proc14symbol_eq_procE15entry_hash_procENS6_13entry_eq_procEE8get_hashERK9_key_dataIS1_jE.exit.i.i.i

if.else4.i.i.i.i.i.i.i:                           ; preds = %if.else.i.i.i.i.i.i.i
  %arrayidx.i.i.i.i.i.i.i = getelementptr inbounds i64, ptr %4, i64 -1
  %5 = load i64, ptr %arrayidx.i.i.i.i.i.i.i, align 8
  %conv.i.i.i.i.i.i.i = trunc i64 %5 to i32
  br label %_ZNK14core_hashtableI17default_map_entryI6symboljEN9table2mapIS2_16symbol_hash_proc14symbol_eq_procE15entry_hash_procENS6_13entry_eq_procEE8get_hashERK9_key_dataIS1_jE.exit.i.i.i

_ZNK14core_hashtableI17default_map_entryI6symboljEN9table2mapIS2_16symbol_hash_proc14symbol_eq_procE15entry_hash_procENS6_13entry_eq_procEE8get_hashERK9_key_dataIS1_jE.exit.i.i.i: ; preds = %if.else4.i.i.i.i.i.i.i, %if.then2.i.i.i.i.i.i.i, %if.end
  %retval.0.i.i.i.i.i.i.i = phi i32 [ %conv.i.i.i.i.i.i.i.i, %if.then2.i.i.i.i.i.i.i ], [ %conv.i.i.i.i.i.i.i, %if.else4.i.i.i.i.i.i.i ], [ -1640531495, %if.end ]
  %m_capacity.i.i.i = getelementptr inbounds %"class.opt::context::scoped_state", ptr %this, i64 0, i32 8, i32 0, i32 0, i32 1
  %6 = load i32, ptr %m_capacity.i.i.i, align 8
  %sub.i.i.i = add i32 %6, -1
  %and.i.i.i = and i32 %sub.i.i.i, %retval.0.i.i.i.i.i.i.i
  %7 = load ptr, ptr %m_indices, align 8
  %idx.ext.i.i.i = zext i32 %and.i.i.i to i64
  %add.ptr.i.i.i = getelementptr inbounds %class.default_map_entry, ptr %7, i64 %idx.ext.i.i.i
  %idx.ext4.i.i.i = zext i32 %6 to i64
  %add.ptr5.i.i.i = getelementptr inbounds %class.default_map_entry, ptr %7, i64 %idx.ext4.i.i.i
  %cmp.not30.i.i.i = icmp eq i32 %and.i.i.i, %6
  br i1 %cmp.not30.i.i.i, label %for.cond18.preheader.i.i.i, label %for.body.i.i.i

for.cond18.preheader.i.i.i:                       ; preds = %for.inc.i.i.i, %_ZNK14core_hashtableI17default_map_entryI6symboljEN9table2mapIS2_16symbol_hash_proc14symbol_eq_procE15entry_hash_procENS6_13entry_eq_procEE8get_hashERK9_key_dataIS1_jE.exit.i.i.i
  %cmp19.not32.i.i.i = icmp eq i32 %and.i.i.i, 0
  br i1 %cmp19.not32.i.i.i, label %if.then7, label %for.body20.i.i.i

for.body.i.i.i:                                   ; preds = %_ZNK14core_hashtableI17default_map_entryI6symboljEN9table2mapIS2_16symbol_hash_proc14symbol_eq_procE15entry_hash_procENS6_13entry_eq_procEE8get_hashERK9_key_dataIS1_jE.exit.i.i.i, %for.inc.i.i.i
  %curr.031.i.i.i = phi ptr [ %incdec.ptr.i.i.i, %for.inc.i.i.i ], [ %add.ptr.i.i.i, %_ZNK14core_hashtableI17default_map_entryI6symboljEN9table2mapIS2_16symbol_hash_proc14symbol_eq_procE15entry_hash_procENS6_13entry_eq_procEE8get_hashERK9_key_dataIS1_jE.exit.i.i.i ]
  %m_state.i.i.i.i = getelementptr inbounds %class.default_hash_entry, ptr %curr.031.i.i.i, i64 0, i32 1
  %8 = load i32, ptr %m_state.i.i.i.i, align 4
  switch i32 %8, label %for.inc.i.i.i [
    i32 2, label %if.then.i.i.i
    i32 0, label %if.then7
  ]

if.then.i.i.i:                                    ; preds = %for.body.i.i.i
  %9 = load i32, ptr %curr.031.i.i.i, align 8
  %cmp8.i.i.i = icmp eq i32 %9, %retval.0.i.i.i.i.i.i.i
  br i1 %cmp8.i.i.i, label %land.lhs.true.i.i.i, label %for.inc.i.i.i

land.lhs.true.i.i.i:                              ; preds = %if.then.i.i.i
  %m_data.i.i.i.i = getelementptr inbounds %class.default_hash_entry, ptr %curr.031.i.i.i, i64 0, i32 2
  %10 = load ptr, ptr %m_data.i.i.i.i, align 8
  %cmp.i.i.i.i19.i.i.i = icmp eq ptr %10, %4
  br i1 %cmp.i.i.i.i19.i.i.i, label %if.end18, label %for.inc.i.i.i

for.inc.i.i.i:                                    ; preds = %land.lhs.true.i.i.i, %if.then.i.i.i, %for.body.i.i.i
  %incdec.ptr.i.i.i = getelementptr inbounds %class.default_map_entry, ptr %curr.031.i.i.i, i64 1
  %cmp.not.i.i.i = icmp eq ptr %incdec.ptr.i.i.i, %add.ptr5.i.i.i
  br i1 %cmp.not.i.i.i, label %for.cond18.preheader.i.i.i, label %for.body.i.i.i, !llvm.loop !11

for.body20.i.i.i:                                 ; preds = %for.cond18.preheader.i.i.i, %for.inc36.i.i.i
  %curr.133.i.i.i = phi ptr [ %incdec.ptr37.i.i.i, %for.inc36.i.i.i ], [ %7, %for.cond18.preheader.i.i.i ]
  %m_state.i22.i.i.i = getelementptr inbounds %class.default_hash_entry, ptr %curr.133.i.i.i, i64 0, i32 1
  %11 = load i32, ptr %m_state.i22.i.i.i, align 4
  switch i32 %11, label %for.inc36.i.i.i [
    i32 2, label %if.then22.i.i.i
    i32 0, label %if.then7
  ]

if.then22.i.i.i:                                  ; preds = %for.body20.i.i.i
  %12 = load i32, ptr %curr.133.i.i.i, align 8
  %cmp24.i.i.i = icmp eq i32 %12, %retval.0.i.i.i.i.i.i.i
  br i1 %cmp24.i.i.i, label %land.lhs.true25.i.i.i, label %for.inc36.i.i.i

land.lhs.true25.i.i.i:                            ; preds = %if.then22.i.i.i
  %m_data.i24.i.i.i = getelementptr inbounds %class.default_hash_entry, ptr %curr.133.i.i.i, i64 0, i32 2
  %13 = load ptr, ptr %m_data.i24.i.i.i, align 8
  %cmp.i.i.i.i25.i.i.i = icmp eq ptr %13, %4
  br i1 %cmp.i.i.i.i25.i.i.i, label %if.end18, label %for.inc36.i.i.i

for.inc36.i.i.i:                                  ; preds = %land.lhs.true25.i.i.i, %if.then22.i.i.i, %for.body20.i.i.i
  %incdec.ptr37.i.i.i = getelementptr inbounds %class.default_map_entry, ptr %curr.133.i.i.i, i64 1
  %cmp19.not.i.i.i = icmp eq ptr %incdec.ptr37.i.i.i, %add.ptr.i.i.i
  br i1 %cmp19.not.i.i.i, label %if.then7, label %for.body20.i.i.i, !llvm.loop !12

if.then7:                                         ; preds = %for.body.i.i.i, %for.inc36.i.i.i, %for.body20.i.i.i, %for.cond18.preheader.i.i.i
  %m_objectives = getelementptr inbounds %"class.opt::context::scoped_state", ptr %this, i64 0, i32 11
  %14 = load ptr, ptr %this, align 8
  store i32 2, ptr %ref.tmp8, align 8
  %m_term.i = getelementptr inbounds %"struct.opt::context::objective", ptr %ref.tmp8, i64 0, i32 2
  store ptr null, ptr %m_term.i, align 8
  %m_manager.i.i = getelementptr inbounds %"struct.opt::context::objective", ptr %ref.tmp8, i64 0, i32 2, i32 1
  store ptr %14, ptr %m_manager.i.i, align 8
  %m_terms.i = getelementptr inbounds %"struct.opt::context::objective", ptr %ref.tmp8, i64 0, i32 3
  %15 = ptrtoint ptr %14 to i64
  store i64 %15, ptr %m_terms.i, align 8
  %m_nodes.i.i.i = getelementptr inbounds %"struct.opt::context::objective", ptr %ref.tmp8, i64 0, i32 3, i32 0, i32 1
  %m_kind.i.i.i.i.i = getelementptr inbounds %"struct.opt::context::objective", ptr %ref.tmp8, i64 0, i32 5, i32 0, i32 0, i32 0, i32 1
  call void @llvm.memset.p0.i64(ptr noundef nonnull align 8 dereferenceable(20) %m_nodes.i.i.i, i8 0, i64 20, i1 false)
  %m_ptr.i.i.i.i.i = getelementptr inbounds %"struct.opt::context::objective", ptr %ref.tmp8, i64 0, i32 5, i32 0, i32 0, i32 0, i32 2
  store ptr null, ptr %m_ptr.i.i.i.i.i, align 8
  %m_den.i.i.i.i = getelementptr inbounds %"struct.opt::context::objective", ptr %ref.tmp8, i64 0, i32 5, i32 0, i32 0, i32 1
  store i32 1, ptr %m_den.i.i.i.i, align 8
  %m_kind.i1.i.i.i.i = getelementptr inbounds %"struct.opt::context::objective", ptr %ref.tmp8, i64 0, i32 5, i32 0, i32 0, i32 1, i32 1
  store i8 0, ptr %m_kind.i1.i.i.i.i, align 4
  %m_ptr.i4.i.i.i.i = getelementptr inbounds %"struct.opt::context::objective", ptr %ref.tmp8, i64 0, i32 5, i32 0, i32 0, i32 1, i32 2
  store ptr null, ptr %m_ptr.i4.i.i.i.i, align 8
  %16 = load ptr, ptr @_ZN8rational13g_mpq_managerE, align 8
  store i8 0, ptr %m_kind.i.i.i.i.i, align 4
  invoke void @_ZN11mpz_managerILb1EE3delEPS0_R3mpz(ptr noundef nonnull %16, ptr noundef nonnull align 8 dereferenceable(16) %m_den.i.i.i.i)
          to label %_ZN3opt7context9objectiveC2ER11ast_manager6symbol.exit unwind label %lpad2.i

common.resume:                                    ; preds = %lpad10, %cleanup.action, %ehcleanup, %lpad2.i
  %common.resume.op = phi { ptr, i32 } [ %17, %lpad2.i ], [ %22, %lpad10 ], [ %2, %cleanup.action ], [ %1, %ehcleanup ]
  resume { ptr, i32 } %common.resume.op

lpad2.i:                                          ; preds = %if.then7
  %17 = landingpad { ptr, i32 }
          cleanup
  %m_weights.i = getelementptr inbounds %"struct.opt::context::objective", ptr %ref.tmp8, i64 0, i32 4
  call void @_ZN6vectorI8rationalLb1EjED2Ev(ptr noundef nonnull align 8 dereferenceable(8) %m_weights.i) #24
  call void @_ZN10ref_vectorI4expr11ast_managerED2Ev(ptr noundef nonnull align 8 dereferenceable(16) %m_terms.i) #24
  call void @_ZN7obj_refI3app11ast_managerED2Ev(ptr noundef nonnull align 8 dereferenceable(16) %m_term.i) #24
  br label %common.resume

_ZN3opt7context9objectiveC2ER11ast_manager6symbol.exit: ; preds = %if.then7
  store i32 1, ptr %m_den.i.i.i.i, align 8
  %m_negate.i.i = getelementptr inbounds %"struct.opt::context::objective", ptr %ref.tmp8, i64 0, i32 5, i32 1
  store i8 0, ptr %m_negate.i.i, align 8
  %m_id.i = getelementptr inbounds %"struct.opt::context::objective", ptr %ref.tmp8, i64 0, i32 6
  store ptr %4, ptr %m_id.i, align 8
  %m_index.i = getelementptr inbounds %"struct.opt::context::objective", ptr %ref.tmp8, i64 0, i32 7
  store i32 0, ptr %m_index.i, align 8
  %call12 = invoke noundef nonnull align 8 dereferenceable(8) ptr @_ZN6vectorIN3opt7context9objectiveELb1EjE9push_backEOS2_(ptr noundef nonnull align 8 dereferenceable(8) %m_objectives, ptr noundef nonnull align 8 dereferenceable(100) %ref.tmp8)
          to label %invoke.cont11 unwind label %lpad10

invoke.cont11:                                    ; preds = %_ZN3opt7context9objectiveC2ER11ast_manager6symbol.exit
  call void @_ZN3opt7context9objectiveD2Ev(ptr noundef nonnull align 8 dereferenceable(100) %ref.tmp8) #24
  %18 = load ptr, ptr %m_objectives, align 8
  %cmp.i = icmp eq ptr %18, null
  br i1 %cmp.i, label %_ZNK6vectorIN3opt7context9objectiveELb1EjE4sizeEv.exit, label %if.end.i

if.end.i:                                         ; preds = %invoke.cont11
  %arrayidx.i = getelementptr inbounds i32, ptr %18, i64 -1
  %19 = load i32, ptr %arrayidx.i, align 4
  %20 = add i32 %19, -1
  br label %_ZNK6vectorIN3opt7context9objectiveELb1EjE4sizeEv.exit

_ZNK6vectorIN3opt7context9objectiveELb1EjE4sizeEv.exit: ; preds = %invoke.cont11, %if.end.i
  %retval.0.i = phi i32 [ %20, %if.end.i ], [ -1, %invoke.cont11 ]
  call void @llvm.lifetime.start.p0(i64 16, ptr nonnull %ref.tmp.i)
  %21 = load i64, ptr %id, align 8
  store i64 %21, ptr %ref.tmp.i, align 8
  %m_value.i.i = getelementptr inbounds %struct._key_data.161, ptr %ref.tmp.i, i64 0, i32 1
  store i32 %retval.0.i, ptr %m_value.i.i, align 8
  call void @_ZN14core_hashtableI17default_map_entryI6symboljEN9table2mapIS2_16symbol_hash_proc14symbol_eq_procE15entry_hash_procENS6_13entry_eq_procEE6insertEO9_key_dataIS1_jE(ptr noundef nonnull align 8 dereferenceable(20) %m_indices, ptr noundef nonnull align 8 dereferenceable(12) %ref.tmp.i)
  call void @llvm.lifetime.end.p0(i64 16, ptr nonnull %ref.tmp.i)
  %.pre = load i64, ptr %id, align 8
  %.pre37 = inttoptr i64 %.pre to ptr
  br label %if.end18

lpad10:                                           ; preds = %_ZN3opt7context9objectiveC2ER11ast_manager6symbol.exit
  %22 = landingpad { ptr, i32 }
          cleanup
  call void @_ZN3opt7context9objectiveD2Ev(ptr noundef nonnull align 8 dereferenceable(100) %ref.tmp8) #24
  br label %common.resume

if.end18:                                         ; preds = %land.lhs.true.i.i.i, %land.lhs.true25.i.i.i, %_ZNK6vectorIN3opt7context9objectiveELb1EjE4sizeEv.exit
  %.pre-phi = phi ptr [ %.pre37, %_ZNK6vectorIN3opt7context9objectiveELb1EjE4sizeEv.exit ], [ %4, %land.lhs.true25.i.i.i ], [ %4, %land.lhs.true.i.i.i ]
  %23 = phi i64 [ %.pre, %_ZNK6vectorIN3opt7context9objectiveELb1EjE4sizeEv.exit ], [ %3, %land.lhs.true25.i.i.i ], [ %3, %land.lhs.true.i.i.i ]
  %cmp.i.i.i.i.i.i.i.i9 = icmp eq i64 %23, 0
  br i1 %cmp.i.i.i.i.i.i.i.i9, label %_ZNK14core_hashtableI17default_map_entryI6symboljEN9table2mapIS2_16symbol_hash_proc14symbol_eq_procE15entry_hash_procENS6_13entry_eq_procEE8get_hashERK9_key_dataIS1_jE.exit.i.i.i.i, label %if.else.i.i.i.i.i.i.i.i

if.else.i.i.i.i.i.i.i.i:                          ; preds = %if.end18
  %and.i.i.i.i.i.i.i.i.i = and i64 %23, 7
  %cmp.i.i.i.i.i.i.i.i.i = icmp eq i64 %and.i.i.i.i.i.i.i.i.i, 1
  br i1 %cmp.i.i.i.i.i.i.i.i.i, label %if.then2.i.i.i.i.i.i.i.i, label %if.else4.i.i.i.i.i.i.i.i

if.then2.i.i.i.i.i.i.i.i:                         ; preds = %if.else.i.i.i.i.i.i.i.i
  %shr.i.i.i.i.i.i.i.i.i = lshr i64 %23, 3
  %conv.i.i.i.i.i.i.i.i.i = trunc i64 %shr.i.i.i.i.i.i.i.i.i to i32
  br label %_ZNK14core_hashtableI17default_map_entryI6symboljEN9table2mapIS2_16symbol_hash_proc14symbol_eq_procE15entry_hash_procENS6_13entry_eq_procEE8get_hashERK9_key_dataIS1_jE.exit.i.i.i.i

if.else4.i.i.i.i.i.i.i.i:                         ; preds = %if.else.i.i.i.i.i.i.i.i
  %arrayidx.i.i.i.i.i.i.i.i = getelementptr inbounds i64, ptr %.pre-phi, i64 -1
  %24 = load i64, ptr %arrayidx.i.i.i.i.i.i.i.i, align 8
  %conv.i.i.i.i.i.i.i.i10 = trunc i64 %24 to i32
  br label %_ZNK14core_hashtableI17default_map_entryI6symboljEN9table2mapIS2_16symbol_hash_proc14symbol_eq_procE15entry_hash_procENS6_13entry_eq_procEE8get_hashERK9_key_dataIS1_jE.exit.i.i.i.i

_ZNK14core_hashtableI17default_map_entryI6symboljEN9table2mapIS2_16symbol_hash_proc14symbol_eq_procE15entry_hash_procENS6_13entry_eq_procEE8get_hashERK9_key_dataIS1_jE.exit.i.i.i.i: ; preds = %if.else4.i.i.i.i.i.i.i.i, %if.then2.i.i.i.i.i.i.i.i, %if.end18
  %retval.0.i.i.i.i.i.i.i.i = phi i32 [ %conv.i.i.i.i.i.i.i.i.i, %if.then2.i.i.i.i.i.i.i.i ], [ %conv.i.i.i.i.i.i.i.i10, %if.else4.i.i.i.i.i.i.i.i ], [ -1640531495, %if.end18 ]
  %25 = load i32, ptr %m_capacity.i.i.i, align 8
  %sub.i.i.i.i = add i32 %25, -1
  %and.i.i.i.i = and i32 %sub.i.i.i.i, %retval.0.i.i.i.i.i.i.i.i
  %26 = load ptr, ptr %m_indices, align 8
  %idx.ext.i.i.i.i = zext i32 %and.i.i.i.i to i64
  %add.ptr.i.i.i.i = getelementptr inbounds %class.default_map_entry, ptr %26, i64 %idx.ext.i.i.i.i
  %idx.ext4.i.i.i.i = zext i32 %25 to i64
  %add.ptr5.i.i.i.i = getelementptr inbounds %class.default_map_entry, ptr %26, i64 %idx.ext4.i.i.i.i
  %cmp.not30.i.i.i.i = icmp eq i32 %and.i.i.i.i, %25
  br i1 %cmp.not30.i.i.i.i, label %for.cond18.preheader.i.i.i.i, label %for.body.i.i.i.i

for.cond18.preheader.i.i.i.i:                     ; preds = %for.inc.i.i.i.i, %_ZNK14core_hashtableI17default_map_entryI6symboljEN9table2mapIS2_16symbol_hash_proc14symbol_eq_procE15entry_hash_procENS6_13entry_eq_procEE8get_hashERK9_key_dataIS1_jE.exit.i.i.i.i
  %cmp19.not32.i.i.i.i = icmp ne i32 %and.i.i.i.i, 0
  br label %for.body20.i.i.i.i

for.body.i.i.i.i:                                 ; preds = %_ZNK14core_hashtableI17default_map_entryI6symboljEN9table2mapIS2_16symbol_hash_proc14symbol_eq_procE15entry_hash_procENS6_13entry_eq_procEE8get_hashERK9_key_dataIS1_jE.exit.i.i.i.i, %for.inc.i.i.i.i
  %curr.031.i.i.i.i = phi ptr [ %incdec.ptr.i.i.i.i, %for.inc.i.i.i.i ], [ %add.ptr.i.i.i.i, %_ZNK14core_hashtableI17default_map_entryI6symboljEN9table2mapIS2_16symbol_hash_proc14symbol_eq_procE15entry_hash_procENS6_13entry_eq_procEE8get_hashERK9_key_dataIS1_jE.exit.i.i.i.i ]
  %m_state.i.i.i.i.i = getelementptr inbounds %class.default_hash_entry, ptr %curr.031.i.i.i.i, i64 0, i32 1
  %27 = load i32, ptr %m_state.i.i.i.i.i, align 4
  %cond = icmp eq i32 %27, 2
  br i1 %cond, label %if.then.i.i.i.i, label %for.inc.i.i.i.i

if.then.i.i.i.i:                                  ; preds = %for.body.i.i.i.i
  %28 = load i32, ptr %curr.031.i.i.i.i, align 8
  %cmp8.i.i.i.i = icmp eq i32 %28, %retval.0.i.i.i.i.i.i.i.i
  br i1 %cmp8.i.i.i.i, label %land.lhs.true.i.i.i.i, label %for.inc.i.i.i.i

land.lhs.true.i.i.i.i:                            ; preds = %if.then.i.i.i.i
  %m_data.i.i.i.i.i = getelementptr inbounds %class.default_hash_entry, ptr %curr.031.i.i.i.i, i64 0, i32 2
  %29 = load ptr, ptr %m_data.i.i.i.i.i, align 8
  %cmp.i.i.i.i19.i.i.i.i = icmp eq ptr %29, %.pre-phi
  br i1 %cmp.i.i.i.i19.i.i.i.i, label %_ZN9table2mapI17default_map_entryI6symboljE16symbol_hash_proc14symbol_eq_procEixERKS1_.exit, label %for.inc.i.i.i.i

for.inc.i.i.i.i:                                  ; preds = %for.body.i.i.i.i, %land.lhs.true.i.i.i.i, %if.then.i.i.i.i
  %incdec.ptr.i.i.i.i = getelementptr inbounds %class.default_map_entry, ptr %curr.031.i.i.i.i, i64 1
  %cmp.not.i.i.i.i = icmp eq ptr %incdec.ptr.i.i.i.i, %add.ptr5.i.i.i.i
  br i1 %cmp.not.i.i.i.i, label %for.cond18.preheader.i.i.i.i, label %for.body.i.i.i.i, !llvm.loop !11

for.body20.i.i.i.i:                               ; preds = %for.inc36.i.i.i.i, %for.cond18.preheader.i.i.i.i
  %cmp19.not.i.i.i.i.sink = phi i1 [ %cmp19.not.i.i.i.i, %for.inc36.i.i.i.i ], [ %cmp19.not32.i.i.i.i, %for.cond18.preheader.i.i.i.i ]
  %curr.133.i.i.i.i = phi ptr [ %incdec.ptr37.i.i.i.i, %for.inc36.i.i.i.i ], [ %26, %for.cond18.preheader.i.i.i.i ]
  call void @llvm.assume(i1 %cmp19.not.i.i.i.i.sink)
  %m_state.i22.i.i.i.i = getelementptr inbounds %class.default_hash_entry, ptr %curr.133.i.i.i.i, i64 0, i32 1
  %30 = load i32, ptr %m_state.i22.i.i.i.i, align 4
  %cond28 = icmp eq i32 %30, 2
  br i1 %cond28, label %if.then22.i.i.i.i, label %for.inc36.i.i.i.i

if.then22.i.i.i.i:                                ; preds = %for.body20.i.i.i.i
  %31 = load i32, ptr %curr.133.i.i.i.i, align 8
  %cmp24.i.i.i.i = icmp eq i32 %31, %retval.0.i.i.i.i.i.i.i.i
  br i1 %cmp24.i.i.i.i, label %land.lhs.true25.i.i.i.i, label %for.inc36.i.i.i.i

land.lhs.true25.i.i.i.i:                          ; preds = %if.then22.i.i.i.i
  %m_data.i24.i.i.i.i = getelementptr inbounds %class.default_hash_entry, ptr %curr.133.i.i.i.i, i64 0, i32 2
  %32 = load ptr, ptr %m_data.i24.i.i.i.i, align 8
  %cmp.i.i.i.i25.i.i.i.i = icmp eq ptr %32, %.pre-phi
  br i1 %cmp.i.i.i.i25.i.i.i.i, label %_ZN9table2mapI17default_map_entryI6symboljE16symbol_hash_proc14symbol_eq_procEixERKS1_.exit, label %for.inc36.i.i.i.i

for.inc36.i.i.i.i:                                ; preds = %for.body20.i.i.i.i, %land.lhs.true25.i.i.i.i, %if.then22.i.i.i.i
  %incdec.ptr37.i.i.i.i = getelementptr inbounds %class.default_map_entry, ptr %curr.133.i.i.i.i, i64 1
  %cmp19.not.i.i.i.i = icmp ne ptr %incdec.ptr37.i.i.i.i, %add.ptr.i.i.i.i
  br label %for.body20.i.i.i.i

_ZN9table2mapI17default_map_entryI6symboljE16symbol_hash_proc14symbol_eq_procEixERKS1_.exit: ; preds = %land.lhs.true.i.i.i.i, %land.lhs.true25.i.i.i.i
  %retval.0.i.i.i.i = phi ptr [ %curr.133.i.i.i.i, %land.lhs.true25.i.i.i.i ], [ %curr.031.i.i.i.i, %land.lhs.true.i.i.i.i ]
  %m_value.i.i11 = getelementptr inbounds %class.default_hash_entry, ptr %retval.0.i.i.i.i, i64 0, i32 2, i32 1
  %33 = load i32, ptr %m_value.i.i11, align 4
  %34 = load i32, ptr %w, align 8
  %cmp.i.i.i.i = icmp eq i32 %34, 0
  br i1 %cmp.i.i.i.i, label %if.end30, label %if.then22

if.then22:                                        ; preds = %_ZN9table2mapI17default_map_entryI6symboljE16symbol_hash_proc14symbol_eq_procEixERKS1_.exit
  %m_objectives23 = getelementptr inbounds %"class.opt::context::scoped_state", ptr %this, i64 0, i32 11
  %35 = load ptr, ptr %m_objectives23, align 8
  %idxprom.i = zext i32 %33 to i64
  %tobool.not.i.i.i.i = icmp eq ptr %f, null
  br i1 %tobool.not.i.i.i.i, label %_ZN15ref_vector_coreI4expr19ref_manager_wrapperIS0_11ast_managerEE7inc_refEPS0_.exit.i, label %if.then.i.i.i.i13

if.then.i.i.i.i13:                                ; preds = %if.then22
  %m_ref_count.i.i.i.i.i = getelementptr inbounds %class.ast, ptr %f, i64 0, i32 2
  %36 = load i32, ptr %m_ref_count.i.i.i.i.i, align 4
  %inc.i.i.i.i.i = add i32 %36, 1
  store i32 %inc.i.i.i.i.i, ptr %m_ref_count.i.i.i.i.i, align 4
  br label %_ZN15ref_vector_coreI4expr19ref_manager_wrapperIS0_11ast_managerEE7inc_refEPS0_.exit.i

_ZN15ref_vector_coreI4expr19ref_manager_wrapperIS0_11ast_managerEE7inc_refEPS0_.exit.i: ; preds = %if.then.i.i.i.i13, %if.then22
  %m_nodes.i = getelementptr inbounds %"struct.opt::context::objective", ptr %35, i64 %idxprom.i, i32 3, i32 0, i32 1
  %37 = load ptr, ptr %m_nodes.i, align 8
  %cmp.i.i = icmp eq ptr %37, null
  br i1 %cmp.i.i, label %if.then.i.i, label %lor.lhs.false.i.i

lor.lhs.false.i.i:                                ; preds = %_ZN15ref_vector_coreI4expr19ref_manager_wrapperIS0_11ast_managerEE7inc_refEPS0_.exit.i
  %arrayidx.i.i = getelementptr inbounds i32, ptr %37, i64 -1
  %38 = load i32, ptr %arrayidx.i.i, align 4
  %arrayidx4.i.i = getelementptr inbounds i32, ptr %37, i64 -2
  %39 = load i32, ptr %arrayidx4.i.i, align 4
  %cmp5.i.i = icmp eq i32 %38, %39
  br i1 %cmp5.i.i, label %if.then.i.i, label %_ZN15ref_vector_coreI4expr19ref_manager_wrapperIS0_11ast_managerEE9push_backEPS0_.exit

if.then.i.i:                                      ; preds = %lor.lhs.false.i.i, %_ZN15ref_vector_coreI4expr19ref_manager_wrapperIS0_11ast_managerEE7inc_refEPS0_.exit.i
  call void @_ZN6vectorIP4exprLb0EjE13expand_vectorEv(ptr noundef nonnull align 8 dereferenceable(8) %m_nodes.i)
  %.pre.i.i = load ptr, ptr %m_nodes.i, align 8
  %arrayidx8.phi.trans.insert.i.i = getelementptr inbounds i32, ptr %.pre.i.i, i64 -1
  %.pre1.i.i = load i32, ptr %arrayidx8.phi.trans.insert.i.i, align 4
  br label %_ZN15ref_vector_coreI4expr19ref_manager_wrapperIS0_11ast_managerEE9push_backEPS0_.exit

_ZN15ref_vector_coreI4expr19ref_manager_wrapperIS0_11ast_managerEE9push_backEPS0_.exit: ; preds = %lor.lhs.false.i.i, %if.then.i.i
  %40 = phi i32 [ %.pre1.i.i, %if.then.i.i ], [ %38, %lor.lhs.false.i.i ]
  %41 = phi ptr [ %.pre.i.i, %if.then.i.i ], [ %37, %lor.lhs.false.i.i ]
  %idx.ext.i.i = zext i32 %40 to i64
  %add.ptr.i.i = getelementptr inbounds ptr, ptr %41, i64 %idx.ext.i.i
  store ptr %f, ptr %add.ptr.i.i, align 8
  %42 = load ptr, ptr %m_nodes.i, align 8
  %arrayidx10.i.i = getelementptr inbounds i32, ptr %42, i64 -1
  %43 = load i32, ptr %arrayidx10.i.i, align 4
  %inc.i.i = add i32 %43, 1
  store i32 %inc.i.i, ptr %arrayidx10.i.i, align 4
  %44 = load ptr, ptr %m_objectives23, align 8
  %m_weights = getelementptr inbounds %"struct.opt::context::objective", ptr %44, i64 %idxprom.i, i32 4
  %call28 = call noundef nonnull align 8 dereferenceable(8) ptr @_ZN6vectorI8rationalLb1EjE9push_backERKS0_(ptr noundef nonnull align 8 dereferenceable(8) %m_weights, ptr noundef nonnull align 8 dereferenceable(32) %w)
  %m_objectives_term_trail = getelementptr inbounds %"class.opt::context::scoped_state", ptr %this, i64 0, i32 6
  %45 = load ptr, ptr %m_objectives_term_trail, align 8
  %cmp.i16 = icmp eq ptr %45, null
  br i1 %cmp.i16, label %if.then.i, label %lor.lhs.false.i

lor.lhs.false.i:                                  ; preds = %_ZN15ref_vector_coreI4expr19ref_manager_wrapperIS0_11ast_managerEE9push_backEPS0_.exit
  %arrayidx.i17 = getelementptr inbounds i32, ptr %45, i64 -1
  %46 = load i32, ptr %arrayidx.i17, align 4
  %arrayidx4.i = getelementptr inbounds i32, ptr %45, i64 -2
  %47 = load i32, ptr %arrayidx4.i, align 4
  %cmp5.i = icmp eq i32 %46, %47
  br i1 %cmp5.i, label %if.then.i, label %_ZN6vectorIjLb0EjE9push_backERKj.exit

if.then.i:                                        ; preds = %lor.lhs.false.i, %_ZN15ref_vector_coreI4expr19ref_manager_wrapperIS0_11ast_managerEE9push_backEPS0_.exit
  call void @_ZN6vectorIjLb0EjE13expand_vectorEv(ptr noundef nonnull align 8 dereferenceable(8) %m_objectives_term_trail)
  %.pre.i = load ptr, ptr %m_objectives_term_trail, align 8
  %arrayidx8.phi.trans.insert.i = getelementptr inbounds i32, ptr %.pre.i, i64 -1
  %.pre1.i = load i32, ptr %arrayidx8.phi.trans.insert.i, align 4
  br label %_ZN6vectorIjLb0EjE9push_backERKj.exit

_ZN6vectorIjLb0EjE9push_backERKj.exit:            ; preds = %lor.lhs.false.i, %if.then.i
  %48 = phi i32 [ %.pre1.i, %if.then.i ], [ %46, %lor.lhs.false.i ]
  %49 = phi ptr [ %.pre.i, %if.then.i ], [ %45, %lor.lhs.false.i ]
  %idx.ext.i = zext i32 %48 to i64
  %add.ptr.i = getelementptr inbounds i32, ptr %49, i64 %idx.ext.i
  store i32 %33, ptr %add.ptr.i, align 4
  %50 = load ptr, ptr %m_objectives_term_trail, align 8
  %arrayidx10.i = getelementptr inbounds i32, ptr %50, i64 -1
  %51 = load i32, ptr %arrayidx10.i, align 4
  %inc.i = add i32 %51, 1
  store i32 %inc.i, ptr %arrayidx10.i, align 4
  br label %if.end30

if.end30:                                         ; preds = %_ZN6vectorIjLb0EjE9push_backERKj.exit, %_ZN9table2mapI17default_map_entryI6symboljE16symbol_hash_proc14symbol_eq_procEixERKS1_.exit
  ret i32 %33

unreachable:                                      ; preds = %invoke.cont
  unreachable
}

declare noundef zeroext i1 @_ZNK11ast_manager7is_boolEPK4expr(ptr noundef nonnull align 8 dereferenceable(976), ptr noundef) local_unnamed_addr #0

declare ptr @__cxa_allocate_exception(i64) local_unnamed_addr

; Function Attrs: nounwind
declare void @_ZNSaIcEC1Ev(ptr noundef nonnull align 1 dereferenceable(1)) unnamed_addr #1

; Function Attrs: mustprogress uwtable
define linkonce_odr hidden void @_ZNSt7__cxx1112basic_stringIcSt11char_traitsIcESaIcEEC2IS3_EEPKcRKS3_(ptr noundef nonnull align 8 dereferenceable(32) %this, ptr noundef %__s, ptr noundef nonnull align 1 dereferenceable(1) %__a) unnamed_addr #3 comdat align 2 personality ptr @__gxx_personality_v0 {
entry:
  %call = tail call noundef ptr @_ZNSt7__cxx1112basic_stringIcSt11char_traitsIcESaIcEE13_M_local_dataEv(ptr noundef nonnull align 8 dereferenceable(32) %this)
  tail call void @_ZNSt7__cxx1112basic_stringIcSt11char_traitsIcESaIcEE12_Alloc_hiderC1EPcRKS3_(ptr noundef nonnull align 8 dereferenceable(8) %this, ptr noundef %call, ptr noundef nonnull align 1 dereferenceable(1) %__a)
  %cmp = icmp eq ptr %__s, null
  br i1 %cmp, label %if.then, label %if.end

if.then:                                          ; preds = %entry
  invoke void @_ZSt19__throw_logic_errorPKc(ptr noundef nonnull @.str.147) #25
          to label %invoke.cont unwind label %lpad

invoke.cont:                                      ; preds = %if.then
  unreachable

lpad:                                             ; preds = %if.end, %if.then
  %0 = landingpad { ptr, i32 }
          cleanup
  tail call void @_ZNSaIcED2Ev(ptr noundef nonnull align 1 dereferenceable(1) %this) #24
  resume { ptr, i32 } %0

if.end:                                           ; preds = %entry
  %call.i = tail call noundef i64 @strlen(ptr noundef nonnull dereferenceable(1) %__s) #24
  %add.ptr = getelementptr inbounds i8, ptr %__s, i64 %call.i
  invoke void @_ZNSt7__cxx1112basic_stringIcSt11char_traitsIcESaIcEE12_M_constructIPKcEEvT_S8_St20forward_iterator_tag(ptr noundef nonnull align 8 dereferenceable(32) %this, ptr noundef nonnull %__s, ptr noundef nonnull %add.ptr)
          to label %invoke.cont4 unwind label %lpad

invoke.cont4:                                     ; preds = %if.end
  ret void
}

declare i32 @__gxx_personality_v0(...)

; Function Attrs: mustprogress nounwind uwtable
define linkonce_odr hidden void @_ZN17default_exceptionD2Ev(ptr noundef nonnull align 8 dereferenceable(40) %this) unnamed_addr #4 comdat align 2 {
entry:
  store ptr getelementptr inbounds ({ [6 x ptr] }, ptr @_ZTV17default_exception, i64 0, inrange i32 0, i64 2), ptr %this, align 8
  %m_msg = getelementptr inbounds %class.default_exception, ptr %this, i64 0, i32 1
  tail call void @_ZNSt7__cxx1112basic_stringIcSt11char_traitsIcESaIcEED1Ev(ptr noundef nonnull align 8 dereferenceable(32) %m_msg) #24
  ret void
}

declare void @__cxa_throw(ptr, ptr, ptr) local_unnamed_addr

; Function Attrs: nounwind
declare void @_ZNSt7__cxx1112basic_stringIcSt11char_traitsIcESaIcEED1Ev(ptr noundef nonnull align 8 dereferenceable(32)) unnamed_addr #1

; Function Attrs: nounwind
declare void @_ZNSaIcED1Ev(ptr noundef nonnull align 1 dereferenceable(1)) unnamed_addr #1

declare void @__cxa_free_exception(ptr) local_unnamed_addr

; Function Attrs: mustprogress uwtable
define linkonce_odr hidden noundef nonnull align 8 dereferenceable(8) ptr @_ZN6vectorIN3opt7context9objectiveELb1EjE9push_backEOS2_(ptr noundef nonnull align 8 dereferenceable(8) %this, ptr noundef nonnull align 8 dereferenceable(100) %elem) local_unnamed_addr #3 comdat align 2 {
entry:
  %0 = load ptr, ptr %this, align 8
  %cmp = icmp eq ptr %0, null
  br i1 %cmp, label %if.then, label %lor.lhs.false

lor.lhs.false:                                    ; preds = %entry
  %arrayidx = getelementptr inbounds i32, ptr %0, i64 -1
  %1 = load i32, ptr %arrayidx, align 4
  %arrayidx4 = getelementptr inbounds i32, ptr %0, i64 -2
  %2 = load i32, ptr %arrayidx4, align 4
  %cmp5 = icmp eq i32 %1, %2
  br i1 %cmp5, label %if.then, label %if.end

if.then:                                          ; preds = %lor.lhs.false, %entry
  tail call void @_ZN6vectorIN3opt7context9objectiveELb1EjE13expand_vectorEv(ptr noundef nonnull align 8 dereferenceable(8) %this)
  %.pre = load ptr, ptr %this, align 8
  %arrayidx8.phi.trans.insert = getelementptr inbounds i32, ptr %.pre, i64 -1
  %.pre1 = load i32, ptr %arrayidx8.phi.trans.insert, align 4
  br label %if.end

if.end:                                           ; preds = %if.then, %lor.lhs.false
  %3 = phi i32 [ %.pre1, %if.then ], [ %1, %lor.lhs.false ]
  %4 = phi ptr [ %.pre, %if.then ], [ %0, %lor.lhs.false ]
  %idx.ext = zext i32 %3 to i64
  %add.ptr = getelementptr inbounds %"struct.opt::context::objective", ptr %4, i64 %idx.ext
  %5 = load i32, ptr %elem, align 8
  store i32 %5, ptr %add.ptr, align 8
  %m_term.i = getelementptr inbounds %"struct.opt::context::objective", ptr %4, i64 %idx.ext, i32 2
  %m_term3.i = getelementptr inbounds %"struct.opt::context::objective", ptr %elem, i64 0, i32 2
  store ptr null, ptr %m_term.i, align 8
  %m_manager.i.i = getelementptr inbounds %"struct.opt::context::objective", ptr %4, i64 %idx.ext, i32 2, i32 1
  %m_manager2.i.i = getelementptr inbounds %"struct.opt::context::objective", ptr %elem, i64 0, i32 2, i32 1
  %6 = load ptr, ptr %m_manager2.i.i, align 8
  store ptr %6, ptr %m_manager.i.i, align 8
  %7 = load ptr, ptr %m_term3.i, align 8
  store ptr %7, ptr %m_term.i, align 8
  store ptr null, ptr %m_term3.i, align 8
  %m_terms.i = getelementptr inbounds %"struct.opt::context::objective", ptr %4, i64 %idx.ext, i32 3
  %m_terms4.i = getelementptr inbounds %"struct.opt::context::objective", ptr %elem, i64 0, i32 3
  %8 = load i64, ptr %m_terms4.i, align 8
  store i64 %8, ptr %m_terms.i, align 8
  %m_nodes.i.i.i = getelementptr inbounds %"struct.opt::context::objective", ptr %4, i64 %idx.ext, i32 3, i32 0, i32 1
  %m_nodes2.i.i.i = getelementptr inbounds %"struct.opt::context::objective", ptr %elem, i64 0, i32 3, i32 0, i32 1
  store ptr null, ptr %m_nodes.i.i.i, align 8
  %9 = load ptr, ptr %m_nodes2.i.i.i, align 8
  store ptr %9, ptr %m_nodes.i.i.i, align 8
  store ptr null, ptr %m_nodes2.i.i.i, align 8
  %m_weights.i = getelementptr inbounds %"struct.opt::context::objective", ptr %4, i64 %idx.ext, i32 4
  %m_weights5.i = getelementptr inbounds %"struct.opt::context::objective", ptr %elem, i64 0, i32 4
  store ptr null, ptr %m_weights.i, align 8
  %10 = load ptr, ptr %m_weights5.i, align 8
  store ptr %10, ptr %m_weights.i, align 8
  store ptr null, ptr %m_weights5.i, align 8
  %m_adjust_value.i = getelementptr inbounds %"struct.opt::context::objective", ptr %4, i64 %idx.ext, i32 5
  %m_adjust_value6.i = getelementptr inbounds %"struct.opt::context::objective", ptr %elem, i64 0, i32 5
  %11 = load i32, ptr %m_adjust_value6.i, align 8
  store i32 %11, ptr %m_adjust_value.i, align 8
  %m_kind.i.i.i.i.i = getelementptr inbounds %"struct.opt::context::objective", ptr %4, i64 %idx.ext, i32 5, i32 0, i32 0, i32 0, i32 1
  %m_kind3.i.i.i.i.i = getelementptr inbounds %"struct.opt::context::objective", ptr %elem, i64 0, i32 5, i32 0, i32 0, i32 0, i32 1
  %bf.load.i.i.i.i.i = load i8, ptr %m_kind3.i.i.i.i.i, align 4
  %bf.clear.i.i.i.i.i = and i8 %bf.load.i.i.i.i.i, 1
  %bf.load4.i.i.i.i.i = load i8, ptr %m_kind.i.i.i.i.i, align 4
  %bf.clear5.i.i.i.i.i = and i8 %bf.load4.i.i.i.i.i, -2
  %bf.set.i.i.i.i.i = or disjoint i8 %bf.clear5.i.i.i.i.i, %bf.clear.i.i.i.i.i
  store i8 %bf.set.i.i.i.i.i, ptr %m_kind.i.i.i.i.i, align 4
  %bf.load7.i.i.i.i.i = load i8, ptr %m_kind3.i.i.i.i.i, align 4
  %bf.clear8.i.i.i.i.i = and i8 %bf.load7.i.i.i.i.i, 2
  %bf.clear12.i.i.i.i.i = and i8 %bf.set.i.i.i.i.i, -3
  %bf.set13.i.i.i.i.i = or disjoint i8 %bf.clear12.i.i.i.i.i, %bf.clear8.i.i.i.i.i
  store i8 %bf.set13.i.i.i.i.i, ptr %m_kind.i.i.i.i.i, align 4
  %m_ptr.i.i.i.i.i = getelementptr inbounds %"struct.opt::context::objective", ptr %4, i64 %idx.ext, i32 5, i32 0, i32 0, i32 0, i32 2
  store ptr null, ptr %m_ptr.i.i.i.i.i, align 8
  %m_ptr15.i.i.i.i.i = getelementptr inbounds %"struct.opt::context::objective", ptr %elem, i64 0, i32 5, i32 0, i32 0, i32 0, i32 2
  %12 = load ptr, ptr %m_ptr15.i.i.i.i.i, align 8
  store ptr %12, ptr %m_ptr.i.i.i.i.i, align 8
  store ptr null, ptr %m_ptr15.i.i.i.i.i, align 8
  %m_den.i.i.i.i = getelementptr inbounds %"struct.opt::context::objective", ptr %4, i64 %idx.ext, i32 5, i32 0, i32 0, i32 1
  %m_den3.i.i.i.i = getelementptr inbounds %"struct.opt::context::objective", ptr %elem, i64 0, i32 5, i32 0, i32 0, i32 1
  %13 = load i32, ptr %m_den3.i.i.i.i, align 8
  store i32 %13, ptr %m_den.i.i.i.i, align 8
  %m_kind.i2.i.i.i.i = getelementptr inbounds %"struct.opt::context::objective", ptr %4, i64 %idx.ext, i32 5, i32 0, i32 0, i32 1, i32 1
  %m_kind3.i3.i.i.i.i = getelementptr inbounds %"struct.opt::context::objective", ptr %elem, i64 0, i32 5, i32 0, i32 0, i32 1, i32 1
  %bf.load.i4.i.i.i.i = load i8, ptr %m_kind3.i3.i.i.i.i, align 4
  %bf.clear.i5.i.i.i.i = and i8 %bf.load.i4.i.i.i.i, 1
  %bf.load4.i6.i.i.i.i = load i8, ptr %m_kind.i2.i.i.i.i, align 4
  %bf.clear5.i7.i.i.i.i = and i8 %bf.load4.i6.i.i.i.i, -2
  %bf.set.i8.i.i.i.i = or disjoint i8 %bf.clear5.i7.i.i.i.i, %bf.clear.i5.i.i.i.i
  store i8 %bf.set.i8.i.i.i.i, ptr %m_kind.i2.i.i.i.i, align 4
  %bf.load7.i9.i.i.i.i = load i8, ptr %m_kind3.i3.i.i.i.i, align 4
  %bf.clear8.i10.i.i.i.i = and i8 %bf.load7.i9.i.i.i.i, 2
  %bf.clear12.i11.i.i.i.i = and i8 %bf.set.i8.i.i.i.i, -3
  %bf.set13.i12.i.i.i.i = or disjoint i8 %bf.clear12.i11.i.i.i.i, %bf.clear8.i10.i.i.i.i
  store i8 %bf.set13.i12.i.i.i.i, ptr %m_kind.i2.i.i.i.i, align 4
  %m_ptr.i13.i.i.i.i = getelementptr inbounds %"struct.opt::context::objective", ptr %4, i64 %idx.ext, i32 5, i32 0, i32 0, i32 1, i32 2
  store ptr null, ptr %m_ptr.i13.i.i.i.i, align 8
  %m_ptr15.i14.i.i.i.i = getelementptr inbounds %"struct.opt::context::objective", ptr %elem, i64 0, i32 5, i32 0, i32 0, i32 1, i32 2
  %14 = load ptr, ptr %m_ptr15.i14.i.i.i.i, align 8
  store ptr %14, ptr %m_ptr.i13.i.i.i.i, align 8
  store ptr null, ptr %m_ptr15.i14.i.i.i.i, align 8
  %m_negate.i.i = getelementptr inbounds %"struct.opt::context::objective", ptr %4, i64 %idx.ext, i32 5, i32 1
  %m_negate3.i.i = getelementptr inbounds %"struct.opt::context::objective", ptr %elem, i64 0, i32 5, i32 1
  %15 = load i8, ptr %m_negate3.i.i, align 8
  %16 = and i8 %15, 1
  store i8 %16, ptr %m_negate.i.i, align 8
  %m_id.i = getelementptr inbounds %"struct.opt::context::objective", ptr %4, i64 %idx.ext, i32 6
  %m_id7.i = getelementptr inbounds %"struct.opt::context::objective", ptr %elem, i64 0, i32 6
  tail call void @llvm.memcpy.p0.p0.i64(ptr noundef nonnull align 8 dereferenceable(12) %m_id.i, ptr noundef nonnull align 8 dereferenceable(12) %m_id7.i, i64 12, i1 false)
  %17 = load ptr, ptr %this, align 8
  %arrayidx10 = getelementptr inbounds i32, ptr %17, i64 -1
  %18 = load i32, ptr %arrayidx10, align 4
  %inc = add i32 %18, 1
  store i32 %inc, ptr %arrayidx10, align 4
  ret ptr %this
}

; Function Attrs: mustprogress nocallback nofree nounwind willreturn memory(argmem: readwrite)
declare void @llvm.memcpy.p0.p0.i64(ptr noalias nocapture writeonly, ptr noalias nocapture readonly, i64, i1 immarg) #5

; Function Attrs: mustprogress nounwind uwtable
define linkonce_odr hidden void @_ZN3opt7context9objectiveD2Ev(ptr noundef nonnull align 8 dereferenceable(100) %this) unnamed_addr #4 comdat align 2 personality ptr @__gxx_personality_v0 {
entry:
  %m_adjust_value = getelementptr inbounds %"struct.opt::context::objective", ptr %this, i64 0, i32 5
  %0 = load ptr, ptr @_ZN8rational13g_mpq_managerE, align 8
  invoke void @_ZN11mpz_managerILb1EE3delEPS0_R3mpz(ptr noundef %0, ptr noundef nonnull align 8 dereferenceable(16) %m_adjust_value)
          to label %.noexc.i.i unwind label %terminate.lpad.i.i

.noexc.i.i:                                       ; preds = %entry
  %m_den.i.i.i = getelementptr inbounds %"struct.opt::context::objective", ptr %this, i64 0, i32 5, i32 0, i32 0, i32 1
  invoke void @_ZN11mpz_managerILb1EE3delEPS0_R3mpz(ptr noundef %0, ptr noundef nonnull align 8 dereferenceable(16) %m_den.i.i.i)
          to label %_ZN3opt12adjust_valueD2Ev.exit unwind label %terminate.lpad.i.i

terminate.lpad.i.i:                               ; preds = %.noexc.i.i, %entry
  %1 = landingpad { ptr, i32 }
          catch ptr null
  %2 = extractvalue { ptr, i32 } %1, 0
  tail call void @__clang_call_terminate(ptr %2) #23
  unreachable

_ZN3opt12adjust_valueD2Ev.exit:                   ; preds = %.noexc.i.i
  %m_weights = getelementptr inbounds %"struct.opt::context::objective", ptr %this, i64 0, i32 4
  %3 = load ptr, ptr %m_weights, align 8
  %tobool.not.i.i = icmp eq ptr %3, null
  br i1 %tobool.not.i.i, label %_ZN6vectorI8rationalLb1EjED2Ev.exit, label %_ZNK6vectorI8rationalLb1EjE4sizeEv.exit.i.i.i

_ZNK6vectorI8rationalLb1EjE4sizeEv.exit.i.i.i:    ; preds = %_ZN3opt12adjust_valueD2Ev.exit
  %arrayidx.i.i.i.i = getelementptr inbounds i32, ptr %3, i64 -1
  %4 = load i32, ptr %arrayidx.i.i.i.i, align 4
  %cmp.not5.i.i.i.i.i.i = icmp eq i32 %4, 0
  br i1 %cmp.not5.i.i.i.i.i.i, label %_ZN6vectorI8rationalLb1EjE16destroy_elementsEv.exit.i.i, label %for.body.i.i.i.i.i.i

for.body.i.i.i.i.i.i:                             ; preds = %_ZNK6vectorI8rationalLb1EjE4sizeEv.exit.i.i.i, %_ZSt8_DestroyI8rationalEvPT_.exit.i.i.i.i.i.i
  %__count.addr.07.i.i.i.i.i.i = phi i32 [ %dec.i.i.i.i.i.i, %_ZSt8_DestroyI8rationalEvPT_.exit.i.i.i.i.i.i ], [ %4, %_ZNK6vectorI8rationalLb1EjE4sizeEv.exit.i.i.i ]
  %__first.addr.06.i.i.i.i.i.i = phi ptr [ %incdec.ptr.i.i.i.i.i.i, %_ZSt8_DestroyI8rationalEvPT_.exit.i.i.i.i.i.i ], [ %3, %_ZNK6vectorI8rationalLb1EjE4sizeEv.exit.i.i.i ]
  %5 = load ptr, ptr @_ZN8rational13g_mpq_managerE, align 8
  invoke void @_ZN11mpz_managerILb1EE3delEPS0_R3mpz(ptr noundef %5, ptr noundef nonnull align 8 dereferenceable(16) %__first.addr.06.i.i.i.i.i.i)
          to label %.noexc.i.i.i.i.i.i.i.i unwind label %terminate.lpad.i.i.i.i.i.i.i.i

.noexc.i.i.i.i.i.i.i.i:                           ; preds = %for.body.i.i.i.i.i.i
  %m_den.i.i.i.i.i.i.i.i.i = getelementptr inbounds %class.mpq, ptr %__first.addr.06.i.i.i.i.i.i, i64 0, i32 1
  invoke void @_ZN11mpz_managerILb1EE3delEPS0_R3mpz(ptr noundef %5, ptr noundef nonnull align 8 dereferenceable(16) %m_den.i.i.i.i.i.i.i.i.i)
          to label %_ZSt8_DestroyI8rationalEvPT_.exit.i.i.i.i.i.i unwind label %terminate.lpad.i.i.i.i.i.i.i.i

terminate.lpad.i.i.i.i.i.i.i.i:                   ; preds = %.noexc.i.i.i.i.i.i.i.i, %for.body.i.i.i.i.i.i
  %6 = landingpad { ptr, i32 }
          catch ptr null
  %7 = extractvalue { ptr, i32 } %6, 0
  tail call void @__clang_call_terminate(ptr %7) #23
  unreachable

_ZSt8_DestroyI8rationalEvPT_.exit.i.i.i.i.i.i:    ; preds = %.noexc.i.i.i.i.i.i.i.i
  %incdec.ptr.i.i.i.i.i.i = getelementptr inbounds %class.rational, ptr %__first.addr.06.i.i.i.i.i.i, i64 1
  %dec.i.i.i.i.i.i = add i32 %__count.addr.07.i.i.i.i.i.i, -1
  %cmp.not.i.i.i.i.i.i = icmp eq i32 %dec.i.i.i.i.i.i, 0
  br i1 %cmp.not.i.i.i.i.i.i, label %_ZN6vectorI8rationalLb1EjE16destroy_elementsEv.exit.loopexit.i.i, label %for.body.i.i.i.i.i.i, !llvm.loop !13

_ZN6vectorI8rationalLb1EjE16destroy_elementsEv.exit.loopexit.i.i: ; preds = %_ZSt8_DestroyI8rationalEvPT_.exit.i.i.i.i.i.i
  %.pre.i.i = load ptr, ptr %m_weights, align 8
  br label %_ZN6vectorI8rationalLb1EjE16destroy_elementsEv.exit.i.i

_ZN6vectorI8rationalLb1EjE16destroy_elementsEv.exit.i.i: ; preds = %_ZN6vectorI8rationalLb1EjE16destroy_elementsEv.exit.loopexit.i.i, %_ZNK6vectorI8rationalLb1EjE4sizeEv.exit.i.i.i
  %8 = phi ptr [ %.pre.i.i, %_ZN6vectorI8rationalLb1EjE16destroy_elementsEv.exit.loopexit.i.i ], [ %3, %_ZNK6vectorI8rationalLb1EjE4sizeEv.exit.i.i.i ]
  %add.ptr.i.i.i = getelementptr inbounds i32, ptr %8, i64 -2
  invoke void @_ZN6memory10deallocateEPv(ptr noundef nonnull %add.ptr.i.i.i)
          to label %_ZN6vectorI8rationalLb1EjED2Ev.exit unwind label %terminate.lpad.i

terminate.lpad.i:                                 ; preds = %_ZN6vectorI8rationalLb1EjE16destroy_elementsEv.exit.i.i
  %9 = landingpad { ptr, i32 }
          catch ptr null
  %10 = extractvalue { ptr, i32 } %9, 0
  tail call void @__clang_call_terminate(ptr %10) #23
  unreachable

_ZN6vectorI8rationalLb1EjED2Ev.exit:              ; preds = %_ZN3opt12adjust_valueD2Ev.exit, %_ZN6vectorI8rationalLb1EjE16destroy_elementsEv.exit.i.i
  %m_terms = getelementptr inbounds %"struct.opt::context::objective", ptr %this, i64 0, i32 3
  %m_nodes.i.i = getelementptr inbounds %"struct.opt::context::objective", ptr %this, i64 0, i32 3, i32 0, i32 1
  %11 = load ptr, ptr %m_nodes.i.i, align 8
  %cmp.i.i.i = icmp eq ptr %11, null
  br i1 %cmp.i.i.i, label %_ZN10ref_vectorI4expr11ast_managerED2Ev.exit, label %_ZNK6vectorIP4exprLb0EjE4sizeEv.exit.i.i

_ZNK6vectorIP4exprLb0EjE4sizeEv.exit.i.i:         ; preds = %_ZN6vectorI8rationalLb1EjED2Ev.exit
  %arrayidx.i.i.i = getelementptr inbounds i32, ptr %11, i64 -1
  %12 = load i32, ptr %arrayidx.i.i.i, align 4
  %13 = zext i32 %12 to i64
  %add.ptr.i.i = getelementptr inbounds ptr, ptr %11, i64 %13
  %cmp3.i.not.i.i = icmp eq i32 %12, 0
  br i1 %cmp3.i.not.i.i, label %if.then.i.i.i.i.i, label %for.body.i.i.i

for.body.i.i.i:                                   ; preds = %_ZNK6vectorIP4exprLb0EjE4sizeEv.exit.i.i, %_ZN15ref_vector_coreI4expr19ref_manager_wrapperIS0_11ast_managerEE7dec_refEPS0_.exit.i.i.i
  %it.04.i.i.i = phi ptr [ %incdec.ptr.i.i.i, %_ZN15ref_vector_coreI4expr19ref_manager_wrapperIS0_11ast_managerEE7dec_refEPS0_.exit.i.i.i ], [ %11, %_ZNK6vectorIP4exprLb0EjE4sizeEv.exit.i.i ]
  %14 = load ptr, ptr %it.04.i.i.i, align 8
  %15 = load ptr, ptr %m_terms, align 8
  %tobool.not.i.i.i.i.i.i = icmp eq ptr %14, null
  br i1 %tobool.not.i.i.i.i.i.i, label %_ZN15ref_vector_coreI4expr19ref_manager_wrapperIS0_11ast_managerEE7dec_refEPS0_.exit.i.i.i, label %if.then.i.i.i.i.i.i

if.then.i.i.i.i.i.i:                              ; preds = %for.body.i.i.i
  %m_ref_count.i.i.i.i.i.i.i = getelementptr inbounds %class.ast, ptr %14, i64 0, i32 2
  %16 = load i32, ptr %m_ref_count.i.i.i.i.i.i.i, align 4
  %dec.i.i.i.i.i.i.i = add i32 %16, -1
  store i32 %dec.i.i.i.i.i.i.i, ptr %m_ref_count.i.i.i.i.i.i.i, align 4
  %cmp.i.i.i.i.i.i = icmp eq i32 %dec.i.i.i.i.i.i.i, 0
  br i1 %cmp.i.i.i.i.i.i, label %if.then2.i.i.i.i.i.i, label %_ZN15ref_vector_coreI4expr19ref_manager_wrapperIS0_11ast_managerEE7dec_refEPS0_.exit.i.i.i

if.then2.i.i.i.i.i.i:                             ; preds = %if.then.i.i.i.i.i.i
  invoke void @_ZN11ast_manager11delete_nodeEP3ast(ptr noundef nonnull align 8 dereferenceable(976) %15, ptr noundef nonnull %14)
          to label %_ZN15ref_vector_coreI4expr19ref_manager_wrapperIS0_11ast_managerEE7dec_refEPS0_.exit.i.i.i unwind label %terminate.lpad.i.i2

_ZN15ref_vector_coreI4expr19ref_manager_wrapperIS0_11ast_managerEE7dec_refEPS0_.exit.i.i.i: ; preds = %if.then2.i.i.i.i.i.i, %if.then.i.i.i.i.i.i, %for.body.i.i.i
  %incdec.ptr.i.i.i = getelementptr inbounds ptr, ptr %it.04.i.i.i, i64 1
  %cmp.i1.i.i = icmp ult ptr %incdec.ptr.i.i.i, %add.ptr.i.i
  br i1 %cmp.i1.i.i, label %for.body.i.i.i, label %invoke.cont8.i.i, !llvm.loop !4

invoke.cont8.i.i:                                 ; preds = %_ZN15ref_vector_coreI4expr19ref_manager_wrapperIS0_11ast_managerEE7dec_refEPS0_.exit.i.i.i
  %.pre.i.i1 = load ptr, ptr %m_nodes.i.i, align 8
  %tobool.not.i.i.i.i.i = icmp eq ptr %.pre.i.i1, null
  br i1 %tobool.not.i.i.i.i.i, label %_ZN10ref_vectorI4expr11ast_managerED2Ev.exit, label %if.then.i.i.i.i.i

if.then.i.i.i.i.i:                                ; preds = %invoke.cont8.i.i, %_ZNK6vectorIP4exprLb0EjE4sizeEv.exit.i.i
  %17 = phi ptr [ %.pre.i.i1, %invoke.cont8.i.i ], [ %11, %_ZNK6vectorIP4exprLb0EjE4sizeEv.exit.i.i ]
  %add.ptr.i.i.i.i.i.i = getelementptr inbounds i32, ptr %17, i64 -2
  invoke void @_ZN6memory10deallocateEPv(ptr noundef nonnull %add.ptr.i.i.i.i.i.i)
          to label %_ZN10ref_vectorI4expr11ast_managerED2Ev.exit unwind label %terminate.lpad.i.i.i.i

terminate.lpad.i.i.i.i:                           ; preds = %if.then.i.i.i.i.i
  %18 = landingpad { ptr, i32 }
          catch ptr null
  %19 = extractvalue { ptr, i32 } %18, 0
  tail call void @__clang_call_terminate(ptr %19) #23
  unreachable

terminate.lpad.i.i2:                              ; preds = %if.then2.i.i.i.i.i.i
  %20 = landingpad { ptr, i32 }
          catch ptr null
  %21 = extractvalue { ptr, i32 } %20, 0
  tail call void @__clang_call_terminate(ptr %21) #23
  unreachable

_ZN10ref_vectorI4expr11ast_managerED2Ev.exit:     ; preds = %_ZN6vectorI8rationalLb1EjED2Ev.exit, %invoke.cont8.i.i, %if.then.i.i.i.i.i
  %m_term = getelementptr inbounds %"struct.opt::context::objective", ptr %this, i64 0, i32 2
  %22 = load ptr, ptr %m_term, align 8
  %tobool.not.i.i3 = icmp eq ptr %22, null
  br i1 %tobool.not.i.i3, label %_ZN7obj_refI3app11ast_managerED2Ev.exit, label %if.then.i.i.i

if.then.i.i.i:                                    ; preds = %_ZN10ref_vectorI4expr11ast_managerED2Ev.exit
  %m_manager.i.i = getelementptr inbounds %"struct.opt::context::objective", ptr %this, i64 0, i32 2, i32 1
  %23 = load ptr, ptr %m_manager.i.i, align 8
  %m_ref_count.i.i.i.i = getelementptr inbounds %class.ast, ptr %22, i64 0, i32 2
  %24 = load i32, ptr %m_ref_count.i.i.i.i, align 4
  %dec.i.i.i.i = add i32 %24, -1
  store i32 %dec.i.i.i.i, ptr %m_ref_count.i.i.i.i, align 4
  %cmp.i.i.i4 = icmp eq i32 %dec.i.i.i.i, 0
  br i1 %cmp.i.i.i4, label %if.then2.i.i.i, label %_ZN7obj_refI3app11ast_managerED2Ev.exit

if.then2.i.i.i:                                   ; preds = %if.then.i.i.i
  invoke void @_ZN11ast_manager11delete_nodeEP3ast(ptr noundef nonnull align 8 dereferenceable(976) %23, ptr noundef nonnull %22)
          to label %_ZN7obj_refI3app11ast_managerED2Ev.exit unwind label %terminate.lpad.i5

terminate.lpad.i5:                                ; preds = %if.then2.i.i.i
  %25 = landingpad { ptr, i32 }
          catch ptr null
  %26 = extractvalue { ptr, i32 } %25, 0
  tail call void @__clang_call_terminate(ptr %26) #23
  unreachable

_ZN7obj_refI3app11ast_managerED2Ev.exit:          ; preds = %_ZN10ref_vectorI4expr11ast_managerED2Ev.exit, %if.then.i.i.i, %if.then2.i.i.i
  ret void
}

; Function Attrs: mustprogress uwtable
define linkonce_odr hidden noundef nonnull align 8 dereferenceable(8) ptr @_ZN6vectorI8rationalLb1EjE9push_backERKS0_(ptr noundef nonnull align 8 dereferenceable(8) %this, ptr noundef nonnull align 8 dereferenceable(32) %elem) local_unnamed_addr #3 comdat align 2 {
entry:
  %0 = load ptr, ptr %this, align 8
  %cmp = icmp eq ptr %0, null
  br i1 %cmp, label %if.then, label %lor.lhs.false

lor.lhs.false:                                    ; preds = %entry
  %arrayidx = getelementptr inbounds i32, ptr %0, i64 -1
  %1 = load i32, ptr %arrayidx, align 4
  %arrayidx4 = getelementptr inbounds i32, ptr %0, i64 -2
  %2 = load i32, ptr %arrayidx4, align 4
  %cmp5 = icmp eq i32 %1, %2
  br i1 %cmp5, label %if.then, label %if.end

if.then:                                          ; preds = %lor.lhs.false, %entry
  tail call void @_ZN6vectorI8rationalLb1EjE13expand_vectorEv(ptr noundef nonnull align 8 dereferenceable(8) %this)
  %.pre = load ptr, ptr %this, align 8
  %arrayidx8.phi.trans.insert = getelementptr inbounds i32, ptr %.pre, i64 -1
  %.pre1 = load i32, ptr %arrayidx8.phi.trans.insert, align 4
  br label %if.end

if.end:                                           ; preds = %if.then, %lor.lhs.false
  %3 = phi i32 [ %.pre1, %if.then ], [ %1, %lor.lhs.false ]
  %4 = phi ptr [ %.pre, %if.then ], [ %0, %lor.lhs.false ]
  %idx.ext = zext i32 %3 to i64
  %add.ptr = getelementptr inbounds %class.rational, ptr %4, i64 %idx.ext
  store i32 0, ptr %add.ptr, align 8
  %m_kind.i.i.i = getelementptr inbounds %class.mpz, ptr %add.ptr, i64 0, i32 1
  %bf.load.i.i.i = load i8, ptr %m_kind.i.i.i, align 4
  %bf.clear3.i.i.i = and i8 %bf.load.i.i.i, -4
  store i8 %bf.clear3.i.i.i, ptr %m_kind.i.i.i, align 4
  %m_ptr.i.i.i = getelementptr inbounds %class.mpz, ptr %add.ptr, i64 0, i32 2
  store ptr null, ptr %m_ptr.i.i.i, align 8
  %m_den.i.i = getelementptr inbounds %class.mpq, ptr %add.ptr, i64 0, i32 1
  store i32 1, ptr %m_den.i.i, align 8
  %m_kind.i1.i.i = getelementptr inbounds %class.mpq, ptr %add.ptr, i64 0, i32 1, i32 1
  %bf.load.i2.i.i = load i8, ptr %m_kind.i1.i.i, align 4
  %bf.clear3.i3.i.i = and i8 %bf.load.i2.i.i, -4
  store i8 %bf.clear3.i3.i.i, ptr %m_kind.i1.i.i, align 4
  %m_ptr.i4.i.i = getelementptr inbounds %class.mpq, ptr %add.ptr, i64 0, i32 1, i32 2
  store ptr null, ptr %m_ptr.i4.i.i, align 8
  %5 = load ptr, ptr @_ZN8rational13g_mpq_managerE, align 8
  %m_kind.i.i.i.i.i = getelementptr inbounds %class.mpz, ptr %elem, i64 0, i32 1
  %bf.load.i.i.i.i.i = load i8, ptr %m_kind.i.i.i.i.i, align 4
  %bf.clear.i.i.i.i.i = and i8 %bf.load.i.i.i.i.i, 1
  %cmp.i.i.i.i.i = icmp eq i8 %bf.clear.i.i.i.i.i, 0
  br i1 %cmp.i.i.i.i.i, label %if.then.i.i.i.i, label %if.else.i.i.i.i

if.then.i.i.i.i:                                  ; preds = %if.end
  %6 = load i32, ptr %elem, align 8
  store i32 %6, ptr %add.ptr, align 8
  store i8 %bf.clear3.i.i.i, ptr %m_kind.i.i.i, align 4
  br label %_ZN11mpq_managerILb1EE3setER3mpzRKS1_.exit.i.i

if.else.i.i.i.i:                                  ; preds = %if.end
  tail call void @_ZN11mpz_managerILb1EE7big_setER3mpzRKS1_(ptr noundef nonnull align 8 dereferenceable(600) %5, ptr noundef nonnull align 8 dereferenceable(16) %add.ptr, ptr noundef nonnull align 8 dereferenceable(16) %elem)
  br label %_ZN11mpq_managerILb1EE3setER3mpzRKS1_.exit.i.i

_ZN11mpq_managerILb1EE3setER3mpzRKS1_.exit.i.i:   ; preds = %if.else.i.i.i.i, %if.then.i.i.i.i
  %m_den3.i.i = getelementptr inbounds %class.mpq, ptr %elem, i64 0, i32 1
  %m_kind.i.i.i3.i.i = getelementptr inbounds %class.mpq, ptr %elem, i64 0, i32 1, i32 1
  %bf.load.i.i.i4.i.i = load i8, ptr %m_kind.i.i.i3.i.i, align 4
  %bf.clear.i.i.i5.i.i = and i8 %bf.load.i.i.i4.i.i, 1
  %cmp.i.i.i6.i.i = icmp eq i8 %bf.clear.i.i.i5.i.i, 0
  br i1 %cmp.i.i.i6.i.i, label %if.then.i.i8.i.i, label %if.else.i.i7.i.i

if.then.i.i8.i.i:                                 ; preds = %_ZN11mpq_managerILb1EE3setER3mpzRKS1_.exit.i.i
  %7 = load i32, ptr %m_den3.i.i, align 8
  store i32 %7, ptr %m_den.i.i, align 8
  %bf.load.i.i10.i.i = load i8, ptr %m_kind.i1.i.i, align 4
  %bf.clear.i.i11.i.i = and i8 %bf.load.i.i10.i.i, -2
  store i8 %bf.clear.i.i11.i.i, ptr %m_kind.i1.i.i, align 4
  br label %_ZN8rationalC2ERKS_.exit

if.else.i.i7.i.i:                                 ; preds = %_ZN11mpq_managerILb1EE3setER3mpzRKS1_.exit.i.i
  tail call void @_ZN11mpz_managerILb1EE7big_setER3mpzRKS1_(ptr noundef nonnull align 8 dereferenceable(600) %5, ptr noundef nonnull align 8 dereferenceable(16) %m_den.i.i, ptr noundef nonnull align 8 dereferenceable(16) %m_den3.i.i)
  br label %_ZN8rationalC2ERKS_.exit

_ZN8rationalC2ERKS_.exit:                         ; preds = %if.then.i.i8.i.i, %if.else.i.i7.i.i
  %8 = load ptr, ptr %this, align 8
  %arrayidx10 = getelementptr inbounds i32, ptr %8, i64 -1
  %9 = load i32, ptr %arrayidx10, align 4
  %inc = add i32 %9, 1
  store i32 %inc, ptr %arrayidx10, align 4
  ret ptr %this
}

; Function Attrs: mustprogress uwtable
define hidden noundef i32 @_ZN3opt7context12scoped_state3addEP3appb(ptr noundef nonnull align 8 dereferenceable(152) %this, ptr noundef %t, i1 noundef zeroext %is_max) local_unnamed_addr #3 align 2 personality ptr @__gxx_personality_v0 {
entry:
  %tr = alloca %class.obj_ref, align 8
  %ref.tmp = alloca %"class.std::__cxx11::basic_string", align 8
  %ref.tmp4 = alloca %"class.std::allocator", align 1
  %ref.tmp13 = alloca %"struct.opt::context::objective", align 8
  %0 = load ptr, ptr %this, align 8
  store ptr %t, ptr %tr, align 8
  %m_manager.i = getelementptr inbounds %class.obj_ref, ptr %tr, i64 0, i32 1
  store ptr %0, ptr %m_manager.i, align 8
  %tobool.not.i.i = icmp eq ptr %t, null
  br i1 %tobool.not.i.i, label %_ZN7obj_refI3app11ast_managerEC2EPS0_RS1_.exit, label %_ZN11ast_manager7inc_refEP3ast.exit.i.i

_ZN11ast_manager7inc_refEP3ast.exit.i.i:          ; preds = %entry
  %m_ref_count.i.i.i.i = getelementptr inbounds %class.ast, ptr %t, i64 0, i32 2
  %1 = load i32, ptr %m_ref_count.i.i.i.i, align 4
  %inc.i.i.i.i = add i32 %1, 1
  store i32 %inc.i.i.i.i, ptr %m_ref_count.i.i.i.i, align 4
  br label %_ZN7obj_refI3app11ast_managerEC2EPS0_RS1_.exit

_ZN7obj_refI3app11ast_managerEC2EPS0_RS1_.exit:   ; preds = %entry, %_ZN11ast_manager7inc_refEP3ast.exit.i.i
  %call.i7 = invoke noundef ptr @_ZNK4expr8get_sortEv(ptr noundef nonnull align 4 dereferenceable(16) %t)
          to label %call.i.noexc unwind label %lpad

call.i.noexc:                                     ; preds = %_ZN7obj_refI3app11ast_managerEC2EPS0_RS1_.exit
  %m_bv = getelementptr inbounds %"class.opt::context::scoped_state", ptr %this, i64 0, i32 2
  %call2.i8 = invoke noundef zeroext i1 @_ZNK14bv_recognizers10is_bv_sortEPK4sort(ptr noundef nonnull align 4 dereferenceable(4) %m_bv, ptr noundef %call.i7)
          to label %invoke.cont unwind label %lpad

invoke.cont:                                      ; preds = %call.i.noexc
  br i1 %call2.i8, label %if.end, label %land.lhs.true

land.lhs.true:                                    ; preds = %invoke.cont
  %call.i10 = invoke noundef ptr @_ZNK4expr8get_sortEv(ptr noundef nonnull align 4 dereferenceable(16) %t)
          to label %call.i.noexc9 unwind label %lpad

call.i.noexc9:                                    ; preds = %land.lhs.true
  %m_info.i.i.i = getelementptr inbounds %class.decl, ptr %call.i10, i64 0, i32 2
  %2 = load ptr, ptr %m_info.i.i.i, align 8
  %cmp.i.i.i = icmp eq ptr %2, null
  br i1 %cmp.i.i.i, label %if.then, label %invoke.cont2

invoke.cont2:                                     ; preds = %call.i.noexc9
  %3 = load i32, ptr %2, align 8
  %4 = icmp eq i32 %3, 5
  br i1 %4, label %if.end, label %if.then

if.then:                                          ; preds = %call.i.noexc9, %invoke.cont2
  %exception = tail call ptr @__cxa_allocate_exception(i64 40) #24
  call void @_ZNSaIcEC1Ev(ptr noundef nonnull align 1 dereferenceable(1) %ref.tmp4) #24
  invoke void @_ZNSt7__cxx1112basic_stringIcSt11char_traitsIcESaIcEEC2IS3_EEPKcRKS3_(ptr noundef nonnull align 8 dereferenceable(32) %ref.tmp, ptr noundef nonnull @.str.7, ptr noundef nonnull align 1 dereferenceable(1) %ref.tmp4)
          to label %invoke.cont6 unwind label %cleanup.action

invoke.cont6:                                     ; preds = %if.then
  store ptr getelementptr inbounds ({ [6 x ptr] }, ptr @_ZTV17default_exception, i64 0, inrange i32 0, i64 2), ptr %exception, align 8
  %m_msg.i = getelementptr inbounds %class.default_exception, ptr %exception, i64 0, i32 1
  call void @_ZNSt7__cxx1112basic_stringIcSt11char_traitsIcESaIcEEC1EOS4_(ptr noundef nonnull align 8 dereferenceable(32) %m_msg.i, ptr noundef nonnull align 8 dereferenceable(32) %ref.tmp) #24
  invoke void @__cxa_throw(ptr nonnull %exception, ptr nonnull @_ZTI17default_exception, ptr nonnull @_ZN17default_exceptionD2Ev) #25
          to label %unreachable unwind label %ehcleanup

lpad:                                             ; preds = %land.lhs.true, %call.i.noexc, %_ZN7obj_refI3app11ast_managerEC2EPS0_RS1_.exit
  %5 = landingpad { ptr, i32 }
          cleanup
  br label %ehcleanup19

ehcleanup:                                        ; preds = %invoke.cont6
  %6 = landingpad { ptr, i32 }
          cleanup
  call void @_ZNSt7__cxx1112basic_stringIcSt11char_traitsIcESaIcEED1Ev(ptr noundef nonnull align 8 dereferenceable(32) %ref.tmp) #24
  call void @_ZNSaIcED1Ev(ptr noundef nonnull align 1 dereferenceable(1) %ref.tmp4) #24
  br label %ehcleanup19

cleanup.action:                                   ; preds = %if.then
  %7 = landingpad { ptr, i32 }
          cleanup
  call void @_ZNSaIcED1Ev(ptr noundef nonnull align 1 dereferenceable(1) %ref.tmp4) #24
  call void @__cxa_free_exception(ptr %exception) #24
  br label %ehcleanup19

if.end:                                           ; preds = %invoke.cont2, %invoke.cont
  %m_objectives = getelementptr inbounds %"class.opt::context::scoped_state", ptr %this, i64 0, i32 11
  %8 = load ptr, ptr %m_objectives, align 8
  %cmp.i = icmp eq ptr %8, null
  br i1 %cmp.i, label %invoke.cont2.i, label %if.end.i

if.end.i:                                         ; preds = %if.end
  %arrayidx.i = getelementptr inbounds i32, ptr %8, i64 -1
  %9 = load i32, ptr %arrayidx.i, align 4
  br label %invoke.cont2.i

invoke.cont2.i:                                   ; preds = %if.end, %if.end.i
  %retval.0.i = phi i32 [ %9, %if.end.i ], [ 0, %if.end ]
  %not.is_max.i = xor i1 %is_max, true
  %cond.i = zext i1 %not.is_max.i to i32
  store i32 %cond.i, ptr %ref.tmp13, align 8
  %m_term.i = getelementptr inbounds %"struct.opt::context::objective", ptr %ref.tmp13, i64 0, i32 2
  store ptr %t, ptr %m_term.i, align 8
  %m_manager.i.i = getelementptr inbounds %"struct.opt::context::objective", ptr %ref.tmp13, i64 0, i32 2, i32 1
  store ptr %0, ptr %m_manager.i.i, align 8
  %m_ref_count.i.i.i.i.i = getelementptr inbounds %class.ast, ptr %t, i64 0, i32 2
  %10 = load i32, ptr %m_ref_count.i.i.i.i.i, align 4
  %inc.i.i.i.i.i = add i32 %10, 1
  store i32 %inc.i.i.i.i.i, ptr %m_ref_count.i.i.i.i.i, align 4
  %m_terms.i = getelementptr inbounds %"struct.opt::context::objective", ptr %ref.tmp13, i64 0, i32 3
  %11 = ptrtoint ptr %0 to i64
  store i64 %11, ptr %m_terms.i, align 8
  %m_nodes.i.i.i = getelementptr inbounds %"struct.opt::context::objective", ptr %ref.tmp13, i64 0, i32 3, i32 0, i32 1
  %m_kind.i.i.i.i.i = getelementptr inbounds %"struct.opt::context::objective", ptr %ref.tmp13, i64 0, i32 5, i32 0, i32 0, i32 0, i32 1
  call void @llvm.memset.p0.i64(ptr noundef nonnull align 8 dereferenceable(20) %m_nodes.i.i.i, i8 0, i64 20, i1 false)
  %m_ptr.i.i.i.i.i = getelementptr inbounds %"struct.opt::context::objective", ptr %ref.tmp13, i64 0, i32 5, i32 0, i32 0, i32 0, i32 2
  store ptr null, ptr %m_ptr.i.i.i.i.i, align 8
  %m_den.i.i.i.i = getelementptr inbounds %"struct.opt::context::objective", ptr %ref.tmp13, i64 0, i32 5, i32 0, i32 0, i32 1
  store i32 1, ptr %m_den.i.i.i.i, align 8
  %m_kind.i1.i.i.i.i = getelementptr inbounds %"struct.opt::context::objective", ptr %ref.tmp13, i64 0, i32 5, i32 0, i32 0, i32 1, i32 1
  store i8 0, ptr %m_kind.i1.i.i.i.i, align 4
  %m_ptr.i4.i.i.i.i = getelementptr inbounds %"struct.opt::context::objective", ptr %ref.tmp13, i64 0, i32 5, i32 0, i32 0, i32 1, i32 2
  store ptr null, ptr %m_ptr.i4.i.i.i.i, align 8
  %12 = load ptr, ptr @_ZN8rational13g_mpq_managerE, align 8
  store i8 0, ptr %m_kind.i.i.i.i.i, align 4
  invoke void @_ZN11mpz_managerILb1EE3delEPS0_R3mpz(ptr noundef nonnull %12, ptr noundef nonnull align 8 dereferenceable(16) %m_den.i.i.i.i)
          to label %invoke.cont4.i unwind label %lpad3.i

invoke.cont4.i:                                   ; preds = %invoke.cont2.i
  store i32 1, ptr %m_den.i.i.i.i, align 8
  %m_negate.i.i = getelementptr inbounds %"struct.opt::context::objective", ptr %ref.tmp13, i64 0, i32 5, i32 1
  store i8 0, ptr %m_negate.i.i, align 8
  %m_id.i = getelementptr inbounds %"struct.opt::context::objective", ptr %ref.tmp13, i64 0, i32 6
  store ptr null, ptr %m_id.i, align 8
  %m_index.i = getelementptr inbounds %"struct.opt::context::objective", ptr %ref.tmp13, i64 0, i32 7
  store i32 %retval.0.i, ptr %m_index.i, align 8
  br i1 %is_max, label %invoke.cont14, label %if.then.i

if.then.i:                                        ; preds = %invoke.cont4.i
  store i8 1, ptr %m_negate.i.i, align 8
  br label %invoke.cont14

lpad3.i:                                          ; preds = %invoke.cont2.i
  %13 = landingpad { ptr, i32 }
          cleanup
  %m_weights.i = getelementptr inbounds %"struct.opt::context::objective", ptr %ref.tmp13, i64 0, i32 4
  call void @_ZN6vectorI8rationalLb1EjED2Ev(ptr noundef nonnull align 8 dereferenceable(8) %m_weights.i) #24
  call void @_ZN10ref_vectorI4expr11ast_managerED2Ev(ptr noundef nonnull align 8 dereferenceable(16) %m_terms.i) #24
  call void @_ZN7obj_refI3app11ast_managerED2Ev(ptr noundef nonnull align 8 dereferenceable(16) %m_term.i) #24
  br label %ehcleanup19

invoke.cont14:                                    ; preds = %if.then.i, %invoke.cont4.i
  %call17 = invoke noundef nonnull align 8 dereferenceable(8) ptr @_ZN6vectorIN3opt7context9objectiveELb1EjE9push_backEOS2_(ptr noundef nonnull align 8 dereferenceable(8) %m_objectives, ptr noundef nonnull align 8 dereferenceable(100) %ref.tmp13)
          to label %if.then.i.i.i unwind label %lpad15

if.then.i.i.i:                                    ; preds = %invoke.cont14
  call void @_ZN3opt7context9objectiveD2Ev(ptr noundef nonnull align 8 dereferenceable(100) %ref.tmp13) #24
  %m_ref_count.i.i.i.i14 = getelementptr inbounds %class.ast, ptr %t, i64 0, i32 2
  %14 = load i32, ptr %m_ref_count.i.i.i.i14, align 4
  %dec.i.i.i.i = add i32 %14, -1
  store i32 %dec.i.i.i.i, ptr %m_ref_count.i.i.i.i14, align 4
  %cmp.i.i.i15 = icmp eq i32 %dec.i.i.i.i, 0
  br i1 %cmp.i.i.i15, label %if.then2.i.i.i, label %_ZN7obj_refI3app11ast_managerED2Ev.exit

if.then2.i.i.i:                                   ; preds = %if.then.i.i.i
  invoke void @_ZN11ast_manager11delete_nodeEP3ast(ptr noundef nonnull align 8 dereferenceable(976) %0, ptr noundef nonnull %t)
          to label %_ZN7obj_refI3app11ast_managerED2Ev.exit unwind label %terminate.lpad.i

terminate.lpad.i:                                 ; preds = %if.then2.i.i.i
  %15 = landingpad { ptr, i32 }
          catch ptr null
  %16 = extractvalue { ptr, i32 } %15, 0
  call void @__clang_call_terminate(ptr %16) #23
  unreachable

_ZN7obj_refI3app11ast_managerED2Ev.exit:          ; preds = %if.then.i.i.i, %if.then2.i.i.i
  ret i32 %retval.0.i

lpad15:                                           ; preds = %invoke.cont14
  %17 = landingpad { ptr, i32 }
          cleanup
  call void @_ZN3opt7context9objectiveD2Ev(ptr noundef nonnull align 8 dereferenceable(100) %ref.tmp13) #24
  br label %ehcleanup19

ehcleanup19:                                      ; preds = %ehcleanup, %lpad, %lpad3.i, %cleanup.action, %lpad15
  %.pn5 = phi { ptr, i32 } [ %17, %lpad15 ], [ %7, %cleanup.action ], [ %6, %ehcleanup ], [ %5, %lpad ], [ %13, %lpad3.i ]
  call void @_ZN7obj_refI3app11ast_managerED2Ev(ptr noundef nonnull align 8 dereferenceable(16) %tr) #24
  resume { ptr, i32 } %.pn5

unreachable:                                      ; preds = %invoke.cont6
  unreachable
}

; Function Attrs: mustprogress nounwind uwtable
define linkonce_odr hidden void @_ZN7obj_refI3app11ast_managerED2Ev(ptr noundef nonnull align 8 dereferenceable(16) %this) unnamed_addr #4 comdat align 2 personality ptr @__gxx_personality_v0 {
entry:
  %0 = load ptr, ptr %this, align 8
  %tobool.not.i = icmp eq ptr %0, null
  br i1 %tobool.not.i, label %invoke.cont, label %if.then.i.i

if.then.i.i:                                      ; preds = %entry
  %m_manager.i = getelementptr inbounds %class.obj_ref, ptr %this, i64 0, i32 1
  %1 = load ptr, ptr %m_manager.i, align 8
  %m_ref_count.i.i.i = getelementptr inbounds %class.ast, ptr %0, i64 0, i32 2
  %2 = load i32, ptr %m_ref_count.i.i.i, align 4
  %dec.i.i.i = add i32 %2, -1
  store i32 %dec.i.i.i, ptr %m_ref_count.i.i.i, align 4
  %cmp.i.i = icmp eq i32 %dec.i.i.i, 0
  br i1 %cmp.i.i, label %if.then2.i.i, label %invoke.cont

if.then2.i.i:                                     ; preds = %if.then.i.i
  invoke void @_ZN11ast_manager11delete_nodeEP3ast(ptr noundef nonnull align 8 dereferenceable(976) %1, ptr noundef nonnull %0)
          to label %invoke.cont unwind label %terminate.lpad

invoke.cont:                                      ; preds = %if.then.i.i, %entry, %if.then2.i.i
  ret void

terminate.lpad:                                   ; preds = %if.then2.i.i
  %3 = landingpad { ptr, i32 }
          catch ptr null
  %4 = extractvalue { ptr, i32 } %3, 0
  tail call void @__clang_call_terminate(ptr %4) #23
  unreachable
}

; Function Attrs: mustprogress uwtable
define hidden void @_ZN3opt7contextC2ER11ast_manager(ptr noundef nonnull align 8 dereferenceable(792) %this, ptr noundef nonnull align 8 dereferenceable(976) %m) unnamed_addr #3 align 2 personality ptr @__gxx_personality_v0 {
entry:
  %ref.tmp50 = alloca %"class.std::allocator", align 1
  %p = alloca %class.params_ref, align 8
  %m2.i.i = getelementptr inbounds %class.check_sat_result, ptr %this, i64 0, i32 1
  store ptr %m, ptr %m2.i.i, align 8
  %m_log.i.i = getelementptr inbounds %class.check_sat_result, ptr %this, i64 0, i32 2
  %0 = ptrtoint ptr %m to i64
  store i64 %0, ptr %m_log.i.i, align 8
  %m_nodes.i.i.i.i = getelementptr inbounds %class.check_sat_result, ptr %this, i64 0, i32 2, i32 0, i32 1
  %m_manager.i.i.i = getelementptr inbounds %class.check_sat_result, ptr %this, i64 0, i32 3, i32 1
  tail call void @llvm.memset.p0.i64(ptr noundef nonnull align 8 dereferenceable(16) %m_nodes.i.i.i.i, i8 0, i64 16, i1 false)
  store ptr %m, ptr %m_manager.i.i.i, align 8
  %m_ref_count.i.i = getelementptr inbounds %class.check_sat_result, ptr %this, i64 0, i32 4
  tail call void @llvm.memset.p0.i64(ptr noundef nonnull align 8 dereferenceable(24) %m_ref_count.i.i, i8 0, i64 24, i1 false)
  %1 = getelementptr inbounds i8, ptr %this, i64 72
  %2 = getelementptr inbounds i8, ptr %this, i64 80
  store ptr getelementptr inbounds ({ [40 x ptr], [9 x ptr], [19 x ptr] }, ptr @_ZTVN3opt7contextE, i64 0, inrange i32 0, i64 2), ptr %this, align 8
  store ptr getelementptr inbounds ({ [40 x ptr], [9 x ptr], [19 x ptr] }, ptr @_ZTVN3opt7contextE, i64 0, inrange i32 1, i64 2), ptr %1, align 8
  store ptr getelementptr inbounds ({ [40 x ptr], [9 x ptr], [19 x ptr] }, ptr @_ZTVN3opt7contextE, i64 0, inrange i32 2, i64 2), ptr %2, align 8
  %m_time = getelementptr inbounds %"class.opt::context", ptr %this, i64 0, i32 3
  store double 0.000000e+00, ptr %m_time, align 8
  %m_on_model_eh = getelementptr inbounds %"class.opt::context", ptr %this, i64 0, i32 5
  %m_arith = getelementptr inbounds %"class.opt::context", ptr %this, i64 0, i32 7
  tail call void @llvm.memset.p0.i64(ptr noundef nonnull align 8 dereferenceable(33) %m_on_model_eh, i8 0, i64 33, i1 false)
  invoke void @_ZN10arith_utilC1ER11ast_manager(ptr noundef nonnull align 8 dereferenceable(16) %m_arith, ptr noundef nonnull align 8 dereferenceable(976) %m)
          to label %invoke.cont unwind label %lpad

invoke.cont:                                      ; preds = %entry
  %m_bv = getelementptr inbounds %"class.opt::context", ptr %this, i64 0, i32 8
  invoke void @_ZN7bv_utilC1ER11ast_manager(ptr noundef nonnull align 8 dereferenceable(24) %m_bv, ptr noundef nonnull align 8 dereferenceable(976) %m)
          to label %invoke.cont20 unwind label %lpad

invoke.cont20:                                    ; preds = %invoke.cont
  %m_hard_constraints = getelementptr inbounds %"class.opt::context", ptr %this, i64 0, i32 9
  store i64 %0, ptr %m_hard_constraints, align 8
  %m_nodes.i.i = getelementptr inbounds %"class.opt::context", ptr %this, i64 0, i32 9, i32 0, i32 1
  %m_opt_solver = getelementptr inbounds %"class.opt::context", ptr %this, i64 0, i32 10
  %m_solver = getelementptr inbounds %"class.opt::context", ptr %this, i64 0, i32 11
  %m_sat_solver = getelementptr inbounds %"class.opt::context", ptr %this, i64 0, i32 12
  %m_pareto = getelementptr inbounds %"class.opt::context", ptr %this, i64 0, i32 13
  %m_qmax = getelementptr inbounds %"class.opt::context", ptr %this, i64 0, i32 15
  %m_box_models = getelementptr inbounds %"class.opt::context", ptr %this, i64 0, i32 16
  %m_box_index = getelementptr inbounds %"class.opt::context", ptr %this, i64 0, i32 17
  tail call void @llvm.memset.p0.i64(ptr noundef nonnull align 8 dereferenceable(41) %m_nodes.i.i, i8 0, i64 41, i1 false)
  tail call void @llvm.memset.p0.i64(ptr noundef nonnull align 8 dereferenceable(16) %m_qmax, i8 0, i64 16, i1 false)
  store i32 -1, ptr %m_box_index, align 8
  %m_params = getelementptr inbounds %"class.opt::context", ptr %this, i64 0, i32 18
  store ptr null, ptr %m_params, align 8
  %m_optsmt = getelementptr inbounds %"class.opt::context", ptr %this, i64 0, i32 19
  store ptr %m, ptr %m_optsmt, align 8
  %m_context.i = getelementptr inbounds %"class.opt::context", ptr %this, i64 0, i32 19, i32 1
  store ptr %this, ptr %m_context.i, align 8
  %m_s.i = getelementptr inbounds %"class.opt::context", ptr %this, i64 0, i32 19, i32 2
  %m_objs.i = getelementptr inbounds %"class.opt::context", ptr %this, i64 0, i32 19, i32 5
  tail call void @llvm.memset.p0.i64(ptr noundef nonnull align 8 dereferenceable(24) %m_s.i, i8 0, i64 24, i1 false)
  store i64 %0, ptr %m_objs.i, align 8
  %m_nodes.i.i.i = getelementptr inbounds %"class.opt::context", ptr %this, i64 0, i32 19, i32 5, i32 0, i32 1
  store ptr null, ptr %m_nodes.i.i.i, align 8
  %m_lower_fmls.i = getelementptr inbounds %"class.opt::context", ptr %this, i64 0, i32 19, i32 6
  store i64 %0, ptr %m_lower_fmls.i, align 8
  %m_nodes.i.i5.i = getelementptr inbounds %"class.opt::context", ptr %this, i64 0, i32 19, i32 6, i32 0, i32 1
  tail call void @llvm.memset.p0.i64(ptr noundef nonnull align 8 dereferenceable(56) %m_nodes.i.i5.i, i8 0, i64 56, i1 false)
  %m_maxsmts = getelementptr inbounds %"class.opt::context", ptr %this, i64 0, i32 20
  %call.i.i.i.i.i22 = invoke noalias noundef ptr @_ZN6memory8allocateEm(i64 noundef 192)
          to label %invoke.cont23 unwind label %lpad22

invoke.cont23:                                    ; preds = %invoke.cont20
  tail call void @llvm.memset.p0.i64(ptr noundef nonnull align 8 dereferenceable(192) %call.i.i.i.i.i22, i8 0, i64 192, i1 false)
  store ptr %call.i.i.i.i.i22, ptr %m_maxsmts, align 8
  %m_capacity.i.i.i = getelementptr inbounds %"class.opt::context", ptr %this, i64 0, i32 20, i32 0, i32 0, i32 1
  store i32 8, ptr %m_capacity.i.i.i, align 8
  %m_size.i.i.i = getelementptr inbounds %"class.opt::context", ptr %this, i64 0, i32 20, i32 0, i32 0, i32 2
  store i32 0, ptr %m_size.i.i.i, align 4
  %m_num_deleted.i.i.i = getelementptr inbounds %"class.opt::context", ptr %this, i64 0, i32 20, i32 0, i32 0, i32 3
  store i32 0, ptr %m_num_deleted.i.i.i, align 8
  %m_scoped_state = getelementptr inbounds %"class.opt::context", ptr %this, i64 0, i32 21
  invoke void @_ZN3opt7context12scoped_stateC2ER11ast_manager(ptr noundef nonnull align 8 dereferenceable(152) %m_scoped_state, ptr noundef nonnull align 8 dereferenceable(976) %m)
          to label %invoke.cont25 unwind label %lpad24

invoke.cont25:                                    ; preds = %invoke.cont23
  %m_objectives = getelementptr inbounds %"class.opt::context", ptr %this, i64 0, i32 22
  %m_model = getelementptr inbounds %"class.opt::context", ptr %this, i64 0, i32 23
  %m_model_converter = getelementptr inbounds %"class.opt::context", ptr %this, i64 0, i32 24
  %m_fm = getelementptr inbounds %"class.opt::context", ptr %this, i64 0, i32 25
  tail call void @llvm.memset.p0.i64(ptr noundef nonnull align 8 dereferenceable(24) %m_objectives, i8 0, i64 24, i1 false)
  %call = invoke noalias noundef ptr @_ZN6memory8allocateEm(i64 noundef 80)
          to label %invoke.cont31 unwind label %lpad30

invoke.cont31:                                    ; preds = %invoke.cont25
  invoke void @_ZN23generic_model_converterC2ER11ast_managerPKc(ptr noundef nonnull align 8 dereferenceable(80) %call, ptr noundef nonnull align 8 dereferenceable(976) %m, ptr noundef nonnull @.str.8)
          to label %invoke.cont35 unwind label %lpad30

invoke.cont35:                                    ; preds = %invoke.cont31
  store ptr %call, ptr %m_fm, align 8
  %m_ref_count.i.i.i = getelementptr inbounds %class.converter, ptr %call, i64 0, i32 1
  %3 = load i32, ptr %m_ref_count.i.i.i, align 8
  %inc.i.i.i = add i32 %3, 1
  store i32 %inc.i.i.i, ptr %m_ref_count.i.i.i, align 8
  %m_model_fixed = getelementptr inbounds %"class.opt::context", ptr %this, i64 0, i32 26
  store ptr null, ptr %m_model_fixed, align 8
  %m_objective_fns = getelementptr inbounds %"class.opt::context", ptr %this, i64 0, i32 29
  %call.i.i.i.i23 = invoke noalias noundef ptr @_ZN6memory8allocateEm(i64 noundef 128)
          to label %invoke.cont37 unwind label %lpad36

invoke.cont37:                                    ; preds = %invoke.cont35
  tail call void @llvm.memset.p0.i64(ptr noundef nonnull align 8 dereferenceable(128) %call.i.i.i.i23, i8 0, i64 128, i1 false)
  store ptr %call.i.i.i.i23, ptr %m_objective_fns, align 8
  %m_capacity.i.i = getelementptr inbounds %"class.opt::context", ptr %this, i64 0, i32 29, i32 0, i32 1
  store i32 8, ptr %m_capacity.i.i, align 8
  %m_size.i.i = getelementptr inbounds %"class.opt::context", ptr %this, i64 0, i32 29, i32 0, i32 2
  store i32 0, ptr %m_size.i.i, align 4
  %m_num_deleted.i.i = getelementptr inbounds %"class.opt::context", ptr %this, i64 0, i32 29, i32 0, i32 3
  store i32 0, ptr %m_num_deleted.i.i, align 8
  %m_objective_orig = getelementptr inbounds %"class.opt::context", ptr %this, i64 0, i32 30
  %call.i.i.i.i27 = invoke noalias noundef ptr @_ZN6memory8allocateEm(i64 noundef 128)
          to label %invoke.cont43 unwind label %lpad38

invoke.cont43:                                    ; preds = %invoke.cont37
  tail call void @llvm.memset.p0.i64(ptr noundef nonnull align 8 dereferenceable(128) %call.i.i.i.i27, i8 0, i64 128, i1 false)
  store ptr %call.i.i.i.i27, ptr %m_objective_orig, align 8
  %m_capacity.i.i24 = getelementptr inbounds %"class.opt::context", ptr %this, i64 0, i32 30, i32 0, i32 1
  store i32 8, ptr %m_capacity.i.i24, align 8
  %m_size.i.i25 = getelementptr inbounds %"class.opt::context", ptr %this, i64 0, i32 30, i32 0, i32 2
  store i32 0, ptr %m_size.i.i25, align 4
  %m_num_deleted.i.i26 = getelementptr inbounds %"class.opt::context", ptr %this, i64 0, i32 30, i32 0, i32 3
  store i32 0, ptr %m_num_deleted.i.i26, align 8
  %m_objective_refs = getelementptr inbounds %"class.opt::context", ptr %this, i64 0, i32 31
  store i64 %0, ptr %m_objective_refs, align 8
  %m_nodes.i.i28 = getelementptr inbounds %"class.opt::context", ptr %this, i64 0, i32 31, i32 0, i32 1
  store ptr null, ptr %m_nodes.i.i28, align 8
  %m_core = getelementptr inbounds %"class.opt::context", ptr %this, i64 0, i32 32
  store i64 %0, ptr %m_core, align 8
  %m_nodes.i.i29 = getelementptr inbounds %"class.opt::context", ptr %this, i64 0, i32 32, i32 0, i32 1
  %m_simplify = getelementptr inbounds %"class.opt::context", ptr %this, i64 0, i32 33
  %m_enable_sat = getelementptr inbounds %"class.opt::context", ptr %this, i64 0, i32 34
  tail call void @llvm.memset.p0.i64(ptr noundef nonnull align 8 dereferenceable(16) %m_nodes.i.i29, i8 0, i64 16, i1 false)
  store i8 1, ptr %m_enable_sat, align 8
  %m_enable_sls = getelementptr inbounds %"class.opt::context", ptr %this, i64 0, i32 35
  %m_maxsat_engine = getelementptr inbounds %"class.opt::context", ptr %this, i64 0, i32 40
  %m_labels = getelementptr inbounds %"class.opt::context", ptr %this, i64 0, i32 42
  %m_unknown = getelementptr inbounds %"class.opt::context", ptr %this, i64 0, i32 43
  tail call void @llvm.memset.p0.i64(ptr noundef nonnull align 1 dereferenceable(5) %m_enable_sls, i8 0, i64 5, i1 false)
  tail call void @llvm.memset.p0.i64(ptr noundef nonnull align 8 dereferenceable(24) %m_maxsat_engine, i8 0, i64 24, i1 false)
  call void @_ZNSaIcEC1Ev(ptr noundef nonnull align 1 dereferenceable(1) %ref.tmp50) #24
  %call.i30 = invoke noundef ptr @_ZNSt7__cxx1112basic_stringIcSt11char_traitsIcESaIcEE13_M_local_dataEv(ptr noundef nonnull align 8 dereferenceable(32) %m_unknown)
          to label %call.i.noexc unwind label %lpad51

call.i.noexc:                                     ; preds = %invoke.cont43
  invoke void @_ZNSt7__cxx1112basic_stringIcSt11char_traitsIcESaIcEE12_Alloc_hiderC1EPcRKS3_(ptr noundef nonnull align 8 dereferenceable(8) %m_unknown, ptr noundef %call.i30, ptr noundef nonnull align 1 dereferenceable(1) %ref.tmp50)
          to label %.noexc unwind label %lpad51

.noexc:                                           ; preds = %call.i.noexc
  invoke void @_ZNSt7__cxx1112basic_stringIcSt11char_traitsIcESaIcEE12_M_constructIPKcEEvT_S8_St20forward_iterator_tag(ptr noundef nonnull align 8 dereferenceable(32) %m_unknown, ptr noundef nonnull @.str.9, ptr noundef nonnull getelementptr inbounds ([8 x i8], ptr @.str.9, i64 0, i64 7))
          to label %invoke.cont52 unwind label %lpad.i

lpad.i:                                           ; preds = %.noexc
  %4 = landingpad { ptr, i32 }
          cleanup
  call void @_ZNSaIcED2Ev(ptr noundef nonnull align 1 dereferenceable(1) %m_unknown) #24
  br label %lpad51.body

invoke.cont52:                                    ; preds = %.noexc
  call void @_ZNSaIcED1Ev(ptr noundef nonnull align 1 dereferenceable(1) %ref.tmp50) #24
  store ptr null, ptr %p, align 8
  invoke void @_ZN10params_ref8set_boolEPKcb(ptr noundef nonnull align 8 dereferenceable(8) %p, ptr noundef nonnull @.str.10, i1 noundef zeroext true)
          to label %invoke.cont56 unwind label %lpad55

invoke.cont56:                                    ; preds = %invoke.cont52
  invoke void @_ZN10params_ref8set_boolEPKcb(ptr noundef nonnull align 8 dereferenceable(8) %p, ptr noundef nonnull @.str.11, i1 noundef zeroext true)
          to label %invoke.cont57 unwind label %lpad55

invoke.cont57:                                    ; preds = %invoke.cont56
  invoke void @_ZN10params_ref8set_boolEPKcb(ptr noundef nonnull align 8 dereferenceable(8) %p, ptr noundef nonnull @.str.12, i1 noundef zeroext true)
          to label %invoke.cont58 unwind label %lpad55

invoke.cont58:                                    ; preds = %invoke.cont57
  %vtable = load ptr, ptr %this, align 8
  %vfn = getelementptr inbounds ptr, ptr %vtable, i64 19
  %5 = load ptr, ptr %vfn, align 8
  invoke void %5(ptr noundef nonnull align 8 dereferenceable(792) %this, ptr noundef nonnull align 8 dereferenceable(8) %p)
          to label %invoke.cont59 unwind label %lpad55

invoke.cont59:                                    ; preds = %invoke.cont58
  %m_model_counter = getelementptr inbounds %"class.opt::context", ptr %this, i64 0, i32 27
  store i32 0, ptr %m_model_counter, align 8
  call void @_ZN10params_refD1Ev(ptr noundef nonnull align 8 dereferenceable(8) %p) #24
  ret void

lpad:                                             ; preds = %invoke.cont, %entry
  %6 = landingpad { ptr, i32 }
          cleanup
  br label %ehcleanup82

lpad22:                                           ; preds = %invoke.cont20
  %7 = landingpad { ptr, i32 }
          cleanup
  br label %ehcleanup73

lpad24:                                           ; preds = %invoke.cont23
  %8 = landingpad { ptr, i32 }
          cleanup
  br label %ehcleanup72

lpad30:                                           ; preds = %invoke.cont31, %invoke.cont25
  %9 = landingpad { ptr, i32 }
          cleanup
  br label %ehcleanup68

lpad36:                                           ; preds = %invoke.cont35
  %10 = landingpad { ptr, i32 }
          cleanup
  br label %ehcleanup66

lpad38:                                           ; preds = %invoke.cont37
  %11 = landingpad { ptr, i32 }
          cleanup
  br label %ehcleanup65

lpad51:                                           ; preds = %call.i.noexc, %invoke.cont43
  %12 = landingpad { ptr, i32 }
          cleanup
  br label %lpad51.body

lpad51.body:                                      ; preds = %lpad.i, %lpad51
  %eh.lpad-body = phi { ptr, i32 } [ %12, %lpad51 ], [ %4, %lpad.i ]
  call void @_ZNSaIcED1Ev(ptr noundef nonnull align 1 dereferenceable(1) %ref.tmp50) #24
  br label %ehcleanup60

lpad55:                                           ; preds = %invoke.cont58, %invoke.cont57, %invoke.cont56, %invoke.cont52
  %13 = landingpad { ptr, i32 }
          cleanup
  call void @_ZN10params_refD1Ev(ptr noundef nonnull align 8 dereferenceable(8) %p) #24
  call void @_ZNSt7__cxx1112basic_stringIcSt11char_traitsIcESaIcEED1Ev(ptr noundef nonnull align 8 dereferenceable(32) %m_unknown) #24
  br label %ehcleanup60

ehcleanup60:                                      ; preds = %lpad55, %lpad51.body
  %.pn = phi { ptr, i32 } [ %13, %lpad55 ], [ %eh.lpad-body, %lpad51.body ]
  call void @_ZN7svectorI6symboljED2Ev(ptr noundef nonnull align 8 dereferenceable(8) %m_labels) #24
  call void @_ZN3refI6tacticED2Ev(ptr noundef nonnull align 8 dereferenceable(8) %m_simplify) #24
  call void @_ZN10ref_vectorI4expr11ast_managerED2Ev(ptr noundef nonnull align 8 dereferenceable(16) %m_core) #24
  call void @_ZN10ref_vectorI9func_decl11ast_managerED2Ev(ptr noundef nonnull align 8 dereferenceable(16) %m_objective_refs) #24
  call void @_ZN7obj_mapI9func_declP4exprED2Ev(ptr noundef nonnull align 8 dereferenceable(24) %m_objective_orig) #24
  br label %ehcleanup65

ehcleanup65:                                      ; preds = %ehcleanup60, %lpad38
  %.pn.pn.pn.pn = phi { ptr, i32 } [ %.pn, %ehcleanup60 ], [ %11, %lpad38 ]
  call void @_ZN7obj_mapI9func_decljED2Ev(ptr noundef nonnull align 8 dereferenceable(24) %m_objective_fns) #24
  br label %ehcleanup66

ehcleanup66:                                      ; preds = %ehcleanup65, %lpad36
  %.pn.pn.pn.pn.pn = phi { ptr, i32 } [ %.pn.pn.pn.pn, %ehcleanup65 ], [ %10, %lpad36 ]
  call void @_ZN15ref_vector_coreI5model21ref_unmanaged_wrapperIS0_EED2Ev(ptr noundef nonnull align 8 dereferenceable(8) %m_model_fixed) #24
  call void @_ZN3refI23generic_model_converterED2Ev(ptr noundef nonnull align 8 dereferenceable(8) %m_fm) #24
  br label %ehcleanup68

ehcleanup68:                                      ; preds = %ehcleanup66, %lpad30
  %.pn.pn.pn.pn.pn.pn.pn = phi { ptr, i32 } [ %.pn.pn.pn.pn.pn, %ehcleanup66 ], [ %9, %lpad30 ]
  call void @_ZN3refI15model_converterED2Ev(ptr noundef nonnull align 8 dereferenceable(8) %m_model_converter) #24
  call void @_ZN3refI5modelED2Ev(ptr noundef nonnull align 8 dereferenceable(8) %m_model) #24
  call void @_ZN6vectorIN3opt7context9objectiveELb1EjED2Ev(ptr noundef nonnull align 8 dereferenceable(8) %m_objectives) #24
  call void @_ZN3opt7context12scoped_stateD2Ev(ptr noundef nonnull align 8 dereferenceable(152) %m_scoped_state) #24
  br label %ehcleanup72

ehcleanup72:                                      ; preds = %ehcleanup68, %lpad24
  %.pn.pn.pn.pn.pn.pn.pn.pn = phi { ptr, i32 } [ %.pn.pn.pn.pn.pn.pn.pn, %ehcleanup68 ], [ %8, %lpad24 ]
  call void @_ZN3mapI6symbolPN3opt6maxsmtE16symbol_hash_proc14symbol_eq_procED2Ev(ptr noundef nonnull align 8 dereferenceable(24) %m_maxsmts) #24
  br label %ehcleanup73

ehcleanup73:                                      ; preds = %ehcleanup72, %lpad22
  %.pn.pn.pn.pn.pn.pn.pn.pn.pn = phi { ptr, i32 } [ %.pn.pn.pn.pn.pn.pn.pn.pn, %ehcleanup72 ], [ %7, %lpad22 ]
  call void @_ZN3opt6optsmtD2Ev(ptr noundef nonnull align 8 dereferenceable(120) %m_optsmt) #24
  call void @_ZN10params_refD1Ev(ptr noundef nonnull align 8 dereferenceable(8) %m_params) #24
  call void @_ZN15ref_vector_coreI5model21ref_unmanaged_wrapperIS0_EED2Ev(ptr noundef nonnull align 8 dereferenceable(8) %m_box_models) #24
  call void @_ZN10scoped_ptrIN2qe4qmaxEED2Ev(ptr noundef nonnull align 8 dereferenceable(8) %m_qmax) #24
  call void @_ZN10scoped_ptrIN3opt11pareto_baseEED2Ev(ptr noundef nonnull align 8 dereferenceable(8) %m_pareto) #24
  call void @_ZN3refI6solverED2Ev(ptr noundef nonnull align 8 dereferenceable(8) %m_sat_solver) #24
  call void @_ZN3refI6solverED2Ev(ptr noundef nonnull align 8 dereferenceable(8) %m_solver) #24
  call void @_ZN3refIN3opt10opt_solverEED2Ev(ptr noundef nonnull align 8 dereferenceable(8) %m_opt_solver) #24
  call void @_ZN10ref_vectorI4expr11ast_managerED2Ev(ptr noundef nonnull align 8 dereferenceable(16) %m_hard_constraints) #24
  br label %ehcleanup82

ehcleanup82:                                      ; preds = %ehcleanup73, %lpad
  %.pn.pn.pn.pn.pn.pn.pn.pn.pn.pn.pn.pn.pn = phi { ptr, i32 } [ %.pn.pn.pn.pn.pn.pn.pn.pn.pn, %ehcleanup73 ], [ %6, %lpad ]
  %_M_manager.i.i = getelementptr inbounds %"class.opt::context", ptr %this, i64 0, i32 5, i32 0, i32 1
  %14 = load ptr, ptr %_M_manager.i.i, align 8
  %tobool.not.i.i31 = icmp eq ptr %14, null
  br i1 %tobool.not.i.i31, label %_ZNSt8functionIFvRN3opt10on_model_tER3refI5modelEEED2Ev.exit, label %if.then.i.i32

if.then.i.i32:                                    ; preds = %ehcleanup82
  %call.i.i33 = invoke noundef zeroext i1 %14(ptr noundef nonnull align 8 dereferenceable(16) %m_on_model_eh, ptr noundef nonnull align 8 dereferenceable(16) %m_on_model_eh, i32 noundef 3)
          to label %_ZNSt8functionIFvRN3opt10on_model_tER3refI5modelEEED2Ev.exit unwind label %terminate.lpad.i.i

terminate.lpad.i.i:                               ; preds = %if.then.i.i32
  %15 = landingpad { ptr, i32 }
          catch ptr null
  %16 = extractvalue { ptr, i32 } %15, 0
  call void @__clang_call_terminate(ptr %16) #23
  unreachable

_ZNSt8functionIFvRN3opt10on_model_tER3refI5modelEEED2Ev.exit: ; preds = %ehcleanup82, %if.then.i.i32
  call void @_ZN16check_sat_resultD2Ev(ptr noundef nonnull align 8 dereferenceable(72) %this) #24
  resume { ptr, i32 } %.pn.pn.pn.pn.pn.pn.pn.pn.pn.pn.pn.pn.pn
}

declare void @_ZN10arith_utilC1ER11ast_manager(ptr noundef nonnull align 8 dereferenceable(16), ptr noundef nonnull align 8 dereferenceable(976)) unnamed_addr #0

declare void @_ZN7bv_utilC1ER11ast_manager(ptr noundef nonnull align 8 dereferenceable(24), ptr noundef nonnull align 8 dereferenceable(976)) unnamed_addr #0

; Function Attrs: mustprogress uwtable
define linkonce_odr hidden void @_ZN3opt7context12scoped_stateC2ER11ast_manager(ptr noundef nonnull align 8 dereferenceable(152) %this, ptr noundef nonnull align 8 dereferenceable(976) %m) unnamed_addr #3 comdat align 2 personality ptr @__gxx_personality_v0 {
entry:
  store ptr %m, ptr %this, align 8
  %m_arith = getelementptr inbounds %"class.opt::context::scoped_state", ptr %this, i64 0, i32 1
  tail call void @_ZN10arith_utilC1ER11ast_manager(ptr noundef nonnull align 8 dereferenceable(16) %m_arith, ptr noundef nonnull align 8 dereferenceable(976) %m)
  %m_bv = getelementptr inbounds %"class.opt::context::scoped_state", ptr %this, i64 0, i32 2
  tail call void @_ZN7bv_utilC1ER11ast_manager(ptr noundef nonnull align 8 dereferenceable(24) %m_bv, ptr noundef nonnull align 8 dereferenceable(976) %m)
  %m_hard_lim = getelementptr inbounds %"class.opt::context::scoped_state", ptr %this, i64 0, i32 3
  tail call void @llvm.memset.p0.i64(ptr noundef nonnull align 8 dereferenceable(40) %m_hard_lim, i8 0, i64 40, i1 false)
  %call.i.i.i.i.i7 = invoke noalias noundef ptr @_ZN6memory8allocateEm(i64 noundef 192)
          to label %invoke.cont15 unwind label %lpad10

invoke.cont15:                                    ; preds = %entry
  %m_indices = getelementptr inbounds %"class.opt::context::scoped_state", ptr %this, i64 0, i32 8
  tail call void @llvm.memset.p0.i64(ptr noundef nonnull align 8 dereferenceable(192) %call.i.i.i.i.i7, i8 0, i64 192, i1 false)
  store ptr %call.i.i.i.i.i7, ptr %m_indices, align 8
  %m_capacity.i.i.i = getelementptr inbounds %"class.opt::context::scoped_state", ptr %this, i64 0, i32 8, i32 0, i32 0, i32 1
  store i32 8, ptr %m_capacity.i.i.i, align 8
  %m_size.i.i.i = getelementptr inbounds %"class.opt::context::scoped_state", ptr %this, i64 0, i32 8, i32 0, i32 0, i32 2
  store i32 0, ptr %m_size.i.i.i, align 4
  %m_num_deleted.i.i.i = getelementptr inbounds %"class.opt::context::scoped_state", ptr %this, i64 0, i32 8, i32 0, i32 0, i32 3
  store i32 0, ptr %m_num_deleted.i.i.i, align 8
  %m_hard = getelementptr inbounds %"class.opt::context::scoped_state", ptr %this, i64 0, i32 9
  %0 = ptrtoint ptr %m to i64
  store i64 %0, ptr %m_hard, align 8
  %m_nodes.i.i = getelementptr inbounds %"class.opt::context::scoped_state", ptr %this, i64 0, i32 9, i32 0, i32 1
  store ptr null, ptr %m_nodes.i.i, align 8
  %m_asms = getelementptr inbounds %"class.opt::context::scoped_state", ptr %this, i64 0, i32 10
  store i64 %0, ptr %m_asms, align 8
  %m_nodes.i.i8 = getelementptr inbounds %"class.opt::context::scoped_state", ptr %this, i64 0, i32 10, i32 0, i32 1
  tail call void @llvm.memset.p0.i64(ptr noundef nonnull align 8 dereferenceable(16) %m_nodes.i.i8, i8 0, i64 16, i1 false)
  ret void

lpad10:                                           ; preds = %entry
  %1 = landingpad { ptr, i32 }
          cleanup
  %m_objectives_term_trail_lim = getelementptr inbounds %"class.opt::context::scoped_state", ptr %this, i64 0, i32 7
  %m_objectives_term_trail = getelementptr inbounds %"class.opt::context::scoped_state", ptr %this, i64 0, i32 6
  %m_objectives_lim = getelementptr inbounds %"class.opt::context::scoped_state", ptr %this, i64 0, i32 5
  %m_asms_lim = getelementptr inbounds %"class.opt::context::scoped_state", ptr %this, i64 0, i32 4
  tail call void @_ZN7svectorIjjED2Ev(ptr noundef nonnull align 8 dereferenceable(8) %m_objectives_term_trail_lim) #24
  tail call void @_ZN7svectorIjjED2Ev(ptr noundef nonnull align 8 dereferenceable(8) %m_objectives_term_trail) #24
  tail call void @_ZN7svectorIjjED2Ev(ptr noundef nonnull align 8 dereferenceable(8) %m_objectives_lim) #24
  tail call void @_ZN7svectorIjjED2Ev(ptr noundef nonnull align 8 dereferenceable(8) %m_asms_lim) #24
  tail call void @_ZN7svectorIjjED2Ev(ptr noundef nonnull align 8 dereferenceable(8) %m_hard_lim) #24
  resume { ptr, i32 } %1
}

declare noalias noundef ptr @_ZN6memory8allocateEm(i64 noundef) local_unnamed_addr #0

; Function Attrs: mustprogress uwtable
define linkonce_odr hidden void @_ZN23generic_model_converterC2ER11ast_managerPKc(ptr noundef nonnull align 8 dereferenceable(80) %this, ptr noundef nonnull align 8 dereferenceable(976) %m, ptr noundef %orig) unnamed_addr #3 comdat align 2 personality ptr @__gxx_personality_v0 {
entry:
  %ref.tmp = alloca %"class.std::allocator", align 1
  %m_ref_count.i.i = getelementptr inbounds %class.converter, ptr %this, i64 0, i32 1
  store i32 0, ptr %m_ref_count.i.i, align 8
  %m_env.i = getelementptr inbounds %class.model_converter, ptr %this, i64 0, i32 2
  store ptr null, ptr %m_env.i, align 8
  %m_completion.i = getelementptr inbounds %class.model_converter, ptr %this, i64 0, i32 3
  store i8 1, ptr %m_completion.i, align 8
  store ptr getelementptr inbounds ({ [12 x ptr] }, ptr @_ZTV23generic_model_converter, i64 0, inrange i32 0, i64 2), ptr %this, align 8
  %m2 = getelementptr inbounds %class.generic_model_converter, ptr %this, i64 0, i32 1
  store ptr %m, ptr %m2, align 8
  %m_orig = getelementptr inbounds %class.generic_model_converter, ptr %this, i64 0, i32 2
  call void @_ZNSaIcEC1Ev(ptr noundef nonnull align 1 dereferenceable(1) %ref.tmp) #24
  %call.i1 = invoke noundef ptr @_ZNSt7__cxx1112basic_stringIcSt11char_traitsIcESaIcEE13_M_local_dataEv(ptr noundef nonnull align 8 dereferenceable(32) %m_orig)
          to label %call.i.noexc unwind label %lpad

call.i.noexc:                                     ; preds = %entry
  invoke void @_ZNSt7__cxx1112basic_stringIcSt11char_traitsIcESaIcEE12_Alloc_hiderC1EPcRKS3_(ptr noundef nonnull align 8 dereferenceable(8) %m_orig, ptr noundef %call.i1, ptr noundef nonnull align 1 dereferenceable(1) %ref.tmp)
          to label %.noexc unwind label %lpad

.noexc:                                           ; preds = %call.i.noexc
  %cmp.i = icmp eq ptr %orig, null
  br i1 %cmp.i, label %if.then.i, label %if.end.i

if.then.i:                                        ; preds = %.noexc
  invoke void @_ZSt19__throw_logic_errorPKc(ptr noundef nonnull @.str.147) #25
          to label %invoke.cont.i unwind label %lpad.i

invoke.cont.i:                                    ; preds = %if.then.i
  unreachable

lpad.i:                                           ; preds = %if.end.i, %if.then.i
  %0 = landingpad { ptr, i32 }
          cleanup
  call void @_ZNSaIcED2Ev(ptr noundef nonnull align 1 dereferenceable(1) %m_orig) #24
  br label %lpad.body

if.end.i:                                         ; preds = %.noexc
  %call.i.i = call noundef i64 @strlen(ptr noundef nonnull dereferenceable(1) %orig) #24
  %add.ptr.i = getelementptr inbounds i8, ptr %orig, i64 %call.i.i
  invoke void @_ZNSt7__cxx1112basic_stringIcSt11char_traitsIcESaIcEE12_M_constructIPKcEEvT_S8_St20forward_iterator_tag(ptr noundef nonnull align 8 dereferenceable(32) %m_orig, ptr noundef nonnull %orig, ptr noundef nonnull %add.ptr.i)
          to label %invoke.cont unwind label %lpad.i

invoke.cont:                                      ; preds = %if.end.i
  call void @_ZNSaIcED1Ev(ptr noundef nonnull align 1 dereferenceable(1) %ref.tmp) #24
  %m_entries = getelementptr inbounds %class.generic_model_converter, ptr %this, i64 0, i32 3
  store ptr null, ptr %m_entries, align 8
  ret void

lpad:                                             ; preds = %call.i.noexc, %entry
  %1 = landingpad { ptr, i32 }
          cleanup
  br label %lpad.body

lpad.body:                                        ; preds = %lpad.i, %lpad
  %eh.lpad-body = phi { ptr, i32 } [ %1, %lpad ], [ %0, %lpad.i ]
  call void @_ZNSaIcED1Ev(ptr noundef nonnull align 1 dereferenceable(1) %ref.tmp) #24
  resume { ptr, i32 } %eh.lpad-body
}

; Function Attrs: mustprogress nocallback nofree nounwind willreturn memory(argmem: write)
declare void @llvm.memset.p0.i64(ptr nocapture writeonly, i8, i64, i1 immarg) #6

declare void @_ZN10params_ref8set_boolEPKcb(ptr noundef nonnull align 8 dereferenceable(8), ptr noundef, i1 noundef zeroext) local_unnamed_addr #0

; Function Attrs: nounwind
declare void @_ZN10params_refD1Ev(ptr noundef nonnull align 8 dereferenceable(8)) unnamed_addr #1

; Function Attrs: mustprogress nounwind uwtable
define linkonce_odr hidden void @_ZN7svectorI6symboljED2Ev(ptr noundef nonnull align 8 dereferenceable(8) %this) unnamed_addr #4 comdat align 2 personality ptr @__gxx_personality_v0 {
entry:
  %0 = load ptr, ptr %this, align 8
  %tobool.not.i.i = icmp eq ptr %0, null
  br i1 %tobool.not.i.i, label %_ZN6vectorI6symbolLb0EjED2Ev.exit, label %if.then.i.i

if.then.i.i:                                      ; preds = %entry
  %add.ptr.i.i.i = getelementptr inbounds i32, ptr %0, i64 -2
  invoke void @_ZN6memory10deallocateEPv(ptr noundef nonnull %add.ptr.i.i.i)
          to label %_ZN6vectorI6symbolLb0EjED2Ev.exit unwind label %terminate.lpad.i

terminate.lpad.i:                                 ; preds = %if.then.i.i
  %1 = landingpad { ptr, i32 }
          catch ptr null
  %2 = extractvalue { ptr, i32 } %1, 0
  tail call void @__clang_call_terminate(ptr %2) #23
  unreachable

_ZN6vectorI6symbolLb0EjED2Ev.exit:                ; preds = %entry, %if.then.i.i
  ret void
}

; Function Attrs: mustprogress nounwind uwtable
define linkonce_odr hidden void @_ZN3refI6tacticED2Ev(ptr noundef nonnull align 8 dereferenceable(8) %this) unnamed_addr #4 comdat align 2 personality ptr @__gxx_personality_v0 {
entry:
  %0 = load ptr, ptr %this, align 8
  %tobool.not.i = icmp eq ptr %0, null
  br i1 %tobool.not.i, label %invoke.cont, label %if.then.i

if.then.i:                                        ; preds = %entry
  %m_ref_count.i.i = getelementptr inbounds %class.tactic, ptr %0, i64 0, i32 1
  %1 = load i32, ptr %m_ref_count.i.i, align 8
  %dec.i.i = add i32 %1, -1
  store i32 %dec.i.i, ptr %m_ref_count.i.i, align 8
  %cmp.i.i = icmp eq i32 %dec.i.i, 0
  br i1 %cmp.i.i, label %if.then.i.i, label %invoke.cont

if.then.i.i:                                      ; preds = %if.then.i
  %vtable.i.i.i = load ptr, ptr %0, align 8
  %2 = load ptr, ptr %vtable.i.i.i, align 8
  tail call void %2(ptr noundef nonnull align 8 dereferenceable(12) %0) #24
  invoke void @_ZN6memory10deallocateEPv(ptr noundef nonnull %0)
          to label %invoke.cont unwind label %terminate.lpad

invoke.cont:                                      ; preds = %if.then.i, %entry, %if.then.i.i
  ret void

terminate.lpad:                                   ; preds = %if.then.i.i
  %3 = landingpad { ptr, i32 }
          catch ptr null
  %4 = extractvalue { ptr, i32 } %3, 0
  tail call void @__clang_call_terminate(ptr %4) #23
  unreachable
}

; Function Attrs: mustprogress nounwind uwtable
define linkonce_odr hidden void @_ZN10ref_vectorI4expr11ast_managerED2Ev(ptr noundef nonnull align 8 dereferenceable(16) %this) unnamed_addr #4 comdat align 2 personality ptr @__gxx_personality_v0 {
entry:
  %m_nodes.i = getelementptr inbounds %class.ref_vector_core, ptr %this, i64 0, i32 1
  %0 = load ptr, ptr %m_nodes.i, align 8
  %cmp.i.i = icmp eq ptr %0, null
  br i1 %cmp.i.i, label %_ZN15ref_vector_coreI4expr19ref_manager_wrapperIS0_11ast_managerEED2Ev.exit, label %_ZNK6vectorIP4exprLb0EjE4sizeEv.exit.i

_ZNK6vectorIP4exprLb0EjE4sizeEv.exit.i:           ; preds = %entry
  %arrayidx.i.i = getelementptr inbounds i32, ptr %0, i64 -1
  %1 = load i32, ptr %arrayidx.i.i, align 4
  %2 = zext i32 %1 to i64
  %add.ptr.i = getelementptr inbounds ptr, ptr %0, i64 %2
  %cmp3.i.not.i = icmp eq i32 %1, 0
  br i1 %cmp3.i.not.i, label %if.then.i.i.i.i, label %for.body.i.i

for.body.i.i:                                     ; preds = %_ZNK6vectorIP4exprLb0EjE4sizeEv.exit.i, %_ZN15ref_vector_coreI4expr19ref_manager_wrapperIS0_11ast_managerEE7dec_refEPS0_.exit.i.i
  %it.04.i.i = phi ptr [ %incdec.ptr.i.i, %_ZN15ref_vector_coreI4expr19ref_manager_wrapperIS0_11ast_managerEE7dec_refEPS0_.exit.i.i ], [ %0, %_ZNK6vectorIP4exprLb0EjE4sizeEv.exit.i ]
  %3 = load ptr, ptr %it.04.i.i, align 8
  %4 = load ptr, ptr %this, align 8
  %tobool.not.i.i.i.i.i = icmp eq ptr %3, null
  br i1 %tobool.not.i.i.i.i.i, label %_ZN15ref_vector_coreI4expr19ref_manager_wrapperIS0_11ast_managerEE7dec_refEPS0_.exit.i.i, label %if.then.i.i.i.i.i

if.then.i.i.i.i.i:                                ; preds = %for.body.i.i
  %m_ref_count.i.i.i.i.i.i = getelementptr inbounds %class.ast, ptr %3, i64 0, i32 2
  %5 = load i32, ptr %m_ref_count.i.i.i.i.i.i, align 4
  %dec.i.i.i.i.i.i = add i32 %5, -1
  store i32 %dec.i.i.i.i.i.i, ptr %m_ref_count.i.i.i.i.i.i, align 4
  %cmp.i.i.i.i.i = icmp eq i32 %dec.i.i.i.i.i.i, 0
  br i1 %cmp.i.i.i.i.i, label %if.then2.i.i.i.i.i, label %_ZN15ref_vector_coreI4expr19ref_manager_wrapperIS0_11ast_managerEE7dec_refEPS0_.exit.i.i

if.then2.i.i.i.i.i:                               ; preds = %if.then.i.i.i.i.i
  invoke void @_ZN11ast_manager11delete_nodeEP3ast(ptr noundef nonnull align 8 dereferenceable(976) %4, ptr noundef nonnull %3)
          to label %_ZN15ref_vector_coreI4expr19ref_manager_wrapperIS0_11ast_managerEE7dec_refEPS0_.exit.i.i unwind label %terminate.lpad.i

_ZN15ref_vector_coreI4expr19ref_manager_wrapperIS0_11ast_managerEE7dec_refEPS0_.exit.i.i: ; preds = %if.then2.i.i.i.i.i, %if.then.i.i.i.i.i, %for.body.i.i
  %incdec.ptr.i.i = getelementptr inbounds ptr, ptr %it.04.i.i, i64 1
  %cmp.i1.i = icmp ult ptr %incdec.ptr.i.i, %add.ptr.i
  br i1 %cmp.i1.i, label %for.body.i.i, label %invoke.cont8.i, !llvm.loop !4

invoke.cont8.i:                                   ; preds = %_ZN15ref_vector_coreI4expr19ref_manager_wrapperIS0_11ast_managerEE7dec_refEPS0_.exit.i.i
  %.pre.i = load ptr, ptr %m_nodes.i, align 8
  %tobool.not.i.i.i.i = icmp eq ptr %.pre.i, null
  br i1 %tobool.not.i.i.i.i, label %_ZN15ref_vector_coreI4expr19ref_manager_wrapperIS0_11ast_managerEED2Ev.exit, label %if.then.i.i.i.i

if.then.i.i.i.i:                                  ; preds = %invoke.cont8.i, %_ZNK6vectorIP4exprLb0EjE4sizeEv.exit.i
  %6 = phi ptr [ %.pre.i, %invoke.cont8.i ], [ %0, %_ZNK6vectorIP4exprLb0EjE4sizeEv.exit.i ]
  %add.ptr.i.i.i.i.i = getelementptr inbounds i32, ptr %6, i64 -2
  invoke void @_ZN6memory10deallocateEPv(ptr noundef nonnull %add.ptr.i.i.i.i.i)
          to label %_ZN15ref_vector_coreI4expr19ref_manager_wrapperIS0_11ast_managerEED2Ev.exit unwind label %terminate.lpad.i.i.i

terminate.lpad.i.i.i:                             ; preds = %if.then.i.i.i.i
  %7 = landingpad { ptr, i32 }
          catch ptr null
  %8 = extractvalue { ptr, i32 } %7, 0
  tail call void @__clang_call_terminate(ptr %8) #23
  unreachable

terminate.lpad.i:                                 ; preds = %if.then2.i.i.i.i.i
  %9 = landingpad { ptr, i32 }
          catch ptr null
  %10 = extractvalue { ptr, i32 } %9, 0
  tail call void @__clang_call_terminate(ptr %10) #23
  unreachable

_ZN15ref_vector_coreI4expr19ref_manager_wrapperIS0_11ast_managerEED2Ev.exit: ; preds = %entry, %invoke.cont8.i, %if.then.i.i.i.i
  ret void
}

; Function Attrs: mustprogress nounwind uwtable
define linkonce_odr hidden void @_ZN10ref_vectorI9func_decl11ast_managerED2Ev(ptr noundef nonnull align 8 dereferenceable(16) %this) unnamed_addr #4 comdat align 2 personality ptr @__gxx_personality_v0 {
entry:
  %m_nodes.i = getelementptr inbounds %class.ref_vector_core.63, ptr %this, i64 0, i32 1
  %0 = load ptr, ptr %m_nodes.i, align 8
  %cmp.i.i = icmp eq ptr %0, null
  br i1 %cmp.i.i, label %_ZN15ref_vector_coreI9func_decl19ref_manager_wrapperIS0_11ast_managerEED2Ev.exit, label %_ZNK6vectorIP9func_declLb0EjE4sizeEv.exit.i

_ZNK6vectorIP9func_declLb0EjE4sizeEv.exit.i:      ; preds = %entry
  %arrayidx.i.i = getelementptr inbounds i32, ptr %0, i64 -1
  %1 = load i32, ptr %arrayidx.i.i, align 4
  %2 = zext i32 %1 to i64
  %add.ptr.i = getelementptr inbounds ptr, ptr %0, i64 %2
  %cmp3.i.not.i = icmp eq i32 %1, 0
  br i1 %cmp3.i.not.i, label %if.then.i.i.i.i, label %for.body.i.i

for.body.i.i:                                     ; preds = %_ZNK6vectorIP9func_declLb0EjE4sizeEv.exit.i, %_ZN15ref_vector_coreI9func_decl19ref_manager_wrapperIS0_11ast_managerEE7dec_refEPS0_.exit.i.i
  %it.04.i.i = phi ptr [ %incdec.ptr.i.i, %_ZN15ref_vector_coreI9func_decl19ref_manager_wrapperIS0_11ast_managerEE7dec_refEPS0_.exit.i.i ], [ %0, %_ZNK6vectorIP9func_declLb0EjE4sizeEv.exit.i ]
  %3 = load ptr, ptr %it.04.i.i, align 8
  %4 = load ptr, ptr %this, align 8
  %tobool.not.i.i.i.i.i = icmp eq ptr %3, null
  br i1 %tobool.not.i.i.i.i.i, label %_ZN15ref_vector_coreI9func_decl19ref_manager_wrapperIS0_11ast_managerEE7dec_refEPS0_.exit.i.i, label %if.then.i.i.i.i.i

if.then.i.i.i.i.i:                                ; preds = %for.body.i.i
  %m_ref_count.i.i.i.i.i.i = getelementptr inbounds %class.ast, ptr %3, i64 0, i32 2
  %5 = load i32, ptr %m_ref_count.i.i.i.i.i.i, align 4
  %dec.i.i.i.i.i.i = add i32 %5, -1
  store i32 %dec.i.i.i.i.i.i, ptr %m_ref_count.i.i.i.i.i.i, align 4
  %cmp.i.i.i.i.i = icmp eq i32 %dec.i.i.i.i.i.i, 0
  br i1 %cmp.i.i.i.i.i, label %if.then2.i.i.i.i.i, label %_ZN15ref_vector_coreI9func_decl19ref_manager_wrapperIS0_11ast_managerEE7dec_refEPS0_.exit.i.i

if.then2.i.i.i.i.i:                               ; preds = %if.then.i.i.i.i.i
  invoke void @_ZN11ast_manager11delete_nodeEP3ast(ptr noundef nonnull align 8 dereferenceable(976) %4, ptr noundef nonnull %3)
          to label %_ZN15ref_vector_coreI9func_decl19ref_manager_wrapperIS0_11ast_managerEE7dec_refEPS0_.exit.i.i unwind label %terminate.lpad.i

_ZN15ref_vector_coreI9func_decl19ref_manager_wrapperIS0_11ast_managerEE7dec_refEPS0_.exit.i.i: ; preds = %if.then2.i.i.i.i.i, %if.then.i.i.i.i.i, %for.body.i.i
  %incdec.ptr.i.i = getelementptr inbounds ptr, ptr %it.04.i.i, i64 1
  %cmp.i1.i = icmp ult ptr %incdec.ptr.i.i, %add.ptr.i
  br i1 %cmp.i1.i, label %for.body.i.i, label %invoke.cont8.i, !llvm.loop !14

invoke.cont8.i:                                   ; preds = %_ZN15ref_vector_coreI9func_decl19ref_manager_wrapperIS0_11ast_managerEE7dec_refEPS0_.exit.i.i
  %.pre.i = load ptr, ptr %m_nodes.i, align 8
  %tobool.not.i.i.i.i = icmp eq ptr %.pre.i, null
  br i1 %tobool.not.i.i.i.i, label %_ZN15ref_vector_coreI9func_decl19ref_manager_wrapperIS0_11ast_managerEED2Ev.exit, label %if.then.i.i.i.i

if.then.i.i.i.i:                                  ; preds = %invoke.cont8.i, %_ZNK6vectorIP9func_declLb0EjE4sizeEv.exit.i
  %6 = phi ptr [ %.pre.i, %invoke.cont8.i ], [ %0, %_ZNK6vectorIP9func_declLb0EjE4sizeEv.exit.i ]
  %add.ptr.i.i.i.i.i = getelementptr inbounds i32, ptr %6, i64 -2
  invoke void @_ZN6memory10deallocateEPv(ptr noundef nonnull %add.ptr.i.i.i.i.i)
          to label %_ZN15ref_vector_coreI9func_decl19ref_manager_wrapperIS0_11ast_managerEED2Ev.exit unwind label %terminate.lpad.i.i.i

terminate.lpad.i.i.i:                             ; preds = %if.then.i.i.i.i
  %7 = landingpad { ptr, i32 }
          catch ptr null
  %8 = extractvalue { ptr, i32 } %7, 0
  tail call void @__clang_call_terminate(ptr %8) #23
  unreachable

terminate.lpad.i:                                 ; preds = %if.then2.i.i.i.i.i
  %9 = landingpad { ptr, i32 }
          catch ptr null
  %10 = extractvalue { ptr, i32 } %9, 0
  tail call void @__clang_call_terminate(ptr %10) #23
  unreachable

_ZN15ref_vector_coreI9func_decl19ref_manager_wrapperIS0_11ast_managerEED2Ev.exit: ; preds = %entry, %invoke.cont8.i, %if.then.i.i.i.i
  ret void
}

; Function Attrs: mustprogress nounwind uwtable
define linkonce_odr hidden void @_ZN7obj_mapI9func_declP4exprED2Ev(ptr noundef nonnull align 8 dereferenceable(24) %this) unnamed_addr #4 comdat align 2 personality ptr @__gxx_personality_v0 {
entry:
  %0 = load ptr, ptr %this, align 8
  %cmp.i.i.i = icmp eq ptr %0, null
  br i1 %cmp.i.i.i, label %_ZN14core_hashtableIN7obj_mapI9func_declP4exprE13obj_map_entryE8obj_hashINS4_8key_dataEE10default_eqIS7_EED2Ev.exit, label %for.cond.preheader.i.i.i

for.cond.preheader.i.i.i:                         ; preds = %entry
  invoke void @_ZN6memory10deallocateEPv(ptr noundef nonnull %0)
          to label %_ZN14core_hashtableIN7obj_mapI9func_declP4exprE13obj_map_entryE8obj_hashINS4_8key_dataEE10default_eqIS7_EED2Ev.exit unwind label %terminate.lpad.i

terminate.lpad.i:                                 ; preds = %for.cond.preheader.i.i.i
  %1 = landingpad { ptr, i32 }
          catch ptr null
  %2 = extractvalue { ptr, i32 } %1, 0
  tail call void @__clang_call_terminate(ptr %2) #23
  unreachable

_ZN14core_hashtableIN7obj_mapI9func_declP4exprE13obj_map_entryE8obj_hashINS4_8key_dataEE10default_eqIS7_EED2Ev.exit: ; preds = %entry, %for.cond.preheader.i.i.i
  store ptr null, ptr %this, align 8
  ret void
}

; Function Attrs: mustprogress nounwind uwtable
define linkonce_odr hidden void @_ZN7obj_mapI9func_decljED2Ev(ptr noundef nonnull align 8 dereferenceable(24) %this) unnamed_addr #4 comdat align 2 personality ptr @__gxx_personality_v0 {
entry:
  %0 = load ptr, ptr %this, align 8
  %cmp.i.i.i = icmp eq ptr %0, null
  br i1 %cmp.i.i.i, label %_ZN14core_hashtableIN7obj_mapI9func_decljE13obj_map_entryE8obj_hashINS2_8key_dataEE10default_eqIS5_EED2Ev.exit, label %for.cond.preheader.i.i.i

for.cond.preheader.i.i.i:                         ; preds = %entry
  invoke void @_ZN6memory10deallocateEPv(ptr noundef nonnull %0)
          to label %_ZN14core_hashtableIN7obj_mapI9func_decljE13obj_map_entryE8obj_hashINS2_8key_dataEE10default_eqIS5_EED2Ev.exit unwind label %terminate.lpad.i

terminate.lpad.i:                                 ; preds = %for.cond.preheader.i.i.i
  %1 = landingpad { ptr, i32 }
          catch ptr null
  %2 = extractvalue { ptr, i32 } %1, 0
  tail call void @__clang_call_terminate(ptr %2) #23
  unreachable

_ZN14core_hashtableIN7obj_mapI9func_decljE13obj_map_entryE8obj_hashINS2_8key_dataEE10default_eqIS5_EED2Ev.exit: ; preds = %entry, %for.cond.preheader.i.i.i
  store ptr null, ptr %this, align 8
  ret void
}

; Function Attrs: mustprogress nounwind uwtable
define linkonce_odr hidden void @_ZN15ref_vector_coreI5model21ref_unmanaged_wrapperIS0_EED2Ev(ptr noundef nonnull align 8 dereferenceable(8) %this) unnamed_addr #4 comdat align 2 personality ptr @__gxx_personality_v0 {
entry:
  %0 = load ptr, ptr %this, align 8
  %cmp.i = icmp eq ptr %0, null
  br i1 %cmp.i, label %_ZN10ptr_vectorI5modelED2Ev.exit, label %_ZNK6vectorIP5modelLb0EjE4sizeEv.exit

_ZNK6vectorIP5modelLb0EjE4sizeEv.exit:            ; preds = %entry
  %arrayidx.i = getelementptr inbounds i32, ptr %0, i64 -1
  %1 = load i32, ptr %arrayidx.i, align 4
  %2 = zext i32 %1 to i64
  %add.ptr = getelementptr inbounds ptr, ptr %0, i64 %2
  %cmp3.i.not = icmp eq i32 %1, 0
  br i1 %cmp3.i.not, label %if.then.i.i.i3, label %for.body.i

for.body.i:                                       ; preds = %_ZNK6vectorIP5modelLb0EjE4sizeEv.exit, %_ZN15ref_vector_coreI5model21ref_unmanaged_wrapperIS0_EE7dec_refEPS0_.exit.i
  %it.04.i = phi ptr [ %incdec.ptr.i, %_ZN15ref_vector_coreI5model21ref_unmanaged_wrapperIS0_EE7dec_refEPS0_.exit.i ], [ %0, %_ZNK6vectorIP5modelLb0EjE4sizeEv.exit ]
  %3 = load ptr, ptr %it.04.i, align 8
  %tobool.not.i.i.i = icmp eq ptr %3, null
  br i1 %tobool.not.i.i.i, label %_ZN15ref_vector_coreI5model21ref_unmanaged_wrapperIS0_EE7dec_refEPS0_.exit.i, label %if.then.i.i.i

if.then.i.i.i:                                    ; preds = %for.body.i
  %m_ref_count.i.i.i.i = getelementptr inbounds %class.model_core, ptr %3, i64 0, i32 2
  %4 = load i32, ptr %m_ref_count.i.i.i.i, align 8
  %dec.i.i.i.i = add i32 %4, -1
  store i32 %dec.i.i.i.i, ptr %m_ref_count.i.i.i.i, align 8
  %cmp.i.i.i.i = icmp eq i32 %dec.i.i.i.i, 0
  br i1 %cmp.i.i.i.i, label %if.then.i.i.i.i, label %_ZN15ref_vector_coreI5model21ref_unmanaged_wrapperIS0_EE7dec_refEPS0_.exit.i

if.then.i.i.i.i:                                  ; preds = %if.then.i.i.i
  %vtable.i.i.i.i.i = load ptr, ptr %3, align 8
  %5 = load ptr, ptr %vtable.i.i.i.i.i, align 8
  tail call void %5(ptr noundef nonnull align 8 dereferenceable(96) %3) #24
  invoke void @_ZN6memory10deallocateEPv(ptr noundef nonnull %3)
          to label %_ZN15ref_vector_coreI5model21ref_unmanaged_wrapperIS0_EE7dec_refEPS0_.exit.i unwind label %terminate.lpad

_ZN15ref_vector_coreI5model21ref_unmanaged_wrapperIS0_EE7dec_refEPS0_.exit.i: ; preds = %if.then.i.i.i.i, %if.then.i.i.i, %for.body.i
  %incdec.ptr.i = getelementptr inbounds ptr, ptr %it.04.i, i64 1
  %cmp.i1 = icmp ult ptr %incdec.ptr.i, %add.ptr
