; ModuleID = 'bench/z3/original/parallel_tactical.cpp.ll'
source_filename = "bench/z3/original/parallel_tactical.cpp.ll"
target datalayout = "e-m:e-p270:32:32-p271:32:32-p272:64:64-i64:64-i128:128-f80:128-n8:16:32:64-S128"
target triple = "x86_64-unknown-linux-gnu"

%"class.std::ios_base::Init" = type { i8 }
%class.tactic = type <{ %"class.user_propagator::core", i32, [4 x i8] }>
%"class.user_propagator::core" = type { ptr }
%class.parallel_tactic = type { %class.tactic.base, %class.ref, ptr, %class.scoped_ptr, %class.params_ref, %class.ref_vector_core, %class.scoped_ptr.0, i32, %class.statistics, %"class.parallel_tactic::task_queue", %"class.std::mutex", double, i32, i32, i32, %"struct.std::atomic", i8, i32, i32, i32, %"class.std::__cxx11::basic_string", %"class.std::__cxx11::basic_string" }
%class.tactic.base = type <{ %"class.user_propagator::core", i32 }>
%class.ref = type { ptr }
%class.scoped_ptr = type { ptr }
%class.params_ref = type { ptr }
%class.ref_vector_core = type { %class.ptr_vector }
%class.ptr_vector = type { %class.vector }
%class.vector = type { ptr }
%class.scoped_ptr.0 = type { ptr }
%class.statistics = type { %class.svector, %class.svector.2 }
%class.svector = type { %class.vector.1 }
%class.vector.1 = type { ptr }
%class.svector.2 = type { %class.vector.3 }
%class.vector.3 = type { ptr }
%"class.parallel_tactic::task_queue" = type <{ %"class.std::mutex", %"class.std::condition_variable", %class.ptr_vector.4, %class.ptr_vector.4, i32, %"struct.std::atomic", [3 x i8] }>
%"class.std::condition_variable" = type { %"class.std::__condvar" }
%"class.std::__condvar" = type { %union.pthread_cond_t }
%union.pthread_cond_t = type { %struct.__pthread_cond_s }
%struct.__pthread_cond_s = type { %union.__atomic_wide_counter, %union.__atomic_wide_counter, [2 x i32], [2 x i32], i32, i32, [2 x i32] }
%union.__atomic_wide_counter = type { i64 }
%class.ptr_vector.4 = type { %class.vector.5 }
%class.vector.5 = type { ptr }
%"class.std::mutex" = type { %"class.std::__mutex_base" }
%"class.std::__mutex_base" = type { %union.pthread_mutex_t }
%union.pthread_mutex_t = type { %struct.__pthread_mutex_s }
%struct.__pthread_mutex_s = type { i32, i32, i32, i32, i32, i16, i16, %struct.__pthread_internal_list }
%struct.__pthread_internal_list = type { ptr, ptr }
%"struct.std::atomic" = type { %"struct.std::__atomic_base" }
%"struct.std::__atomic_base" = type { i8 }
%"class.std::__cxx11::basic_string" = type { %"struct.std::__cxx11::basic_string<char>::_Alloc_hider", i64, %union.anon }
%"struct.std::__cxx11::basic_string<char>::_Alloc_hider" = type { ptr }
%union.anon = type { i64, [8 x i8] }
%class.check_sat_result = type { ptr, ptr, %class.ref_vector, %class.obj_ref, i32, i32, %class.ref.9, double }
%class.ref_vector = type { %class.ref_vector_core.6 }
%class.ref_vector_core.6 = type { %class.ref_manager_wrapper, %class.ptr_vector.7 }
%class.ref_manager_wrapper = type { ptr }
%class.ptr_vector.7 = type { %class.vector.8 }
%class.vector.8 = type { ptr }
%class.obj_ref = type { ptr, ptr }
%class.ref.9 = type { ptr }
%struct.parallel_params = type { ptr, %class.params_ref }
%class.model_core = type { ptr, ptr, i32, [4 x i8], %class.obj_map.42, %class.obj_map.47, %class.ptr_vector.52, %class.ptr_vector.52, %class.ptr_vector.52 }
%class.obj_map.42 = type { %class.core_hashtable.43 }
%class.core_hashtable.43 = type <{ ptr, i32, i32, i32, [4 x i8] }>
%class.obj_map.47 = type { %class.core_hashtable.48 }
%class.core_hashtable.48 = type <{ ptr, i32, i32, i32, [4 x i8] }>
%class.ptr_vector.52 = type { %class.vector.53 }
%class.vector.53 = type { ptr }
%"class.std::allocator" = type { i8 }
%class.default_exception = type { %class.z3_exception, %"class.std::__cxx11::basic_string" }
%class.z3_exception = type { ptr }
%class.obj_map.66 = type { %class.core_hashtable.67 }
%class.core_hashtable.67 = type <{ ptr, i32, i32, i32, [4 x i8] }>
%class.ref.71 = type { ptr }
%class.ref.72 = type { ptr }
%class.ast_translation = type <{ ptr, ptr, %class.svector.74, %class.ptr_vector.76, %class.ptr_vector.76, %class.obj_map.78, i32, i32, i32, i32, i32, [4 x i8] }>
%class.svector.74 = type { %class.vector.75 }
%class.vector.75 = type { ptr }
%class.ptr_vector.76 = type { %class.vector.77 }
%class.vector.77 = type { ptr }
%class.obj_map.78 = type { %class.core_hashtable.79 }
%class.core_hashtable.79 = type <{ ptr, i32, i32, i32, [4 x i8] }>
%class.ast_manager = type { %class.reslimit, %class.small_object_allocator, %class.family_manager, %class.parray_manager, %class.dependency_manager, %class.parray_manager.25, %class.ptr_vector.28, i32, i8, %class.ast_table, %class.obj_map, %class.id_gen, %class.id_gen, ptr, ptr, ptr, ptr, ptr, i32, i8, [3 x i8], %class.u_map, ptr, i8, i8, ptr, %class.symbol, %class.obj_map.36, ptr }
%class.reslimit = type { %"struct.std::atomic.10", i8, i64, i64, %class.svector.12, %class.ptr_vector.14 }
%"struct.std::atomic.10" = type { %"struct.std::__atomic_base.11" }
%"struct.std::__atomic_base.11" = type { i32 }
%class.svector.12 = type { %class.vector.13 }
%class.vector.13 = type { ptr }
%class.ptr_vector.14 = type { %class.vector.15 }
%class.vector.15 = type { ptr }
%class.small_object_allocator = type { [32 x ptr], [32 x ptr], i64 }
%class.family_manager = type { i32, %class.symbol_table, %class.svector.19 }
%class.symbol_table = type { %class.core_hashtable, %class.vector.16, %class.svector.17 }
%class.core_hashtable = type <{ ptr, i32, i32, i32, [4 x i8] }>
%class.vector.16 = type { ptr }
%class.svector.17 = type { %class.vector.18 }
%class.vector.18 = type { ptr }
%class.svector.19 = type { %class.vector.20 }
%class.vector.20 = type { ptr }
%class.parray_manager = type { ptr, ptr, %class.ptr_vector.21, %class.ptr_vector.21 }
%class.ptr_vector.21 = type { %class.vector.22 }
%class.vector.22 = type { ptr }
%class.dependency_manager = type { ptr, ptr, %class.ptr_vector.23 }
%class.ptr_vector.23 = type { %class.vector.24 }
%class.vector.24 = type { ptr }
%class.parray_manager.25 = type { ptr, ptr, %class.ptr_vector.26, %class.ptr_vector.26 }
%class.ptr_vector.26 = type { %class.vector.27 }
%class.vector.27 = type { ptr }
%class.ptr_vector.28 = type { %class.vector.29 }
%class.vector.29 = type { ptr }
%class.ast_table = type { %class.chashtable }
%class.chashtable = type { ptr, i32, i32, i32, i32, i32, i32, i32, ptr, ptr, ptr }
%class.obj_map = type { %class.core_hashtable.30 }
%class.core_hashtable.30 = type <{ ptr, i32, i32, i32, [4 x i8] }>
%class.id_gen = type { i32, %class.svector.32 }
%class.svector.32 = type { %class.vector.33 }
%class.vector.33 = type { ptr }
%class.u_map = type { %class.map }
%class.map = type { %class.table2map }
%class.table2map = type { %class.core_hashtable.34 }
%class.core_hashtable.34 = type <{ ptr, i32, i32, i32, [4 x i8] }>
%class.symbol = type { ptr }
%class.obj_map.36 = type { %class.core_hashtable.37 }
%class.core_hashtable.37 = type <{ ptr, i32, i32, i32, [4 x i8] }>
%"class.parallel_tactic::solver_state" = type <{ %class.scoped_ptr, %class.vector.41, %class.ref_vector, %class.ref_vector, %class.params_ref, %class.ref, i32, [4 x i8], double, i8, [7 x i8] }>
%class.vector.41 = type { ptr }
%class.ast = type { i32, i24, i32, i32 }
%class.goal = type <{ ptr, %class.ref.9, %class.ref.64, %class.ref.65, i32, [4 x i8], %"class.std::__cxx11::basic_string", %"class.parray_manager<ast_manager::expr_array_config>::ref", %"class.parray_manager<ast_manager::expr_array_config>::ref", %"class.parray_manager<ast_manager::expr_dependency_array_config>::ref", i32, [4 x i8] }>
%class.ref.64 = type { ptr }
%class.ref.65 = type { ptr }
%"class.parray_manager<ast_manager::expr_array_config>::ref" = type <{ ptr, i32, [4 x i8] }>
%"class.parray_manager<ast_manager::expr_dependency_array_config>::ref" = type <{ ptr, i32, [4 x i8] }>
%class.converter = type <{ ptr, i32, [4 x i8] }>
%"class.obj_map<expr, expr *>::obj_map_entry" = type { %"struct.obj_map<expr, expr *>::key_data" }
%"struct.obj_map<expr, expr *>::key_data" = type { ptr, ptr }
%"struct.dependency_manager<ast_manager::expr_dependency_config>::join" = type { %"class.dependency_manager<ast_manager::expr_dependency_config>::dependency", [2 x ptr] }
%"class.dependency_manager<ast_manager::expr_dependency_config>::dependency" = type { i32 }
%class.tactic_exception = type { %class.z3_exception, %"class.std::__cxx11::basic_string" }
%class.buffer = type { ptr, i32, i32, [16 x %"union.std::aligned_storage<8, 8>::type"] }
%"union.std::aligned_storage<8, 8>::type" = type { [8 x i8] }
%struct._Guard = type { ptr }
%"class.parallel_tactic::cube_var" = type { %class.ref_vector, %class.ref_vector }
%"class.std::unique_ptr" = type { %"struct.std::__uniq_ptr_data" }
%"struct.std::__uniq_ptr_data" = type { %"class.std::__uniq_ptr_impl" }
%"class.std::__uniq_ptr_impl" = type { %"class.std::tuple" }
%"class.std::tuple" = type { %"struct.std::_Tuple_impl" }
%"struct.std::_Tuple_impl" = type { %"struct.std::_Head_base.89" }
%"struct.std::_Head_base.89" = type { ptr }
%class.vector.85 = type { ptr }
%"class.std::thread" = type { %"class.std::thread::id" }
%"class.std::thread::id" = type { i64 }
%"struct.std::thread::_State_impl" = type { %"struct.std::thread::_State", %"struct.std::thread::_Invoker" }
%"struct.std::thread::_State" = type { ptr }
%"struct.std::thread::_Invoker" = type { %"class.std::tuple.90" }
%"class.std::tuple.90" = type { %"struct.std::_Tuple_impl.91" }
%"struct.std::_Tuple_impl.91" = type { %"struct.std::_Head_base.92" }
%"struct.std::_Head_base.92" = type { %class.anon }
%class.anon = type { ptr }
%"class.std::unique_lock" = type <{ ptr, i8, [7 x i8] }>
%class.obj_hashtable = type { %class.core_hashtable.base.100, [4 x i8] }
%class.core_hashtable.base.100 = type <{ ptr, i32, i32, i32 }>
%class.obj_ref.101 = type { ptr, ptr }
%class.core_hashtable.98 = type <{ ptr, i32, i32, i32, [4 x i8] }>

$_ZN15parallel_tacticC2EP6solverRK10params_ref = comdat any

$_ZN15parallel_tactic4initEv = comdat any

$_ZN15parallel_tactic10task_queueD2Ev = comdat any

$_ZN10statisticsD2Ev = comdat any

$_ZN10scoped_ptrI10ref_vectorI4expr11ast_managerEED2Ev = comdat any

$_ZN15ref_vector_coreI5model21ref_unmanaged_wrapperIS0_EED2Ev = comdat any

$_ZN10scoped_ptrI11ast_managerED2Ev = comdat any

$_ZN3refI6solverED2Ev = comdat any

$_ZN15parallel_tacticD2Ev = comdat any

$_ZN15parallel_tacticD0Ev = comdat any

$_ZN6tactic19user_propagate_initEPvRSt8functionIFvS0_PN15user_propagator8callbackEEERS1_IFvS0_S4_jEERS1_IFS0_S0_R11ast_managerRPNS2_11context_objEEE = comdat any

$_ZN15user_propagator4core29user_propagate_register_fixedERSt8functionIFvPvPNS_8callbackEP4exprS6_EE = comdat any

$_ZN15user_propagator4core29user_propagate_register_finalERSt8functionIFvPvPNS_8callbackEEE = comdat any

$_ZN15user_propagator4core26user_propagate_register_eqERSt8functionIFvPvPNS_8callbackEP4exprS6_EE = comdat any

$_ZN15user_propagator4core29user_propagate_register_diseqERSt8functionIFvPvPNS_8callbackEP4exprS6_EE = comdat any

$_ZN6tactic28user_propagate_register_exprEP4expr = comdat any

$_ZN15user_propagator4core31user_propagate_register_createdERSt8functionIFvPvPNS_8callbackEP4exprEE = comdat any

$_ZN15user_propagator4core30user_propagate_register_decideERSt8functionIFvPvPNS_8callbackEP4exprjbEE = comdat any

$_ZN15user_propagator4core20user_propagate_clearEv = comdat any

$_ZN6tactic18register_on_clauseEPvRSt8functionIFvS0_P4exprjPKjjPKS3_EE = comdat any

$_ZN15parallel_tactic11updt_paramsERK10params_ref = comdat any

$_ZN6tactic20collect_param_descrsER12param_descrs = comdat any

$_ZN15parallel_tacticclERK3refI4goalER11sref_bufferIS1_Lj16EE = comdat any

$_ZNK15parallel_tactic18collect_statisticsER10statistics = comdat any

$_ZN15parallel_tactic16reset_statisticsEv = comdat any

$_ZN15parallel_tactic7cleanupEv = comdat any

$_ZN6tactic5resetEv = comdat any

$_ZN6tactic9set_logicERK6symbol = comdat any

$_ZN6tactic21set_progress_callbackEP17progress_callback = comdat any

$_ZN15parallel_tactic9translateER11ast_manager = comdat any

$_ZNK15parallel_tactic4nameEv = comdat any

$_ZNSt7__cxx1112basic_stringIcSt11char_traitsIcESaIcEEC2IS3_EEPKcRKS3_ = comdat any

$_ZN17default_exceptionD2Ev = comdat any

$_ZNSt7__cxx1112basic_stringIcSt11char_traitsIcESaIcEE12_M_constructIPKcEEvT_S8_St20forward_iterator_tag = comdat any

$_ZZNSt7__cxx1112basic_stringIcSt11char_traitsIcESaIcEE12_M_constructIPKcEEvT_S8_St20forward_iterator_tagEN6_GuardD2Ev = comdat any

$__clang_call_terminate = comdat any

$_Z7deallocI10ref_vectorI4expr11ast_managerEEvPT_ = comdat any

$_ZN10ref_vectorI4expr11ast_managerED2Ev = comdat any

$_ZN15ref_vector_coreI4expr19ref_manager_wrapperIS0_11ast_managerEED2Ev = comdat any

$_ZN10ptr_vectorI4exprED2Ev = comdat any

$_ZN15parallel_tactic10task_queue5resetEv = comdat any

$_ZN15parallel_tactic12solver_stateD2Ev = comdat any

$_ZN6vectorIN15parallel_tactic8cube_varELb1EjED2Ev = comdat any

$_ZN15parallel_tactic8cube_varD2Ev = comdat any

$_ZN15parallel_tactic12solver_stateC2EP11ast_managerP6solverRK10params_ref = comdat any

$_ZN15parallel_tactic10task_queue8add_taskEPNS_12solver_stateE = comdat any

$_ZN15parallel_tactic5solveER3refI5modelE = comdat any

$_ZN15ast_translationC2ER11ast_managerS1_b = comdat any

$_ZN15ast_translationclI4exprEE10ref_vectorIT_11ast_managerERKS5_ = comdat any

$_ZN16tactic_exceptionD2Ev = comdat any

$_ZN3refI5modelED2Ev = comdat any

$_ZN3refI23generic_model_converterED2Ev = comdat any

$_ZN7obj_mapI4exprPS0_ED2Ev = comdat any

$_ZN6vectorIPN15parallel_tactic12solver_stateELb0EjE13expand_vectorEv = comdat any

$_ZN6vectorIP4exprLb0EjE13expand_vectorEv = comdat any

$_ZN8z3_errorD2Ev = comdat any

$_ZN6vectorISt6threadLb1EjED2Ev = comdat any

$_ZN15parallel_tactic12log_branchesE5lbool = comdat any

$_ZN6vectorISt6threadLb1EjE13expand_vectorEv = comdat any

$_ZNSt6thread11_State_implINS_8_InvokerISt5tupleIJZN15parallel_tactic5solveER3refI5modelEEUlvE_EEEEED2Ev = comdat any

$_ZNSt6thread11_State_implINS_8_InvokerISt5tupleIJZN15parallel_tactic5solveER3refI5modelEEUlvE_EEEEED0Ev = comdat any

$_ZNSt6thread11_State_implINS_8_InvokerISt5tupleIJZN15parallel_tactic5solveER3refI5modelEEUlvE_EEEEE6_M_runEv = comdat any

$_ZN15parallel_tactic10run_solverEv = comdat any

$_ZN15parallel_tactic10task_queue8get_taskEv = comdat any

$_ZN15parallel_tactic16cube_and_conquerERNS_12solver_stateE = comdat any

$_ZN15parallel_tactic10task_queue9task_doneEPNS_12solver_stateE = comdat any

$_ZN15parallel_tactic10task_queue8shutdownEv = comdat any

$_ZN15parallel_tactic7displayERSo = comdat any

$_ZN15parallel_tactic10task_queue12try_get_taskEv = comdat any

$_ZN15parallel_tactic12solver_state11split_cubesEj = comdat any

$_ZN15parallel_tactic12solver_state5cloneEv = comdat any

$_ZN15parallel_tactic12solver_state11assert_cubeERK10ref_vectorI4expr11ast_managerE = comdat any

$_ZN15parallel_tactic12solver_state8simplifyEv = comdat any

$_ZN15parallel_tactic10report_satERNS_12solver_stateEP6solver = comdat any

$_ZN15parallel_tactic12report_unsatERNS_12solver_stateE = comdat any

$_ZN15parallel_tactic12solver_state6giveupEv = comdat any

$_ZN15parallel_tactic12report_undefERNS_12solver_stateERKNSt7__cxx1112basic_stringIcSt11char_traitsIcESaIcEEE = comdat any

$_ZN15parallel_tactic12solver_state18set_conquer_paramsER6solver = comdat any

$_ZN15parallel_tactic9backtrackER6solverR10ref_vectorI4expr11ast_managerEb = comdat any

$_ZN15parallel_tactic8cube_varC2ERK10ref_vectorI4expr11ast_managerES6_ = comdat any

$_ZN15parallel_tactic11spawn_cubesERNS_12solver_stateEjR6vectorINS_8cube_varELb1EjE = comdat any

$_ZN6vectorIN15parallel_tactic8cube_varELb1EjE13expand_vectorEv = comdat any

$_ZN15parallel_tactic8cube_varC2ERKS0_ = comdat any

$_ZN15parallel_tactic8cube_varclER15ast_translation = comdat any

$_ZN15parallel_tactic12solver_state19set_simplify_paramsEb = comdat any

$_ZN6vectorIP5modelLb0EjE13expand_vectorEv = comdat any

$_ZN15parallel_tactic12collect_coreERK10ref_vectorI4expr11ast_managerE = comdat any

$_ZN7obj_refI4expr11ast_managerED2Ev = comdat any

$_ZN13obj_hashtableI4exprED2Ev = comdat any

$_ZN6vectorIPN15parallel_tactic12solver_stateELb0EjE5eraseERKS2_ = comdat any

$_ZN15parallel_tactic10task_queue7displayERSo = comdat any

$_ZN15parallel_tactic12solver_state7displayERSo = comdat any

$_ZN7obj_mapI3astPS0_ED2Ev = comdat any

$_ZN10ptr_vectorI3astED2Ev = comdat any

$_ZN7svectorIN15ast_translation5frameEjED2Ev = comdat any

$_ZN16tactic_exceptionD0Ev = comdat any

$_ZNK16tactic_exception3msgEv = comdat any

$_ZTV15parallel_tactic = comdat any

$_ZTS15parallel_tactic = comdat any

$_ZTS6tactic = comdat any

$_ZTSN15user_propagator4coreE = comdat any

$_ZTIN15user_propagator4coreE = comdat any

$_ZTI6tactic = comdat any

$_ZTI15parallel_tactic = comdat any

$_ZTS16tactic_exception = comdat any

$_ZTI16tactic_exception = comdat any

$_ZTVNSt6thread11_State_implINS_8_InvokerISt5tupleIJZN15parallel_tactic5solveER3refI5modelEEUlvE_EEEEEE = comdat any

$_ZTSNSt6thread11_State_implINS_8_InvokerISt5tupleIJZN15parallel_tactic5solveER3refI5modelEEUlvE_EEEEEE = comdat any

$_ZTINSt6thread11_State_implINS_8_InvokerISt5tupleIJZN15parallel_tactic5solveER3refI5modelEEUlvE_EEEEEE = comdat any

$_ZTV16tactic_exception = comdat any

@_ZStL8__ioinit = internal global %"class.std::ios_base::Init" zeroinitializer, align 1
@__dso_handle = external hidden global i8
@_ZTV15parallel_tactic = linkonce_odr hidden unnamed_addr constant { [25 x ptr] } { [25 x ptr] [ptr null, ptr @_ZTI15parallel_tactic, ptr @_ZN15parallel_tacticD2Ev, ptr @_ZN15parallel_tacticD0Ev, ptr @_ZN6tactic19user_propagate_initEPvRSt8functionIFvS0_PN15user_propagator8callbackEEERS1_IFvS0_S4_jEERS1_IFS0_S0_R11ast_managerRPNS2_11context_objEEE, ptr @_ZN15user_propagator4core29user_propagate_register_fixedERSt8functionIFvPvPNS_8callbackEP4exprS6_EE, ptr @_ZN15user_propagator4core29user_propagate_register_finalERSt8functionIFvPvPNS_8callbackEEE, ptr @_ZN15user_propagator4core26user_propagate_register_eqERSt8functionIFvPvPNS_8callbackEP4exprS6_EE, ptr @_ZN15user_propagator4core29user_propagate_register_diseqERSt8functionIFvPvPNS_8callbackEP4exprS6_EE, ptr @_ZN6tactic28user_propagate_register_exprEP4expr, ptr @_ZN15user_propagator4core31user_propagate_register_createdERSt8functionIFvPvPNS_8callbackEP4exprEE, ptr @_ZN15user_propagator4core30user_propagate_register_decideERSt8functionIFvPvPNS_8callbackEP4exprjbEE, ptr @_ZN15user_propagator4core20user_propagate_clearEv, ptr @_ZN6tactic18register_on_clauseEPvRSt8functionIFvS0_P4exprjPKjjPKS3_EE, ptr @_ZN15parallel_tactic11updt_paramsERK10params_ref, ptr @_ZN6tactic20collect_param_descrsER12param_descrs, ptr @_ZN15parallel_tacticclERK3refI4goalER11sref_bufferIS1_Lj16EE, ptr @_ZNK15parallel_tactic18collect_statisticsER10statistics, ptr @_ZN15parallel_tactic16reset_statisticsEv, ptr @_ZN15parallel_tactic7cleanupEv, ptr @_ZN6tactic5resetEv, ptr @_ZN6tactic9set_logicERK6symbol, ptr @_ZN6tactic21set_progress_callbackEP17progress_callback, ptr @_ZN15parallel_tactic9translateER11ast_manager, ptr @_ZNK15parallel_tactic4nameEv] }, comdat, align 8
@_ZTVN10__cxxabiv120__si_class_type_infoE = external global [0 x ptr]
@_ZTS15parallel_tactic = linkonce_odr hidden constant [18 x i8] c"15parallel_tactic\00", comdat, align 1
@_ZTS6tactic = linkonce_odr hidden constant [8 x i8] c"6tactic\00", comdat, align 1
@_ZTVN10__cxxabiv117__class_type_infoE = external global [0 x ptr]
@_ZTSN15user_propagator4coreE = linkonce_odr hidden constant [25 x i8] c"N15user_propagator4coreE\00", comdat, align 1
@_ZTIN15user_propagator4coreE = linkonce_odr hidden constant { ptr, ptr } { ptr getelementptr inbounds (ptr, ptr @_ZTVN10__cxxabiv117__class_type_infoE, i64 2), ptr @_ZTSN15user_propagator4coreE }, comdat, align 8
@_ZTI6tactic = linkonce_odr hidden constant { ptr, ptr, ptr } { ptr getelementptr inbounds (ptr, ptr @_ZTVN10__cxxabiv120__si_class_type_infoE, i64 2), ptr @_ZTS6tactic, ptr @_ZTIN15user_propagator4coreE }, comdat, align 8
@_ZTI15parallel_tactic = linkonce_odr hidden constant { ptr, ptr, ptr } { ptr getelementptr inbounds (ptr, ptr @_ZTVN10__cxxabiv120__si_class_type_infoE, i64 2), ptr @_ZTS15parallel_tactic, ptr @_ZTI6tactic }, comdat, align 8
@.str = private unnamed_addr constant [54 x i8] c"user-propagators are only supported on the SMT solver\00", align 1
@_ZTI17default_exception = external constant ptr
@.str.1 = private unnamed_addr constant [50 x i8] c"basic_string: construction from null is not valid\00", align 1
@_ZTV17default_exception = external unnamed_addr constant { [6 x ptr] }, align 8
@.str.3 = private unnamed_addr constant [21 x i8] c"override_incremental\00", align 1
@.str.4 = private unnamed_addr constant [9 x i8] c"parallel\00", align 1
@.str.5 = private unnamed_addr constant [12 x i8] c"threads.max\00", align 1
@.str.6 = private unnamed_addr constant [28 x i8] c"conquer.backtrack_frequency\00", align 1
@.str.7 = private unnamed_addr constant [14 x i8] c"conquer.delay\00", align 1
@.str.8 = private unnamed_addr constant [41 x i8] c"tactic does not support user propagation\00", align 1
@.str.9 = private unnamed_addr constant [39 x i8] c"tactic does not support clause logging\00", align 1
@.str.10 = private unnamed_addr constant [16 x i8] c"parallel-tactic\00", align 1
@.str.11 = private unnamed_addr constant [41 x i8] c"parallel tactic does not work with trace\00", align 1
@_ZN11common_msgs14g_canceled_msgE = external local_unnamed_addr global ptr, align 8
@_ZTS16tactic_exception = linkonce_odr hidden constant [19 x i8] c"16tactic_exception\00", comdat, align 1
@_ZTI12z3_exception = external constant ptr
@_ZTI16tactic_exception = linkonce_odr hidden constant { ptr, ptr, ptr } { ptr getelementptr inbounds (ptr, ptr @_ZTVN10__cxxabiv120__si_class_type_infoE, i64 2), ptr @_ZTS16tactic_exception, ptr @_ZTI12z3_exception }, comdat, align 8
@.str.12 = private unnamed_addr constant [43 x i8] c"Overflow encountered when expanding vector\00", align 1
@_ZTI8z3_error = external constant ptr
@.str.13 = private unnamed_addr constant [28 x i8] c"(tactic.parallel :progress \00", align 1
@.str.14 = private unnamed_addr constant [2 x i8] c"%\00", align 1
@.str.15 = private unnamed_addr constant [13 x i8] c" :status sat\00", align 1
@.str.16 = private unnamed_addr constant [17 x i8] c" :status unknown\00", align 1
@.str.17 = private unnamed_addr constant [10 x i8] c" :closed \00", align 1
@.str.18 = private unnamed_addr constant [2 x i8] c"@\00", align 1
@.str.19 = private unnamed_addr constant [8 x i8] c" :open \00", align 1
@.str.20 = private unnamed_addr constant [3 x i8] c")\0A\00", align 1
@_ZTVNSt6thread11_State_implINS_8_InvokerISt5tupleIJZN15parallel_tactic5solveER3refI5modelEEUlvE_EEEEEE = linkonce_odr hidden unnamed_addr constant { [5 x ptr] } { [5 x ptr] [ptr null, ptr @_ZTINSt6thread11_State_implINS_8_InvokerISt5tupleIJZN15parallel_tactic5solveER3refI5modelEEUlvE_EEEEEE, ptr @_ZNSt6thread11_State_implINS_8_InvokerISt5tupleIJZN15parallel_tactic5solveER3refI5modelEEUlvE_EEEEED2Ev, ptr @_ZNSt6thread11_State_implINS_8_InvokerISt5tupleIJZN15parallel_tactic5solveER3refI5modelEEUlvE_EEEEED0Ev, ptr @_ZNSt6thread11_State_implINS_8_InvokerISt5tupleIJZN15parallel_tactic5solveER3refI5modelEEUlvE_EEEEE6_M_runEv] }, comdat, align 8
@_ZTSNSt6thread11_State_implINS_8_InvokerISt5tupleIJZN15parallel_tactic5solveER3refI5modelEEUlvE_EEEEEE = linkonce_odr hidden constant [99 x i8] c"NSt6thread11_State_implINS_8_InvokerISt5tupleIJZN15parallel_tactic5solveER3refI5modelEEUlvE_EEEEEE\00", comdat, align 1
@_ZTINSt6thread6_StateE = external constant ptr
@_ZTINSt6thread11_State_implINS_8_InvokerISt5tupleIJZN15parallel_tactic5solveER3refI5modelEEUlvE_EEEEEE = linkonce_odr hidden constant { ptr, ptr, ptr } { ptr getelementptr inbounds (ptr, ptr @_ZTVN10__cxxabiv120__si_class_type_infoE, i64 2), ptr @_ZTSNSt6thread11_State_implINS_8_InvokerISt5tupleIJZN15parallel_tactic5solveER3refI5modelEEUlvE_EEEEEE, ptr @_ZTINSt6thread6_StateE }, comdat, align 8
@.str.21 = private unnamed_addr constant [2 x i8] c"\0A\00", align 1
@.str.22 = private unnamed_addr constant [30 x i8] c"(tactic.parallel :split-cube \00", align 1
@.str.23 = private unnamed_addr constant [30 x i8] c"cube simplifications exceeded\00", align 1
@.str.24 = private unnamed_addr constant [29 x i8] c"(tactic.parallel :backtrack \00", align 1
@.str.25 = private unnamed_addr constant [5 x i8] c" -> \00", align 1
@.str.26 = private unnamed_addr constant [24 x i8] c"(tactic.parallel :cube \00", align 1
@.str.27 = private unnamed_addr constant [8 x i8] c" :vars \00", align 1
@.str.28 = private unnamed_addr constant [14 x i8] c"assert cube: \00", align 1
@.str.29 = private unnamed_addr constant [30 x i8] c"(parallel.tactic simplify-1)\0A\00", align 1
@.str.30 = private unnamed_addr constant [30 x i8] c"(parallel.tactic simplify-2)\0A\00", align 1
@.str.31 = private unnamed_addr constant [14 x i8] c"inprocess.max\00", align 1
@.str.32 = private unnamed_addr constant [12 x i8] c"restart.max\00", align 1
@.str.33 = private unnamed_addr constant [19 x i8] c"lookahead_simplify\00", align 1
@.str.34 = private unnamed_addr constant [23 x i8] c"retain_blocked_clauses\00", align 1
@.str.35 = private unnamed_addr constant [14 x i8] c"max_conflicts\00", align 1
@.str.36 = private unnamed_addr constant [10 x i8] c"bce_delay\00", align 1
@.str.37 = private unnamed_addr constant [13 x i8] c"simplify.exp\00", align 1
@.str.38 = private unnamed_addr constant [23 x i8] c"simplify.max_conflicts\00", align 1
@.str.39 = private unnamed_addr constant [23 x i8] c"simplify.inprocess.max\00", align 1
@.str.40 = private unnamed_addr constant [21 x i8] c"simplify.restart.max\00", align 1
@.str.41 = private unnamed_addr constant [11 x i8] c"incomplete\00", align 1
@.str.42 = private unnamed_addr constant [12 x i8] c"(incomplete\00", align 1
@.str.43 = private unnamed_addr constant [12 x i8] c"(sat.giveup\00", align 1
@.str.44 = private unnamed_addr constant [9 x i8] c"gc.burst\00", align 1
@.str.45 = private unnamed_addr constant [15 x i8] c"simplify.delay\00", align 1
@.str.46 = private unnamed_addr constant [20 x i8] c"conquer.restart.max\00", align 1
@.str.47 = private unnamed_addr constant [19 x i8] c"conquer.batch_size\00", align 1
@.str.48 = private unnamed_addr constant [25 x i8] c"(tactic.parallel :unsat \00", align 1
@.str.49 = private unnamed_addr constant [12 x i8] c" :progress \00", align 1
@.str.50 = private unnamed_addr constant [11 x i8] c"% :models \00", align 1
@.str.51 = private unnamed_addr constant [11 x i8] c"num_tasks \00", align 1
@.str.52 = private unnamed_addr constant [10 x i8] c" active: \00", align 1
@.str.53 = private unnamed_addr constant [8 x i8] c":depth \00", align 1
@.str.54 = private unnamed_addr constant [9 x i8] c" :width \00", align 1
@.str.55 = private unnamed_addr constant [11 x i8] c":asserted \00", align 1
@_ZTV16tactic_exception = linkonce_odr hidden unnamed_addr constant { [6 x ptr] } { [6 x ptr] [ptr null, ptr @_ZTI16tactic_exception, ptr @_ZN16tactic_exceptionD2Ev, ptr @_ZN16tactic_exceptionD0Ev, ptr @_ZNK16tactic_exception3msgEv, ptr @_ZNK12z3_exception10error_codeEv] }, comdat, align 8
@.str.56 = private unnamed_addr constant [10 x i8] c"par unsat\00", align 1
@.str.57 = private unnamed_addr constant [11 x i8] c"par models\00", align 1
@.str.58 = private unnamed_addr constant [13 x i8] c"par progress\00", align 1
@.str.59 = private unnamed_addr constant [16 x i8] c"parallel_tactic\00", align 1
@llvm.global_ctors = appending global [1 x { i32, ptr, ptr }] [{ i32, ptr, ptr } { i32 65535, ptr @_GLOBAL__sub_I_parallel_tactical.cpp, ptr null }]

declare void @_ZNSt8ios_base4InitC1Ev(ptr noundef nonnull align 1 dereferenceable(1)) unnamed_addr #0

; Function Attrs: nounwind
declare void @_ZNSt8ios_base4InitD1Ev(ptr noundef nonnull align 1 dereferenceable(1)) unnamed_addr #1

; Function Attrs: nofree nounwind
declare i32 @__cxa_atexit(ptr, ptr, ptr) local_unnamed_addr #2

; Function Attrs: mustprogress uwtable
define hidden noundef ptr @_Z18mk_parallel_tacticP6solverRK10params_ref(ptr noundef %s, ptr noundef nonnull align 8 dereferenceable(8) %p) local_unnamed_addr #3 {
entry:
  %call = tail call noalias noundef ptr @_ZN6memory8allocateEm(i64 noundef 344)
  tail call void @_ZN15parallel_tacticC2EP6solverRK10params_ref(ptr noundef nonnull align 8 dereferenceable(344) %call, ptr noundef %s, ptr noundef nonnull align 8 dereferenceable(8) %p)
  ret ptr %call
}

declare noalias noundef ptr @_ZN6memory8allocateEm(i64 noundef) local_unnamed_addr #0

; Function Attrs: mustprogress uwtable
define linkonce_odr hidden void @_ZN15parallel_tacticC2EP6solverRK10params_ref(ptr noundef nonnull align 8 dereferenceable(344) %this, ptr noundef %s, ptr noundef nonnull align 8 dereferenceable(8) %p) unnamed_addr #3 comdat align 2 personality ptr @__gxx_personality_v0 {
entry:
  %m_ref_count.i = getelementptr inbounds %class.tactic, ptr %this, i64 0, i32 1
  store i32 0, ptr %m_ref_count.i, align 8
  store ptr getelementptr inbounds ({ [25 x ptr] }, ptr @_ZTV15parallel_tactic, i64 0, inrange i32 0, i64 2), ptr %this, align 8
  %m_solver = getelementptr inbounds %class.parallel_tactic, ptr %this, i64 0, i32 1
  store ptr %s, ptr %m_solver, align 8
  %tobool.not.i.i = icmp eq ptr %s, null
  br i1 %tobool.not.i.i, label %invoke.cont, label %if.then.i.i

if.then.i.i:                                      ; preds = %entry
  %m_ref_count.i.i.i = getelementptr inbounds %class.check_sat_result, ptr %s, i64 0, i32 4
  %0 = load i32, ptr %m_ref_count.i.i.i, align 8
  %inc.i.i.i = add i32 %0, 1
  store i32 %inc.i.i.i, ptr %m_ref_count.i.i.i, align 8
  br label %invoke.cont

invoke.cont:                                      ; preds = %if.then.i.i, %entry
  %vtable = load ptr, ptr %s, align 8
  %vfn = getelementptr inbounds ptr, ptr %vtable, i64 9
  %1 = load ptr, ptr %vfn, align 8
  %call = invoke noundef nonnull align 8 dereferenceable(976) ptr %1(ptr noundef nonnull align 8 dereferenceable(72) %s)
          to label %invoke.cont3 unwind label %lpad2

invoke.cont3:                                     ; preds = %invoke.cont
  %m_manager = getelementptr inbounds %class.parallel_tactic, ptr %this, i64 0, i32 2
  store ptr %call, ptr %m_manager, align 8
  %m_serialize_manager = getelementptr inbounds %class.parallel_tactic, ptr %this, i64 0, i32 3
  store ptr null, ptr %m_serialize_manager, align 8
  %m_params = getelementptr inbounds %class.parallel_tactic, ptr %this, i64 0, i32 4
  invoke void @_ZN10params_refC1ERKS_(ptr noundef nonnull align 8 dereferenceable(8) %m_params, ptr noundef nonnull align 8 dereferenceable(8) %p)
          to label %invoke.cont14 unwind label %lpad5

invoke.cont14:                                    ; preds = %invoke.cont3
  %m_models = getelementptr inbounds %class.parallel_tactic, ptr %this, i64 0, i32 5
  %m_stats = getelementptr inbounds %class.parallel_tactic, ptr %this, i64 0, i32 8
  %m_cond.i = getelementptr inbounds %class.parallel_tactic, ptr %this, i64 0, i32 9, i32 1
  tail call void @llvm.memset.p0.i64(ptr noundef nonnull align 8 dereferenceable(16) %m_models, i8 0, i64 16, i1 false)
  tail call void @llvm.memset.p0.i64(ptr noundef nonnull align 8 dereferenceable(56) %m_stats, i8 0, i64 56, i1 false)
  tail call void @_ZNSt18condition_variableC1Ev(ptr noundef nonnull align 8 dereferenceable(48) %m_cond.i) #18
  %m_tasks.i = getelementptr inbounds %class.parallel_tactic, ptr %this, i64 0, i32 9, i32 2
  tail call void @llvm.memset.p0.i64(ptr noundef nonnull align 8 dereferenceable(21) %m_tasks.i, i8 0, i64 21, i1 false)
  %m_mutex = getelementptr inbounds %class.parallel_tactic, ptr %this, i64 0, i32 10
  tail call void @llvm.memset.p0.i64(ptr noundef nonnull align 8 dereferenceable(40) %m_mutex, i8 0, i64 40, i1 false)
  %m_exn_msg = getelementptr inbounds %class.parallel_tactic, ptr %this, i64 0, i32 20
  tail call void @_ZNSt7__cxx1112basic_stringIcSt11char_traitsIcESaIcEEC1Ev(ptr noundef nonnull align 8 dereferenceable(32) %m_exn_msg) #18
  %m_reason_undef = getelementptr inbounds %class.parallel_tactic, ptr %this, i64 0, i32 21
  tail call void @_ZNSt7__cxx1112basic_stringIcSt11char_traitsIcESaIcEEC1Ev(ptr noundef nonnull align 8 dereferenceable(32) %m_reason_undef) #18
  invoke void @_ZN15parallel_tactic4initEv(ptr noundef nonnull align 8 dereferenceable(344) %this)
          to label %invoke.cont16 unwind label %lpad15

invoke.cont16:                                    ; preds = %invoke.cont14
  ret void

lpad2:                                            ; preds = %invoke.cont
  %2 = landingpad { ptr, i32 }
          cleanup
  br label %ehcleanup21

lpad5:                                            ; preds = %invoke.cont3
  %3 = landingpad { ptr, i32 }
          cleanup
  br label %ehcleanup20

lpad15:                                           ; preds = %invoke.cont14
  %4 = landingpad { ptr, i32 }
          cleanup
  %m_queue = getelementptr inbounds %class.parallel_tactic, ptr %this, i64 0, i32 9
  %m_core = getelementptr inbounds %class.parallel_tactic, ptr %this, i64 0, i32 6
  tail call void @_ZNSt7__cxx1112basic_stringIcSt11char_traitsIcESaIcEED1Ev(ptr noundef nonnull align 8 dereferenceable(32) %m_reason_undef) #18
  tail call void @_ZNSt7__cxx1112basic_stringIcSt11char_traitsIcESaIcEED1Ev(ptr noundef nonnull align 8 dereferenceable(32) %m_exn_msg) #18
  tail call void @_ZN15parallel_tactic10task_queueD2Ev(ptr noundef nonnull align 8 dereferenceable(109) %m_queue) #18
  tail call void @_ZN10statisticsD2Ev(ptr noundef nonnull align 8 dereferenceable(16) %m_stats) #18
  tail call void @_ZN10scoped_ptrI10ref_vectorI4expr11ast_managerEED2Ev(ptr noundef nonnull align 8 dereferenceable(8) %m_core) #18
  tail call void @_ZN15ref_vector_coreI5model21ref_unmanaged_wrapperIS0_EED2Ev(ptr noundef nonnull align 8 dereferenceable(8) %m_models) #18
  tail call void @_ZN10params_refD1Ev(ptr noundef nonnull align 8 dereferenceable(8) %m_params) #18
  br label %ehcleanup20

ehcleanup20:                                      ; preds = %lpad15, %lpad5
  %.pn.pn.pn.pn = phi { ptr, i32 } [ %4, %lpad15 ], [ %3, %lpad5 ]
  tail call void @_ZN10scoped_ptrI11ast_managerED2Ev(ptr noundef nonnull align 8 dereferenceable(8) %m_serialize_manager) #18
  br label %ehcleanup21

ehcleanup21:                                      ; preds = %ehcleanup20, %lpad2
  %.pn.pn.pn.pn.pn = phi { ptr, i32 } [ %.pn.pn.pn.pn, %ehcleanup20 ], [ %2, %lpad2 ]
  tail call void @_ZN3refI6solverED2Ev(ptr noundef nonnull align 8 dereferenceable(8) %m_solver) #18
  resume { ptr, i32 } %.pn.pn.pn.pn.pn
}

declare i32 @__gxx_personality_v0(...)

declare void @_ZN10params_refC1ERKS_(ptr noundef nonnull align 8 dereferenceable(8), ptr noundef nonnull align 8 dereferenceable(8)) unnamed_addr #0

; Function Attrs: nounwind
declare void @_ZNSt7__cxx1112basic_stringIcSt11char_traitsIcESaIcEEC1Ev(ptr noundef nonnull align 8 dereferenceable(32)) unnamed_addr #1

; Function Attrs: mustprogress uwtable
define linkonce_odr hidden void @_ZN15parallel_tactic4initEv(ptr noundef nonnull align 8 dereferenceable(344) %this) local_unnamed_addr #3 comdat align 2 personality ptr @__gxx_personality_v0 {
entry:
  %pp = alloca %struct.parallel_params, align 8
  %m_params = getelementptr inbounds %class.parallel_tactic, ptr %this, i64 0, i32 4
  store ptr %m_params, ptr %pp, align 8
  %g.i = getelementptr inbounds %struct.parallel_params, ptr %pp, i64 0, i32 1
  call void @_ZN7gparams10get_moduleEPKc(ptr nonnull sret(%class.params_ref) align 8 %g.i, ptr noundef nonnull @.str.4)
  %call = call noundef i32 @_ZNSt6thread20hardware_concurrencyEv() #18
  %0 = load ptr, ptr %pp, align 8
  %call.i2 = invoke noundef i32 @_ZNK10params_ref8get_uintEPKcRKS_j(ptr noundef nonnull align 8 dereferenceable(8) %0, ptr noundef nonnull @.str.5, ptr noundef nonnull align 8 dereferenceable(8) %g.i, i32 noundef 10000)
          to label %invoke.cont unwind label %lpad

invoke.cont:                                      ; preds = %entry
  %.sroa.speculated = call i32 @llvm.umin.i32(i32 %call.i2, i32 %call)
  %m_num_threads = getelementptr inbounds %class.parallel_tactic, ptr %this, i64 0, i32 7
  store i32 %.sroa.speculated, ptr %m_num_threads, align 8
  %m_progress = getelementptr inbounds %class.parallel_tactic, ptr %this, i64 0, i32 11
  store double 0.000000e+00, ptr %m_progress, align 8
  %m_has_undef = getelementptr inbounds %class.parallel_tactic, ptr %this, i64 0, i32 15
  store atomic i8 0, ptr %m_has_undef seq_cst, align 4
  %m_allsat = getelementptr inbounds %class.parallel_tactic, ptr %this, i64 0, i32 16
  store i8 0, ptr %m_allsat, align 1
  %m_branches = getelementptr inbounds %class.parallel_tactic, ptr %this, i64 0, i32 12
  store i32 0, ptr %m_branches, align 8
  %m_num_unsat = getelementptr inbounds %class.parallel_tactic, ptr %this, i64 0, i32 17
  store i32 0, ptr %m_num_unsat, align 8
  %m_last_depth = getelementptr inbounds %class.parallel_tactic, ptr %this, i64 0, i32 18
  store i32 0, ptr %m_last_depth, align 4
  %1 = load ptr, ptr %pp, align 8
  %call.i4 = invoke noundef i32 @_ZNK10params_ref8get_uintEPKcRKS_j(ptr noundef nonnull align 8 dereferenceable(8) %1, ptr noundef nonnull @.str.6, ptr noundef nonnull align 8 dereferenceable(8) %g.i, i32 noundef 10)
          to label %invoke.cont7 unwind label %lpad

invoke.cont7:                                     ; preds = %invoke.cont
  %m_backtrack_frequency = getelementptr inbounds %class.parallel_tactic, ptr %this, i64 0, i32 13
  store i32 %call.i4, ptr %m_backtrack_frequency, align 4
  %2 = load ptr, ptr %pp, align 8
  %call.i6 = invoke noundef i32 @_ZNK10params_ref8get_uintEPKcRKS_j(ptr noundef nonnull align 8 dereferenceable(8) %2, ptr noundef nonnull @.str.7, ptr noundef nonnull align 8 dereferenceable(8) %g.i, i32 noundef 10)
          to label %invoke.cont9 unwind label %lpad

invoke.cont9:                                     ; preds = %invoke.cont7
  %m_conquer_delay = getelementptr inbounds %class.parallel_tactic, ptr %this, i64 0, i32 14
  store i32 %call.i6, ptr %m_conquer_delay, align 8
  %m_exn_code = getelementptr inbounds %class.parallel_tactic, ptr %this, i64 0, i32 19
  store i32 0, ptr %m_exn_code, align 8
  invoke void @_ZN10params_ref8set_boolEPKcb(ptr noundef nonnull align 8 dereferenceable(8) %m_params, ptr noundef nonnull @.str.3, i1 noundef zeroext true)
          to label %invoke.cont12 unwind label %lpad

invoke.cont12:                                    ; preds = %invoke.cont9
  %m_core = getelementptr inbounds %class.parallel_tactic, ptr %this, i64 0, i32 6
  %3 = load ptr, ptr %m_core, align 8
  %cmp.not.i = icmp eq ptr %3, null
  br i1 %cmp.not.i, label %invoke.cont13, label %if.then.i

if.then.i:                                        ; preds = %invoke.cont12
  invoke void @_Z7deallocI10ref_vectorI4expr11ast_managerEEvPT_(ptr noundef nonnull %3)
          to label %.noexc unwind label %lpad

.noexc:                                           ; preds = %if.then.i
  store ptr null, ptr %m_core, align 8
  br label %invoke.cont13

invoke.cont13:                                    ; preds = %.noexc, %invoke.cont12
  call void @_ZN10params_refD1Ev(ptr noundef nonnull align 8 dereferenceable(8) %g.i) #18
  ret void

lpad:                                             ; preds = %if.then.i, %invoke.cont7, %invoke.cont, %entry, %invoke.cont9
  %4 = landingpad { ptr, i32 }
          cleanup
  call void @_ZN10params_refD1Ev(ptr noundef nonnull align 8 dereferenceable(8) %g.i) #18
  resume { ptr, i32 } %4
}

; Function Attrs: nounwind
declare void @_ZNSt7__cxx1112basic_stringIcSt11char_traitsIcESaIcEED1Ev(ptr noundef nonnull align 8 dereferenceable(32)) unnamed_addr #1

; Function Attrs: mustprogress nounwind uwtable
define linkonce_odr hidden void @_ZN15parallel_tactic10task_queueD2Ev(ptr noundef nonnull align 8 dereferenceable(109) %this) unnamed_addr #4 comdat align 2 personality ptr @__gxx_personality_v0 {
entry:
  invoke void @_ZN15parallel_tactic10task_queue5resetEv(ptr noundef nonnull align 8 dereferenceable(109) %this)
          to label %invoke.cont unwind label %terminate.lpad

invoke.cont:                                      ; preds = %entry
  %m_active = getelementptr inbounds %"class.parallel_tactic::task_queue", ptr %this, i64 0, i32 3
  %0 = load ptr, ptr %m_active, align 8
  %tobool.not.i.i.i = icmp eq ptr %0, null
  br i1 %tobool.not.i.i.i, label %_ZN10ptr_vectorIN15parallel_tactic12solver_stateEED2Ev.exit, label %if.then.i.i.i

if.then.i.i.i:                                    ; preds = %invoke.cont
  %add.ptr.i.i.i.i = getelementptr inbounds i32, ptr %0, i64 -2
  invoke void @_ZN6memory10deallocateEPv(ptr noundef nonnull %add.ptr.i.i.i.i)
          to label %_ZN10ptr_vectorIN15parallel_tactic12solver_stateEED2Ev.exit unwind label %terminate.lpad.i.i

terminate.lpad.i.i:                               ; preds = %if.then.i.i.i
  %1 = landingpad { ptr, i32 }
          catch ptr null
  %2 = extractvalue { ptr, i32 } %1, 0
  tail call void @__clang_call_terminate(ptr %2) #19
  unreachable

_ZN10ptr_vectorIN15parallel_tactic12solver_stateEED2Ev.exit: ; preds = %invoke.cont, %if.then.i.i.i
  %m_tasks = getelementptr inbounds %"class.parallel_tactic::task_queue", ptr %this, i64 0, i32 2
  %3 = load ptr, ptr %m_tasks, align 8
  %tobool.not.i.i.i1 = icmp eq ptr %3, null
  br i1 %tobool.not.i.i.i1, label %_ZN10ptr_vectorIN15parallel_tactic12solver_stateEED2Ev.exit5, label %if.then.i.i.i2

if.then.i.i.i2:                                   ; preds = %_ZN10ptr_vectorIN15parallel_tactic12solver_stateEED2Ev.exit
  %add.ptr.i.i.i.i3 = getelementptr inbounds i32, ptr %3, i64 -2
  invoke void @_ZN6memory10deallocateEPv(ptr noundef nonnull %add.ptr.i.i.i.i3)
          to label %_ZN10ptr_vectorIN15parallel_tactic12solver_stateEED2Ev.exit5 unwind label %terminate.lpad.i.i4

terminate.lpad.i.i4:                              ; preds = %if.then.i.i.i2
  %4 = landingpad { ptr, i32 }
          catch ptr null
  %5 = extractvalue { ptr, i32 } %4, 0
  tail call void @__clang_call_terminate(ptr %5) #19
  unreachable

_ZN10ptr_vectorIN15parallel_tactic12solver_stateEED2Ev.exit5: ; preds = %_ZN10ptr_vectorIN15parallel_tactic12solver_stateEED2Ev.exit, %if.then.i.i.i2
  %m_cond = getelementptr inbounds %"class.parallel_tactic::task_queue", ptr %this, i64 0, i32 1
  tail call void @_ZNSt18condition_variableD1Ev(ptr noundef nonnull align 8 dereferenceable(48) %m_cond) #18
  ret void

terminate.lpad:                                   ; preds = %entry
  %6 = landingpad { ptr, i32 }
          catch ptr null
  %7 = extractvalue { ptr, i32 } %6, 0
  tail call void @__clang_call_terminate(ptr %7) #19
  unreachable
}

; Function Attrs: mustprogress nounwind uwtable
define linkonce_odr hidden void @_ZN10statisticsD2Ev(ptr noundef nonnull align 8 dereferenceable(16) %this) unnamed_addr #4 comdat align 2 personality ptr @__gxx_personality_v0 {
entry:
  %m_d_stats = getelementptr inbounds %class.statistics, ptr %this, i64 0, i32 1
  %0 = load ptr, ptr %m_d_stats, align 8
  %tobool.not.i.i.i = icmp eq ptr %0, null
  br i1 %tobool.not.i.i.i, label %_ZN7svectorISt4pairIPKcdEjED2Ev.exit, label %if.then.i.i.i

if.then.i.i.i:                                    ; preds = %entry
  %add.ptr.i.i.i.i = getelementptr inbounds i32, ptr %0, i64 -2
  invoke void @_ZN6memory10deallocateEPv(ptr noundef nonnull %add.ptr.i.i.i.i)
          to label %_ZN7svectorISt4pairIPKcdEjED2Ev.exit unwind label %terminate.lpad.i.i

terminate.lpad.i.i:                               ; preds = %if.then.i.i.i
  %1 = landingpad { ptr, i32 }
          catch ptr null
  %2 = extractvalue { ptr, i32 } %1, 0
  tail call void @__clang_call_terminate(ptr %2) #19
  unreachable

_ZN7svectorISt4pairIPKcdEjED2Ev.exit:             ; preds = %entry, %if.then.i.i.i
  %3 = load ptr, ptr %this, align 8
  %tobool.not.i.i.i1 = icmp eq ptr %3, null
  br i1 %tobool.not.i.i.i1, label %_ZN7svectorISt4pairIPKcjEjED2Ev.exit, label %if.then.i.i.i2

if.then.i.i.i2:                                   ; preds = %_ZN7svectorISt4pairIPKcdEjED2Ev.exit
  %add.ptr.i.i.i.i3 = getelementptr inbounds i32, ptr %3, i64 -2
  invoke void @_ZN6memory10deallocateEPv(ptr noundef nonnull %add.ptr.i.i.i.i3)
          to label %_ZN7svectorISt4pairIPKcjEjED2Ev.exit unwind label %terminate.lpad.i.i4

terminate.lpad.i.i4:                              ; preds = %if.then.i.i.i2
  %4 = landingpad { ptr, i32 }
          catch ptr null
  %5 = extractvalue { ptr, i32 } %4, 0
  tail call void @__clang_call_terminate(ptr %5) #19
  unreachable

_ZN7svectorISt4pairIPKcjEjED2Ev.exit:             ; preds = %_ZN7svectorISt4pairIPKcdEjED2Ev.exit, %if.then.i.i.i2
  ret void
}

; Function Attrs: mustprogress nounwind uwtable
define linkonce_odr hidden void @_ZN10scoped_ptrI10ref_vectorI4expr11ast_managerEED2Ev(ptr noundef nonnull align 8 dereferenceable(8) %this) unnamed_addr #4 comdat align 2 personality ptr @__gxx_personality_v0 {
entry:
  %0 = load ptr, ptr %this, align 8
  invoke void @_Z7deallocI10ref_vectorI4expr11ast_managerEEvPT_(ptr noundef %0)
          to label %invoke.cont unwind label %terminate.lpad

invoke.cont:                                      ; preds = %entry
  ret void

terminate.lpad:                                   ; preds = %entry
  %1 = landingpad { ptr, i32 }
          catch ptr null
  %2 = extractvalue { ptr, i32 } %1, 0
  tail call void @__clang_call_terminate(ptr %2) #19
  unreachable
}

; Function Attrs: mustprogress nounwind uwtable
define linkonce_odr hidden void @_ZN15ref_vector_coreI5model21ref_unmanaged_wrapperIS0_EED2Ev(ptr noundef nonnull align 8 dereferenceable(8) %this) unnamed_addr #4 comdat align 2 personality ptr @__gxx_personality_v0 {
entry:
  %0 = load ptr, ptr %this, align 8
  %cmp.i = icmp eq ptr %0, null
  br i1 %cmp.i, label %_ZN10ptr_vectorI5modelED2Ev.exit, label %_ZNK6vectorIP5modelLb0EjE4sizeEv.exit

_ZNK6vectorIP5modelLb0EjE4sizeEv.exit:            ; preds = %entry
  %arrayidx.i = getelementptr inbounds i32, ptr %0, i64 -1
  %1 = load i32, ptr %arrayidx.i, align 4
  %2 = zext i32 %1 to i64
  %add.ptr = getelementptr inbounds ptr, ptr %0, i64 %2
  %cmp3.i.not = icmp eq i32 %1, 0
  br i1 %cmp3.i.not, label %if.then.i.i.i3, label %for.body.i

for.body.i:                                       ; preds = %_ZNK6vectorIP5modelLb0EjE4sizeEv.exit, %_ZN15ref_vector_coreI5model21ref_unmanaged_wrapperIS0_EE7dec_refEPS0_.exit.i
  %it.04.i = phi ptr [ %incdec.ptr.i, %_ZN15ref_vector_coreI5model21ref_unmanaged_wrapperIS0_EE7dec_refEPS0_.exit.i ], [ %0, %_ZNK6vectorIP5modelLb0EjE4sizeEv.exit ]
  %3 = load ptr, ptr %it.04.i, align 8
  %tobool.not.i.i.i = icmp eq ptr %3, null
  br i1 %tobool.not.i.i.i, label %_ZN15ref_vector_coreI5model21ref_unmanaged_wrapperIS0_EE7dec_refEPS0_.exit.i, label %if.then.i.i.i

if.then.i.i.i:                                    ; preds = %for.body.i
  %m_ref_count.i.i.i.i = getelementptr inbounds %class.model_core, ptr %3, i64 0, i32 2
  %4 = load i32, ptr %m_ref_count.i.i.i.i, align 8
  %dec.i.i.i.i = add i32 %4, -1
  store i32 %dec.i.i.i.i, ptr %m_ref_count.i.i.i.i, align 8
  %cmp.i.i.i.i = icmp eq i32 %dec.i.i.i.i, 0
  br i1 %cmp.i.i.i.i, label %if.then.i.i.i.i, label %_ZN15ref_vector_coreI5model21ref_unmanaged_wrapperIS0_EE7dec_refEPS0_.exit.i

if.then.i.i.i.i:                                  ; preds = %if.then.i.i.i
  %vtable.i.i.i.i.i = load ptr, ptr %3, align 8
  %5 = load ptr, ptr %vtable.i.i.i.i.i, align 8
  tail call void %5(ptr noundef nonnull align 8 dereferenceable(96) %3) #18
  invoke void @_ZN6memory10deallocateEPv(ptr noundef nonnull %3)
          to label %_ZN15ref_vector_coreI5model21ref_unmanaged_wrapperIS0_EE7dec_refEPS0_.exit.i unwind label %terminate.lpad

_ZN15ref_vector_coreI5model21ref_unmanaged_wrapperIS0_EE7dec_refEPS0_.exit.i: ; preds = %if.then.i.i.i.i, %if.then.i.i.i, %for.body.i
  %incdec.ptr.i = getelementptr inbounds ptr, ptr %it.04.i, i64 1
  %cmp.i1 = icmp ult ptr %incdec.ptr.i, %add.ptr
  br i1 %cmp.i1, label %for.body.i, label %invoke.cont8, !llvm.loop !4

invoke.cont8:                                     ; preds = %_ZN15ref_vector_coreI5model21ref_unmanaged_wrapperIS0_EE7dec_refEPS0_.exit.i
  %.pre = load ptr, ptr %this, align 8
  %tobool.not.i.i.i2 = icmp eq ptr %.pre, null
  br i1 %tobool.not.i.i.i2, label %_ZN10ptr_vectorI5modelED2Ev.exit, label %if.then.i.i.i3

if.then.i.i.i3:                                   ; preds = %_ZNK6vectorIP5modelLb0EjE4sizeEv.exit, %invoke.cont8
  %6 = phi ptr [ %.pre, %invoke.cont8 ], [ %0, %_ZNK6vectorIP5modelLb0EjE4sizeEv.exit ]
  %add.ptr.i.i.i.i = getelementptr inbounds i32, ptr %6, i64 -2
  invoke void @_ZN6memory10deallocateEPv(ptr noundef nonnull %add.ptr.i.i.i.i)
          to label %_ZN10ptr_vectorI5modelED2Ev.exit unwind label %terminate.lpad.i.i

terminate.lpad.i.i:                               ; preds = %if.then.i.i.i3
  %7 = landingpad { ptr, i32 }
          catch ptr null
  %8 = extractvalue { ptr, i32 } %7, 0
  tail call void @__clang_call_terminate(ptr %8) #19
  unreachable

_ZN10ptr_vectorI5modelED2Ev.exit:                 ; preds = %entry, %invoke.cont8, %if.then.i.i.i3
  ret void

terminate.lpad:                                   ; preds = %if.then.i.i.i.i
  %9 = landingpad { ptr, i32 }
          catch ptr null
  %10 = extractvalue { ptr, i32 } %9, 0
  tail call void @__clang_call_terminate(ptr %10) #19
  unreachable
}

; Function Attrs: nounwind
declare void @_ZN10params_refD1Ev(ptr noundef nonnull align 8 dereferenceable(8)) unnamed_addr #1

; Function Attrs: mustprogress nounwind uwtable
define linkonce_odr hidden void @_ZN10scoped_ptrI11ast_managerED2Ev(ptr noundef nonnull align 8 dereferenceable(8) %this) unnamed_addr #4 comdat align 2 personality ptr @__gxx_personality_v0 {
entry:
  %0 = load ptr, ptr %this, align 8
  %cmp.i = icmp eq ptr %0, null
  br i1 %cmp.i, label %invoke.cont, label %if.end.i

if.end.i:                                         ; preds = %entry
  tail call void @_ZN11ast_managerD1Ev(ptr noundef nonnull align 8 dereferenceable(976) %0) #18
  invoke void @_ZN6memory10deallocateEPv(ptr noundef nonnull %0)
          to label %invoke.cont unwind label %terminate.lpad

invoke.cont:                                      ; preds = %entry, %if.end.i
  ret void

terminate.lpad:                                   ; preds = %if.end.i
  %1 = landingpad { ptr, i32 }
          catch ptr null
  %2 = extractvalue { ptr, i32 } %1, 0
  tail call void @__clang_call_terminate(ptr %2) #19
  unreachable
}

; Function Attrs: mustprogress nounwind uwtable
define linkonce_odr hidden void @_ZN3refI6solverED2Ev(ptr noundef nonnull align 8 dereferenceable(8) %this) unnamed_addr #4 comdat align 2 personality ptr @__gxx_personality_v0 {
entry:
  %0 = load ptr, ptr %this, align 8
  %tobool.not.i = icmp eq ptr %0, null
  br i1 %tobool.not.i, label %invoke.cont, label %if.then.i

if.then.i:                                        ; preds = %entry
  %m_ref_count.i.i = getelementptr inbounds %class.check_sat_result, ptr %0, i64 0, i32 4
  %1 = load i32, ptr %m_ref_count.i.i, align 8
  %dec.i.i = add i32 %1, -1
  store i32 %dec.i.i, ptr %m_ref_count.i.i, align 8
  %cmp.i.i = icmp eq i32 %dec.i.i, 0
  br i1 %cmp.i.i, label %if.then.i.i, label %invoke.cont

if.then.i.i:                                      ; preds = %if.then.i
  %vtable.i.i.i = load ptr, ptr %0, align 8
  %2 = load ptr, ptr %vtable.i.i.i, align 8
  tail call void %2(ptr noundef nonnull align 8 dereferenceable(72) %0) #18
  invoke void @_ZN6memory10deallocateEPv(ptr noundef nonnull %0)
          to label %invoke.cont unwind label %terminate.lpad

invoke.cont:                                      ; preds = %if.then.i, %entry, %if.then.i.i
  ret void

terminate.lpad:                                   ; preds = %if.then.i.i
  %3 = landingpad { ptr, i32 }
          catch ptr null
  %4 = extractvalue { ptr, i32 } %3, 0
  tail call void @__clang_call_terminate(ptr %4) #19
  unreachable
}

; Function Attrs: mustprogress nounwind uwtable
define linkonce_odr hidden void @_ZN15parallel_tacticD2Ev(ptr noundef nonnull align 8 dereferenceable(344) %this) unnamed_addr #4 comdat align 2 personality ptr @__gxx_personality_v0 {
entry:
  store ptr getelementptr inbounds ({ [25 x ptr] }, ptr @_ZTV15parallel_tactic, i64 0, inrange i32 0, i64 2), ptr %this, align 8
  %m_reason_undef = getelementptr inbounds %class.parallel_tactic, ptr %this, i64 0, i32 21
  tail call void @_ZNSt7__cxx1112basic_stringIcSt11char_traitsIcESaIcEED1Ev(ptr noundef nonnull align 8 dereferenceable(32) %m_reason_undef) #18
  %m_exn_msg = getelementptr inbounds %class.parallel_tactic, ptr %this, i64 0, i32 20
  tail call void @_ZNSt7__cxx1112basic_stringIcSt11char_traitsIcESaIcEED1Ev(ptr noundef nonnull align 8 dereferenceable(32) %m_exn_msg) #18
  %m_queue = getelementptr inbounds %class.parallel_tactic, ptr %this, i64 0, i32 9
  tail call void @_ZN15parallel_tactic10task_queueD2Ev(ptr noundef nonnull align 8 dereferenceable(109) %m_queue) #18
  %m_stats = getelementptr inbounds %class.parallel_tactic, ptr %this, i64 0, i32 8
  %m_d_stats.i = getelementptr inbounds %class.parallel_tactic, ptr %this, i64 0, i32 8, i32 1
  %0 = load ptr, ptr %m_d_stats.i, align 8
  %tobool.not.i.i.i.i = icmp eq ptr %0, null
  br i1 %tobool.not.i.i.i.i, label %_ZN7svectorISt4pairIPKcdEjED2Ev.exit.i, label %if.then.i.i.i.i

if.then.i.i.i.i:                                  ; preds = %entry
  %add.ptr.i.i.i.i.i = getelementptr inbounds i32, ptr %0, i64 -2
  invoke void @_ZN6memory10deallocateEPv(ptr noundef nonnull %add.ptr.i.i.i.i.i)
          to label %_ZN7svectorISt4pairIPKcdEjED2Ev.exit.i unwind label %terminate.lpad.i.i.i

terminate.lpad.i.i.i:                             ; preds = %if.then.i.i.i.i
  %1 = landingpad { ptr, i32 }
          catch ptr null
  %2 = extractvalue { ptr, i32 } %1, 0
  tail call void @__clang_call_terminate(ptr %2) #19
  unreachable

_ZN7svectorISt4pairIPKcdEjED2Ev.exit.i:           ; preds = %if.then.i.i.i.i, %entry
  %3 = load ptr, ptr %m_stats, align 8
  %tobool.not.i.i.i1.i = icmp eq ptr %3, null
  br i1 %tobool.not.i.i.i1.i, label %_ZN10statisticsD2Ev.exit, label %if.then.i.i.i2.i

if.then.i.i.i2.i:                                 ; preds = %_ZN7svectorISt4pairIPKcdEjED2Ev.exit.i
  %add.ptr.i.i.i.i3.i = getelementptr inbounds i32, ptr %3, i64 -2
  invoke void @_ZN6memory10deallocateEPv(ptr noundef nonnull %add.ptr.i.i.i.i3.i)
          to label %_ZN10statisticsD2Ev.exit unwind label %terminate.lpad.i.i4.i

terminate.lpad.i.i4.i:                            ; preds = %if.then.i.i.i2.i
  %4 = landingpad { ptr, i32 }
          catch ptr null
  %5 = extractvalue { ptr, i32 } %4, 0
  tail call void @__clang_call_terminate(ptr %5) #19
  unreachable

_ZN10statisticsD2Ev.exit:                         ; preds = %_ZN7svectorISt4pairIPKcdEjED2Ev.exit.i, %if.then.i.i.i2.i
  %m_core = getelementptr inbounds %class.parallel_tactic, ptr %this, i64 0, i32 6
  %6 = load ptr, ptr %m_core, align 8
  invoke void @_Z7deallocI10ref_vectorI4expr11ast_managerEEvPT_(ptr noundef %6)
          to label %_ZN10scoped_ptrI10ref_vectorI4expr11ast_managerEED2Ev.exit unwind label %terminate.lpad.i

terminate.lpad.i:                                 ; preds = %_ZN10statisticsD2Ev.exit
  %7 = landingpad { ptr, i32 }
          catch ptr null
  %8 = extractvalue { ptr, i32 } %7, 0
  tail call void @__clang_call_terminate(ptr %8) #19
  unreachable

_ZN10scoped_ptrI10ref_vectorI4expr11ast_managerEED2Ev.exit: ; preds = %_ZN10statisticsD2Ev.exit
  %m_models = getelementptr inbounds %class.parallel_tactic, ptr %this, i64 0, i32 5
  %9 = load ptr, ptr %m_models, align 8
  %cmp.i.i = icmp eq ptr %9, null
  br i1 %cmp.i.i, label %_ZN15ref_vector_coreI5model21ref_unmanaged_wrapperIS0_EED2Ev.exit, label %_ZNK6vectorIP5modelLb0EjE4sizeEv.exit.i

_ZNK6vectorIP5modelLb0EjE4sizeEv.exit.i:          ; preds = %_ZN10scoped_ptrI10ref_vectorI4expr11ast_managerEED2Ev.exit
  %arrayidx.i.i = getelementptr inbounds i32, ptr %9, i64 -1
  %10 = load i32, ptr %arrayidx.i.i, align 4
  %11 = zext i32 %10 to i64
  %add.ptr.i = getelementptr inbounds ptr, ptr %9, i64 %11
  %cmp3.i.not.i = icmp eq i32 %10, 0
  br i1 %cmp3.i.not.i, label %if.then.i.i.i3.i, label %for.body.i.i

for.body.i.i:                                     ; preds = %_ZNK6vectorIP5modelLb0EjE4sizeEv.exit.i, %_ZN15ref_vector_coreI5model21ref_unmanaged_wrapperIS0_EE7dec_refEPS0_.exit.i.i
  %it.04.i.i = phi ptr [ %incdec.ptr.i.i, %_ZN15ref_vector_coreI5model21ref_unmanaged_wrapperIS0_EE7dec_refEPS0_.exit.i.i ], [ %9, %_ZNK6vectorIP5modelLb0EjE4sizeEv.exit.i ]
  %12 = load ptr, ptr %it.04.i.i, align 8
  %tobool.not.i.i.i.i1 = icmp eq ptr %12, null
  br i1 %tobool.not.i.i.i.i1, label %_ZN15ref_vector_coreI5model21ref_unmanaged_wrapperIS0_EE7dec_refEPS0_.exit.i.i, label %if.then.i.i.i.i2

if.then.i.i.i.i2:                                 ; preds = %for.body.i.i
  %m_ref_count.i.i.i.i.i = getelementptr inbounds %class.model_core, ptr %12, i64 0, i32 2
  %13 = load i32, ptr %m_ref_count.i.i.i.i.i, align 8
  %dec.i.i.i.i.i = add i32 %13, -1
  store i32 %dec.i.i.i.i.i, ptr %m_ref_count.i.i.i.i.i, align 8
  %cmp.i.i.i.i.i = icmp eq i32 %dec.i.i.i.i.i, 0
  br i1 %cmp.i.i.i.i.i, label %if.then.i.i.i.i.i, label %_ZN15ref_vector_coreI5model21ref_unmanaged_wrapperIS0_EE7dec_refEPS0_.exit.i.i

if.then.i.i.i.i.i:                                ; preds = %if.then.i.i.i.i2
  %vtable.i.i.i.i.i.i = load ptr, ptr %12, align 8
  %14 = load ptr, ptr %vtable.i.i.i.i.i.i, align 8
  tail call void %14(ptr noundef nonnull align 8 dereferenceable(96) %12) #18
  invoke void @_ZN6memory10deallocateEPv(ptr noundef nonnull %12)
          to label %_ZN15ref_vector_coreI5model21ref_unmanaged_wrapperIS0_EE7dec_refEPS0_.exit.i.i unwind label %terminate.lpad.i5

_ZN15ref_vector_coreI5model21ref_unmanaged_wrapperIS0_EE7dec_refEPS0_.exit.i.i: ; preds = %if.then.i.i.i.i.i, %if.then.i.i.i.i2, %for.body.i.i
  %incdec.ptr.i.i = getelementptr inbounds ptr, ptr %it.04.i.i, i64 1
  %cmp.i1.i = icmp ult ptr %incdec.ptr.i.i, %add.ptr.i
  br i1 %cmp.i1.i, label %for.body.i.i, label %invoke.cont8.i, !llvm.loop !4

invoke.cont8.i:                                   ; preds = %_ZN15ref_vector_coreI5model21ref_unmanaged_wrapperIS0_EE7dec_refEPS0_.exit.i.i
  %.pre.i = load ptr, ptr %m_models, align 8
  %tobool.not.i.i.i2.i = icmp eq ptr %.pre.i, null
  br i1 %tobool.not.i.i.i2.i, label %_ZN15ref_vector_coreI5model21ref_unmanaged_wrapperIS0_EED2Ev.exit, label %if.then.i.i.i3.i

if.then.i.i.i3.i:                                 ; preds = %invoke.cont8.i, %_ZNK6vectorIP5modelLb0EjE4sizeEv.exit.i
  %15 = phi ptr [ %.pre.i, %invoke.cont8.i ], [ %9, %_ZNK6vectorIP5modelLb0EjE4sizeEv.exit.i ]
  %add.ptr.i.i.i.i.i3 = getelementptr inbounds i32, ptr %15, i64 -2
  invoke void @_ZN6memory10deallocateEPv(ptr noundef nonnull %add.ptr.i.i.i.i.i3)
          to label %_ZN15ref_vector_coreI5model21ref_unmanaged_wrapperIS0_EED2Ev.exit unwind label %terminate.lpad.i.i.i4

terminate.lpad.i.i.i4:                            ; preds = %if.then.i.i.i3.i
  %16 = landingpad { ptr, i32 }
          catch ptr null
  %17 = extractvalue { ptr, i32 } %16, 0
  tail call void @__clang_call_terminate(ptr %17) #19
  unreachable

terminate.lpad.i5:                                ; preds = %if.then.i.i.i.i.i
  %18 = landingpad { ptr, i32 }
          catch ptr null
  %19 = extractvalue { ptr, i32 } %18, 0
  tail call void @__clang_call_terminate(ptr %19) #19
  unreachable

_ZN15ref_vector_coreI5model21ref_unmanaged_wrapperIS0_EED2Ev.exit: ; preds = %_ZN10scoped_ptrI10ref_vectorI4expr11ast_managerEED2Ev.exit, %invoke.cont8.i, %if.then.i.i.i3.i
  %m_params = getelementptr inbounds %class.parallel_tactic, ptr %this, i64 0, i32 4
  tail call void @_ZN10params_refD1Ev(ptr noundef nonnull align 8 dereferenceable(8) %m_params) #18
  %m_serialize_manager = getelementptr inbounds %class.parallel_tactic, ptr %this, i64 0, i32 3
  %20 = load ptr, ptr %m_serialize_manager, align 8
  %cmp.i.i6 = icmp eq ptr %20, null
  br i1 %cmp.i.i6, label %_ZN10scoped_ptrI11ast_managerED2Ev.exit, label %if.end.i.i

if.end.i.i:                                       ; preds = %_ZN15ref_vector_coreI5model21ref_unmanaged_wrapperIS0_EED2Ev.exit
  tail call void @_ZN11ast_managerD1Ev(ptr noundef nonnull align 8 dereferenceable(976) %20) #18
  invoke void @_ZN6memory10deallocateEPv(ptr noundef nonnull %20)
          to label %_ZN10scoped_ptrI11ast_managerED2Ev.exit unwind label %terminate.lpad.i7

terminate.lpad.i7:                                ; preds = %if.end.i.i
  %21 = landingpad { ptr, i32 }
          catch ptr null
  %22 = extractvalue { ptr, i32 } %21, 0
  tail call void @__clang_call_terminate(ptr %22) #19
  unreachable

_ZN10scoped_ptrI11ast_managerED2Ev.exit:          ; preds = %_ZN15ref_vector_coreI5model21ref_unmanaged_wrapperIS0_EED2Ev.exit, %if.end.i.i
  %m_solver = getelementptr inbounds %class.parallel_tactic, ptr %this, i64 0, i32 1
  %23 = load ptr, ptr %m_solver, align 8
  %tobool.not.i.i = icmp eq ptr %23, null
  br i1 %tobool.not.i.i, label %_ZN3refI6solverED2Ev.exit, label %if.then.i.i

if.then.i.i:                                      ; preds = %_ZN10scoped_ptrI11ast_managerED2Ev.exit
  %m_ref_count.i.i.i = getelementptr inbounds %class.check_sat_result, ptr %23, i64 0, i32 4
  %24 = load i32, ptr %m_ref_count.i.i.i, align 8
  %dec.i.i.i = add i32 %24, -1
  store i32 %dec.i.i.i, ptr %m_ref_count.i.i.i, align 8
  %cmp.i.i.i = icmp eq i32 %dec.i.i.i, 0
  br i1 %cmp.i.i.i, label %if.then.i.i.i, label %_ZN3refI6solverED2Ev.exit

if.then.i.i.i:                                    ; preds = %if.then.i.i
  %vtable.i.i.i.i = load ptr, ptr %23, align 8
  %25 = load ptr, ptr %vtable.i.i.i.i, align 8
  tail call void %25(ptr noundef nonnull align 8 dereferenceable(72) %23) #18
  invoke void @_ZN6memory10deallocateEPv(ptr noundef nonnull %23)
          to label %_ZN3refI6solverED2Ev.exit unwind label %terminate.lpad.i8

terminate.lpad.i8:                                ; preds = %if.then.i.i.i
  %26 = landingpad { ptr, i32 }
          catch ptr null
  %27 = extractvalue { ptr, i32 } %26, 0
  tail call void @__clang_call_terminate(ptr %27) #19
  unreachable

_ZN3refI6solverED2Ev.exit:                        ; preds = %_ZN10scoped_ptrI11ast_managerED2Ev.exit, %if.then.i.i, %if.then.i.i.i
  ret void
}

; Function Attrs: mustprogress nounwind uwtable
define linkonce_odr hidden void @_ZN15parallel_tacticD0Ev(ptr noundef nonnull align 8 dereferenceable(344) %this) unnamed_addr #4 comdat align 2 {
entry:
  tail call void @_ZN15parallel_tacticD2Ev(ptr noundef nonnull align 8 dereferenceable(344) %this) #18
  tail call void @_ZdlPv(ptr noundef nonnull %this) #20
  ret void
}

; Function Attrs: mustprogress uwtable
define linkonce_odr hidden void @_ZN6tactic19user_propagate_initEPvRSt8functionIFvS0_PN15user_propagator8callbackEEERS1_IFvS0_S4_jEERS1_IFS0_S0_R11ast_managerRPNS2_11context_objEEE(ptr noundef nonnull align 8 dereferenceable(12) %this, ptr noundef %ctx, ptr noundef nonnull align 1 %push_eh, ptr noundef nonnull align 1 %pop_eh, ptr noundef nonnull align 1 %fresh_eh) unnamed_addr #3 comdat align 2 personality ptr @__gxx_personality_v0 {
entry:
  %ref.tmp = alloca %"class.std::__cxx11::basic_string", align 8
  %ref.tmp2 = alloca %"class.std::allocator", align 1
  %exception = tail call ptr @__cxa_allocate_exception(i64 40) #18
  call void @_ZNSaIcEC1Ev(ptr noundef nonnull align 1 dereferenceable(1) %ref.tmp2) #18
  %call.i2 = invoke noundef ptr @_ZNSt7__cxx1112basic_stringIcSt11char_traitsIcESaIcEE13_M_local_dataEv(ptr noundef nonnull align 8 dereferenceable(32) %ref.tmp)
          to label %call.i.noexc unwind label %lpad

call.i.noexc:                                     ; preds = %entry
  invoke void @_ZNSt7__cxx1112basic_stringIcSt11char_traitsIcESaIcEE12_Alloc_hiderC1EPcRKS3_(ptr noundef nonnull align 8 dereferenceable(8) %ref.tmp, ptr noundef %call.i2, ptr noundef nonnull align 1 dereferenceable(1) %ref.tmp2)
          to label %.noexc unwind label %lpad

.noexc:                                           ; preds = %call.i.noexc
  invoke void @_ZNSt7__cxx1112basic_stringIcSt11char_traitsIcESaIcEE12_M_constructIPKcEEvT_S8_St20forward_iterator_tag(ptr noundef nonnull align 8 dereferenceable(32) %ref.tmp, ptr noundef nonnull @.str.8, ptr noundef nonnull getelementptr inbounds ([41 x i8], ptr @.str.8, i64 0, i64 40))
          to label %invoke.cont unwind label %lpad.i

lpad.i:                                           ; preds = %.noexc
  %0 = landingpad { ptr, i32 }
          cleanup
  call void @_ZNSaIcED2Ev(ptr noundef nonnull align 1 dereferenceable(1) %ref.tmp) #18
  br label %cleanup.action

invoke.cont:                                      ; preds = %.noexc
  store ptr getelementptr inbounds ({ [6 x ptr] }, ptr @_ZTV17default_exception, i64 0, inrange i32 0, i64 2), ptr %exception, align 8
  %m_msg.i = getelementptr inbounds %class.default_exception, ptr %exception, i64 0, i32 1
  call void @_ZNSt7__cxx1112basic_stringIcSt11char_traitsIcESaIcEEC1EOS4_(ptr noundef nonnull align 8 dereferenceable(32) %m_msg.i, ptr noundef nonnull align 8 dereferenceable(32) %ref.tmp) #18
  invoke void @__cxa_throw(ptr nonnull %exception, ptr nonnull @_ZTI17default_exception, ptr nonnull @_ZN17default_exceptionD2Ev) #21
          to label %unreachable unwind label %ehcleanup

lpad:                                             ; preds = %call.i.noexc, %entry
  %1 = landingpad { ptr, i32 }
          cleanup
  br label %cleanup.action

ehcleanup:                                        ; preds = %invoke.cont
  %2 = landingpad { ptr, i32 }
          cleanup
  call void @_ZNSt7__cxx1112basic_stringIcSt11char_traitsIcESaIcEED1Ev(ptr noundef nonnull align 8 dereferenceable(32) %ref.tmp) #18
  call void @_ZNSaIcED1Ev(ptr noundef nonnull align 1 dereferenceable(1) %ref.tmp2) #18
  br label %eh.resume

cleanup.action:                                   ; preds = %lpad.i, %lpad
  %.pn.ph = phi { ptr, i32 } [ %0, %lpad.i ], [ %1, %lpad ]
  call void @_ZNSaIcED1Ev(ptr noundef nonnull align 1 dereferenceable(1) %ref.tmp2) #18
  call void @__cxa_free_exception(ptr %exception) #18
  br label %eh.resume

eh.resume:                                        ; preds = %ehcleanup, %cleanup.action
  %.pn5 = phi { ptr, i32 } [ %2, %ehcleanup ], [ %.pn.ph, %cleanup.action ]
  resume { ptr, i32 } %.pn5

unreachable:                                      ; preds = %invoke.cont
  unreachable
}

; Function Attrs: mustprogress uwtable
define linkonce_odr hidden void @_ZN15user_propagator4core29user_propagate_register_fixedERSt8functionIFvPvPNS_8callbackEP4exprS6_EE(ptr noundef nonnull align 8 dereferenceable(8) %this, ptr noundef nonnull align 1 %fixed_eh) unnamed_addr #3 comdat align 2 personality ptr @__gxx_personality_v0 {
entry:
  %ref.tmp = alloca %"class.std::__cxx11::basic_string", align 8
  %ref.tmp2 = alloca %"class.std::allocator", align 1
  %exception = tail call ptr @__cxa_allocate_exception(i64 40) #18
  call void @_ZNSaIcEC1Ev(ptr noundef nonnull align 1 dereferenceable(1) %ref.tmp2) #18
  %call.i2 = invoke noundef ptr @_ZNSt7__cxx1112basic_stringIcSt11char_traitsIcESaIcEE13_M_local_dataEv(ptr noundef nonnull align 8 dereferenceable(32) %ref.tmp)
          to label %call.i.noexc unwind label %lpad

call.i.noexc:                                     ; preds = %entry
  invoke void @_ZNSt7__cxx1112basic_stringIcSt11char_traitsIcESaIcEE12_Alloc_hiderC1EPcRKS3_(ptr noundef nonnull align 8 dereferenceable(8) %ref.tmp, ptr noundef %call.i2, ptr noundef nonnull align 1 dereferenceable(1) %ref.tmp2)
          to label %.noexc unwind label %lpad

.noexc:                                           ; preds = %call.i.noexc
  invoke void @_ZNSt7__cxx1112basic_stringIcSt11char_traitsIcESaIcEE12_M_constructIPKcEEvT_S8_St20forward_iterator_tag(ptr noundef nonnull align 8 dereferenceable(32) %ref.tmp, ptr noundef nonnull @.str, ptr noundef nonnull getelementptr inbounds ([54 x i8], ptr @.str, i64 0, i64 53))
          to label %invoke.cont unwind label %lpad.i

lpad.i:                                           ; preds = %.noexc
  %0 = landingpad { ptr, i32 }
          cleanup
  call void @_ZNSaIcED2Ev(ptr noundef nonnull align 1 dereferenceable(1) %ref.tmp) #18
  br label %cleanup.action

invoke.cont:                                      ; preds = %.noexc
  store ptr getelementptr inbounds ({ [6 x ptr] }, ptr @_ZTV17default_exception, i64 0, inrange i32 0, i64 2), ptr %exception, align 8
  %m_msg.i = getelementptr inbounds %class.default_exception, ptr %exception, i64 0, i32 1
  call void @_ZNSt7__cxx1112basic_stringIcSt11char_traitsIcESaIcEEC1EOS4_(ptr noundef nonnull align 8 dereferenceable(32) %m_msg.i, ptr noundef nonnull align 8 dereferenceable(32) %ref.tmp) #18
  invoke void @__cxa_throw(ptr nonnull %exception, ptr nonnull @_ZTI17default_exception, ptr nonnull @_ZN17default_exceptionD2Ev) #21
          to label %unreachable unwind label %ehcleanup

lpad:                                             ; preds = %call.i.noexc, %entry
  %1 = landingpad { ptr, i32 }
          cleanup
  br label %cleanup.action

ehcleanup:                                        ; preds = %invoke.cont
  %2 = landingpad { ptr, i32 }
          cleanup
  call void @_ZNSt7__cxx1112basic_stringIcSt11char_traitsIcESaIcEED1Ev(ptr noundef nonnull align 8 dereferenceable(32) %ref.tmp) #18
  call void @_ZNSaIcED1Ev(ptr noundef nonnull align 1 dereferenceable(1) %ref.tmp2) #18
  br label %eh.resume

cleanup.action:                                   ; preds = %lpad.i, %lpad
  %.pn.ph = phi { ptr, i32 } [ %0, %lpad.i ], [ %1, %lpad ]
  call void @_ZNSaIcED1Ev(ptr noundef nonnull align 1 dereferenceable(1) %ref.tmp2) #18
  call void @__cxa_free_exception(ptr %exception) #18
  br label %eh.resume

eh.resume:                                        ; preds = %ehcleanup, %cleanup.action
  %.pn5 = phi { ptr, i32 } [ %2, %ehcleanup ], [ %.pn.ph, %cleanup.action ]
  resume { ptr, i32 } %.pn5

unreachable:                                      ; preds = %invoke.cont
  unreachable
}

; Function Attrs: mustprogress uwtable
define linkonce_odr hidden void @_ZN15user_propagator4core29user_propagate_register_finalERSt8functionIFvPvPNS_8callbackEEE(ptr noundef nonnull align 8 dereferenceable(8) %this, ptr noundef nonnull align 1 %final_eh) unnamed_addr #3 comdat align 2 personality ptr @__gxx_personality_v0 {
entry:
  %ref.tmp = alloca %"class.std::__cxx11::basic_string", align 8
  %ref.tmp2 = alloca %"class.std::allocator", align 1
  %exception = tail call ptr @__cxa_allocate_exception(i64 40) #18
  call void @_ZNSaIcEC1Ev(ptr noundef nonnull align 1 dereferenceable(1) %ref.tmp2) #18
  %call.i2 = invoke noundef ptr @_ZNSt7__cxx1112basic_stringIcSt11char_traitsIcESaIcEE13_M_local_dataEv(ptr noundef nonnull align 8 dereferenceable(32) %ref.tmp)
          to label %call.i.noexc unwind label %lpad

call.i.noexc:                                     ; preds = %entry
  invoke void @_ZNSt7__cxx1112basic_stringIcSt11char_traitsIcESaIcEE12_Alloc_hiderC1EPcRKS3_(ptr noundef nonnull align 8 dereferenceable(8) %ref.tmp, ptr noundef %call.i2, ptr noundef nonnull align 1 dereferenceable(1) %ref.tmp2)
          to label %.noexc unwind label %lpad

.noexc:                                           ; preds = %call.i.noexc
  invoke void @_ZNSt7__cxx1112basic_stringIcSt11char_traitsIcESaIcEE12_M_constructIPKcEEvT_S8_St20forward_iterator_tag(ptr noundef nonnull align 8 dereferenceable(32) %ref.tmp, ptr noundef nonnull @.str, ptr noundef nonnull getelementptr inbounds ([54 x i8], ptr @.str, i64 0, i64 53))
          to label %invoke.cont unwind label %lpad.i

lpad.i:                                           ; preds = %.noexc
  %0 = landingpad { ptr, i32 }
          cleanup
  call void @_ZNSaIcED2Ev(ptr noundef nonnull align 1 dereferenceable(1) %ref.tmp) #18
  br label %cleanup.action

invoke.cont:                                      ; preds = %.noexc
  store ptr getelementptr inbounds ({ [6 x ptr] }, ptr @_ZTV17default_exception, i64 0, inrange i32 0, i64 2), ptr %exception, align 8
  %m_msg.i = getelementptr inbounds %class.default_exception, ptr %exception, i64 0, i32 1
  call void @_ZNSt7__cxx1112basic_stringIcSt11char_traitsIcESaIcEEC1EOS4_(ptr noundef nonnull align 8 dereferenceable(32) %m_msg.i, ptr noundef nonnull align 8 dereferenceable(32) %ref.tmp) #18
  invoke void @__cxa_throw(ptr nonnull %exception, ptr nonnull @_ZTI17default_exception, ptr nonnull @_ZN17default_exceptionD2Ev) #21
          to label %unreachable unwind label %ehcleanup

lpad:                                             ; preds = %call.i.noexc, %entry
  %1 = landingpad { ptr, i32 }
          cleanup
  br label %cleanup.action

ehcleanup:                                        ; preds = %invoke.cont
  %2 = landingpad { ptr, i32 }
          cleanup
  call void @_ZNSt7__cxx1112basic_stringIcSt11char_traitsIcESaIcEED1Ev(ptr noundef nonnull align 8 dereferenceable(32) %ref.tmp) #18
  call void @_ZNSaIcED1Ev(ptr noundef nonnull align 1 dereferenceable(1) %ref.tmp2) #18
  br label %eh.resume

cleanup.action:                                   ; preds = %lpad.i, %lpad
  %.pn.ph = phi { ptr, i32 } [ %0, %lpad.i ], [ %1, %lpad ]
  call void @_ZNSaIcED1Ev(ptr noundef nonnull align 1 dereferenceable(1) %ref.tmp2) #18
  call void @__cxa_free_exception(ptr %exception) #18
  br label %eh.resume

eh.resume:                                        ; preds = %ehcleanup, %cleanup.action
  %.pn5 = phi { ptr, i32 } [ %2, %ehcleanup ], [ %.pn.ph, %cleanup.action ]
  resume { ptr, i32 } %.pn5

unreachable:                                      ; preds = %invoke.cont
  unreachable
}

; Function Attrs: mustprogress uwtable
define linkonce_odr hidden void @_ZN15user_propagator4core26user_propagate_register_eqERSt8functionIFvPvPNS_8callbackEP4exprS6_EE(ptr noundef nonnull align 8 dereferenceable(8) %this, ptr noundef nonnull align 1 %eq_eh) unnamed_addr #3 comdat align 2 personality ptr @__gxx_personality_v0 {
entry:
  %ref.tmp = alloca %"class.std::__cxx11::basic_string", align 8
  %ref.tmp2 = alloca %"class.std::allocator", align 1
  %exception = tail call ptr @__cxa_allocate_exception(i64 40) #18
  call void @_ZNSaIcEC1Ev(ptr noundef nonnull align 1 dereferenceable(1) %ref.tmp2) #18
  %call.i2 = invoke noundef ptr @_ZNSt7__cxx1112basic_stringIcSt11char_traitsIcESaIcEE13_M_local_dataEv(ptr noundef nonnull align 8 dereferenceable(32) %ref.tmp)
          to label %call.i.noexc unwind label %lpad

call.i.noexc:                                     ; preds = %entry
  invoke void @_ZNSt7__cxx1112basic_stringIcSt11char_traitsIcESaIcEE12_Alloc_hiderC1EPcRKS3_(ptr noundef nonnull align 8 dereferenceable(8) %ref.tmp, ptr noundef %call.i2, ptr noundef nonnull align 1 dereferenceable(1) %ref.tmp2)
          to label %.noexc unwind label %lpad

.noexc:                                           ; preds = %call.i.noexc
  invoke void @_ZNSt7__cxx1112basic_stringIcSt11char_traitsIcESaIcEE12_M_constructIPKcEEvT_S8_St20forward_iterator_tag(ptr noundef nonnull align 8 dereferenceable(32) %ref.tmp, ptr noundef nonnull @.str, ptr noundef nonnull getelementptr inbounds ([54 x i8], ptr @.str, i64 0, i64 53))
          to label %invoke.cont unwind label %lpad.i

lpad.i:                                           ; preds = %.noexc
  %0 = landingpad { ptr, i32 }
          cleanup
  call void @_ZNSaIcED2Ev(ptr noundef nonnull align 1 dereferenceable(1) %ref.tmp) #18
  br label %cleanup.action

invoke.cont:                                      ; preds = %.noexc
  store ptr getelementptr inbounds ({ [6 x ptr] }, ptr @_ZTV17default_exception, i64 0, inrange i32 0, i64 2), ptr %exception, align 8
  %m_msg.i = getelementptr inbounds %class.default_exception, ptr %exception, i64 0, i32 1
  call void @_ZNSt7__cxx1112basic_stringIcSt11char_traitsIcESaIcEEC1EOS4_(ptr noundef nonnull align 8 dereferenceable(32) %m_msg.i, ptr noundef nonnull align 8 dereferenceable(32) %ref.tmp) #18
  invoke void @__cxa_throw(ptr nonnull %exception, ptr nonnull @_ZTI17default_exception, ptr nonnull @_ZN17default_exceptionD2Ev) #21
          to label %unreachable unwind label %ehcleanup

lpad:                                             ; preds = %call.i.noexc, %entry
  %1 = landingpad { ptr, i32 }
          cleanup
  br label %cleanup.action

ehcleanup:                                        ; preds = %invoke.cont
  %2 = landingpad { ptr, i32 }
          cleanup
  call void @_ZNSt7__cxx1112basic_stringIcSt11char_traitsIcESaIcEED1Ev(ptr noundef nonnull align 8 dereferenceable(32) %ref.tmp) #18
  call void @_ZNSaIcED1Ev(ptr noundef nonnull align 1 dereferenceable(1) %ref.tmp2) #18
  br label %eh.resume

cleanup.action:                                   ; preds = %lpad.i, %lpad
  %.pn.ph = phi { ptr, i32 } [ %0, %lpad.i ], [ %1, %lpad ]
  call void @_ZNSaIcED1Ev(ptr noundef nonnull align 1 dereferenceable(1) %ref.tmp2) #18
  call void @__cxa_free_exception(ptr %exception) #18
  br label %eh.resume

eh.resume:                                        ; preds = %ehcleanup, %cleanup.action
  %.pn5 = phi { ptr, i32 } [ %2, %ehcleanup ], [ %.pn.ph, %cleanup.action ]
  resume { ptr, i32 } %.pn5

unreachable:                                      ; preds = %invoke.cont
  unreachable
}

; Function Attrs: mustprogress uwtable
define linkonce_odr hidden void @_ZN15user_propagator4core29user_propagate_register_diseqERSt8functionIFvPvPNS_8callbackEP4exprS6_EE(ptr noundef nonnull align 8 dereferenceable(8) %this, ptr noundef nonnull align 1 %diseq_eh) unnamed_addr #3 comdat align 2 personality ptr @__gxx_personality_v0 {
entry:
  %ref.tmp = alloca %"class.std::__cxx11::basic_string", align 8
  %ref.tmp2 = alloca %"class.std::allocator", align 1
  %exception = tail call ptr @__cxa_allocate_exception(i64 40) #18
  call void @_ZNSaIcEC1Ev(ptr noundef nonnull align 1 dereferenceable(1) %ref.tmp2) #18
  %call.i2 = invoke noundef ptr @_ZNSt7__cxx1112basic_stringIcSt11char_traitsIcESaIcEE13_M_local_dataEv(ptr noundef nonnull align 8 dereferenceable(32) %ref.tmp)
          to label %call.i.noexc unwind label %lpad

call.i.noexc:                                     ; preds = %entry
  invoke void @_ZNSt7__cxx1112basic_stringIcSt11char_traitsIcESaIcEE12_Alloc_hiderC1EPcRKS3_(ptr noundef nonnull align 8 dereferenceable(8) %ref.tmp, ptr noundef %call.i2, ptr noundef nonnull align 1 dereferenceable(1) %ref.tmp2)
          to label %.noexc unwind label %lpad

.noexc:                                           ; preds = %call.i.noexc
  invoke void @_ZNSt7__cxx1112basic_stringIcSt11char_traitsIcESaIcEE12_M_constructIPKcEEvT_S8_St20forward_iterator_tag(ptr noundef nonnull align 8 dereferenceable(32) %ref.tmp, ptr noundef nonnull @.str, ptr noundef nonnull getelementptr inbounds ([54 x i8], ptr @.str, i64 0, i64 53))
          to label %invoke.cont unwind label %lpad.i

lpad.i:                                           ; preds = %.noexc
  %0 = landingpad { ptr, i32 }
          cleanup
  call void @_ZNSaIcED2Ev(ptr noundef nonnull align 1 dereferenceable(1) %ref.tmp) #18
  br label %cleanup.action

invoke.cont:                                      ; preds = %.noexc
  store ptr getelementptr inbounds ({ [6 x ptr] }, ptr @_ZTV17default_exception, i64 0, inrange i32 0, i64 2), ptr %exception, align 8
  %m_msg.i = getelementptr inbounds %class.default_exception, ptr %exception, i64 0, i32 1
  call void @_ZNSt7__cxx1112basic_stringIcSt11char_traitsIcESaIcEEC1EOS4_(ptr noundef nonnull align 8 dereferenceable(32) %m_msg.i, ptr noundef nonnull align 8 dereferenceable(32) %ref.tmp) #18
  invoke void @__cxa_throw(ptr nonnull %exception, ptr nonnull @_ZTI17default_exception, ptr nonnull @_ZN17default_exceptionD2Ev) #21
          to label %unreachable unwind label %ehcleanup

lpad:                                             ; preds = %call.i.noexc, %entry
  %1 = landingpad { ptr, i32 }
          cleanup
  br label %cleanup.action

ehcleanup:                                        ; preds = %invoke.cont
  %2 = landingpad { ptr, i32 }
          cleanup
  call void @_ZNSt7__cxx1112basic_stringIcSt11char_traitsIcESaIcEED1Ev(ptr noundef nonnull align 8 dereferenceable(32) %ref.tmp) #18
  call void @_ZNSaIcED1Ev(ptr noundef nonnull align 1 dereferenceable(1) %ref.tmp2) #18
  br label %eh.resume

cleanup.action:                                   ; preds = %lpad.i, %lpad
  %.pn.ph = phi { ptr, i32 } [ %0, %lpad.i ], [ %1, %lpad ]
  call void @_ZNSaIcED1Ev(ptr noundef nonnull align 1 dereferenceable(1) %ref.tmp2) #18
  call void @__cxa_free_exception(ptr %exception) #18
  br label %eh.resume

eh.resume:                                        ; preds = %ehcleanup, %cleanup.action
  %.pn5 = phi { ptr, i32 } [ %2, %ehcleanup ], [ %.pn.ph, %cleanup.action ]
  resume { ptr, i32 } %.pn5

unreachable:                                      ; preds = %invoke.cont
  unreachable
}

; Function Attrs: mustprogress nounwind uwtable
define linkonce_odr hidden void @_ZN6tactic28user_propagate_register_exprEP4expr(ptr noundef nonnull align 8 dereferenceable(12) %this, ptr noundef %e) unnamed_addr #4 comdat align 2 {
entry:
  ret void
}

; Function Attrs: mustprogress uwtable
define linkonce_odr hidden void @_ZN15user_propagator4core31user_propagate_register_createdERSt8functionIFvPvPNS_8callbackEP4exprEE(ptr noundef nonnull align 8 dereferenceable(8) %this, ptr noundef nonnull align 1 %r) unnamed_addr #3 comdat align 2 personality ptr @__gxx_personality_v0 {
entry:
  %ref.tmp = alloca %"class.std::__cxx11::basic_string", align 8
  %ref.tmp2 = alloca %"class.std::allocator", align 1
  %exception = tail call ptr @__cxa_allocate_exception(i64 40) #18
  call void @_ZNSaIcEC1Ev(ptr noundef nonnull align 1 dereferenceable(1) %ref.tmp2) #18
  %call.i2 = invoke noundef ptr @_ZNSt7__cxx1112basic_stringIcSt11char_traitsIcESaIcEE13_M_local_dataEv(ptr noundef nonnull align 8 dereferenceable(32) %ref.tmp)
          to label %call.i.noexc unwind label %lpad

call.i.noexc:                                     ; preds = %entry
  invoke void @_ZNSt7__cxx1112basic_stringIcSt11char_traitsIcESaIcEE12_Alloc_hiderC1EPcRKS3_(ptr noundef nonnull align 8 dereferenceable(8) %ref.tmp, ptr noundef %call.i2, ptr noundef nonnull align 1 dereferenceable(1) %ref.tmp2)
          to label %.noexc unwind label %lpad

.noexc:                                           ; preds = %call.i.noexc
  invoke void @_ZNSt7__cxx1112basic_stringIcSt11char_traitsIcESaIcEE12_M_constructIPKcEEvT_S8_St20forward_iterator_tag(ptr noundef nonnull align 8 dereferenceable(32) %ref.tmp, ptr noundef nonnull @.str, ptr noundef nonnull getelementptr inbounds ([54 x i8], ptr @.str, i64 0, i64 53))
          to label %invoke.cont unwind label %lpad.i

lpad.i:                                           ; preds = %.noexc
  %0 = landingpad { ptr, i32 }
          cleanup
  call void @_ZNSaIcED2Ev(ptr noundef nonnull align 1 dereferenceable(1) %ref.tmp) #18
  br label %cleanup.action

invoke.cont:                                      ; preds = %.noexc
  store ptr getelementptr inbounds ({ [6 x ptr] }, ptr @_ZTV17default_exception, i64 0, inrange i32 0, i64 2), ptr %exception, align 8
  %m_msg.i = getelementptr inbounds %class.default_exception, ptr %exception, i64 0, i32 1
  call void @_ZNSt7__cxx1112basic_stringIcSt11char_traitsIcESaIcEEC1EOS4_(ptr noundef nonnull align 8 dereferenceable(32) %m_msg.i, ptr noundef nonnull align 8 dereferenceable(32) %ref.tmp) #18
  invoke void @__cxa_throw(ptr nonnull %exception, ptr nonnull @_ZTI17default_exception, ptr nonnull @_ZN17default_exceptionD2Ev) #21
          to label %unreachable unwind label %ehcleanup

lpad:                                             ; preds = %call.i.noexc, %entry
  %1 = landingpad { ptr, i32 }
          cleanup
  br label %cleanup.action

ehcleanup:                                        ; preds = %invoke.cont
  %2 = landingpad { ptr, i32 }
          cleanup
  call void @_ZNSt7__cxx1112basic_stringIcSt11char_traitsIcESaIcEED1Ev(ptr noundef nonnull align 8 dereferenceable(32) %ref.tmp) #18
  call void @_ZNSaIcED1Ev(ptr noundef nonnull align 1 dereferenceable(1) %ref.tmp2) #18
  br label %eh.resume

cleanup.action:                                   ; preds = %lpad.i, %lpad
  %.pn.ph = phi { ptr, i32 } [ %0, %lpad.i ], [ %1, %lpad ]
  call void @_ZNSaIcED1Ev(ptr noundef nonnull align 1 dereferenceable(1) %ref.tmp2) #18
  call void @__cxa_free_exception(ptr %exception) #18
  br label %eh.resume

eh.resume:                                        ; preds = %ehcleanup, %cleanup.action
  %.pn5 = phi { ptr, i32 } [ %2, %ehcleanup ], [ %.pn.ph, %cleanup.action ]
  resume { ptr, i32 } %.pn5

unreachable:                                      ; preds = %invoke.cont
  unreachable
}

; Function Attrs: mustprogress uwtable
define linkonce_odr hidden void @_ZN15user_propagator4core30user_propagate_register_decideERSt8functionIFvPvPNS_8callbackEP4exprjbEE(ptr noundef nonnull align 8 dereferenceable(8) %this, ptr noundef nonnull align 1 %r) unnamed_addr #3 comdat align 2 personality ptr @__gxx_personality_v0 {
entry:
  %ref.tmp = alloca %"class.std::__cxx11::basic_string", align 8
  %ref.tmp2 = alloca %"class.std::allocator", align 1
  %exception = tail call ptr @__cxa_allocate_exception(i64 40) #18
  call void @_ZNSaIcEC1Ev(ptr noundef nonnull align 1 dereferenceable(1) %ref.tmp2) #18
  %call.i2 = invoke noundef ptr @_ZNSt7__cxx1112basic_stringIcSt11char_traitsIcESaIcEE13_M_local_dataEv(ptr noundef nonnull align 8 dereferenceable(32) %ref.tmp)
          to label %call.i.noexc unwind label %lpad

call.i.noexc:                                     ; preds = %entry
  invoke void @_ZNSt7__cxx1112basic_stringIcSt11char_traitsIcESaIcEE12_Alloc_hiderC1EPcRKS3_(ptr noundef nonnull align 8 dereferenceable(8) %ref.tmp, ptr noundef %call.i2, ptr noundef nonnull align 1 dereferenceable(1) %ref.tmp2)
          to label %.noexc unwind label %lpad

.noexc:                                           ; preds = %call.i.noexc
  invoke void @_ZNSt7__cxx1112basic_stringIcSt11char_traitsIcESaIcEE12_M_constructIPKcEEvT_S8_St20forward_iterator_tag(ptr noundef nonnull align 8 dereferenceable(32) %ref.tmp, ptr noundef nonnull @.str, ptr noundef nonnull getelementptr inbounds ([54 x i8], ptr @.str, i64 0, i64 53))
          to label %invoke.cont unwind label %lpad.i

lpad.i:                                           ; preds = %.noexc
  %0 = landingpad { ptr, i32 }
          cleanup
  call void @_ZNSaIcED2Ev(ptr noundef nonnull align 1 dereferenceable(1) %ref.tmp) #18
  br label %cleanup.action

invoke.cont:                                      ; preds = %.noexc
  store ptr getelementptr inbounds ({ [6 x ptr] }, ptr @_ZTV17default_exception, i64 0, inrange i32 0, i64 2), ptr %exception, align 8
  %m_msg.i = getelementptr inbounds %class.default_exception, ptr %exception, i64 0, i32 1
  call void @_ZNSt7__cxx1112basic_stringIcSt11char_traitsIcESaIcEEC1EOS4_(ptr noundef nonnull align 8 dereferenceable(32) %m_msg.i, ptr noundef nonnull align 8 dereferenceable(32) %ref.tmp) #18
  invoke void @__cxa_throw(ptr nonnull %exception, ptr nonnull @_ZTI17default_exception, ptr nonnull @_ZN17default_exceptionD2Ev) #21
          to label %unreachable unwind label %ehcleanup

lpad:                                             ; preds = %call.i.noexc, %entry
  %1 = landingpad { ptr, i32 }
          cleanup
  br label %cleanup.action

ehcleanup:                                        ; preds = %invoke.cont
  %2 = landingpad { ptr, i32 }
          cleanup
  call void @_ZNSt7__cxx1112basic_stringIcSt11char_traitsIcESaIcEED1Ev(ptr noundef nonnull align 8 dereferenceable(32) %ref.tmp) #18
  call void @_ZNSaIcED1Ev(ptr noundef nonnull align 1 dereferenceable(1) %ref.tmp2) #18
  br label %eh.resume

cleanup.action:                                   ; preds = %lpad.i, %lpad
  %.pn.ph = phi { ptr, i32 } [ %0, %lpad.i ], [ %1, %lpad ]
  call void @_ZNSaIcED1Ev(ptr noundef nonnull align 1 dereferenceable(1) %ref.tmp2) #18
  call void @__cxa_free_exception(ptr %exception) #18
  br label %eh.resume

eh.resume:                                        ; preds = %ehcleanup, %cleanup.action
  %.pn5 = phi { ptr, i32 } [ %2, %ehcleanup ], [ %.pn.ph, %cleanup.action ]
  resume { ptr, i32 } %.pn5

unreachable:                                      ; preds = %invoke.cont
  unreachable
}

; Function Attrs: mustprogress nounwind uwtable
define linkonce_odr hidden void @_ZN15user_propagator4core20user_propagate_clearEv(ptr noundef nonnull align 8 dereferenceable(8) %this) unnamed_addr #4 comdat align 2 {
entry:
  ret void
}

; Function Attrs: mustprogress uwtable
define linkonce_odr hidden void @_ZN6tactic18register_on_clauseEPvRSt8functionIFvS0_P4exprjPKjjPKS3_EE(ptr noundef nonnull align 8 dereferenceable(12) %this, ptr noundef %ctx, ptr noundef nonnull align 1 %on_clause) unnamed_addr #3 comdat align 2 personality ptr @__gxx_personality_v0 {
entry:
  %ref.tmp = alloca %"class.std::__cxx11::basic_string", align 8
  %ref.tmp2 = alloca %"class.std::allocator", align 1
  %exception = tail call ptr @__cxa_allocate_exception(i64 40) #18
  call void @_ZNSaIcEC1Ev(ptr noundef nonnull align 1 dereferenceable(1) %ref.tmp2) #18
  %call.i2 = invoke noundef ptr @_ZNSt7__cxx1112basic_stringIcSt11char_traitsIcESaIcEE13_M_local_dataEv(ptr noundef nonnull align 8 dereferenceable(32) %ref.tmp)
          to label %call.i.noexc unwind label %lpad

call.i.noexc:                                     ; preds = %entry
  invoke void @_ZNSt7__cxx1112basic_stringIcSt11char_traitsIcESaIcEE12_Alloc_hiderC1EPcRKS3_(ptr noundef nonnull align 8 dereferenceable(8) %ref.tmp, ptr noundef %call.i2, ptr noundef nonnull align 1 dereferenceable(1) %ref.tmp2)
          to label %.noexc unwind label %lpad

.noexc:                                           ; preds = %call.i.noexc
  invoke void @_ZNSt7__cxx1112basic_stringIcSt11char_traitsIcESaIcEE12_M_constructIPKcEEvT_S8_St20forward_iterator_tag(ptr noundef nonnull align 8 dereferenceable(32) %ref.tmp, ptr noundef nonnull @.str.9, ptr noundef nonnull getelementptr inbounds ([39 x i8], ptr @.str.9, i64 0, i64 38))
          to label %invoke.cont unwind label %lpad.i

lpad.i:                                           ; preds = %.noexc
  %0 = landingpad { ptr, i32 }
          cleanup
  call void @_ZNSaIcED2Ev(ptr noundef nonnull align 1 dereferenceable(1) %ref.tmp) #18
  br label %cleanup.action

invoke.cont:                                      ; preds = %.noexc
  store ptr getelementptr inbounds ({ [6 x ptr] }, ptr @_ZTV17default_exception, i64 0, inrange i32 0, i64 2), ptr %exception, align 8
  %m_msg.i = getelementptr inbounds %class.default_exception, ptr %exception, i64 0, i32 1
  call void @_ZNSt7__cxx1112basic_stringIcSt11char_traitsIcESaIcEEC1EOS4_(ptr noundef nonnull align 8 dereferenceable(32) %m_msg.i, ptr noundef nonnull align 8 dereferenceable(32) %ref.tmp) #18
  invoke void @__cxa_throw(ptr nonnull %exception, ptr nonnull @_ZTI17default_exception, ptr nonnull @_ZN17default_exceptionD2Ev) #21
          to label %unreachable unwind label %ehcleanup

lpad:                                             ; preds = %call.i.noexc, %entry
  %1 = landingpad { ptr, i32 }
          cleanup
  br label %cleanup.action

ehcleanup:                                        ; preds = %invoke.cont
  %2 = landingpad { ptr, i32 }
          cleanup
  call void @_ZNSt7__cxx1112basic_stringIcSt11char_traitsIcESaIcEED1Ev(ptr noundef nonnull align 8 dereferenceable(32) %ref.tmp) #18
  call void @_ZNSaIcED1Ev(ptr noundef nonnull align 1 dereferenceable(1) %ref.tmp2) #18
  br label %eh.resume

cleanup.action:                                   ; preds = %lpad.i, %lpad
  %.pn.ph = phi { ptr, i32 } [ %0, %lpad.i ], [ %1, %lpad ]
  call void @_ZNSaIcED1Ev(ptr noundef nonnull align 1 dereferenceable(1) %ref.tmp2) #18
  call void @__cxa_free_exception(ptr %exception) #18
  br label %eh.resume

eh.resume:                                        ; preds = %ehcleanup, %cleanup.action
  %.pn5 = phi { ptr, i32 } [ %2, %ehcleanup ], [ %.pn.ph, %cleanup.action ]
  resume { ptr, i32 } %.pn5

unreachable:                                      ; preds = %invoke.cont
  unreachable
}

; Function Attrs: mustprogress uwtable
define linkonce_odr hidden void @_ZN15parallel_tactic11updt_paramsERK10params_ref(ptr noundef nonnull align 8 dereferenceable(344) %this, ptr noundef nonnull align 8 dereferenceable(8) %p) unnamed_addr #3 comdat align 2 personality ptr @__gxx_personality_v0 {
entry:
  %pp = alloca %struct.parallel_params, align 8
  %m_params = getelementptr inbounds %class.parallel_tactic, ptr %this, i64 0, i32 4
  tail call void @_ZN10params_ref4copyERKS_(ptr noundef nonnull align 8 dereferenceable(8) %m_params, ptr noundef nonnull align 8 dereferenceable(8) %p)
  store ptr %p, ptr %pp, align 8
  %g.i = getelementptr inbounds %struct.parallel_params, ptr %pp, i64 0, i32 1
  call void @_ZN7gparams10get_moduleEPKc(ptr nonnull sret(%class.params_ref) align 8 %g.i, ptr noundef nonnull @.str.4)
  %0 = load ptr, ptr %pp, align 8
  %call.i3 = invoke noundef i32 @_ZNK10params_ref8get_uintEPKcRKS_j(ptr noundef nonnull align 8 dereferenceable(8) %0, ptr noundef nonnull @.str.7, ptr noundef nonnull align 8 dereferenceable(8) %g.i, i32 noundef 10)
          to label %invoke.cont unwind label %lpad

invoke.cont:                                      ; preds = %entry
  %m_conquer_delay = getelementptr inbounds %class.parallel_tactic, ptr %this, i64 0, i32 14
  store i32 %call.i3, ptr %m_conquer_delay, align 8
  call void @_ZN10params_refD1Ev(ptr noundef nonnull align 8 dereferenceable(8) %g.i) #18
  ret void

lpad:                                             ; preds = %entry
  %1 = landingpad { ptr, i32 }
          cleanup
  call void @_ZN10params_refD1Ev(ptr noundef nonnull align 8 dereferenceable(8) %g.i) #18
  resume { ptr, i32 } %1
}

; Function Attrs: mustprogress nounwind uwtable
define linkonce_odr hidden void @_ZN6tactic20collect_param_descrsER12param_descrs(ptr noundef nonnull align 8 dereferenceable(12) %this, ptr noundef nonnull align 8 dereferenceable(8) %r) unnamed_addr #4 comdat align 2 {
entry:
  ret void
}

; Function Attrs: mustprogress uwtable
define linkonce_odr hidden void @_ZN15parallel_tacticclERK3refI4goalER11sref_bufferIS1_Lj16EE(ptr noundef nonnull align 8 dereferenceable(344) %this, ptr noundef nonnull align 8 dereferenceable(8) %g, ptr noundef nonnull align 8 dereferenceable(144) %result) unnamed_addr #3 comdat align 2 personality ptr @__gxx_personality_v0 {
entry:
  %ref.tmp = alloca %"class.std::__cxx11::basic_string", align 8
  %ref.tmp4 = alloca %"class.std::allocator", align 1
  %clauses = alloca %class.ref_vector, align 8
  %assumptions = alloca %class.ptr_vector.7, align 8
  %bool2dep = alloca %class.obj_map.66, align 8
  %fmc = alloca %class.ref.71, align 8
  %mdl = alloca %class.ref.72, align 8
  %tr = alloca %class.ast_translation, align 8
  %core = alloca %class.ref_vector, align 8
  %ref.tmp97 = alloca %"class.std::__cxx11::basic_string", align 8
  %ref.tmp98 = alloca %"class.std::allocator", align 1
  %ref.tmp114 = alloca %"class.std::__cxx11::basic_string", align 8
  %ref.tmp116 = alloca %"class.std::allocator", align 1
  %vtable = load ptr, ptr %this, align 8
  %vfn = getelementptr inbounds ptr, ptr %vtable, i64 17
  %0 = load ptr, ptr %vfn, align 8
  tail call void %0(ptr noundef nonnull align 8 dereferenceable(344) %this)
  tail call void @_Z24fail_if_proof_generationPKcRK3refI4goalE(ptr noundef nonnull @.str.10, ptr noundef nonnull align 8 dereferenceable(8) %g)
  %1 = load ptr, ptr %g, align 8
  %2 = load ptr, ptr %1, align 8
  %m_trace_stream.i = getelementptr inbounds %class.ast_manager, ptr %2, i64 0, i32 22
  %3 = load ptr, ptr %m_trace_stream.i, align 8
  %cmp.i.not = icmp eq ptr %3, null
  br i1 %cmp.i.not, label %if.end, label %if.then

if.then:                                          ; preds = %entry
  %exception = tail call ptr @__cxa_allocate_exception(i64 40) #18
  call void @_ZNSaIcEC1Ev(ptr noundef nonnull align 1 dereferenceable(1) %ref.tmp4) #18
  invoke void @_ZNSt7__cxx1112basic_stringIcSt11char_traitsIcESaIcEEC2IS3_EEPKcRKS3_(ptr noundef nonnull align 8 dereferenceable(32) %ref.tmp, ptr noundef nonnull @.str.11, ptr noundef nonnull align 1 dereferenceable(1) %ref.tmp4)
          to label %invoke.cont unwind label %cleanup.action

invoke.cont:                                      ; preds = %if.then
  store ptr getelementptr inbounds ({ [6 x ptr] }, ptr @_ZTV17default_exception, i64 0, inrange i32 0, i64 2), ptr %exception, align 8
  %m_msg.i = getelementptr inbounds %class.default_exception, ptr %exception, i64 0, i32 1
  call void @_ZNSt7__cxx1112basic_stringIcSt11char_traitsIcESaIcEEC1EOS4_(ptr noundef nonnull align 8 dereferenceable(32) %m_msg.i, ptr noundef nonnull align 8 dereferenceable(32) %ref.tmp) #18
  invoke void @__cxa_throw(ptr nonnull %exception, ptr nonnull @_ZTI17default_exception, ptr nonnull @_ZN17default_exceptionD2Ev) #21
          to label %unreachable unwind label %ehcleanup

ehcleanup:                                        ; preds = %invoke.cont
  %4 = landingpad { ptr, i32 }
          cleanup
  call void @_ZNSt7__cxx1112basic_stringIcSt11char_traitsIcESaIcEED1Ev(ptr noundef nonnull align 8 dereferenceable(32) %ref.tmp) #18
  call void @_ZNSaIcED1Ev(ptr noundef nonnull align 1 dereferenceable(1) %ref.tmp4) #18
  br label %eh.resume

cleanup.action:                                   ; preds = %if.then
  %5 = landingpad { ptr, i32 }
          cleanup
  call void @_ZNSaIcED1Ev(ptr noundef nonnull align 1 dereferenceable(1) %ref.tmp4) #18
  call void @__cxa_free_exception(ptr %exception) #18
  br label %eh.resume

if.end:                                           ; preds = %entry
  %m_solver = getelementptr inbounds %class.parallel_tactic, ptr %this, i64 0, i32 1
  %6 = load ptr, ptr %m_solver, align 8
  %m_params = getelementptr inbounds %class.parallel_tactic, ptr %this, i64 0, i32 4
  %vtable9 = load ptr, ptr %6, align 8
  %vfn10 = getelementptr inbounds ptr, ptr %vtable9, i64 10
  %7 = load ptr, ptr %vfn10, align 8
  %call11 = tail call noundef ptr %7(ptr noundef nonnull align 8 dereferenceable(96) %6, ptr noundef nonnull align 8 dereferenceable(976) %2, ptr noundef nonnull align 8 dereferenceable(8) %m_params)
  %call12 = tail call noalias noundef ptr @_ZN6memory8allocateEm(i64 noundef 88)
  tail call void @_ZN15parallel_tactic12solver_stateC2EP11ast_managerP6solverRK10params_ref(ptr noundef nonnull align 8 dereferenceable(81) %call12, ptr noundef null, ptr noundef %call11, ptr noundef nonnull align 8 dereferenceable(8) %m_params)
  %m_queue = getelementptr inbounds %class.parallel_tactic, ptr %this, i64 0, i32 9
  tail call void @_ZN15parallel_tactic10task_queue8add_taskEPNS_12solver_stateE(ptr noundef nonnull align 8 dereferenceable(109) %m_queue, ptr noundef nonnull %call12)
  store ptr %2, ptr %clauses, align 8
  %m_nodes.i.i = getelementptr inbounds %class.ref_vector_core.6, ptr %clauses, i64 0, i32 1
  store ptr null, ptr %m_nodes.i.i, align 8
  store ptr null, ptr %assumptions, align 8
  %call.i.i.i.i37 = invoke noalias noundef ptr @_ZN6memory8allocateEm(i64 noundef 128)
          to label %invoke.cont17 unwind label %lpad16

invoke.cont17:                                    ; preds = %if.end
  tail call void @llvm.memset.p0.i64(ptr noundef nonnull align 8 dereferenceable(128) %call.i.i.i.i37, i8 0, i64 128, i1 false)
  store ptr %call.i.i.i.i37, ptr %bool2dep, align 8
  %m_capacity.i.i = getelementptr inbounds %class.core_hashtable.67, ptr %bool2dep, i64 0, i32 1
  store i32 8, ptr %m_capacity.i.i, align 8
  %m_size.i.i = getelementptr inbounds %class.core_hashtable.67, ptr %bool2dep, i64 0, i32 2
  store i32 0, ptr %m_size.i.i, align 4
  %m_num_deleted.i.i = getelementptr inbounds %class.core_hashtable.67, ptr %bool2dep, i64 0, i32 3
  store i32 0, ptr %m_num_deleted.i.i, align 8
  store ptr null, ptr %fmc, align 8
  invoke void @_Z32extract_clauses_and_dependenciesRK3refI4goalER10ref_vectorI4expr11ast_managerER10ptr_vectorIS5_ER7obj_mapIS5_PS5_ERS_I23generic_model_converterE(ptr noundef nonnull align 8 dereferenceable(8) %g, ptr noundef nonnull align 8 dereferenceable(16) %clauses, ptr noundef nonnull align 8 dereferenceable(8) %assumptions, ptr noundef nonnull align 8 dereferenceable(24) %bool2dep, ptr noundef nonnull align 8 dereferenceable(8) %fmc)
          to label %invoke.cont22 unwind label %lpad20.loopexit.split-lp.loopexit.split-lp

invoke.cont22:                                    ; preds = %invoke.cont17
  %8 = load ptr, ptr %m_nodes.i.i, align 8
  %cmp.i.i.i = icmp eq ptr %8, null
  br i1 %cmp.i.i.i, label %for.end, label %_ZNK15ref_vector_coreI4expr19ref_manager_wrapperIS0_11ast_managerEE3endEv.exit

_ZNK15ref_vector_coreI4expr19ref_manager_wrapperIS0_11ast_managerEE3endEv.exit: ; preds = %invoke.cont22
  %arrayidx.i.i.i = getelementptr inbounds i32, ptr %8, i64 -1
  %9 = load i32, ptr %arrayidx.i.i.i, align 4
  %10 = zext i32 %9 to i64
  %add.ptr.i = getelementptr inbounds ptr, ptr %8, i64 %10
  %cmp.not146 = icmp eq i32 %9, 0
  br i1 %cmp.not146, label %for.end, label %for.body

for.body:                                         ; preds = %_ZNK15ref_vector_coreI4expr19ref_manager_wrapperIS0_11ast_managerEE3endEv.exit, %for.inc
  %__begin1.0147 = phi ptr [ %incdec.ptr, %for.inc ], [ %8, %_ZNK15ref_vector_coreI4expr19ref_manager_wrapperIS0_11ast_managerEE3endEv.exit ]
  %11 = load ptr, ptr %__begin1.0147, align 8
  invoke void @_ZN6solver11assert_exprEP4expr(ptr noundef nonnull align 8 dereferenceable(96) %call11, ptr noundef %11)
          to label %for.inc unwind label %lpad20.loopexit.split-lp.loopexit

for.inc:                                          ; preds = %for.body
  %incdec.ptr = getelementptr inbounds ptr, ptr %__begin1.0147, i64 1
  %cmp.not = icmp eq ptr %incdec.ptr, %add.ptr.i
  br i1 %cmp.not, label %for.end, label %for.body

lpad16:                                           ; preds = %if.end
  %12 = landingpad { ptr, i32 }
          cleanup
  br label %ehcleanup135

lpad20.loopexit:                                  ; preds = %if.then.i.i.i.i
  %lpad.loopexit = landingpad { ptr, i32 }
          cleanup
  br label %ehcleanup133

lpad20.loopexit.split-lp.loopexit:                ; preds = %for.body
  %lpad.loopexit141 = landingpad { ptr, i32 }
          cleanup
  br label %ehcleanup133

lpad20.loopexit.split-lp.loopexit.split-lp:       ; preds = %invoke.cont17
  %lpad.loopexit.split-lp142 = landingpad { ptr, i32 }
          cleanup
  br label %ehcleanup133

for.end:                                          ; preds = %for.inc, %invoke.cont22, %_ZNK15ref_vector_coreI4expr19ref_manager_wrapperIS0_11ast_managerEE3endEv.exit
  %13 = load ptr, ptr %assumptions, align 8
  %cmp.i.i = icmp eq ptr %13, null
  br i1 %cmp.i.i, label %invoke.cont27, label %_ZNK6vectorIP4exprLb0EjE4sizeEv.exit.i

_ZNK6vectorIP4exprLb0EjE4sizeEv.exit.i:           ; preds = %for.end
  %arrayidx.i.i = getelementptr inbounds i32, ptr %13, i64 -1
  %14 = load i32, ptr %arrayidx.i.i, align 4
  %cmp3.not.i.i = icmp eq i32 %14, 0
  br i1 %cmp3.not.i.i, label %invoke.cont27, label %for.body.lr.ph.i.i

for.body.lr.ph.i.i:                               ; preds = %_ZNK6vectorIP4exprLb0EjE4sizeEv.exit.i
  %m_nodes.i.i.i = getelementptr inbounds %"class.parallel_tactic::solver_state", ptr %call12, i64 0, i32 3, i32 0, i32 1
  %wide.trip.count.i.i = zext i32 %14 to i64
  br label %for.body.i.i

for.body.i.i:                                     ; preds = %_ZN15ref_vector_coreI4expr19ref_manager_wrapperIS0_11ast_managerEE9push_backEPS0_.exit.i.i, %for.body.lr.ph.i.i
  %indvars.iv.i.i = phi i64 [ 0, %for.body.lr.ph.i.i ], [ %indvars.iv.next.i.i, %_ZN15ref_vector_coreI4expr19ref_manager_wrapperIS0_11ast_managerEE9push_backEPS0_.exit.i.i ]
  %arrayidx.i2.i = getelementptr inbounds ptr, ptr %13, i64 %indvars.iv.i.i
  %15 = load ptr, ptr %arrayidx.i2.i, align 8
  %tobool.not.i.i.i.i.i.i = icmp eq ptr %15, null
  br i1 %tobool.not.i.i.i.i.i.i, label %_ZN15ref_vector_coreI4expr19ref_manager_wrapperIS0_11ast_managerEE7inc_refEPS0_.exit.i.i.i, label %if.then.i.i.i.i.i.i

if.then.i.i.i.i.i.i:                              ; preds = %for.body.i.i
  %m_ref_count.i.i.i.i.i.i.i = getelementptr inbounds %class.ast, ptr %15, i64 0, i32 2
  %16 = load i32, ptr %m_ref_count.i.i.i.i.i.i.i, align 4
  %inc.i.i.i.i.i.i.i = add i32 %16, 1
  store i32 %inc.i.i.i.i.i.i.i, ptr %m_ref_count.i.i.i.i.i.i.i, align 4
  br label %_ZN15ref_vector_coreI4expr19ref_manager_wrapperIS0_11ast_managerEE7inc_refEPS0_.exit.i.i.i

_ZN15ref_vector_coreI4expr19ref_manager_wrapperIS0_11ast_managerEE7inc_refEPS0_.exit.i.i.i: ; preds = %if.then.i.i.i.i.i.i, %for.body.i.i
  %17 = load ptr, ptr %m_nodes.i.i.i, align 8
  %cmp.i.i.i.i = icmp eq ptr %17, null
  br i1 %cmp.i.i.i.i, label %if.then.i.i.i.i, label %lor.lhs.false.i.i.i.i

lor.lhs.false.i.i.i.i:                            ; preds = %_ZN15ref_vector_coreI4expr19ref_manager_wrapperIS0_11ast_managerEE7inc_refEPS0_.exit.i.i.i
  %arrayidx.i.i.i.i = getelementptr inbounds i32, ptr %17, i64 -1
  %18 = load i32, ptr %arrayidx.i.i.i.i, align 4
  %arrayidx4.i.i.i.i = getelementptr inbounds i32, ptr %17, i64 -2
  %19 = load i32, ptr %arrayidx4.i.i.i.i, align 4
  %cmp5.i.i.i.i = icmp eq i32 %18, %19
  br i1 %cmp5.i.i.i.i, label %if.then.i.i.i.i, label %_ZN15ref_vector_coreI4expr19ref_manager_wrapperIS0_11ast_managerEE9push_backEPS0_.exit.i.i

if.then.i.i.i.i:                                  ; preds = %lor.lhs.false.i.i.i.i, %_ZN15ref_vector_coreI4expr19ref_manager_wrapperIS0_11ast_managerEE7inc_refEPS0_.exit.i.i.i
  invoke void @_ZN6vectorIP4exprLb0EjE13expand_vectorEv(ptr noundef nonnull align 8 dereferenceable(8) %m_nodes.i.i.i)
          to label %.noexc unwind label %lpad20.loopexit

.noexc:                                           ; preds = %if.then.i.i.i.i
  %.pre.i.i.i.i = load ptr, ptr %m_nodes.i.i.i, align 8
  %arrayidx8.phi.trans.insert.i.i.i.i = getelementptr inbounds i32, ptr %.pre.i.i.i.i, i64 -1
  %.pre1.i.i.i.i = load i32, ptr %arrayidx8.phi.trans.insert.i.i.i.i, align 4
  br label %_ZN15ref_vector_coreI4expr19ref_manager_wrapperIS0_11ast_managerEE9push_backEPS0_.exit.i.i

_ZN15ref_vector_coreI4expr19ref_manager_wrapperIS0_11ast_managerEE9push_backEPS0_.exit.i.i: ; preds = %.noexc, %lor.lhs.false.i.i.i.i
  %20 = phi i32 [ %.pre1.i.i.i.i, %.noexc ], [ %18, %lor.lhs.false.i.i.i.i ]
  %21 = phi ptr [ %.pre.i.i.i.i, %.noexc ], [ %17, %lor.lhs.false.i.i.i.i ]
  %idx.ext.i.i.i.i = zext i32 %20 to i64
  %add.ptr.i.i.i.i = getelementptr inbounds ptr, ptr %21, i64 %idx.ext.i.i.i.i
  store ptr %15, ptr %add.ptr.i.i.i.i, align 8
  %22 = load ptr, ptr %m_nodes.i.i.i, align 8
  %arrayidx10.i.i.i.i = getelementptr inbounds i32, ptr %22, i64 -1
  %23 = load i32, ptr %arrayidx10.i.i.i.i, align 4
  %inc.i.i.i.i = add i32 %23, 1
  store i32 %inc.i.i.i.i, ptr %arrayidx10.i.i.i.i, align 4
  %indvars.iv.next.i.i = add nuw nsw i64 %indvars.iv.i.i, 1
  %exitcond.not.i.i = icmp eq i64 %indvars.iv.next.i.i, %wide.trip.count.i.i
  br i1 %exitcond.not.i.i, label %invoke.cont27, label %for.body.i.i, !llvm.loop !6

invoke.cont27:                                    ; preds = %_ZN15ref_vector_coreI4expr19ref_manager_wrapperIS0_11ast_managerEE9push_backEPS0_.exit.i.i, %_ZNK6vectorIP4exprLb0EjE4sizeEv.exit.i, %for.end
  store ptr null, ptr %mdl, align 8
  %call31 = invoke noundef i32 @_ZN15parallel_tactic5solveER3refI5modelE(ptr noundef nonnull align 8 dereferenceable(344) %this, ptr noundef nonnull align 8 dereferenceable(8) %mdl)
          to label %invoke.cont30 unwind label %lpad29

invoke.cont30:                                    ; preds = %invoke.cont27
  switch i32 %call31, label %sw.epilog [
    i32 1, label %sw.bb
    i32 -1, label %sw.bb52
    i32 0, label %sw.bb92
  ]

lpad29:                                           ; preds = %if.end.i.i.i.i.i, %if.then.i.i75, %sw.bb92, %if.then.i.i.i.i40, %invoke.cont48, %if.end86, %if.then55, %invoke.cont46, %if.then39, %sw.bb, %invoke.cont27
  %24 = landingpad { ptr, i32 }
          cleanup
  br label %ehcleanup132

sw.bb:                                            ; preds = %invoke.cont30
  %25 = load ptr, ptr %g, align 8
  invoke void @_ZN4goal5resetEv(ptr noundef nonnull align 8 dereferenceable(124) %25)
          to label %invoke.cont34 unwind label %lpad29

invoke.cont34:                                    ; preds = %sw.bb
  %26 = load ptr, ptr %g, align 8
  %m_models_enabled.i = getelementptr inbounds %class.goal, ptr %26, i64 0, i32 10
  %bf.load.i = load i32, ptr %m_models_enabled.i, align 8
  %27 = and i32 %bf.load.i, 67108864
  %tobool.i.not = icmp eq i32 %27, 0
  br i1 %tobool.i.not, label %if.then.i.i.i71, label %if.then39

if.then39:                                        ; preds = %invoke.cont34
  %28 = load ptr, ptr %fmc, align 8
  %29 = load ptr, ptr %mdl, align 8
  %call47 = invoke noundef ptr @_Z21model2model_converterP5model(ptr noundef %29)
          to label %invoke.cont46 unwind label %lpad29

invoke.cont46:                                    ; preds = %if.then39
  %call49 = invoke noundef ptr @_Z6concatP15model_converterS0_(ptr noundef %28, ptr noundef %call47)
          to label %invoke.cont48 unwind label %lpad29

invoke.cont48:                                    ; preds = %invoke.cont46
  %m_mc.i = getelementptr inbounds %class.goal, ptr %26, i64 0, i32 1
  %30 = load ptr, ptr %m_mc.i, align 8
  %call2.i41 = invoke noundef ptr @_Z6concatP15model_converterS0_(ptr noundef %30, ptr noundef %call49)
          to label %call2.i.noexc unwind label %lpad29

call2.i.noexc:                                    ; preds = %invoke.cont48
  %tobool.not.i.i = icmp eq ptr %call2.i41, null
  br i1 %tobool.not.i.i, label %if.end.i.i, label %if.then.i.i

if.then.i.i:                                      ; preds = %call2.i.noexc
  %m_ref_count.i.i.i = getelementptr inbounds %class.converter, ptr %call2.i41, i64 0, i32 1
  %31 = load i32, ptr %m_ref_count.i.i.i, align 8
  %inc.i.i.i = add i32 %31, 1
  store i32 %inc.i.i.i, ptr %m_ref_count.i.i.i, align 8
  br label %if.end.i.i

if.end.i.i:                                       ; preds = %if.then.i.i, %call2.i.noexc
  %32 = load ptr, ptr %m_mc.i, align 8
  %tobool.not.i.i.i = icmp eq ptr %32, null
  br i1 %tobool.not.i.i.i, label %_ZN4goal3addEP15model_converter.exit, label %if.then.i.i.i

if.then.i.i.i:                                    ; preds = %if.end.i.i
  %m_ref_count.i.i.i.i = getelementptr inbounds %class.converter, ptr %32, i64 0, i32 1
  %33 = load i32, ptr %m_ref_count.i.i.i.i, align 8
  %dec.i.i.i.i = add i32 %33, -1
  store i32 %dec.i.i.i.i, ptr %m_ref_count.i.i.i.i, align 8
  %cmp.i.i.i.i39 = icmp eq i32 %dec.i.i.i.i, 0
  br i1 %cmp.i.i.i.i39, label %if.then.i.i.i.i40, label %_ZN4goal3addEP15model_converter.exit

if.then.i.i.i.i40:                                ; preds = %if.then.i.i.i
  %vtable.i.i.i.i.i = load ptr, ptr %32, align 8
  %34 = load ptr, ptr %vtable.i.i.i.i.i, align 8
  call void %34(ptr noundef nonnull align 8 dereferenceable(12) %32) #18
  invoke void @_ZN6memory10deallocateEPv(ptr noundef nonnull %32)
          to label %_ZN4goal3addEP15model_converter.exit unwind label %lpad29

_ZN4goal3addEP15model_converter.exit:             ; preds = %if.then.i.i.i.i40, %if.end.i.i, %if.then.i.i.i
  store ptr %call2.i41, ptr %m_mc.i, align 8
  br label %sw.epilog

sw.bb52:                                          ; preds = %invoke.cont30
  %m_core = getelementptr inbounds %class.parallel_tactic, ptr %this, i64 0, i32 6
  %35 = load ptr, ptr %m_core, align 8
  %cmp.i43.not = icmp eq ptr %35, null
  br i1 %cmp.i43.not, label %if.end86, label %if.then55

if.then55:                                        ; preds = %sw.bb52
  %36 = load ptr, ptr %35, align 8
  invoke void @_ZN15ast_translationC2ER11ast_managerS1_b(ptr noundef nonnull align 8 dereferenceable(84) %tr, ptr noundef nonnull align 8 dereferenceable(976) %36, ptr noundef nonnull align 8 dereferenceable(976) %2, i1 noundef zeroext true)
          to label %invoke.cont61 unwind label %lpad29

invoke.cont61:                                    ; preds = %if.then55
  %37 = load ptr, ptr %m_core, align 8
  invoke void @_ZN15ast_translationclI4exprEE10ref_vectorIT_11ast_managerERKS5_(ptr nonnull sret(%class.ref_vector) align 8 %core, ptr noundef nonnull align 8 dereferenceable(84) %tr, ptr noundef nonnull align 8 dereferenceable(16) %37)
          to label %invoke.cont68 unwind label %lpad63

invoke.cont68:                                    ; preds = %invoke.cont61
  %m_nodes.i44 = getelementptr inbounds %class.ref_vector_core.6, ptr %core, i64 0, i32 1
  %38 = load ptr, ptr %m_nodes.i44, align 8
  %cmp.i.i.i46 = icmp eq ptr %38, null
  br i1 %cmp.i.i.i46, label %_ZN10ref_vectorI4expr11ast_managerED2Ev.exit, label %_ZNK15ref_vector_coreI4expr19ref_manager_wrapperIS0_11ast_managerEE3endEv.exit51

_ZNK15ref_vector_coreI4expr19ref_manager_wrapperIS0_11ast_managerEE3endEv.exit51: ; preds = %invoke.cont68
  %arrayidx.i.i.i48 = getelementptr inbounds i32, ptr %38, i64 -1
  %39 = load i32, ptr %arrayidx.i.i.i48, align 4
  %40 = zext i32 %39 to i64
  %add.ptr.i50 = getelementptr inbounds ptr, ptr %38, i64 %40
  %cmp73.not148 = icmp eq i32 %39, 0
  br i1 %cmp73.not148, label %_ZNK6vectorIP4exprLb0EjE4sizeEv.exit.i.i, label %for.body74.lr.ph

for.body74.lr.ph:                                 ; preds = %_ZNK15ref_vector_coreI4expr19ref_manager_wrapperIS0_11ast_managerEE3endEv.exit51
  %m_allocator.i.i = getelementptr inbounds %class.ast_manager, ptr %2, i64 0, i32 4, i32 1
  br label %for.body74

for.body74:                                       ; preds = %for.body74.lr.ph, %invoke.cont79
  %__begin3.0150 = phi ptr [ %38, %for.body74.lr.ph ], [ %incdec.ptr82, %invoke.cont79 ]
  %lcore.0149 = phi ptr [ null, %for.body74.lr.ph ], [ %retval.0.i.i, %invoke.cont79 ]
  %41 = load ptr, ptr %__begin3.0150, align 8
  %m_hash.i.i.i.i.i.i.i = getelementptr inbounds %class.ast, ptr %41, i64 0, i32 3
  %42 = load i32, ptr %m_hash.i.i.i.i.i.i.i, align 4
  %43 = load i32, ptr %m_capacity.i.i, align 8
  %sub.i.i.i = add i32 %43, -1
  %and.i.i.i = and i32 %sub.i.i.i, %42
  %44 = load ptr, ptr %bool2dep, align 8
  %idx.ext.i.i.i = zext i32 %and.i.i.i to i64
  %add.ptr.i.i.i = getelementptr inbounds %"class.obj_map<expr, expr *>::obj_map_entry", ptr %44, i64 %idx.ext.i.i.i
  %idx.ext4.i.i.i = zext i32 %43 to i64
  %add.ptr5.i.i.i = getelementptr inbounds %"class.obj_map<expr, expr *>::obj_map_entry", ptr %44, i64 %idx.ext4.i.i.i
  %cmp.not30.i.i.i = icmp eq i32 %and.i.i.i, %43
  br i1 %cmp.not30.i.i.i, label %for.cond18.preheader.i.i.i, label %for.body.i.i.i

for.cond18.preheader.i.i.i:                       ; preds = %for.inc.i.i.i, %for.body74
  %cmp19.not32.i.i.i = icmp ne i32 %and.i.i.i, 0
  br label %for.body20.i.i.i

for.body.i.i.i:                                   ; preds = %for.body74, %for.inc.i.i.i
  %curr.031.i.i.i = phi ptr [ %incdec.ptr.i.i.i, %for.inc.i.i.i ], [ %add.ptr.i.i.i, %for.body74 ]
  %45 = load ptr, ptr %curr.031.i.i.i, align 8
  %cond = icmp eq ptr %45, inttoptr (i64 1 to ptr)
  br i1 %cond, label %for.inc.i.i.i, label %if.then.i.i.i53

if.then.i.i.i53:                                  ; preds = %for.body.i.i.i
  %m_hash.i.i.i.i.i.i = getelementptr inbounds %class.ast, ptr %45, i64 0, i32 3
  %46 = load i32, ptr %m_hash.i.i.i.i.i.i, align 4
  %cmp8.i.i.i = icmp eq i32 %46, %42
  %cmp.i.i.i.i.i.i = icmp eq ptr %45, %41
  %or.cond.i.i.i = and i1 %cmp.i.i.i.i.i.i, %cmp8.i.i.i
  br i1 %or.cond.i.i.i, label %invoke.cont75, label %for.inc.i.i.i

for.inc.i.i.i:                                    ; preds = %for.body.i.i.i, %if.then.i.i.i53
  %incdec.ptr.i.i.i = getelementptr inbounds %"class.obj_map<expr, expr *>::obj_map_entry", ptr %curr.031.i.i.i, i64 1
  %cmp.not.i.i.i = icmp eq ptr %incdec.ptr.i.i.i, %add.ptr5.i.i.i
  br i1 %cmp.not.i.i.i, label %for.cond18.preheader.i.i.i, label %for.body.i.i.i, !llvm.loop !7

for.body20.i.i.i:                                 ; preds = %for.inc36.i.i.i, %for.cond18.preheader.i.i.i
  %cmp19.not.i.i.i.sink = phi i1 [ %cmp19.not.i.i.i, %for.inc36.i.i.i ], [ %cmp19.not32.i.i.i, %for.cond18.preheader.i.i.i ]
  %curr.133.i.i.i = phi ptr [ %incdec.ptr37.i.i.i, %for.inc36.i.i.i ], [ %44, %for.cond18.preheader.i.i.i ]
  call void @llvm.assume(i1 %cmp19.not.i.i.i.sink)
  %47 = load ptr, ptr %curr.133.i.i.i, align 8
  %cond139 = icmp eq ptr %47, inttoptr (i64 1 to ptr)
  br i1 %cond139, label %for.inc36.i.i.i, label %if.then22.i.i.i

if.then22.i.i.i:                                  ; preds = %for.body20.i.i.i
  %m_hash.i.i.i22.i.i.i = getelementptr inbounds %class.ast, ptr %47, i64 0, i32 3
  %48 = load i32, ptr %m_hash.i.i.i22.i.i.i, align 4
  %cmp24.i.i.i = icmp eq i32 %48, %42
  %cmp.i.i.i23.i.i.i = icmp eq ptr %47, %41
  %or.cond26.i.i.i = and i1 %cmp.i.i.i23.i.i.i, %cmp24.i.i.i
  br i1 %or.cond26.i.i.i, label %invoke.cont75, label %for.inc36.i.i.i

for.inc36.i.i.i:                                  ; preds = %for.body20.i.i.i, %if.then22.i.i.i
  %incdec.ptr37.i.i.i = getelementptr inbounds %"class.obj_map<expr, expr *>::obj_map_entry", ptr %curr.133.i.i.i, i64 1
  %cmp19.not.i.i.i = icmp ne ptr %incdec.ptr37.i.i.i, %add.ptr.i.i.i
  br label %for.body20.i.i.i

invoke.cont75:                                    ; preds = %if.then.i.i.i53, %if.then22.i.i.i
  %retval.0.i.i.i52 = phi ptr [ %curr.133.i.i.i, %if.then22.i.i.i ], [ %curr.031.i.i.i, %if.then.i.i.i53 ]
  %m_value.i = getelementptr inbounds %"struct.obj_map<expr, expr *>::key_data", ptr %retval.0.i.i.i52, i64 0, i32 1
  %49 = load ptr, ptr %m_value.i, align 8
  %call78 = invoke noundef ptr @_ZN11ast_manager7mk_leafEP4expr(ptr noundef nonnull align 8 dereferenceable(976) %2, ptr noundef %49)
          to label %invoke.cont77 unwind label %lpad67

invoke.cont77:                                    ; preds = %invoke.cont75
  %cmp.i.i54 = icmp eq ptr %lcore.0149, null
  br i1 %cmp.i.i54, label %invoke.cont79, label %if.else.i.i

if.else.i.i:                                      ; preds = %invoke.cont77
  %cmp2.i.i = icmp eq ptr %call78, null
  %cmp5.i.i = icmp eq ptr %lcore.0149, %call78
  %or.cond.i.i = or i1 %cmp2.i.i, %cmp5.i.i
  br i1 %or.cond.i.i, label %invoke.cont79, label %_ZN18dependency_managerIN11ast_manager22expr_dependency_configEE7inc_refEPNS2_10dependencyE.exit17.i.i

_ZN18dependency_managerIN11ast_manager22expr_dependency_configEE7inc_refEPNS2_10dependencyE.exit17.i.i: ; preds = %if.else.i.i
  %50 = load ptr, ptr %m_allocator.i.i, align 8
  %call.i.i56 = invoke noundef ptr @_ZN22small_object_allocator8allocateEm(ptr noundef nonnull align 8 dereferenceable(520) %50, i64 noundef 24)
          to label %call.i.i.noexc unwind label %lpad67

call.i.i.noexc:                                   ; preds = %_ZN18dependency_managerIN11ast_manager22expr_dependency_configEE7inc_refEPNS2_10dependencyE.exit17.i.i
  %bf.load.i.i.i = load i32, ptr %lcore.0149, align 4
  %inc.i.i.i55 = add i32 %bf.load.i.i.i, 1
  %bf.value.i.i.i = and i32 %inc.i.i.i55, 1073741823
  %bf.clear3.i.i.i = and i32 %bf.load.i.i.i, -1073741824
  %bf.set.i.i.i = or disjoint i32 %bf.value.i.i.i, %bf.clear3.i.i.i
  store i32 %bf.set.i.i.i, ptr %lcore.0149, align 4
  %bf.load.i12.i.i = load i32, ptr %call78, align 4
  %inc.i13.i.i = add i32 %bf.load.i12.i.i, 1
  %bf.value.i14.i.i = and i32 %inc.i13.i.i, 1073741823
  %bf.clear3.i15.i.i = and i32 %bf.load.i12.i.i, -1073741824
  %bf.set.i16.i.i = or disjoint i32 %bf.value.i14.i.i, %bf.clear3.i15.i.i
  store i32 %bf.set.i16.i.i, ptr %call78, align 4
  store i32 0, ptr %call.i.i56, align 4
  %m_children.i.i.i = getelementptr inbounds %"struct.dependency_manager<ast_manager::expr_dependency_config>::join", ptr %call.i.i56, i64 0, i32 1
  store ptr %lcore.0149, ptr %m_children.i.i.i, align 8
  %arrayidx3.i.i.i = getelementptr inbounds %"struct.dependency_manager<ast_manager::expr_dependency_config>::join", ptr %call.i.i56, i64 0, i32 1, i64 1
  store ptr %call78, ptr %arrayidx3.i.i.i, align 8
  br label %invoke.cont79

invoke.cont79:                                    ; preds = %call.i.i.noexc, %if.else.i.i, %invoke.cont77
  %retval.0.i.i = phi ptr [ %call.i.i56, %call.i.i.noexc ], [ %call78, %invoke.cont77 ], [ %lcore.0149, %if.else.i.i ]
  %incdec.ptr82 = getelementptr inbounds ptr, ptr %__begin3.0150, i64 1
  %cmp73.not = icmp eq ptr %incdec.ptr82, %add.ptr.i50
  br i1 %cmp73.not, label %for.end83, label %for.body74

lpad63:                                           ; preds = %invoke.cont61
  %51 = landingpad { ptr, i32 }
          cleanup
  br label %ehcleanup85

lpad67:                                           ; preds = %_ZN18dependency_managerIN11ast_manager22expr_dependency_configEE7inc_refEPNS2_10dependencyE.exit17.i.i, %invoke.cont75
  %52 = landingpad { ptr, i32 }
          cleanup
  call void @_ZN10ref_vectorI4expr11ast_managerED2Ev(ptr noundef nonnull align 8 dereferenceable(16) %core) #18
  br label %ehcleanup85

for.end83:                                        ; preds = %invoke.cont79
  %.pre = load ptr, ptr %m_nodes.i44, align 8
  %cmp.i.i.i58 = icmp eq ptr %.pre, null
  br i1 %cmp.i.i.i58, label %_ZN10ref_vectorI4expr11ast_managerED2Ev.exit, label %_ZNK6vectorIP4exprLb0EjE4sizeEv.exit.i.i

_ZNK6vectorIP4exprLb0EjE4sizeEv.exit.i.i:         ; preds = %_ZNK15ref_vector_coreI4expr19ref_manager_wrapperIS0_11ast_managerEE3endEv.exit51, %for.end83
  %lcore.0.lcssa165 = phi ptr [ %retval.0.i.i, %for.end83 ], [ null, %_ZNK15ref_vector_coreI4expr19ref_manager_wrapperIS0_11ast_managerEE3endEv.exit51 ]
  %53 = phi ptr [ %.pre, %for.end83 ], [ %38, %_ZNK15ref_vector_coreI4expr19ref_manager_wrapperIS0_11ast_managerEE3endEv.exit51 ]
  %arrayidx.i.i.i59 = getelementptr inbounds i32, ptr %53, i64 -1
  %54 = load i32, ptr %arrayidx.i.i.i59, align 4
  %55 = zext i32 %54 to i64
  %add.ptr.i.i = getelementptr inbounds ptr, ptr %53, i64 %55
  %cmp3.i.not.i.i = icmp eq i32 %54, 0
  br i1 %cmp3.i.not.i.i, label %if.then.i.i.i.i.i, label %for.body.i.i.i60

for.body.i.i.i60:                                 ; preds = %_ZNK6vectorIP4exprLb0EjE4sizeEv.exit.i.i, %_ZN15ref_vector_coreI4expr19ref_manager_wrapperIS0_11ast_managerEE7dec_refEPS0_.exit.i.i.i
  %it.04.i.i.i = phi ptr [ %incdec.ptr.i.i.i65, %_ZN15ref_vector_coreI4expr19ref_manager_wrapperIS0_11ast_managerEE7dec_refEPS0_.exit.i.i.i ], [ %53, %_ZNK6vectorIP4exprLb0EjE4sizeEv.exit.i.i ]
  %56 = load ptr, ptr %it.04.i.i.i, align 8
  %57 = load ptr, ptr %core, align 8
  %tobool.not.i.i.i.i.i.i61 = icmp eq ptr %56, null
  br i1 %tobool.not.i.i.i.i.i.i61, label %_ZN15ref_vector_coreI4expr19ref_manager_wrapperIS0_11ast_managerEE7dec_refEPS0_.exit.i.i.i, label %if.then.i.i.i.i.i.i62

if.then.i.i.i.i.i.i62:                            ; preds = %for.body.i.i.i60
  %m_ref_count.i.i.i.i.i.i.i63 = getelementptr inbounds %class.ast, ptr %56, i64 0, i32 2
  %58 = load i32, ptr %m_ref_count.i.i.i.i.i.i.i63, align 4
  %dec.i.i.i.i.i.i.i = add i32 %58, -1
  store i32 %dec.i.i.i.i.i.i.i, ptr %m_ref_count.i.i.i.i.i.i.i63, align 4
  %cmp.i.i.i.i.i.i64 = icmp eq i32 %dec.i.i.i.i.i.i.i, 0
  br i1 %cmp.i.i.i.i.i.i64, label %if.then2.i.i.i.i.i.i, label %_ZN15ref_vector_coreI4expr19ref_manager_wrapperIS0_11ast_managerEE7dec_refEPS0_.exit.i.i.i

if.then2.i.i.i.i.i.i:                             ; preds = %if.then.i.i.i.i.i.i62
  invoke void @_ZN11ast_manager11delete_nodeEP3ast(ptr noundef nonnull align 8 dereferenceable(976) %57, ptr noundef nonnull %56)
          to label %_ZN15ref_vector_coreI4expr19ref_manager_wrapperIS0_11ast_managerEE7dec_refEPS0_.exit.i.i.i unwind label %terminate.lpad.i.i

_ZN15ref_vector_coreI4expr19ref_manager_wrapperIS0_11ast_managerEE7dec_refEPS0_.exit.i.i.i: ; preds = %if.then2.i.i.i.i.i.i, %if.then.i.i.i.i.i.i62, %for.body.i.i.i60
  %incdec.ptr.i.i.i65 = getelementptr inbounds ptr, ptr %it.04.i.i.i, i64 1
  %cmp.i1.i.i = icmp ult ptr %incdec.ptr.i.i.i65, %add.ptr.i.i
  br i1 %cmp.i1.i.i, label %for.body.i.i.i60, label %invoke.cont8.i.i, !llvm.loop !8

invoke.cont8.i.i:                                 ; preds = %_ZN15ref_vector_coreI4expr19ref_manager_wrapperIS0_11ast_managerEE7dec_refEPS0_.exit.i.i.i
  %.pre.i.i = load ptr, ptr %m_nodes.i44, align 8
  %tobool.not.i.i.i.i.i = icmp eq ptr %.pre.i.i, null
  br i1 %tobool.not.i.i.i.i.i, label %_ZN10ref_vectorI4expr11ast_managerED2Ev.exit, label %if.then.i.i.i.i.i

if.then.i.i.i.i.i:                                ; preds = %invoke.cont8.i.i, %_ZNK6vectorIP4exprLb0EjE4sizeEv.exit.i.i
  %59 = phi ptr [ %.pre.i.i, %invoke.cont8.i.i ], [ %53, %_ZNK6vectorIP4exprLb0EjE4sizeEv.exit.i.i ]
  %add.ptr.i.i.i.i.i.i = getelementptr inbounds i32, ptr %59, i64 -2
  invoke void @_ZN6memory10deallocateEPv(ptr noundef nonnull %add.ptr.i.i.i.i.i.i)
          to label %_ZN10ref_vectorI4expr11ast_managerED2Ev.exit unwind label %terminate.lpad.i.i.i.i

terminate.lpad.i.i.i.i:                           ; preds = %if.then.i.i.i.i.i
  %60 = landingpad { ptr, i32 }
          catch ptr null
  %61 = extractvalue { ptr, i32 } %60, 0
  call void @__clang_call_terminate(ptr %61) #19
  unreachable

terminate.lpad.i.i:                               ; preds = %if.then2.i.i.i.i.i.i
  %62 = landingpad { ptr, i32 }
          catch ptr null
  %63 = extractvalue { ptr, i32 } %62, 0
  call void @__clang_call_terminate(ptr %63) #19
  unreachable

_ZN10ref_vectorI4expr11ast_managerED2Ev.exit:     ; preds = %invoke.cont68, %for.end83, %invoke.cont8.i.i, %if.then.i.i.i.i.i
  %lcore.0.lcssa161 = phi ptr [ %retval.0.i.i, %for.end83 ], [ %lcore.0.lcssa165, %invoke.cont8.i.i ], [ %lcore.0.lcssa165, %if.then.i.i.i.i.i ], [ null, %invoke.cont68 ]
  call void @_ZN15ast_translationD1Ev(ptr noundef nonnull align 8 dereferenceable(84) %tr) #18
  br label %if.end86

ehcleanup85:                                      ; preds = %lpad67, %lpad63
  %.pn27 = phi { ptr, i32 } [ %52, %lpad67 ], [ %51, %lpad63 ]
  call void @_ZN15ast_translationD1Ev(ptr noundef nonnull align 8 dereferenceable(84) %tr) #18
  br label %ehcleanup132

if.end86:                                         ; preds = %_ZN10ref_vectorI4expr11ast_managerED2Ev.exit, %sw.bb52
  %lcore.1 = phi ptr [ %lcore.0.lcssa161, %_ZN10ref_vectorI4expr11ast_managerED2Ev.exit ], [ null, %sw.bb52 ]
  %64 = load ptr, ptr %g, align 8
  %m_false.i = getelementptr inbounds %class.ast_manager, ptr %2, i64 0, i32 16
  %65 = load ptr, ptr %m_false.i, align 8
  invoke void @_ZN4goal11assert_exprEP4exprP3appPN18dependency_managerIN11ast_manager22expr_dependency_configEE10dependencyE(ptr noundef nonnull align 8 dereferenceable(124) %64, ptr noundef %65, ptr noundef null, ptr noundef %lcore.1)
          to label %sw.epilog unwind label %lpad29

sw.bb92:                                          ; preds = %invoke.cont30
  %call2.i67 = invoke noundef zeroext i1 @_ZN8reslimit3incEv(ptr noundef nonnull align 8 dereferenceable(40) %2)
          to label %invoke.cont93 unwind label %lpad29

invoke.cont93:                                    ; preds = %sw.bb92
  br i1 %call2.i67, label %if.end110, label %if.then95

if.then95:                                        ; preds = %invoke.cont93
  %exception96 = call ptr @__cxa_allocate_exception(i64 40) #18
  %66 = load ptr, ptr @_ZN11common_msgs14g_canceled_msgE, align 8
  call void @_ZNSaIcEC1Ev(ptr noundef nonnull align 1 dereferenceable(1) %ref.tmp98) #18
  invoke void @_ZNSt7__cxx1112basic_stringIcSt11char_traitsIcESaIcEEC2IS3_EEPKcRKS3_(ptr noundef nonnull align 8 dereferenceable(32) %ref.tmp97, ptr noundef %66, ptr noundef nonnull align 1 dereferenceable(1) %ref.tmp98)
          to label %invoke.cont100 unwind label %cleanup.action108

invoke.cont100:                                   ; preds = %if.then95
  store ptr getelementptr inbounds ({ [6 x ptr] }, ptr @_ZTV16tactic_exception, i64 0, inrange i32 0, i64 2), ptr %exception96, align 8
  %m_msg.i68 = getelementptr inbounds %class.tactic_exception, ptr %exception96, i64 0, i32 1
  call void @_ZNSt7__cxx1112basic_stringIcSt11char_traitsIcESaIcEEC1EOS4_(ptr noundef nonnull align 8 dereferenceable(32) %m_msg.i68, ptr noundef nonnull align 8 dereferenceable(32) %ref.tmp97) #18
  invoke void @__cxa_throw(ptr nonnull %exception96, ptr nonnull @_ZTI16tactic_exception, ptr nonnull @_ZN16tactic_exceptionD2Ev) #21
          to label %unreachable unwind label %ehcleanup105

ehcleanup105:                                     ; preds = %invoke.cont100
  %67 = landingpad { ptr, i32 }
          cleanup
  call void @_ZNSt7__cxx1112basic_stringIcSt11char_traitsIcESaIcEED1Ev(ptr noundef nonnull align 8 dereferenceable(32) %ref.tmp97) #18
  call void @_ZNSaIcED1Ev(ptr noundef nonnull align 1 dereferenceable(1) %ref.tmp98) #18
  br label %ehcleanup132

cleanup.action108:                                ; preds = %if.then95
  %68 = landingpad { ptr, i32 }
          cleanup
  call void @_ZNSaIcED1Ev(ptr noundef nonnull align 1 dereferenceable(1) %ref.tmp98) #18
  call void @__cxa_free_exception(ptr %exception96) #18
  br label %ehcleanup132

if.end110:                                        ; preds = %invoke.cont93
  %m_has_undef = getelementptr inbounds %class.parallel_tactic, ptr %this, i64 0, i32 15
  %69 = load atomic i8, ptr %m_has_undef seq_cst, align 4
  %70 = and i8 %69, 1
  %tobool.i.i.not = icmp eq i8 %70, 0
  br i1 %tobool.i.i.not, label %sw.epilog, label %if.then112

if.then112:                                       ; preds = %if.end110
  %exception113 = call ptr @__cxa_allocate_exception(i64 40) #18
  %m_reason_undef = getelementptr inbounds %class.parallel_tactic, ptr %this, i64 0, i32 21
  %call115 = call noundef ptr @_ZNKSt7__cxx1112basic_stringIcSt11char_traitsIcESaIcEE5c_strEv(ptr noundef nonnull align 8 dereferenceable(32) %m_reason_undef) #18
  call void @_ZNSaIcEC1Ev(ptr noundef nonnull align 1 dereferenceable(1) %ref.tmp116) #18
  invoke void @_ZNSt7__cxx1112basic_stringIcSt11char_traitsIcESaIcEEC2IS3_EEPKcRKS3_(ptr noundef nonnull align 8 dereferenceable(32) %ref.tmp114, ptr noundef %call115, ptr noundef nonnull align 1 dereferenceable(1) %ref.tmp116)
          to label %invoke.cont118 unwind label %cleanup.action126

invoke.cont118:                                   ; preds = %if.then112
  store ptr getelementptr inbounds ({ [6 x ptr] }, ptr @_ZTV16tactic_exception, i64 0, inrange i32 0, i64 2), ptr %exception113, align 8
  %m_msg.i69 = getelementptr inbounds %class.tactic_exception, ptr %exception113, i64 0, i32 1
  call void @_ZNSt7__cxx1112basic_stringIcSt11char_traitsIcESaIcEEC1EOS4_(ptr noundef nonnull align 8 dereferenceable(32) %m_msg.i69, ptr noundef nonnull align 8 dereferenceable(32) %ref.tmp114) #18
  invoke void @__cxa_throw(ptr nonnull %exception113, ptr nonnull @_ZTI16tactic_exception, ptr nonnull @_ZN16tactic_exceptionD2Ev) #21
          to label %unreachable unwind label %ehcleanup123

ehcleanup123:                                     ; preds = %invoke.cont118
  %71 = landingpad { ptr, i32 }
          cleanup
  call void @_ZNSt7__cxx1112basic_stringIcSt11char_traitsIcESaIcEED1Ev(ptr noundef nonnull align 8 dereferenceable(32) %ref.tmp114) #18
  call void @_ZNSaIcED1Ev(ptr noundef nonnull align 1 dereferenceable(1) %ref.tmp116) #18
  br label %ehcleanup132

cleanup.action126:                                ; preds = %if.then112
  %72 = landingpad { ptr, i32 }
          cleanup
  call void @_ZNSaIcED1Ev(ptr noundef nonnull align 1 dereferenceable(1) %ref.tmp116) #18
  call void @__cxa_free_exception(ptr %exception113) #18
  br label %ehcleanup132

sw.epilog:                                        ; preds = %_ZN4goal3addEP15model_converter.exit, %if.end110, %if.end86, %invoke.cont30
  %.pr = load ptr, ptr %g, align 8
  %tobool.not.i.i.i70 = icmp eq ptr %.pr, null
  br i1 %tobool.not.i.i.i70, label %_ZN15ref_buffer_coreI4goal21ref_unmanaged_wrapperIS0_ELj16EE7inc_refEPS0_.exit.i, label %if.then.i.i.i71

if.then.i.i.i71:                                  ; preds = %invoke.cont34, %sw.epilog
  %73 = phi ptr [ %.pr, %sw.epilog ], [ %26, %invoke.cont34 ]
  %m_ref_count.i.i.i.i72 = getelementptr inbounds %class.goal, ptr %73, i64 0, i32 4
  %74 = load i32, ptr %m_ref_count.i.i.i.i72, align 8
  %inc.i.i.i.i73 = add i32 %74, 1
  store i32 %inc.i.i.i.i73, ptr %m_ref_count.i.i.i.i72, align 8
  br label %_ZN15ref_buffer_coreI4goal21ref_unmanaged_wrapperIS0_ELj16EE7inc_refEPS0_.exit.i

_ZN15ref_buffer_coreI4goal21ref_unmanaged_wrapperIS0_ELj16EE7inc_refEPS0_.exit.i: ; preds = %if.then.i.i.i71, %sw.epilog
  %75 = phi ptr [ %73, %if.then.i.i.i71 ], [ null, %sw.epilog ]
  %m_pos.i.i = getelementptr inbounds %class.buffer, ptr %result, i64 0, i32 1
  %76 = load i32, ptr %m_pos.i.i, align 8
  %m_capacity.i.i74 = getelementptr inbounds %class.buffer, ptr %result, i64 0, i32 2
  %77 = load i32, ptr %m_capacity.i.i74, align 4
  %cmp.not.i.i = icmp ult i32 %76, %77
  br i1 %cmp.not.i.i, label %entry.if.end_crit_edge.i.i, label %if.then.i.i75

entry.if.end_crit_edge.i.i:                       ; preds = %_ZN15ref_buffer_coreI4goal21ref_unmanaged_wrapperIS0_ELj16EE7inc_refEPS0_.exit.i
  %.pre.i.i80 = load ptr, ptr %result, align 8
  br label %invoke.cont131

if.then.i.i75:                                    ; preds = %_ZN15ref_buffer_coreI4goal21ref_unmanaged_wrapperIS0_ELj16EE7inc_refEPS0_.exit.i
  %shl.i.i.i = shl i32 %77, 1
  %conv.i.i.i = zext i32 %shl.i.i.i to i64
  %mul.i.i.i = shl nuw nsw i64 %conv.i.i.i, 3
  %call.i.i.i81 = invoke noalias noundef ptr @_ZN6memory8allocateEm(i64 noundef %mul.i.i.i)
          to label %call.i.i.i.noexc unwind label %lpad29

call.i.i.i.noexc:                                 ; preds = %if.then.i.i75
  %78 = load i32, ptr %m_pos.i.i, align 8
  %cmp6.not.i.i.i = icmp eq i32 %78, 0
  %.pre.i.i.i = load ptr, ptr %result, align 8
  br i1 %cmp6.not.i.i.i, label %for.end.i.i.i, label %for.body.lr.ph.i.i.i

for.body.lr.ph.i.i.i:                             ; preds = %call.i.i.i.noexc
  %wide.trip.count.i.i.i = zext i32 %78 to i64
  br label %for.body.i.i.i76

for.body.i.i.i76:                                 ; preds = %for.body.i.i.i76, %for.body.lr.ph.i.i.i
  %indvars.iv.i.i.i = phi i64 [ 0, %for.body.lr.ph.i.i.i ], [ %indvars.iv.next.i.i.i, %for.body.i.i.i76 ]
  %arrayidx.i.i.i77 = getelementptr inbounds ptr, ptr %call.i.i.i81, i64 %indvars.iv.i.i.i
  %arrayidx3.i.i.i78 = getelementptr inbounds ptr, ptr %.pre.i.i.i, i64 %indvars.iv.i.i.i
  %79 = load ptr, ptr %arrayidx3.i.i.i78, align 8
  store ptr %79, ptr %arrayidx.i.i.i77, align 8
  %indvars.iv.next.i.i.i = add nuw nsw i64 %indvars.iv.i.i.i, 1
  %exitcond.not.i.i.i = icmp eq i64 %indvars.iv.next.i.i.i, %wide.trip.count.i.i.i
  br i1 %exitcond.not.i.i.i, label %for.end.i.i.i, label %for.body.i.i.i76, !llvm.loop !9

for.end.i.i.i:                                    ; preds = %for.body.i.i.i76, %call.i.i.i.noexc
  %m_initial_buffer.i.i.i.i = getelementptr inbounds %class.buffer, ptr %result, i64 0, i32 3
  %cmp.not.i.i.i.i = icmp eq ptr %.pre.i.i.i, %m_initial_buffer.i.i.i.i
  %cmp.i.i.i.i.i = icmp eq ptr %.pre.i.i.i, null
  %or.cond.i.i.i.i = or i1 %cmp.not.i.i.i.i, %cmp.i.i.i.i.i
  br i1 %or.cond.i.i.i.i, label %_ZN6bufferIP4goalLb0ELj16EE6expandEv.exit.i.i, label %if.end.i.i.i.i.i

if.end.i.i.i.i.i:                                 ; preds = %for.end.i.i.i
  invoke void @_ZN6memory10deallocateEPv(ptr noundef nonnull %.pre.i.i.i)
          to label %.noexc82 unwind label %lpad29

.noexc82:                                         ; preds = %if.end.i.i.i.i.i
  %.pre1.pre.i.i = load i32, ptr %m_pos.i.i, align 8
  br label %_ZN6bufferIP4goalLb0ELj16EE6expandEv.exit.i.i

_ZN6bufferIP4goalLb0ELj16EE6expandEv.exit.i.i:    ; preds = %.noexc82, %for.end.i.i.i
  %.pre1.i.i = phi i32 [ %78, %for.end.i.i.i ], [ %.pre1.pre.i.i, %.noexc82 ]
  store ptr %call.i.i.i81, ptr %result, align 8
  store i32 %shl.i.i.i, ptr %m_capacity.i.i74, align 4
  br label %invoke.cont131

invoke.cont131:                                   ; preds = %_ZN6bufferIP4goalLb0ELj16EE6expandEv.exit.i.i, %entry.if.end_crit_edge.i.i
  %80 = phi i32 [ %76, %entry.if.end_crit_edge.i.i ], [ %.pre1.i.i, %_ZN6bufferIP4goalLb0ELj16EE6expandEv.exit.i.i ]
  %81 = phi ptr [ %.pre.i.i80, %entry.if.end_crit_edge.i.i ], [ %call.i.i.i81, %_ZN6bufferIP4goalLb0ELj16EE6expandEv.exit.i.i ]
  %idx.ext.i.i = zext i32 %80 to i64
  %add.ptr.i.i79 = getelementptr inbounds ptr, ptr %81, i64 %idx.ext.i.i
  store ptr %75, ptr %add.ptr.i.i79, align 8
  %82 = load i32, ptr %m_pos.i.i, align 8
  %inc.i.i = add i32 %82, 1
  store i32 %inc.i.i, ptr %m_pos.i.i, align 8
  %83 = load ptr, ptr %mdl, align 8
  %tobool.not.i.i83 = icmp eq ptr %83, null
  br i1 %tobool.not.i.i83, label %_ZN3refI5modelED2Ev.exit, label %if.then.i.i84

if.then.i.i84:                                    ; preds = %invoke.cont131
  %m_ref_count.i.i.i85 = getelementptr inbounds %class.model_core, ptr %83, i64 0, i32 2
  %84 = load i32, ptr %m_ref_count.i.i.i85, align 8
  %dec.i.i.i = add i32 %84, -1
  store i32 %dec.i.i.i, ptr %m_ref_count.i.i.i85, align 8
  %cmp.i.i.i86 = icmp eq i32 %dec.i.i.i, 0
  br i1 %cmp.i.i.i86, label %if.then.i.i.i87, label %_ZN3refI5modelED2Ev.exit

if.then.i.i.i87:                                  ; preds = %if.then.i.i84
  %vtable.i.i.i.i = load ptr, ptr %83, align 8
  %85 = load ptr, ptr %vtable.i.i.i.i, align 8
  call void %85(ptr noundef nonnull align 8 dereferenceable(96) %83) #18
  invoke void @_ZN6memory10deallocateEPv(ptr noundef nonnull %83)
          to label %_ZN3refI5modelED2Ev.exit unwind label %terminate.lpad.i

terminate.lpad.i:                                 ; preds = %if.then.i.i.i87
  %86 = landingpad { ptr, i32 }
          catch ptr null
  %87 = extractvalue { ptr, i32 } %86, 0
  call void @__clang_call_terminate(ptr %87) #19
  unreachable

_ZN3refI5modelED2Ev.exit:                         ; preds = %invoke.cont131, %if.then.i.i84, %if.then.i.i.i87
  %88 = load ptr, ptr %fmc, align 8
  %tobool.not.i.i88 = icmp eq ptr %88, null
  br i1 %tobool.not.i.i88, label %_ZN3refI23generic_model_converterED2Ev.exit, label %if.then.i.i89

if.then.i.i89:                                    ; preds = %_ZN3refI5modelED2Ev.exit
  %m_ref_count.i.i.i90 = getelementptr inbounds %class.converter, ptr %88, i64 0, i32 1
  %89 = load i32, ptr %m_ref_count.i.i.i90, align 8
  %dec.i.i.i91 = add i32 %89, -1
  store i32 %dec.i.i.i91, ptr %m_ref_count.i.i.i90, align 8
  %cmp.i.i.i92 = icmp eq i32 %dec.i.i.i91, 0
  br i1 %cmp.i.i.i92, label %if.then.i.i.i93, label %_ZN3refI23generic_model_converterED2Ev.exit

if.then.i.i.i93:                                  ; preds = %if.then.i.i89
  %vtable.i.i.i.i94 = load ptr, ptr %88, align 8
  %90 = load ptr, ptr %vtable.i.i.i.i94, align 8
  call void %90(ptr noundef nonnull align 8 dereferenceable(12) %88) #18
  invoke void @_ZN6memory10deallocateEPv(ptr noundef nonnull %88)
          to label %_ZN3refI23generic_model_converterED2Ev.exit unwind label %terminate.lpad.i95

terminate.lpad.i95:                               ; preds = %if.then.i.i.i93
  %91 = landingpad { ptr, i32 }
          catch ptr null
  %92 = extractvalue { ptr, i32 } %91, 0
  call void @__clang_call_terminate(ptr %92) #19
  unreachable

_ZN3refI23generic_model_converterED2Ev.exit:      ; preds = %_ZN3refI5modelED2Ev.exit, %if.then.i.i89, %if.then.i.i.i93
  %93 = load ptr, ptr %bool2dep, align 8
  %cmp.i.i.i.i96 = icmp eq ptr %93, null
  br i1 %cmp.i.i.i.i96, label %_ZN7obj_mapI4exprPS0_ED2Ev.exit, label %for.cond.preheader.i.i.i.i

for.cond.preheader.i.i.i.i:                       ; preds = %_ZN3refI23generic_model_converterED2Ev.exit
  invoke void @_ZN6memory10deallocateEPv(ptr noundef nonnull %93)
          to label %_ZN7obj_mapI4exprPS0_ED2Ev.exit unwind label %terminate.lpad.i.i97

terminate.lpad.i.i97:                             ; preds = %for.cond.preheader.i.i.i.i
  %94 = landingpad { ptr, i32 }
          catch ptr null
  %95 = extractvalue { ptr, i32 } %94, 0
  call void @__clang_call_terminate(ptr %95) #19
  unreachable

_ZN7obj_mapI4exprPS0_ED2Ev.exit:                  ; preds = %_ZN3refI23generic_model_converterED2Ev.exit, %for.cond.preheader.i.i.i.i
  store ptr null, ptr %bool2dep, align 8
  %96 = load ptr, ptr %assumptions, align 8
  %tobool.not.i.i.i98 = icmp eq ptr %96, null
  br i1 %tobool.not.i.i.i98, label %_ZN10ptr_vectorI4exprED2Ev.exit, label %if.then.i.i.i99

if.then.i.i.i99:                                  ; preds = %_ZN7obj_mapI4exprPS0_ED2Ev.exit
  %add.ptr.i.i.i.i100 = getelementptr inbounds i32, ptr %96, i64 -2
  invoke void @_ZN6memory10deallocateEPv(ptr noundef nonnull %add.ptr.i.i.i.i100)
          to label %_ZN10ptr_vectorI4exprED2Ev.exit unwind label %terminate.lpad.i.i101

terminate.lpad.i.i101:                            ; preds = %if.then.i.i.i99
  %97 = landingpad { ptr, i32 }
          catch ptr null
  %98 = extractvalue { ptr, i32 } %97, 0
  call void @__clang_call_terminate(ptr %98) #19
  unreachable

_ZN10ptr_vectorI4exprED2Ev.exit:                  ; preds = %_ZN7obj_mapI4exprPS0_ED2Ev.exit, %if.then.i.i.i99
  %99 = load ptr, ptr %m_nodes.i.i, align 8
  %cmp.i.i.i103 = icmp eq ptr %99, null
  br i1 %cmp.i.i.i103, label %_ZN10ref_vectorI4expr11ast_managerED2Ev.exit126, label %_ZNK6vectorIP4exprLb0EjE4sizeEv.exit.i.i104

_ZNK6vectorIP4exprLb0EjE4sizeEv.exit.i.i104:      ; preds = %_ZN10ptr_vectorI4exprED2Ev.exit
  %arrayidx.i.i.i105 = getelementptr inbounds i32, ptr %99, i64 -1
  %100 = load i32, ptr %arrayidx.i.i.i105, align 4
  %101 = zext i32 %100 to i64
  %add.ptr.i.i106 = getelementptr inbounds ptr, ptr %99, i64 %101
  %cmp3.i.not.i.i107 = icmp eq i32 %100, 0
  br i1 %cmp3.i.not.i.i107, label %if.then.i.i.i.i.i121, label %for.body.i.i.i108

for.body.i.i.i108:                                ; preds = %_ZNK6vectorIP4exprLb0EjE4sizeEv.exit.i.i104, %_ZN15ref_vector_coreI4expr19ref_manager_wrapperIS0_11ast_managerEE7dec_refEPS0_.exit.i.i.i115
  %it.04.i.i.i109 = phi ptr [ %incdec.ptr.i.i.i116, %_ZN15ref_vector_coreI4expr19ref_manager_wrapperIS0_11ast_managerEE7dec_refEPS0_.exit.i.i.i115 ], [ %99, %_ZNK6vectorIP4exprLb0EjE4sizeEv.exit.i.i104 ]
  %102 = load ptr, ptr %it.04.i.i.i109, align 8
  %103 = load ptr, ptr %clauses, align 8
  %tobool.not.i.i.i.i.i.i110 = icmp eq ptr %102, null
  br i1 %tobool.not.i.i.i.i.i.i110, label %_ZN15ref_vector_coreI4expr19ref_manager_wrapperIS0_11ast_managerEE7dec_refEPS0_.exit.i.i.i115, label %if.then.i.i.i.i.i.i111

if.then.i.i.i.i.i.i111:                           ; preds = %for.body.i.i.i108
  %m_ref_count.i.i.i.i.i.i.i112 = getelementptr inbounds %class.ast, ptr %102, i64 0, i32 2
  %104 = load i32, ptr %m_ref_count.i.i.i.i.i.i.i112, align 4
  %dec.i.i.i.i.i.i.i113 = add i32 %104, -1
  store i32 %dec.i.i.i.i.i.i.i113, ptr %m_ref_count.i.i.i.i.i.i.i112, align 4
  %cmp.i.i.i.i.i.i114 = icmp eq i32 %dec.i.i.i.i.i.i.i113, 0
  br i1 %cmp.i.i.i.i.i.i114, label %if.then2.i.i.i.i.i.i124, label %_ZN15ref_vector_coreI4expr19ref_manager_wrapperIS0_11ast_managerEE7dec_refEPS0_.exit.i.i.i115

if.then2.i.i.i.i.i.i124:                          ; preds = %if.then.i.i.i.i.i.i111
  invoke void @_ZN11ast_manager11delete_nodeEP3ast(ptr noundef nonnull align 8 dereferenceable(976) %103, ptr noundef nonnull %102)
          to label %_ZN15ref_vector_coreI4expr19ref_manager_wrapperIS0_11ast_managerEE7dec_refEPS0_.exit.i.i.i115 unwind label %terminate.lpad.i.i125

_ZN15ref_vector_coreI4expr19ref_manager_wrapperIS0_11ast_managerEE7dec_refEPS0_.exit.i.i.i115: ; preds = %if.then2.i.i.i.i.i.i124, %if.then.i.i.i.i.i.i111, %for.body.i.i.i108
  %incdec.ptr.i.i.i116 = getelementptr inbounds ptr, ptr %it.04.i.i.i109, i64 1
  %cmp.i1.i.i117 = icmp ult ptr %incdec.ptr.i.i.i116, %add.ptr.i.i106
  br i1 %cmp.i1.i.i117, label %for.body.i.i.i108, label %invoke.cont8.i.i118, !llvm.loop !8

invoke.cont8.i.i118:                              ; preds = %_ZN15ref_vector_coreI4expr19ref_manager_wrapperIS0_11ast_managerEE7dec_refEPS0_.exit.i.i.i115
  %.pre.i.i119 = load ptr, ptr %m_nodes.i.i, align 8
  %tobool.not.i.i.i.i.i120 = icmp eq ptr %.pre.i.i119, null
  br i1 %tobool.not.i.i.i.i.i120, label %_ZN10ref_vectorI4expr11ast_managerED2Ev.exit126, label %if.then.i.i.i.i.i121

if.then.i.i.i.i.i121:                             ; preds = %invoke.cont8.i.i118, %_ZNK6vectorIP4exprLb0EjE4sizeEv.exit.i.i104
  %105 = phi ptr [ %.pre.i.i119, %invoke.cont8.i.i118 ], [ %99, %_ZNK6vectorIP4exprLb0EjE4sizeEv.exit.i.i104 ]
  %add.ptr.i.i.i.i.i.i122 = getelementptr inbounds i32, ptr %105, i64 -2
  invoke void @_ZN6memory10deallocateEPv(ptr noundef nonnull %add.ptr.i.i.i.i.i.i122)
          to label %_ZN10ref_vectorI4expr11ast_managerED2Ev.exit126 unwind label %terminate.lpad.i.i.i.i123

terminate.lpad.i.i.i.i123:                        ; preds = %if.then.i.i.i.i.i121
  %106 = landingpad { ptr, i32 }
          catch ptr null
  %107 = extractvalue { ptr, i32 } %106, 0
  call void @__clang_call_terminate(ptr %107) #19
  unreachable

terminate.lpad.i.i125:                            ; preds = %if.then2.i.i.i.i.i.i124
  %108 = landingpad { ptr, i32 }
          catch ptr null
  %109 = extractvalue { ptr, i32 } %108, 0
  call void @__clang_call_terminate(ptr %109) #19
  unreachable

_ZN10ref_vectorI4expr11ast_managerED2Ev.exit126:  ; preds = %_ZN10ptr_vectorI4exprED2Ev.exit, %invoke.cont8.i.i118, %if.then.i.i.i.i.i121
  ret void

ehcleanup132:                                     ; preds = %ehcleanup123, %ehcleanup105, %cleanup.action126, %cleanup.action108, %ehcleanup85, %lpad29
  %.pn29 = phi { ptr, i32 } [ %24, %lpad29 ], [ %72, %cleanup.action126 ], [ %71, %ehcleanup123 ], [ %68, %cleanup.action108 ], [ %67, %ehcleanup105 ], [ %.pn27, %ehcleanup85 ]
  call void @_ZN3refI5modelED2Ev(ptr noundef nonnull align 8 dereferenceable(8) %mdl) #18
  br label %ehcleanup133

ehcleanup133:                                     ; preds = %lpad20.loopexit, %lpad20.loopexit.split-lp.loopexit.split-lp, %lpad20.loopexit.split-lp.loopexit, %ehcleanup132
  %.pn31 = phi { ptr, i32 } [ %.pn29, %ehcleanup132 ], [ %lpad.loopexit, %lpad20.loopexit ], [ %lpad.loopexit141, %lpad20.loopexit.split-lp.loopexit ], [ %lpad.loopexit.split-lp142, %lpad20.loopexit.split-lp.loopexit.split-lp ]
  call void @_ZN3refI23generic_model_converterED2Ev(ptr noundef nonnull align 8 dereferenceable(8) %fmc) #18
  call void @_ZN7obj_mapI4exprPS0_ED2Ev(ptr noundef nonnull align 8 dereferenceable(24) %bool2dep) #18
  br label %ehcleanup135

ehcleanup135:                                     ; preds = %ehcleanup133, %lpad16
  %.pn31.pn = phi { ptr, i32 } [ %.pn31, %ehcleanup133 ], [ %12, %lpad16 ]
  call void @_ZN10ptr_vectorI4exprED2Ev(ptr noundef nonnull align 8 dereferenceable(8) %assumptions) #18
  call void @_ZN10ref_vectorI4expr11ast_managerED2Ev(ptr noundef nonnull align 8 dereferenceable(16) %clauses) #18
  br label %eh.resume

eh.resume:                                        ; preds = %ehcleanup, %cleanup.action, %ehcleanup135
  %.pn34.pn = phi { ptr, i32 } [ %5, %cleanup.action ], [ %4, %ehcleanup ], [ %.pn31.pn, %ehcleanup135 ]
  resume { ptr, i32 } %.pn34.pn

unreachable:                                      ; preds = %invoke.cont118, %invoke.cont100, %invoke.cont
  unreachable
}

; Function Attrs: mustprogress uwtable
define linkonce_odr hidden void @_ZNK15parallel_tactic18collect_statisticsER10statistics(ptr noundef nonnull align 8 dereferenceable(344) %this, ptr noundef nonnull align 8 dereferenceable(16) %st) unnamed_addr #3 comdat align 2 {
entry:
  %m_stats = getelementptr inbounds %class.parallel_tactic, ptr %this, i64 0, i32 8
  tail call void @_ZN10statistics4copyERKS_(ptr noundef nonnull align 8 dereferenceable(16) %st, ptr noundef nonnull align 8 dereferenceable(16) %m_stats)
  %m_num_unsat = getelementptr inbounds %class.parallel_tactic, ptr %this, i64 0, i32 17
  %0 = load i32, ptr %m_num_unsat, align 8
  tail call void @_ZN10statistics6updateEPKcj(ptr noundef nonnull align 8 dereferenceable(16) %st, ptr noundef nonnull @.str.56, i32 noundef %0)
  %m_models = getelementptr inbounds %class.parallel_tactic, ptr %this, i64 0, i32 5
  %1 = load ptr, ptr %m_models, align 8
  %cmp.i.i = icmp eq ptr %1, null
  br i1 %cmp.i.i, label %_ZNK15ref_vector_coreI5model21ref_unmanaged_wrapperIS0_EE4sizeEv.exit, label %if.end.i.i

if.end.i.i:                                       ; preds = %entry
  %arrayidx.i.i = getelementptr inbounds i32, ptr %1, i64 -1
  %2 = load i32, ptr %arrayidx.i.i, align 4
  br label %_ZNK15ref_vector_coreI5model21ref_unmanaged_wrapperIS0_EE4sizeEv.exit

_ZNK15ref_vector_coreI5model21ref_unmanaged_wrapperIS0_EE4sizeEv.exit: ; preds = %entry, %if.end.i.i
  %retval.0.i.i = phi i32 [ %2, %if.end.i.i ], [ 0, %entry ]
  tail call void @_ZN10statistics6updateEPKcj(ptr noundef nonnull align 8 dereferenceable(16) %st, ptr noundef nonnull @.str.57, i32 noundef %retval.0.i.i)
  %m_progress = getelementptr inbounds %class.parallel_tactic, ptr %this, i64 0, i32 11
  %3 = load double, ptr %m_progress, align 8
  tail call void @_ZN10statistics6updateEPKcd(ptr noundef nonnull align 8 dereferenceable(16) %st, ptr noundef nonnull @.str.58, double noundef %3)
  ret void
}

; Function Attrs: mustprogress uwtable
define linkonce_odr hidden void @_ZN15parallel_tactic16reset_statisticsEv(ptr noundef nonnull align 8 dereferenceable(344) %this) unnamed_addr #3 comdat align 2 {
entry:
  %m_stats = getelementptr inbounds %class.parallel_tactic, ptr %this, i64 0, i32 8
  tail call void @_ZN10statistics5resetEv(ptr noundef nonnull align 8 dereferenceable(16) %m_stats)
  ret void
}

; Function Attrs: mustprogress uwtable
define linkonce_odr hidden void @_ZN15parallel_tactic7cleanupEv(ptr noundef nonnull align 8 dereferenceable(344) %this) unnamed_addr #3 comdat align 2 {
entry:
  %m_queue = getelementptr inbounds %class.parallel_tactic, ptr %this, i64 0, i32 9
  tail call void @_ZN15parallel_tactic10task_queue5resetEv(ptr noundef nonnull align 8 dereferenceable(109) %m_queue)
  %m_models = getelementptr inbounds %class.parallel_tactic, ptr %this, i64 0, i32 5
  %0 = load ptr, ptr %m_models, align 8
  %cmp.i.i = icmp eq ptr %0, null
  br i1 %cmp.i.i, label %_ZN15ref_vector_coreI5model21ref_unmanaged_wrapperIS0_EE5resetEv.exit, label %_ZNK6vectorIP5modelLb0EjE4sizeEv.exit.i

_ZNK6vectorIP5modelLb0EjE4sizeEv.exit.i:          ; preds = %entry
  %arrayidx.i.i = getelementptr inbounds i32, ptr %0, i64 -1
  %1 = load i32, ptr %arrayidx.i.i, align 4
  %2 = zext i32 %1 to i64
  %add.ptr.i = getelementptr inbounds ptr, ptr %0, i64 %2
  %cmp3.i.not.i = icmp eq i32 %1, 0
  br i1 %cmp3.i.not.i, label %if.then.i.i, label %for.body.i.i

for.body.i.i:                                     ; preds = %_ZNK6vectorIP5modelLb0EjE4sizeEv.exit.i, %_ZN15ref_vector_coreI5model21ref_unmanaged_wrapperIS0_EE7dec_refEPS0_.exit.i.i
  %it.04.i.i = phi ptr [ %incdec.ptr.i.i, %_ZN15ref_vector_coreI5model21ref_unmanaged_wrapperIS0_EE7dec_refEPS0_.exit.i.i ], [ %0, %_ZNK6vectorIP5modelLb0EjE4sizeEv.exit.i ]
  %3 = load ptr, ptr %it.04.i.i, align 8
  %tobool.not.i.i.i.i = icmp eq ptr %3, null
  br i1 %tobool.not.i.i.i.i, label %_ZN15ref_vector_coreI5model21ref_unmanaged_wrapperIS0_EE7dec_refEPS0_.exit.i.i, label %if.then.i.i.i.i

if.then.i.i.i.i:                                  ; preds = %for.body.i.i
  %m_ref_count.i.i.i.i.i = getelementptr inbounds %class.model_core, ptr %3, i64 0, i32 2
  %4 = load i32, ptr %m_ref_count.i.i.i.i.i, align 8
  %dec.i.i.i.i.i = add i32 %4, -1
  store i32 %dec.i.i.i.i.i, ptr %m_ref_count.i.i.i.i.i, align 8
  %cmp.i.i.i.i.i = icmp eq i32 %dec.i.i.i.i.i, 0
  br i1 %cmp.i.i.i.i.i, label %if.then.i.i.i.i.i, label %_ZN15ref_vector_coreI5model21ref_unmanaged_wrapperIS0_EE7dec_refEPS0_.exit.i.i

if.then.i.i.i.i.i:                                ; preds = %if.then.i.i.i.i
  %vtable.i.i.i.i.i.i = load ptr, ptr %3, align 8
  %5 = load ptr, ptr %vtable.i.i.i.i.i.i, align 8
  tail call void %5(ptr noundef nonnull align 8 dereferenceable(96) %3) #18
  tail call void @_ZN6memory10deallocateEPv(ptr noundef nonnull %3)
  br label %_ZN15ref_vector_coreI5model21ref_unmanaged_wrapperIS0_EE7dec_refEPS0_.exit.i.i

_ZN15ref_vector_coreI5model21ref_unmanaged_wrapperIS0_EE7dec_refEPS0_.exit.i.i: ; preds = %if.then.i.i.i.i.i, %if.then.i.i.i.i, %for.body.i.i
  %incdec.ptr.i.i = getelementptr inbounds ptr, ptr %it.04.i.i, i64 1
  %cmp.i1.i = icmp ult ptr %incdec.ptr.i.i, %add.ptr.i
  br i1 %cmp.i1.i, label %for.body.i.i, label %_ZN15ref_vector_coreI5model21ref_unmanaged_wrapperIS0_EE13dec_range_refEPKPS0_S6_.exit.i, !llvm.loop !4

_ZN15ref_vector_coreI5model21ref_unmanaged_wrapperIS0_EE13dec_range_refEPKPS0_S6_.exit.i: ; preds = %_ZN15ref_vector_coreI5model21ref_unmanaged_wrapperIS0_EE7dec_refEPS0_.exit.i.i
  %.pre.i = load ptr, ptr %m_models, align 8
  %tobool.not.i.i = icmp eq ptr %.pre.i, null
  br i1 %tobool.not.i.i, label %_ZN15ref_vector_coreI5model21ref_unmanaged_wrapperIS0_EE5resetEv.exit, label %if.then.i.i

if.then.i.i:                                      ; preds = %_ZN15ref_vector_coreI5model21ref_unmanaged_wrapperIS0_EE13dec_range_refEPKPS0_S6_.exit.i, %_ZNK6vectorIP5modelLb0EjE4sizeEv.exit.i
  %6 = phi ptr [ %.pre.i, %_ZN15ref_vector_coreI5model21ref_unmanaged_wrapperIS0_EE13dec_range_refEPKPS0_S6_.exit.i ], [ %0, %_ZNK6vectorIP5modelLb0EjE4sizeEv.exit.i ]
  %arrayidx.i2.i = getelementptr inbounds i32, ptr %6, i64 -1
  store i32 0, ptr %arrayidx.i2.i, align 4
  br label %_ZN15ref_vector_coreI5model21ref_unmanaged_wrapperIS0_EE5resetEv.exit

_ZN15ref_vector_coreI5model21ref_unmanaged_wrapperIS0_EE5resetEv.exit: ; preds = %entry, %_ZN15ref_vector_coreI5model21ref_unmanaged_wrapperIS0_EE13dec_range_refEPKPS0_S6_.exit.i, %if.then.i.i
  ret void
}

; Function Attrs: mustprogress uwtable
define linkonce_odr hidden void @_ZN6tactic5resetEv(ptr noundef nonnull align 8 dereferenceable(12) %this) unnamed_addr #3 comdat align 2 {
entry:
  %vtable = load ptr, ptr %this, align 8
  %vfn = getelementptr inbounds ptr, ptr %vtable, i64 17
  %0 = load ptr, ptr %vfn, align 8
  tail call void %0(ptr noundef nonnull align 8 dereferenceable(12) %this)
  ret void
}

; Function Attrs: mustprogress nounwind uwtable
define linkonce_odr hidden void @_ZN6tactic9set_logicERK6symbol(ptr noundef nonnull align 8 dereferenceable(12) %this, ptr noundef nonnull align 8 dereferenceable(8) %l) unnamed_addr #4 comdat align 2 {
entry:
  ret void
}

; Function Attrs: mustprogress nounwind uwtable
define linkonce_odr hidden void @_ZN6tactic21set_progress_callbackEP17progress_callback(ptr noundef nonnull align 8 dereferenceable(12) %this, ptr noundef %callback) unnamed_addr #4 comdat align 2 {
entry:
  ret void
}

; Function Attrs: mustprogress uwtable
define linkonce_odr hidden noundef ptr @_ZN15parallel_tactic9translateER11ast_manager(ptr noundef nonnull align 8 dereferenceable(344) %this, ptr noundef nonnull align 8 dereferenceable(976) %m) unnamed_addr #3 comdat align 2 {
entry:
  %m_solver = getelementptr inbounds %class.parallel_tactic, ptr %this, i64 0, i32 1
  %0 = load ptr, ptr %m_solver, align 8
  %m_params = getelementptr inbounds %class.parallel_tactic, ptr %this, i64 0, i32 4
  %vtable = load ptr, ptr %0, align 8
  %vfn = getelementptr inbounds ptr, ptr %vtable, i64 10
  %1 = load ptr, ptr %vfn, align 8
  %call2 = tail call noundef ptr %1(ptr noundef nonnull align 8 dereferenceable(96) %0, ptr noundef nonnull align 8 dereferenceable(976) %m, ptr noundef nonnull align 8 dereferenceable(8) %m_params)
  %call3 = tail call noalias noundef ptr @_ZN6memory8allocateEm(i64 noundef 344)
  tail call void @_ZN15parallel_tacticC2EP6solverRK10params_ref(ptr noundef nonnull align 8 dereferenceable(344) %call3, ptr noundef %call2, ptr noundef nonnull align 8 dereferenceable(8) %m_params)
  ret ptr %call3
}

; Function Attrs: mustprogress nounwind uwtable
define linkonce_odr hidden noundef ptr @_ZNK15parallel_tactic4nameEv(ptr noundef nonnull align 8 dereferenceable(344) %this) unnamed_addr #4 comdat align 2 {
entry:
  ret ptr @.str.59
}

; Function Attrs: nobuiltin nounwind
declare void @_ZdlPv(ptr noundef) local_unnamed_addr #5

declare ptr @__cxa_allocate_exception(i64) local_unnamed_addr

; Function Attrs: nounwind
declare void @_ZNSaIcEC1Ev(ptr noundef nonnull align 1 dereferenceable(1)) unnamed_addr #1

; Function Attrs: mustprogress uwtable
define linkonce_odr hidden void @_ZNSt7__cxx1112basic_stringIcSt11char_traitsIcESaIcEEC2IS3_EEPKcRKS3_(ptr noundef nonnull align 8 dereferenceable(32) %this, ptr noundef %__s, ptr noundef nonnull align 1 dereferenceable(1) %__a) unnamed_addr #3 comdat align 2 personality ptr @__gxx_personality_v0 {
entry:
  %call = tail call noundef ptr @_ZNSt7__cxx1112basic_stringIcSt11char_traitsIcESaIcEE13_M_local_dataEv(ptr noundef nonnull align 8 dereferenceable(32) %this)
  tail call void @_ZNSt7__cxx1112basic_stringIcSt11char_traitsIcESaIcEE12_Alloc_hiderC1EPcRKS3_(ptr noundef nonnull align 8 dereferenceable(8) %this, ptr noundef %call, ptr noundef nonnull align 1 dereferenceable(1) %__a)
  %cmp = icmp eq ptr %__s, null
  br i1 %cmp, label %if.then, label %if.end

if.then:                                          ; preds = %entry
  invoke void @_ZSt19__throw_logic_errorPKc(ptr noundef nonnull @.str.1) #21
          to label %invoke.cont unwind label %lpad

invoke.cont:                                      ; preds = %if.then
  unreachable

lpad:                                             ; preds = %if.end, %if.then
  %0 = landingpad { ptr, i32 }
          cleanup
  tail call void @_ZNSaIcED2Ev(ptr noundef nonnull align 1 dereferenceable(1) %this) #18
  resume { ptr, i32 } %0

if.end:                                           ; preds = %entry
  %call.i = tail call noundef i64 @strlen(ptr noundef nonnull dereferenceable(1) %__s) #18
  %add.ptr = getelementptr inbounds i8, ptr %__s, i64 %call.i
  invoke void @_ZNSt7__cxx1112basic_stringIcSt11char_traitsIcESaIcEE12_M_constructIPKcEEvT_S8_St20forward_iterator_tag(ptr noundef nonnull align 8 dereferenceable(32) %this, ptr noundef nonnull %__s, ptr noundef nonnull %add.ptr)
          to label %invoke.cont4 unwind label %lpad

invoke.cont4:                                     ; preds = %if.end
  ret void
}

; Function Attrs: mustprogress nounwind uwtable
define linkonce_odr hidden void @_ZN17default_exceptionD2Ev(ptr noundef nonnull align 8 dereferenceable(40) %this) unnamed_addr #4 comdat align 2 {
entry:
  store ptr getelementptr inbounds ({ [6 x ptr] }, ptr @_ZTV17default_exception, i64 0, inrange i32 0, i64 2), ptr %this, align 8
  %m_msg = getelementptr inbounds %class.default_exception, ptr %this, i64 0, i32 1
  tail call void @_ZNSt7__cxx1112basic_stringIcSt11char_traitsIcESaIcEED1Ev(ptr noundef nonnull align 8 dereferenceable(32) %m_msg) #18
  ret void
}

declare void @__cxa_throw(ptr, ptr, ptr) local_unnamed_addr

; Function Attrs: nounwind
declare void @_ZNSaIcED1Ev(ptr noundef nonnull align 1 dereferenceable(1)) unnamed_addr #1

declare void @__cxa_free_exception(ptr) local_unnamed_addr

declare noundef ptr @_ZNSt7__cxx1112basic_stringIcSt11char_traitsIcESaIcEE13_M_local_dataEv(ptr noundef nonnull align 8 dereferenceable(32)) local_unnamed_addr #0

declare void @_ZNSt7__cxx1112basic_stringIcSt11char_traitsIcESaIcEE12_Alloc_hiderC1EPcRKS3_(ptr noundef nonnull align 8 dereferenceable(8), ptr noundef, ptr noundef nonnull align 1 dereferenceable(1)) unnamed_addr #0

; Function Attrs: noreturn
declare void @_ZSt19__throw_logic_errorPKc(ptr noundef) local_unnamed_addr #6

; Function Attrs: mustprogress uwtable
define linkonce_odr void @_ZNSt7__cxx1112basic_stringIcSt11char_traitsIcESaIcEE12_M_constructIPKcEEvT_S8_St20forward_iterator_tag(ptr noundef nonnull align 8 dereferenceable(32) %this, ptr noundef %__beg, ptr noundef %__end) local_unnamed_addr #3 comdat align 2 personality ptr @__gxx_personality_v0 {
entry:
  %__dnew = alloca i64, align 8
  %__guard = alloca %struct._Guard, align 8
  %sub.ptr.lhs.cast.i.i = ptrtoint ptr %__end to i64
  %sub.ptr.rhs.cast.i.i = ptrtoint ptr %__beg to i64
  %sub.ptr.sub.i.i = sub i64 %sub.ptr.lhs.cast.i.i, %sub.ptr.rhs.cast.i.i
  store i64 %sub.ptr.sub.i.i, ptr %__dnew, align 8
  %cmp = icmp ugt i64 %sub.ptr.sub.i.i, 15
  br i1 %cmp, label %if.then, label %if.else

if.then:                                          ; preds = %entry
  %call2 = call noundef ptr @_ZNSt7__cxx1112basic_stringIcSt11char_traitsIcESaIcEE9_M_createERmm(ptr noundef nonnull align 8 dereferenceable(32) %this, ptr noundef nonnull align 8 dereferenceable(8) %__dnew, i64 noundef 0)
  call void @_ZNSt7__cxx1112basic_stringIcSt11char_traitsIcESaIcEE7_M_dataEPc(ptr noundef nonnull align 8 dereferenceable(32) %this, ptr noundef %call2)
  %0 = load i64, ptr %__dnew, align 8
  call void @_ZNSt7__cxx1112basic_stringIcSt11char_traitsIcESaIcEE11_M_capacityEm(ptr noundef nonnull align 8 dereferenceable(32) %this, i64 noundef %0)
  br label %if.end

if.else:                                          ; preds = %entry
  %call.i = invoke noundef ptr @_ZNSt7__cxx1112basic_stringIcSt11char_traitsIcESaIcEE13_M_local_dataEv(ptr noundef nonnull align 8 dereferenceable(32) %this)
          to label %if.end unwind label %terminate.lpad.i

terminate.lpad.i:                                 ; preds = %if.else
  %1 = landingpad { ptr, i32 }
          catch ptr null
  %2 = extractvalue { ptr, i32 } %1, 0
  tail call void @__clang_call_terminate(ptr %2) #19
  unreachable

if.end:                                           ; preds = %if.else, %if.then
  store ptr %this, ptr %__guard, align 8
  %call4 = invoke noundef ptr @_ZNKSt7__cxx1112basic_stringIcSt11char_traitsIcESaIcEE7_M_dataEv(ptr noundef nonnull align 8 dereferenceable(32) %this)
          to label %invoke.cont unwind label %lpad

invoke.cont:                                      ; preds = %if.end
  call void @_ZNSt7__cxx1112basic_stringIcSt11char_traitsIcESaIcEE13_S_copy_charsEPcPKcS7_(ptr noundef %call4, ptr noundef %__beg, ptr noundef %__end) #18
  store ptr null, ptr %__guard, align 8
  %3 = load i64, ptr %__dnew, align 8
  invoke void @_ZNSt7__cxx1112basic_stringIcSt11char_traitsIcESaIcEE13_M_set_lengthEm(ptr noundef nonnull align 8 dereferenceable(32) %this, i64 noundef %3)
          to label %_ZZNSt7__cxx1112basic_stringIcSt11char_traitsIcESaIcEE12_M_constructIPKcEEvT_S8_St20forward_iterator_tagEN6_GuardD2Ev.exit unwind label %lpad

_ZZNSt7__cxx1112basic_stringIcSt11char_traitsIcESaIcEE12_M_constructIPKcEEvT_S8_St20forward_iterator_tagEN6_GuardD2Ev.exit: ; preds = %invoke.cont
  ret void

lpad:                                             ; preds = %invoke.cont, %if.end
  %4 = landingpad { ptr, i32 }
          cleanup
  call void @_ZZNSt7__cxx1112basic_stringIcSt11char_traitsIcESaIcEE12_M_constructIPKcEEvT_S8_St20forward_iterator_tagEN6_GuardD2Ev(ptr noundef nonnull align 8 dereferenceable(8) %__guard) #18
  resume { ptr, i32 } %4
}

; Function Attrs: mustprogress nofree nounwind willreturn memory(argmem: read)
declare i64 @strlen(ptr nocapture noundef) local_unnamed_addr #7

declare void @_ZNSt7__cxx1112basic_stringIcSt11char_traitsIcESaIcEE7_M_dataEPc(ptr noundef nonnull align 8 dereferenceable(32), ptr noundef) local_unnamed_addr #0

declare noundef ptr @_ZNSt7__cxx1112basic_stringIcSt11char_traitsIcESaIcEE9_M_createERmm(ptr noundef nonnull align 8 dereferenceable(32), ptr noundef nonnull align 8 dereferenceable(8), i64 noundef) local_unnamed_addr #0

declare void @_ZNSt7__cxx1112basic_stringIcSt11char_traitsIcESaIcEE11_M_capacityEm(ptr noundef nonnull align 8 dereferenceable(32), i64 noundef) local_unnamed_addr #0

; Function Attrs: nounwind
declare void @_ZNSt7__cxx1112basic_stringIcSt11char_traitsIcESaIcEE13_S_copy_charsEPcPKcS7_(ptr noundef, ptr noundef, ptr noundef) local_unnamed_addr #1

declare noundef ptr @_ZNKSt7__cxx1112basic_stringIcSt11char_traitsIcESaIcEE7_M_dataEv(ptr noundef nonnull align 8 dereferenceable(32)) local_unnamed_addr #0

declare void @_ZNSt7__cxx1112basic_stringIcSt11char_traitsIcESaIcEE13_M_set_lengthEm(ptr noundef nonnull align 8 dereferenceable(32), i64 noundef) local_unnamed_addr #0

; Function Attrs: mustprogress nounwind uwtable
define linkonce_odr hidden void @_ZZNSt7__cxx1112basic_stringIcSt11char_traitsIcESaIcEE12_M_constructIPKcEEvT_S8_St20forward_iterator_tagEN6_GuardD2Ev(ptr noundef nonnull align 8 dereferenceable(8) %this) unnamed_addr #4 comdat align 2 personality ptr @__gxx_personality_v0 {
entry:
  %0 = load ptr, ptr %this, align 8
  %tobool.not = icmp eq ptr %0, null
  br i1 %tobool.not, label %if.end, label %if.then

if.then:                                          ; preds = %entry
  invoke void @_ZNSt7__cxx1112basic_stringIcSt11char_traitsIcESaIcEE10_M_disposeEv(ptr noundef nonnull align 8 dereferenceable(32) %0)
          to label %if.end unwind label %terminate.lpad

if.end:                                           ; preds = %if.then, %entry
  ret void

terminate.lpad:                                   ; preds = %if.then
  %1 = landingpad { ptr, i32 }
          catch ptr null
  %2 = extractvalue { ptr, i32 } %1, 0
  tail call void @__clang_call_terminate(ptr %2) #19
  unreachable
}

; Function Attrs: noreturn nounwind uwtable
define linkonce_odr hidden void @__clang_call_terminate(ptr noundef %0) local_unnamed_addr #8 comdat {
  %2 = tail call ptr @__cxa_begin_catch(ptr %0) #18
  tail call void @_ZSt9terminatev() #19
  unreachable
}

declare ptr @__cxa_begin_catch(ptr) local_unnamed_addr

declare void @_ZSt9terminatev() local_unnamed_addr

declare void @_ZNSt7__cxx1112basic_stringIcSt11char_traitsIcESaIcEE10_M_disposeEv(ptr noundef nonnull align 8 dereferenceable(32)) local_unnamed_addr #0

; Function Attrs: nounwind
declare void @_ZNSaIcED2Ev(ptr noundef nonnull align 1 dereferenceable(1)) unnamed_addr #1

; Function Attrs: nounwind
declare void @_ZNSt7__cxx1112basic_stringIcSt11char_traitsIcESaIcEEC1EOS4_(ptr noundef nonnull align 8 dereferenceable(32), ptr noundef nonnull align 8 dereferenceable(32)) unnamed_addr #1

; Function Attrs: mustprogress nocallback nofree nounwind willreturn memory(argmem: write)
declare void @llvm.memset.p0.i64(ptr nocapture writeonly, i8, i64, i1 immarg) #9

declare void @_ZN6memory10deallocateEPv(ptr noundef) local_unnamed_addr #0

; Function Attrs: nounwind
declare void @_ZNSt18condition_variableC1Ev(ptr noundef nonnull align 8 dereferenceable(48)) unnamed_addr #1

; Function Attrs: nounwind
declare void @_ZNSt18condition_variableD1Ev(ptr noundef nonnull align 8 dereferenceable(48)) unnamed_addr #1

; Function Attrs: nounwind
declare noundef i32 @_ZNSt6thread20hardware_concurrencyEv() local_unnamed_addr #1

declare void @_ZN10params_ref8set_boolEPKcb(ptr noundef nonnull align 8 dereferenceable(8), ptr noundef, i1 noundef zeroext) local_unnamed_addr #0

declare void @_ZN7gparams10get_moduleEPKc(ptr sret(%class.params_ref) align 8, ptr noundef) local_unnamed_addr #0

declare noundef i32 @_ZNK10params_ref8get_uintEPKcRKS_j(ptr noundef nonnull align 8 dereferenceable(8), ptr noundef, ptr noundef nonnull align 8 dereferenceable(8), i32 noundef) local_unnamed_addr #0

; Function Attrs: mustprogress uwtable
define linkonce_odr hidden void @_Z7deallocI10ref_vectorI4expr11ast_managerEEvPT_(ptr noundef %ptr) local_unnamed_addr #3 comdat personality ptr @__gxx_personality_v0 {
entry:
  %cmp = icmp eq ptr %ptr, null
  br i1 %cmp, label %return, label %if.end

if.end:                                           ; preds = %entry
  %m_nodes.i.i = getelementptr inbounds %class.ref_vector_core.6, ptr %ptr, i64 0, i32 1
  %0 = load ptr, ptr %m_nodes.i.i, align 8
  %cmp.i.i.i = icmp eq ptr %0, null
  br i1 %cmp.i.i.i, label %_ZN10ref_vectorI4expr11ast_managerED2Ev.exit, label %_ZNK6vectorIP4exprLb0EjE4sizeEv.exit.i.i

_ZNK6vectorIP4exprLb0EjE4sizeEv.exit.i.i:         ; preds = %if.end
  %arrayidx.i.i.i = getelementptr inbounds i32, ptr %0, i64 -1
  %1 = load i32, ptr %arrayidx.i.i.i, align 4
  %2 = zext i32 %1 to i64
  %add.ptr.i.i = getelementptr inbounds ptr, ptr %0, i64 %2
  %cmp3.i.not.i.i = icmp eq i32 %1, 0
  br i1 %cmp3.i.not.i.i, label %if.then.i.i.i.i.i, label %for.body.i.i.i

for.body.i.i.i:                                   ; preds = %_ZNK6vectorIP4exprLb0EjE4sizeEv.exit.i.i, %_ZN15ref_vector_coreI4expr19ref_manager_wrapperIS0_11ast_managerEE7dec_refEPS0_.exit.i.i.i
  %it.04.i.i.i = phi ptr [ %incdec.ptr.i.i.i, %_ZN15ref_vector_coreI4expr19ref_manager_wrapperIS0_11ast_managerEE7dec_refEPS0_.exit.i.i.i ], [ %0, %_ZNK6vectorIP4exprLb0EjE4sizeEv.exit.i.i ]
  %3 = load ptr, ptr %it.04.i.i.i, align 8
  %4 = load ptr, ptr %ptr, align 8
  %tobool.not.i.i.i.i.i.i = icmp eq ptr %3, null
  br i1 %tobool.not.i.i.i.i.i.i, label %_ZN15ref_vector_coreI4expr19ref_manager_wrapperIS0_11ast_managerEE7dec_refEPS0_.exit.i.i.i, label %if.then.i.i.i.i.i.i

if.then.i.i.i.i.i.i:                              ; preds = %for.body.i.i.i
  %m_ref_count.i.i.i.i.i.i.i = getelementptr inbounds %class.ast, ptr %3, i64 0, i32 2
  %5 = load i32, ptr %m_ref_count.i.i.i.i.i.i.i, align 4
  %dec.i.i.i.i.i.i.i = add i32 %5, -1
  store i32 %dec.i.i.i.i.i.i.i, ptr %m_ref_count.i.i.i.i.i.i.i, align 4
  %cmp.i.i.i.i.i.i = icmp eq i32 %dec.i.i.i.i.i.i.i, 0
  br i1 %cmp.i.i.i.i.i.i, label %if.then2.i.i.i.i.i.i, label %_ZN15ref_vector_coreI4expr19ref_manager_wrapperIS0_11ast_managerEE7dec_refEPS0_.exit.i.i.i

if.then2.i.i.i.i.i.i:                             ; preds = %if.then.i.i.i.i.i.i
  invoke void @_ZN11ast_manager11delete_nodeEP3ast(ptr noundef nonnull align 8 dereferenceable(976) %4, ptr noundef nonnull %3)
          to label %_ZN15ref_vector_coreI4expr19ref_manager_wrapperIS0_11ast_managerEE7dec_refEPS0_.exit.i.i.i unwind label %terminate.lpad.i.i

_ZN15ref_vector_coreI4expr19ref_manager_wrapperIS0_11ast_managerEE7dec_refEPS0_.exit.i.i.i: ; preds = %if.then2.i.i.i.i.i.i, %if.then.i.i.i.i.i.i, %for.body.i.i.i
  %incdec.ptr.i.i.i = getelementptr inbounds ptr, ptr %it.04.i.i.i, i64 1
  %cmp.i1.i.i = icmp ult ptr %incdec.ptr.i.i.i, %add.ptr.i.i
  br i1 %cmp.i1.i.i, label %for.body.i.i.i, label %invoke.cont8.i.i, !llvm.loop !8

invoke.cont8.i.i:                                 ; preds = %_ZN15ref_vector_coreI4expr19ref_manager_wrapperIS0_11ast_managerEE7dec_refEPS0_.exit.i.i.i
  %.pre.i.i = load ptr, ptr %m_nodes.i.i, align 8
  %tobool.not.i.i.i.i.i = icmp eq ptr %.pre.i.i, null
  br i1 %tobool.not.i.i.i.i.i, label %_ZN10ref_vectorI4expr11ast_managerED2Ev.exit, label %if.then.i.i.i.i.i

if.then.i.i.i.i.i:                                ; preds = %invoke.cont8.i.i, %_ZNK6vectorIP4exprLb0EjE4sizeEv.exit.i.i
  %6 = phi ptr [ %.pre.i.i, %invoke.cont8.i.i ], [ %0, %_ZNK6vectorIP4exprLb0EjE4sizeEv.exit.i.i ]
  %add.ptr.i.i.i.i.i.i = getelementptr inbounds i32, ptr %6, i64 -2
  invoke void @_ZN6memory10deallocateEPv(ptr noundef nonnull %add.ptr.i.i.i.i.i.i)
          to label %_ZN10ref_vectorI4expr11ast_managerED2Ev.exit unwind label %terminate.lpad.i.i.i.i

terminate.lpad.i.i.i.i:                           ; preds = %if.then.i.i.i.i.i
  %7 = landingpad { ptr, i32 }
          catch ptr null
  %8 = extractvalue { ptr, i32 } %7, 0
  tail call void @__clang_call_terminate(ptr %8) #19
  unreachable

terminate.lpad.i.i:                               ; preds = %if.then2.i.i.i.i.i.i
  %9 = landingpad { ptr, i32 }
          catch ptr null
  %10 = extractvalue { ptr, i32 } %9, 0
  tail call void @__clang_call_terminate(ptr %10) #19
  unreachable

_ZN10ref_vectorI4expr11ast_managerED2Ev.exit:     ; preds = %if.end, %invoke.cont8.i.i, %if.then.i.i.i.i.i
  tail call void @_ZN6memory10deallocateEPv(ptr noundef nonnull %ptr)
  br label %return

return:                                           ; preds = %entry, %_ZN10ref_vectorI4expr11ast_managerED2Ev.exit
  ret void
}

; Function Attrs: mustprogress nounwind uwtable
define linkonce_odr hidden void @_ZN10ref_vectorI4expr11ast_managerED2Ev(ptr noundef nonnull align 8 dereferenceable(16) %this) unnamed_addr #4 comdat align 2 personality ptr @__gxx_personality_v0 {
entry:
  %m_nodes.i = getelementptr inbounds %class.ref_vector_core.6, ptr %this, i64 0, i32 1
  %0 = load ptr, ptr %m_nodes.i, align 8
  %cmp.i.i = icmp eq ptr %0, null
  br i1 %cmp.i.i, label %_ZN15ref_vector_coreI4expr19ref_manager_wrapperIS0_11ast_managerEED2Ev.exit, label %_ZNK6vectorIP4exprLb0EjE4sizeEv.exit.i

_ZNK6vectorIP4exprLb0EjE4sizeEv.exit.i:           ; preds = %entry
  %arrayidx.i.i = getelementptr inbounds i32, ptr %0, i64 -1
  %1 = load i32, ptr %arrayidx.i.i, align 4
  %2 = zext i32 %1 to i64
  %add.ptr.i = getelementptr inbounds ptr, ptr %0, i64 %2
  %cmp3.i.not.i = icmp eq i32 %1, 0
  br i1 %cmp3.i.not.i, label %if.then.i.i.i.i, label %for.body.i.i

for.body.i.i:                                     ; preds = %_ZNK6vectorIP4exprLb0EjE4sizeEv.exit.i, %_ZN15ref_vector_coreI4expr19ref_manager_wrapperIS0_11ast_managerEE7dec_refEPS0_.exit.i.i
  %it.04.i.i = phi ptr [ %incdec.ptr.i.i, %_ZN15ref_vector_coreI4expr19ref_manager_wrapperIS0_11ast_managerEE7dec_refEPS0_.exit.i.i ], [ %0, %_ZNK6vectorIP4exprLb0EjE4sizeEv.exit.i ]
  %3 = load ptr, ptr %it.04.i.i, align 8
  %4 = load ptr, ptr %this, align 8
  %tobool.not.i.i.i.i.i = icmp eq ptr %3, null
  br i1 %tobool.not.i.i.i.i.i, label %_ZN15ref_vector_coreI4expr19ref_manager_wrapperIS0_11ast_managerEE7dec_refEPS0_.exit.i.i, label %if.then.i.i.i.i.i

if.then.i.i.i.i.i:                                ; preds = %for.body.i.i
  %m_ref_count.i.i.i.i.i.i = getelementptr inbounds %class.ast, ptr %3, i64 0, i32 2
  %5 = load i32, ptr %m_ref_count.i.i.i.i.i.i, align 4
  %dec.i.i.i.i.i.i = add i32 %5, -1
  store i32 %dec.i.i.i.i.i.i, ptr %m_ref_count.i.i.i.i.i.i, align 4
  %cmp.i.i.i.i.i = icmp eq i32 %dec.i.i.i.i.i.i, 0
  br i1 %cmp.i.i.i.i.i, label %if.then2.i.i.i.i.i, label %_ZN15ref_vector_coreI4expr19ref_manager_wrapperIS0_11ast_managerEE7dec_refEPS0_.exit.i.i

if.then2.i.i.i.i.i:                               ; preds = %if.then.i.i.i.i.i
  invoke void @_ZN11ast_manager11delete_nodeEP3ast(ptr noundef nonnull align 8 dereferenceable(976) %4, ptr noundef nonnull %3)
          to label %_ZN15ref_vector_coreI4expr19ref_manager_wrapperIS0_11ast_managerEE7dec_refEPS0_.exit.i.i unwind label %terminate.lpad.i

_ZN15ref_vector_coreI4expr19ref_manager_wrapperIS0_11ast_managerEE7dec_refEPS0_.exit.i.i: ; preds = %if.then2.i.i.i.i.i, %if.then.i.i.i.i.i, %for.body.i.i
  %incdec.ptr.i.i = getelementptr inbounds ptr, ptr %it.04.i.i, i64 1
  %cmp.i1.i = icmp ult ptr %incdec.ptr.i.i, %add.ptr.i
  br i1 %cmp.i1.i, label %for.body.i.i, label %invoke.cont8.i, !llvm.loop !8

invoke.cont8.i:                                   ; preds = %_ZN15ref_vector_coreI4expr19ref_manager_wrapperIS0_11ast_managerEE7dec_refEPS0_.exit.i.i
  %.pre.i = load ptr, ptr %m_nodes.i, align 8
  %tobool.not.i.i.i.i = icmp eq ptr %.pre.i, null
  br i1 %tobool.not.i.i.i.i, label %_ZN15ref_vector_coreI4expr19ref_manager_wrapperIS0_11ast_managerEED2Ev.exit, label %if.then.i.i.i.i

if.then.i.i.i.i:                                  ; preds = %invoke.cont8.i, %_ZNK6vectorIP4exprLb0EjE4sizeEv.exit.i
  %6 = phi ptr [ %.pre.i, %invoke.cont8.i ], [ %0, %_ZNK6vectorIP4exprLb0EjE4sizeEv.exit.i ]
  %add.ptr.i.i.i.i.i = getelementptr inbounds i32, ptr %6, i64 -2
  invoke void @_ZN6memory10deallocateEPv(ptr noundef nonnull %add.ptr.i.i.i.i.i)
          to label %_ZN15ref_vector_coreI4expr19ref_manager_wrapperIS0_11ast_managerEED2Ev.exit unwind label %terminate.lpad.i.i.i

terminate.lpad.i.i.i:                             ; preds = %if.then.i.i.i.i
  %7 = landingpad { ptr, i32 }
          catch ptr null
  %8 = extractvalue { ptr, i32 } %7, 0
  tail call void @__clang_call_terminate(ptr %8) #19
  unreachable

terminate.lpad.i:                                 ; preds = %if.then2.i.i.i.i.i
  %9 = landingpad { ptr, i32 }
          catch ptr null
  %10 = extractvalue { ptr, i32 } %9, 0
  tail call void @__clang_call_terminate(ptr %10) #19
  unreachable

_ZN15ref_vector_coreI4expr19ref_manager_wrapperIS0_11ast_managerEED2Ev.exit: ; preds = %entry, %invoke.cont8.i, %if.then.i.i.i.i
  ret void
}

; Function Attrs: mustprogress nounwind uwtable
define linkonce_odr hidden void @_ZN15ref_vector_coreI4expr19ref_manager_wrapperIS0_11ast_managerEED2Ev(ptr noundef nonnull align 8 dereferenceable(16) %this) unnamed_addr #4 comdat align 2 personality ptr @__gxx_personality_v0 {
entry:
  %m_nodes = getelementptr inbounds %class.ref_vector_core.6, ptr %this, i64 0, i32 1
  %0 = load ptr, ptr %m_nodes, align 8
  %cmp.i = icmp eq ptr %0, null
  br i1 %cmp.i, label %_ZN10ptr_vectorI4exprED2Ev.exit, label %_ZNK6vectorIP4exprLb0EjE4sizeEv.exit

_ZNK6vectorIP4exprLb0EjE4sizeEv.exit:             ; preds = %entry
  %arrayidx.i = getelementptr inbounds i32, ptr %0, i64 -1
  %1 = load i32, ptr %arrayidx.i, align 4
  %2 = zext i32 %1 to i64
  %add.ptr = getelementptr inbounds ptr, ptr %0, i64 %2
  %cmp3.i.not = icmp eq i32 %1, 0
  br i1 %cmp3.i.not, label %if.then.i.i.i, label %for.body.i

for.body.i:                                       ; preds = %_ZNK6vectorIP4exprLb0EjE4sizeEv.exit, %_ZN15ref_vector_coreI4expr19ref_manager_wrapperIS0_11ast_managerEE7dec_refEPS0_.exit.i
  %it.04.i = phi ptr [ %incdec.ptr.i, %_ZN15ref_vector_coreI4expr19ref_manager_wrapperIS0_11ast_managerEE7dec_refEPS0_.exit.i ], [ %0, %_ZNK6vectorIP4exprLb0EjE4sizeEv.exit ]
  %3 = load ptr, ptr %it.04.i, align 8
  %4 = load ptr, ptr %this, align 8
  %tobool.not.i.i.i.i = icmp eq ptr %3, null
  br i1 %tobool.not.i.i.i.i, label %_ZN15ref_vector_coreI4expr19ref_manager_wrapperIS0_11ast_managerEE7dec_refEPS0_.exit.i, label %if.then.i.i.i.i

if.then.i.i.i.i:                                  ; preds = %for.body.i
  %m_ref_count.i.i.i.i.i = getelementptr inbounds %class.ast, ptr %3, i64 0, i32 2
  %5 = load i32, ptr %m_ref_count.i.i.i.i.i, align 4
  %dec.i.i.i.i.i = add i32 %5, -1
  store i32 %dec.i.i.i.i.i, ptr %m_ref_count.i.i.i.i.i, align 4
  %cmp.i.i.i.i = icmp eq i32 %dec.i.i.i.i.i, 0
  br i1 %cmp.i.i.i.i, label %if.then2.i.i.i.i, label %_ZN15ref_vector_coreI4expr19ref_manager_wrapperIS0_11ast_managerEE7dec_refEPS0_.exit.i

if.then2.i.i.i.i:                                 ; preds = %if.then.i.i.i.i
  invoke void @_ZN11ast_manager11delete_nodeEP3ast(ptr noundef nonnull align 8 dereferenceable(976) %4, ptr noundef nonnull %3)
          to label %_ZN15ref_vector_coreI4expr19ref_manager_wrapperIS0_11ast_managerEE7dec_refEPS0_.exit.i unwind label %terminate.lpad

_ZN15ref_vector_coreI4expr19ref_manager_wrapperIS0_11ast_managerEE7dec_refEPS0_.exit.i: ; preds = %if.then2.i.i.i.i, %if.then.i.i.i.i, %for.body.i
  %incdec.ptr.i = getelementptr inbounds ptr, ptr %it.04.i, i64 1
  %cmp.i1 = icmp ult ptr %incdec.ptr.i, %add.ptr
  br i1 %cmp.i1, label %for.body.i, label %invoke.cont8, !llvm.loop !8

invoke.cont8:                                     ; preds = %_ZN15ref_vector_coreI4expr19ref_manager_wrapperIS0_11ast_managerEE7dec_refEPS0_.exit.i
  %.pre = load ptr, ptr %m_nodes, align 8
  %tobool.not.i.i.i = icmp eq ptr %.pre, null
  br i1 %tobool.not.i.i.i, label %_ZN10ptr_vectorI4exprED2Ev.exit, label %if.then.i.i.i

if.then.i.i.i:                                    ; preds = %_ZNK6vectorIP4exprLb0EjE4sizeEv.exit, %invoke.cont8
  %6 = phi ptr [ %.pre, %invoke.cont8 ], [ %0, %_ZNK6vectorIP4exprLb0EjE4sizeEv.exit ]
  %add.ptr.i.i.i.i = getelementptr inbounds i32, ptr %6, i64 -2
  invoke void @_ZN6memory10deallocateEPv(ptr noundef nonnull %add.ptr.i.i.i.i)
          to label %_ZN10ptr_vectorI4exprED2Ev.exit unwind label %terminate.lpad.i.i

terminate.lpad.i.i:                               ; preds = %if.then.i.i.i
  %7 = landingpad { ptr, i32 }
          catch ptr null
  %8 = extractvalue { ptr, i32 } %7, 0
  tail call void @__clang_call_terminate(ptr %8) #19
  unreachable

_ZN10ptr_vectorI4exprED2Ev.exit:                  ; preds = %entry, %invoke.cont8, %if.then.i.i.i
  ret void

terminate.lpad:                                   ; preds = %if.then2.i.i.i.i
  %9 = landingpad { ptr, i32 }
          catch ptr null
  %10 = extractvalue { ptr, i32 } %9, 0
  tail call void @__clang_call_terminate(ptr %10) #19
  unreachable
}

; Function Attrs: mustprogress nounwind uwtable
define linkonce_odr hidden void @_ZN10ptr_vectorI4exprED2Ev(ptr noundef nonnull align 8 dereferenceable(8) %this) unnamed_addr #4 comdat align 2 personality ptr @__gxx_personality_v0 {
entry:
  %0 = load ptr, ptr %this, align 8
  %tobool.not.i.i = icmp eq ptr %0, null
  br i1 %tobool.not.i.i, label %_ZN6vectorIP4exprLb0EjED2Ev.exit, label %if.then.i.i

if.then.i.i:                                      ; preds = %entry
  %add.ptr.i.i.i = getelementptr inbounds i32, ptr %0, i64 -2
  invoke void @_ZN6memory10deallocateEPv(ptr noundef nonnull %add.ptr.i.i.i)
          to label %_ZN6vectorIP4exprLb0EjED2Ev.exit unwind label %terminate.lpad.i

terminate.lpad.i:                                 ; preds = %if.then.i.i
  %1 = landingpad { ptr, i32 }
          catch ptr null
  %2 = extractvalue { ptr, i32 } %1, 0
  tail call void @__clang_call_terminate(ptr %2) #19
  unreachable

_ZN6vectorIP4exprLb0EjED2Ev.exit:                 ; preds = %entry, %if.then.i.i
  ret void
}

declare void @_ZN11ast_manager11delete_nodeEP3ast(ptr noundef nonnull align 8 dereferenceable(976), ptr noundef) local_unnamed_addr #0

; Function Attrs: mustprogress uwtable
define linkonce_odr hidden void @_ZN15parallel_tactic10task_queue5resetEv(ptr noundef nonnull align 8 dereferenceable(109) %this) local_unnamed_addr #3 comdat align 2 personality ptr @__gxx_personality_v0 {
entry:
  %m_tasks = getelementptr inbounds %"class.parallel_tactic::task_queue", ptr %this, i64 0, i32 2
  %0 = load ptr, ptr %m_tasks, align 8
  %cmp.i.i = icmp eq ptr %0, null
  br i1 %cmp.i.i, label %for.end, label %_ZN6vectorIPN15parallel_tactic12solver_stateELb0EjE3endEv.exit

_ZN6vectorIPN15parallel_tactic12solver_stateELb0EjE3endEv.exit: ; preds = %entry
  %arrayidx.i.i = getelementptr inbounds i32, ptr %0, i64 -1
  %1 = load i32, ptr %arrayidx.i.i, align 4
  %2 = zext i32 %1 to i64
  %add.ptr.i = getelementptr inbounds ptr, ptr %0, i64 %2
  %cmp.not22 = icmp eq i32 %1, 0
  br i1 %cmp.not22, label %for.end, label %for.body

for.body:                                         ; preds = %_ZN6vectorIPN15parallel_tactic12solver_stateELb0EjE3endEv.exit, %_Z7deallocIN15parallel_tactic12solver_stateEEvPT_.exit
  %__begin2.023 = phi ptr [ %incdec.ptr, %_Z7deallocIN15parallel_tactic12solver_stateEEvPT_.exit ], [ %0, %_ZN6vectorIPN15parallel_tactic12solver_stateELb0EjE3endEv.exit ]
  %3 = load ptr, ptr %__begin2.023, align 8
  %cmp.i = icmp eq ptr %3, null
  br i1 %cmp.i, label %_Z7deallocIN15parallel_tactic12solver_stateEEvPT_.exit, label %if.end.i

if.end.i:                                         ; preds = %for.body
  tail call void @_ZN15parallel_tactic12solver_stateD2Ev(ptr noundef nonnull align 8 dereferenceable(81) %3) #18
  tail call void @_ZN6memory10deallocateEPv(ptr noundef nonnull %3)
  br label %_Z7deallocIN15parallel_tactic12solver_stateEEvPT_.exit

_Z7deallocIN15parallel_tactic12solver_stateEEvPT_.exit: ; preds = %for.body, %if.end.i
  %incdec.ptr = getelementptr inbounds ptr, ptr %__begin2.023, i64 1
  %cmp.not = icmp eq ptr %incdec.ptr, %add.ptr.i
  br i1 %cmp.not, label %for.end, label %for.body

for.end:                                          ; preds = %_Z7deallocIN15parallel_tactic12solver_stateEEvPT_.exit, %entry, %_ZN6vectorIPN15parallel_tactic12solver_stateELb0EjE3endEv.exit
  %m_active = getelementptr inbounds %"class.parallel_tactic::task_queue", ptr %this, i64 0, i32 3
  %4 = load ptr, ptr %m_active, align 8
  %cmp.i.i7 = icmp eq ptr %4, null
  br i1 %cmp.i.i7, label %for.end14, label %_ZN6vectorIPN15parallel_tactic12solver_stateELb0EjE3endEv.exit12

_ZN6vectorIPN15parallel_tactic12solver_stateELb0EjE3endEv.exit12: ; preds = %for.end
  %arrayidx.i.i9 = getelementptr inbounds i32, ptr %4, i64 -1
  %5 = load i32, ptr %arrayidx.i.i9, align 4
  %6 = zext i32 %5 to i64
  %add.ptr.i11 = getelementptr inbounds ptr, ptr %4, i64 %6
  %cmp9.not24 = icmp eq i32 %5, 0
  br i1 %cmp9.not24, label %for.end14, label %for.body10

for.body10:                                       ; preds = %_ZN6vectorIPN15parallel_tactic12solver_stateELb0EjE3endEv.exit12, %_Z7deallocIN15parallel_tactic12solver_stateEEvPT_.exit15
  %__begin24.025 = phi ptr [ %incdec.ptr13, %_Z7deallocIN15parallel_tactic12solver_stateEEvPT_.exit15 ], [ %4, %_ZN6vectorIPN15parallel_tactic12solver_stateELb0EjE3endEv.exit12 ]
  %7 = load ptr, ptr %__begin24.025, align 8
  %cmp.i13 = icmp eq ptr %7, null
  br i1 %cmp.i13, label %_Z7deallocIN15parallel_tactic12solver_stateEEvPT_.exit15, label %if.end.i14

if.end.i14:                                       ; preds = %for.body10
  tail call void @_ZN15parallel_tactic12solver_stateD2Ev(ptr noundef nonnull align 8 dereferenceable(81) %7) #18
  tail call void @_ZN6memory10deallocateEPv(ptr noundef nonnull %7)
  br label %_Z7deallocIN15parallel_tactic12solver_stateEEvPT_.exit15

_Z7deallocIN15parallel_tactic12solver_stateEEvPT_.exit15: ; preds = %for.body10, %if.end.i14
  %incdec.ptr13 = getelementptr inbounds ptr, ptr %__begin24.025, i64 1
  %cmp9.not = icmp eq ptr %incdec.ptr13, %add.ptr.i11
  br i1 %cmp9.not, label %for.end14, label %for.body10

for.end14:                                        ; preds = %_Z7deallocIN15parallel_tactic12solver_stateEEvPT_.exit15, %for.end, %_ZN6vectorIPN15parallel_tactic12solver_stateELb0EjE3endEv.exit12
  %8 = load ptr, ptr %m_tasks, align 8
  %tobool.not.i = icmp eq ptr %8, null
  br i1 %tobool.not.i, label %_ZN6vectorIPN15parallel_tactic12solver_stateELb0EjE5resetEv.exit, label %if.then.i

if.then.i:                                        ; preds = %for.end14
  %arrayidx.i = getelementptr inbounds i32, ptr %8, i64 -1
  store i32 0, ptr %arrayidx.i, align 4
  br label %_ZN6vectorIPN15parallel_tactic12solver_stateELb0EjE5resetEv.exit

_ZN6vectorIPN15parallel_tactic12solver_stateELb0EjE5resetEv.exit: ; preds = %for.end14, %if.then.i
  %9 = load ptr, ptr %m_active, align 8
  %tobool.not.i17 = icmp eq ptr %9, null
  br i1 %tobool.not.i17, label %_ZN6vectorIPN15parallel_tactic12solver_stateELb0EjE5resetEv.exit21, label %if.then.i18

if.then.i18:                                      ; preds = %_ZN6vectorIPN15parallel_tactic12solver_stateELb0EjE5resetEv.exit
  %arrayidx.i19 = getelementptr inbounds i32, ptr %9, i64 -1
  store i32 0, ptr %arrayidx.i19, align 4
  br label %_ZN6vectorIPN15parallel_tactic12solver_stateELb0EjE5resetEv.exit21

_ZN6vectorIPN15parallel_tactic12solver_stateELb0EjE5resetEv.exit21: ; preds = %_ZN6vectorIPN15parallel_tactic12solver_stateELb0EjE5resetEv.exit, %if.then.i18
  %m_num_waiters = getelementptr inbounds %"class.parallel_tactic::task_queue", ptr %this, i64 0, i32 4
  store i32 0, ptr %m_num_waiters, align 8
  %m_shutdown = getelementptr inbounds %"class.parallel_tactic::task_queue", ptr %this, i64 0, i32 5
  store atomic i8 0, ptr %m_shutdown seq_cst, align 4
  ret void
}

; Function Attrs: mustprogress nounwind uwtable
define linkonce_odr hidden void @_ZN15parallel_tactic12solver_stateD2Ev(ptr noundef nonnull align 8 dereferenceable(81) %this) unnamed_addr #4 comdat align 2 personality ptr @__gxx_personality_v0 {
entry:
  %m_solver = getelementptr inbounds %"class.parallel_tactic::solver_state", ptr %this, i64 0, i32 5
  %0 = load ptr, ptr %m_solver, align 8
  %tobool.not.i.i = icmp eq ptr %0, null
  br i1 %tobool.not.i.i, label %_ZN3refI6solverED2Ev.exit, label %if.then.i.i

if.then.i.i:                                      ; preds = %entry
  %m_ref_count.i.i.i = getelementptr inbounds %class.check_sat_result, ptr %0, i64 0, i32 4
  %1 = load i32, ptr %m_ref_count.i.i.i, align 8
  %dec.i.i.i = add i32 %1, -1
  store i32 %dec.i.i.i, ptr %m_ref_count.i.i.i, align 8
  %cmp.i.i.i = icmp eq i32 %dec.i.i.i, 0
  br i1 %cmp.i.i.i, label %if.then.i.i.i, label %_ZN3refI6solverED2Ev.exit

if.then.i.i.i:                                    ; preds = %if.then.i.i
  %vtable.i.i.i.i = load ptr, ptr %0, align 8
  %2 = load ptr, ptr %vtable.i.i.i.i, align 8
  tail call void %2(ptr noundef nonnull align 8 dereferenceable(72) %0) #18
  invoke void @_ZN6memory10deallocateEPv(ptr noundef nonnull %0)
          to label %_ZN3refI6solverED2Ev.exit unwind label %terminate.lpad.i

terminate.lpad.i:                                 ; preds = %if.then.i.i.i
  %3 = landingpad { ptr, i32 }
          catch ptr null
  %4 = extractvalue { ptr, i32 } %3, 0
  tail call void @__clang_call_terminate(ptr %4) #19
  unreachable

_ZN3refI6solverED2Ev.exit:                        ; preds = %entry, %if.then.i.i, %if.then.i.i.i
  %m_params = getelementptr inbounds %"class.parallel_tactic::solver_state", ptr %this, i64 0, i32 4
  tail call void @_ZN10params_refD1Ev(ptr noundef nonnull align 8 dereferenceable(8) %m_params) #18
  %m_assumptions = getelementptr inbounds %"class.parallel_tactic::solver_state", ptr %this, i64 0, i32 3
  %m_nodes.i.i = getelementptr inbounds %"class.parallel_tactic::solver_state", ptr %this, i64 0, i32 3, i32 0, i32 1
  %5 = load ptr, ptr %m_nodes.i.i, align 8
  %cmp.i.i.i1 = icmp eq ptr %5, null
  br i1 %cmp.i.i.i1, label %_ZN10ref_vectorI4expr11ast_managerED2Ev.exit, label %_ZNK6vectorIP4exprLb0EjE4sizeEv.exit.i.i

_ZNK6vectorIP4exprLb0EjE4sizeEv.exit.i.i:         ; preds = %_ZN3refI6solverED2Ev.exit
  %arrayidx.i.i.i = getelementptr inbounds i32, ptr %5, i64 -1
  %6 = load i32, ptr %arrayidx.i.i.i, align 4
  %7 = zext i32 %6 to i64
  %add.ptr.i.i = getelementptr inbounds ptr, ptr %5, i64 %7
  %cmp3.i.not.i.i = icmp eq i32 %6, 0
  br i1 %cmp3.i.not.i.i, label %if.then.i.i.i.i.i, label %for.body.i.i.i

for.body.i.i.i:                                   ; preds = %_ZNK6vectorIP4exprLb0EjE4sizeEv.exit.i.i, %_ZN15ref_vector_coreI4expr19ref_manager_wrapperIS0_11ast_managerEE7dec_refEPS0_.exit.i.i.i
  %it.04.i.i.i = phi ptr [ %incdec.ptr.i.i.i, %_ZN15ref_vector_coreI4expr19ref_manager_wrapperIS0_11ast_managerEE7dec_refEPS0_.exit.i.i.i ], [ %5, %_ZNK6vectorIP4exprLb0EjE4sizeEv.exit.i.i ]
  %8 = load ptr, ptr %it.04.i.i.i, align 8
  %9 = load ptr, ptr %m_assumptions, align 8
  %tobool.not.i.i.i.i.i.i = icmp eq ptr %8, null
  br i1 %tobool.not.i.i.i.i.i.i, label %_ZN15ref_vector_coreI4expr19ref_manager_wrapperIS0_11ast_managerEE7dec_refEPS0_.exit.i.i.i, label %if.then.i.i.i.i.i.i

if.then.i.i.i.i.i.i:                              ; preds = %for.body.i.i.i
  %m_ref_count.i.i.i.i.i.i.i = getelementptr inbounds %class.ast, ptr %8, i64 0, i32 2
  %10 = load i32, ptr %m_ref_count.i.i.i.i.i.i.i, align 4
  %dec.i.i.i.i.i.i.i = add i32 %10, -1
  store i32 %dec.i.i.i.i.i.i.i, ptr %m_ref_count.i.i.i.i.i.i.i, align 4
  %cmp.i.i.i.i.i.i = icmp eq i32 %dec.i.i.i.i.i.i.i, 0
  br i1 %cmp.i.i.i.i.i.i, label %if.then2.i.i.i.i.i.i, label %_ZN15ref_vector_coreI4expr19ref_manager_wrapperIS0_11ast_managerEE7dec_refEPS0_.exit.i.i.i

if.then2.i.i.i.i.i.i:                             ; preds = %if.then.i.i.i.i.i.i
  invoke void @_ZN11ast_manager11delete_nodeEP3ast(ptr noundef nonnull align 8 dereferenceable(976) %9, ptr noundef nonnull %8)
          to label %_ZN15ref_vector_coreI4expr19ref_manager_wrapperIS0_11ast_managerEE7dec_refEPS0_.exit.i.i.i unwind label %terminate.lpad.i.i

_ZN15ref_vector_coreI4expr19ref_manager_wrapperIS0_11ast_managerEE7dec_refEPS0_.exit.i.i.i: ; preds = %if.then2.i.i.i.i.i.i, %if.then.i.i.i.i.i.i, %for.body.i.i.i
  %incdec.ptr.i.i.i = getelementptr inbounds ptr, ptr %it.04.i.i.i, i64 1
  %cmp.i1.i.i = icmp ult ptr %incdec.ptr.i.i.i, %add.ptr.i.i
  br i1 %cmp.i1.i.i, label %for.body.i.i.i, label %invoke.cont8.i.i, !llvm.loop !8

invoke.cont8.i.i:                                 ; preds = %_ZN15ref_vector_coreI4expr19ref_manager_wrapperIS0_11ast_managerEE7dec_refEPS0_.exit.i.i.i
  %.pre.i.i = load ptr, ptr %m_nodes.i.i, align 8
  %tobool.not.i.i.i.i.i = icmp eq ptr %.pre.i.i, null
  br i1 %tobool.not.i.i.i.i.i, label %_ZN10ref_vectorI4expr11ast_managerED2Ev.exit, label %if.then.i.i.i.i.i

if.then.i.i.i.i.i:                                ; preds = %invoke.cont8.i.i, %_ZNK6vectorIP4exprLb0EjE4sizeEv.exit.i.i
  %11 = phi ptr [ %.pre.i.i, %invoke.cont8.i.i ], [ %5, %_ZNK6vectorIP4exprLb0EjE4sizeEv.exit.i.i ]
  %add.ptr.i.i.i.i.i.i = getelementptr inbounds i32, ptr %11, i64 -2
  invoke void @_ZN6memory10deallocateEPv(ptr noundef nonnull %add.ptr.i.i.i.i.i.i)
          to label %_ZN10ref_vectorI4expr11ast_managerED2Ev.exit unwind label %terminate.lpad.i.i.i.i

terminate.lpad.i.i.i.i:                           ; preds = %if.then.i.i.i.i.i
  %12 = landingpad { ptr, i32 }
          catch ptr null
  %13 = extractvalue { ptr, i32 } %12, 0
  tail call void @__clang_call_terminate(ptr %13) #19
  unreachable

terminate.lpad.i.i:                               ; preds = %if.then2.i.i.i.i.i.i
  %14 = landingpad { ptr, i32 }
          catch ptr null
  %15 = extractvalue { ptr, i32 } %14, 0
  tail call void @__clang_call_terminate(ptr %15) #19
  unreachable

_ZN10ref_vectorI4expr11ast_managerED2Ev.exit:     ; preds = %_ZN3refI6solverED2Ev.exit, %invoke.cont8.i.i, %if.then.i.i.i.i.i
  %m_asserted_cubes = getelementptr inbounds %"class.parallel_tactic::solver_state", ptr %this, i64 0, i32 2
  %m_nodes.i.i2 = getelementptr inbounds %"class.parallel_tactic::solver_state", ptr %this, i64 0, i32 2, i32 0, i32 1
  %16 = load ptr, ptr %m_nodes.i.i2, align 8
  %cmp.i.i.i3 = icmp eq ptr %16, null
  br i1 %cmp.i.i.i3, label %_ZN10ref_vectorI4expr11ast_managerED2Ev.exit26, label %_ZNK6vectorIP4exprLb0EjE4sizeEv.exit.i.i4

_ZNK6vectorIP4exprLb0EjE4sizeEv.exit.i.i4:        ; preds = %_ZN10ref_vectorI4expr11ast_managerED2Ev.exit
  %arrayidx.i.i.i5 = getelementptr inbounds i32, ptr %16, i64 -1
  %17 = load i32, ptr %arrayidx.i.i.i5, align 4
  %18 = zext i32 %17 to i64
  %add.ptr.i.i6 = getelementptr inbounds ptr, ptr %16, i64 %18
  %cmp3.i.not.i.i7 = icmp eq i32 %17, 0
  br i1 %cmp3.i.not.i.i7, label %if.then.i.i.i.i.i21, label %for.body.i.i.i8

for.body.i.i.i8:                                  ; preds = %_ZNK6vectorIP4exprLb0EjE4sizeEv.exit.i.i4, %_ZN15ref_vector_coreI4expr19ref_manager_wrapperIS0_11ast_managerEE7dec_refEPS0_.exit.i.i.i15
  %it.04.i.i.i9 = phi ptr [ %incdec.ptr.i.i.i16, %_ZN15ref_vector_coreI4expr19ref_manager_wrapperIS0_11ast_managerEE7dec_refEPS0_.exit.i.i.i15 ], [ %16, %_ZNK6vectorIP4exprLb0EjE4sizeEv.exit.i.i4 ]
  %19 = load ptr, ptr %it.04.i.i.i9, align 8
  %20 = load ptr, ptr %m_asserted_cubes, align 8
  %tobool.not.i.i.i.i.i.i10 = icmp eq ptr %19, null
  br i1 %tobool.not.i.i.i.i.i.i10, label %_ZN15ref_vector_coreI4expr19ref_manager_wrapperIS0_11ast_managerEE7dec_refEPS0_.exit.i.i.i15, label %if.then.i.i.i.i.i.i11

if.then.i.i.i.i.i.i11:                            ; preds = %for.body.i.i.i8
  %m_ref_count.i.i.i.i.i.i.i12 = getelementptr inbounds %class.ast, ptr %19, i64 0, i32 2
  %21 = load i32, ptr %m_ref_count.i.i.i.i.i.i.i12, align 4
  %dec.i.i.i.i.i.i.i13 = add i32 %21, -1
  store i32 %dec.i.i.i.i.i.i.i13, ptr %m_ref_count.i.i.i.i.i.i.i12, align 4
  %cmp.i.i.i.i.i.i14 = icmp eq i32 %dec.i.i.i.i.i.i.i13, 0
  br i1 %cmp.i.i.i.i.i.i14, label %if.then2.i.i.i.i.i.i24, label %_ZN15ref_vector_coreI4expr19ref_manager_wrapperIS0_11ast_managerEE7dec_refEPS0_.exit.i.i.i15

if.then2.i.i.i.i.i.i24:                           ; preds = %if.then.i.i.i.i.i.i11
  invoke void @_ZN11ast_manager11delete_nodeEP3ast(ptr noundef nonnull align 8 dereferenceable(976) %20, ptr noundef nonnull %19)
          to label %_ZN15ref_vector_coreI4expr19ref_manager_wrapperIS0_11ast_managerEE7dec_refEPS0_.exit.i.i.i15 unwind label %terminate.lpad.i.i25

_ZN15ref_vector_coreI4expr19ref_manager_wrapperIS0_11ast_managerEE7dec_refEPS0_.exit.i.i.i15: ; preds = %if.then2.i.i.i.i.i.i24, %if.then.i.i.i.i.i.i11, %for.body.i.i.i8
  %incdec.ptr.i.i.i16 = getelementptr inbounds ptr, ptr %it.04.i.i.i9, i64 1
  %cmp.i1.i.i17 = icmp ult ptr %incdec.ptr.i.i.i16, %add.ptr.i.i6
  br i1 %cmp.i1.i.i17, label %for.body.i.i.i8, label %invoke.cont8.i.i18, !llvm.loop !8

invoke.cont8.i.i18:                               ; preds = %_ZN15ref_vector_coreI4expr19ref_manager_wrapperIS0_11ast_managerEE7dec_refEPS0_.exit.i.i.i15
  %.pre.i.i19 = load ptr, ptr %m_nodes.i.i2, align 8
  %tobool.not.i.i.i.i.i20 = icmp eq ptr %.pre.i.i19, null
  br i1 %tobool.not.i.i.i.i.i20, label %_ZN10ref_vectorI4expr11ast_managerED2Ev.exit26, label %if.then.i.i.i.i.i21

if.then.i.i.i.i.i21:                              ; preds = %invoke.cont8.i.i18, %_ZNK6vectorIP4exprLb0EjE4sizeEv.exit.i.i4
  %22 = phi ptr [ %.pre.i.i19, %invoke.cont8.i.i18 ], [ %16, %_ZNK6vectorIP4exprLb0EjE4sizeEv.exit.i.i4 ]
  %add.ptr.i.i.i.i.i.i22 = getelementptr inbounds i32, ptr %22, i64 -2
  invoke void @_ZN6memory10deallocateEPv(ptr noundef nonnull %add.ptr.i.i.i.i.i.i22)
          to label %_ZN10ref_vectorI4expr11ast_managerED2Ev.exit26 unwind label %terminate.lpad.i.i.i.i23

terminate.lpad.i.i.i.i23:                         ; preds = %if.then.i.i.i.i.i21
  %23 = landingpad { ptr, i32 }
          catch ptr null
  %24 = extractvalue { ptr, i32 } %23, 0
  tail call void @__clang_call_terminate(ptr %24) #19
  unreachable

terminate.lpad.i.i25:                             ; preds = %if.then2.i.i.i.i.i.i24
  %25 = landingpad { ptr, i32 }
          catch ptr null
  %26 = extractvalue { ptr, i32 } %25, 0
  tail call void @__clang_call_terminate(ptr %26) #19
  unreachable

_ZN10ref_vectorI4expr11ast_managerED2Ev.exit26:   ; preds = %_ZN10ref_vectorI4expr11ast_managerED2Ev.exit, %invoke.cont8.i.i18, %if.then.i.i.i.i.i21
  %m_cubes = getelementptr inbounds %"class.parallel_tactic::solver_state", ptr %this, i64 0, i32 1
  %27 = load ptr, ptr %m_cubes, align 8
  %tobool.not.i.i27 = icmp eq ptr %27, null
  br i1 %tobool.not.i.i27, label %_ZN6vectorIN15parallel_tactic8cube_varELb1EjED2Ev.exit, label %_ZNK6vectorIN15parallel_tactic8cube_varELb1EjE4sizeEv.exit.i.i.i

_ZNK6vectorIN15parallel_tactic8cube_varELb1EjE4sizeEv.exit.i.i.i: ; preds = %_ZN10ref_vectorI4expr11ast_managerED2Ev.exit26
  %arrayidx.i.i.i.i = getelementptr inbounds i32, ptr %27, i64 -1
  %28 = load i32, ptr %arrayidx.i.i.i.i, align 4
  %cmp.not4.i.i.i.i.i.i = icmp eq i32 %28, 0
  br i1 %cmp.not4.i.i.i.i.i.i, label %_ZN6vectorIN15parallel_tactic8cube_varELb1EjE16destroy_elementsEv.exit.i.i, label %for.body.i.i.i.i.i.i

for.body.i.i.i.i.i.i:                             ; preds = %_ZNK6vectorIN15parallel_tactic8cube_varELb1EjE4sizeEv.exit.i.i.i, %for.body.i.i.i.i.i.i
  %__count.addr.06.i.i.i.i.i.i = phi i32 [ %dec.i.i.i.i.i.i, %for.body.i.i.i.i.i.i ], [ %28, %_ZNK6vectorIN15parallel_tactic8cube_varELb1EjE4sizeEv.exit.i.i.i ]
  %__first.addr.05.i.i.i.i.i.i = phi ptr [ %incdec.ptr.i.i.i.i.i.i, %for.body.i.i.i.i.i.i ], [ %27, %_ZNK6vectorIN15parallel_tactic8cube_varELb1EjE4sizeEv.exit.i.i.i ]
  tail call void @_ZN15parallel_tactic8cube_varD2Ev(ptr noundef nonnull align 8 dereferenceable(32) %__first.addr.05.i.i.i.i.i.i) #18
  %incdec.ptr.i.i.i.i.i.i = getelementptr inbounds %"class.parallel_tactic::cube_var", ptr %__first.addr.05.i.i.i.i.i.i, i64 1
  %dec.i.i.i.i.i.i = add i32 %__count.addr.06.i.i.i.i.i.i, -1
  %cmp.not.i.i.i.i.i.i = icmp eq i32 %dec.i.i.i.i.i.i, 0
  br i1 %cmp.not.i.i.i.i.i.i, label %_ZN6vectorIN15parallel_tactic8cube_varELb1EjE16destroy_elementsEv.exit.loopexit.i.i, label %for.body.i.i.i.i.i.i, !llvm.loop !10

_ZN6vectorIN15parallel_tactic8cube_varELb1EjE16destroy_elementsEv.exit.loopexit.i.i: ; preds = %for.body.i.i.i.i.i.i
  %.pre.i.i28 = load ptr, ptr %m_cubes, align 8
  br label %_ZN6vectorIN15parallel_tactic8cube_varELb1EjE16destroy_elementsEv.exit.i.i

_ZN6vectorIN15parallel_tactic8cube_varELb1EjE16destroy_elementsEv.exit.i.i: ; preds = %_ZN6vectorIN15parallel_tactic8cube_varELb1EjE16destroy_elementsEv.exit.loopexit.i.i, %_ZNK6vectorIN15parallel_tactic8cube_varELb1EjE4sizeEv.exit.i.i.i
  %29 = phi ptr [ %.pre.i.i28, %_ZN6vectorIN15parallel_tactic8cube_varELb1EjE16destroy_elementsEv.exit.loopexit.i.i ], [ %27, %_ZNK6vectorIN15parallel_tactic8cube_varELb1EjE4sizeEv.exit.i.i.i ]
  %add.ptr.i.i.i = getelementptr inbounds i32, ptr %29, i64 -2
  invoke void @_ZN6memory10deallocateEPv(ptr noundef nonnull %add.ptr.i.i.i)
          to label %_ZN6vectorIN15parallel_tactic8cube_varELb1EjED2Ev.exit unwind label %terminate.lpad.i29

terminate.lpad.i29:                               ; preds = %_ZN6vectorIN15parallel_tactic8cube_varELb1EjE16destroy_elementsEv.exit.i.i
  %30 = landingpad { ptr, i32 }
          catch ptr null
  %31 = extractvalue { ptr, i32 } %30, 0
  tail call void @__clang_call_terminate(ptr %31) #19
  unreachable

_ZN6vectorIN15parallel_tactic8cube_varELb1EjED2Ev.exit: ; preds = %_ZN10ref_vectorI4expr11ast_managerED2Ev.exit26, %_ZN6vectorIN15parallel_tactic8cube_varELb1EjE16destroy_elementsEv.exit.i.i
  %32 = load ptr, ptr %this, align 8
  %cmp.i.i = icmp eq ptr %32, null
  br i1 %cmp.i.i, label %_ZN10scoped_ptrI11ast_managerED2Ev.exit, label %if.end.i.i

if.end.i.i:                                       ; preds = %_ZN6vectorIN15parallel_tactic8cube_varELb1EjED2Ev.exit
  tail call void @_ZN11ast_managerD1Ev(ptr noundef nonnull align 8 dereferenceable(976) %32) #18
  invoke void @_ZN6memory10deallocateEPv(ptr noundef nonnull %32)
          to label %_ZN10scoped_ptrI11ast_managerED2Ev.exit unwind label %terminate.lpad.i30

terminate.lpad.i30:                               ; preds = %if.end.i.i
  %33 = landingpad { ptr, i32 }
          catch ptr null
  %34 = extractvalue { ptr, i32 } %33, 0
  tail call void @__clang_call_terminate(ptr %34) #19
  unreachable

_ZN10scoped_ptrI11ast_managerED2Ev.exit:          ; preds = %_ZN6vectorIN15parallel_tactic8cube_varELb1EjED2Ev.exit, %if.end.i.i
  ret void
}

; Function Attrs: mustprogress nounwind uwtable
define linkonce_odr hidden void @_ZN6vectorIN15parallel_tactic8cube_varELb1EjED2Ev(ptr noundef nonnull align 8 dereferenceable(8) %this) unnamed_addr #4 comdat align 2 personality ptr @__gxx_personality_v0 {
entry:
  %0 = load ptr, ptr %this, align 8
  %tobool.not.i = icmp eq ptr %0, null
  br i1 %tobool.not.i, label %invoke.cont, label %_ZNK6vectorIN15parallel_tactic8cube_varELb1EjE4sizeEv.exit.i.i

_ZNK6vectorIN15parallel_tactic8cube_varELb1EjE4sizeEv.exit.i.i: ; preds = %entry
  %arrayidx.i.i.i = getelementptr inbounds i32, ptr %0, i64 -1
  %1 = load i32, ptr %arrayidx.i.i.i, align 4
  %cmp.not4.i.i.i.i.i = icmp eq i32 %1, 0
  br i1 %cmp.not4.i.i.i.i.i, label %_ZN6vectorIN15parallel_tactic8cube_varELb1EjE16destroy_elementsEv.exit.i, label %for.body.i.i.i.i.i

for.body.i.i.i.i.i:                               ; preds = %_ZNK6vectorIN15parallel_tactic8cube_varELb1EjE4sizeEv.exit.i.i, %for.body.i.i.i.i.i
  %__count.addr.06.i.i.i.i.i = phi i32 [ %dec.i.i.i.i.i, %for.body.i.i.i.i.i ], [ %1, %_ZNK6vectorIN15parallel_tactic8cube_varELb1EjE4sizeEv.exit.i.i ]
  %__first.addr.05.i.i.i.i.i = phi ptr [ %incdec.ptr.i.i.i.i.i, %for.body.i.i.i.i.i ], [ %0, %_ZNK6vectorIN15parallel_tactic8cube_varELb1EjE4sizeEv.exit.i.i ]
  tail call void @_ZN15parallel_tactic8cube_varD2Ev(ptr noundef nonnull align 8 dereferenceable(32) %__first.addr.05.i.i.i.i.i) #18
  %incdec.ptr.i.i.i.i.i = getelementptr inbounds %"class.parallel_tactic::cube_var", ptr %__first.addr.05.i.i.i.i.i, i64 1
  %dec.i.i.i.i.i = add i32 %__count.addr.06.i.i.i.i.i, -1
  %cmp.not.i.i.i.i.i = icmp eq i32 %dec.i.i.i.i.i, 0
  br i1 %cmp.not.i.i.i.i.i, label %_ZN6vectorIN15parallel_tactic8cube_varELb1EjE16destroy_elementsEv.exit.loopexit.i, label %for.body.i.i.i.i.i, !llvm.loop !10

_ZN6vectorIN15parallel_tactic8cube_varELb1EjE16destroy_elementsEv.exit.loopexit.i: ; preds = %for.body.i.i.i.i.i
  %.pre.i = load ptr, ptr %this, align 8
  br label %_ZN6vectorIN15parallel_tactic8cube_varELb1EjE16destroy_elementsEv.exit.i

_ZN6vectorIN15parallel_tactic8cube_varELb1EjE16destroy_elementsEv.exit.i: ; preds = %_ZN6vectorIN15parallel_tactic8cube_varELb1EjE16destroy_elementsEv.exit.loopexit.i, %_ZNK6vectorIN15parallel_tactic8cube_varELb1EjE4sizeEv.exit.i.i
  %2 = phi ptr [ %.pre.i, %_ZN6vectorIN15parallel_tactic8cube_varELb1EjE16destroy_elementsEv.exit.loopexit.i ], [ %0, %_ZNK6vectorIN15parallel_tactic8cube_varELb1EjE4sizeEv.exit.i.i ]
  %add.ptr.i.i = getelementptr inbounds i32, ptr %2, i64 -2
  invoke void @_ZN6memory10deallocateEPv(ptr noundef nonnull %add.ptr.i.i)
          to label %invoke.cont unwind label %terminate.lpad

invoke.cont:                                      ; preds = %entry, %_ZN6vectorIN15parallel_tactic8cube_varELb1EjE16destroy_elementsEv.exit.i
  ret void

terminate.lpad:                                   ; preds = %_ZN6vectorIN15parallel_tactic8cube_varELb1EjE16destroy_elementsEv.exit.i
  %3 = landingpad { ptr, i32 }
          catch ptr null
  %4 = extractvalue { ptr, i32 } %3, 0
  tail call void @__clang_call_terminate(ptr %4) #19
  unreachable
}

; Function Attrs: mustprogress nounwind uwtable
define linkonce_odr hidden void @_ZN15parallel_tactic8cube_varD2Ev(ptr noundef nonnull align 8 dereferenceable(32) %this) unnamed_addr #4 comdat align 2 personality ptr @__gxx_personality_v0 {
entry:
  %m_cube = getelementptr inbounds %"class.parallel_tactic::cube_var", ptr %this, i64 0, i32 1
  %m_nodes.i.i = getelementptr inbounds %"class.parallel_tactic::cube_var", ptr %this, i64 0, i32 1, i32 0, i32 1
  %0 = load ptr, ptr %m_nodes.i.i, align 8
  %cmp.i.i.i = icmp eq ptr %0, null
  br i1 %cmp.i.i.i, label %_ZN10ref_vectorI4expr11ast_managerED2Ev.exit, label %_ZNK6vectorIP4exprLb0EjE4sizeEv.exit.i.i

_ZNK6vectorIP4exprLb0EjE4sizeEv.exit.i.i:         ; preds = %entry
  %arrayidx.i.i.i = getelementptr inbounds i32, ptr %0, i64 -1
  %1 = load i32, ptr %arrayidx.i.i.i, align 4
  %2 = zext i32 %1 to i64
  %add.ptr.i.i = getelementptr inbounds ptr, ptr %0, i64 %2
  %cmp3.i.not.i.i = icmp eq i32 %1, 0
  br i1 %cmp3.i.not.i.i, label %if.then.i.i.i.i.i, label %for.body.i.i.i

for.body.i.i.i:                                   ; preds = %_ZNK6vectorIP4exprLb0EjE4sizeEv.exit.i.i, %_ZN15ref_vector_coreI4expr19ref_manager_wrapperIS0_11ast_managerEE7dec_refEPS0_.exit.i.i.i
  %it.04.i.i.i = phi ptr [ %incdec.ptr.i.i.i, %_ZN15ref_vector_coreI4expr19ref_manager_wrapperIS0_11ast_managerEE7dec_refEPS0_.exit.i.i.i ], [ %0, %_ZNK6vectorIP4exprLb0EjE4sizeEv.exit.i.i ]
  %3 = load ptr, ptr %it.04.i.i.i, align 8
  %4 = load ptr, ptr %m_cube, align 8
  %tobool.not.i.i.i.i.i.i = icmp eq ptr %3, null
  br i1 %tobool.not.i.i.i.i.i.i, label %_ZN15ref_vector_coreI4expr19ref_manager_wrapperIS0_11ast_managerEE7dec_refEPS0_.exit.i.i.i, label %if.then.i.i.i.i.i.i

if.then.i.i.i.i.i.i:                              ; preds = %for.body.i.i.i
  %m_ref_count.i.i.i.i.i.i.i = getelementptr inbounds %class.ast, ptr %3, i64 0, i32 2
  %5 = load i32, ptr %m_ref_count.i.i.i.i.i.i.i, align 4
  %dec.i.i.i.i.i.i.i = add i32 %5, -1
  store i32 %dec.i.i.i.i.i.i.i, ptr %m_ref_count.i.i.i.i.i.i.i, align 4
  %cmp.i.i.i.i.i.i = icmp eq i32 %dec.i.i.i.i.i.i.i, 0
  br i1 %cmp.i.i.i.i.i.i, label %if.then2.i.i.i.i.i.i, label %_ZN15ref_vector_coreI4expr19ref_manager_wrapperIS0_11ast_managerEE7dec_refEPS0_.exit.i.i.i

if.then2.i.i.i.i.i.i:                             ; preds = %if.then.i.i.i.i.i.i
  invoke void @_ZN11ast_manager11delete_nodeEP3ast(ptr noundef nonnull align 8 dereferenceable(976) %4, ptr noundef nonnull %3)
          to label %_ZN15ref_vector_coreI4expr19ref_manager_wrapperIS0_11ast_managerEE7dec_refEPS0_.exit.i.i.i unwind label %terminate.lpad.i.i

_ZN15ref_vector_coreI4expr19ref_manager_wrapperIS0_11ast_managerEE7dec_refEPS0_.exit.i.i.i: ; preds = %if.then2.i.i.i.i.i.i, %if.then.i.i.i.i.i.i, %for.body.i.i.i
  %incdec.ptr.i.i.i = getelementptr inbounds ptr, ptr %it.04.i.i.i, i64 1
  %cmp.i1.i.i = icmp ult ptr %incdec.ptr.i.i.i, %add.ptr.i.i
  br i1 %cmp.i1.i.i, label %for.body.i.i.i, label %invoke.cont8.i.i, !llvm.loop !8

invoke.cont8.i.i:                                 ; preds = %_ZN15ref_vector_coreI4expr19ref_manager_wrapperIS0_11ast_managerEE7dec_refEPS0_.exit.i.i.i
  %.pre.i.i = load ptr, ptr %m_nodes.i.i, align 8
  %tobool.not.i.i.i.i.i = icmp eq ptr %.pre.i.i, null
  br i1 %tobool.not.i.i.i.i.i, label %_ZN10ref_vectorI4expr11ast_managerED2Ev.exit, label %if.then.i.i.i.i.i

if.then.i.i.i.i.i:                                ; preds = %invoke.cont8.i.i, %_ZNK6vectorIP4exprLb0EjE4sizeEv.exit.i.i
  %6 = phi ptr [ %.pre.i.i, %invoke.cont8.i.i ], [ %0, %_ZNK6vectorIP4exprLb0EjE4sizeEv.exit.i.i ]
  %add.ptr.i.i.i.i.i.i = getelementptr inbounds i32, ptr %6, i64 -2
  invoke void @_ZN6memory10deallocateEPv(ptr noundef nonnull %add.ptr.i.i.i.i.i.i)
          to label %_ZN10ref_vectorI4expr11ast_managerED2Ev.exit unwind label %terminate.lpad.i.i.i.i

terminate.lpad.i.i.i.i:                           ; preds = %if.then.i.i.i.i.i
  %7 = landingpad { ptr, i32 }
          catch ptr null
  %8 = extractvalue { ptr, i32 } %7, 0
  tail call void @__clang_call_terminate(ptr %8) #19
  unreachable

terminate.lpad.i.i:                               ; preds = %if.then2.i.i.i.i.i.i
  %9 = landingpad { ptr, i32 }
          catch ptr null
  %10 = extractvalue { ptr, i32 } %9, 0
  tail call void @__clang_call_terminate(ptr %10) #19
  unreachable

_ZN10ref_vectorI4expr11ast_managerED2Ev.exit:     ; preds = %entry, %invoke.cont8.i.i, %if.then.i.i.i.i.i
  %m_nodes.i.i1 = getelementptr inbounds %class.ref_vector_core.6, ptr %this, i64 0, i32 1
  %11 = load ptr, ptr %m_nodes.i.i1, align 8
  %cmp.i.i.i2 = icmp eq ptr %11, null
  br i1 %cmp.i.i.i2, label %_ZN10ref_vectorI4expr11ast_managerED2Ev.exit25, label %_ZNK6vectorIP4exprLb0EjE4sizeEv.exit.i.i3

_ZNK6vectorIP4exprLb0EjE4sizeEv.exit.i.i3:        ; preds = %_ZN10ref_vectorI4expr11ast_managerED2Ev.exit
  %arrayidx.i.i.i4 = getelementptr inbounds i32, ptr %11, i64 -1
  %12 = load i32, ptr %arrayidx.i.i.i4, align 4
  %13 = zext i32 %12 to i64
  %add.ptr.i.i5 = getelementptr inbounds ptr, ptr %11, i64 %13
  %cmp3.i.not.i.i6 = icmp eq i32 %12, 0
  br i1 %cmp3.i.not.i.i6, label %if.then.i.i.i.i.i20, label %for.body.i.i.i7

for.body.i.i.i7:                                  ; preds = %_ZNK6vectorIP4exprLb0EjE4sizeEv.exit.i.i3, %_ZN15ref_vector_coreI4expr19ref_manager_wrapperIS0_11ast_managerEE7dec_refEPS0_.exit.i.i.i14
  %it.04.i.i.i8 = phi ptr [ %incdec.ptr.i.i.i15, %_ZN15ref_vector_coreI4expr19ref_manager_wrapperIS0_11ast_managerEE7dec_refEPS0_.exit.i.i.i14 ], [ %11, %_ZNK6vectorIP4exprLb0EjE4sizeEv.exit.i.i3 ]
  %14 = load ptr, ptr %it.04.i.i.i8, align 8
  %15 = load ptr, ptr %this, align 8
  %tobool.not.i.i.i.i.i.i9 = icmp eq ptr %14, null
  br i1 %tobool.not.i.i.i.i.i.i9, label %_ZN15ref_vector_coreI4expr19ref_manager_wrapperIS0_11ast_managerEE7dec_refEPS0_.exit.i.i.i14, label %if.then.i.i.i.i.i.i10

if.then.i.i.i.i.i.i10:                            ; preds = %for.body.i.i.i7
  %m_ref_count.i.i.i.i.i.i.i11 = getelementptr inbounds %class.ast, ptr %14, i64 0, i32 2
  %16 = load i32, ptr %m_ref_count.i.i.i.i.i.i.i11, align 4
  %dec.i.i.i.i.i.i.i12 = add i32 %16, -1
  store i32 %dec.i.i.i.i.i.i.i12, ptr %m_ref_count.i.i.i.i.i.i.i11, align 4
  %cmp.i.i.i.i.i.i13 = icmp eq i32 %dec.i.i.i.i.i.i.i12, 0
  br i1 %cmp.i.i.i.i.i.i13, label %if.then2.i.i.i.i.i.i23, label %_ZN15ref_vector_coreI4expr19ref_manager_wrapperIS0_11ast_managerEE7dec_refEPS0_.exit.i.i.i14

if.then2.i.i.i.i.i.i23:                           ; preds = %if.then.i.i.i.i.i.i10
  invoke void @_ZN11ast_manager11delete_nodeEP3ast(ptr noundef nonnull align 8 dereferenceable(976) %15, ptr noundef nonnull %14)
          to label %_ZN15ref_vector_coreI4expr19ref_manager_wrapperIS0_11ast_managerEE7dec_refEPS0_.exit.i.i.i14 unwind label %terminate.lpad.i.i24

_ZN15ref_vector_coreI4expr19ref_manager_wrapperIS0_11ast_managerEE7dec_refEPS0_.exit.i.i.i14: ; preds = %if.then2.i.i.i.i.i.i23, %if.then.i.i.i.i.i.i10, %for.body.i.i.i7
  %incdec.ptr.i.i.i15 = getelementptr inbounds ptr, ptr %it.04.i.i.i8, i64 1
  %cmp.i1.i.i16 = icmp ult ptr %incdec.ptr.i.i.i15, %add.ptr.i.i5
  br i1 %cmp.i1.i.i16, label %for.body.i.i.i7, label %invoke.cont8.i.i17, !llvm.loop !8

invoke.cont8.i.i17:                               ; preds = %_ZN15ref_vector_coreI4expr19ref_manager_wrapperIS0_11ast_managerEE7dec_refEPS0_.exit.i.i.i14
  %.pre.i.i18 = load ptr, ptr %m_nodes.i.i1, align 8
  %tobool.not.i.i.i.i.i19 = icmp eq ptr %.pre.i.i18, null
  br i1 %tobool.not.i.i.i.i.i19, label %_ZN10ref_vectorI4expr11ast_managerED2Ev.exit25, label %if.then.i.i.i.i.i20

if.then.i.i.i.i.i20:                              ; preds = %invoke.cont8.i.i17, %_ZNK6vectorIP4exprLb0EjE4sizeEv.exit.i.i3
  %17 = phi ptr [ %.pre.i.i18, %invoke.cont8.i.i17 ], [ %11, %_ZNK6vectorIP4exprLb0EjE4sizeEv.exit.i.i3 ]
  %add.ptr.i.i.i.i.i.i21 = getelementptr inbounds i32, ptr %17, i64 -2
  invoke void @_ZN6memory10deallocateEPv(ptr noundef nonnull %add.ptr.i.i.i.i.i.i21)
          to label %_ZN10ref_vectorI4expr11ast_managerED2Ev.exit25 unwind label %terminate.lpad.i.i.i.i22

terminate.lpad.i.i.i.i22:                         ; preds = %if.then.i.i.i.i.i20
  %18 = landingpad { ptr, i32 }
          catch ptr null
  %19 = extractvalue { ptr, i32 } %18, 0
  tail call void @__clang_call_terminate(ptr %19) #19
  unreachable

terminate.lpad.i.i24:                             ; preds = %if.then2.i.i.i.i.i.i23
  %20 = landingpad { ptr, i32 }
          catch ptr null
  %21 = extractvalue { ptr, i32 } %20, 0
  tail call void @__clang_call_terminate(ptr %21) #19
  unreachable

_ZN10ref_vectorI4expr11ast_managerED2Ev.exit25:   ; preds = %_ZN10ref_vectorI4expr11ast_managerED2Ev.exit, %invoke.cont8.i.i17, %if.then.i.i.i.i.i20
  ret void
}

; Function Attrs: nounwind
declare void @_ZN11ast_managerD1Ev(ptr noundef nonnull align 8 dereferenceable(976)) unnamed_addr #1

declare void @_ZN10params_ref4copyERKS_(ptr noundef nonnull align 8 dereferenceable(8), ptr noundef nonnull align 8 dereferenceable(8)) local_unnamed_addr #0

declare void @_Z24fail_if_proof_generationPKcRK3refI4goalE(ptr noundef, ptr noundef nonnull align 8 dereferenceable(8)) local_unnamed_addr #0

; Function Attrs: mustprogress uwtable
define linkonce_odr hidden void @_ZN15parallel_tactic12solver_stateC2EP11ast_managerP6solverRK10params_ref(ptr noundef nonnull align 8 dereferenceable(81) %this, ptr noundef %m, ptr noundef %s, ptr noundef nonnull align 8 dereferenceable(8) %p) unnamed_addr #3 comdat align 2 personality ptr @__gxx_personality_v0 {
entry:
  store ptr %m, ptr %this, align 8
  %m_cubes = getelementptr inbounds %"class.parallel_tactic::solver_state", ptr %this, i64 0, i32 1
  store ptr null, ptr %m_cubes, align 8
  %m_asserted_cubes = getelementptr inbounds %"class.parallel_tactic::solver_state", ptr %this, i64 0, i32 2
  %vtable = load ptr, ptr %s, align 8
  %vfn = getelementptr inbounds ptr, ptr %vtable, i64 9
  %0 = load ptr, ptr %vfn, align 8
  %call = invoke noundef nonnull align 8 dereferenceable(976) ptr %0(ptr noundef nonnull align 8 dereferenceable(72) %s)
          to label %invoke.cont2 unwind label %lpad

invoke.cont2:                                     ; preds = %entry
  store ptr %call, ptr %m_asserted_cubes, align 8
  %m_nodes.i.i = getelementptr inbounds %"class.parallel_tactic::solver_state", ptr %this, i64 0, i32 2, i32 0, i32 1
  store ptr null, ptr %m_nodes.i.i, align 8
  %m_assumptions = getelementptr inbounds %"class.parallel_tactic::solver_state", ptr %this, i64 0, i32 3
  %vtable3 = load ptr, ptr %s, align 8
  %vfn4 = getelementptr inbounds ptr, ptr %vtable3, i64 9
  %1 = load ptr, ptr %vfn4, align 8
  %call7 = invoke noundef nonnull align 8 dereferenceable(976) ptr %1(ptr noundef nonnull align 8 dereferenceable(72) %s)
          to label %invoke.cont8 unwind label %lpad5

invoke.cont8:                                     ; preds = %invoke.cont2
  store ptr %call7, ptr %m_assumptions, align 8
  %m_nodes.i.i6 = getelementptr inbounds %"class.parallel_tactic::solver_state", ptr %this, i64 0, i32 3, i32 0, i32 1
  store ptr null, ptr %m_nodes.i.i6, align 8
  %m_params = getelementptr inbounds %"class.parallel_tactic::solver_state", ptr %this, i64 0, i32 4
  invoke void @_ZN10params_refC1ERKS_(ptr noundef nonnull align 8 dereferenceable(8) %m_params, ptr noundef nonnull align 8 dereferenceable(8) %p)
          to label %invoke.cont12 unwind label %lpad9

invoke.cont12:                                    ; preds = %invoke.cont8
  %m_solver = getelementptr inbounds %"class.parallel_tactic::solver_state", ptr %this, i64 0, i32 5
  store ptr %s, ptr %m_solver, align 8
  %m_ref_count.i.i.i = getelementptr inbounds %class.check_sat_result, ptr %s, i64 0, i32 4
  %2 = load i32, ptr %m_ref_count.i.i.i, align 8
  %inc.i.i.i = add i32 %2, 1
  store i32 %inc.i.i.i, ptr %m_ref_count.i.i.i, align 8
  %m_depth = getelementptr inbounds %"class.parallel_tactic::solver_state", ptr %this, i64 0, i32 6
  store i32 0, ptr %m_depth, align 8
  %m_width = getelementptr inbounds %"class.parallel_tactic::solver_state", ptr %this, i64 0, i32 8
  store double 1.000000e+00, ptr %m_width, align 8
  %m_giveup = getelementptr inbounds %"class.parallel_tactic::solver_state", ptr %this, i64 0, i32 9
  store i8 0, ptr %m_giveup, align 8
  ret void

lpad:                                             ; preds = %entry
  %3 = landingpad { ptr, i32 }
          cleanup
  br label %ehcleanup14

lpad5:                                            ; preds = %invoke.cont2
  %4 = landingpad { ptr, i32 }
          cleanup
  br label %ehcleanup13

lpad9:                                            ; preds = %invoke.cont8
  %5 = landingpad { ptr, i32 }
          cleanup
  tail call void @_ZN10ref_vectorI4expr11ast_managerED2Ev(ptr noundef nonnull align 8 dereferenceable(16) %m_assumptions) #18
  br label %ehcleanup13

ehcleanup13:                                      ; preds = %lpad9, %lpad5
  %.pn.pn = phi { ptr, i32 } [ %5, %lpad9 ], [ %4, %lpad5 ]
  tail call void @_ZN10ref_vectorI4expr11ast_managerED2Ev(ptr noundef nonnull align 8 dereferenceable(16) %m_asserted_cubes) #18
  br label %ehcleanup14

ehcleanup14:                                      ; preds = %ehcleanup13, %lpad
  %.pn.pn.pn = phi { ptr, i32 } [ %.pn.pn, %ehcleanup13 ], [ %3, %lpad ]
  tail call void @_ZN6vectorIN15parallel_tactic8cube_varELb1EjED2Ev(ptr noundef nonnull align 8 dereferenceable(8) %m_cubes) #18
  tail call void @_ZN10scoped_ptrI11ast_managerED2Ev(ptr noundef nonnull align 8 dereferenceable(8) %this) #18
  resume { ptr, i32 } %.pn.pn.pn
}

; Function Attrs: mustprogress uwtable
define linkonce_odr hidden void @_ZN15parallel_tactic10task_queue8add_taskEPNS_12solver_stateE(ptr noundef nonnull align 8 dereferenceable(109) %this, ptr noundef %task) local_unnamed_addr #3 comdat align 2 personality ptr @__gxx_personality_v0 {
entry:
  %call1.i.i.i = tail call noundef i32 @pthread_mutex_lock(ptr noundef nonnull %this) #18
  %tobool.not.i.i = icmp eq i32 %call1.i.i.i, 0
  br i1 %tobool.not.i.i, label %_ZNSt10lock_guardISt5mutexEC2ERS0_.exit, label %if.then.i.i

if.then.i.i:                                      ; preds = %entry
  tail call void @_ZSt20__throw_system_errori(i32 noundef %call1.i.i.i) #21
  unreachable

_ZNSt10lock_guardISt5mutexEC2ERS0_.exit:          ; preds = %entry
  %m_tasks = getelementptr inbounds %"class.parallel_tactic::task_queue", ptr %this, i64 0, i32 2
  %0 = load ptr, ptr %m_tasks, align 8
  %cmp.i = icmp eq ptr %0, null
  br i1 %cmp.i, label %if.then.i, label %lor.lhs.false.i

lor.lhs.false.i:                                  ; preds = %_ZNSt10lock_guardISt5mutexEC2ERS0_.exit
  %arrayidx.i = getelementptr inbounds i32, ptr %0, i64 -1
  %1 = load i32, ptr %arrayidx.i, align 4
  %arrayidx4.i = getelementptr inbounds i32, ptr %0, i64 -2
  %2 = load i32, ptr %arrayidx4.i, align 4
  %cmp5.i = icmp eq i32 %1, %2
  br i1 %cmp5.i, label %if.then.i, label %invoke.cont

if.then.i:                                        ; preds = %lor.lhs.false.i, %_ZNSt10lock_guardISt5mutexEC2ERS0_.exit
  invoke void @_ZN6vectorIPN15parallel_tactic12solver_stateELb0EjE13expand_vectorEv(ptr noundef nonnull align 8 dereferenceable(8) %m_tasks)
          to label %.noexc unwind label %lpad

.noexc:                                           ; preds = %if.then.i
  %.pre.i = load ptr, ptr %m_tasks, align 8
  %arrayidx8.phi.trans.insert.i = getelementptr inbounds i32, ptr %.pre.i, i64 -1
  %.pre1.i = load i32, ptr %arrayidx8.phi.trans.insert.i, align 4
  br label %invoke.cont

invoke.cont:                                      ; preds = %.noexc, %lor.lhs.false.i
  %3 = phi i32 [ %.pre1.i, %.noexc ], [ %1, %lor.lhs.false.i ]
  %4 = phi ptr [ %.pre.i, %.noexc ], [ %0, %lor.lhs.false.i ]
  %idx.ext.i = zext i32 %3 to i64
  %add.ptr.i = getelementptr inbounds ptr, ptr %4, i64 %idx.ext.i
  store ptr %task, ptr %add.ptr.i, align 8
  %5 = load ptr, ptr %m_tasks, align 8
  %arrayidx10.i = getelementptr inbounds i32, ptr %5, i64 -1
  %6 = load i32, ptr %arrayidx10.i, align 4
  %inc.i = add i32 %6, 1
  store i32 %inc.i, ptr %arrayidx10.i, align 4
  %m_num_waiters = getelementptr inbounds %"class.parallel_tactic::task_queue", ptr %this, i64 0, i32 4
  %7 = load i32, ptr %m_num_waiters, align 8
  %cmp.not = icmp eq i32 %7, 0
  br i1 %cmp.not, label %if.end, label %if.then

if.then:                                          ; preds = %invoke.cont
  %m_cond = getelementptr inbounds %"class.parallel_tactic::task_queue", ptr %this, i64 0, i32 1
  tail call void @_ZNSt18condition_variable10notify_oneEv(ptr noundef nonnull align 8 dereferenceable(48) %m_cond) #18
  br label %if.end

lpad:                                             ; preds = %if.then.i
  %8 = landingpad { ptr, i32 }
          cleanup
  %call1.i.i.i1 = tail call noundef i32 @pthread_mutex_unlock(ptr noundef nonnull %this) #18
  resume { ptr, i32 } %8

if.end:                                           ; preds = %if.then, %invoke.cont
  %call1.i.i.i2 = tail call noundef i32 @pthread_mutex_unlock(ptr noundef nonnull %this) #18
  ret void
}

declare void @_Z32extract_clauses_and_dependenciesRK3refI4goalER10ref_vectorI4expr11ast_managerER10ptr_vectorIS5_ER7obj_mapIS5_PS5_ERS_I23generic_model_converterE(ptr noundef nonnull align 8 dereferenceable(8), ptr noundef nonnull align 8 dereferenceable(16), ptr noundef nonnull align 8 dereferenceable(8), ptr noundef nonnull align 8 dereferenceable(24), ptr noundef nonnull align 8 dereferenceable(8)) local_unnamed_addr #0

declare void @_ZN6solver11assert_exprEP4expr(ptr noundef nonnull align 8 dereferenceable(96), ptr noundef) local_unnamed_addr #0

; Function Attrs: mustprogress uwtable
define linkonce_odr hidden noundef i32 @_ZN15parallel_tactic5solveER3refI5modelE(ptr noundef nonnull align 8 dereferenceable(344) %this, ptr noundef nonnull align 8 dereferenceable(8) %mdl) local_unnamed_addr #3 comdat align 2 personality ptr @__gxx_personality_v0 {
entry:
  %agg.tmp.i = alloca %"class.std::unique_ptr", align 8
  %threads = alloca %class.vector.85, align 8
  %ref.tmp = alloca %"class.std::thread", align 8
  %tr = alloca %class.ast_translation, align 8
  %m_mutex.i = getelementptr inbounds %class.parallel_tactic, ptr %this, i64 0, i32 10
  %call1.i.i.i.i = tail call noundef i32 @pthread_mutex_lock(ptr noundef nonnull %m_mutex.i) #18
  %tobool.not.i.i.i = icmp eq i32 %call1.i.i.i.i, 0
  br i1 %tobool.not.i.i.i, label %_ZN15parallel_tactic12add_branchesEj.exit, label %if.then.i.i.i

if.then.i.i.i:                                    ; preds = %entry
  tail call void @_ZSt20__throw_system_errori(i32 noundef %call1.i.i.i.i) #21
  unreachable

_ZN15parallel_tactic12add_branchesEj.exit:        ; preds = %entry
  %m_branches.i = getelementptr inbounds %class.parallel_tactic, ptr %this, i64 0, i32 12
  %0 = load i32, ptr %m_branches.i, align 8
  %add.i = add i32 %0, 1
  store i32 %add.i, ptr %m_branches.i, align 8
  %call1.i.i.i2.i = tail call noundef i32 @pthread_mutex_unlock(ptr noundef nonnull %m_mutex.i) #18
  tail call void @_ZN15parallel_tactic12log_branchesE5lbool(ptr noundef nonnull align 8 dereferenceable(344) %this, i32 noundef -1)
  store ptr null, ptr %threads, align 8
  %m_num_threads = getelementptr inbounds %class.parallel_tactic, ptr %this, i64 0, i32 7
  %1 = load i32, ptr %m_num_threads, align 8
  %cmp52.not = icmp eq i32 %1, 0
  br i1 %cmp52.not, label %for.end14, label %for.body

for.cond:                                         ; preds = %invoke.cont4
  %inc = add nuw i32 %i.053, 1
  %2 = load i32, ptr %m_num_threads, align 8
  %cmp = icmp ult i32 %inc, %2
  br i1 %cmp, label %for.body, label %for.end, !llvm.loop !11

for.body:                                         ; preds = %_ZN15parallel_tactic12add_branchesEj.exit, %for.cond
  %i.053 = phi i32 [ %inc, %for.cond ], [ 0, %_ZN15parallel_tactic12add_branchesEj.exit ]
  call void @llvm.lifetime.start.p0(i64 8, ptr nonnull %agg.tmp.i)
  store i64 0, ptr %ref.tmp, align 8
  %call.i9 = invoke noalias noundef nonnull dereferenceable(16) ptr @_Znwm(i64 noundef 16) #22
          to label %call.i.noexc unwind label %lpad.loopexit.split-lp.loopexit.split-lp.loopexit.split-lp.loopexit

call.i.noexc:                                     ; preds = %for.body
  store ptr getelementptr inbounds ({ [5 x ptr] }, ptr @_ZTVNSt6thread11_State_implINS_8_InvokerISt5tupleIJZN15parallel_tactic5solveER3refI5modelEEUlvE_EEEEEE, i64 0, inrange i32 0, i64 2), ptr %call.i9, align 8
  %_M_func.i.i = getelementptr inbounds %"struct.std::thread::_State_impl", ptr %call.i9, i64 0, i32 1
  store ptr %this, ptr %_M_func.i.i, align 8
  store ptr %call.i9, ptr %agg.tmp.i, align 8
  invoke void @_ZNSt6thread15_M_start_threadESt10unique_ptrINS_6_StateESt14default_deleteIS1_EEPFvvE(ptr noundef nonnull align 8 dereferenceable(8) %ref.tmp, ptr noundef nonnull %agg.tmp.i, ptr noundef null)
          to label %invoke.cont3.i unwind label %lpad2.i

invoke.cont3.i:                                   ; preds = %call.i.noexc
  %3 = load ptr, ptr %agg.tmp.i, align 8
  %cmp.not.i.i = icmp eq ptr %3, null
  br i1 %cmp.not.i.i, label %invoke.cont, label %_ZNKSt14default_deleteINSt6thread6_StateEEclEPS1_.exit.i.i

_ZNKSt14default_deleteINSt6thread6_StateEEclEPS1_.exit.i.i: ; preds = %invoke.cont3.i
  %vtable.i.i.i = load ptr, ptr %3, align 8
  %vfn.i.i.i = getelementptr inbounds ptr, ptr %vtable.i.i.i, i64 1
  %4 = load ptr, ptr %vfn.i.i.i, align 8
  call void %4(ptr noundef nonnull align 8 dereferenceable(8) %3) #18
  br label %invoke.cont

lpad2.i:                                          ; preds = %call.i.noexc
  %5 = landingpad { ptr, i32 }
          cleanup
  %6 = load ptr, ptr %agg.tmp.i, align 8
  %cmp.not.i2.i = icmp eq ptr %6, null
  br i1 %cmp.not.i2.i, label %ehcleanup, label %_ZNKSt14default_deleteINSt6thread6_StateEEclEPS1_.exit.i3.i

_ZNKSt14default_deleteINSt6thread6_StateEEclEPS1_.exit.i3.i: ; preds = %lpad2.i
  %vtable.i.i4.i = load ptr, ptr %6, align 8
  %vfn.i.i5.i = getelementptr inbounds ptr, ptr %vtable.i.i4.i, i64 1
  %7 = load ptr, ptr %vfn.i.i5.i, align 8
  call void %7(ptr noundef nonnull align 8 dereferenceable(8) %6) #18
  br label %ehcleanup

invoke.cont:                                      ; preds = %_ZNKSt14default_deleteINSt6thread6_StateEEclEPS1_.exit.i.i, %invoke.cont3.i
  call void @llvm.lifetime.end.p0(i64 8, ptr nonnull %agg.tmp.i)
  %8 = load ptr, ptr %threads, align 8
  %cmp.i = icmp eq ptr %8, null
  br i1 %cmp.i, label %if.then.i, label %lor.lhs.false.i

lor.lhs.false.i:                                  ; preds = %invoke.cont
  %arrayidx.i = getelementptr inbounds i32, ptr %8, i64 -1
  %9 = load i32, ptr %arrayidx.i, align 4
  %arrayidx4.i = getelementptr inbounds i32, ptr %8, i64 -2
  %10 = load i32, ptr %arrayidx4.i, align 4
  %cmp5.i = icmp eq i32 %9, %10
  br i1 %cmp5.i, label %if.then.i, label %invoke.cont4

if.then.i:                                        ; preds = %lor.lhs.false.i, %invoke.cont
  invoke void @_ZN6vectorISt6threadLb1EjE13expand_vectorEv(ptr noundef nonnull align 8 dereferenceable(8) %threads)
          to label %.noexc unwind label %lpad3

.noexc:                                           ; preds = %if.then.i
  %.pre.i = load ptr, ptr %threads, align 8
  %arrayidx8.phi.trans.insert.i = getelementptr inbounds i32, ptr %.pre.i, i64 -1
  %.pre1.i = load i32, ptr %arrayidx8.phi.trans.insert.i, align 4
  br label %invoke.cont4

invoke.cont4:                                     ; preds = %.noexc, %lor.lhs.false.i
  %11 = phi i32 [ %.pre1.i, %.noexc ], [ %9, %lor.lhs.false.i ]
  %12 = phi ptr [ %.pre.i, %.noexc ], [ %8, %lor.lhs.false.i ]
  %idx.ext.i = zext i32 %11 to i64
  %add.ptr.i = getelementptr inbounds %"class.std::thread", ptr %12, i64 %idx.ext.i
  store i64 0, ptr %add.ptr.i, align 8
  %13 = load i64, ptr %ref.tmp, align 8
  store i64 %13, ptr %add.ptr.i, align 8
  store i64 0, ptr %ref.tmp, align 8
  %14 = load ptr, ptr %threads, align 8
  %arrayidx10.i = getelementptr inbounds i32, ptr %14, i64 -1
  %15 = load i32, ptr %arrayidx10.i, align 4
  %inc.i = add i32 %15, 1
  store i32 %inc.i, ptr %arrayidx10.i, align 4
  %agg.tmp.sroa.0.0.copyload.i.i = load i64, ptr %ref.tmp, align 8
  %cmp.i.i.not.i = icmp eq i64 %agg.tmp.sroa.0.0.copyload.i.i, 0
  br i1 %cmp.i.i.not.i, label %for.cond, label %if.then.i10

if.then.i10:                                      ; preds = %invoke.cont4
  call void @_ZSt9terminatev() #19
  unreachable

lpad.loopexit:                                    ; preds = %for.body11.i
  %lpad.loopexit41 = landingpad { ptr, i32 }
          cleanup
  br label %ehcleanup

lpad.loopexit.split-lp.loopexit:                  ; preds = %for.body.i
  %lpad.loopexit43 = landingpad { ptr, i32 }
          cleanup
  br label %ehcleanup

lpad.loopexit.split-lp.loopexit.split-lp.loopexit: ; preds = %for.body11
  %lpad.loopexit46 = landingpad { ptr, i32 }
          cleanup
  br label %ehcleanup

lpad.loopexit.split-lp.loopexit.split-lp.loopexit.split-lp.loopexit: ; preds = %for.body
  %lpad.loopexit49 = landingpad { ptr, i32 }
          cleanup
  br label %ehcleanup

lpad.loopexit.split-lp.loopexit.split-lp.loopexit.split-lp.loopexit.split-lp: ; preds = %invoke.cont28.invoke, %if.then.i.i.i24, %invoke.cont36, %invoke.cont15
  %lpad.loopexit.split-lp50 = landingpad { ptr, i32 }
          cleanup
  br label %ehcleanup

lpad3:                                            ; preds = %if.then.i
  %16 = landingpad { ptr, i32 }
          cleanup
  %agg.tmp.sroa.0.0.copyload.i.i11 = load i64, ptr %ref.tmp, align 8
  %cmp.i.i.not.i12 = icmp eq i64 %agg.tmp.sroa.0.0.copyload.i.i11, 0
  br i1 %cmp.i.i.not.i12, label %ehcleanup, label %if.then.i13

if.then.i13:                                      ; preds = %lpad3
  call void @_ZSt9terminatev() #19
  unreachable

for.end:                                          ; preds = %for.cond
  %.pre = load ptr, ptr %threads, align 8
  %cmp.i.i = icmp eq ptr %.pre, null
  br i1 %cmp.i.i, label %for.end14, label %_ZN6vectorISt6threadLb1EjE3endEv.exit

_ZN6vectorISt6threadLb1EjE3endEv.exit:            ; preds = %for.end
  %arrayidx.i.i = getelementptr inbounds i32, ptr %.pre, i64 -1
  %17 = load i32, ptr %arrayidx.i.i, align 4
  %18 = zext i32 %17 to i64
  %add.ptr.i15 = getelementptr inbounds %"class.std::thread", ptr %.pre, i64 %18
  %cmp10.not54 = icmp eq i32 %17, 0
  br i1 %cmp10.not54, label %for.end14, label %for.body11

for.body11:                                       ; preds = %_ZN6vectorISt6threadLb1EjE3endEv.exit, %for.inc13
  %__begin1.055 = phi ptr [ %incdec.ptr, %for.inc13 ], [ %.pre, %_ZN6vectorISt6threadLb1EjE3endEv.exit ]
  invoke void @_ZNSt6thread4joinEv(ptr noundef nonnull align 8 dereferenceable(8) %__begin1.055)
          to label %for.inc13 unwind label %lpad.loopexit.split-lp.loopexit.split-lp.loopexit

for.inc13:                                        ; preds = %for.body11
  %incdec.ptr = getelementptr inbounds %"class.std::thread", ptr %__begin1.055, i64 1
  %cmp10.not = icmp eq ptr %incdec.ptr, %add.ptr.i15
  br i1 %cmp10.not, label %for.end14, label %for.body11

for.end14:                                        ; preds = %for.inc13, %_ZN15parallel_tactic12add_branchesEj.exit, %for.end, %_ZN6vectorISt6threadLb1EjE3endEv.exit
  %m_stats = getelementptr inbounds %class.parallel_tactic, ptr %this, i64 0, i32 8
  %m_tasks.i = getelementptr inbounds %class.parallel_tactic, ptr %this, i64 0, i32 9, i32 2
  %19 = load ptr, ptr %m_tasks.i, align 8
  %cmp.i.i.i = icmp eq ptr %19, null
  br i1 %cmp.i.i.i, label %for.end.i, label %_ZN6vectorIPN15parallel_tactic12solver_stateELb0EjE3endEv.exit.i

_ZN6vectorIPN15parallel_tactic12solver_stateELb0EjE3endEv.exit.i: ; preds = %for.end14
  %arrayidx.i.i.i = getelementptr inbounds i32, ptr %19, i64 -1
  %20 = load i32, ptr %arrayidx.i.i.i, align 4
  %21 = zext i32 %20 to i64
  %add.ptr.i.i = getelementptr inbounds ptr, ptr %19, i64 %21
  %cmp.not15.i = icmp eq i32 %20, 0
  br i1 %cmp.not15.i, label %for.end.i, label %for.body.i

for.body.i:                                       ; preds = %_ZN6vectorIPN15parallel_tactic12solver_stateELb0EjE3endEv.exit.i, %.noexc16
  %__begin2.016.i = phi ptr [ %incdec.ptr.i, %.noexc16 ], [ %19, %_ZN6vectorIPN15parallel_tactic12solver_stateELb0EjE3endEv.exit.i ]
  %22 = load ptr, ptr %__begin2.016.i, align 8
  %m_solver.i.i = getelementptr inbounds %"class.parallel_tactic::solver_state", ptr %22, i64 0, i32 5
  %23 = load ptr, ptr %m_solver.i.i, align 8
  %vtable.i = load ptr, ptr %23, align 8
  %vfn.i = getelementptr inbounds ptr, ptr %vtable.i, i64 2
  %24 = load ptr, ptr %vfn.i, align 8
  invoke void %24(ptr noundef nonnull align 8 dereferenceable(72) %23, ptr noundef nonnull align 8 dereferenceable(16) %m_stats)
          to label %.noexc16 unwind label %lpad.loopexit.split-lp.loopexit

.noexc16:                                         ; preds = %for.body.i
  %incdec.ptr.i = getelementptr inbounds ptr, ptr %__begin2.016.i, i64 1
  %cmp.not.i = icmp eq ptr %incdec.ptr.i, %add.ptr.i.i
  br i1 %cmp.not.i, label %for.end.i, label %for.body.i

for.end.i:                                        ; preds = %.noexc16, %_ZN6vectorIPN15parallel_tactic12solver_stateELb0EjE3endEv.exit.i, %for.end14
  %m_active.i = getelementptr inbounds %class.parallel_tactic, ptr %this, i64 0, i32 9, i32 3
  %25 = load ptr, ptr %m_active.i, align 8
  %cmp.i.i8.i = icmp eq ptr %25, null
  br i1 %cmp.i.i8.i, label %invoke.cont15, label %_ZN6vectorIPN15parallel_tactic12solver_stateELb0EjE3endEv.exit13.i

_ZN6vectorIPN15parallel_tactic12solver_stateELb0EjE3endEv.exit13.i: ; preds = %for.end.i
  %arrayidx.i.i10.i = getelementptr inbounds i32, ptr %25, i64 -1
  %26 = load i32, ptr %arrayidx.i.i10.i, align 4
  %27 = zext i32 %26 to i64
  %add.ptr.i12.i = getelementptr inbounds ptr, ptr %25, i64 %27
  %cmp10.not17.i = icmp eq i32 %26, 0
  br i1 %cmp10.not17.i, label %invoke.cont15, label %for.body11.i

for.body11.i:                                     ; preds = %_ZN6vectorIPN15parallel_tactic12solver_stateELb0EjE3endEv.exit13.i, %.noexc17
  %__begin25.018.i = phi ptr [ %incdec.ptr17.i, %.noexc17 ], [ %25, %_ZN6vectorIPN15parallel_tactic12solver_stateELb0EjE3endEv.exit13.i ]
  %28 = load ptr, ptr %__begin25.018.i, align 8
  %m_solver.i14.i = getelementptr inbounds %"class.parallel_tactic::solver_state", ptr %28, i64 0, i32 5
  %29 = load ptr, ptr %m_solver.i14.i, align 8
  %vtable14.i = load ptr, ptr %29, align 8
  %vfn15.i = getelementptr inbounds ptr, ptr %vtable14.i, i64 2
  %30 = load ptr, ptr %vfn15.i, align 8
  invoke void %30(ptr noundef nonnull align 8 dereferenceable(72) %29, ptr noundef nonnull align 8 dereferenceable(16) %m_stats)
          to label %.noexc17 unwind label %lpad.loopexit

.noexc17:                                         ; preds = %for.body11.i
  %incdec.ptr17.i = getelementptr inbounds ptr, ptr %__begin25.018.i, i64 1
  %cmp10.not.i = icmp eq ptr %incdec.ptr17.i, %add.ptr.i12.i
  br i1 %cmp10.not.i, label %invoke.cont15, label %for.body11.i

invoke.cont15:                                    ; preds = %.noexc17, %_ZN6vectorIPN15parallel_tactic12solver_stateELb0EjE3endEv.exit13.i, %for.end.i
  %m_manager = getelementptr inbounds %class.parallel_tactic, ptr %this, i64 0, i32 2
  %31 = load ptr, ptr %m_manager, align 8
  invoke void @_ZN8reslimit12reset_cancelEv(ptr noundef nonnull align 8 dereferenceable(40) %31)
          to label %invoke.cont18 unwind label %lpad.loopexit.split-lp.loopexit.split-lp.loopexit.split-lp.loopexit.split-lp

invoke.cont18:                                    ; preds = %invoke.cont15
  %m_exn_code = getelementptr inbounds %class.parallel_tactic, ptr %this, i64 0, i32 19
  %32 = load i32, ptr %m_exn_code, align 8
  switch i32 %32, label %if.then24 [
    i32 -1, label %if.then
    i32 0, label %if.end29
  ]

if.then:                                          ; preds = %invoke.cont18
  %exception = call ptr @__cxa_allocate_exception(i64 40) #18
  %m_exn_msg = getelementptr inbounds %class.parallel_tactic, ptr %this, i64 0, i32 20
  store ptr getelementptr inbounds ({ [6 x ptr] }, ptr @_ZTV17default_exception, i64 0, inrange i32 0, i64 2), ptr %exception, align 8
  %m_msg.i = getelementptr inbounds %class.default_exception, ptr %exception, i64 0, i32 1
  call void @_ZNSt7__cxx1112basic_stringIcSt11char_traitsIcESaIcEEC1EOS4_(ptr noundef nonnull align 8 dereferenceable(32) %m_msg.i, ptr noundef nonnull align 8 dereferenceable(32) %m_exn_msg) #18
  br label %invoke.cont28.invoke

if.then24:                                        ; preds = %invoke.cont18
  %exception25 = call ptr @__cxa_allocate_exception(i64 16) #18
  %33 = load i32, ptr %m_exn_code, align 8
  invoke void @_ZN8z3_errorC1Ej(ptr noundef nonnull align 8 dereferenceable(12) %exception25, i32 noundef %33)
          to label %invoke.cont28.invoke unwind label %lpad27

invoke.cont28.invoke:                             ; preds = %if.then24, %if.then
  %34 = phi ptr [ %exception, %if.then ], [ %exception25, %if.then24 ]
  %35 = phi ptr [ @_ZTI17default_exception, %if.then ], [ @_ZTI8z3_error, %if.then24 ]
  %36 = phi ptr [ @_ZN17default_exceptionD2Ev, %if.then ], [ @_ZN8z3_errorD2Ev, %if.then24 ]
  invoke void @__cxa_throw(ptr nonnull %34, ptr nonnull %35, ptr nonnull %36) #21
          to label %invoke.cont28.cont unwind label %lpad.loopexit.split-lp.loopexit.split-lp.loopexit.split-lp.loopexit.split-lp

invoke.cont28.cont:                               ; preds = %invoke.cont28.invoke
  unreachable

lpad27:                                           ; preds = %if.then24
  %37 = landingpad { ptr, i32 }
          cleanup
  call void @__cxa_free_exception(ptr %exception25) #18
  br label %ehcleanup

if.end29:                                         ; preds = %invoke.cont18
  %m_models = getelementptr inbounds %class.parallel_tactic, ptr %this, i64 0, i32 5
  %38 = load ptr, ptr %m_models, align 8
  %cmp.i.i18 = icmp eq ptr %38, null
  br i1 %cmp.i.i18, label %if.end51, label %invoke.cont30

invoke.cont30:                                    ; preds = %if.end29
  %arrayidx.i.i19 = getelementptr inbounds i32, ptr %38, i64 -1
  %39 = load i32, ptr %arrayidx.i.i19, align 4
  %cmp3.i.i = icmp eq i32 %39, 0
  br i1 %cmp3.i.i, label %if.end51, label %invoke.cont34

invoke.cont34:                                    ; preds = %invoke.cont30
  %40 = add i32 %39, -1
  %41 = zext i32 %40 to i64
  %arrayidx.i1.i.i = getelementptr inbounds ptr, ptr %38, i64 %41
  %42 = load ptr, ptr %arrayidx.i1.i.i, align 8
  %tobool.not.i = icmp eq ptr %42, null
  br i1 %tobool.not.i, label %if.end.i, label %if.then.i22

if.then.i22:                                      ; preds = %invoke.cont34
  %m_ref_count.i.i = getelementptr inbounds %class.model_core, ptr %42, i64 0, i32 2
  %43 = load i32, ptr %m_ref_count.i.i, align 8
  %inc.i.i = add i32 %43, 1
  store i32 %inc.i.i, ptr %m_ref_count.i.i, align 8
  br label %if.end.i

if.end.i:                                         ; preds = %if.then.i22, %invoke.cont34
  %44 = load ptr, ptr %mdl, align 8
  %tobool.not.i.i = icmp eq ptr %44, null
  br i1 %tobool.not.i.i, label %invoke.cont36, label %if.then.i.i

if.then.i.i:                                      ; preds = %if.end.i
  %m_ref_count.i.i.i = getelementptr inbounds %class.model_core, ptr %44, i64 0, i32 2
  %45 = load i32, ptr %m_ref_count.i.i.i, align 8
  %dec.i.i.i = add i32 %45, -1
  store i32 %dec.i.i.i, ptr %m_ref_count.i.i.i, align 8
  %cmp.i.i.i23 = icmp eq i32 %dec.i.i.i, 0
  br i1 %cmp.i.i.i23, label %if.then.i.i.i24, label %invoke.cont36

if.then.i.i.i24:                                  ; preds = %if.then.i.i
  %vtable.i.i.i.i = load ptr, ptr %44, align 8
  %46 = load ptr, ptr %vtable.i.i.i.i, align 8
  call void %46(ptr noundef nonnull align 8 dereferenceable(96) %44) #18
  invoke void @_ZN6memory10deallocateEPv(ptr noundef nonnull %44)
          to label %invoke.cont36 unwind label %lpad.loopexit.split-lp.loopexit.split-lp.loopexit.split-lp.loopexit.split-lp

invoke.cont36:                                    ; preds = %if.then.i.i, %if.end.i, %if.then.i.i.i24
  store ptr %42, ptr %mdl, align 8
  %m.i = getelementptr inbounds %class.model_core, ptr %42, i64 0, i32 1
  %47 = load ptr, ptr %m.i, align 8
  %48 = load ptr, ptr %m_manager, align 8
  invoke void @_ZN15ast_translationC2ER11ast_managerS1_b(ptr noundef nonnull align 8 dereferenceable(84) %tr, ptr noundef nonnull align 8 dereferenceable(976) %47, ptr noundef nonnull align 8 dereferenceable(976) %48, i1 noundef zeroext true)
          to label %invoke.cont43 unwind label %lpad.loopexit.split-lp.loopexit.split-lp.loopexit.split-lp.loopexit.split-lp

invoke.cont43:                                    ; preds = %invoke.cont36
  %49 = load ptr, ptr %mdl, align 8
  %call48 = invoke noundef ptr @_ZNK5model9translateER15ast_translation(ptr noundef nonnull align 8 dereferenceable(160) %49, ptr noundef nonnull align 8 dereferenceable(84) %tr)
          to label %invoke.cont47 unwind label %lpad44

invoke.cont47:                                    ; preds = %invoke.cont43
  %tobool.not.i26 = icmp eq ptr %call48, null
  br i1 %tobool.not.i26, label %if.end.i30, label %if.then.i27

if.then.i27:                                      ; preds = %invoke.cont47
  %m_ref_count.i.i28 = getelementptr inbounds %class.model_core, ptr %call48, i64 0, i32 2
  %50 = load i32, ptr %m_ref_count.i.i28, align 8
  %inc.i.i29 = add i32 %50, 1
  store i32 %inc.i.i29, ptr %m_ref_count.i.i28, align 8
  br label %if.end.i30

if.end.i30:                                       ; preds = %if.then.i27, %invoke.cont47
  %51 = load ptr, ptr %mdl, align 8
  %tobool.not.i.i31 = icmp eq ptr %51, null
  br i1 %tobool.not.i.i31, label %invoke.cont49, label %if.then.i.i32

if.then.i.i32:                                    ; preds = %if.end.i30
  %m_ref_count.i.i.i33 = getelementptr inbounds %class.model_core, ptr %51, i64 0, i32 2
  %52 = load i32, ptr %m_ref_count.i.i.i33, align 8
  %dec.i.i.i34 = add i32 %52, -1
  store i32 %dec.i.i.i34, ptr %m_ref_count.i.i.i33, align 8
  %cmp.i.i.i35 = icmp eq i32 %dec.i.i.i34, 0
  br i1 %cmp.i.i.i35, label %if.then.i.i.i36, label %invoke.cont49

if.then.i.i.i36:                                  ; preds = %if.then.i.i32
  %vtable.i.i.i.i37 = load ptr, ptr %51, align 8
  %53 = load ptr, ptr %vtable.i.i.i.i37, align 8
  call void %53(ptr noundef nonnull align 8 dereferenceable(96) %51) #18
  invoke void @_ZN6memory10deallocateEPv(ptr noundef nonnull %51)
          to label %invoke.cont49 unwind label %lpad44

invoke.cont49:                                    ; preds = %if.then.i.i32, %if.end.i30, %if.then.i.i.i36
  store ptr %call48, ptr %mdl, align 8
  call void @_ZN15ast_translationD1Ev(ptr noundef nonnull align 8 dereferenceable(84) %tr) #18
  br label %cleanup

lpad44:                                           ; preds = %if.then.i.i.i36, %invoke.cont43
  %54 = landingpad { ptr, i32 }
          cleanup
  call void @_ZN15ast_translationD1Ev(ptr noundef nonnull align 8 dereferenceable(84) %tr) #18
  br label %ehcleanup

if.end51:                                         ; preds = %if.end29, %invoke.cont30
  %m_has_undef = getelementptr inbounds %class.parallel_tactic, ptr %this, i64 0, i32 15
  %55 = load atomic i8, ptr %m_has_undef seq_cst, align 4
  %56 = and i8 %55, 1
  %sext = add nsw i8 %56, -1
  %. = sext i8 %sext to i32
  br label %cleanup

cleanup:                                          ; preds = %if.end51, %invoke.cont49
  %retval.0 = phi i32 [ 1, %invoke.cont49 ], [ %., %if.end51 ]
  %57 = load ptr, ptr %threads, align 8
  %tobool.not.i.i40 = icmp eq ptr %57, null
  br i1 %tobool.not.i.i40, label %_ZN6vectorISt6threadLb1EjED2Ev.exit, label %_ZNK6vectorISt6threadLb1EjE4sizeEv.exit.i.i.i

_ZNK6vectorISt6threadLb1EjE4sizeEv.exit.i.i.i:    ; preds = %cleanup
  %arrayidx.i.i.i.i = getelementptr inbounds i32, ptr %57, i64 -1
  %58 = load i32, ptr %arrayidx.i.i.i.i, align 4
  %cmp.not5.i.i.i.i.i.i = icmp eq i32 %58, 0
  br i1 %cmp.not5.i.i.i.i.i.i, label %_ZN6vectorISt6threadLb1EjE16destroy_elementsEv.exit.i.i, label %for.body.i.i.i.i.i.i

for.body.i.i.i.i.i.i:                             ; preds = %_ZNK6vectorISt6threadLb1EjE4sizeEv.exit.i.i.i, %_ZSt8_DestroyISt6threadEvPT_.exit.i.i.i.i.i.i
  %__count.addr.07.i.i.i.i.i.i = phi i32 [ %dec.i.i.i.i.i.i, %_ZSt8_DestroyISt6threadEvPT_.exit.i.i.i.i.i.i ], [ %58, %_ZNK6vectorISt6threadLb1EjE4sizeEv.exit.i.i.i ]
  %__first.addr.06.i.i.i.i.i.i = phi ptr [ %incdec.ptr.i.i.i.i.i.i, %_ZSt8_DestroyISt6threadEvPT_.exit.i.i.i.i.i.i ], [ %57, %_ZNK6vectorISt6threadLb1EjE4sizeEv.exit.i.i.i ]
  %agg.tmp.sroa.0.0.copyload.i.i.i.i.i.i.i.i.i = load i64, ptr %__first.addr.06.i.i.i.i.i.i, align 8
  %cmp.i.i.not.i.i.i.i.i.i.i.i = icmp eq i64 %agg.tmp.sroa.0.0.copyload.i.i.i.i.i.i.i.i.i, 0
  br i1 %cmp.i.i.not.i.i.i.i.i.i.i.i, label %_ZSt8_DestroyISt6threadEvPT_.exit.i.i.i.i.i.i, label %if.then.i.i.i.i.i.i.i.i

if.then.i.i.i.i.i.i.i.i:                          ; preds = %for.body.i.i.i.i.i.i
  call void @_ZSt9terminatev() #19
  unreachable

_ZSt8_DestroyISt6threadEvPT_.exit.i.i.i.i.i.i:    ; preds = %for.body.i.i.i.i.i.i
  %incdec.ptr.i.i.i.i.i.i = getelementptr inbounds %"class.std::thread", ptr %__first.addr.06.i.i.i.i.i.i, i64 1
  %dec.i.i.i.i.i.i = add i32 %__count.addr.07.i.i.i.i.i.i, -1
  %cmp.not.i.i.i.i.i.i = icmp eq i32 %dec.i.i.i.i.i.i, 0
  br i1 %cmp.not.i.i.i.i.i.i, label %_ZN6vectorISt6threadLb1EjE16destroy_elementsEv.exit.i.i, label %for.body.i.i.i.i.i.i, !llvm.loop !12

_ZN6vectorISt6threadLb1EjE16destroy_elementsEv.exit.i.i: ; preds = %_ZSt8_DestroyISt6threadEvPT_.exit.i.i.i.i.i.i, %_ZNK6vectorISt6threadLb1EjE4sizeEv.exit.i.i.i
  %add.ptr.i.i.i = getelementptr inbounds i32, ptr %57, i64 -2
  invoke void @_ZN6memory10deallocateEPv(ptr noundef nonnull %add.ptr.i.i.i)
          to label %_ZN6vectorISt6threadLb1EjED2Ev.exit unwind label %terminate.lpad.i

terminate.lpad.i:                                 ; preds = %_ZN6vectorISt6threadLb1EjE16destroy_elementsEv.exit.i.i
  %59 = landingpad { ptr, i32 }
          catch ptr null
  %60 = extractvalue { ptr, i32 } %59, 0
  call void @__clang_call_terminate(ptr %60) #19
  unreachable

_ZN6vectorISt6threadLb1EjED2Ev.exit:              ; preds = %cleanup, %_ZN6vectorISt6threadLb1EjE16destroy_elementsEv.exit.i.i
  ret i32 %retval.0

ehcleanup:                                        ; preds = %lpad.loopexit, %lpad.loopexit.split-lp.loopexit.split-lp.loopexit, %lpad.loopexit.split-lp.loopexit.split-lp.loopexit.split-lp.loopexit.split-lp, %lpad.loopexit.split-lp.loopexit.split-lp.loopexit.split-lp.loopexit, %lpad.loopexit.split-lp.loopexit, %lpad3, %_ZNKSt14default_deleteINSt6thread6_StateEEclEPS1_.exit.i3.i, %lpad2.i, %lpad44, %lpad27
  %.pn = phi { ptr, i32 } [ %37, %lpad27 ], [ %54, %lpad44 ], [ %5, %_ZNKSt14default_deleteINSt6thread6_StateEEclEPS1_.exit.i3.i ], [ %5, %lpad2.i ], [ %16, %lpad3 ], [ %lpad.loopexit41, %lpad.loopexit ], [ %lpad.loopexit43, %lpad.loopexit.split-lp.loopexit ], [ %lpad.loopexit46, %lpad.loopexit.split-lp.loopexit.split-lp.loopexit ], [ %lpad.loopexit49, %lpad.loopexit.split-lp.loopexit.split-lp.loopexit.split-lp.loopexit ], [ %lpad.loopexit.split-lp50, %lpad.loopexit.split-lp.loopexit.split-lp.loopexit.split-lp.loopexit.split-lp ]
  call void @_ZN6vectorISt6threadLb1EjED2Ev(ptr noundef nonnull align 8 dereferenceable(8) %threads) #18
  resume { ptr, i32 } %.pn
}

declare void @_ZN4goal5resetEv(ptr noundef nonnull align 8 dereferenceable(124)) local_unnamed_addr #0

declare noundef ptr @_Z6concatP15model_converterS0_(ptr noundef, ptr noundef) local_unnamed_addr #0

declare noundef ptr @_Z21model2model_converterP5model(ptr noundef) local_unnamed_addr #0

; Function Attrs: mustprogress uwtable
define linkonce_odr hidden void @_ZN15ast_translationC2ER11ast_managerS1_b(ptr noundef nonnull align 8 dereferenceable(84) %this, ptr noundef nonnull align 8 dereferenceable(976) %from, ptr noundef nonnull align 8 dereferenceable(976) %to, i1 noundef zeroext %copy_plugins) unnamed_addr #3 comdat align 2 personality ptr @__gxx_personality_v0 {
entry:
  store ptr %from, ptr %this, align 8
  %m_to_manager = getelementptr inbounds %class.ast_translation, ptr %this, i64 0, i32 1
  store ptr %to, ptr %m_to_manager, align 8
  %m_frame_stack = getelementptr inbounds %class.ast_translation, ptr %this, i64 0, i32 2
  %m_cache = getelementptr inbounds %class.ast_translation, ptr %this, i64 0, i32 5
  tail call void @llvm.memset.p0.i64(ptr noundef nonnull align 8 dereferenceable(24) %m_frame_stack, i8 0, i64 24, i1 false)
  %call.i.i.i.i4 = invoke noalias noundef ptr @_ZN6memory8allocateEm(i64 noundef 128)
          to label %invoke.cont5 unwind label %lpad4

invoke.cont5:                                     ; preds = %entry
  tail call void @llvm.memset.p0.i64(ptr noundef nonnull align 8 dereferenceable(128) %call.i.i.i.i4, i8 0, i64 128, i1 false)
  store ptr %call.i.i.i.i4, ptr %m_cache, align 8
  %m_capacity.i.i = getelementptr inbounds %class.ast_translation, ptr %this, i64 0, i32 5, i32 0, i32 1
  store i32 8, ptr %m_capacity.i.i, align 8
  %m_size.i.i = getelementptr inbounds %class.ast_translation, ptr %this, i64 0, i32 5, i32 0, i32 2
  store i32 0, ptr %m_size.i.i, align 4
  %m_num_deleted.i.i = getelementptr inbounds %class.ast_translation, ptr %this, i64 0, i32 5, i32 0, i32 3
  store i32 0, ptr %m_num_deleted.i.i, align 8
  %m_loop_count = getelementptr inbounds %class.ast_translation, ptr %this, i64 0, i32 6
  %cmp.not = icmp eq ptr %from, %to
  tail call void @llvm.memset.p0.i64(ptr noundef nonnull align 8 dereferenceable(20) %m_loop_count, i8 0, i64 20, i1 false)
  br i1 %cmp.not, label %if.end14, label %if.then

if.then:                                          ; preds = %invoke.cont5
