; ModuleID = 'bench/z3/original/polymorphism_util.cpp.ll'
source_filename = "bench/z3/original/polymorphism_util.cpp.ll"
target datalayout = "e-m:e-p270:32:32-p271:32:32-p272:64:64-i64:64-i128:128-f80:128-n8:16:32:64-S128"
target triple = "x86_64-unknown-linux-gnu"

%"class.std::ios_base::Init" = type { i8 }
%class.ref_vector = type { %class.ref_vector_core }
%class.ref_vector_core = type { %class.ref_manager_wrapper, %class.ptr_vector }
%class.ref_manager_wrapper = type { ptr }
%class.ptr_vector = type { %class.vector }
%class.vector = type { ptr }
%class.obj_ref = type { ptr, ptr }
%class.vector.33 = type { ptr }
%class.parameter = type { %"class.std::variant" }
%"class.std::variant" = type { %"struct.std::__detail::__variant::_Variant_base.base", [7 x i8] }
%"struct.std::__detail::__variant::_Variant_base.base" = type { %"struct.std::__detail::__variant::_Move_assign_base.base" }
%"struct.std::__detail::__variant::_Move_assign_base.base" = type { %"struct.std::__detail::__variant::_Copy_assign_base.base" }
%"struct.std::__detail::__variant::_Copy_assign_base.base" = type { %"struct.std::__detail::__variant::_Move_ctor_base.base" }
%"struct.std::__detail::__variant::_Move_ctor_base.base" = type { %"struct.std::__detail::__variant::_Copy_ctor_base.base" }
%"struct.std::__detail::__variant::_Copy_ctor_base.base" = type { %"struct.std::__detail::__variant::_Variant_storage.base" }
%"struct.std::__detail::__variant::_Variant_storage.base" = type <{ %"union.std::__detail::__variant::_Variadic_union", i8 }>
%"union.std::__detail::__variant::_Variadic_union" = type { %"union.std::__detail::__variant::_Variadic_union.34" }
%"union.std::__detail::__variant::_Variadic_union.34" = type { %"struct.std::__detail::__variant::_Uninitialized.35" }
%"struct.std::__detail::__variant::_Uninitialized.35" = type { ptr }
%class.sort_info = type { %class.decl_info.base, %class.sort_size }
%class.decl_info.base = type <{ i32, i32, %class.vector.33, i8 }>
%class.sort_size = type { i32, i64 }
%"class.polymorphism::substitution" = type { ptr, %class.obj_map, %class.ref_vector }
%class.obj_map = type { %class.core_hashtable }
%class.core_hashtable = type <{ ptr, i32, i32, i32, [4 x i8] }>
%class.decl = type { %class.ast, %class.symbol, ptr }
%class.ast = type { i32, i24, i32, i32 }
%class.symbol = type { ptr }
%"class.obj_map<sort, sort *>::obj_map_entry" = type { %"struct.obj_map<sort, sort *>::key_data" }
%"struct.obj_map<sort, sort *>::key_data" = type { ptr, ptr }
%class.decl_info = type <{ i32, i32, %class.vector.33, i8, [7 x i8] }>
%"struct.std::__detail::__variant::_Variant_storage" = type <{ %"union.std::__detail::__variant::_Variadic_union", i8, [7 x i8] }>
%"class.std::bad_variant_access" = type { %"class.std::exception", ptr }
%"class.std::exception" = type { ptr }
%class.obj_ref.47 = type { ptr, ptr }
%"class.std::__cxx11::basic_string" = type { %"struct.std::__cxx11::basic_string<char>::_Alloc_hider", i64, %union.anon }
%"struct.std::__cxx11::basic_string<char>::_Alloc_hider" = type { ptr }
%union.anon = type { i64, [8 x i8] }
%"class.std::allocator" = type { i8 }
%class.ptr_vector.48 = type { %class.vector.49 }
%class.vector.49 = type { ptr }
%class.ref_vector.50 = type { %class.ref_vector_core.51 }
%class.ref_vector_core.51 = type { %class.ref_manager_wrapper.52, %class.ptr_vector.48 }
%class.ref_manager_wrapper.52 = type { ptr }
%class.ptr_buffer = type { %class.buffer }
%class.buffer = type { ptr, i32, i32, [16 x %"union.std::aligned_storage<8, 8>::type"] }
%"union.std::aligned_storage<8, 8>::type" = type { [8 x i8] }
%class.ref_buffer = type { %class.ref_buffer_core }
%class.ref_buffer_core = type { %class.ref_manager_wrapper, %class.ptr_buffer.53 }
%class.ptr_buffer.53 = type { %class.buffer.54 }
%class.buffer.54 = type { ptr, i32, i32, [16 x %"union.std::aligned_storage<8, 8>::type"] }
%class.var = type { %class.expr, i32, ptr }
%class.expr = type { %class.ast }
%class.default_exception = type { %class.z3_exception, %"class.std::__cxx11::basic_string" }
%class.z3_exception = type { ptr }
%class.quantifier = type { %class.expr, i32, i32, ptr, ptr, i32, i32, i8, i8, %class.symbol, %class.symbol, i32, i32, [0 x i8] }
%class.app = type { %class.expr, ptr, i32, [0 x ptr] }
%struct.func_decl_info = type <{ %class.decl_info.base, i16, [5 x i8] }>
%class.func_decl = type { %class.decl, i32, ptr, [0 x ptr] }
%class.ast_manager = type { %class.reslimit, %class.small_object_allocator, %class.family_manager, %class.parray_manager, %class.dependency_manager, %class.parray_manager.14, %class.ptr_vector.17, i32, i8, %class.ast_table, %class.obj_map.19, %class.id_gen, %class.id_gen, ptr, ptr, ptr, ptr, ptr, i32, i8, [3 x i8], %class.u_map, ptr, i8, i8, ptr, %class.symbol, %class.obj_map.28, ptr }
%class.reslimit = type { %"struct.std::atomic", i8, i64, i64, %class.svector, %class.ptr_vector.1 }
%"struct.std::atomic" = type { %"struct.std::__atomic_base" }
%"struct.std::__atomic_base" = type { i32 }
%class.svector = type { %class.vector.0 }
%class.vector.0 = type { ptr }
%class.ptr_vector.1 = type { %class.vector.2 }
%class.vector.2 = type { ptr }
%class.small_object_allocator = type { [32 x ptr], [32 x ptr], i64 }
%class.family_manager = type { i32, %class.symbol_table, %class.svector.8 }
%class.symbol_table = type { %class.core_hashtable.3, %class.vector.5, %class.svector.6 }
%class.core_hashtable.3 = type <{ ptr, i32, i32, i32, [4 x i8] }>
%class.vector.5 = type { ptr }
%class.svector.6 = type { %class.vector.7 }
%class.vector.7 = type { ptr }
%class.svector.8 = type { %class.vector.9 }
%class.vector.9 = type { ptr }
%class.parray_manager = type { ptr, ptr, %class.ptr_vector.10, %class.ptr_vector.10 }
%class.ptr_vector.10 = type { %class.vector.11 }
%class.vector.11 = type { ptr }
%class.dependency_manager = type { ptr, ptr, %class.ptr_vector.12 }
%class.ptr_vector.12 = type { %class.vector.13 }
%class.vector.13 = type { ptr }
%class.parray_manager.14 = type { ptr, ptr, %class.ptr_vector.15, %class.ptr_vector.15 }
%class.ptr_vector.15 = type { %class.vector.16 }
%class.vector.16 = type { ptr }
%class.ptr_vector.17 = type { %class.vector.18 }
%class.vector.18 = type { ptr }
%class.ast_table = type { %class.chashtable }
%class.chashtable = type { ptr, i32, i32, i32, i32, i32, i32, i32, ptr, ptr, ptr }
%class.obj_map.19 = type { %class.core_hashtable.20 }
%class.core_hashtable.20 = type <{ ptr, i32, i32, i32, [4 x i8] }>
%class.id_gen = type { i32, %class.svector.24 }
%class.svector.24 = type { %class.vector.25 }
%class.vector.25 = type { ptr }
%class.u_map = type { %class.map }
%class.map = type { %class.table2map }
%class.table2map = type { %class.core_hashtable.26 }
%class.core_hashtable.26 = type <{ ptr, i32, i32, i32, [4 x i8] }>
%class.obj_map.28 = type { %class.core_hashtable.29 }
%class.core_hashtable.29 = type <{ ptr, i32, i32, i32, [4 x i8] }>
%"class.obj_map<func_decl, func_decl *>::obj_map_entry" = type { %"struct.obj_map<func_decl, func_decl *>::key_data" }
%"struct.obj_map<func_decl, func_decl *>::key_data" = type { ptr, ptr }
%"class.polymorphism::util" = type <{ ptr, %class.ref_vector, %class.obj_map, i32, [4 x i8] }>
%class.ptr_vector.63 = type { %class.vector.64 }
%class.vector.64 = type { ptr }
%class.ast_mark = type { ptr, %class.obj_mark, %class.obj_mark.62 }
%class.obj_mark = type { %struct.default_t2uint, %class.bit_vector }
%struct.default_t2uint = type { i8 }
%class.bit_vector = type { i32, i32, ptr }
%class.obj_mark.62 = type { %"struct.ast_mark::decl2uint", %class.bit_vector }
%"struct.ast_mark::decl2uint" = type { i8 }
%struct._Guard = type { ptr }

$_ZN7obj_refI4sort11ast_managerED2Ev = comdat any

$_ZN10ref_vectorI4sort11ast_managerED2Ev = comdat any

$_ZNK9parameter7get_astEv = comdat any

$_ZN9sort_infoD2Ev = comdat any

$_ZN6vectorI9parameterLb1EjED2Ev = comdat any

$_ZN10ptr_bufferI4exprLj16EED2Ev = comdat any

$_ZN10ref_bufferI4sort11ast_managerLj16EED2Ev = comdat any

$_ZN10ref_vectorI4expr11ast_managerED2Ev = comdat any

$_ZN10ptr_vectorI4exprED2Ev = comdat any

$_ZN12polymorphism12substitution6insertEP4sortS2_ = comdat any

$_ZNSt7__cxx119to_stringEj = comdat any

$__clang_call_terminate = comdat any

$_ZNSt18bad_variant_accessD2Ev = comdat any

$_ZNSt18bad_variant_accessD0Ev = comdat any

$_ZNKSt18bad_variant_access4whatEv = comdat any

$_ZN6vectorIP4sortLb0EjE13expand_vectorEv = comdat any

$_ZNSt7__cxx1112basic_stringIcSt11char_traitsIcESaIcEEC2IS3_EEPKcRKS3_ = comdat any

$_ZN17default_exceptionD2Ev = comdat any

$_ZNSt7__cxx1112basic_stringIcSt11char_traitsIcESaIcEE12_M_constructIPKcEEvT_S8_St20forward_iterator_tag = comdat any

$_ZZNSt7__cxx1112basic_stringIcSt11char_traitsIcESaIcEE12_M_constructIPKcEEvT_S8_St20forward_iterator_tagEN6_GuardD2Ev = comdat any

$_ZN14core_hashtableIN7obj_mapI4sortPS1_E13obj_map_entryE8obj_hashINS3_8key_dataEE10default_eqIS6_EE6insertEOS6_ = comdat any

$_ZN14core_hashtableIN7obj_mapI4sortPS1_E13obj_map_entryE8obj_hashINS3_8key_dataEE10default_eqIS6_EE12expand_tableEv = comdat any

$_ZN6vectorI9parameterLb1EjE13expand_vectorEv = comdat any

$_ZN6vectorIP4exprLb0EjE13expand_vectorEv = comdat any

$_ZN8ast_markD2Ev = comdat any

$_ZN10ptr_vectorI3astED2Ev = comdat any

$_ZN6vectorIP3astLb0EjE13expand_vectorEv = comdat any

$_ZN6vectorIP9func_declLb0EjE13expand_vectorEv = comdat any

$_ZTSSt18bad_variant_access = comdat any

$_ZTISt18bad_variant_access = comdat any

$_ZTVSt18bad_variant_access = comdat any

$_ZZNSt8__detail18__to_chars_10_implIjEEvPcjT_E8__digits = comdat any

@_ZStL8__ioinit = internal global %"class.std::ios_base::Init" zeroinitializer, align 1
@__dso_handle = external hidden global i8
@.str = private unnamed_addr constant [7 x i8] c"fresh!\00", align 1
@.str.2 = private unnamed_addr constant [34 x i8] c"std::get: wrong index for variant\00", align 1
@_ZTVN10__cxxabiv120__si_class_type_infoE = external global [0 x ptr]
@_ZTSSt18bad_variant_access = linkonce_odr constant [23 x i8] c"St18bad_variant_access\00", comdat, align 1
@_ZTISt9exception = external constant ptr
@_ZTISt18bad_variant_access = linkonce_odr constant { ptr, ptr, ptr } { ptr getelementptr inbounds (ptr, ptr @_ZTVN10__cxxabiv120__si_class_type_infoE, i64 2), ptr @_ZTSSt18bad_variant_access, ptr @_ZTISt9exception }, comdat, align 8
@_ZTVSt18bad_variant_access = linkonce_odr unnamed_addr constant { [5 x ptr] } { [5 x ptr] [ptr null, ptr @_ZTISt18bad_variant_access, ptr @_ZNSt18bad_variant_accessD2Ev, ptr @_ZNSt18bad_variant_accessD0Ev, ptr @_ZNKSt18bad_variant_access4whatEv] }, comdat, align 8
@_ZZNSt8__detail18__to_chars_10_implIjEEvPcjT_E8__digits = linkonce_odr local_unnamed_addr constant [201 x i8] c"00010203040506070809101112131415161718192021222324252627282930313233343536373839404142434445464748495051525354555657585960616263646566676869707172737475767778798081828384858687888990919293949596979899\00", comdat, align 16
@.str.3 = private unnamed_addr constant [43 x i8] c"Overflow encountered when expanding vector\00", align 1
@_ZTI17default_exception = external constant ptr
@.str.4 = private unnamed_addr constant [50 x i8] c"basic_string: construction from null is not valid\00", align 1
@_ZTV17default_exception = external unnamed_addr constant { [6 x ptr] }, align 8
@.str.5 = private unnamed_addr constant [104 x i8] c"generated/home/dtcxzyw/WorkSpace/Projects/compilers/llvm-opt-benchmark/bench/z3/z3/src/util/hashtable.h\00", align 1
@.str.6 = private unnamed_addr constant [29 x i8] c"UNEXPECTED CODE WAS REACHED.\00", align 1
@_ZTV8ast_mark = external unnamed_addr constant { [6 x ptr] }, align 8
@llvm.global_ctors = appending global [1 x { i32, ptr, ptr }] [{ i32, ptr, ptr } { i32 65535, ptr @_GLOBAL__sub_I_polymorphism_util.cpp, ptr null }]

declare void @_ZNSt8ios_base4InitC1Ev(ptr noundef nonnull align 1 dereferenceable(1)) unnamed_addr #0

; Function Attrs: nounwind
declare void @_ZNSt8ios_base4InitD1Ev(ptr noundef nonnull align 1 dereferenceable(1)) unnamed_addr #1

; Function Attrs: nofree nounwind
declare i32 @__cxa_atexit(ptr, ptr, ptr) local_unnamed_addr #2

; Function Attrs: mustprogress uwtable
define hidden void @_ZN12polymorphism12substitutionclERK10ref_vectorI4sort11ast_managerE(ptr noalias sret(%class.ref_vector) align 8 %agg.result, ptr nocapture noundef nonnull readonly align 8 dereferenceable(48) %this, ptr nocapture noundef nonnull readonly align 8 dereferenceable(16) %s) local_unnamed_addr #3 align 2 personality ptr @__gxx_personality_v0 {
invoke.cont:
  %ref.tmp = alloca %class.obj_ref, align 8
  %0 = load ptr, ptr %this, align 8
  store ptr %0, ptr %agg.result, align 8
  %m_nodes.i.i = getelementptr inbounds %class.ref_vector_core, ptr %agg.result, i64 0, i32 1
  store ptr null, ptr %m_nodes.i.i, align 8
  %m_nodes.i = getelementptr inbounds %class.ref_vector_core, ptr %s, i64 0, i32 1
  %1 = load ptr, ptr %m_nodes.i, align 8
  %cmp.i.i.i = icmp eq ptr %1, null
  br i1 %cmp.i.i.i, label %nrvo.skipdtor, label %_ZNK15ref_vector_coreI4sort19ref_manager_wrapperIS0_11ast_managerEE3endEv.exit

_ZNK15ref_vector_coreI4sort19ref_manager_wrapperIS0_11ast_managerEE3endEv.exit: ; preds = %invoke.cont
  %arrayidx.i.i.i = getelementptr inbounds i32, ptr %1, i64 -1
  %2 = load i32, ptr %arrayidx.i.i.i, align 4
  %3 = zext i32 %2 to i64
  %add.ptr.i = getelementptr inbounds ptr, ptr %1, i64 %3
  %cmp.not8 = icmp eq i32 %2, 0
  br i1 %cmp.not8, label %nrvo.skipdtor, label %for.body

for.body:                                         ; preds = %_ZNK15ref_vector_coreI4sort19ref_manager_wrapperIS0_11ast_managerEE3endEv.exit, %_ZN7obj_refI4sort11ast_managerED2Ev.exit
  %__begin1.09 = phi ptr [ %incdec.ptr, %_ZN7obj_refI4sort11ast_managerED2Ev.exit ], [ %1, %_ZNK15ref_vector_coreI4sort19ref_manager_wrapperIS0_11ast_managerEE3endEv.exit ]
  %4 = load ptr, ptr %__begin1.09, align 8
  invoke void @_ZN12polymorphism12substitutionclEP4sort(ptr nonnull sret(%class.obj_ref) align 8 %ref.tmp, ptr noundef nonnull align 8 dereferenceable(48) %this, ptr noundef %4)
          to label %invoke.cont4 unwind label %lpad

invoke.cont4:                                     ; preds = %for.body
  %5 = load ptr, ptr %ref.tmp, align 8
  %6 = load ptr, ptr %m_nodes.i.i, align 8
  %cmp.i.i = icmp eq ptr %6, null
  br i1 %cmp.i.i, label %if.then.i.i, label %lor.lhs.false.i.i

lor.lhs.false.i.i:                                ; preds = %invoke.cont4
  %arrayidx.i.i = getelementptr inbounds i32, ptr %6, i64 -1
  %7 = load i32, ptr %arrayidx.i.i, align 4
  %arrayidx4.i.i = getelementptr inbounds i32, ptr %6, i64 -2
  %8 = load i32, ptr %arrayidx4.i.i, align 4
  %cmp5.i.i = icmp eq i32 %7, %8
  br i1 %cmp5.i.i, label %if.then.i.i, label %_ZN7obj_refI4sort11ast_managerED2Ev.exit

if.then.i.i:                                      ; preds = %lor.lhs.false.i.i, %invoke.cont4
  invoke void @_ZN6vectorIP4sortLb0EjE13expand_vectorEv(ptr noundef nonnull align 8 dereferenceable(8) %m_nodes.i.i)
          to label %.noexc unwind label %lpad5

.noexc:                                           ; preds = %if.then.i.i
  %.pre.i.i = load ptr, ptr %m_nodes.i.i, align 8
  %arrayidx8.phi.trans.insert.i.i = getelementptr inbounds i32, ptr %.pre.i.i, i64 -1
  %.pre1.i.i = load i32, ptr %arrayidx8.phi.trans.insert.i.i, align 4
  br label %_ZN7obj_refI4sort11ast_managerED2Ev.exit

_ZN7obj_refI4sort11ast_managerED2Ev.exit:         ; preds = %lor.lhs.false.i.i, %.noexc
  %9 = phi i32 [ %.pre1.i.i, %.noexc ], [ %7, %lor.lhs.false.i.i ]
  %10 = phi ptr [ %.pre.i.i, %.noexc ], [ %6, %lor.lhs.false.i.i ]
  %idx.ext.i.i = zext i32 %9 to i64
  %add.ptr.i.i = getelementptr inbounds ptr, ptr %10, i64 %idx.ext.i.i
  store ptr %5, ptr %add.ptr.i.i, align 8
  %11 = load ptr, ptr %m_nodes.i.i, align 8
  %arrayidx10.i.i = getelementptr inbounds i32, ptr %11, i64 -1
  %12 = load i32, ptr %arrayidx10.i.i, align 4
  %inc.i.i = add i32 %12, 1
  store i32 %inc.i.i, ptr %arrayidx10.i.i, align 4
  store ptr null, ptr %ref.tmp, align 8
  %incdec.ptr = getelementptr inbounds ptr, ptr %__begin1.09, i64 1
  %cmp.not = icmp eq ptr %incdec.ptr, %add.ptr.i
  br i1 %cmp.not, label %nrvo.skipdtor, label %for.body

lpad:                                             ; preds = %for.body
  %13 = landingpad { ptr, i32 }
          cleanup
  br label %ehcleanup

lpad5:                                            ; preds = %if.then.i.i
  %14 = landingpad { ptr, i32 }
          cleanup
  call void @_ZN7obj_refI4sort11ast_managerED2Ev(ptr noundef nonnull align 8 dereferenceable(16) %ref.tmp) #15
  br label %ehcleanup

nrvo.skipdtor:                                    ; preds = %_ZN7obj_refI4sort11ast_managerED2Ev.exit, %invoke.cont, %_ZNK15ref_vector_coreI4sort19ref_manager_wrapperIS0_11ast_managerEE3endEv.exit
  ret void

ehcleanup:                                        ; preds = %lpad5, %lpad
  %.pn = phi { ptr, i32 } [ %14, %lpad5 ], [ %13, %lpad ]
  call void @_ZN10ref_vectorI4sort11ast_managerED2Ev(ptr noundef nonnull align 8 dereferenceable(16) %agg.result) #15
  resume { ptr, i32 } %.pn
}

declare i32 @__gxx_personality_v0(...)

; Function Attrs: mustprogress uwtable
define hidden void @_ZN12polymorphism12substitutionclEP4sort(ptr noalias nocapture writeonly sret(%class.obj_ref) align 8 %agg.result, ptr nocapture noundef nonnull readonly align 8 dereferenceable(48) %this, ptr noundef %s) local_unnamed_addr #3 align 2 personality ptr @__gxx_personality_v0 {
entry:
  %ps = alloca %class.vector.33, align 8
  %p = alloca %class.parameter, align 8
  %s21 = alloca %class.obj_ref, align 8
  %ref.tmp = alloca %class.parameter, align 8
  %si = alloca %class.sort_info, align 8
  %0 = load ptr, ptr %this, align 8
  %call125 = tail call noundef zeroext i1 @_ZNK11ast_manager12has_type_varEP4sort(ptr noundef nonnull align 8 dereferenceable(976) %0, ptr noundef %s)
  br i1 %call125, label %if.end.lr.ph, label %if.then

if.end.lr.ph:                                     ; preds = %entry
  %m_sub = getelementptr inbounds %"class.polymorphism::substitution", ptr %this, i64 0, i32 1
  %m_capacity.i.i.i = getelementptr inbounds %"class.polymorphism::substitution", ptr %this, i64 0, i32 1, i32 0, i32 1
  br label %if.end

if.then:                                          ; preds = %if.then6, %entry
  %s.tr.lcssa = phi ptr [ %s, %entry ], [ %12, %if.then6 ]
  %1 = load ptr, ptr %this, align 8
  store ptr %s.tr.lcssa, ptr %agg.result, align 8
  %m_manager.i = getelementptr inbounds %class.obj_ref, ptr %agg.result, i64 0, i32 1
  store ptr %1, ptr %m_manager.i, align 8
  %tobool.not.i.i = icmp eq ptr %s.tr.lcssa, null
  br i1 %tobool.not.i.i, label %return, label %return.sink.split

if.end:                                           ; preds = %if.end.lr.ph, %if.then6
  %s.tr126 = phi ptr [ %s, %if.end.lr.ph ], [ %12, %if.then6 ]
  %m_info.i.i = getelementptr inbounds %class.decl, ptr %s.tr126, i64 0, i32 2
  %2 = load ptr, ptr %m_info.i.i, align 8
  %cmp.i.i = icmp eq ptr %2, null
  br i1 %cmp.i.i, label %_ZNK4decl18get_num_parametersEv.exit.thread, label %_ZNK4sort11is_type_varEv.exit

_ZNK4sort11is_type_varEv.exit:                    ; preds = %if.end
  %3 = load i32, ptr %2, align 8
  %4 = icmp eq i32 %3, 6
  br i1 %4, label %if.then4, label %cond.false.i

if.then4:                                         ; preds = %_ZNK4sort11is_type_varEv.exit
  %m_hash.i.i.i.i.i.i.i = getelementptr inbounds %class.ast, ptr %s.tr126, i64 0, i32 3
  %5 = load i32, ptr %m_hash.i.i.i.i.i.i.i, align 4
  %6 = load i32, ptr %m_capacity.i.i.i, align 8
  %sub.i.i.i = add i32 %6, -1
  %and.i.i.i = and i32 %sub.i.i.i, %5
  %7 = load ptr, ptr %m_sub, align 8
  %idx.ext.i.i.i = zext i32 %and.i.i.i to i64
  %add.ptr.i.i.i = getelementptr inbounds %"class.obj_map<sort, sort *>::obj_map_entry", ptr %7, i64 %idx.ext.i.i.i
  %idx.ext4.i.i.i = zext i32 %6 to i64
  %add.ptr5.i.i.i = getelementptr inbounds %"class.obj_map<sort, sort *>::obj_map_entry", ptr %7, i64 %idx.ext4.i.i.i
  %cmp.not30.i.i.i = icmp eq i32 %and.i.i.i, %6
  br i1 %cmp.not30.i.i.i, label %for.cond18.preheader.i.i.i, label %for.body.i.i.i

for.cond18.preheader.i.i.i:                       ; preds = %for.inc.i.i.i, %if.then4
  %cmp19.not32.i.i.i = icmp eq i32 %and.i.i.i, 0
  br i1 %cmp19.not32.i.i.i, label %if.end7, label %for.body20.i.i.i

for.body.i.i.i:                                   ; preds = %if.then4, %for.inc.i.i.i
  %curr.031.i.i.i = phi ptr [ %incdec.ptr.i.i.i, %for.inc.i.i.i ], [ %add.ptr.i.i.i, %if.then4 ]
  %8 = load ptr, ptr %curr.031.i.i.i, align 8
  %magicptr25.i.i.i = ptrtoint ptr %8 to i64
  switch i64 %magicptr25.i.i.i, label %if.then.i.i.i [
    i64 0, label %if.end7
    i64 1, label %for.inc.i.i.i
  ]

if.then.i.i.i:                                    ; preds = %for.body.i.i.i
  %m_hash.i.i.i.i.i.i = getelementptr inbounds %class.ast, ptr %8, i64 0, i32 3
  %9 = load i32, ptr %m_hash.i.i.i.i.i.i, align 4
  %cmp8.i.i.i = icmp eq i32 %9, %5
  %cmp.i.i.i.i.i.i = icmp eq ptr %8, %s.tr126
  %or.cond.i.i.i = and i1 %cmp.i.i.i.i.i.i, %cmp8.i.i.i
  br i1 %or.cond.i.i.i, label %if.then6, label %for.inc.i.i.i

for.inc.i.i.i:                                    ; preds = %if.then.i.i.i, %for.body.i.i.i
  %incdec.ptr.i.i.i = getelementptr inbounds %"class.obj_map<sort, sort *>::obj_map_entry", ptr %curr.031.i.i.i, i64 1
  %cmp.not.i.i.i = icmp eq ptr %incdec.ptr.i.i.i, %add.ptr5.i.i.i
  br i1 %cmp.not.i.i.i, label %for.cond18.preheader.i.i.i, label %for.body.i.i.i, !llvm.loop !4

for.body20.i.i.i:                                 ; preds = %for.cond18.preheader.i.i.i, %for.inc36.i.i.i
  %curr.133.i.i.i = phi ptr [ %incdec.ptr37.i.i.i, %for.inc36.i.i.i ], [ %7, %for.cond18.preheader.i.i.i ]
  %10 = load ptr, ptr %curr.133.i.i.i, align 8
  %magicptr27.i.i.i = ptrtoint ptr %10 to i64
  switch i64 %magicptr27.i.i.i, label %if.then22.i.i.i [
    i64 0, label %if.end7
    i64 1, label %for.inc36.i.i.i
  ]

if.then22.i.i.i:                                  ; preds = %for.body20.i.i.i
  %m_hash.i.i.i22.i.i.i = getelementptr inbounds %class.ast, ptr %10, i64 0, i32 3
  %11 = load i32, ptr %m_hash.i.i.i22.i.i.i, align 4
  %cmp24.i.i.i = icmp eq i32 %11, %5
  %cmp.i.i.i23.i.i.i = icmp eq ptr %10, %s.tr126
  %or.cond26.i.i.i = and i1 %cmp.i.i.i23.i.i.i, %cmp24.i.i.i
  br i1 %or.cond26.i.i.i, label %if.then6, label %for.inc36.i.i.i

for.inc36.i.i.i:                                  ; preds = %if.then22.i.i.i, %for.body20.i.i.i
  %incdec.ptr37.i.i.i = getelementptr inbounds %"class.obj_map<sort, sort *>::obj_map_entry", ptr %curr.133.i.i.i, i64 1
  %cmp19.not.i.i.i = icmp eq ptr %incdec.ptr37.i.i.i, %add.ptr.i.i.i
  br i1 %cmp19.not.i.i.i, label %if.end7, label %for.body20.i.i.i, !llvm.loop !6

if.then6:                                         ; preds = %if.then.i.i.i, %if.then22.i.i.i
  %retval.0.i.i.i = phi ptr [ %curr.133.i.i.i, %if.then22.i.i.i ], [ %curr.031.i.i.i, %if.then.i.i.i ]
  %m_value.i = getelementptr inbounds %"struct.obj_map<sort, sort *>::key_data", ptr %retval.0.i.i.i, i64 0, i32 1
  %12 = load ptr, ptr %m_value.i, align 8
  %13 = load ptr, ptr %this, align 8
  %call = tail call noundef zeroext i1 @_ZNK11ast_manager12has_type_varEP4sort(ptr noundef nonnull align 8 dereferenceable(976) %13, ptr noundef %12)
  br i1 %call, label %if.end, label %if.then

if.end7:                                          ; preds = %for.cond18.preheader.i.i.i, %for.body.i.i.i, %for.body20.i.i.i, %for.inc36.i.i.i
  %14 = load ptr, ptr %this, align 8
  store ptr %s.tr126, ptr %agg.result, align 8
  %m_manager.i6 = getelementptr inbounds %class.obj_ref, ptr %agg.result, i64 0, i32 1
  store ptr %14, ptr %m_manager.i6, align 8
  %tobool.not.i.i7 = icmp eq ptr %s.tr126, null
  br i1 %tobool.not.i.i7, label %return, label %return.sink.split

cond.false.i:                                     ; preds = %_ZNK4sort11is_type_varEv.exit
  %m_info.i.i.le = getelementptr inbounds %class.decl, ptr %s.tr126, i64 0, i32 2
  %m_parameters.i.i = getelementptr inbounds %class.decl_info, ptr %2, i64 0, i32 2
  %15 = load ptr, ptr %m_parameters.i.i, align 8
  %cmp.i.i.i = icmp eq ptr %15, null
  br i1 %cmp.i.i.i, label %_ZNK4decl18get_num_parametersEv.exit.thread, label %_ZNK4decl18get_num_parametersEv.exit

_ZNK4decl18get_num_parametersEv.exit.thread:      ; preds = %if.end, %cond.false.i
  store ptr null, ptr %ps, align 8
  br label %for.end

_ZNK4decl18get_num_parametersEv.exit:             ; preds = %cond.false.i
  %arrayidx.i.i.i = getelementptr inbounds i32, ptr %15, i64 -1
  %16 = load i32, ptr %arrayidx.i.i.i, align 4
  store ptr null, ptr %ps, align 8
  %cmp127.not = icmp eq i32 %16, 0
  br i1 %cmp127.not, label %land.rhs.i, label %invoke.cont.lr.ph

invoke.cont.lr.ph:                                ; preds = %_ZNK4decl18get_num_parametersEv.exit
  %_M_index.i.i.i.i.i.i.i.i.i = getelementptr inbounds %"struct.std::__detail::__variant::_Variant_storage", ptr %p, i64 0, i32 1
  %_M_index.i.i.i.i.i.i.i.i.i27 = getelementptr inbounds %"struct.std::__detail::__variant::_Variant_storage", ptr %ref.tmp, i64 0, i32 1
  %m_manager.i.i = getelementptr inbounds %class.obj_ref, ptr %s21, i64 0, i32 1
  %wide.trip.count = zext i32 %16 to i64
  br label %invoke.cont

invoke.cont:                                      ; preds = %invoke.cont.lr.ph, %if.end36
  %indvars.iv = phi i64 [ 0, %invoke.cont.lr.ph ], [ %indvars.iv.next, %if.end36 ]
  %17 = load ptr, ptr %m_info.i.i.le, align 8
  %m_parameters.i.i13 = getelementptr inbounds %class.decl_info, ptr %17, i64 0, i32 2
  %18 = load ptr, ptr %m_parameters.i.i13, align 8
  %arrayidx.i.i.i14 = getelementptr inbounds %class.parameter, ptr %18, i64 %indvars.iv
  store i32 0, ptr %p, align 8
  store i8 0, ptr %_M_index.i.i.i.i.i.i.i.i.i, align 8
  %call.i15 = invoke noundef nonnull align 8 dereferenceable(16) ptr @_ZN9parameteraSERKS_(ptr noundef nonnull align 8 dereferenceable(16) %p, ptr noundef nonnull align 8 dereferenceable(16) %arrayidx.i.i.i14)
          to label %invoke.cont14 unwind label %lpad.loopexit

invoke.cont14:                                    ; preds = %invoke.cont
  %19 = load i8, ptr %_M_index.i.i.i.i.i.i.i.i.i, align 8
  %cmp.i16 = icmp eq i8 %19, 1
  br i1 %cmp.i16, label %invoke.cont18, label %if.else

invoke.cont18:                                    ; preds = %invoke.cont14
  %20 = load ptr, ptr %p, align 8
  %m_kind.i.i = getelementptr inbounds %class.ast, ptr %20, i64 0, i32 1
  %bf.load.i.i = load i32, ptr %m_kind.i.i, align 4
  %bf.clear.i.i = and i32 %bf.load.i.i, 65535
  %cmp.i19 = icmp eq i32 %bf.clear.i.i, 3
  br i1 %cmp.i19, label %invoke.cont22, label %if.else

invoke.cont22:                                    ; preds = %invoke.cont18
  invoke void @_ZN12polymorphism12substitutionclEP4sort(ptr nonnull sret(%class.obj_ref) align 8 %s21, ptr noundef nonnull align 8 dereferenceable(48) %this, ptr noundef nonnull %20)
          to label %invoke.cont26 unwind label %lpad13

invoke.cont26:                                    ; preds = %invoke.cont22
  %21 = load ptr, ptr %s21, align 8
  store ptr %21, ptr %ref.tmp, align 8
  store i8 1, ptr %_M_index.i.i.i.i.i.i.i.i.i27, align 8
  %22 = load ptr, ptr %ps, align 8
  %cmp.i28 = icmp eq ptr %22, null
  br i1 %cmp.i28, label %if.then.i31, label %lor.lhs.false.i

lor.lhs.false.i:                                  ; preds = %invoke.cont26
  %arrayidx.i = getelementptr inbounds i32, ptr %22, i64 -1
  %23 = load i32, ptr %arrayidx.i, align 4
  %arrayidx4.i = getelementptr inbounds i32, ptr %22, i64 -2
  %24 = load i32, ptr %arrayidx4.i, align 4
  %cmp5.i = icmp eq i32 %23, %24
  br i1 %cmp5.i, label %if.then.i31, label %if.end.i

if.then.i31:                                      ; preds = %lor.lhs.false.i, %invoke.cont26
  invoke void @_ZN6vectorI9parameterLb1EjE13expand_vectorEv(ptr noundef nonnull align 8 dereferenceable(8) %ps)
          to label %.noexc32 unwind label %lpad31

.noexc32:                                         ; preds = %if.then.i31
  %.pre.i = load ptr, ptr %ps, align 8
  %arrayidx8.phi.trans.insert.i = getelementptr inbounds i32, ptr %.pre.i, i64 -1
  %.pre1.i = load i32, ptr %arrayidx8.phi.trans.insert.i, align 4
  br label %if.end.i

if.end.i:                                         ; preds = %.noexc32, %lor.lhs.false.i
  %25 = phi i32 [ %.pre1.i, %.noexc32 ], [ %23, %lor.lhs.false.i ]
  %26 = phi ptr [ %.pre.i, %.noexc32 ], [ %22, %lor.lhs.false.i ]
  %idx.ext.i = zext i32 %25 to i64
  %add.ptr.i = getelementptr inbounds %class.parameter, ptr %26, i64 %idx.ext.i
  call void @llvm.memcpy.p0.p0.i64(ptr noundef nonnull align 8 dereferenceable(16) %add.ptr.i, ptr noundef nonnull align 8 dereferenceable(16) %ref.tmp, i64 16, i1 false)
  %27 = load i8, ptr %_M_index.i.i.i.i.i.i.i.i.i27, align 8
  %cmp.i.i.i30 = icmp eq i8 %27, 0
  br i1 %cmp.i.i.i30, label %invoke.cont32, label %if.else.i.i.i

if.else.i.i.i:                                    ; preds = %if.end.i
  store i8 0, ptr %_M_index.i.i.i.i.i.i.i.i.i27, align 8
  br label %invoke.cont32

invoke.cont32:                                    ; preds = %if.else.i.i.i, %if.end.i
  store i32 0, ptr %ref.tmp, align 8
  %arrayidx10.i = getelementptr inbounds i32, ptr %26, i64 -1
  %28 = load i32, ptr %arrayidx10.i, align 4
  %inc.i = add i32 %28, 1
  store i32 %inc.i, ptr %arrayidx10.i, align 4
  call void @_ZN9parameterD1Ev(ptr noundef nonnull align 8 dereferenceable(16) %ref.tmp) #15
  %tobool.not.i.i33 = icmp eq ptr %21, null
  br i1 %tobool.not.i.i33, label %if.end36, label %if.then.i.i.i34

if.then.i.i.i34:                                  ; preds = %invoke.cont32
  %29 = load ptr, ptr %m_manager.i.i, align 8
  %m_ref_count.i.i.i.i35 = getelementptr inbounds %class.ast, ptr %21, i64 0, i32 2
  %30 = load i32, ptr %m_ref_count.i.i.i.i35, align 4
  %dec.i.i.i.i = add i32 %30, -1
  store i32 %dec.i.i.i.i, ptr %m_ref_count.i.i.i.i35, align 4
  %cmp.i.i.i36 = icmp eq i32 %dec.i.i.i.i, 0
  br i1 %cmp.i.i.i36, label %if.then2.i.i.i, label %if.end36

if.then2.i.i.i:                                   ; preds = %if.then.i.i.i34
  invoke void @_ZN11ast_manager11delete_nodeEP3ast(ptr noundef nonnull align 8 dereferenceable(976) %29, ptr noundef nonnull %21)
          to label %if.end36 unwind label %terminate.lpad.i

terminate.lpad.i:                                 ; preds = %if.then2.i.i.i
  %31 = landingpad { ptr, i32 }
          catch ptr null
  %32 = extractvalue { ptr, i32 } %31, 0
  call void @__clang_call_terminate(ptr %32) #16
  unreachable

lpad.loopexit:                                    ; preds = %invoke.cont
  %lpad.loopexit98 = landingpad { ptr, i32 }
          cleanup
  br label %ehcleanup56

lpad.loopexit.split-lp:                           ; preds = %invoke.cont44
  %lpad.loopexit.split-lp99 = landingpad { ptr, i32 }
          cleanup
  br label %ehcleanup56

lpad13:                                           ; preds = %if.end.i42, %if.then.i47, %invoke.cont22
  %33 = landingpad { ptr, i32 }
          cleanup
  br label %ehcleanup37

lpad31:                                           ; preds = %if.then.i31
  %34 = landingpad { ptr, i32 }
          cleanup
  call void @_ZN9parameterD1Ev(ptr noundef nonnull align 8 dereferenceable(16) %ref.tmp) #15
  call void @_ZN7obj_refI4sort11ast_managerED2Ev(ptr noundef nonnull align 8 dereferenceable(16) %s21) #15
  br label %ehcleanup37

if.else:                                          ; preds = %invoke.cont18, %invoke.cont14
  %35 = load ptr, ptr %ps, align 8
  %cmp.i37 = icmp eq ptr %35, null
  br i1 %cmp.i37, label %if.then.i47, label %lor.lhs.false.i38

lor.lhs.false.i38:                                ; preds = %if.else
  %arrayidx.i39 = getelementptr inbounds i32, ptr %35, i64 -1
  %36 = load i32, ptr %arrayidx.i39, align 4
  %arrayidx4.i40 = getelementptr inbounds i32, ptr %35, i64 -2
  %37 = load i32, ptr %arrayidx4.i40, align 4
  %cmp5.i41 = icmp eq i32 %36, %37
  br i1 %cmp5.i41, label %if.then.i47, label %if.end.i42

if.then.i47:                                      ; preds = %lor.lhs.false.i38, %if.else
  invoke void @_ZN6vectorI9parameterLb1EjE13expand_vectorEv(ptr noundef nonnull align 8 dereferenceable(8) %ps)
          to label %.noexc51 unwind label %lpad13

.noexc51:                                         ; preds = %if.then.i47
  %.pre.i48 = load ptr, ptr %ps, align 8
  %arrayidx8.phi.trans.insert.i49 = getelementptr inbounds i32, ptr %.pre.i48, i64 -1
  %.pre1.i50 = load i32, ptr %arrayidx8.phi.trans.insert.i49, align 4
  br label %if.end.i42

if.end.i42:                                       ; preds = %.noexc51, %lor.lhs.false.i38
  %38 = phi i32 [ %.pre1.i50, %.noexc51 ], [ %36, %lor.lhs.false.i38 ]
  %39 = phi ptr [ %.pre.i48, %.noexc51 ], [ %35, %lor.lhs.false.i38 ]
  %idx.ext.i43 = zext i32 %38 to i64
  %add.ptr.i44 = getelementptr inbounds %class.parameter, ptr %39, i64 %idx.ext.i43
  store i32 0, ptr %add.ptr.i44, align 4
  %_M_index.i.i.i.i.i.i.i.i.i.i = getelementptr inbounds %"struct.std::__detail::__variant::_Variant_storage", ptr %add.ptr.i44, i64 0, i32 1
  store i8 0, ptr %_M_index.i.i.i.i.i.i.i.i.i.i, align 8
  %call.i.i52 = invoke noundef nonnull align 8 dereferenceable(16) ptr @_ZN9parameteraSERKS_(ptr noundef nonnull align 8 dereferenceable(16) %add.ptr.i44, ptr noundef nonnull align 8 dereferenceable(16) %p)
          to label %_ZN6vectorI9parameterLb1EjE9push_backERKS0_.exit unwind label %lpad13

_ZN6vectorI9parameterLb1EjE9push_backERKS0_.exit: ; preds = %if.end.i42
  %40 = load ptr, ptr %ps, align 8
  %arrayidx10.i45 = getelementptr inbounds i32, ptr %40, i64 -1
  %41 = load i32, ptr %arrayidx10.i45, align 4
  %inc.i46 = add i32 %41, 1
  store i32 %inc.i46, ptr %arrayidx10.i45, align 4
  br label %if.end36

if.end36:                                         ; preds = %if.then2.i.i.i, %if.then.i.i.i34, %invoke.cont32, %_ZN6vectorI9parameterLb1EjE9push_backERKS0_.exit
  call void @_ZN9parameterD1Ev(ptr noundef nonnull align 8 dereferenceable(16) %p) #15
  %indvars.iv.next = add nuw nsw i64 %indvars.iv, 1
  %exitcond.not = icmp eq i64 %indvars.iv.next, %wide.trip.count
  br i1 %exitcond.not, label %for.end.loopexit, label %invoke.cont, !llvm.loop !7

ehcleanup37:                                      ; preds = %lpad31, %lpad13
  %.pn = phi { ptr, i32 } [ %34, %lpad31 ], [ %33, %lpad13 ]
  call void @_ZN9parameterD1Ev(ptr noundef nonnull align 8 dereferenceable(16) %p) #15
  br label %ehcleanup56

for.end.loopexit:                                 ; preds = %if.end36
  %.pre = load ptr, ptr %m_info.i.i.le, align 8
  br label %for.end

for.end:                                          ; preds = %_ZNK4decl18get_num_parametersEv.exit.thread, %for.end.loopexit
  %cond.i151 = phi i32 [ %16, %for.end.loopexit ], [ 0, %_ZNK4decl18get_num_parametersEv.exit.thread ]
  %42 = phi ptr [ %.pre, %for.end.loopexit ], [ %2, %_ZNK4decl18get_num_parametersEv.exit.thread ]
  %cmp.i54 = icmp eq ptr %42, null
  br i1 %cmp.i54, label %invoke.cont44, label %land.rhs.i

land.rhs.i:                                       ; preds = %_ZNK4decl18get_num_parametersEv.exit, %for.end
  %43 = phi ptr [ %42, %for.end ], [ %2, %_ZNK4decl18get_num_parametersEv.exit ]
  %cond.i151154 = phi i32 [ %cond.i151, %for.end ], [ 0, %_ZNK4decl18get_num_parametersEv.exit ]
  %44 = load i32, ptr %43, align 8
  %m_kind.i.i60 = getelementptr inbounds %class.decl_info, ptr %43, i64 0, i32 1
  %45 = load i32, ptr %m_kind.i.i60, align 4
  %m_private_parameters.i.i = getelementptr inbounds %class.decl_info, ptr %43, i64 0, i32 3
  %46 = load i8, ptr %m_private_parameters.i.i, align 8
  %47 = and i8 %46, 1
  %tobool.i.i = icmp ne i8 %47, 0
  br label %invoke.cont44

invoke.cont44:                                    ; preds = %for.end, %land.rhs.i
  %cond.i151155 = phi i32 [ %cond.i151154, %land.rhs.i ], [ %cond.i151, %for.end ]
  %cond.i6197 = phi i32 [ %45, %land.rhs.i ], [ -1, %for.end ]
  %cond.i569396 = phi i32 [ %44, %land.rhs.i ], [ -1, %for.end ]
  %48 = phi i1 [ %tobool.i.i, %land.rhs.i ], [ false, %for.end ]
  %49 = load ptr, ptr %ps, align 8
  invoke void @_ZN9decl_infoC2EiijPK9parameterb(ptr noundef nonnull align 8 dereferenceable(17) %si, i32 noundef %cond.i569396, i32 noundef %cond.i6197, i32 noundef %cond.i151155, ptr noundef %49, i1 noundef zeroext %48)
          to label %invoke.cont46 unwind label %lpad.loopexit.split-lp

invoke.cont46:                                    ; preds = %invoke.cont44
  %m_num_elements.i = getelementptr inbounds %class.sort_info, ptr %si, i64 0, i32 1
  store i32 2, ptr %m_num_elements.i, align 8
  %m_size.i.i = getelementptr inbounds %class.sort_info, ptr %si, i64 0, i32 1, i32 1
  store i64 0, ptr %m_size.i.i, align 8
  %50 = load ptr, ptr %this, align 8
  %m_name.i = getelementptr inbounds %class.decl, ptr %s.tr126, i64 0, i32 1
  %51 = load i32, ptr %si, align 8
  %cmp.i64 = icmp eq i32 %51, -1
  br i1 %cmp.i64, label %if.then.i65, label %if.else.i

if.then.i65:                                      ; preds = %invoke.cont46
  %call.i.i66 = invoke noundef ptr @_ZN11ast_manager21mk_uninterpreted_sortERK6symboljPK9parameter(ptr noundef nonnull align 8 dereferenceable(976) %50, ptr noundef nonnull align 8 dereferenceable(8) %m_name.i, i32 noundef 0, ptr noundef null)
          to label %invoke.cont51 unwind label %lpad48

if.else.i:                                        ; preds = %invoke.cont46
  %call3.i67 = invoke noundef ptr @_ZN11ast_manager7mk_sortERK6symbolP9sort_info(ptr noundef nonnull align 8 dereferenceable(976) %50, ptr noundef nonnull align 8 dereferenceable(8) %m_name.i, ptr noundef nonnull %si)
          to label %invoke.cont51 unwind label %lpad48

invoke.cont51:                                    ; preds = %if.then.i65, %if.else.i
  %retval.0.i = phi ptr [ %call.i.i66, %if.then.i65 ], [ %call3.i67, %if.else.i ]
  %52 = load ptr, ptr %this, align 8
  store ptr %retval.0.i, ptr %agg.result, align 8
  %m_manager.i68 = getelementptr inbounds %class.obj_ref, ptr %agg.result, i64 0, i32 1
  store ptr %52, ptr %m_manager.i68, align 8
  %tobool.not.i.i69 = icmp eq ptr %retval.0.i, null
  br i1 %tobool.not.i.i69, label %invoke.cont54, label %_ZN11ast_manager7inc_refEP3ast.exit.i.i70

_ZN11ast_manager7inc_refEP3ast.exit.i.i70:        ; preds = %invoke.cont51
  %m_ref_count.i.i.i.i71 = getelementptr inbounds %class.ast, ptr %retval.0.i, i64 0, i32 2
  %53 = load i32, ptr %m_ref_count.i.i.i.i71, align 4
  %inc.i.i.i.i72 = add i32 %53, 1
  store i32 %inc.i.i.i.i72, ptr %m_ref_count.i.i.i.i71, align 4
  br label %invoke.cont54

invoke.cont54:                                    ; preds = %_ZN11ast_manager7inc_refEP3ast.exit.i.i70, %invoke.cont51
  %m_parameters.i.i74 = getelementptr inbounds %class.decl_info, ptr %si, i64 0, i32 2
  %54 = load ptr, ptr %m_parameters.i.i74, align 8
  %tobool.not.i.i.i.i = icmp eq ptr %54, null
  br i1 %tobool.not.i.i.i.i, label %_ZN9sort_infoD2Ev.exit, label %_ZNK6vectorI9parameterLb1EjE4sizeEv.exit.i.i.i.i.i

_ZNK6vectorI9parameterLb1EjE4sizeEv.exit.i.i.i.i.i: ; preds = %invoke.cont54
  %arrayidx.i.i.i.i.i.i = getelementptr inbounds i32, ptr %54, i64 -1
  %55 = load i32, ptr %arrayidx.i.i.i.i.i.i, align 4
  %cmp.not4.i.i.i.i.i.i.i.i = icmp eq i32 %55, 0
  br i1 %cmp.not4.i.i.i.i.i.i.i.i, label %_ZN6vectorI9parameterLb1EjE16destroy_elementsEv.exit.i.i.i.i, label %for.body.i.i.i.i.i.i.i.i

for.body.i.i.i.i.i.i.i.i:                         ; preds = %_ZNK6vectorI9parameterLb1EjE4sizeEv.exit.i.i.i.i.i, %for.body.i.i.i.i.i.i.i.i
  %__count.addr.06.i.i.i.i.i.i.i.i = phi i32 [ %dec.i.i.i.i.i.i.i.i, %for.body.i.i.i.i.i.i.i.i ], [ %55, %_ZNK6vectorI9parameterLb1EjE4sizeEv.exit.i.i.i.i.i ]
  %__first.addr.05.i.i.i.i.i.i.i.i = phi ptr [ %incdec.ptr.i.i.i.i.i.i.i.i, %for.body.i.i.i.i.i.i.i.i ], [ %54, %_ZNK6vectorI9parameterLb1EjE4sizeEv.exit.i.i.i.i.i ]
  call void @_ZN9parameterD1Ev(ptr noundef nonnull align 8 dereferenceable(16) %__first.addr.05.i.i.i.i.i.i.i.i) #15
  %incdec.ptr.i.i.i.i.i.i.i.i = getelementptr inbounds %class.parameter, ptr %__first.addr.05.i.i.i.i.i.i.i.i, i64 1
  %dec.i.i.i.i.i.i.i.i = add i32 %__count.addr.06.i.i.i.i.i.i.i.i, -1
  %cmp.not.i.i.i.i.i.i.i.i = icmp eq i32 %dec.i.i.i.i.i.i.i.i, 0
  br i1 %cmp.not.i.i.i.i.i.i.i.i, label %_ZN6vectorI9parameterLb1EjE16destroy_elementsEv.exit.loopexit.i.i.i.i, label %for.body.i.i.i.i.i.i.i.i, !llvm.loop !8

_ZN6vectorI9parameterLb1EjE16destroy_elementsEv.exit.loopexit.i.i.i.i: ; preds = %for.body.i.i.i.i.i.i.i.i
  %.pre.i.i.i.i = load ptr, ptr %m_parameters.i.i74, align 8
  br label %_ZN6vectorI9parameterLb1EjE16destroy_elementsEv.exit.i.i.i.i

_ZN6vectorI9parameterLb1EjE16destroy_elementsEv.exit.i.i.i.i: ; preds = %_ZN6vectorI9parameterLb1EjE16destroy_elementsEv.exit.loopexit.i.i.i.i, %_ZNK6vectorI9parameterLb1EjE4sizeEv.exit.i.i.i.i.i
  %56 = phi ptr [ %.pre.i.i.i.i, %_ZN6vectorI9parameterLb1EjE16destroy_elementsEv.exit.loopexit.i.i.i.i ], [ %54, %_ZNK6vectorI9parameterLb1EjE4sizeEv.exit.i.i.i.i.i ]
  %add.ptr.i.i.i.i.i = getelementptr inbounds i32, ptr %56, i64 -2
  invoke void @_ZN6memory10deallocateEPv(ptr noundef nonnull %add.ptr.i.i.i.i.i)
          to label %_ZN9sort_infoD2Ev.exit unwind label %terminate.lpad.i.i.i

terminate.lpad.i.i.i:                             ; preds = %_ZN6vectorI9parameterLb1EjE16destroy_elementsEv.exit.i.i.i.i
  %57 = landingpad { ptr, i32 }
          catch ptr null
  %58 = extractvalue { ptr, i32 } %57, 0
  call void @__clang_call_terminate(ptr %58) #16
  unreachable

_ZN9sort_infoD2Ev.exit:                           ; preds = %invoke.cont54, %_ZN6vectorI9parameterLb1EjE16destroy_elementsEv.exit.i.i.i.i
  %59 = load ptr, ptr %ps, align 8
  %tobool.not.i.i75 = icmp eq ptr %59, null
  br i1 %tobool.not.i.i75, label %return, label %_ZNK6vectorI9parameterLb1EjE4sizeEv.exit.i.i.i

_ZNK6vectorI9parameterLb1EjE4sizeEv.exit.i.i.i:   ; preds = %_ZN9sort_infoD2Ev.exit
  %arrayidx.i.i.i.i = getelementptr inbounds i32, ptr %59, i64 -1
  %60 = load i32, ptr %arrayidx.i.i.i.i, align 4
  %cmp.not4.i.i.i.i.i.i = icmp eq i32 %60, 0
  br i1 %cmp.not4.i.i.i.i.i.i, label %_ZN6vectorI9parameterLb1EjE16destroy_elementsEv.exit.i.i, label %for.body.i.i.i.i.i.i

for.body.i.i.i.i.i.i:                             ; preds = %_ZNK6vectorI9parameterLb1EjE4sizeEv.exit.i.i.i, %for.body.i.i.i.i.i.i
  %__count.addr.06.i.i.i.i.i.i = phi i32 [ %dec.i.i.i.i.i.i, %for.body.i.i.i.i.i.i ], [ %60, %_ZNK6vectorI9parameterLb1EjE4sizeEv.exit.i.i.i ]
  %__first.addr.05.i.i.i.i.i.i = phi ptr [ %incdec.ptr.i.i.i.i.i.i, %for.body.i.i.i.i.i.i ], [ %59, %_ZNK6vectorI9parameterLb1EjE4sizeEv.exit.i.i.i ]
  call void @_ZN9parameterD1Ev(ptr noundef nonnull align 8 dereferenceable(16) %__first.addr.05.i.i.i.i.i.i) #15
  %incdec.ptr.i.i.i.i.i.i = getelementptr inbounds %class.parameter, ptr %__first.addr.05.i.i.i.i.i.i, i64 1
  %dec.i.i.i.i.i.i = add i32 %__count.addr.06.i.i.i.i.i.i, -1
  %cmp.not.i.i.i.i.i.i = icmp eq i32 %dec.i.i.i.i.i.i, 0
  br i1 %cmp.not.i.i.i.i.i.i, label %_ZN6vectorI9parameterLb1EjE16destroy_elementsEv.exit.loopexit.i.i, label %for.body.i.i.i.i.i.i, !llvm.loop !8

_ZN6vectorI9parameterLb1EjE16destroy_elementsEv.exit.loopexit.i.i: ; preds = %for.body.i.i.i.i.i.i
  %.pre.i.i = load ptr, ptr %ps, align 8
  br label %_ZN6vectorI9parameterLb1EjE16destroy_elementsEv.exit.i.i

_ZN6vectorI9parameterLb1EjE16destroy_elementsEv.exit.i.i: ; preds = %_ZN6vectorI9parameterLb1EjE16destroy_elementsEv.exit.loopexit.i.i, %_ZNK6vectorI9parameterLb1EjE4sizeEv.exit.i.i.i
  %61 = phi ptr [ %.pre.i.i, %_ZN6vectorI9parameterLb1EjE16destroy_elementsEv.exit.loopexit.i.i ], [ %59, %_ZNK6vectorI9parameterLb1EjE4sizeEv.exit.i.i.i ]
  %add.ptr.i.i.i76 = getelementptr inbounds i32, ptr %61, i64 -2
  invoke void @_ZN6memory10deallocateEPv(ptr noundef nonnull %add.ptr.i.i.i76)
          to label %return unwind label %terminate.lpad.i77

terminate.lpad.i77:                               ; preds = %_ZN6vectorI9parameterLb1EjE16destroy_elementsEv.exit.i.i
  %62 = landingpad { ptr, i32 }
          catch ptr null
  %63 = extractvalue { ptr, i32 } %62, 0
  call void @__clang_call_terminate(ptr %63) #16
  unreachable

lpad48:                                           ; preds = %if.else.i, %if.then.i65
  %64 = landingpad { ptr, i32 }
          cleanup
  call void @_ZN9sort_infoD2Ev(ptr noundef nonnull align 8 dereferenceable(40) %si) #15
  br label %ehcleanup56

ehcleanup56:                                      ; preds = %lpad.loopexit, %lpad.loopexit.split-lp, %lpad48, %ehcleanup37
  %.pn.pn = phi { ptr, i32 } [ %.pn, %ehcleanup37 ], [ %64, %lpad48 ], [ %lpad.loopexit98, %lpad.loopexit ], [ %lpad.loopexit.split-lp99, %lpad.loopexit.split-lp ]
  call void @_ZN6vectorI9parameterLb1EjED2Ev(ptr noundef nonnull align 8 dereferenceable(8) %ps) #15
  resume { ptr, i32 } %.pn.pn

return.sink.split:                                ; preds = %if.end7, %if.then
  %s.tr.lcssa.sink = phi ptr [ %s.tr.lcssa, %if.then ], [ %s.tr126, %if.end7 ]
  %m_ref_count.i.i.i.i = getelementptr inbounds %class.ast, ptr %s.tr.lcssa.sink, i64 0, i32 2
  %65 = load i32, ptr %m_ref_count.i.i.i.i, align 4
  %inc.i.i.i.i10 = add i32 %65, 1
  store i32 %inc.i.i.i.i10, ptr %m_ref_count.i.i.i.i, align 4
  br label %return

return:                                           ; preds = %return.sink.split, %_ZN6vectorI9parameterLb1EjE16destroy_elementsEv.exit.i.i, %_ZN9sort_infoD2Ev.exit, %if.end7, %if.then
  ret void
}

; Function Attrs: mustprogress nounwind uwtable
define linkonce_odr hidden void @_ZN7obj_refI4sort11ast_managerED2Ev(ptr noundef nonnull align 8 dereferenceable(16) %this) unnamed_addr #4 comdat align 2 personality ptr @__gxx_personality_v0 {
entry:
  %0 = load ptr, ptr %this, align 8
  %tobool.not.i = icmp eq ptr %0, null
  br i1 %tobool.not.i, label %invoke.cont, label %if.then.i.i

if.then.i.i:                                      ; preds = %entry
  %m_manager.i = getelementptr inbounds %class.obj_ref, ptr %this, i64 0, i32 1
  %1 = load ptr, ptr %m_manager.i, align 8
  %m_ref_count.i.i.i = getelementptr inbounds %class.ast, ptr %0, i64 0, i32 2
  %2 = load i32, ptr %m_ref_count.i.i.i, align 4
  %dec.i.i.i = add i32 %2, -1
  store i32 %dec.i.i.i, ptr %m_ref_count.i.i.i, align 4
  %cmp.i.i = icmp eq i32 %dec.i.i.i, 0
  br i1 %cmp.i.i, label %if.then2.i.i, label %invoke.cont

if.then2.i.i:                                     ; preds = %if.then.i.i
  invoke void @_ZN11ast_manager11delete_nodeEP3ast(ptr noundef nonnull align 8 dereferenceable(976) %1, ptr noundef nonnull %0)
          to label %invoke.cont unwind label %terminate.lpad

invoke.cont:                                      ; preds = %if.then.i.i, %entry, %if.then2.i.i
  ret void

terminate.lpad:                                   ; preds = %if.then2.i.i
  %3 = landingpad { ptr, i32 }
          catch ptr null
  %4 = extractvalue { ptr, i32 } %3, 0
  tail call void @__clang_call_terminate(ptr %4) #16
  unreachable
}

; Function Attrs: mustprogress nounwind uwtable
define linkonce_odr hidden void @_ZN10ref_vectorI4sort11ast_managerED2Ev(ptr noundef nonnull align 8 dereferenceable(16) %this) unnamed_addr #4 comdat align 2 personality ptr @__gxx_personality_v0 {
entry:
  %m_nodes.i = getelementptr inbounds %class.ref_vector_core, ptr %this, i64 0, i32 1
  %0 = load ptr, ptr %m_nodes.i, align 8
  %cmp.i.i = icmp eq ptr %0, null
  br i1 %cmp.i.i, label %_ZN15ref_vector_coreI4sort19ref_manager_wrapperIS0_11ast_managerEED2Ev.exit, label %_ZNK6vectorIP4sortLb0EjE4sizeEv.exit.i

_ZNK6vectorIP4sortLb0EjE4sizeEv.exit.i:           ; preds = %entry
  %arrayidx.i.i = getelementptr inbounds i32, ptr %0, i64 -1
  %1 = load i32, ptr %arrayidx.i.i, align 4
  %2 = zext i32 %1 to i64
  %add.ptr.i = getelementptr inbounds ptr, ptr %0, i64 %2
  %cmp3.i.not.i = icmp eq i32 %1, 0
  br i1 %cmp3.i.not.i, label %if.then.i.i.i.i, label %for.body.i.i

for.body.i.i:                                     ; preds = %_ZNK6vectorIP4sortLb0EjE4sizeEv.exit.i, %_ZN15ref_vector_coreI4sort19ref_manager_wrapperIS0_11ast_managerEE7dec_refEPS0_.exit.i.i
  %it.04.i.i = phi ptr [ %incdec.ptr.i.i, %_ZN15ref_vector_coreI4sort19ref_manager_wrapperIS0_11ast_managerEE7dec_refEPS0_.exit.i.i ], [ %0, %_ZNK6vectorIP4sortLb0EjE4sizeEv.exit.i ]
  %3 = load ptr, ptr %it.04.i.i, align 8
  %4 = load ptr, ptr %this, align 8
  %tobool.not.i.i.i.i.i = icmp eq ptr %3, null
  br i1 %tobool.not.i.i.i.i.i, label %_ZN15ref_vector_coreI4sort19ref_manager_wrapperIS0_11ast_managerEE7dec_refEPS0_.exit.i.i, label %if.then.i.i.i.i.i

if.then.i.i.i.i.i:                                ; preds = %for.body.i.i
  %m_ref_count.i.i.i.i.i.i = getelementptr inbounds %class.ast, ptr %3, i64 0, i32 2
  %5 = load i32, ptr %m_ref_count.i.i.i.i.i.i, align 4
  %dec.i.i.i.i.i.i = add i32 %5, -1
  store i32 %dec.i.i.i.i.i.i, ptr %m_ref_count.i.i.i.i.i.i, align 4
  %cmp.i.i.i.i.i = icmp eq i32 %dec.i.i.i.i.i.i, 0
  br i1 %cmp.i.i.i.i.i, label %if.then2.i.i.i.i.i, label %_ZN15ref_vector_coreI4sort19ref_manager_wrapperIS0_11ast_managerEE7dec_refEPS0_.exit.i.i

if.then2.i.i.i.i.i:                               ; preds = %if.then.i.i.i.i.i
  invoke void @_ZN11ast_manager11delete_nodeEP3ast(ptr noundef nonnull align 8 dereferenceable(976) %4, ptr noundef nonnull %3)
          to label %_ZN15ref_vector_coreI4sort19ref_manager_wrapperIS0_11ast_managerEE7dec_refEPS0_.exit.i.i unwind label %terminate.lpad.i

_ZN15ref_vector_coreI4sort19ref_manager_wrapperIS0_11ast_managerEE7dec_refEPS0_.exit.i.i: ; preds = %if.then2.i.i.i.i.i, %if.then.i.i.i.i.i, %for.body.i.i
  %incdec.ptr.i.i = getelementptr inbounds ptr, ptr %it.04.i.i, i64 1
  %cmp.i1.i = icmp ult ptr %incdec.ptr.i.i, %add.ptr.i
  br i1 %cmp.i1.i, label %for.body.i.i, label %invoke.cont8.i, !llvm.loop !9

invoke.cont8.i:                                   ; preds = %_ZN15ref_vector_coreI4sort19ref_manager_wrapperIS0_11ast_managerEE7dec_refEPS0_.exit.i.i
  %.pre.i = load ptr, ptr %m_nodes.i, align 8
  %tobool.not.i.i.i.i = icmp eq ptr %.pre.i, null
  br i1 %tobool.not.i.i.i.i, label %_ZN15ref_vector_coreI4sort19ref_manager_wrapperIS0_11ast_managerEED2Ev.exit, label %if.then.i.i.i.i

if.then.i.i.i.i:                                  ; preds = %invoke.cont8.i, %_ZNK6vectorIP4sortLb0EjE4sizeEv.exit.i
  %6 = phi ptr [ %.pre.i, %invoke.cont8.i ], [ %0, %_ZNK6vectorIP4sortLb0EjE4sizeEv.exit.i ]
  %add.ptr.i.i.i.i.i = getelementptr inbounds i32, ptr %6, i64 -2
  invoke void @_ZN6memory10deallocateEPv(ptr noundef nonnull %add.ptr.i.i.i.i.i)
          to label %_ZN15ref_vector_coreI4sort19ref_manager_wrapperIS0_11ast_managerEED2Ev.exit unwind label %terminate.lpad.i.i.i

terminate.lpad.i.i.i:                             ; preds = %if.then.i.i.i.i
  %7 = landingpad { ptr, i32 }
          catch ptr null
  %8 = extractvalue { ptr, i32 } %7, 0
  tail call void @__clang_call_terminate(ptr %8) #16
  unreachable

terminate.lpad.i:                                 ; preds = %if.then2.i.i.i.i.i
  %9 = landingpad { ptr, i32 }
          catch ptr null
  %10 = extractvalue { ptr, i32 } %9, 0
  tail call void @__clang_call_terminate(ptr %10) #16
  unreachable

_ZN15ref_vector_coreI4sort19ref_manager_wrapperIS0_11ast_managerEED2Ev.exit: ; preds = %entry, %invoke.cont8.i, %if.then.i.i.i.i
  ret void
}

declare noundef zeroext i1 @_ZNK11ast_manager12has_type_varEP4sort(ptr noundef nonnull align 8 dereferenceable(976), ptr noundef) local_unnamed_addr #0

; Function Attrs: mustprogress uwtable
define linkonce_odr hidden noundef ptr @_ZNK9parameter7get_astEv(ptr noundef nonnull align 8 dereferenceable(16) %this) local_unnamed_addr #3 comdat align 2 {
entry:
  %_M_index.i.i.i = getelementptr inbounds %"struct.std::__detail::__variant::_Variant_storage", ptr %this, i64 0, i32 1
  %0 = load i8, ptr %_M_index.i.i.i, align 8
  %cmp.not.i.i = icmp eq i8 %0, 1
  br i1 %cmp.not.i.i, label %_ZSt3getIP3astJiS1_6symbolP7zstringP8rationaldjEERKT_RKSt7variantIJDpT0_EE.exit, label %if.then.i.i

if.then.i.i:                                      ; preds = %entry
  %exception.i.i.i.i = tail call ptr @__cxa_allocate_exception(i64 16) #15
  store ptr getelementptr inbounds ({ [5 x ptr] }, ptr @_ZTVSt18bad_variant_access, i64 0, inrange i32 0, i64 2), ptr %exception.i.i.i.i, align 8
  %_M_reason.i.i.i.i.i = getelementptr inbounds %"class.std::bad_variant_access", ptr %exception.i.i.i.i, i64 0, i32 1
  store ptr @.str.2, ptr %_M_reason.i.i.i.i.i, align 8
  tail call void @__cxa_throw(ptr nonnull %exception.i.i.i.i, ptr nonnull @_ZTISt18bad_variant_access, ptr nonnull @_ZNSt18bad_variant_accessD2Ev) #17
  unreachable

_ZSt3getIP3astJiS1_6symbolP7zstringP8rationaldjEERKT_RKSt7variantIJDpT0_EE.exit: ; preds = %entry
  %1 = load ptr, ptr %this, align 8
  ret ptr %1
}

; Function Attrs: nounwind
declare void @_ZN9parameterD1Ev(ptr noundef nonnull align 8 dereferenceable(16)) unnamed_addr #1

; Function Attrs: mustprogress nounwind uwtable
define linkonce_odr hidden void @_ZN9sort_infoD2Ev(ptr noundef nonnull align 8 dereferenceable(40) %this) unnamed_addr #4 comdat align 2 personality ptr @__gxx_personality_v0 {
entry:
  %m_parameters.i = getelementptr inbounds %class.decl_info, ptr %this, i64 0, i32 2
  %0 = load ptr, ptr %m_parameters.i, align 8
  %tobool.not.i.i.i = icmp eq ptr %0, null
  br i1 %tobool.not.i.i.i, label %_ZN9decl_infoD2Ev.exit, label %_ZNK6vectorI9parameterLb1EjE4sizeEv.exit.i.i.i.i

_ZNK6vectorI9parameterLb1EjE4sizeEv.exit.i.i.i.i: ; preds = %entry
  %arrayidx.i.i.i.i.i = getelementptr inbounds i32, ptr %0, i64 -1
  %1 = load i32, ptr %arrayidx.i.i.i.i.i, align 4
  %cmp.not4.i.i.i.i.i.i.i = icmp eq i32 %1, 0
  br i1 %cmp.not4.i.i.i.i.i.i.i, label %_ZN6vectorI9parameterLb1EjE16destroy_elementsEv.exit.i.i.i, label %for.body.i.i.i.i.i.i.i

for.body.i.i.i.i.i.i.i:                           ; preds = %_ZNK6vectorI9parameterLb1EjE4sizeEv.exit.i.i.i.i, %for.body.i.i.i.i.i.i.i
  %__count.addr.06.i.i.i.i.i.i.i = phi i32 [ %dec.i.i.i.i.i.i.i, %for.body.i.i.i.i.i.i.i ], [ %1, %_ZNK6vectorI9parameterLb1EjE4sizeEv.exit.i.i.i.i ]
  %__first.addr.05.i.i.i.i.i.i.i = phi ptr [ %incdec.ptr.i.i.i.i.i.i.i, %for.body.i.i.i.i.i.i.i ], [ %0, %_ZNK6vectorI9parameterLb1EjE4sizeEv.exit.i.i.i.i ]
  tail call void @_ZN9parameterD1Ev(ptr noundef nonnull align 8 dereferenceable(16) %__first.addr.05.i.i.i.i.i.i.i) #15
  %incdec.ptr.i.i.i.i.i.i.i = getelementptr inbounds %class.parameter, ptr %__first.addr.05.i.i.i.i.i.i.i, i64 1
  %dec.i.i.i.i.i.i.i = add i32 %__count.addr.06.i.i.i.i.i.i.i, -1
  %cmp.not.i.i.i.i.i.i.i = icmp eq i32 %dec.i.i.i.i.i.i.i, 0
  br i1 %cmp.not.i.i.i.i.i.i.i, label %_ZN6vectorI9parameterLb1EjE16destroy_elementsEv.exit.loopexit.i.i.i, label %for.body.i.i.i.i.i.i.i, !llvm.loop !8

_ZN6vectorI9parameterLb1EjE16destroy_elementsEv.exit.loopexit.i.i.i: ; preds = %for.body.i.i.i.i.i.i.i
  %.pre.i.i.i = load ptr, ptr %m_parameters.i, align 8
  br label %_ZN6vectorI9parameterLb1EjE16destroy_elementsEv.exit.i.i.i

_ZN6vectorI9parameterLb1EjE16destroy_elementsEv.exit.i.i.i: ; preds = %_ZN6vectorI9parameterLb1EjE16destroy_elementsEv.exit.loopexit.i.i.i, %_ZNK6vectorI9parameterLb1EjE4sizeEv.exit.i.i.i.i
  %2 = phi ptr [ %.pre.i.i.i, %_ZN6vectorI9parameterLb1EjE16destroy_elementsEv.exit.loopexit.i.i.i ], [ %0, %_ZNK6vectorI9parameterLb1EjE4sizeEv.exit.i.i.i.i ]
  %add.ptr.i.i.i.i = getelementptr inbounds i32, ptr %2, i64 -2
  invoke void @_ZN6memory10deallocateEPv(ptr noundef nonnull %add.ptr.i.i.i.i)
          to label %_ZN9decl_infoD2Ev.exit unwind label %terminate.lpad.i.i

terminate.lpad.i.i:                               ; preds = %_ZN6vectorI9parameterLb1EjE16destroy_elementsEv.exit.i.i.i
  %3 = landingpad { ptr, i32 }
          catch ptr null
  %4 = extractvalue { ptr, i32 } %3, 0
  tail call void @__clang_call_terminate(ptr %4) #16
  unreachable

_ZN9decl_infoD2Ev.exit:                           ; preds = %entry, %_ZN6vectorI9parameterLb1EjE16destroy_elementsEv.exit.i.i.i
  ret void
}

; Function Attrs: mustprogress nounwind uwtable
define linkonce_odr hidden void @_ZN6vectorI9parameterLb1EjED2Ev(ptr noundef nonnull align 8 dereferenceable(8) %this) unnamed_addr #4 comdat align 2 personality ptr @__gxx_personality_v0 {
entry:
  %0 = load ptr, ptr %this, align 8
  %tobool.not.i = icmp eq ptr %0, null
  br i1 %tobool.not.i, label %invoke.cont, label %_ZNK6vectorI9parameterLb1EjE4sizeEv.exit.i.i

_ZNK6vectorI9parameterLb1EjE4sizeEv.exit.i.i:     ; preds = %entry
  %arrayidx.i.i.i = getelementptr inbounds i32, ptr %0, i64 -1
  %1 = load i32, ptr %arrayidx.i.i.i, align 4
  %cmp.not4.i.i.i.i.i = icmp eq i32 %1, 0
  br i1 %cmp.not4.i.i.i.i.i, label %_ZN6vectorI9parameterLb1EjE16destroy_elementsEv.exit.i, label %for.body.i.i.i.i.i

for.body.i.i.i.i.i:                               ; preds = %_ZNK6vectorI9parameterLb1EjE4sizeEv.exit.i.i, %for.body.i.i.i.i.i
  %__count.addr.06.i.i.i.i.i = phi i32 [ %dec.i.i.i.i.i, %for.body.i.i.i.i.i ], [ %1, %_ZNK6vectorI9parameterLb1EjE4sizeEv.exit.i.i ]
  %__first.addr.05.i.i.i.i.i = phi ptr [ %incdec.ptr.i.i.i.i.i, %for.body.i.i.i.i.i ], [ %0, %_ZNK6vectorI9parameterLb1EjE4sizeEv.exit.i.i ]
  tail call void @_ZN9parameterD1Ev(ptr noundef nonnull align 8 dereferenceable(16) %__first.addr.05.i.i.i.i.i) #15
  %incdec.ptr.i.i.i.i.i = getelementptr inbounds %class.parameter, ptr %__first.addr.05.i.i.i.i.i, i64 1
  %dec.i.i.i.i.i = add i32 %__count.addr.06.i.i.i.i.i, -1
  %cmp.not.i.i.i.i.i = icmp eq i32 %dec.i.i.i.i.i, 0
  br i1 %cmp.not.i.i.i.i.i, label %_ZN6vectorI9parameterLb1EjE16destroy_elementsEv.exit.loopexit.i, label %for.body.i.i.i.i.i, !llvm.loop !8

_ZN6vectorI9parameterLb1EjE16destroy_elementsEv.exit.loopexit.i: ; preds = %for.body.i.i.i.i.i
  %.pre.i = load ptr, ptr %this, align 8
  br label %_ZN6vectorI9parameterLb1EjE16destroy_elementsEv.exit.i

_ZN6vectorI9parameterLb1EjE16destroy_elementsEv.exit.i: ; preds = %_ZN6vectorI9parameterLb1EjE16destroy_elementsEv.exit.loopexit.i, %_ZNK6vectorI9parameterLb1EjE4sizeEv.exit.i.i
  %2 = phi ptr [ %.pre.i, %_ZN6vectorI9parameterLb1EjE16destroy_elementsEv.exit.loopexit.i ], [ %0, %_ZNK6vectorI9parameterLb1EjE4sizeEv.exit.i.i ]
  %add.ptr.i.i = getelementptr inbounds i32, ptr %2, i64 -2
  invoke void @_ZN6memory10deallocateEPv(ptr noundef nonnull %add.ptr.i.i)
          to label %invoke.cont unwind label %terminate.lpad

invoke.cont:                                      ; preds = %entry, %_ZN6vectorI9parameterLb1EjE16destroy_elementsEv.exit.i
  ret void

terminate.lpad:                                   ; preds = %_ZN6vectorI9parameterLb1EjE16destroy_elementsEv.exit.i
  %3 = landingpad { ptr, i32 }
          catch ptr null
  %4 = extractvalue { ptr, i32 } %3, 0
  tail call void @__clang_call_terminate(ptr %4) #16
  unreachable
}

; Function Attrs: mustprogress uwtable
define hidden void @_ZN12polymorphism12substitutionclEP4expr(ptr noalias nocapture writeonly sret(%class.obj_ref.47) align 8 %agg.result, ptr nocapture noundef nonnull readonly align 8 dereferenceable(48) %this, ptr noundef %e) local_unnamed_addr #3 align 2 personality ptr @__gxx_personality_v0 {
if.then.i:
  %ref.tmp.i657 = alloca %"class.std::__cxx11::basic_string", align 8
  %ref.tmp18.i658 = alloca %"class.std::allocator", align 1
  %ref.tmp.i = alloca %"class.std::__cxx11::basic_string", align 8
  %ref.tmp18.i = alloca %"class.std::allocator", align 1
  %todo = alloca %class.ptr_vector.48, align 8
  %result = alloca %class.ref_vector.50, align 8
  %args = alloca %class.ptr_buffer, align 8
  %domain = alloca %class.ref_buffer, align 8
  %ref.tmp = alloca %class.obj_ref, align 8
  %patterns = alloca %class.ptr_buffer, align 8
  %no_patterns = alloca %class.ptr_buffer, align 8
  %ref.tmp124 = alloca %class.obj_ref, align 8
  %ref.tmp219 = alloca %class.obj_ref, align 8
  %range = alloca %class.obj_ref, align 8
  store ptr null, ptr %todo, align 8
  %0 = load ptr, ptr %this, align 8
  store ptr %0, ptr %result, align 8
  %m_nodes.i.i = getelementptr inbounds %class.ref_vector_core.51, ptr %result, i64 0, i32 1
  store ptr null, ptr %m_nodes.i.i, align 8
  invoke void @_ZN6vectorIP4exprLb0EjE13expand_vectorEv(ptr noundef nonnull align 8 dereferenceable(8) %todo)
          to label %invoke.cont3 unwind label %lpad2

invoke.cont3:                                     ; preds = %if.then.i
  %.pre.i = load ptr, ptr %todo, align 8
  %arrayidx8.phi.trans.insert.i = getelementptr inbounds i32, ptr %.pre.i, i64 -1
  %.pre1.i = load i32, ptr %arrayidx8.phi.trans.insert.i, align 4
  %idx.ext.i = zext i32 %.pre1.i to i64
  %add.ptr.i = getelementptr inbounds ptr, ptr %.pre.i, i64 %idx.ext.i
  store ptr %e, ptr %add.ptr.i, align 8
  %1 = load ptr, ptr %todo, align 8
  %arrayidx10.i = getelementptr inbounds i32, ptr %1, i64 -1
  %2 = load i32, ptr %arrayidx10.i, align 4
  %inc.i = add i32 %2, 1
  store i32 %inc.i, ptr %arrayidx10.i, align 4
  %m_initial_buffer.i.i = getelementptr inbounds %class.buffer, ptr %args, i64 0, i32 3
  store ptr %m_initial_buffer.i.i, ptr %args, align 8
  %m_pos.i.i = getelementptr inbounds %class.buffer, ptr %args, i64 0, i32 1
  store i32 0, ptr %m_pos.i.i, align 8
  %m_capacity.i.i = getelementptr inbounds %class.buffer, ptr %args, i64 0, i32 2
  store i32 16, ptr %m_capacity.i.i, align 4
  %3 = load ptr, ptr %this, align 8
  store ptr %3, ptr %domain, align 8
  %m_buffer.i.i = getelementptr inbounds %class.ref_buffer_core, ptr %domain, i64 0, i32 1
  %m_initial_buffer.i.i.i.i = getelementptr inbounds %class.ref_buffer_core, ptr %domain, i64 0, i32 1, i32 0, i32 3
  store ptr %m_initial_buffer.i.i.i.i, ptr %m_buffer.i.i, align 8
  %m_pos.i.i.i.i = getelementptr inbounds %class.ref_buffer_core, ptr %domain, i64 0, i32 1, i32 0, i32 1
  store i32 0, ptr %m_pos.i.i.i.i, align 8
  %m_capacity.i.i.i.i = getelementptr inbounds %class.ref_buffer_core, ptr %domain, i64 0, i32 1, i32 0, i32 2
  store i32 16, ptr %m_capacity.i.i.i.i, align 4
  %4 = load ptr, ptr %todo, align 8
  %cmp.i67733 = icmp eq ptr %4, null
  br i1 %cmp.i67733, label %invoke.cont256, label %_ZNK6vectorIP4exprLb0EjE5emptyEv.exit.lr.ph

_ZNK6vectorIP4exprLb0EjE5emptyEv.exit.lr.ph:      ; preds = %invoke.cont3
  %m_manager.i.i551 = getelementptr inbounds %class.obj_ref, ptr %range, i64 0, i32 1
  %m_initial_buffer.i.i156 = getelementptr inbounds %class.buffer, ptr %patterns, i64 0, i32 3
  %m_pos.i.i157 = getelementptr inbounds %class.buffer, ptr %patterns, i64 0, i32 1
  %m_capacity.i.i158 = getelementptr inbounds %class.buffer, ptr %patterns, i64 0, i32 2
  %m_initial_buffer.i.i159 = getelementptr inbounds %class.buffer, ptr %no_patterns, i64 0, i32 3
  %m_pos.i.i160 = getelementptr inbounds %class.buffer, ptr %no_patterns, i64 0, i32 1
  %m_capacity.i.i161 = getelementptr inbounds %class.buffer, ptr %no_patterns, i64 0, i32 2
  %m_manager.i.i = getelementptr inbounds %class.obj_ref, ptr %ref.tmp, i64 0, i32 1
  br label %_ZNK6vectorIP4exprLb0EjE5emptyEv.exit

_ZNK6vectorIP4exprLb0EjE5emptyEv.exit:            ; preds = %_ZNK6vectorIP4exprLb0EjE5emptyEv.exit.lr.ph, %while.cond.backedge
  %5 = phi ptr [ %4, %_ZNK6vectorIP4exprLb0EjE5emptyEv.exit.lr.ph ], [ %13, %while.cond.backedge ]
  %arrayidx.i68 = getelementptr inbounds i32, ptr %5, i64 -1
  %6 = load i32, ptr %arrayidx.i68, align 4
  %cmp3.i = icmp eq i32 %6, 0
  br i1 %cmp3.i, label %invoke.cont256.loopexit, label %invoke.cont10

invoke.cont10:                                    ; preds = %_ZNK6vectorIP4exprLb0EjE5emptyEv.exit
  %7 = add i32 %6, -1
  %8 = zext i32 %7 to i64
  %arrayidx.i1.i = getelementptr inbounds ptr, ptr %5, i64 %8
  %9 = load ptr, ptr %arrayidx.i1.i, align 8
  %in_cache.val.val = load ptr, ptr %m_nodes.i.i, align 8
  %cmp.i.i.i = icmp eq ptr %in_cache.val.val, null
  br i1 %cmp.i.i.i, label %if.end, label %_ZNK15ref_vector_coreI4expr19ref_manager_wrapperIS0_11ast_managerEE4sizeEv.exit.i

_ZNK15ref_vector_coreI4expr19ref_manager_wrapperIS0_11ast_managerEE4sizeEv.exit.i: ; preds = %invoke.cont10
  %arrayidx.i.i.i = getelementptr inbounds i32, ptr %in_cache.val.val, i64 -1
  %10 = load i32, ptr %arrayidx.i.i.i, align 4
  %11 = load i32, ptr %9, align 4
  %cmp.i69 = icmp ugt i32 %10, %11
  br i1 %cmp.i69, label %invoke.cont12, label %if.end

invoke.cont12:                                    ; preds = %_ZNK15ref_vector_coreI4expr19ref_manager_wrapperIS0_11ast_managerEE4sizeEv.exit.i
  %idxprom.i.i.i = zext i32 %11 to i64
  %arrayidx.i.i3.i = getelementptr inbounds ptr, ptr %in_cache.val.val, i64 %idxprom.i.i.i
  %12 = load ptr, ptr %arrayidx.i.i3.i, align 8
  %tobool.i.not = icmp eq ptr %12, null
  br i1 %tobool.i.not, label %if.end, label %if.then

if.then:                                          ; preds = %invoke.cont12
  store i32 %7, ptr %arrayidx.i68, align 4
  br label %while.cond.backedge

while.cond.backedge:                              ; preds = %if.end.i.i.i.i.i397, %_ZN10ptr_bufferI4exprLj16EED2Ev.exit, %if.end43, %invoke.cont249, %if.end, %if.then, %_ZNK6vectorIP4exprLb0EjE4sizeEv.exit478
  %13 = load ptr, ptr %todo, align 8
  %cmp.i67 = icmp eq ptr %13, null
  br i1 %cmp.i67, label %invoke.cont256.loopexit, label %_ZNK6vectorIP4exprLb0EjE5emptyEv.exit, !llvm.loop !10

lpad2:                                            ; preds = %if.then.i
  %14 = landingpad { ptr, i32 }
          cleanup
  br label %ehcleanup265

lpad7.loopexit:                                   ; preds = %for.body218
  %lpad.loopexit706 = landingpad { ptr, i32 }
          cleanup
  br label %ehcleanup261

lpad7.loopexit.split-lp.loopexit:                 ; preds = %if.then2.i.i.i.i.i497
  %lpad.loopexit708 = landingpad { ptr, i32 }
          cleanup
  br label %ehcleanup261

lpad7.loopexit.split-lp.loopexit.split-lp.loopexit: ; preds = %if.then.i429, %if.then.i441, %if.end.i.i.i.i460
  %lpad.loopexit711 = landingpad { ptr, i32 }
          cleanup
  br label %ehcleanup261

lpad7.loopexit.split-lp.loopexit.split-lp.loopexit.split-lp.loopexit: ; preds = %if.end.i681, %if.then.i684
  %lpad.loopexit758 = landingpad { ptr, i32 }
          cleanup
  br label %ehcleanup261

lpad7.loopexit.split-lp.loopexit.split-lp.loopexit.split-lp.loopexit.split-lp.loopexit: ; preds = %while.body.i.i.i599
  %lpad.loopexit765 = landingpad { ptr, i32 }
          cleanup
  br label %ehcleanup261

lpad7.loopexit.split-lp.loopexit.split-lp.loopexit.split-lp.loopexit.split-lp.loopexit.split-lp: ; preds = %if.then17, %invoke.cont19, %if.then23, %invoke.cont31, %for.end228, %if.then2.i.i.i.i.i100, %if.then.i151, %if.end243, %if.then2.i.i.i.i.i580
  %lpad.loopexit.split-lp766 = landingpad { ptr, i32 }
          cleanup
  br label %ehcleanup261

if.end:                                           ; preds = %invoke.cont10, %_ZNK15ref_vector_coreI4expr19ref_manager_wrapperIS0_11ast_managerEE4sizeEv.exit.i, %invoke.cont12
  %m_kind.i.i = getelementptr inbounds %class.ast, ptr %9, i64 0, i32 1
  %bf.load.i.i = load i32, ptr %m_kind.i.i, align 4
  %trunc = trunc i32 %bf.load.i.i to i16
  switch i16 %trunc, label %while.cond.backedge [
    i16 1, label %if.then17
    i16 2, label %if.then48
    i16 0, label %_ZNK6vectorIP4exprLb0EjE4sizeEv.exit
  ]

if.then17:                                        ; preds = %if.end
  %15 = load ptr, ptr %this, align 8
  %call20 = invoke noundef ptr @_ZNK4expr8get_sortEv(ptr noundef nonnull align 4 dereferenceable(16) %9)
          to label %invoke.cont19 unwind label %lpad7.loopexit.split-lp.loopexit.split-lp.loopexit.split-lp.loopexit.split-lp.loopexit.split-lp

invoke.cont19:                                    ; preds = %if.then17
  %call22 = invoke noundef zeroext i1 @_ZNK11ast_manager12has_type_varEP4sort(ptr noundef nonnull align 8 dereferenceable(976) %15, ptr noundef %call20)
          to label %invoke.cont21 unwind label %lpad7.loopexit.split-lp.loopexit.split-lp.loopexit.split-lp.loopexit.split-lp.loopexit.split-lp

invoke.cont21:                                    ; preds = %invoke.cont19
  %16 = load i32, ptr %9, align 4
  br i1 %call22, label %if.then23, label %if.else

if.then23:                                        ; preds = %invoke.cont21
  %17 = load ptr, ptr %this, align 8
  %m_idx.i = getelementptr inbounds %class.var, ptr %9, i64 0, i32 1
  %18 = load i32, ptr %m_idx.i, align 8
  %call32 = invoke noundef ptr @_ZNK4expr8get_sortEv(ptr noundef nonnull align 4 dereferenceable(16) %9)
          to label %invoke.cont31 unwind label %lpad7.loopexit.split-lp.loopexit.split-lp.loopexit.split-lp.loopexit.split-lp.loopexit.split-lp

invoke.cont31:                                    ; preds = %if.then23
  invoke void @_ZN12polymorphism12substitutionclEP4sort(ptr nonnull sret(%class.obj_ref) align 8 %ref.tmp, ptr noundef nonnull align 8 dereferenceable(48) %this, ptr noundef %call32)
          to label %invoke.cont33 unwind label %lpad7.loopexit.split-lp.loopexit.split-lp.loopexit.split-lp.loopexit.split-lp.loopexit.split-lp

invoke.cont33:                                    ; preds = %invoke.cont31
  %19 = load ptr, ptr %ref.tmp, align 8
  %call38 = invoke noundef ptr @_ZN11ast_manager6mk_varEjP4sort(ptr noundef nonnull align 8 dereferenceable(976) %17, i32 noundef %18, ptr noundef %19)
          to label %invoke.cont37 unwind label %lpad34.loopexit.split-lp

invoke.cont37:                                    ; preds = %invoke.cont33
  %add.i = add i32 %16, 1
  %20 = load ptr, ptr %m_nodes.i.i, align 8
  %cmp.i.i.i73 = icmp eq ptr %20, null
  br i1 %cmp.i.i.i73, label %_ZNK6vectorIP4exprLb0EjE4sizeEv.exit.i.i, label %_ZNK6vectorIP4exprLb0EjE4sizeEv.exit.thread.i.i

_ZNK6vectorIP4exprLb0EjE4sizeEv.exit.i.i:         ; preds = %invoke.cont37
  %cmp.not.not.i.i = icmp eq i32 %add.i, 0
  br i1 %cmp.not.not.i.i, label %_ZN15ref_vector_coreI4expr19ref_manager_wrapperIS0_11ast_managerEE7reserveEj.exit.i, label %while.cond.i.i.i.preheader

_ZNK6vectorIP4exprLb0EjE4sizeEv.exit.thread.i.i:  ; preds = %invoke.cont37
  %arrayidx.i.i.i74 = getelementptr inbounds i32, ptr %20, i64 -1
  %21 = load i32, ptr %arrayidx.i.i.i74, align 4
  %cmp.not4.i.i = icmp ult i32 %21, %add.i
  br i1 %cmp.not4.i.i, label %while.cond.i.i.i.preheader, label %_ZN15ref_vector_coreI4expr19ref_manager_wrapperIS0_11ast_managerEE7reserveEj.exit.i

while.cond.i.i.i.preheader:                       ; preds = %_ZNK6vectorIP4exprLb0EjE4sizeEv.exit.i.i, %_ZNK6vectorIP4exprLb0EjE4sizeEv.exit.thread.i.i
  %.ph = phi ptr [ %20, %_ZNK6vectorIP4exprLb0EjE4sizeEv.exit.thread.i.i ], [ null, %_ZNK6vectorIP4exprLb0EjE4sizeEv.exit.i.i ]
  %retval.0.i16.i.i.i.ph = phi i32 [ %21, %_ZNK6vectorIP4exprLb0EjE4sizeEv.exit.thread.i.i ], [ 0, %_ZNK6vectorIP4exprLb0EjE4sizeEv.exit.i.i ]
  br label %while.cond.i.i.i

while.cond.i.i.i:                                 ; preds = %while.cond.i.i.i.preheader, %.noexc77
  %22 = phi ptr [ %.pr.pre.i.i.i, %.noexc77 ], [ %.ph, %while.cond.i.i.i.preheader ]
  %cmp.i10.i.i.i = icmp eq ptr %22, null
  br i1 %cmp.i10.i.i.i, label %if.then.i654, label %_ZNK6vectorIP4exprLb0EjE8capacityEv.exit.i.i.i.thread

_ZNK6vectorIP4exprLb0EjE8capacityEv.exit.i.i.i.thread: ; preds = %while.cond.i.i.i
  %arrayidx.i12.i.i.i = getelementptr inbounds i32, ptr %22, i64 -2
  %23 = load i32, ptr %arrayidx.i12.i.i.i, align 4
  %cmp3.i.i.i749 = icmp ult i32 %23, %add.i
  br i1 %cmp3.i.i.i749, label %if.else.i, label %while.end.i.i.i

if.then.i654:                                     ; preds = %while.cond.i.i.i
  call void @llvm.lifetime.start.p0(i64 32, ptr nonnull %ref.tmp.i)
  call void @llvm.lifetime.start.p0(i64 1, ptr nonnull %ref.tmp18.i)
  %call.i655 = invoke noalias noundef ptr @_ZN6memory8allocateEm(i64 noundef 24)
          to label %call.i.noexc unwind label %lpad34.loopexit

call.i.noexc:                                     ; preds = %if.then.i654
  store i32 2, ptr %call.i655, align 4
  %incdec.ptr.i = getelementptr inbounds i32, ptr %call.i655, i64 1
  store i32 0, ptr %incdec.ptr.i, align 4
  %incdec.ptr2.i = getelementptr inbounds i32, ptr %call.i655, i64 2
  store ptr %incdec.ptr2.i, ptr %m_nodes.i.i, align 8
  br label %.noexc77

if.else.i:                                        ; preds = %_ZNK6vectorIP4exprLb0EjE8capacityEv.exit.i.i.i.thread
  call void @llvm.lifetime.start.p0(i64 32, ptr nonnull %ref.tmp.i)
  call void @llvm.lifetime.start.p0(i64 1, ptr nonnull %ref.tmp18.i)
  %arrayidx.i651 = getelementptr inbounds i32, ptr %22, i64 -2
  %24 = load i32, ptr %arrayidx.i651, align 4
  %mul9.i = mul i32 %24, 3
  %add10.i = add i32 %mul9.i, 1
  %shr.i = lshr i32 %add10.i, 1
  %mul12.i = shl i32 %shr.i, 3
  %add13.i = add i32 %mul12.i, 8
  %cmp15.not.i = icmp ugt i32 %shr.i, %24
  br i1 %cmp15.not.i, label %lor.lhs.false.i652, label %if.then17.i

lor.lhs.false.i652:                               ; preds = %if.else.i
  %mul6.i = shl i32 %24, 3
  %add7.i = add i32 %mul6.i, 8
  %cmp16.not.i = icmp ugt i32 %add13.i, %add7.i
  br i1 %cmp16.not.i, label %if.end.i653, label %if.then17.i

if.then17.i:                                      ; preds = %lor.lhs.false.i652, %if.else.i
  %exception.i = call ptr @__cxa_allocate_exception(i64 40) #15
  call void @_ZNSaIcEC1Ev(ptr noundef nonnull align 1 dereferenceable(1) %ref.tmp18.i) #15
  invoke void @_ZNSt7__cxx1112basic_stringIcSt11char_traitsIcESaIcEEC2IS3_EEPKcRKS3_(ptr noundef nonnull align 8 dereferenceable(32) %ref.tmp.i, ptr noundef nonnull @.str.3, ptr noundef nonnull align 1 dereferenceable(1) %ref.tmp18.i)
          to label %invoke.cont.i unwind label %cleanup.action.i

invoke.cont.i:                                    ; preds = %if.then17.i
  store ptr getelementptr inbounds ({ [6 x ptr] }, ptr @_ZTV17default_exception, i64 0, inrange i32 0, i64 2), ptr %exception.i, align 8
  %m_msg.i.i = getelementptr inbounds %class.default_exception, ptr %exception.i, i64 0, i32 1
  call void @_ZNSt7__cxx1112basic_stringIcSt11char_traitsIcESaIcEEC1EOS4_(ptr noundef nonnull align 8 dereferenceable(32) %m_msg.i.i, ptr noundef nonnull align 8 dereferenceable(32) %ref.tmp.i) #15
  invoke void @__cxa_throw(ptr nonnull %exception.i, ptr nonnull @_ZTI17default_exception, ptr nonnull @_ZN17default_exceptionD2Ev) #17
          to label %unreachable.i unwind label %ehcleanup.i

ehcleanup.i:                                      ; preds = %invoke.cont.i
  %25 = landingpad { ptr, i32 }
          cleanup
  call void @_ZNSt7__cxx1112basic_stringIcSt11char_traitsIcESaIcEED1Ev(ptr noundef nonnull align 8 dereferenceable(32) %ref.tmp.i) #15
  call void @_ZNSaIcED1Ev(ptr noundef nonnull align 1 dereferenceable(1) %ref.tmp18.i) #15
  br label %lpad34.body

cleanup.action.i:                                 ; preds = %if.then17.i
  %26 = landingpad { ptr, i32 }
          cleanup
  call void @_ZNSaIcED1Ev(ptr noundef nonnull align 1 dereferenceable(1) %ref.tmp18.i) #15
  call void @__cxa_free_exception(ptr %exception.i) #15
  br label %lpad34.body

if.end.i653:                                      ; preds = %lor.lhs.false.i652
  %conv24.i = zext i32 %add13.i to i64
  %call25.i656 = invoke noalias noundef ptr @_ZN6memory10reallocateEPvm(ptr noundef nonnull %arrayidx.i651, i64 noundef %conv24.i)
          to label %call25.i.noexc unwind label %lpad34.loopexit

call25.i.noexc:                                   ; preds = %if.end.i653
  %add.ptr26.i = getelementptr inbounds i32, ptr %call25.i656, i64 2
  store ptr %add.ptr26.i, ptr %m_nodes.i.i, align 8
  store i32 %shr.i, ptr %call25.i656, align 4
  br label %.noexc77

unreachable.i:                                    ; preds = %invoke.cont.i
  unreachable

.noexc77:                                         ; preds = %call25.i.noexc, %call.i.noexc
  %.pr.pre.i.i.i = phi ptr [ %add.ptr26.i, %call25.i.noexc ], [ %incdec.ptr2.i, %call.i.noexc ]
  call void @llvm.lifetime.end.p0(i64 32, ptr nonnull %ref.tmp.i)
  call void @llvm.lifetime.end.p0(i64 1, ptr nonnull %ref.tmp18.i)
  br label %while.cond.i.i.i, !llvm.loop !11

while.end.i.i.i:                                  ; preds = %_ZNK6vectorIP4exprLb0EjE8capacityEv.exit.i.i.i.thread
  %arrayidx.i2.i.i = getelementptr inbounds i32, ptr %22, i64 -1
  store i32 %add.i, ptr %arrayidx.i2.i.i, align 4
  %cmp8.not17.i.i.i = icmp eq i32 %retval.0.i16.i.i.i.ph, %add.i
  br i1 %cmp8.not17.i.i.i, label %_ZN15ref_vector_coreI4expr19ref_manager_wrapperIS0_11ast_managerEE7reserveEj.exit.i, label %for.body.preheader.i.i.i

for.body.preheader.i.i.i:                         ; preds = %while.end.i.i.i
  %idx.ext6.i.i.i = zext i32 %add.i to i64
  %27 = load ptr, ptr %m_nodes.i.i, align 8
  %idx.ext.i.i.i = zext i32 %retval.0.i16.i.i.i.ph to i64
  %add.ptr.i.i.i = getelementptr ptr, ptr %27, i64 %idx.ext.i.i.i
  %28 = sub nsw i64 %idx.ext6.i.i.i, %idx.ext.i.i.i
  %29 = shl nsw i64 %28, 3
  call void @llvm.memset.p0.i64(ptr align 8 %add.ptr.i.i.i, i8 0, i64 %29, i1 false)
  br label %_ZN15ref_vector_coreI4expr19ref_manager_wrapperIS0_11ast_managerEE7reserveEj.exit.i

_ZN15ref_vector_coreI4expr19ref_manager_wrapperIS0_11ast_managerEE7reserveEj.exit.i: ; preds = %for.body.preheader.i.i.i, %while.end.i.i.i, %_ZNK6vectorIP4exprLb0EjE4sizeEv.exit.thread.i.i, %_ZNK6vectorIP4exprLb0EjE4sizeEv.exit.i.i
  %tobool.not.i.i.i.i.i = icmp eq ptr %call38, null
  br i1 %tobool.not.i.i.i.i.i, label %_ZN15ref_vector_coreI4expr19ref_manager_wrapperIS0_11ast_managerEE7inc_refEPS0_.exit.i.i, label %if.then.i.i.i.i.i

if.then.i.i.i.i.i:                                ; preds = %_ZN15ref_vector_coreI4expr19ref_manager_wrapperIS0_11ast_managerEE7reserveEj.exit.i
  %m_ref_count.i.i.i.i.i.i = getelementptr inbounds %class.ast, ptr %call38, i64 0, i32 2
  %30 = load i32, ptr %m_ref_count.i.i.i.i.i.i, align 4
  %inc.i.i.i.i.i.i = add i32 %30, 1
  store i32 %inc.i.i.i.i.i.i, ptr %m_ref_count.i.i.i.i.i.i, align 4
  br label %_ZN15ref_vector_coreI4expr19ref_manager_wrapperIS0_11ast_managerEE7inc_refEPS0_.exit.i.i

_ZN15ref_vector_coreI4expr19ref_manager_wrapperIS0_11ast_managerEE7inc_refEPS0_.exit.i.i: ; preds = %if.then.i.i.i.i.i, %_ZN15ref_vector_coreI4expr19ref_manager_wrapperIS0_11ast_managerEE7reserveEj.exit.i
  %31 = load ptr, ptr %m_nodes.i.i, align 8
  %idxprom.i.i.i75 = zext i32 %16 to i64
  %arrayidx.i.i3.i76 = getelementptr inbounds ptr, ptr %31, i64 %idxprom.i.i.i75
  %32 = load ptr, ptr %arrayidx.i.i3.i76, align 8
  %33 = load ptr, ptr %result, align 8
  %tobool.not.i.i.i3.i.i = icmp eq ptr %32, null
  br i1 %tobool.not.i.i.i3.i.i, label %invoke.cont39, label %if.then.i.i.i4.i.i

if.then.i.i.i4.i.i:                               ; preds = %_ZN15ref_vector_coreI4expr19ref_manager_wrapperIS0_11ast_managerEE7inc_refEPS0_.exit.i.i
  %m_ref_count.i.i.i.i5.i.i = getelementptr inbounds %class.ast, ptr %32, i64 0, i32 2
  %34 = load i32, ptr %m_ref_count.i.i.i.i5.i.i, align 4
  %dec.i.i.i.i.i.i = add i32 %34, -1
  store i32 %dec.i.i.i.i.i.i, ptr %m_ref_count.i.i.i.i5.i.i, align 4
  %cmp.i.i.i.i.i = icmp eq i32 %dec.i.i.i.i.i.i, 0
  br i1 %cmp.i.i.i.i.i, label %if.then2.i.i.i.i.i, label %invoke.cont39

if.then2.i.i.i.i.i:                               ; preds = %if.then.i.i.i4.i.i
  invoke void @_ZN11ast_manager11delete_nodeEP3ast(ptr noundef nonnull align 8 dereferenceable(976) %33, ptr noundef nonnull %32)
          to label %invoke.cont39 unwind label %lpad34.loopexit.split-lp

invoke.cont39:                                    ; preds = %if.then.i.i.i4.i.i, %_ZN15ref_vector_coreI4expr19ref_manager_wrapperIS0_11ast_managerEE7inc_refEPS0_.exit.i.i, %if.then2.i.i.i.i.i
  %35 = load ptr, ptr %m_nodes.i.i, align 8
  %arrayidx.i7.i.i = getelementptr inbounds ptr, ptr %35, i64 %idxprom.i.i.i75
  store ptr %call38, ptr %arrayidx.i7.i.i, align 8
  %36 = load ptr, ptr %ref.tmp, align 8
  %tobool.not.i.i = icmp eq ptr %36, null
  br i1 %tobool.not.i.i, label %if.end43, label %if.then.i.i.i

if.then.i.i.i:                                    ; preds = %invoke.cont39
  %37 = load ptr, ptr %m_manager.i.i, align 8
  %m_ref_count.i.i.i.i = getelementptr inbounds %class.ast, ptr %36, i64 0, i32 2
  %38 = load i32, ptr %m_ref_count.i.i.i.i, align 4
  %dec.i.i.i.i = add i32 %38, -1
  store i32 %dec.i.i.i.i, ptr %m_ref_count.i.i.i.i, align 4
  %cmp.i.i.i79 = icmp eq i32 %dec.i.i.i.i, 0
  br i1 %cmp.i.i.i79, label %if.then2.i.i.i, label %if.end43

if.then2.i.i.i:                                   ; preds = %if.then.i.i.i
  invoke void @_ZN11ast_manager11delete_nodeEP3ast(ptr noundef nonnull align 8 dereferenceable(976) %37, ptr noundef nonnull %36)
          to label %if.end43 unwind label %terminate.lpad.i

terminate.lpad.i:                                 ; preds = %if.then2.i.i.i
  %39 = landingpad { ptr, i32 }
          catch ptr null
  %40 = extractvalue { ptr, i32 } %39, 0
  call void @__clang_call_terminate(ptr %40) #16
  unreachable

lpad34.loopexit:                                  ; preds = %if.then.i654, %if.end.i653
  %lpad.loopexit755 = landingpad { ptr, i32 }
          cleanup
  br label %lpad34.body

lpad34.loopexit.split-lp:                         ; preds = %invoke.cont33, %if.then2.i.i.i.i.i
  %lpad.loopexit.split-lp756 = landingpad { ptr, i32 }
          cleanup
  br label %lpad34.body

lpad34.body:                                      ; preds = %lpad34.loopexit, %lpad34.loopexit.split-lp, %ehcleanup.i, %cleanup.action.i
  %eh.lpad-body = phi { ptr, i32 } [ %25, %ehcleanup.i ], [ %26, %cleanup.action.i ], [ %lpad.loopexit755, %lpad34.loopexit ], [ %lpad.loopexit.split-lp756, %lpad34.loopexit.split-lp ]
  call void @_ZN7obj_refI4sort11ast_managerED2Ev(ptr noundef nonnull align 8 dereferenceable(16) %ref.tmp) #15
  br label %ehcleanup261

if.else:                                          ; preds = %invoke.cont21
  %add.i80 = add i32 %16, 1
  %41 = load ptr, ptr %m_nodes.i.i, align 8
  %cmp.i.i.i82 = icmp eq ptr %41, null
  br i1 %cmp.i.i.i82, label %_ZNK6vectorIP4exprLb0EjE4sizeEv.exit.i.i121, label %_ZNK6vectorIP4exprLb0EjE4sizeEv.exit.thread.i.i83

_ZNK6vectorIP4exprLb0EjE4sizeEv.exit.i.i121:      ; preds = %if.else
  %cmp.not.not.i.i122 = icmp eq i32 %add.i80, 0
  br i1 %cmp.not.not.i.i122, label %if.then.i.i.i.i.i88, label %while.cond.i.i.i104.preheader

_ZNK6vectorIP4exprLb0EjE4sizeEv.exit.thread.i.i83: ; preds = %if.else
  %arrayidx.i.i.i84 = getelementptr inbounds i32, ptr %41, i64 -1
  %42 = load i32, ptr %arrayidx.i.i.i84, align 4
  %cmp.not4.i.i85 = icmp ult i32 %42, %add.i80
  br i1 %cmp.not4.i.i85, label %while.cond.i.i.i104.preheader, label %if.then.i.i.i.i.i88

while.cond.i.i.i104.preheader:                    ; preds = %_ZNK6vectorIP4exprLb0EjE4sizeEv.exit.i.i121, %_ZNK6vectorIP4exprLb0EjE4sizeEv.exit.thread.i.i83
  %.ph757 = phi ptr [ %41, %_ZNK6vectorIP4exprLb0EjE4sizeEv.exit.thread.i.i83 ], [ null, %_ZNK6vectorIP4exprLb0EjE4sizeEv.exit.i.i121 ]
  %retval.0.i16.i.i.i105.ph = phi i32 [ %42, %_ZNK6vectorIP4exprLb0EjE4sizeEv.exit.thread.i.i83 ], [ 0, %_ZNK6vectorIP4exprLb0EjE4sizeEv.exit.i.i121 ]
  br label %while.cond.i.i.i104

while.cond.i.i.i104:                              ; preds = %while.cond.i.i.i104.preheader, %.noexc123
  %43 = phi ptr [ %.pr.pre.i.i.i120, %.noexc123 ], [ %.ph757, %while.cond.i.i.i104.preheader ]
  %cmp.i10.i.i.i106 = icmp eq ptr %43, null
  br i1 %cmp.i10.i.i.i106, label %if.then.i684, label %_ZNK6vectorIP4exprLb0EjE8capacityEv.exit.i.i.i109.thread

_ZNK6vectorIP4exprLb0EjE8capacityEv.exit.i.i.i109.thread: ; preds = %while.cond.i.i.i104
  %arrayidx.i12.i.i.i108 = getelementptr inbounds i32, ptr %43, i64 -2
  %44 = load i32, ptr %arrayidx.i12.i.i.i108, align 4
  %cmp3.i.i.i111751 = icmp ult i32 %44, %add.i80
  br i1 %cmp3.i.i.i111751, label %if.else.i660, label %while.end.i.i.i112

if.then.i684:                                     ; preds = %while.cond.i.i.i104
  call void @llvm.lifetime.start.p0(i64 32, ptr nonnull %ref.tmp.i657)
  call void @llvm.lifetime.start.p0(i64 1, ptr nonnull %ref.tmp18.i658)
  %call.i688 = invoke noalias noundef ptr @_ZN6memory8allocateEm(i64 noundef 24)
          to label %call.i.noexc687 unwind label %lpad7.loopexit.split-lp.loopexit.split-lp.loopexit.split-lp.loopexit

call.i.noexc687:                                  ; preds = %if.then.i684
  store i32 2, ptr %call.i688, align 4
  %incdec.ptr.i685 = getelementptr inbounds i32, ptr %call.i688, i64 1
  store i32 0, ptr %incdec.ptr.i685, align 4
  %incdec.ptr2.i686 = getelementptr inbounds i32, ptr %call.i688, i64 2
  store ptr %incdec.ptr2.i686, ptr %m_nodes.i.i, align 8
  br label %.noexc123

if.else.i660:                                     ; preds = %_ZNK6vectorIP4exprLb0EjE8capacityEv.exit.i.i.i109.thread
  call void @llvm.lifetime.start.p0(i64 32, ptr nonnull %ref.tmp.i657)
  call void @llvm.lifetime.start.p0(i64 1, ptr nonnull %ref.tmp18.i658)
  %arrayidx.i661 = getelementptr inbounds i32, ptr %43, i64 -2
  %45 = load i32, ptr %arrayidx.i661, align 4
  %mul9.i662 = mul i32 %45, 3
  %add10.i663 = add i32 %mul9.i662, 1
  %shr.i664 = lshr i32 %add10.i663, 1
  %mul12.i665 = shl i32 %shr.i664, 3
  %add13.i666 = add i32 %mul12.i665, 8
  %cmp15.not.i667 = icmp ugt i32 %shr.i664, %45
  br i1 %cmp15.not.i667, label %lor.lhs.false.i677, label %if.then17.i668

lor.lhs.false.i677:                               ; preds = %if.else.i660
  %mul6.i678 = shl i32 %45, 3
  %add7.i679 = add i32 %mul6.i678, 8
  %cmp16.not.i680 = icmp ugt i32 %add13.i666, %add7.i679
  br i1 %cmp16.not.i680, label %if.end.i681, label %if.then17.i668

if.then17.i668:                                   ; preds = %lor.lhs.false.i677, %if.else.i660
  %exception.i669 = call ptr @__cxa_allocate_exception(i64 40) #15
  call void @_ZNSaIcEC1Ev(ptr noundef nonnull align 1 dereferenceable(1) %ref.tmp18.i658) #15
  invoke void @_ZNSt7__cxx1112basic_stringIcSt11char_traitsIcESaIcEEC2IS3_EEPKcRKS3_(ptr noundef nonnull align 8 dereferenceable(32) %ref.tmp.i657, ptr noundef nonnull @.str.3, ptr noundef nonnull align 1 dereferenceable(1) %ref.tmp18.i658)
          to label %invoke.cont.i673 unwind label %cleanup.action.i670

invoke.cont.i673:                                 ; preds = %if.then17.i668
  store ptr getelementptr inbounds ({ [6 x ptr] }, ptr @_ZTV17default_exception, i64 0, inrange i32 0, i64 2), ptr %exception.i669, align 8
  %m_msg.i.i674 = getelementptr inbounds %class.default_exception, ptr %exception.i669, i64 0, i32 1
  call void @_ZNSt7__cxx1112basic_stringIcSt11char_traitsIcESaIcEEC1EOS4_(ptr noundef nonnull align 8 dereferenceable(32) %m_msg.i.i674, ptr noundef nonnull align 8 dereferenceable(32) %ref.tmp.i657) #15
  invoke void @__cxa_throw(ptr nonnull %exception.i669, ptr nonnull @_ZTI17default_exception, ptr nonnull @_ZN17default_exceptionD2Ev) #17
          to label %unreachable.i676 unwind label %ehcleanup.i675

ehcleanup.i675:                                   ; preds = %invoke.cont.i673
  %46 = landingpad { ptr, i32 }
          cleanup
  call void @_ZNSt7__cxx1112basic_stringIcSt11char_traitsIcESaIcEED1Ev(ptr noundef nonnull align 8 dereferenceable(32) %ref.tmp.i657) #15
  call void @_ZNSaIcED1Ev(ptr noundef nonnull align 1 dereferenceable(1) %ref.tmp18.i658) #15
  br label %ehcleanup261

cleanup.action.i670:                              ; preds = %if.then17.i668
  %47 = landingpad { ptr, i32 }
          cleanup
  call void @_ZNSaIcED1Ev(ptr noundef nonnull align 1 dereferenceable(1) %ref.tmp18.i658) #15
  call void @__cxa_free_exception(ptr %exception.i669) #15
  br label %ehcleanup261

if.end.i681:                                      ; preds = %lor.lhs.false.i677
  %conv24.i682 = zext i32 %add13.i666 to i64
  %call25.i690 = invoke noalias noundef ptr @_ZN6memory10reallocateEPvm(ptr noundef nonnull %arrayidx.i661, i64 noundef %conv24.i682)
          to label %call25.i.noexc689 unwind label %lpad7.loopexit.split-lp.loopexit.split-lp.loopexit.split-lp.loopexit

call25.i.noexc689:                                ; preds = %if.end.i681
  %add.ptr26.i683 = getelementptr inbounds i32, ptr %call25.i690, i64 2
  store ptr %add.ptr26.i683, ptr %m_nodes.i.i, align 8
  store i32 %shr.i664, ptr %call25.i690, align 4
  br label %.noexc123

unreachable.i676:                                 ; preds = %invoke.cont.i673
  unreachable

.noexc123:                                        ; preds = %call25.i.noexc689, %call.i.noexc687
  %.pr.pre.i.i.i120 = phi ptr [ %add.ptr26.i683, %call25.i.noexc689 ], [ %incdec.ptr2.i686, %call.i.noexc687 ]
  call void @llvm.lifetime.end.p0(i64 32, ptr nonnull %ref.tmp.i657)
  call void @llvm.lifetime.end.p0(i64 1, ptr nonnull %ref.tmp18.i658)
  br label %while.cond.i.i.i104, !llvm.loop !11

while.end.i.i.i112:                               ; preds = %_ZNK6vectorIP4exprLb0EjE8capacityEv.exit.i.i.i109.thread
  %arrayidx.i2.i.i113 = getelementptr inbounds i32, ptr %43, i64 -1
  store i32 %add.i80, ptr %arrayidx.i2.i.i113, align 4
  %cmp8.not17.i.i.i114 = icmp eq i32 %retval.0.i16.i.i.i105.ph, %add.i80
  br i1 %cmp8.not17.i.i.i114, label %_ZN15ref_vector_coreI4expr19ref_manager_wrapperIS0_11ast_managerEE7reserveEj.exit.i86, label %for.body.preheader.i.i.i115

for.body.preheader.i.i.i115:                      ; preds = %while.end.i.i.i112
  %idx.ext6.i.i.i116 = zext i32 %add.i80 to i64
  %48 = load ptr, ptr %m_nodes.i.i, align 8
  %idx.ext.i.i.i117 = zext i32 %retval.0.i16.i.i.i105.ph to i64
  %add.ptr.i.i.i118 = getelementptr ptr, ptr %48, i64 %idx.ext.i.i.i117
  %49 = sub nsw i64 %idx.ext6.i.i.i116, %idx.ext.i.i.i117
  %50 = shl nsw i64 %49, 3
  call void @llvm.memset.p0.i64(ptr align 8 %add.ptr.i.i.i118, i8 0, i64 %50, i1 false)
  br label %_ZN15ref_vector_coreI4expr19ref_manager_wrapperIS0_11ast_managerEE7reserveEj.exit.i86

_ZN15ref_vector_coreI4expr19ref_manager_wrapperIS0_11ast_managerEE7reserveEj.exit.i86: ; preds = %for.body.preheader.i.i.i115, %while.end.i.i.i112
  %tobool.not.i.i.i.i.i87 = icmp eq ptr %9, null
  br i1 %tobool.not.i.i.i.i.i87, label %_ZN15ref_vector_coreI4expr19ref_manager_wrapperIS0_11ast_managerEE7inc_refEPS0_.exit.i.i91, label %if.then.i.i.i.i.i88

if.then.i.i.i.i.i88:                              ; preds = %_ZNK6vectorIP4exprLb0EjE4sizeEv.exit.i.i121, %_ZNK6vectorIP4exprLb0EjE4sizeEv.exit.thread.i.i83, %_ZN15ref_vector_coreI4expr19ref_manager_wrapperIS0_11ast_managerEE7reserveEj.exit.i86
  %m_ref_count.i.i.i.i.i.i89 = getelementptr inbounds %class.ast, ptr %9, i64 0, i32 2
  %51 = load i32, ptr %m_ref_count.i.i.i.i.i.i89, align 4
  %inc.i.i.i.i.i.i90 = add i32 %51, 1
  store i32 %inc.i.i.i.i.i.i90, ptr %m_ref_count.i.i.i.i.i.i89, align 4
  br label %_ZN15ref_vector_coreI4expr19ref_manager_wrapperIS0_11ast_managerEE7inc_refEPS0_.exit.i.i91

_ZN15ref_vector_coreI4expr19ref_manager_wrapperIS0_11ast_managerEE7inc_refEPS0_.exit.i.i91: ; preds = %if.then.i.i.i.i.i88, %_ZN15ref_vector_coreI4expr19ref_manager_wrapperIS0_11ast_managerEE7reserveEj.exit.i86
  %52 = load ptr, ptr %m_nodes.i.i, align 8
  %idxprom.i.i.i92 = zext i32 %16 to i64
  %arrayidx.i.i3.i93 = getelementptr inbounds ptr, ptr %52, i64 %idxprom.i.i.i92
  %53 = load ptr, ptr %arrayidx.i.i3.i93, align 8
  %54 = load ptr, ptr %result, align 8
  %tobool.not.i.i.i3.i.i94 = icmp eq ptr %53, null
  br i1 %tobool.not.i.i.i3.i.i94, label %_ZN10ref_vectorI4expr11ast_managerE4setxEjPS0_.exit125, label %if.then.i.i.i4.i.i95

if.then.i.i.i4.i.i95:                             ; preds = %_ZN15ref_vector_coreI4expr19ref_manager_wrapperIS0_11ast_managerEE7inc_refEPS0_.exit.i.i91
  %m_ref_count.i.i.i.i5.i.i96 = getelementptr inbounds %class.ast, ptr %53, i64 0, i32 2
  %55 = load i32, ptr %m_ref_count.i.i.i.i5.i.i96, align 4
  %dec.i.i.i.i.i.i97 = add i32 %55, -1
  store i32 %dec.i.i.i.i.i.i97, ptr %m_ref_count.i.i.i.i5.i.i96, align 4
  %cmp.i.i.i.i.i98 = icmp eq i32 %dec.i.i.i.i.i.i97, 0
  br i1 %cmp.i.i.i.i.i98, label %if.then2.i.i.i.i.i100, label %_ZN10ref_vectorI4expr11ast_managerE4setxEjPS0_.exit125

if.then2.i.i.i.i.i100:                            ; preds = %if.then.i.i.i4.i.i95
  invoke void @_ZN11ast_manager11delete_nodeEP3ast(ptr noundef nonnull align 8 dereferenceable(976) %54, ptr noundef nonnull %53)
          to label %_ZN10ref_vectorI4expr11ast_managerE4setxEjPS0_.exit125 unwind label %lpad7.loopexit.split-lp.loopexit.split-lp.loopexit.split-lp.loopexit.split-lp.loopexit.split-lp

_ZN10ref_vectorI4expr11ast_managerE4setxEjPS0_.exit125: ; preds = %if.then2.i.i.i.i.i100, %_ZN15ref_vector_coreI4expr19ref_manager_wrapperIS0_11ast_managerEE7inc_refEPS0_.exit.i.i91, %if.then.i.i.i4.i.i95
  %56 = load ptr, ptr %m_nodes.i.i, align 8
  %arrayidx.i7.i.i99 = getelementptr inbounds ptr, ptr %56, i64 %idxprom.i.i.i92
  store ptr %9, ptr %arrayidx.i7.i.i99, align 8
  br label %if.end43

if.end43:                                         ; preds = %if.then2.i.i.i, %if.then.i.i.i, %invoke.cont39, %_ZN10ref_vectorI4expr11ast_managerE4setxEjPS0_.exit125
  %57 = load ptr, ptr %todo, align 8
  %arrayidx.i126 = getelementptr inbounds i32, ptr %57, i64 -1
  %58 = load i32, ptr %arrayidx.i126, align 4
  %dec.i127 = add i32 %58, -1
  store i32 %dec.i127, ptr %arrayidx.i126, align 4
  br label %while.cond.backedge

if.then48:                                        ; preds = %if.end
  %m_expr.i = getelementptr inbounds %class.quantifier, ptr %9, i64 0, i32 3
  %59 = load ptr, ptr %m_expr.i, align 8
  br i1 %cmp.i.i.i, label %lor.lhs.false.i143, label %_ZNK15ref_vector_coreI4expr19ref_manager_wrapperIS0_11ast_managerEE4sizeEv.exit.i133

_ZNK15ref_vector_coreI4expr19ref_manager_wrapperIS0_11ast_managerEE4sizeEv.exit.i133: ; preds = %if.then48
  %arrayidx.i.i.i134 = getelementptr inbounds i32, ptr %in_cache.val.val, i64 -1
  %60 = load i32, ptr %arrayidx.i.i.i134, align 4
  %61 = load i32, ptr %59, align 4
  %cmp.i135 = icmp ugt i32 %60, %61
  br i1 %cmp.i135, label %invoke.cont53, label %lor.lhs.false.i143

invoke.cont53:                                    ; preds = %_ZNK15ref_vector_coreI4expr19ref_manager_wrapperIS0_11ast_managerEE4sizeEv.exit.i133
  %idxprom.i.i.i137 = zext i32 %61 to i64
  %arrayidx.i.i3.i138 = getelementptr inbounds ptr, ptr %in_cache.val.val, i64 %idxprom.i.i.i137
  %62 = load ptr, ptr %arrayidx.i.i3.i138, align 8
  %tobool.i139.not = icmp eq ptr %62, null
  br i1 %tobool.i139.not, label %lor.lhs.false.i143, label %if.end61

lor.lhs.false.i143:                               ; preds = %if.then48, %_ZNK15ref_vector_coreI4expr19ref_manager_wrapperIS0_11ast_managerEE4sizeEv.exit.i133, %invoke.cont53
  %arrayidx4.i145 = getelementptr inbounds i32, ptr %5, i64 -2
  %63 = load i32, ptr %arrayidx4.i145, align 4
  %cmp5.i146 = icmp eq i32 %6, %63
  br i1 %cmp5.i146, label %if.then.i151, label %_ZN6vectorIP4exprLb0EjE9push_backEOS1_.exit

if.then.i151:                                     ; preds = %lor.lhs.false.i143
  invoke void @_ZN6vectorIP4exprLb0EjE13expand_vectorEv(ptr noundef nonnull align 8 dereferenceable(8) %todo)
          to label %.noexc155 unwind label %lpad7.loopexit.split-lp.loopexit.split-lp.loopexit.split-lp.loopexit.split-lp.loopexit.split-lp

.noexc155:                                        ; preds = %if.then.i151
  %.pre.i152 = load ptr, ptr %todo, align 8
  %arrayidx8.phi.trans.insert.i153 = getelementptr inbounds i32, ptr %.pre.i152, i64 -1
  %.pre1.i154 = load i32, ptr %arrayidx8.phi.trans.insert.i153, align 4
  br label %_ZN6vectorIP4exprLb0EjE9push_backEOS1_.exit

_ZN6vectorIP4exprLb0EjE9push_backEOS1_.exit:      ; preds = %lor.lhs.false.i143, %.noexc155
  %64 = phi i32 [ %.pre1.i154, %.noexc155 ], [ %6, %lor.lhs.false.i143 ]
  %65 = phi ptr [ %.pre.i152, %.noexc155 ], [ %5, %lor.lhs.false.i143 ]
  %idx.ext.i147 = zext i32 %64 to i64
  %add.ptr.i148 = getelementptr inbounds ptr, ptr %65, i64 %idx.ext.i147
  store ptr %59, ptr %add.ptr.i148, align 8
  %66 = load ptr, ptr %todo, align 8
  %arrayidx10.i149 = getelementptr inbounds i32, ptr %66, i64 -1
  %67 = load i32, ptr %arrayidx10.i149, align 4
  %inc.i150 = add i32 %67, 1
  store i32 %inc.i150, ptr %arrayidx10.i149, align 4
  br label %if.end61

if.end61:                                         ; preds = %_ZN6vectorIP4exprLb0EjE9push_backEOS1_.exit, %invoke.cont53
  %pending.0 = phi i8 [ 0, %invoke.cont53 ], [ 1, %_ZN6vectorIP4exprLb0EjE9push_backEOS1_.exit ]
  store ptr %m_initial_buffer.i.i156, ptr %patterns, align 8
  store i32 0, ptr %m_pos.i.i157, align 8
  store i32 16, ptr %m_capacity.i.i158, align 4
  store ptr %m_initial_buffer.i.i159, ptr %no_patterns, align 8
  store i32 0, ptr %m_pos.i.i160, align 8
  store i32 16, ptr %m_capacity.i.i161, align 4
  %m_num_patterns.i = getelementptr inbounds %class.quantifier, ptr %9, i64 0, i32 11
  %68 = load i32, ptr %m_num_patterns.i, align 8
  %cmp723.not = icmp eq i32 %68, 0
  br i1 %cmp723.not, label %for.end, label %invoke.cont65.lr.ph

invoke.cont65.lr.ph:                              ; preds = %if.end61
  %m_patterns_decls.i.i.i.i = getelementptr inbounds %class.quantifier, ptr %9, i64 0, i32 13
  %m_num_decls.i.i.i = getelementptr inbounds %class.quantifier, ptr %9, i64 0, i32 2
  %wide.trip.count = zext i32 %68 to i64
  br label %invoke.cont65

invoke.cont65:                                    ; preds = %invoke.cont65.lr.ph, %for.inc
  %indvars.iv736 = phi i64 [ 0, %invoke.cont65.lr.ph ], [ %indvars.iv.next737, %for.inc ]
  %pending.1725 = phi i8 [ %pending.0, %invoke.cont65.lr.ph ], [ %pending.2, %for.inc ]
  %69 = load i32, ptr %m_num_decls.i.i.i, align 4
  %idx.ext.i.i.i162 = zext i32 %69 to i64
  %add.ptr.i.i.i163 = getelementptr inbounds ptr, ptr %m_patterns_decls.i.i.i.i, i64 %idx.ext.i.i.i162
  %add.ptr.i.i = getelementptr inbounds %class.symbol, ptr %add.ptr.i.i.i163, i64 %idx.ext.i.i.i162
  %arrayidx.i164 = getelementptr inbounds ptr, ptr %add.ptr.i.i, i64 %indvars.iv736
  %70 = load ptr, ptr %arrayidx.i164, align 8
  %in_cache.val64.val = load ptr, ptr %m_nodes.i.i, align 8
  %cmp.i.i.i165 = icmp eq ptr %in_cache.val64.val, null
  br i1 %cmp.i.i.i165, label %invoke.cont71, label %_ZNK15ref_vector_coreI4expr19ref_manager_wrapperIS0_11ast_managerEE4sizeEv.exit.i166

_ZNK15ref_vector_coreI4expr19ref_manager_wrapperIS0_11ast_managerEE4sizeEv.exit.i166: ; preds = %invoke.cont65
  %arrayidx.i.i.i167 = getelementptr inbounds i32, ptr %in_cache.val64.val, i64 -1
  %71 = load i32, ptr %arrayidx.i.i.i167, align 4
  %72 = load i32, ptr %70, align 4
  %cmp.i168 = icmp ugt i32 %71, %72
  br i1 %cmp.i168, label %invoke.cont67, label %invoke.cont71

invoke.cont67:                                    ; preds = %_ZNK15ref_vector_coreI4expr19ref_manager_wrapperIS0_11ast_managerEE4sizeEv.exit.i166
  %idxprom.i.i.i170 = zext i32 %72 to i64
  %arrayidx.i.i3.i171 = getelementptr inbounds ptr, ptr %in_cache.val64.val, i64 %idxprom.i.i.i170
  %73 = load ptr, ptr %arrayidx.i.i3.i171, align 8
  %tobool.i172.not = icmp eq ptr %73, null
  br i1 %tobool.i172.not, label %invoke.cont71, label %invoke.cont81

invoke.cont71:                                    ; preds = %invoke.cont65, %_ZNK15ref_vector_coreI4expr19ref_manager_wrapperIS0_11ast_managerEE4sizeEv.exit.i166, %invoke.cont67
  %74 = load ptr, ptr %todo, align 8
  %cmp.i181 = icmp eq ptr %74, null
  br i1 %cmp.i181, label %if.then.i190, label %lor.lhs.false.i182

lor.lhs.false.i182:                               ; preds = %invoke.cont71
  %arrayidx.i183 = getelementptr inbounds i32, ptr %74, i64 -1
  %75 = load i32, ptr %arrayidx.i183, align 4
  %arrayidx4.i184 = getelementptr inbounds i32, ptr %74, i64 -2
  %76 = load i32, ptr %arrayidx4.i184, align 4
  %cmp5.i185 = icmp eq i32 %75, %76
  br i1 %cmp5.i185, label %if.then.i190, label %_ZN6vectorIP4exprLb0EjE9push_backEOS1_.exit195

if.then.i190:                                     ; preds = %lor.lhs.false.i182, %invoke.cont71
  invoke void @_ZN6vectorIP4exprLb0EjE13expand_vectorEv(ptr noundef nonnull align 8 dereferenceable(8) %todo)
          to label %.noexc194 unwind label %lpad62.loopexit.split-lp.loopexit.split-lp.loopexit.split-lp.loopexit

.noexc194:                                        ; preds = %if.then.i190
  %.pre.i191 = load ptr, ptr %todo, align 8
  %arrayidx8.phi.trans.insert.i192 = getelementptr inbounds i32, ptr %.pre.i191, i64 -1
  %.pre1.i193 = load i32, ptr %arrayidx8.phi.trans.insert.i192, align 4
  br label %_ZN6vectorIP4exprLb0EjE9push_backEOS1_.exit195

_ZN6vectorIP4exprLb0EjE9push_backEOS1_.exit195:   ; preds = %lor.lhs.false.i182, %.noexc194
  %77 = phi i32 [ %.pre1.i193, %.noexc194 ], [ %75, %lor.lhs.false.i182 ]
  %78 = phi ptr [ %.pre.i191, %.noexc194 ], [ %74, %lor.lhs.false.i182 ]
  %idx.ext.i186 = zext i32 %77 to i64
  %add.ptr.i187 = getelementptr inbounds ptr, ptr %78, i64 %idx.ext.i186
  store ptr %70, ptr %add.ptr.i187, align 8
  %79 = load ptr, ptr %todo, align 8
  %arrayidx10.i188 = getelementptr inbounds i32, ptr %79, i64 -1
  %80 = load i32, ptr %arrayidx10.i188, align 4
  %inc.i189 = add i32 %80, 1
  store i32 %inc.i189, ptr %arrayidx10.i188, align 4
  br label %for.inc

lpad62.loopexit:                                  ; preds = %invoke.cont125
  %lpad.loopexit = landingpad { ptr, i32 }
          cleanup
  br label %ehcleanup

lpad62.loopexit.split-lp.loopexit:                ; preds = %if.then2.i.i.i.i.i306
  %lpad.loopexit698 = landingpad { ptr, i32 }
          cleanup
  br label %ehcleanup

lpad62.loopexit.split-lp.loopexit.split-lp.loopexit: ; preds = %if.then.i245, %if.then.i264, %if.end.i.i.i.i283
  %lpad.loopexit701 = landingpad { ptr, i32 }
          cleanup
  br label %ehcleanup

lpad62.loopexit.split-lp.loopexit.split-lp.loopexit.split-lp.loopexit: ; preds = %if.end.i.i.i.i, %if.then.i204, %if.then.i190
  %lpad.loopexit703 = landingpad { ptr, i32 }
          cleanup
  br label %ehcleanup

lpad62.loopexit.split-lp.loopexit.split-lp.loopexit.split-lp.loopexit.split-lp.loopexit: ; preds = %while.body.i.i.i381
  %lpad.loopexit762 = landingpad { ptr, i32 }
          cleanup
  br label %ehcleanup

lpad62.loopexit.split-lp.loopexit.split-lp.loopexit.split-lp.loopexit.split-lp.loopexit.split-lp: ; preds = %invoke.cont146, %if.then2.i.i.i.i.i362
  %lpad.loopexit.split-lp = landingpad { ptr, i32 }
          cleanup
  br label %ehcleanup

invoke.cont81:                                    ; preds = %invoke.cont67
  %81 = load i32, ptr %m_pos.i.i157, align 8
  %82 = load i32, ptr %m_capacity.i.i158, align 4
  %cmp.not.i = icmp ult i32 %81, %82
  br i1 %cmp.not.i, label %entry.if.end_crit_edge.i, label %if.then.i204

entry.if.end_crit_edge.i:                         ; preds = %invoke.cont81
  %.pre.i210 = load ptr, ptr %patterns, align 8
  br label %_ZN6bufferIP4exprLb0ELj16EE9push_backEOS1_.exit

if.then.i204:                                     ; preds = %invoke.cont81
  %shl.i.i = shl i32 %82, 1
  %conv.i.i = zext i32 %shl.i.i to i64
  %mul.i.i = shl nuw nsw i64 %conv.i.i, 3
  %call.i.i211 = invoke noalias noundef ptr @_ZN6memory8allocateEm(i64 noundef %mul.i.i)
          to label %call.i.i.noexc unwind label %lpad62.loopexit.split-lp.loopexit.split-lp.loopexit.split-lp.loopexit

call.i.i.noexc:                                   ; preds = %if.then.i204
  %83 = load i32, ptr %m_pos.i.i157, align 8
  %cmp6.not.i.i = icmp eq i32 %83, 0
  %.pre.i.i = load ptr, ptr %patterns, align 8
  br i1 %cmp6.not.i.i, label %for.end.i.i, label %for.body.lr.ph.i.i

for.body.lr.ph.i.i:                               ; preds = %call.i.i.noexc
  %wide.trip.count.i.i = zext i32 %83 to i64
  br label %for.body.i.i

for.body.i.i:                                     ; preds = %for.body.i.i, %for.body.lr.ph.i.i
  %indvars.iv.i.i = phi i64 [ 0, %for.body.lr.ph.i.i ], [ %indvars.iv.next.i.i, %for.body.i.i ]
  %arrayidx.i.i205 = getelementptr inbounds ptr, ptr %call.i.i211, i64 %indvars.iv.i.i
  %arrayidx3.i.i = getelementptr inbounds ptr, ptr %.pre.i.i, i64 %indvars.iv.i.i
  %84 = load ptr, ptr %arrayidx3.i.i, align 8
  store ptr %84, ptr %arrayidx.i.i205, align 8
  %indvars.iv.next.i.i = add nuw nsw i64 %indvars.iv.i.i, 1
  %exitcond.not.i.i = icmp eq i64 %indvars.iv.next.i.i, %wide.trip.count.i.i
  br i1 %exitcond.not.i.i, label %for.end.i.i, label %for.body.i.i, !llvm.loop !12

for.end.i.i:                                      ; preds = %for.body.i.i, %call.i.i.noexc
  %cmp.not.i.i.i = icmp eq ptr %.pre.i.i, %m_initial_buffer.i.i156
  %cmp.i.i.i.i = icmp eq ptr %.pre.i.i, null
  %or.cond.i.i.i = or i1 %cmp.not.i.i.i, %cmp.i.i.i.i
  br i1 %or.cond.i.i.i, label %_ZN6bufferIP4exprLb0ELj16EE6expandEv.exit.i, label %if.end.i.i.i.i

if.end.i.i.i.i:                                   ; preds = %for.end.i.i
  invoke void @_ZN6memory10deallocateEPv(ptr noundef nonnull %.pre.i.i)
          to label %.noexc212 unwind label %lpad62.loopexit.split-lp.loopexit.split-lp.loopexit.split-lp.loopexit

.noexc212:                                        ; preds = %if.end.i.i.i.i
  %.pre1.pre.i = load i32, ptr %m_pos.i.i157, align 8
  br label %_ZN6bufferIP4exprLb0ELj16EE6expandEv.exit.i

_ZN6bufferIP4exprLb0ELj16EE6expandEv.exit.i:      ; preds = %.noexc212, %for.end.i.i
  %.pre1.i206 = phi i32 [ %83, %for.end.i.i ], [ %.pre1.pre.i, %.noexc212 ]
  store ptr %call.i.i211, ptr %patterns, align 8
  store i32 %shl.i.i, ptr %m_capacity.i.i158, align 4
  br label %_ZN6bufferIP4exprLb0ELj16EE9push_backEOS1_.exit

_ZN6bufferIP4exprLb0ELj16EE9push_backEOS1_.exit:  ; preds = %entry.if.end_crit_edge.i, %_ZN6bufferIP4exprLb0ELj16EE6expandEv.exit.i
  %85 = phi i32 [ %81, %entry.if.end_crit_edge.i ], [ %.pre1.i206, %_ZN6bufferIP4exprLb0ELj16EE6expandEv.exit.i ]
  %86 = phi ptr [ %.pre.i210, %entry.if.end_crit_edge.i ], [ %call.i.i211, %_ZN6bufferIP4exprLb0ELj16EE6expandEv.exit.i ]
  %idx.ext.i207 = zext i32 %85 to i64
  %add.ptr.i208 = getelementptr inbounds ptr, ptr %86, i64 %idx.ext.i207
  store ptr %73, ptr %add.ptr.i208, align 8
  %87 = load i32, ptr %m_pos.i.i157, align 8
  %inc.i209 = add i32 %87, 1
  store i32 %inc.i209, ptr %m_pos.i.i157, align 8
  br label %for.inc

for.inc:                                          ; preds = %_ZN6bufferIP4exprLb0ELj16EE9push_backEOS1_.exit, %_ZN6vectorIP4exprLb0EjE9push_backEOS1_.exit195
  %pending.2 = phi i8 [ %pending.1725, %_ZN6bufferIP4exprLb0ELj16EE9push_backEOS1_.exit ], [ 1, %_ZN6vectorIP4exprLb0EjE9push_backEOS1_.exit195 ]
  %indvars.iv.next737 = add nuw nsw i64 %indvars.iv736, 1
  %exitcond.not = icmp eq i64 %indvars.iv.next737, %wide.trip.count
  br i1 %exitcond.not, label %for.end, label %invoke.cont65, !llvm.loop !13

for.end:                                          ; preds = %for.inc, %if.end61
  %pending.1.lcssa = phi i8 [ %pending.0, %if.end61 ], [ %pending.2, %for.inc ]
  %m_num_no_patterns.i = getelementptr inbounds %class.quantifier, ptr %9, i64 0, i32 12
  %88 = load i32, ptr %m_num_no_patterns.i, align 4
  %cmp89726.not = icmp eq i32 %88, 0
  br i1 %cmp89726.not, label %for.end113, label %invoke.cont91.lr.ph

invoke.cont91.lr.ph:                              ; preds = %for.end
  %m_patterns_decls.i.i.i.i213 = getelementptr inbounds %class.quantifier, ptr %9, i64 0, i32 13
  %m_num_decls.i.i.i214 = getelementptr inbounds %class.quantifier, ptr %9, i64 0, i32 2
  %wide.trip.count740 = zext i32 %88 to i64
  br label %invoke.cont91

invoke.cont91:                                    ; preds = %invoke.cont91.lr.ph, %for.inc111
  %indvars.iv738 = phi i64 [ 0, %invoke.cont91.lr.ph ], [ %indvars.iv.next739, %for.inc111 ]
  %pending.3728 = phi i8 [ %pending.1.lcssa, %invoke.cont91.lr.ph ], [ %pending.4, %for.inc111 ]
  %89 = load i32, ptr %m_num_decls.i.i.i214, align 4
  %idx.ext.i.i.i215 = zext i32 %89 to i64
  %add.ptr.i.i.i216 = getelementptr inbounds ptr, ptr %m_patterns_decls.i.i.i.i213, i64 %idx.ext.i.i.i215
  %add.ptr.i.i217 = getelementptr inbounds %class.symbol, ptr %add.ptr.i.i.i216, i64 %idx.ext.i.i.i215
  %arrayidx.i219 = getelementptr inbounds ptr, ptr %add.ptr.i.i217, i64 %indvars.iv738
  %90 = load ptr, ptr %arrayidx.i219, align 8
  %in_cache.val65.val = load ptr, ptr %m_nodes.i.i, align 8
  %cmp.i.i.i220 = icmp eq ptr %in_cache.val65.val, null
  br i1 %cmp.i.i.i220, label %invoke.cont97, label %_ZNK15ref_vector_coreI4expr19ref_manager_wrapperIS0_11ast_managerEE4sizeEv.exit.i221

_ZNK15ref_vector_coreI4expr19ref_manager_wrapperIS0_11ast_managerEE4sizeEv.exit.i221: ; preds = %invoke.cont91
  %arrayidx.i.i.i222 = getelementptr inbounds i32, ptr %in_cache.val65.val, i64 -1
  %91 = load i32, ptr %arrayidx.i.i.i222, align 4
  %92 = load i32, ptr %90, align 4
  %cmp.i223 = icmp ugt i32 %91, %92
  br i1 %cmp.i223, label %invoke.cont93, label %invoke.cont97

invoke.cont93:                                    ; preds = %_ZNK15ref_vector_coreI4expr19ref_manager_wrapperIS0_11ast_managerEE4sizeEv.exit.i221
  %idxprom.i.i.i225 = zext i32 %92 to i64
  %arrayidx.i.i3.i226 = getelementptr inbounds ptr, ptr %in_cache.val65.val, i64 %idxprom.i.i.i225
  %93 = load ptr, ptr %arrayidx.i.i3.i226, align 8
  %tobool.i227.not = icmp eq ptr %93, null
  br i1 %tobool.i227.not, label %invoke.cont97, label %invoke.cont107

invoke.cont97:                                    ; preds = %invoke.cont91, %_ZNK15ref_vector_coreI4expr19ref_manager_wrapperIS0_11ast_managerEE4sizeEv.exit.i221, %invoke.cont93
  %94 = load ptr, ptr %todo, align 8
  %cmp.i236 = icmp eq ptr %94, null
  br i1 %cmp.i236, label %if.then.i245, label %lor.lhs.false.i237

lor.lhs.false.i237:                               ; preds = %invoke.cont97
  %arrayidx.i238 = getelementptr inbounds i32, ptr %94, i64 -1
  %95 = load i32, ptr %arrayidx.i238, align 4
  %arrayidx4.i239 = getelementptr inbounds i32, ptr %94, i64 -2
  %96 = load i32, ptr %arrayidx4.i239, align 4
  %cmp5.i240 = icmp eq i32 %95, %96
  br i1 %cmp5.i240, label %if.then.i245, label %_ZN6vectorIP4exprLb0EjE9push_backEOS1_.exit250

if.then.i245:                                     ; preds = %lor.lhs.false.i237, %invoke.cont97
  invoke void @_ZN6vectorIP4exprLb0EjE13expand_vectorEv(ptr noundef nonnull align 8 dereferenceable(8) %todo)
          to label %.noexc249 unwind label %lpad62.loopexit.split-lp.loopexit.split-lp.loopexit

.noexc249:                                        ; preds = %if.then.i245
  %.pre.i246 = load ptr, ptr %todo, align 8
  %arrayidx8.phi.trans.insert.i247 = getelementptr inbounds i32, ptr %.pre.i246, i64 -1
  %.pre1.i248 = load i32, ptr %arrayidx8.phi.trans.insert.i247, align 4
  br label %_ZN6vectorIP4exprLb0EjE9push_backEOS1_.exit250

_ZN6vectorIP4exprLb0EjE9push_backEOS1_.exit250:   ; preds = %lor.lhs.false.i237, %.noexc249
  %97 = phi i32 [ %.pre1.i248, %.noexc249 ], [ %95, %lor.lhs.false.i237 ]
  %98 = phi ptr [ %.pre.i246, %.noexc249 ], [ %94, %lor.lhs.false.i237 ]
  %idx.ext.i241 = zext i32 %97 to i64
  %add.ptr.i242 = getelementptr inbounds ptr, ptr %98, i64 %idx.ext.i241
  store ptr %90, ptr %add.ptr.i242, align 8
  %99 = load ptr, ptr %todo, align 8
  %arrayidx10.i243 = getelementptr inbounds i32, ptr %99, i64 -1
  %100 = load i32, ptr %arrayidx10.i243, align 4
  %inc.i244 = add i32 %100, 1
  store i32 %inc.i244, ptr %arrayidx10.i243, align 4
  br label %for.inc111

invoke.cont107:                                   ; preds = %invoke.cont93
  %101 = load i32, ptr %m_pos.i.i160, align 8
  %102 = load i32, ptr %m_capacity.i.i161, align 4
  %cmp.not.i263 = icmp ult i32 %101, %102
  br i1 %cmp.not.i263, label %entry.if.end_crit_edge.i290, label %if.then.i264

entry.if.end_crit_edge.i290:                      ; preds = %invoke.cont107
  %.pre.i291 = load ptr, ptr %no_patterns, align 8
  br label %_ZN6bufferIP4exprLb0ELj16EE9push_backEOS1_.exit295

if.then.i264:                                     ; preds = %invoke.cont107
  %shl.i.i265 = shl i32 %102, 1
  %conv.i.i266 = zext i32 %shl.i.i265 to i64
  %mul.i.i267 = shl nuw nsw i64 %conv.i.i266, 3
  %call.i.i293 = invoke noalias noundef ptr @_ZN6memory8allocateEm(i64 noundef %mul.i.i267)
          to label %call.i.i.noexc292 unwind label %lpad62.loopexit.split-lp.loopexit.split-lp.loopexit

call.i.i.noexc292:                                ; preds = %if.then.i264
  %103 = load i32, ptr %m_pos.i.i160, align 8
  %cmp6.not.i.i268 = icmp eq i32 %103, 0
  %.pre.i.i269 = load ptr, ptr %no_patterns, align 8
  br i1 %cmp6.not.i.i268, label %for.end.i.i278, label %for.body.lr.ph.i.i270

for.body.lr.ph.i.i270:                            ; preds = %call.i.i.noexc292
  %wide.trip.count.i.i271 = zext i32 %103 to i64
  br label %for.body.i.i272

for.body.i.i272:                                  ; preds = %for.body.i.i272, %for.body.lr.ph.i.i270
  %indvars.iv.i.i273 = phi i64 [ 0, %for.body.lr.ph.i.i270 ], [ %indvars.iv.next.i.i276, %for.body.i.i272 ]
  %arrayidx.i.i274 = getelementptr inbounds ptr, ptr %call.i.i293, i64 %indvars.iv.i.i273
  %arrayidx3.i.i275 = getelementptr inbounds ptr, ptr %.pre.i.i269, i64 %indvars.iv.i.i273
  %104 = load ptr, ptr %arrayidx3.i.i275, align 8
  store ptr %104, ptr %arrayidx.i.i274, align 8
  %indvars.iv.next.i.i276 = add nuw nsw i64 %indvars.iv.i.i273, 1
  %exitcond.not.i.i277 = icmp eq i64 %indvars.iv.next.i.i276, %wide.trip.count.i.i271
  br i1 %exitcond.not.i.i277, label %for.end.i.i278, label %for.body.i.i272, !llvm.loop !12

for.end.i.i278:                                   ; preds = %for.body.i.i272, %call.i.i.noexc292
  %cmp.not.i.i.i280 = icmp eq ptr %.pre.i.i269, %m_initial_buffer.i.i159
  %cmp.i.i.i.i281 = icmp eq ptr %.pre.i.i269, null
  %or.cond.i.i.i282 = or i1 %cmp.not.i.i.i280, %cmp.i.i.i.i281
  br i1 %or.cond.i.i.i282, label %_ZN6bufferIP4exprLb0ELj16EE6expandEv.exit.i285, label %if.end.i.i.i.i283

if.end.i.i.i.i283:                                ; preds = %for.end.i.i278
  invoke void @_ZN6memory10deallocateEPv(ptr noundef nonnull %.pre.i.i269)
          to label %.noexc294 unwind label %lpad62.loopexit.split-lp.loopexit.split-lp.loopexit

.noexc294:                                        ; preds = %if.end.i.i.i.i283
  %.pre1.pre.i284 = load i32, ptr %m_pos.i.i160, align 8
  br label %_ZN6bufferIP4exprLb0ELj16EE6expandEv.exit.i285

_ZN6bufferIP4exprLb0ELj16EE6expandEv.exit.i285:   ; preds = %.noexc294, %for.end.i.i278
  %.pre1.i286 = phi i32 [ %103, %for.end.i.i278 ], [ %.pre1.pre.i284, %.noexc294 ]
  store ptr %call.i.i293, ptr %no_patterns, align 8
  store i32 %shl.i.i265, ptr %m_capacity.i.i161, align 4
  br label %_ZN6bufferIP4exprLb0ELj16EE9push_backEOS1_.exit295

_ZN6bufferIP4exprLb0ELj16EE9push_backEOS1_.exit295: ; preds = %entry.if.end_crit_edge.i290, %_ZN6bufferIP4exprLb0ELj16EE6expandEv.exit.i285
  %105 = phi i32 [ %101, %entry.if.end_crit_edge.i290 ], [ %.pre1.i286, %_ZN6bufferIP4exprLb0ELj16EE6expandEv.exit.i285 ]
  %106 = phi ptr [ %.pre.i291, %entry.if.end_crit_edge.i290 ], [ %call.i.i293, %_ZN6bufferIP4exprLb0ELj16EE6expandEv.exit.i285 ]
  %idx.ext.i287 = zext i32 %105 to i64
  %add.ptr.i288 = getelementptr inbounds ptr, ptr %106, i64 %idx.ext.i287
  store ptr %93, ptr %add.ptr.i288, align 8
  %107 = load i32, ptr %m_pos.i.i160, align 8
  %inc.i289 = add i32 %107, 1
  store i32 %inc.i289, ptr %m_pos.i.i160, align 8
  br label %for.inc111

for.inc111:                                       ; preds = %_ZN6bufferIP4exprLb0ELj16EE9push_backEOS1_.exit295, %_ZN6vectorIP4exprLb0EjE9push_backEOS1_.exit250
  %pending.4 = phi i8 [ %pending.3728, %_ZN6bufferIP4exprLb0ELj16EE9push_backEOS1_.exit295 ], [ 1, %_ZN6vectorIP4exprLb0EjE9push_backEOS1_.exit250 ]
  %indvars.iv.next739 = add nuw nsw i64 %indvars.iv738, 1
  %exitcond741.not = icmp eq i64 %indvars.iv.next739, %wide.trip.count740
  br i1 %exitcond741.not, label %for.end113, label %invoke.cont91, !llvm.loop !14

for.end113:                                       ; preds = %for.inc111, %for.end
  %pending.3.lcssa = phi i8 [ %pending.1.lcssa, %for.end ], [ %pending.4, %for.inc111 ]
  %108 = and i8 %pending.3.lcssa, 1
  %tobool.not = icmp eq i8 %108, 0
  br i1 %tobool.not, label %if.end115, label %cleanup, !llvm.loop !10

if.end115:                                        ; preds = %for.end113
  %109 = load ptr, ptr %todo, align 8
  %arrayidx.i296 = getelementptr inbounds i32, ptr %109, i64 -1
  %110 = load i32, ptr %arrayidx.i296, align 4
  %dec.i297 = add i32 %110, -1
  store i32 %dec.i297, ptr %arrayidx.i296, align 4
  %111 = load ptr, ptr %m_buffer.i.i, align 8
  %112 = load i32, ptr %m_pos.i.i.i.i, align 8
  %idx.ext.i.i = zext i32 %112 to i64
  %add.ptr.i.i298 = getelementptr inbounds ptr, ptr %111, i64 %idx.ext.i.i
  %cmp3.i.not.i = icmp eq i32 %112, 0
  br i1 %cmp3.i.not.i, label %_ZN15ref_buffer_coreI4sort19ref_manager_wrapperIS0_11ast_managerELj16EE5resetEv.exit, label %for.body.i.i299

for.body.i.i299:                                  ; preds = %if.end115, %_ZN15ref_buffer_coreI4sort19ref_manager_wrapperIS0_11ast_managerELj16EE7dec_refEPS0_.exit.i.i
  %it.04.i.i = phi ptr [ %incdec.ptr.i.i, %_ZN15ref_buffer_coreI4sort19ref_manager_wrapperIS0_11ast_managerELj16EE7dec_refEPS0_.exit.i.i ], [ %111, %if.end115 ]
  %113 = load ptr, ptr %it.04.i.i, align 8
  %114 = load ptr, ptr %domain, align 8
  %tobool.not.i.i.i.i.i300 = icmp eq ptr %113, null
  br i1 %tobool.not.i.i.i.i.i300, label %_ZN15ref_buffer_coreI4sort19ref_manager_wrapperIS0_11ast_managerELj16EE7dec_refEPS0_.exit.i.i, label %if.then.i.i.i.i.i301

if.then.i.i.i.i.i301:                             ; preds = %for.body.i.i299
  %m_ref_count.i.i.i.i.i.i302 = getelementptr inbounds %class.ast, ptr %113, i64 0, i32 2
  %115 = load i32, ptr %m_ref_count.i.i.i.i.i.i302, align 4
  %dec.i.i.i.i.i.i303 = add i32 %115, -1
  store i32 %dec.i.i.i.i.i.i303, ptr %m_ref_count.i.i.i.i.i.i302, align 4
  %cmp.i.i.i.i.i304 = icmp eq i32 %dec.i.i.i.i.i.i303, 0
  br i1 %cmp.i.i.i.i.i304, label %if.then2.i.i.i.i.i306, label %_ZN15ref_buffer_coreI4sort19ref_manager_wrapperIS0_11ast_managerELj16EE7dec_refEPS0_.exit.i.i

if.then2.i.i.i.i.i306:                            ; preds = %if.then.i.i.i.i.i301
  invoke void @_ZN11ast_manager11delete_nodeEP3ast(ptr noundef nonnull align 8 dereferenceable(976) %114, ptr noundef nonnull %113)
          to label %_ZN15ref_buffer_coreI4sort19ref_manager_wrapperIS0_11ast_managerELj16EE7dec_refEPS0_.exit.i.i unwind label %lpad62.loopexit.split-lp.loopexit

_ZN15ref_buffer_coreI4sort19ref_manager_wrapperIS0_11ast_managerELj16EE7dec_refEPS0_.exit.i.i: ; preds = %if.then2.i.i.i.i.i306, %if.then.i.i.i.i.i301, %for.body.i.i299
  %incdec.ptr.i.i = getelementptr inbounds ptr, ptr %it.04.i.i, i64 1
  %cmp.i.i305 = icmp ult ptr %incdec.ptr.i.i, %add.ptr.i.i298
  br i1 %cmp.i.i305, label %for.body.i.i299, label %_ZN15ref_buffer_coreI4sort19ref_manager_wrapperIS0_11ast_managerELj16EE5resetEv.exit, !llvm.loop !15

_ZN15ref_buffer_coreI4sort19ref_manager_wrapperIS0_11ast_managerELj16EE5resetEv.exit: ; preds = %_ZN15ref_buffer_coreI4sort19ref_manager_wrapperIS0_11ast_managerELj16EE7dec_refEPS0_.exit.i.i, %if.end115
  store i32 0, ptr %m_pos.i.i.i.i, align 8
  %m_num_decls.i = getelementptr inbounds %class.quantifier, ptr %9, i64 0, i32 2
  %116 = load i32, ptr %m_num_decls.i, align 4
  %cmp122730.not = icmp eq i32 %116, 0
  br i1 %cmp122730.not, label %invoke.cont146, label %invoke.cont125.lr.ph

invoke.cont125.lr.ph:                             ; preds = %_ZN15ref_buffer_coreI4sort19ref_manager_wrapperIS0_11ast_managerELj16EE5resetEv.exit
  %m_patterns_decls.i.i = getelementptr inbounds %class.quantifier, ptr %9, i64 0, i32 13
  br label %invoke.cont125

invoke.cont125:                                   ; preds = %invoke.cont125.lr.ph, %_ZN7obj_refI4sort11ast_managerED2Ev.exit329
  %indvars.iv742 = phi i64 [ 0, %invoke.cont125.lr.ph ], [ %indvars.iv.next743, %_ZN7obj_refI4sort11ast_managerED2Ev.exit329 ]
  %arrayidx.i309 = getelementptr inbounds ptr, ptr %m_patterns_decls.i.i, i64 %indvars.iv742
  %117 = load ptr, ptr %arrayidx.i309, align 8
  invoke void @_ZN12polymorphism12substitutionclEP4sort(ptr nonnull sret(%class.obj_ref) align 8 %ref.tmp124, ptr noundef nonnull align 8 dereferenceable(48) %this, ptr noundef %117)
          to label %invoke.cont127 unwind label %lpad62.loopexit

invoke.cont127:                                   ; preds = %invoke.cont125
  %118 = load ptr, ptr %ref.tmp124, align 8
  %119 = load i32, ptr %m_pos.i.i.i.i, align 8
  %120 = load i32, ptr %m_capacity.i.i.i.i, align 4
  %cmp.not.i.i = icmp ult i32 %119, %120
  br i1 %cmp.not.i.i, label %entry.if.end_crit_edge.i.i, label %if.then.i.i

entry.if.end_crit_edge.i.i:                       ; preds = %invoke.cont127
  %.pre.i.i318 = load ptr, ptr %m_buffer.i.i, align 8
  br label %_ZN7obj_refI4sort11ast_managerED2Ev.exit329

if.then.i.i:                                      ; preds = %invoke.cont127
  %shl.i.i.i = shl i32 %120, 1
  %conv.i.i.i = zext i32 %shl.i.i.i to i64
  %mul.i.i.i = shl nuw nsw i64 %conv.i.i.i, 3
  %call.i.i.i319 = invoke noalias noundef ptr @_ZN6memory8allocateEm(i64 noundef %mul.i.i.i)
          to label %call.i.i.i.noexc unwind label %lpad128

call.i.i.i.noexc:                                 ; preds = %if.then.i.i
  %121 = load i32, ptr %m_pos.i.i.i.i, align 8
  %cmp6.not.i.i.i = icmp eq i32 %121, 0
  %.pre.i.i.i = load ptr, ptr %m_buffer.i.i, align 8
  br i1 %cmp6.not.i.i.i, label %for.end.i.i.i, label %for.body.lr.ph.i.i.i

for.body.lr.ph.i.i.i:                             ; preds = %call.i.i.i.noexc
  %wide.trip.count.i.i.i = zext i32 %121 to i64
  br label %for.body.i.i.i

for.body.i.i.i:                                   ; preds = %for.body.i.i.i, %for.body.lr.ph.i.i.i
  %indvars.iv.i.i.i = phi i64 [ 0, %for.body.lr.ph.i.i.i ], [ %indvars.iv.next.i.i.i, %for.body.i.i.i ]
  %arrayidx.i.i.i313 = getelementptr inbounds ptr, ptr %call.i.i.i319, i64 %indvars.iv.i.i.i
  %arrayidx3.i.i.i = getelementptr inbounds ptr, ptr %.pre.i.i.i, i64 %indvars.iv.i.i.i
  %122 = load ptr, ptr %arrayidx3.i.i.i, align 8
  store ptr %122, ptr %arrayidx.i.i.i313, align 8
  %indvars.iv.next.i.i.i = add nuw nsw i64 %indvars.iv.i.i.i, 1
  %exitcond.not.i.i.i = icmp eq i64 %indvars.iv.next.i.i.i, %wide.trip.count.i.i.i
  br i1 %exitcond.not.i.i.i, label %for.end.i.i.i, label %for.body.i.i.i, !llvm.loop !16

for.end.i.i.i:                                    ; preds = %for.body.i.i.i, %call.i.i.i.noexc
  %cmp.not.i.i.i.i = icmp eq ptr %.pre.i.i.i, %m_initial_buffer.i.i.i.i
  %cmp.i.i.i.i.i315 = icmp eq ptr %.pre.i.i.i, null
  %or.cond.i.i.i.i = or i1 %cmp.not.i.i.i.i, %cmp.i.i.i.i.i315
  br i1 %or.cond.i.i.i.i, label %_ZN6bufferIP4sortLb0ELj16EE6expandEv.exit.i.i, label %if.end.i.i.i.i.i

if.end.i.i.i.i.i:                                 ; preds = %for.end.i.i.i
  invoke void @_ZN6memory10deallocateEPv(ptr noundef nonnull %.pre.i.i.i)
          to label %.noexc320 unwind label %lpad128

.noexc320:                                        ; preds = %if.end.i.i.i.i.i
  %.pre1.pre.i.i = load i32, ptr %m_pos.i.i.i.i, align 8
  br label %_ZN6bufferIP4sortLb0ELj16EE6expandEv.exit.i.i

_ZN6bufferIP4sortLb0ELj16EE6expandEv.exit.i.i:    ; preds = %.noexc320, %for.end.i.i.i
  %.pre1.i.i = phi i32 [ %121, %for.end.i.i.i ], [ %.pre1.pre.i.i, %.noexc320 ]
  store ptr %call.i.i.i319, ptr %m_buffer.i.i, align 8
  store i32 %shl.i.i.i, ptr %m_capacity.i.i.i.i, align 4
  br label %_ZN7obj_refI4sort11ast_managerED2Ev.exit329

_ZN7obj_refI4sort11ast_managerED2Ev.exit329:      ; preds = %entry.if.end_crit_edge.i.i, %_ZN6bufferIP4sortLb0ELj16EE6expandEv.exit.i.i
  %123 = phi i32 [ %119, %entry.if.end_crit_edge.i.i ], [ %.pre1.i.i, %_ZN6bufferIP4sortLb0ELj16EE6expandEv.exit.i.i ]
  %124 = phi ptr [ %.pre.i.i318, %entry.if.end_crit_edge.i.i ], [ %call.i.i.i319, %_ZN6bufferIP4sortLb0ELj16EE6expandEv.exit.i.i ]
  %idx.ext.i.i316 = zext i32 %123 to i64
  %add.ptr.i.i317 = getelementptr inbounds ptr, ptr %124, i64 %idx.ext.i.i316
  store ptr %118, ptr %add.ptr.i.i317, align 8
  %125 = load i32, ptr %m_pos.i.i.i.i, align 8
  %inc.i.i = add i32 %125, 1
  store i32 %inc.i.i, ptr %m_pos.i.i.i.i, align 8
  store ptr null, ptr %ref.tmp124, align 8
  %indvars.iv.next743 = add nuw nsw i64 %indvars.iv742, 1
  %126 = load i32, ptr %m_num_decls.i, align 4
  %127 = zext i32 %126 to i64
  %cmp122 = icmp ult i64 %indvars.iv.next743, %127
  br i1 %cmp122, label %invoke.cont125, label %invoke.cont146, !llvm.loop !17

lpad128:                                          ; preds = %if.end.i.i.i.i.i, %if.then.i.i
  %128 = landingpad { ptr, i32 }
          cleanup
  call void @_ZN7obj_refI4sort11ast_managerED2Ev(ptr noundef nonnull align 8 dereferenceable(16) %ref.tmp124) #15
  br label %ehcleanup

invoke.cont146:                                   ; preds = %_ZN7obj_refI4sort11ast_managerED2Ev.exit329, %_ZN15ref_buffer_coreI4sort19ref_manager_wrapperIS0_11ast_managerELj16EE5resetEv.exit
  %.lcssa = phi i32 [ 0, %_ZN15ref_buffer_coreI4sort19ref_manager_wrapperIS0_11ast_managerELj16EE5resetEv.exit ], [ %126, %_ZN7obj_refI4sort11ast_managerED2Ev.exit329 ]
  %129 = load ptr, ptr %this, align 8
  %m_kind.i = getelementptr inbounds %class.quantifier, ptr %9, i64 0, i32 1
  %130 = load i32, ptr %m_kind.i, align 8
  %131 = load ptr, ptr %m_buffer.i.i, align 8
  %m_patterns_decls.i.i332 = getelementptr inbounds %class.quantifier, ptr %9, i64 0, i32 13
  %idx.ext.i334 = zext i32 %.lcssa to i64
  %add.ptr.i335 = getelementptr inbounds ptr, ptr %m_patterns_decls.i.i332, i64 %idx.ext.i334
  %132 = load ptr, ptr %m_expr.i, align 8
  %133 = load i32, ptr %132, align 4
  %134 = load ptr, ptr %m_nodes.i.i, align 8
  %idxprom.i.i338 = zext i32 %133 to i64
  %arrayidx.i.i339 = getelementptr inbounds ptr, ptr %134, i64 %idxprom.i.i338
  %135 = load ptr, ptr %arrayidx.i.i339, align 8
  %m_weight.i = getelementptr inbounds %class.quantifier, ptr %9, i64 0, i32 6
  %136 = load i32, ptr %m_weight.i, align 4
  %m_qid.i = getelementptr inbounds %class.quantifier, ptr %9, i64 0, i32 9
  %m_skid.i = getelementptr inbounds %class.quantifier, ptr %9, i64 0, i32 10
  %137 = load i32, ptr %m_num_patterns.i, align 8
  %138 = load ptr, ptr %patterns, align 8
  %139 = load i32, ptr %m_num_no_patterns.i, align 4
  %140 = load ptr, ptr %no_patterns, align 8
  %call163 = invoke noundef ptr @_ZN11ast_manager13mk_quantifierE15quantifier_kindjPKP4sortPK6symbolP4expriRS6_SA_jPKS9_jSC_(ptr noundef nonnull align 8 dereferenceable(976) %129, i32 noundef %130, i32 noundef %.lcssa, ptr noundef %131, ptr noundef nonnull %add.ptr.i335, ptr noundef %135, i32 noundef %136, ptr noundef nonnull align 8 dereferenceable(8) %m_qid.i, ptr noundef nonnull align 8 dereferenceable(8) %m_skid.i, i32 noundef %137, ptr noundef %138, i32 noundef %139, ptr noundef %140)
          to label %invoke.cont162 unwind label %lpad62.loopexit.split-lp.loopexit.split-lp.loopexit.split-lp.loopexit.split-lp.loopexit.split-lp

invoke.cont162:                                   ; preds = %invoke.cont146
  %141 = load i32, ptr %9, align 4
  %add.i342 = add i32 %141, 1
  %142 = load ptr, ptr %m_nodes.i.i, align 8
  %cmp.i.i.i344 = icmp eq ptr %142, null
  br i1 %cmp.i.i.i344, label %_ZNK6vectorIP4exprLb0EjE4sizeEv.exit.i.i383, label %_ZNK6vectorIP4exprLb0EjE4sizeEv.exit.thread.i.i345

_ZNK6vectorIP4exprLb0EjE4sizeEv.exit.i.i383:      ; preds = %invoke.cont162
  %cmp.not.not.i.i384 = icmp eq i32 %add.i342, 0
  br i1 %cmp.not.not.i.i384, label %_ZN15ref_vector_coreI4expr19ref_manager_wrapperIS0_11ast_managerEE7reserveEj.exit.i348, label %while.cond.i.i.i366.preheader

_ZNK6vectorIP4exprLb0EjE4sizeEv.exit.thread.i.i345: ; preds = %invoke.cont162
  %arrayidx.i.i.i346 = getelementptr inbounds i32, ptr %142, i64 -1
  %143 = load i32, ptr %arrayidx.i.i.i346, align 4
  %cmp.not4.i.i347 = icmp ult i32 %143, %add.i342
  br i1 %cmp.not4.i.i347, label %while.cond.i.i.i366.preheader, label %_ZN15ref_vector_coreI4expr19ref_manager_wrapperIS0_11ast_managerEE7reserveEj.exit.i348

while.cond.i.i.i366.preheader:                    ; preds = %_ZNK6vectorIP4exprLb0EjE4sizeEv.exit.i.i383, %_ZNK6vectorIP4exprLb0EjE4sizeEv.exit.thread.i.i345
  %.ph761 = phi ptr [ %142, %_ZNK6vectorIP4exprLb0EjE4sizeEv.exit.thread.i.i345 ], [ null, %_ZNK6vectorIP4exprLb0EjE4sizeEv.exit.i.i383 ]
  %retval.0.i16.i.i.i367.ph = phi i32 [ %143, %_ZNK6vectorIP4exprLb0EjE4sizeEv.exit.thread.i.i345 ], [ 0, %_ZNK6vectorIP4exprLb0EjE4sizeEv.exit.i.i383 ]
  br label %while.cond.i.i.i366

while.cond.i.i.i366:                              ; preds = %while.cond.i.i.i366.preheader, %.noexc385
  %144 = phi ptr [ %.pr.pre.i.i.i382, %.noexc385 ], [ %.ph761, %while.cond.i.i.i366.preheader ]
  %cmp.i10.i.i.i368 = icmp eq ptr %144, null
  br i1 %cmp.i10.i.i.i368, label %_ZNK6vectorIP4exprLb0EjE8capacityEv.exit.i.i.i371, label %if.end.i11.i.i.i369

if.end.i11.i.i.i369:                              ; preds = %while.cond.i.i.i366
  %arrayidx.i12.i.i.i370 = getelementptr inbounds i32, ptr %144, i64 -2
  %145 = load i32, ptr %arrayidx.i12.i.i.i370, align 4
  br label %_ZNK6vectorIP4exprLb0EjE8capacityEv.exit.i.i.i371

_ZNK6vectorIP4exprLb0EjE8capacityEv.exit.i.i.i371: ; preds = %if.end.i11.i.i.i369, %while.cond.i.i.i366
  %retval.0.i13.i.i.i372 = phi i32 [ %145, %if.end.i11.i.i.i369 ], [ 0, %while.cond.i.i.i366 ]
  %cmp3.i.i.i373 = icmp ult i32 %retval.0.i13.i.i.i372, %add.i342
  br i1 %cmp3.i.i.i373, label %while.body.i.i.i381, label %while.end.i.i.i374

while.body.i.i.i381:                              ; preds = %_ZNK6vectorIP4exprLb0EjE8capacityEv.exit.i.i.i371
  invoke void @_ZN6vectorIP4exprLb0EjE13expand_vectorEv(ptr noundef nonnull align 8 dereferenceable(8) %m_nodes.i.i)
          to label %.noexc385 unwind label %lpad62.loopexit.split-lp.loopexit.split-lp.loopexit.split-lp.loopexit.split-lp.loopexit

.noexc385:                                        ; preds = %while.body.i.i.i381
  %.pr.pre.i.i.i382 = load ptr, ptr %m_nodes.i.i, align 8
  br label %while.cond.i.i.i366, !llvm.loop !11

while.end.i.i.i374:                               ; preds = %_ZNK6vectorIP4exprLb0EjE8capacityEv.exit.i.i.i371
  %arrayidx.i2.i.i375 = getelementptr inbounds i32, ptr %144, i64 -1
  store i32 %add.i342, ptr %arrayidx.i2.i.i375, align 4
  %cmp8.not17.i.i.i376 = icmp eq i32 %retval.0.i16.i.i.i367.ph, %add.i342
  br i1 %cmp8.not17.i.i.i376, label %_ZN15ref_vector_coreI4expr19ref_manager_wrapperIS0_11ast_managerEE7reserveEj.exit.i348, label %for.body.preheader.i.i.i377

for.body.preheader.i.i.i377:                      ; preds = %while.end.i.i.i374
  %idx.ext6.i.i.i378 = zext i32 %add.i342 to i64
  %146 = load ptr, ptr %m_nodes.i.i, align 8
  %idx.ext.i.i.i379 = zext i32 %retval.0.i16.i.i.i367.ph to i64
  %add.ptr.i.i.i380 = getelementptr ptr, ptr %146, i64 %idx.ext.i.i.i379
  %147 = sub nsw i64 %idx.ext6.i.i.i378, %idx.ext.i.i.i379
  %148 = shl nsw i64 %147, 3
  call void @llvm.memset.p0.i64(ptr align 8 %add.ptr.i.i.i380, i8 0, i64 %148, i1 false)
  br label %_ZN15ref_vector_coreI4expr19ref_manager_wrapperIS0_11ast_managerEE7reserveEj.exit.i348

_ZN15ref_vector_coreI4expr19ref_manager_wrapperIS0_11ast_managerEE7reserveEj.exit.i348: ; preds = %for.body.preheader.i.i.i377, %while.end.i.i.i374, %_ZNK6vectorIP4exprLb0EjE4sizeEv.exit.thread.i.i345, %_ZNK6vectorIP4exprLb0EjE4sizeEv.exit.i.i383
  %tobool.not.i.i.i.i.i349 = icmp eq ptr %call163, null
  br i1 %tobool.not.i.i.i.i.i349, label %_ZN15ref_vector_coreI4expr19ref_manager_wrapperIS0_11ast_managerEE7inc_refEPS0_.exit.i.i353, label %if.then.i.i.i.i.i350

if.then.i.i.i.i.i350:                             ; preds = %_ZN15ref_vector_coreI4expr19ref_manager_wrapperIS0_11ast_managerEE7reserveEj.exit.i348
  %m_ref_count.i.i.i.i.i.i351 = getelementptr inbounds %class.ast, ptr %call163, i64 0, i32 2
  %149 = load i32, ptr %m_ref_count.i.i.i.i.i.i351, align 4
  %inc.i.i.i.i.i.i352 = add i32 %149, 1
  store i32 %inc.i.i.i.i.i.i352, ptr %m_ref_count.i.i.i.i.i.i351, align 4
  br label %_ZN15ref_vector_coreI4expr19ref_manager_wrapperIS0_11ast_managerEE7inc_refEPS0_.exit.i.i353

_ZN15ref_vector_coreI4expr19ref_manager_wrapperIS0_11ast_managerEE7inc_refEPS0_.exit.i.i353: ; preds = %if.then.i.i.i.i.i350, %_ZN15ref_vector_coreI4expr19ref_manager_wrapperIS0_11ast_managerEE7reserveEj.exit.i348
  %150 = load ptr, ptr %m_nodes.i.i, align 8
  %idxprom.i.i.i354 = zext i32 %141 to i64
  %arrayidx.i.i3.i355 = getelementptr inbounds ptr, ptr %150, i64 %idxprom.i.i.i354
  %151 = load ptr, ptr %arrayidx.i.i3.i355, align 8
  %152 = load ptr, ptr %result, align 8
  %tobool.not.i.i.i3.i.i356 = icmp eq ptr %151, null
  br i1 %tobool.not.i.i.i3.i.i356, label %_ZN10ref_vectorI4expr11ast_managerE4setxEjPS0_.exit387, label %if.then.i.i.i4.i.i357

if.then.i.i.i4.i.i357:                            ; preds = %_ZN15ref_vector_coreI4expr19ref_manager_wrapperIS0_11ast_managerEE7inc_refEPS0_.exit.i.i353
  %m_ref_count.i.i.i.i5.i.i358 = getelementptr inbounds %class.ast, ptr %151, i64 0, i32 2
  %153 = load i32, ptr %m_ref_count.i.i.i.i5.i.i358, align 4
  %dec.i.i.i.i.i.i359 = add i32 %153, -1
  store i32 %dec.i.i.i.i.i.i359, ptr %m_ref_count.i.i.i.i5.i.i358, align 4
  %cmp.i.i.i.i.i360 = icmp eq i32 %dec.i.i.i.i.i.i359, 0
  br i1 %cmp.i.i.i.i.i360, label %if.then2.i.i.i.i.i362, label %_ZN10ref_vectorI4expr11ast_managerE4setxEjPS0_.exit387

if.then2.i.i.i.i.i362:                            ; preds = %if.then.i.i.i4.i.i357
  invoke void @_ZN11ast_manager11delete_nodeEP3ast(ptr noundef nonnull align 8 dereferenceable(976) %152, ptr noundef nonnull %151)
          to label %_ZN10ref_vectorI4expr11ast_managerE4setxEjPS0_.exit387 unwind label %lpad62.loopexit.split-lp.loopexit.split-lp.loopexit.split-lp.loopexit.split-lp.loopexit.split-lp

_ZN10ref_vectorI4expr11ast_managerE4setxEjPS0_.exit387: ; preds = %if.then2.i.i.i.i.i362, %_ZN15ref_vector_coreI4expr19ref_manager_wrapperIS0_11ast_managerEE7inc_refEPS0_.exit.i.i353, %if.then.i.i.i4.i.i357
  %154 = load ptr, ptr %m_nodes.i.i, align 8
  %arrayidx.i7.i.i361 = getelementptr inbounds ptr, ptr %154, i64 %idxprom.i.i.i354
  store ptr %call163, ptr %arrayidx.i7.i.i361, align 8
  br label %cleanup

cleanup:                                          ; preds = %_ZN10ref_vectorI4expr11ast_managerE4setxEjPS0_.exit387, %for.end113
  %155 = load ptr, ptr %no_patterns, align 8
  %cmp.not.i.i.i.i389 = icmp eq ptr %155, %m_initial_buffer.i.i159
  %cmp.i.i.i.i.i390 = icmp eq ptr %155, null
  %or.cond.i.i.i.i391 = or i1 %cmp.not.i.i.i.i389, %cmp.i.i.i.i.i390
  br i1 %or.cond.i.i.i.i391, label %_ZN10ptr_bufferI4exprLj16EED2Ev.exit, label %if.end.i.i.i.i.i392

if.end.i.i.i.i.i392:                              ; preds = %cleanup
  invoke void @_ZN6memory10deallocateEPv(ptr noundef nonnull %155)
          to label %_ZN10ptr_bufferI4exprLj16EED2Ev.exit unwind label %terminate.lpad.i.i

terminate.lpad.i.i:                               ; preds = %if.end.i.i.i.i.i392
  %156 = landingpad { ptr, i32 }
          catch ptr null
  %157 = extractvalue { ptr, i32 } %156, 0
  call void @__clang_call_terminate(ptr %157) #16
  unreachable

_ZN10ptr_bufferI4exprLj16EED2Ev.exit:             ; preds = %cleanup, %if.end.i.i.i.i.i392
  %158 = load ptr, ptr %patterns, align 8
  %cmp.not.i.i.i.i394 = icmp eq ptr %158, %m_initial_buffer.i.i156
  %cmp.i.i.i.i.i395 = icmp eq ptr %158, null
  %or.cond.i.i.i.i396 = or i1 %cmp.not.i.i.i.i394, %cmp.i.i.i.i.i395
  br i1 %or.cond.i.i.i.i396, label %while.cond.backedge, label %if.end.i.i.i.i.i397

if.end.i.i.i.i.i397:                              ; preds = %_ZN10ptr_bufferI4exprLj16EED2Ev.exit
  invoke void @_ZN6memory10deallocateEPv(ptr noundef nonnull %158)
          to label %while.cond.backedge unwind label %terminate.lpad.i.i398

terminate.lpad.i.i398:                            ; preds = %if.end.i.i.i.i.i397
  %159 = landingpad { ptr, i32 }
          catch ptr null
  %160 = extractvalue { ptr, i32 } %159, 0
  call void @__clang_call_terminate(ptr %160) #16
  unreachable

ehcleanup:                                        ; preds = %lpad62.loopexit.split-lp.loopexit.split-lp.loopexit.split-lp.loopexit.split-lp.loopexit, %lpad62.loopexit.split-lp.loopexit.split-lp.loopexit.split-lp.loopexit.split-lp.loopexit.split-lp, %lpad62.loopexit, %lpad62.loopexit.split-lp.loopexit.split-lp.loopexit, %lpad62.loopexit.split-lp.loopexit.split-lp.loopexit.split-lp.loopexit, %lpad62.loopexit.split-lp.loopexit, %lpad128
  %.pn = phi { ptr, i32 } [ %128, %lpad128 ], [ %lpad.loopexit, %lpad62.loopexit ], [ %lpad.loopexit698, %lpad62.loopexit.split-lp.loopexit ], [ %lpad.loopexit701, %lpad62.loopexit.split-lp.loopexit.split-lp.loopexit ], [ %lpad.loopexit703, %lpad62.loopexit.split-lp.loopexit.split-lp.loopexit.split-lp.loopexit ], [ %lpad.loopexit762, %lpad62.loopexit.split-lp.loopexit.split-lp.loopexit.split-lp.loopexit.split-lp.loopexit ], [ %lpad.loopexit.split-lp, %lpad62.loopexit.split-lp.loopexit.split-lp.loopexit.split-lp.loopexit.split-lp.loopexit.split-lp ]
  call void @_ZN10ptr_bufferI4exprLj16EED2Ev(ptr noundef nonnull align 8 dereferenceable(144) %no_patterns) #15
  call void @_ZN10ptr_bufferI4exprLj16EED2Ev(ptr noundef nonnull align 8 dereferenceable(144) %patterns) #15
  br label %ehcleanup261

_ZNK6vectorIP4exprLb0EjE4sizeEv.exit:             ; preds = %if.end
  store i32 0, ptr %m_pos.i.i, align 8
  %161 = load i32, ptr %arrayidx.i68, align 4
  %m_num_args.i = getelementptr inbounds %class.app, ptr %9, i64 0, i32 2
  %162 = load i32, ptr %m_num_args.i, align 8
  %idx.ext.i408 = zext i32 %162 to i64
  %add.ptr.i409.idx = shl nuw nsw i64 %idx.ext.i408, 3
  %163 = getelementptr i8, ptr %9, i64 %add.ptr.i409.idx
  %add.ptr.i409.ptr = getelementptr i8, ptr %163, i64 32
  %cmp183.not719 = icmp eq i32 %162, 0
  br i1 %cmp183.not719, label %_ZNK6vectorIP4exprLb0EjE4sizeEv.exit478, label %for.body184.preheader

for.body184.preheader:                            ; preds = %_ZNK6vectorIP4exprLb0EjE4sizeEv.exit
  %m_args.i.ptr = getelementptr inbounds i8, ptr %9, i64 32
  br label %for.body184

for.body184:                                      ; preds = %for.body184.preheader, %for.inc198
  %__begin5.0720 = phi ptr [ %incdec.ptr, %for.inc198 ], [ %m_args.i.ptr, %for.body184.preheader ]
  %164 = load ptr, ptr %__begin5.0720, align 8
  %in_cache.val66.val = load ptr, ptr %m_nodes.i.i, align 8
  %cmp.i.i.i410 = icmp eq ptr %in_cache.val66.val, null
  br i1 %cmp.i.i.i410, label %if.then187, label %_ZNK15ref_vector_coreI4expr19ref_manager_wrapperIS0_11ast_managerEE4sizeEv.exit.i411

_ZNK15ref_vector_coreI4expr19ref_manager_wrapperIS0_11ast_managerEE4sizeEv.exit.i411: ; preds = %for.body184
  %arrayidx.i.i.i412 = getelementptr inbounds i32, ptr %in_cache.val66.val, i64 -1
  %165 = load i32, ptr %arrayidx.i.i.i412, align 4
  %166 = load i32, ptr %164, align 4
  %cmp.i413 = icmp ugt i32 %165, %166
  br i1 %cmp.i413, label %invoke.cont185, label %if.then187

invoke.cont185:                                   ; preds = %_ZNK15ref_vector_coreI4expr19ref_manager_wrapperIS0_11ast_managerEE4sizeEv.exit.i411
  %idxprom.i.i.i415 = zext i32 %166 to i64
  %arrayidx.i.i3.i416 = getelementptr inbounds ptr, ptr %in_cache.val66.val, i64 %idxprom.i.i.i415
  %167 = load ptr, ptr %arrayidx.i.i3.i416, align 8
  %tobool.i417.not = icmp eq ptr %167, null
  br i1 %tobool.i417.not, label %if.then187, label %invoke.cont194

if.then187:                                       ; preds = %for.body184, %_ZNK15ref_vector_coreI4expr19ref_manager_wrapperIS0_11ast_managerEE4sizeEv.exit.i411, %invoke.cont185
  %168 = load ptr, ptr %todo, align 8
  %cmp.i419 = icmp eq ptr %168, null
  br i1 %cmp.i419, label %if.then.i429, label %lor.lhs.false.i420

lor.lhs.false.i420:                               ; preds = %if.then187
  %arrayidx.i421 = getelementptr inbounds i32, ptr %168, i64 -1
  %169 = load i32, ptr %arrayidx.i421, align 4
  %arrayidx4.i422 = getelementptr inbounds i32, ptr %168, i64 -2
  %170 = load i32, ptr %arrayidx4.i422, align 4
  %cmp5.i423 = icmp eq i32 %169, %170
  br i1 %cmp5.i423, label %if.then.i429, label %_ZN6vectorIP4exprLb0EjE9push_backERKS1_.exit434

if.then.i429:                                     ; preds = %lor.lhs.false.i420, %if.then187
  invoke void @_ZN6vectorIP4exprLb0EjE13expand_vectorEv(ptr noundef nonnull align 8 dereferenceable(8) %todo)
          to label %.noexc433 unwind label %lpad7.loopexit.split-lp.loopexit.split-lp.loopexit

.noexc433:                                        ; preds = %if.then.i429
  %.pre.i430 = load ptr, ptr %todo, align 8
  %arrayidx8.phi.trans.insert.i431 = getelementptr inbounds i32, ptr %.pre.i430, i64 -1
  %.pre1.i432 = load i32, ptr %arrayidx8.phi.trans.insert.i431, align 4
  br label %_ZN6vectorIP4exprLb0EjE9push_backERKS1_.exit434

_ZN6vectorIP4exprLb0EjE9push_backERKS1_.exit434:  ; preds = %lor.lhs.false.i420, %.noexc433
  %171 = phi i32 [ %.pre1.i432, %.noexc433 ], [ %169, %lor.lhs.false.i420 ]
  %172 = phi ptr [ %.pre.i430, %.noexc433 ], [ %168, %lor.lhs.false.i420 ]
  %idx.ext.i425 = zext i32 %171 to i64
  %add.ptr.i426 = getelementptr inbounds ptr, ptr %172, i64 %idx.ext.i425
  store ptr %164, ptr %add.ptr.i426, align 8
  %173 = load ptr, ptr %todo, align 8
  %arrayidx10.i427 = getelementptr inbounds i32, ptr %173, i64 -1
  %174 = load i32, ptr %arrayidx10.i427, align 4
  %inc.i428 = add i32 %174, 1
  store i32 %inc.i428, ptr %arrayidx10.i427, align 4
  br label %for.inc198

invoke.cont194:                                   ; preds = %invoke.cont185
  %175 = load i32, ptr %m_pos.i.i, align 8
  %176 = load i32, ptr %m_capacity.i.i, align 4
  %cmp.not.i440 = icmp ult i32 %175, %176
  br i1 %cmp.not.i440, label %entry.if.end_crit_edge.i468, label %if.then.i441

entry.if.end_crit_edge.i468:                      ; preds = %invoke.cont194
  %.pre.i469 = load ptr, ptr %args, align 8
  br label %_ZN6bufferIP4exprLb0ELj16EE9push_backEOS1_.exit473

if.then.i441:                                     ; preds = %invoke.cont194
  %shl.i.i442 = shl i32 %176, 1
  %conv.i.i443 = zext i32 %shl.i.i442 to i64
  %mul.i.i444 = shl nuw nsw i64 %conv.i.i443, 3
  %call.i.i471 = invoke noalias noundef ptr @_ZN6memory8allocateEm(i64 noundef %mul.i.i444)
          to label %call.i.i.noexc470 unwind label %lpad7.loopexit.split-lp.loopexit.split-lp.loopexit

call.i.i.noexc470:                                ; preds = %if.then.i441
  %177 = load i32, ptr %m_pos.i.i, align 8
  %cmp6.not.i.i445 = icmp eq i32 %177, 0
  %.pre.i.i446 = load ptr, ptr %args, align 8
  br i1 %cmp6.not.i.i445, label %for.end.i.i455, label %for.body.lr.ph.i.i447

for.body.lr.ph.i.i447:                            ; preds = %call.i.i.noexc470
  %wide.trip.count.i.i448 = zext i32 %177 to i64
  br label %for.body.i.i449

for.body.i.i449:                                  ; preds = %for.body.i.i449, %for.body.lr.ph.i.i447
  %indvars.iv.i.i450 = phi i64 [ 0, %for.body.lr.ph.i.i447 ], [ %indvars.iv.next.i.i453, %for.body.i.i449 ]
  %arrayidx.i.i451 = getelementptr inbounds ptr, ptr %call.i.i471, i64 %indvars.iv.i.i450
  %arrayidx3.i.i452 = getelementptr inbounds ptr, ptr %.pre.i.i446, i64 %indvars.iv.i.i450
  %178 = load ptr, ptr %arrayidx3.i.i452, align 8
  store ptr %178, ptr %arrayidx.i.i451, align 8
  %indvars.iv.next.i.i453 = add nuw nsw i64 %indvars.iv.i.i450, 1
  %exitcond.not.i.i454 = icmp eq i64 %indvars.iv.next.i.i453, %wide.trip.count.i.i448
  br i1 %exitcond.not.i.i454, label %for.end.i.i455, label %for.body.i.i449, !llvm.loop !12

for.end.i.i455:                                   ; preds = %for.body.i.i449, %call.i.i.noexc470
  %cmp.not.i.i.i457 = icmp eq ptr %.pre.i.i446, %m_initial_buffer.i.i
  %cmp.i.i.i.i458 = icmp eq ptr %.pre.i.i446, null
  %or.cond.i.i.i459 = or i1 %cmp.not.i.i.i457, %cmp.i.i.i.i458
  br i1 %or.cond.i.i.i459, label %_ZN6bufferIP4exprLb0ELj16EE6expandEv.exit.i462, label %if.end.i.i.i.i460

if.end.i.i.i.i460:                                ; preds = %for.end.i.i455
  invoke void @_ZN6memory10deallocateEPv(ptr noundef nonnull %.pre.i.i446)
          to label %.noexc472 unwind label %lpad7.loopexit.split-lp.loopexit.split-lp.loopexit

.noexc472:                                        ; preds = %if.end.i.i.i.i460
  %.pre1.pre.i461 = load i32, ptr %m_pos.i.i, align 8
  br label %_ZN6bufferIP4exprLb0ELj16EE6expandEv.exit.i462

_ZN6bufferIP4exprLb0ELj16EE6expandEv.exit.i462:   ; preds = %.noexc472, %for.end.i.i455
  %.pre1.i463 = phi i32 [ %177, %for.end.i.i455 ], [ %.pre1.pre.i461, %.noexc472 ]
  store ptr %call.i.i471, ptr %args, align 8
  store i32 %shl.i.i442, ptr %m_capacity.i.i, align 4
  br label %_ZN6bufferIP4exprLb0ELj16EE9push_backEOS1_.exit473

_ZN6bufferIP4exprLb0ELj16EE9push_backEOS1_.exit473: ; preds = %entry.if.end_crit_edge.i468, %_ZN6bufferIP4exprLb0ELj16EE6expandEv.exit.i462
  %179 = phi i32 [ %175, %entry.if.end_crit_edge.i468 ], [ %.pre1.i463, %_ZN6bufferIP4exprLb0ELj16EE6expandEv.exit.i462 ]
  %180 = phi ptr [ %.pre.i469, %entry.if.end_crit_edge.i468 ], [ %call.i.i471, %_ZN6bufferIP4exprLb0ELj16EE6expandEv.exit.i462 ]
  %idx.ext.i465 = zext i32 %179 to i64
  %add.ptr.i466 = getelementptr inbounds ptr, ptr %180, i64 %idx.ext.i465
  store ptr %167, ptr %add.ptr.i466, align 8
  %181 = load i32, ptr %m_pos.i.i, align 8
  %inc.i467 = add i32 %181, 1
  store i32 %inc.i467, ptr %m_pos.i.i, align 8
  br label %for.inc198

for.inc198:                                       ; preds = %_ZN6bufferIP4exprLb0ELj16EE9push_backEOS1_.exit473, %_ZN6vectorIP4exprLb0EjE9push_backERKS1_.exit434
  %incdec.ptr = getelementptr inbounds ptr, ptr %__begin5.0720, i64 1
  %cmp183.not = icmp eq ptr %incdec.ptr, %add.ptr.i409.ptr
  br i1 %cmp183.not, label %for.end199, label %for.body184

for.end199:                                       ; preds = %for.inc198
  %.pre = load ptr, ptr %todo, align 8
  %cmp.i474 = icmp eq ptr %.pre, null
  br i1 %cmp.i474, label %if.end204, label %_ZNK6vectorIP4exprLb0EjE4sizeEv.exit478

_ZNK6vectorIP4exprLb0EjE4sizeEv.exit478:          ; preds = %_ZNK6vectorIP4exprLb0EjE4sizeEv.exit, %for.end199
  %182 = phi ptr [ %.pre, %for.end199 ], [ %5, %_ZNK6vectorIP4exprLb0EjE4sizeEv.exit ]
  %arrayidx.i476 = getelementptr inbounds i32, ptr %182, i64 -1
  %183 = load i32, ptr %arrayidx.i476, align 4
  %cmp202 = icmp ult i32 %161, %183
  br i1 %cmp202, label %while.cond.backedge, label %if.end204

if.end204:                                        ; preds = %for.end199, %_ZNK6vectorIP4exprLb0EjE4sizeEv.exit478
  %m_decl.i = getelementptr inbounds %class.app, ptr %9, i64 0, i32 1
  %184 = load ptr, ptr %m_decl.i, align 8
  %m_info.i.i = getelementptr inbounds %class.decl, ptr %184, i64 0, i32 2
  %185 = load ptr, ptr %m_info.i.i, align 8
  %cmp.not.i479 = icmp eq ptr %185, null
  br i1 %cmp.not.i479, label %if.end243, label %invoke.cont209

invoke.cont209:                                   ; preds = %if.end204
  %m_polymorphic.i.i = getelementptr inbounds %struct.func_decl_info, ptr %185, i64 0, i32 1
  %bf.load.i.i481 = load i16, ptr %m_polymorphic.i.i, align 1
  %186 = and i16 %bf.load.i.i481, 1024
  %bf.cast.i.i.not = icmp eq i16 %186, 0
  br i1 %bf.cast.i.i.not, label %if.end243, label %if.then211

if.then211:                                       ; preds = %invoke.cont209
  %187 = load ptr, ptr %m_buffer.i.i, align 8
  %188 = load i32, ptr %m_pos.i.i.i.i, align 8
  %idx.ext.i.i484 = zext i32 %188 to i64
  %add.ptr.i.i485 = getelementptr inbounds ptr, ptr %187, i64 %idx.ext.i.i484
  %cmp3.i.not.i486 = icmp eq i32 %188, 0
  br i1 %cmp3.i.not.i486, label %_ZN15ref_buffer_coreI4sort19ref_manager_wrapperIS0_11ast_managerELj16EE5resetEv.exit499, label %for.body.i.i487

for.body.i.i487:                                  ; preds = %if.then211, %_ZN15ref_buffer_coreI4sort19ref_manager_wrapperIS0_11ast_managerELj16EE7dec_refEPS0_.exit.i.i494
  %it.04.i.i488 = phi ptr [ %incdec.ptr.i.i495, %_ZN15ref_buffer_coreI4sort19ref_manager_wrapperIS0_11ast_managerELj16EE7dec_refEPS0_.exit.i.i494 ], [ %187, %if.then211 ]
  %189 = load ptr, ptr %it.04.i.i488, align 8
  %190 = load ptr, ptr %domain, align 8
  %tobool.not.i.i.i.i.i489 = icmp eq ptr %189, null
  br i1 %tobool.not.i.i.i.i.i489, label %_ZN15ref_buffer_coreI4sort19ref_manager_wrapperIS0_11ast_managerELj16EE7dec_refEPS0_.exit.i.i494, label %if.then.i.i.i.i.i490

if.then.i.i.i.i.i490:                             ; preds = %for.body.i.i487
  %m_ref_count.i.i.i.i.i.i491 = getelementptr inbounds %class.ast, ptr %189, i64 0, i32 2
  %191 = load i32, ptr %m_ref_count.i.i.i.i.i.i491, align 4
  %dec.i.i.i.i.i.i492 = add i32 %191, -1
  store i32 %dec.i.i.i.i.i.i492, ptr %m_ref_count.i.i.i.i.i.i491, align 4
  %cmp.i.i.i.i.i493 = icmp eq i32 %dec.i.i.i.i.i.i492, 0
  br i1 %cmp.i.i.i.i.i493, label %if.then2.i.i.i.i.i497, label %_ZN15ref_buffer_coreI4sort19ref_manager_wrapperIS0_11ast_managerELj16EE7dec_refEPS0_.exit.i.i494

if.then2.i.i.i.i.i497:                            ; preds = %if.then.i.i.i.i.i490
  invoke void @_ZN11ast_manager11delete_nodeEP3ast(ptr noundef nonnull align 8 dereferenceable(976) %190, ptr noundef nonnull %189)
          to label %_ZN15ref_buffer_coreI4sort19ref_manager_wrapperIS0_11ast_managerELj16EE7dec_refEPS0_.exit.i.i494 unwind label %lpad7.loopexit.split-lp.loopexit

_ZN15ref_buffer_coreI4sort19ref_manager_wrapperIS0_11ast_managerELj16EE7dec_refEPS0_.exit.i.i494: ; preds = %if.then2.i.i.i.i.i497, %if.then.i.i.i.i.i490, %for.body.i.i487
  %incdec.ptr.i.i495 = getelementptr inbounds ptr, ptr %it.04.i.i488, i64 1
  %cmp.i.i496 = icmp ult ptr %incdec.ptr.i.i495, %add.ptr.i.i485
  br i1 %cmp.i.i496, label %for.body.i.i487, label %_ZN15ref_buffer_coreI4sort19ref_manager_wrapperIS0_11ast_managerELj16EE5resetEv.exit499, !llvm.loop !15

_ZN15ref_buffer_coreI4sort19ref_manager_wrapperIS0_11ast_managerELj16EE5resetEv.exit499: ; preds = %_ZN15ref_buffer_coreI4sort19ref_manager_wrapperIS0_11ast_managerELj16EE7dec_refEPS0_.exit.i.i494, %if.then211
  store i32 0, ptr %m_pos.i.i.i.i, align 8
  %m_arity.i = getelementptr inbounds %class.func_decl, ptr %184, i64 0, i32 1
  %192 = load i32, ptr %m_arity.i, align 8
  %cmp217721.not = icmp eq i32 %192, 0
  br i1 %cmp217721.not, label %for.end228, label %for.body218

for.body218:                                      ; preds = %_ZN15ref_buffer_coreI4sort19ref_manager_wrapperIS0_11ast_managerELj16EE5resetEv.exit499, %_ZN7obj_refI4sort11ast_managerED2Ev.exit546
  %indvars.iv = phi i64 [ %indvars.iv.next, %_ZN7obj_refI4sort11ast_managerED2Ev.exit546 ], [ 0, %_ZN15ref_buffer_coreI4sort19ref_manager_wrapperIS0_11ast_managerELj16EE5resetEv.exit499 ]
  %arrayidx.i501 = getelementptr inbounds %class.func_decl, ptr %184, i64 0, i32 3, i64 %indvars.iv
  %193 = load ptr, ptr %arrayidx.i501, align 8
  invoke void @_ZN12polymorphism12substitutionclEP4sort(ptr nonnull sret(%class.obj_ref) align 8 %ref.tmp219, ptr noundef nonnull align 8 dereferenceable(48) %this, ptr noundef %193)
          to label %invoke.cont222 unwind label %lpad7.loopexit

invoke.cont222:                                   ; preds = %for.body218
  %194 = load ptr, ptr %ref.tmp219, align 8
  %195 = load i32, ptr %m_pos.i.i.i.i, align 8
  %196 = load i32, ptr %m_capacity.i.i.i.i, align 4
  %cmp.not.i.i505 = icmp ult i32 %195, %196
  br i1 %cmp.not.i.i505, label %entry.if.end_crit_edge.i.i532, label %if.then.i.i506

entry.if.end_crit_edge.i.i532:                    ; preds = %invoke.cont222
  %.pre.i.i533 = load ptr, ptr %m_buffer.i.i, align 8
  br label %_ZN7obj_refI4sort11ast_managerED2Ev.exit546

if.then.i.i506:                                   ; preds = %invoke.cont222
  %shl.i.i.i507 = shl i32 %196, 1
  %conv.i.i.i508 = zext i32 %shl.i.i.i507 to i64
  %mul.i.i.i509 = shl nuw nsw i64 %conv.i.i.i508, 3
  %call.i.i.i535 = invoke noalias noundef ptr @_ZN6memory8allocateEm(i64 noundef %mul.i.i.i509)
          to label %call.i.i.i.noexc534 unwind label %lpad223

call.i.i.i.noexc534:                              ; preds = %if.then.i.i506
  %197 = load i32, ptr %m_pos.i.i.i.i, align 8
  %cmp6.not.i.i.i510 = icmp eq i32 %197, 0
  %.pre.i.i.i511 = load ptr, ptr %m_buffer.i.i, align 8
  br i1 %cmp6.not.i.i.i510, label %for.end.i.i.i520, label %for.body.lr.ph.i.i.i512

for.body.lr.ph.i.i.i512:                          ; preds = %call.i.i.i.noexc534
  %wide.trip.count.i.i.i513 = zext i32 %197 to i64
  br label %for.body.i.i.i514

for.body.i.i.i514:                                ; preds = %for.body.i.i.i514, %for.body.lr.ph.i.i.i512
  %indvars.iv.i.i.i515 = phi i64 [ 0, %for.body.lr.ph.i.i.i512 ], [ %indvars.iv.next.i.i.i518, %for.body.i.i.i514 ]
  %arrayidx.i.i.i516 = getelementptr inbounds ptr, ptr %call.i.i.i535, i64 %indvars.iv.i.i.i515
  %arrayidx3.i.i.i517 = getelementptr inbounds ptr, ptr %.pre.i.i.i511, i64 %indvars.iv.i.i.i515
  %198 = load ptr, ptr %arrayidx3.i.i.i517, align 8
  store ptr %198, ptr %arrayidx.i.i.i516, align 8
  %indvars.iv.next.i.i.i518 = add nuw nsw i64 %indvars.iv.i.i.i515, 1
  %exitcond.not.i.i.i519 = icmp eq i64 %indvars.iv.next.i.i.i518, %wide.trip.count.i.i.i513
  br i1 %exitcond.not.i.i.i519, label %for.end.i.i.i520, label %for.body.i.i.i514, !llvm.loop !16

for.end.i.i.i520:                                 ; preds = %for.body.i.i.i514, %call.i.i.i.noexc534
  %cmp.not.i.i.i.i522 = icmp eq ptr %.pre.i.i.i511, %m_initial_buffer.i.i.i.i
  %cmp.i.i.i.i.i523 = icmp eq ptr %.pre.i.i.i511, null
  %or.cond.i.i.i.i524 = or i1 %cmp.not.i.i.i.i522, %cmp.i.i.i.i.i523
  br i1 %or.cond.i.i.i.i524, label %_ZN6bufferIP4sortLb0ELj16EE6expandEv.exit.i.i527, label %if.end.i.i.i.i.i525

if.end.i.i.i.i.i525:                              ; preds = %for.end.i.i.i520
  invoke void @_ZN6memory10deallocateEPv(ptr noundef nonnull %.pre.i.i.i511)
          to label %.noexc536 unwind label %lpad223

.noexc536:                                        ; preds = %if.end.i.i.i.i.i525
  %.pre1.pre.i.i526 = load i32, ptr %m_pos.i.i.i.i, align 8
  br label %_ZN6bufferIP4sortLb0ELj16EE6expandEv.exit.i.i527

_ZN6bufferIP4sortLb0ELj16EE6expandEv.exit.i.i527: ; preds = %.noexc536, %for.end.i.i.i520
  %.pre1.i.i528 = phi i32 [ %197, %for.end.i.i.i520 ], [ %.pre1.pre.i.i526, %.noexc536 ]
  store ptr %call.i.i.i535, ptr %m_buffer.i.i, align 8
  store i32 %shl.i.i.i507, ptr %m_capacity.i.i.i.i, align 4
  br label %_ZN7obj_refI4sort11ast_managerED2Ev.exit546

_ZN7obj_refI4sort11ast_managerED2Ev.exit546:      ; preds = %entry.if.end_crit_edge.i.i532, %_ZN6bufferIP4sortLb0ELj16EE6expandEv.exit.i.i527
  %199 = phi i32 [ %195, %entry.if.end_crit_edge.i.i532 ], [ %.pre1.i.i528, %_ZN6bufferIP4sortLb0ELj16EE6expandEv.exit.i.i527 ]
  %200 = phi ptr [ %.pre.i.i533, %entry.if.end_crit_edge.i.i532 ], [ %call.i.i.i535, %_ZN6bufferIP4sortLb0ELj16EE6expandEv.exit.i.i527 ]
  %idx.ext.i.i529 = zext i32 %199 to i64
  %add.ptr.i.i530 = getelementptr inbounds ptr, ptr %200, i64 %idx.ext.i.i529
  store ptr %194, ptr %add.ptr.i.i530, align 8
  %201 = load i32, ptr %m_pos.i.i.i.i, align 8
  %inc.i.i531 = add i32 %201, 1
  store i32 %inc.i.i531, ptr %m_pos.i.i.i.i, align 8
  store ptr null, ptr %ref.tmp219, align 8
  %indvars.iv.next = add nuw nsw i64 %indvars.iv, 1
  %202 = load i32, ptr %m_arity.i, align 8
  %203 = zext i32 %202 to i64
  %cmp217 = icmp ult i64 %indvars.iv.next, %203
  br i1 %cmp217, label %for.body218, label %for.end228, !llvm.loop !18

lpad223:                                          ; preds = %if.end.i.i.i.i.i525, %if.then.i.i506
  %204 = landingpad { ptr, i32 }
          cleanup
  call void @_ZN7obj_refI4sort11ast_managerED2Ev(ptr noundef nonnull align 8 dereferenceable(16) %ref.tmp219) #15
  br label %ehcleanup261

for.end228:                                       ; preds = %_ZN7obj_refI4sort11ast_managerED2Ev.exit546, %_ZN15ref_buffer_coreI4sort19ref_manager_wrapperIS0_11ast_managerELj16EE5resetEv.exit499
  %m_range.i = getelementptr inbounds %class.func_decl, ptr %184, i64 0, i32 2
  %205 = load ptr, ptr %m_range.i, align 8
  invoke void @_ZN12polymorphism12substitutionclEP4sort(ptr nonnull sret(%class.obj_ref) align 8 %range, ptr noundef nonnull align 8 dereferenceable(48) %this, ptr noundef %205)
          to label %invoke.cont236 unwind label %lpad7.loopexit.split-lp.loopexit.split-lp.loopexit.split-lp.loopexit.split-lp.loopexit.split-lp

invoke.cont236:                                   ; preds = %for.end228
  %206 = load ptr, ptr %this, align 8
  %207 = load i32, ptr %m_arity.i, align 8
  %208 = load ptr, ptr %m_buffer.i.i, align 8
  %209 = load ptr, ptr %range, align 8
  %call241 = invoke noundef ptr @_ZN11ast_manager23instantiate_polymorphicEP9func_decljPKP4sortS3_(ptr noundef nonnull align 8 dereferenceable(976) %206, ptr noundef nonnull %184, i32 noundef %207, ptr noundef %208, ptr noundef %209)
          to label %invoke.cont240 unwind label %lpad233

invoke.cont240:                                   ; preds = %invoke.cont236
  %tobool.not.i.i549 = icmp eq ptr %209, null
  br i1 %tobool.not.i.i549, label %if.end243, label %if.then.i.i.i550

if.then.i.i.i550:                                 ; preds = %invoke.cont240
  %210 = load ptr, ptr %m_manager.i.i551, align 8
  %m_ref_count.i.i.i.i552 = getelementptr inbounds %class.ast, ptr %209, i64 0, i32 2
  %211 = load i32, ptr %m_ref_count.i.i.i.i552, align 4
  %dec.i.i.i.i553 = add i32 %211, -1
  store i32 %dec.i.i.i.i553, ptr %m_ref_count.i.i.i.i552, align 4
  %cmp.i.i.i554 = icmp eq i32 %dec.i.i.i.i553, 0
  br i1 %cmp.i.i.i554, label %if.then2.i.i.i555, label %if.end243

if.then2.i.i.i555:                                ; preds = %if.then.i.i.i550
  invoke void @_ZN11ast_manager11delete_nodeEP3ast(ptr noundef nonnull align 8 dereferenceable(976) %210, ptr noundef nonnull %209)
          to label %if.end243 unwind label %terminate.lpad.i556

terminate.lpad.i556:                              ; preds = %if.then2.i.i.i555
  %212 = landingpad { ptr, i32 }
          catch ptr null
  %213 = extractvalue { ptr, i32 } %212, 0
  call void @__clang_call_terminate(ptr %213) #16
  unreachable

lpad233:                                          ; preds = %invoke.cont236
  %214 = landingpad { ptr, i32 }
          cleanup
  call void @_ZN7obj_refI4sort11ast_managerED2Ev(ptr noundef nonnull align 8 dereferenceable(16) %range) #15
  br label %ehcleanup261

if.end243:                                        ; preds = %if.end204, %if.then2.i.i.i555, %if.then.i.i.i550, %invoke.cont240, %invoke.cont209
  %f.0 = phi ptr [ %184, %invoke.cont209 ], [ %call241, %invoke.cont240 ], [ %call241, %if.then.i.i.i550 ], [ %call241, %if.then2.i.i.i555 ], [ %184, %if.end204 ]
  %215 = load i32, ptr %9, align 4
  %216 = load ptr, ptr %this, align 8
  %217 = load i32, ptr %m_pos.i.i, align 8
  %218 = load ptr, ptr %args, align 8
  %call3.i559 = invoke noundef ptr @_ZN11ast_manager6mk_appEP9func_decljPKP4expr(ptr noundef nonnull align 8 dereferenceable(976) %216, ptr noundef %f.0, i32 noundef %217, ptr noundef %218)
          to label %invoke.cont247 unwind label %lpad7.loopexit.split-lp.loopexit.split-lp.loopexit.split-lp.loopexit.split-lp.loopexit.split-lp

invoke.cont247:                                   ; preds = %if.end243
  %add.i560 = add i32 %215, 1
  %219 = load ptr, ptr %m_nodes.i.i, align 8
  %cmp.i.i.i562 = icmp eq ptr %219, null
  br i1 %cmp.i.i.i562, label %_ZNK6vectorIP4exprLb0EjE4sizeEv.exit.i.i601, label %_ZNK6vectorIP4exprLb0EjE4sizeEv.exit.thread.i.i563

_ZNK6vectorIP4exprLb0EjE4sizeEv.exit.i.i601:      ; preds = %invoke.cont247
  %cmp.not.not.i.i602 = icmp eq i32 %add.i560, 0
  br i1 %cmp.not.not.i.i602, label %_ZN15ref_vector_coreI4expr19ref_manager_wrapperIS0_11ast_managerEE7reserveEj.exit.i566, label %while.cond.i.i.i584.preheader

_ZNK6vectorIP4exprLb0EjE4sizeEv.exit.thread.i.i563: ; preds = %invoke.cont247
  %arrayidx.i.i.i564 = getelementptr inbounds i32, ptr %219, i64 -1
  %220 = load i32, ptr %arrayidx.i.i.i564, align 4
  %cmp.not4.i.i565 = icmp ult i32 %220, %add.i560
  br i1 %cmp.not4.i.i565, label %while.cond.i.i.i584.preheader, label %_ZN15ref_vector_coreI4expr19ref_manager_wrapperIS0_11ast_managerEE7reserveEj.exit.i566

while.cond.i.i.i584.preheader:                    ; preds = %_ZNK6vectorIP4exprLb0EjE4sizeEv.exit.i.i601, %_ZNK6vectorIP4exprLb0EjE4sizeEv.exit.thread.i.i563
  %.ph764 = phi ptr [ %219, %_ZNK6vectorIP4exprLb0EjE4sizeEv.exit.thread.i.i563 ], [ null, %_ZNK6vectorIP4exprLb0EjE4sizeEv.exit.i.i601 ]
  %retval.0.i16.i.i.i585.ph = phi i32 [ %220, %_ZNK6vectorIP4exprLb0EjE4sizeEv.exit.thread.i.i563 ], [ 0, %_ZNK6vectorIP4exprLb0EjE4sizeEv.exit.i.i601 ]
  br label %while.cond.i.i.i584

while.cond.i.i.i584:                              ; preds = %while.cond.i.i.i584.preheader, %.noexc603
  %221 = phi ptr [ %.pr.pre.i.i.i600, %.noexc603 ], [ %.ph764, %while.cond.i.i.i584.preheader ]
  %cmp.i10.i.i.i586 = icmp eq ptr %221, null
  br i1 %cmp.i10.i.i.i586, label %_ZNK6vectorIP4exprLb0EjE8capacityEv.exit.i.i.i589, label %if.end.i11.i.i.i587

if.end.i11.i.i.i587:                              ; preds = %while.cond.i.i.i584
  %arrayidx.i12.i.i.i588 = getelementptr inbounds i32, ptr %221, i64 -2
  %222 = load i32, ptr %arrayidx.i12.i.i.i588, align 4
  br label %_ZNK6vectorIP4exprLb0EjE8capacityEv.exit.i.i.i589

_ZNK6vectorIP4exprLb0EjE8capacityEv.exit.i.i.i589: ; preds = %if.end.i11.i.i.i587, %while.cond.i.i.i584
  %retval.0.i13.i.i.i590 = phi i32 [ %222, %if.end.i11.i.i.i587 ], [ 0, %while.cond.i.i.i584 ]
  %cmp3.i.i.i591 = icmp ult i32 %retval.0.i13.i.i.i590, %add.i560
  br i1 %cmp3.i.i.i591, label %while.body.i.i.i599, label %while.end.i.i.i592

while.body.i.i.i599:                              ; preds = %_ZNK6vectorIP4exprLb0EjE8capacityEv.exit.i.i.i589
  invoke void @_ZN6vectorIP4exprLb0EjE13expand_vectorEv(ptr noundef nonnull align 8 dereferenceable(8) %m_nodes.i.i)
          to label %.noexc603 unwind label %lpad7.loopexit.split-lp.loopexit.split-lp.loopexit.split-lp.loopexit.split-lp.loopexit

.noexc603:                                        ; preds = %while.body.i.i.i599
  %.pr.pre.i.i.i600 = load ptr, ptr %m_nodes.i.i, align 8
  br label %while.cond.i.i.i584, !llvm.loop !11

while.end.i.i.i592:                               ; preds = %_ZNK6vectorIP4exprLb0EjE8capacityEv.exit.i.i.i589
  %arrayidx.i2.i.i593 = getelementptr inbounds i32, ptr %221, i64 -1
  store i32 %add.i560, ptr %arrayidx.i2.i.i593, align 4
  %cmp8.not17.i.i.i594 = icmp eq i32 %retval.0.i16.i.i.i585.ph, %add.i560
  br i1 %cmp8.not17.i.i.i594, label %_ZN15ref_vector_coreI4expr19ref_manager_wrapperIS0_11ast_managerEE7reserveEj.exit.i566, label %for.body.preheader.i.i.i595

for.body.preheader.i.i.i595:                      ; preds = %while.end.i.i.i592
  %idx.ext6.i.i.i596 = zext i32 %add.i560 to i64
  %223 = load ptr, ptr %m_nodes.i.i, align 8
  %idx.ext.i.i.i597 = zext i32 %retval.0.i16.i.i.i585.ph to i64
  %add.ptr.i.i.i598 = getelementptr ptr, ptr %223, i64 %idx.ext.i.i.i597
  %224 = sub nsw i64 %idx.ext6.i.i.i596, %idx.ext.i.i.i597
  %225 = shl nsw i64 %224, 3
  call void @llvm.memset.p0.i64(ptr align 8 %add.ptr.i.i.i598, i8 0, i64 %225, i1 false)
  br label %_ZN15ref_vector_coreI4expr19ref_manager_wrapperIS0_11ast_managerEE7reserveEj.exit.i566

_ZN15ref_vector_coreI4expr19ref_manager_wrapperIS0_11ast_managerEE7reserveEj.exit.i566: ; preds = %for.body.preheader.i.i.i595, %while.end.i.i.i592, %_ZNK6vectorIP4exprLb0EjE4sizeEv.exit.thread.i.i563, %_ZNK6vectorIP4exprLb0EjE4sizeEv.exit.i.i601
  %tobool.not.i.i.i.i.i567 = icmp eq ptr %call3.i559, null
  br i1 %tobool.not.i.i.i.i.i567, label %_ZN15ref_vector_coreI4expr19ref_manager_wrapperIS0_11ast_managerEE7inc_refEPS0_.exit.i.i571, label %if.then.i.i.i.i.i568

if.then.i.i.i.i.i568:                             ; preds = %_ZN15ref_vector_coreI4expr19ref_manager_wrapperIS0_11ast_managerEE7reserveEj.exit.i566
  %m_ref_count.i.i.i.i.i.i569 = getelementptr inbounds %class.ast, ptr %call3.i559, i64 0, i32 2
  %226 = load i32, ptr %m_ref_count.i.i.i.i.i.i569, align 4
  %inc.i.i.i.i.i.i570 = add i32 %226, 1
  store i32 %inc.i.i.i.i.i.i570, ptr %m_ref_count.i.i.i.i.i.i569, align 4
  br label %_ZN15ref_vector_coreI4expr19ref_manager_wrapperIS0_11ast_managerEE7inc_refEPS0_.exit.i.i571

_ZN15ref_vector_coreI4expr19ref_manager_wrapperIS0_11ast_managerEE7inc_refEPS0_.exit.i.i571: ; preds = %if.then.i.i.i.i.i568, %_ZN15ref_vector_coreI4expr19ref_manager_wrapperIS0_11ast_managerEE7reserveEj.exit.i566
  %227 = load ptr, ptr %m_nodes.i.i, align 8
  %idxprom.i.i.i572 = zext i32 %215 to i64
  %arrayidx.i.i3.i573 = getelementptr inbounds ptr, ptr %227, i64 %idxprom.i.i.i572
  %228 = load ptr, ptr %arrayidx.i.i3.i573, align 8
  %229 = load ptr, ptr %result, align 8
  %tobool.not.i.i.i3.i.i574 = icmp eq ptr %228, null
  br i1 %tobool.not.i.i.i3.i.i574, label %invoke.cont249, label %if.then.i.i.i4.i.i575

if.then.i.i.i4.i.i575:                            ; preds = %_ZN15ref_vector_coreI4expr19ref_manager_wrapperIS0_11ast_managerEE7inc_refEPS0_.exit.i.i571
  %m_ref_count.i.i.i.i5.i.i576 = getelementptr inbounds %class.ast, ptr %228, i64 0, i32 2
  %230 = load i32, ptr %m_ref_count.i.i.i.i5.i.i576, align 4
  %dec.i.i.i.i.i.i577 = add i32 %230, -1
  store i32 %dec.i.i.i.i.i.i577, ptr %m_ref_count.i.i.i.i5.i.i576, align 4
  %cmp.i.i.i.i.i578 = icmp eq i32 %dec.i.i.i.i.i.i577, 0
  br i1 %cmp.i.i.i.i.i578, label %if.then2.i.i.i.i.i580, label %invoke.cont249

if.then2.i.i.i.i.i580:                            ; preds = %if.then.i.i.i4.i.i575
  invoke void @_ZN11ast_manager11delete_nodeEP3ast(ptr noundef nonnull align 8 dereferenceable(976) %229, ptr noundef nonnull %228)
          to label %invoke.cont249 unwind label %lpad7.loopexit.split-lp.loopexit.split-lp.loopexit.split-lp.loopexit.split-lp.loopexit.split-lp

invoke.cont249:                                   ; preds = %if.then.i.i.i4.i.i575, %_ZN15ref_vector_coreI4expr19ref_manager_wrapperIS0_11ast_managerEE7inc_refEPS0_.exit.i.i571, %if.then2.i.i.i.i.i580
  %231 = load ptr, ptr %m_nodes.i.i, align 8
  %arrayidx.i7.i.i579 = getelementptr inbounds ptr, ptr %231, i64 %idxprom.i.i.i572
  store ptr %call3.i559, ptr %arrayidx.i7.i.i579, align 8
  %232 = load ptr, ptr %todo, align 8
  %arrayidx.i606 = getelementptr inbounds i32, ptr %232, i64 -1
  %233 = load i32, ptr %arrayidx.i606, align 4
  %dec.i607 = add i32 %233, -1
  store i32 %dec.i607, ptr %arrayidx.i606, align 4
  br label %while.cond.backedge

invoke.cont256.loopexit:                          ; preds = %while.cond.backedge, %_ZNK6vectorIP4exprLb0EjE5emptyEv.exit
  %.pre747 = load ptr, ptr %this, align 8
  br label %invoke.cont256

invoke.cont256:                                   ; preds = %invoke.cont256.loopexit, %invoke.cont3
  %234 = phi ptr [ %.pre747, %invoke.cont256.loopexit ], [ %3, %invoke.cont3 ]
  %235 = load i32, ptr %e, align 4
  %236 = load ptr, ptr %m_nodes.i.i, align 8
  %idxprom.i.i609 = zext i32 %235 to i64
  %arrayidx.i.i610 = getelementptr inbounds ptr, ptr %236, i64 %idxprom.i.i609
  %237 = load ptr, ptr %arrayidx.i.i610, align 8
  store ptr %237, ptr %agg.result, align 8
  %m_manager.i = getelementptr inbounds %class.obj_ref.47, ptr %agg.result, i64 0, i32 1
  store ptr %234, ptr %m_manager.i, align 8
  %tobool.not.i.i611 = icmp eq ptr %237, null
  br i1 %tobool.not.i.i611, label %invoke.cont259, label %_ZN11ast_manager7inc_refEP3ast.exit.i.i

_ZN11ast_manager7inc_refEP3ast.exit.i.i:          ; preds = %invoke.cont256
  %m_ref_count.i.i.i.i612 = getelementptr inbounds %class.ast, ptr %237, i64 0, i32 2
  %238 = load i32, ptr %m_ref_count.i.i.i.i612, align 4
  %inc.i.i.i.i = add i32 %238, 1
  store i32 %inc.i.i.i.i, ptr %m_ref_count.i.i.i.i612, align 4
  br label %invoke.cont259

invoke.cont259:                                   ; preds = %_ZN11ast_manager7inc_refEP3ast.exit.i.i, %invoke.cont256
  %239 = load ptr, ptr %m_buffer.i.i, align 8
  %240 = load i32, ptr %m_pos.i.i.i.i, align 8
  %idx.ext.i.i.i615 = zext i32 %240 to i64
  %add.ptr.i.i.i616 = getelementptr inbounds ptr, ptr %239, i64 %idx.ext.i.i.i615
  %cmp3.i.not.i.i = icmp eq i32 %240, 0
  br i1 %cmp3.i.not.i.i, label %invoke.cont5.i.i, label %for.body.i.i.i617

for.body.i.i.i617:                                ; preds = %invoke.cont259, %_ZN15ref_buffer_coreI4sort19ref_manager_wrapperIS0_11ast_managerELj16EE7dec_refEPS0_.exit.i.i.i
  %it.04.i.i.i = phi ptr [ %incdec.ptr.i.i.i, %_ZN15ref_buffer_coreI4sort19ref_manager_wrapperIS0_11ast_managerELj16EE7dec_refEPS0_.exit.i.i.i ], [ %239, %invoke.cont259 ]
  %241 = load ptr, ptr %it.04.i.i.i, align 8
  %242 = load ptr, ptr %domain, align 8
  %tobool.not.i.i.i.i.i.i = icmp eq ptr %241, null
  br i1 %tobool.not.i.i.i.i.i.i, label %_ZN15ref_buffer_coreI4sort19ref_manager_wrapperIS0_11ast_managerELj16EE7dec_refEPS0_.exit.i.i.i, label %if.then.i.i.i.i.i.i

if.then.i.i.i.i.i.i:                              ; preds = %for.body.i.i.i617
  %m_ref_count.i.i.i.i.i.i.i = getelementptr inbounds %class.ast, ptr %241, i64 0, i32 2
  %243 = load i32, ptr %m_ref_count.i.i.i.i.i.i.i, align 4
  %dec.i.i.i.i.i.i.i = add i32 %243, -1
  store i32 %dec.i.i.i.i.i.i.i, ptr %m_ref_count.i.i.i.i.i.i.i, align 4
  %cmp.i.i.i.i.i.i = icmp eq i32 %dec.i.i.i.i.i.i.i, 0
  br i1 %cmp.i.i.i.i.i.i, label %if.then2.i.i.i.i.i.i, label %_ZN15ref_buffer_coreI4sort19ref_manager_wrapperIS0_11ast_managerELj16EE7dec_refEPS0_.exit.i.i.i

if.then2.i.i.i.i.i.i:                             ; preds = %if.then.i.i.i.i.i.i
  invoke void @_ZN11ast_manager11delete_nodeEP3ast(ptr noundef nonnull align 8 dereferenceable(976) %242, ptr noundef nonnull %241)
          to label %_ZN15ref_buffer_coreI4sort19ref_manager_wrapperIS0_11ast_managerELj16EE7dec_refEPS0_.exit.i.i.i unwind label %terminate.lpad.i.i620

_ZN15ref_buffer_coreI4sort19ref_manager_wrapperIS0_11ast_managerELj16EE7dec_refEPS0_.exit.i.i.i: ; preds = %if.then2.i.i.i.i.i.i, %if.then.i.i.i.i.i.i, %for.body.i.i.i617
  %incdec.ptr.i.i.i = getelementptr inbounds ptr, ptr %it.04.i.i.i, i64 1
  %cmp.i.i.i618 = icmp ult ptr %incdec.ptr.i.i.i, %add.ptr.i.i.i616
  br i1 %cmp.i.i.i618, label %for.body.i.i.i617, label %invoke.cont5.loopexit.i.i, !llvm.loop !15

invoke.cont5.loopexit.i.i:                        ; preds = %_ZN15ref_buffer_coreI4sort19ref_manager_wrapperIS0_11ast_managerELj16EE7dec_refEPS0_.exit.i.i.i
  %.pre.i.i619 = load ptr, ptr %m_buffer.i.i, align 8
  br label %invoke.cont5.i.i

invoke.cont5.i.i:                                 ; preds = %invoke.cont5.loopexit.i.i, %invoke.cont259
  %244 = phi ptr [ %.pre.i.i619, %invoke.cont5.loopexit.i.i ], [ %239, %invoke.cont259 ]
  %cmp.not.i.i.i.i.i.i = icmp eq ptr %244, %m_initial_buffer.i.i.i.i
  %cmp.i.i.i.i.i.i.i = icmp eq ptr %244, null
  %or.cond.i.i.i.i.i.i = or i1 %cmp.not.i.i.i.i.i.i, %cmp.i.i.i.i.i.i.i
  br i1 %or.cond.i.i.i.i.i.i, label %_ZN10ref_bufferI4sort11ast_managerLj16EED2Ev.exit, label %if.end.i.i.i.i.i.i.i

if.end.i.i.i.i.i.i.i:                             ; preds = %invoke.cont5.i.i
  invoke void @_ZN6memory10deallocateEPv(ptr noundef nonnull %244)
          to label %_ZN10ref_bufferI4sort11ast_managerLj16EED2Ev.exit unwind label %terminate.lpad.i.i.i.i

terminate.lpad.i.i.i.i:                           ; preds = %if.end.i.i.i.i.i.i.i
  %245 = landingpad { ptr, i32 }
          catch ptr null
  %246 = extractvalue { ptr, i32 } %245, 0
  call void @__clang_call_terminate(ptr %246) #16
  unreachable

terminate.lpad.i.i620:                            ; preds = %if.then2.i.i.i.i.i.i
  %247 = landingpad { ptr, i32 }
          catch ptr null
  %248 = extractvalue { ptr, i32 } %247, 0
  call void @__clang_call_terminate(ptr %248) #16
  unreachable

_ZN10ref_bufferI4sort11ast_managerLj16EED2Ev.exit: ; preds = %invoke.cont5.i.i, %if.end.i.i.i.i.i.i.i
  %249 = load ptr, ptr %args, align 8
  %cmp.not.i.i.i.i622 = icmp eq ptr %249, %m_initial_buffer.i.i
  %cmp.i.i.i.i.i623 = icmp eq ptr %249, null
  %or.cond.i.i.i.i624 = or i1 %cmp.not.i.i.i.i622, %cmp.i.i.i.i.i623
  br i1 %or.cond.i.i.i.i624, label %_ZN10ptr_bufferI4exprLj16EED2Ev.exit627, label %if.end.i.i.i.i.i625

if.end.i.i.i.i.i625:                              ; preds = %_ZN10ref_bufferI4sort11ast_managerLj16EED2Ev.exit
  invoke void @_ZN6memory10deallocateEPv(ptr noundef nonnull %249)
          to label %_ZN10ptr_bufferI4exprLj16EED2Ev.exit627 unwind label %terminate.lpad.i.i626

terminate.lpad.i.i626:                            ; preds = %if.end.i.i.i.i.i625
  %250 = landingpad { ptr, i32 }
          catch ptr null
  %251 = extractvalue { ptr, i32 } %250, 0
  call void @__clang_call_terminate(ptr %251) #16
  unreachable

_ZN10ptr_bufferI4exprLj16EED2Ev.exit627:          ; preds = %_ZN10ref_bufferI4sort11ast_managerLj16EED2Ev.exit, %if.end.i.i.i.i.i625
  %252 = load ptr, ptr %m_nodes.i.i, align 8
  %cmp.i.i.i629 = icmp eq ptr %252, null
  br i1 %cmp.i.i.i629, label %_ZN10ref_vectorI4expr11ast_managerED2Ev.exit, label %_ZNK6vectorIP4exprLb0EjE4sizeEv.exit.i.i630

_ZNK6vectorIP4exprLb0EjE4sizeEv.exit.i.i630:      ; preds = %_ZN10ptr_bufferI4exprLj16EED2Ev.exit627
  %arrayidx.i.i.i631 = getelementptr inbounds i32, ptr %252, i64 -1
  %253 = load i32, ptr %arrayidx.i.i.i631, align 4
  %254 = zext i32 %253 to i64
  %add.ptr.i.i632 = getelementptr inbounds ptr, ptr %252, i64 %254
  %cmp3.i.not.i.i633 = icmp eq i32 %253, 0
  br i1 %cmp3.i.not.i.i633, label %if.then.i.i.i.i.i644, label %for.body.i.i.i634

for.body.i.i.i634:                                ; preds = %_ZNK6vectorIP4exprLb0EjE4sizeEv.exit.i.i630, %_ZN15ref_vector_coreI4expr19ref_manager_wrapperIS0_11ast_managerEE7dec_refEPS0_.exit.i.i.i
  %it.04.i.i.i635 = phi ptr [ %incdec.ptr.i.i.i641, %_ZN15ref_vector_coreI4expr19ref_manager_wrapperIS0_11ast_managerEE7dec_refEPS0_.exit.i.i.i ], [ %252, %_ZNK6vectorIP4exprLb0EjE4sizeEv.exit.i.i630 ]
  %255 = load ptr, ptr %it.04.i.i.i635, align 8
  %256 = load ptr, ptr %result, align 8
  %tobool.not.i.i.i.i.i.i636 = icmp eq ptr %255, null
  br i1 %tobool.not.i.i.i.i.i.i636, label %_ZN15ref_vector_coreI4expr19ref_manager_wrapperIS0_11ast_managerEE7dec_refEPS0_.exit.i.i.i, label %if.then.i.i.i.i.i.i637

if.then.i.i.i.i.i.i637:                           ; preds = %for.body.i.i.i634
  %m_ref_count.i.i.i.i.i.i.i638 = getelementptr inbounds %class.ast, ptr %255, i64 0, i32 2
  %257 = load i32, ptr %m_ref_count.i.i.i.i.i.i.i638, align 4
  %dec.i.i.i.i.i.i.i639 = add i32 %257, -1
  store i32 %dec.i.i.i.i.i.i.i639, ptr %m_ref_count.i.i.i.i.i.i.i638, align 4
  %cmp.i.i.i.i.i.i640 = icmp eq i32 %dec.i.i.i.i.i.i.i639, 0
  br i1 %cmp.i.i.i.i.i.i640, label %if.then2.i.i.i.i.i.i646, label %_ZN15ref_vector_coreI4expr19ref_manager_wrapperIS0_11ast_managerEE7dec_refEPS0_.exit.i.i.i

if.then2.i.i.i.i.i.i646:                          ; preds = %if.then.i.i.i.i.i.i637
  invoke void @_ZN11ast_manager11delete_nodeEP3ast(ptr noundef nonnull align 8 dereferenceable(976) %256, ptr noundef nonnull %255)
          to label %_ZN15ref_vector_coreI4expr19ref_manager_wrapperIS0_11ast_managerEE7dec_refEPS0_.exit.i.i.i unwind label %terminate.lpad.i.i647

_ZN15ref_vector_coreI4expr19ref_manager_wrapperIS0_11ast_managerEE7dec_refEPS0_.exit.i.i.i: ; preds = %if.then2.i.i.i.i.i.i646, %if.then.i.i.i.i.i.i637, %for.body.i.i.i634
  %incdec.ptr.i.i.i641 = getelementptr inbounds ptr, ptr %it.04.i.i.i635, i64 1
  %cmp.i1.i.i = icmp ult ptr %incdec.ptr.i.i.i641, %add.ptr.i.i632
  br i1 %cmp.i1.i.i, label %for.body.i.i.i634, label %invoke.cont8.i.i, !llvm.loop !19

invoke.cont8.i.i:                                 ; preds = %_ZN15ref_vector_coreI4expr19ref_manager_wrapperIS0_11ast_managerEE7dec_refEPS0_.exit.i.i.i
  %.pre.i.i642 = load ptr, ptr %m_nodes.i.i, align 8
  %tobool.not.i.i.i.i.i643 = icmp eq ptr %.pre.i.i642, null
  br i1 %tobool.not.i.i.i.i.i643, label %_ZN10ref_vectorI4expr11ast_managerED2Ev.exit, label %if.then.i.i.i.i.i644

if.then.i.i.i.i.i644:                             ; preds = %invoke.cont8.i.i, %_ZNK6vectorIP4exprLb0EjE4sizeEv.exit.i.i630
  %258 = phi ptr [ %.pre.i.i642, %invoke.cont8.i.i ], [ %252, %_ZNK6vectorIP4exprLb0EjE4sizeEv.exit.i.i630 ]
  %add.ptr.i.i.i.i.i.i = getelementptr inbounds i32, ptr %258, i64 -2
  invoke void @_ZN6memory10deallocateEPv(ptr noundef nonnull %add.ptr.i.i.i.i.i.i)
          to label %_ZN10ref_vectorI4expr11ast_managerED2Ev.exit unwind label %terminate.lpad.i.i.i.i645

terminate.lpad.i.i.i.i645:                        ; preds = %if.then.i.i.i.i.i644
  %259 = landingpad { ptr, i32 }
          catch ptr null
  %260 = extractvalue { ptr, i32 } %259, 0
  call void @__clang_call_terminate(ptr %260) #16
  unreachable

terminate.lpad.i.i647:                            ; preds = %if.then2.i.i.i.i.i.i646
  %261 = landingpad { ptr, i32 }
          catch ptr null
  %262 = extractvalue { ptr, i32 } %261, 0
  call void @__clang_call_terminate(ptr %262) #16
  unreachable

_ZN10ref_vectorI4expr11ast_managerED2Ev.exit:     ; preds = %_ZN10ptr_bufferI4exprLj16EED2Ev.exit627, %invoke.cont8.i.i, %if.then.i.i.i.i.i644
  %263 = load ptr, ptr %todo, align 8
  %tobool.not.i.i.i = icmp eq ptr %263, null
  br i1 %tobool.not.i.i.i, label %_ZN10ptr_vectorI4exprED2Ev.exit, label %if.then.i.i.i648

if.then.i.i.i648:                                 ; preds = %_ZN10ref_vectorI4expr11ast_managerED2Ev.exit
  %add.ptr.i.i.i.i = getelementptr inbounds i32, ptr %263, i64 -2
  invoke void @_ZN6memory10deallocateEPv(ptr noundef nonnull %add.ptr.i.i.i.i)
          to label %_ZN10ptr_vectorI4exprED2Ev.exit unwind label %terminate.lpad.i.i649

terminate.lpad.i.i649:                            ; preds = %if.then.i.i.i648
  %264 = landingpad { ptr, i32 }
          catch ptr null
  %265 = extractvalue { ptr, i32 } %264, 0
  call void @__clang_call_terminate(ptr %265) #16
  unreachable

_ZN10ptr_vectorI4exprED2Ev.exit:                  ; preds = %_ZN10ref_vectorI4expr11ast_managerED2Ev.exit, %if.then.i.i.i648
  ret void

ehcleanup261:                                     ; preds = %lpad7.loopexit.split-lp.loopexit.split-lp.loopexit.split-lp.loopexit, %lpad7.loopexit.split-lp.loopexit.split-lp.loopexit.split-lp.loopexit.split-lp.loopexit.split-lp, %lpad7.loopexit.split-lp.loopexit.split-lp.loopexit.split-lp.loopexit.split-lp.loopexit, %lpad7.loopexit, %lpad7.loopexit.split-lp.loopexit.split-lp.loopexit, %lpad7.loopexit.split-lp.loopexit, %ehcleanup.i675, %cleanup.action.i670, %lpad233, %lpad223, %ehcleanup, %lpad34.body
  %.pn58 = phi { ptr, i32 } [ %eh.lpad-body, %lpad34.body ], [ %.pn, %ehcleanup ], [ %204, %lpad223 ], [ %214, %lpad233 ], [ %46, %ehcleanup.i675 ], [ %47, %cleanup.action.i670 ], [ %lpad.loopexit706, %lpad7.loopexit ], [ %lpad.loopexit708, %lpad7.loopexit.split-lp.loopexit ], [ %lpad.loopexit711, %lpad7.loopexit.split-lp.loopexit.split-lp.loopexit ], [ %lpad.loopexit758, %lpad7.loopexit.split-lp.loopexit.split-lp.loopexit.split-lp.loopexit ], [ %lpad.loopexit765, %lpad7.loopexit.split-lp.loopexit.split-lp.loopexit.split-lp.loopexit.split-lp.loopexit ], [ %lpad.loopexit.split-lp766, %lpad7.loopexit.split-lp.loopexit.split-lp.loopexit.split-lp.loopexit.split-lp.loopexit.split-lp ]
  call void @_ZN10ref_bufferI4sort11ast_managerLj16EED2Ev(ptr noundef nonnull align 8 dereferenceable(152) %domain) #15
  call void @_ZN10ptr_bufferI4exprLj16EED2Ev(ptr noundef nonnull align 8 dereferenceable(144) %args) #15
  br label %ehcleanup265

ehcleanup265:                                     ; preds = %ehcleanup261, %lpad2
  %.pn58.pn.pn = phi { ptr, i32 } [ %.pn58, %ehcleanup261 ], [ %14, %lpad2 ]
  call void @_ZN10ref_vectorI4expr11ast_managerED2Ev(ptr noundef nonnull align 8 dereferenceable(16) %result) #15
  call void @_ZN10ptr_vectorI4exprED2Ev(ptr noundef nonnull align 8 dereferenceable(8) %todo) #15
  resume { ptr, i32 } %.pn58.pn.pn
}

declare noundef ptr @_ZNK4expr8get_sortEv(ptr noundef nonnull align 4 dereferenceable(16)) local_unnamed_addr #0

declare noundef ptr @_ZN11ast_manager6mk_varEjP4sort(ptr noundef nonnull align 8 dereferenceable(976), i32 noundef, ptr noundef) local_unnamed_addr #0

declare noundef ptr @_ZN11ast_manager13mk_quantifierE15quantifier_kindjPKP4sortPK6symbolP4expriRS6_SA_jPKS9_jSC_(ptr noundef nonnull align 8 dereferenceable(976), i32 noundef, i32 noundef, ptr noundef, ptr noundef, ptr noundef, i32 noundef, ptr noundef nonnull align 8 dereferenceable(8), ptr noundef nonnull align 8 dereferenceable(8), i32 noundef, ptr noundef, i32 noundef, ptr noundef) local_unnamed_addr #0

; Function Attrs: mustprogress nounwind uwtable
define linkonce_odr hidden void @_ZN10ptr_bufferI4exprLj16EED2Ev(ptr noundef nonnull align 8 dereferenceable(144) %this) unnamed_addr #4 comdat align 2 personality ptr @__gxx_personality_v0 {
entry:
  %0 = load ptr, ptr %this, align 8
  %m_initial_buffer.i.i.i = getelementptr inbounds %class.buffer, ptr %this, i64 0, i32 3
  %cmp.not.i.i.i = icmp eq ptr %0, %m_initial_buffer.i.i.i
  %cmp.i.i.i.i = icmp eq ptr %0, null
  %or.cond.i.i.i = or i1 %cmp.not.i.i.i, %cmp.i.i.i.i
  br i1 %or.cond.i.i.i, label %_ZN6bufferIP4exprLb0ELj16EED2Ev.exit, label %if.end.i.i.i.i

if.end.i.i.i.i:                                   ; preds = %entry
  invoke void @_ZN6memory10deallocateEPv(ptr noundef nonnull %0)
          to label %_ZN6bufferIP4exprLb0ELj16EED2Ev.exit unwind label %terminate.lpad.i

terminate.lpad.i:                                 ; preds = %if.end.i.i.i.i
  %1 = landingpad { ptr, i32 }
          catch ptr null
  %2 = extractvalue { ptr, i32 } %1, 0
  tail call void @__clang_call_terminate(ptr %2) #16
  unreachable

_ZN6bufferIP4exprLb0ELj16EED2Ev.exit:             ; preds = %entry, %if.end.i.i.i.i
  ret void
}

declare noundef ptr @_ZN11ast_manager23instantiate_polymorphicEP9func_decljPKP4sortS3_(ptr noundef nonnull align 8 dereferenceable(976), ptr noundef, i32 noundef, ptr noundef, ptr noundef) local_unnamed_addr #0

; Function Attrs: mustprogress nounwind uwtable
define linkonce_odr hidden void @_ZN10ref_bufferI4sort11ast_managerLj16EED2Ev(ptr noundef nonnull align 8 dereferenceable(152) %this) unnamed_addr #4 comdat align 2 personality ptr @__gxx_personality_v0 {
entry:
  %m_buffer.i = getelementptr inbounds %class.ref_buffer_core, ptr %this, i64 0, i32 1
  %0 = load ptr, ptr %m_buffer.i, align 8
  %m_pos.i.i.i = getelementptr inbounds %class.ref_buffer_core, ptr %this, i64 0, i32 1, i32 0, i32 1
  %1 = load i32, ptr %m_pos.i.i.i, align 8
  %idx.ext.i.i = zext i32 %1 to i64
  %add.ptr.i.i = getelementptr inbounds ptr, ptr %0, i64 %idx.ext.i.i
  %cmp3.i.not.i = icmp eq i32 %1, 0
  br i1 %cmp3.i.not.i, label %invoke.cont5.i, label %for.body.i.i

for.body.i.i:                                     ; preds = %entry, %_ZN15ref_buffer_coreI4sort19ref_manager_wrapperIS0_11ast_managerELj16EE7dec_refEPS0_.exit.i.i
  %it.04.i.i = phi ptr [ %incdec.ptr.i.i, %_ZN15ref_buffer_coreI4sort19ref_manager_wrapperIS0_11ast_managerELj16EE7dec_refEPS0_.exit.i.i ], [ %0, %entry ]
  %2 = load ptr, ptr %it.04.i.i, align 8
  %3 = load ptr, ptr %this, align 8
  %tobool.not.i.i.i.i.i = icmp eq ptr %2, null
  br i1 %tobool.not.i.i.i.i.i, label %_ZN15ref_buffer_coreI4sort19ref_manager_wrapperIS0_11ast_managerELj16EE7dec_refEPS0_.exit.i.i, label %if.then.i.i.i.i.i

if.then.i.i.i.i.i:                                ; preds = %for.body.i.i
  %m_ref_count.i.i.i.i.i.i = getelementptr inbounds %class.ast, ptr %2, i64 0, i32 2
  %4 = load i32, ptr %m_ref_count.i.i.i.i.i.i, align 4
  %dec.i.i.i.i.i.i = add i32 %4, -1
  store i32 %dec.i.i.i.i.i.i, ptr %m_ref_count.i.i.i.i.i.i, align 4
  %cmp.i.i.i.i.i = icmp eq i32 %dec.i.i.i.i.i.i, 0
  br i1 %cmp.i.i.i.i.i, label %if.then2.i.i.i.i.i, label %_ZN15ref_buffer_coreI4sort19ref_manager_wrapperIS0_11ast_managerELj16EE7dec_refEPS0_.exit.i.i

if.then2.i.i.i.i.i:                               ; preds = %if.then.i.i.i.i.i
  invoke void @_ZN11ast_manager11delete_nodeEP3ast(ptr noundef nonnull align 8 dereferenceable(976) %3, ptr noundef nonnull %2)
          to label %_ZN15ref_buffer_coreI4sort19ref_manager_wrapperIS0_11ast_managerELj16EE7dec_refEPS0_.exit.i.i unwind label %terminate.lpad.i

_ZN15ref_buffer_coreI4sort19ref_manager_wrapperIS0_11ast_managerELj16EE7dec_refEPS0_.exit.i.i: ; preds = %if.then2.i.i.i.i.i, %if.then.i.i.i.i.i, %for.body.i.i
  %incdec.ptr.i.i = getelementptr inbounds ptr, ptr %it.04.i.i, i64 1
  %cmp.i.i = icmp ult ptr %incdec.ptr.i.i, %add.ptr.i.i
  br i1 %cmp.i.i, label %for.body.i.i, label %invoke.cont5.loopexit.i, !llvm.loop !15

invoke.cont5.loopexit.i:                          ; preds = %_ZN15ref_buffer_coreI4sort19ref_manager_wrapperIS0_11ast_managerELj16EE7dec_refEPS0_.exit.i.i
  %.pre.i = load ptr, ptr %m_buffer.i, align 8
  br label %invoke.cont5.i

invoke.cont5.i:                                   ; preds = %invoke.cont5.loopexit.i, %entry
  %5 = phi ptr [ %.pre.i, %invoke.cont5.loopexit.i ], [ %0, %entry ]
  %m_initial_buffer.i.i.i.i.i = getelementptr inbounds %class.ref_buffer_core, ptr %this, i64 0, i32 1, i32 0, i32 3
  %cmp.not.i.i.i.i.i = icmp eq ptr %5, %m_initial_buffer.i.i.i.i.i
  %cmp.i.i.i.i.i.i = icmp eq ptr %5, null
  %or.cond.i.i.i.i.i = or i1 %cmp.not.i.i.i.i.i, %cmp.i.i.i.i.i.i
  br i1 %or.cond.i.i.i.i.i, label %_ZN15ref_buffer_coreI4sort19ref_manager_wrapperIS0_11ast_managerELj16EED2Ev.exit, label %if.end.i.i.i.i.i.i

if.end.i.i.i.i.i.i:                               ; preds = %invoke.cont5.i
  invoke void @_ZN6memory10deallocateEPv(ptr noundef nonnull %5)
          to label %_ZN15ref_buffer_coreI4sort19ref_manager_wrapperIS0_11ast_managerELj16EED2Ev.exit unwind label %terminate.lpad.i.i.i

terminate.lpad.i.i.i:                             ; preds = %if.end.i.i.i.i.i.i
  %6 = landingpad { ptr, i32 }
          catch ptr null
  %7 = extractvalue { ptr, i32 } %6, 0
  tail call void @__clang_call_terminate(ptr %7) #16
  unreachable

terminate.lpad.i:                                 ; preds = %if.then2.i.i.i.i.i
  %8 = landingpad { ptr, i32 }
          catch ptr null
  %9 = extractvalue { ptr, i32 } %8, 0
  tail call void @__clang_call_terminate(ptr %9) #16
  unreachable

_ZN15ref_buffer_coreI4sort19ref_manager_wrapperIS0_11ast_managerELj16EED2Ev.exit: ; preds = %invoke.cont5.i, %if.end.i.i.i.i.i.i
  ret void
}

; Function Attrs: mustprogress nounwind uwtable
define linkonce_odr hidden void @_ZN10ref_vectorI4expr11ast_managerED2Ev(ptr noundef nonnull align 8 dereferenceable(16) %this) unnamed_addr #4 comdat align 2 personality ptr @__gxx_personality_v0 {
entry:
  %m_nodes.i = getelementptr inbounds %class.ref_vector_core.51, ptr %this, i64 0, i32 1
  %0 = load ptr, ptr %m_nodes.i, align 8
  %cmp.i.i = icmp eq ptr %0, null
  br i1 %cmp.i.i, label %_ZN15ref_vector_coreI4expr19ref_manager_wrapperIS0_11ast_managerEED2Ev.exit, label %_ZNK6vectorIP4exprLb0EjE4sizeEv.exit.i

_ZNK6vectorIP4exprLb0EjE4sizeEv.exit.i:           ; preds = %entry
  %arrayidx.i.i = getelementptr inbounds i32, ptr %0, i64 -1
  %1 = load i32, ptr %arrayidx.i.i, align 4
  %2 = zext i32 %1 to i64
  %add.ptr.i = getelementptr inbounds ptr, ptr %0, i64 %2
  %cmp3.i.not.i = icmp eq i32 %1, 0
  br i1 %cmp3.i.not.i, label %if.then.i.i.i.i, label %for.body.i.i

for.body.i.i:                                     ; preds = %_ZNK6vectorIP4exprLb0EjE4sizeEv.exit.i, %_ZN15ref_vector_coreI4expr19ref_manager_wrapperIS0_11ast_managerEE7dec_refEPS0_.exit.i.i
  %it.04.i.i = phi ptr [ %incdec.ptr.i.i, %_ZN15ref_vector_coreI4expr19ref_manager_wrapperIS0_11ast_managerEE7dec_refEPS0_.exit.i.i ], [ %0, %_ZNK6vectorIP4exprLb0EjE4sizeEv.exit.i ]
  %3 = load ptr, ptr %it.04.i.i, align 8
  %4 = load ptr, ptr %this, align 8
  %tobool.not.i.i.i.i.i = icmp eq ptr %3, null
  br i1 %tobool.not.i.i.i.i.i, label %_ZN15ref_vector_coreI4expr19ref_manager_wrapperIS0_11ast_managerEE7dec_refEPS0_.exit.i.i, label %if.then.i.i.i.i.i

if.then.i.i.i.i.i:                                ; preds = %for.body.i.i
  %m_ref_count.i.i.i.i.i.i = getelementptr inbounds %class.ast, ptr %3, i64 0, i32 2
  %5 = load i32, ptr %m_ref_count.i.i.i.i.i.i, align 4
  %dec.i.i.i.i.i.i = add i32 %5, -1
  store i32 %dec.i.i.i.i.i.i, ptr %m_ref_count.i.i.i.i.i.i, align 4
  %cmp.i.i.i.i.i = icmp eq i32 %dec.i.i.i.i.i.i, 0
  br i1 %cmp.i.i.i.i.i, label %if.then2.i.i.i.i.i, label %_ZN15ref_vector_coreI4expr19ref_manager_wrapperIS0_11ast_managerEE7dec_refEPS0_.exit.i.i

if.then2.i.i.i.i.i:                               ; preds = %if.then.i.i.i.i.i
  invoke void @_ZN11ast_manager11delete_nodeEP3ast(ptr noundef nonnull align 8 dereferenceable(976) %4, ptr noundef nonnull %3)
          to label %_ZN15ref_vector_coreI4expr19ref_manager_wrapperIS0_11ast_managerEE7dec_refEPS0_.exit.i.i unwind label %terminate.lpad.i

_ZN15ref_vector_coreI4expr19ref_manager_wrapperIS0_11ast_managerEE7dec_refEPS0_.exit.i.i: ; preds = %if.then2.i.i.i.i.i, %if.then.i.i.i.i.i, %for.body.i.i
  %incdec.ptr.i.i = getelementptr inbounds ptr, ptr %it.04.i.i, i64 1
  %cmp.i1.i = icmp ult ptr %incdec.ptr.i.i, %add.ptr.i
  br i1 %cmp.i1.i, label %for.body.i.i, label %invoke.cont8.i, !llvm.loop !19

invoke.cont8.i:                                   ; preds = %_ZN15ref_vector_coreI4expr19ref_manager_wrapperIS0_11ast_managerEE7dec_refEPS0_.exit.i.i
  %.pre.i = load ptr, ptr %m_nodes.i, align 8
  %tobool.not.i.i.i.i = icmp eq ptr %.pre.i, null
  br i1 %tobool.not.i.i.i.i, label %_ZN15ref_vector_coreI4expr19ref_manager_wrapperIS0_11ast_managerEED2Ev.exit, label %if.then.i.i.i.i

if.then.i.i.i.i:                                  ; preds = %invoke.cont8.i, %_ZNK6vectorIP4exprLb0EjE4sizeEv.exit.i
  %6 = phi ptr [ %.pre.i, %invoke.cont8.i ], [ %0, %_ZNK6vectorIP4exprLb0EjE4sizeEv.exit.i ]
  %add.ptr.i.i.i.i.i = getelementptr inbounds i32, ptr %6, i64 -2
  invoke void @_ZN6memory10deallocateEPv(ptr noundef nonnull %add.ptr.i.i.i.i.i)
          to label %_ZN15ref_vector_coreI4expr19ref_manager_wrapperIS0_11ast_managerEED2Ev.exit unwind label %terminate.lpad.i.i.i

terminate.lpad.i.i.i:                             ; preds = %if.then.i.i.i.i
  %7 = landingpad { ptr, i32 }
          catch ptr null
  %8 = extractvalue { ptr, i32 } %7, 0
  tail call void @__clang_call_terminate(ptr %8) #16
  unreachable

terminate.lpad.i:                                 ; preds = %if.then2.i.i.i.i.i
  %9 = landingpad { ptr, i32 }
          catch ptr null
  %10 = extractvalue { ptr, i32 } %9, 0
  tail call void @__clang_call_terminate(ptr %10) #16
  unreachable

_ZN15ref_vector_coreI4expr19ref_manager_wrapperIS0_11ast_managerEED2Ev.exit: ; preds = %entry, %invoke.cont8.i, %if.then.i.i.i.i
  ret void
}

; Function Attrs: mustprogress nounwind uwtable
define linkonce_odr hidden void @_ZN10ptr_vectorI4exprED2Ev(ptr noundef nonnull align 8 dereferenceable(8) %this) unnamed_addr #4 comdat align 2 personality ptr @__gxx_personality_v0 {
entry:
  %0 = load ptr, ptr %this, align 8
  %tobool.not.i.i = icmp eq ptr %0, null
  br i1 %tobool.not.i.i, label %_ZN6vectorIP4exprLb0EjED2Ev.exit, label %if.then.i.i

if.then.i.i:                                      ; preds = %entry
  %add.ptr.i.i.i = getelementptr inbounds i32, ptr %0, i64 -2
  invoke void @_ZN6memory10deallocateEPv(ptr noundef nonnull %add.ptr.i.i.i)
          to label %_ZN6vectorIP4exprLb0EjED2Ev.exit unwind label %terminate.lpad.i

terminate.lpad.i:                                 ; preds = %if.then.i.i
  %1 = landingpad { ptr, i32 }
          catch ptr null
  %2 = extractvalue { ptr, i32 } %1, 0
  tail call void @__clang_call_terminate(ptr %2) #16
  unreachable

_ZN6vectorIP4exprLb0EjED2Ev.exit:                 ; preds = %entry, %if.then.i.i
  ret void
}

; Function Attrs: mustprogress uwtable
define hidden noundef zeroext i1 @_ZN12polymorphism12substitution5unifyEP4sortS2_(ptr noundef nonnull align 8 dereferenceable(48) %this, ptr noundef %s1, ptr noundef %s2) local_unnamed_addr #3 align 2 personality ptr @__gxx_personality_v0 {
entry:
  %ref.tmp.i = alloca %"struct.obj_map<sort, sort *>::key_data", align 8
  %s22 = alloca %class.obj_ref, align 8
  %p1 = alloca %class.parameter, align 8
  %p2 = alloca %class.parameter, align 8
  %cmp217349 = icmp eq ptr %s1, %s2
  br i1 %cmp217349, label %return, label %if.end.lr.ph.lr.ph

if.end.lr.ph.lr.ph:                               ; preds = %entry
  %m_sub = getelementptr inbounds %"class.polymorphism::substitution", ptr %this, i64 0, i32 1
  %m_capacity.i.i.i = getelementptr inbounds %"class.polymorphism::substitution", ptr %this, i64 0, i32 1, i32 0, i32 1
  %0 = load i32, ptr %m_capacity.i.i.i, align 8
  %sub.i.i.i = add i32 %0, -1
  %1 = load ptr, ptr %m_sub, align 8
  %idx.ext4.i.i.i = zext i32 %0 to i64
  %add.ptr5.i.i.i = getelementptr inbounds %"class.obj_map<sort, sort *>::obj_map_entry", ptr %1, i64 %idx.ext4.i.i.i
  br label %if.end.lr.ph

if.end.lr.ph:                                     ; preds = %if.end.lr.ph.lr.ph, %if.then3
  %s2.tr.ph351 = phi ptr [ %s2, %if.end.lr.ph.lr.ph ], [ %s2.tr218.us253, %if.then3 ]
  %s1.tr.ph350 = phi ptr [ %s1, %if.end.lr.ph.lr.ph ], [ %29, %if.then3 ]
  %m_info.i.i = getelementptr inbounds %class.decl, ptr %s1.tr.ph350, i64 0, i32 2
  %2 = load ptr, ptr %m_info.i.i, align 8
  %cmp.i.i = icmp eq ptr %2, null
  %m_hash.i.i.i.i.i.i.i = getelementptr inbounds %class.ast, ptr %s1.tr.ph350, i64 0, i32 3
  br i1 %cmp.i.i, label %if.end.us, label %if.end.lr.ph.split

if.end.us:                                        ; preds = %if.end.lr.ph, %if.then10.us
  %s2.tr218.us = phi ptr [ %11, %if.then10.us ], [ %s2.tr.ph351, %if.end.lr.ph ]
  %m_info.i.i7.us = getelementptr inbounds %class.decl, ptr %s2.tr218.us, i64 0, i32 2
  %3 = load ptr, ptr %m_info.i.i7.us, align 8
  %cmp.i.i8.us = icmp eq ptr %3, null
  br i1 %cmp.i.i8.us, label %if.end17, label %_ZNK4sort11is_type_varEv.exit11.us

_ZNK4sort11is_type_varEv.exit11.us:               ; preds = %if.end.us
  %4 = load i32, ptr %3, align 8
  %5 = icmp eq i32 %4, 6
  br i1 %5, label %land.lhs.true7.us, label %if.end17

land.lhs.true7.us:                                ; preds = %_ZNK4sort11is_type_varEv.exit11.us
  %m_hash.i.i.i.i.i.i.i12.us = getelementptr inbounds %class.ast, ptr %s2.tr218.us, i64 0, i32 3
  %6 = load i32, ptr %m_hash.i.i.i.i.i.i.i12.us, align 4
  %and.i.i.i15.us = and i32 %sub.i.i.i, %6
  %idx.ext.i.i.i16.us = zext i32 %and.i.i.i15.us to i64
  %add.ptr.i.i.i17.us = getelementptr inbounds %"class.obj_map<sort, sort *>::obj_map_entry", ptr %1, i64 %idx.ext.i.i.i16.us
  %cmp.not30.i.i.i20.us = icmp eq i32 %and.i.i.i15.us, %0
  br i1 %cmp.not30.i.i.i20.us, label %for.cond18.preheader.i.i.i27.us, label %for.body.i.i.i21.us

for.body.i.i.i21.us:                              ; preds = %land.lhs.true7.us, %for.inc.i.i.i24.us
  %curr.031.i.i.i22.us = phi ptr [ %incdec.ptr.i.i.i25.us, %for.inc.i.i.i24.us ], [ %add.ptr.i.i.i17.us, %land.lhs.true7.us ]
  %7 = load ptr, ptr %curr.031.i.i.i22.us, align 8
  %magicptr25.i.i.i23.us = ptrtoint ptr %7 to i64
  switch i64 %magicptr25.i.i.i23.us, label %if.then.i.i.i44.us [
    i64 0, label %_ZNK4sort11is_type_varEv.exit54
    i64 1, label %for.inc.i.i.i24.us
  ]

if.then.i.i.i44.us:                               ; preds = %for.body.i.i.i21.us
  %m_hash.i.i.i.i.i.i45.us = getelementptr inbounds %class.ast, ptr %7, i64 0, i32 3
  %8 = load i32, ptr %m_hash.i.i.i.i.i.i45.us, align 4
  %cmp8.i.i.i46.us = icmp eq i32 %8, %6
  %cmp.i.i.i.i.i.i47.us = icmp eq ptr %7, %s2.tr218.us
  %or.cond.i.i.i48.us = and i1 %cmp.i.i.i.i.i.i47.us, %cmp8.i.i.i46.us
  br i1 %or.cond.i.i.i48.us, label %if.then10.us, label %for.inc.i.i.i24.us

for.inc.i.i.i24.us:                               ; preds = %if.then.i.i.i44.us, %for.body.i.i.i21.us
  %incdec.ptr.i.i.i25.us = getelementptr inbounds %"class.obj_map<sort, sort *>::obj_map_entry", ptr %curr.031.i.i.i22.us, i64 1
  %cmp.not.i.i.i26.us = icmp eq ptr %incdec.ptr.i.i.i25.us, %add.ptr5.i.i.i
  br i1 %cmp.not.i.i.i26.us, label %for.cond18.preheader.i.i.i27.us, label %for.body.i.i.i21.us, !llvm.loop !4

for.cond18.preheader.i.i.i27.us:                  ; preds = %for.inc.i.i.i24.us, %land.lhs.true7.us
  %cmp19.not32.i.i.i28.us = icmp eq i32 %and.i.i.i15.us, 0
  br i1 %cmp19.not32.i.i.i28.us, label %_ZNK4sort11is_type_varEv.exit54, label %for.body20.i.i.i29.us

for.body20.i.i.i29.us:                            ; preds = %for.cond18.preheader.i.i.i27.us, %for.inc36.i.i.i32.us
  %curr.133.i.i.i30.us = phi ptr [ %incdec.ptr37.i.i.i33.us, %for.inc36.i.i.i32.us ], [ %1, %for.cond18.preheader.i.i.i27.us ]
  %9 = load ptr, ptr %curr.133.i.i.i30.us, align 8
  %magicptr27.i.i.i31.us = ptrtoint ptr %9 to i64
  switch i64 %magicptr27.i.i.i31.us, label %if.then22.i.i.i36.us [
    i64 0, label %_ZNK4sort11is_type_varEv.exit54
    i64 1, label %for.inc36.i.i.i32.us
  ]

if.then22.i.i.i36.us:                             ; preds = %for.body20.i.i.i29.us
  %m_hash.i.i.i22.i.i.i37.us = getelementptr inbounds %class.ast, ptr %9, i64 0, i32 3
  %10 = load i32, ptr %m_hash.i.i.i22.i.i.i37.us, align 4
  %cmp24.i.i.i38.us = icmp eq i32 %10, %6
  %cmp.i.i.i23.i.i.i39.us = icmp eq ptr %9, %s2.tr218.us
  %or.cond26.i.i.i40.us = and i1 %cmp.i.i.i23.i.i.i39.us, %cmp24.i.i.i38.us
  br i1 %or.cond26.i.i.i40.us, label %if.then10.us, label %for.inc36.i.i.i32.us

for.inc36.i.i.i32.us:                             ; preds = %if.then22.i.i.i36.us, %for.body20.i.i.i29.us
  %incdec.ptr37.i.i.i33.us = getelementptr inbounds %"class.obj_map<sort, sort *>::obj_map_entry", ptr %curr.133.i.i.i30.us, i64 1
  %cmp19.not.i.i.i34.us = icmp eq ptr %incdec.ptr37.i.i.i33.us, %add.ptr.i.i.i17.us
  br i1 %cmp19.not.i.i.i34.us, label %_ZNK4sort11is_type_varEv.exit54, label %for.body20.i.i.i29.us, !llvm.loop !6

if.then10.us:                                     ; preds = %if.then.i.i.i44.us, %if.then22.i.i.i36.us
  %retval.0.i.i.i42.us = phi ptr [ %curr.133.i.i.i30.us, %if.then22.i.i.i36.us ], [ %curr.031.i.i.i22.us, %if.then.i.i.i44.us ]
  %m_value.i43.us = getelementptr inbounds %"struct.obj_map<sort, sort *>::key_data", ptr %retval.0.i.i.i42.us, i64 0, i32 1
  %11 = load ptr, ptr %m_value.i43.us, align 8
  %cmp.us = icmp eq ptr %s1.tr.ph350, %11
  br i1 %cmp.us, label %return, label %if.end.us

if.end.lr.ph.split:                               ; preds = %if.end.lr.ph
  %12 = load i32, ptr %2, align 8
  %13 = icmp eq i32 %12, 6
  br i1 %13, label %if.end.lr.ph.split.split.us, label %if.end

if.end.lr.ph.split.split.us:                      ; preds = %if.end.lr.ph.split
  %14 = load i32, ptr %m_hash.i.i.i.i.i.i.i, align 4
  %and.i.i.i.us = and i32 %sub.i.i.i, %14
  %idx.ext.i.i.i.us = zext i32 %and.i.i.i.us to i64
  %add.ptr.i.i.i.us = getelementptr inbounds %"class.obj_map<sort, sort *>::obj_map_entry", ptr %1, i64 %idx.ext.i.i.i.us
  %cmp.not30.i.i.i.us = icmp eq i32 %and.i.i.i.us, %0
  %cmp19.not32.i.i.i.us = icmp eq i32 %and.i.i.i.us, 0
  br label %if.end.us252

if.end.us252:                                     ; preds = %if.then10.us288, %if.end.lr.ph.split.split.us
  %s2.tr218.us253 = phi ptr [ %s2.tr.ph351, %if.end.lr.ph.split.split.us ], [ %27, %if.then10.us288 ]
  br i1 %cmp.not30.i.i.i.us, label %for.cond18.preheader.i.i.i.us, label %for.body.i.i.i.us

for.body.i.i.i.us:                                ; preds = %if.end.us252, %for.inc.i.i.i.us
  %curr.031.i.i.i.us = phi ptr [ %incdec.ptr.i.i.i.us, %for.inc.i.i.i.us ], [ %add.ptr.i.i.i.us, %if.end.us252 ]
  %15 = load ptr, ptr %curr.031.i.i.i.us, align 8
  %magicptr25.i.i.i.us = ptrtoint ptr %15 to i64
  switch i64 %magicptr25.i.i.i.us, label %if.then.i.i.i.us [
    i64 0, label %if.end5.us254
    i64 1, label %for.inc.i.i.i.us
  ]

if.then.i.i.i.us:                                 ; preds = %for.body.i.i.i.us
  %m_hash.i.i.i.i.i.i.us = getelementptr inbounds %class.ast, ptr %15, i64 0, i32 3
  %16 = load i32, ptr %m_hash.i.i.i.i.i.i.us, align 4
  %cmp8.i.i.i.us = icmp eq i32 %16, %14
  %cmp.i.i.i.i.i.i.us = icmp eq ptr %15, %s1.tr.ph350
  %or.cond.i.i.i.us = and i1 %cmp.i.i.i.i.i.i.us, %cmp8.i.i.i.us
  br i1 %or.cond.i.i.i.us, label %if.then3, label %for.inc.i.i.i.us

for.inc.i.i.i.us:                                 ; preds = %if.then.i.i.i.us, %for.body.i.i.i.us
  %incdec.ptr.i.i.i.us = getelementptr inbounds %"class.obj_map<sort, sort *>::obj_map_entry", ptr %curr.031.i.i.i.us, i64 1
  %cmp.not.i.i.i.us = icmp eq ptr %incdec.ptr.i.i.i.us, %add.ptr5.i.i.i
  br i1 %cmp.not.i.i.i.us, label %for.cond18.preheader.i.i.i.us, label %for.body.i.i.i.us, !llvm.loop !4

for.cond18.preheader.i.i.i.us:                    ; preds = %for.inc.i.i.i.us, %if.end.us252
  br i1 %cmp19.not32.i.i.i.us, label %if.end5.us254, label %for.body20.i.i.i.us

for.body20.i.i.i.us:                              ; preds = %for.cond18.preheader.i.i.i.us, %for.inc36.i.i.i.us
  %curr.133.i.i.i.us = phi ptr [ %incdec.ptr37.i.i.i.us, %for.inc36.i.i.i.us ], [ %1, %for.cond18.preheader.i.i.i.us ]
  %17 = load ptr, ptr %curr.133.i.i.i.us, align 8
  %magicptr27.i.i.i.us = ptrtoint ptr %17 to i64
  switch i64 %magicptr27.i.i.i.us, label %if.then22.i.i.i.us [
    i64 0, label %if.end5.us254
    i64 1, label %for.inc36.i.i.i.us
  ]

if.then22.i.i.i.us:                               ; preds = %for.body20.i.i.i.us
  %m_hash.i.i.i22.i.i.i.us = getelementptr inbounds %class.ast, ptr %17, i64 0, i32 3
  %18 = load i32, ptr %m_hash.i.i.i22.i.i.i.us, align 4
  %cmp24.i.i.i.us = icmp eq i32 %18, %14
  %cmp.i.i.i23.i.i.i.us = icmp eq ptr %17, %s1.tr.ph350
  %or.cond26.i.i.i.us = and i1 %cmp.i.i.i23.i.i.i.us, %cmp24.i.i.i.us
  br i1 %or.cond26.i.i.i.us, label %if.then3, label %for.inc36.i.i.i.us

for.inc36.i.i.i.us:                               ; preds = %if.then22.i.i.i.us, %for.body20.i.i.i.us
  %incdec.ptr37.i.i.i.us = getelementptr inbounds %"class.obj_map<sort, sort *>::obj_map_entry", ptr %curr.133.i.i.i.us, i64 1
  %cmp19.not.i.i.i.us = icmp eq ptr %incdec.ptr37.i.i.i.us, %add.ptr.i.i.i.us
  br i1 %cmp19.not.i.i.i.us, label %if.end5.us254, label %for.body20.i.i.i.us, !llvm.loop !6

if.end5.us254:                                    ; preds = %for.body.i.i.i.us, %for.body20.i.i.i.us, %for.inc36.i.i.i.us, %for.cond18.preheader.i.i.i.us
  %m_info.i.i7.us255 = getelementptr inbounds %class.decl, ptr %s2.tr218.us253, i64 0, i32 2
  %19 = load ptr, ptr %m_info.i.i7.us255, align 8
  %cmp.i.i8.us256 = icmp eq ptr %19, null
  br i1 %cmp.i.i8.us256, label %if.end17, label %_ZNK4sort11is_type_varEv.exit11.us257

_ZNK4sort11is_type_varEv.exit11.us257:            ; preds = %if.end5.us254
  %20 = load i32, ptr %19, align 8
  %21 = icmp eq i32 %20, 6
  br i1 %21, label %land.lhs.true7.us258, label %if.end17

land.lhs.true7.us258:                             ; preds = %_ZNK4sort11is_type_varEv.exit11.us257
  %m_hash.i.i.i.i.i.i.i12.us259 = getelementptr inbounds %class.ast, ptr %s2.tr218.us253, i64 0, i32 3
  %22 = load i32, ptr %m_hash.i.i.i.i.i.i.i12.us259, align 4
  %and.i.i.i15.us260 = and i32 %sub.i.i.i, %22
  %idx.ext.i.i.i16.us261 = zext i32 %and.i.i.i15.us260 to i64
  %add.ptr.i.i.i17.us262 = getelementptr inbounds %"class.obj_map<sort, sort *>::obj_map_entry", ptr %1, i64 %idx.ext.i.i.i16.us261
  %cmp.not30.i.i.i20.us263 = icmp eq i32 %and.i.i.i15.us260, %0
  br i1 %cmp.not30.i.i.i20.us263, label %for.cond18.preheader.i.i.i27.us275, label %for.body.i.i.i21.us264

for.body.i.i.i21.us264:                           ; preds = %land.lhs.true7.us258, %for.inc.i.i.i24.us272
  %curr.031.i.i.i22.us265 = phi ptr [ %incdec.ptr.i.i.i25.us273, %for.inc.i.i.i24.us272 ], [ %add.ptr.i.i.i17.us262, %land.lhs.true7.us258 ]
  %23 = load ptr, ptr %curr.031.i.i.i22.us265, align 8
  %magicptr25.i.i.i23.us266 = ptrtoint ptr %23 to i64
  switch i64 %magicptr25.i.i.i23.us266, label %if.then.i.i.i44.us267 [
    i64 0, label %_ZNK4sort11is_type_varEv.exit54
    i64 1, label %for.inc.i.i.i24.us272
  ]

if.then.i.i.i44.us267:                            ; preds = %for.body.i.i.i21.us264
  %m_hash.i.i.i.i.i.i45.us268 = getelementptr inbounds %class.ast, ptr %23, i64 0, i32 3
  %24 = load i32, ptr %m_hash.i.i.i.i.i.i45.us268, align 4
  %cmp8.i.i.i46.us269 = icmp eq i32 %24, %22
  %cmp.i.i.i.i.i.i47.us270 = icmp eq ptr %23, %s2.tr218.us253
  %or.cond.i.i.i48.us271 = and i1 %cmp.i.i.i.i.i.i47.us270, %cmp8.i.i.i46.us269
  br i1 %or.cond.i.i.i48.us271, label %if.then10.us288, label %for.inc.i.i.i24.us272

for.inc.i.i.i24.us272:                            ; preds = %if.then.i.i.i44.us267, %for.body.i.i.i21.us264
  %incdec.ptr.i.i.i25.us273 = getelementptr inbounds %"class.obj_map<sort, sort *>::obj_map_entry", ptr %curr.031.i.i.i22.us265, i64 1
  %cmp.not.i.i.i26.us274 = icmp eq ptr %incdec.ptr.i.i.i25.us273, %add.ptr5.i.i.i
  br i1 %cmp.not.i.i.i26.us274, label %for.cond18.preheader.i.i.i27.us275, label %for.body.i.i.i21.us264, !llvm.loop !4

for.cond18.preheader.i.i.i27.us275:               ; preds = %for.inc.i.i.i24.us272, %land.lhs.true7.us258
  %cmp19.not32.i.i.i28.us276 = icmp eq i32 %and.i.i.i15.us260, 0
  br i1 %cmp19.not32.i.i.i28.us276, label %_ZNK4sort11is_type_varEv.exit54, label %for.body20.i.i.i29.us277

for.body20.i.i.i29.us277:                         ; preds = %for.cond18.preheader.i.i.i27.us275, %for.inc36.i.i.i32.us285
  %curr.133.i.i.i30.us278 = phi ptr [ %incdec.ptr37.i.i.i33.us286, %for.inc36.i.i.i32.us285 ], [ %1, %for.cond18.preheader.i.i.i27.us275 ]
  %25 = load ptr, ptr %curr.133.i.i.i30.us278, align 8
  %magicptr27.i.i.i31.us279 = ptrtoint ptr %25 to i64
  switch i64 %magicptr27.i.i.i31.us279, label %if.then22.i.i.i36.us280 [
    i64 0, label %_ZNK4sort11is_type_varEv.exit54
    i64 1, label %for.inc36.i.i.i32.us285
  ]

if.then22.i.i.i36.us280:                          ; preds = %for.body20.i.i.i29.us277
  %m_hash.i.i.i22.i.i.i37.us281 = getelementptr inbounds %class.ast, ptr %25, i64 0, i32 3
  %26 = load i32, ptr %m_hash.i.i.i22.i.i.i37.us281, align 4
  %cmp24.i.i.i38.us282 = icmp eq i32 %26, %22
  %cmp.i.i.i23.i.i.i39.us283 = icmp eq ptr %25, %s2.tr218.us253
  %or.cond26.i.i.i40.us284 = and i1 %cmp.i.i.i23.i.i.i39.us283, %cmp24.i.i.i38.us282
  br i1 %or.cond26.i.i.i40.us284, label %if.then10.us288, label %for.inc36.i.i.i32.us285

for.inc36.i.i.i32.us285:                          ; preds = %if.then22.i.i.i36.us280, %for.body20.i.i.i29.us277
  %incdec.ptr37.i.i.i33.us286 = getelementptr inbounds %"class.obj_map<sort, sort *>::obj_map_entry", ptr %curr.133.i.i.i30.us278, i64 1
  %cmp19.not.i.i.i34.us287 = icmp eq ptr %incdec.ptr37.i.i.i33.us286, %add.ptr.i.i.i17.us262
  br i1 %cmp19.not.i.i.i34.us287, label %_ZNK4sort11is_type_varEv.exit54, label %for.body20.i.i.i29.us277, !llvm.loop !6

if.then10.us288:                                  ; preds = %if.then.i.i.i44.us267, %if.then22.i.i.i36.us280
  %retval.0.i.i.i42.us289 = phi ptr [ %curr.133.i.i.i30.us278, %if.then22.i.i.i36.us280 ], [ %curr.031.i.i.i22.us265, %if.then.i.i.i44.us267 ]
  %m_value.i43.us290 = getelementptr inbounds %"struct.obj_map<sort, sort *>::key_data", ptr %retval.0.i.i.i42.us289, i64 0, i32 1
  %27 = load ptr, ptr %m_value.i43.us290, align 8
  %cmp.us291 = icmp eq ptr %s1.tr.ph350, %27
  br i1 %cmp.us291, label %return, label %if.end.us252

if.end:                                           ; preds = %if.end.lr.ph.split, %if.then10
  %s2.tr218 = phi ptr [ %37, %if.then10 ], [ %s2.tr.ph351, %if.end.lr.ph.split ]
  %m_info.i.i7 = getelementptr inbounds %class.decl, ptr %s2.tr218, i64 0, i32 2
  %28 = load ptr, ptr %m_info.i.i7, align 8
  %cmp.i.i8 = icmp eq ptr %28, null
  br i1 %cmp.i.i8, label %if.end17, label %_ZNK4sort11is_type_varEv.exit11

if.then3:                                         ; preds = %if.then.i.i.i.us, %if.then22.i.i.i.us
  %retval.0.i.i.i = phi ptr [ %curr.133.i.i.i.us, %if.then22.i.i.i.us ], [ %curr.031.i.i.i.us, %if.then.i.i.i.us ]
  %m_value.i = getelementptr inbounds %"struct.obj_map<sort, sort *>::key_data", ptr %retval.0.i.i.i, i64 0, i32 1
  %29 = load ptr, ptr %m_value.i, align 8
  %cmp217 = icmp eq ptr %29, %s2.tr218.us253
  br i1 %cmp217, label %return, label %if.end.lr.ph

_ZNK4sort11is_type_varEv.exit11:                  ; preds = %if.end
  %30 = load i32, ptr %28, align 8
  %31 = icmp eq i32 %30, 6
  br i1 %31, label %land.lhs.true7, label %if.end17

land.lhs.true7:                                   ; preds = %_ZNK4sort11is_type_varEv.exit11
  %m_hash.i.i.i.i.i.i.i12 = getelementptr inbounds %class.ast, ptr %s2.tr218, i64 0, i32 3
  %32 = load i32, ptr %m_hash.i.i.i.i.i.i.i12, align 4
  %and.i.i.i15 = and i32 %sub.i.i.i, %32
  %idx.ext.i.i.i16 = zext i32 %and.i.i.i15 to i64
  %add.ptr.i.i.i17 = getelementptr inbounds %"class.obj_map<sort, sort *>::obj_map_entry", ptr %1, i64 %idx.ext.i.i.i16
  %cmp.not30.i.i.i20 = icmp eq i32 %and.i.i.i15, %0
  br i1 %cmp.not30.i.i.i20, label %for.cond18.preheader.i.i.i27, label %for.body.i.i.i21

for.cond18.preheader.i.i.i27:                     ; preds = %for.inc.i.i.i24, %land.lhs.true7
  %cmp19.not32.i.i.i28 = icmp eq i32 %and.i.i.i15, 0
  br i1 %cmp19.not32.i.i.i28, label %_ZNK4sort11is_type_varEv.exit54, label %for.body20.i.i.i29

for.body.i.i.i21:                                 ; preds = %land.lhs.true7, %for.inc.i.i.i24
  %curr.031.i.i.i22 = phi ptr [ %incdec.ptr.i.i.i25, %for.inc.i.i.i24 ], [ %add.ptr.i.i.i17, %land.lhs.true7 ]
  %33 = load ptr, ptr %curr.031.i.i.i22, align 8
  %magicptr25.i.i.i23 = ptrtoint ptr %33 to i64
  switch i64 %magicptr25.i.i.i23, label %if.then.i.i.i44 [
    i64 0, label %_ZNK4sort11is_type_varEv.exit54
    i64 1, label %for.inc.i.i.i24
  ]

if.then.i.i.i44:                                  ; preds = %for.body.i.i.i21
  %m_hash.i.i.i.i.i.i45 = getelementptr inbounds %class.ast, ptr %33, i64 0, i32 3
  %34 = load i32, ptr %m_hash.i.i.i.i.i.i45, align 4
  %cmp8.i.i.i46 = icmp eq i32 %34, %32
  %cmp.i.i.i.i.i.i47 = icmp eq ptr %33, %s2.tr218
  %or.cond.i.i.i48 = and i1 %cmp.i.i.i.i.i.i47, %cmp8.i.i.i46
  br i1 %or.cond.i.i.i48, label %if.then10, label %for.inc.i.i.i24

for.inc.i.i.i24:                                  ; preds = %if.then.i.i.i44, %for.body.i.i.i21
  %incdec.ptr.i.i.i25 = getelementptr inbounds %"class.obj_map<sort, sort *>::obj_map_entry", ptr %curr.031.i.i.i22, i64 1
  %cmp.not.i.i.i26 = icmp eq ptr %incdec.ptr.i.i.i25, %add.ptr5.i.i.i
  br i1 %cmp.not.i.i.i26, label %for.cond18.preheader.i.i.i27, label %for.body.i.i.i21, !llvm.loop !4

for.body20.i.i.i29:                               ; preds = %for.cond18.preheader.i.i.i27, %for.inc36.i.i.i32
  %curr.133.i.i.i30 = phi ptr [ %incdec.ptr37.i.i.i33, %for.inc36.i.i.i32 ], [ %1, %for.cond18.preheader.i.i.i27 ]
  %35 = load ptr, ptr %curr.133.i.i.i30, align 8
  %magicptr27.i.i.i31 = ptrtoint ptr %35 to i64
  switch i64 %magicptr27.i.i.i31, label %if.then22.i.i.i36 [
    i64 0, label %_ZNK4sort11is_type_varEv.exit54
    i64 1, label %for.inc36.i.i.i32
  ]

if.then22.i.i.i36:                                ; preds = %for.body20.i.i.i29
  %m_hash.i.i.i22.i.i.i37 = getelementptr inbounds %class.ast, ptr %35, i64 0, i32 3
  %36 = load i32, ptr %m_hash.i.i.i22.i.i.i37, align 4
  %cmp24.i.i.i38 = icmp eq i32 %36, %32
  %cmp.i.i.i23.i.i.i39 = icmp eq ptr %35, %s2.tr218
  %or.cond26.i.i.i40 = and i1 %cmp.i.i.i23.i.i.i39, %cmp24.i.i.i38
  br i1 %or.cond26.i.i.i40, label %if.then10, label %for.inc36.i.i.i32

for.inc36.i.i.i32:                                ; preds = %if.then22.i.i.i36, %for.body20.i.i.i29
  %incdec.ptr37.i.i.i33 = getelementptr inbounds %"class.obj_map<sort, sort *>::obj_map_entry", ptr %curr.133.i.i.i30, i64 1
  %cmp19.not.i.i.i34 = icmp eq ptr %incdec.ptr37.i.i.i33, %add.ptr.i.i.i17
  br i1 %cmp19.not.i.i.i34, label %_ZNK4sort11is_type_varEv.exit54, label %for.body20.i.i.i29, !llvm.loop !6

if.then10:                                        ; preds = %if.then.i.i.i44, %if.then22.i.i.i36
  %retval.0.i.i.i42 = phi ptr [ %curr.133.i.i.i30, %if.then22.i.i.i36 ], [ %curr.031.i.i.i22, %if.then.i.i.i44 ]
  %m_value.i43 = getelementptr inbounds %"struct.obj_map<sort, sort *>::key_data", ptr %retval.0.i.i.i42, i64 0, i32 1
  %37 = load ptr, ptr %m_value.i43, align 8
  %cmp = icmp eq ptr %s1.tr.ph350, %37
  br i1 %cmp, label %return, label %if.end

_ZNK4sort11is_type_varEv.exit54:                  ; preds = %for.cond18.preheader.i.i.i27.us275, %for.body.i.i.i21.us264, %for.inc36.i.i.i32.us285, %for.body20.i.i.i29.us277, %for.cond18.preheader.i.i.i27, %for.body.i.i.i21, %for.body20.i.i.i29, %for.inc36.i.i.i32, %for.cond18.preheader.i.i.i27.us, %for.body.i.i.i21.us, %for.body20.i.i.i29.us, %for.inc36.i.i.i32.us
  %.pre = phi ptr [ %3, %for.inc36.i.i.i32.us ], [ %3, %for.body20.i.i.i29.us ], [ %3, %for.body.i.i.i21.us ], [ %3, %for.cond18.preheader.i.i.i27.us ], [ %28, %for.inc36.i.i.i32 ], [ %28, %for.body20.i.i.i29 ], [ %28, %for.body.i.i.i21 ], [ %28, %for.cond18.preheader.i.i.i27 ], [ %19, %for.body20.i.i.i29.us277 ], [ %19, %for.inc36.i.i.i32.us285 ], [ %19, %for.body.i.i.i21.us264 ], [ %19, %for.cond18.preheader.i.i.i27.us275 ]
  %s2.tr212 = phi ptr [ %s2.tr218.us, %for.inc36.i.i.i32.us ], [ %s2.tr218.us, %for.body20.i.i.i29.us ], [ %s2.tr218.us, %for.body.i.i.i21.us ], [ %s2.tr218.us, %for.cond18.preheader.i.i.i27.us ], [ %s2.tr218, %for.inc36.i.i.i32 ], [ %s2.tr218, %for.body20.i.i.i29 ], [ %s2.tr218, %for.body.i.i.i21 ], [ %s2.tr218, %for.cond18.preheader.i.i.i27 ], [ %s2.tr218.us253, %for.body20.i.i.i29.us277 ], [ %s2.tr218.us253, %for.inc36.i.i.i32.us285 ], [ %s2.tr218.us253, %for.body.i.i.i21.us264 ], [ %s2.tr218.us253, %for.cond18.preheader.i.i.i27.us275 ]
  %.pr = load i32, ptr %.pre, align 8
  %38 = icmp eq i32 %.pr, 6
  br i1 %38, label %land.lhs.true14, label %if.end17

land.lhs.true14:                                  ; preds = %_ZNK4sort11is_type_varEv.exit54
  br i1 %cmp.i.i, label %if.then16, label %_ZNK4sort11is_type_varEv.exit59

_ZNK4sort11is_type_varEv.exit59:                  ; preds = %land.lhs.true14
  %39 = load i32, ptr %2, align 8
  %40 = icmp eq i32 %39, 6
  br i1 %40, label %if.end17.thread, label %if.then16

if.then16:                                        ; preds = %land.lhs.true14, %_ZNK4sort11is_type_varEv.exit59
  br label %if.end17.thread

if.end17.thread:                                  ; preds = %_ZNK4sort11is_type_varEv.exit59, %if.then16
  %.ph = phi ptr [ %.pre, %if.then16 ], [ %2, %_ZNK4sort11is_type_varEv.exit59 ]
  %s2.addr.2.ph = phi ptr [ %s1.tr.ph350, %if.then16 ], [ %s2.tr212, %_ZNK4sort11is_type_varEv.exit59 ]
  %s1.addr.2.ph = phi ptr [ %s2.tr212, %if.then16 ], [ %s1.tr.ph350, %_ZNK4sort11is_type_varEv.exit59 ]
  %m_info.i.i60422 = getelementptr inbounds %class.decl, ptr %s1.addr.2.ph, i64 0, i32 2
  br label %_ZNK4sort11is_type_varEv.exit64

if.end17:                                         ; preds = %_ZNK4sort11is_type_varEv.exit11.us257, %if.end5.us254, %_ZNK4sort11is_type_varEv.exit11, %if.end, %_ZNK4sort11is_type_varEv.exit11.us, %if.end.us, %_ZNK4sort11is_type_varEv.exit54
  %s2.addr.2 = phi ptr [ %s2.tr212, %_ZNK4sort11is_type_varEv.exit54 ], [ %s2.tr218.us, %if.end.us ], [ %s2.tr218.us, %_ZNK4sort11is_type_varEv.exit11.us ], [ %s2.tr218, %if.end ], [ %s2.tr218, %_ZNK4sort11is_type_varEv.exit11 ], [ %s2.tr218.us253, %if.end5.us254 ], [ %s2.tr218.us253, %_ZNK4sort11is_type_varEv.exit11.us257 ]
  %m_info.i.i60 = getelementptr inbounds %class.decl, ptr %s1.tr.ph350, i64 0, i32 2
  %cmp.i.i61 = icmp eq ptr %2, null
  br i1 %cmp.i.i61, label %_ZNK4decl13get_family_idEv.exit, label %_ZNK4sort11is_type_varEv.exit64

_ZNK4sort11is_type_varEv.exit64:                  ; preds = %if.end17.thread, %if.end17
  %m_info.i.i60428 = phi ptr [ %m_info.i.i60422, %if.end17.thread ], [ %m_info.i.i60, %if.end17 ]
  %s1.addr.2426 = phi ptr [ %s1.addr.2.ph, %if.end17.thread ], [ %s1.tr.ph350, %if.end17 ]
  %s2.addr.2424 = phi ptr [ %s2.addr.2.ph, %if.end17.thread ], [ %s2.addr.2, %if.end17 ]
  %41 = phi ptr [ %.ph, %if.end17.thread ], [ %2, %if.end17 ]
  %42 = load i32, ptr %41, align 8
  %43 = icmp eq i32 %42, 6
  br i1 %43, label %if.then19, label %_ZNK4decl13get_family_idEv.exit

if.then19:                                        ; preds = %_ZNK4sort11is_type_varEv.exit64
  call void @_ZN12polymorphism12substitutionclEP4sort(ptr nonnull sret(%class.obj_ref) align 8 %s22, ptr noundef nonnull align 8 dereferenceable(48) %this, ptr noundef nonnull %s2.addr.2424)
  %44 = load ptr, ptr %s22, align 8
  %call22 = invoke noundef zeroext i1 @_Z6occursP4sortS0_(ptr noundef nonnull %s1.addr.2426, ptr noundef %44)
          to label %invoke.cont21 unwind label %lpad

invoke.cont21:                                    ; preds = %if.then19
  %.pre408 = load ptr, ptr %s22, align 8
  br i1 %call22, label %cleanup, label %if.end24

lpad:                                             ; preds = %invoke.cont30, %if.then.i.i81, %if.then.i.i, %if.then19
  %45 = landingpad { ptr, i32 }
          cleanup
  call void @_ZN7obj_refI4sort11ast_managerED2Ev(ptr noundef nonnull align 8 dereferenceable(16) %s22) #15
  br label %eh.resume

if.end24:                                         ; preds = %invoke.cont21
  %tobool.not.i.i.i.i = icmp eq ptr %.pre408, null
  br i1 %tobool.not.i.i.i.i, label %_ZN15ref_vector_coreI4sort19ref_manager_wrapperIS0_11ast_managerEE7inc_refEPS0_.exit.i, label %if.then.i.i.i.i

if.then.i.i.i.i:                                  ; preds = %if.end24
  %m_ref_count.i.i.i.i.i = getelementptr inbounds %class.ast, ptr %.pre408, i64 0, i32 2
  %46 = load i32, ptr %m_ref_count.i.i.i.i.i, align 4
  %inc.i.i.i.i.i = add i32 %46, 1
  store i32 %inc.i.i.i.i.i, ptr %m_ref_count.i.i.i.i.i, align 4
  br label %_ZN15ref_vector_coreI4sort19ref_manager_wrapperIS0_11ast_managerEE7inc_refEPS0_.exit.i

_ZN15ref_vector_coreI4sort19ref_manager_wrapperIS0_11ast_managerEE7inc_refEPS0_.exit.i: ; preds = %if.then.i.i.i.i, %if.end24
  %m_nodes.i = getelementptr inbounds %"class.polymorphism::substitution", ptr %this, i64 0, i32 2, i32 0, i32 1
  %47 = load ptr, ptr %m_nodes.i, align 8
  %cmp.i.i65 = icmp eq ptr %47, null
  br i1 %cmp.i.i65, label %if.then.i.i, label %lor.lhs.false.i.i

lor.lhs.false.i.i:                                ; preds = %_ZN15ref_vector_coreI4sort19ref_manager_wrapperIS0_11ast_managerEE7inc_refEPS0_.exit.i
  %arrayidx.i.i = getelementptr inbounds i32, ptr %47, i64 -1
  %48 = load i32, ptr %arrayidx.i.i, align 4
  %arrayidx4.i.i = getelementptr inbounds i32, ptr %47, i64 -2
  %49 = load i32, ptr %arrayidx4.i.i, align 4
  %cmp5.i.i = icmp eq i32 %48, %49
  br i1 %cmp5.i.i, label %if.then.i.i, label %_ZN15ref_vector_coreI4sort19ref_manager_wrapperIS0_11ast_managerEE7inc_refEPS0_.exit.i70

if.then.i.i:                                      ; preds = %lor.lhs.false.i.i, %_ZN15ref_vector_coreI4sort19ref_manager_wrapperIS0_11ast_managerEE7inc_refEPS0_.exit.i
  invoke void @_ZN6vectorIP4sortLb0EjE13expand_vectorEv(ptr noundef nonnull align 8 dereferenceable(8) %m_nodes.i)
          to label %.noexc unwind label %lpad

.noexc:                                           ; preds = %if.then.i.i
  %.pre.i.i = load ptr, ptr %m_nodes.i, align 8
  %arrayidx8.phi.trans.insert.i.i = getelementptr inbounds i32, ptr %.pre.i.i, i64 -1
  %.pre1.i.i = load i32, ptr %arrayidx8.phi.trans.insert.i.i, align 4
  br label %_ZN15ref_vector_coreI4sort19ref_manager_wrapperIS0_11ast_managerEE7inc_refEPS0_.exit.i70

_ZN15ref_vector_coreI4sort19ref_manager_wrapperIS0_11ast_managerEE7inc_refEPS0_.exit.i70: ; preds = %.noexc, %lor.lhs.false.i.i
  %50 = phi i32 [ %.pre1.i.i, %.noexc ], [ %48, %lor.lhs.false.i.i ]
  %51 = phi ptr [ %.pre.i.i, %.noexc ], [ %47, %lor.lhs.false.i.i ]
  %idx.ext.i.i = zext i32 %50 to i64
  %add.ptr.i.i = getelementptr inbounds ptr, ptr %51, i64 %idx.ext.i.i
  store ptr %.pre408, ptr %add.ptr.i.i, align 8
  %52 = load ptr, ptr %m_nodes.i, align 8
  %arrayidx10.i.i = getelementptr inbounds i32, ptr %52, i64 -1
  %53 = load i32, ptr %arrayidx10.i.i, align 4
  %inc.i.i = add i32 %53, 1
  store i32 %inc.i.i, ptr %arrayidx10.i.i, align 4
  %m_ref_count.i.i.i.i.i68 = getelementptr inbounds %class.ast, ptr %s1.addr.2426, i64 0, i32 2
  %54 = load i32, ptr %m_ref_count.i.i.i.i.i68, align 4
  %inc.i.i.i.i.i69 = add i32 %54, 1
  store i32 %inc.i.i.i.i.i69, ptr %m_ref_count.i.i.i.i.i68, align 4
  %55 = load ptr, ptr %m_nodes.i, align 8
  %cmp.i.i72 = icmp eq ptr %55, null
  br i1 %cmp.i.i72, label %if.then.i.i81, label %lor.lhs.false.i.i73

lor.lhs.false.i.i73:                              ; preds = %_ZN15ref_vector_coreI4sort19ref_manager_wrapperIS0_11ast_managerEE7inc_refEPS0_.exit.i70
  %arrayidx.i.i74 = getelementptr inbounds i32, ptr %55, i64 -1
  %56 = load i32, ptr %arrayidx.i.i74, align 4
  %arrayidx4.i.i75 = getelementptr inbounds i32, ptr %55, i64 -2
  %57 = load i32, ptr %arrayidx4.i.i75, align 4
  %cmp5.i.i76 = icmp eq i32 %56, %57
  br i1 %cmp5.i.i76, label %if.then.i.i81, label %invoke.cont30

if.then.i.i81:                                    ; preds = %lor.lhs.false.i.i73, %_ZN15ref_vector_coreI4sort19ref_manager_wrapperIS0_11ast_managerEE7inc_refEPS0_.exit.i70
  invoke void @_ZN6vectorIP4sortLb0EjE13expand_vectorEv(ptr noundef nonnull align 8 dereferenceable(8) %m_nodes.i)
          to label %.noexc85 unwind label %lpad

.noexc85:                                         ; preds = %if.then.i.i81
  %.pre.i.i82 = load ptr, ptr %m_nodes.i, align 8
  %arrayidx8.phi.trans.insert.i.i83 = getelementptr inbounds i32, ptr %.pre.i.i82, i64 -1
  %.pre1.i.i84 = load i32, ptr %arrayidx8.phi.trans.insert.i.i83, align 4
  br label %invoke.cont30

invoke.cont30:                                    ; preds = %.noexc85, %lor.lhs.false.i.i73
  %58 = phi i32 [ %.pre1.i.i84, %.noexc85 ], [ %56, %lor.lhs.false.i.i73 ]
  %59 = phi ptr [ %.pre.i.i82, %.noexc85 ], [ %55, %lor.lhs.false.i.i73 ]
  %idx.ext.i.i77 = zext i32 %58 to i64
  %add.ptr.i.i78 = getelementptr inbounds ptr, ptr %59, i64 %idx.ext.i.i77
  store ptr %s1.addr.2426, ptr %add.ptr.i.i78, align 8
  %60 = load ptr, ptr %m_nodes.i, align 8
  %arrayidx10.i.i79 = getelementptr inbounds i32, ptr %60, i64 -1
  %61 = load i32, ptr %arrayidx10.i.i79, align 4
  %inc.i.i80 = add i32 %61, 1
  store i32 %inc.i.i80, ptr %arrayidx10.i.i79, align 4
  call void @llvm.lifetime.start.p0(i64 16, ptr nonnull %ref.tmp.i)
  store ptr %s1.addr.2426, ptr %ref.tmp.i, align 8
  %m_value.i.i = getelementptr inbounds %"struct.obj_map<sort, sort *>::key_data", ptr %ref.tmp.i, i64 0, i32 1
  store ptr %.pre408, ptr %m_value.i.i, align 8
  invoke void @_ZN14core_hashtableIN7obj_mapI4sortPS1_E13obj_map_entryE8obj_hashINS3_8key_dataEE10default_eqIS6_EE6insertEOS6_(ptr noundef nonnull align 8 dereferenceable(20) %m_sub, ptr noundef nonnull align 8 dereferenceable(16) %ref.tmp.i)
          to label %_ZN7obj_mapI4sortPS0_E6insertES1_OS1_.exit unwind label %lpad

_ZN7obj_mapI4sortPS0_E6insertES1_OS1_.exit:       ; preds = %invoke.cont30
  call void @llvm.lifetime.end.p0(i64 16, ptr nonnull %ref.tmp.i)
  br label %cleanup

cleanup:                                          ; preds = %_ZN7obj_mapI4sortPS0_E6insertES1_OS1_.exit, %invoke.cont21
  %retval.0 = xor i1 %call22, true
  %tobool.not.i.i = icmp eq ptr %.pre408, null
  br i1 %tobool.not.i.i, label %return, label %if.then.i.i.i88

if.then.i.i.i88:                                  ; preds = %cleanup
  %m_manager.i.i = getelementptr inbounds %class.obj_ref, ptr %s22, i64 0, i32 1
  %62 = load ptr, ptr %m_manager.i.i, align 8
  %m_ref_count.i.i.i.i = getelementptr inbounds %class.ast, ptr %.pre408, i64 0, i32 2
  %63 = load i32, ptr %m_ref_count.i.i.i.i, align 4
  %dec.i.i.i.i = add i32 %63, -1
  store i32 %dec.i.i.i.i, ptr %m_ref_count.i.i.i.i, align 4
  %cmp.i.i.i = icmp eq i32 %dec.i.i.i.i, 0
  br i1 %cmp.i.i.i, label %if.then2.i.i.i, label %return

if.then2.i.i.i:                                   ; preds = %if.then.i.i.i88
  invoke void @_ZN11ast_manager11delete_nodeEP3ast(ptr noundef nonnull align 8 dereferenceable(976) %62, ptr noundef nonnull %.pre408)
          to label %return unwind label %terminate.lpad.i

terminate.lpad.i:                                 ; preds = %if.then2.i.i.i
  %64 = landingpad { ptr, i32 }
          catch ptr null
  %65 = extractvalue { ptr, i32 } %64, 0
  call void @__clang_call_terminate(ptr %65) #16
  unreachable

_ZNK4decl13get_family_idEv.exit:                  ; preds = %_ZNK4sort11is_type_varEv.exit64, %if.end17
  %cmp.i.i61431 = phi i1 [ true, %if.end17 ], [ false, %_ZNK4sort11is_type_varEv.exit64 ]
  %m_info.i.i60429 = phi ptr [ %m_info.i.i60, %if.end17 ], [ %m_info.i.i60428, %_ZNK4sort11is_type_varEv.exit64 ]
  %s1.addr.2427 = phi ptr [ %s1.tr.ph350, %if.end17 ], [ %s1.addr.2426, %_ZNK4sort11is_type_varEv.exit64 ]
  %s2.addr.2425 = phi ptr [ %s2.addr.2, %if.end17 ], [ %s2.addr.2424, %_ZNK4sort11is_type_varEv.exit64 ]
  %66 = phi ptr [ null, %if.end17 ], [ %41, %_ZNK4sort11is_type_varEv.exit64 ]
  %cond.i = phi i32 [ -1, %if.end17 ], [ %42, %_ZNK4sort11is_type_varEv.exit64 ]
  %m_info.i89 = getelementptr inbounds %class.decl, ptr %s2.addr.2425, i64 0, i32 2
  %67 = load ptr, ptr %m_info.i89, align 8
  %cmp.i90 = icmp eq ptr %67, null
  br i1 %cmp.i90, label %_ZNK4decl13get_family_idEv.exit93, label %cond.false.i91

cond.false.i91:                                   ; preds = %_ZNK4decl13get_family_idEv.exit
  %68 = load i32, ptr %67, align 8
  br label %_ZNK4decl13get_family_idEv.exit93

_ZNK4decl13get_family_idEv.exit93:                ; preds = %_ZNK4decl13get_family_idEv.exit, %cond.false.i91
  %cond.i92 = phi i32 [ %68, %cond.false.i91 ], [ -1, %_ZNK4decl13get_family_idEv.exit ]
  %cmp39.not = icmp eq i32 %cond.i, %cond.i92
  br i1 %cmp39.not, label %if.end41, label %return

if.end41:                                         ; preds = %_ZNK4decl13get_family_idEv.exit93
  br i1 %cmp.i.i61431, label %_ZNK4decl13get_decl_kindEv.exit, label %cond.false.i96

cond.false.i96:                                   ; preds = %if.end41
  %m_kind.i.i = getelementptr inbounds %class.decl_info, ptr %66, i64 0, i32 1
  %69 = load i32, ptr %m_kind.i.i, align 4
  br label %_ZNK4decl13get_decl_kindEv.exit

_ZNK4decl13get_decl_kindEv.exit:                  ; preds = %if.end41, %cond.false.i96
  %cond.i97 = phi i32 [ %69, %cond.false.i96 ], [ -1, %if.end41 ]
  br i1 %cmp.i90, label %_ZNK4decl13get_decl_kindEv.exit103, label %cond.false.i100

cond.false.i100:                                  ; preds = %_ZNK4decl13get_decl_kindEv.exit
  %m_kind.i.i101 = getelementptr inbounds %class.decl_info, ptr %67, i64 0, i32 1
  %70 = load i32, ptr %m_kind.i.i101, align 4
  br label %_ZNK4decl13get_decl_kindEv.exit103

_ZNK4decl13get_decl_kindEv.exit103:               ; preds = %_ZNK4decl13get_decl_kindEv.exit, %cond.false.i100
  %cond.i102 = phi i32 [ %70, %cond.false.i100 ], [ -1, %_ZNK4decl13get_decl_kindEv.exit ]
  %cmp44.not = icmp eq i32 %cond.i97, %cond.i102
  br i1 %cmp44.not, label %if.end46, label %return

if.end46:                                         ; preds = %_ZNK4decl13get_decl_kindEv.exit103
  %m_name.i = getelementptr inbounds %class.decl, ptr %s1.addr.2427, i64 0, i32 1
  %m_name.i104 = getelementptr inbounds %class.decl, ptr %s2.addr.2425, i64 0, i32 1
  %71 = load ptr, ptr %m_name.i, align 8
  %72 = load ptr, ptr %m_name.i104, align 8
  %cmp.i105.not = icmp eq ptr %71, %72
  br i1 %cmp.i105.not, label %if.end51, label %return

if.end51:                                         ; preds = %if.end46
  br i1 %cmp.i.i61431, label %_ZNK4decl18get_num_parametersEv.exit, label %cond.false.i108

cond.false.i108:                                  ; preds = %if.end51
  %m_parameters.i.i = getelementptr inbounds %class.decl_info, ptr %66, i64 0, i32 2
  %73 = load ptr, ptr %m_parameters.i.i, align 8
  %cmp.i.i.i109 = icmp eq ptr %73, null
  br i1 %cmp.i.i.i109, label %_ZNK4decl18get_num_parametersEv.exit, label %if.end.i.i.i

if.end.i.i.i:                                     ; preds = %cond.false.i108
  %arrayidx.i.i.i = getelementptr inbounds i32, ptr %73, i64 -1
  %74 = load i32, ptr %arrayidx.i.i.i, align 4
  br label %_ZNK4decl18get_num_parametersEv.exit

_ZNK4decl18get_num_parametersEv.exit:             ; preds = %if.end51, %cond.false.i108, %if.end.i.i.i
  %cond.i110 = phi i32 [ 0, %if.end51 ], [ %74, %if.end.i.i.i ], [ 0, %cond.false.i108 ]
  br i1 %cmp.i90, label %_ZNK4decl18get_num_parametersEv.exit119, label %cond.false.i113

cond.false.i113:                                  ; preds = %_ZNK4decl18get_num_parametersEv.exit
  %m_parameters.i.i114 = getelementptr inbounds %class.decl_info, ptr %67, i64 0, i32 2
  %75 = load ptr, ptr %m_parameters.i.i114, align 8
  %cmp.i.i.i115 = icmp eq ptr %75, null
  br i1 %cmp.i.i.i115, label %_ZNK4decl18get_num_parametersEv.exit119, label %if.end.i.i.i116

if.end.i.i.i116:                                  ; preds = %cond.false.i113
  %arrayidx.i.i.i117 = getelementptr inbounds i32, ptr %75, i64 -1
  %76 = load i32, ptr %arrayidx.i.i.i117, align 4
  br label %_ZNK4decl18get_num_parametersEv.exit119

_ZNK4decl18get_num_parametersEv.exit119:          ; preds = %_ZNK4decl18get_num_parametersEv.exit, %cond.false.i113, %if.end.i.i.i116
  %cond.i118 = phi i32 [ 0, %_ZNK4decl18get_num_parametersEv.exit ], [ %76, %if.end.i.i.i116 ], [ 0, %cond.false.i113 ]
  %cmp54.not = icmp eq i32 %cond.i110, %cond.i118
  br i1 %cmp54.not, label %if.end56, label %return

if.end56:                                         ; preds = %_ZNK4decl18get_num_parametersEv.exit119
  br i1 %cmp.i.i61431, label %_ZNK4decl18get_num_parametersEv.exit128, label %cond.false.i122

cond.false.i122:                                  ; preds = %if.end56
  %m_parameters.i.i123 = getelementptr inbounds %class.decl_info, ptr %66, i64 0, i32 2
  %77 = load ptr, ptr %m_parameters.i.i123, align 8
  %cmp.i.i.i124 = icmp eq ptr %77, null
  br i1 %cmp.i.i.i124, label %_ZNK4decl18get_num_parametersEv.exit128, label %if.end.i.i.i125

if.end.i.i.i125:                                  ; preds = %cond.false.i122
  %arrayidx.i.i.i126 = getelementptr inbounds i32, ptr %77, i64 -1
  %78 = load i32, ptr %arrayidx.i.i.i126, align 4
  %79 = zext i32 %78 to i64
  br label %_ZNK4decl18get_num_parametersEv.exit128

_ZNK4decl18get_num_parametersEv.exit128:          ; preds = %if.end56, %cond.false.i122, %if.end.i.i.i125
  %cond.i127 = phi i64 [ 0, %if.end56 ], [ %79, %if.end.i.i.i125 ], [ 0, %cond.false.i122 ]
  %_M_index.i.i.i.i.i.i.i.i.i = getelementptr inbounds %"struct.std::__detail::__variant::_Variant_storage", ptr %p1, i64 0, i32 1
  %_M_index.i.i.i.i.i.i.i.i.i136 = getelementptr inbounds %"struct.std::__detail::__variant::_Variant_storage", ptr %p2, i64 0, i32 1
  br label %for.cond

for.cond:                                         ; preds = %cleanup100, %_ZNK4decl18get_num_parametersEv.exit128
  %indvars.iv = phi i64 [ %80, %cleanup100 ], [ %cond.i127, %_ZNK4decl18get_num_parametersEv.exit128 ]
  %80 = add nsw i64 %indvars.iv, -1
  %cmp58.not = icmp eq i64 %indvars.iv, 0
  br i1 %cmp58.not, label %return, label %invoke.cont61

invoke.cont61:                                    ; preds = %for.cond
  %81 = load ptr, ptr %m_info.i.i60429, align 8
  %m_parameters.i.i130 = getelementptr inbounds %class.decl_info, ptr %81, i64 0, i32 2
  %82 = load ptr, ptr %m_parameters.i.i130, align 8
  %arrayidx.i.i.i131 = getelementptr inbounds %class.parameter, ptr %82, i64 %80
  store i32 0, ptr %p1, align 8
  store i8 0, ptr %_M_index.i.i.i.i.i.i.i.i.i, align 8
  %call.i = call noundef nonnull align 8 dereferenceable(16) ptr @_ZN9parameteraSERKS_(ptr noundef nonnull align 8 dereferenceable(16) %p1, ptr noundef nonnull align 8 dereferenceable(16) %arrayidx.i.i.i131)
  %83 = load ptr, ptr %m_info.i89, align 8
  %m_parameters.i.i133 = getelementptr inbounds %class.decl_info, ptr %83, i64 0, i32 2
  %84 = load ptr, ptr %m_parameters.i.i133, align 8
  %arrayidx.i.i.i135 = getelementptr inbounds %class.parameter, ptr %84, i64 %80
  store i32 0, ptr %p2, align 8
  store i8 0, ptr %_M_index.i.i.i.i.i.i.i.i.i136, align 8
  %call.i137138 = invoke noundef nonnull align 8 dereferenceable(16) ptr @_ZN9parameteraSERKS_(ptr noundef nonnull align 8 dereferenceable(16) %p2, ptr noundef nonnull align 8 dereferenceable(16) %arrayidx.i.i.i135)
          to label %invoke.cont65 unwind label %lpad60

invoke.cont65:                                    ; preds = %invoke.cont61
  %85 = load i8, ptr %_M_index.i.i.i.i.i.i.i.i.i, align 8
  %cmp.i139 = icmp eq i8 %85, 1
  br i1 %cmp.i139, label %invoke.cont70, label %if.end95

invoke.cont70:                                    ; preds = %invoke.cont65
  %86 = load ptr, ptr %p1, align 8
  %m_kind.i.i143 = getelementptr inbounds %class.ast, ptr %86, i64 0, i32 1
  %bf.load.i.i = load i32, ptr %m_kind.i.i143, align 4
  %bf.clear.i.i = and i32 %bf.load.i.i, 65535
  %cmp.i144 = icmp eq i32 %bf.clear.i.i, 3
  br i1 %cmp.i144, label %invoke.cont73, label %if.end95

invoke.cont73:                                    ; preds = %invoke.cont70
  %87 = load i8, ptr %_M_index.i.i.i.i.i.i.i.i.i136, align 8
  %cmp.i146 = icmp eq i8 %87, 1
  br i1 %cmp.i146, label %invoke.cont79, label %cleanup100

lpad60:                                           ; preds = %invoke.cont61
  %88 = landingpad { ptr, i32 }
          cleanup
  br label %ehcleanup

lpad64:                                           ; preds = %if.end95, %invoke.cont87, %invoke.cont83, %if.end82
  %89 = landingpad { ptr, i32 }
          cleanup
  call void @_ZN9parameterD1Ev(ptr noundef nonnull align 8 dereferenceable(16) %p2) #15
  br label %ehcleanup

invoke.cont79:                                    ; preds = %invoke.cont73
  %90 = load ptr, ptr %p2, align 8
  %m_kind.i.i154 = getelementptr inbounds %class.ast, ptr %90, i64 0, i32 1
  %bf.load.i.i155 = load i32, ptr %m_kind.i.i154, align 4
  %bf.clear.i.i156 = and i32 %bf.load.i.i155, 65535
  %cmp.i157 = icmp eq i32 %bf.clear.i.i156, 3
  br i1 %cmp.i157, label %if.end82, label %cleanup100

if.end82:                                         ; preds = %invoke.cont79
  %call84 = invoke noundef ptr @_ZNK9parameter7get_astEv(ptr noundef nonnull align 8 dereferenceable(16) %p1)
          to label %invoke.cont83 unwind label %lpad64

invoke.cont83:                                    ; preds = %if.end82
  %call88 = invoke noundef ptr @_ZNK9parameter7get_astEv(ptr noundef nonnull align 8 dereferenceable(16) %p2)
          to label %invoke.cont87 unwind label %lpad64

invoke.cont87:                                    ; preds = %invoke.cont83
  %call92 = invoke noundef zeroext i1 @_ZN12polymorphism12substitution5unifyEP4sortS2_(ptr noundef nonnull align 8 dereferenceable(48) %this, ptr noundef %call84, ptr noundef %call88)
          to label %invoke.cont91 unwind label %lpad64

invoke.cont91:                                    ; preds = %invoke.cont87
  %spec.select = select i1 %call92, i32 3, i32 1
  br label %cleanup100

if.end95:                                         ; preds = %invoke.cont70, %invoke.cont65
  %call.i158159 = invoke noundef zeroext i1 @_ZNK9parametereqERKS_(ptr noundef nonnull align 8 dereferenceable(16) %p1, ptr noundef nonnull align 8 dereferenceable(16) %p2)
          to label %invoke.cont96 unwind label %lpad64

invoke.cont96:                                    ; preds = %if.end95
  %lnot.i = xor i1 %call.i158159, true
  %.6 = zext i1 %lnot.i to i32
  br label %cleanup100

cleanup100:                                       ; preds = %invoke.cont91, %invoke.cont96, %invoke.cont79, %invoke.cont73
  %cleanup.dest.slot.0 = phi i32 [ 1, %invoke.cont73 ], [ 1, %invoke.cont79 ], [ %.6, %invoke.cont96 ], [ %spec.select, %invoke.cont91 ]
  call void @_ZN9parameterD1Ev(ptr noundef nonnull align 8 dereferenceable(16) %p2) #15
  call void @_ZN9parameterD1Ev(ptr noundef nonnull align 8 dereferenceable(16) %p1) #15
  %switch = icmp eq i32 %cleanup.dest.slot.0, 1
  br i1 %switch, label %return, label %for.cond

ehcleanup:                                        ; preds = %lpad64, %lpad60
  %.pn = phi { ptr, i32 } [ %89, %lpad64 ], [ %88, %lpad60 ]
  call void @_ZN9parameterD1Ev(ptr noundef nonnull align 8 dereferenceable(16) %p1) #15
  br label %eh.resume

return:                                           ; preds = %if.then3, %if.then10.us288, %if.then10, %if.then10.us, %for.cond, %cleanup100, %entry, %if.then2.i.i.i, %if.then.i.i.i88, %cleanup, %_ZNK4decl18get_num_parametersEv.exit119, %if.end46, %_ZNK4decl13get_decl_kindEv.exit103, %_ZNK4decl13get_family_idEv.exit93
  %retval.3 = phi i1 [ false, %_ZNK4decl13get_family_idEv.exit93 ], [ false, %_ZNK4decl13get_decl_kindEv.exit103 ], [ false, %if.end46 ], [ false, %_ZNK4decl18get_num_parametersEv.exit119 ], [ %retval.0, %cleanup ], [ %retval.0, %if.then.i.i.i88 ], [ %retval.0, %if.then2.i.i.i ], [ true, %entry ], [ %cmp58.not, %cleanup100 ], [ %cmp58.not, %for.cond ], [ true, %if.then10.us ], [ true, %if.then10 ], [ true, %if.then10.us288 ], [ true, %if.then3 ]
  ret i1 %retval.3

eh.resume:                                        ; preds = %ehcleanup, %lpad
  %.pn4 = phi { ptr, i32 } [ %45, %lpad ], [ %.pn, %ehcleanup ]
  resume { ptr, i32 } %.pn4
}

declare noundef zeroext i1 @_Z6occursP4sortS0_(ptr noundef, ptr noundef) local_unnamed_addr #0

; Function Attrs: mustprogress uwtable
define hidden noundef zeroext i1 @_ZN12polymorphism12substitution5matchEP4sortS2_(ptr noundef nonnull align 8 dereferenceable(48) %this, ptr noundef %s1, ptr noundef %s2) local_unnamed_addr #3 align 2 personality ptr @__gxx_personality_v0 {
entry:
  %ref.tmp.i = alloca %"struct.obj_map<sort, sort *>::key_data", align 8
  %p1 = alloca %class.parameter, align 8
  %p2 = alloca %class.parameter, align 8
  %cmp132 = icmp eq ptr %s1, %s2
  br i1 %cmp132, label %return, label %if.end.lr.ph

if.end.lr.ph:                                     ; preds = %entry
  %m_sub = getelementptr inbounds %"class.polymorphism::substitution", ptr %this, i64 0, i32 1
  %m_capacity.i.i.i = getelementptr inbounds %"class.polymorphism::substitution", ptr %this, i64 0, i32 1, i32 0, i32 1
  %0 = load i32, ptr %m_capacity.i.i.i, align 8
  %sub.i.i.i = add i32 %0, -1
  %1 = load ptr, ptr %m_sub, align 8
  %idx.ext4.i.i.i = zext i32 %0 to i64
  %add.ptr5.i.i.i = getelementptr inbounds %"class.obj_map<sort, sort *>::obj_map_entry", ptr %1, i64 %idx.ext4.i.i.i
  br label %if.end

if.end:                                           ; preds = %if.end.lr.ph, %if.then3
  %s1.tr133 = phi ptr [ %s1, %if.end.lr.ph ], [ %10, %if.then3 ]
  %m_info.i.i = getelementptr inbounds %class.decl, ptr %s1.tr133, i64 0, i32 2
  %2 = load ptr, ptr %m_info.i.i, align 8
  %cmp.i.i = icmp eq ptr %2, null
  br i1 %cmp.i.i, label %_ZNK4decl13get_family_idEv.exit, label %_ZNK4sort11is_type_varEv.exit

_ZNK4sort11is_type_varEv.exit:                    ; preds = %if.end
  %3 = load i32, ptr %2, align 8
  %4 = icmp eq i32 %3, 6
  br i1 %4, label %land.lhs.true, label %_ZNK4decl13get_family_idEv.exit

land.lhs.true:                                    ; preds = %_ZNK4sort11is_type_varEv.exit
  %m_hash.i.i.i.i.i.i.i = getelementptr inbounds %class.ast, ptr %s1.tr133, i64 0, i32 3
  %5 = load i32, ptr %m_hash.i.i.i.i.i.i.i, align 4
  %and.i.i.i = and i32 %sub.i.i.i, %5
  %idx.ext.i.i.i = zext i32 %and.i.i.i to i64
  %add.ptr.i.i.i = getelementptr inbounds %"class.obj_map<sort, sort *>::obj_map_entry", ptr %1, i64 %idx.ext.i.i.i
  %cmp.not30.i.i.i = icmp eq i32 %and.i.i.i, %0
  br i1 %cmp.not30.i.i.i, label %for.cond18.preheader.i.i.i, label %for.body.i.i.i

for.cond18.preheader.i.i.i:                       ; preds = %for.inc.i.i.i, %land.lhs.true
  %cmp19.not32.i.i.i = icmp eq i32 %and.i.i.i, 0
  br i1 %cmp19.not32.i.i.i, label %if.end5, label %for.body20.i.i.i

for.body.i.i.i:                                   ; preds = %land.lhs.true, %for.inc.i.i.i
  %curr.031.i.i.i = phi ptr [ %incdec.ptr.i.i.i, %for.inc.i.i.i ], [ %add.ptr.i.i.i, %land.lhs.true ]
  %6 = load ptr, ptr %curr.031.i.i.i, align 8
  %magicptr25.i.i.i = ptrtoint ptr %6 to i64
  switch i64 %magicptr25.i.i.i, label %if.then.i.i.i [
    i64 0, label %if.end5
    i64 1, label %for.inc.i.i.i
  ]

if.then.i.i.i:                                    ; preds = %for.body.i.i.i
  %m_hash.i.i.i.i.i.i = getelementptr inbounds %class.ast, ptr %6, i64 0, i32 3
  %7 = load i32, ptr %m_hash.i.i.i.i.i.i, align 4
  %cmp8.i.i.i = icmp eq i32 %7, %5
  %cmp.i.i.i.i.i.i = icmp eq ptr %6, %s1.tr133
  %or.cond.i.i.i = and i1 %cmp.i.i.i.i.i.i, %cmp8.i.i.i
  br i1 %or.cond.i.i.i, label %if.then3, label %for.inc.i.i.i

for.inc.i.i.i:                                    ; preds = %if.then.i.i.i, %for.body.i.i.i
  %incdec.ptr.i.i.i = getelementptr inbounds %"class.obj_map<sort, sort *>::obj_map_entry", ptr %curr.031.i.i.i, i64 1
  %cmp.not.i.i.i = icmp eq ptr %incdec.ptr.i.i.i, %add.ptr5.i.i.i
  br i1 %cmp.not.i.i.i, label %for.cond18.preheader.i.i.i, label %for.body.i.i.i, !llvm.loop !4

for.body20.i.i.i:                                 ; preds = %for.cond18.preheader.i.i.i, %for.inc36.i.i.i
  %curr.133.i.i.i = phi ptr [ %incdec.ptr37.i.i.i, %for.inc36.i.i.i ], [ %1, %for.cond18.preheader.i.i.i ]
  %8 = load ptr, ptr %curr.133.i.i.i, align 8
  %magicptr27.i.i.i = ptrtoint ptr %8 to i64
  switch i64 %magicptr27.i.i.i, label %if.then22.i.i.i [
    i64 0, label %if.end5
    i64 1, label %for.inc36.i.i.i
  ]

if.then22.i.i.i:                                  ; preds = %for.body20.i.i.i
  %m_hash.i.i.i22.i.i.i = getelementptr inbounds %class.ast, ptr %8, i64 0, i32 3
  %9 = load i32, ptr %m_hash.i.i.i22.i.i.i, align 4
  %cmp24.i.i.i = icmp eq i32 %9, %5
  %cmp.i.i.i23.i.i.i = icmp eq ptr %8, %s1.tr133
  %or.cond26.i.i.i = and i1 %cmp.i.i.i23.i.i.i, %cmp24.i.i.i
  br i1 %or.cond26.i.i.i, label %if.then3, label %for.inc36.i.i.i

for.inc36.i.i.i:                                  ; preds = %if.then22.i.i.i, %for.body20.i.i.i
  %incdec.ptr37.i.i.i = getelementptr inbounds %"class.obj_map<sort, sort *>::obj_map_entry", ptr %curr.133.i.i.i, i64 1
  %cmp19.not.i.i.i = icmp eq ptr %incdec.ptr37.i.i.i, %add.ptr.i.i.i
  br i1 %cmp19.not.i.i.i, label %if.end5, label %for.body20.i.i.i, !llvm.loop !6

if.then3:                                         ; preds = %if.then.i.i.i, %if.then22.i.i.i
  %retval.0.i.i.i = phi ptr [ %curr.133.i.i.i, %if.then22.i.i.i ], [ %curr.031.i.i.i, %if.then.i.i.i ]
  %m_value.i = getelementptr inbounds %"struct.obj_map<sort, sort *>::key_data", ptr %retval.0.i.i.i, i64 0, i32 1
  %10 = load ptr, ptr %m_value.i, align 8
  %cmp = icmp eq ptr %10, %s2
  br i1 %cmp, label %return, label %if.end

if.end5:                                          ; preds = %for.cond18.preheader.i.i.i, %for.body.i.i.i, %for.inc36.i.i.i, %for.body20.i.i.i
  br i1 %cmp.i.i, label %_ZNK4decl13get_family_idEv.exit, label %_ZNK4sort11is_type_varEv.exit9

_ZNK4sort11is_type_varEv.exit9:                   ; preds = %if.end5
  %.pr = load i32, ptr %2, align 8
  %11 = icmp eq i32 %.pr, 6
  br i1 %11, label %if.then7, label %_ZNK4decl13get_family_idEv.exit

if.then7:                                         ; preds = %_ZNK4sort11is_type_varEv.exit9
  %tobool.not.i.i.i.i = icmp eq ptr %s2, null
  br i1 %tobool.not.i.i.i.i, label %_ZN15ref_vector_coreI4sort19ref_manager_wrapperIS0_11ast_managerEE7inc_refEPS0_.exit.i, label %if.then.i.i.i.i

if.then.i.i.i.i:                                  ; preds = %if.then7
  %m_ref_count.i.i.i.i.i = getelementptr inbounds %class.ast, ptr %s2, i64 0, i32 2
  %12 = load i32, ptr %m_ref_count.i.i.i.i.i, align 4
  %inc.i.i.i.i.i = add i32 %12, 1
  store i32 %inc.i.i.i.i.i, ptr %m_ref_count.i.i.i.i.i, align 4
  br label %_ZN15ref_vector_coreI4sort19ref_manager_wrapperIS0_11ast_managerEE7inc_refEPS0_.exit.i

_ZN15ref_vector_coreI4sort19ref_manager_wrapperIS0_11ast_managerEE7inc_refEPS0_.exit.i: ; preds = %if.then.i.i.i.i, %if.then7
  %m_nodes.i = getelementptr inbounds %"class.polymorphism::substitution", ptr %this, i64 0, i32 2, i32 0, i32 1
  %13 = load ptr, ptr %m_nodes.i, align 8
  %cmp.i.i10 = icmp eq ptr %13, null
  br i1 %cmp.i.i10, label %if.then.i.i, label %lor.lhs.false.i.i

lor.lhs.false.i.i:                                ; preds = %_ZN15ref_vector_coreI4sort19ref_manager_wrapperIS0_11ast_managerEE7inc_refEPS0_.exit.i
  %arrayidx.i.i = getelementptr inbounds i32, ptr %13, i64 -1
  %14 = load i32, ptr %arrayidx.i.i, align 4
  %arrayidx4.i.i = getelementptr inbounds i32, ptr %13, i64 -2
  %15 = load i32, ptr %arrayidx4.i.i, align 4
  %cmp5.i.i = icmp eq i32 %14, %15
  br i1 %cmp5.i.i, label %if.then.i.i, label %_ZN15ref_vector_coreI4sort19ref_manager_wrapperIS0_11ast_managerEE7inc_refEPS0_.exit.i15

if.then.i.i:                                      ; preds = %lor.lhs.false.i.i, %_ZN15ref_vector_coreI4sort19ref_manager_wrapperIS0_11ast_managerEE7inc_refEPS0_.exit.i
  tail call void @_ZN6vectorIP4sortLb0EjE13expand_vectorEv(ptr noundef nonnull align 8 dereferenceable(8) %m_nodes.i)
  %.pre.i.i = load ptr, ptr %m_nodes.i, align 8
  %arrayidx8.phi.trans.insert.i.i = getelementptr inbounds i32, ptr %.pre.i.i, i64 -1
  %.pre1.i.i = load i32, ptr %arrayidx8.phi.trans.insert.i.i, align 4
  br label %_ZN15ref_vector_coreI4sort19ref_manager_wrapperIS0_11ast_managerEE7inc_refEPS0_.exit.i15

_ZN15ref_vector_coreI4sort19ref_manager_wrapperIS0_11ast_managerEE7inc_refEPS0_.exit.i15: ; preds = %lor.lhs.false.i.i, %if.then.i.i
  %16 = phi i32 [ %.pre1.i.i, %if.then.i.i ], [ %14, %lor.lhs.false.i.i ]
  %17 = phi ptr [ %.pre.i.i, %if.then.i.i ], [ %13, %lor.lhs.false.i.i ]
  %idx.ext.i.i = zext i32 %16 to i64
  %add.ptr.i.i = getelementptr inbounds ptr, ptr %17, i64 %idx.ext.i.i
  store ptr %s2, ptr %add.ptr.i.i, align 8
  %18 = load ptr, ptr %m_nodes.i, align 8
  %arrayidx10.i.i = getelementptr inbounds i32, ptr %18, i64 -1
  %19 = load i32, ptr %arrayidx10.i.i, align 4
  %inc.i.i = add i32 %19, 1
  store i32 %inc.i.i, ptr %arrayidx10.i.i, align 4
  %m_ref_count.i.i.i.i.i13 = getelementptr inbounds %class.ast, ptr %s1.tr133, i64 0, i32 2
  %20 = load i32, ptr %m_ref_count.i.i.i.i.i13, align 4
  %inc.i.i.i.i.i14 = add i32 %20, 1
  store i32 %inc.i.i.i.i.i14, ptr %m_ref_count.i.i.i.i.i13, align 4
  %21 = load ptr, ptr %m_nodes.i, align 8
  %cmp.i.i17 = icmp eq ptr %21, null
  br i1 %cmp.i.i17, label %if.then.i.i26, label %lor.lhs.false.i.i18

lor.lhs.false.i.i18:                              ; preds = %_ZN15ref_vector_coreI4sort19ref_manager_wrapperIS0_11ast_managerEE7inc_refEPS0_.exit.i15
  %arrayidx.i.i19 = getelementptr inbounds i32, ptr %21, i64 -1
  %22 = load i32, ptr %arrayidx.i.i19, align 4
  %arrayidx4.i.i20 = getelementptr inbounds i32, ptr %21, i64 -2
  %23 = load i32, ptr %arrayidx4.i.i20, align 4
  %cmp5.i.i21 = icmp eq i32 %22, %23
  br i1 %cmp5.i.i21, label %if.then.i.i26, label %_ZN15ref_vector_coreI4sort19ref_manager_wrapperIS0_11ast_managerEE9push_backEPS0_.exit30

if.then.i.i26:                                    ; preds = %lor.lhs.false.i.i18, %_ZN15ref_vector_coreI4sort19ref_manager_wrapperIS0_11ast_managerEE7inc_refEPS0_.exit.i15
  tail call void @_ZN6vectorIP4sortLb0EjE13expand_vectorEv(ptr noundef nonnull align 8 dereferenceable(8) %m_nodes.i)
  %.pre.i.i27 = load ptr, ptr %m_nodes.i, align 8
  %arrayidx8.phi.trans.insert.i.i28 = getelementptr inbounds i32, ptr %.pre.i.i27, i64 -1
  %.pre1.i.i29 = load i32, ptr %arrayidx8.phi.trans.insert.i.i28, align 4
  br label %_ZN15ref_vector_coreI4sort19ref_manager_wrapperIS0_11ast_managerEE9push_backEPS0_.exit30

_ZN15ref_vector_coreI4sort19ref_manager_wrapperIS0_11ast_managerEE9push_backEPS0_.exit30: ; preds = %lor.lhs.false.i.i18, %if.then.i.i26
  %24 = phi i32 [ %.pre1.i.i29, %if.then.i.i26 ], [ %22, %lor.lhs.false.i.i18 ]
  %25 = phi ptr [ %.pre.i.i27, %if.then.i.i26 ], [ %21, %lor.lhs.false.i.i18 ]
  %idx.ext.i.i22 = zext i32 %24 to i64
  %add.ptr.i.i23 = getelementptr inbounds ptr, ptr %25, i64 %idx.ext.i.i22
  store ptr %s1.tr133, ptr %add.ptr.i.i23, align 8
  %26 = load ptr, ptr %m_nodes.i, align 8
  %arrayidx10.i.i24 = getelementptr inbounds i32, ptr %26, i64 -1
  %27 = load i32, ptr %arrayidx10.i.i24, align 4
  %inc.i.i25 = add i32 %27, 1
  store i32 %inc.i.i25, ptr %arrayidx10.i.i24, align 4
  call void @llvm.lifetime.start.p0(i64 16, ptr nonnull %ref.tmp.i)
  store ptr %s1.tr133, ptr %ref.tmp.i, align 8
  %m_value.i.i = getelementptr inbounds %"struct.obj_map<sort, sort *>::key_data", ptr %ref.tmp.i, i64 0, i32 1
  store ptr %s2, ptr %m_value.i.i, align 8
  call void @_ZN14core_hashtableIN7obj_mapI4sortPS1_E13obj_map_entryE8obj_hashINS3_8key_dataEE10default_eqIS6_EE6insertEOS6_(ptr noundef nonnull align 8 dereferenceable(20) %m_sub, ptr noundef nonnull align 8 dereferenceable(16) %ref.tmp.i)
  call void @llvm.lifetime.end.p0(i64 16, ptr nonnull %ref.tmp.i)
  br label %return

_ZNK4decl13get_family_idEv.exit:                  ; preds = %_ZNK4sort11is_type_varEv.exit, %if.end, %_ZNK4sort11is_type_varEv.exit9, %if.end5
  %cond.i = phi i32 [ -1, %if.end5 ], [ %.pr, %_ZNK4sort11is_type_varEv.exit9 ], [ -1, %if.end ], [ %3, %_ZNK4sort11is_type_varEv.exit ]
  %m_info.i.i169 = getelementptr inbounds %class.decl, ptr %s1.tr133, i64 0, i32 2
  %m_info.i31 = getelementptr inbounds %class.decl, ptr %s2, i64 0, i32 2
  %28 = load ptr, ptr %m_info.i31, align 8
  %cmp.i32 = icmp eq ptr %28, null
  br i1 %cmp.i32, label %_ZNK4decl13get_family_idEv.exit35, label %cond.false.i33

cond.false.i33:                                   ; preds = %_ZNK4decl13get_family_idEv.exit
  %29 = load i32, ptr %28, align 8
  br label %_ZNK4decl13get_family_idEv.exit35

_ZNK4decl13get_family_idEv.exit35:                ; preds = %_ZNK4decl13get_family_idEv.exit, %cond.false.i33
  %cond.i34 = phi i32 [ %29, %cond.false.i33 ], [ -1, %_ZNK4decl13get_family_idEv.exit ]
  %cmp15.not = icmp eq i32 %cond.i, %cond.i34
  br i1 %cmp15.not, label %if.end17, label %return

if.end17:                                         ; preds = %_ZNK4decl13get_family_idEv.exit35
  br i1 %cmp.i.i, label %_ZNK4decl13get_decl_kindEv.exit, label %cond.false.i38

cond.false.i38:                                   ; preds = %if.end17
  %m_kind.i.i = getelementptr inbounds %class.decl_info, ptr %2, i64 0, i32 1
  %30 = load i32, ptr %m_kind.i.i, align 4
  br label %_ZNK4decl13get_decl_kindEv.exit

_ZNK4decl13get_decl_kindEv.exit:                  ; preds = %if.end17, %cond.false.i38
  %cond.i39 = phi i32 [ %30, %cond.false.i38 ], [ -1, %if.end17 ]
  br i1 %cmp.i32, label %_ZNK4decl13get_decl_kindEv.exit45, label %cond.false.i42

cond.false.i42:                                   ; preds = %_ZNK4decl13get_decl_kindEv.exit
  %m_kind.i.i43 = getelementptr inbounds %class.decl_info, ptr %28, i64 0, i32 1
  %31 = load i32, ptr %m_kind.i.i43, align 4
  br label %_ZNK4decl13get_decl_kindEv.exit45

_ZNK4decl13get_decl_kindEv.exit45:                ; preds = %_ZNK4decl13get_decl_kindEv.exit, %cond.false.i42
  %cond.i44 = phi i32 [ %31, %cond.false.i42 ], [ -1, %_ZNK4decl13get_decl_kindEv.exit ]
  %cmp20.not = icmp eq i32 %cond.i39, %cond.i44
  br i1 %cmp20.not, label %if.end22, label %return

if.end22:                                         ; preds = %_ZNK4decl13get_decl_kindEv.exit45
  %m_name.i = getelementptr inbounds %class.decl, ptr %s1.tr133, i64 0, i32 1
  %m_name.i46 = getelementptr inbounds %class.decl, ptr %s2, i64 0, i32 1
  %32 = load ptr, ptr %m_name.i, align 8
  %33 = load ptr, ptr %m_name.i46, align 8
  %cmp.i47.not = icmp eq ptr %32, %33
  br i1 %cmp.i47.not, label %if.end27, label %return

if.end27:                                         ; preds = %if.end22
  br i1 %cmp.i.i, label %_ZNK4decl18get_num_parametersEv.exit, label %cond.false.i50

cond.false.i50:                                   ; preds = %if.end27
  %m_parameters.i.i = getelementptr inbounds %class.decl_info, ptr %2, i64 0, i32 2
  %34 = load ptr, ptr %m_parameters.i.i, align 8
  %cmp.i.i.i = icmp eq ptr %34, null
  br i1 %cmp.i.i.i, label %_ZNK4decl18get_num_parametersEv.exit, label %if.end.i.i.i

if.end.i.i.i:                                     ; preds = %cond.false.i50
  %arrayidx.i.i.i = getelementptr inbounds i32, ptr %34, i64 -1
