; ModuleID = 'bench/z3/original/qsat.cpp.ll'
source_filename = "bench/z3/original/qsat.cpp.ll"
target datalayout = "e-m:e-p270:32:32-p271:32:32-p272:64:64-i64:64-i128:128-f80:128-n8:16:32:64-S128"
target triple = "x86_64-unknown-linux-gnu"

%"class.std::ios_base::Init" = type { i8 }
%class.symbol = type { ptr }
%struct.app_flags = type { i24 }
%"class.qe::pred_abs" = type { ptr, %class.vector, %class.ref_vector, %class.svector, %class.obj_map, %class.obj_map.2, %class.obj_map.2, %class.obj_map, %class.ref_vector, %class.ref, %class.ptr_vector, %class.obj_map.7, %class.obj_map.12 }
%class.vector = type { ptr }
%class.svector = type { %class.vector.1 }
%class.vector.1 = type { ptr }
%class.obj_map.2 = type { %class.core_hashtable.3 }
%class.core_hashtable.3 = type <{ ptr, i32, i32, i32, [4 x i8] }>
%class.obj_map = type { %class.core_hashtable }
%class.core_hashtable = type <{ ptr, i32, i32, i32, [4 x i8] }>
%class.ref_vector = type { %class.ref_vector_core }
%class.ref_vector_core = type { %class.ref_manager_wrapper, %class.ptr_vector }
%class.ref_manager_wrapper = type { ptr }
%class.ref = type { ptr }
%class.ptr_vector = type { %class.vector.0 }
%class.vector.0 = type { ptr }
%class.obj_map.7 = type { %class.core_hashtable.8 }
%class.core_hashtable.8 = type <{ ptr, i32, i32, i32, [4 x i8] }>
%class.obj_map.12 = type { %class.core_hashtable.13 }
%class.core_hashtable.13 = type <{ ptr, i32, i32, i32, [4 x i8] }>
%class.converter = type <{ ptr, i32, [4 x i8] }>
%"struct.obj_map<expr, qe::max_level>::key_data" = type { ptr, %"struct.qe::max_level" }
%"struct.qe::max_level" = type { i32, i32 }
%"class.obj_map<expr, qe::max_level>::obj_map_entry" = type { %"struct.obj_map<expr, qe::max_level>::key_data" }
%"struct.obj_map<func_decl, qe::max_level>::key_data" = type { ptr, %"struct.qe::max_level" }
%"class.obj_map<func_decl, qe::max_level>::obj_map_entry" = type { %"struct.obj_map<func_decl, qe::max_level>::key_data" }
%"class.std::allocator" = type { i8 }
%class.model_converter = type <{ %class.converter.base, [4 x i8], ptr, i8, [7 x i8] }>
%class.converter.base = type <{ ptr, i32 }>
%class.generic_model_converter = type { %class.model_converter.base, ptr, %"class.std::__cxx11::basic_string", %class.vector.49 }
%class.model_converter.base = type <{ %class.converter.base, [4 x i8], ptr, i8 }>
%"class.std::__cxx11::basic_string" = type { %"struct.std::__cxx11::basic_string<char>::_Alloc_hider", i64, %union.anon }
%"struct.std::__cxx11::basic_string<char>::_Alloc_hider" = type { ptr }
%union.anon = type { i64, [8 x i8] }
%class.vector.49 = type { ptr }
%class.ast = type { i32, i24, i32, i32 }
%"class.obj_map<expr, expr *>::obj_map_entry" = type { %"struct.obj_map<expr, expr *>::key_data" }
%"struct.obj_map<expr, expr *>::key_data" = type { ptr, ptr }
%"class.obj_map<expr, app *>::obj_map_entry" = type { %"struct.obj_map<expr, app *>::key_data" }
%"struct.obj_map<expr, app *>::key_data" = type { ptr, ptr }
%class.app = type { %class.expr, ptr, i32, [0 x ptr] }
%class.expr = type { %class.ast }
%class.tactic_exception = type { %class.z3_exception, %"class.std::__cxx11::basic_string" }
%class.z3_exception = type { ptr }
%class.default_exception = type { %class.z3_exception, %"class.std::__cxx11::basic_string" }
%class.ref_vector.50 = type { %class.ref_vector_core.51 }
%class.ref_vector_core.51 = type { %class.ref_manager_wrapper.52, %class.ptr_vector.53 }
%class.ref_manager_wrapper.52 = type { ptr }
%class.ptr_vector.53 = type { %class.vector.54 }
%class.vector.54 = type { ptr }
%class.model_evaluator = type { ptr }
%class.params_ref = type { ptr }
%class.obj_ref = type { ptr, ptr }
%class.ast_manager = type { %class.reslimit, %class.small_object_allocator, %class.family_manager, %class.parray_manager, %class.dependency_manager, %class.parray_manager.32, %class.ptr_vector.35, i32, i8, %class.ast_table, %class.obj_map.37, %class.id_gen, %class.id_gen, ptr, ptr, ptr, ptr, ptr, i32, i8, [3 x i8], %class.u_map, ptr, i8, i8, ptr, %class.symbol, %class.obj_map.44, ptr }
%class.reslimit = type { %"struct.std::atomic", i8, i64, i64, %class.svector.17, %class.ptr_vector.19 }
%"struct.std::atomic" = type { %"struct.std::__atomic_base" }
%"struct.std::__atomic_base" = type { i32 }
%class.svector.17 = type { %class.vector.18 }
%class.vector.18 = type { ptr }
%class.ptr_vector.19 = type { %class.vector.20 }
%class.vector.20 = type { ptr }
%class.small_object_allocator = type { [32 x ptr], [32 x ptr], i64 }
%class.family_manager = type { i32, %class.symbol_table, %class.svector.26 }
%class.symbol_table = type { %class.core_hashtable.21, %class.vector.23, %class.svector.24 }
%class.core_hashtable.21 = type <{ ptr, i32, i32, i32, [4 x i8] }>
%class.vector.23 = type { ptr }
%class.svector.24 = type { %class.vector.25 }
%class.vector.25 = type { ptr }
%class.svector.26 = type { %class.vector.27 }
%class.vector.27 = type { ptr }
%class.parray_manager = type { ptr, ptr, %class.ptr_vector.28, %class.ptr_vector.28 }
%class.ptr_vector.28 = type { %class.vector.29 }
%class.vector.29 = type { ptr }
%class.dependency_manager = type { ptr, ptr, %class.ptr_vector.30 }
%class.ptr_vector.30 = type { %class.vector.31 }
%class.vector.31 = type { ptr }
%class.parray_manager.32 = type { ptr, ptr, %class.ptr_vector.33, %class.ptr_vector.33 }
%class.ptr_vector.33 = type { %class.vector.34 }
%class.vector.34 = type { ptr }
%class.ptr_vector.35 = type { %class.vector.36 }
%class.vector.36 = type { ptr }
%class.ast_table = type { %class.chashtable }
%class.chashtable = type { ptr, i32, i32, i32, i32, i32, i32, i32, ptr, ptr, ptr }
%class.obj_map.37 = type { %class.core_hashtable.38 }
%class.core_hashtable.38 = type <{ ptr, i32, i32, i32, [4 x i8] }>
%class.id_gen = type { i32, %class.svector }
%class.u_map = type { %class.map }
%class.map = type { %class.table2map }
%class.table2map = type { %class.core_hashtable.42 }
%class.core_hashtable.42 = type <{ ptr, i32, i32, i32, [4 x i8] }>
%class.obj_map.44 = type { %class.core_hashtable.45 }
%class.core_hashtable.45 = type <{ ptr, i32, i32, i32, [4 x i8] }>
%class.obj_mark = type { %struct.default_t2uint, %class.bit_vector }
%struct.default_t2uint = type { i8 }
%class.bit_vector = type { i32, i32, ptr }
%class.obj_ref.76 = type { ptr, ptr }
%class.decl = type { %class.ast, %class.symbol, ptr }
%class.decl_info = type <{ i32, i32, %class.vector.83, i8, [7 x i8] }>
%class.vector.83 = type { ptr }
%"struct.generic_model_converter::entry" = type <{ %class.obj_ref.84, %class.obj_ref, i32, [4 x i8] }>
%class.obj_ref.84 = type { ptr, ptr }
%struct.mk_pp = type { %struct.mk_ismt2_pp }
%struct.mk_ismt2_pp = type { ptr, ptr, %class.params_ref, ptr, i32, i32, ptr }
%class.ast_fast_mark = type { %class.ptr_buffer }
%class.ptr_buffer = type { %class.buffer }
%class.buffer = type { ptr, i32, i32, [16 x %"union.std::aligned_storage<8, 8>::type"] }
%"union.std::aligned_storage<8, 8>::type" = type { [8 x i8] }
%class.quantifier = type { %class.expr, i32, i32, ptr, ptr, i32, i32, i8, i8, %class.symbol, %class.symbol, i32, i32, [0 x i8] }
%"class.qe::qsat" = type { %class.tactic.base, ptr, %class.params_ref, %"struct.qe::qsat::stats", %class.statistics, %"class.qe::mbproj", %"class.qe::kernel", %"class.qe::kernel", %"class.qe::pred_abs", %class.ref_vector, %class.ref_vector, %class.vector, i32, %class.ref.82, i32, %class.ref_vector.50, %class.ref_vector.50, ptr, ptr, i8, %class.ref.82, %class.obj_ref, %class.inf_eps_rational }
%class.tactic.base = type <{ %"class.user_propagator::core", i32 }>
%"class.user_propagator::core" = type { ptr }
%"struct.qe::qsat::stats" = type { i32 }
%class.statistics = type { %class.svector.77, %class.svector.79 }
%class.svector.77 = type { %class.vector.78 }
%class.vector.78 = type { ptr }
%class.svector.79 = type { %class.vector.80 }
%class.vector.80 = type { ptr }
%"class.qe::mbproj" = type { ptr }
%"class.qe::kernel" = type { ptr, %class.params_ref, %class.ref.81, %class.obj_ref }
%class.ref.81 = type { ptr }
%class.ref.82 = type { ptr }
%class.inf_eps_rational = type { %class.rational, %class.inf_rational }
%class.rational = type { %class.mpq }
%class.mpq = type { %class.mpz, %class.mpz }
%class.mpz = type { i32, i8, ptr }
%class.inf_rational = type { %class.rational, %class.rational }
%class.tactic = type <{ %"class.user_propagator::core", i32, [4 x i8] }>
%class.model_core = type { ptr, ptr, i32, [4 x i8], %class.obj_map.55, %class.obj_map.60, %class.ptr_vector.65, %class.ptr_vector.65, %class.ptr_vector.65 }
%class.obj_map.55 = type { %class.core_hashtable.56 }
%class.core_hashtable.56 = type <{ ptr, i32, i32, i32, [4 x i8] }>
%class.obj_map.60 = type { %class.core_hashtable.61 }
%class.core_hashtable.61 = type <{ ptr, i32, i32, i32, [4 x i8] }>
%class.ptr_vector.65 = type { %class.vector.66 }
%class.vector.66 = type { ptr }
%class.check_sat_result = type { ptr, ptr, %class.ref_vector, %class.obj_ref.76, i32, i32, %class.ref.87, double }
%class.ref.87 = type { ptr }
%class.tactic_report = type { ptr }
%struct.model_evaluator_params = type { ptr, %class.params_ref }
%class.goal = type <{ ptr, %class.ref.87, %class.ref.89, %class.ref.90, i32, [4 x i8], %"class.std::__cxx11::basic_string", %"class.parray_manager<ast_manager::expr_array_config>::ref", %"class.parray_manager<ast_manager::expr_array_config>::ref", %"class.parray_manager<ast_manager::expr_dependency_array_config>::ref", i32, [4 x i8] }>
%class.ref.89 = type { ptr }
%class.ref.90 = type { ptr }
%"class.parray_manager<ast_manager::expr_array_config>::ref" = type <{ ptr, i32, [4 x i8] }>
%"class.parray_manager<ast_manager::expr_dependency_array_config>::ref" = type <{ ptr, i32, [4 x i8] }>
%class.buffer.92 = type { ptr, i32, i32, [16 x %"union.std::aligned_storage<8, 8>::type"] }
%class.label_rewriter = type { i32, %class.rewriter_tpl }
%class.rewriter_tpl = type { %class.rewriter_core, ptr, i32, %class.ptr_vector, %class.var_shifter, %class.inv_var_shifter, %class.obj_ref, %class.obj_ref.76, %class.obj_ref.76, %class.svector }
%class.rewriter_core = type { ptr, ptr, i8, i8, %class.ptr_vector.93, ptr, %class.svector.95, %class.ref_vector, %class.ptr_vector.93, ptr, %class.ref_vector.50, %class.obj_hashtable, ptr, i32, %class.svector.100 }
%class.svector.95 = type { %class.vector.96 }
%class.vector.96 = type { ptr }
%class.ptr_vector.93 = type { %class.vector.94 }
%class.vector.94 = type { ptr }
%class.obj_hashtable = type { %class.core_hashtable.base.99, [4 x i8] }
%class.core_hashtable.base.99 = type <{ ptr, i32, i32, i32 }>
%class.svector.100 = type { %class.vector.101 }
%class.vector.101 = type { ptr }
%class.var_shifter = type <{ %class.var_shifter_core, i32, i32, i32, [4 x i8] }>
%class.var_shifter_core = type { %class.rewriter_core }
%class.inv_var_shifter = type <{ %class.var_shifter_core, i32, [4 x i8] }>
%class.quantifier_hoister = type { ptr }
%class.model = type { %class.model_core, %class.ptr_vector.67, %class.obj_map.69, %class.model_evaluator, i8, i8, %class.plugin_manager }
%class.ptr_vector.67 = type { %class.vector.68 }
%class.vector.68 = type { ptr }
%class.obj_map.69 = type { %class.core_hashtable.70 }
%class.core_hashtable.70 = type <{ ptr, i32, i32, i32, [4 x i8] }>
%class.plugin_manager = type { %class.ptr_vector.74, %class.ptr_vector.74 }
%class.ptr_vector.74 = type { %class.vector.75 }
%class.vector.75 = type { ptr }
%struct._Guard = type { ptr }

$_ZN23generic_model_converterC2ER11ast_managerPKc = comdat any

$_ZN7obj_mapI4exprN2qe9max_levelEED2Ev = comdat any

$_ZN10ptr_vectorI4exprED2Ev = comdat any

$_ZN3refI23generic_model_converterED2Ev = comdat any

$_ZN10ref_vectorI4expr11ast_managerED2Ev = comdat any

$_ZN7obj_mapI4exprPS0_ED2Ev = comdat any

$_ZN7obj_mapI4exprP3appED2Ev = comdat any

$_ZN7svectorIjjED2Ev = comdat any

$_ZN6vectorI10ref_vectorI3app11ast_managerELb1EjED2Ev = comdat any

$_ZNSt7__cxx1112basic_stringIcSt11char_traitsIcESaIcEEC2IS3_EEPKcRKS3_ = comdat any

$_ZN16tactic_exceptionD2Ev = comdat any

$_ZN10ref_vectorI3app11ast_managerED2Ev = comdat any

$_ZN7obj_refI4expr11ast_managerED2Ev = comdat any

$_ZN7obj_refI3app11ast_managerED2Ev = comdat any

$_ZN8obj_markI4expr10bit_vector14default_t2uintIS0_EED2Ev = comdat any

$_ZN13ast_fast_markILj1EED2Ev = comdat any

$_ZN2qe4qsatC2ER11ast_managerRK10params_refNS_9qsat_modeE = comdat any

$_ZN2qe4qsat8maximizeERK10ref_vectorI4expr11ast_managerEP3appR3refI5modelER16inf_eps_rationalI12inf_rationalE = comdat any

$_ZN2qe4qsatD2Ev = comdat any

$__clang_call_terminate = comdat any

$_ZNK2qe4qsat18collect_statisticsER10statistics = comdat any

$_ZN15ref_vector_coreI4expr19ref_manager_wrapperIS0_11ast_managerEED2Ev = comdat any

$_ZN16tactic_exceptionD0Ev = comdat any

$_ZNK16tactic_exception3msgEv = comdat any

$_ZN15ref_vector_coreI3app19ref_manager_wrapperIS0_11ast_managerEED2Ev = comdat any

$_ZN23generic_model_converter5entryD2Ev = comdat any

$_ZN6vectorIN23generic_model_converter5entryELb1EjE13expand_vectorEv = comdat any

$_ZN17default_exceptionD2Ev = comdat any

$_ZN6vectorIN23generic_model_converter5entryELb1EjE16destroy_elementsEv = comdat any

$_ZN16inf_eps_rationalI12inf_rationalED2Ev = comdat any

$_ZN3refI5modelED2Ev = comdat any

$_ZN2qe8pred_absD2Ev = comdat any

$_ZN2qe6kernelD2Ev = comdat any

$_ZN10statisticsD2Ev = comdat any

$_ZN2qe4qsatD0Ev = comdat any

$_ZN6tactic19user_propagate_initEPvRSt8functionIFvS0_PN15user_propagator8callbackEEERS1_IFvS0_S4_jEERS1_IFS0_S0_R11ast_managerRPNS2_11context_objEEE = comdat any

$_ZN15user_propagator4core29user_propagate_register_fixedERSt8functionIFvPvPNS_8callbackEP4exprS6_EE = comdat any

$_ZN15user_propagator4core29user_propagate_register_finalERSt8functionIFvPvPNS_8callbackEEE = comdat any

$_ZN15user_propagator4core26user_propagate_register_eqERSt8functionIFvPvPNS_8callbackEP4exprS6_EE = comdat any

$_ZN15user_propagator4core29user_propagate_register_diseqERSt8functionIFvPvPNS_8callbackEP4exprS6_EE = comdat any

$_ZN6tactic28user_propagate_register_exprEP4expr = comdat any

$_ZN15user_propagator4core31user_propagate_register_createdERSt8functionIFvPvPNS_8callbackEP4exprEE = comdat any

$_ZN15user_propagator4core30user_propagate_register_decideERSt8functionIFvPvPNS_8callbackEP4exprjbEE = comdat any

$_ZN15user_propagator4core20user_propagate_clearEv = comdat any

$_ZN6tactic18register_on_clauseEPvRSt8functionIFvS0_P4exprjPKjjPKS3_EE = comdat any

$_ZN2qe4qsat11updt_paramsERK10params_ref = comdat any

$_ZN2qe4qsat20collect_param_descrsER12param_descrs = comdat any

$_ZN2qe4qsatclERK3refI4goalER11sref_bufferIS2_Lj16EE = comdat any

$_ZN2qe4qsat16reset_statisticsEv = comdat any

$_ZN2qe4qsat7cleanupEv = comdat any

$_ZN2qe4qsat5resetEv = comdat any

$_ZN2qe4qsat9set_logicERK6symbol = comdat any

$_ZN2qe4qsat21set_progress_callbackEP17progress_callback = comdat any

$_ZN2qe4qsat9translateER11ast_manager = comdat any

$_ZNK2qe4qsat4nameEv = comdat any

$_ZN3refI6solverED2Ev = comdat any

$_ZN8rationalD2Ev = comdat any

$_ZN2qe4qsat8elim_recEP4expr = comdat any

$_ZN15ref_buffer_coreI4goal21ref_unmanaged_wrapperIS0_ELj16EE9push_backEPS0_ = comdat any

$_ZN2qe4qsat5hoistER7obj_refI4expr11ast_managerE = comdat any

$_ZN2qe4qsat9check_satEv = comdat any

$_ZN3refI15model_converterED2Ev = comdat any

$_ZN2qe4qsat4elimER10ref_vectorI3app11ast_managerEP4expr = comdat any

$_ZN6vectorI10ref_vectorI3app11ast_managerELb1EjE9push_backERKS3_ = comdat any

$_ZN2qe4qsat11filter_varsERK10ref_vectorI3app11ast_managerE = comdat any

$_ZN2qe4qsat17initialize_levelsEv = comdat any

$_ZN6vectorI10ref_vectorI3app11ast_managerELb1EjE13expand_vectorEv = comdat any

$_ZN6vectorI10ref_vectorI3app11ast_managerELb1EjE16destroy_elementsEv = comdat any

$_ZN2qe4qsat10check_sortEP4sort = comdat any

$_ZN2qe4qsat14maximize_modelEv = comdat any

$_ZN2qe4qsat10project_qeER10ref_vectorI4expr11ast_managerE = comdat any

$_ZN2qe4qsat7projectER10ref_vectorI4expr11ast_managerE = comdat any

$_ZNK16inf_eps_rationalI12inf_rationalE9to_stringB5cxx11Ev = comdat any

$_ZNK12inf_rational9to_stringB5cxx11Ev = comdat any

$_Z3absRK8rational = comdat any

$_ZN2qe4qsat8get_varsEj = comdat any

$_ZN2qe4qsat13maximize_coreERK10ref_vectorI4expr11ast_managerER5model = comdat any

$_ZN2qe4qsat11negate_coreERK10ref_vectorI4expr11ast_managerE = comdat any

$_ZN2qe4qsat14add_assumptionEP4expr = comdat any

$_ZN12inf_rationalaSERKS_ = comdat any

$_ZN2qe6kernel19assert_blocking_fmlEP4expr = comdat any

$_ZN2qe4qsat5clearEv = comdat any

$_ZN6vectorIjLb0EjE13expand_vectorEv = comdat any

$_ZNSt7__cxx1112basic_stringIcSt11char_traitsIcESaIcEE12_M_constructIPKcEEvT_S8_St20forward_iterator_tag = comdat any

$_ZZNSt7__cxx1112basic_stringIcSt11char_traitsIcESaIcEE12_M_constructIPKcEEvT_S8_St20forward_iterator_tagEN6_GuardD2Ev = comdat any

$_ZN6vectorIP4exprLb0EjE13expand_vectorEv = comdat any

$_ZN14core_hashtableIN7obj_mapI4exprN2qe9max_levelEE13obj_map_entryE8obj_hashINS4_8key_dataEE10default_eqIS7_EE5resetEv = comdat any

$_ZN14core_hashtableIN7obj_mapI4exprN2qe9max_levelEE13obj_map_entryE8obj_hashINS4_8key_dataEE10default_eqIS7_EE6insertEOS7_ = comdat any

$_ZN14core_hashtableIN7obj_mapI4exprN2qe9max_levelEE13obj_map_entryE8obj_hashINS4_8key_dataEE10default_eqIS7_EE12expand_tableEv = comdat any

$_ZN14core_hashtableIN7obj_mapI4exprPS1_E13obj_map_entryE8obj_hashINS3_8key_dataEE10default_eqIS6_EE6insertEOS6_ = comdat any

$_ZN14core_hashtableIN7obj_mapI4exprPS1_E13obj_map_entryE8obj_hashINS3_8key_dataEE10default_eqIS6_EE12expand_tableEv = comdat any

$_ZN14core_hashtableIN7obj_mapI4exprP3appE13obj_map_entryE8obj_hashINS4_8key_dataEE10default_eqIS7_EE6insertEOS7_ = comdat any

$_ZN14core_hashtableIN7obj_mapI4exprP3appE13obj_map_entryE8obj_hashINS4_8key_dataEE10default_eqIS7_EE12expand_tableEv = comdat any

$_ZN6vectorIP3appLb0EjE13expand_vectorEv = comdat any

$_ZN14core_hashtableIN7obj_mapI9func_declN2qe9max_levelEE13obj_map_entryE8obj_hashINS4_8key_dataEE10default_eqIS7_EE6insertEOS7_ = comdat any

$_ZN14core_hashtableIN7obj_mapI9func_declN2qe9max_levelEE13obj_map_entryE8obj_hashINS4_8key_dataEE10default_eqIS7_EE12expand_tableEv = comdat any

$_ZTS16tactic_exception = comdat any

$_ZTI16tactic_exception = comdat any

$_ZTV16tactic_exception = comdat any

$_ZTVN2qe4qsatE = comdat any

$_ZTSN2qe4qsatE = comdat any

$_ZTS6tactic = comdat any

$_ZTSN15user_propagator4coreE = comdat any

$_ZTIN15user_propagator4coreE = comdat any

$_ZTI6tactic = comdat any

$_ZTIN2qe4qsatE = comdat any

@_ZStL8__ioinit = internal global %"class.std::ios_base::Init" zeroinitializer, align 1
@__dso_handle = external hidden global i8
@.str = private unnamed_addr constant [5 x i8] c"qsat\00", align 1
@.str.1 = private unnamed_addr constant [19 x i8] c"atom is non-ground\00", align 1
@_ZTVN10__cxxabiv120__si_class_type_infoE = external global [0 x ptr]
@_ZTS16tactic_exception = linkonce_odr hidden constant [19 x i8] c"16tactic_exception\00", comdat, align 1
@_ZTI12z3_exception = external constant ptr
@_ZTI16tactic_exception = linkonce_odr hidden constant { ptr, ptr, ptr } { ptr getelementptr inbounds (ptr, ptr @_ZTVN10__cxxabiv120__si_class_type_infoE, i64 2), ptr @_ZTS16tactic_exception, ptr @_ZTI12z3_exception }, comdat, align 8
@.str.2 = private unnamed_addr constant [2 x i8] c"p\00", align 1
@.str.3 = private unnamed_addr constant [4 x i8] c"def\00", align 1
@.str.4 = private unnamed_addr constant [20 x i8] c"qsat num predicates\00", align 1
@.str.5 = private unnamed_addr constant [11 x i8] c"pred2lit:\0A\00", align 1
@.str.6 = private unnamed_addr constant [6 x i8] c" |-> \00", align 1
@.str.7 = private unnamed_addr constant [2 x i8] c"\0A\00", align 1
@.str.8 = private unnamed_addr constant [7 x i8] c"level \00", align 1
@.str.9 = private unnamed_addr constant [5 x i8] c" := \00", align 1
@.str.10 = private unnamed_addr constant [4 x i8] c" - \00", align 1
@.str.11 = private unnamed_addr constant [4 x i8] c" : \00", align 1
@.str.12 = private unnamed_addr constant [2 x i8] c"!\00", align 1
@.str.13 = private unnamed_addr constant [1 x i8] zeroinitializer, align 1
@_ZTV23generic_model_converter = external unnamed_addr constant { [12 x ptr] }, align 8
@_ZTVN10__cxxabiv117__class_type_infoE = external global [0 x ptr]
@_ZTV16tactic_exception = linkonce_odr hidden unnamed_addr constant { [6 x ptr] } { [6 x ptr] [ptr null, ptr @_ZTI16tactic_exception, ptr @_ZN16tactic_exceptionD2Ev, ptr @_ZN16tactic_exceptionD0Ev, ptr @_ZNK16tactic_exception3msgEv, ptr @_ZNK12z3_exception10error_codeEv] }, comdat, align 8
@_ZN6symbol4nullE = external global %class.symbol, align 8
@.str.14 = private unnamed_addr constant [43 x i8] c"Overflow encountered when expanding vector\00", align 1
@_ZTI17default_exception = external constant ptr
@_ZTV17default_exception = external unnamed_addr constant { [6 x ptr] }, align 8
@.str.15 = private unnamed_addr constant [2 x i8] c"e\00", align 1
@.str.16 = private unnamed_addr constant [2 x i8] c" \00", align 1
@.str.17 = private unnamed_addr constant [2 x i8] c"a\00", align 1
@_ZTVN2qe4qsatE = linkonce_odr hidden unnamed_addr constant { [25 x ptr] } { [25 x ptr] [ptr null, ptr @_ZTIN2qe4qsatE, ptr @_ZN2qe4qsatD2Ev, ptr @_ZN2qe4qsatD0Ev, ptr @_ZN6tactic19user_propagate_initEPvRSt8functionIFvS0_PN15user_propagator8callbackEEERS1_IFvS0_S4_jEERS1_IFS0_S0_R11ast_managerRPNS2_11context_objEEE, ptr @_ZN15user_propagator4core29user_propagate_register_fixedERSt8functionIFvPvPNS_8callbackEP4exprS6_EE, ptr @_ZN15user_propagator4core29user_propagate_register_finalERSt8functionIFvPvPNS_8callbackEEE, ptr @_ZN15user_propagator4core26user_propagate_register_eqERSt8functionIFvPvPNS_8callbackEP4exprS6_EE, ptr @_ZN15user_propagator4core29user_propagate_register_diseqERSt8functionIFvPvPNS_8callbackEP4exprS6_EE, ptr @_ZN6tactic28user_propagate_register_exprEP4expr, ptr @_ZN15user_propagator4core31user_propagate_register_createdERSt8functionIFvPvPNS_8callbackEP4exprEE, ptr @_ZN15user_propagator4core30user_propagate_register_decideERSt8functionIFvPvPNS_8callbackEP4exprjbEE, ptr @_ZN15user_propagator4core20user_propagate_clearEv, ptr @_ZN6tactic18register_on_clauseEPvRSt8functionIFvS0_P4exprjPKjjPKS3_EE, ptr @_ZN2qe4qsat11updt_paramsERK10params_ref, ptr @_ZN2qe4qsat20collect_param_descrsER12param_descrs, ptr @_ZN2qe4qsatclERK3refI4goalER11sref_bufferIS2_Lj16EE, ptr @_ZNK2qe4qsat18collect_statisticsER10statistics, ptr @_ZN2qe4qsat16reset_statisticsEv, ptr @_ZN2qe4qsat7cleanupEv, ptr @_ZN2qe4qsat5resetEv, ptr @_ZN2qe4qsat9set_logicERK6symbol, ptr @_ZN2qe4qsat21set_progress_callbackEP17progress_callback, ptr @_ZN2qe4qsat9translateER11ast_manager, ptr @_ZNK2qe4qsat4nameEv] }, comdat, align 8
@.str.18 = private unnamed_addr constant [8 x i8] c"use_qel\00", align 1
@_ZTSN2qe4qsatE = linkonce_odr hidden constant [11 x i8] c"N2qe4qsatE\00", comdat, align 1
@_ZTS6tactic = linkonce_odr hidden constant [8 x i8] c"6tactic\00", comdat, align 1
@_ZTSN15user_propagator4coreE = linkonce_odr hidden constant [25 x i8] c"N15user_propagator4coreE\00", comdat, align 1
@_ZTIN15user_propagator4coreE = linkonce_odr hidden constant { ptr, ptr } { ptr getelementptr inbounds (ptr, ptr @_ZTVN10__cxxabiv117__class_type_infoE, i64 2), ptr @_ZTSN15user_propagator4coreE }, comdat, align 8
@_ZTI6tactic = linkonce_odr hidden constant { ptr, ptr, ptr } { ptr getelementptr inbounds (ptr, ptr @_ZTVN10__cxxabiv120__si_class_type_infoE, i64 2), ptr @_ZTS6tactic, ptr @_ZTIN15user_propagator4coreE }, comdat, align 8
@_ZTIN2qe4qsatE = linkonce_odr hidden constant { ptr, ptr, ptr } { ptr getelementptr inbounds (ptr, ptr @_ZTVN10__cxxabiv120__si_class_type_infoE, i64 2), ptr @_ZTSN2qe4qsatE, ptr @_ZTI6tactic }, comdat, align 8
@.str.19 = private unnamed_addr constant [54 x i8] c"user-propagators are only supported on the SMT solver\00", align 1
@.str.21 = private unnamed_addr constant [6 x i8] c"model\00", align 1
@.str.22 = private unnamed_addr constant [10 x i8] c"relevancy\00", align 1
@.str.23 = private unnamed_addr constant [20 x i8] c"case_split_strategy\00", align 1
@_ZN8rational13g_mpq_managerE = external local_unnamed_addr global ptr, align 8
@.str.24 = private unnamed_addr constant [41 x i8] c"tactic does not support user propagation\00", align 1
@.str.25 = private unnamed_addr constant [39 x i8] c"tactic does not support clause logging\00", align 1
@.str.26 = private unnamed_addr constant [12 x i8] c"qsat-tactic\00", align 1
@.str.27 = private unnamed_addr constant [45 x i8] c"array equalities cannot be disabled for qsat\00", align 1
@.str.28 = private unnamed_addr constant [25 x i8] c"formula is not hoistable\00", align 1
@.str.29 = private unnamed_addr constant [3 x i8] c"ok\00", align 1
@.str.30 = private unnamed_addr constant [8 x i8] c"unknown\00", align 1
@.str.31 = private unnamed_addr constant [16 x i8] c"model_evaluator\00", align 1
@.str.32 = private unnamed_addr constant [17 x i8] c"array_equalities\00", align 1
@.str.33 = private unnamed_addr constant [99 x i8] c"generated/home/dtcxzyw/WorkSpace/Projects/compilers/llvm-opt-benchmark/bench/z3/z3/src/qe/qsat.cpp\00", align 1
@.str.34 = private unnamed_addr constant [29 x i8] c"UNEXPECTED CODE WAS REACHED.\00", align 1
@.str.35 = private unnamed_addr constant [40 x i8] c"Failed to verify: visited.find(fml, e)\0A\00", align 1
@_ZN3app16g_constant_flagsE = external local_unnamed_addr global %struct.app_flags, align 4
@.str.36 = private unnamed_addr constant [41 x i8] c"formula contains uninterpreted functions\00", align 1
@.str.37 = private unnamed_addr constant [43 x i8] c"qsat does not apply to uninterpreted sorts\00", align 1
@.str.38 = private unnamed_addr constant [20 x i8] c"(check-qsat level: \00", align 1
@.str.39 = private unnamed_addr constant [9 x i8] c" round: \00", align 1
@.str.40 = private unnamed_addr constant [3 x i8] c")\0A\00", align 1
@.str.41 = private unnamed_addr constant [23 x i8] c"(qsat-maximize-bound: \00", align 1
@.str.42 = private unnamed_addr constant [3 x i8] c"oo\00", align 1
@.str.43 = private unnamed_addr constant [4 x i8] c"-oo\00", align 1
@.str.44 = private unnamed_addr constant [4 x i8] c"*oo\00", align 1
@.str.45 = private unnamed_addr constant [2 x i8] c"(\00", align 1
@.str.46 = private unnamed_addr constant [4 x i8] c" + \00", align 1
@.str.47 = private unnamed_addr constant [2 x i8] c")\00", align 1
@.str.48 = private unnamed_addr constant [5 x i8] c" -e*\00", align 1
@.str.49 = private unnamed_addr constant [5 x i8] c" +e*\00", align 1
@.str.50 = private unnamed_addr constant [11 x i8] c"(maximize \00", align 1
@.str.51 = private unnamed_addr constant [2 x i8] c"b\00", align 1
@.str.52 = private unnamed_addr constant [44 x i8] c"Asserting this expression twice in a row:\0A \00", align 1
@.str.53 = private unnamed_addr constant [16 x i8] c"qsat num rounds\00", align 1
@.str.54 = private unnamed_addr constant [50 x i8] c"basic_string: construction from null is not valid\00", align 1
@.str.55 = private unnamed_addr constant [104 x i8] c"generated/home/dtcxzyw/WorkSpace/Projects/compilers/llvm-opt-benchmark/bench/z3/z3/src/util/hashtable.h\00", align 1
@llvm.global_ctors = appending global [1 x { i32, ptr, ptr }] [{ i32, ptr, ptr } { i32 65535, ptr @_GLOBAL__sub_I_qsat.cpp, ptr null }]

@_ZN2qe8pred_absC1ER11ast_manager = hidden unnamed_addr alias void (ptr, ptr), ptr @_ZN2qe8pred_absC2ER11ast_manager
@_ZN2qe4qmaxC1ER11ast_managerRK10params_ref = hidden unnamed_addr alias void (ptr, ptr, ptr), ptr @_ZN2qe4qmaxC2ER11ast_managerRK10params_ref
@_ZN2qe4qmaxD1Ev = hidden unnamed_addr alias void (ptr), ptr @_ZN2qe4qmaxD2Ev

declare void @_ZNSt8ios_base4InitC1Ev(ptr noundef nonnull align 1 dereferenceable(1)) unnamed_addr #0

; Function Attrs: nounwind
declare void @_ZNSt8ios_base4InitD1Ev(ptr noundef nonnull align 1 dereferenceable(1)) unnamed_addr #1

; Function Attrs: nofree nounwind
declare i32 @__cxa_atexit(ptr, ptr, ptr) local_unnamed_addr #2

; Function Attrs: mustprogress uwtable
define hidden void @_ZN2qe8pred_absC2ER11ast_manager(ptr noundef nonnull align 8 dereferenceable(216) %this, ptr noundef nonnull align 8 dereferenceable(976) %m) unnamed_addr #3 align 2 personality ptr @__gxx_personality_v0 {
invoke.cont:
  store ptr %m, ptr %this, align 8
  %m_preds = getelementptr inbounds %"class.qe::pred_abs", ptr %this, i64 0, i32 1
  store ptr null, ptr %m_preds, align 8
  %m_asms = getelementptr inbounds %"class.qe::pred_abs", ptr %this, i64 0, i32 2
  store ptr %m, ptr %m_asms, align 8
  %m_nodes.i.i = getelementptr inbounds %"class.qe::pred_abs", ptr %this, i64 0, i32 2, i32 0, i32 1
  %m_pred2lit = getelementptr inbounds %"class.qe::pred_abs", ptr %this, i64 0, i32 4
  tail call void @llvm.memset.p0.i64(ptr noundef nonnull align 8 dereferenceable(16) %m_nodes.i.i, i8 0, i64 16, i1 false)
  %call.i.i.i.i12 = invoke noalias noundef ptr @_ZN6memory8allocateEm(i64 noundef 128)
          to label %invoke.cont6 unwind label %lpad5

invoke.cont6:                                     ; preds = %invoke.cont
  tail call void @llvm.memset.p0.i64(ptr noundef nonnull align 8 dereferenceable(128) %call.i.i.i.i12, i8 0, i64 128, i1 false)
  store ptr %call.i.i.i.i12, ptr %m_pred2lit, align 8
  %m_capacity.i.i = getelementptr inbounds %"class.qe::pred_abs", ptr %this, i64 0, i32 4, i32 0, i32 1
  store i32 8, ptr %m_capacity.i.i, align 8
  %m_size.i.i = getelementptr inbounds %"class.qe::pred_abs", ptr %this, i64 0, i32 4, i32 0, i32 2
  store i32 0, ptr %m_size.i.i, align 4
  %m_num_deleted.i.i = getelementptr inbounds %"class.qe::pred_abs", ptr %this, i64 0, i32 4, i32 0, i32 3
  store i32 0, ptr %m_num_deleted.i.i, align 8
  %m_lit2pred = getelementptr inbounds %"class.qe::pred_abs", ptr %this, i64 0, i32 5
  %call.i.i.i.i16 = invoke noalias noundef ptr @_ZN6memory8allocateEm(i64 noundef 128)
          to label %invoke.cont8 unwind label %lpad7

invoke.cont8:                                     ; preds = %invoke.cont6
  tail call void @llvm.memset.p0.i64(ptr noundef nonnull align 8 dereferenceable(128) %call.i.i.i.i16, i8 0, i64 128, i1 false)
  store ptr %call.i.i.i.i16, ptr %m_lit2pred, align 8
  %m_capacity.i.i13 = getelementptr inbounds %"class.qe::pred_abs", ptr %this, i64 0, i32 5, i32 0, i32 1
  store i32 8, ptr %m_capacity.i.i13, align 8
  %m_size.i.i14 = getelementptr inbounds %"class.qe::pred_abs", ptr %this, i64 0, i32 5, i32 0, i32 2
  store i32 0, ptr %m_size.i.i14, align 4
  %m_num_deleted.i.i15 = getelementptr inbounds %"class.qe::pred_abs", ptr %this, i64 0, i32 5, i32 0, i32 3
  store i32 0, ptr %m_num_deleted.i.i15, align 8
  %m_asm2pred = getelementptr inbounds %"class.qe::pred_abs", ptr %this, i64 0, i32 6
  %call.i.i.i.i20 = invoke noalias noundef ptr @_ZN6memory8allocateEm(i64 noundef 128)
          to label %invoke.cont10 unwind label %lpad9

invoke.cont10:                                    ; preds = %invoke.cont8
  tail call void @llvm.memset.p0.i64(ptr noundef nonnull align 8 dereferenceable(128) %call.i.i.i.i20, i8 0, i64 128, i1 false)
  store ptr %call.i.i.i.i20, ptr %m_asm2pred, align 8
  %m_capacity.i.i17 = getelementptr inbounds %"class.qe::pred_abs", ptr %this, i64 0, i32 6, i32 0, i32 1
  store i32 8, ptr %m_capacity.i.i17, align 8
  %m_size.i.i18 = getelementptr inbounds %"class.qe::pred_abs", ptr %this, i64 0, i32 6, i32 0, i32 2
  store i32 0, ptr %m_size.i.i18, align 4
  %m_num_deleted.i.i19 = getelementptr inbounds %"class.qe::pred_abs", ptr %this, i64 0, i32 6, i32 0, i32 3
  store i32 0, ptr %m_num_deleted.i.i19, align 8
  %m_pred2asm = getelementptr inbounds %"class.qe::pred_abs", ptr %this, i64 0, i32 7
  %call.i.i.i.i25 = invoke noalias noundef ptr @_ZN6memory8allocateEm(i64 noundef 128)
          to label %invoke.cont14 unwind label %lpad11

invoke.cont14:                                    ; preds = %invoke.cont10
  tail call void @llvm.memset.p0.i64(ptr noundef nonnull align 8 dereferenceable(128) %call.i.i.i.i25, i8 0, i64 128, i1 false)
  store ptr %call.i.i.i.i25, ptr %m_pred2asm, align 8
  %m_capacity.i.i22 = getelementptr inbounds %"class.qe::pred_abs", ptr %this, i64 0, i32 7, i32 0, i32 1
  store i32 8, ptr %m_capacity.i.i22, align 8
  %m_size.i.i23 = getelementptr inbounds %"class.qe::pred_abs", ptr %this, i64 0, i32 7, i32 0, i32 2
  store i32 0, ptr %m_size.i.i23, align 4
  %m_num_deleted.i.i24 = getelementptr inbounds %"class.qe::pred_abs", ptr %this, i64 0, i32 7, i32 0, i32 3
  store i32 0, ptr %m_num_deleted.i.i24, align 8
  %m_trail = getelementptr inbounds %"class.qe::pred_abs", ptr %this, i64 0, i32 8
  store ptr %m, ptr %m_trail, align 8
  %m_nodes.i.i27 = getelementptr inbounds %"class.qe::pred_abs", ptr %this, i64 0, i32 8, i32 0, i32 1
  store ptr null, ptr %m_nodes.i.i27, align 8
  %m_fmc = getelementptr inbounds %"class.qe::pred_abs", ptr %this, i64 0, i32 9
  %call = invoke noalias noundef ptr @_ZN6memory8allocateEm(i64 noundef 80)
          to label %invoke.cont16 unwind label %lpad15

invoke.cont16:                                    ; preds = %invoke.cont14
  invoke void @_ZN23generic_model_converterC2ER11ast_managerPKc(ptr noundef nonnull align 8 dereferenceable(80) %call, ptr noundef nonnull align 8 dereferenceable(976) %m, ptr noundef nonnull @.str)
          to label %invoke.cont18 unwind label %lpad15

invoke.cont18:                                    ; preds = %invoke.cont16
  store ptr %call, ptr %m_fmc, align 8
  %m_ref_count.i.i.i = getelementptr inbounds %class.converter, ptr %call, i64 0, i32 1
  %0 = load i32, ptr %m_ref_count.i.i.i, align 8
  %inc.i.i.i = add i32 %0, 1
  store i32 %inc.i.i.i, ptr %m_ref_count.i.i.i, align 8
  %todo = getelementptr inbounds %"class.qe::pred_abs", ptr %this, i64 0, i32 10
  store ptr null, ptr %todo, align 8
  %m_elevel = getelementptr inbounds %"class.qe::pred_abs", ptr %this, i64 0, i32 11
  %call.i.i.i.i31 = invoke noalias noundef ptr @_ZN6memory8allocateEm(i64 noundef 128)
          to label %for.body.i.i.i.i unwind label %lpad21

for.body.i.i.i.i:                                 ; preds = %invoke.cont18, %for.body.i.i.i.i
  %i.07.i.i.i.i = phi i32 [ %inc.i.i.i.i, %for.body.i.i.i.i ], [ 0, %invoke.cont18 ]
  %curr.06.i.i.i.i = phi ptr [ %incdec.ptr.i.i.i.i, %for.body.i.i.i.i ], [ %call.i.i.i.i31, %invoke.cont18 ]
  %m_value.i.i.i.i.i.i = getelementptr inbounds %"struct.obj_map<expr, qe::max_level>::key_data", ptr %curr.06.i.i.i.i, i64 0, i32 1
  store i64 0, ptr %curr.06.i.i.i.i, align 8
  store i32 -1, ptr %m_value.i.i.i.i.i.i, align 4
  %m_fa.i.i.i.i.i.i.i = getelementptr inbounds %"struct.obj_map<expr, qe::max_level>::key_data", ptr %curr.06.i.i.i.i, i64 0, i32 1, i32 1
  store i32 -1, ptr %m_fa.i.i.i.i.i.i.i, align 4
  %inc.i.i.i.i = add nuw nsw i32 %i.07.i.i.i.i, 1
  %incdec.ptr.i.i.i.i = getelementptr inbounds %"class.obj_map<expr, qe::max_level>::obj_map_entry", ptr %curr.06.i.i.i.i, i64 1
  %exitcond.not.i.i.i.i = icmp eq i32 %inc.i.i.i.i, 8
  br i1 %exitcond.not.i.i.i.i, label %invoke.cont22, label %for.body.i.i.i.i, !llvm.loop !4

invoke.cont22:                                    ; preds = %for.body.i.i.i.i
  store ptr %call.i.i.i.i31, ptr %m_elevel, align 8
  %m_capacity.i.i28 = getelementptr inbounds %"class.qe::pred_abs", ptr %this, i64 0, i32 11, i32 0, i32 1
  store i32 8, ptr %m_capacity.i.i28, align 8
  %m_size.i.i29 = getelementptr inbounds %"class.qe::pred_abs", ptr %this, i64 0, i32 11, i32 0, i32 2
  store i32 0, ptr %m_size.i.i29, align 4
  %m_num_deleted.i.i30 = getelementptr inbounds %"class.qe::pred_abs", ptr %this, i64 0, i32 11, i32 0, i32 3
  store i32 0, ptr %m_num_deleted.i.i30, align 8
  %call.i.i.i.i44 = invoke noalias noundef ptr @_ZN6memory8allocateEm(i64 noundef 128)
          to label %for.body.i.i.i.i32 unwind label %lpad23

for.body.i.i.i.i32:                               ; preds = %invoke.cont22, %for.body.i.i.i.i32
  %i.07.i.i.i.i33 = phi i32 [ %inc.i.i.i.i37, %for.body.i.i.i.i32 ], [ 0, %invoke.cont22 ]
  %curr.06.i.i.i.i34 = phi ptr [ %incdec.ptr.i.i.i.i38, %for.body.i.i.i.i32 ], [ %call.i.i.i.i44, %invoke.cont22 ]
  %m_value.i.i.i.i.i.i35 = getelementptr inbounds %"struct.obj_map<func_decl, qe::max_level>::key_data", ptr %curr.06.i.i.i.i34, i64 0, i32 1
  store i64 0, ptr %curr.06.i.i.i.i34, align 8
  store i32 -1, ptr %m_value.i.i.i.i.i.i35, align 4
  %m_fa.i.i.i.i.i.i.i36 = getelementptr inbounds %"struct.obj_map<func_decl, qe::max_level>::key_data", ptr %curr.06.i.i.i.i34, i64 0, i32 1, i32 1
  store i32 -1, ptr %m_fa.i.i.i.i.i.i.i36, align 4
  %inc.i.i.i.i37 = add nuw nsw i32 %i.07.i.i.i.i33, 1
  %incdec.ptr.i.i.i.i38 = getelementptr inbounds %"class.obj_map<func_decl, qe::max_level>::obj_map_entry", ptr %curr.06.i.i.i.i34, i64 1
  %exitcond.not.i.i.i.i39 = icmp eq i32 %inc.i.i.i.i37, 8
  br i1 %exitcond.not.i.i.i.i39, label %invoke.cont24, label %for.body.i.i.i.i32, !llvm.loop !6

invoke.cont24:                                    ; preds = %for.body.i.i.i.i32
  %m_flevel = getelementptr inbounds %"class.qe::pred_abs", ptr %this, i64 0, i32 12
  store ptr %call.i.i.i.i44, ptr %m_flevel, align 8
  %m_capacity.i.i40 = getelementptr inbounds %"class.qe::pred_abs", ptr %this, i64 0, i32 12, i32 0, i32 1
  store i32 8, ptr %m_capacity.i.i40, align 8
  %m_size.i.i41 = getelementptr inbounds %"class.qe::pred_abs", ptr %this, i64 0, i32 12, i32 0, i32 2
  store i32 0, ptr %m_size.i.i41, align 4
  %m_num_deleted.i.i42 = getelementptr inbounds %"class.qe::pred_abs", ptr %this, i64 0, i32 12, i32 0, i32 3
  store i32 0, ptr %m_num_deleted.i.i42, align 8
  ret void

lpad5:                                            ; preds = %invoke.cont
  %1 = landingpad { ptr, i32 }
          cleanup
  br label %ehcleanup31

lpad7:                                            ; preds = %invoke.cont6
  %2 = landingpad { ptr, i32 }
          cleanup
  br label %ehcleanup30

lpad9:                                            ; preds = %invoke.cont8
  %3 = landingpad { ptr, i32 }
          cleanup
  br label %ehcleanup29

lpad11:                                           ; preds = %invoke.cont10
  %4 = landingpad { ptr, i32 }
          cleanup
  br label %ehcleanup28

lpad15:                                           ; preds = %invoke.cont16, %invoke.cont14
  %5 = landingpad { ptr, i32 }
          cleanup
  br label %ehcleanup26

lpad21:                                           ; preds = %invoke.cont18
  %6 = landingpad { ptr, i32 }
          cleanup
  br label %ehcleanup

lpad23:                                           ; preds = %invoke.cont22
  %7 = landingpad { ptr, i32 }
          cleanup
  tail call void @_ZN7obj_mapI4exprN2qe9max_levelEED2Ev(ptr noundef nonnull align 8 dereferenceable(24) %m_elevel) #19
  br label %ehcleanup

ehcleanup:                                        ; preds = %lpad23, %lpad21
  %.pn = phi { ptr, i32 } [ %7, %lpad23 ], [ %6, %lpad21 ]
  tail call void @_ZN10ptr_vectorI4exprED2Ev(ptr noundef nonnull align 8 dereferenceable(8) %todo) #19
  tail call void @_ZN3refI23generic_model_converterED2Ev(ptr noundef nonnull align 8 dereferenceable(8) %m_fmc) #19
  br label %ehcleanup26

ehcleanup26:                                      ; preds = %ehcleanup, %lpad15
  %.pn.pn = phi { ptr, i32 } [ %.pn, %ehcleanup ], [ %5, %lpad15 ]
  tail call void @_ZN10ref_vectorI4expr11ast_managerED2Ev(ptr noundef nonnull align 8 dereferenceable(16) %m_trail) #19
  tail call void @_ZN7obj_mapI4exprPS0_ED2Ev(ptr noundef nonnull align 8 dereferenceable(24) %m_pred2asm) #19
  br label %ehcleanup28

ehcleanup28:                                      ; preds = %ehcleanup26, %lpad11
  %.pn.pn.pn.pn = phi { ptr, i32 } [ %.pn.pn, %ehcleanup26 ], [ %4, %lpad11 ]
  tail call void @_ZN7obj_mapI4exprP3appED2Ev(ptr noundef nonnull align 8 dereferenceable(24) %m_asm2pred) #19
  br label %ehcleanup29

ehcleanup29:                                      ; preds = %ehcleanup28, %lpad9
  %.pn.pn.pn.pn.pn = phi { ptr, i32 } [ %.pn.pn.pn.pn, %ehcleanup28 ], [ %3, %lpad9 ]
  tail call void @_ZN7obj_mapI4exprP3appED2Ev(ptr noundef nonnull align 8 dereferenceable(24) %m_lit2pred) #19
  br label %ehcleanup30

ehcleanup30:                                      ; preds = %ehcleanup29, %lpad7
  %.pn.pn.pn.pn.pn.pn = phi { ptr, i32 } [ %.pn.pn.pn.pn.pn, %ehcleanup29 ], [ %2, %lpad7 ]
  tail call void @_ZN7obj_mapI4exprPS0_ED2Ev(ptr noundef nonnull align 8 dereferenceable(24) %m_pred2lit) #19
  br label %ehcleanup31

ehcleanup31:                                      ; preds = %ehcleanup30, %lpad5
  %.pn.pn.pn.pn.pn.pn.pn = phi { ptr, i32 } [ %.pn.pn.pn.pn.pn.pn, %ehcleanup30 ], [ %1, %lpad5 ]
  %m_asms_lim = getelementptr inbounds %"class.qe::pred_abs", ptr %this, i64 0, i32 3
  tail call void @_ZN7svectorIjjED2Ev(ptr noundef nonnull align 8 dereferenceable(8) %m_asms_lim) #19
  tail call void @_ZN10ref_vectorI4expr11ast_managerED2Ev(ptr noundef nonnull align 8 dereferenceable(16) %m_asms) #19
  tail call void @_ZN6vectorI10ref_vectorI3app11ast_managerELb1EjED2Ev(ptr noundef nonnull align 8 dereferenceable(8) %m_preds) #19
  resume { ptr, i32 } %.pn.pn.pn.pn.pn.pn.pn
}

declare i32 @__gxx_personality_v0(...)

declare noalias noundef ptr @_ZN6memory8allocateEm(i64 noundef) local_unnamed_addr #0

; Function Attrs: mustprogress uwtable
define linkonce_odr hidden void @_ZN23generic_model_converterC2ER11ast_managerPKc(ptr noundef nonnull align 8 dereferenceable(80) %this, ptr noundef nonnull align 8 dereferenceable(976) %m, ptr noundef %orig) unnamed_addr #3 comdat align 2 personality ptr @__gxx_personality_v0 {
entry:
  %ref.tmp = alloca %"class.std::allocator", align 1
  %m_ref_count.i.i = getelementptr inbounds %class.converter, ptr %this, i64 0, i32 1
  store i32 0, ptr %m_ref_count.i.i, align 8
  %m_env.i = getelementptr inbounds %class.model_converter, ptr %this, i64 0, i32 2
  store ptr null, ptr %m_env.i, align 8
  %m_completion.i = getelementptr inbounds %class.model_converter, ptr %this, i64 0, i32 3
  store i8 1, ptr %m_completion.i, align 8
  store ptr getelementptr inbounds ({ [12 x ptr] }, ptr @_ZTV23generic_model_converter, i64 0, inrange i32 0, i64 2), ptr %this, align 8
  %m2 = getelementptr inbounds %class.generic_model_converter, ptr %this, i64 0, i32 1
  store ptr %m, ptr %m2, align 8
  %m_orig = getelementptr inbounds %class.generic_model_converter, ptr %this, i64 0, i32 2
  call void @_ZNSaIcEC1Ev(ptr noundef nonnull align 1 dereferenceable(1) %ref.tmp) #19
  %call.i1 = invoke noundef ptr @_ZNSt7__cxx1112basic_stringIcSt11char_traitsIcESaIcEE13_M_local_dataEv(ptr noundef nonnull align 8 dereferenceable(32) %m_orig)
          to label %call.i.noexc unwind label %lpad

call.i.noexc:                                     ; preds = %entry
  invoke void @_ZNSt7__cxx1112basic_stringIcSt11char_traitsIcESaIcEE12_Alloc_hiderC1EPcRKS3_(ptr noundef nonnull align 8 dereferenceable(8) %m_orig, ptr noundef %call.i1, ptr noundef nonnull align 1 dereferenceable(1) %ref.tmp)
          to label %.noexc unwind label %lpad

.noexc:                                           ; preds = %call.i.noexc
  %cmp.i = icmp eq ptr %orig, null
  br i1 %cmp.i, label %if.then.i, label %if.end.i

if.then.i:                                        ; preds = %.noexc
  invoke void @_ZSt19__throw_logic_errorPKc(ptr noundef nonnull @.str.54) #20
          to label %invoke.cont.i unwind label %lpad.i

invoke.cont.i:                                    ; preds = %if.then.i
  unreachable

lpad.i:                                           ; preds = %if.end.i, %if.then.i
  %0 = landingpad { ptr, i32 }
          cleanup
  call void @_ZNSaIcED2Ev(ptr noundef nonnull align 1 dereferenceable(1) %m_orig) #19
  br label %lpad.body

if.end.i:                                         ; preds = %.noexc
  %call.i.i = call noundef i64 @strlen(ptr noundef nonnull dereferenceable(1) %orig) #19
  %add.ptr.i = getelementptr inbounds i8, ptr %orig, i64 %call.i.i
  invoke void @_ZNSt7__cxx1112basic_stringIcSt11char_traitsIcESaIcEE12_M_constructIPKcEEvT_S8_St20forward_iterator_tag(ptr noundef nonnull align 8 dereferenceable(32) %m_orig, ptr noundef nonnull %orig, ptr noundef nonnull %add.ptr.i)
          to label %invoke.cont unwind label %lpad.i

invoke.cont:                                      ; preds = %if.end.i
  call void @_ZNSaIcED1Ev(ptr noundef nonnull align 1 dereferenceable(1) %ref.tmp) #19
  %m_entries = getelementptr inbounds %class.generic_model_converter, ptr %this, i64 0, i32 3
  store ptr null, ptr %m_entries, align 8
  ret void

lpad:                                             ; preds = %call.i.noexc, %entry
  %1 = landingpad { ptr, i32 }
          cleanup
  br label %lpad.body

lpad.body:                                        ; preds = %lpad.i, %lpad
  %eh.lpad-body = phi { ptr, i32 } [ %1, %lpad ], [ %0, %lpad.i ]
  call void @_ZNSaIcED1Ev(ptr noundef nonnull align 1 dereferenceable(1) %ref.tmp) #19
  resume { ptr, i32 } %eh.lpad-body
}

; Function Attrs: mustprogress nounwind uwtable
define linkonce_odr hidden void @_ZN7obj_mapI4exprN2qe9max_levelEED2Ev(ptr noundef nonnull align 8 dereferenceable(24) %this) unnamed_addr #4 comdat align 2 personality ptr @__gxx_personality_v0 {
entry:
  %0 = load ptr, ptr %this, align 8
  %cmp.i.i.i = icmp eq ptr %0, null
  br i1 %cmp.i.i.i, label %_ZN14core_hashtableIN7obj_mapI4exprN2qe9max_levelEE13obj_map_entryE8obj_hashINS4_8key_dataEE10default_eqIS7_EED2Ev.exit, label %for.cond.preheader.i.i.i

for.cond.preheader.i.i.i:                         ; preds = %entry
  invoke void @_ZN6memory10deallocateEPv(ptr noundef nonnull %0)
          to label %_ZN14core_hashtableIN7obj_mapI4exprN2qe9max_levelEE13obj_map_entryE8obj_hashINS4_8key_dataEE10default_eqIS7_EED2Ev.exit unwind label %terminate.lpad.i

terminate.lpad.i:                                 ; preds = %for.cond.preheader.i.i.i
  %1 = landingpad { ptr, i32 }
          catch ptr null
  %2 = extractvalue { ptr, i32 } %1, 0
  tail call void @__clang_call_terminate(ptr %2) #21
  unreachable

_ZN14core_hashtableIN7obj_mapI4exprN2qe9max_levelEE13obj_map_entryE8obj_hashINS4_8key_dataEE10default_eqIS7_EED2Ev.exit: ; preds = %entry, %for.cond.preheader.i.i.i
  store ptr null, ptr %this, align 8
  ret void
}

; Function Attrs: mustprogress nounwind uwtable
define linkonce_odr hidden void @_ZN10ptr_vectorI4exprED2Ev(ptr noundef nonnull align 8 dereferenceable(8) %this) unnamed_addr #4 comdat align 2 personality ptr @__gxx_personality_v0 {
entry:
  %0 = load ptr, ptr %this, align 8
  %tobool.not.i.i = icmp eq ptr %0, null
  br i1 %tobool.not.i.i, label %_ZN6vectorIP4exprLb0EjED2Ev.exit, label %if.then.i.i

if.then.i.i:                                      ; preds = %entry
  %add.ptr.i.i.i = getelementptr inbounds i32, ptr %0, i64 -2
  invoke void @_ZN6memory10deallocateEPv(ptr noundef nonnull %add.ptr.i.i.i)
          to label %_ZN6vectorIP4exprLb0EjED2Ev.exit unwind label %terminate.lpad.i

terminate.lpad.i:                                 ; preds = %if.then.i.i
  %1 = landingpad { ptr, i32 }
          catch ptr null
  %2 = extractvalue { ptr, i32 } %1, 0
  tail call void @__clang_call_terminate(ptr %2) #21
  unreachable

_ZN6vectorIP4exprLb0EjED2Ev.exit:                 ; preds = %entry, %if.then.i.i
  ret void
}

; Function Attrs: mustprogress nounwind uwtable
define linkonce_odr hidden void @_ZN3refI23generic_model_converterED2Ev(ptr noundef nonnull align 8 dereferenceable(8) %this) unnamed_addr #4 comdat align 2 personality ptr @__gxx_personality_v0 {
entry:
  %0 = load ptr, ptr %this, align 8
  %tobool.not.i = icmp eq ptr %0, null
  br i1 %tobool.not.i, label %invoke.cont, label %if.then.i

if.then.i:                                        ; preds = %entry
  %m_ref_count.i.i = getelementptr inbounds %class.converter, ptr %0, i64 0, i32 1
  %1 = load i32, ptr %m_ref_count.i.i, align 8
  %dec.i.i = add i32 %1, -1
  store i32 %dec.i.i, ptr %m_ref_count.i.i, align 8
  %cmp.i.i = icmp eq i32 %dec.i.i, 0
  br i1 %cmp.i.i, label %if.then.i.i, label %invoke.cont

if.then.i.i:                                      ; preds = %if.then.i
  %vtable.i.i.i = load ptr, ptr %0, align 8
  %2 = load ptr, ptr %vtable.i.i.i, align 8
  tail call void %2(ptr noundef nonnull align 8 dereferenceable(12) %0) #19
  invoke void @_ZN6memory10deallocateEPv(ptr noundef nonnull %0)
          to label %invoke.cont unwind label %terminate.lpad

invoke.cont:                                      ; preds = %if.then.i, %entry, %if.then.i.i
  ret void

terminate.lpad:                                   ; preds = %if.then.i.i
  %3 = landingpad { ptr, i32 }
          catch ptr null
  %4 = extractvalue { ptr, i32 } %3, 0
  tail call void @__clang_call_terminate(ptr %4) #21
  unreachable
}

; Function Attrs: mustprogress nounwind uwtable
define linkonce_odr hidden void @_ZN10ref_vectorI4expr11ast_managerED2Ev(ptr noundef nonnull align 8 dereferenceable(16) %this) unnamed_addr #4 comdat align 2 personality ptr @__gxx_personality_v0 {
entry:
  %m_nodes.i = getelementptr inbounds %class.ref_vector_core, ptr %this, i64 0, i32 1
  %0 = load ptr, ptr %m_nodes.i, align 8
  %cmp.i.i = icmp eq ptr %0, null
  br i1 %cmp.i.i, label %_ZN15ref_vector_coreI4expr19ref_manager_wrapperIS0_11ast_managerEED2Ev.exit, label %_ZNK6vectorIP4exprLb0EjE4sizeEv.exit.i

_ZNK6vectorIP4exprLb0EjE4sizeEv.exit.i:           ; preds = %entry
  %arrayidx.i.i = getelementptr inbounds i32, ptr %0, i64 -1
  %1 = load i32, ptr %arrayidx.i.i, align 4
  %2 = zext i32 %1 to i64
  %add.ptr.i = getelementptr inbounds ptr, ptr %0, i64 %2
  %cmp3.i.not.i = icmp eq i32 %1, 0
  br i1 %cmp3.i.not.i, label %if.then.i.i.i.i, label %for.body.i.i

for.body.i.i:                                     ; preds = %_ZNK6vectorIP4exprLb0EjE4sizeEv.exit.i, %_ZN15ref_vector_coreI4expr19ref_manager_wrapperIS0_11ast_managerEE7dec_refEPS0_.exit.i.i
  %it.04.i.i = phi ptr [ %incdec.ptr.i.i, %_ZN15ref_vector_coreI4expr19ref_manager_wrapperIS0_11ast_managerEE7dec_refEPS0_.exit.i.i ], [ %0, %_ZNK6vectorIP4exprLb0EjE4sizeEv.exit.i ]
  %3 = load ptr, ptr %it.04.i.i, align 8
  %4 = load ptr, ptr %this, align 8
  %tobool.not.i.i.i.i.i = icmp eq ptr %3, null
  br i1 %tobool.not.i.i.i.i.i, label %_ZN15ref_vector_coreI4expr19ref_manager_wrapperIS0_11ast_managerEE7dec_refEPS0_.exit.i.i, label %if.then.i.i.i.i.i

if.then.i.i.i.i.i:                                ; preds = %for.body.i.i
  %m_ref_count.i.i.i.i.i.i = getelementptr inbounds %class.ast, ptr %3, i64 0, i32 2
  %5 = load i32, ptr %m_ref_count.i.i.i.i.i.i, align 4
  %dec.i.i.i.i.i.i = add i32 %5, -1
  store i32 %dec.i.i.i.i.i.i, ptr %m_ref_count.i.i.i.i.i.i, align 4
  %cmp.i.i.i.i.i = icmp eq i32 %dec.i.i.i.i.i.i, 0
  br i1 %cmp.i.i.i.i.i, label %if.then2.i.i.i.i.i, label %_ZN15ref_vector_coreI4expr19ref_manager_wrapperIS0_11ast_managerEE7dec_refEPS0_.exit.i.i

if.then2.i.i.i.i.i:                               ; preds = %if.then.i.i.i.i.i
  invoke void @_ZN11ast_manager11delete_nodeEP3ast(ptr noundef nonnull align 8 dereferenceable(976) %4, ptr noundef nonnull %3)
          to label %_ZN15ref_vector_coreI4expr19ref_manager_wrapperIS0_11ast_managerEE7dec_refEPS0_.exit.i.i unwind label %terminate.lpad.i

_ZN15ref_vector_coreI4expr19ref_manager_wrapperIS0_11ast_managerEE7dec_refEPS0_.exit.i.i: ; preds = %if.then2.i.i.i.i.i, %if.then.i.i.i.i.i, %for.body.i.i
  %incdec.ptr.i.i = getelementptr inbounds ptr, ptr %it.04.i.i, i64 1
  %cmp.i1.i = icmp ult ptr %incdec.ptr.i.i, %add.ptr.i
  br i1 %cmp.i1.i, label %for.body.i.i, label %invoke.cont8.i, !llvm.loop !7

invoke.cont8.i:                                   ; preds = %_ZN15ref_vector_coreI4expr19ref_manager_wrapperIS0_11ast_managerEE7dec_refEPS0_.exit.i.i
  %.pre.i = load ptr, ptr %m_nodes.i, align 8
  %tobool.not.i.i.i.i = icmp eq ptr %.pre.i, null
  br i1 %tobool.not.i.i.i.i, label %_ZN15ref_vector_coreI4expr19ref_manager_wrapperIS0_11ast_managerEED2Ev.exit, label %if.then.i.i.i.i

if.then.i.i.i.i:                                  ; preds = %invoke.cont8.i, %_ZNK6vectorIP4exprLb0EjE4sizeEv.exit.i
  %6 = phi ptr [ %.pre.i, %invoke.cont8.i ], [ %0, %_ZNK6vectorIP4exprLb0EjE4sizeEv.exit.i ]
  %add.ptr.i.i.i.i.i = getelementptr inbounds i32, ptr %6, i64 -2
  invoke void @_ZN6memory10deallocateEPv(ptr noundef nonnull %add.ptr.i.i.i.i.i)
          to label %_ZN15ref_vector_coreI4expr19ref_manager_wrapperIS0_11ast_managerEED2Ev.exit unwind label %terminate.lpad.i.i.i

terminate.lpad.i.i.i:                             ; preds = %if.then.i.i.i.i
  %7 = landingpad { ptr, i32 }
          catch ptr null
  %8 = extractvalue { ptr, i32 } %7, 0
  tail call void @__clang_call_terminate(ptr %8) #21
  unreachable

terminate.lpad.i:                                 ; preds = %if.then2.i.i.i.i.i
  %9 = landingpad { ptr, i32 }
          catch ptr null
  %10 = extractvalue { ptr, i32 } %9, 0
  tail call void @__clang_call_terminate(ptr %10) #21
  unreachable

_ZN15ref_vector_coreI4expr19ref_manager_wrapperIS0_11ast_managerEED2Ev.exit: ; preds = %entry, %invoke.cont8.i, %if.then.i.i.i.i
  ret void
}

; Function Attrs: mustprogress nounwind uwtable
define linkonce_odr hidden void @_ZN7obj_mapI4exprPS0_ED2Ev(ptr noundef nonnull align 8 dereferenceable(24) %this) unnamed_addr #4 comdat align 2 personality ptr @__gxx_personality_v0 {
entry:
  %0 = load ptr, ptr %this, align 8
  %cmp.i.i.i = icmp eq ptr %0, null
  br i1 %cmp.i.i.i, label %_ZN14core_hashtableIN7obj_mapI4exprPS1_E13obj_map_entryE8obj_hashINS3_8key_dataEE10default_eqIS6_EED2Ev.exit, label %for.cond.preheader.i.i.i

for.cond.preheader.i.i.i:                         ; preds = %entry
  invoke void @_ZN6memory10deallocateEPv(ptr noundef nonnull %0)
          to label %_ZN14core_hashtableIN7obj_mapI4exprPS1_E13obj_map_entryE8obj_hashINS3_8key_dataEE10default_eqIS6_EED2Ev.exit unwind label %terminate.lpad.i

terminate.lpad.i:                                 ; preds = %for.cond.preheader.i.i.i
  %1 = landingpad { ptr, i32 }
          catch ptr null
  %2 = extractvalue { ptr, i32 } %1, 0
  tail call void @__clang_call_terminate(ptr %2) #21
  unreachable

_ZN14core_hashtableIN7obj_mapI4exprPS1_E13obj_map_entryE8obj_hashINS3_8key_dataEE10default_eqIS6_EED2Ev.exit: ; preds = %entry, %for.cond.preheader.i.i.i
  store ptr null, ptr %this, align 8
  ret void
}

; Function Attrs: mustprogress nounwind uwtable
define linkonce_odr hidden void @_ZN7obj_mapI4exprP3appED2Ev(ptr noundef nonnull align 8 dereferenceable(24) %this) unnamed_addr #4 comdat align 2 personality ptr @__gxx_personality_v0 {
entry:
  %0 = load ptr, ptr %this, align 8
  %cmp.i.i.i = icmp eq ptr %0, null
  br i1 %cmp.i.i.i, label %_ZN14core_hashtableIN7obj_mapI4exprP3appE13obj_map_entryE8obj_hashINS4_8key_dataEE10default_eqIS7_EED2Ev.exit, label %for.cond.preheader.i.i.i

for.cond.preheader.i.i.i:                         ; preds = %entry
  invoke void @_ZN6memory10deallocateEPv(ptr noundef nonnull %0)
          to label %_ZN14core_hashtableIN7obj_mapI4exprP3appE13obj_map_entryE8obj_hashINS4_8key_dataEE10default_eqIS7_EED2Ev.exit unwind label %terminate.lpad.i

terminate.lpad.i:                                 ; preds = %for.cond.preheader.i.i.i
  %1 = landingpad { ptr, i32 }
          catch ptr null
  %2 = extractvalue { ptr, i32 } %1, 0
  tail call void @__clang_call_terminate(ptr %2) #21
  unreachable

_ZN14core_hashtableIN7obj_mapI4exprP3appE13obj_map_entryE8obj_hashINS4_8key_dataEE10default_eqIS7_EED2Ev.exit: ; preds = %entry, %for.cond.preheader.i.i.i
  store ptr null, ptr %this, align 8
  ret void
}

; Function Attrs: mustprogress nounwind uwtable
define linkonce_odr hidden void @_ZN7svectorIjjED2Ev(ptr noundef nonnull align 8 dereferenceable(8) %this) unnamed_addr #4 comdat align 2 personality ptr @__gxx_personality_v0 {
entry:
  %0 = load ptr, ptr %this, align 8
  %tobool.not.i.i = icmp eq ptr %0, null
  br i1 %tobool.not.i.i, label %_ZN6vectorIjLb0EjED2Ev.exit, label %if.then.i.i

if.then.i.i:                                      ; preds = %entry
  %add.ptr.i.i.i = getelementptr inbounds i32, ptr %0, i64 -2
  invoke void @_ZN6memory10deallocateEPv(ptr noundef nonnull %add.ptr.i.i.i)
          to label %_ZN6vectorIjLb0EjED2Ev.exit unwind label %terminate.lpad.i

terminate.lpad.i:                                 ; preds = %if.then.i.i
  %1 = landingpad { ptr, i32 }
          catch ptr null
  %2 = extractvalue { ptr, i32 } %1, 0
  tail call void @__clang_call_terminate(ptr %2) #21
  unreachable

_ZN6vectorIjLb0EjED2Ev.exit:                      ; preds = %entry, %if.then.i.i
  ret void
}

; Function Attrs: mustprogress nounwind uwtable
define linkonce_odr hidden void @_ZN6vectorI10ref_vectorI3app11ast_managerELb1EjED2Ev(ptr noundef nonnull align 8 dereferenceable(8) %this) unnamed_addr #4 comdat align 2 personality ptr @__gxx_personality_v0 {
entry:
  %0 = load ptr, ptr %this, align 8
  %tobool.not.i = icmp eq ptr %0, null
  br i1 %tobool.not.i, label %invoke.cont, label %if.then.i

if.then.i:                                        ; preds = %entry
  invoke void @_ZN6vectorI10ref_vectorI3app11ast_managerELb1EjE16destroy_elementsEv(ptr noundef nonnull align 8 dereferenceable(8) %this)
          to label %.noexc unwind label %terminate.lpad

.noexc:                                           ; preds = %if.then.i
  %1 = load ptr, ptr %this, align 8
  %add.ptr.i.i = getelementptr inbounds i32, ptr %1, i64 -2
  invoke void @_ZN6memory10deallocateEPv(ptr noundef nonnull %add.ptr.i.i)
          to label %invoke.cont unwind label %terminate.lpad

invoke.cont:                                      ; preds = %entry, %.noexc
  ret void

terminate.lpad:                                   ; preds = %.noexc, %if.then.i
  %2 = landingpad { ptr, i32 }
          catch ptr null
  %3 = extractvalue { ptr, i32 } %2, 0
  tail call void @__clang_call_terminate(ptr %3) #21
  unreachable
}

; Function Attrs: mustprogress nofree norecurse nosync nounwind willreturn memory(argmem: read) uwtable
define hidden noundef ptr @_ZN2qe8pred_abs3fmcEv(ptr nocapture noundef nonnull readonly align 8 dereferenceable(216) %this) local_unnamed_addr #5 align 2 {
entry:
  %m_fmc = getelementptr inbounds %"class.qe::pred_abs", ptr %this, i64 0, i32 9
  %0 = load ptr, ptr %m_fmc, align 8
  ret ptr %0
}

; Function Attrs: mustprogress uwtable
define hidden void @_ZN2qe8pred_abs5resetEv(ptr noundef nonnull align 8 dereferenceable(216) %this) local_unnamed_addr #3 align 2 {
entry:
  %m_trail = getelementptr inbounds %"class.qe::pred_abs", ptr %this, i64 0, i32 8
  %m_nodes.i = getelementptr inbounds %"class.qe::pred_abs", ptr %this, i64 0, i32 8, i32 0, i32 1
  %0 = load ptr, ptr %m_nodes.i, align 8
  %cmp.i.i = icmp eq ptr %0, null
  br i1 %cmp.i.i, label %_ZN15ref_vector_coreI4expr19ref_manager_wrapperIS0_11ast_managerEE5resetEv.exit, label %_ZNK6vectorIP4exprLb0EjE4sizeEv.exit.i

_ZNK6vectorIP4exprLb0EjE4sizeEv.exit.i:           ; preds = %entry
  %arrayidx.i.i = getelementptr inbounds i32, ptr %0, i64 -1
  %1 = load i32, ptr %arrayidx.i.i, align 4
  %2 = zext i32 %1 to i64
  %add.ptr.i = getelementptr inbounds ptr, ptr %0, i64 %2
  %cmp3.i.not.i = icmp eq i32 %1, 0
  br i1 %cmp3.i.not.i, label %if.then.i.i, label %for.body.i.i

for.body.i.i:                                     ; preds = %_ZNK6vectorIP4exprLb0EjE4sizeEv.exit.i, %_ZN15ref_vector_coreI4expr19ref_manager_wrapperIS0_11ast_managerEE7dec_refEPS0_.exit.i.i
  %it.04.i.i = phi ptr [ %incdec.ptr.i.i, %_ZN15ref_vector_coreI4expr19ref_manager_wrapperIS0_11ast_managerEE7dec_refEPS0_.exit.i.i ], [ %0, %_ZNK6vectorIP4exprLb0EjE4sizeEv.exit.i ]
  %3 = load ptr, ptr %it.04.i.i, align 8
  %4 = load ptr, ptr %m_trail, align 8
  %tobool.not.i.i.i.i.i = icmp eq ptr %3, null
  br i1 %tobool.not.i.i.i.i.i, label %_ZN15ref_vector_coreI4expr19ref_manager_wrapperIS0_11ast_managerEE7dec_refEPS0_.exit.i.i, label %if.then.i.i.i.i.i

if.then.i.i.i.i.i:                                ; preds = %for.body.i.i
  %m_ref_count.i.i.i.i.i.i = getelementptr inbounds %class.ast, ptr %3, i64 0, i32 2
  %5 = load i32, ptr %m_ref_count.i.i.i.i.i.i, align 4
  %dec.i.i.i.i.i.i = add i32 %5, -1
  store i32 %dec.i.i.i.i.i.i, ptr %m_ref_count.i.i.i.i.i.i, align 4
  %cmp.i.i.i.i.i = icmp eq i32 %dec.i.i.i.i.i.i, 0
  br i1 %cmp.i.i.i.i.i, label %if.then2.i.i.i.i.i, label %_ZN15ref_vector_coreI4expr19ref_manager_wrapperIS0_11ast_managerEE7dec_refEPS0_.exit.i.i

if.then2.i.i.i.i.i:                               ; preds = %if.then.i.i.i.i.i
  tail call void @_ZN11ast_manager11delete_nodeEP3ast(ptr noundef nonnull align 8 dereferenceable(976) %4, ptr noundef nonnull %3)
  br label %_ZN15ref_vector_coreI4expr19ref_manager_wrapperIS0_11ast_managerEE7dec_refEPS0_.exit.i.i

_ZN15ref_vector_coreI4expr19ref_manager_wrapperIS0_11ast_managerEE7dec_refEPS0_.exit.i.i: ; preds = %if.then2.i.i.i.i.i, %if.then.i.i.i.i.i, %for.body.i.i
  %incdec.ptr.i.i = getelementptr inbounds ptr, ptr %it.04.i.i, i64 1
  %cmp.i1.i = icmp ult ptr %incdec.ptr.i.i, %add.ptr.i
  br i1 %cmp.i1.i, label %for.body.i.i, label %_ZN15ref_vector_coreI4expr19ref_manager_wrapperIS0_11ast_managerEE13dec_range_refEPKPS0_S7_.exit.i, !llvm.loop !7

_ZN15ref_vector_coreI4expr19ref_manager_wrapperIS0_11ast_managerEE13dec_range_refEPKPS0_S7_.exit.i: ; preds = %_ZN15ref_vector_coreI4expr19ref_manager_wrapperIS0_11ast_managerEE7dec_refEPS0_.exit.i.i
  %.pre.i = load ptr, ptr %m_nodes.i, align 8
  %tobool.not.i.i = icmp eq ptr %.pre.i, null
  br i1 %tobool.not.i.i, label %_ZN15ref_vector_coreI4expr19ref_manager_wrapperIS0_11ast_managerEE5resetEv.exit, label %if.then.i.i

if.then.i.i:                                      ; preds = %_ZN15ref_vector_coreI4expr19ref_manager_wrapperIS0_11ast_managerEE13dec_range_refEPKPS0_S7_.exit.i, %_ZNK6vectorIP4exprLb0EjE4sizeEv.exit.i
  %6 = phi ptr [ %.pre.i, %_ZN15ref_vector_coreI4expr19ref_manager_wrapperIS0_11ast_managerEE13dec_range_refEPKPS0_S7_.exit.i ], [ %0, %_ZNK6vectorIP4exprLb0EjE4sizeEv.exit.i ]
  %arrayidx.i2.i = getelementptr inbounds i32, ptr %6, i64 -1
  store i32 0, ptr %arrayidx.i2.i, align 4
  br label %_ZN15ref_vector_coreI4expr19ref_manager_wrapperIS0_11ast_managerEE5resetEv.exit

_ZN15ref_vector_coreI4expr19ref_manager_wrapperIS0_11ast_managerEE5resetEv.exit: ; preds = %entry, %_ZN15ref_vector_coreI4expr19ref_manager_wrapperIS0_11ast_managerEE13dec_range_refEPKPS0_S7_.exit.i, %if.then.i.i
  %m_pred2lit = getelementptr inbounds %"class.qe::pred_abs", ptr %this, i64 0, i32 4
  %7 = load ptr, ptr %m_pred2lit, align 8
  %m_capacity.i.i.i = getelementptr inbounds %"class.qe::pred_abs", ptr %this, i64 0, i32 4, i32 0, i32 1
  %8 = load i32, ptr %m_capacity.i.i.i, align 8
  %idx.ext.i.i.i = zext i32 %8 to i64
  %add.ptr.i.i.i = getelementptr inbounds %"class.obj_map<expr, expr *>::obj_map_entry", ptr %7, i64 %idx.ext.i.i.i
  %cmp.not2.i.i.i.i.i = icmp eq i32 %8, 0
  br i1 %cmp.not2.i.i.i.i.i, label %_ZNK7obj_mapI4exprPS0_E5beginEv.exit.i, label %land.rhs.i.i.i.i.i

land.rhs.i.i.i.i.i:                               ; preds = %_ZN15ref_vector_coreI4expr19ref_manager_wrapperIS0_11ast_managerEE5resetEv.exit, %while.body.i.i.i.i.i
  %retval.sroa.0.0.i.i.i = phi ptr [ %incdec.ptr.i.i.i.i.i, %while.body.i.i.i.i.i ], [ %7, %_ZN15ref_vector_coreI4expr19ref_manager_wrapperIS0_11ast_managerEE5resetEv.exit ]
  %9 = load ptr, ptr %retval.sroa.0.0.i.i.i, align 8
  %switch.i.i.i.i.i = icmp ult ptr %9, inttoptr (i64 2 to ptr)
  br i1 %switch.i.i.i.i.i, label %while.body.i.i.i.i.i, label %_ZNK7obj_mapI4exprPS0_E5beginEv.exit.i

while.body.i.i.i.i.i:                             ; preds = %land.rhs.i.i.i.i.i
  %incdec.ptr.i.i.i.i.i = getelementptr inbounds %"class.obj_map<expr, expr *>::obj_map_entry", ptr %retval.sroa.0.0.i.i.i, i64 1
  %cmp.not.i.i.i.i.i = icmp eq ptr %incdec.ptr.i.i.i.i.i, %add.ptr.i.i.i
  br i1 %cmp.not.i.i.i.i.i, label %_ZN2qe8pred_abs8dec_keysI4exprEEvR7obj_mapIS2_PT_E.exit, label %land.rhs.i.i.i.i.i, !llvm.loop !8

_ZNK7obj_mapI4exprPS0_E5beginEv.exit.i:           ; preds = %land.rhs.i.i.i.i.i, %_ZN15ref_vector_coreI4expr19ref_manager_wrapperIS0_11ast_managerEE5resetEv.exit
  %retval.sroa.0.1.i.i.i = phi ptr [ %7, %_ZN15ref_vector_coreI4expr19ref_manager_wrapperIS0_11ast_managerEE5resetEv.exit ], [ %retval.sroa.0.0.i.i.i, %land.rhs.i.i.i.i.i ]
  %cmp.i.not10.i = icmp eq ptr %retval.sroa.0.1.i.i.i, %add.ptr.i.i.i
  br i1 %cmp.i.not10.i, label %_ZN2qe8pred_abs8dec_keysI4exprEEvR7obj_mapIS2_PT_E.exit, label %for.body.ithread-pre-split

for.body.ithread-pre-split:                       ; preds = %_ZNK7obj_mapI4exprPS0_E5beginEv.exit.i
  %.pr = load ptr, ptr %retval.sroa.0.1.i.i.i, align 8
  br label %for.body.i

for.body.i:                                       ; preds = %for.body.ithread-pre-split, %_ZN14core_hashtableIN7obj_mapI4exprPS1_E13obj_map_entryE8obj_hashINS3_8key_dataEE10default_eqIS6_EE8iteratorppEv.exit.i
  %10 = phi ptr [ %.pr, %for.body.ithread-pre-split ], [ %13, %_ZN14core_hashtableIN7obj_mapI4exprPS1_E13obj_map_entryE8obj_hashINS3_8key_dataEE10default_eqIS6_EE8iteratorppEv.exit.i ]
  %it.sroa.0.011.i = phi ptr [ %retval.sroa.0.1.i.i.i, %for.body.ithread-pre-split ], [ %it.sroa.0.1.i, %_ZN14core_hashtableIN7obj_mapI4exprPS1_E13obj_map_entryE8obj_hashINS3_8key_dataEE10default_eqIS6_EE8iteratorppEv.exit.i ]
  %11 = load ptr, ptr %this, align 8
  %tobool.not.i.i1 = icmp eq ptr %10, null
  br i1 %tobool.not.i.i1, label %_ZN11ast_manager7dec_refEP3ast.exit.i, label %if.then.i.i2

if.then.i.i2:                                     ; preds = %for.body.i
  %m_ref_count.i.i.i = getelementptr inbounds %class.ast, ptr %10, i64 0, i32 2
  %12 = load i32, ptr %m_ref_count.i.i.i, align 4
  %dec.i.i.i = add i32 %12, -1
  store i32 %dec.i.i.i, ptr %m_ref_count.i.i.i, align 4
  %cmp.i7.i = icmp eq i32 %dec.i.i.i, 0
  br i1 %cmp.i7.i, label %if.then2.i.i, label %_ZN11ast_manager7dec_refEP3ast.exit.i

if.then2.i.i:                                     ; preds = %if.then.i.i2
  tail call void @_ZN11ast_manager11delete_nodeEP3ast(ptr noundef nonnull align 8 dereferenceable(976) %11, ptr noundef nonnull %10)
  br label %_ZN11ast_manager7dec_refEP3ast.exit.i

_ZN11ast_manager7dec_refEP3ast.exit.i:            ; preds = %if.then2.i.i, %if.then.i.i2, %for.body.i
  %incdec.ptr.i.i3 = getelementptr inbounds %"class.obj_map<expr, expr *>::obj_map_entry", ptr %it.sroa.0.011.i, i64 1
  %cmp.not2.i.i.i = icmp eq ptr %incdec.ptr.i.i3, %add.ptr.i.i.i
  br i1 %cmp.not2.i.i.i, label %_ZN2qe8pred_abs8dec_keysI4exprEEvR7obj_mapIS2_PT_E.exit, label %land.rhs.i.i.i

land.rhs.i.i.i:                                   ; preds = %_ZN11ast_manager7dec_refEP3ast.exit.i, %while.body.i.i.i
  %it.sroa.0.1.i = phi ptr [ %incdec.ptr.i.i.i, %while.body.i.i.i ], [ %incdec.ptr.i.i3, %_ZN11ast_manager7dec_refEP3ast.exit.i ]
  %13 = load ptr, ptr %it.sroa.0.1.i, align 8
  %switch.i.i.i = icmp ult ptr %13, inttoptr (i64 2 to ptr)
  br i1 %switch.i.i.i, label %while.body.i.i.i, label %_ZN14core_hashtableIN7obj_mapI4exprPS1_E13obj_map_entryE8obj_hashINS3_8key_dataEE10default_eqIS6_EE8iteratorppEv.exit.i

while.body.i.i.i:                                 ; preds = %land.rhs.i.i.i
  %incdec.ptr.i.i.i = getelementptr inbounds %"class.obj_map<expr, expr *>::obj_map_entry", ptr %it.sroa.0.1.i, i64 1
  %cmp.not.i.i.i = icmp eq ptr %incdec.ptr.i.i.i, %add.ptr.i.i.i
  br i1 %cmp.not.i.i.i, label %_ZN2qe8pred_abs8dec_keysI4exprEEvR7obj_mapIS2_PT_E.exit, label %land.rhs.i.i.i, !llvm.loop !8

_ZN14core_hashtableIN7obj_mapI4exprPS1_E13obj_map_entryE8obj_hashINS3_8key_dataEE10default_eqIS6_EE8iteratorppEv.exit.i: ; preds = %land.rhs.i.i.i
  %cmp.i.not.i = icmp eq ptr %it.sroa.0.1.i, %add.ptr.i.i.i
  br i1 %cmp.i.not.i, label %_ZN2qe8pred_abs8dec_keysI4exprEEvR7obj_mapIS2_PT_E.exit, label %for.body.i, !llvm.loop !9

_ZN2qe8pred_abs8dec_keysI4exprEEvR7obj_mapIS2_PT_E.exit: ; preds = %while.body.i.i.i.i.i, %_ZN11ast_manager7dec_refEP3ast.exit.i, %_ZN14core_hashtableIN7obj_mapI4exprPS1_E13obj_map_entryE8obj_hashINS3_8key_dataEE10default_eqIS6_EE8iteratorppEv.exit.i, %while.body.i.i.i, %_ZNK7obj_mapI4exprPS0_E5beginEv.exit.i
  %m_lit2pred = getelementptr inbounds %"class.qe::pred_abs", ptr %this, i64 0, i32 5
  %14 = load ptr, ptr %m_lit2pred, align 8
  %m_capacity.i.i.i4 = getelementptr inbounds %"class.qe::pred_abs", ptr %this, i64 0, i32 5, i32 0, i32 1
  %15 = load i32, ptr %m_capacity.i.i.i4, align 8
  %idx.ext.i.i.i5 = zext i32 %15 to i64
  %add.ptr.i.i.i6 = getelementptr inbounds %"class.obj_map<expr, app *>::obj_map_entry", ptr %14, i64 %idx.ext.i.i.i5
  %cmp.not2.i.i.i.i.i7 = icmp eq i32 %15, 0
  br i1 %cmp.not2.i.i.i.i.i7, label %_ZNK7obj_mapI4exprP3appE5beginEv.exit.i, label %land.rhs.i.i.i.i.i8

land.rhs.i.i.i.i.i8:                              ; preds = %_ZN2qe8pred_abs8dec_keysI4exprEEvR7obj_mapIS2_PT_E.exit, %while.body.i.i.i.i.i31
  %retval.sroa.0.0.i.i.i9 = phi ptr [ %incdec.ptr.i.i.i.i.i32, %while.body.i.i.i.i.i31 ], [ %14, %_ZN2qe8pred_abs8dec_keysI4exprEEvR7obj_mapIS2_PT_E.exit ]
  %16 = load ptr, ptr %retval.sroa.0.0.i.i.i9, align 8
  %switch.i.i.i.i.i10 = icmp ult ptr %16, inttoptr (i64 2 to ptr)
  br i1 %switch.i.i.i.i.i10, label %while.body.i.i.i.i.i31, label %_ZNK7obj_mapI4exprP3appE5beginEv.exit.i

while.body.i.i.i.i.i31:                           ; preds = %land.rhs.i.i.i.i.i8
  %incdec.ptr.i.i.i.i.i32 = getelementptr inbounds %"class.obj_map<expr, app *>::obj_map_entry", ptr %retval.sroa.0.0.i.i.i9, i64 1
  %cmp.not.i.i.i.i.i33 = icmp eq ptr %incdec.ptr.i.i.i.i.i32, %add.ptr.i.i.i6
  br i1 %cmp.not.i.i.i.i.i33, label %_ZN2qe8pred_abs8dec_keysI3appEEvR7obj_mapI4exprPT_E.exit, label %land.rhs.i.i.i.i.i8, !llvm.loop !10

_ZNK7obj_mapI4exprP3appE5beginEv.exit.i:          ; preds = %land.rhs.i.i.i.i.i8, %_ZN2qe8pred_abs8dec_keysI4exprEEvR7obj_mapIS2_PT_E.exit
  %retval.sroa.0.1.i.i.i11 = phi ptr [ %14, %_ZN2qe8pred_abs8dec_keysI4exprEEvR7obj_mapIS2_PT_E.exit ], [ %retval.sroa.0.0.i.i.i9, %land.rhs.i.i.i.i.i8 ]
  %cmp.i.not10.i12 = icmp eq ptr %retval.sroa.0.1.i.i.i11, %add.ptr.i.i.i6
  br i1 %cmp.i.not10.i12, label %_ZN2qe8pred_abs8dec_keysI3appEEvR7obj_mapI4exprPT_E.exit, label %for.body.i13thread-pre-split

for.body.i13thread-pre-split:                     ; preds = %_ZNK7obj_mapI4exprP3appE5beginEv.exit.i
  %.pr249 = load ptr, ptr %retval.sroa.0.1.i.i.i11, align 8
  br label %for.body.i13

for.body.i13:                                     ; preds = %for.body.i13thread-pre-split, %_ZN14core_hashtableIN7obj_mapI4exprP3appE13obj_map_entryE8obj_hashINS4_8key_dataEE10default_eqIS7_EE8iteratorppEv.exit.i
  %17 = phi ptr [ %.pr249, %for.body.i13thread-pre-split ], [ %20, %_ZN14core_hashtableIN7obj_mapI4exprP3appE13obj_map_entryE8obj_hashINS4_8key_dataEE10default_eqIS7_EE8iteratorppEv.exit.i ]
  %it.sroa.0.011.i14 = phi ptr [ %retval.sroa.0.1.i.i.i11, %for.body.i13thread-pre-split ], [ %it.sroa.0.1.i24, %_ZN14core_hashtableIN7obj_mapI4exprP3appE13obj_map_entryE8obj_hashINS4_8key_dataEE10default_eqIS7_EE8iteratorppEv.exit.i ]
  %18 = load ptr, ptr %this, align 8
  %tobool.not.i.i15 = icmp eq ptr %17, null
  br i1 %tobool.not.i.i15, label %_ZN11ast_manager7dec_refEP3ast.exit.i20, label %if.then.i.i16

if.then.i.i16:                                    ; preds = %for.body.i13
  %m_ref_count.i.i.i17 = getelementptr inbounds %class.ast, ptr %17, i64 0, i32 2
  %19 = load i32, ptr %m_ref_count.i.i.i17, align 4
  %dec.i.i.i18 = add i32 %19, -1
  store i32 %dec.i.i.i18, ptr %m_ref_count.i.i.i17, align 4
  %cmp.i7.i19 = icmp eq i32 %dec.i.i.i18, 0
  br i1 %cmp.i7.i19, label %if.then2.i.i30, label %_ZN11ast_manager7dec_refEP3ast.exit.i20

if.then2.i.i30:                                   ; preds = %if.then.i.i16
  tail call void @_ZN11ast_manager11delete_nodeEP3ast(ptr noundef nonnull align 8 dereferenceable(976) %18, ptr noundef nonnull %17)
  br label %_ZN11ast_manager7dec_refEP3ast.exit.i20

_ZN11ast_manager7dec_refEP3ast.exit.i20:          ; preds = %if.then2.i.i30, %if.then.i.i16, %for.body.i13
  %incdec.ptr.i.i21 = getelementptr inbounds %"class.obj_map<expr, app *>::obj_map_entry", ptr %it.sroa.0.011.i14, i64 1
  %cmp.not2.i.i.i22 = icmp eq ptr %incdec.ptr.i.i21, %add.ptr.i.i.i6
  br i1 %cmp.not2.i.i.i22, label %_ZN2qe8pred_abs8dec_keysI3appEEvR7obj_mapI4exprPT_E.exit, label %land.rhs.i.i.i23

land.rhs.i.i.i23:                                 ; preds = %_ZN11ast_manager7dec_refEP3ast.exit.i20, %while.body.i.i.i27
  %it.sroa.0.1.i24 = phi ptr [ %incdec.ptr.i.i.i28, %while.body.i.i.i27 ], [ %incdec.ptr.i.i21, %_ZN11ast_manager7dec_refEP3ast.exit.i20 ]
  %20 = load ptr, ptr %it.sroa.0.1.i24, align 8
  %switch.i.i.i25 = icmp ult ptr %20, inttoptr (i64 2 to ptr)
  br i1 %switch.i.i.i25, label %while.body.i.i.i27, label %_ZN14core_hashtableIN7obj_mapI4exprP3appE13obj_map_entryE8obj_hashINS4_8key_dataEE10default_eqIS7_EE8iteratorppEv.exit.i

while.body.i.i.i27:                               ; preds = %land.rhs.i.i.i23
  %incdec.ptr.i.i.i28 = getelementptr inbounds %"class.obj_map<expr, app *>::obj_map_entry", ptr %it.sroa.0.1.i24, i64 1
  %cmp.not.i.i.i29 = icmp eq ptr %incdec.ptr.i.i.i28, %add.ptr.i.i.i6
  br i1 %cmp.not.i.i.i29, label %_ZN2qe8pred_abs8dec_keysI3appEEvR7obj_mapI4exprPT_E.exit, label %land.rhs.i.i.i23, !llvm.loop !10

_ZN14core_hashtableIN7obj_mapI4exprP3appE13obj_map_entryE8obj_hashINS4_8key_dataEE10default_eqIS7_EE8iteratorppEv.exit.i: ; preds = %land.rhs.i.i.i23
  %cmp.i.not.i26 = icmp eq ptr %it.sroa.0.1.i24, %add.ptr.i.i.i6
  br i1 %cmp.i.not.i26, label %_ZN2qe8pred_abs8dec_keysI3appEEvR7obj_mapI4exprPT_E.exit, label %for.body.i13, !llvm.loop !11

_ZN2qe8pred_abs8dec_keysI3appEEvR7obj_mapI4exprPT_E.exit: ; preds = %while.body.i.i.i.i.i31, %_ZN11ast_manager7dec_refEP3ast.exit.i20, %_ZN14core_hashtableIN7obj_mapI4exprP3appE13obj_map_entryE8obj_hashINS4_8key_dataEE10default_eqIS7_EE8iteratorppEv.exit.i, %while.body.i.i.i27, %_ZNK7obj_mapI4exprP3appE5beginEv.exit.i
  %m_asm2pred = getelementptr inbounds %"class.qe::pred_abs", ptr %this, i64 0, i32 6
  %21 = load ptr, ptr %m_asm2pred, align 8
  %m_capacity.i.i.i34 = getelementptr inbounds %"class.qe::pred_abs", ptr %this, i64 0, i32 6, i32 0, i32 1
  %22 = load i32, ptr %m_capacity.i.i.i34, align 8
  %idx.ext.i.i.i35 = zext i32 %22 to i64
  %add.ptr.i.i.i36 = getelementptr inbounds %"class.obj_map<expr, app *>::obj_map_entry", ptr %21, i64 %idx.ext.i.i.i35
  %cmp.not2.i.i.i.i.i37 = icmp eq i32 %22, 0
  br i1 %cmp.not2.i.i.i.i.i37, label %_ZNK7obj_mapI4exprP3appE5beginEv.exit.i41, label %land.rhs.i.i.i.i.i38

land.rhs.i.i.i.i.i38:                             ; preds = %_ZN2qe8pred_abs8dec_keysI3appEEvR7obj_mapI4exprPT_E.exit, %while.body.i.i.i.i.i63
  %retval.sroa.0.0.i.i.i39 = phi ptr [ %incdec.ptr.i.i.i.i.i64, %while.body.i.i.i.i.i63 ], [ %21, %_ZN2qe8pred_abs8dec_keysI3appEEvR7obj_mapI4exprPT_E.exit ]
  %23 = load ptr, ptr %retval.sroa.0.0.i.i.i39, align 8
  %switch.i.i.i.i.i40 = icmp ult ptr %23, inttoptr (i64 2 to ptr)
  br i1 %switch.i.i.i.i.i40, label %while.body.i.i.i.i.i63, label %_ZNK7obj_mapI4exprP3appE5beginEv.exit.i41

while.body.i.i.i.i.i63:                           ; preds = %land.rhs.i.i.i.i.i38
  %incdec.ptr.i.i.i.i.i64 = getelementptr inbounds %"class.obj_map<expr, app *>::obj_map_entry", ptr %retval.sroa.0.0.i.i.i39, i64 1
  %cmp.not.i.i.i.i.i65 = icmp eq ptr %incdec.ptr.i.i.i.i.i64, %add.ptr.i.i.i36
  br i1 %cmp.not.i.i.i.i.i65, label %_ZN2qe8pred_abs8dec_keysI3appEEvR7obj_mapI4exprPT_E.exit66, label %land.rhs.i.i.i.i.i38, !llvm.loop !10

_ZNK7obj_mapI4exprP3appE5beginEv.exit.i41:        ; preds = %land.rhs.i.i.i.i.i38, %_ZN2qe8pred_abs8dec_keysI3appEEvR7obj_mapI4exprPT_E.exit
  %retval.sroa.0.1.i.i.i42 = phi ptr [ %21, %_ZN2qe8pred_abs8dec_keysI3appEEvR7obj_mapI4exprPT_E.exit ], [ %retval.sroa.0.0.i.i.i39, %land.rhs.i.i.i.i.i38 ]
  %cmp.i.not10.i43 = icmp eq ptr %retval.sroa.0.1.i.i.i42, %add.ptr.i.i.i36
  br i1 %cmp.i.not10.i43, label %_ZN2qe8pred_abs8dec_keysI3appEEvR7obj_mapI4exprPT_E.exit66, label %for.body.i44thread-pre-split

for.body.i44thread-pre-split:                     ; preds = %_ZNK7obj_mapI4exprP3appE5beginEv.exit.i41
  %.pr250 = load ptr, ptr %retval.sroa.0.1.i.i.i42, align 8
  br label %for.body.i44

for.body.i44:                                     ; preds = %for.body.i44thread-pre-split, %_ZN14core_hashtableIN7obj_mapI4exprP3appE13obj_map_entryE8obj_hashINS4_8key_dataEE10default_eqIS7_EE8iteratorppEv.exit.i57
  %24 = phi ptr [ %.pr250, %for.body.i44thread-pre-split ], [ %27, %_ZN14core_hashtableIN7obj_mapI4exprP3appE13obj_map_entryE8obj_hashINS4_8key_dataEE10default_eqIS7_EE8iteratorppEv.exit.i57 ]
  %it.sroa.0.011.i45 = phi ptr [ %retval.sroa.0.1.i.i.i42, %for.body.i44thread-pre-split ], [ %it.sroa.0.1.i55, %_ZN14core_hashtableIN7obj_mapI4exprP3appE13obj_map_entryE8obj_hashINS4_8key_dataEE10default_eqIS7_EE8iteratorppEv.exit.i57 ]
  %25 = load ptr, ptr %this, align 8
  %tobool.not.i.i46 = icmp eq ptr %24, null
  br i1 %tobool.not.i.i46, label %_ZN11ast_manager7dec_refEP3ast.exit.i51, label %if.then.i.i47

if.then.i.i47:                                    ; preds = %for.body.i44
  %m_ref_count.i.i.i48 = getelementptr inbounds %class.ast, ptr %24, i64 0, i32 2
  %26 = load i32, ptr %m_ref_count.i.i.i48, align 4
  %dec.i.i.i49 = add i32 %26, -1
  store i32 %dec.i.i.i49, ptr %m_ref_count.i.i.i48, align 4
  %cmp.i7.i50 = icmp eq i32 %dec.i.i.i49, 0
  br i1 %cmp.i7.i50, label %if.then2.i.i62, label %_ZN11ast_manager7dec_refEP3ast.exit.i51

if.then2.i.i62:                                   ; preds = %if.then.i.i47
  tail call void @_ZN11ast_manager11delete_nodeEP3ast(ptr noundef nonnull align 8 dereferenceable(976) %25, ptr noundef nonnull %24)
  br label %_ZN11ast_manager7dec_refEP3ast.exit.i51

_ZN11ast_manager7dec_refEP3ast.exit.i51:          ; preds = %if.then2.i.i62, %if.then.i.i47, %for.body.i44
  %incdec.ptr.i.i52 = getelementptr inbounds %"class.obj_map<expr, app *>::obj_map_entry", ptr %it.sroa.0.011.i45, i64 1
  %cmp.not2.i.i.i53 = icmp eq ptr %incdec.ptr.i.i52, %add.ptr.i.i.i36
  br i1 %cmp.not2.i.i.i53, label %_ZN2qe8pred_abs8dec_keysI3appEEvR7obj_mapI4exprPT_E.exit66, label %land.rhs.i.i.i54

land.rhs.i.i.i54:                                 ; preds = %_ZN11ast_manager7dec_refEP3ast.exit.i51, %while.body.i.i.i59
  %it.sroa.0.1.i55 = phi ptr [ %incdec.ptr.i.i.i60, %while.body.i.i.i59 ], [ %incdec.ptr.i.i52, %_ZN11ast_manager7dec_refEP3ast.exit.i51 ]
  %27 = load ptr, ptr %it.sroa.0.1.i55, align 8
  %switch.i.i.i56 = icmp ult ptr %27, inttoptr (i64 2 to ptr)
  br i1 %switch.i.i.i56, label %while.body.i.i.i59, label %_ZN14core_hashtableIN7obj_mapI4exprP3appE13obj_map_entryE8obj_hashINS4_8key_dataEE10default_eqIS7_EE8iteratorppEv.exit.i57

while.body.i.i.i59:                               ; preds = %land.rhs.i.i.i54
  %incdec.ptr.i.i.i60 = getelementptr inbounds %"class.obj_map<expr, app *>::obj_map_entry", ptr %it.sroa.0.1.i55, i64 1
  %cmp.not.i.i.i61 = icmp eq ptr %incdec.ptr.i.i.i60, %add.ptr.i.i.i36
  br i1 %cmp.not.i.i.i61, label %_ZN2qe8pred_abs8dec_keysI3appEEvR7obj_mapI4exprPT_E.exit66, label %land.rhs.i.i.i54, !llvm.loop !10

_ZN14core_hashtableIN7obj_mapI4exprP3appE13obj_map_entryE8obj_hashINS4_8key_dataEE10default_eqIS7_EE8iteratorppEv.exit.i57: ; preds = %land.rhs.i.i.i54
  %cmp.i.not.i58 = icmp eq ptr %it.sroa.0.1.i55, %add.ptr.i.i.i36
  br i1 %cmp.i.not.i58, label %_ZN2qe8pred_abs8dec_keysI3appEEvR7obj_mapI4exprPT_E.exit66, label %for.body.i44, !llvm.loop !11

_ZN2qe8pred_abs8dec_keysI3appEEvR7obj_mapI4exprPT_E.exit66: ; preds = %while.body.i.i.i.i.i63, %_ZN11ast_manager7dec_refEP3ast.exit.i51, %_ZN14core_hashtableIN7obj_mapI4exprP3appE13obj_map_entryE8obj_hashINS4_8key_dataEE10default_eqIS7_EE8iteratorppEv.exit.i57, %while.body.i.i.i59, %_ZNK7obj_mapI4exprP3appE5beginEv.exit.i41
  %m_pred2asm = getelementptr inbounds %"class.qe::pred_abs", ptr %this, i64 0, i32 7
  %28 = load ptr, ptr %m_pred2asm, align 8
  %m_capacity.i.i.i67 = getelementptr inbounds %"class.qe::pred_abs", ptr %this, i64 0, i32 7, i32 0, i32 1
  %29 = load i32, ptr %m_capacity.i.i.i67, align 8
  %idx.ext.i.i.i68 = zext i32 %29 to i64
  %add.ptr.i.i.i69 = getelementptr inbounds %"class.obj_map<expr, expr *>::obj_map_entry", ptr %28, i64 %idx.ext.i.i.i68
  %cmp.not2.i.i.i.i.i70 = icmp eq i32 %29, 0
  br i1 %cmp.not2.i.i.i.i.i70, label %_ZNK7obj_mapI4exprPS0_E5beginEv.exit.i74, label %land.rhs.i.i.i.i.i71

land.rhs.i.i.i.i.i71:                             ; preds = %_ZN2qe8pred_abs8dec_keysI3appEEvR7obj_mapI4exprPT_E.exit66, %while.body.i.i.i.i.i96
  %retval.sroa.0.0.i.i.i72 = phi ptr [ %incdec.ptr.i.i.i.i.i97, %while.body.i.i.i.i.i96 ], [ %28, %_ZN2qe8pred_abs8dec_keysI3appEEvR7obj_mapI4exprPT_E.exit66 ]
  %30 = load ptr, ptr %retval.sroa.0.0.i.i.i72, align 8
  %switch.i.i.i.i.i73 = icmp ult ptr %30, inttoptr (i64 2 to ptr)
  br i1 %switch.i.i.i.i.i73, label %while.body.i.i.i.i.i96, label %_ZNK7obj_mapI4exprPS0_E5beginEv.exit.i74

while.body.i.i.i.i.i96:                           ; preds = %land.rhs.i.i.i.i.i71
  %incdec.ptr.i.i.i.i.i97 = getelementptr inbounds %"class.obj_map<expr, expr *>::obj_map_entry", ptr %retval.sroa.0.0.i.i.i72, i64 1
  %cmp.not.i.i.i.i.i98 = icmp eq ptr %incdec.ptr.i.i.i.i.i97, %add.ptr.i.i.i69
  br i1 %cmp.not.i.i.i.i.i98, label %_ZN2qe8pred_abs8dec_keysI4exprEEvR7obj_mapIS2_PT_E.exit99, label %land.rhs.i.i.i.i.i71, !llvm.loop !8

_ZNK7obj_mapI4exprPS0_E5beginEv.exit.i74:         ; preds = %land.rhs.i.i.i.i.i71, %_ZN2qe8pred_abs8dec_keysI3appEEvR7obj_mapI4exprPT_E.exit66
  %retval.sroa.0.1.i.i.i75 = phi ptr [ %28, %_ZN2qe8pred_abs8dec_keysI3appEEvR7obj_mapI4exprPT_E.exit66 ], [ %retval.sroa.0.0.i.i.i72, %land.rhs.i.i.i.i.i71 ]
  %cmp.i.not10.i76 = icmp eq ptr %retval.sroa.0.1.i.i.i75, %add.ptr.i.i.i69
  br i1 %cmp.i.not10.i76, label %_ZN2qe8pred_abs8dec_keysI4exprEEvR7obj_mapIS2_PT_E.exit99, label %for.body.i77thread-pre-split

for.body.i77thread-pre-split:                     ; preds = %_ZNK7obj_mapI4exprPS0_E5beginEv.exit.i74
  %.pr251 = load ptr, ptr %retval.sroa.0.1.i.i.i75, align 8
  br label %for.body.i77

for.body.i77:                                     ; preds = %for.body.i77thread-pre-split, %_ZN14core_hashtableIN7obj_mapI4exprPS1_E13obj_map_entryE8obj_hashINS3_8key_dataEE10default_eqIS6_EE8iteratorppEv.exit.i90
  %31 = phi ptr [ %.pr251, %for.body.i77thread-pre-split ], [ %34, %_ZN14core_hashtableIN7obj_mapI4exprPS1_E13obj_map_entryE8obj_hashINS3_8key_dataEE10default_eqIS6_EE8iteratorppEv.exit.i90 ]
  %it.sroa.0.011.i78 = phi ptr [ %retval.sroa.0.1.i.i.i75, %for.body.i77thread-pre-split ], [ %it.sroa.0.1.i88, %_ZN14core_hashtableIN7obj_mapI4exprPS1_E13obj_map_entryE8obj_hashINS3_8key_dataEE10default_eqIS6_EE8iteratorppEv.exit.i90 ]
  %32 = load ptr, ptr %this, align 8
  %tobool.not.i.i79 = icmp eq ptr %31, null
  br i1 %tobool.not.i.i79, label %_ZN11ast_manager7dec_refEP3ast.exit.i84, label %if.then.i.i80

if.then.i.i80:                                    ; preds = %for.body.i77
  %m_ref_count.i.i.i81 = getelementptr inbounds %class.ast, ptr %31, i64 0, i32 2
  %33 = load i32, ptr %m_ref_count.i.i.i81, align 4
  %dec.i.i.i82 = add i32 %33, -1
  store i32 %dec.i.i.i82, ptr %m_ref_count.i.i.i81, align 4
  %cmp.i7.i83 = icmp eq i32 %dec.i.i.i82, 0
  br i1 %cmp.i7.i83, label %if.then2.i.i95, label %_ZN11ast_manager7dec_refEP3ast.exit.i84

if.then2.i.i95:                                   ; preds = %if.then.i.i80
  tail call void @_ZN11ast_manager11delete_nodeEP3ast(ptr noundef nonnull align 8 dereferenceable(976) %32, ptr noundef nonnull %31)
  br label %_ZN11ast_manager7dec_refEP3ast.exit.i84

_ZN11ast_manager7dec_refEP3ast.exit.i84:          ; preds = %if.then2.i.i95, %if.then.i.i80, %for.body.i77
  %incdec.ptr.i.i85 = getelementptr inbounds %"class.obj_map<expr, expr *>::obj_map_entry", ptr %it.sroa.0.011.i78, i64 1
  %cmp.not2.i.i.i86 = icmp eq ptr %incdec.ptr.i.i85, %add.ptr.i.i.i69
  br i1 %cmp.not2.i.i.i86, label %_ZN2qe8pred_abs8dec_keysI4exprEEvR7obj_mapIS2_PT_E.exit99, label %land.rhs.i.i.i87

land.rhs.i.i.i87:                                 ; preds = %_ZN11ast_manager7dec_refEP3ast.exit.i84, %while.body.i.i.i92
  %it.sroa.0.1.i88 = phi ptr [ %incdec.ptr.i.i.i93, %while.body.i.i.i92 ], [ %incdec.ptr.i.i85, %_ZN11ast_manager7dec_refEP3ast.exit.i84 ]
  %34 = load ptr, ptr %it.sroa.0.1.i88, align 8
  %switch.i.i.i89 = icmp ult ptr %34, inttoptr (i64 2 to ptr)
  br i1 %switch.i.i.i89, label %while.body.i.i.i92, label %_ZN14core_hashtableIN7obj_mapI4exprPS1_E13obj_map_entryE8obj_hashINS3_8key_dataEE10default_eqIS6_EE8iteratorppEv.exit.i90

while.body.i.i.i92:                               ; preds = %land.rhs.i.i.i87
  %incdec.ptr.i.i.i93 = getelementptr inbounds %"class.obj_map<expr, expr *>::obj_map_entry", ptr %it.sroa.0.1.i88, i64 1
  %cmp.not.i.i.i94 = icmp eq ptr %incdec.ptr.i.i.i93, %add.ptr.i.i.i69
  br i1 %cmp.not.i.i.i94, label %_ZN2qe8pred_abs8dec_keysI4exprEEvR7obj_mapIS2_PT_E.exit99, label %land.rhs.i.i.i87, !llvm.loop !8

_ZN14core_hashtableIN7obj_mapI4exprPS1_E13obj_map_entryE8obj_hashINS3_8key_dataEE10default_eqIS6_EE8iteratorppEv.exit.i90: ; preds = %land.rhs.i.i.i87
  %cmp.i.not.i91 = icmp eq ptr %it.sroa.0.1.i88, %add.ptr.i.i.i69
  br i1 %cmp.i.not.i91, label %_ZN2qe8pred_abs8dec_keysI4exprEEvR7obj_mapIS2_PT_E.exit99, label %for.body.i77, !llvm.loop !9

_ZN2qe8pred_abs8dec_keysI4exprEEvR7obj_mapIS2_PT_E.exit99: ; preds = %while.body.i.i.i.i.i96, %_ZN11ast_manager7dec_refEP3ast.exit.i84, %_ZN14core_hashtableIN7obj_mapI4exprPS1_E13obj_map_entryE8obj_hashINS3_8key_dataEE10default_eqIS6_EE8iteratorppEv.exit.i90, %while.body.i.i.i92, %_ZNK7obj_mapI4exprPS0_E5beginEv.exit.i74
  %m_size.i.i = getelementptr inbounds %"class.qe::pred_abs", ptr %this, i64 0, i32 5, i32 0, i32 2
  %35 = load i32, ptr %m_size.i.i, align 4
  %cmp.i.i100 = icmp eq i32 %35, 0
  %m_num_deleted.i.i = getelementptr inbounds %"class.qe::pred_abs", ptr %this, i64 0, i32 5, i32 0, i32 3
  %36 = load i32, ptr %m_num_deleted.i.i, align 8
  %cmp2.i.i = icmp eq i32 %36, 0
  %or.cond.i.i = select i1 %cmp.i.i100, i1 %cmp2.i.i, i1 false
  br i1 %or.cond.i.i, label %_ZN7obj_mapI4exprP3appE5resetEv.exit, label %if.end.i.i

if.end.i.i:                                       ; preds = %_ZN2qe8pred_abs8dec_keysI4exprEEvR7obj_mapIS2_PT_E.exit99
  %37 = load ptr, ptr %m_lit2pred, align 8
  %38 = load i32, ptr %m_capacity.i.i.i4, align 8
  %idx.ext.i.i = zext i32 %38 to i64
  %add.ptr.i.i = getelementptr inbounds %"class.obj_map<expr, app *>::obj_map_entry", ptr %37, i64 %idx.ext.i.i
  %cmp4.not5.i.i = icmp eq i32 %38, 0
  br i1 %cmp4.not5.i.i, label %if.end18.i.i, label %for.body.i.i101

for.body.i.i101:                                  ; preds = %if.end.i.i, %for.inc.i.i
  %overhead.07.i.i = phi i32 [ %overhead.1.i.i, %for.inc.i.i ], [ 0, %if.end.i.i ]
  %curr.06.i.i = phi ptr [ %incdec.ptr.i.i102, %for.inc.i.i ], [ %37, %if.end.i.i ]
  %39 = load ptr, ptr %curr.06.i.i, align 8
  %cmp.i.i.i = icmp eq ptr %39, null
  br i1 %cmp.i.i.i, label %if.else.i.i, label %if.then5.i.i

if.then5.i.i:                                     ; preds = %for.body.i.i101
  store ptr null, ptr %curr.06.i.i, align 8
  br label %for.inc.i.i

if.else.i.i:                                      ; preds = %for.body.i.i101
  %inc.i.i = add i32 %overhead.07.i.i, 1
  br label %for.inc.i.i

for.inc.i.i:                                      ; preds = %if.else.i.i, %if.then5.i.i
  %overhead.1.i.i = phi i32 [ %inc.i.i, %if.else.i.i ], [ %overhead.07.i.i, %if.then5.i.i ]
  %incdec.ptr.i.i102 = getelementptr inbounds %"class.obj_map<expr, app *>::obj_map_entry", ptr %curr.06.i.i, i64 1
  %cmp4.not.i.i = icmp eq ptr %incdec.ptr.i.i102, %add.ptr.i.i
  br i1 %cmp4.not.i.i, label %for.end.i.i, label %for.body.i.i101, !llvm.loop !12

for.end.i.i:                                      ; preds = %for.inc.i.i
  %.pre.i.i = load i32, ptr %m_capacity.i.i.i4, align 8
  %40 = shl i32 %overhead.1.i.i, 2
  %cmp8.i.i = icmp ugt i32 %.pre.i.i, 16
  %mul.i.i = mul i32 %.pre.i.i, 3
  %cmp11.i.i = icmp ugt i32 %40, %mul.i.i
  %or.cond11.i.i = select i1 %cmp8.i.i, i1 %cmp11.i.i, i1 false
  br i1 %or.cond11.i.i, label %if.then12.i.i, label %if.end18.i.i

if.then12.i.i:                                    ; preds = %for.end.i.i
  %41 = load ptr, ptr %m_lit2pred, align 8
  %cmp.i.i.i.i = icmp eq ptr %41, null
  br i1 %cmp.i.i.i.i, label %_ZN14core_hashtableIN7obj_mapI4exprP3appE13obj_map_entryE8obj_hashINS4_8key_dataEE10default_eqIS7_EE12delete_tableEv.exit.i.i, label %for.cond.preheader.i.i.i.i

for.cond.preheader.i.i.i.i:                       ; preds = %if.then12.i.i
  tail call void @_ZN6memory10deallocateEPv(ptr noundef nonnull %41)
  %.pre8.i.i = load i32, ptr %m_capacity.i.i.i4, align 8
  br label %_ZN14core_hashtableIN7obj_mapI4exprP3appE13obj_map_entryE8obj_hashINS4_8key_dataEE10default_eqIS7_EE12delete_tableEv.exit.i.i

_ZN14core_hashtableIN7obj_mapI4exprP3appE13obj_map_entryE8obj_hashINS4_8key_dataEE10default_eqIS7_EE12delete_tableEv.exit.i.i: ; preds = %for.cond.preheader.i.i.i.i, %if.then12.i.i
  %42 = phi i32 [ %.pre.i.i, %if.then12.i.i ], [ %.pre8.i.i, %for.cond.preheader.i.i.i.i ]
  store ptr null, ptr %m_lit2pred, align 8
  %shr.i.i = lshr i32 %42, 1
  store i32 %shr.i.i, ptr %m_capacity.i.i.i4, align 8
  %conv.i.i.i.i = zext nneg i32 %shr.i.i to i64
  %mul.i.i.i.i = shl nuw nsw i64 %conv.i.i.i.i, 4
  %call.i.i.i.i = tail call noalias noundef ptr @_ZN6memory8allocateEm(i64 noundef %mul.i.i.i.i)
  %cmp5.not.i.i.i.i = icmp ult i32 %42, 2
  br i1 %cmp5.not.i.i.i.i, label %_ZN14core_hashtableIN7obj_mapI4exprP3appE13obj_map_entryE8obj_hashINS4_8key_dataEE10default_eqIS7_EE11alloc_tableEj.exit.i.i, label %for.body.i.preheader.i.i.i

for.body.i.preheader.i.i.i:                       ; preds = %_ZN14core_hashtableIN7obj_mapI4exprP3appE13obj_map_entryE8obj_hashINS4_8key_dataEE10default_eqIS7_EE12delete_tableEv.exit.i.i
  tail call void @llvm.memset.p0.i64(ptr align 8 %call.i.i.i.i, i8 0, i64 %mul.i.i.i.i, i1 false)
  br label %_ZN14core_hashtableIN7obj_mapI4exprP3appE13obj_map_entryE8obj_hashINS4_8key_dataEE10default_eqIS7_EE11alloc_tableEj.exit.i.i

_ZN14core_hashtableIN7obj_mapI4exprP3appE13obj_map_entryE8obj_hashINS4_8key_dataEE10default_eqIS7_EE11alloc_tableEj.exit.i.i: ; preds = %for.body.i.preheader.i.i.i, %_ZN14core_hashtableIN7obj_mapI4exprP3appE13obj_map_entryE8obj_hashINS4_8key_dataEE10default_eqIS7_EE12delete_tableEv.exit.i.i
  store ptr %call.i.i.i.i, ptr %m_lit2pred, align 8
  br label %if.end18.i.i

if.end18.i.i:                                     ; preds = %_ZN14core_hashtableIN7obj_mapI4exprP3appE13obj_map_entryE8obj_hashINS4_8key_dataEE10default_eqIS7_EE11alloc_tableEj.exit.i.i, %for.end.i.i, %if.end.i.i
  store i32 0, ptr %m_size.i.i, align 4
  store i32 0, ptr %m_num_deleted.i.i, align 8
  br label %_ZN7obj_mapI4exprP3appE5resetEv.exit

_ZN7obj_mapI4exprP3appE5resetEv.exit:             ; preds = %_ZN2qe8pred_abs8dec_keysI4exprEEvR7obj_mapIS2_PT_E.exit99, %if.end18.i.i
  %m_size.i.i103 = getelementptr inbounds %"class.qe::pred_abs", ptr %this, i64 0, i32 4, i32 0, i32 2
  %43 = load i32, ptr %m_size.i.i103, align 4
  %cmp.i.i104 = icmp eq i32 %43, 0
  %m_num_deleted.i.i105 = getelementptr inbounds %"class.qe::pred_abs", ptr %this, i64 0, i32 4, i32 0, i32 3
  %44 = load i32, ptr %m_num_deleted.i.i105, align 8
  %cmp2.i.i106 = icmp eq i32 %44, 0
  %or.cond.i.i107 = select i1 %cmp.i.i104, i1 %cmp2.i.i106, i1 false
  br i1 %or.cond.i.i107, label %_ZN7obj_mapI4exprPS0_E5resetEv.exit, label %if.end.i.i108

if.end.i.i108:                                    ; preds = %_ZN7obj_mapI4exprP3appE5resetEv.exit
  %45 = load ptr, ptr %m_pred2lit, align 8
  %46 = load i32, ptr %m_capacity.i.i.i, align 8
  %idx.ext.i.i110 = zext i32 %46 to i64
  %add.ptr.i.i111 = getelementptr inbounds %"class.obj_map<expr, expr *>::obj_map_entry", ptr %45, i64 %idx.ext.i.i110
  %cmp4.not5.i.i112 = icmp eq i32 %46, 0
  br i1 %cmp4.not5.i.i112, label %if.end18.i.i128, label %for.body.i.i113

for.body.i.i113:                                  ; preds = %if.end.i.i108, %for.inc.i.i118
  %overhead.07.i.i114 = phi i32 [ %overhead.1.i.i119, %for.inc.i.i118 ], [ 0, %if.end.i.i108 ]
  %curr.06.i.i115 = phi ptr [ %incdec.ptr.i.i120, %for.inc.i.i118 ], [ %45, %if.end.i.i108 ]
  %47 = load ptr, ptr %curr.06.i.i115, align 8
  %cmp.i.i.i116 = icmp eq ptr %47, null
  br i1 %cmp.i.i.i116, label %if.else.i.i139, label %if.then5.i.i117

if.then5.i.i117:                                  ; preds = %for.body.i.i113
  store ptr null, ptr %curr.06.i.i115, align 8
  br label %for.inc.i.i118

if.else.i.i139:                                   ; preds = %for.body.i.i113
  %inc.i.i140 = add i32 %overhead.07.i.i114, 1
  br label %for.inc.i.i118

for.inc.i.i118:                                   ; preds = %if.else.i.i139, %if.then5.i.i117
  %overhead.1.i.i119 = phi i32 [ %inc.i.i140, %if.else.i.i139 ], [ %overhead.07.i.i114, %if.then5.i.i117 ]
  %incdec.ptr.i.i120 = getelementptr inbounds %"class.obj_map<expr, expr *>::obj_map_entry", ptr %curr.06.i.i115, i64 1
  %cmp4.not.i.i121 = icmp eq ptr %incdec.ptr.i.i120, %add.ptr.i.i111
  br i1 %cmp4.not.i.i121, label %for.end.i.i122, label %for.body.i.i113, !llvm.loop !13

for.end.i.i122:                                   ; preds = %for.inc.i.i118
  %.pre.i.i123 = load i32, ptr %m_capacity.i.i.i, align 8
  %48 = shl i32 %overhead.1.i.i119, 2
  %cmp8.i.i124 = icmp ugt i32 %.pre.i.i123, 16
  %mul.i.i125 = mul i32 %.pre.i.i123, 3
  %cmp11.i.i126 = icmp ugt i32 %48, %mul.i.i125
  %or.cond11.i.i127 = select i1 %cmp8.i.i124, i1 %cmp11.i.i126, i1 false
  br i1 %or.cond11.i.i127, label %if.then12.i.i129, label %if.end18.i.i128

if.then12.i.i129:                                 ; preds = %for.end.i.i122
  %49 = load ptr, ptr %m_pred2lit, align 8
  %cmp.i.i.i.i130 = icmp eq ptr %49, null
  br i1 %cmp.i.i.i.i130, label %_ZN14core_hashtableIN7obj_mapI4exprPS1_E13obj_map_entryE8obj_hashINS3_8key_dataEE10default_eqIS6_EE12delete_tableEv.exit.i.i, label %for.cond.preheader.i.i.i.i131

for.cond.preheader.i.i.i.i131:                    ; preds = %if.then12.i.i129
  tail call void @_ZN6memory10deallocateEPv(ptr noundef nonnull %49)
  %.pre8.i.i132 = load i32, ptr %m_capacity.i.i.i, align 8
  br label %_ZN14core_hashtableIN7obj_mapI4exprPS1_E13obj_map_entryE8obj_hashINS3_8key_dataEE10default_eqIS6_EE12delete_tableEv.exit.i.i

_ZN14core_hashtableIN7obj_mapI4exprPS1_E13obj_map_entryE8obj_hashINS3_8key_dataEE10default_eqIS6_EE12delete_tableEv.exit.i.i: ; preds = %for.cond.preheader.i.i.i.i131, %if.then12.i.i129
  %50 = phi i32 [ %.pre.i.i123, %if.then12.i.i129 ], [ %.pre8.i.i132, %for.cond.preheader.i.i.i.i131 ]
  store ptr null, ptr %m_pred2lit, align 8
  %shr.i.i133 = lshr i32 %50, 1
  store i32 %shr.i.i133, ptr %m_capacity.i.i.i, align 8
  %conv.i.i.i.i134 = zext nneg i32 %shr.i.i133 to i64
  %mul.i.i.i.i135 = shl nuw nsw i64 %conv.i.i.i.i134, 4
  %call.i.i.i.i136 = tail call noalias noundef ptr @_ZN6memory8allocateEm(i64 noundef %mul.i.i.i.i135)
  %cmp5.not.i.i.i.i137 = icmp ult i32 %50, 2
  br i1 %cmp5.not.i.i.i.i137, label %_ZN14core_hashtableIN7obj_mapI4exprPS1_E13obj_map_entryE8obj_hashINS3_8key_dataEE10default_eqIS6_EE11alloc_tableEj.exit.i.i, label %for.body.i.preheader.i.i.i138

for.body.i.preheader.i.i.i138:                    ; preds = %_ZN14core_hashtableIN7obj_mapI4exprPS1_E13obj_map_entryE8obj_hashINS3_8key_dataEE10default_eqIS6_EE12delete_tableEv.exit.i.i
  tail call void @llvm.memset.p0.i64(ptr align 8 %call.i.i.i.i136, i8 0, i64 %mul.i.i.i.i135, i1 false)
  br label %_ZN14core_hashtableIN7obj_mapI4exprPS1_E13obj_map_entryE8obj_hashINS3_8key_dataEE10default_eqIS6_EE11alloc_tableEj.exit.i.i

_ZN14core_hashtableIN7obj_mapI4exprPS1_E13obj_map_entryE8obj_hashINS3_8key_dataEE10default_eqIS6_EE11alloc_tableEj.exit.i.i: ; preds = %for.body.i.preheader.i.i.i138, %_ZN14core_hashtableIN7obj_mapI4exprPS1_E13obj_map_entryE8obj_hashINS3_8key_dataEE10default_eqIS6_EE12delete_tableEv.exit.i.i
  store ptr %call.i.i.i.i136, ptr %m_pred2lit, align 8
  br label %if.end18.i.i128

if.end18.i.i128:                                  ; preds = %_ZN14core_hashtableIN7obj_mapI4exprPS1_E13obj_map_entryE8obj_hashINS3_8key_dataEE10default_eqIS6_EE11alloc_tableEj.exit.i.i, %for.end.i.i122, %if.end.i.i108
  store i32 0, ptr %m_size.i.i103, align 4
  store i32 0, ptr %m_num_deleted.i.i105, align 8
  br label %_ZN7obj_mapI4exprPS0_E5resetEv.exit

_ZN7obj_mapI4exprPS0_E5resetEv.exit:              ; preds = %_ZN7obj_mapI4exprP3appE5resetEv.exit, %if.end18.i.i128
  %m_size.i.i141 = getelementptr inbounds %"class.qe::pred_abs", ptr %this, i64 0, i32 6, i32 0, i32 2
  %51 = load i32, ptr %m_size.i.i141, align 4
  %cmp.i.i142 = icmp eq i32 %51, 0
  %m_num_deleted.i.i143 = getelementptr inbounds %"class.qe::pred_abs", ptr %this, i64 0, i32 6, i32 0, i32 3
  %52 = load i32, ptr %m_num_deleted.i.i143, align 8
  %cmp2.i.i144 = icmp eq i32 %52, 0
  %or.cond.i.i145 = select i1 %cmp.i.i142, i1 %cmp2.i.i144, i1 false
  br i1 %or.cond.i.i145, label %_ZN7obj_mapI4exprP3appE5resetEv.exit181, label %if.end.i.i146

if.end.i.i146:                                    ; preds = %_ZN7obj_mapI4exprPS0_E5resetEv.exit
  %53 = load ptr, ptr %m_asm2pred, align 8
  %54 = load i32, ptr %m_capacity.i.i.i34, align 8
  %idx.ext.i.i148 = zext i32 %54 to i64
  %add.ptr.i.i149 = getelementptr inbounds %"class.obj_map<expr, app *>::obj_map_entry", ptr %53, i64 %idx.ext.i.i148
  %cmp4.not5.i.i150 = icmp eq i32 %54, 0
  br i1 %cmp4.not5.i.i150, label %if.end18.i.i166, label %for.body.i.i151

for.body.i.i151:                                  ; preds = %if.end.i.i146, %for.inc.i.i156
  %overhead.07.i.i152 = phi i32 [ %overhead.1.i.i157, %for.inc.i.i156 ], [ 0, %if.end.i.i146 ]
  %curr.06.i.i153 = phi ptr [ %incdec.ptr.i.i158, %for.inc.i.i156 ], [ %53, %if.end.i.i146 ]
  %55 = load ptr, ptr %curr.06.i.i153, align 8
  %cmp.i.i.i154 = icmp eq ptr %55, null
  br i1 %cmp.i.i.i154, label %if.else.i.i179, label %if.then5.i.i155

if.then5.i.i155:                                  ; preds = %for.body.i.i151
  store ptr null, ptr %curr.06.i.i153, align 8
  br label %for.inc.i.i156

if.else.i.i179:                                   ; preds = %for.body.i.i151
  %inc.i.i180 = add i32 %overhead.07.i.i152, 1
  br label %for.inc.i.i156

for.inc.i.i156:                                   ; preds = %if.else.i.i179, %if.then5.i.i155
  %overhead.1.i.i157 = phi i32 [ %inc.i.i180, %if.else.i.i179 ], [ %overhead.07.i.i152, %if.then5.i.i155 ]
  %incdec.ptr.i.i158 = getelementptr inbounds %"class.obj_map<expr, app *>::obj_map_entry", ptr %curr.06.i.i153, i64 1
  %cmp4.not.i.i159 = icmp eq ptr %incdec.ptr.i.i158, %add.ptr.i.i149
  br i1 %cmp4.not.i.i159, label %for.end.i.i160, label %for.body.i.i151, !llvm.loop !12

for.end.i.i160:                                   ; preds = %for.inc.i.i156
  %.pre.i.i161 = load i32, ptr %m_capacity.i.i.i34, align 8
  %56 = shl i32 %overhead.1.i.i157, 2
  %cmp8.i.i162 = icmp ugt i32 %.pre.i.i161, 16
  %mul.i.i163 = mul i32 %.pre.i.i161, 3
  %cmp11.i.i164 = icmp ugt i32 %56, %mul.i.i163
  %or.cond11.i.i165 = select i1 %cmp8.i.i162, i1 %cmp11.i.i164, i1 false
  br i1 %or.cond11.i.i165, label %if.then12.i.i167, label %if.end18.i.i166

if.then12.i.i167:                                 ; preds = %for.end.i.i160
  %57 = load ptr, ptr %m_asm2pred, align 8
  %cmp.i.i.i.i168 = icmp eq ptr %57, null
  br i1 %cmp.i.i.i.i168, label %_ZN14core_hashtableIN7obj_mapI4exprP3appE13obj_map_entryE8obj_hashINS4_8key_dataEE10default_eqIS7_EE12delete_tableEv.exit.i.i171, label %for.cond.preheader.i.i.i.i169

for.cond.preheader.i.i.i.i169:                    ; preds = %if.then12.i.i167
  tail call void @_ZN6memory10deallocateEPv(ptr noundef nonnull %57)
  %.pre8.i.i170 = load i32, ptr %m_capacity.i.i.i34, align 8
  br label %_ZN14core_hashtableIN7obj_mapI4exprP3appE13obj_map_entryE8obj_hashINS4_8key_dataEE10default_eqIS7_EE12delete_tableEv.exit.i.i171

_ZN14core_hashtableIN7obj_mapI4exprP3appE13obj_map_entryE8obj_hashINS4_8key_dataEE10default_eqIS7_EE12delete_tableEv.exit.i.i171: ; preds = %for.cond.preheader.i.i.i.i169, %if.then12.i.i167
  %58 = phi i32 [ %.pre.i.i161, %if.then12.i.i167 ], [ %.pre8.i.i170, %for.cond.preheader.i.i.i.i169 ]
  store ptr null, ptr %m_asm2pred, align 8
  %shr.i.i172 = lshr i32 %58, 1
  store i32 %shr.i.i172, ptr %m_capacity.i.i.i34, align 8
  %conv.i.i.i.i173 = zext nneg i32 %shr.i.i172 to i64
  %mul.i.i.i.i174 = shl nuw nsw i64 %conv.i.i.i.i173, 4
  %call.i.i.i.i175 = tail call noalias noundef ptr @_ZN6memory8allocateEm(i64 noundef %mul.i.i.i.i174)
  %cmp5.not.i.i.i.i176 = icmp ult i32 %58, 2
  br i1 %cmp5.not.i.i.i.i176, label %_ZN14core_hashtableIN7obj_mapI4exprP3appE13obj_map_entryE8obj_hashINS4_8key_dataEE10default_eqIS7_EE11alloc_tableEj.exit.i.i178, label %for.body.i.preheader.i.i.i177

for.body.i.preheader.i.i.i177:                    ; preds = %_ZN14core_hashtableIN7obj_mapI4exprP3appE13obj_map_entryE8obj_hashINS4_8key_dataEE10default_eqIS7_EE12delete_tableEv.exit.i.i171
  tail call void @llvm.memset.p0.i64(ptr align 8 %call.i.i.i.i175, i8 0, i64 %mul.i.i.i.i174, i1 false)
  br label %_ZN14core_hashtableIN7obj_mapI4exprP3appE13obj_map_entryE8obj_hashINS4_8key_dataEE10default_eqIS7_EE11alloc_tableEj.exit.i.i178

_ZN14core_hashtableIN7obj_mapI4exprP3appE13obj_map_entryE8obj_hashINS4_8key_dataEE10default_eqIS7_EE11alloc_tableEj.exit.i.i178: ; preds = %for.body.i.preheader.i.i.i177, %_ZN14core_hashtableIN7obj_mapI4exprP3appE13obj_map_entryE8obj_hashINS4_8key_dataEE10default_eqIS7_EE12delete_tableEv.exit.i.i171
  store ptr %call.i.i.i.i175, ptr %m_asm2pred, align 8
  br label %if.end18.i.i166

if.end18.i.i166:                                  ; preds = %_ZN14core_hashtableIN7obj_mapI4exprP3appE13obj_map_entryE8obj_hashINS4_8key_dataEE10default_eqIS7_EE11alloc_tableEj.exit.i.i178, %for.end.i.i160, %if.end.i.i146
  store i32 0, ptr %m_size.i.i141, align 4
  store i32 0, ptr %m_num_deleted.i.i143, align 8
  br label %_ZN7obj_mapI4exprP3appE5resetEv.exit181

_ZN7obj_mapI4exprP3appE5resetEv.exit181:          ; preds = %_ZN7obj_mapI4exprPS0_E5resetEv.exit, %if.end18.i.i166
  %m_size.i.i182 = getelementptr inbounds %"class.qe::pred_abs", ptr %this, i64 0, i32 7, i32 0, i32 2
  %59 = load i32, ptr %m_size.i.i182, align 4
  %cmp.i.i183 = icmp eq i32 %59, 0
  %m_num_deleted.i.i184 = getelementptr inbounds %"class.qe::pred_abs", ptr %this, i64 0, i32 7, i32 0, i32 3
  %60 = load i32, ptr %m_num_deleted.i.i184, align 8
  %cmp2.i.i185 = icmp eq i32 %60, 0
  %or.cond.i.i186 = select i1 %cmp.i.i183, i1 %cmp2.i.i185, i1 false
  br i1 %or.cond.i.i186, label %_ZN7obj_mapI4exprPS0_E5resetEv.exit222, label %if.end.i.i187

if.end.i.i187:                                    ; preds = %_ZN7obj_mapI4exprP3appE5resetEv.exit181
  %61 = load ptr, ptr %m_pred2asm, align 8
  %62 = load i32, ptr %m_capacity.i.i.i67, align 8
  %idx.ext.i.i189 = zext i32 %62 to i64
  %add.ptr.i.i190 = getelementptr inbounds %"class.obj_map<expr, expr *>::obj_map_entry", ptr %61, i64 %idx.ext.i.i189
  %cmp4.not5.i.i191 = icmp eq i32 %62, 0
  br i1 %cmp4.not5.i.i191, label %if.end18.i.i207, label %for.body.i.i192

for.body.i.i192:                                  ; preds = %if.end.i.i187, %for.inc.i.i197
  %overhead.07.i.i193 = phi i32 [ %overhead.1.i.i198, %for.inc.i.i197 ], [ 0, %if.end.i.i187 ]
  %curr.06.i.i194 = phi ptr [ %incdec.ptr.i.i199, %for.inc.i.i197 ], [ %61, %if.end.i.i187 ]
  %63 = load ptr, ptr %curr.06.i.i194, align 8
  %cmp.i.i.i195 = icmp eq ptr %63, null
  br i1 %cmp.i.i.i195, label %if.else.i.i220, label %if.then5.i.i196

if.then5.i.i196:                                  ; preds = %for.body.i.i192
  store ptr null, ptr %curr.06.i.i194, align 8
  br label %for.inc.i.i197

if.else.i.i220:                                   ; preds = %for.body.i.i192
  %inc.i.i221 = add i32 %overhead.07.i.i193, 1
  br label %for.inc.i.i197

for.inc.i.i197:                                   ; preds = %if.else.i.i220, %if.then5.i.i196
  %overhead.1.i.i198 = phi i32 [ %inc.i.i221, %if.else.i.i220 ], [ %overhead.07.i.i193, %if.then5.i.i196 ]
  %incdec.ptr.i.i199 = getelementptr inbounds %"class.obj_map<expr, expr *>::obj_map_entry", ptr %curr.06.i.i194, i64 1
  %cmp4.not.i.i200 = icmp eq ptr %incdec.ptr.i.i199, %add.ptr.i.i190
  br i1 %cmp4.not.i.i200, label %for.end.i.i201, label %for.body.i.i192, !llvm.loop !13

for.end.i.i201:                                   ; preds = %for.inc.i.i197
  %.pre.i.i202 = load i32, ptr %m_capacity.i.i.i67, align 8
  %64 = shl i32 %overhead.1.i.i198, 2
  %cmp8.i.i203 = icmp ugt i32 %.pre.i.i202, 16
  %mul.i.i204 = mul i32 %.pre.i.i202, 3
  %cmp11.i.i205 = icmp ugt i32 %64, %mul.i.i204
  %or.cond11.i.i206 = select i1 %cmp8.i.i203, i1 %cmp11.i.i205, i1 false
  br i1 %or.cond11.i.i206, label %if.then12.i.i208, label %if.end18.i.i207

if.then12.i.i208:                                 ; preds = %for.end.i.i201
  %65 = load ptr, ptr %m_pred2asm, align 8
  %cmp.i.i.i.i209 = icmp eq ptr %65, null
  br i1 %cmp.i.i.i.i209, label %_ZN14core_hashtableIN7obj_mapI4exprPS1_E13obj_map_entryE8obj_hashINS3_8key_dataEE10default_eqIS6_EE12delete_tableEv.exit.i.i212, label %for.cond.preheader.i.i.i.i210

for.cond.preheader.i.i.i.i210:                    ; preds = %if.then12.i.i208
  tail call void @_ZN6memory10deallocateEPv(ptr noundef nonnull %65)
  %.pre8.i.i211 = load i32, ptr %m_capacity.i.i.i67, align 8
  br label %_ZN14core_hashtableIN7obj_mapI4exprPS1_E13obj_map_entryE8obj_hashINS3_8key_dataEE10default_eqIS6_EE12delete_tableEv.exit.i.i212

_ZN14core_hashtableIN7obj_mapI4exprPS1_E13obj_map_entryE8obj_hashINS3_8key_dataEE10default_eqIS6_EE12delete_tableEv.exit.i.i212: ; preds = %for.cond.preheader.i.i.i.i210, %if.then12.i.i208
  %66 = phi i32 [ %.pre.i.i202, %if.then12.i.i208 ], [ %.pre8.i.i211, %for.cond.preheader.i.i.i.i210 ]
  store ptr null, ptr %m_pred2asm, align 8
  %shr.i.i213 = lshr i32 %66, 1
  store i32 %shr.i.i213, ptr %m_capacity.i.i.i67, align 8
  %conv.i.i.i.i214 = zext nneg i32 %shr.i.i213 to i64
  %mul.i.i.i.i215 = shl nuw nsw i64 %conv.i.i.i.i214, 4
  %call.i.i.i.i216 = tail call noalias noundef ptr @_ZN6memory8allocateEm(i64 noundef %mul.i.i.i.i215)
  %cmp5.not.i.i.i.i217 = icmp ult i32 %66, 2
  br i1 %cmp5.not.i.i.i.i217, label %_ZN14core_hashtableIN7obj_mapI4exprPS1_E13obj_map_entryE8obj_hashINS3_8key_dataEE10default_eqIS6_EE11alloc_tableEj.exit.i.i219, label %for.body.i.preheader.i.i.i218

for.body.i.preheader.i.i.i218:                    ; preds = %_ZN14core_hashtableIN7obj_mapI4exprPS1_E13obj_map_entryE8obj_hashINS3_8key_dataEE10default_eqIS6_EE12delete_tableEv.exit.i.i212
  tail call void @llvm.memset.p0.i64(ptr align 8 %call.i.i.i.i216, i8 0, i64 %mul.i.i.i.i215, i1 false)
  br label %_ZN14core_hashtableIN7obj_mapI4exprPS1_E13obj_map_entryE8obj_hashINS3_8key_dataEE10default_eqIS6_EE11alloc_tableEj.exit.i.i219

_ZN14core_hashtableIN7obj_mapI4exprPS1_E13obj_map_entryE8obj_hashINS3_8key_dataEE10default_eqIS6_EE11alloc_tableEj.exit.i.i219: ; preds = %for.body.i.preheader.i.i.i218, %_ZN14core_hashtableIN7obj_mapI4exprPS1_E13obj_map_entryE8obj_hashINS3_8key_dataEE10default_eqIS6_EE12delete_tableEv.exit.i.i212
  store ptr %call.i.i.i.i216, ptr %m_pred2asm, align 8
  br label %if.end18.i.i207

if.end18.i.i207:                                  ; preds = %_ZN14core_hashtableIN7obj_mapI4exprPS1_E13obj_map_entryE8obj_hashINS3_8key_dataEE10default_eqIS6_EE11alloc_tableEj.exit.i.i219, %for.end.i.i201, %if.end.i.i187
  store i32 0, ptr %m_size.i.i182, align 4
  store i32 0, ptr %m_num_deleted.i.i184, align 8
  br label %_ZN7obj_mapI4exprPS0_E5resetEv.exit222

_ZN7obj_mapI4exprPS0_E5resetEv.exit222:           ; preds = %_ZN7obj_mapI4exprP3appE5resetEv.exit181, %if.end18.i.i207
  %m_elevel = getelementptr inbounds %"class.qe::pred_abs", ptr %this, i64 0, i32 11
  tail call void @_ZN14core_hashtableIN7obj_mapI4exprN2qe9max_levelEE13obj_map_entryE8obj_hashINS4_8key_dataEE10default_eqIS7_EE5resetEv(ptr noundef nonnull align 8 dereferenceable(20) %m_elevel)
  %m_asms = getelementptr inbounds %"class.qe::pred_abs", ptr %this, i64 0, i32 2
  %m_nodes.i223 = getelementptr inbounds %"class.qe::pred_abs", ptr %this, i64 0, i32 2, i32 0, i32 1
  %67 = load ptr, ptr %m_nodes.i223, align 8
  %cmp.i.i224 = icmp eq ptr %67, null
  br i1 %cmp.i.i224, label %_ZN15ref_vector_coreI4expr19ref_manager_wrapperIS0_11ast_managerEE5resetEv.exit245, label %_ZNK6vectorIP4exprLb0EjE4sizeEv.exit.i225

_ZNK6vectorIP4exprLb0EjE4sizeEv.exit.i225:        ; preds = %_ZN7obj_mapI4exprPS0_E5resetEv.exit222
  %arrayidx.i.i226 = getelementptr inbounds i32, ptr %67, i64 -1
  %68 = load i32, ptr %arrayidx.i.i226, align 4
  %69 = zext i32 %68 to i64
  %add.ptr.i227 = getelementptr inbounds ptr, ptr %67, i64 %69
  %cmp3.i.not.i228 = icmp eq i32 %68, 0
  br i1 %cmp3.i.not.i228, label %if.then.i.i242, label %for.body.i.i229

for.body.i.i229:                                  ; preds = %_ZNK6vectorIP4exprLb0EjE4sizeEv.exit.i225, %_ZN15ref_vector_coreI4expr19ref_manager_wrapperIS0_11ast_managerEE7dec_refEPS0_.exit.i.i236
  %it.04.i.i230 = phi ptr [ %incdec.ptr.i.i237, %_ZN15ref_vector_coreI4expr19ref_manager_wrapperIS0_11ast_managerEE7dec_refEPS0_.exit.i.i236 ], [ %67, %_ZNK6vectorIP4exprLb0EjE4sizeEv.exit.i225 ]
  %70 = load ptr, ptr %it.04.i.i230, align 8
  %71 = load ptr, ptr %m_asms, align 8
  %tobool.not.i.i.i.i.i231 = icmp eq ptr %70, null
  br i1 %tobool.not.i.i.i.i.i231, label %_ZN15ref_vector_coreI4expr19ref_manager_wrapperIS0_11ast_managerEE7dec_refEPS0_.exit.i.i236, label %if.then.i.i.i.i.i232

if.then.i.i.i.i.i232:                             ; preds = %for.body.i.i229
  %m_ref_count.i.i.i.i.i.i233 = getelementptr inbounds %class.ast, ptr %70, i64 0, i32 2
  %72 = load i32, ptr %m_ref_count.i.i.i.i.i.i233, align 4
  %dec.i.i.i.i.i.i234 = add i32 %72, -1
  store i32 %dec.i.i.i.i.i.i234, ptr %m_ref_count.i.i.i.i.i.i233, align 4
  %cmp.i.i.i.i.i235 = icmp eq i32 %dec.i.i.i.i.i.i234, 0
  br i1 %cmp.i.i.i.i.i235, label %if.then2.i.i.i.i.i244, label %_ZN15ref_vector_coreI4expr19ref_manager_wrapperIS0_11ast_managerEE7dec_refEPS0_.exit.i.i236

if.then2.i.i.i.i.i244:                            ; preds = %if.then.i.i.i.i.i232
  tail call void @_ZN11ast_manager11delete_nodeEP3ast(ptr noundef nonnull align 8 dereferenceable(976) %71, ptr noundef nonnull %70)
  br label %_ZN15ref_vector_coreI4expr19ref_manager_wrapperIS0_11ast_managerEE7dec_refEPS0_.exit.i.i236

_ZN15ref_vector_coreI4expr19ref_manager_wrapperIS0_11ast_managerEE7dec_refEPS0_.exit.i.i236: ; preds = %if.then2.i.i.i.i.i244, %if.then.i.i.i.i.i232, %for.body.i.i229
  %incdec.ptr.i.i237 = getelementptr inbounds ptr, ptr %it.04.i.i230, i64 1
  %cmp.i1.i238 = icmp ult ptr %incdec.ptr.i.i237, %add.ptr.i227
  br i1 %cmp.i1.i238, label %for.body.i.i229, label %_ZN15ref_vector_coreI4expr19ref_manager_wrapperIS0_11ast_managerEE13dec_range_refEPKPS0_S7_.exit.i239, !llvm.loop !7

_ZN15ref_vector_coreI4expr19ref_manager_wrapperIS0_11ast_managerEE13dec_range_refEPKPS0_S7_.exit.i239: ; preds = %_ZN15ref_vector_coreI4expr19ref_manager_wrapperIS0_11ast_managerEE7dec_refEPS0_.exit.i.i236
  %.pre.i240 = load ptr, ptr %m_nodes.i223, align 8
  %tobool.not.i.i241 = icmp eq ptr %.pre.i240, null
  br i1 %tobool.not.i.i241, label %_ZN15ref_vector_coreI4expr19ref_manager_wrapperIS0_11ast_managerEE5resetEv.exit245, label %if.then.i.i242

if.then.i.i242:                                   ; preds = %_ZN15ref_vector_coreI4expr19ref_manager_wrapperIS0_11ast_managerEE13dec_range_refEPKPS0_S7_.exit.i239, %_ZNK6vectorIP4exprLb0EjE4sizeEv.exit.i225
  %73 = phi ptr [ %.pre.i240, %_ZN15ref_vector_coreI4expr19ref_manager_wrapperIS0_11ast_managerEE13dec_range_refEPKPS0_S7_.exit.i239 ], [ %67, %_ZNK6vectorIP4exprLb0EjE4sizeEv.exit.i225 ]
  %arrayidx.i2.i243 = getelementptr inbounds i32, ptr %73, i64 -1
  store i32 0, ptr %arrayidx.i2.i243, align 4
  br label %_ZN15ref_vector_coreI4expr19ref_manager_wrapperIS0_11ast_managerEE5resetEv.exit245

_ZN15ref_vector_coreI4expr19ref_manager_wrapperIS0_11ast_managerEE5resetEv.exit245: ; preds = %_ZN7obj_mapI4exprPS0_E5resetEv.exit222, %_ZN15ref_vector_coreI4expr19ref_manager_wrapperIS0_11ast_managerEE13dec_range_refEPKPS0_S7_.exit.i239, %if.then.i.i242
  %m_asms_lim = getelementptr inbounds %"class.qe::pred_abs", ptr %this, i64 0, i32 3
  %74 = load ptr, ptr %m_asms_lim, align 8
  %tobool.not.i = icmp eq ptr %74, null
  br i1 %tobool.not.i, label %_ZN6vectorIjLb0EjE5resetEv.exit, label %if.then.i

if.then.i:                                        ; preds = %_ZN15ref_vector_coreI4expr19ref_manager_wrapperIS0_11ast_managerEE5resetEv.exit245
  %arrayidx.i = getelementptr inbounds i32, ptr %74, i64 -1
  store i32 0, ptr %arrayidx.i, align 4
  br label %_ZN6vectorIjLb0EjE5resetEv.exit

_ZN6vectorIjLb0EjE5resetEv.exit:                  ; preds = %_ZN15ref_vector_coreI4expr19ref_manager_wrapperIS0_11ast_managerEE5resetEv.exit245, %if.then.i
  %m_preds = getelementptr inbounds %"class.qe::pred_abs", ptr %this, i64 0, i32 1
  %75 = load ptr, ptr %m_preds, align 8
  %tobool.not.i246 = icmp eq ptr %75, null
  br i1 %tobool.not.i246, label %_ZN6vectorI10ref_vectorI3app11ast_managerELb1EjE5resetEv.exit, label %if.then.i247

if.then.i247:                                     ; preds = %_ZN6vectorIjLb0EjE5resetEv.exit
  tail call void @_ZN6vectorI10ref_vectorI3app11ast_managerELb1EjE16destroy_elementsEv(ptr noundef nonnull align 8 dereferenceable(8) %m_preds)
  %76 = load ptr, ptr %m_preds, align 8
  %arrayidx.i248 = getelementptr inbounds i32, ptr %76, i64 -1
  store i32 0, ptr %arrayidx.i248, align 4
  br label %_ZN6vectorI10ref_vectorI3app11ast_managerELb1EjE5resetEv.exit

_ZN6vectorI10ref_vectorI3app11ast_managerELb1EjE5resetEv.exit: ; preds = %_ZN6vectorIjLb0EjE5resetEv.exit, %if.then.i247
  ret void
}

; Function Attrs: mustprogress uwtable
define hidden i64 @_ZN2qe8pred_abs13compute_levelEP3app(ptr noundef nonnull align 8 dereferenceable(216) %this, ptr noundef %e) local_unnamed_addr #3 align 2 personality ptr @__gxx_personality_v0 {
entry:
  %ref.tmp.i169 = alloca %"class.std::__cxx11::basic_string", align 8
  %ref.tmp18.i = alloca %"class.std::allocator", align 1
  %ref.tmp.i = alloca %"struct.obj_map<expr, qe::max_level>::key_data", align 8
  %ref.tmp20 = alloca %"class.std::__cxx11::basic_string", align 8
  %ref.tmp21 = alloca %"class.std::allocator", align 1
  %todo = getelementptr inbounds %"class.qe::pred_abs", ptr %this, i64 0, i32 10
  %0 = load ptr, ptr %todo, align 8
  %cmp.i = icmp eq ptr %0, null
  br i1 %cmp.i, label %if.then.i, label %lor.lhs.false.i

lor.lhs.false.i:                                  ; preds = %entry
  %arrayidx.i = getelementptr inbounds i32, ptr %0, i64 -1
  %1 = load i32, ptr %arrayidx.i, align 4
  %arrayidx4.i = getelementptr inbounds i32, ptr %0, i64 -2
  %2 = load i32, ptr %arrayidx4.i, align 4
  %cmp5.i = icmp eq i32 %1, %2
  br i1 %cmp5.i, label %if.then.i, label %_ZN6vectorIP4exprLb0EjE9push_backEOS1_.exit

if.then.i:                                        ; preds = %entry, %lor.lhs.false.i
  %retval.0.i185 = phi i32 [ %1, %lor.lhs.false.i ], [ 0, %entry ]
  tail call void @_ZN6vectorIP4exprLb0EjE13expand_vectorEv(ptr noundef nonnull align 8 dereferenceable(8) %todo)
  %.pre.i = load ptr, ptr %todo, align 8
  %arrayidx8.phi.trans.insert.i = getelementptr inbounds i32, ptr %.pre.i, i64 -1
  %.pre1.i = load i32, ptr %arrayidx8.phi.trans.insert.i, align 4
  br label %_ZN6vectorIP4exprLb0EjE9push_backEOS1_.exit

_ZN6vectorIP4exprLb0EjE9push_backEOS1_.exit:      ; preds = %lor.lhs.false.i, %if.then.i
  %retval.0.i184 = phi i32 [ %retval.0.i185, %if.then.i ], [ %1, %lor.lhs.false.i ]
  %3 = phi i32 [ %.pre1.i, %if.then.i ], [ %1, %lor.lhs.false.i ]
  %4 = phi ptr [ %.pre.i, %if.then.i ], [ %0, %lor.lhs.false.i ]
  %idx.ext.i = zext i32 %3 to i64
  %add.ptr.i = getelementptr inbounds ptr, ptr %4, i64 %idx.ext.i
  store ptr %e, ptr %add.ptr.i, align 8
  %5 = load ptr, ptr %todo, align 8
  %arrayidx10.i = getelementptr inbounds i32, ptr %5, i64 -1
  %6 = load i32, ptr %arrayidx10.i, align 4
  %inc.i = add i32 %6, 1
  store i32 %inc.i, ptr %arrayidx10.i, align 4
  %cmp.not = icmp eq i32 %retval.0.i184, 0
  %m_elevel = getelementptr inbounds %"class.qe::pred_abs", ptr %this, i64 0, i32 11
  %m_capacity.i.i.i = getelementptr inbounds %"class.qe::pred_abs", ptr %this, i64 0, i32 11, i32 0, i32 1
  %m_flevel = getelementptr inbounds %"class.qe::pred_abs", ptr %this, i64 0, i32 12
  %m_capacity.i.i.i22 = getelementptr inbounds %"class.qe::pred_abs", ptr %this, i64 0, i32 12, i32 0, i32 1
  %m_value.i.i = getelementptr inbounds %"struct.obj_map<expr, qe::max_level>::key_data", ptr %ref.tmp.i, i64 0, i32 1
  br label %while.cond

while.cond:                                       ; preds = %while.cond.backedge, %_ZN6vectorIP4exprLb0EjE9push_backEOS1_.exit
  %7 = load ptr, ptr %todo, align 8
  %cmp.i14 = icmp eq ptr %7, null
  br i1 %cmp.i14, label %_ZNK6vectorIP4exprLb0EjE4sizeEv.exit18, label %_ZNK6vectorIP4exprLb0EjE4sizeEv.exit18.thread

_ZNK6vectorIP4exprLb0EjE4sizeEv.exit18:           ; preds = %while.cond
  br i1 %cmp.not, label %while.end, label %_ZN6vectorIP4exprLb0EjE4backEv.exit

_ZNK6vectorIP4exprLb0EjE4sizeEv.exit18.thread:    ; preds = %while.cond
  %arrayidx.i16 = getelementptr inbounds i32, ptr %7, i64 -1
  %8 = load i32, ptr %arrayidx.i16, align 4
  %cmp.not187 = icmp eq i32 %retval.0.i184, %8
  br i1 %cmp.not187, label %while.end, label %if.end.i.i

if.end.i.i:                                       ; preds = %_ZNK6vectorIP4exprLb0EjE4sizeEv.exit18.thread
  %9 = add i32 %8, -1
  %10 = zext i32 %9 to i64
  br label %_ZN6vectorIP4exprLb0EjE4backEv.exit

_ZN6vectorIP4exprLb0EjE4backEv.exit:              ; preds = %_ZNK6vectorIP4exprLb0EjE4sizeEv.exit18, %if.end.i.i
  %retval.0.i.i = phi i64 [ %10, %if.end.i.i ], [ 4294967295, %_ZNK6vectorIP4exprLb0EjE4sizeEv.exit18 ]
  %arrayidx.i1.i = getelementptr inbounds ptr, ptr %7, i64 %retval.0.i.i
  %11 = load ptr, ptr %arrayidx.i1.i, align 8
  %m_hash.i.i.i.i.i.i.i = getelementptr inbounds %class.ast, ptr %11, i64 0, i32 3
  %12 = load i32, ptr %m_hash.i.i.i.i.i.i.i, align 4
  %13 = load i32, ptr %m_capacity.i.i.i, align 8
  %sub.i.i.i = add i32 %13, -1
  %and.i.i.i = and i32 %sub.i.i.i, %12
  %14 = load ptr, ptr %m_elevel, align 8
  %idx.ext.i.i.i = zext i32 %and.i.i.i to i64
  %add.ptr.i.i.i = getelementptr inbounds %"class.obj_map<expr, qe::max_level>::obj_map_entry", ptr %14, i64 %idx.ext.i.i.i
  %idx.ext4.i.i.i = zext i32 %13 to i64
  %add.ptr5.i.i.i = getelementptr inbounds %"class.obj_map<expr, qe::max_level>::obj_map_entry", ptr %14, i64 %idx.ext4.i.i.i
  %cmp.not30.i.i.i = icmp eq i32 %and.i.i.i, %13
  br i1 %cmp.not30.i.i.i, label %for.cond18.preheader.i.i.i, label %for.body.i.i.i

for.cond18.preheader.i.i.i:                       ; preds = %for.inc.i.i.i, %_ZN6vectorIP4exprLb0EjE4backEv.exit
  %cmp19.not32.i.i.i = icmp eq i32 %and.i.i.i, 0
  br i1 %cmp19.not32.i.i.i, label %if.end, label %for.body20.i.i.i

for.body.i.i.i:                                   ; preds = %_ZN6vectorIP4exprLb0EjE4backEv.exit, %for.inc.i.i.i
  %curr.031.i.i.i = phi ptr [ %incdec.ptr.i.i.i, %for.inc.i.i.i ], [ %add.ptr.i.i.i, %_ZN6vectorIP4exprLb0EjE4backEv.exit ]
  %15 = load ptr, ptr %curr.031.i.i.i, align 8
  %magicptr25.i.i.i = ptrtoint ptr %15 to i64
  switch i64 %magicptr25.i.i.i, label %if.then.i.i.i [
    i64 0, label %if.end
    i64 1, label %for.inc.i.i.i
  ]

if.then.i.i.i:                                    ; preds = %for.body.i.i.i
  %m_hash.i.i.i.i.i.i = getelementptr inbounds %class.ast, ptr %15, i64 0, i32 3
  %16 = load i32, ptr %m_hash.i.i.i.i.i.i, align 4
  %cmp8.i.i.i = icmp eq i32 %16, %12
  %cmp.i.i.i.i.i.i = icmp eq ptr %15, %11
  %or.cond.i.i.i = and i1 %cmp.i.i.i.i.i.i, %cmp8.i.i.i
  br i1 %or.cond.i.i.i, label %while.cond.backedge.sink.split, label %for.inc.i.i.i

for.inc.i.i.i:                                    ; preds = %if.then.i.i.i, %for.body.i.i.i
  %incdec.ptr.i.i.i = getelementptr inbounds %"class.obj_map<expr, qe::max_level>::obj_map_entry", ptr %curr.031.i.i.i, i64 1
  %cmp.not.i.i.i = icmp eq ptr %incdec.ptr.i.i.i, %add.ptr5.i.i.i
  br i1 %cmp.not.i.i.i, label %for.cond18.preheader.i.i.i, label %for.body.i.i.i, !llvm.loop !14

for.body20.i.i.i:                                 ; preds = %for.cond18.preheader.i.i.i, %for.inc36.i.i.i
  %curr.133.i.i.i = phi ptr [ %incdec.ptr37.i.i.i, %for.inc36.i.i.i ], [ %14, %for.cond18.preheader.i.i.i ]
  %17 = load ptr, ptr %curr.133.i.i.i, align 8
  %magicptr27.i.i.i = ptrtoint ptr %17 to i64
  switch i64 %magicptr27.i.i.i, label %if.then22.i.i.i [
    i64 0, label %if.end
    i64 1, label %for.inc36.i.i.i
  ]

if.then22.i.i.i:                                  ; preds = %for.body20.i.i.i
  %m_hash.i.i.i22.i.i.i = getelementptr inbounds %class.ast, ptr %17, i64 0, i32 3
  %18 = load i32, ptr %m_hash.i.i.i22.i.i.i, align 4
  %cmp24.i.i.i = icmp eq i32 %18, %12
  %cmp.i.i.i23.i.i.i = icmp eq ptr %17, %11
  %or.cond26.i.i.i = and i1 %cmp.i.i.i23.i.i.i, %cmp24.i.i.i
  br i1 %or.cond26.i.i.i, label %while.cond.backedge.sink.split, label %for.inc36.i.i.i

for.inc36.i.i.i:                                  ; preds = %if.then22.i.i.i, %for.body20.i.i.i
  %incdec.ptr37.i.i.i = getelementptr inbounds %"class.obj_map<expr, qe::max_level>::obj_map_entry", ptr %curr.133.i.i.i, i64 1
  %cmp19.not.i.i.i = icmp eq ptr %incdec.ptr37.i.i.i, %add.ptr.i.i.i
  br i1 %cmp19.not.i.i.i, label %if.end, label %for.body20.i.i.i, !llvm.loop !15

while.cond.backedge.sink.split:                   ; preds = %if.then.i.i.i, %if.then22.i.i.i, %if.then34
  %.sink = phi ptr [ %52, %if.then34 ], [ %7, %if.then22.i.i.i ], [ %7, %if.then.i.i.i ]
  %arrayidx.i19 = getelementptr inbounds i32, ptr %.sink, i64 -1
  %19 = load i32, ptr %arrayidx.i19, align 4
  %dec.i133 = add i32 %19, -1
  store i32 %dec.i133, ptr %arrayidx.i19, align 4
  br label %while.cond.backedge

while.cond.backedge:                              ; preds = %while.cond.backedge.sink.split, %for.end
  br label %while.cond, !llvm.loop !16

if.end:                                           ; preds = %for.body.i.i.i, %for.inc36.i.i.i, %for.body20.i.i.i, %for.cond18.preheader.i.i.i
  %m_decl.i = getelementptr inbounds %class.app, ptr %11, i64 0, i32 1
  %20 = load ptr, ptr %m_decl.i, align 8
  %m_hash.i.i.i.i.i.i.i21 = getelementptr inbounds %class.ast, ptr %20, i64 0, i32 3
  %21 = load i32, ptr %m_hash.i.i.i.i.i.i.i21, align 4
  %22 = load i32, ptr %m_capacity.i.i.i22, align 8
  %sub.i.i.i23 = add i32 %22, -1
  %and.i.i.i24 = and i32 %sub.i.i.i23, %21
  %23 = load ptr, ptr %m_flevel, align 8
  %idx.ext.i.i.i25 = zext i32 %and.i.i.i24 to i64
  %add.ptr.i.i.i26 = getelementptr inbounds %"class.obj_map<func_decl, qe::max_level>::obj_map_entry", ptr %23, i64 %idx.ext.i.i.i25
  %idx.ext4.i.i.i27 = zext i32 %22 to i64
  %add.ptr5.i.i.i28 = getelementptr inbounds %"class.obj_map<func_decl, qe::max_level>::obj_map_entry", ptr %23, i64 %idx.ext4.i.i.i27
  %cmp.not30.i.i.i29 = icmp eq i32 %and.i.i.i24, %22
  br i1 %cmp.not30.i.i.i29, label %for.cond18.preheader.i.i.i36, label %for.body.i.i.i30

for.cond18.preheader.i.i.i36:                     ; preds = %for.inc.i.i.i33, %if.end
  %cmp19.not32.i.i.i37 = icmp eq i32 %and.i.i.i24, 0
  br i1 %cmp19.not32.i.i.i37, label %if.end14, label %for.body20.i.i.i38

for.body.i.i.i30:                                 ; preds = %if.end, %for.inc.i.i.i33
  %curr.031.i.i.i31 = phi ptr [ %incdec.ptr.i.i.i34, %for.inc.i.i.i33 ], [ %add.ptr.i.i.i26, %if.end ]
  %24 = load ptr, ptr %curr.031.i.i.i31, align 8
  %magicptr25.i.i.i32 = ptrtoint ptr %24 to i64
  switch i64 %magicptr25.i.i.i32, label %if.then.i.i.i52 [
    i64 0, label %if.end14
    i64 1, label %for.inc.i.i.i33
  ]

if.then.i.i.i52:                                  ; preds = %for.body.i.i.i30
  %m_hash.i.i.i.i.i.i53 = getelementptr inbounds %class.ast, ptr %24, i64 0, i32 3
  %25 = load i32, ptr %m_hash.i.i.i.i.i.i53, align 4
  %cmp8.i.i.i54 = icmp eq i32 %25, %21
  %cmp.i.i.i.i.i.i55 = icmp eq ptr %24, %20
  %or.cond.i.i.i56 = and i1 %cmp.i.i.i.i.i.i55, %cmp8.i.i.i54
  br i1 %or.cond.i.i.i56, label %_ZN2qe9max_level5mergeERKS0_.exit, label %for.inc.i.i.i33

for.inc.i.i.i33:                                  ; preds = %if.then.i.i.i52, %for.body.i.i.i30
  %incdec.ptr.i.i.i34 = getelementptr inbounds %"class.obj_map<func_decl, qe::max_level>::obj_map_entry", ptr %curr.031.i.i.i31, i64 1
  %cmp.not.i.i.i35 = icmp eq ptr %incdec.ptr.i.i.i34, %add.ptr5.i.i.i28
  br i1 %cmp.not.i.i.i35, label %for.cond18.preheader.i.i.i36, label %for.body.i.i.i30, !llvm.loop !17

for.body20.i.i.i38:                               ; preds = %for.cond18.preheader.i.i.i36, %for.inc36.i.i.i41
  %curr.133.i.i.i39 = phi ptr [ %incdec.ptr37.i.i.i42, %for.inc36.i.i.i41 ], [ %23, %for.cond18.preheader.i.i.i36 ]
  %26 = load ptr, ptr %curr.133.i.i.i39, align 8
  %magicptr27.i.i.i40 = ptrtoint ptr %26 to i64
  switch i64 %magicptr27.i.i.i40, label %if.then22.i.i.i45 [
    i64 0, label %if.end14
    i64 1, label %for.inc36.i.i.i41
  ]

if.then22.i.i.i45:                                ; preds = %for.body20.i.i.i38
  %m_hash.i.i.i22.i.i.i46 = getelementptr inbounds %class.ast, ptr %26, i64 0, i32 3
  %27 = load i32, ptr %m_hash.i.i.i22.i.i.i46, align 4
  %cmp24.i.i.i47 = icmp eq i32 %27, %21
  %cmp.i.i.i23.i.i.i48 = icmp eq ptr %26, %20
  %or.cond26.i.i.i49 = and i1 %cmp.i.i.i23.i.i.i48, %cmp24.i.i.i47
  br i1 %or.cond26.i.i.i49, label %_ZN2qe9max_level5mergeERKS0_.exit, label %for.inc36.i.i.i41

for.inc36.i.i.i41:                                ; preds = %if.then22.i.i.i45, %for.body20.i.i.i38
  %incdec.ptr37.i.i.i42 = getelementptr inbounds %"class.obj_map<func_decl, qe::max_level>::obj_map_entry", ptr %curr.133.i.i.i39, i64 1
  %cmp19.not.i.i.i43 = icmp eq ptr %incdec.ptr37.i.i.i42, %add.ptr.i.i.i26
  br i1 %cmp19.not.i.i.i43, label %if.end14, label %for.body20.i.i.i38, !llvm.loop !18

_ZN2qe9max_level5mergeERKS0_.exit:                ; preds = %if.then.i.i.i52, %if.then22.i.i.i45
  %retval.0.i.i.i51 = phi ptr [ %curr.133.i.i.i39, %if.then22.i.i.i45 ], [ %curr.031.i.i.i31, %if.then.i.i.i52 ]
  %m_value.i = getelementptr inbounds %"struct.obj_map<func_decl, qe::max_level>::key_data", ptr %retval.0.i.i.i51, i64 0, i32 1
  %28 = load i64, ptr %m_value.i, align 8
  %lvl.sroa.0.0.extract.trunc = trunc i64 %28 to i32
  %lvl.sroa.5.0.extract.shift = lshr i64 %28, 32
  %lvl.sroa.5.0.extract.trunc = trunc i64 %lvl.sroa.5.0.extract.shift to i32
  br label %if.end14

if.end14:                                         ; preds = %for.body.i.i.i30, %for.inc36.i.i.i41, %for.body20.i.i.i38, %for.cond18.preheader.i.i.i36, %_ZN2qe9max_level5mergeERKS0_.exit
  %lvl.sroa.5.0193 = phi i32 [ %lvl.sroa.5.0.extract.trunc, %_ZN2qe9max_level5mergeERKS0_.exit ], [ -1, %for.cond18.preheader.i.i.i36 ], [ -1, %for.body20.i.i.i38 ], [ -1, %for.inc36.i.i.i41 ], [ -1, %for.body.i.i.i30 ]
  %lvl.sroa.0.0192 = phi i32 [ %lvl.sroa.0.0.extract.trunc, %_ZN2qe9max_level5mergeERKS0_.exit ], [ -1, %for.cond18.preheader.i.i.i36 ], [ -1, %for.body20.i.i.i38 ], [ -1, %for.inc36.i.i.i41 ], [ -1, %for.body.i.i.i30 ]
  %m_num_args.i = getelementptr inbounds %class.app, ptr %11, i64 0, i32 2
  %29 = load i32, ptr %m_num_args.i, align 8
  %idx.ext.i60 = zext i32 %29 to i64
  %add.ptr.i61.idx = shl nuw nsw i64 %idx.ext.i60, 3
  %30 = getelementptr i8, ptr %11, i64 %add.ptr.i61.idx
  %add.ptr.i61.ptr = getelementptr i8, ptr %30, i64 32
  %cmp17.not228 = icmp eq i32 %29, 0
  br i1 %cmp17.not228, label %if.then34, label %for.body.preheader

for.body.preheader:                               ; preds = %if.end14
  %m_args.i.ptr = getelementptr inbounds i8, ptr %11, i64 32
  br label %for.body

for.body:                                         ; preds = %for.body.preheader, %for.inc
  %has_new.0233 = phi i8 [ %has_new.1, %for.inc ], [ 0, %for.body.preheader ]
  %__begin2.0232 = phi ptr [ %incdec.ptr, %for.inc ], [ %m_args.i.ptr, %for.body.preheader ]
  %lvl0.sroa.0.1231 = phi i32 [ %lvl0.sroa.0.2, %for.inc ], [ %lvl.sroa.0.0192, %for.body.preheader ]
  %lvl0.sroa.6.1229 = phi i32 [ %lvl0.sroa.6.2, %for.inc ], [ %lvl.sroa.5.0193, %for.body.preheader ]
  %31 = load ptr, ptr %__begin2.0232, align 8
  %m_kind.i.i = getelementptr inbounds %class.ast, ptr %31, i64 0, i32 1
  %bf.load.i.i = load i32, ptr %m_kind.i.i, align 4
  %bf.clear.i.i = and i32 %bf.load.i.i, 65535
  %cmp.i62 = icmp eq i32 %bf.clear.i.i, 0
  br i1 %cmp.i62, label %if.end25, label %if.then19

if.then19:                                        ; preds = %for.body
  %exception = call ptr @__cxa_allocate_exception(i64 40) #19
  call void @_ZNSaIcEC1Ev(ptr noundef nonnull align 1 dereferenceable(1) %ref.tmp21) #19
  invoke void @_ZNSt7__cxx1112basic_stringIcSt11char_traitsIcESaIcEEC2IS3_EEPKcRKS3_(ptr noundef nonnull align 8 dereferenceable(32) %ref.tmp20, ptr noundef nonnull @.str.1, ptr noundef nonnull align 1 dereferenceable(1) %ref.tmp21)
          to label %invoke.cont unwind label %cleanup.action

invoke.cont:                                      ; preds = %if.then19
  store ptr getelementptr inbounds ({ [6 x ptr] }, ptr @_ZTV16tactic_exception, i64 0, inrange i32 0, i64 2), ptr %exception, align 8
  %m_msg.i = getelementptr inbounds %class.tactic_exception, ptr %exception, i64 0, i32 1
  call void @_ZNSt7__cxx1112basic_stringIcSt11char_traitsIcESaIcEEC1EOS4_(ptr noundef nonnull align 8 dereferenceable(32) %m_msg.i, ptr noundef nonnull align 8 dereferenceable(32) %ref.tmp20) #19
  invoke void @__cxa_throw(ptr nonnull %exception, ptr nonnull @_ZTI16tactic_exception, ptr nonnull @_ZN16tactic_exceptionD2Ev) #20
          to label %unreachable unwind label %ehcleanup

ehcleanup:                                        ; preds = %invoke.cont
  %32 = landingpad { ptr, i32 }
          cleanup
  call void @_ZNSt7__cxx1112basic_stringIcSt11char_traitsIcESaIcEED1Ev(ptr noundef nonnull align 8 dereferenceable(32) %ref.tmp20) #19
  call void @_ZNSaIcED1Ev(ptr noundef nonnull align 1 dereferenceable(1) %ref.tmp21) #19
  br label %common.resume

cleanup.action:                                   ; preds = %if.then19
  %33 = landingpad { ptr, i32 }
          cleanup
  call void @_ZNSaIcED1Ev(ptr noundef nonnull align 1 dereferenceable(1) %ref.tmp21) #19
  call void @__cxa_free_exception(ptr %exception) #19
  br label %common.resume

if.end25:                                         ; preds = %for.body
  %m_hash.i.i.i.i.i.i.i63 = getelementptr inbounds %class.ast, ptr %31, i64 0, i32 3
  %34 = load i32, ptr %m_hash.i.i.i.i.i.i.i63, align 4
  %35 = load i32, ptr %m_capacity.i.i.i, align 8
  %sub.i.i.i65 = add i32 %35, -1
  %and.i.i.i66 = and i32 %sub.i.i.i65, %34
  %36 = load ptr, ptr %m_elevel, align 8
  %idx.ext.i.i.i67 = zext i32 %and.i.i.i66 to i64
  %add.ptr.i.i.i68 = getelementptr inbounds %"class.obj_map<expr, qe::max_level>::obj_map_entry", ptr %36, i64 %idx.ext.i.i.i67
  %idx.ext4.i.i.i69 = zext i32 %35 to i64
  %add.ptr5.i.i.i70 = getelementptr inbounds %"class.obj_map<expr, qe::max_level>::obj_map_entry", ptr %36, i64 %idx.ext4.i.i.i69
  %cmp.not30.i.i.i71 = icmp eq i32 %and.i.i.i66, %35
  br i1 %cmp.not30.i.i.i71, label %for.cond18.preheader.i.i.i78, label %for.body.i.i.i72

for.cond18.preheader.i.i.i78:                     ; preds = %for.inc.i.i.i75, %if.end25
  %cmp19.not32.i.i.i79 = icmp eq i32 %and.i.i.i66, 0
  br i1 %cmp19.not32.i.i.i79, label %if.else, label %for.body20.i.i.i80

for.body.i.i.i72:                                 ; preds = %if.end25, %for.inc.i.i.i75
  %curr.031.i.i.i73 = phi ptr [ %incdec.ptr.i.i.i76, %for.inc.i.i.i75 ], [ %add.ptr.i.i.i68, %if.end25 ]
  %37 = load ptr, ptr %curr.031.i.i.i73, align 8
  %magicptr25.i.i.i74 = ptrtoint ptr %37 to i64
  switch i64 %magicptr25.i.i.i74, label %if.then.i.i.i96 [
    i64 0, label %if.else
    i64 1, label %for.inc.i.i.i75
  ]

if.then.i.i.i96:                                  ; preds = %for.body.i.i.i72
  %m_hash.i.i.i.i.i.i97 = getelementptr inbounds %class.ast, ptr %37, i64 0, i32 3
  %38 = load i32, ptr %m_hash.i.i.i.i.i.i97, align 4
  %cmp8.i.i.i98 = icmp eq i32 %38, %34
  %cmp.i.i.i.i.i.i99 = icmp eq ptr %37, %31
  %or.cond.i.i.i100 = and i1 %cmp.i.i.i.i.i.i99, %cmp8.i.i.i98
  br i1 %or.cond.i.i.i100, label %if.then29, label %for.inc.i.i.i75

for.inc.i.i.i75:                                  ; preds = %if.then.i.i.i96, %for.body.i.i.i72
  %incdec.ptr.i.i.i76 = getelementptr inbounds %"class.obj_map<expr, qe::max_level>::obj_map_entry", ptr %curr.031.i.i.i73, i64 1
  %cmp.not.i.i.i77 = icmp eq ptr %incdec.ptr.i.i.i76, %add.ptr5.i.i.i70
  br i1 %cmp.not.i.i.i77, label %for.cond18.preheader.i.i.i78, label %for.body.i.i.i72, !llvm.loop !14

for.body20.i.i.i80:                               ; preds = %for.cond18.preheader.i.i.i78, %for.inc36.i.i.i83
  %curr.133.i.i.i81 = phi ptr [ %incdec.ptr37.i.i.i84, %for.inc36.i.i.i83 ], [ %36, %for.cond18.preheader.i.i.i78 ]
  %39 = load ptr, ptr %curr.133.i.i.i81, align 8
  %magicptr27.i.i.i82 = ptrtoint ptr %39 to i64
  switch i64 %magicptr27.i.i.i82, label %if.then22.i.i.i88 [
    i64 0, label %if.else
    i64 1, label %for.inc36.i.i.i83
  ]

if.then22.i.i.i88:                                ; preds = %for.body20.i.i.i80
  %m_hash.i.i.i22.i.i.i89 = getelementptr inbounds %class.ast, ptr %39, i64 0, i32 3
  %40 = load i32, ptr %m_hash.i.i.i22.i.i.i89, align 4
  %cmp24.i.i.i90 = icmp eq i32 %40, %34
  %cmp.i.i.i23.i.i.i91 = icmp eq ptr %39, %31
  %or.cond26.i.i.i92 = and i1 %cmp.i.i.i23.i.i.i91, %cmp24.i.i.i90
  br i1 %or.cond26.i.i.i92, label %if.then29, label %for.inc36.i.i.i83

for.inc36.i.i.i83:                                ; preds = %if.then22.i.i.i88, %for.body20.i.i.i80
  %incdec.ptr37.i.i.i84 = getelementptr inbounds %"class.obj_map<expr, qe::max_level>::obj_map_entry", ptr %curr.133.i.i.i81, i64 1
  %cmp19.not.i.i.i85 = icmp eq ptr %incdec.ptr37.i.i.i84, %add.ptr.i.i.i68
  br i1 %cmp19.not.i.i.i85, label %if.else, label %for.body20.i.i.i80, !llvm.loop !15

if.then29:                                        ; preds = %if.then.i.i.i96, %if.then22.i.i.i88
  %retval.0.i.i.i94 = phi ptr [ %curr.133.i.i.i81, %if.then22.i.i.i88 ], [ %curr.031.i.i.i73, %if.then.i.i.i96 ]
  %m_value.i95 = getelementptr inbounds %"struct.obj_map<expr, qe::max_level>::key_data", ptr %retval.0.i.i.i94, i64 0, i32 1
  %41 = load i64, ptr %m_value.i95, align 8
  %lvl.sroa.0.0.extract.trunc179 = trunc i64 %41 to i32
  %lvl.sroa.5.0.extract.shift180 = lshr i64 %41, 32
  %lvl.sroa.5.0.extract.trunc181 = trunc i64 %lvl.sroa.5.0.extract.shift180 to i32
  %cmp.i.i.i101 = icmp eq i32 %lvl0.sroa.0.1231, -1
  br i1 %cmp.i.i.i101, label %_ZN2qe9max_level5mergeERjj.exit.i106, label %if.end.i.i.i102

if.end.i.i.i102:                                  ; preds = %if.then29
  %cmp1.i.i.i103 = icmp eq i32 %lvl.sroa.0.0.extract.trunc179, -1
  br i1 %cmp1.i.i.i103, label %_ZN2qe9max_level5mergeERjj.exit.i106, label %if.end3.i.i.i104

if.end3.i.i.i104:                                 ; preds = %if.end.i.i.i102
  %.sroa.speculated.i.i.i105 = call i32 @llvm.umax.i32(i32 %lvl0.sroa.0.1231, i32 %lvl.sroa.0.0.extract.trunc179)
  br label %_ZN2qe9max_level5mergeERjj.exit.i106

_ZN2qe9max_level5mergeERjj.exit.i106:             ; preds = %if.end3.i.i.i104, %if.end.i.i.i102, %if.then29
  %retval.0.i.i.i107 = phi i32 [ %.sroa.speculated.i.i.i105, %if.end3.i.i.i104 ], [ %lvl.sroa.0.0.extract.trunc179, %if.then29 ], [ %lvl0.sroa.0.1231, %if.end.i.i.i102 ]
  %cmp.i.i2.i110 = icmp eq i32 %lvl0.sroa.6.1229, -1
  br i1 %cmp.i.i2.i110, label %for.inc, label %if.end.i.i3.i111

if.end.i.i3.i111:                                 ; preds = %_ZN2qe9max_level5mergeERjj.exit.i106
  %cmp1.i.i4.i112 = icmp eq i32 %lvl.sroa.5.0.extract.trunc181, -1
  br i1 %cmp1.i.i4.i112, label %for.inc, label %if.end3.i.i5.i113

if.end3.i.i5.i113:                                ; preds = %if.end.i.i3.i111
  %.sroa.speculated.i.i6.i114 = call i32 @llvm.umax.i32(i32 %lvl0.sroa.6.1229, i32 %lvl.sroa.5.0.extract.trunc181)
  br label %for.inc

if.else:                                          ; preds = %for.body.i.i.i72, %for.body20.i.i.i80, %for.inc36.i.i.i83, %for.cond18.preheader.i.i.i78
  %42 = load ptr, ptr %todo, align 8
  %cmp.i117 = icmp eq ptr %42, null
  br i1 %cmp.i117, label %if.then.i174, label %lor.lhs.false.i118

lor.lhs.false.i118:                               ; preds = %if.else
  %arrayidx.i119 = getelementptr inbounds i32, ptr %42, i64 -1
  %43 = load i32, ptr %arrayidx.i119, align 4
  %arrayidx4.i120 = getelementptr inbounds i32, ptr %42, i64 -2
  %44 = load i32, ptr %arrayidx4.i120, align 4
  %cmp5.i121 = icmp eq i32 %43, %44
  br i1 %cmp5.i121, label %if.else.i, label %_ZN6vectorIP4exprLb0EjE9push_backEOS1_.exit131

if.then.i174:                                     ; preds = %if.else
  call void @llvm.lifetime.start.p0(i64 32, ptr nonnull %ref.tmp.i169)
  call void @llvm.lifetime.start.p0(i64 1, ptr nonnull %ref.tmp18.i)
  %call.i = call noalias noundef ptr @_ZN6memory8allocateEm(i64 noundef 24)
  store i32 2, ptr %call.i, align 4
  %incdec.ptr.i = getelementptr inbounds i32, ptr %call.i, i64 1
  store i32 0, ptr %incdec.ptr.i, align 4
  %incdec.ptr2.i = getelementptr inbounds i32, ptr %call.i, i64 2
  store ptr %incdec.ptr2.i, ptr %todo, align 8
  br label %_ZN6vectorIP4exprLb0EjE13expand_vectorEv.exit

if.else.i:                                        ; preds = %lor.lhs.false.i118
  call void @llvm.lifetime.start.p0(i64 32, ptr nonnull %ref.tmp.i169)
  call void @llvm.lifetime.start.p0(i64 1, ptr nonnull %ref.tmp18.i)
  %mul9.i = mul i32 %43, 3
  %add10.i = add i32 %mul9.i, 1
  %shr.i = lshr i32 %add10.i, 1
  %mul12.i = shl i32 %shr.i, 3
  %add13.i = add i32 %mul12.i, 8
  %cmp15.not.i = icmp ugt i32 %shr.i, %43
  br i1 %cmp15.not.i, label %lor.lhs.false.i172, label %if.then17.i

lor.lhs.false.i172:                               ; preds = %if.else.i
  %mul6.i = shl i32 %43, 3
  %add7.i = add i32 %mul6.i, 8
  %cmp16.not.i = icmp ugt i32 %add13.i, %add7.i
  br i1 %cmp16.not.i, label %if.end.i173, label %if.then17.i

if.then17.i:                                      ; preds = %lor.lhs.false.i172, %if.else.i
  %exception.i = call ptr @__cxa_allocate_exception(i64 40) #19
  call void @_ZNSaIcEC1Ev(ptr noundef nonnull align 1 dereferenceable(1) %ref.tmp18.i) #19
  invoke void @_ZNSt7__cxx1112basic_stringIcSt11char_traitsIcESaIcEEC2IS3_EEPKcRKS3_(ptr noundef nonnull align 8 dereferenceable(32) %ref.tmp.i169, ptr noundef nonnull @.str.14, ptr noundef nonnull align 1 dereferenceable(1) %ref.tmp18.i)
          to label %invoke.cont.i unwind label %cleanup.action.i

invoke.cont.i:                                    ; preds = %if.then17.i
  store ptr getelementptr inbounds ({ [6 x ptr] }, ptr @_ZTV17default_exception, i64 0, inrange i32 0, i64 2), ptr %exception.i, align 8
  %m_msg.i.i = getelementptr inbounds %class.default_exception, ptr %exception.i, i64 0, i32 1
  call void @_ZNSt7__cxx1112basic_stringIcSt11char_traitsIcESaIcEEC1EOS4_(ptr noundef nonnull align 8 dereferenceable(32) %m_msg.i.i, ptr noundef nonnull align 8 dereferenceable(32) %ref.tmp.i169) #19
  invoke void @__cxa_throw(ptr nonnull %exception.i, ptr nonnull @_ZTI17default_exception, ptr nonnull @_ZN17default_exceptionD2Ev) #20
          to label %unreachable.i unwind label %ehcleanup.i

ehcleanup.i:                                      ; preds = %invoke.cont.i
  %45 = landingpad { ptr, i32 }
          cleanup
  call void @_ZNSt7__cxx1112basic_stringIcSt11char_traitsIcESaIcEED1Ev(ptr noundef nonnull align 8 dereferenceable(32) %ref.tmp.i169) #19
  call void @_ZNSaIcED1Ev(ptr noundef nonnull align 1 dereferenceable(1) %ref.tmp18.i) #19
  br label %common.resume

cleanup.action.i:                                 ; preds = %if.then17.i
  %46 = landingpad { ptr, i32 }
          cleanup
  call void @_ZNSaIcED1Ev(ptr noundef nonnull align 1 dereferenceable(1) %ref.tmp18.i) #19
  call void @__cxa_free_exception(ptr %exception.i) #19
  br label %common.resume

if.end.i173:                                      ; preds = %lor.lhs.false.i172
  %conv24.i = zext i32 %add13.i to i64
  %call25.i = call noalias noundef ptr @_ZN6memory10reallocateEPvm(ptr noundef nonnull %arrayidx4.i120, i64 noundef %conv24.i)
  %add.ptr26.i = getelementptr inbounds i32, ptr %call25.i, i64 2
  store ptr %add.ptr26.i, ptr %todo, align 8
  store i32 %shr.i, ptr %call25.i, align 4
  br label %_ZN6vectorIP4exprLb0EjE13expand_vectorEv.exit

common.resume:                                    ; preds = %cleanup.action, %ehcleanup, %ehcleanup.i, %cleanup.action.i
  %common.resume.op = phi { ptr, i32 } [ %45, %ehcleanup.i ], [ %46, %cleanup.action.i ], [ %32, %ehcleanup ], [ %33, %cleanup.action ]
  resume { ptr, i32 } %common.resume.op

unreachable.i:                                    ; preds = %invoke.cont.i
  unreachable

_ZN6vectorIP4exprLb0EjE13expand_vectorEv.exit:    ; preds = %if.then.i174, %if.end.i173
  %.pre.i128 = phi ptr [ %incdec.ptr2.i, %if.then.i174 ], [ %add.ptr26.i, %if.end.i173 ]
  call void @llvm.lifetime.end.p0(i64 32, ptr nonnull %ref.tmp.i169)
  call void @llvm.lifetime.end.p0(i64 1, ptr nonnull %ref.tmp18.i)
  %arrayidx8.phi.trans.insert.i129 = getelementptr inbounds i32, ptr %.pre.i128, i64 -1
  %.pre1.i130 = load i32, ptr %arrayidx8.phi.trans.insert.i129, align 4
  br label %_ZN6vectorIP4exprLb0EjE9push_backEOS1_.exit131

_ZN6vectorIP4exprLb0EjE9push_backEOS1_.exit131:   ; preds = %lor.lhs.false.i118, %_ZN6vectorIP4exprLb0EjE13expand_vectorEv.exit
  %47 = phi i32 [ %.pre1.i130, %_ZN6vectorIP4exprLb0EjE13expand_vectorEv.exit ], [ %43, %lor.lhs.false.i118 ]
  %48 = phi ptr [ %.pre.i128, %_ZN6vectorIP4exprLb0EjE13expand_vectorEv.exit ], [ %42, %lor.lhs.false.i118 ]
  %idx.ext.i123 = zext i32 %47 to i64
  %add.ptr.i124 = getelementptr inbounds ptr, ptr %48, i64 %idx.ext.i123
  store ptr %31, ptr %add.ptr.i124, align 8
  %49 = load ptr, ptr %todo, align 8
  %arrayidx10.i125 = getelementptr inbounds i32, ptr %49, i64 -1
  %50 = load i32, ptr %arrayidx10.i125, align 4
  %inc.i126 = add i32 %50, 1
  store i32 %inc.i126, ptr %arrayidx10.i125, align 4
  br label %for.inc

for.inc:                                          ; preds = %if.end3.i.i5.i113, %if.end.i.i3.i111, %_ZN2qe9max_level5mergeERjj.exit.i106, %_ZN6vectorIP4exprLb0EjE9push_backEOS1_.exit131
  %lvl0.sroa.6.2 = phi i32 [ %lvl0.sroa.6.1229, %_ZN6vectorIP4exprLb0EjE9push_backEOS1_.exit131 ], [ %.sroa.speculated.i.i6.i114, %if.end3.i.i5.i113 ], [ %lvl.sroa.5.0.extract.trunc181, %_ZN2qe9max_level5mergeERjj.exit.i106 ], [ %lvl0.sroa.6.1229, %if.end.i.i3.i111 ]
  %lvl0.sroa.0.2 = phi i32 [ %lvl0.sroa.0.1231, %_ZN6vectorIP4exprLb0EjE9push_backEOS1_.exit131 ], [ %retval.0.i.i.i107, %if.end3.i.i5.i113 ], [ %retval.0.i.i.i107, %_ZN2qe9max_level5mergeERjj.exit.i106 ], [ %retval.0.i.i.i107, %if.end.i.i3.i111 ]
  %has_new.1 = phi i8 [ 1, %_ZN6vectorIP4exprLb0EjE9push_backEOS1_.exit131 ], [ %has_new.0233, %if.end3.i.i5.i113 ], [ %has_new.0233, %_ZN2qe9max_level5mergeERjj.exit.i106 ], [ %has_new.0233, %if.end.i.i3.i111 ]
  %incdec.ptr = getelementptr inbounds ptr, ptr %__begin2.0232, i64 1
  %cmp17.not = icmp eq ptr %incdec.ptr, %add.ptr.i61.ptr
  br i1 %cmp17.not, label %for.end, label %for.body

for.end:                                          ; preds = %for.inc
  %51 = and i8 %has_new.1, 1
  %tobool.not = icmp eq i8 %51, 0
  br i1 %tobool.not, label %if.then34, label %while.cond.backedge

if.then34:                                        ; preds = %if.end14, %for.end
  %lvl0.sroa.0.1.lcssa256 = phi i32 [ %lvl0.sroa.0.2, %for.end ], [ %lvl.sroa.0.0192, %if.end14 ]
  %lvl0.sroa.6.1.lcssa255 = phi i32 [ %lvl0.sroa.6.2, %for.end ], [ %lvl.sroa.5.0193, %if.end14 ]
  call void @llvm.lifetime.start.p0(i64 16, ptr nonnull %ref.tmp.i)
  store ptr %11, ptr %ref.tmp.i, align 8
  %lvl0.sroa.6.0.insert.ext = zext i32 %lvl0.sroa.6.1.lcssa255 to i64
  %lvl0.sroa.6.0.insert.shift = shl nuw i64 %lvl0.sroa.6.0.insert.ext, 32
  %lvl0.sroa.0.0.insert.ext = zext i32 %lvl0.sroa.0.1.lcssa256 to i64
  %lvl0.sroa.0.0.insert.insert = or disjoint i64 %lvl0.sroa.6.0.insert.shift, %lvl0.sroa.0.0.insert.ext
  store i64 %lvl0.sroa.0.0.insert.insert, ptr %m_value.i.i, align 8
  call void @_ZN14core_hashtableIN7obj_mapI4exprN2qe9max_levelEE13obj_map_entryE8obj_hashINS4_8key_dataEE10default_eqIS7_EE6insertEOS7_(ptr noundef nonnull align 8 dereferenceable(20) %m_elevel, ptr noundef nonnull align 8 dereferenceable(16) %ref.tmp.i)
  call void @llvm.lifetime.end.p0(i64 16, ptr nonnull %ref.tmp.i)
  %52 = load ptr, ptr %todo, align 8
  br label %while.cond.backedge.sink.split

while.end:                                        ; preds = %_ZNK6vectorIP4exprLb0EjE4sizeEv.exit18.thread, %_ZNK6vectorIP4exprLb0EjE4sizeEv.exit18
  %m_hash.i.i.i.i.i.i.i134 = getelementptr inbounds %class.ast, ptr %e, i64 0, i32 3
  %53 = load i32, ptr %m_hash.i.i.i.i.i.i.i134, align 4
  %54 = load i32, ptr %m_capacity.i.i.i, align 8
  %sub.i.i.i136 = add i32 %54, -1
  %and.i.i.i137 = and i32 %sub.i.i.i136, %53
  %55 = load ptr, ptr %m_elevel, align 8
  %idx.ext.i.i.i138 = zext i32 %and.i.i.i137 to i64
  %add.ptr.i.i.i139 = getelementptr inbounds %"class.obj_map<expr, qe::max_level>::obj_map_entry", ptr %55, i64 %idx.ext.i.i.i138
  %idx.ext4.i.i.i140 = zext i32 %54 to i64
  %add.ptr5.i.i.i141 = getelementptr inbounds %"class.obj_map<expr, qe::max_level>::obj_map_entry", ptr %55, i64 %idx.ext4.i.i.i140
  %cmp.not30.i.i.i142 = icmp eq i32 %and.i.i.i137, %54
  br i1 %cmp.not30.i.i.i142, label %for.cond18.preheader.i.i.i149, label %for.body.i.i.i143

for.cond18.preheader.i.i.i149:                    ; preds = %for.inc.i.i.i146, %while.end
  %cmp19.not32.i.i.i150 = icmp ne i32 %and.i.i.i137, 0
  br label %for.body20.i.i.i151

for.body.i.i.i143:                                ; preds = %while.end, %for.inc.i.i.i146
  %curr.031.i.i.i144 = phi ptr [ %incdec.ptr.i.i.i147, %for.inc.i.i.i146 ], [ %add.ptr.i.i.i139, %while.end ]
  %56 = load ptr, ptr %curr.031.i.i.i144, align 8
  %cond = icmp eq ptr %56, inttoptr (i64 1 to ptr)
  br i1 %cond, label %for.inc.i.i.i146, label %if.then.i.i.i164

if.then.i.i.i164:                                 ; preds = %for.body.i.i.i143
  %m_hash.i.i.i.i.i.i165 = getelementptr inbounds %class.ast, ptr %56, i64 0, i32 3
  %57 = load i32, ptr %m_hash.i.i.i.i.i.i165, align 4
  %cmp8.i.i.i166 = icmp eq i32 %57, %53
  %cmp.i.i.i.i.i.i167 = icmp eq ptr %56, %e
  %or.cond.i.i.i168 = and i1 %cmp.i.i.i.i.i.i167, %cmp8.i.i.i166
  br i1 %or.cond.i.i.i168, label %_ZN7obj_mapI4exprN2qe9max_levelEE4findEPS0_.exit, label %for.inc.i.i.i146

for.inc.i.i.i146:                                 ; preds = %for.body.i.i.i143, %if.then.i.i.i164
  %incdec.ptr.i.i.i147 = getelementptr inbounds %"class.obj_map<expr, qe::max_level>::obj_map_entry", ptr %curr.031.i.i.i144, i64 1
  %cmp.not.i.i.i148 = icmp eq ptr %incdec.ptr.i.i.i147, %add.ptr5.i.i.i141
  br i1 %cmp.not.i.i.i148, label %for.cond18.preheader.i.i.i149, label %for.body.i.i.i143, !llvm.loop !14

for.body20.i.i.i151:                              ; preds = %for.inc36.i.i.i154, %for.cond18.preheader.i.i.i149
  %cmp19.not.i.i.i156.sink = phi i1 [ %cmp19.not.i.i.i156, %for.inc36.i.i.i154 ], [ %cmp19.not32.i.i.i150, %for.cond18.preheader.i.i.i149 ]
  %curr.133.i.i.i152 = phi ptr [ %incdec.ptr37.i.i.i155, %for.inc36.i.i.i154 ], [ %55, %for.cond18.preheader.i.i.i149 ]
  call void @llvm.assume(i1 %cmp19.not.i.i.i156.sink)
  %58 = load ptr, ptr %curr.133.i.i.i152, align 8
  %cond207 = icmp eq ptr %58, inttoptr (i64 1 to ptr)
  br i1 %cond207, label %for.inc36.i.i.i154, label %if.then22.i.i.i159

if.then22.i.i.i159:                               ; preds = %for.body20.i.i.i151
  %m_hash.i.i.i22.i.i.i160 = getelementptr inbounds %class.ast, ptr %58, i64 0, i32 3
  %59 = load i32, ptr %m_hash.i.i.i22.i.i.i160, align 4
  %cmp24.i.i.i161 = icmp eq i32 %59, %53
  %cmp.i.i.i23.i.i.i162 = icmp eq ptr %58, %e
  %or.cond26.i.i.i163 = and i1 %cmp.i.i.i23.i.i.i162, %cmp24.i.i.i161
  br i1 %or.cond26.i.i.i163, label %_ZN7obj_mapI4exprN2qe9max_levelEE4findEPS0_.exit, label %for.inc36.i.i.i154

for.inc36.i.i.i154:                               ; preds = %for.body20.i.i.i151, %if.then22.i.i.i159
  %incdec.ptr37.i.i.i155 = getelementptr inbounds %"class.obj_map<expr, qe::max_level>::obj_map_entry", ptr %curr.133.i.i.i152, i64 1
  %cmp19.not.i.i.i156 = icmp ne ptr %incdec.ptr37.i.i.i155, %add.ptr.i.i.i139
  br label %for.body20.i.i.i151

_ZN7obj_mapI4exprN2qe9max_levelEE4findEPS0_.exit: ; preds = %if.then.i.i.i164, %if.then22.i.i.i159
  %retval.0.i.i.i157 = phi ptr [ %curr.133.i.i.i152, %if.then22.i.i.i159 ], [ %curr.031.i.i.i144, %if.then.i.i.i164 ]
  %m_value.i158 = getelementptr inbounds %"struct.obj_map<expr, qe::max_level>::key_data", ptr %retval.0.i.i.i157, i64 0, i32 1
  %retval.sroa.0.0.copyload = load i64, ptr %m_value.i158, align 4
  ret i64 %retval.sroa.0.0.copyload

unreachable:                                      ; preds = %invoke.cont
  unreachable
}

declare ptr @__cxa_allocate_exception(i64) local_unnamed_addr

; Function Attrs: nounwind
declare void @_ZNSaIcEC1Ev(ptr noundef nonnull align 1 dereferenceable(1)) unnamed_addr #1

; Function Attrs: mustprogress uwtable
define linkonce_odr hidden void @_ZNSt7__cxx1112basic_stringIcSt11char_traitsIcESaIcEEC2IS3_EEPKcRKS3_(ptr noundef nonnull align 8 dereferenceable(32) %this, ptr noundef %__s, ptr noundef nonnull align 1 dereferenceable(1) %__a) unnamed_addr #3 comdat align 2 personality ptr @__gxx_personality_v0 {
entry:
  %call = tail call noundef ptr @_ZNSt7__cxx1112basic_stringIcSt11char_traitsIcESaIcEE13_M_local_dataEv(ptr noundef nonnull align 8 dereferenceable(32) %this)
  tail call void @_ZNSt7__cxx1112basic_stringIcSt11char_traitsIcESaIcEE12_Alloc_hiderC1EPcRKS3_(ptr noundef nonnull align 8 dereferenceable(8) %this, ptr noundef %call, ptr noundef nonnull align 1 dereferenceable(1) %__a)
  %cmp = icmp eq ptr %__s, null
  br i1 %cmp, label %if.then, label %if.end

if.then:                                          ; preds = %entry
  invoke void @_ZSt19__throw_logic_errorPKc(ptr noundef nonnull @.str.54) #20
          to label %invoke.cont unwind label %lpad

invoke.cont:                                      ; preds = %if.then
  unreachable

lpad:                                             ; preds = %if.end, %if.then
  %0 = landingpad { ptr, i32 }
          cleanup
  tail call void @_ZNSaIcED2Ev(ptr noundef nonnull align 1 dereferenceable(1) %this) #19
  resume { ptr, i32 } %0

if.end:                                           ; preds = %entry
  %call.i = tail call noundef i64 @strlen(ptr noundef nonnull dereferenceable(1) %__s) #19
  %add.ptr = getelementptr inbounds i8, ptr %__s, i64 %call.i
  invoke void @_ZNSt7__cxx1112basic_stringIcSt11char_traitsIcESaIcEE12_M_constructIPKcEEvT_S8_St20forward_iterator_tag(ptr noundef nonnull align 8 dereferenceable(32) %this, ptr noundef nonnull %__s, ptr noundef nonnull %add.ptr)
          to label %invoke.cont4 unwind label %lpad

invoke.cont4:                                     ; preds = %if.end
  ret void
}

; Function Attrs: mustprogress nounwind uwtable
define linkonce_odr hidden void @_ZN16tactic_exceptionD2Ev(ptr noundef nonnull align 8 dereferenceable(40) %this) unnamed_addr #4 comdat align 2 {
entry:
  store ptr getelementptr inbounds ({ [6 x ptr] }, ptr @_ZTV16tactic_exception, i64 0, inrange i32 0, i64 2), ptr %this, align 8
  %m_msg = getelementptr inbounds %class.tactic_exception, ptr %this, i64 0, i32 1
  tail call void @_ZNSt7__cxx1112basic_stringIcSt11char_traitsIcESaIcEED1Ev(ptr noundef nonnull align 8 dereferenceable(32) %m_msg) #19
  ret void
}

declare void @__cxa_throw(ptr, ptr, ptr) local_unnamed_addr

; Function Attrs: nounwind
declare void @_ZNSt7__cxx1112basic_stringIcSt11char_traitsIcESaIcEED1Ev(ptr noundef nonnull align 8 dereferenceable(32)) unnamed_addr #1

; Function Attrs: nounwind
declare void @_ZNSaIcED1Ev(ptr noundef nonnull align 1 dereferenceable(1)) unnamed_addr #1

declare void @__cxa_free_exception(ptr) local_unnamed_addr

; Function Attrs: mustprogress nocallback nofree nounwind willreturn memory(argmem: readwrite)
declare void @llvm.memcpy.p0.p0.i64(ptr noalias nocapture writeonly, ptr noalias nocapture readonly, i64, i1 immarg) #6

; Function Attrs: mustprogress uwtable
define hidden void @_ZN2qe8pred_abs8add_predEP3appS2_(ptr noundef nonnull align 8 dereferenceable(216) %this, ptr noundef %p, ptr noundef %lit) local_unnamed_addr #3 align 2 {
entry:
  %ref.tmp.i.i = alloca %"struct.obj_map<expr, app *>::key_data", align 8
  %ref.tmp.i = alloca %"struct.obj_map<expr, expr *>::key_data", align 8
  %tobool.not.i = icmp eq ptr %p, null
  br i1 %tobool.not.i, label %_ZN11ast_manager7inc_refEP3ast.exit, label %if.then.i

if.then.i:                                        ; preds = %entry
  %m_ref_count.i.i = getelementptr inbounds %class.ast, ptr %p, i64 0, i32 2
  %0 = load i32, ptr %m_ref_count.i.i, align 4
  %inc.i.i = add i32 %0, 1
  store i32 %inc.i.i, ptr %m_ref_count.i.i, align 4
  br label %_ZN11ast_manager7inc_refEP3ast.exit

_ZN11ast_manager7inc_refEP3ast.exit:              ; preds = %entry, %if.then.i
  %m_pred2lit = getelementptr inbounds %"class.qe::pred_abs", ptr %this, i64 0, i32 4
  call void @llvm.lifetime.start.p0(i64 16, ptr nonnull %ref.tmp.i)
  store ptr %p, ptr %ref.tmp.i, align 8
  %m_value.i.i = getelementptr inbounds %"struct.obj_map<expr, expr *>::key_data", ptr %ref.tmp.i, i64 0, i32 1
  store ptr %lit, ptr %m_value.i.i, align 8
  call void @_ZN14core_hashtableIN7obj_mapI4exprPS1_E13obj_map_entryE8obj_hashINS3_8key_dataEE10default_eqIS6_EE6insertEOS6_(ptr noundef nonnull align 8 dereferenceable(20) %m_pred2lit, ptr noundef nonnull align 8 dereferenceable(16) %ref.tmp.i)
  call void @llvm.lifetime.end.p0(i64 16, ptr nonnull %ref.tmp.i)
  %m_lit2pred.i = getelementptr inbounds %"class.qe::pred_abs", ptr %this, i64 0, i32 5
  %m_hash.i.i.i.i.i.i.i.i = getelementptr inbounds %class.ast, ptr %lit, i64 0, i32 3
  %1 = load i32, ptr %m_hash.i.i.i.i.i.i.i.i, align 4
  %m_capacity.i.i.i.i = getelementptr inbounds %"class.qe::pred_abs", ptr %this, i64 0, i32 5, i32 0, i32 1
  %2 = load i32, ptr %m_capacity.i.i.i.i, align 8
  %sub.i.i.i.i = add i32 %2, -1
  %and.i.i.i.i = and i32 %sub.i.i.i.i, %1
  %3 = load ptr, ptr %m_lit2pred.i, align 8
  %idx.ext.i.i.i.i = zext i32 %and.i.i.i.i to i64
  %add.ptr.i.i.i.i = getelementptr inbounds %"class.obj_map<expr, app *>::obj_map_entry", ptr %3, i64 %idx.ext.i.i.i.i
  %idx.ext4.i.i.i.i = zext i32 %2 to i64
  %add.ptr5.i.i.i.i = getelementptr inbounds %"class.obj_map<expr, app *>::obj_map_entry", ptr %3, i64 %idx.ext4.i.i.i.i
  %cmp.not30.i.i.i.i = icmp eq i32 %and.i.i.i.i, %2
  br i1 %cmp.not30.i.i.i.i, label %for.cond18.preheader.i.i.i.i, label %for.body.i.i.i.i

for.cond18.preheader.i.i.i.i:                     ; preds = %for.inc.i.i.i.i, %_ZN11ast_manager7inc_refEP3ast.exit
  %cmp19.not32.i.i.i.i = icmp eq i32 %and.i.i.i.i, 0
  br i1 %cmp19.not32.i.i.i.i, label %if.then.i4, label %for.body20.i.i.i.i

for.body.i.i.i.i:                                 ; preds = %_ZN11ast_manager7inc_refEP3ast.exit, %for.inc.i.i.i.i
  %curr.031.i.i.i.i = phi ptr [ %incdec.ptr.i.i.i.i, %for.inc.i.i.i.i ], [ %add.ptr.i.i.i.i, %_ZN11ast_manager7inc_refEP3ast.exit ]
  %4 = load ptr, ptr %curr.031.i.i.i.i, align 8
  %magicptr25.i.i.i.i = ptrtoint ptr %4 to i64
  switch i64 %magicptr25.i.i.i.i, label %if.then.i.i.i.i [
    i64 0, label %if.then.i4
    i64 1, label %for.inc.i.i.i.i
  ]

if.then.i.i.i.i:                                  ; preds = %for.body.i.i.i.i
  %m_hash.i.i.i.i.i.i.i = getelementptr inbounds %class.ast, ptr %4, i64 0, i32 3
  %5 = load i32, ptr %m_hash.i.i.i.i.i.i.i, align 4
  %cmp8.i.i.i.i = icmp eq i32 %5, %1
  %cmp.i.i.i.i.i.i.i = icmp eq ptr %4, %lit
  %or.cond.i.i.i.i = and i1 %cmp.i.i.i.i.i.i.i, %cmp8.i.i.i.i
  br i1 %or.cond.i.i.i.i, label %_ZN2qe8pred_abs7add_litEP3appS2_.exit, label %for.inc.i.i.i.i

for.inc.i.i.i.i:                                  ; preds = %if.then.i.i.i.i, %for.body.i.i.i.i
  %incdec.ptr.i.i.i.i = getelementptr inbounds %"class.obj_map<expr, app *>::obj_map_entry", ptr %curr.031.i.i.i.i, i64 1
  %cmp.not.i.i.i.i = icmp eq ptr %incdec.ptr.i.i.i.i, %add.ptr5.i.i.i.i
  br i1 %cmp.not.i.i.i.i, label %for.cond18.preheader.i.i.i.i, label %for.body.i.i.i.i, !llvm.loop !19

for.body20.i.i.i.i:                               ; preds = %for.cond18.preheader.i.i.i.i, %for.inc36.i.i.i.i
  %curr.133.i.i.i.i = phi ptr [ %incdec.ptr37.i.i.i.i, %for.inc36.i.i.i.i ], [ %3, %for.cond18.preheader.i.i.i.i ]
  %6 = load ptr, ptr %curr.133.i.i.i.i, align 8
  %magicptr27.i.i.i.i = ptrtoint ptr %6 to i64
  switch i64 %magicptr27.i.i.i.i, label %if.then22.i.i.i.i [
    i64 0, label %if.then.i4
    i64 1, label %for.inc36.i.i.i.i
  ]

if.then22.i.i.i.i:                                ; preds = %for.body20.i.i.i.i
  %m_hash.i.i.i22.i.i.i.i = getelementptr inbounds %class.ast, ptr %6, i64 0, i32 3
  %7 = load i32, ptr %m_hash.i.i.i22.i.i.i.i, align 4
  %cmp24.i.i.i.i = icmp eq i32 %7, %1
  %cmp.i.i.i23.i.i.i.i = icmp eq ptr %6, %lit
  %or.cond26.i.i.i.i = and i1 %cmp.i.i.i23.i.i.i.i, %cmp24.i.i.i.i
  br i1 %or.cond26.i.i.i.i, label %_ZN2qe8pred_abs7add_litEP3appS2_.exit, label %for.inc36.i.i.i.i

for.inc36.i.i.i.i:                                ; preds = %if.then22.i.i.i.i, %for.body20.i.i.i.i
  %incdec.ptr37.i.i.i.i = getelementptr inbounds %"class.obj_map<expr, app *>::obj_map_entry", ptr %curr.133.i.i.i.i, i64 1
  %cmp19.not.i.i.i.i = icmp eq ptr %incdec.ptr37.i.i.i.i, %add.ptr.i.i.i.i
  br i1 %cmp19.not.i.i.i.i, label %if.then.i4, label %for.body20.i.i.i.i, !llvm.loop !20

if.then.i4:                                       ; preds = %for.body.i.i.i.i, %for.inc36.i.i.i.i, %for.body20.i.i.i.i, %for.cond18.preheader.i.i.i.i
  %tobool.not.i.i = icmp eq ptr %lit, null
  br i1 %tobool.not.i.i, label %_ZN11ast_manager7inc_refEP3ast.exit.i, label %if.then.i.i

if.then.i.i:                                      ; preds = %if.then.i4
  %m_ref_count.i.i.i = getelementptr inbounds %class.ast, ptr %lit, i64 0, i32 2
  %8 = load i32, ptr %m_ref_count.i.i.i, align 4
  %inc.i.i.i = add i32 %8, 1
  store i32 %inc.i.i.i, ptr %m_ref_count.i.i.i, align 4
  br label %_ZN11ast_manager7inc_refEP3ast.exit.i

_ZN11ast_manager7inc_refEP3ast.exit.i:            ; preds = %if.then.i.i, %if.then.i4
  call void @llvm.lifetime.start.p0(i64 16, ptr nonnull %ref.tmp.i.i)
  store ptr %lit, ptr %ref.tmp.i.i, align 8
  %m_value.i.i.i = getelementptr inbounds %"struct.obj_map<expr, app *>::key_data", ptr %ref.tmp.i.i, i64 0, i32 1
  store ptr %p, ptr %m_value.i.i.i, align 8
  call void @_ZN14core_hashtableIN7obj_mapI4exprP3appE13obj_map_entryE8obj_hashINS4_8key_dataEE10default_eqIS7_EE6insertEOS7_(ptr noundef nonnull align 8 dereferenceable(20) %m_lit2pred.i, ptr noundef nonnull align 8 dereferenceable(16) %ref.tmp.i.i)
  call void @llvm.lifetime.end.p0(i64 16, ptr nonnull %ref.tmp.i.i)
  br label %_ZN2qe8pred_abs7add_litEP3appS2_.exit

_ZN2qe8pred_abs7add_litEP3appS2_.exit:            ; preds = %if.then.i.i.i.i, %if.then22.i.i.i.i, %_ZN11ast_manager7inc_refEP3ast.exit.i
  ret void
}

; Function Attrs: mustprogress uwtable
define hidden void @_ZN2qe8pred_abs7add_litEP3appS2_(ptr noundef nonnull align 8 dereferenceable(216) %this, ptr noundef %p, ptr noundef %lit) local_unnamed_addr #3 align 2 {
entry:
  %ref.tmp.i = alloca %"struct.obj_map<expr, app *>::key_data", align 8
  %m_lit2pred = getelementptr inbounds %"class.qe::pred_abs", ptr %this, i64 0, i32 5
  %m_hash.i.i.i.i.i.i.i = getelementptr inbounds %class.ast, ptr %lit, i64 0, i32 3
  %0 = load i32, ptr %m_hash.i.i.i.i.i.i.i, align 4
  %m_capacity.i.i.i = getelementptr inbounds %"class.qe::pred_abs", ptr %this, i64 0, i32 5, i32 0, i32 1
  %1 = load i32, ptr %m_capacity.i.i.i, align 8
  %sub.i.i.i = add i32 %1, -1
  %and.i.i.i = and i32 %sub.i.i.i, %0
  %2 = load ptr, ptr %m_lit2pred, align 8
  %idx.ext.i.i.i = zext i32 %and.i.i.i to i64
  %add.ptr.i.i.i = getelementptr inbounds %"class.obj_map<expr, app *>::obj_map_entry", ptr %2, i64 %idx.ext.i.i.i
  %idx.ext4.i.i.i = zext i32 %1 to i64
  %add.ptr5.i.i.i = getelementptr inbounds %"class.obj_map<expr, app *>::obj_map_entry", ptr %2, i64 %idx.ext4.i.i.i
  %cmp.not30.i.i.i = icmp eq i32 %and.i.i.i, %1
  br i1 %cmp.not30.i.i.i, label %for.cond18.preheader.i.i.i, label %for.body.i.i.i

for.cond18.preheader.i.i.i:                       ; preds = %for.inc.i.i.i, %entry
  %cmp19.not32.i.i.i = icmp eq i32 %and.i.i.i, 0
  br i1 %cmp19.not32.i.i.i, label %if.then, label %for.body20.i.i.i

for.body.i.i.i:                                   ; preds = %entry, %for.inc.i.i.i
  %curr.031.i.i.i = phi ptr [ %incdec.ptr.i.i.i, %for.inc.i.i.i ], [ %add.ptr.i.i.i, %entry ]
  %3 = load ptr, ptr %curr.031.i.i.i, align 8
  %magicptr25.i.i.i = ptrtoint ptr %3 to i64
  switch i64 %magicptr25.i.i.i, label %if.then.i.i.i [
    i64 0, label %if.then
    i64 1, label %for.inc.i.i.i
  ]

if.then.i.i.i:                                    ; preds = %for.body.i.i.i
  %m_hash.i.i.i.i.i.i = getelementptr inbounds %class.ast, ptr %3, i64 0, i32 3
  %4 = load i32, ptr %m_hash.i.i.i.i.i.i, align 4
  %cmp8.i.i.i = icmp eq i32 %4, %0
  %cmp.i.i.i.i.i.i = icmp eq ptr %3, %lit
  %or.cond.i.i.i = and i1 %cmp.i.i.i.i.i.i, %cmp8.i.i.i
  br i1 %or.cond.i.i.i, label %if.end, label %for.inc.i.i.i

for.inc.i.i.i:                                    ; preds = %if.then.i.i.i, %for.body.i.i.i
  %incdec.ptr.i.i.i = getelementptr inbounds %"class.obj_map<expr, app *>::obj_map_entry", ptr %curr.031.i.i.i, i64 1
  %cmp.not.i.i.i = icmp eq ptr %incdec.ptr.i.i.i, %add.ptr5.i.i.i
  br i1 %cmp.not.i.i.i, label %for.cond18.preheader.i.i.i, label %for.body.i.i.i, !llvm.loop !19

for.body20.i.i.i:                                 ; preds = %for.cond18.preheader.i.i.i, %for.inc36.i.i.i
  %curr.133.i.i.i = phi ptr [ %incdec.ptr37.i.i.i, %for.inc36.i.i.i ], [ %2, %for.cond18.preheader.i.i.i ]
  %5 = load ptr, ptr %curr.133.i.i.i, align 8
  %magicptr27.i.i.i = ptrtoint ptr %5 to i64
  switch i64 %magicptr27.i.i.i, label %if.then22.i.i.i [
    i64 0, label %if.then
    i64 1, label %for.inc36.i.i.i
  ]

if.then22.i.i.i:                                  ; preds = %for.body20.i.i.i
  %m_hash.i.i.i22.i.i.i = getelementptr inbounds %class.ast, ptr %5, i64 0, i32 3
  %6 = load i32, ptr %m_hash.i.i.i22.i.i.i, align 4
  %cmp24.i.i.i = icmp eq i32 %6, %0
  %cmp.i.i.i23.i.i.i = icmp eq ptr %5, %lit
  %or.cond26.i.i.i = and i1 %cmp.i.i.i23.i.i.i, %cmp24.i.i.i
  br i1 %or.cond26.i.i.i, label %if.end, label %for.inc36.i.i.i

for.inc36.i.i.i:                                  ; preds = %if.then22.i.i.i, %for.body20.i.i.i
  %incdec.ptr37.i.i.i = getelementptr inbounds %"class.obj_map<expr, app *>::obj_map_entry", ptr %curr.133.i.i.i, i64 1
  %cmp19.not.i.i.i = icmp eq ptr %incdec.ptr37.i.i.i, %add.ptr.i.i.i
  br i1 %cmp19.not.i.i.i, label %if.then, label %for.body20.i.i.i, !llvm.loop !20

if.then:                                          ; preds = %for.body.i.i.i, %for.inc36.i.i.i, %for.body20.i.i.i, %for.cond18.preheader.i.i.i
  %tobool.not.i = icmp eq ptr %lit, null
  br i1 %tobool.not.i, label %_ZN11ast_manager7inc_refEP3ast.exit, label %if.then.i

if.then.i:                                        ; preds = %if.then
  %m_ref_count.i.i = getelementptr inbounds %class.ast, ptr %lit, i64 0, i32 2
  %7 = load i32, ptr %m_ref_count.i.i, align 4
  %inc.i.i = add i32 %7, 1
  store i32 %inc.i.i, ptr %m_ref_count.i.i, align 4
  br label %_ZN11ast_manager7inc_refEP3ast.exit

_ZN11ast_manager7inc_refEP3ast.exit:              ; preds = %if.then, %if.then.i
  call void @llvm.lifetime.start.p0(i64 16, ptr nonnull %ref.tmp.i)
  store ptr %lit, ptr %ref.tmp.i, align 8
  %m_value.i.i = getelementptr inbounds %"struct.obj_map<expr, app *>::key_data", ptr %ref.tmp.i, i64 0, i32 1
  store ptr %p, ptr %m_value.i.i, align 8
  call void @_ZN14core_hashtableIN7obj_mapI4exprP3appE13obj_map_entryE8obj_hashINS4_8key_dataEE10default_eqIS7_EE6insertEOS7_(ptr noundef nonnull align 8 dereferenceable(20) %m_lit2pred, ptr noundef nonnull align 8 dereferenceable(16) %ref.tmp.i)
  call void @llvm.lifetime.end.p0(i64 16, ptr nonnull %ref.tmp.i)
  br label %if.end

if.end:                                           ; preds = %if.then.i.i.i, %if.then22.i.i.i, %_ZN11ast_manager7inc_refEP3ast.exit
  ret void
}

; Function Attrs: mustprogress uwtable
define hidden void @_ZN2qe8pred_abs7add_asmEP3appP4expr(ptr noundef nonnull align 8 dereferenceable(216) %this, ptr noundef %p, ptr noundef %assum) local_unnamed_addr #3 align 2 {
entry:
  %ref.tmp.i6 = alloca %"struct.obj_map<expr, expr *>::key_data", align 8
  %ref.tmp.i = alloca %"struct.obj_map<expr, app *>::key_data", align 8
  %tobool.not.i = icmp eq ptr %p, null
  br i1 %tobool.not.i, label %_ZN11ast_manager7inc_refEP3ast.exit, label %if.then.i

if.then.i:                                        ; preds = %entry
  %m_ref_count.i.i = getelementptr inbounds %class.ast, ptr %p, i64 0, i32 2
  %0 = load i32, ptr %m_ref_count.i.i, align 4
  %inc.i.i = add i32 %0, 1
  store i32 %inc.i.i, ptr %m_ref_count.i.i, align 4
  br label %_ZN11ast_manager7inc_refEP3ast.exit

_ZN11ast_manager7inc_refEP3ast.exit:              ; preds = %entry, %if.then.i
  %tobool.not.i1 = icmp eq ptr %assum, null
  br i1 %tobool.not.i1, label %_ZN11ast_manager7inc_refEP3ast.exit5, label %if.then.i2

if.then.i2:                                       ; preds = %_ZN11ast_manager7inc_refEP3ast.exit
  %m_ref_count.i.i3 = getelementptr inbounds %class.ast, ptr %assum, i64 0, i32 2
  %1 = load i32, ptr %m_ref_count.i.i3, align 4
  %inc.i.i4 = add i32 %1, 1
  store i32 %inc.i.i4, ptr %m_ref_count.i.i3, align 4
  br label %_ZN11ast_manager7inc_refEP3ast.exit5

_ZN11ast_manager7inc_refEP3ast.exit5:             ; preds = %_ZN11ast_manager7inc_refEP3ast.exit, %if.then.i2
  %m_asm2pred = getelementptr inbounds %"class.qe::pred_abs", ptr %this, i64 0, i32 6
  call void @llvm.lifetime.start.p0(i64 16, ptr nonnull %ref.tmp.i)
  store ptr %assum, ptr %ref.tmp.i, align 8
  %m_value.i.i = getelementptr inbounds %"struct.obj_map<expr, app *>::key_data", ptr %ref.tmp.i, i64 0, i32 1
  store ptr %p, ptr %m_value.i.i, align 8
  call void @_ZN14core_hashtableIN7obj_mapI4exprP3appE13obj_map_entryE8obj_hashINS4_8key_dataEE10default_eqIS7_EE6insertEOS7_(ptr noundef nonnull align 8 dereferenceable(20) %m_asm2pred, ptr noundef nonnull align 8 dereferenceable(16) %ref.tmp.i)
  call void @llvm.lifetime.end.p0(i64 16, ptr nonnull %ref.tmp.i)
  %m_pred2asm = getelementptr inbounds %"class.qe::pred_abs", ptr %this, i64 0, i32 7
  call void @llvm.lifetime.start.p0(i64 16, ptr nonnull %ref.tmp.i6)
  store ptr %p, ptr %ref.tmp.i6, align 8
  %m_value.i.i7 = getelementptr inbounds %"struct.obj_map<expr, expr *>::key_data", ptr %ref.tmp.i6, i64 0, i32 1
  store ptr %assum, ptr %m_value.i.i7, align 8
  call void @_ZN14core_hashtableIN7obj_mapI4exprPS1_E13obj_map_entryE8obj_hashINS3_8key_dataEE10default_eqIS6_EE6insertEOS6_(ptr noundef nonnull align 8 dereferenceable(20) %m_pred2asm, ptr noundef nonnull align 8 dereferenceable(16) %ref.tmp.i6)
  call void @llvm.lifetime.end.p0(i64 16, ptr nonnull %ref.tmp.i6)
  ret void
}

; Function Attrs: mustprogress uwtable
define hidden void @_ZN2qe8pred_abs4pushEv(ptr noundef nonnull align 8 dereferenceable(216) %this) local_unnamed_addr #3 align 2 {
entry:
  %m_asms_lim = getelementptr inbounds %"class.qe::pred_abs", ptr %this, i64 0, i32 3
  %m_nodes.i = getelementptr inbounds %"class.qe::pred_abs", ptr %this, i64 0, i32 2, i32 0, i32 1
  %0 = load ptr, ptr %m_nodes.i, align 8
  %cmp.i.i = icmp eq ptr %0, null
  br i1 %cmp.i.i, label %_ZNK15ref_vector_coreI4expr19ref_manager_wrapperIS0_11ast_managerEE4sizeEv.exit, label %if.end.i.i

if.end.i.i:                                       ; preds = %entry
  %arrayidx.i.i = getelementptr inbounds i32, ptr %0, i64 -1
  %1 = load i32, ptr %arrayidx.i.i, align 4
  br label %_ZNK15ref_vector_coreI4expr19ref_manager_wrapperIS0_11ast_managerEE4sizeEv.exit

_ZNK15ref_vector_coreI4expr19ref_manager_wrapperIS0_11ast_managerEE4sizeEv.exit: ; preds = %entry, %if.end.i.i
  %retval.0.i.i = phi i32 [ %1, %if.end.i.i ], [ 0, %entry ]
  %2 = load ptr, ptr %m_asms_lim, align 8
  %cmp.i = icmp eq ptr %2, null
  br i1 %cmp.i, label %if.then.i, label %lor.lhs.false.i

lor.lhs.false.i:                                  ; preds = %_ZNK15ref_vector_coreI4expr19ref_manager_wrapperIS0_11ast_managerEE4sizeEv.exit
  %arrayidx.i = getelementptr inbounds i32, ptr %2, i64 -1
  %3 = load i32, ptr %arrayidx.i, align 4
  %arrayidx4.i = getelementptr inbounds i32, ptr %2, i64 -2
  %4 = load i32, ptr %arrayidx4.i, align 4
  %cmp5.i = icmp eq i32 %3, %4
  br i1 %cmp5.i, label %if.then.i, label %_ZN6vectorIjLb0EjE9push_backEOj.exit

if.then.i:                                        ; preds = %lor.lhs.false.i, %_ZNK15ref_vector_coreI4expr19ref_manager_wrapperIS0_11ast_managerEE4sizeEv.exit
  tail call void @_ZN6vectorIjLb0EjE13expand_vectorEv(ptr noundef nonnull align 8 dereferenceable(8) %m_asms_lim)
  %.pre.i = load ptr, ptr %m_asms_lim, align 8
  %arrayidx8.phi.trans.insert.i = getelementptr inbounds i32, ptr %.pre.i, i64 -1
  %.pre1.i = load i32, ptr %arrayidx8.phi.trans.insert.i, align 4
  br label %_ZN6vectorIjLb0EjE9push_backEOj.exit

_ZN6vectorIjLb0EjE9push_backEOj.exit:             ; preds = %lor.lhs.false.i, %if.then.i
  %5 = phi i32 [ %.pre1.i, %if.then.i ], [ %3, %lor.lhs.false.i ]
  %6 = phi ptr [ %.pre.i, %if.then.i ], [ %2, %lor.lhs.false.i ]
  %idx.ext.i = zext i32 %5 to i64
  %add.ptr.i = getelementptr inbounds i32, ptr %6, i64 %idx.ext.i
  store i32 %retval.0.i.i, ptr %add.ptr.i, align 4
  %7 = load ptr, ptr %m_asms_lim, align 8
  %arrayidx10.i = getelementptr inbounds i32, ptr %7, i64 -1
  %8 = load i32, ptr %arrayidx10.i, align 4
  %inc.i = add i32 %8, 1
  store i32 %inc.i, ptr %arrayidx10.i, align 4
  ret void
}

; Function Attrs: mustprogress uwtable
define hidden void @_ZN2qe8pred_abs3popEj(ptr noundef nonnull align 8 dereferenceable(216) %this, i32 noundef %num_scopes) local_unnamed_addr #3 align 2 {
entry:
  %m_asms_lim = getelementptr inbounds %"class.qe::pred_abs", ptr %this, i64 0, i32 3
  %0 = load ptr, ptr %m_asms_lim, align 8
  %cmp.i = icmp eq ptr %0, null
  br i1 %cmp.i, label %_ZNK6vectorIjLb0EjE4sizeEv.exit, label %if.end.i

if.end.i:                                         ; preds = %entry
  %arrayidx.i = getelementptr inbounds i32, ptr %0, i64 -1
  %1 = load i32, ptr %arrayidx.i, align 4
  br label %_ZNK6vectorIjLb0EjE4sizeEv.exit

_ZNK6vectorIjLb0EjE4sizeEv.exit:                  ; preds = %entry, %if.end.i
  %retval.0.i = phi i32 [ %1, %if.end.i ], [ 0, %entry ]
  %sub = sub i32 %retval.0.i, %num_scopes
  %m_asms = getelementptr inbounds %"class.qe::pred_abs", ptr %this, i64 0, i32 2
  %idxprom.i = zext i32 %sub to i64
  %arrayidx.i2 = getelementptr inbounds i32, ptr %0, i64 %idxprom.i
  %2 = load i32, ptr %arrayidx.i2, align 4
  %m_nodes.i = getelementptr inbounds %"class.qe::pred_abs", ptr %this, i64 0, i32 2, i32 0, i32 1
  %3 = load ptr, ptr %m_nodes.i, align 8
  %cmp.i.i = icmp eq ptr %3, null
  br i1 %cmp.i.i, label %_ZNK6vectorIP4exprLb0EjE4sizeEv.exit.i.i, label %_ZNK6vectorIP4exprLb0EjE4sizeEv.exit.i

_ZNK6vectorIP4exprLb0EjE4sizeEv.exit.i:           ; preds = %_ZNK6vectorIjLb0EjE4sizeEv.exit
  %arrayidx.i.i = getelementptr inbounds i32, ptr %3, i64 -1
  %4 = load i32, ptr %arrayidx.i.i, align 4
  %cmp.i3 = icmp ugt i32 %4, %2
  br i1 %cmp.i3, label %for.body.i.preheader.i, label %_ZNK6vectorIP4exprLb0EjE4sizeEv.exit.thread.i.i

for.body.i.preheader.i:                           ; preds = %_ZNK6vectorIP4exprLb0EjE4sizeEv.exit.i
  %idx.ext8.i = zext i32 %4 to i64
  %add.ptr9.i = getelementptr inbounds ptr, ptr %3, i64 %idx.ext8.i
  %idx.ext.i = zext i32 %2 to i64
  %add.ptr.i = getelementptr inbounds ptr, ptr %3, i64 %idx.ext.i
  br label %for.body.i.i

for.body.i.i:                                     ; preds = %_ZN15ref_vector_coreI4expr19ref_manager_wrapperIS0_11ast_managerEE7dec_refEPS0_.exit.i.i, %for.body.i.preheader.i
  %it.04.i.i = phi ptr [ %incdec.ptr.i.i, %_ZN15ref_vector_coreI4expr19ref_manager_wrapperIS0_11ast_managerEE7dec_refEPS0_.exit.i.i ], [ %add.ptr.i, %for.body.i.preheader.i ]
  %5 = load ptr, ptr %it.04.i.i, align 8
  %6 = load ptr, ptr %m_asms, align 8
  %tobool.not.i.i.i.i.i = icmp eq ptr %5, null
  br i1 %tobool.not.i.i.i.i.i, label %_ZN15ref_vector_coreI4expr19ref_manager_wrapperIS0_11ast_managerEE7dec_refEPS0_.exit.i.i, label %if.then.i.i.i.i.i

if.then.i.i.i.i.i:                                ; preds = %for.body.i.i
  %m_ref_count.i.i.i.i.i.i = getelementptr inbounds %class.ast, ptr %5, i64 0, i32 2
  %7 = load i32, ptr %m_ref_count.i.i.i.i.i.i, align 4
  %dec.i.i.i.i.i.i = add i32 %7, -1
  store i32 %dec.i.i.i.i.i.i, ptr %m_ref_count.i.i.i.i.i.i, align 4
  %cmp.i.i.i.i.i = icmp eq i32 %dec.i.i.i.i.i.i, 0
  br i1 %cmp.i.i.i.i.i, label %if.then2.i.i.i.i.i, label %_ZN15ref_vector_coreI4expr19ref_manager_wrapperIS0_11ast_managerEE7dec_refEPS0_.exit.i.i

if.then2.i.i.i.i.i:                               ; preds = %if.then.i.i.i.i.i
  tail call void @_ZN11ast_manager11delete_nodeEP3ast(ptr noundef nonnull align 8 dereferenceable(976) %6, ptr noundef nonnull %5)
  br label %_ZN15ref_vector_coreI4expr19ref_manager_wrapperIS0_11ast_managerEE7dec_refEPS0_.exit.i.i

_ZN15ref_vector_coreI4expr19ref_manager_wrapperIS0_11ast_managerEE7dec_refEPS0_.exit.i.i: ; preds = %if.then2.i.i.i.i.i, %if.then.i.i.i.i.i, %for.body.i.i
  %incdec.ptr.i.i = getelementptr inbounds ptr, ptr %it.04.i.i, i64 1
  %cmp.i8.i = icmp ult ptr %incdec.ptr.i.i, %add.ptr9.i
  br i1 %cmp.i8.i, label %for.body.i.i, label %if.end.i4, !llvm.loop !7

if.end.i4:                                        ; preds = %_ZN15ref_vector_coreI4expr19ref_manager_wrapperIS0_11ast_managerEE7dec_refEPS0_.exit.i.i
  %.pr.pre.i = load ptr, ptr %m_nodes.i, align 8
  %cmp.i.i.i = icmp eq ptr %.pr.pre.i, null
  br i1 %cmp.i.i.i, label %_ZNK6vectorIP4exprLb0EjE4sizeEv.exit.i.i, label %if.end.i4._ZNK6vectorIP4exprLb0EjE4sizeEv.exit.thread.i.i_crit_edge

if.end.i4._ZNK6vectorIP4exprLb0EjE4sizeEv.exit.thread.i.i_crit_edge: ; preds = %if.end.i4
  %arrayidx.i.i.i.phi.trans.insert = getelementptr inbounds i32, ptr %.pr.pre.i, i64 -1
  %.pre = load i32, ptr %arrayidx.i.i.i.phi.trans.insert, align 4
  br label %_ZNK6vectorIP4exprLb0EjE4sizeEv.exit.thread.i.i

_ZNK6vectorIP4exprLb0EjE4sizeEv.exit.i.i:         ; preds = %if.end.i4, %_ZNK6vectorIjLb0EjE4sizeEv.exit
  %cmp.not.not.i.i = icmp eq i32 %2, 0
  br i1 %cmp.not.not.i.i, label %_ZN15ref_vector_coreI4expr19ref_manager_wrapperIS0_11ast_managerEE6resizeEj.exit, label %while.cond.i.i.preheader

_ZNK6vectorIP4exprLb0EjE4sizeEv.exit.thread.i.i:  ; preds = %if.end.i4._ZNK6vectorIP4exprLb0EjE4sizeEv.exit.thread.i.i_crit_edge, %_ZNK6vectorIP4exprLb0EjE4sizeEv.exit.i
  %8 = phi i32 [ %.pre, %if.end.i4._ZNK6vectorIP4exprLb0EjE4sizeEv.exit.thread.i.i_crit_edge ], [ %4, %_ZNK6vectorIP4exprLb0EjE4sizeEv.exit.i ]
  %.pr18.i = phi ptr [ %.pr.pre.i, %if.end.i4._ZNK6vectorIP4exprLb0EjE4sizeEv.exit.thread.i.i_crit_edge ], [ %3, %_ZNK6vectorIP4exprLb0EjE4sizeEv.exit.i ]
  %cmp.not15.i.i = icmp ult i32 %8, %2
  br i1 %cmp.not15.i.i, label %while.cond.i.i.preheader, label %if.then.i.i.i

while.cond.i.i.preheader:                         ; preds = %_ZNK6vectorIP4exprLb0EjE4sizeEv.exit.i.i, %_ZNK6vectorIP4exprLb0EjE4sizeEv.exit.thread.i.i
  %.ph = phi ptr [ %.pr18.i, %_ZNK6vectorIP4exprLb0EjE4sizeEv.exit.thread.i.i ], [ null, %_ZNK6vectorIP4exprLb0EjE4sizeEv.exit.i.i ]
  %retval.0.i16.i.i.ph = phi i32 [ %8, %_ZNK6vectorIP4exprLb0EjE4sizeEv.exit.thread.i.i ], [ 0, %_ZNK6vectorIP4exprLb0EjE4sizeEv.exit.i.i ]
  br label %while.cond.i.i

if.then.i.i.i:                                    ; preds = %_ZNK6vectorIP4exprLb0EjE4sizeEv.exit.thread.i.i
  %arrayidx.i.i.i = getelementptr inbounds i32, ptr %.pr18.i, i64 -1
  store i32 %2, ptr %arrayidx.i.i.i, align 4
  br label %_ZN15ref_vector_coreI4expr19ref_manager_wrapperIS0_11ast_managerEE6resizeEj.exit

while.cond.i.i:                                   ; preds = %while.cond.i.i.preheader, %while.body.i.i
  %9 = phi ptr [ %.pr.pre.i.i, %while.body.i.i ], [ %.ph, %while.cond.i.i.preheader ]
  %cmp.i10.i.i = icmp eq ptr %9, null
  br i1 %cmp.i10.i.i, label %_ZNK6vectorIP4exprLb0EjE8capacityEv.exit.i.i, label %if.end.i11.i.i

if.end.i11.i.i:                                   ; preds = %while.cond.i.i
  %arrayidx.i12.i.i = getelementptr inbounds i32, ptr %9, i64 -2
  %10 = load i32, ptr %arrayidx.i12.i.i, align 4
  br label %_ZNK6vectorIP4exprLb0EjE8capacityEv.exit.i.i

_ZNK6vectorIP4exprLb0EjE8capacityEv.exit.i.i:     ; preds = %if.end.i11.i.i, %while.cond.i.i
  %retval.0.i13.i.i = phi i32 [ %10, %if.end.i11.i.i ], [ 0, %while.cond.i.i ]
  %cmp3.i9.i = icmp ult i32 %retval.0.i13.i.i, %2
  br i1 %cmp3.i9.i, label %while.body.i.i, label %while.end.i.i

while.body.i.i:                                   ; preds = %_ZNK6vectorIP4exprLb0EjE8capacityEv.exit.i.i
  tail call void @_ZN6vectorIP4exprLb0EjE13expand_vectorEv(ptr noundef nonnull align 8 dereferenceable(8) %m_nodes.i)
  %.pr.pre.i.i = load ptr, ptr %m_nodes.i, align 8
  br label %while.cond.i.i, !llvm.loop !21

while.end.i.i:                                    ; preds = %_ZNK6vectorIP4exprLb0EjE8capacityEv.exit.i.i
  %arrayidx.i10.i = getelementptr inbounds i32, ptr %9, i64 -1
  store i32 %2, ptr %arrayidx.i10.i, align 4
  %cmp8.not17.i.i = icmp eq i32 %retval.0.i16.i.i.ph, %2
  br i1 %cmp8.not17.i.i, label %_ZN15ref_vector_coreI4expr19ref_manager_wrapperIS0_11ast_managerEE6resizeEj.exit, label %for.body.preheader.i.i

for.body.preheader.i.i:                           ; preds = %while.end.i.i
  %idx.ext6.i.i = zext i32 %2 to i64
  %11 = load ptr, ptr %m_nodes.i, align 8
  %idx.ext.i.i = zext i32 %retval.0.i16.i.i.ph to i64
  %add.ptr.i.i = getelementptr ptr, ptr %11, i64 %idx.ext.i.i
  %12 = sub nsw i64 %idx.ext6.i.i, %idx.ext.i.i
  %13 = shl nsw i64 %12, 3
  tail call void @llvm.memset.p0.i64(ptr align 8 %add.ptr.i.i, i8 0, i64 %13, i1 false)
  br label %_ZN15ref_vector_coreI4expr19ref_manager_wrapperIS0_11ast_managerEE6resizeEj.exit

_ZN15ref_vector_coreI4expr19ref_manager_wrapperIS0_11ast_managerEE6resizeEj.exit: ; preds = %_ZNK6vectorIP4exprLb0EjE4sizeEv.exit.i.i, %if.then.i.i.i, %while.end.i.i, %for.body.preheader.i.i
  %14 = load ptr, ptr %m_asms_lim, align 8
  %tobool.not.i = icmp eq ptr %14, null
  br i1 %tobool.not.i, label %_ZN6vectorIjLb0EjE6shrinkEj.exit, label %if.then.i

if.then.i:                                        ; preds = %_ZN15ref_vector_coreI4expr19ref_manager_wrapperIS0_11ast_managerEE6resizeEj.exit
  %arrayidx.i5 = getelementptr inbounds i32, ptr %14, i64 -1
  store i32 %sub, ptr %arrayidx.i5, align 4
  br label %_ZN6vectorIjLb0EjE6shrinkEj.exit

_ZN6vectorIjLb0EjE6shrinkEj.exit:                 ; preds = %_ZN15ref_vector_coreI4expr19ref_manager_wrapperIS0_11ast_managerEE6resizeEj.exit, %if.then.i
  ret void
}

; Function Attrs: mustprogress uwtable
define hidden void @_ZN2qe8pred_abs6insertEP3appRKNS_9max_levelE(ptr noundef nonnull align 8 dereferenceable(216) %this, ptr noundef %a, ptr nocapture noundef nonnull readonly align 4 dereferenceable(8) %lvl) local_unnamed_addr #3 align 2 personality ptr @__gxx_personality_v0 {
entry:
  %ref.tmp = alloca %class.ref_vector.50, align 8
  %0 = load i32, ptr %lvl, align 4
  %m_fa.i = getelementptr inbounds %"struct.qe::max_level", ptr %lvl, i64 0, i32 1
  %1 = load i32, ptr %m_fa.i, align 4
  %cmp.i.i = icmp eq i32 %0, -1
  br i1 %cmp.i.i, label %_ZNK2qe9max_level3maxEv.exit, label %if.end.i.i

if.end.i.i:                                       ; preds = %entry
  %cmp1.i.i = icmp eq i32 %1, -1
  br i1 %cmp1.i.i, label %_ZNK2qe9max_level3maxEv.exit, label %if.end3.i.i

if.end3.i.i:                                      ; preds = %if.end.i.i
  %.sroa.speculated.i.i = tail call i32 @llvm.umax.i32(i32 %0, i32 %1)
  br label %_ZNK2qe9max_level3maxEv.exit

_ZNK2qe9max_level3maxEv.exit:                     ; preds = %entry, %if.end.i.i, %if.end3.i.i
  %retval.0.i.i = phi i32 [ %.sroa.speculated.i.i, %if.end3.i.i ], [ %1, %entry ], [ %0, %if.end.i.i ]
  %cmp = icmp eq i32 %retval.0.i.i, -1
  %spec.store.select = select i1 %cmp, i32 0, i32 %retval.0.i.i
  %m_preds = getelementptr inbounds %"class.qe::pred_abs", ptr %this, i64 0, i32 1
  %m_nodes.i.i = getelementptr inbounds %class.ref_vector_core.51, ptr %ref.tmp, i64 0, i32 1
  br label %while.cond

while.cond:                                       ; preds = %_ZN10ref_vectorI3app11ast_managerED2Ev.exit, %_ZNK2qe9max_level3maxEv.exit
  %2 = load ptr, ptr %m_preds, align 8
  %cmp.i = icmp eq ptr %2, null
  br i1 %cmp.i, label %while.body.thread, label %_ZNK6vectorI10ref_vectorI3app11ast_managerELb1EjE4sizeEv.exit

while.body.thread:                                ; preds = %while.cond
  %3 = load ptr, ptr %this, align 8
  store ptr %3, ptr %ref.tmp, align 8
  store ptr null, ptr %m_nodes.i.i, align 8
  %4 = ptrtoint ptr %3 to i64
  br label %if.then.i

_ZNK6vectorI10ref_vectorI3app11ast_managerELb1EjE4sizeEv.exit: ; preds = %while.cond
  %arrayidx.i = getelementptr inbounds i32, ptr %2, i64 -1
  %5 = load i32, ptr %arrayidx.i, align 4
  %cmp3.not = icmp ugt i32 %5, %spec.store.select
  br i1 %cmp3.not, label %while.end, label %lor.lhs.false.i

lor.lhs.false.i:                                  ; preds = %_ZNK6vectorI10ref_vectorI3app11ast_managerELb1EjE4sizeEv.exit
  %6 = load ptr, ptr %this, align 8
  store ptr %6, ptr %ref.tmp, align 8
  store ptr null, ptr %m_nodes.i.i, align 8
  %arrayidx4.i = getelementptr inbounds i32, ptr %2, i64 -2
  %7 = load i32, ptr %arrayidx4.i, align 4
  %cmp5.i = icmp eq i32 %5, %7
  %8 = ptrtoint ptr %6 to i64
  br i1 %cmp5.i, label %if.then.i, label %_ZN10ref_vectorI3app11ast_managerED2Ev.exit

if.then.i:                                        ; preds = %while.body.thread, %lor.lhs.false.i
  %9 = phi i64 [ %4, %while.body.thread ], [ %8, %lor.lhs.false.i ]
  invoke void @_ZN6vectorI10ref_vectorI3app11ast_managerELb1EjE13expand_vectorEv(ptr noundef nonnull align 8 dereferenceable(8) %m_preds)
          to label %.noexc unwind label %lpad

.noexc:                                           ; preds = %if.then.i
  %.pre.i = load ptr, ptr %m_preds, align 8
  %arrayidx8.phi.trans.insert.i = getelementptr inbounds i32, ptr %.pre.i, i64 -1
  %.pre1.i = load i32, ptr %arrayidx8.phi.trans.insert.i, align 4
  br label %_ZN10ref_vectorI3app11ast_managerED2Ev.exit

_ZN10ref_vectorI3app11ast_managerED2Ev.exit:      ; preds = %lor.lhs.false.i, %.noexc
  %10 = phi i64 [ %9, %.noexc ], [ %8, %lor.lhs.false.i ]
  %11 = phi i32 [ %.pre1.i, %.noexc ], [ %5, %lor.lhs.false.i ]
  %12 = phi ptr [ %.pre.i, %.noexc ], [ %2, %lor.lhs.false.i ]
  %idx.ext.i = zext i32 %11 to i64
  %add.ptr.i = getelementptr inbounds %class.ref_vector.50, ptr %12, i64 %idx.ext.i
  store i64 %10, ptr %add.ptr.i, align 8
  %m_nodes.i.i.i = getelementptr inbounds %class.ref_vector_core.51, ptr %add.ptr.i, i64 0, i32 1
  store ptr null, ptr %m_nodes.i.i.i, align 8
  store ptr null, ptr %m_nodes.i.i, align 8
  %13 = load ptr, ptr %m_preds, align 8
  %arrayidx10.i = getelementptr inbounds i32, ptr %13, i64 -1
  %14 = load i32, ptr %arrayidx10.i, align 4
  %inc.i = add i32 %14, 1
  store i32 %inc.i, ptr %arrayidx10.i, align 4
  br label %while.cond, !llvm.loop !22

lpad:                                             ; preds = %if.then.i
  %15 = landingpad { ptr, i32 }
          cleanup
  call void @_ZN10ref_vectorI3app11ast_managerED2Ev(ptr noundef nonnull align 8 dereferenceable(16) %ref.tmp) #19
  resume { ptr, i32 } %15

while.end:                                        ; preds = %_ZNK6vectorI10ref_vectorI3app11ast_managerELb1EjE4sizeEv.exit
  %idxprom.i = zext i32 %spec.store.select to i64
  %tobool.not.i.i.i.i = icmp eq ptr %a, null
  br i1 %tobool.not.i.i.i.i, label %_ZN15ref_vector_coreI3app19ref_manager_wrapperIS0_11ast_managerEE7inc_refEPS0_.exit.i, label %if.then.i.i.i.i

if.then.i.i.i.i:                                  ; preds = %while.end
  %m_ref_count.i.i.i.i.i = getelementptr inbounds %class.ast, ptr %a, i64 0, i32 2
  %16 = load i32, ptr %m_ref_count.i.i.i.i.i, align 4
  %inc.i.i.i.i.i = add i32 %16, 1
  store i32 %inc.i.i.i.i.i, ptr %m_ref_count.i.i.i.i.i, align 4
  br label %_ZN15ref_vector_coreI3app19ref_manager_wrapperIS0_11ast_managerEE7inc_refEPS0_.exit.i

_ZN15ref_vector_coreI3app19ref_manager_wrapperIS0_11ast_managerEE7inc_refEPS0_.exit.i: ; preds = %if.then.i.i.i.i, %while.end
  %m_nodes.i = getelementptr inbounds %class.ref_vector.50, ptr %2, i64 %idxprom.i, i32 0, i32 1
  %17 = load ptr, ptr %m_nodes.i, align 8
  %cmp.i.i8 = icmp eq ptr %17, null
  br i1 %cmp.i.i8, label %if.then.i.i, label %lor.lhs.false.i.i

lor.lhs.false.i.i:                                ; preds = %_ZN15ref_vector_coreI3app19ref_manager_wrapperIS0_11ast_managerEE7inc_refEPS0_.exit.i
  %arrayidx.i.i = getelementptr inbounds i32, ptr %17, i64 -1
  %18 = load i32, ptr %arrayidx.i.i, align 4
  %arrayidx4.i.i = getelementptr inbounds i32, ptr %17, i64 -2
  %19 = load i32, ptr %arrayidx4.i.i, align 4
  %cmp5.i.i = icmp eq i32 %18, %19
  br i1 %cmp5.i.i, label %if.then.i.i, label %_ZN15ref_vector_coreI3app19ref_manager_wrapperIS0_11ast_managerEE9push_backEPS0_.exit

if.then.i.i:                                      ; preds = %lor.lhs.false.i.i, %_ZN15ref_vector_coreI3app19ref_manager_wrapperIS0_11ast_managerEE7inc_refEPS0_.exit.i
  tail call void @_ZN6vectorIP3appLb0EjE13expand_vectorEv(ptr noundef nonnull align 8 dereferenceable(8) %m_nodes.i)
  %.pre.i.i10 = load ptr, ptr %m_nodes.i, align 8
  %arrayidx8.phi.trans.insert.i.i = getelementptr inbounds i32, ptr %.pre.i.i10, i64 -1
  %.pre1.i.i = load i32, ptr %arrayidx8.phi.trans.insert.i.i, align 4
  br label %_ZN15ref_vector_coreI3app19ref_manager_wrapperIS0_11ast_managerEE9push_backEPS0_.exit

_ZN15ref_vector_coreI3app19ref_manager_wrapperIS0_11ast_managerEE9push_backEPS0_.exit: ; preds = %lor.lhs.false.i.i, %if.then.i.i
  %20 = phi i32 [ %.pre1.i.i, %if.then.i.i ], [ %18, %lor.lhs.false.i.i ]
  %21 = phi ptr [ %.pre.i.i10, %if.then.i.i ], [ %17, %lor.lhs.false.i.i ]
  %idx.ext.i.i = zext i32 %20 to i64
  %add.ptr.i.i9 = getelementptr inbounds ptr, ptr %21, i64 %idx.ext.i.i
  store ptr %a, ptr %add.ptr.i.i9, align 8
  %22 = load ptr, ptr %m_nodes.i, align 8
  %arrayidx10.i.i = getelementptr inbounds i32, ptr %22, i64 -1
  %23 = load i32, ptr %arrayidx10.i.i, align 4
  %inc.i.i = add i32 %23, 1
  store i32 %inc.i.i, ptr %arrayidx10.i.i, align 4
  ret void
}

; Function Attrs: mustprogress nounwind uwtable
define linkonce_odr hidden void @_ZN10ref_vectorI3app11ast_managerED2Ev(ptr noundef nonnull align 8 dereferenceable(16) %this) unnamed_addr #4 comdat align 2 personality ptr @__gxx_personality_v0 {
entry:
  %m_nodes.i = getelementptr inbounds %class.ref_vector_core.51, ptr %this, i64 0, i32 1
  %0 = load ptr, ptr %m_nodes.i, align 8
  %cmp.i.i = icmp eq ptr %0, null
  br i1 %cmp.i.i, label %_ZN15ref_vector_coreI3app19ref_manager_wrapperIS0_11ast_managerEED2Ev.exit, label %_ZNK6vectorIP3appLb0EjE4sizeEv.exit.i

_ZNK6vectorIP3appLb0EjE4sizeEv.exit.i:            ; preds = %entry
  %arrayidx.i.i = getelementptr inbounds i32, ptr %0, i64 -1
  %1 = load i32, ptr %arrayidx.i.i, align 4
  %2 = zext i32 %1 to i64
  %add.ptr.i = getelementptr inbounds ptr, ptr %0, i64 %2
  %cmp3.i.not.i = icmp eq i32 %1, 0
  br i1 %cmp3.i.not.i, label %if.then.i.i.i.i, label %for.body.i.i

for.body.i.i:                                     ; preds = %_ZNK6vectorIP3appLb0EjE4sizeEv.exit.i, %_ZN15ref_vector_coreI3app19ref_manager_wrapperIS0_11ast_managerEE7dec_refEPS0_.exit.i.i
  %it.04.i.i = phi ptr [ %incdec.ptr.i.i, %_ZN15ref_vector_coreI3app19ref_manager_wrapperIS0_11ast_managerEE7dec_refEPS0_.exit.i.i ], [ %0, %_ZNK6vectorIP3appLb0EjE4sizeEv.exit.i ]
  %3 = load ptr, ptr %it.04.i.i, align 8
  %4 = load ptr, ptr %this, align 8
  %tobool.not.i.i.i.i.i = icmp eq ptr %3, null
  br i1 %tobool.not.i.i.i.i.i, label %_ZN15ref_vector_coreI3app19ref_manager_wrapperIS0_11ast_managerEE7dec_refEPS0_.exit.i.i, label %if.then.i.i.i.i.i

if.then.i.i.i.i.i:                                ; preds = %for.body.i.i
  %m_ref_count.i.i.i.i.i.i = getelementptr inbounds %class.ast, ptr %3, i64 0, i32 2
  %5 = load i32, ptr %m_ref_count.i.i.i.i.i.i, align 4
  %dec.i.i.i.i.i.i = add i32 %5, -1
  store i32 %dec.i.i.i.i.i.i, ptr %m_ref_count.i.i.i.i.i.i, align 4
  %cmp.i.i.i.i.i = icmp eq i32 %dec.i.i.i.i.i.i, 0
  br i1 %cmp.i.i.i.i.i, label %if.then2.i.i.i.i.i, label %_ZN15ref_vector_coreI3app19ref_manager_wrapperIS0_11ast_managerEE7dec_refEPS0_.exit.i.i

if.then2.i.i.i.i.i:                               ; preds = %if.then.i.i.i.i.i
  invoke void @_ZN11ast_manager11delete_nodeEP3ast(ptr noundef nonnull align 8 dereferenceable(976) %4, ptr noundef nonnull %3)
          to label %_ZN15ref_vector_coreI3app19ref_manager_wrapperIS0_11ast_managerEE7dec_refEPS0_.exit.i.i unwind label %terminate.lpad.i

_ZN15ref_vector_coreI3app19ref_manager_wrapperIS0_11ast_managerEE7dec_refEPS0_.exit.i.i: ; preds = %if.then2.i.i.i.i.i, %if.then.i.i.i.i.i, %for.body.i.i
  %incdec.ptr.i.i = getelementptr inbounds ptr, ptr %it.04.i.i, i64 1
  %cmp.i1.i = icmp ult ptr %incdec.ptr.i.i, %add.ptr.i
  br i1 %cmp.i1.i, label %for.body.i.i, label %invoke.cont8.i, !llvm.loop !23

invoke.cont8.i:                                   ; preds = %_ZN15ref_vector_coreI3app19ref_manager_wrapperIS0_11ast_managerEE7dec_refEPS0_.exit.i.i
  %.pre.i = load ptr, ptr %m_nodes.i, align 8
  %tobool.not.i.i.i.i = icmp eq ptr %.pre.i, null
  br i1 %tobool.not.i.i.i.i, label %_ZN15ref_vector_coreI3app19ref_manager_wrapperIS0_11ast_managerEED2Ev.exit, label %if.then.i.i.i.i

if.then.i.i.i.i:                                  ; preds = %invoke.cont8.i, %_ZNK6vectorIP3appLb0EjE4sizeEv.exit.i
  %6 = phi ptr [ %.pre.i, %invoke.cont8.i ], [ %0, %_ZNK6vectorIP3appLb0EjE4sizeEv.exit.i ]
  %add.ptr.i.i.i.i.i = getelementptr inbounds i32, ptr %6, i64 -2
  invoke void @_ZN6memory10deallocateEPv(ptr noundef nonnull %add.ptr.i.i.i.i.i)
          to label %_ZN15ref_vector_coreI3app19ref_manager_wrapperIS0_11ast_managerEED2Ev.exit unwind label %terminate.lpad.i.i.i

terminate.lpad.i.i.i:                             ; preds = %if.then.i.i.i.i
  %7 = landingpad { ptr, i32 }
          catch ptr null
  %8 = extractvalue { ptr, i32 } %7, 0
  tail call void @__clang_call_terminate(ptr %8) #21
  unreachable

terminate.lpad.i:                                 ; preds = %if.then2.i.i.i.i.i
  %9 = landingpad { ptr, i32 }
          catch ptr null
  %10 = extractvalue { ptr, i32 } %9, 0
  tail call void @__clang_call_terminate(ptr %10) #21
  unreachable

_ZN15ref_vector_coreI3app19ref_manager_wrapperIS0_11ast_managerEED2Ev.exit: ; preds = %entry, %invoke.cont8.i, %if.then.i.i.i.i
  ret void
}

; Function Attrs: mustprogress nofree nosync nounwind willreturn memory(read, inaccessiblemem: none) uwtable
define hidden noundef zeroext i1 @_ZN2qe8pred_abs12is_predicateEP3appj(ptr nocapture noundef nonnull readonly align 8 dereferenceable(216) %this, ptr nocapture noundef readonly %a, i32 noundef %l) local_unnamed_addr #7 align 2 {
entry:
  %m_flevel = getelementptr inbounds %"class.qe::pred_abs", ptr %this, i64 0, i32 12
  %m_decl.i = getelementptr inbounds %class.app, ptr %a, i64 0, i32 1
  %0 = load ptr, ptr %m_decl.i, align 8
  %m_hash.i.i.i.i.i.i.i = getelementptr inbounds %class.ast, ptr %0, i64 0, i32 3
  %1 = load i32, ptr %m_hash.i.i.i.i.i.i.i, align 4
  %m_capacity.i.i.i = getelementptr inbounds %"class.qe::pred_abs", ptr %this, i64 0, i32 12, i32 0, i32 1
  %2 = load i32, ptr %m_capacity.i.i.i, align 8
  %sub.i.i.i = add i32 %2, -1
  %and.i.i.i = and i32 %sub.i.i.i, %1
  %3 = load ptr, ptr %m_flevel, align 8
  %idx.ext.i.i.i = zext i32 %and.i.i.i to i64
  %add.ptr.i.i.i = getelementptr inbounds %"class.obj_map<func_decl, qe::max_level>::obj_map_entry", ptr %3, i64 %idx.ext.i.i.i
  %idx.ext4.i.i.i = zext i32 %2 to i64
  %add.ptr5.i.i.i = getelementptr inbounds %"class.obj_map<func_decl, qe::max_level>::obj_map_entry", ptr %3, i64 %idx.ext4.i.i.i
  %cmp.not30.i.i.i = icmp eq i32 %and.i.i.i, %2
  br i1 %cmp.not30.i.i.i, label %for.cond18.preheader.i.i.i, label %for.body.i.i.i

for.cond18.preheader.i.i.i:                       ; preds = %for.inc.i.i.i, %entry
  %cmp19.not32.i.i.i = icmp eq i32 %and.i.i.i, 0
  br i1 %cmp19.not32.i.i.i, label %land.end, label %for.body20.i.i.i

for.body.i.i.i:                                   ; preds = %entry, %for.inc.i.i.i
  %curr.031.i.i.i = phi ptr [ %incdec.ptr.i.i.i, %for.inc.i.i.i ], [ %add.ptr.i.i.i, %entry ]
  %4 = load ptr, ptr %curr.031.i.i.i, align 8
  %magicptr25.i.i.i = ptrtoint ptr %4 to i64
  switch i64 %magicptr25.i.i.i, label %if.then.i.i.i [
    i64 0, label %land.end
    i64 1, label %for.inc.i.i.i
  ]

if.then.i.i.i:                                    ; preds = %for.body.i.i.i
  %m_hash.i.i.i.i.i.i = getelementptr inbounds %class.ast, ptr %4, i64 0, i32 3
  %5 = load i32, ptr %m_hash.i.i.i.i.i.i, align 4
  %cmp8.i.i.i = icmp eq i32 %5, %1
  %cmp.i.i.i.i.i.i = icmp eq ptr %4, %0
  %or.cond.i.i.i = and i1 %cmp.i.i.i.i.i.i, %cmp8.i.i.i
  br i1 %or.cond.i.i.i, label %land.rhs, label %for.inc.i.i.i

for.inc.i.i.i:                                    ; preds = %if.then.i.i.i, %for.body.i.i.i
  %incdec.ptr.i.i.i = getelementptr inbounds %"class.obj_map<func_decl, qe::max_level>::obj_map_entry", ptr %curr.031.i.i.i, i64 1
  %cmp.not.i.i.i = icmp eq ptr %incdec.ptr.i.i.i, %add.ptr5.i.i.i
  br i1 %cmp.not.i.i.i, label %for.cond18.preheader.i.i.i, label %for.body.i.i.i, !llvm.loop !17

for.body20.i.i.i:                                 ; preds = %for.cond18.preheader.i.i.i, %for.inc36.i.i.i
  %curr.133.i.i.i = phi ptr [ %incdec.ptr37.i.i.i, %for.inc36.i.i.i ], [ %3, %for.cond18.preheader.i.i.i ]
  %6 = load ptr, ptr %curr.133.i.i.i, align 8
  %magicptr27.i.i.i = ptrtoint ptr %6 to i64
  switch i64 %magicptr27.i.i.i, label %if.then22.i.i.i [
    i64 0, label %land.end
    i64 1, label %for.inc36.i.i.i
  ]

if.then22.i.i.i:                                  ; preds = %for.body20.i.i.i
  %m_hash.i.i.i22.i.i.i = getelementptr inbounds %class.ast, ptr %6, i64 0, i32 3
  %7 = load i32, ptr %m_hash.i.i.i22.i.i.i, align 4
  %cmp24.i.i.i = icmp eq i32 %7, %1
  %cmp.i.i.i23.i.i.i = icmp eq ptr %6, %0
  %or.cond26.i.i.i = and i1 %cmp.i.i.i23.i.i.i, %cmp24.i.i.i
  br i1 %or.cond26.i.i.i, label %land.rhs, label %for.inc36.i.i.i

for.inc36.i.i.i:                                  ; preds = %if.then22.i.i.i, %for.body20.i.i.i
  %incdec.ptr37.i.i.i = getelementptr inbounds %"class.obj_map<func_decl, qe::max_level>::obj_map_entry", ptr %curr.133.i.i.i, i64 1
  %cmp19.not.i.i.i = icmp eq ptr %incdec.ptr37.i.i.i, %add.ptr.i.i.i
  br i1 %cmp19.not.i.i.i, label %land.end, label %for.body20.i.i.i, !llvm.loop !18

land.rhs:                                         ; preds = %if.then.i.i.i, %if.then22.i.i.i
  %retval.0.i.i.i = phi ptr [ %curr.133.i.i.i, %if.then22.i.i.i ], [ %curr.031.i.i.i, %if.then.i.i.i ]
  %m_value.i = getelementptr inbounds %"struct.obj_map<func_decl, qe::max_level>::key_data", ptr %retval.0.i.i.i, i64 0, i32 1
  %8 = load i64, ptr %m_value.i, align 8
  %lvl1.sroa.0.0.extract.trunc = trunc i64 %8 to i32
  %lvl1.sroa.3.0.extract.shift = lshr i64 %8, 32
  %lvl1.sroa.3.0.extract.trunc = trunc i64 %lvl1.sroa.3.0.extract.shift to i32
  %cmp.i.i = icmp eq i32 %lvl1.sroa.0.0.extract.trunc, -1
  br i1 %cmp.i.i, label %_ZNK2qe9max_level3maxEv.exit, label %if.end.i.i

if.end.i.i:                                       ; preds = %land.rhs
  %cmp1.i.i = icmp eq i32 %lvl1.sroa.3.0.extract.trunc, -1
  br i1 %cmp1.i.i, label %_ZNK2qe9max_level3maxEv.exit, label %if.end3.i.i

if.end3.i.i:                                      ; preds = %if.end.i.i
  %.sroa.speculated.i.i = tail call i32 @llvm.umax.i32(i32 %lvl1.sroa.0.0.extract.trunc, i32 %lvl1.sroa.3.0.extract.trunc)
  br label %_ZNK2qe9max_level3maxEv.exit

_ZNK2qe9max_level3maxEv.exit:                     ; preds = %land.rhs, %if.end.i.i, %if.end3.i.i
  %retval.0.i.i = phi i32 [ %.sroa.speculated.i.i, %if.end3.i.i ], [ %lvl1.sroa.3.0.extract.trunc, %land.rhs ], [ %lvl1.sroa.0.0.extract.trunc, %if.end.i.i ]
  %cmp = icmp ult i32 %retval.0.i.i, %l
  br label %land.end

land.end:                                         ; preds = %for.body.i.i.i, %for.inc36.i.i.i, %for.body20.i.i.i, %for.cond18.preheader.i.i.i, %_ZNK2qe9max_level3maxEv.exit
  %9 = phi i1 [ %cmp, %_ZNK2qe9max_level3maxEv.exit ], [ false, %for.cond18.preheader.i.i.i ], [ false, %for.body20.i.i.i ], [ false, %for.inc36.i.i.i ], [ false, %for.body.i.i.i ]
  ret i1 %9
}

; Function Attrs: mustprogress uwtable
define hidden void @_ZN2qe8pred_abs15get_assumptionsEP5modelR10ref_vectorI4expr11ast_managerE(ptr noundef nonnull align 8 dereferenceable(216) %this, ptr noundef %mdl, ptr noundef nonnull align 8 dereferenceable(16) %asms) local_unnamed_addr #3 align 2 personality ptr @__gxx_personality_v0 {
entry:
  %eval = alloca %class.model_evaluator, align 8
  %ref.tmp = alloca %class.params_ref, align 8
  %val = alloca %class.obj_ref, align 8
  %m_asms_lim = getelementptr inbounds %"class.qe::pred_abs", ptr %this, i64 0, i32 3
  %0 = load ptr, ptr %m_asms_lim, align 8
  %cmp.i = icmp eq ptr %0, null
  br i1 %cmp.i, label %_ZNK6vectorIjLb0EjE4sizeEv.exit.thread, label %_ZNK6vectorIjLb0EjE4sizeEv.exit

_ZNK6vectorIjLb0EjE4sizeEv.exit:                  ; preds = %entry
  %arrayidx.i = getelementptr inbounds i32, ptr %0, i64 -1
  %1 = load i32, ptr %arrayidx.i, align 4
  %m_preds = getelementptr inbounds %"class.qe::pred_abs", ptr %this, i64 0, i32 1
  %2 = load ptr, ptr %m_preds, align 8
  %cmp.i33 = icmp eq ptr %2, null
  br i1 %cmp.i33, label %_ZNK6vectorI10ref_vectorI3app11ast_managerELb1EjE4sizeEv.exit, label %_ZNK6vectorI10ref_vectorI3app11ast_managerELb1EjE4sizeEv.exit.thread

_ZNK6vectorIjLb0EjE4sizeEv.exit.thread:           ; preds = %entry
  %m_preds191 = getelementptr inbounds %"class.qe::pred_abs", ptr %this, i64 0, i32 1
  br label %if.end

_ZNK6vectorI10ref_vectorI3app11ast_managerELb1EjE4sizeEv.exit: ; preds = %_ZNK6vectorIjLb0EjE4sizeEv.exit
  %cmp.not = icmp eq i32 %1, 0
  br i1 %cmp.not, label %if.end, label %if.end.thread

_ZNK6vectorI10ref_vectorI3app11ast_managerELb1EjE4sizeEv.exit.thread: ; preds = %_ZNK6vectorIjLb0EjE4sizeEv.exit
  %arrayidx.i35 = getelementptr inbounds i32, ptr %2, i64 -1
  %3 = load i32, ptr %arrayidx.i35, align 4
  %spec.select = tail call i32 @llvm.umin.i32(i32 %1, i32 %3)
  br label %if.end

if.end:                                           ; preds = %_ZNK6vectorI10ref_vectorI3app11ast_managerELb1EjE4sizeEv.exit.thread, %_ZNK6vectorIjLb0EjE4sizeEv.exit.thread, %_ZNK6vectorI10ref_vectorI3app11ast_managerELb1EjE4sizeEv.exit
  %m_preds195 = phi ptr [ %m_preds, %_ZNK6vectorI10ref_vectorI3app11ast_managerELb1EjE4sizeEv.exit ], [ %m_preds191, %_ZNK6vectorIjLb0EjE4sizeEv.exit.thread ], [ %m_preds, %_ZNK6vectorI10ref_vectorI3app11ast_managerELb1EjE4sizeEv.exit.thread ]
  %level.0 = phi i32 [ 0, %_ZNK6vectorI10ref_vectorI3app11ast_managerELb1EjE4sizeEv.exit ], [ 0, %_ZNK6vectorIjLb0EjE4sizeEv.exit.thread ], [ %spec.select, %_ZNK6vectorI10ref_vectorI3app11ast_managerELb1EjE4sizeEv.exit.thread ]
  %tobool.not = icmp eq ptr %mdl, null
  br i1 %tobool.not, label %if.then5, label %if.end6

if.end.thread:                                    ; preds = %_ZNK6vectorI10ref_vectorI3app11ast_managerELb1EjE4sizeEv.exit
  %tobool.not186 = icmp eq ptr %mdl, null
  br i1 %tobool.not186, label %if.then5, label %cleanup.cont

if.then5:                                         ; preds = %if.end.thread, %if.end
  %m_nodes.i.i = getelementptr inbounds %"class.qe::pred_abs", ptr %this, i64 0, i32 2, i32 0, i32 1
  %m_nodes.i6.i = getelementptr inbounds %class.ref_vector_core, ptr %asms, i64 0, i32 1
  br label %for.cond.i

for.cond.i:                                       ; preds = %_ZN15ref_vector_coreI4expr19ref_manager_wrapperIS0_11ast_managerEE9push_backEPS0_.exit.i, %if.then5
  %indvars.iv.i = phi i64 [ %indvars.iv.next.i, %_ZN15ref_vector_coreI4expr19ref_manager_wrapperIS0_11ast_managerEE9push_backEPS0_.exit.i ], [ 0, %if.then5 ]
  %4 = load ptr, ptr %m_nodes.i.i, align 8
  %cmp.i.i.i = icmp eq ptr %4, null
  br i1 %cmp.i.i.i, label %_ZNK15ref_vector_coreI4expr19ref_manager_wrapperIS0_11ast_managerEE4sizeEv.exit.i, label %if.end.i.i.i

if.end.i.i.i:                                     ; preds = %for.cond.i
  %arrayidx.i.i.i = getelementptr inbounds i32, ptr %4, i64 -1
  %5 = load i32, ptr %arrayidx.i.i.i, align 4
  br label %_ZNK15ref_vector_coreI4expr19ref_manager_wrapperIS0_11ast_managerEE4sizeEv.exit.i

_ZNK15ref_vector_coreI4expr19ref_manager_wrapperIS0_11ast_managerEE4sizeEv.exit.i: ; preds = %if.end.i.i.i, %for.cond.i
  %retval.0.i.i.i = phi i32 [ %5, %if.end.i.i.i ], [ 0, %for.cond.i ]
  %6 = zext i32 %retval.0.i.i.i to i64
  %cmp.i42 = icmp ult i64 %indvars.iv.i, %6
  br i1 %cmp.i42, label %for.body.i, label %cleanup.cont

for.body.i:                                       ; preds = %_ZNK15ref_vector_coreI4expr19ref_manager_wrapperIS0_11ast_managerEE4sizeEv.exit.i
  %arrayidx.i.i5.i = getelementptr inbounds ptr, ptr %4, i64 %indvars.iv.i
  %7 = load ptr, ptr %arrayidx.i.i5.i, align 8
  %tobool.not.i.i.i.i.i = icmp eq ptr %7, null
  br i1 %tobool.not.i.i.i.i.i, label %_ZN15ref_vector_coreI4expr19ref_manager_wrapperIS0_11ast_managerEE7inc_refEPS0_.exit.i.i, label %if.then.i.i.i.i.i

if.then.i.i.i.i.i:                                ; preds = %for.body.i
  %m_ref_count.i.i.i.i.i.i = getelementptr inbounds %class.ast, ptr %7, i64 0, i32 2
  %8 = load i32, ptr %m_ref_count.i.i.i.i.i.i, align 4
  %inc.i.i.i.i.i.i = add i32 %8, 1
  store i32 %inc.i.i.i.i.i.i, ptr %m_ref_count.i.i.i.i.i.i, align 4
  br label %_ZN15ref_vector_coreI4expr19ref_manager_wrapperIS0_11ast_managerEE7inc_refEPS0_.exit.i.i

_ZN15ref_vector_coreI4expr19ref_manager_wrapperIS0_11ast_managerEE7inc_refEPS0_.exit.i.i: ; preds = %if.then.i.i.i.i.i, %for.body.i
  %9 = load ptr, ptr %m_nodes.i6.i, align 8
  %cmp.i.i7.i = icmp eq ptr %9, null
  br i1 %cmp.i.i7.i, label %if.then.i.i.i, label %lor.lhs.false.i.i.i

lor.lhs.false.i.i.i:                              ; preds = %_ZN15ref_vector_coreI4expr19ref_manager_wrapperIS0_11ast_managerEE7inc_refEPS0_.exit.i.i
  %arrayidx.i.i8.i = getelementptr inbounds i32, ptr %9, i64 -1
  %10 = load i32, ptr %arrayidx.i.i8.i, align 4
  %arrayidx4.i.i.i = getelementptr inbounds i32, ptr %9, i64 -2
  %11 = load i32, ptr %arrayidx4.i.i.i, align 4
  %cmp5.i.i.i = icmp eq i32 %10, %11
  br i1 %cmp5.i.i.i, label %if.then.i.i.i, label %_ZN15ref_vector_coreI4expr19ref_manager_wrapperIS0_11ast_managerEE9push_backEPS0_.exit.i

if.then.i.i.i:                                    ; preds = %lor.lhs.false.i.i.i, %_ZN15ref_vector_coreI4expr19ref_manager_wrapperIS0_11ast_managerEE7inc_refEPS0_.exit.i.i
  tail call void @_ZN6vectorIP4exprLb0EjE13expand_vectorEv(ptr noundef nonnull align 8 dereferenceable(8) %m_nodes.i6.i)
  %.pre.i.i.i = load ptr, ptr %m_nodes.i6.i, align 8
  %arrayidx8.phi.trans.insert.i.i.i = getelementptr inbounds i32, ptr %.pre.i.i.i, i64 -1
  %.pre1.i.i.i = load i32, ptr %arrayidx8.phi.trans.insert.i.i.i, align 4
  br label %_ZN15ref_vector_coreI4expr19ref_manager_wrapperIS0_11ast_managerEE9push_backEPS0_.exit.i

_ZN15ref_vector_coreI4expr19ref_manager_wrapperIS0_11ast_managerEE9push_backEPS0_.exit.i: ; preds = %if.then.i.i.i, %lor.lhs.false.i.i.i
  %12 = phi i32 [ %.pre1.i.i.i, %if.then.i.i.i ], [ %10, %lor.lhs.false.i.i.i ]
  %13 = phi ptr [ %.pre.i.i.i, %if.then.i.i.i ], [ %9, %lor.lhs.false.i.i.i ]
  %idx.ext.i.i.i = zext i32 %12 to i64
  %add.ptr.i.i.i = getelementptr inbounds ptr, ptr %13, i64 %idx.ext.i.i.i
  store ptr %7, ptr %add.ptr.i.i.i, align 8
  %14 = load ptr, ptr %m_nodes.i6.i, align 8
  %arrayidx10.i.i.i = getelementptr inbounds i32, ptr %14, i64 -1
  %15 = load i32, ptr %arrayidx10.i.i.i, align 4
  %inc.i.i.i = add i32 %15, 1
  store i32 %inc.i.i.i, ptr %arrayidx10.i.i.i, align 4
  %indvars.iv.next.i = add nuw nsw i64 %indvars.iv.i, 1
  br label %for.cond.i, !llvm.loop !24

if.end6:                                          ; preds = %if.end
  %cmp7 = icmp eq i32 %level.0, 0
  br i1 %cmp7, label %cleanup.cont, label %if.end9

if.end9:                                          ; preds = %if.end6
  store ptr null, ptr %ref.tmp, align 8
  invoke void @_ZN15model_evaluatorC1ER10model_coreRK10params_ref(ptr noundef nonnull align 8 dereferenceable(8) %eval, ptr noundef nonnull align 8 dereferenceable(96) %mdl, ptr noundef nonnull align 8 dereferenceable(8) %ref.tmp)
          to label %invoke.cont unwind label %lpad

invoke.cont:                                      ; preds = %if.end9
  call void @_ZN10params_refD1Ev(ptr noundef nonnull align 8 dereferenceable(8) %ref.tmp) #19
  invoke void @_ZN15model_evaluator20set_model_completionEb(ptr noundef nonnull align 8 dereferenceable(8) %eval, i1 noundef zeroext true)
          to label %invoke.cont11 unwind label %lpad10

invoke.cont11:                                    ; preds = %invoke.cont
  %16 = load ptr, ptr %this, align 8
  store ptr null, ptr %val, align 8
  %m_manager.i = getelementptr inbounds %class.obj_ref, ptr %val, i64 0, i32 1
  store ptr %16, ptr %m_manager.i, align 8
  %m_nodes.i59 = getelementptr inbounds %"class.qe::pred_abs", ptr %this, i64 0, i32 2, i32 0, i32 1
  br label %for.cond14.preheader

for.cond14.preheader:                             ; preds = %invoke.cont11, %for.inc53
  %indvars.iv221 = phi i64 [ 0, %invoke.cont11 ], [ %indvars.iv.next222, %for.inc53 ]
  br label %for.cond14

for.cond14:                                       ; preds = %for.cond14.preheader, %for.inc
  %indvars.iv = phi i64 [ 0, %for.cond14.preheader ], [ %indvars.iv.next, %for.inc ]
  %17 = load ptr, ptr %m_preds195, align 8
  %m_nodes.i = getelementptr inbounds %class.ref_vector.50, ptr %17, i64 %indvars.iv221, i32 0, i32 1
  %18 = load ptr, ptr %m_nodes.i, align 8
  %cmp.i.i = icmp eq ptr %18, null
  br i1 %cmp.i.i, label %_ZNK15ref_vector_coreI3app19ref_manager_wrapperIS0_11ast_managerEE4sizeEv.exit, label %if.end.i.i

if.end.i.i:                                       ; preds = %for.cond14
  %arrayidx.i.i = getelementptr inbounds i32, ptr %18, i64 -1
  %19 = load i32, ptr %arrayidx.i.i, align 4
  br label %_ZNK15ref_vector_coreI3app19ref_manager_wrapperIS0_11ast_managerEE4sizeEv.exit

_ZNK15ref_vector_coreI3app19ref_manager_wrapperIS0_11ast_managerEE4sizeEv.exit: ; preds = %for.cond14, %if.end.i.i
  %retval.0.i.i = phi i32 [ %19, %if.end.i.i ], [ 0, %for.cond14 ]
  %20 = zext i32 %retval.0.i.i to i64
  %cmp21 = icmp ult i64 %indvars.iv, %20
  br i1 %cmp21, label %invoke.cont27, label %for.inc53

invoke.cont27:                                    ; preds = %_ZNK15ref_vector_coreI3app19ref_manager_wrapperIS0_11ast_managerEE4sizeEv.exit
  %arrayidx.i.i47 = getelementptr inbounds ptr, ptr %18, i64 %indvars.iv
  %21 = load ptr, ptr %arrayidx.i.i47, align 8
  invoke void @_ZN15model_evaluatorclEP4exprR7obj_refIS0_11ast_managerE(ptr noundef nonnull align 8 dereferenceable(8) %eval, ptr noundef %21, ptr noundef nonnull align 8 dereferenceable(16) %val)
          to label %invoke.cont31 unwind label %lpad16.loopexit.split-lp.loopexit.split-lp

invoke.cont31:                                    ; preds = %invoke.cont27
  %22 = load ptr, ptr %this, align 8
  %call2.i48 = invoke noundef zeroext i1 @_ZN8reslimit3incEv(ptr noundef nonnull align 8 dereferenceable(40) %22)
          to label %invoke.cont33 unwind label %lpad16.loopexit.split-lp.loopexit.split-lp

invoke.cont33:                                    ; preds = %invoke.cont31
  br i1 %call2.i48, label %if.end36, label %cleanup

lpad:                                             ; preds = %if.end9
  %23 = landingpad { ptr, i32 }
          cleanup
  call void @_ZN10params_refD1Ev(ptr noundef nonnull align 8 dereferenceable(8) %ref.tmp) #19
  br label %eh.resume

lpad10:                                           ; preds = %invoke.cont
  %24 = landingpad { ptr, i32 }
          cleanup
  br label %ehcleanup

lpad16.loopexit:                                  ; preds = %if.then103, %for.body73, %if.then110, %if.then.i.i154, %if.then.i.i175
  %lpad.loopexit = landingpad { ptr, i32 }
          cleanup
  br label %lpad16

lpad16.loopexit.split-lp.loopexit:                ; preds = %if.then.i.i.i103
  %lpad.loopexit210 = landingpad { ptr, i32 }
          cleanup
  br label %lpad16

lpad16.loopexit.split-lp.loopexit.split-lp:       ; preds = %if.then.i.i69, %if.then.i.i, %if.then42, %invoke.cont31, %invoke.cont27
  %lpad.loopexit.split-lp211 = landingpad { ptr, i32 }
          cleanup
  br label %lpad16

lpad16:                                           ; preds = %lpad16.loopexit.split-lp.loopexit, %lpad16.loopexit.split-lp.loopexit.split-lp, %lpad16.loopexit
  %lpad.phi = phi { ptr, i32 } [ %lpad.loopexit, %lpad16.loopexit ], [ %lpad.loopexit210, %lpad16.loopexit.split-lp.loopexit ], [ %lpad.loopexit.split-lp211, %lpad16.loopexit.split-lp.loopexit.split-lp ]
  call void @_ZN7obj_refI4expr11ast_managerED2Ev(ptr noundef nonnull align 8 dereferenceable(16) %val) #19
  br label %ehcleanup

if.end36:                                         ; preds = %invoke.cont33
  %25 = load ptr, ptr %this, align 8
  %26 = load ptr, ptr %val, align 8
  %m_false.i = getelementptr inbounds %class.ast_manager, ptr %25, i64 0, i32 16
  %27 = load ptr, ptr %m_false.i, align 8
  %cmp.i49 = icmp eq ptr %27, %26
  br i1 %cmp.i49, label %if.then42, label %if.else

if.then42:                                        ; preds = %if.end36
  %call.i50 = invoke noundef ptr @_ZN11ast_manager6mk_appEiiP4expr(ptr noundef nonnull align 8 dereferenceable(976) %25, i32 noundef 0, i32 noundef 8, ptr noundef %21)
          to label %invoke.cont45 unwind label %lpad16.loopexit.split-lp.loopexit.split-lp

invoke.cont45:                                    ; preds = %if.then42
  %tobool.not.i.i.i.i = icmp eq ptr %call.i50, null
  br i1 %tobool.not.i.i.i.i, label %_ZN15ref_vector_coreI4expr19ref_manager_wrapperIS0_11ast_managerEE7inc_refEPS0_.exit.i, label %if.then.i.i.i.i

if.then.i.i.i.i:                                  ; preds = %invoke.cont45
  %m_ref_count.i.i.i.i.i = getelementptr inbounds %class.ast, ptr %call.i50, i64 0, i32 2
  %28 = load i32, ptr %m_ref_count.i.i.i.i.i, align 4
  %inc.i.i.i.i.i = add i32 %28, 1
  store i32 %inc.i.i.i.i.i, ptr %m_ref_count.i.i.i.i.i, align 4
  br label %_ZN15ref_vector_coreI4expr19ref_manager_wrapperIS0_11ast_managerEE7inc_refEPS0_.exit.i

_ZN15ref_vector_coreI4expr19ref_manager_wrapperIS0_11ast_managerEE7inc_refEPS0_.exit.i: ; preds = %if.then.i.i.i.i, %invoke.cont45
  %29 = load ptr, ptr %m_nodes.i59, align 8
  %cmp.i.i52 = icmp eq ptr %29, null
  br i1 %cmp.i.i52, label %if.then.i.i, label %lor.lhs.false.i.i

lor.lhs.false.i.i:                                ; preds = %_ZN15ref_vector_coreI4expr19ref_manager_wrapperIS0_11ast_managerEE7inc_refEPS0_.exit.i
  %arrayidx.i.i53 = getelementptr inbounds i32, ptr %29, i64 -1
  %30 = load i32, ptr %arrayidx.i.i53, align 4
  %arrayidx4.i.i = getelementptr inbounds i32, ptr %29, i64 -2
  %31 = load i32, ptr %arrayidx4.i.i, align 4
  %cmp5.i.i = icmp eq i32 %30, %31
  br i1 %cmp5.i.i, label %if.then.i.i, label %for.inc

if.then.i.i:                                      ; preds = %lor.lhs.false.i.i, %_ZN15ref_vector_coreI4expr19ref_manager_wrapperIS0_11ast_managerEE7inc_refEPS0_.exit.i
  invoke void @_ZN6vectorIP4exprLb0EjE13expand_vectorEv(ptr noundef nonnull align 8 dereferenceable(8) %m_nodes.i59)
          to label %for.inc.sink.split unwind label %lpad16.loopexit.split-lp.loopexit.split-lp

if.else:                                          ; preds = %if.end36
  %tobool.not.i.i.i.i54 = icmp eq ptr %21, null
  br i1 %tobool.not.i.i.i.i54, label %_ZN15ref_vector_coreI4expr19ref_manager_wrapperIS0_11ast_managerEE7inc_refEPS0_.exit.i58, label %if.then.i.i.i.i55

if.then.i.i.i.i55:                                ; preds = %if.else
  %m_ref_count.i.i.i.i.i56 = getelementptr inbounds %class.ast, ptr %21, i64 0, i32 2
  %32 = load i32, ptr %m_ref_count.i.i.i.i.i56, align 4
  %inc.i.i.i.i.i57 = add i32 %32, 1
  store i32 %inc.i.i.i.i.i57, ptr %m_ref_count.i.i.i.i.i56, align 4
  br label %_ZN15ref_vector_coreI4expr19ref_manager_wrapperIS0_11ast_managerEE7inc_refEPS0_.exit.i58

_ZN15ref_vector_coreI4expr19ref_manager_wrapperIS0_11ast_managerEE7inc_refEPS0_.exit.i58: ; preds = %if.then.i.i.i.i55, %if.else
  %33 = load ptr, ptr %m_nodes.i59, align 8
  %cmp.i.i60 = icmp eq ptr %33, null
  br i1 %cmp.i.i60, label %if.then.i.i69, label %lor.lhs.false.i.i61

lor.lhs.false.i.i61:                              ; preds = %_ZN15ref_vector_coreI4expr19ref_manager_wrapperIS0_11ast_managerEE7inc_refEPS0_.exit.i58
  %arrayidx.i.i62 = getelementptr inbounds i32, ptr %33, i64 -1
  %34 = load i32, ptr %arrayidx.i.i62, align 4
  %arrayidx4.i.i63 = getelementptr inbounds i32, ptr %33, i64 -2
  %35 = load i32, ptr %arrayidx4.i.i63, align 4
  %cmp5.i.i64 = icmp eq i32 %34, %35
  br i1 %cmp5.i.i64, label %if.then.i.i69, label %for.inc

if.then.i.i69:                                    ; preds = %lor.lhs.false.i.i61, %_ZN15ref_vector_coreI4expr19ref_manager_wrapperIS0_11ast_managerEE7inc_refEPS0_.exit.i58
  invoke void @_ZN6vectorIP4exprLb0EjE13expand_vectorEv(ptr noundef nonnull align 8 dereferenceable(8) %m_nodes.i59)
          to label %for.inc.sink.split unwind label %lpad16.loopexit.split-lp.loopexit.split-lp

for.inc.sink.split:                               ; preds = %if.then.i.i69, %if.then.i.i
  %.sink.ph = phi ptr [ %call.i50, %if.then.i.i ], [ %21, %if.then.i.i69 ]
  %.pre.i.i = load ptr, ptr %m_nodes.i59, align 8
  %arrayidx8.phi.trans.insert.i.i71 = getelementptr inbounds i32, ptr %.pre.i.i, i64 -1
  %.pre1.i.i72 = load i32, ptr %arrayidx8.phi.trans.insert.i.i71, align 4
  br label %for.inc

for.inc:                                          ; preds = %for.inc.sink.split, %lor.lhs.false.i.i61, %lor.lhs.false.i.i
  %.sink237 = phi i32 [ %30, %lor.lhs.false.i.i ], [ %34, %lor.lhs.false.i.i61 ], [ %.pre1.i.i72, %for.inc.sink.split ]
  %.sink236 = phi ptr [ %29, %lor.lhs.false.i.i ], [ %33, %lor.lhs.false.i.i61 ], [ %.pre.i.i, %for.inc.sink.split ]
  %.sink = phi ptr [ %call.i50, %lor.lhs.false.i.i ], [ %21, %lor.lhs.false.i.i61 ], [ %.sink.ph, %for.inc.sink.split ]
  %idx.ext.i.i65 = zext i32 %.sink237 to i64
  %add.ptr.i.i66 = getelementptr inbounds ptr, ptr %.sink236, i64 %idx.ext.i.i65
  store ptr %.sink, ptr %add.ptr.i.i66, align 8
  %36 = load ptr, ptr %m_nodes.i59, align 8
  %arrayidx10.i.i67 = getelementptr inbounds i32, ptr %36, i64 -1
  %37 = load i32, ptr %arrayidx10.i.i67, align 4
  %inc.i.i68 = add i32 %37, 1
  store i32 %inc.i.i68, ptr %arrayidx10.i.i67, align 4
  %indvars.iv.next = add nuw nsw i64 %indvars.iv, 1
  br label %for.cond14, !llvm.loop !25

for.inc53:                                        ; preds = %_ZNK15ref_vector_coreI3app19ref_manager_wrapperIS0_11ast_managerEE4sizeEv.exit
  %indvars.iv.next222 = add nuw nsw i64 %indvars.iv221, 1
  %lftr.wideiv = trunc i64 %indvars.iv.next222 to i32
  %exitcond.not = icmp eq i32 %level.0, %lftr.wideiv
  br i1 %exitcond.not, label %for.end55, label %for.cond14.preheader, !llvm.loop !26

for.end55:                                        ; preds = %for.inc53
  %m_nodes.i6.i76 = getelementptr inbounds %class.ref_vector_core, ptr %asms, i64 0, i32 1
  br label %for.cond.i77

for.cond.i77:                                     ; preds = %_ZN15ref_vector_coreI4expr19ref_manager_wrapperIS0_11ast_managerEE9push_backEPS0_.exit.i97, %for.end55
  %indvars.iv.i78 = phi i64 [ %indvars.iv.next.i102, %_ZN15ref_vector_coreI4expr19ref_manager_wrapperIS0_11ast_managerEE9push_backEPS0_.exit.i97 ], [ 0, %for.end55 ]
  %38 = load ptr, ptr %m_nodes.i59, align 8
  %cmp.i.i.i79 = icmp eq ptr %38, null
  br i1 %cmp.i.i.i79, label %_ZNK15ref_vector_coreI4expr19ref_manager_wrapperIS0_11ast_managerEE4sizeEv.exit.i82, label %if.end.i.i.i80

if.end.i.i.i80:                                   ; preds = %for.cond.i77
  %arrayidx.i.i.i81 = getelementptr inbounds i32, ptr %38, i64 -1
  %39 = load i32, ptr %arrayidx.i.i.i81, align 4
  br label %_ZNK15ref_vector_coreI4expr19ref_manager_wrapperIS0_11ast_managerEE4sizeEv.exit.i82

_ZNK15ref_vector_coreI4expr19ref_manager_wrapperIS0_11ast_managerEE4sizeEv.exit.i82: ; preds = %if.end.i.i.i80, %for.cond.i77
  %retval.0.i.i.i83 = phi i32 [ %39, %if.end.i.i.i80 ], [ 0, %for.cond.i77 ]
  %40 = zext i32 %retval.0.i.i.i83 to i64
  %cmp.i84 = icmp ult i64 %indvars.iv.i78, %40
  br i1 %cmp.i84, label %for.body.i85, label %invoke.cont57

for.body.i85:                                     ; preds = %_ZNK15ref_vector_coreI4expr19ref_manager_wrapperIS0_11ast_managerEE4sizeEv.exit.i82
  %arrayidx.i.i5.i86 = getelementptr inbounds ptr, ptr %38, i64 %indvars.iv.i78
  %41 = load ptr, ptr %arrayidx.i.i5.i86, align 8
  %tobool.not.i.i.i.i.i87 = icmp eq ptr %41, null
  br i1 %tobool.not.i.i.i.i.i87, label %_ZN15ref_vector_coreI4expr19ref_manager_wrapperIS0_11ast_managerEE7inc_refEPS0_.exit.i.i91, label %if.then.i.i.i.i.i88

if.then.i.i.i.i.i88:                              ; preds = %for.body.i85
  %m_ref_count.i.i.i.i.i.i89 = getelementptr inbounds %class.ast, ptr %41, i64 0, i32 2
  %42 = load i32, ptr %m_ref_count.i.i.i.i.i.i89, align 4
  %inc.i.i.i.i.i.i90 = add i32 %42, 1
  store i32 %inc.i.i.i.i.i.i90, ptr %m_ref_count.i.i.i.i.i.i89, align 4
  br label %_ZN15ref_vector_coreI4expr19ref_manager_wrapperIS0_11ast_managerEE7inc_refEPS0_.exit.i.i91

_ZN15ref_vector_coreI4expr19ref_manager_wrapperIS0_11ast_managerEE7inc_refEPS0_.exit.i.i91: ; preds = %if.then.i.i.i.i.i88, %for.body.i85
  %43 = load ptr, ptr %m_nodes.i6.i76, align 8
  %cmp.i.i7.i92 = icmp eq ptr %43, null
  br i1 %cmp.i.i7.i92, label %if.then.i.i.i103, label %lor.lhs.false.i.i.i93

lor.lhs.false.i.i.i93:                            ; preds = %_ZN15ref_vector_coreI4expr19ref_manager_wrapperIS0_11ast_managerEE7inc_refEPS0_.exit.i.i91
  %arrayidx.i.i8.i94 = getelementptr inbounds i32, ptr %43, i64 -1
  %44 = load i32, ptr %arrayidx.i.i8.i94, align 4
  %arrayidx4.i.i.i95 = getelementptr inbounds i32, ptr %43, i64 -2
  %45 = load i32, ptr %arrayidx4.i.i.i95, align 4
  %cmp5.i.i.i96 = icmp eq i32 %44, %45
  br i1 %cmp5.i.i.i96, label %if.then.i.i.i103, label %_ZN15ref_vector_coreI4expr19ref_manager_wrapperIS0_11ast_managerEE9push_backEPS0_.exit.i97

if.then.i.i.i103:                                 ; preds = %lor.lhs.false.i.i.i93, %_ZN15ref_vector_coreI4expr19ref_manager_wrapperIS0_11ast_managerEE7inc_refEPS0_.exit.i.i91
  invoke void @_ZN6vectorIP4exprLb0EjE13expand_vectorEv(ptr noundef nonnull align 8 dereferenceable(8) %m_nodes.i6.i76)
          to label %.noexc107 unwind label %lpad16.loopexit.split-lp.loopexit

.noexc107:                                        ; preds = %if.then.i.i.i103
  %.pre.i.i.i104 = load ptr, ptr %m_nodes.i6.i76, align 8
  %arrayidx8.phi.trans.insert.i.i.i105 = getelementptr inbounds i32, ptr %.pre.i.i.i104, i64 -1
  %.pre1.i.i.i106 = load i32, ptr %arrayidx8.phi.trans.insert.i.i.i105, align 4
  br label %_ZN15ref_vector_coreI4expr19ref_manager_wrapperIS0_11ast_managerEE9push_backEPS0_.exit.i97

_ZN15ref_vector_coreI4expr19ref_manager_wrapperIS0_11ast_managerEE9push_backEPS0_.exit.i97: ; preds = %.noexc107, %lor.lhs.false.i.i.i93
  %46 = phi i32 [ %.pre1.i.i.i106, %.noexc107 ], [ %44, %lor.lhs.false.i.i.i93 ]
  %47 = phi ptr [ %.pre.i.i.i104, %.noexc107 ], [ %43, %lor.lhs.false.i.i.i93 ]
  %idx.ext.i.i.i98 = zext i32 %46 to i64
  %add.ptr.i.i.i99 = getelementptr inbounds ptr, ptr %47, i64 %idx.ext.i.i.i98
  store ptr %41, ptr %add.ptr.i.i.i99, align 8
  %48 = load ptr, ptr %m_nodes.i6.i76, align 8
  %arrayidx10.i.i.i100 = getelementptr inbounds i32, ptr %48, i64 -1
  %49 = load i32, ptr %arrayidx10.i.i.i100, align 4
  %inc.i.i.i101 = add i32 %49, 1
  store i32 %inc.i.i.i101, ptr %arrayidx10.i.i.i100, align 4
  %indvars.iv.next.i102 = add nuw nsw i64 %indvars.iv.i78, 1
  br label %for.cond.i77, !llvm.loop !24

invoke.cont57:                                    ; preds = %_ZNK15ref_vector_coreI4expr19ref_manager_wrapperIS0_11ast_managerEE4sizeEv.exit.i82
  %add = add i32 %level.0, 1
  %m_elevel = getelementptr inbounds %"class.qe::pred_abs", ptr %this, i64 0, i32 11
  %m_capacity.i.i.i = getelementptr inbounds %"class.qe::pred_abs", ptr %this, i64 0, i32 11, i32 0, i32 1
  %.pre = load ptr, ptr %m_preds195, align 8
  br label %for.cond59

for.cond59:                                       ; preds = %for.inc124, %invoke.cont57
  %50 = phi ptr [ %.pre, %invoke.cont57 ], [ %52, %for.inc124 ]
  %i58.0 = phi i32 [ %add, %invoke.cont57 ], [ %add125, %for.inc124 ]
  %cmp.i109 = icmp eq ptr %50, null
  br i1 %cmp.i109, label %_ZNK6vectorI10ref_vectorI3app11ast_managerELb1EjE4sizeEv.exit113, label %if.end.i110

if.end.i110:                                      ; preds = %for.cond59
  %arrayidx.i111 = getelementptr inbounds i32, ptr %50, i64 -1
  %51 = load i32, ptr %arrayidx.i111, align 4
  br label %_ZNK6vectorI10ref_vectorI3app11ast_managerELb1EjE4sizeEv.exit113

_ZNK6vectorI10ref_vectorI3app11ast_managerELb1EjE4sizeEv.exit113: ; preds = %for.cond59, %if.end.i110
  %retval.0.i112 = phi i32 [ %51, %if.end.i110 ], [ 0, %for.cond59 ]
  %cmp63 = icmp ult i32 %i58.0, %retval.0.i112
  br i1 %cmp63, label %for.cond66.preheader, label %cleanup

for.cond66.preheader:                             ; preds = %_ZNK6vectorI10ref_vectorI3app11ast_managerELb1EjE4sizeEv.exit113
  %idxprom.i114 = zext i32 %i58.0 to i64
  br label %for.cond66

for.cond66:                                       ; preds = %for.cond66.preheader, %for.inc121
  %52 = phi ptr [ %50, %for.cond66.preheader ], [ %.pre227, %for.inc121 ]
  %indvars.iv224 = phi i64 [ 0, %for.cond66.preheader ], [ %indvars.iv.next225, %for.inc121 ]
  %m_nodes.i116 = getelementptr inbounds %class.ref_vector.50, ptr %52, i64 %idxprom.i114, i32 0, i32 1
  %53 = load ptr, ptr %m_nodes.i116, align 8
  %cmp.i.i117 = icmp eq ptr %53, null
  br i1 %cmp.i.i117, label %_ZNK15ref_vector_coreI3app19ref_manager_wrapperIS0_11ast_managerEE4sizeEv.exit121, label %if.end.i.i118

if.end.i.i118:                                    ; preds = %for.cond66
  %arrayidx.i.i119 = getelementptr inbounds i32, ptr %53, i64 -1
  %54 = load i32, ptr %arrayidx.i.i119, align 4
  br label %_ZNK15ref_vector_coreI3app19ref_manager_wrapperIS0_11ast_managerEE4sizeEv.exit121

_ZNK15ref_vector_coreI3app19ref_manager_wrapperIS0_11ast_managerEE4sizeEv.exit121: ; preds = %for.cond66, %if.end.i.i118
  %retval.0.i.i120 = phi i32 [ %54, %if.end.i.i118 ], [ 0, %for.cond66 ]
  %55 = zext i32 %retval.0.i.i120 to i64
  %cmp72 = icmp ult i64 %indvars.iv224, %55
  br i1 %cmp72, label %for.body73, label %for.inc124

for.body73:                                       ; preds = %_ZNK15ref_vector_coreI3app19ref_manager_wrapperIS0_11ast_managerEE4sizeEv.exit121
  %56 = load ptr, ptr %this, align 8
  %call2.i122 = invoke noundef zeroext i1 @_ZN8reslimit3incEv(ptr noundef nonnull align 8 dereferenceable(40) %56)
          to label %invoke.cont75 unwind label %lpad16.loopexit

invoke.cont75:                                    ; preds = %for.body73
  br i1 %call2.i122, label %invoke.cont84, label %cleanup

invoke.cont84:                                    ; preds = %invoke.cont75
  %57 = load ptr, ptr %m_preds195, align 8
  %m_nodes.i126 = getelementptr inbounds %class.ref_vector.50, ptr %57, i64 %idxprom.i114, i32 0, i32 1
  %58 = load ptr, ptr %m_nodes.i126, align 8
  %arrayidx.i.i128 = getelementptr inbounds ptr, ptr %58, i64 %indvars.iv224
  %59 = load ptr, ptr %arrayidx.i.i128, align 8
  %m_hash.i.i.i.i.i.i.i = getelementptr inbounds %class.ast, ptr %59, i64 0, i32 3
  %60 = load i32, ptr %m_hash.i.i.i.i.i.i.i, align 4
  %61 = load i32, ptr %m_capacity.i.i.i, align 8
  %sub.i.i.i = add i32 %61, -1
  %and.i.i.i = and i32 %sub.i.i.i, %60
  %62 = load ptr, ptr %m_elevel, align 8
  %idx.ext.i.i.i131 = zext i32 %and.i.i.i to i64
  %add.ptr.i.i.i132 = getelementptr inbounds %"class.obj_map<expr, qe::max_level>::obj_map_entry", ptr %62, i64 %idx.ext.i.i.i131
  %idx.ext4.i.i.i = zext i32 %61 to i64
  %add.ptr5.i.i.i = getelementptr inbounds %"class.obj_map<expr, qe::max_level>::obj_map_entry", ptr %62, i64 %idx.ext4.i.i.i
  %cmp.not30.i.i.i = icmp eq i32 %and.i.i.i, %61
  br i1 %cmp.not30.i.i.i, label %for.cond18.preheader.i.i.i, label %for.body.i.i.i

for.cond18.preheader.i.i.i:                       ; preds = %for.inc.i.i.i, %invoke.cont84
  %cmp19.not32.i.i.i = icmp ne i32 %and.i.i.i, 0
  br label %for.body20.i.i.i

for.body.i.i.i:                                   ; preds = %invoke.cont84, %for.inc.i.i.i
  %curr.031.i.i.i = phi ptr [ %incdec.ptr.i.i.i, %for.inc.i.i.i ], [ %add.ptr.i.i.i132, %invoke.cont84 ]
  %63 = load ptr, ptr %curr.031.i.i.i, align 8
  %cond = icmp eq ptr %63, inttoptr (i64 1 to ptr)
  br i1 %cond, label %for.inc.i.i.i, label %if.then.i.i.i134

if.then.i.i.i134:                                 ; preds = %for.body.i.i.i
  %m_hash.i.i.i.i.i.i = getelementptr inbounds %class.ast, ptr %63, i64 0, i32 3
  %64 = load i32, ptr %m_hash.i.i.i.i.i.i, align 4
  %cmp8.i.i.i = icmp eq i32 %64, %60
  %cmp.i.i.i.i.i.i = icmp eq ptr %63, %59
  %or.cond.i.i.i = and i1 %cmp.i.i.i.i.i.i, %cmp8.i.i.i
  br i1 %or.cond.i.i.i, label %invoke.cont88, label %for.inc.i.i.i

for.inc.i.i.i:                                    ; preds = %for.body.i.i.i, %if.then.i.i.i134
  %incdec.ptr.i.i.i = getelementptr inbounds %"class.obj_map<expr, qe::max_level>::obj_map_entry", ptr %curr.031.i.i.i, i64 1
  %cmp.not.i.i.i = icmp eq ptr %incdec.ptr.i.i.i, %add.ptr5.i.i.i
  br i1 %cmp.not.i.i.i, label %for.cond18.preheader.i.i.i, label %for.body.i.i.i, !llvm.loop !14

for.body20.i.i.i:                                 ; preds = %for.inc36.i.i.i, %for.cond18.preheader.i.i.i
  %cmp19.not.i.i.i.sink = phi i1 [ %cmp19.not.i.i.i, %for.inc36.i.i.i ], [ %cmp19.not32.i.i.i, %for.cond18.preheader.i.i.i ]
  %curr.133.i.i.i = phi ptr [ %incdec.ptr37.i.i.i, %for.inc36.i.i.i ], [ %62, %for.cond18.preheader.i.i.i ]
  call void @llvm.assume(i1 %cmp19.not.i.i.i.sink)
  %65 = load ptr, ptr %curr.133.i.i.i, align 8
  %cond207 = icmp eq ptr %65, inttoptr (i64 1 to ptr)
  br i1 %cond207, label %for.inc36.i.i.i, label %if.then22.i.i.i

if.then22.i.i.i:                                  ; preds = %for.body20.i.i.i
  %m_hash.i.i.i22.i.i.i = getelementptr inbounds %class.ast, ptr %65, i64 0, i32 3
  %66 = load i32, ptr %m_hash.i.i.i22.i.i.i, align 4
  %cmp24.i.i.i = icmp eq i32 %66, %60
  %cmp.i.i.i23.i.i.i = icmp eq ptr %65, %59
  %or.cond26.i.i.i = and i1 %cmp.i.i.i23.i.i.i, %cmp24.i.i.i
  br i1 %or.cond26.i.i.i, label %invoke.cont88, label %for.inc36.i.i.i

for.inc36.i.i.i:                                  ; preds = %for.body20.i.i.i, %if.then22.i.i.i
  %incdec.ptr37.i.i.i = getelementptr inbounds %"class.obj_map<expr, qe::max_level>::obj_map_entry", ptr %curr.133.i.i.i, i64 1
  %cmp19.not.i.i.i = icmp ne ptr %incdec.ptr37.i.i.i, %add.ptr.i.i.i132
  br label %for.body20.i.i.i

invoke.cont88:                                    ; preds = %if.then.i.i.i134, %if.then22.i.i.i
  %retval.0.i.i.i133 = phi ptr [ %curr.133.i.i.i, %if.then22.i.i.i ], [ %curr.031.i.i.i, %if.then.i.i.i134 ]
  %m_value.i = getelementptr inbounds %"struct.obj_map<expr, qe::max_level>::key_data", ptr %retval.0.i.i.i133, i64 0, i32 1
  %lvl.sroa.0.0.copyload = load i32, ptr %m_value.i, align 4
  %lvl.sroa.4.0.call89.sroa_idx = getelementptr inbounds %"struct.obj_map<expr, qe::max_level>::key_data", ptr %retval.0.i.i.i133, i64 0, i32 1, i32 1
  %lvl.sroa.4.0.copyload = load i32, ptr %lvl.sroa.4.0.call89.sroa_idx, align 4
  %cmp90 = icmp eq i32 %lvl.sroa.4.0.copyload, %i58.0
  br i1 %cmp90, label %land.lhs.true, label %lor.rhs

land.lhs.true:                                    ; preds = %invoke.cont88
  %cmp91 = icmp eq i32 %lvl.sroa.0.0.copyload, -1
  %cmp93 = icmp ult i32 %lvl.sroa.0.0.copyload, %level.0
  %or.cond = or i1 %cmp91, %cmp93
  br i1 %or.cond, label %if.then103, label %lor.rhs

lor.rhs:                                          ; preds = %land.lhs.true, %invoke.cont88
  %cmp95 = icmp eq i32 %lvl.sroa.0.0.copyload, %i58.0
  br i1 %cmp95, label %land.rhs, label %for.inc121

land.rhs:                                         ; preds = %lor.rhs
  %cmp97 = icmp eq i32 %lvl.sroa.4.0.copyload, -1
  %cmp100 = icmp ult i32 %lvl.sroa.4.0.copyload, %level.0
  %67 = or i1 %cmp97, %cmp100
  br i1 %67, label %if.then103, label %for.inc121

if.then103:                                       ; preds = %land.lhs.true, %land.rhs
  invoke void @_ZN15model_evaluatorclEP4exprR7obj_refIS0_11ast_managerE(ptr noundef nonnull align 8 dereferenceable(8) %eval, ptr noundef %59, ptr noundef nonnull align 8 dereferenceable(16) %val)
          to label %invoke.cont104 unwind label %lpad16.loopexit

invoke.cont104:                                   ; preds = %if.then103
  %68 = load ptr, ptr %this, align 8
  %69 = load ptr, ptr %val, align 8
  %m_false.i135 = getelementptr inbounds %class.ast_manager, ptr %68, i64 0, i32 16
  %70 = load ptr, ptr %m_false.i135, align 8
  %cmp.i136 = icmp eq ptr %70, %69
  br i1 %cmp.i136, label %if.then110, label %if.else116

if.then110:                                       ; preds = %invoke.cont104
  %call.i137 = invoke noundef ptr @_ZN11ast_manager6mk_appEiiP4expr(ptr noundef nonnull align 8 dereferenceable(976) %68, i32 noundef 0, i32 noundef 8, ptr noundef %59)
          to label %invoke.cont112 unwind label %lpad16.loopexit

invoke.cont112:                                   ; preds = %if.then110
  %tobool.not.i.i.i.i139 = icmp eq ptr %call.i137, null
  br i1 %tobool.not.i.i.i.i139, label %_ZN15ref_vector_coreI4expr19ref_manager_wrapperIS0_11ast_managerEE7inc_refEPS0_.exit.i143, label %if.then.i.i.i.i140

if.then.i.i.i.i140:                               ; preds = %invoke.cont112
  %m_ref_count.i.i.i.i.i141 = getelementptr inbounds %class.ast, ptr %call.i137, i64 0, i32 2
  %71 = load i32, ptr %m_ref_count.i.i.i.i.i141, align 4
  %inc.i.i.i.i.i142 = add i32 %71, 1
  store i32 %inc.i.i.i.i.i142, ptr %m_ref_count.i.i.i.i.i141, align 4
  br label %_ZN15ref_vector_coreI4expr19ref_manager_wrapperIS0_11ast_managerEE7inc_refEPS0_.exit.i143

_ZN15ref_vector_coreI4expr19ref_manager_wrapperIS0_11ast_managerEE7inc_refEPS0_.exit.i143: ; preds = %if.then.i.i.i.i140, %invoke.cont112
  %72 = load ptr, ptr %m_nodes.i6.i76, align 8
  %cmp.i.i145 = icmp eq ptr %72, null
  br i1 %cmp.i.i145, label %if.then.i.i154, label %lor.lhs.false.i.i146

lor.lhs.false.i.i146:                             ; preds = %_ZN15ref_vector_coreI4expr19ref_manager_wrapperIS0_11ast_managerEE7inc_refEPS0_.exit.i143
  %arrayidx.i.i147 = getelementptr inbounds i32, ptr %72, i64 -1
  %73 = load i32, ptr %arrayidx.i.i147, align 4
  %arrayidx4.i.i148 = getelementptr inbounds i32, ptr %72, i64 -2
  %74 = load i32, ptr %arrayidx4.i.i148, align 4
  %cmp5.i.i149 = icmp eq i32 %73, %74
  br i1 %cmp5.i.i149, label %if.then.i.i154, label %for.inc121.sink.split

if.then.i.i154:                                   ; preds = %lor.lhs.false.i.i146, %_ZN15ref_vector_coreI4expr19ref_manager_wrapperIS0_11ast_managerEE7inc_refEPS0_.exit.i143
  invoke void @_ZN6vectorIP4exprLb0EjE13expand_vectorEv(ptr noundef nonnull align 8 dereferenceable(8) %m_nodes.i6.i76)
          to label %for.inc121.sink.split.sink.split unwind label %lpad16.loopexit

if.else116:                                       ; preds = %invoke.cont104
  %tobool.not.i.i.i.i160 = icmp eq ptr %59, null
  br i1 %tobool.not.i.i.i.i160, label %_ZN15ref_vector_coreI4expr19ref_manager_wrapperIS0_11ast_managerEE7inc_refEPS0_.exit.i164, label %if.then.i.i.i.i161

if.then.i.i.i.i161:                               ; preds = %if.else116
  %m_ref_count.i.i.i.i.i162 = getelementptr inbounds %class.ast, ptr %59, i64 0, i32 2
  %75 = load i32, ptr %m_ref_count.i.i.i.i.i162, align 4
  %inc.i.i.i.i.i163 = add i32 %75, 1
  store i32 %inc.i.i.i.i.i163, ptr %m_ref_count.i.i.i.i.i162, align 4
  br label %_ZN15ref_vector_coreI4expr19ref_manager_wrapperIS0_11ast_managerEE7inc_refEPS0_.exit.i164

_ZN15ref_vector_coreI4expr19ref_manager_wrapperIS0_11ast_managerEE7inc_refEPS0_.exit.i164: ; preds = %if.then.i.i.i.i161, %if.else116
  %76 = load ptr, ptr %m_nodes.i6.i76, align 8
  %cmp.i.i166 = icmp eq ptr %76, null
  br i1 %cmp.i.i166, label %if.then.i.i175, label %lor.lhs.false.i.i167

lor.lhs.false.i.i167:                             ; preds = %_ZN15ref_vector_coreI4expr19ref_manager_wrapperIS0_11ast_managerEE7inc_refEPS0_.exit.i164
  %arrayidx.i.i168 = getelementptr inbounds i32, ptr %76, i64 -1
  %77 = load i32, ptr %arrayidx.i.i168, align 4
  %arrayidx4.i.i169 = getelementptr inbounds i32, ptr %76, i64 -2
  %78 = load i32, ptr %arrayidx4.i.i169, align 4
  %cmp5.i.i170 = icmp eq i32 %77, %78
  br i1 %cmp5.i.i170, label %if.then.i.i175, label %for.inc121.sink.split

if.then.i.i175:                                   ; preds = %lor.lhs.false.i.i167, %_ZN15ref_vector_coreI4expr19ref_manager_wrapperIS0_11ast_managerEE7inc_refEPS0_.exit.i164
  invoke void @_ZN6vectorIP4exprLb0EjE13expand_vectorEv(ptr noundef nonnull align 8 dereferenceable(8) %m_nodes.i6.i76)
          to label %for.inc121.sink.split.sink.split unwind label %lpad16.loopexit

for.inc121.sink.split.sink.split:                 ; preds = %if.then.i.i175, %if.then.i.i154
  %call.i137.sink.ph = phi ptr [ %call.i137, %if.then.i.i154 ], [ %59, %if.then.i.i175 ]
  %.pre.i.i155 = load ptr, ptr %m_nodes.i6.i76, align 8
  %arrayidx8.phi.trans.insert.i.i177 = getelementptr inbounds i32, ptr %.pre.i.i155, i64 -1
  %.pre1.i.i178 = load i32, ptr %arrayidx8.phi.trans.insert.i.i177, align 4
  br label %for.inc121.sink.split

for.inc121.sink.split:                            ; preds = %for.inc121.sink.split.sink.split, %lor.lhs.false.i.i167, %lor.lhs.false.i.i146
  %.sink240 = phi i32 [ %73, %lor.lhs.false.i.i146 ], [ %77, %lor.lhs.false.i.i167 ], [ %.pre1.i.i178, %for.inc121.sink.split.sink.split ]
  %.sink239 = phi ptr [ %72, %lor.lhs.false.i.i146 ], [ %76, %lor.lhs.false.i.i167 ], [ %.pre.i.i155, %for.inc121.sink.split.sink.split ]
  %call.i137.sink = phi ptr [ %call.i137, %lor.lhs.false.i.i146 ], [ %59, %lor.lhs.false.i.i167 ], [ %call.i137.sink.ph, %for.inc121.sink.split.sink.split ]
  %idx.ext.i.i150 = zext i32 %.sink240 to i64
  %add.ptr.i.i151 = getelementptr inbounds ptr, ptr %.sink239, i64 %idx.ext.i.i150
  store ptr %call.i137.sink, ptr %add.ptr.i.i151, align 8
  %79 = load ptr, ptr %m_nodes.i6.i76, align 8
  %arrayidx10.i.i152 = getelementptr inbounds i32, ptr %79, i64 -1
  %80 = load i32, ptr %arrayidx10.i.i152, align 4
  %inc.i.i174 = add i32 %80, 1
  store i32 %inc.i.i174, ptr %arrayidx10.i.i152, align 4
  br label %for.inc121

for.inc121:                                       ; preds = %for.inc121.sink.split, %lor.rhs, %land.rhs
  %indvars.iv.next225 = add nuw nsw i64 %indvars.iv224, 1
  %.pre227 = load ptr, ptr %m_preds195, align 8
  br label %for.cond66, !llvm.loop !27

for.inc124:                                       ; preds = %_ZNK15ref_vector_coreI3app19ref_manager_wrapperIS0_11ast_managerEE4sizeEv.exit121
  %add125 = add i32 %i58.0, 2
  br label %for.cond59, !llvm.loop !28

cleanup:                                          ; preds = %invoke.cont33, %_ZNK6vectorI10ref_vectorI3app11ast_managerELb1EjE4sizeEv.exit113, %invoke.cont75
  %81 = load ptr, ptr %val, align 8
  %tobool.not.i.i = icmp eq ptr %81, null
  br i1 %tobool.not.i.i, label %_ZN7obj_refI4expr11ast_managerED2Ev.exit, label %if.then.i.i.i181

if.then.i.i.i181:                                 ; preds = %cleanup
  %82 = load ptr, ptr %m_manager.i, align 8
  %m_ref_count.i.i.i.i = getelementptr inbounds %class.ast, ptr %81, i64 0, i32 2
  %83 = load i32, ptr %m_ref_count.i.i.i.i, align 4
  %dec.i.i.i.i = add i32 %83, -1
  store i32 %dec.i.i.i.i, ptr %m_ref_count.i.i.i.i, align 4
  %cmp.i.i.i182 = icmp eq i32 %dec.i.i.i.i, 0
  br i1 %cmp.i.i.i182, label %if.then2.i.i.i, label %_ZN7obj_refI4expr11ast_managerED2Ev.exit

if.then2.i.i.i:                                   ; preds = %if.then.i.i.i181
  invoke void @_ZN11ast_manager11delete_nodeEP3ast(ptr noundef nonnull align 8 dereferenceable(976) %82, ptr noundef nonnull %81)
          to label %_ZN7obj_refI4expr11ast_managerED2Ev.exit unwind label %terminate.lpad.i

terminate.lpad.i:                                 ; preds = %if.then2.i.i.i
  %84 = landingpad { ptr, i32 }
          catch ptr null
  %85 = extractvalue { ptr, i32 } %84, 0
  call void @__clang_call_terminate(ptr %85) #21
  unreachable

_ZN7obj_refI4expr11ast_managerED2Ev.exit:         ; preds = %cleanup, %if.then.i.i.i181, %if.then2.i.i.i
  call void @_ZN15model_evaluatorD1Ev(ptr noundef nonnull align 8 dereferenceable(8) %eval) #19
  br label %cleanup.cont

cleanup.cont:                                     ; preds = %_ZNK15ref_vector_coreI4expr19ref_manager_wrapperIS0_11ast_managerEE4sizeEv.exit.i, %if.end.thread, %if.end6, %_ZN7obj_refI4expr11ast_managerED2Ev.exit
  ret void

ehcleanup:                                        ; preds = %lpad16, %lpad10
  %.pn = phi { ptr, i32 } [ %lpad.phi, %lpad16 ], [ %24, %lpad10 ]
  call void @_ZN15model_evaluatorD1Ev(ptr noundef nonnull align 8 dereferenceable(8) %eval) #19
  br label %eh.resume

eh.resume:                                        ; preds = %ehcleanup, %lpad
  %.pn.pn = phi { ptr, i32 } [ %.pn, %ehcleanup ], [ %23, %lpad ]
  resume { ptr, i32 } %.pn.pn
}

declare void @_ZN15model_evaluatorC1ER10model_coreRK10params_ref(ptr noundef nonnull align 8 dereferenceable(8), ptr noundef nonnull align 8 dereferenceable(96), ptr noundef nonnull align 8 dereferenceable(8)) unnamed_addr #0

; Function Attrs: nounwind
declare void @_ZN10params_refD1Ev(ptr noundef nonnull align 8 dereferenceable(8)) unnamed_addr #1

declare void @_ZN15model_evaluator20set_model_completionEb(ptr noundef nonnull align 8 dereferenceable(8), i1 noundef zeroext) local_unnamed_addr #0

declare void @_ZN15model_evaluatorclEP4exprR7obj_refIS0_11ast_managerE(ptr noundef nonnull align 8 dereferenceable(8), ptr noundef, ptr noundef nonnull align 8 dereferenceable(16)) local_unnamed_addr #0

; Function Attrs: mustprogress nounwind uwtable
define linkonce_odr hidden void @_ZN7obj_refI4expr11ast_managerED2Ev(ptr noundef nonnull align 8 dereferenceable(16) %this) unnamed_addr #4 comdat align 2 personality ptr @__gxx_personality_v0 {
entry:
  %0 = load ptr, ptr %this, align 8
  %tobool.not.i = icmp eq ptr %0, null
  br i1 %tobool.not.i, label %invoke.cont, label %if.then.i.i

if.then.i.i:                                      ; preds = %entry
  %m_manager.i = getelementptr inbounds %class.obj_ref, ptr %this, i64 0, i32 1
  %1 = load ptr, ptr %m_manager.i, align 8
  %m_ref_count.i.i.i = getelementptr inbounds %class.ast, ptr %0, i64 0, i32 2
  %2 = load i32, ptr %m_ref_count.i.i.i, align 4
  %dec.i.i.i = add i32 %2, -1
  store i32 %dec.i.i.i, ptr %m_ref_count.i.i.i, align 4
  %cmp.i.i = icmp eq i32 %dec.i.i.i, 0
  br i1 %cmp.i.i, label %if.then2.i.i, label %invoke.cont

if.then2.i.i:                                     ; preds = %if.then.i.i
  invoke void @_ZN11ast_manager11delete_nodeEP3ast(ptr noundef nonnull align 8 dereferenceable(976) %1, ptr noundef nonnull %0)
          to label %invoke.cont unwind label %terminate.lpad

invoke.cont:                                      ; preds = %if.then.i.i, %entry, %if.then2.i.i
  ret void

terminate.lpad:                                   ; preds = %if.then2.i.i
  %3 = landingpad { ptr, i32 }
          catch ptr null
  %4 = extractvalue { ptr, i32 } %3, 0
  tail call void @__clang_call_terminate(ptr %4) #21
  unreachable
}

; Function Attrs: nounwind
declare void @_ZN15model_evaluatorD1Ev(ptr noundef nonnull align 8 dereferenceable(8)) unnamed_addr #1

; Function Attrs: mustprogress uwtable
define hidden void @_ZN2qe8pred_abs17ensure_expr_levelEP3appj(ptr noundef nonnull align 8 dereferenceable(216) %this, ptr noundef %v, i32 noundef %lvl) local_unnamed_addr #3 align 2 {
entry:
  %ref.tmp.i = alloca %"struct.obj_map<expr, qe::max_level>::key_data", align 8
  %m_elevel = getelementptr inbounds %"class.qe::pred_abs", ptr %this, i64 0, i32 11
  %m_hash.i.i.i.i.i.i.i = getelementptr inbounds %class.ast, ptr %v, i64 0, i32 3
  %0 = load i32, ptr %m_hash.i.i.i.i.i.i.i, align 4
  %m_capacity.i.i.i = getelementptr inbounds %"class.qe::pred_abs", ptr %this, i64 0, i32 11, i32 0, i32 1
  %1 = load i32, ptr %m_capacity.i.i.i, align 8
  %sub.i.i.i = add i32 %1, -1
  %and.i.i.i = and i32 %sub.i.i.i, %0
  %2 = load ptr, ptr %m_elevel, align 8
  %idx.ext.i.i.i = zext i32 %and.i.i.i to i64
  %add.ptr.i.i.i = getelementptr inbounds %"class.obj_map<expr, qe::max_level>::obj_map_entry", ptr %2, i64 %idx.ext.i.i.i
  %idx.ext4.i.i.i = zext i32 %1 to i64
  %add.ptr5.i.i.i = getelementptr inbounds %"class.obj_map<expr, qe::max_level>::obj_map_entry", ptr %2, i64 %idx.ext4.i.i.i
  %cmp.not30.i.i.i = icmp eq i32 %and.i.i.i, %1
  br i1 %cmp.not30.i.i.i, label %for.cond18.preheader.i.i.i, label %for.body.i.i.i

for.cond18.preheader.i.i.i:                       ; preds = %for.inc.i.i.i, %entry
  %cmp19.not32.i.i.i = icmp eq i32 %and.i.i.i, 0
  br i1 %cmp19.not32.i.i.i, label %if.then, label %for.body20.i.i.i

for.body.i.i.i:                                   ; preds = %entry, %for.inc.i.i.i
  %curr.031.i.i.i = phi ptr [ %incdec.ptr.i.i.i, %for.inc.i.i.i ], [ %add.ptr.i.i.i, %entry ]
  %3 = load ptr, ptr %curr.031.i.i.i, align 8
  %magicptr25.i.i.i = ptrtoint ptr %3 to i64
  switch i64 %magicptr25.i.i.i, label %if.then.i.i.i [
    i64 0, label %if.then
    i64 1, label %for.inc.i.i.i
  ]

if.then.i.i.i:                                    ; preds = %for.body.i.i.i
  %m_hash.i.i.i.i.i.i = getelementptr inbounds %class.ast, ptr %3, i64 0, i32 3
  %4 = load i32, ptr %m_hash.i.i.i.i.i.i, align 4
  %cmp8.i.i.i = icmp eq i32 %4, %0
  %cmp.i.i.i.i.i.i = icmp eq ptr %3, %v
  %or.cond.i.i.i = and i1 %cmp.i.i.i.i.i.i, %cmp8.i.i.i
  br i1 %or.cond.i.i.i, label %if.end4, label %for.inc.i.i.i

for.inc.i.i.i:                                    ; preds = %if.then.i.i.i, %for.body.i.i.i
  %incdec.ptr.i.i.i = getelementptr inbounds %"class.obj_map<expr, qe::max_level>::obj_map_entry", ptr %curr.031.i.i.i, i64 1
  %cmp.not.i.i.i = icmp eq ptr %incdec.ptr.i.i.i, %add.ptr5.i.i.i
  br i1 %cmp.not.i.i.i, label %for.cond18.preheader.i.i.i, label %for.body.i.i.i, !llvm.loop !14

for.body20.i.i.i:                                 ; preds = %for.cond18.preheader.i.i.i, %for.inc36.i.i.i
  %curr.133.i.i.i = phi ptr [ %incdec.ptr37.i.i.i, %for.inc36.i.i.i ], [ %2, %for.cond18.preheader.i.i.i ]
  %5 = load ptr, ptr %curr.133.i.i.i, align 8
  %magicptr27.i.i.i = ptrtoint ptr %5 to i64
  switch i64 %magicptr27.i.i.i, label %if.then22.i.i.i [
    i64 0, label %if.then
    i64 1, label %for.inc36.i.i.i
  ]

if.then22.i.i.i:                                  ; preds = %for.body20.i.i.i
  %m_hash.i.i.i22.i.i.i = getelementptr inbounds %class.ast, ptr %5, i64 0, i32 3
  %6 = load i32, ptr %m_hash.i.i.i22.i.i.i, align 4
  %cmp24.i.i.i = icmp eq i32 %6, %0
  %cmp.i.i.i23.i.i.i = icmp eq ptr %5, %v
  %or.cond26.i.i.i = and i1 %cmp.i.i.i23.i.i.i, %cmp24.i.i.i
  br i1 %or.cond26.i.i.i, label %if.end4, label %for.inc36.i.i.i

for.inc36.i.i.i:                                  ; preds = %if.then22.i.i.i, %for.body20.i.i.i
  %incdec.ptr37.i.i.i = getelementptr inbounds %"class.obj_map<expr, qe::max_level>::obj_map_entry", ptr %curr.133.i.i.i, i64 1
  %cmp19.not.i.i.i = icmp eq ptr %incdec.ptr37.i.i.i, %add.ptr.i.i.i
  br i1 %cmp19.not.i.i.i, label %if.then, label %for.body20.i.i.i, !llvm.loop !15

if.then:                                          ; preds = %for.body.i.i.i, %for.inc36.i.i.i, %for.body20.i.i.i, %for.cond18.preheader.i.i.i
  %rem = and i32 %lvl, 1
  %cmp = icmp eq i32 %rem, 0
  %spec.select = select i1 %cmp, i32 -1, i32 %lvl
  %spec.select5 = select i1 %cmp, i32 %lvl, i32 -1
  call void @llvm.lifetime.start.p0(i64 16, ptr nonnull %ref.tmp.i)
  store ptr %v, ptr %ref.tmp.i, align 8
  %m_value.i.i = getelementptr inbounds %"struct.obj_map<expr, qe::max_level>::key_data", ptr %ref.tmp.i, i64 0, i32 1
  %ml.sroa.3.0.insert.ext = zext i32 %spec.select to i64
  %ml.sroa.3.0.insert.shift = shl nuw i64 %ml.sroa.3.0.insert.ext, 32
  %ml.sroa.0.0.insert.ext = zext i32 %spec.select5 to i64
  %ml.sroa.0.0.insert.insert = or disjoint i64 %ml.sroa.3.0.insert.shift, %ml.sroa.0.0.insert.ext
  store i64 %ml.sroa.0.0.insert.insert, ptr %m_value.i.i, align 8
  call void @_ZN14core_hashtableIN7obj_mapI4exprN2qe9max_levelEE13obj_map_entryE8obj_hashINS4_8key_dataEE10default_eqIS7_EE6insertEOS7_(ptr noundef nonnull align 8 dereferenceable(20) %m_elevel, ptr noundef nonnull align 8 dereferenceable(16) %ref.tmp.i)
  call void @llvm.lifetime.end.p0(i64 16, ptr nonnull %ref.tmp.i)
  br label %if.end4

if.end4:                                          ; preds = %if.then.i.i.i, %if.then22.i.i.i, %if.then
  ret void
}

; Function Attrs: mustprogress uwtable
define hidden void @_ZN2qe8pred_abs14set_expr_levelEP3appRKNS_9max_levelE(ptr noundef nonnull align 8 dereferenceable(216) %this, ptr noundef %v, ptr nocapture noundef nonnull readonly align 4 dereferenceable(8) %lvl) local_unnamed_addr #3 align 2 {
entry:
  %ref.tmp.i = alloca %"struct.obj_map<expr, qe::max_level>::key_data", align 8
  %m_elevel = getelementptr inbounds %"class.qe::pred_abs", ptr %this, i64 0, i32 11
  call void @llvm.lifetime.start.p0(i64 16, ptr nonnull %ref.tmp.i)
  store ptr %v, ptr %ref.tmp.i, align 8
  %m_value.i.i = getelementptr inbounds %"struct.obj_map<expr, qe::max_level>::key_data", ptr %ref.tmp.i, i64 0, i32 1
  %0 = load i64, ptr %lvl, align 4
  store i64 %0, ptr %m_value.i.i, align 8
  call void @_ZN14core_hashtableIN7obj_mapI4exprN2qe9max_levelEE13obj_map_entryE8obj_hashINS4_8key_dataEE10default_eqIS7_EE6insertEOS7_(ptr noundef nonnull align 8 dereferenceable(20) %m_elevel, ptr noundef nonnull align 8 dereferenceable(16) %ref.tmp.i)
  call void @llvm.lifetime.end.p0(i64 16, ptr nonnull %ref.tmp.i)
  ret void
}

; Function Attrs: mustprogress uwtable
define hidden void @_ZN2qe8pred_abs14set_decl_levelEP9func_declRKNS_9max_levelE(ptr noundef nonnull align 8 dereferenceable(216) %this, ptr noundef %f, ptr nocapture noundef nonnull readonly align 4 dereferenceable(8) %lvl) local_unnamed_addr #3 align 2 {
entry:
  %ref.tmp.i = alloca %"struct.obj_map<func_decl, qe::max_level>::key_data", align 8
  %m_flevel = getelementptr inbounds %"class.qe::pred_abs", ptr %this, i64 0, i32 12
  call void @llvm.lifetime.start.p0(i64 16, ptr nonnull %ref.tmp.i)
  store ptr %f, ptr %ref.tmp.i, align 8
  %m_value.i.i = getelementptr inbounds %"struct.obj_map<func_decl, qe::max_level>::key_data", ptr %ref.tmp.i, i64 0, i32 1
  %0 = load i64, ptr %lvl, align 4
  store i64 %0, ptr %m_value.i.i, align 8
  call void @_ZN14core_hashtableIN7obj_mapI9func_declN2qe9max_levelEE13obj_map_entryE8obj_hashINS4_8key_dataEE10default_eqIS7_EE6insertEOS7_(ptr noundef nonnull align 8 dereferenceable(20) %m_flevel, ptr noundef nonnull align 8 dereferenceable(16) %ref.tmp.i)
  call void @llvm.lifetime.end.p0(i64 16, ptr nonnull %ref.tmp.i)
  ret void
}

; Function Attrs: mustprogress uwtable
define hidden void @_ZN2qe8pred_abs14abstract_atomsEP4exprR10ref_vectorIS1_11ast_managerE(ptr noundef nonnull align 8 dereferenceable(216) %this, ptr noundef %fml, ptr noundef nonnull align 8 dereferenceable(16) %defs) local_unnamed_addr #3 align 2 {
entry:
  %level = alloca %"struct.qe::max_level", align 4
  store i32 -1, ptr %level, align 4
  %m_fa.i = getelementptr inbounds %"struct.qe::max_level", ptr %level, i64 0, i32 1
  store i32 -1, ptr %m_fa.i, align 4
  call void @_ZN2qe8pred_abs14abstract_atomsEP4exprRNS_9max_levelER10ref_vectorIS1_11ast_managerE(ptr noundef nonnull align 8 dereferenceable(216) %this, ptr noundef %fml, ptr noundef nonnull align 4 dereferenceable(8) %level, ptr noundef nonnull align 8 dereferenceable(16) %defs)
  ret void
}

; Function Attrs: mustprogress uwtable
define hidden void @_ZN2qe8pred_abs14abstract_atomsEP4exprRNS_9max_levelER10ref_vectorIS1_11ast_managerE(ptr noundef nonnull align 8 dereferenceable(216) %this, ptr noundef %fml, ptr nocapture noundef nonnull align 4 dereferenceable(8) %level, ptr noundef nonnull align 8 dereferenceable(16) %defs) local_unnamed_addr #3 align 2 personality ptr @__gxx_personality_v0 {
entry:
  %ref.tmp.i316 = alloca %"class.std::__cxx11::basic_string", align 8
  %ref.tmp18.i = alloca %"class.std::allocator", align 1
  %ref.tmp.i = alloca %"struct.obj_map<expr, qe::max_level>::key_data", align 8
  %mark = alloca %class.obj_mark, align 8
  %args = alloca %class.ptr_vector, align 8
  %r = alloca %class.obj_ref.76, align 8
  %eq = alloca %class.obj_ref.76, align 8
  %l = alloca %"struct.qe::max_level", align 8
  %ref.tmp96 = alloca %class.obj_ref.76, align 8
  %l99 = alloca %"struct.qe::max_level", align 8
  %m_marks.i = getelementptr inbounds %class.obj_mark, ptr %mark, i64 0, i32 1
  call void @llvm.memset.p0.i64(ptr noundef nonnull align 8 dereferenceable(16) %m_marks.i, i8 0, i64 16, i1 false)
  store ptr null, ptr %args, align 8
  %0 = load ptr, ptr %this, align 8
  store ptr null, ptr %r, align 8
  %m_manager.i = getelementptr inbounds %class.obj_ref.76, ptr %r, i64 0, i32 1
  store ptr %0, ptr %m_manager.i, align 8
  store ptr null, ptr %eq, align 8
  %m_manager.i27 = getelementptr inbounds %class.obj_ref.76, ptr %eq, i64 0, i32 1
  store ptr %0, ptr %m_manager.i27, align 8
  %todo = getelementptr inbounds %"class.qe::pred_abs", ptr %this, i64 0, i32 10
  %1 = load ptr, ptr %todo, align 8
  %cmp.i = icmp eq ptr %1, null
  br i1 %cmp.i, label %if.then.i, label %lor.lhs.false.i

lor.lhs.false.i:                                  ; preds = %entry
  %arrayidx.i = getelementptr inbounds i32, ptr %1, i64 -1
  %2 = load i32, ptr %arrayidx.i, align 4
  %arrayidx4.i = getelementptr inbounds i32, ptr %1, i64 -2
  %3 = load i32, ptr %arrayidx4.i, align 4
  %cmp5.i = icmp eq i32 %2, %3
  br i1 %cmp5.i, label %if.then.i, label %invoke.cont10

if.then.i:                                        ; preds = %entry, %lor.lhs.false.i
  %retval.0.i327 = phi i32 [ %2, %lor.lhs.false.i ], [ 0, %entry ]
  invoke void @_ZN6vectorIP4exprLb0EjE13expand_vectorEv(ptr noundef nonnull align 8 dereferenceable(8) %todo)
          to label %.noexc unwind label %lpad7.loopexit.split-lp.loopexit.split-lp

