; ModuleID = 'bench/z3/original/smt2parser.cpp.ll'
source_filename = "bench/z3/original/smt2parser.cpp.ll"
target datalayout = "e-m:e-p270:32:32-p271:32:32-p272:64:64-i64:64-i128:128-f80:128-n8:16:32:64-S128"
target triple = "x86_64-unknown-linux-gnu"

%"class.std::ios_base::Init" = type { i8 }
%class.symbol = type { ptr }
%struct.app_flags = type { i24 }
%"class.smt2::parser" = type { ptr, %class.params_ref, %"class.smt2::scanner", i32, ptr, %class.stack, %class.symbol_table, i32, [4 x i8], %class.map, %class.map, %class.map.5, %class.svector.9, %class.scoped_ptr, %class.scoped_ptr.11, %class.scoped_ptr.12, i32, %class.scoped_ptr.12, %class.scoped_ptr.12, %class.svector.9, %class.vector.13, %class.scoped_ptr.14, %class.scoped_ptr.15, %class.scoped_ptr.16, %class.scoped_ptr.17, %class.scoped_ptr.18, %class.scoped_ptr.19, %class.scoped_ptr.20, %class.symbol, %class.symbol, %class.symbol, %class.symbol, %class.symbol, %class.symbol, %class.symbol, %class.symbol, %class.symbol, %class.symbol, %class.symbol, %class.symbol, %class.symbol, %class.symbol, %class.symbol, %class.symbol, %class.symbol, %class.symbol, %class.symbol, %class.symbol, %class.symbol, %class.symbol, %class.symbol, %class.symbol, %class.symbol, %class.symbol, %class.symbol, %class.symbol, %class.symbol, %class.symbol, %class.symbol, %class.symbol, %class.symbol, %class.symbol, %class.symbol, %class.symbol, %class.symbol, %class.symbol, %class.symbol, %class.symbol, %"struct.std::pair", i8, i8, i8, i32, %"class.std::vector", i32, ptr, %class.rational, %"class.std::__cxx11::basic_string" }
%class.params_ref = type { ptr }
%"class.smt2::scanner" = type { ptr, i8, i32, i8, i8, i32, i32, %class.symbol, %class.rational, i32, [256 x i8], [1024 x i8], i32, i32, %class.svector, ptr, i8, %class.svector, %class.svector }
%class.svector = type { %class.vector }
%class.vector = type { ptr }
%class.stack = type { ptr, ptr, ptr, ptr }
%class.symbol_table = type { %class.core_hashtable, %class.vector.0, %class.svector.1 }
%class.core_hashtable = type <{ ptr, i32, i32, i32, [4 x i8] }>
%class.vector.0 = type { ptr }
%class.svector.1 = type { %class.vector.2 }
%class.vector.2 = type { ptr }
%class.map = type { %class.table2map }
%class.table2map = type { %class.core_hashtable.3 }
%class.core_hashtable.3 = type <{ ptr, i32, i32, i32, [4 x i8] }>
%class.map.5 = type { %class.table2map.6 }
%class.table2map.6 = type { %class.core_hashtable.7 }
%class.core_hashtable.7 = type <{ ptr, i32, i32, i32, [4 x i8] }>
%class.scoped_ptr = type { ptr }
%class.scoped_ptr.11 = type { ptr }
%class.scoped_ptr.12 = type { ptr }
%class.svector.9 = type { %class.vector.10 }
%class.vector.10 = type { ptr }
%class.vector.13 = type { ptr }
%class.scoped_ptr.14 = type { ptr }
%class.scoped_ptr.15 = type { ptr }
%class.scoped_ptr.16 = type { ptr }
%class.scoped_ptr.17 = type { ptr }
%class.scoped_ptr.18 = type { ptr }
%class.scoped_ptr.19 = type { ptr }
%class.scoped_ptr.20 = type { ptr }
%"struct.std::pair" = type { %class.symbol, ptr }
%"class.std::vector" = type { %"struct.std::_Vector_base" }
%"struct.std::_Vector_base" = type { %"struct.std::_Vector_base<std::__cxx11::basic_string<char>, std::allocator<std::__cxx11::basic_string<char>>>::_Vector_impl" }
%"struct.std::_Vector_base<std::__cxx11::basic_string<char>, std::allocator<std::__cxx11::basic_string<char>>>::_Vector_impl" = type { %"struct.std::_Vector_base<std::__cxx11::basic_string<char>, std::allocator<std::__cxx11::basic_string<char>>>::_Vector_impl_data" }
%"struct.std::_Vector_base<std::__cxx11::basic_string<char>, std::allocator<std::__cxx11::basic_string<char>>>::_Vector_impl_data" = type { ptr, ptr, ptr }
%class.rational = type { %class.mpq }
%class.mpq = type { %class.mpz, %class.mpz }
%class.mpz = type { i32, i8, ptr }
%"class.std::__cxx11::basic_string" = type { %"struct.std::__cxx11::basic_string<char>::_Alloc_hider", i64, %union.anon }
%"struct.std::__cxx11::basic_string<char>::_Alloc_hider" = type { ptr }
%union.anon = type { i64, [8 x i8] }
%"struct.symbol_table<smt2::parser::local>::hash_entry" = type { %"struct.symbol_table<smt2::parser::local>::key_data" }
%"struct.symbol_table<smt2::parser::local>::key_data" = type { %class.symbol, %"struct.smt2::parser::local" }
%"struct.smt2::parser::local" = type <{ ptr, i32, [4 x i8] }>
%class.cmd_exception = type { %class.default_exception, i32, i32 }
%class.default_exception = type { %class.z3_exception, %"class.std::__cxx11::basic_string" }
%class.z3_exception = type { ptr }
%class.seq_util = type { ptr, ptr, ptr, i32, [4 x i8], %"class.seq_util::str", %"class.seq_util::rex" }
%"class.seq_util::str" = type <{ ptr, ptr, i32, [4 x i8] }>
%"class.seq_util::rex" = type { ptr, ptr, i32, %class.vector.108, %class.ref_vector, %"struct.seq_util::rex::info", %"struct.seq_util::rex::info" }
%class.vector.108 = type { ptr }
%class.ref_vector = type { %class.ref_vector_core.98 }
%class.ref_vector_core.98 = type { %class.ref_manager_wrapper, %class.ptr_vector.80 }
%class.ref_manager_wrapper = type { ptr }
%class.ptr_vector.80 = type { %class.vector.81 }
%class.vector.81 = type { ptr }
%"struct.seq_util::rex::info" = type { i32, i8, i32, i32 }
%class.parameter = type { %"class.std::variant" }
%"class.std::variant" = type { %"struct.std::__detail::__variant::_Variant_base.base", [7 x i8] }
%"struct.std::__detail::__variant::_Variant_base.base" = type { %"struct.std::__detail::__variant::_Move_assign_base.base" }
%"struct.std::__detail::__variant::_Move_assign_base.base" = type { %"struct.std::__detail::__variant::_Copy_assign_base.base" }
%"struct.std::__detail::__variant::_Copy_assign_base.base" = type { %"struct.std::__detail::__variant::_Move_ctor_base.base" }
%"struct.std::__detail::__variant::_Move_ctor_base.base" = type { %"struct.std::__detail::__variant::_Copy_ctor_base.base" }
%"struct.std::__detail::__variant::_Copy_ctor_base.base" = type { %"struct.std::__detail::__variant::_Variant_storage.base" }
%"struct.std::__detail::__variant::_Variant_storage.base" = type <{ %"union.std::__detail::__variant::_Variadic_union", i8 }>
%"union.std::__detail::__variant::_Variadic_union" = type { %"union.std::__detail::__variant::_Variadic_union.181" }
%"union.std::__detail::__variant::_Variadic_union.181" = type { %"struct.std::__detail::__variant::_Uninitialized.182" }
%"struct.std::__detail::__variant::_Uninitialized.182" = type { ptr }
%class.obj_ref = type { ptr, ptr }
%class.cmd_context = type { %class.progress_callback, %class.tactic_manager, %class.ast_printer_context, %class.ast_context_params, i8, %class.symbol, i8, i8, i8, i32, i8, i8, i8, i32, i8, i8, i8, i8, %class.scoped_ptr.41, %class.ref_vector_core, ptr, i8, i8, ptr, ptr, %class.check_logic, %class.stream_ref, %class.stream_ref, %class.map.44, %class.map.48, %class.scoped_ptr_vector, %class.map.54, %class.map.58, %class.map.62, %class.obj_map, %class.map.68, %class.map.72, %class.svector.76, %class.svector.9, %class.svector.9, %class.ptr_vector.78, %class.ptr_vector.78, %class.ptr_vector.80, %"class.std::vector", %class.ptr_vector.80, %class.svector.82, %class.scoped_ptr.84, %class.ref, %class.ref.85, %class.ref.86, %class.stopwatch, %class.scoped_ptr.87, %class.scoped_ptr.88 }
%class.progress_callback = type { ptr }
%class.tactic_manager = type { %class.map.24, %class.map.28, %class.map.32, %class.ptr_vector, %class.ptr_vector.37, %class.ptr_vector.39 }
%class.map.24 = type { %class.table2map.25 }
%class.table2map.25 = type { %class.core_hashtable.26 }
%class.core_hashtable.26 = type <{ ptr, i32, i32, i32, [4 x i8] }>
%class.map.28 = type { %class.table2map.29 }
%class.table2map.29 = type { %class.core_hashtable.30 }
%class.core_hashtable.30 = type <{ ptr, i32, i32, i32, [4 x i8] }>
%class.map.32 = type { %class.table2map.33 }
%class.table2map.33 = type { %class.core_hashtable.34 }
%class.core_hashtable.34 = type <{ ptr, i32, i32, i32, [4 x i8] }>
%class.ptr_vector = type { %class.vector.36 }
%class.vector.36 = type { ptr }
%class.ptr_vector.37 = type { %class.vector.38 }
%class.vector.38 = type { ptr }
%class.ptr_vector.39 = type { %class.vector.40 }
%class.vector.40 = type { ptr }
%class.ast_printer_context = type { %class.ast_printer }
%class.ast_printer = type { ptr }
%class.ast_context_params = type { %class.context_params, ptr }
%class.context_params = type { i32, i32, %"class.std::__cxx11::basic_string", %"class.std::__cxx11::basic_string", i8, i8, i8, i8, i8, i8, i8, i8, i8, i8, i8, %"class.std::__cxx11::basic_string" }
%class.scoped_ptr.41 = type { ptr }
%class.ref_vector_core = type { %class.ptr_vector.42 }
%class.ptr_vector.42 = type { %class.vector.43 }
%class.vector.43 = type { ptr }
%class.check_logic = type { ptr }
%class.stream_ref = type <{ %"class.std::__cxx11::basic_string", ptr, %"class.std::__cxx11::basic_string", ptr, i8, [7 x i8] }>
%class.map.44 = type { %class.table2map.45 }
%class.table2map.45 = type { %class.core_hashtable.46 }
%class.core_hashtable.46 = type <{ ptr, i32, i32, i32, [4 x i8] }>
%class.map.48 = type { %class.table2map.49 }
%class.table2map.49 = type { %class.core_hashtable.50 }
%class.core_hashtable.50 = type <{ ptr, i32, i32, i32, [4 x i8] }>
%class.scoped_ptr_vector = type { %class.ptr_vector.52 }
%class.ptr_vector.52 = type { %class.vector.53 }
%class.vector.53 = type { ptr }
%class.map.54 = type { %class.table2map.55 }
%class.table2map.55 = type { %class.core_hashtable.56 }
%class.core_hashtable.56 = type <{ ptr, i32, i32, i32, [4 x i8] }>
%class.map.58 = type { %class.table2map.59 }
%class.table2map.59 = type { %class.core_hashtable.60 }
%class.core_hashtable.60 = type <{ ptr, i32, i32, i32, [4 x i8] }>
%class.map.62 = type { %class.table2map.63 }
%class.table2map.63 = type { %class.core_hashtable.64 }
%class.core_hashtable.64 = type <{ ptr, i32, i32, i32, [4 x i8] }>
%class.obj_map = type { %class.core_hashtable.66 }
%class.core_hashtable.66 = type <{ ptr, i32, i32, i32, [4 x i8] }>
%class.map.68 = type { %class.table2map.69 }
%class.table2map.69 = type { %class.core_hashtable.70 }
%class.core_hashtable.70 = type <{ ptr, i32, i32, i32, [4 x i8] }>
%class.map.72 = type { %class.table2map.73 }
%class.table2map.73 = type { %class.core_hashtable.74 }
%class.core_hashtable.74 = type <{ ptr, i32, i32, i32, [4 x i8] }>
%class.svector.76 = type { %class.vector.77 }
%class.vector.77 = type { ptr }
%class.ptr_vector.78 = type { %class.vector.79 }
%class.vector.79 = type { ptr }
%class.svector.82 = type { %class.vector.83 }
%class.vector.83 = type { ptr }
%class.scoped_ptr.84 = type { ptr }
%class.ref = type { ptr }
%class.ref.85 = type { ptr }
%class.ref.86 = type { ptr }
%class.stopwatch = type <{ %"class.std::chrono::time_point", %"class.std::chrono::duration", i8, [7 x i8] }>
%"class.std::chrono::time_point" = type { %"class.std::chrono::duration" }
%"class.std::chrono::duration" = type { i64 }
%class.scoped_ptr.87 = type { ptr }
%class.scoped_ptr.88 = type { ptr }
%class.ref_vector_core.195 = type { %class.ref_manager_wrapper.196, %class.ptr_vector.174 }
%class.ref_manager_wrapper.196 = type { ptr }
%class.ptr_vector.174 = type { %class.vector.175 }
%class.vector.175 = type { ptr }
%class.ast = type { i32, i24, i32, i32 }
%class.obj_ref.89 = type { ptr, ptr }
%class.ref_vector_core.177 = type { %class.ref_manager_wrapper.178, %class.ptr_vector.179 }
%class.ref_manager_wrapper.178 = type { ptr }
%class.ptr_vector.179 = type { %class.vector.180 }
%class.vector.180 = type { ptr }
%class.sexpr = type { i32, i32, i32, i32 }
%struct.parser_params = type { ptr, %class.params_ref }
%class.ref_vector_core.198 = type { %class.ref_manager_wrapper.199, %class.ptr_vector.200 }
%class.ref_manager_wrapper.199 = type { ptr }
%class.ptr_vector.200 = type { %class.vector.201 }
%class.vector.201 = type { ptr }
%class.pdecl = type <{ ptr, i32, i32, i32, [4 x i8] }>
%class.pdecl_manager = type { ptr, ptr, %class.id_gen, %class.obj_map.202, %class.ptr_hashtable, %class.ptr_vector.78, ptr, i32, ptr, %class.obj_map.209, %class.obj_hashtable.214, %class.ptr_vector.174, %class.svector.132, %class.svector.9, %class.svector.132 }
%class.id_gen = type { i32, %class.svector.132 }
%class.obj_map.202 = type { %class.core_hashtable.203 }
%class.core_hashtable.203 = type <{ ptr, i32, i32, i32, [4 x i8] }>
%class.ptr_hashtable = type { %class.core_hashtable.base.208, [4 x i8] }
%class.core_hashtable.base.208 = type <{ ptr, i32, i32, i32 }>
%class.obj_map.209 = type { %class.core_hashtable.210 }
%class.core_hashtable.210 = type <{ ptr, i32, i32, i32, [4 x i8] }>
%class.obj_hashtable.214 = type { %class.core_hashtable.base.218, [4 x i8] }
%class.core_hashtable.base.218 = type <{ ptr, i32, i32, i32 }>
%class.svector.132 = type { %class.vector.133 }
%class.vector.133 = type { ptr }
%"class.std::allocator.21" = type { i8 }
%struct._Guard = type { ptr }
%class.escaped = type { ptr, i8, i32 }
%class.default_map_entry = type { %class.default_hash_entry }
%class.default_hash_entry = type { i32, i32, %struct._key_data }
%struct._key_data = type <{ %class.symbol, i32, [4 x i8] }>
%class.obj_ref.237 = type { ptr, ptr }
%class.decl = type { %class.ast, %class.symbol, ptr }
%class.psort_decl = type { %class.pdecl.base, %class.symbol, i32, ptr }
%class.pdecl.base = type <{ ptr, i32, i32, i32 }>
%class.ref_buffer = type { %class.ref_buffer_core }
%class.ref_buffer_core = type { %class.ref_manager_wrapper.238, %class.ptr_buffer.239 }
%class.ref_manager_wrapper.238 = type { ptr }
%class.ptr_buffer.239 = type { %class.buffer.240 }
%class.buffer.240 = type { ptr, i32, i32, [16 x %"union.std::aligned_storage<8, 8>::type"] }
%"union.std::aligned_storage<8, 8>::type" = type { [8 x i8] }
%class.obj_ref.241 = type { ptr, ptr }
%class.ref_buffer.242 = type { %class.ref_buffer_core.243 }
%class.ref_buffer_core.243 = type { %class.ref_manager_wrapper.244, %class.ptr_buffer.245 }
%class.ref_manager_wrapper.244 = type { ptr }
%class.ptr_buffer.245 = type { %class.buffer.246 }
%class.buffer.246 = type { ptr, i32, i32, [16 x %"union.std::aligned_storage<8, 8>::type"] }
%class.obj_ref.249 = type { ptr, ptr }
%class.default_map_entry.90 = type { %class.default_hash_entry.91 }
%class.default_hash_entry.91 = type { i32, i32, %struct._key_data.92 }
%struct._key_data.92 = type <{ %class.symbol, i32, [4 x i8] }>
%class.ref.260 = type { ptr }
%"class.model::scoped_model_completion" = type { i8, ptr }
%class.obj_ref.220 = type { ptr, ptr }
%class.model = type { %class.model_core, %class.ptr_vector.174, %class.obj_map.272, %class.model_evaluator, i8, i8, %class.plugin_manager }
%class.model_core = type { ptr, ptr, i32, [4 x i8], %class.obj_map.262, %class.obj_map.267, %class.ptr_vector.230, %class.ptr_vector.230, %class.ptr_vector.230 }
%class.obj_map.262 = type { %class.core_hashtable.263 }
%class.core_hashtable.263 = type <{ ptr, i32, i32, i32, [4 x i8] }>
%class.obj_map.267 = type { %class.core_hashtable.268 }
%class.core_hashtable.268 = type <{ ptr, i32, i32, i32, [4 x i8] }>
%class.ptr_vector.230 = type { %class.vector.231 }
%class.vector.231 = type { ptr }
%class.obj_map.272 = type { %class.core_hashtable.273 }
%class.core_hashtable.273 = type <{ ptr, i32, i32, i32, [4 x i8] }>
%class.model_evaluator = type { ptr }
%class.plugin_manager = type { %class.ptr_vector.277, %class.ptr_vector.277 }
%class.ptr_vector.277 = type { %class.vector.278 }
%class.vector.278 = type { ptr }
%"class.recfun::promise_def" = type { ptr, ptr }
%class.ref_vector.286 = type { %class.ref_vector_core.287 }
%class.ref_vector_core.287 = type { %class.ref_manager_wrapper.288, %class.ptr_vector.230 }
%class.ref_manager_wrapper.288 = type { ptr }
%class.vector.289 = type { ptr }
%class.vector.290 = type { ptr }
%class.cmd = type { ptr, %class.symbol, i32, i32 }
%"struct.smt2::parser::let_frame" = type { %"struct.smt2::parser::expr_frame", i8, i32, i32 }
%"struct.smt2::parser::expr_frame" = type { i32 }
%class.arith_util = type { ptr, ptr }
%class.zstring = type { %class.buffer.234 }
%class.buffer.234 = type { ptr, i32, i32, [16 x %"union.std::aligned_storage<4, 4>::type"] }
%"union.std::aligned_storage<4, 4>::type" = type { [4 x i8] }
%"struct.smt2::parser::pattern_frame" = type { %"struct.smt2::parser::expr_frame", i32 }
%class.func_decl = type { %class.decl, i32, ptr, [0 x ptr] }
%"struct.smt2::parser::app_frame" = type <{ %"struct.smt2::parser::expr_frame", [4 x i8], %class.symbol, i32, i32, i8, [7 x i8] }>
%"struct.smt2::parser::quant_frame" = type { %"struct.smt2::parser::expr_frame", i32, %class.symbol, %class.symbol, i32, i32, i32, i32, i32, i32 }
%class.pattern_validator = type { i32, i32 }
%"struct.smt2::parser::attr_expr_frame" = type { %"struct.smt2::parser::expr_frame", ptr, i32, i32, %class.symbol }
%class.app = type { %class.expr, ptr, i32, [0 x ptr] }
%class.expr = type { %class.ast }
%class.var_shifter = type <{ %class.var_shifter_core, i32, i32, i32, [4 x i8] }>
%class.var_shifter_core = type { %class.rewriter_core }
%class.rewriter_core = type { ptr, ptr, i8, i8, %class.ptr_vector.94, ptr, %class.svector.96, %class.ref_vector, %class.ptr_vector.94, ptr, %class.ref_vector.99, %class.obj_hashtable, ptr, i32, %class.svector.106 }
%class.svector.96 = type { %class.vector.97 }
%class.vector.97 = type { ptr }
%class.ptr_vector.94 = type { %class.vector.95 }
%class.vector.95 = type { ptr }
%class.ref_vector.99 = type { %class.ref_vector_core.100 }
%class.ref_vector_core.100 = type { %class.ref_manager_wrapper.101, %class.ptr_vector.102 }
%class.ref_manager_wrapper.101 = type { ptr }
%class.ptr_vector.102 = type { %class.vector.103 }
%class.vector.103 = type { ptr }
%class.obj_hashtable = type { %class.core_hashtable.base.105, [4 x i8] }
%class.core_hashtable.base.105 = type <{ ptr, i32, i32, i32 }>
%class.svector.106 = type { %class.vector.107 }
%class.vector.107 = type { ptr }
%"class.std::__cxx11::basic_ostringstream" = type { %"class.std::basic_ostream.base", %"class.std::__cxx11::basic_stringbuf", %"class.std::basic_ios" }
%"class.std::basic_ostream.base" = type { ptr }
%"class.std::__cxx11::basic_stringbuf" = type { %"class.std::basic_streambuf", i32, %"class.std::__cxx11::basic_string" }
%"class.std::basic_streambuf" = type { ptr, ptr, ptr, ptr, ptr, ptr, ptr, %"class.std::locale" }
%"class.std::locale" = type { ptr }
%"class.std::basic_ios" = type { %"class.std::ios_base", ptr, i8, i8, ptr, ptr, ptr, ptr }
%"class.std::ios_base" = type { ptr, i64, i64, i32, i32, i32, ptr, %"struct.std::ios_base::_Words", [8 x %"struct.std::ios_base::_Words"], i32, ptr, %"class.std::locale" }
%"struct.std::ios_base::_Words" = type { ptr, i64 }
%"struct.std::__detail::__variant::_Variant_storage" = type <{ %"union.std::__detail::__variant::_Variadic_union", i8, [7 x i8] }>
%"class.std::bad_variant_access" = type { %"class.std::exception", ptr }
%"class.std::exception" = type { ptr }
%"struct.smt2::parser::psort_frame" = type <{ ptr, i32, [4 x i8] }>
%class.sbuffer = type { %class.buffer }
%class.buffer = type { ptr, i32, i32, [16 x %"union.std::aligned_storage<4, 4>::type"] }
%class.decl_info = type <{ i32, i32, %class.vector.13, i8, [7 x i8] }>
%class.var_subst = type { %class.beta_reducer, i8, [7 x i8] }
%class.beta_reducer = type <{ %class.rewriter_tpl, %struct.beta_reducer_cfg, [7 x i8] }>
%class.rewriter_tpl = type { %class.rewriter_core, ptr, i32, %class.ptr_vector.80, %class.var_shifter, %class.inv_var_shifter, %class.obj_ref.220, %class.obj_ref.229, %class.obj_ref.229, %class.svector.132 }
%class.inv_var_shifter = type <{ %class.var_shifter_core, i32, [4 x i8] }>
%class.obj_ref.229 = type { ptr, ptr }
%struct.beta_reducer_cfg = type { i8 }
%class.ast_fast_mark = type { %class.ptr_buffer }
%class.ptr_buffer = type { %class.buffer.232 }
%class.buffer.232 = type { ptr, i32, i32, [16 x %"union.std::aligned_storage<8, 8>::type"] }
%class.ast_manager = type { %class.reslimit, %class.small_object_allocator, %class.family_manager, %class.parray_manager, %class.dependency_manager, %class.parray_manager.121, %class.ptr_vector.124, i32, i8, %class.ast_table, %class.obj_map.127, %class.id_gen, %class.id_gen, ptr, ptr, ptr, ptr, ptr, i32, i8, [3 x i8], %class.u_map, ptr, i8, i8, ptr, %class.symbol, %class.obj_map.138, ptr }
%class.reslimit = type { %"struct.std::atomic", i8, i64, i64, %class.svector.109, %class.ptr_vector.111 }
%"struct.std::atomic" = type { %"struct.std::__atomic_base" }
%"struct.std::__atomic_base" = type { i32 }
%class.svector.109 = type { %class.vector.110 }
%class.vector.110 = type { ptr }
%class.ptr_vector.111 = type { %class.vector.112 }
%class.vector.112 = type { ptr }
%class.small_object_allocator = type { [32 x ptr], [32 x ptr], i64 }
%class.family_manager = type { i32, %class.symbol_table.113, %class.svector.9 }
%class.symbol_table.113 = type { %class.core_hashtable.114, %class.vector.116, %class.svector.1 }
%class.core_hashtable.114 = type <{ ptr, i32, i32, i32, [4 x i8] }>
%class.vector.116 = type { ptr }
%class.parray_manager = type { ptr, ptr, %class.ptr_vector.117, %class.ptr_vector.117 }
%class.ptr_vector.117 = type { %class.vector.118 }
%class.vector.118 = type { ptr }
%class.dependency_manager = type { ptr, ptr, %class.ptr_vector.119 }
%class.ptr_vector.119 = type { %class.vector.120 }
%class.vector.120 = type { ptr }
%class.parray_manager.121 = type { ptr, ptr, %class.ptr_vector.122, %class.ptr_vector.122 }
%class.ptr_vector.122 = type { %class.vector.123 }
%class.vector.123 = type { ptr }
%class.ptr_vector.124 = type { %class.vector.125 }
%class.vector.125 = type { ptr }
%class.ast_table = type { %class.chashtable }
%class.chashtable = type { ptr, i32, i32, i32, i32, i32, i32, i32, ptr, ptr, ptr }
%class.obj_map.127 = type { %class.core_hashtable.128 }
%class.core_hashtable.128 = type <{ ptr, i32, i32, i32, [4 x i8] }>
%class.u_map = type { %class.map.134 }
%class.map.134 = type { %class.table2map.135 }
%class.table2map.135 = type { %class.core_hashtable.136 }
%class.core_hashtable.136 = type <{ ptr, i32, i32, i32, [4 x i8] }>
%class.obj_map.138 = type { %class.core_hashtable.139 }
%class.core_hashtable.139 = type <{ ptr, i32, i32, i32, [4 x i8] }>
%class.seq_decl_plugin = type { %class.decl_plugin.base, %class.ptr_vector.235, %class.ptr_vector.174, i8, %class.symbol, ptr, ptr, ptr, i8, i8, ptr }
%class.decl_plugin.base = type <{ ptr, ptr, i32 }>
%class.ptr_vector.235 = type { %class.vector.236 }
%class.vector.236 = type { ptr }
%class.decl_plugin = type <{ ptr, ptr, i32, [4 x i8] }>
%class.ref_buffer.252 = type { %class.ref_buffer_core.253 }
%class.ref_buffer_core.253 = type { %class.ref_manager_wrapper.254, %class.ptr_buffer.255 }
%class.ref_manager_wrapper.254 = type { ptr }
%class.ptr_buffer.255 = type { %class.buffer.256 }
%class.buffer.256 = type { ptr, i32, i32, [16 x %"union.std::aligned_storage<8, 8>::type"] }
%class.ptype = type { i32, %union.anon.259, %class.symbol }
%union.anon.259 = type { ptr }
%"class.recfun::def" = type <{ ptr, %class.symbol, %class.ref_vector.194, %class.obj_ref, %class.ref_vector.280, %class.vector.285, %class.obj_ref.237, %class.obj_ref.220, i32, i8, [3 x i8] }>
%class.ref_vector.194 = type { %class.ref_vector_core.195 }
%class.ref_vector.280 = type { %class.ref_vector_core.281 }
%class.ref_vector_core.281 = type { %class.ref_manager_wrapper.282, %class.ptr_vector.283 }
%class.ref_manager_wrapper.282 = type { ptr }
%class.ptr_vector.283 = type { %class.vector.284 }
%class.vector.284 = type { ptr }
%class.vector.285 = type { ptr }
%struct.mk_pp = type { %struct.mk_ismt2_pp }
%struct.mk_ismt2_pp = type { ptr, ptr, %class.params_ref, ptr, i32, i32, ptr }
%class.ptr_buffer.301 = type { %class.buffer.302 }
%class.buffer.302 = type { ptr, i32, i32, [16 x %"union.std::aligned_storage<8, 8>::type"] }

$_ZN4smt26parserC2ER11cmd_contextRSibRK10params_refPKc = comdat any

$_ZN4smt26parserclEv = comdat any

$_ZN4smt26parserD2Ev = comdat any

$_ZN4smt26parser14parse_sort_refEPKc = comdat any

$_ZN4smt26parser15parse_sexpr_refEv = comdat any

$_ZN4smt26parser11updt_paramsEv = comdat any

$_ZN8rationalD2Ev = comdat any

$_ZNSt6vectorINSt7__cxx1112basic_stringIcSt11char_traitsIcESaIcEEESaIS5_EED2Ev = comdat any

$_ZN10scoped_ptrI11var_shifterED2Ev = comdat any

$_ZN10scoped_ptrI17pattern_validatorED2Ev = comdat any

$_ZN10scoped_ptrI8seq_utilED2Ev = comdat any

$_ZN10scoped_ptrIN8datatype4utilEED2Ev = comdat any

$_ZN10scoped_ptrI10arith_utilED2Ev = comdat any

$_ZN10scoped_ptrI7bv_utilED2Ev = comdat any

$_ZN10scoped_ptrI10ref_vectorI5sexpr13sexpr_managerEED2Ev = comdat any

$_ZN6vectorI9parameterLb1EjED2Ev = comdat any

$_ZN7svectorI6symboljED2Ev = comdat any

$_ZN10scoped_ptrI10ref_vectorI4expr11ast_managerEED2Ev = comdat any

$_ZN10scoped_ptrI10ref_vectorI4sort11ast_managerEED2Ev = comdat any

$_ZN10scoped_ptrI10ref_vectorI5psort13pdecl_managerEED2Ev = comdat any

$_ZN3mapI6symbolj16symbol_hash_proc14symbol_eq_procED2Ev = comdat any

$_ZN3mapI6symboli16symbol_hash_proc14symbol_eq_procED2Ev = comdat any

$_ZN12symbol_tableIN4smt26parser5localEED2Ev = comdat any

$_ZN4smt27scannerD2Ev = comdat any

$__clang_call_terminate = comdat any

$_ZN8seq_util3rexD2Ev = comdat any

$_ZN10ref_vectorI4expr11ast_managerED2Ev = comdat any

$_ZN15ref_vector_coreI4expr19ref_manager_wrapperIS0_11ast_managerEED2Ev = comdat any

$_Z7deallocI10ref_vectorI5sexpr13sexpr_managerEEvPT_ = comdat any

$_Z7deallocI10ref_vectorI4expr11ast_managerEEvPT_ = comdat any

$_Z7deallocI10ref_vectorI4sort11ast_managerEEvPT_ = comdat any

$_ZN15ref_vector_coreI5psort19ref_manager_wrapperIS0_13pdecl_managerEED2Ev = comdat any

$_ZN6vectorIP5pdeclLb0EjE13expand_vectorEv = comdat any

$_ZNSt7__cxx1112basic_stringIcSt11char_traitsIcESaIcEEC2IS3_EEPKcRKS3_ = comdat any

$_ZN17default_exceptionD2Ev = comdat any

$_ZNSt7__cxx1112basic_stringIcSt11char_traitsIcESaIcEE12_M_constructIPKcEEvT_S8_St20forward_iterator_tag = comdat any

$_ZZNSt7__cxx1112basic_stringIcSt11char_traitsIcESaIcEE12_M_constructIPKcEEvT_S8_St20forward_iterator_tagEN6_GuardD2Ev = comdat any

$_ZN4smt26parser16sync_after_errorEv = comdat any

$_ZN4smt26parser9parse_cmdEv = comdat any

$_ZN13cmd_exceptionC2EPKc = comdat any

$_ZN13cmd_exceptionD2Ev = comdat any

$_ZN4smt26parser5errorEjjPKc = comdat any

$_ZN4smt26parser5resetEv = comdat any

$_ZN4smt26parser4nextEv = comdat any

$_ZN4smt26parser12parse_assertEv = comdat any

$_ZN4smt26parser17parse_declare_funEv = comdat any

$_ZN4smt26parser19parse_declare_constEv = comdat any

$_ZN4smt26parser15parse_check_satEv = comdat any

$_ZN4smt26parser10parse_pushEv = comdat any

$_ZN4smt26parser9parse_popEv = comdat any

$_ZN4smt26parser18parse_define_constEv = comdat any

$_ZN4smt26parser17parse_define_sortEv = comdat any

$_ZN4smt26parser18parse_declare_sortEv = comdat any

$_ZN4smt26parser22parse_declare_type_varEv = comdat any

$_ZN4smt26parser23parse_declare_datatypesEv = comdat any

$_ZN4smt26parser22parse_declare_datatypeEv = comdat any

$_ZN4smt26parser15parse_get_valueEv = comdat any

$_ZN4smt26parser11parse_resetEv = comdat any

$_ZN4smt26parser24parse_check_sat_assumingEv = comdat any

$_ZN4smt26parser20parse_define_fun_recEv = comdat any

$_ZN4smt26parser21parse_define_funs_recEv = comdat any

$_ZN4smt26parser15parse_model_delEv = comdat any

$_ZN4smt26parser13parse_ext_cmdEii = comdat any

$_ZN4smt26parser10parse_exprEv = comdat any

$_ZN4smt26parser10expr_stackEv = comdat any

$_ZN4smt26parser14pop_expr_frameEv = comdat any

$_ZN4smt26parser15parse_expr_nameEv = comdat any

$_ZN4smt26parser13parse_numeralEb = comdat any

$_ZN4smt26parser16parse_bv_numeralEv = comdat any

$_ZN4smt26parser15push_expr_frameEPNS0_10expr_frameE = comdat any

$_ZN4smt26parser18parse_string_constEv = comdat any

$_ZN4smt26parser19push_let_decl_frameEv = comdat any

$_ZN4smt26parser18push_pattern_frameEv = comdat any

$_ZN4smt26parser13pop_app_frameEPNS0_9app_frameE = comdat any

$_ZN4smt26parser13pop_let_frameEPNS0_9let_frameE = comdat any

$_ZN4smt26parser15pop_quant_frameEPNS0_11quant_frameE = comdat any

$_ZN4smt26parser19pop_attr_expr_frameEPNS0_15attr_expr_frameE = comdat any

$_ZN4smt26parser17pop_pattern_frameEPNS0_13pattern_frameE = comdat any

$_ZN4smt26parser10push_localERKNS0_5localE = comdat any

$_ZN15ref_vector_coreI4expr19ref_manager_wrapperIS0_11ast_managerEE9push_backEPS0_ = comdat any

$_ZN7obj_refI4expr11ast_managerED2Ev = comdat any

$_ZNK14core_hashtableIN12symbol_tableIN4smt26parser5localEE10hash_entryENS4_18key_data_hash_procENS4_16key_data_eq_procEE9find_coreERKNS4_8key_dataE = comdat any

$_ZN6vectorIP4exprLb0EjE13expand_vectorEv = comdat any

$_ZN12symbol_tableIN4smt26parser5localEE6insertE6symbolRKS2_ = comdat any

$_ZN6vectorIiLb0EjE13expand_vectorEv = comdat any

$_ZN14core_hashtableIN12symbol_tableIN4smt26parser5localEE10hash_entryENS4_18key_data_hash_procENS4_16key_data_eq_procEE6insertEONS4_8key_dataE = comdat any

$_ZN6vectorIN12symbol_tableIN4smt26parser5localEE8key_dataELb1EjE13expand_vectorEv = comdat any

$_ZN14core_hashtableIN12symbol_tableIN4smt26parser5localEE10hash_entryENS4_18key_data_hash_procENS4_16key_data_eq_procEE12expand_tableEv = comdat any

$_ZN14core_hashtableIN12symbol_tableIN4smt26parser5localEE10hash_entryENS4_18key_data_hash_procENS4_16key_data_eq_procEE6removeERKNS4_8key_dataE = comdat any

$_ZN14core_hashtableIN12symbol_tableIN4smt26parser5localEE10hash_entryENS4_18key_data_hash_procENS4_16key_data_eq_procEE22remove_deleted_entriesEv = comdat any

$_ZN4smt26parser19process_last_symbolEPNS0_15attr_expr_frameE = comdat any

$_ZN4smt26parser18consume_attributesEPNS0_15attr_expr_frameE = comdat any

$_ZN4smt26parser9name_exprEP4exprRK6symbol = comdat any

$_ZN4smt26parser18check_in_quant_ctxEPNS0_15attr_expr_frameE = comdat any

$_ZN4smt26parser13curr_unsignedEv = comdat any

$_ZN4smt26parser13consume_sexprEv = comdat any

$_ZlsRSo6symbol = comdat any

$_ZN4smt26parser14push_let_frameEv = comdat any

$_ZN4smt26parser16push_quant_frameE15quantifier_kind = comdat any

$_ZN4smt26parser15push_bang_frameEPNS0_10expr_frameE = comdat any

$_ZN4smt26parser20parse_qualified_nameEv = comdat any

$_ZN4smt26parser14parse_root_objEv = comdat any

$_ZN4smt26parser16push_match_frameEv = comdat any

$_ZN4smt26parser14push_app_frameEv = comdat any

$_ZN4smt26parser10check_nextENS_7scanner5tokenEPKc = comdat any

$_ZN13cmd_exceptionD0Ev = comdat any

$_ZN4smt26parser17parse_sorted_varsEv = comdat any

$_ZN4smt26parser10parse_sortEPKc = comdat any

$_ZN6vectorI6symbolLb0EjE13expand_vectorEv = comdat any

$_ZN4smt26parser15parse_sort_nameEPKc = comdat any

$_ZN4smt26parser18pop_sort_app_frameEv = comdat any

$_ZN4smt26parser18parse_indexed_sortEv = comdat any

$_ZN4smt26parser19push_sort_app_frameEv = comdat any

$_ZN6vectorIP4sortLb0EjE13expand_vectorEv = comdat any

$_ZN4smt26parser12unknown_sortE6symbolPKc = comdat any

$_ZN7sbufferIjLj16EED2Ev = comdat any

$_ZN4smt26parser31parse_qualified_identifier_coreERb = comdat any

$_ZN4smt26parser15check_qualifierEP4exprb = comdat any

$_ZN4smt26parser29parse_indexed_identifier_coreEv = comdat any

$_ZN4smt26parser19parse_func_decl_refEv = comdat any

$_ZN6vectorI9parameterLb1EjE13expand_vectorEv = comdat any

$_ZNSt18bad_variant_accessD2Ev = comdat any

$_ZNSt18bad_variant_accessD0Ev = comdat any

$_ZNKSt18bad_variant_access4whatEv = comdat any

$_ZN4smt26parser13is_bv_decimalEPKc = comdat any

$_ZN4smt26parser12is_bv_binaryEPKc = comdat any

$_ZN4smt26parser9is_bv_hexEPKc = comdat any

$_ZN11mpq_managerILb1EE3addERK3mpqS3_RS1_ = comdat any

$_ZN4smt26parser11parse_sexprEv = comdat any

$_ZN6vectorIP5sexprLb0EjE13expand_vectorEv = comdat any

$_ZN4smt26parser19parse_match_patternEP4sort = comdat any

$_ZN4smt26parser16compile_patternsEP4exprRK10ref_vectorIS1_11ast_managerES7_ = comdat any

$_ZN4smt26parser14check_patternsERK10ref_vectorI4expr11ast_managerEP4sort = comdat any

$_ZN4smt26parser10bind_matchEP4exprS2_R10ref_vectorIS1_11ast_managerE = comdat any

$_ZN12beta_reducerD2Ev = comdat any

$_ZN12beta_reducerD0Ev = comdat any

$_ZN12rewriter_tplI16beta_reducer_cfgED2Ev = comdat any

$_ZN12rewriter_tplI16beta_reducer_cfgED0Ev = comdat any

$_ZN13ast_fast_markILj1EED2Ev = comdat any

$_ZN4smt26parser26parse_qualified_identifierERb = comdat any

$_ZN4smt26parser5sutilEv = comdat any

$_ZN7zstringD2Ev = comdat any

$_ZNSt6vectorINSt7__cxx1112basic_stringIcSt11char_traitsIcESaIcEEESaIS5_EE17_M_realloc_insertIJRKS5_EEEvN9__gnu_cxx17__normal_iteratorIPS5_S7_EEDpOT_ = comdat any

$_ZN7obj_refI9func_decl11ast_managerED2Ev = comdat any

$_ZN4smt26parser17parse_assumptionsEv = comdat any

$_ZN4smt26parser18parse_opt_unsignedEj = comdat any

$_ZN4smt26parser12parse_defineEb = comdat any

$_ZN4smt26parser22parse_sort_decl_paramsEv = comdat any

$_ZN4smt26parser11parse_psortEb = comdat any

$_ZN14core_hashtableI17default_map_entryI6symboliEN9table2mapIS2_16symbol_hash_proc14symbol_eq_procE15entry_hash_procENS6_13entry_eq_procEE6insertEO9_key_dataIS1_iE = comdat any

$_ZN14core_hashtableI17default_map_entryI6symboliEN9table2mapIS2_16symbol_hash_proc14symbol_eq_procE15entry_hash_procENS6_13entry_eq_procEE12expand_tableEv = comdat any

$_ZN4smt26parser16parse_psort_nameEb = comdat any

$_ZN4smt26parser19pop_psort_app_frameEv = comdat any

$_ZN4smt26parser20push_psort_app_frameEv = comdat any

$_ZN6vectorIP5psortLb0EjE13expand_vectorEv = comdat any

$_ZN4smt26parser25parse_sort_decl_or_paramsEv = comdat any

$_ZN4smt26parser18parse_datatype_decEP6symbolR10ref_bufferI17pconstructor_decl13pdecl_managerLj16EE = comdat any

$_ZN4smt26parser23parse_constructor_declsER10ref_bufferI17pconstructor_decl13pdecl_managerLj16EE = comdat any

$_ZN4smt26parser13check_missingEP14pdatatype_decljj = comdat any

$_ZN7obj_refI15pdatatypes_decl13pdecl_managerED2Ev = comdat any

$_ZN4smt26parser15check_duplicateEP14pdatatype_decljj = comdat any

$_ZN7obj_refI14pdatatype_decl13pdecl_managerED2Ev = comdat any

$_ZN14core_hashtableI17default_map_entryI6symboljEN9table2mapIS2_16symbol_hash_proc14symbol_eq_procE15entry_hash_procENS6_13entry_eq_procEE6insertEO9_key_dataIS1_jE = comdat any

$_ZN14core_hashtableI17default_map_entryI6symboljEN9table2mapIS2_16symbol_hash_proc14symbol_eq_procE15entry_hash_procENS6_13entry_eq_procEE12expand_tableEv = comdat any

$_ZN4smt26parser20parse_accessor_declsER10ref_bufferI14paccessor_decl13pdecl_managerLj16EE = comdat any

$_ZN4smt26parser11parse_ptypeEv = comdat any

$_ZN15ref_buffer_coreI14paccessor_decl19ref_manager_wrapperIS0_13pdecl_managerELj16EED2Ev = comdat any

$_ZN15ref_buffer_coreI17pconstructor_decl19ref_manager_wrapperIS0_13pdecl_managerELj16EED2Ev = comdat any

$_ZN15ref_buffer_coreI14pdatatype_decl19ref_manager_wrapperIS0_13pdecl_managerELj16EED2Ev = comdat any

$_ZN5model23scoped_model_completionD2Ev = comdat any

$_ZN3refI5modelED2Ev = comdat any

$_ZNSt6vectorINSt7__cxx1112basic_stringIcSt11char_traitsIcESaIcEEESaIS5_EE17_M_realloc_insertIJS5_EEEvN9__gnu_cxx17__normal_iteratorIPS5_S7_EEDpOT_ = comdat any

$_ZN4smt26parser18parse_rec_fun_declER7obj_refI9func_decl11ast_managerER10ref_vectorI4exprS3_ER7svectorI6symboljE = comdat any

$_ZN4smt26parser18parse_rec_fun_bodyEP9func_declRK10ref_vectorI4expr11ast_managerERK7svectorI6symboljE = comdat any

$_ZN4smt26parser19parse_rec_fun_declsER10ref_vectorI9func_decl11ast_managerER6vectorIS1_I4exprS3_ELb1EjERS6_I7svectorI6symboljELb1EjE = comdat any

$_ZN4smt26parser20parse_rec_fun_bodiesERK10ref_vectorI9func_decl11ast_managerERK6vectorIS1_I4exprS3_ELb1EjERKS7_I7svectorI6symboljELb1EjE = comdat any

$_ZN6vectorI7svectorI6symboljELb1EjED2Ev = comdat any

$_ZN6vectorI10ref_vectorI4expr11ast_managerELb1EjED2Ev = comdat any

$_ZN10ref_vectorI9func_decl11ast_managerED2Ev = comdat any

$_ZN6vectorI10ref_vectorI4expr11ast_managerELb1EjE9push_backERKS3_ = comdat any

$_ZN6vectorIP9func_declLb0EjE13expand_vectorEv = comdat any

$_ZN6vectorI10ref_vectorI4expr11ast_managerELb1EjE13expand_vectorEv = comdat any

$_ZN6vectorI10ref_vectorI4expr11ast_managerELb1EjE16destroy_elementsEv = comdat any

$_ZN6vectorI7svectorI6symboljELb1EjE13expand_vectorEv = comdat any

$_ZN4smt26parser17parse_unknown_cmdEv = comdat any

$_ZN4smt26parser18parse_next_cmd_argEv = comdat any

$_ZN11cmd_context22print_unsupported_infoERK6symbolii = comdat any

$_ZN4smt26parser18parse_option_valueEv = comdat any

$_ZN4smt26parser13parse_symbolsEv = comdat any

$_ZN4smt26parser20parse_func_decl_refsER10ptr_bufferI9func_declLj16EE = comdat any

$_ZN10ptr_bufferI9func_declLj16EED2Ev = comdat any

$_ZN14core_hashtableIN12symbol_tableIN4smt26parser5localEE10hash_entryENS4_18key_data_hash_procENS4_16key_data_eq_procEE5resetEv = comdat any

$_ZTS13cmd_exception = comdat any

$_ZTI13cmd_exception = comdat any

$_ZTS21stop_parser_exception = comdat any

$_ZTI21stop_parser_exception = comdat any

$_ZTS13ast_exception = comdat any

$_ZTI13ast_exception = comdat any

$_ZTV13cmd_exception = comdat any

$_ZTSSt18bad_variant_access = comdat any

$_ZTISt18bad_variant_access = comdat any

$_ZTVSt18bad_variant_access = comdat any

$_ZTV12beta_reducer = comdat any

$_ZTS12beta_reducer = comdat any

$_ZTS12rewriter_tplI16beta_reducer_cfgE = comdat any

$_ZTI12rewriter_tplI16beta_reducer_cfgE = comdat any

$_ZTI12beta_reducer = comdat any

$_ZTV12rewriter_tplI16beta_reducer_cfgE = comdat any

@_ZStL8__ioinit = internal global %"class.std::ios_base::Init" zeroinitializer, align 1
@__dso_handle = external hidden global i8
@.str = private unnamed_addr constant [4 x i8] c"let\00", align 1
@.str.1 = private unnamed_addr constant [2 x i8] c"!\00", align 1
@.str.2 = private unnamed_addr constant [7 x i8] c"forall\00", align 1
@.str.3 = private unnamed_addr constant [7 x i8] c"exists\00", align 1
@.str.4 = private unnamed_addr constant [7 x i8] c"lambda\00", align 1
@.str.5 = private unnamed_addr constant [3 x i8] c"as\00", align 1
@.str.6 = private unnamed_addr constant [4 x i8] c"not\00", align 1
@.str.7 = private unnamed_addr constant [9 x i8] c"root-obj\00", align 1
@.str.8 = private unnamed_addr constant [7 x i8] c":named\00", align 1
@.str.9 = private unnamed_addr constant [8 x i8] c":weight\00", align 1
@.str.10 = private unnamed_addr constant [5 x i8] c":qid\00", align 1
@.str.11 = private unnamed_addr constant [10 x i8] c":skolemid\00", align 1
@.str.12 = private unnamed_addr constant [9 x i8] c":pattern\00", align 1
@.str.13 = private unnamed_addr constant [12 x i8] c":no-pattern\00", align 1
@.str.14 = private unnamed_addr constant [8 x i8] c":lblneg\00", align 1
@.str.15 = private unnamed_addr constant [8 x i8] c":lblpos\00", align 1
@.str.16 = private unnamed_addr constant [7 x i8] c"assert\00", align 1
@.str.17 = private unnamed_addr constant [10 x i8] c"check-sat\00", align 1
@.str.18 = private unnamed_addr constant [11 x i8] c"define-fun\00", align 1
@.str.19 = private unnamed_addr constant [13 x i8] c"define-const\00", align 1
@.str.20 = private unnamed_addr constant [10 x i8] c"model-add\00", align 1
@.str.21 = private unnamed_addr constant [10 x i8] c"model-del\00", align 1
@.str.22 = private unnamed_addr constant [12 x i8] c"declare-fun\00", align 1
@.str.23 = private unnamed_addr constant [14 x i8] c"declare-const\00", align 1
@.str.24 = private unnamed_addr constant [12 x i8] c"define-sort\00", align 1
@.str.25 = private unnamed_addr constant [13 x i8] c"declare-sort\00", align 1
@.str.26 = private unnamed_addr constant [17 x i8] c"declare-type-var\00", align 1
@.str.27 = private unnamed_addr constant [18 x i8] c"declare-datatypes\00", align 1
@.str.28 = private unnamed_addr constant [17 x i8] c"declare-datatype\00", align 1
@.str.29 = private unnamed_addr constant [4 x i8] c"par\00", align 1
@.str.30 = private unnamed_addr constant [5 x i8] c"push\00", align 1
@.str.31 = private unnamed_addr constant [4 x i8] c"pop\00", align 1
@.str.32 = private unnamed_addr constant [10 x i8] c"get-value\00", align 1
@.str.33 = private unnamed_addr constant [6 x i8] c"reset\00", align 1
@.str.34 = private unnamed_addr constant [19 x i8] c"check-sat-assuming\00", align 1
@.str.35 = private unnamed_addr constant [15 x i8] c"define-fun-rec\00", align 1
@.str.36 = private unnamed_addr constant [16 x i8] c"define-funs-rec\00", align 1
@.str.37 = private unnamed_addr constant [6 x i8] c"match\00", align 1
@.str.38 = private unnamed_addr constant [5 x i8] c"case\00", align 1
@.str.39 = private unnamed_addr constant [2 x i8] c"_\00", align 1
@.str.40 = private unnamed_addr constant [7 x i8] c"parser\00", align 1
@.str.41 = private unnamed_addr constant [21 x i8] c"ignore_user_patterns\00", align 1
@.str.42 = private unnamed_addr constant [20 x i8] c"ignore_bad_patterns\00", align 1
@.str.43 = private unnamed_addr constant [24 x i8] c"error_for_visual_studio\00", align 1
@_ZN8rational13g_mpq_managerE = external local_unnamed_addr global ptr, align 8
@.str.44 = private unnamed_addr constant [43 x i8] c"Overflow encountered when expanding vector\00", align 1
@_ZTI17default_exception = external constant ptr
@.str.45 = private unnamed_addr constant [50 x i8] c"basic_string: construction from null is not valid\00", align 1
@_ZTV17default_exception = external unnamed_addr constant { [6 x ptr] }, align 8
@_ZTVN10__cxxabiv120__si_class_type_infoE = external global [0 x ptr]
@_ZTS13cmd_exception = linkonce_odr hidden constant [16 x i8] c"13cmd_exception\00", comdat, align 1
@_ZTI13cmd_exception = linkonce_odr hidden constant { ptr, ptr, ptr } { ptr getelementptr inbounds (ptr, ptr @_ZTVN10__cxxabiv120__si_class_type_infoE, i64 2), ptr @_ZTS13cmd_exception, ptr @_ZTI17default_exception }, comdat, align 8
@_ZTI8z3_error = external constant ptr
@_ZTVN10__cxxabiv117__class_type_infoE = external global [0 x ptr]
@_ZTS21stop_parser_exception = linkonce_odr hidden constant [24 x i8] c"21stop_parser_exception\00", comdat, align 1
@_ZTI21stop_parser_exception = linkonce_odr hidden constant { ptr, ptr } { ptr getelementptr inbounds (ptr, ptr @_ZTVN10__cxxabiv117__class_type_infoE, i64 2), ptr @_ZTS21stop_parser_exception }, comdat, align 8
@_ZTS13ast_exception = linkonce_odr hidden constant [16 x i8] c"13ast_exception\00", comdat, align 1
@_ZTI13ast_exception = linkonce_odr hidden constant { ptr, ptr, ptr } { ptr getelementptr inbounds (ptr, ptr @_ZTVN10__cxxabiv120__si_class_type_infoE, i64 2), ptr @_ZTS13ast_exception, ptr @_ZTI17default_exception }, comdat, align 8
@_ZTI12z3_exception = external constant ptr
@.str.46 = private unnamed_addr constant [30 x i8] c"invalid command, '(' expected\00", align 1
@.str.47 = private unnamed_addr constant [14 x i8] c"(error \22line \00", align 1
@.str.48 = private unnamed_addr constant [9 x i8] c" column \00", align 1
@.str.49 = private unnamed_addr constant [3 x i8] c": \00", align 1
@.str.50 = private unnamed_addr constant [3 x i8] c"\22)\00", align 1
@.str.51 = private unnamed_addr constant [33 x i8] c"invalid command, symbol expected\00", align 1
@_ZN6symbol4nullE = external local_unnamed_addr global %class.symbol, align 8
@.str.52 = private unnamed_addr constant [56 x i8] c"invalid assert command, expression required as argument\00", align 1
@.str.53 = private unnamed_addr constant [44 x i8] c"invalid assert command, term is not Boolean\00", align 1
@.str.54 = private unnamed_addr constant [37 x i8] c"invalid assert command, ')' expected\00", align 1
@.str.55 = private unnamed_addr constant [35 x i8] c"invalid expression, unexpected ')'\00", align 1
@.str.56 = private unnamed_addr constant [39 x i8] c"invalid expression, unexpected keyword\00", align 1
@.str.57 = private unnamed_addr constant [37 x i8] c"invalid expression, unexpected input\00", align 1
@.str.58 = private unnamed_addr constant [115 x i8] c"generated/home/dtcxzyw/WorkSpace/Projects/compilers/llvm-opt-benchmark/bench/z3/z3/src/parsers/smt2/smt2parser.cpp\00", align 1
@.str.59 = private unnamed_addr constant [29 x i8] c"UNEXPECTED CODE WAS REACHED.\00", align 1
@.str.60 = private unnamed_addr constant [48 x i8] c"invalid function application, arguments missing\00", align 1
@.str.61 = private unnamed_addr constant [7 x i8] c"select\00", align 1
@_ZN6symbol7m_dummyE = external local_unnamed_addr global %class.symbol, align 8
@_ZN3app16g_constant_flagsE = external local_unnamed_addr global %struct.app_flags, align 4
@_ZTV11var_shifter = external unnamed_addr constant { [5 x ptr] }, align 8
@_ZTI13rewriter_core = external constant ptr
@.str.62 = private unnamed_addr constant [25 x i8] c"malformed let expression\00", align 1
@.str.63 = private unnamed_addr constant [23 x i8] c"invalid let expression\00", align 1
@.str.64 = private unnamed_addr constant [104 x i8] c"generated/home/dtcxzyw/WorkSpace/Projects/compilers/llvm-opt-benchmark/bench/z3/z3/src/util/hashtable.h\00", align 1
@.str.65 = private unnamed_addr constant [98 x i8] c"invalid quantified expression, syntax error: (forall|exists ((<symbol> <sort>)*) <expr>) expected\00", align 1
@.str.66 = private unnamed_addr constant [16 x i8] c"invalid pattern\00", align 1
@.str.67 = private unnamed_addr constant [45 x i8] c"quantifier body must be a Boolean expression\00", align 1
@.str.68 = private unnamed_addr constant [19 x i8] c"invalid expression\00", align 1
@.str.69 = private unnamed_addr constant [22 x i8] c"invalid empty pattern\00", align 1
@.str.70 = private unnamed_addr constant [48 x i8] c"invalid attributed expression, keyword expected\00", align 1
@.str.71 = private unnamed_addr constant [41 x i8] c"invalid attribute value, symbol expected\00", align 1
@.str.72 = private unnamed_addr constant [59 x i8] c"invalid labeled expression, expression must have Bool sort\00", align 1
@.str.73 = private unnamed_addr constant [43 x i8] c"invalid weight attribute, integer expected\00", align 1
@.str.74 = private unnamed_addr constant [19 x i8] c"unknown attribute \00", align 1
@.str.75 = private unnamed_addr constant [3 x i8] c"%s\00", align 1
@.str.76 = private unnamed_addr constant [61 x i8] c"invalid named expression, expression contains free variables\00", align 1
@.str.77 = private unnamed_addr constant [52 x i8] c"invalid attribute, not in the scope of a quantifier\00", align 1
@.str.78 = private unnamed_addr constant [83 x i8] c"invalid indexed identifier, index is too big to fit in an unsigned machine integer\00", align 1
@.str.79 = private unnamed_addr constant [37 x i8] c"invalid s-expression, unexpected ')'\00", align 1
@.str.80 = private unnamed_addr constant [45 x i8] c"invalid s-expression, unexpected end of file\00", align 1
@.str.81 = private unnamed_addr constant [39 x i8] c"invalid s-expression, unexpected input\00", align 1
@.str.82 = private unnamed_addr constant [5 x i8] c"null\00", align 1
@.str.83 = private unnamed_addr constant [3 x i8] c"k!\00", align 1
@.str.84 = private unnamed_addr constant [43 x i8] c"invalid expression, '(' or symbol expected\00", align 1
@.str.85 = private unnamed_addr constant [38 x i8] c"invalid let declaration, '(' expected\00", align 1
@.str.86 = private unnamed_addr constant [6 x i8] c" got \00", align 1
@_ZTV13cmd_exception = linkonce_odr hidden unnamed_addr constant { [6 x ptr] } { [6 x ptr] [ptr null, ptr @_ZTI13cmd_exception, ptr @_ZN13cmd_exceptionD2Ev, ptr @_ZN13cmd_exceptionD0Ev, ptr @_ZNK17default_exception3msgEv, ptr @_ZNK12z3_exception10error_codeEv] }, comdat, align 8
@.str.87 = private unnamed_addr constant [54 x i8] c"invalid quantifier, list of sorted variables is empty\00", align 1
@.str.88 = private unnamed_addr constant [47 x i8] c"invalid list of sorted variables, '(' expected\00", align 1
@.str.89 = private unnamed_addr constant [38 x i8] c"invalid sorted variable, '(' expected\00", align 1
@.str.90 = private unnamed_addr constant [41 x i8] c"invalid sorted variable, symbol expected\00", align 1
@.str.91 = private unnamed_addr constant [25 x i8] c"invalid sorted variables\00", align 1
@.str.92 = private unnamed_addr constant [38 x i8] c"invalid sorted variable, ')' expected\00", align 1
@.str.93 = private unnamed_addr constant [30 x i8] c" invalid sort, unexpected ')'\00", align 1
@.str.94 = private unnamed_addr constant [42 x i8] c"invalid sort, symbol, '_' or '(' expected\00", align 1
@.str.95 = private unnamed_addr constant [38 x i8] c" invalid sort, symbol or '_' expected\00", align 1
@.str.96 = private unnamed_addr constant [36 x i8] c"sort constructor expects parameters\00", align 1
@.str.97 = private unnamed_addr constant [25 x i8] c"invalid sort application\00", align 1
@.str.98 = private unnamed_addr constant [15 x i8] c"unknown sort '\00", align 1
@.str.99 = private unnamed_addr constant [2 x i8] c"'\00", align 1
@.str.100 = private unnamed_addr constant [49 x i8] c"invalid number of parameters to sort constructor\00", align 1
@.str.101 = private unnamed_addr constant [38 x i8] c"invalid indexed sort, symbol expected\00", align 1
@.str.102 = private unnamed_addr constant [1 x i8] zeroinitializer, align 1
@.str.103 = private unnamed_addr constant [46 x i8] c"invalid indexed sort, integer or ')' expected\00", align 1
@.str.104 = private unnamed_addr constant [58 x i8] c"invalid indexed identifier, symbol is a local declaration\00", align 1
@.str.105 = private unnamed_addr constant [44 x i8] c"invalid bit-vector constant, index expected\00", align 1
@.str.106 = private unnamed_addr constant [29 x i8] c"Invalid qualified identifier\00", align 1
@.str.107 = private unnamed_addr constant [43 x i8] c"invalid qualified identifier, ')' expected\00", align 1
@.str.108 = private unnamed_addr constant [41 x i8] c"invalid indexed identifier, '_' expected\00", align 1
@.str.109 = private unnamed_addr constant [44 x i8] c"invalid indexed identifier, symbol expected\00", align 1
@.str.110 = private unnamed_addr constant [64 x i8] c"invalid indexed identifier, integer, identifier or '(' expected\00", align 1
@.str.112 = private unnamed_addr constant [34 x i8] c"std::get: wrong index for variant\00", align 1
@_ZTSSt18bad_variant_access = linkonce_odr constant [23 x i8] c"St18bad_variant_access\00", comdat, align 1
@_ZTISt9exception = external constant ptr
@_ZTISt18bad_variant_access = linkonce_odr constant { ptr, ptr, ptr } { ptr getelementptr inbounds (ptr, ptr @_ZTVN10__cxxabiv120__si_class_type_infoE, i64 2), ptr @_ZTSSt18bad_variant_access, ptr @_ZTISt9exception }, comdat, align 8
@_ZTVSt18bad_variant_access = linkonce_odr unnamed_addr constant { [5 x ptr] } { [5 x ptr] [ptr null, ptr @_ZTISt18bad_variant_access, ptr @_ZNSt18bad_variant_accessD2Ev, ptr @_ZNSt18bad_variant_accessD0Ev, ptr @_ZNKSt18bad_variant_access4whatEv] }, comdat, align 8
@.str.113 = private unnamed_addr constant [63 x i8] c"invalid function declaration reference, symbol or '(' expected\00", align 1
@.str.114 = private unnamed_addr constant [61 x i8] c"invalid indexed function declaration reference, '_' expected\00", align 1
@.str.115 = private unnamed_addr constant [64 x i8] c"invalid indexed function declaration reference, symbol expected\00", align 1
@.str.116 = private unnamed_addr constant [72 x i8] c"invalid indexed function declaration reference, integer or ')' expected\00", align 1
@.str.117 = private unnamed_addr constant [63 x i8] c"invalid indexed function declaration reference, index expected\00", align 1
@.str.118 = private unnamed_addr constant [91 x i8] c"Invalid function name. Expecting sort list starting with '(' to disambiguate function name\00", align 1
@.str.119 = private unnamed_addr constant [22 x i8] c"Invalid function name\00", align 1
@.str.120 = private unnamed_addr constant [53 x i8] c"invalid function declaration reference, ')' expected\00", align 1
@.str.121 = private unnamed_addr constant [54 x i8] c"invalid (indexed) identifier, '(_' or symbol expected\00", align 1
@.str.122 = private unnamed_addr constant [44 x i8] c"invalid qualified identifier, sort mismatch\00", align 1
@.str.123 = private unnamed_addr constant [46 x i8] c"invalid root-obj, (unsigned) integer expected\00", align 1
@.str.124 = private unnamed_addr constant [64 x i8] c"invalid root-obj, index must fit in an unsigned machine integer\00", align 1
@.str.125 = private unnamed_addr constant [37 x i8] c"invalid root-obj, index must be >= 1\00", align 1
@.str.126 = private unnamed_addr constant [31 x i8] c"invalid root-obj, ')' expected\00", align 1
@.str.127 = private unnamed_addr constant [53 x i8] c"pattern bindings should be enclosed in a parenthesis\00", align 1
@.str.128 = private unnamed_addr constant [38 x i8] c"invalid pattern binding, ')' expected\00", align 1
@.str.129 = private unnamed_addr constant [38 x i8] c"invalid pattern binding, '(' expected\00", align 1
@.str.130 = private unnamed_addr constant [28 x i8] c"constructor symbol expected\00", align 1
@.str.131 = private unnamed_addr constant [25 x i8] c"variable symbol expected\00", align 1
@.str.132 = private unnamed_addr constant [51 x i8] c"unexpected repeated variable in pattern expression\00", align 1
@.str.133 = private unnamed_addr constant [64 x i8] c"expecting a constructor, _, variable or constructor application\00", align 1
@.str.134 = private unnamed_addr constant [47 x i8] c"expecting a constructor that has been declared\00", align 1
@.str.135 = private unnamed_addr constant [24 x i8] c"expecting a constructor\00", align 1
@.str.136 = private unnamed_addr constant [56 x i8] c"mismatching number of variables supplied to constructor\00", align 1
@_ZTV12beta_reducer = linkonce_odr hidden unnamed_addr constant { [4 x ptr] } { [4 x ptr] [ptr null, ptr @_ZTI12beta_reducer, ptr @_ZN12beta_reducerD2Ev, ptr @_ZN12beta_reducerD0Ev] }, comdat, align 8
@_ZTS12beta_reducer = linkonce_odr hidden constant [15 x i8] c"12beta_reducer\00", comdat, align 1
@_ZTS12rewriter_tplI16beta_reducer_cfgE = linkonce_odr hidden constant [35 x i8] c"12rewriter_tplI16beta_reducer_cfgE\00", comdat, align 1
@_ZTI12rewriter_tplI16beta_reducer_cfgE = linkonce_odr hidden constant { ptr, ptr, ptr } { ptr getelementptr inbounds (ptr, ptr @_ZTVN10__cxxabiv120__si_class_type_infoE, i64 2), ptr @_ZTS12rewriter_tplI16beta_reducer_cfgE, ptr @_ZTI13rewriter_core }, comdat, align 8
@_ZTI12beta_reducer = linkonce_odr hidden constant { ptr, ptr, ptr } { ptr getelementptr inbounds (ptr, ptr @_ZTVN10__cxxabiv120__si_class_type_infoE, i64 2), ptr @_ZTS12beta_reducer, ptr @_ZTI12rewriter_tplI16beta_reducer_cfgE }, comdat, align 8
@_ZTV12rewriter_tplI16beta_reducer_cfgE = linkonce_odr hidden unnamed_addr constant { [4 x ptr] } { [4 x ptr] [ptr null, ptr @_ZTI12rewriter_tplI16beta_reducer_cfgE, ptr @_ZN12rewriter_tplI16beta_reducer_cfgED2Ev, ptr @_ZN12rewriter_tplI16beta_reducer_cfgED0Ev] }, comdat, align 8
@.str.137 = private unnamed_addr constant [59 x i8] c"pattern matching is only supported for algebraic datatypes\00", align 1
@.str.138 = private unnamed_addr constant [29 x i8] c"non-exhaustive pattern match\00", align 1
@.str.139 = private unnamed_addr constant [44 x i8] c"a constructor is missing from pattern match\00", align 1
@.str.140 = private unnamed_addr constant [18 x i8] c"sorts of pattern \00", align 1
@.str.141 = private unnamed_addr constant [11 x i8] c" and term \00", align 1
@.str.142 = private unnamed_addr constant [17 x i8] c" are not aligned\00", align 1
@_ZTV15inv_var_shifter = external unnamed_addr constant { [5 x ptr] }, align 8
@.str.143 = private unnamed_addr constant [59 x i8] c"invalid qualified/indexed identifier, '_' or 'as' expected\00", align 1
@.str.144 = private unnamed_addr constant [4 x i8] c"seq\00", align 1
@.str.145 = private unnamed_addr constant [41 x i8] c"invalid let declaration, symbol expected\00", align 1
@.str.146 = private unnamed_addr constant [30 x i8] c"invalid pattern, '(' expected\00", align 1
@.str.147 = private unnamed_addr constant [25 x i8] c"invalid constant pattern\00", align 1
@.str.148 = private unnamed_addr constant [44 x i8] c"invalid pattern, '(' or identifier expected\00", align 1
@.str.149 = private unnamed_addr constant [26 x i8] c"vector::_M_realloc_insert\00", align 1
@.str.150 = private unnamed_addr constant [8 x i8] c"success\00", align 1
@.str.151 = private unnamed_addr constant [46 x i8] c"invalid function declaration, symbol expected\00", align 1
@.str.152 = private unnamed_addr constant [54 x i8] c"Parsing function declaration. Expecting sort list '('\00", align 1
@.str.153 = private unnamed_addr constant [29 x i8] c"Invalid function declaration\00", align 1
@.str.154 = private unnamed_addr constant [43 x i8] c"invalid function declaration, ')' expected\00", align 1
@.str.155 = private unnamed_addr constant [46 x i8] c"invalid constant declaration, symbol expected\00", align 1
@.str.156 = private unnamed_addr constant [29 x i8] c"Invalid constant declaration\00", align 1
@.str.157 = private unnamed_addr constant [43 x i8] c"invalid constant declaration, ')' expected\00", align 1
@.str.158 = private unnamed_addr constant [62 x i8] c"invalid check-sat command, argument must be a Boolean literal\00", align 1
@.str.159 = private unnamed_addr constant [35 x i8] c"invalid push command, ')' expected\00", align 1
@.str.160 = private unnamed_addr constant [39 x i8] c"invalid push command, integer expected\00", align 1
@.str.161 = private unnamed_addr constant [41 x i8] c"invalid push command, value is negative.\00", align 1
@.str.162 = private unnamed_addr constant [77 x i8] c"invalid push command, value is too big to fit in an unsigned machine integer\00", align 1
@.str.163 = private unnamed_addr constant [34 x i8] c"invalid pop command, ')' expected\00", align 1
@.str.164 = private unnamed_addr constant [54 x i8] c"invalid function/constant definition, symbol expected\00", align 1
@.str.165 = private unnamed_addr constant [28 x i8] c"Invalid function definition\00", align 1
@.str.166 = private unnamed_addr constant [52 x i8] c"invalid function/constant definition, sort mismatch\00", align 1
@.str.167 = private unnamed_addr constant [51 x i8] c"invalid function/constant definition, ')' expected\00", align 1
@.str.168 = private unnamed_addr constant [45 x i8] c"invalid constant definition, symbol expected\00", align 1
@.str.169 = private unnamed_addr constant [28 x i8] c"Invalid constant definition\00", align 1
@.str.170 = private unnamed_addr constant [43 x i8] c"invalid constant definition, sort mismatch\00", align 1
@.str.171 = private unnamed_addr constant [42 x i8] c"invalid constant definition, ')' expected\00", align 1
@.str.172 = private unnamed_addr constant [41 x i8] c"invalid sort definition, symbol expected\00", align 1
@.str.173 = private unnamed_addr constant [55 x i8] c"invalid sort definition, sort already declared/defined\00", align 1
@.str.174 = private unnamed_addr constant [38 x i8] c"invalid sort definition, ')' expected\00", align 1
@.str.175 = private unnamed_addr constant [45 x i8] c"invalid sort declaration, parameters missing\00", align 1
@.str.176 = private unnamed_addr constant [47 x i8] c"invalid sort parameter, symbol or ')' expected\00", align 1
@.str.177 = private unnamed_addr constant [29 x i8] c"invalid sort, unexpected ')'\00", align 1
@.str.178 = private unnamed_addr constant [37 x i8] c"invalid sort, symbol or '_' expected\00", align 1
@.str.179 = private unnamed_addr constant [42 x i8] c"invalid sort declaration, symbol expected\00", align 1
@.str.180 = private unnamed_addr constant [56 x i8] c"invalid sort declaration, sort already declared/defined\00", align 1
@.str.181 = private unnamed_addr constant [60 x i8] c"invalid sort declaration, arity (<numeral>) or ')' expected\00", align 1
@.str.182 = private unnamed_addr constant [39 x i8] c"invalid sort declaration, ')' expected\00", align 1
@.str.183 = private unnamed_addr constant [43 x i8] c"invalid datatype declaration, '(' expected\00", align 1
@.str.184 = private unnamed_addr constant [64 x i8] c"invalid datatype declaration, too many data-type bodies defined\00", align 1
@.str.185 = private unnamed_addr constant [50 x i8] c"invalid datatype declaration, '(' or ')' expected\00", align 1
@.str.186 = private unnamed_addr constant [62 x i8] c"invalid datatype declaration, symbol (datatype name) expected\00", align 1
@.str.187 = private unnamed_addr constant [43 x i8] c"invalid datatype declaration, ')' expected\00", align 1
@.str.188 = private unnamed_addr constant [86 x i8] c"invalid datatype declaration, too few datatype definitions compared to declared sorts\00", align 1
@.str.189 = private unnamed_addr constant [29 x i8] c"invalid datatype declaration\00", align 1
@.str.190 = private unnamed_addr constant [45 x i8] c"invalid datatype declaration, unknown sort '\00", align 1
@.str.191 = private unnamed_addr constant [39 x i8] c"invalid sort declaration, '(' expected\00", align 1
@.str.192 = private unnamed_addr constant [39 x i8] c"invalid sort name, identified expected\00", align 1
@.str.193 = private unnamed_addr constant [41 x i8] c"invalid sort declaration, arity expected\00", align 1
@.str.194 = private unnamed_addr constant [56 x i8] c"invalid constructor declaration after par, '(' expected\00", align 1
@.str.195 = private unnamed_addr constant [4 x i8] c"is-\00", align 1
@.str.196 = private unnamed_addr constant [68 x i8] c"invalid constructor declaration, symbol (constructor name) expected\00", align 1
@.str.197 = private unnamed_addr constant [46 x i8] c"invalid constructor declaration, ')' expected\00", align 1
@.str.198 = private unnamed_addr constant [70 x i8] c"invalid datatype declaration, datatype does not have any constructors\00", align 1
@.str.199 = private unnamed_addr constant [62 x i8] c"invalid accessor declaration, symbol (accessor name) expected\00", align 1
@.str.200 = private unnamed_addr constant [43 x i8] c"invalid accessor declaration, ')' expected\00", align 1
@.str.201 = private unnamed_addr constant [61 x i8] c"invalid datatype declaration, repeated accessor identifier '\00", align 1
@.str.202 = private unnamed_addr constant [39 x i8] c"unexpected token used as datatype name\00", align 1
@.str.203 = private unnamed_addr constant [50 x i8] c"invalid end of datatype declaration, ')' expected\00", align 1
@.str.204 = private unnamed_addr constant [40 x i8] c"invalid get-value command, '(' expected\00", align 1
@.str.205 = private unnamed_addr constant [47 x i8] c"invalid get-value command, empty list of terms\00", align 1
@.str.206 = private unnamed_addr constant [13 x i8] c":model-index\00", align 1
@.str.207 = private unnamed_addr constant [13 x i8] c":model_index\00", align 1
@.str.208 = private unnamed_addr constant [51 x i8] c"integer index expected to indexed model evaluation\00", align 1
@.str.209 = private unnamed_addr constant [40 x i8] c"invalid get-value command, ')' expected\00", align 1
@.str.210 = private unnamed_addr constant [23 x i8] c"model is not available\00", align 1
@.str.211 = private unnamed_addr constant [2 x i8] c"(\00", align 1
@.str.212 = private unnamed_addr constant [3 x i8] c"\0A \00", align 1
@.str.213 = private unnamed_addr constant [2 x i8] c" \00", align 1
@.str.214 = private unnamed_addr constant [2 x i8] c")\00", align 1
@.str.216 = private unnamed_addr constant [36 x i8] c"invalid reset command, ')' expected\00", align 1
@.str.217 = private unnamed_addr constant [50 x i8] c"invalid check-sat-assuming command, '(', expected\00", align 1
@.str.218 = private unnamed_addr constant [50 x i8] c"invalid check-sat-assuming command, ')', expected\00", align 1
@.str.219 = private unnamed_addr constant [38 x i8] c"Invalid recursive function definition\00", align 1
@.str.220 = private unnamed_addr constant [55 x i8] c"invalid function definition, sort mismatch. Expcected \00", align 1
@.str.221 = private unnamed_addr constant [29 x i8] c" but function body has sort \00", align 1
@.str.222 = private unnamed_addr constant [52 x i8] c"invalid recursive function definition, '(' expected\00", align 1
@.str.223 = private unnamed_addr constant [52 x i8] c"invalid recursive function definition, ')' expected\00", align 1
@.str.224 = private unnamed_addr constant [73 x i8] c"the number of declarations does not match number of supplied definitions\00", align 1
@.str.225 = private unnamed_addr constant [32 x i8] c"invalid model-del, ')' expected\00", align 1
@.str.226 = private unnamed_addr constant [37 x i8] c"invalid command, argument(s) missing\00", align 1
@.str.227 = private unnamed_addr constant [11 x i8] c"set_option\00", align 1
@.str.228 = private unnamed_addr constant [36 x i8] c"invalid command, too many arguments\00", align 1
@.str.229 = private unnamed_addr constant [12 x i8] c"unsupported\00", align 1
@.str.230 = private unnamed_addr constant [3 x i8] c"; \00", align 1
@.str.231 = private unnamed_addr constant [8 x i8] c" line: \00", align 1
@.str.232 = private unnamed_addr constant [12 x i8] c" position: \00", align 1
@.str.233 = private unnamed_addr constant [52 x i8] c"invalid command argument, unsigned integer expected\00", align 1
@.str.234 = private unnamed_addr constant [46 x i8] c"invalid command argument, true/false expected\00", align 1
@.str.235 = private unnamed_addr constant [5 x i8] c"true\00", align 1
@.str.236 = private unnamed_addr constant [6 x i8] c"false\00", align 1
@.str.237 = private unnamed_addr constant [43 x i8] c"invalid command argument, numeral expected\00", align 1
@.str.238 = private unnamed_addr constant [43 x i8] c"invalid command argument, decimal expected\00", align 1
@.str.239 = private unnamed_addr constant [42 x i8] c"invalid command argument, string expected\00", align 1
@.str.240 = private unnamed_addr constant [43 x i8] c"invalid command argument, keyword expected\00", align 1
@.str.241 = private unnamed_addr constant [42 x i8] c"invalid command argument, symbol expected\00", align 1
@.str.242 = private unnamed_addr constant [40 x i8] c"invalid command argument, sort expected\00", align 1
@.str.243 = private unnamed_addr constant [38 x i8] c"expecting sort list starting with '('\00", align 1
@.str.244 = private unnamed_addr constant [21 x i8] c"NOT IMPLEMENTED YET!\00", align 1
@.str.245 = private unnamed_addr constant [28 x i8] c"invalid/unexpected argument\00", align 1
@.str.246 = private unnamed_addr constant [20 x i8] c"unexpected argument\00", align 1
@.str.247 = private unnamed_addr constant [21 x i8] c"invalid option value\00", align 1
@.str.248 = private unnamed_addr constant [38 x i8] c"invalid list of symbols, '(' expected\00", align 1
@.str.249 = private unnamed_addr constant [48 x i8] c"invalid list of symbols, symbol or ')' expected\00", align 1
@.str.250 = private unnamed_addr constant [36 x i8] c"invalid list of terms, '(' expected\00", align 1
@.str.251 = private unnamed_addr constant [62 x i8] c"invalid list of function declaration references, '(' expected\00", align 1
@.str.252 = private unnamed_addr constant [4 x i8] c"Z3(\00", align 1
@.str.253 = private unnamed_addr constant [3 x i8] c", \00", align 1
@.str.254 = private unnamed_addr constant [11 x i8] c"): ERROR: \00", align 1
@.str.255 = private unnamed_addr constant [9 x i8] c"(error \22\00", align 1
@.str.256 = private unnamed_addr constant [6 x i8] c"line \00", align 1
@llvm.global_ctors = appending global [1 x { i32, ptr, ptr }] [{ i32, ptr, ptr } { i32 65535, ptr @_GLOBAL__sub_I_smt2parser.cpp, ptr null }]

declare void @_ZNSt8ios_base4InitC1Ev(ptr noundef nonnull align 1 dereferenceable(1)) unnamed_addr #0

; Function Attrs: nounwind
declare void @_ZNSt8ios_base4InitD1Ev(ptr noundef nonnull align 1 dereferenceable(1)) unnamed_addr #1

; Function Attrs: nofree nounwind
declare i32 @__cxa_atexit(ptr, ptr, ptr) local_unnamed_addr #2

; Function Attrs: mustprogress uwtable
define hidden void @_ZN4smt211free_parserEPNS_6parserE(ptr noundef %p) local_unnamed_addr #3 {
entry:
  %cmp.i = icmp eq ptr %p, null
  br i1 %cmp.i, label %_Z7deallocIN4smt26parserEEvPT_.exit, label %if.end.i

if.end.i:                                         ; preds = %entry
  tail call void @_ZN4smt26parserD2Ev(ptr noundef nonnull align 8 dereferenceable(2168) %p) #19
  tail call void @_ZN6memory10deallocateEPv(ptr noundef nonnull %p)
  br label %_Z7deallocIN4smt26parserEEvPT_.exit

_Z7deallocIN4smt26parserEEvPT_.exit:              ; preds = %entry, %if.end.i
  ret void
}

; Function Attrs: mustprogress uwtable
define hidden noundef zeroext i1 @_Z19parse_smt2_commandsR11cmd_contextRSibRK10params_refPKc(ptr noundef nonnull align 8 dereferenceable(872) %ctx, ptr noundef nonnull align 8 dereferenceable(16) %is, i1 noundef zeroext %interactive, ptr noundef nonnull align 8 dereferenceable(8) %ps, ptr noundef %filename) local_unnamed_addr #3 personality ptr @__gxx_personality_v0 {
entry:
  %p = alloca %"class.smt2::parser", align 8
  call void @_ZN4smt26parserC2ER11cmd_contextRSibRK10params_refPKc(ptr noundef nonnull align 8 dereferenceable(2168) %p, ptr noundef nonnull align 8 dereferenceable(872) %ctx, ptr noundef nonnull align 8 dereferenceable(16) %is, i1 noundef zeroext %interactive, ptr noundef nonnull align 8 dereferenceable(8) %ps, ptr noundef %filename)
  %call = invoke noundef zeroext i1 @_ZN4smt26parserclEv(ptr noundef nonnull align 8 dereferenceable(2168) %p)
          to label %invoke.cont unwind label %lpad

invoke.cont:                                      ; preds = %entry
  call void @_ZN4smt26parserD2Ev(ptr noundef nonnull align 8 dereferenceable(2168) %p) #19
  ret i1 %call

lpad:                                             ; preds = %entry
  %0 = landingpad { ptr, i32 }
          cleanup
  call void @_ZN4smt26parserD2Ev(ptr noundef nonnull align 8 dereferenceable(2168) %p) #19
  resume { ptr, i32 } %0
}

; Function Attrs: mustprogress uwtable
define linkonce_odr hidden void @_ZN4smt26parserC2ER11cmd_contextRSibRK10params_refPKc(ptr noundef nonnull align 8 dereferenceable(2168) %this, ptr noundef nonnull align 8 dereferenceable(872) %ctx, ptr noundef nonnull align 8 dereferenceable(16) %is, i1 noundef zeroext %interactive, ptr noundef nonnull align 8 dereferenceable(8) %p, ptr noundef %filename) unnamed_addr #3 comdat align 2 personality ptr @__gxx_personality_v0 {
entry:
  store ptr %ctx, ptr %this, align 8
  %m_params = getelementptr inbounds %"class.smt2::parser", ptr %this, i64 0, i32 1
  tail call void @_ZN10params_refC1ERKS_(ptr noundef nonnull align 8 dereferenceable(8) %m_params, ptr noundef nonnull align 8 dereferenceable(8) %p)
  %m_scanner = getelementptr inbounds %"class.smt2::parser", ptr %this, i64 0, i32 2
  invoke void @_ZN4smt27scannerC1ER11cmd_contextRSib(ptr noundef nonnull align 8 dereferenceable(1408) %m_scanner, ptr noundef nonnull align 8 dereferenceable(872) %ctx, ptr noundef nonnull align 8 dereferenceable(16) %is, i1 noundef zeroext %interactive)
          to label %invoke.cont unwind label %lpad

invoke.cont:                                      ; preds = %entry
  %m_curr = getelementptr inbounds %"class.smt2::parser", ptr %this, i64 0, i32 3
  store i32 0, ptr %m_curr, align 8
  %m_curr_cmd = getelementptr inbounds %"class.smt2::parser", ptr %this, i64 0, i32 4
  store ptr null, ptr %m_curr_cmd, align 8
  %m_stack = getelementptr inbounds %"class.smt2::parser", ptr %this, i64 0, i32 5
  invoke void @_ZN5stackC1Ev(ptr noundef nonnull align 8 dereferenceable(32) %m_stack)
          to label %invoke.cont3 unwind label %lpad2

invoke.cont3:                                     ; preds = %invoke.cont
  %m_env = getelementptr inbounds %"class.smt2::parser", ptr %this, i64 0, i32 6
  %call.i.i.i.i10 = invoke noalias noundef ptr @_ZN6memory8allocateEm(i64 noundef 192)
          to label %for.body.i.i.i.i unwind label %lpad4

for.body.i.i.i.i:                                 ; preds = %invoke.cont3, %for.body.i.i.i.i
  %i.07.i.i.i.i = phi i32 [ %inc.i.i.i.i, %for.body.i.i.i.i ], [ 0, %invoke.cont3 ]
  %curr.06.i.i.i.i = phi ptr [ %incdec.ptr.i.i.i.i, %for.body.i.i.i.i ], [ %call.i.i.i.i10, %invoke.cont3 ]
  tail call void @llvm.memset.p0.i64(ptr noundef nonnull align 8 dereferenceable(20) %curr.06.i.i.i.i, i8 0, i64 20, i1 false)
  %inc.i.i.i.i = add nuw nsw i32 %i.07.i.i.i.i, 1
  %incdec.ptr.i.i.i.i = getelementptr inbounds %"struct.symbol_table<smt2::parser::local>::hash_entry", ptr %curr.06.i.i.i.i, i64 1
  %exitcond.not.i.i.i.i = icmp eq i32 %inc.i.i.i.i, 8
  br i1 %exitcond.not.i.i.i.i, label %invoke.cont5, label %for.body.i.i.i.i, !llvm.loop !4

invoke.cont5:                                     ; preds = %for.body.i.i.i.i
  store ptr %call.i.i.i.i10, ptr %m_env, align 8
  %m_capacity.i.i = getelementptr inbounds %"class.smt2::parser", ptr %this, i64 0, i32 6, i32 0, i32 1
  store i32 8, ptr %m_capacity.i.i, align 8
  %m_size.i.i = getelementptr inbounds %"class.smt2::parser", ptr %this, i64 0, i32 6, i32 0, i32 2
  store i32 0, ptr %m_size.i.i, align 4
  %m_num_deleted.i.i = getelementptr inbounds %"class.smt2::parser", ptr %this, i64 0, i32 6, i32 0, i32 3
  store i32 0, ptr %m_num_deleted.i.i, align 8
  %m_trail_stack.i = getelementptr inbounds %"class.smt2::parser", ptr %this, i64 0, i32 6, i32 1
  %m_sort_id2param_idx = getelementptr inbounds %"class.smt2::parser", ptr %this, i64 0, i32 9
  tail call void @llvm.memset.p0.i64(ptr noundef nonnull align 8 dereferenceable(20) %m_trail_stack.i, i8 0, i64 20, i1 false)
  %call.i.i.i.i.i11 = invoke noalias noundef ptr @_ZN6memory8allocateEm(i64 noundef 192)
          to label %invoke.cont8 unwind label %lpad7

invoke.cont8:                                     ; preds = %invoke.cont5
  tail call void @llvm.memset.p0.i64(ptr noundef nonnull align 8 dereferenceable(192) %call.i.i.i.i.i11, i8 0, i64 192, i1 false)
  store ptr %call.i.i.i.i.i11, ptr %m_sort_id2param_idx, align 8
  %m_capacity.i.i.i = getelementptr inbounds %"class.smt2::parser", ptr %this, i64 0, i32 9, i32 0, i32 0, i32 1
  store i32 8, ptr %m_capacity.i.i.i, align 8
  %m_size.i.i.i = getelementptr inbounds %"class.smt2::parser", ptr %this, i64 0, i32 9, i32 0, i32 0, i32 2
  store i32 0, ptr %m_size.i.i.i, align 4
  %m_num_deleted.i.i.i = getelementptr inbounds %"class.smt2::parser", ptr %this, i64 0, i32 9, i32 0, i32 0, i32 3
  store i32 0, ptr %m_num_deleted.i.i.i, align 8
  %m_dt_name2idx = getelementptr inbounds %"class.smt2::parser", ptr %this, i64 0, i32 10
  %call.i.i.i.i.i15 = invoke noalias noundef ptr @_ZN6memory8allocateEm(i64 noundef 192)
          to label %invoke.cont12 unwind label %lpad11

invoke.cont12:                                    ; preds = %invoke.cont8
  tail call void @llvm.memset.p0.i64(ptr noundef nonnull align 8 dereferenceable(192) %call.i.i.i.i.i15, i8 0, i64 192, i1 false)
  store ptr %call.i.i.i.i.i15, ptr %m_dt_name2idx, align 8
  %m_capacity.i.i.i12 = getelementptr inbounds %"class.smt2::parser", ptr %this, i64 0, i32 10, i32 0, i32 0, i32 1
  store i32 8, ptr %m_capacity.i.i.i12, align 8
  %m_size.i.i.i13 = getelementptr inbounds %"class.smt2::parser", ptr %this, i64 0, i32 10, i32 0, i32 0, i32 2
  store i32 0, ptr %m_size.i.i.i13, align 4
  %m_num_deleted.i.i.i14 = getelementptr inbounds %"class.smt2::parser", ptr %this, i64 0, i32 10, i32 0, i32 0, i32 3
  store i32 0, ptr %m_num_deleted.i.i.i14, align 8
  %m_dt_name2arity = getelementptr inbounds %"class.smt2::parser", ptr %this, i64 0, i32 11
  %call.i.i.i.i.i20 = invoke noalias noundef ptr @_ZN6memory8allocateEm(i64 noundef 192)
          to label %invoke.cont16 unwind label %lpad15

invoke.cont16:                                    ; preds = %invoke.cont12
  tail call void @llvm.memset.p0.i64(ptr noundef nonnull align 8 dereferenceable(192) %call.i.i.i.i.i20, i8 0, i64 192, i1 false)
  store ptr %call.i.i.i.i.i20, ptr %m_dt_name2arity, align 8
  %m_capacity.i.i.i17 = getelementptr inbounds %"class.smt2::parser", ptr %this, i64 0, i32 11, i32 0, i32 0, i32 1
  store i32 8, ptr %m_capacity.i.i.i17, align 8
  %m_size.i.i.i18 = getelementptr inbounds %"class.smt2::parser", ptr %this, i64 0, i32 11, i32 0, i32 0, i32 2
  store i32 0, ptr %m_size.i.i.i18, align 4
  %m_num_deleted.i.i.i19 = getelementptr inbounds %"class.smt2::parser", ptr %this, i64 0, i32 11, i32 0, i32 0, i32 3
  store i32 0, ptr %m_num_deleted.i.i.i19, align 8
  %m_dt_names = getelementptr inbounds %"class.smt2::parser", ptr %this, i64 0, i32 12
  %m_psort_stack = getelementptr inbounds %"class.smt2::parser", ptr %this, i64 0, i32 13
  %m_sort_stack = getelementptr inbounds %"class.smt2::parser", ptr %this, i64 0, i32 14
  %m_expr_stack = getelementptr inbounds %"class.smt2::parser", ptr %this, i64 0, i32 15
  %m_pattern_stack = getelementptr inbounds %"class.smt2::parser", ptr %this, i64 0, i32 17
  %m_nopattern_stack = getelementptr inbounds %"class.smt2::parser", ptr %this, i64 0, i32 18
  %m_symbol_stack = getelementptr inbounds %"class.smt2::parser", ptr %this, i64 0, i32 19
  %m_param_stack = getelementptr inbounds %"class.smt2::parser", ptr %this, i64 0, i32 20
  %m_sexpr_stack = getelementptr inbounds %"class.smt2::parser", ptr %this, i64 0, i32 21
  %m_bv_util = getelementptr inbounds %"class.smt2::parser", ptr %this, i64 0, i32 22
  %m_arith_util = getelementptr inbounds %"class.smt2::parser", ptr %this, i64 0, i32 23
  %m_datatype_util = getelementptr inbounds %"class.smt2::parser", ptr %this, i64 0, i32 24
  %m_seq_util = getelementptr inbounds %"class.smt2::parser", ptr %this, i64 0, i32 25
  %m_pattern_validator = getelementptr inbounds %"class.smt2::parser", ptr %this, i64 0, i32 26
  %m_var_shifter = getelementptr inbounds %"class.smt2::parser", ptr %this, i64 0, i32 27
  %m_let = getelementptr inbounds %"class.smt2::parser", ptr %this, i64 0, i32 28
  tail call void @llvm.memset.p0.i64(ptr noundef nonnull align 8 dereferenceable(32) %m_dt_names, i8 0, i64 32, i1 false)
  tail call void @llvm.memset.p0.i64(ptr noundef nonnull align 8 dereferenceable(88) %m_pattern_stack, i8 0, i64 88, i1 false)
  invoke void @_ZN6symbolC1EPKc(ptr noundef nonnull align 8 dereferenceable(8) %m_let, ptr noundef nonnull @.str)
          to label %invoke.cont46 unwind label %lpad45

invoke.cont46:                                    ; preds = %invoke.cont16
  %m_bang = getelementptr inbounds %"class.smt2::parser", ptr %this, i64 0, i32 29
  invoke void @_ZN6symbolC1EPKc(ptr noundef nonnull align 8 dereferenceable(8) %m_bang, ptr noundef nonnull @.str.1)
          to label %invoke.cont47 unwind label %lpad45

invoke.cont47:                                    ; preds = %invoke.cont46
  %m_forall = getelementptr inbounds %"class.smt2::parser", ptr %this, i64 0, i32 30
  invoke void @_ZN6symbolC1EPKc(ptr noundef nonnull align 8 dereferenceable(8) %m_forall, ptr noundef nonnull @.str.2)
          to label %invoke.cont48 unwind label %lpad45

invoke.cont48:                                    ; preds = %invoke.cont47
  %m_exists = getelementptr inbounds %"class.smt2::parser", ptr %this, i64 0, i32 31
  invoke void @_ZN6symbolC1EPKc(ptr noundef nonnull align 8 dereferenceable(8) %m_exists, ptr noundef nonnull @.str.3)
          to label %invoke.cont49 unwind label %lpad45

invoke.cont49:                                    ; preds = %invoke.cont48
  %m_lambda = getelementptr inbounds %"class.smt2::parser", ptr %this, i64 0, i32 32
  invoke void @_ZN6symbolC1EPKc(ptr noundef nonnull align 8 dereferenceable(8) %m_lambda, ptr noundef nonnull @.str.4)
          to label %invoke.cont50 unwind label %lpad45

invoke.cont50:                                    ; preds = %invoke.cont49
  %m_as = getelementptr inbounds %"class.smt2::parser", ptr %this, i64 0, i32 33
  invoke void @_ZN6symbolC1EPKc(ptr noundef nonnull align 8 dereferenceable(8) %m_as, ptr noundef nonnull @.str.5)
          to label %invoke.cont51 unwind label %lpad45

invoke.cont51:                                    ; preds = %invoke.cont50
  %m_not = getelementptr inbounds %"class.smt2::parser", ptr %this, i64 0, i32 34
  invoke void @_ZN6symbolC1EPKc(ptr noundef nonnull align 8 dereferenceable(8) %m_not, ptr noundef nonnull @.str.6)
          to label %invoke.cont52 unwind label %lpad45

invoke.cont52:                                    ; preds = %invoke.cont51
  %m_root_obj = getelementptr inbounds %"class.smt2::parser", ptr %this, i64 0, i32 35
  invoke void @_ZN6symbolC1EPKc(ptr noundef nonnull align 8 dereferenceable(8) %m_root_obj, ptr noundef nonnull @.str.7)
          to label %invoke.cont53 unwind label %lpad45

invoke.cont53:                                    ; preds = %invoke.cont52
  %m_named = getelementptr inbounds %"class.smt2::parser", ptr %this, i64 0, i32 36
  invoke void @_ZN6symbolC1EPKc(ptr noundef nonnull align 8 dereferenceable(8) %m_named, ptr noundef nonnull @.str.8)
          to label %invoke.cont54 unwind label %lpad45

invoke.cont54:                                    ; preds = %invoke.cont53
  %m_weight = getelementptr inbounds %"class.smt2::parser", ptr %this, i64 0, i32 37
  invoke void @_ZN6symbolC1EPKc(ptr noundef nonnull align 8 dereferenceable(8) %m_weight, ptr noundef nonnull @.str.9)
          to label %invoke.cont55 unwind label %lpad45

invoke.cont55:                                    ; preds = %invoke.cont54
  %m_qid = getelementptr inbounds %"class.smt2::parser", ptr %this, i64 0, i32 38
  invoke void @_ZN6symbolC1EPKc(ptr noundef nonnull align 8 dereferenceable(8) %m_qid, ptr noundef nonnull @.str.10)
          to label %invoke.cont56 unwind label %lpad45

invoke.cont56:                                    ; preds = %invoke.cont55
  %m_skid = getelementptr inbounds %"class.smt2::parser", ptr %this, i64 0, i32 39
  invoke void @_ZN6symbolC1EPKc(ptr noundef nonnull align 8 dereferenceable(8) %m_skid, ptr noundef nonnull @.str.11)
          to label %invoke.cont57 unwind label %lpad45

invoke.cont57:                                    ; preds = %invoke.cont56
  %m_pattern = getelementptr inbounds %"class.smt2::parser", ptr %this, i64 0, i32 40
  invoke void @_ZN6symbolC1EPKc(ptr noundef nonnull align 8 dereferenceable(8) %m_pattern, ptr noundef nonnull @.str.12)
          to label %invoke.cont58 unwind label %lpad45

invoke.cont58:                                    ; preds = %invoke.cont57
  %m_nopattern = getelementptr inbounds %"class.smt2::parser", ptr %this, i64 0, i32 41
  invoke void @_ZN6symbolC1EPKc(ptr noundef nonnull align 8 dereferenceable(8) %m_nopattern, ptr noundef nonnull @.str.13)
          to label %invoke.cont59 unwind label %lpad45

invoke.cont59:                                    ; preds = %invoke.cont58
  %m_lblneg = getelementptr inbounds %"class.smt2::parser", ptr %this, i64 0, i32 42
  invoke void @_ZN6symbolC1EPKc(ptr noundef nonnull align 8 dereferenceable(8) %m_lblneg, ptr noundef nonnull @.str.14)
          to label %invoke.cont60 unwind label %lpad45

invoke.cont60:                                    ; preds = %invoke.cont59
  %m_lblpos = getelementptr inbounds %"class.smt2::parser", ptr %this, i64 0, i32 43
  invoke void @_ZN6symbolC1EPKc(ptr noundef nonnull align 8 dereferenceable(8) %m_lblpos, ptr noundef nonnull @.str.15)
          to label %invoke.cont61 unwind label %lpad45

invoke.cont61:                                    ; preds = %invoke.cont60
  %m_assert = getelementptr inbounds %"class.smt2::parser", ptr %this, i64 0, i32 44
  invoke void @_ZN6symbolC1EPKc(ptr noundef nonnull align 8 dereferenceable(8) %m_assert, ptr noundef nonnull @.str.16)
          to label %invoke.cont62 unwind label %lpad45

invoke.cont62:                                    ; preds = %invoke.cont61
  %m_check_sat = getelementptr inbounds %"class.smt2::parser", ptr %this, i64 0, i32 45
  invoke void @_ZN6symbolC1EPKc(ptr noundef nonnull align 8 dereferenceable(8) %m_check_sat, ptr noundef nonnull @.str.17)
          to label %invoke.cont63 unwind label %lpad45

invoke.cont63:                                    ; preds = %invoke.cont62
  %m_define_fun = getelementptr inbounds %"class.smt2::parser", ptr %this, i64 0, i32 46
  invoke void @_ZN6symbolC1EPKc(ptr noundef nonnull align 8 dereferenceable(8) %m_define_fun, ptr noundef nonnull @.str.18)
          to label %invoke.cont64 unwind label %lpad45

invoke.cont64:                                    ; preds = %invoke.cont63
  %m_define_const = getelementptr inbounds %"class.smt2::parser", ptr %this, i64 0, i32 47
  invoke void @_ZN6symbolC1EPKc(ptr noundef nonnull align 8 dereferenceable(8) %m_define_const, ptr noundef nonnull @.str.19)
          to label %invoke.cont65 unwind label %lpad45

invoke.cont65:                                    ; preds = %invoke.cont64
  %m_model_add = getelementptr inbounds %"class.smt2::parser", ptr %this, i64 0, i32 48
  invoke void @_ZN6symbolC1EPKc(ptr noundef nonnull align 8 dereferenceable(8) %m_model_add, ptr noundef nonnull @.str.20)
          to label %invoke.cont66 unwind label %lpad45

invoke.cont66:                                    ; preds = %invoke.cont65
  %m_model_del = getelementptr inbounds %"class.smt2::parser", ptr %this, i64 0, i32 49
  invoke void @_ZN6symbolC1EPKc(ptr noundef nonnull align 8 dereferenceable(8) %m_model_del, ptr noundef nonnull @.str.21)
          to label %invoke.cont67 unwind label %lpad45

invoke.cont67:                                    ; preds = %invoke.cont66
  %m_declare_fun = getelementptr inbounds %"class.smt2::parser", ptr %this, i64 0, i32 50
  invoke void @_ZN6symbolC1EPKc(ptr noundef nonnull align 8 dereferenceable(8) %m_declare_fun, ptr noundef nonnull @.str.22)
          to label %invoke.cont68 unwind label %lpad45

invoke.cont68:                                    ; preds = %invoke.cont67
  %m_declare_const = getelementptr inbounds %"class.smt2::parser", ptr %this, i64 0, i32 51
  invoke void @_ZN6symbolC1EPKc(ptr noundef nonnull align 8 dereferenceable(8) %m_declare_const, ptr noundef nonnull @.str.23)
          to label %invoke.cont69 unwind label %lpad45

invoke.cont69:                                    ; preds = %invoke.cont68
  %m_define_sort = getelementptr inbounds %"class.smt2::parser", ptr %this, i64 0, i32 52
  invoke void @_ZN6symbolC1EPKc(ptr noundef nonnull align 8 dereferenceable(8) %m_define_sort, ptr noundef nonnull @.str.24)
          to label %invoke.cont70 unwind label %lpad45

invoke.cont70:                                    ; preds = %invoke.cont69
  %m_declare_sort = getelementptr inbounds %"class.smt2::parser", ptr %this, i64 0, i32 53
  invoke void @_ZN6symbolC1EPKc(ptr noundef nonnull align 8 dereferenceable(8) %m_declare_sort, ptr noundef nonnull @.str.25)
          to label %invoke.cont71 unwind label %lpad45

invoke.cont71:                                    ; preds = %invoke.cont70
  %m_declare_type_var = getelementptr inbounds %"class.smt2::parser", ptr %this, i64 0, i32 54
  invoke void @_ZN6symbolC1EPKc(ptr noundef nonnull align 8 dereferenceable(8) %m_declare_type_var, ptr noundef nonnull @.str.26)
          to label %invoke.cont72 unwind label %lpad45

invoke.cont72:                                    ; preds = %invoke.cont71
  %m_declare_datatypes = getelementptr inbounds %"class.smt2::parser", ptr %this, i64 0, i32 55
  invoke void @_ZN6symbolC1EPKc(ptr noundef nonnull align 8 dereferenceable(8) %m_declare_datatypes, ptr noundef nonnull @.str.27)
          to label %invoke.cont73 unwind label %lpad45

invoke.cont73:                                    ; preds = %invoke.cont72
  %m_declare_datatype = getelementptr inbounds %"class.smt2::parser", ptr %this, i64 0, i32 56
  invoke void @_ZN6symbolC1EPKc(ptr noundef nonnull align 8 dereferenceable(8) %m_declare_datatype, ptr noundef nonnull @.str.28)
          to label %invoke.cont74 unwind label %lpad45

invoke.cont74:                                    ; preds = %invoke.cont73
  %m_par = getelementptr inbounds %"class.smt2::parser", ptr %this, i64 0, i32 57
  invoke void @_ZN6symbolC1EPKc(ptr noundef nonnull align 8 dereferenceable(8) %m_par, ptr noundef nonnull @.str.29)
          to label %invoke.cont75 unwind label %lpad45

invoke.cont75:                                    ; preds = %invoke.cont74
  %m_push = getelementptr inbounds %"class.smt2::parser", ptr %this, i64 0, i32 58
  invoke void @_ZN6symbolC1EPKc(ptr noundef nonnull align 8 dereferenceable(8) %m_push, ptr noundef nonnull @.str.30)
          to label %invoke.cont76 unwind label %lpad45

invoke.cont76:                                    ; preds = %invoke.cont75
  %m_pop = getelementptr inbounds %"class.smt2::parser", ptr %this, i64 0, i32 59
  invoke void @_ZN6symbolC1EPKc(ptr noundef nonnull align 8 dereferenceable(8) %m_pop, ptr noundef nonnull @.str.31)
          to label %invoke.cont77 unwind label %lpad45

invoke.cont77:                                    ; preds = %invoke.cont76
  %m_get_value = getelementptr inbounds %"class.smt2::parser", ptr %this, i64 0, i32 60
  invoke void @_ZN6symbolC1EPKc(ptr noundef nonnull align 8 dereferenceable(8) %m_get_value, ptr noundef nonnull @.str.32)
          to label %invoke.cont78 unwind label %lpad45

invoke.cont78:                                    ; preds = %invoke.cont77
  %m_reset = getelementptr inbounds %"class.smt2::parser", ptr %this, i64 0, i32 61
  invoke void @_ZN6symbolC1EPKc(ptr noundef nonnull align 8 dereferenceable(8) %m_reset, ptr noundef nonnull @.str.33)
          to label %invoke.cont79 unwind label %lpad45

invoke.cont79:                                    ; preds = %invoke.cont78
  %m_check_sat_assuming = getelementptr inbounds %"class.smt2::parser", ptr %this, i64 0, i32 62
  invoke void @_ZN6symbolC1EPKc(ptr noundef nonnull align 8 dereferenceable(8) %m_check_sat_assuming, ptr noundef nonnull @.str.34)
          to label %invoke.cont80 unwind label %lpad45

invoke.cont80:                                    ; preds = %invoke.cont79
  %m_define_fun_rec = getelementptr inbounds %"class.smt2::parser", ptr %this, i64 0, i32 63
  invoke void @_ZN6symbolC1EPKc(ptr noundef nonnull align 8 dereferenceable(8) %m_define_fun_rec, ptr noundef nonnull @.str.35)
          to label %invoke.cont81 unwind label %lpad45

invoke.cont81:                                    ; preds = %invoke.cont80
  %m_define_funs_rec = getelementptr inbounds %"class.smt2::parser", ptr %this, i64 0, i32 64
  invoke void @_ZN6symbolC1EPKc(ptr noundef nonnull align 8 dereferenceable(8) %m_define_funs_rec, ptr noundef nonnull @.str.36)
          to label %invoke.cont82 unwind label %lpad45

invoke.cont82:                                    ; preds = %invoke.cont81
  %m_match = getelementptr inbounds %"class.smt2::parser", ptr %this, i64 0, i32 65
  invoke void @_ZN6symbolC1EPKc(ptr noundef nonnull align 8 dereferenceable(8) %m_match, ptr noundef nonnull @.str.37)
          to label %invoke.cont83 unwind label %lpad45

invoke.cont83:                                    ; preds = %invoke.cont82
  %m_case = getelementptr inbounds %"class.smt2::parser", ptr %this, i64 0, i32 66
  invoke void @_ZN6symbolC1EPKc(ptr noundef nonnull align 8 dereferenceable(8) %m_case, ptr noundef nonnull @.str.38)
          to label %invoke.cont84 unwind label %lpad45

invoke.cont84:                                    ; preds = %invoke.cont83
  %m_underscore = getelementptr inbounds %"class.smt2::parser", ptr %this, i64 0, i32 67
  invoke void @_ZN6symbolC1EPKc(ptr noundef nonnull align 8 dereferenceable(8) %m_underscore, ptr noundef nonnull @.str.39)
          to label %invoke.cont88 unwind label %lpad45

invoke.cont88:                                    ; preds = %invoke.cont84
  %m_last_named_expr = getelementptr inbounds %"class.smt2::parser", ptr %this, i64 0, i32 68
  tail call void @llvm.memset.p0.i64(ptr noundef nonnull align 8 dereferenceable(16) %m_last_named_expr, i8 0, i64 16, i1 false)
  %m_cached_strings = getelementptr inbounds %"class.smt2::parser", ptr %this, i64 0, i32 73
  %m_current_file = getelementptr inbounds %"class.smt2::parser", ptr %this, i64 0, i32 75
  tail call void @llvm.memset.p0.i64(ptr noundef nonnull align 8 dereferenceable(28) %m_cached_strings, i8 0, i64 28, i1 false)
  store ptr %filename, ptr %m_current_file, align 8
  %m_last_bv_numeral = getelementptr inbounds %"class.smt2::parser", ptr %this, i64 0, i32 76
  store i32 0, ptr %m_last_bv_numeral, align 8
  %m_kind.i.i.i = getelementptr inbounds %"class.smt2::parser", ptr %this, i64 0, i32 76, i32 0, i32 0, i32 1
  %bf.load.i.i.i = load i8, ptr %m_kind.i.i.i, align 4
  %bf.clear3.i.i.i = and i8 %bf.load.i.i.i, -4
  store i8 %bf.clear3.i.i.i, ptr %m_kind.i.i.i, align 4
  %m_ptr.i.i.i = getelementptr inbounds %"class.smt2::parser", ptr %this, i64 0, i32 76, i32 0, i32 0, i32 2
  store ptr null, ptr %m_ptr.i.i.i, align 8
  %m_den.i.i = getelementptr inbounds %"class.smt2::parser", ptr %this, i64 0, i32 76, i32 0, i32 1
  store i32 1, ptr %m_den.i.i, align 8
  %m_kind.i1.i.i = getelementptr inbounds %"class.smt2::parser", ptr %this, i64 0, i32 76, i32 0, i32 1, i32 1
  %bf.load.i2.i.i = load i8, ptr %m_kind.i1.i.i, align 4
  %bf.clear3.i3.i.i = and i8 %bf.load.i2.i.i, -4
  store i8 %bf.clear3.i3.i.i, ptr %m_kind.i1.i.i, align 4
  %m_ptr.i4.i.i = getelementptr inbounds %"class.smt2::parser", ptr %this, i64 0, i32 76, i32 0, i32 1, i32 2
  store ptr null, ptr %m_ptr.i4.i.i, align 8
  %m_assert_expr = getelementptr inbounds %"class.smt2::parser", ptr %this, i64 0, i32 77
  tail call void @_ZNSt7__cxx1112basic_stringIcSt11char_traitsIcESaIcEEC1Ev(ptr noundef nonnull align 8 dereferenceable(32) %m_assert_expr) #19
  invoke void @_ZN4smt26parser11updt_paramsEv(ptr noundef nonnull align 8 dereferenceable(2168) %this)
          to label %invoke.cont90 unwind label %lpad89

invoke.cont90:                                    ; preds = %invoke.cont88
  ret void

lpad:                                             ; preds = %entry
  %0 = landingpad { ptr, i32 }
          cleanup
  br label %ehcleanup112

lpad2:                                            ; preds = %invoke.cont
  %1 = landingpad { ptr, i32 }
          cleanup
  br label %ehcleanup111

lpad4:                                            ; preds = %invoke.cont3
  %2 = landingpad { ptr, i32 }
          cleanup
  br label %ehcleanup110

lpad7:                                            ; preds = %invoke.cont5
  %3 = landingpad { ptr, i32 }
          cleanup
  br label %ehcleanup109

lpad11:                                           ; preds = %invoke.cont8
  %4 = landingpad { ptr, i32 }
          cleanup
  br label %ehcleanup108

lpad15:                                           ; preds = %invoke.cont12
  %5 = landingpad { ptr, i32 }
          cleanup
  br label %ehcleanup107

lpad45:                                           ; preds = %invoke.cont84, %invoke.cont83, %invoke.cont82, %invoke.cont81, %invoke.cont80, %invoke.cont79, %invoke.cont78, %invoke.cont77, %invoke.cont76, %invoke.cont75, %invoke.cont74, %invoke.cont73, %invoke.cont72, %invoke.cont71, %invoke.cont70, %invoke.cont69, %invoke.cont68, %invoke.cont67, %invoke.cont66, %invoke.cont65, %invoke.cont64, %invoke.cont63, %invoke.cont62, %invoke.cont61, %invoke.cont60, %invoke.cont59, %invoke.cont58, %invoke.cont57, %invoke.cont56, %invoke.cont55, %invoke.cont54, %invoke.cont53, %invoke.cont52, %invoke.cont51, %invoke.cont50, %invoke.cont49, %invoke.cont48, %invoke.cont47, %invoke.cont46, %invoke.cont16
  %6 = landingpad { ptr, i32 }
          cleanup
  br label %ehcleanup91

lpad89:                                           ; preds = %invoke.cont88
  %7 = landingpad { ptr, i32 }
          cleanup
  tail call void @_ZNSt7__cxx1112basic_stringIcSt11char_traitsIcESaIcEED1Ev(ptr noundef nonnull align 8 dereferenceable(32) %m_assert_expr) #19
  tail call void @_ZN8rationalD2Ev(ptr noundef nonnull align 8 dereferenceable(32) %m_last_bv_numeral) #19
  tail call void @_ZNSt6vectorINSt7__cxx1112basic_stringIcSt11char_traitsIcESaIcEEESaIS5_EED2Ev(ptr noundef nonnull align 8 dereferenceable(24) %m_cached_strings) #19
  br label %ehcleanup91

ehcleanup91:                                      ; preds = %lpad89, %lpad45
  %.pn.pn = phi { ptr, i32 } [ %7, %lpad89 ], [ %6, %lpad45 ]
  tail call void @_ZN10scoped_ptrI11var_shifterED2Ev(ptr noundef nonnull align 8 dereferenceable(8) %m_var_shifter) #19
  tail call void @_ZN10scoped_ptrI17pattern_validatorED2Ev(ptr noundef nonnull align 8 dereferenceable(8) %m_pattern_validator) #19
  tail call void @_ZN10scoped_ptrI8seq_utilED2Ev(ptr noundef nonnull align 8 dereferenceable(8) %m_seq_util) #19
  tail call void @_ZN10scoped_ptrIN8datatype4utilEED2Ev(ptr noundef nonnull align 8 dereferenceable(8) %m_datatype_util) #19
  tail call void @_ZN10scoped_ptrI10arith_utilED2Ev(ptr noundef nonnull align 8 dereferenceable(8) %m_arith_util) #19
  tail call void @_ZN10scoped_ptrI7bv_utilED2Ev(ptr noundef nonnull align 8 dereferenceable(8) %m_bv_util) #19
  tail call void @_ZN10scoped_ptrI10ref_vectorI5sexpr13sexpr_managerEED2Ev(ptr noundef nonnull align 8 dereferenceable(8) %m_sexpr_stack) #19
  tail call void @_ZN6vectorI9parameterLb1EjED2Ev(ptr noundef nonnull align 8 dereferenceable(8) %m_param_stack) #19
  tail call void @_ZN7svectorI6symboljED2Ev(ptr noundef nonnull align 8 dereferenceable(8) %m_symbol_stack) #19
  tail call void @_ZN10scoped_ptrI10ref_vectorI4expr11ast_managerEED2Ev(ptr noundef nonnull align 8 dereferenceable(8) %m_nopattern_stack) #19
  tail call void @_ZN10scoped_ptrI10ref_vectorI4expr11ast_managerEED2Ev(ptr noundef nonnull align 8 dereferenceable(8) %m_pattern_stack) #19
  tail call void @_ZN10scoped_ptrI10ref_vectorI4expr11ast_managerEED2Ev(ptr noundef nonnull align 8 dereferenceable(8) %m_expr_stack) #19
  tail call void @_ZN10scoped_ptrI10ref_vectorI4sort11ast_managerEED2Ev(ptr noundef nonnull align 8 dereferenceable(8) %m_sort_stack) #19
  tail call void @_ZN10scoped_ptrI10ref_vectorI5psort13pdecl_managerEED2Ev(ptr noundef nonnull align 8 dereferenceable(8) %m_psort_stack) #19
  tail call void @_ZN7svectorI6symboljED2Ev(ptr noundef nonnull align 8 dereferenceable(8) %m_dt_names) #19
  tail call void @_ZN3mapI6symbolj16symbol_hash_proc14symbol_eq_procED2Ev(ptr noundef nonnull align 8 dereferenceable(24) %m_dt_name2arity) #19
  br label %ehcleanup107

ehcleanup107:                                     ; preds = %ehcleanup91, %lpad15
  %.pn.pn.pn = phi { ptr, i32 } [ %.pn.pn, %ehcleanup91 ], [ %5, %lpad15 ]
  tail call void @_ZN3mapI6symboli16symbol_hash_proc14symbol_eq_procED2Ev(ptr noundef nonnull align 8 dereferenceable(24) %m_dt_name2idx) #19
  br label %ehcleanup108

ehcleanup108:                                     ; preds = %ehcleanup107, %lpad11
  %.pn.pn.pn.pn = phi { ptr, i32 } [ %.pn.pn.pn, %ehcleanup107 ], [ %4, %lpad11 ]
  tail call void @_ZN3mapI6symboli16symbol_hash_proc14symbol_eq_procED2Ev(ptr noundef nonnull align 8 dereferenceable(24) %m_sort_id2param_idx) #19
  br label %ehcleanup109

ehcleanup109:                                     ; preds = %ehcleanup108, %lpad7
  %.pn.pn.pn.pn.pn = phi { ptr, i32 } [ %.pn.pn.pn.pn, %ehcleanup108 ], [ %3, %lpad7 ]
  tail call void @_ZN12symbol_tableIN4smt26parser5localEED2Ev(ptr noundef nonnull align 8 dereferenceable(40) %m_env) #19
  br label %ehcleanup110

ehcleanup110:                                     ; preds = %ehcleanup109, %lpad4
  %.pn.pn.pn.pn.pn.pn = phi { ptr, i32 } [ %.pn.pn.pn.pn.pn, %ehcleanup109 ], [ %2, %lpad4 ]
  tail call void @_ZN5stackD1Ev(ptr noundef nonnull align 8 dereferenceable(32) %m_stack) #19
  br label %ehcleanup111

ehcleanup111:                                     ; preds = %ehcleanup110, %lpad2
  %.pn.pn.pn.pn.pn.pn.pn = phi { ptr, i32 } [ %.pn.pn.pn.pn.pn.pn, %ehcleanup110 ], [ %1, %lpad2 ]
  tail call void @_ZN4smt27scannerD2Ev(ptr noundef nonnull align 8 dereferenceable(1408) %m_scanner) #19
  br label %ehcleanup112

ehcleanup112:                                     ; preds = %ehcleanup111, %lpad
  %.pn.pn.pn.pn.pn.pn.pn.pn = phi { ptr, i32 } [ %.pn.pn.pn.pn.pn.pn.pn, %ehcleanup111 ], [ %0, %lpad ]
  tail call void @_ZN10params_refD1Ev(ptr noundef nonnull align 8 dereferenceable(8) %m_params) #19
  resume { ptr, i32 } %.pn.pn.pn.pn.pn.pn.pn.pn
}

; Function Attrs: mustprogress uwtable
define linkonce_odr hidden noundef zeroext i1 @_ZN4smt26parserclEv(ptr noundef nonnull align 8 dereferenceable(2168) %this) local_unnamed_addr #3 comdat align 2 personality ptr @__gxx_personality_v0 {
entry:
  %m_num_bindings = getelementptr inbounds %"class.smt2::parser", ptr %this, i64 0, i32 7
  store i32 0, ptr %m_num_bindings, align 8
  %m_cache.i.i = getelementptr inbounds %"class.smt2::parser", ptr %this, i64 0, i32 2, i32 17
  %0 = load ptr, ptr %m_cache.i.i, align 8
  %cmp.i.i.i = icmp eq ptr %0, null
  br i1 %cmp.i.i.i, label %_ZNK4smt27scanner10cache_sizeEv.exit.i, label %if.end.i.i.i

if.end.i.i.i:                                     ; preds = %entry
  %arrayidx.i.i.i = getelementptr inbounds i32, ptr %0, i64 -1
  %1 = load i32, ptr %arrayidx.i.i.i, align 4
  br label %_ZNK4smt27scanner10cache_sizeEv.exit.i

_ZNK4smt27scanner10cache_sizeEv.exit.i:           ; preds = %if.end.i.i.i, %entry
  %retval.0.i.i.i = phi i32 [ %1, %if.end.i.i.i ], [ 0, %entry ]
  %m_scanner.i = getelementptr inbounds %"class.smt2::parser", ptr %this, i64 0, i32 2
  %m_cache_end.i = getelementptr inbounds %"class.smt2::parser", ptr %this, i64 0, i32 72
  store i32 %retval.0.i.i.i, ptr %m_cache_end.i, align 4
  %call3.i12 = invoke noundef i32 @_ZN4smt27scanner4scanEv(ptr noundef nonnull align 8 dereferenceable(1408) %m_scanner.i)
          to label %_ZN4smt26parser9scan_coreEv.exit unwind label %lpad

_ZN4smt26parser9scan_coreEv.exit:                 ; preds = %_ZNK4smt27scanner10cache_sizeEv.exit.i
  %m_curr.i = getelementptr inbounds %"class.smt2::parser", ptr %this, i64 0, i32 3
  store i32 %call3.i12, ptr %m_curr.i, align 8
  br label %try.cont

lpad:                                             ; preds = %_ZNK4smt27scanner10cache_sizeEv.exit.i
  %2 = landingpad { ptr, i32 }
          catch ptr @_ZTI13cmd_exception
  %3 = extractvalue { ptr, i32 } %2, 1
  %4 = tail call i32 @llvm.eh.typeid.for(ptr nonnull @_ZTI13cmd_exception) #19
  %matches = icmp eq i32 %3, %4
  br i1 %matches, label %catch, label %eh.resume

catch:                                            ; preds = %lpad
  %5 = extractvalue { ptr, i32 } %2, 0
  %6 = tail call ptr @__cxa_begin_catch(ptr %5) #19
  %vtable = load ptr, ptr %6, align 8
  %vfn = getelementptr inbounds ptr, ptr %vtable, i64 2
  %7 = load ptr, ptr %vfn, align 8
  %call = invoke noundef ptr %7(ptr noundef nonnull align 8 dereferenceable(40) %6)
          to label %invoke.cont3 unwind label %lpad2

invoke.cont3:                                     ; preds = %catch
  %m_line.i.i = getelementptr inbounds %"class.smt2::parser", ptr %this, i64 0, i32 2, i32 5
  %8 = load i32, ptr %m_line.i.i, align 4
  %m_pos.i.i = getelementptr inbounds %"class.smt2::parser", ptr %this, i64 0, i32 2, i32 6
  %9 = load i32, ptr %m_pos.i.i, align 8
  invoke void @_ZN4smt26parser5errorEjjPKc(ptr noundef nonnull align 8 dereferenceable(2168) %this, i32 noundef %8, i32 noundef %9, ptr noundef %call)
          to label %invoke.cont4 unwind label %lpad2

invoke.cont4:                                     ; preds = %invoke.cont3
  %call6 = invoke noundef zeroext i1 @_ZN4smt26parser16sync_after_errorEv(ptr noundef nonnull align 8 dereferenceable(2168) %this)
          to label %invoke.cont5 unwind label %lpad2

invoke.cont5:                                     ; preds = %invoke.cont4
  tail call void @__cxa_end_catch()
  br i1 %call6, label %try.cont, label %return

lpad2:                                            ; preds = %invoke.cont3, %invoke.cont4, %catch
  %10 = landingpad { ptr, i32 }
          cleanup
  invoke void @__cxa_end_catch()
          to label %eh.resume unwind label %terminate.lpad

try.cont:                                         ; preds = %_ZN4smt26parser9scan_coreEv.exit, %invoke.cont5
  %11 = phi i1 [ true, %_ZN4smt26parser9scan_coreEv.exit ], [ false, %invoke.cont5 ]
  %m_num_open_paren = getelementptr inbounds %"class.smt2::parser", ptr %this, i64 0, i32 74
  %m_curr.i13 = getelementptr inbounds %"class.smt2::parser", ptr %this, i64 0, i32 3
  %m_line.i.i20 = getelementptr inbounds %"class.smt2::parser", ptr %this, i64 0, i32 2, i32 5
  %m_pos.i.i21 = getelementptr inbounds %"class.smt2::parser", ptr %this, i64 0, i32 2, i32 6
  %m_cache_input.i26 = getelementptr inbounds %"class.smt2::parser", ptr %this, i64 0, i32 2, i32 16
  %m_curr_cmd = getelementptr inbounds %"class.smt2::parser", ptr %this, i64 0, i32 4
  br label %while.body

while.body:                                       ; preds = %if.end123, %try.cont
  %found_errors.2 = phi i1 [ %11, %try.cont ], [ false, %if.end123 ]
  store i32 0, ptr %m_num_open_paren, align 8
  br label %while.cond8

while.cond8:                                      ; preds = %sw.bb, %while.body
  %12 = load i32, ptr %m_curr.i13, align 8
  switch i32 %12, label %sw.default [
    i32 1, label %sw.bb
    i32 9, label %return
  ]

lpad10.loopexit:                                  ; preds = %sw.bb
  %lpad.loopexit = landingpad { ptr, i32 }
          catch ptr @_ZTI8z3_error
          catch ptr @_ZTI21stop_parser_exception
          catch ptr @_ZTI13cmd_exception
          catch ptr @_ZTI13ast_exception
          catch ptr @_ZTI12z3_exception
  br label %catch.dispatch17

lpad10.loopexit.split-lp:                         ; preds = %invoke.cont16
  %lpad.loopexit.split-lp = landingpad { ptr, i32 }
          catch ptr @_ZTI8z3_error
          catch ptr @_ZTI21stop_parser_exception
          catch ptr @_ZTI13cmd_exception
          catch ptr @_ZTI13ast_exception
          catch ptr @_ZTI12z3_exception
  br label %catch.dispatch17

sw.bb:                                            ; preds = %while.cond8
  invoke void @_ZN4smt26parser9parse_cmdEv(ptr noundef nonnull align 8 dereferenceable(2168) %this)
          to label %while.cond8 unwind label %lpad10.loopexit, !llvm.loop !6

sw.default:                                       ; preds = %while.cond8
  %exception = tail call ptr @__cxa_allocate_exception(i64 48) #19
  invoke void @_ZN13cmd_exceptionC2EPKc(ptr noundef nonnull align 8 dereferenceable(48) %exception, ptr noundef nonnull @.str.46)
          to label %invoke.cont16 unwind label %lpad15

invoke.cont16:                                    ; preds = %sw.default
  invoke void @__cxa_throw(ptr nonnull %exception, ptr nonnull @_ZTI13cmd_exception, ptr nonnull @_ZN13cmd_exceptionD2Ev) #20
          to label %unreachable unwind label %lpad10.loopexit.split-lp

lpad15:                                           ; preds = %sw.default
  %13 = landingpad { ptr, i32 }
          cleanup
          catch ptr @_ZTI8z3_error
          catch ptr @_ZTI21stop_parser_exception
          catch ptr @_ZTI13cmd_exception
          catch ptr @_ZTI13ast_exception
          catch ptr @_ZTI12z3_exception
  tail call void @__cxa_free_exception(ptr %exception) #19
  br label %catch.dispatch17

catch.dispatch17:                                 ; preds = %lpad10.loopexit, %lpad10.loopexit.split-lp, %lpad15
  %.pn = phi { ptr, i32 } [ %13, %lpad15 ], [ %lpad.loopexit, %lpad10.loopexit ], [ %lpad.loopexit.split-lp, %lpad10.loopexit.split-lp ]
  %exn.slot.0 = extractvalue { ptr, i32 } %.pn, 0
  %ehselector.slot.0 = extractvalue { ptr, i32 } %.pn, 1
  %14 = tail call i32 @llvm.eh.typeid.for(ptr nonnull @_ZTI8z3_error) #19
  %matches19 = icmp eq i32 %ehselector.slot.0, %14
  br i1 %matches19, label %catch76, label %catch.fallthrough

catch76:                                          ; preds = %catch.dispatch17
  %15 = tail call ptr @__cxa_begin_catch(ptr %exn.slot.0) #19
  %16 = load ptr, ptr %this, align 8
  %vtable79 = load ptr, ptr %16, align 8
  %vfn80 = getelementptr inbounds ptr, ptr %vtable79, i64 5
  %17 = load ptr, ptr %vfn80, align 8
  %call83 = invoke noundef nonnull align 8 dereferenceable(8) ptr %17(ptr noundef nonnull align 8 dereferenceable(872) %16)
          to label %invoke.cont82 unwind label %lpad81

invoke.cont82:                                    ; preds = %catch76
  %call85 = invoke noundef nonnull align 8 dereferenceable(8) ptr @_ZStlsISt11char_traitsIcEERSt13basic_ostreamIcT_ES5_PKc(ptr noundef nonnull align 8 dereferenceable(8) %call83, ptr noundef nonnull @.str.47)
          to label %invoke.cont84 unwind label %lpad81

invoke.cont84:                                    ; preds = %invoke.cont82
  %18 = load i32, ptr %m_line.i.i20, align 4
  %call90 = invoke noundef nonnull align 8 dereferenceable(8) ptr @_ZNSolsEi(ptr noundef nonnull align 8 dereferenceable(8) %call85, i32 noundef %18)
          to label %invoke.cont89 unwind label %lpad81

invoke.cont89:                                    ; preds = %invoke.cont84
  %call92 = invoke noundef nonnull align 8 dereferenceable(8) ptr @_ZStlsISt11char_traitsIcEERSt13basic_ostreamIcT_ES5_PKc(ptr noundef nonnull align 8 dereferenceable(8) %call90, ptr noundef nonnull @.str.48)
          to label %invoke.cont91 unwind label %lpad81

invoke.cont91:                                    ; preds = %invoke.cont89
  %19 = load i32, ptr %m_pos.i.i21, align 8
  %call97 = invoke noundef nonnull align 8 dereferenceable(8) ptr @_ZNSolsEi(ptr noundef nonnull align 8 dereferenceable(8) %call92, i32 noundef %19)
          to label %invoke.cont96 unwind label %lpad81

invoke.cont96:                                    ; preds = %invoke.cont91
  %call99 = invoke noundef nonnull align 8 dereferenceable(8) ptr @_ZStlsISt11char_traitsIcEERSt13basic_ostreamIcT_ES5_PKc(ptr noundef nonnull align 8 dereferenceable(8) %call97, ptr noundef nonnull @.str.49)
          to label %invoke.cont98 unwind label %lpad81

invoke.cont98:                                    ; preds = %invoke.cont96
  %vtable100 = load ptr, ptr %15, align 8
  %vfn101 = getelementptr inbounds ptr, ptr %vtable100, i64 2
  %20 = load ptr, ptr %vfn101, align 8
  %call103 = invoke noundef ptr %20(ptr noundef nonnull align 8 dereferenceable(12) %15)
          to label %invoke.cont102 unwind label %lpad81

invoke.cont102:                                   ; preds = %invoke.cont98
  %call105 = invoke noundef nonnull align 8 dereferenceable(8) ptr @_ZStlsISt11char_traitsIcEERSt13basic_ostreamIcT_ES5_PKc(ptr noundef nonnull align 8 dereferenceable(8) %call99, ptr noundef %call103)
          to label %invoke.cont104 unwind label %lpad81

invoke.cont104:                                   ; preds = %invoke.cont102
  %call107 = invoke noundef nonnull align 8 dereferenceable(8) ptr @_ZStlsISt11char_traitsIcEERSt13basic_ostreamIcT_ES5_PKc(ptr noundef nonnull align 8 dereferenceable(8) %call105, ptr noundef nonnull @.str.50)
          to label %invoke.cont106 unwind label %lpad81

invoke.cont106:                                   ; preds = %invoke.cont104
  %call109 = invoke noundef nonnull align 8 dereferenceable(8) ptr @_ZNSolsEPFRSoS_E(ptr noundef nonnull align 8 dereferenceable(8) %call107, ptr noundef nonnull @_ZSt4endlIcSt11char_traitsIcEERSt13basic_ostreamIT_T0_ES6_)
          to label %invoke.cont108 unwind label %lpad81

invoke.cont108:                                   ; preds = %invoke.cont106
  %vtable110 = load ptr, ptr %15, align 8
  %vfn111 = getelementptr inbounds ptr, ptr %vtable110, i64 3
  %21 = load ptr, ptr %vfn111, align 8
  %call113 = invoke noundef i32 %21(ptr noundef nonnull align 8 dereferenceable(12) %15)
          to label %invoke.cont112 unwind label %lpad81

invoke.cont112:                                   ; preds = %invoke.cont108
  tail call void @exit(i32 noundef %call113) #21
  unreachable

catch.fallthrough:                                ; preds = %catch.dispatch17
  %22 = tail call i32 @llvm.eh.typeid.for(ptr nonnull @_ZTI21stop_parser_exception) #19
  %matches20 = icmp eq i32 %ehselector.slot.0, %22
  br i1 %matches20, label %catch70, label %catch.fallthrough21

catch70:                                          ; preds = %catch.fallthrough
  %23 = tail call ptr @__cxa_begin_catch(ptr %exn.slot.0) #19
  store i8 0, ptr %m_cache_input.i26, align 8
  tail call void @__cxa_end_catch()
  br label %return

catch.fallthrough21:                              ; preds = %catch.fallthrough
  %24 = tail call i32 @llvm.eh.typeid.for(ptr nonnull @_ZTI13cmd_exception) #19
  %matches22 = icmp eq i32 %ehselector.slot.0, %24
  br i1 %matches22, label %catch47, label %catch.fallthrough23

catch47:                                          ; preds = %catch.fallthrough21
  %25 = tail call ptr @__cxa_begin_catch(ptr %exn.slot.0) #19
  %m_line.i14 = getelementptr inbounds %class.cmd_exception, ptr %25, i64 0, i32 1
  %26 = load i32, ptr %m_line.i14, align 8
  %cmp.i = icmp sgt i32 %26, -1
  br i1 %cmp.i, label %if.then53, label %if.else

if.then53:                                        ; preds = %catch47
  %m_pos.i16 = getelementptr inbounds %class.cmd_exception, ptr %25, i64 0, i32 2
  %27 = load i32, ptr %m_pos.i16, align 4
  %vtable58 = load ptr, ptr %25, align 8
  %vfn59 = getelementptr inbounds ptr, ptr %vtable58, i64 2
  %28 = load ptr, ptr %vfn59, align 8
  %call61 = invoke noundef ptr %28(ptr noundef nonnull align 8 dereferenceable(40) %25)
          to label %invoke.cont65.invoke unwind label %lpad50

catch.fallthrough23:                              ; preds = %catch.fallthrough21
  %29 = tail call i32 @llvm.eh.typeid.for(ptr nonnull @_ZTI13ast_exception) #19
  %matches24 = icmp eq i32 %ehselector.slot.0, %29
  br i1 %matches24, label %catch37, label %catch.fallthrough25

catch37:                                          ; preds = %catch.fallthrough23
  %30 = tail call ptr @__cxa_begin_catch(ptr %exn.slot.0) #19
  %vtable40 = load ptr, ptr %30, align 8
  %vfn41 = getelementptr inbounds ptr, ptr %vtable40, i64 2
  %31 = load ptr, ptr %vfn41, align 8
  %call44 = invoke noundef ptr %31(ptr noundef nonnull align 8 dereferenceable(40) %30)
          to label %invoke.cont43 unwind label %lpad42

invoke.cont43:                                    ; preds = %catch37
  %32 = load i32, ptr %m_line.i.i20, align 4
  %33 = load i32, ptr %m_pos.i.i21, align 8
  invoke void @_ZN4smt26parser5errorEjjPKc(ptr noundef nonnull align 8 dereferenceable(2168) %this, i32 noundef %32, i32 noundef %33, ptr noundef %call44)
          to label %try.cont115 unwind label %lpad42

catch.fallthrough25:                              ; preds = %catch.fallthrough23
  %34 = tail call i32 @llvm.eh.typeid.for(ptr nonnull @_ZTI12z3_exception) #19
  %matches26 = icmp eq i32 %ehselector.slot.0, %34
  br i1 %matches26, label %catch27, label %eh.resume

catch27:                                          ; preds = %catch.fallthrough25
  %35 = tail call ptr @__cxa_begin_catch(ptr %exn.slot.0) #19
  %vtable30 = load ptr, ptr %35, align 8
  %vfn31 = getelementptr inbounds ptr, ptr %vtable30, i64 2
  %36 = load ptr, ptr %vfn31, align 8
  %call34 = invoke noundef ptr %36(ptr noundef nonnull align 8 dereferenceable(8) %35)
          to label %invoke.cont33 unwind label %lpad32

invoke.cont33:                                    ; preds = %catch27
  %37 = load i32, ptr %m_line.i.i20, align 4
  %38 = load i32, ptr %m_pos.i.i21, align 8
  invoke void @_ZN4smt26parser5errorEjjPKc(ptr noundef nonnull align 8 dereferenceable(2168) %this, i32 noundef %37, i32 noundef %38, ptr noundef %call34)
          to label %try.cont115 unwind label %lpad32

lpad32:                                           ; preds = %invoke.cont33, %catch27
  %39 = landingpad { ptr, i32 }
          cleanup
  invoke void @__cxa_end_catch()
          to label %eh.resume unwind label %terminate.lpad

lpad42:                                           ; preds = %invoke.cont43, %catch37
  %40 = landingpad { ptr, i32 }
          cleanup
  invoke void @__cxa_end_catch()
          to label %eh.resume unwind label %terminate.lpad

lpad50:                                           ; preds = %invoke.cont65.invoke, %if.else, %if.then53
  %41 = landingpad { ptr, i32 }
          cleanup
  invoke void @__cxa_end_catch()
          to label %eh.resume unwind label %terminate.lpad

if.else:                                          ; preds = %catch47
  %vtable63 = load ptr, ptr %25, align 8
  %vfn64 = getelementptr inbounds ptr, ptr %vtable63, i64 2
  %42 = load ptr, ptr %vfn64, align 8
  %call66 = invoke noundef ptr %42(ptr noundef nonnull align 8 dereferenceable(40) %25)
          to label %invoke.cont65 unwind label %lpad50

invoke.cont65:                                    ; preds = %if.else
  %43 = load i32, ptr %m_line.i.i20, align 4
  %44 = load i32, ptr %m_pos.i.i21, align 8
  br label %invoke.cont65.invoke

invoke.cont65.invoke:                             ; preds = %if.then53, %invoke.cont65
  %45 = phi i32 [ %43, %invoke.cont65 ], [ %26, %if.then53 ]
  %46 = phi i32 [ %44, %invoke.cont65 ], [ %27, %if.then53 ]
  %47 = phi ptr [ %call66, %invoke.cont65 ], [ %call61, %if.then53 ]
  invoke void @_ZN4smt26parser5errorEjjPKc(ptr noundef nonnull align 8 dereferenceable(2168) %this, i32 noundef %45, i32 noundef %46, ptr noundef %47)
          to label %try.cont115 unwind label %lpad50

lpad81:                                           ; preds = %invoke.cont108, %invoke.cont106, %invoke.cont104, %invoke.cont102, %invoke.cont98, %invoke.cont96, %invoke.cont91, %invoke.cont89, %invoke.cont84, %invoke.cont82, %catch76
  %48 = landingpad { ptr, i32 }
          cleanup
  invoke void @__cxa_end_catch()
          to label %eh.resume unwind label %terminate.lpad

try.cont115:                                      ; preds = %invoke.cont65.invoke, %invoke.cont33, %invoke.cont43
  tail call void @__cxa_end_catch()
  store i8 0, ptr %m_cache_input.i26, align 8
  %49 = load ptr, ptr %m_curr_cmd, align 8
  %tobool117.not = icmp eq ptr %49, null
  br i1 %tobool117.not, label %if.end123, label %if.then118

if.then118:                                       ; preds = %try.cont115
  %50 = load ptr, ptr %this, align 8
  %vtable121 = load ptr, ptr %49, align 8
  %vfn122 = getelementptr inbounds ptr, ptr %vtable121, i64 26
  %51 = load ptr, ptr %vfn122, align 8
  tail call void %51(ptr noundef nonnull align 8 dereferenceable(24) %49, ptr noundef nonnull align 8 dereferenceable(872) %50)
  br label %if.end123

if.end123:                                        ; preds = %if.then118, %try.cont115
  tail call void @_ZN4smt26parser5resetEv(ptr noundef nonnull align 8 dereferenceable(2168) %this)
  %call124 = tail call noundef zeroext i1 @_ZN4smt26parser16sync_after_errorEv(ptr noundef nonnull align 8 dereferenceable(2168) %this)
  br i1 %call124, label %while.body, label %return, !llvm.loop !7

return:                                           ; preds = %if.end123, %while.cond8, %invoke.cont5, %catch70
  %retval.1 = phi i1 [ %found_errors.2, %catch70 ], [ false, %invoke.cont5 ], [ %found_errors.2, %while.cond8 ], [ false, %if.end123 ]
  ret i1 %retval.1

eh.resume:                                        ; preds = %catch.fallthrough25, %lpad81, %lpad50, %lpad42, %lpad32, %lpad2, %lpad
  %lpad.val129.merged = phi { ptr, i32 } [ %48, %lpad81 ], [ %41, %lpad50 ], [ %40, %lpad42 ], [ %39, %lpad32 ], [ %10, %lpad2 ], [ %2, %lpad ], [ %.pn, %catch.fallthrough25 ]
  resume { ptr, i32 } %lpad.val129.merged

terminate.lpad:                                   ; preds = %lpad81, %lpad50, %lpad42, %lpad32, %lpad2
  %52 = landingpad { ptr, i32 }
          catch ptr null
  %53 = extractvalue { ptr, i32 } %52, 0
  tail call void @__clang_call_terminate(ptr %53) #21
  unreachable

unreachable:                                      ; preds = %invoke.cont16
  unreachable
}

declare i32 @__gxx_personality_v0(...)

; Function Attrs: mustprogress nounwind uwtable
define linkonce_odr hidden void @_ZN4smt26parserD2Ev(ptr noundef nonnull align 8 dereferenceable(2168) %this) unnamed_addr #4 comdat align 2 personality ptr @__gxx_personality_v0 {
entry:
  %m_stack.i = getelementptr inbounds %"class.smt2::parser", ptr %this, i64 0, i32 5
  invoke void @_ZN5stack5resetEv(ptr noundef nonnull align 8 dereferenceable(32) %m_stack.i)
          to label %invoke.cont unwind label %terminate.lpad

invoke.cont:                                      ; preds = %entry
  %m_assert_expr = getelementptr inbounds %"class.smt2::parser", ptr %this, i64 0, i32 77
  tail call void @_ZNSt7__cxx1112basic_stringIcSt11char_traitsIcESaIcEED1Ev(ptr noundef nonnull align 8 dereferenceable(32) %m_assert_expr) #19
  %m_last_bv_numeral = getelementptr inbounds %"class.smt2::parser", ptr %this, i64 0, i32 76
  %0 = load ptr, ptr @_ZN8rational13g_mpq_managerE, align 8
  invoke void @_ZN11mpz_managerILb1EE3delEPS0_R3mpz(ptr noundef %0, ptr noundef nonnull align 8 dereferenceable(16) %m_last_bv_numeral)
          to label %.noexc.i unwind label %terminate.lpad.i

.noexc.i:                                         ; preds = %invoke.cont
  %m_den.i.i = getelementptr inbounds %"class.smt2::parser", ptr %this, i64 0, i32 76, i32 0, i32 1
  invoke void @_ZN11mpz_managerILb1EE3delEPS0_R3mpz(ptr noundef %0, ptr noundef nonnull align 8 dereferenceable(16) %m_den.i.i)
          to label %_ZN8rationalD2Ev.exit unwind label %terminate.lpad.i

terminate.lpad.i:                                 ; preds = %.noexc.i, %invoke.cont
  %1 = landingpad { ptr, i32 }
          catch ptr null
  %2 = extractvalue { ptr, i32 } %1, 0
  tail call void @__clang_call_terminate(ptr %2) #21
  unreachable

_ZN8rationalD2Ev.exit:                            ; preds = %.noexc.i
  %m_cached_strings = getelementptr inbounds %"class.smt2::parser", ptr %this, i64 0, i32 73
  %3 = load ptr, ptr %m_cached_strings, align 8
  %_M_finish.i = getelementptr inbounds %"class.smt2::parser", ptr %this, i64 0, i32 73, i32 0, i32 0, i32 0, i32 1
  %4 = load ptr, ptr %_M_finish.i, align 8
  %cmp.not3.i.i.i.i = icmp eq ptr %3, %4
  br i1 %cmp.not3.i.i.i.i, label %invoke.cont.i, label %for.body.i.i.i.i

for.body.i.i.i.i:                                 ; preds = %_ZN8rationalD2Ev.exit, %for.body.i.i.i.i
  %__first.addr.04.i.i.i.i = phi ptr [ %incdec.ptr.i.i.i.i, %for.body.i.i.i.i ], [ %3, %_ZN8rationalD2Ev.exit ]
  tail call void @_ZNSt7__cxx1112basic_stringIcSt11char_traitsIcESaIcEED1Ev(ptr noundef nonnull align 8 dereferenceable(32) %__first.addr.04.i.i.i.i) #19
  %incdec.ptr.i.i.i.i = getelementptr inbounds %"class.std::__cxx11::basic_string", ptr %__first.addr.04.i.i.i.i, i64 1
  %cmp.not.i.i.i.i = icmp eq ptr %incdec.ptr.i.i.i.i, %4
  br i1 %cmp.not.i.i.i.i, label %invoke.contthread-pre-split.i, label %for.body.i.i.i.i, !llvm.loop !8

invoke.contthread-pre-split.i:                    ; preds = %for.body.i.i.i.i
  %.pr.i = load ptr, ptr %m_cached_strings, align 8
  br label %invoke.cont.i

invoke.cont.i:                                    ; preds = %invoke.contthread-pre-split.i, %_ZN8rationalD2Ev.exit
  %5 = phi ptr [ %.pr.i, %invoke.contthread-pre-split.i ], [ %3, %_ZN8rationalD2Ev.exit ]
  %tobool.not.i.i.i = icmp eq ptr %5, null
  br i1 %tobool.not.i.i.i, label %_ZNSt6vectorINSt7__cxx1112basic_stringIcSt11char_traitsIcESaIcEEESaIS5_EED2Ev.exit, label %if.then.i.i.i

if.then.i.i.i:                                    ; preds = %invoke.cont.i
  tail call void @_ZdlPv(ptr noundef nonnull %5) #22
  br label %_ZNSt6vectorINSt7__cxx1112basic_stringIcSt11char_traitsIcESaIcEEESaIS5_EED2Ev.exit

_ZNSt6vectorINSt7__cxx1112basic_stringIcSt11char_traitsIcESaIcEEESaIS5_EED2Ev.exit: ; preds = %invoke.cont.i, %if.then.i.i.i
  %m_var_shifter = getelementptr inbounds %"class.smt2::parser", ptr %this, i64 0, i32 27
  %6 = load ptr, ptr %m_var_shifter, align 8
  %cmp.i.i = icmp eq ptr %6, null
  br i1 %cmp.i.i, label %_ZN10scoped_ptrI11var_shifterED2Ev.exit, label %if.end.i.i

if.end.i.i:                                       ; preds = %_ZNSt6vectorINSt7__cxx1112basic_stringIcSt11char_traitsIcESaIcEEESaIS5_EED2Ev.exit
  %vtable.i.i = load ptr, ptr %6, align 8
  %7 = load ptr, ptr %vtable.i.i, align 8
  tail call void %7(ptr noundef nonnull align 8 dereferenceable(156) %6) #19
  invoke void @_ZN6memory10deallocateEPv(ptr noundef nonnull %6)
          to label %_ZN10scoped_ptrI11var_shifterED2Ev.exit unwind label %terminate.lpad.i1

terminate.lpad.i1:                                ; preds = %if.end.i.i
  %8 = landingpad { ptr, i32 }
          catch ptr null
  %9 = extractvalue { ptr, i32 } %8, 0
  tail call void @__clang_call_terminate(ptr %9) #21
  unreachable

_ZN10scoped_ptrI11var_shifterED2Ev.exit:          ; preds = %_ZNSt6vectorINSt7__cxx1112basic_stringIcSt11char_traitsIcESaIcEEESaIS5_EED2Ev.exit, %if.end.i.i
  %m_pattern_validator = getelementptr inbounds %"class.smt2::parser", ptr %this, i64 0, i32 26
  %10 = load ptr, ptr %m_pattern_validator, align 8
  %cmp.i.i3 = icmp eq ptr %10, null
  br i1 %cmp.i.i3, label %_ZN10scoped_ptrI17pattern_validatorED2Ev.exit, label %if.end.i.i4

if.end.i.i4:                                      ; preds = %_ZN10scoped_ptrI11var_shifterED2Ev.exit
  invoke void @_ZN6memory10deallocateEPv(ptr noundef nonnull %10)
          to label %_ZN10scoped_ptrI17pattern_validatorED2Ev.exit unwind label %terminate.lpad.i5

terminate.lpad.i5:                                ; preds = %if.end.i.i4
  %11 = landingpad { ptr, i32 }
          catch ptr null
  %12 = extractvalue { ptr, i32 } %11, 0
  tail call void @__clang_call_terminate(ptr %12) #21
  unreachable

_ZN10scoped_ptrI17pattern_validatorED2Ev.exit:    ; preds = %_ZN10scoped_ptrI11var_shifterED2Ev.exit, %if.end.i.i4
  %m_seq_util = getelementptr inbounds %"class.smt2::parser", ptr %this, i64 0, i32 25
  %13 = load ptr, ptr %m_seq_util, align 8
  %cmp.i.i7 = icmp eq ptr %13, null
  br i1 %cmp.i.i7, label %_ZN10scoped_ptrI8seq_utilED2Ev.exit, label %if.end.i.i8

if.end.i.i8:                                      ; preds = %_ZN10scoped_ptrI17pattern_validatorED2Ev.exit
  %re.i.i.i = getelementptr inbounds %class.seq_util, ptr %13, i64 0, i32 6
  tail call void @_ZN8seq_util3rexD2Ev(ptr noundef nonnull align 8 dereferenceable(80) %re.i.i.i) #19
  invoke void @_ZN6memory10deallocateEPv(ptr noundef nonnull %13)
          to label %_ZN10scoped_ptrI8seq_utilED2Ev.exit unwind label %terminate.lpad.i9

terminate.lpad.i9:                                ; preds = %if.end.i.i8
  %14 = landingpad { ptr, i32 }
          catch ptr null
  %15 = extractvalue { ptr, i32 } %14, 0
  tail call void @__clang_call_terminate(ptr %15) #21
  unreachable

_ZN10scoped_ptrI8seq_utilED2Ev.exit:              ; preds = %_ZN10scoped_ptrI17pattern_validatorED2Ev.exit, %if.end.i.i8
  %m_datatype_util = getelementptr inbounds %"class.smt2::parser", ptr %this, i64 0, i32 24
  %16 = load ptr, ptr %m_datatype_util, align 8
  %cmp.i.i11 = icmp eq ptr %16, null
  br i1 %cmp.i.i11, label %_ZN10scoped_ptrIN8datatype4utilEED2Ev.exit, label %if.end.i.i12

if.end.i.i12:                                     ; preds = %_ZN10scoped_ptrI8seq_utilED2Ev.exit
  tail call void @_ZN8datatype4utilD1Ev(ptr noundef nonnull align 8 dereferenceable(288) %16) #19
  invoke void @_ZN6memory10deallocateEPv(ptr noundef nonnull %16)
          to label %_ZN10scoped_ptrIN8datatype4utilEED2Ev.exit unwind label %terminate.lpad.i13

terminate.lpad.i13:                               ; preds = %if.end.i.i12
  %17 = landingpad { ptr, i32 }
          catch ptr null
  %18 = extractvalue { ptr, i32 } %17, 0
  tail call void @__clang_call_terminate(ptr %18) #21
  unreachable

_ZN10scoped_ptrIN8datatype4utilEED2Ev.exit:       ; preds = %_ZN10scoped_ptrI8seq_utilED2Ev.exit, %if.end.i.i12
  %m_arith_util = getelementptr inbounds %"class.smt2::parser", ptr %this, i64 0, i32 23
  %19 = load ptr, ptr %m_arith_util, align 8
  %cmp.i.i15 = icmp eq ptr %19, null
  br i1 %cmp.i.i15, label %_ZN10scoped_ptrI10arith_utilED2Ev.exit, label %if.end.i.i16

if.end.i.i16:                                     ; preds = %_ZN10scoped_ptrIN8datatype4utilEED2Ev.exit
  invoke void @_ZN6memory10deallocateEPv(ptr noundef nonnull %19)
          to label %_ZN10scoped_ptrI10arith_utilED2Ev.exit unwind label %terminate.lpad.i17

terminate.lpad.i17:                               ; preds = %if.end.i.i16
  %20 = landingpad { ptr, i32 }
          catch ptr null
  %21 = extractvalue { ptr, i32 } %20, 0
  tail call void @__clang_call_terminate(ptr %21) #21
  unreachable

_ZN10scoped_ptrI10arith_utilED2Ev.exit:           ; preds = %_ZN10scoped_ptrIN8datatype4utilEED2Ev.exit, %if.end.i.i16
  %m_bv_util = getelementptr inbounds %"class.smt2::parser", ptr %this, i64 0, i32 22
  %22 = load ptr, ptr %m_bv_util, align 8
  %cmp.i.i19 = icmp eq ptr %22, null
  br i1 %cmp.i.i19, label %_ZN10scoped_ptrI7bv_utilED2Ev.exit, label %if.end.i.i20

if.end.i.i20:                                     ; preds = %_ZN10scoped_ptrI10arith_utilED2Ev.exit
  invoke void @_ZN6memory10deallocateEPv(ptr noundef nonnull %22)
          to label %_ZN10scoped_ptrI7bv_utilED2Ev.exit unwind label %terminate.lpad.i21

terminate.lpad.i21:                               ; preds = %if.end.i.i20
  %23 = landingpad { ptr, i32 }
          catch ptr null
  %24 = extractvalue { ptr, i32 } %23, 0
  tail call void @__clang_call_terminate(ptr %24) #21
  unreachable

_ZN10scoped_ptrI7bv_utilED2Ev.exit:               ; preds = %_ZN10scoped_ptrI10arith_utilED2Ev.exit, %if.end.i.i20
  %m_sexpr_stack = getelementptr inbounds %"class.smt2::parser", ptr %this, i64 0, i32 21
  %25 = load ptr, ptr %m_sexpr_stack, align 8
  invoke void @_Z7deallocI10ref_vectorI5sexpr13sexpr_managerEEvPT_(ptr noundef %25)
          to label %_ZN10scoped_ptrI10ref_vectorI5sexpr13sexpr_managerEED2Ev.exit unwind label %terminate.lpad.i23

terminate.lpad.i23:                               ; preds = %_ZN10scoped_ptrI7bv_utilED2Ev.exit
  %26 = landingpad { ptr, i32 }
          catch ptr null
  %27 = extractvalue { ptr, i32 } %26, 0
  tail call void @__clang_call_terminate(ptr %27) #21
  unreachable

_ZN10scoped_ptrI10ref_vectorI5sexpr13sexpr_managerEED2Ev.exit: ; preds = %_ZN10scoped_ptrI7bv_utilED2Ev.exit
  %m_param_stack = getelementptr inbounds %"class.smt2::parser", ptr %this, i64 0, i32 20
  %28 = load ptr, ptr %m_param_stack, align 8
  %tobool.not.i.i = icmp eq ptr %28, null
  br i1 %tobool.not.i.i, label %_ZN6vectorI9parameterLb1EjED2Ev.exit, label %_ZNK6vectorI9parameterLb1EjE4sizeEv.exit.i.i.i

_ZNK6vectorI9parameterLb1EjE4sizeEv.exit.i.i.i:   ; preds = %_ZN10scoped_ptrI10ref_vectorI5sexpr13sexpr_managerEED2Ev.exit
  %arrayidx.i.i.i.i = getelementptr inbounds i32, ptr %28, i64 -1
  %29 = load i32, ptr %arrayidx.i.i.i.i, align 4
  %cmp.not4.i.i.i.i.i.i = icmp eq i32 %29, 0
  br i1 %cmp.not4.i.i.i.i.i.i, label %_ZN6vectorI9parameterLb1EjE16destroy_elementsEv.exit.i.i, label %for.body.i.i.i.i.i.i

for.body.i.i.i.i.i.i:                             ; preds = %_ZNK6vectorI9parameterLb1EjE4sizeEv.exit.i.i.i, %for.body.i.i.i.i.i.i
  %__count.addr.06.i.i.i.i.i.i = phi i32 [ %dec.i.i.i.i.i.i, %for.body.i.i.i.i.i.i ], [ %29, %_ZNK6vectorI9parameterLb1EjE4sizeEv.exit.i.i.i ]
  %__first.addr.05.i.i.i.i.i.i = phi ptr [ %incdec.ptr.i.i.i.i.i.i, %for.body.i.i.i.i.i.i ], [ %28, %_ZNK6vectorI9parameterLb1EjE4sizeEv.exit.i.i.i ]
  tail call void @_ZN9parameterD1Ev(ptr noundef nonnull align 8 dereferenceable(16) %__first.addr.05.i.i.i.i.i.i) #19
  %incdec.ptr.i.i.i.i.i.i = getelementptr inbounds %class.parameter, ptr %__first.addr.05.i.i.i.i.i.i, i64 1
  %dec.i.i.i.i.i.i = add i32 %__count.addr.06.i.i.i.i.i.i, -1
  %cmp.not.i.i.i.i.i.i = icmp eq i32 %dec.i.i.i.i.i.i, 0
  br i1 %cmp.not.i.i.i.i.i.i, label %_ZN6vectorI9parameterLb1EjE16destroy_elementsEv.exit.loopexit.i.i, label %for.body.i.i.i.i.i.i, !llvm.loop !9

_ZN6vectorI9parameterLb1EjE16destroy_elementsEv.exit.loopexit.i.i: ; preds = %for.body.i.i.i.i.i.i
  %.pre.i.i = load ptr, ptr %m_param_stack, align 8
  br label %_ZN6vectorI9parameterLb1EjE16destroy_elementsEv.exit.i.i

_ZN6vectorI9parameterLb1EjE16destroy_elementsEv.exit.i.i: ; preds = %_ZN6vectorI9parameterLb1EjE16destroy_elementsEv.exit.loopexit.i.i, %_ZNK6vectorI9parameterLb1EjE4sizeEv.exit.i.i.i
  %30 = phi ptr [ %.pre.i.i, %_ZN6vectorI9parameterLb1EjE16destroy_elementsEv.exit.loopexit.i.i ], [ %28, %_ZNK6vectorI9parameterLb1EjE4sizeEv.exit.i.i.i ]
  %add.ptr.i.i.i = getelementptr inbounds i32, ptr %30, i64 -2
  invoke void @_ZN6memory10deallocateEPv(ptr noundef nonnull %add.ptr.i.i.i)
          to label %_ZN6vectorI9parameterLb1EjED2Ev.exit unwind label %terminate.lpad.i25

terminate.lpad.i25:                               ; preds = %_ZN6vectorI9parameterLb1EjE16destroy_elementsEv.exit.i.i
  %31 = landingpad { ptr, i32 }
          catch ptr null
  %32 = extractvalue { ptr, i32 } %31, 0
  tail call void @__clang_call_terminate(ptr %32) #21
  unreachable

_ZN6vectorI9parameterLb1EjED2Ev.exit:             ; preds = %_ZN10scoped_ptrI10ref_vectorI5sexpr13sexpr_managerEED2Ev.exit, %_ZN6vectorI9parameterLb1EjE16destroy_elementsEv.exit.i.i
  %m_symbol_stack = getelementptr inbounds %"class.smt2::parser", ptr %this, i64 0, i32 19
  %33 = load ptr, ptr %m_symbol_stack, align 8
  %tobool.not.i.i.i27 = icmp eq ptr %33, null
  br i1 %tobool.not.i.i.i27, label %_ZN7svectorI6symboljED2Ev.exit, label %if.then.i.i.i28

if.then.i.i.i28:                                  ; preds = %_ZN6vectorI9parameterLb1EjED2Ev.exit
  %add.ptr.i.i.i.i = getelementptr inbounds i32, ptr %33, i64 -2
  invoke void @_ZN6memory10deallocateEPv(ptr noundef nonnull %add.ptr.i.i.i.i)
          to label %_ZN7svectorI6symboljED2Ev.exit unwind label %terminate.lpad.i.i

terminate.lpad.i.i:                               ; preds = %if.then.i.i.i28
  %34 = landingpad { ptr, i32 }
          catch ptr null
  %35 = extractvalue { ptr, i32 } %34, 0
  tail call void @__clang_call_terminate(ptr %35) #21
  unreachable

_ZN7svectorI6symboljED2Ev.exit:                   ; preds = %_ZN6vectorI9parameterLb1EjED2Ev.exit, %if.then.i.i.i28
  %m_nopattern_stack = getelementptr inbounds %"class.smt2::parser", ptr %this, i64 0, i32 18
  %36 = load ptr, ptr %m_nopattern_stack, align 8
  invoke void @_Z7deallocI10ref_vectorI4expr11ast_managerEEvPT_(ptr noundef %36)
          to label %_ZN10scoped_ptrI10ref_vectorI4expr11ast_managerEED2Ev.exit unwind label %terminate.lpad.i29

terminate.lpad.i29:                               ; preds = %_ZN7svectorI6symboljED2Ev.exit
  %37 = landingpad { ptr, i32 }
          catch ptr null
  %38 = extractvalue { ptr, i32 } %37, 0
  tail call void @__clang_call_terminate(ptr %38) #21
  unreachable

_ZN10scoped_ptrI10ref_vectorI4expr11ast_managerEED2Ev.exit: ; preds = %_ZN7svectorI6symboljED2Ev.exit
  %m_pattern_stack = getelementptr inbounds %"class.smt2::parser", ptr %this, i64 0, i32 17
  %39 = load ptr, ptr %m_pattern_stack, align 8
  invoke void @_Z7deallocI10ref_vectorI4expr11ast_managerEEvPT_(ptr noundef %39)
          to label %_ZN10scoped_ptrI10ref_vectorI4expr11ast_managerEED2Ev.exit33 unwind label %terminate.lpad.i31

terminate.lpad.i31:                               ; preds = %_ZN10scoped_ptrI10ref_vectorI4expr11ast_managerEED2Ev.exit
  %40 = landingpad { ptr, i32 }
          catch ptr null
  %41 = extractvalue { ptr, i32 } %40, 0
  tail call void @__clang_call_terminate(ptr %41) #21
  unreachable

_ZN10scoped_ptrI10ref_vectorI4expr11ast_managerEED2Ev.exit33: ; preds = %_ZN10scoped_ptrI10ref_vectorI4expr11ast_managerEED2Ev.exit
  %m_expr_stack = getelementptr inbounds %"class.smt2::parser", ptr %this, i64 0, i32 15
  %42 = load ptr, ptr %m_expr_stack, align 8
  invoke void @_Z7deallocI10ref_vectorI4expr11ast_managerEEvPT_(ptr noundef %42)
          to label %_ZN10scoped_ptrI10ref_vectorI4expr11ast_managerEED2Ev.exit36 unwind label %terminate.lpad.i34

terminate.lpad.i34:                               ; preds = %_ZN10scoped_ptrI10ref_vectorI4expr11ast_managerEED2Ev.exit33
  %43 = landingpad { ptr, i32 }
          catch ptr null
  %44 = extractvalue { ptr, i32 } %43, 0
  tail call void @__clang_call_terminate(ptr %44) #21
  unreachable

_ZN10scoped_ptrI10ref_vectorI4expr11ast_managerEED2Ev.exit36: ; preds = %_ZN10scoped_ptrI10ref_vectorI4expr11ast_managerEED2Ev.exit33
  %m_sort_stack = getelementptr inbounds %"class.smt2::parser", ptr %this, i64 0, i32 14
  %45 = load ptr, ptr %m_sort_stack, align 8
  invoke void @_Z7deallocI10ref_vectorI4sort11ast_managerEEvPT_(ptr noundef %45)
          to label %_ZN10scoped_ptrI10ref_vectorI4sort11ast_managerEED2Ev.exit unwind label %terminate.lpad.i37

terminate.lpad.i37:                               ; preds = %_ZN10scoped_ptrI10ref_vectorI4expr11ast_managerEED2Ev.exit36
  %46 = landingpad { ptr, i32 }
          catch ptr null
  %47 = extractvalue { ptr, i32 } %46, 0
  tail call void @__clang_call_terminate(ptr %47) #21
  unreachable

_ZN10scoped_ptrI10ref_vectorI4sort11ast_managerEED2Ev.exit: ; preds = %_ZN10scoped_ptrI10ref_vectorI4expr11ast_managerEED2Ev.exit36
  %m_psort_stack = getelementptr inbounds %"class.smt2::parser", ptr %this, i64 0, i32 13
  %48 = load ptr, ptr %m_psort_stack, align 8
  %cmp.i.i39 = icmp eq ptr %48, null
  br i1 %cmp.i.i39, label %_ZN10scoped_ptrI10ref_vectorI5psort13pdecl_managerEED2Ev.exit, label %if.end.i.i40

if.end.i.i40:                                     ; preds = %_ZN10scoped_ptrI10ref_vectorI4sort11ast_managerEED2Ev.exit
  tail call void @_ZN15ref_vector_coreI5psort19ref_manager_wrapperIS0_13pdecl_managerEED2Ev(ptr noundef nonnull align 8 dereferenceable(16) %48) #19
  invoke void @_ZN6memory10deallocateEPv(ptr noundef nonnull %48)
          to label %_ZN10scoped_ptrI10ref_vectorI5psort13pdecl_managerEED2Ev.exit unwind label %terminate.lpad.i41

terminate.lpad.i41:                               ; preds = %if.end.i.i40
  %49 = landingpad { ptr, i32 }
          catch ptr null
  %50 = extractvalue { ptr, i32 } %49, 0
  tail call void @__clang_call_terminate(ptr %50) #21
  unreachable

_ZN10scoped_ptrI10ref_vectorI5psort13pdecl_managerEED2Ev.exit: ; preds = %_ZN10scoped_ptrI10ref_vectorI4sort11ast_managerEED2Ev.exit, %if.end.i.i40
  %m_dt_names = getelementptr inbounds %"class.smt2::parser", ptr %this, i64 0, i32 12
  %51 = load ptr, ptr %m_dt_names, align 8
  %tobool.not.i.i.i43 = icmp eq ptr %51, null
  br i1 %tobool.not.i.i.i43, label %_ZN7svectorI6symboljED2Ev.exit47, label %if.then.i.i.i44

if.then.i.i.i44:                                  ; preds = %_ZN10scoped_ptrI10ref_vectorI5psort13pdecl_managerEED2Ev.exit
  %add.ptr.i.i.i.i45 = getelementptr inbounds i32, ptr %51, i64 -2
  invoke void @_ZN6memory10deallocateEPv(ptr noundef nonnull %add.ptr.i.i.i.i45)
          to label %_ZN7svectorI6symboljED2Ev.exit47 unwind label %terminate.lpad.i.i46

terminate.lpad.i.i46:                             ; preds = %if.then.i.i.i44
  %52 = landingpad { ptr, i32 }
          catch ptr null
  %53 = extractvalue { ptr, i32 } %52, 0
  tail call void @__clang_call_terminate(ptr %53) #21
  unreachable

_ZN7svectorI6symboljED2Ev.exit47:                 ; preds = %_ZN10scoped_ptrI10ref_vectorI5psort13pdecl_managerEED2Ev.exit, %if.then.i.i.i44
  %m_dt_name2arity = getelementptr inbounds %"class.smt2::parser", ptr %this, i64 0, i32 11
  %54 = load ptr, ptr %m_dt_name2arity, align 8
  %cmp.i.i.i.i.i = icmp eq ptr %54, null
  br i1 %cmp.i.i.i.i.i, label %_ZN3mapI6symbolj16symbol_hash_proc14symbol_eq_procED2Ev.exit, label %for.cond.preheader.i.i.i.i.i

for.cond.preheader.i.i.i.i.i:                     ; preds = %_ZN7svectorI6symboljED2Ev.exit47
  invoke void @_ZN6memory10deallocateEPv(ptr noundef nonnull %54)
          to label %_ZN3mapI6symbolj16symbol_hash_proc14symbol_eq_procED2Ev.exit unwind label %terminate.lpad.i.i.i

terminate.lpad.i.i.i:                             ; preds = %for.cond.preheader.i.i.i.i.i
  %55 = landingpad { ptr, i32 }
          catch ptr null
  %56 = extractvalue { ptr, i32 } %55, 0
  tail call void @__clang_call_terminate(ptr %56) #21
  unreachable

_ZN3mapI6symbolj16symbol_hash_proc14symbol_eq_procED2Ev.exit: ; preds = %_ZN7svectorI6symboljED2Ev.exit47, %for.cond.preheader.i.i.i.i.i
  store ptr null, ptr %m_dt_name2arity, align 8
  %m_dt_name2idx = getelementptr inbounds %"class.smt2::parser", ptr %this, i64 0, i32 10
  %57 = load ptr, ptr %m_dt_name2idx, align 8
  %cmp.i.i.i.i.i48 = icmp eq ptr %57, null
  br i1 %cmp.i.i.i.i.i48, label %_ZN3mapI6symboli16symbol_hash_proc14symbol_eq_procED2Ev.exit, label %for.cond.preheader.i.i.i.i.i49

for.cond.preheader.i.i.i.i.i49:                   ; preds = %_ZN3mapI6symbolj16symbol_hash_proc14symbol_eq_procED2Ev.exit
  invoke void @_ZN6memory10deallocateEPv(ptr noundef nonnull %57)
          to label %_ZN3mapI6symboli16symbol_hash_proc14symbol_eq_procED2Ev.exit unwind label %terminate.lpad.i.i.i50

terminate.lpad.i.i.i50:                           ; preds = %for.cond.preheader.i.i.i.i.i49
  %58 = landingpad { ptr, i32 }
          catch ptr null
  %59 = extractvalue { ptr, i32 } %58, 0
  tail call void @__clang_call_terminate(ptr %59) #21
  unreachable

_ZN3mapI6symboli16symbol_hash_proc14symbol_eq_procED2Ev.exit: ; preds = %_ZN3mapI6symbolj16symbol_hash_proc14symbol_eq_procED2Ev.exit, %for.cond.preheader.i.i.i.i.i49
  store ptr null, ptr %m_dt_name2idx, align 8
  %m_sort_id2param_idx = getelementptr inbounds %"class.smt2::parser", ptr %this, i64 0, i32 9
  %60 = load ptr, ptr %m_sort_id2param_idx, align 8
  %cmp.i.i.i.i.i51 = icmp eq ptr %60, null
  br i1 %cmp.i.i.i.i.i51, label %_ZN3mapI6symboli16symbol_hash_proc14symbol_eq_procED2Ev.exit54, label %for.cond.preheader.i.i.i.i.i52

for.cond.preheader.i.i.i.i.i52:                   ; preds = %_ZN3mapI6symboli16symbol_hash_proc14symbol_eq_procED2Ev.exit
  invoke void @_ZN6memory10deallocateEPv(ptr noundef nonnull %60)
          to label %_ZN3mapI6symboli16symbol_hash_proc14symbol_eq_procED2Ev.exit54 unwind label %terminate.lpad.i.i.i53

terminate.lpad.i.i.i53:                           ; preds = %for.cond.preheader.i.i.i.i.i52
  %61 = landingpad { ptr, i32 }
          catch ptr null
  %62 = extractvalue { ptr, i32 } %61, 0
  tail call void @__clang_call_terminate(ptr %62) #21
  unreachable

_ZN3mapI6symboli16symbol_hash_proc14symbol_eq_procED2Ev.exit54: ; preds = %_ZN3mapI6symboli16symbol_hash_proc14symbol_eq_procED2Ev.exit, %for.cond.preheader.i.i.i.i.i52
  store ptr null, ptr %m_sort_id2param_idx, align 8
  %m_env = getelementptr inbounds %"class.smt2::parser", ptr %this, i64 0, i32 6
  %m_trail_lims.i = getelementptr inbounds %"class.smt2::parser", ptr %this, i64 0, i32 6, i32 2
  %63 = load ptr, ptr %m_trail_lims.i, align 8
  %tobool.not.i.i.i.i = icmp eq ptr %63, null
  br i1 %tobool.not.i.i.i.i, label %_ZN7svectorIijED2Ev.exit.i, label %if.then.i.i.i.i

if.then.i.i.i.i:                                  ; preds = %_ZN3mapI6symboli16symbol_hash_proc14symbol_eq_procED2Ev.exit54
  %add.ptr.i.i.i.i.i = getelementptr inbounds i32, ptr %63, i64 -2
  invoke void @_ZN6memory10deallocateEPv(ptr noundef nonnull %add.ptr.i.i.i.i.i)
          to label %_ZN7svectorIijED2Ev.exit.i unwind label %terminate.lpad.i.i.i55

terminate.lpad.i.i.i55:                           ; preds = %if.then.i.i.i.i
  %64 = landingpad { ptr, i32 }
          catch ptr null
  %65 = extractvalue { ptr, i32 } %64, 0
  tail call void @__clang_call_terminate(ptr %65) #21
  unreachable

_ZN7svectorIijED2Ev.exit.i:                       ; preds = %if.then.i.i.i.i, %_ZN3mapI6symboli16symbol_hash_proc14symbol_eq_procED2Ev.exit54
  %m_trail_stack.i = getelementptr inbounds %"class.smt2::parser", ptr %this, i64 0, i32 6, i32 1
  %66 = load ptr, ptr %m_trail_stack.i, align 8
  %tobool.not.i.i.i56 = icmp eq ptr %66, null
  br i1 %tobool.not.i.i.i56, label %_ZN6vectorIN12symbol_tableIN4smt26parser5localEE8key_dataELb1EjED2Ev.exit.i, label %if.then.i.i.i57

if.then.i.i.i57:                                  ; preds = %_ZN7svectorIijED2Ev.exit.i
  %add.ptr.i.i.i.i58 = getelementptr inbounds i32, ptr %66, i64 -2
  invoke void @_ZN6memory10deallocateEPv(ptr noundef nonnull %add.ptr.i.i.i.i58)
          to label %_ZN6vectorIN12symbol_tableIN4smt26parser5localEE8key_dataELb1EjED2Ev.exit.i unwind label %terminate.lpad.i.i59

terminate.lpad.i.i59:                             ; preds = %if.then.i.i.i57
  %67 = landingpad { ptr, i32 }
          catch ptr null
  %68 = extractvalue { ptr, i32 } %67, 0
  tail call void @__clang_call_terminate(ptr %68) #21
  unreachable

_ZN6vectorIN12symbol_tableIN4smt26parser5localEE8key_dataELb1EjED2Ev.exit.i: ; preds = %if.then.i.i.i57, %_ZN7svectorIijED2Ev.exit.i
  %69 = load ptr, ptr %m_env, align 8
  %cmp.i.i.i.i = icmp eq ptr %69, null
  br i1 %cmp.i.i.i.i, label %_ZN12symbol_tableIN4smt26parser5localEED2Ev.exit, label %for.cond.preheader.i.i.i.i

for.cond.preheader.i.i.i.i:                       ; preds = %_ZN6vectorIN12symbol_tableIN4smt26parser5localEE8key_dataELb1EjED2Ev.exit.i
  invoke void @_ZN6memory10deallocateEPv(ptr noundef nonnull %69)
          to label %_ZN12symbol_tableIN4smt26parser5localEED2Ev.exit unwind label %terminate.lpad.i1.i

terminate.lpad.i1.i:                              ; preds = %for.cond.preheader.i.i.i.i
  %70 = landingpad { ptr, i32 }
          catch ptr null
  %71 = extractvalue { ptr, i32 } %70, 0
  tail call void @__clang_call_terminate(ptr %71) #21
  unreachable

_ZN12symbol_tableIN4smt26parser5localEED2Ev.exit: ; preds = %_ZN6vectorIN12symbol_tableIN4smt26parser5localEE8key_dataELb1EjED2Ev.exit.i, %for.cond.preheader.i.i.i.i
  store ptr null, ptr %m_env, align 8
  tail call void @_ZN5stackD1Ev(ptr noundef nonnull align 8 dereferenceable(32) %m_stack.i) #19
  %m_scanner = getelementptr inbounds %"class.smt2::parser", ptr %this, i64 0, i32 2
  tail call void @_ZN4smt27scannerD2Ev(ptr noundef nonnull align 8 dereferenceable(1408) %m_scanner) #19
  %m_params = getelementptr inbounds %"class.smt2::parser", ptr %this, i64 0, i32 1
  tail call void @_ZN10params_refD1Ev(ptr noundef nonnull align 8 dereferenceable(8) %m_params) #19
  ret void

terminate.lpad:                                   ; preds = %entry
  %72 = landingpad { ptr, i32 }
          catch ptr null
  %73 = extractvalue { ptr, i32 } %72, 0
  tail call void @__clang_call_terminate(ptr %73) #21
  unreachable
}

; Function Attrs: mustprogress uwtable
define hidden noundef zeroext i1 @_Z31parse_smt2_commands_with_parserRPN4smt26parserER11cmd_contextRSibRK10params_refPKc(ptr nocapture noundef nonnull align 8 dereferenceable(8) %p, ptr noundef nonnull align 8 dereferenceable(872) %ctx, ptr noundef nonnull align 8 dereferenceable(16) %is, i1 noundef zeroext %interactive, ptr noundef nonnull align 8 dereferenceable(8) %ps, ptr noundef %filename) local_unnamed_addr #3 {
entry:
  %0 = load ptr, ptr %p, align 8
  %tobool.not = icmp eq ptr %0, null
  br i1 %tobool.not, label %if.else, label %if.then

if.then:                                          ; preds = %entry
  %m_scanner.i = getelementptr inbounds %"class.smt2::parser", ptr %0, i64 0, i32 2
  tail call void @_ZN4smt27scanner11reset_inputERSib(ptr noundef nonnull align 8 dereferenceable(1408) %m_scanner.i, ptr noundef nonnull align 8 dereferenceable(16) %is, i1 noundef zeroext %interactive)
  %.pre = load ptr, ptr %p, align 8
  br label %if.end

if.else:                                          ; preds = %entry
  %call = tail call noalias noundef ptr @_ZN6memory8allocateEm(i64 noundef 2168)
  tail call void @_ZN4smt26parserC2ER11cmd_contextRSibRK10params_refPKc(ptr noundef nonnull align 8 dereferenceable(2168) %call, ptr noundef nonnull align 8 dereferenceable(872) %ctx, ptr noundef nonnull align 8 dereferenceable(16) %is, i1 noundef zeroext %interactive, ptr noundef nonnull align 8 dereferenceable(8) %ps, ptr noundef %filename)
  store ptr %call, ptr %p, align 8
  br label %if.end

if.end:                                           ; preds = %if.else, %if.then
  %1 = phi ptr [ %call, %if.else ], [ %.pre, %if.then ]
  %call3 = tail call noundef zeroext i1 @_ZN4smt26parserclEv(ptr noundef nonnull align 8 dereferenceable(2168) %1)
  ret i1 %call3
}

declare noalias noundef ptr @_ZN6memory8allocateEm(i64 noundef) local_unnamed_addr #0

; Function Attrs: mustprogress uwtable
define hidden void @_Z15parse_smt2_sortR11cmd_contextRSibRK10params_refPKc(ptr noalias sret(%class.obj_ref) align 8 %agg.result, ptr noundef nonnull align 8 dereferenceable(872) %ctx, ptr noundef nonnull align 8 dereferenceable(16) %is, i1 noundef zeroext %interactive, ptr noundef nonnull align 8 dereferenceable(8) %ps, ptr noundef %filename) local_unnamed_addr #3 personality ptr @__gxx_personality_v0 {
entry:
  %p = alloca %"class.smt2::parser", align 8
  call void @_ZN4smt26parserC2ER11cmd_contextRSibRK10params_refPKc(ptr noundef nonnull align 8 dereferenceable(2168) %p, ptr noundef nonnull align 8 dereferenceable(872) %ctx, ptr noundef nonnull align 8 dereferenceable(16) %is, i1 noundef zeroext %interactive, ptr noundef nonnull align 8 dereferenceable(8) %ps, ptr noundef %filename)
  invoke void @_ZN4smt26parser14parse_sort_refEPKc(ptr sret(%class.obj_ref) align 8 %agg.result, ptr noundef nonnull align 8 dereferenceable(2168) %p, ptr noundef %filename)
          to label %invoke.cont unwind label %lpad

invoke.cont:                                      ; preds = %entry
  call void @_ZN4smt26parserD2Ev(ptr noundef nonnull align 8 dereferenceable(2168) %p) #19
  ret void

lpad:                                             ; preds = %entry
  %0 = landingpad { ptr, i32 }
          cleanup
  call void @_ZN4smt26parserD2Ev(ptr noundef nonnull align 8 dereferenceable(2168) %p) #19
  resume { ptr, i32 } %0
}

; Function Attrs: mustprogress uwtable
define linkonce_odr hidden void @_ZN4smt26parser14parse_sort_refEPKc(ptr noalias sret(%class.obj_ref) align 8 %agg.result, ptr noundef nonnull align 8 dereferenceable(2168) %this, ptr noundef %context) local_unnamed_addr #3 comdat align 2 personality ptr @__gxx_personality_v0 {
entry:
  %m_num_bindings = getelementptr inbounds %"class.smt2::parser", ptr %this, i64 0, i32 7
  store i32 0, ptr %m_num_bindings, align 8
  %m_num_open_paren = getelementptr inbounds %"class.smt2::parser", ptr %this, i64 0, i32 74
  store i32 0, ptr %m_num_open_paren, align 8
  %m_cache.i.i = getelementptr inbounds %"class.smt2::parser", ptr %this, i64 0, i32 2, i32 17
  %0 = load ptr, ptr %m_cache.i.i, align 8
  %cmp.i.i.i = icmp eq ptr %0, null
  br i1 %cmp.i.i.i, label %_ZNK4smt27scanner10cache_sizeEv.exit.i, label %if.end.i.i.i

if.end.i.i.i:                                     ; preds = %entry
  %arrayidx.i.i.i = getelementptr inbounds i32, ptr %0, i64 -1
  %1 = load i32, ptr %arrayidx.i.i.i, align 4
  br label %_ZNK4smt27scanner10cache_sizeEv.exit.i

_ZNK4smt27scanner10cache_sizeEv.exit.i:           ; preds = %if.end.i.i.i, %entry
  %retval.0.i.i.i = phi i32 [ %1, %if.end.i.i.i ], [ 0, %entry ]
  %m_scanner.i = getelementptr inbounds %"class.smt2::parser", ptr %this, i64 0, i32 2
  %m_cache_end.i = getelementptr inbounds %"class.smt2::parser", ptr %this, i64 0, i32 72
  store i32 %retval.0.i.i.i, ptr %m_cache_end.i, align 4
  %call3.i2 = invoke noundef i32 @_ZN4smt27scanner4scanEv(ptr noundef nonnull align 8 dereferenceable(1408) %m_scanner.i)
          to label %invoke.cont unwind label %lpad

invoke.cont:                                      ; preds = %_ZNK4smt27scanner10cache_sizeEv.exit.i
  %m_curr.i = getelementptr inbounds %"class.smt2::parser", ptr %this, i64 0, i32 3
  store i32 %call3.i2, ptr %m_curr.i, align 8
  invoke void @_ZN4smt26parser10parse_sortEPKc(ptr noundef nonnull align 8 dereferenceable(2168) %this, ptr noundef %context)
          to label %invoke.cont2 unwind label %lpad

invoke.cont2:                                     ; preds = %invoke.cont
  %m_sort_stack.i = getelementptr inbounds %"class.smt2::parser", ptr %this, i64 0, i32 14
  %2 = load ptr, ptr %m_sort_stack.i, align 8
  %cmp.i = icmp eq ptr %2, null
  br i1 %cmp.i, label %if.then.i, label %invoke.cont3

if.then.i:                                        ; preds = %invoke.cont2
  %call2.i3 = invoke noalias noundef ptr @_ZN6memory8allocateEm(i64 noundef 16)
          to label %call2.i.noexc unwind label %lpad

call2.i.noexc:                                    ; preds = %if.then.i
  %3 = load ptr, ptr %this, align 8
  invoke void @_ZN11cmd_context12init_managerEv(ptr noundef nonnull align 8 dereferenceable(872) %3)
          to label %.noexc unwind label %lpad

.noexc:                                           ; preds = %call2.i.noexc
  %m_manager.i.i.i = getelementptr inbounds %class.cmd_context, ptr %3, i64 0, i32 20
  %4 = load ptr, ptr %m_manager.i.i.i, align 8
  store ptr %4, ptr %call2.i3, align 8
  %m_nodes.i.i.i = getelementptr inbounds %class.ref_vector_core.195, ptr %call2.i3, i64 0, i32 1
  store ptr null, ptr %m_nodes.i.i.i, align 8
  %5 = load ptr, ptr %m_sort_stack.i, align 8
  %cmp.not.i.i = icmp eq ptr %5, %call2.i3
  br i1 %cmp.not.i.i, label %invoke.cont3, label %if.then.i.i

if.then.i.i:                                      ; preds = %.noexc
  invoke void @_Z7deallocI10ref_vectorI4sort11ast_managerEEvPT_(ptr noundef %5)
          to label %.noexc4 unwind label %lpad

.noexc4:                                          ; preds = %if.then.i.i
  store ptr %call2.i3, ptr %m_sort_stack.i, align 8
  br label %invoke.cont3

invoke.cont3:                                     ; preds = %.noexc4, %.noexc, %invoke.cont2
  %6 = phi ptr [ %call2.i3, %.noexc4 ], [ %call2.i3, %.noexc ], [ %2, %invoke.cont2 ]
  %m_nodes.i = getelementptr inbounds %class.ref_vector_core.195, ptr %6, i64 0, i32 1
  %7 = load ptr, ptr %m_nodes.i, align 8
  %cmp.i.i = icmp eq ptr %7, null
  br i1 %cmp.i.i, label %try.cont, label %invoke.cont4

invoke.cont4:                                     ; preds = %invoke.cont3
  %arrayidx.i.i = getelementptr inbounds i32, ptr %7, i64 -1
  %8 = load i32, ptr %arrayidx.i.i, align 4
  %cmp3.i.i = icmp eq i32 %8, 0
  br i1 %cmp3.i.i, label %try.cont, label %invoke.cont8

invoke.cont8:                                     ; preds = %invoke.cont4
  %9 = add i32 %8, -1
  %10 = zext i32 %9 to i64
  %arrayidx.i1.i.i = getelementptr inbounds ptr, ptr %7, i64 %10
  %11 = load ptr, ptr %arrayidx.i1.i.i, align 8
  %12 = load ptr, ptr %this, align 8
  invoke void @_ZN11cmd_context12init_managerEv(ptr noundef nonnull align 8 dereferenceable(872) %12)
          to label %invoke.cont10 unwind label %lpad

invoke.cont10:                                    ; preds = %invoke.cont8
  %m_manager.i.i = getelementptr inbounds %class.cmd_context, ptr %12, i64 0, i32 20
  %13 = load ptr, ptr %m_manager.i.i, align 8
  store ptr %11, ptr %agg.result, align 8
  %m_manager.i = getelementptr inbounds %class.obj_ref, ptr %agg.result, i64 0, i32 1
  store ptr %13, ptr %m_manager.i, align 8
  %tobool.not.i.i = icmp eq ptr %11, null
  br i1 %tobool.not.i.i, label %return, label %_ZN11ast_manager7inc_refEP3ast.exit.i.i

_ZN11ast_manager7inc_refEP3ast.exit.i.i:          ; preds = %invoke.cont10
  %m_ref_count.i.i.i.i = getelementptr inbounds %class.ast, ptr %11, i64 0, i32 2
  %14 = load i32, ptr %m_ref_count.i.i.i.i, align 4
  %inc.i.i.i.i = add i32 %14, 1
  store i32 %inc.i.i.i.i, ptr %m_ref_count.i.i.i.i, align 4
  br label %return

lpad:                                             ; preds = %invoke.cont8, %if.then.i.i, %call2.i.noexc, %if.then.i, %_ZNK4smt27scanner10cache_sizeEv.exit.i, %invoke.cont
  %15 = landingpad { ptr, i32 }
          catch ptr @_ZTI12z3_exception
  %16 = extractvalue { ptr, i32 } %15, 1
  %17 = tail call i32 @llvm.eh.typeid.for(ptr nonnull @_ZTI12z3_exception) #19
  %matches = icmp eq i32 %16, %17
  br i1 %matches, label %catch, label %eh.resume

catch:                                            ; preds = %lpad
  %18 = extractvalue { ptr, i32 } %15, 0
  %19 = tail call ptr @__cxa_begin_catch(ptr %18) #19
  %vtable = load ptr, ptr %19, align 8
  %vfn = getelementptr inbounds ptr, ptr %vtable, i64 2
  %20 = load ptr, ptr %vfn, align 8
  %call15 = invoke noundef ptr %20(ptr noundef nonnull align 8 dereferenceable(8) %19)
          to label %invoke.cont14 unwind label %lpad13

invoke.cont14:                                    ; preds = %catch
  %m_line.i.i = getelementptr inbounds %"class.smt2::parser", ptr %this, i64 0, i32 2, i32 5
  %21 = load i32, ptr %m_line.i.i, align 4
  %m_pos.i.i = getelementptr inbounds %"class.smt2::parser", ptr %this, i64 0, i32 2, i32 6
  %22 = load i32, ptr %m_pos.i.i, align 8
  invoke void @_ZN4smt26parser5errorEjjPKc(ptr noundef nonnull align 8 dereferenceable(2168) %this, i32 noundef %21, i32 noundef %22, ptr noundef %call15)
          to label %invoke.cont16 unwind label %lpad13

invoke.cont16:                                    ; preds = %invoke.cont14
  tail call void @__cxa_end_catch()
  br label %try.cont

try.cont:                                         ; preds = %invoke.cont3, %invoke.cont4, %invoke.cont16
  %23 = load ptr, ptr %this, align 8
  tail call void @_ZN11cmd_context12init_managerEv(ptr noundef nonnull align 8 dereferenceable(872) %23)
  %m_manager.i.i24 = getelementptr inbounds %class.cmd_context, ptr %23, i64 0, i32 20
  %24 = load ptr, ptr %m_manager.i.i24, align 8
  store ptr null, ptr %agg.result, align 8
  %m_manager.i25 = getelementptr inbounds %class.obj_ref, ptr %agg.result, i64 0, i32 1
  store ptr %24, ptr %m_manager.i25, align 8
  br label %return

lpad13:                                           ; preds = %invoke.cont14, %catch
  %25 = landingpad { ptr, i32 }
          cleanup
  invoke void @__cxa_end_catch()
          to label %eh.resume unwind label %terminate.lpad

return:                                           ; preds = %_ZN11ast_manager7inc_refEP3ast.exit.i.i, %invoke.cont10, %try.cont
  ret void

eh.resume:                                        ; preds = %lpad13, %lpad
  %lpad.val21.merged = phi { ptr, i32 } [ %25, %lpad13 ], [ %15, %lpad ]
  resume { ptr, i32 } %lpad.val21.merged

terminate.lpad:                                   ; preds = %lpad13
  %26 = landingpad { ptr, i32 }
          catch ptr null
  %27 = extractvalue { ptr, i32 } %26, 0
  tail call void @__clang_call_terminate(ptr %27) #21
  unreachable
}

; Function Attrs: mustprogress uwtable
define hidden void @_Z11parse_sexprR11cmd_contextRSiRK10params_refPKc(ptr noalias sret(%class.obj_ref.89) align 8 %agg.result, ptr noundef nonnull align 8 dereferenceable(872) %ctx, ptr noundef nonnull align 8 dereferenceable(16) %is, ptr noundef nonnull align 8 dereferenceable(8) %ps, ptr noundef %filename) local_unnamed_addr #3 personality ptr @__gxx_personality_v0 {
entry:
  %p = alloca %"class.smt2::parser", align 8
  call void @_ZN4smt26parserC2ER11cmd_contextRSibRK10params_refPKc(ptr noundef nonnull align 8 dereferenceable(2168) %p, ptr noundef nonnull align 8 dereferenceable(872) %ctx, ptr noundef nonnull align 8 dereferenceable(16) %is, i1 noundef zeroext false, ptr noundef nonnull align 8 dereferenceable(8) %ps, ptr noundef %filename)
  invoke void @_ZN4smt26parser15parse_sexpr_refEv(ptr sret(%class.obj_ref.89) align 8 %agg.result, ptr noundef nonnull align 8 dereferenceable(2168) %p)
          to label %invoke.cont unwind label %lpad

invoke.cont:                                      ; preds = %entry
  call void @_ZN4smt26parserD2Ev(ptr noundef nonnull align 8 dereferenceable(2168) %p) #19
  ret void

lpad:                                             ; preds = %entry
  %0 = landingpad { ptr, i32 }
          cleanup
  call void @_ZN4smt26parserD2Ev(ptr noundef nonnull align 8 dereferenceable(2168) %p) #19
  resume { ptr, i32 } %0
}

; Function Attrs: mustprogress uwtable
define linkonce_odr hidden void @_ZN4smt26parser15parse_sexpr_refEv(ptr noalias sret(%class.obj_ref.89) align 8 %agg.result, ptr noundef nonnull align 8 dereferenceable(2168) %this) local_unnamed_addr #3 comdat align 2 personality ptr @__gxx_personality_v0 {
entry:
  %m_num_bindings = getelementptr inbounds %"class.smt2::parser", ptr %this, i64 0, i32 7
  store i32 0, ptr %m_num_bindings, align 8
  %m_num_open_paren = getelementptr inbounds %"class.smt2::parser", ptr %this, i64 0, i32 74
  store i32 0, ptr %m_num_open_paren, align 8
  %m_cache.i.i = getelementptr inbounds %"class.smt2::parser", ptr %this, i64 0, i32 2, i32 17
  %0 = load ptr, ptr %m_cache.i.i, align 8
  %cmp.i.i.i = icmp eq ptr %0, null
  br i1 %cmp.i.i.i, label %_ZNK4smt27scanner10cache_sizeEv.exit.i, label %if.end.i.i.i

if.end.i.i.i:                                     ; preds = %entry
  %arrayidx.i.i.i = getelementptr inbounds i32, ptr %0, i64 -1
  %1 = load i32, ptr %arrayidx.i.i.i, align 4
  br label %_ZNK4smt27scanner10cache_sizeEv.exit.i

_ZNK4smt27scanner10cache_sizeEv.exit.i:           ; preds = %if.end.i.i.i, %entry
  %retval.0.i.i.i = phi i32 [ %1, %if.end.i.i.i ], [ 0, %entry ]
  %m_scanner.i = getelementptr inbounds %"class.smt2::parser", ptr %this, i64 0, i32 2
  %m_cache_end.i = getelementptr inbounds %"class.smt2::parser", ptr %this, i64 0, i32 72
  store i32 %retval.0.i.i.i, ptr %m_cache_end.i, align 4
  %call3.i2 = invoke noundef i32 @_ZN4smt27scanner4scanEv(ptr noundef nonnull align 8 dereferenceable(1408) %m_scanner.i)
          to label %invoke.cont unwind label %lpad

invoke.cont:                                      ; preds = %_ZNK4smt27scanner10cache_sizeEv.exit.i
  %m_curr.i = getelementptr inbounds %"class.smt2::parser", ptr %this, i64 0, i32 3
  store i32 %call3.i2, ptr %m_curr.i, align 8
  invoke void @_ZN4smt26parser11parse_sexprEv(ptr noundef nonnull align 8 dereferenceable(2168) %this)
          to label %invoke.cont2 unwind label %lpad

invoke.cont2:                                     ; preds = %invoke.cont
  %m_sexpr_stack.i = getelementptr inbounds %"class.smt2::parser", ptr %this, i64 0, i32 21
  %2 = load ptr, ptr %m_sexpr_stack.i, align 8
  %cmp.i = icmp eq ptr %2, null
  br i1 %cmp.i, label %if.then.i, label %invoke.cont3

if.then.i:                                        ; preds = %invoke.cont2
  %call2.i3 = invoke noalias noundef ptr @_ZN6memory8allocateEm(i64 noundef 16)
          to label %call2.i.noexc unwind label %lpad

call2.i.noexc:                                    ; preds = %if.then.i
  %3 = load ptr, ptr %this, align 8
  %m_sexpr_manager.i.i.i = getelementptr inbounds %class.cmd_context, ptr %3, i64 0, i32 24
  %4 = load ptr, ptr %m_sexpr_manager.i.i.i, align 8
  %tobool.not.i.i.i = icmp eq ptr %4, null
  br i1 %tobool.not.i.i.i, label %if.then.i.i.i, label %_ZNK4smt26parser2smEv.exit.i

if.then.i.i.i:                                    ; preds = %call2.i.noexc
  %call.i.i.i4 = invoke noalias noundef ptr @_ZN6memory8allocateEm(i64 noundef 528)
          to label %call.i.i.i.noexc unwind label %lpad

call.i.i.i.noexc:                                 ; preds = %if.then.i.i.i
  invoke void @_ZN13sexpr_managerC1Ev(ptr noundef nonnull align 8 dereferenceable(528) %call.i.i.i4)
          to label %.noexc unwind label %lpad

.noexc:                                           ; preds = %call.i.i.i.noexc
  store ptr %call.i.i.i4, ptr %m_sexpr_manager.i.i.i, align 8
  br label %_ZNK4smt26parser2smEv.exit.i

_ZNK4smt26parser2smEv.exit.i:                     ; preds = %.noexc, %call2.i.noexc
  %5 = phi ptr [ %call.i.i.i4, %.noexc ], [ %4, %call2.i.noexc ]
  store ptr %5, ptr %call2.i3, align 8
  %m_nodes.i.i.i = getelementptr inbounds %class.ref_vector_core.177, ptr %call2.i3, i64 0, i32 1
  store ptr null, ptr %m_nodes.i.i.i, align 8
  %6 = load ptr, ptr %m_sexpr_stack.i, align 8
  %cmp.not.i.i = icmp eq ptr %6, %call2.i3
  br i1 %cmp.not.i.i, label %invoke.cont3, label %if.then.i.i

if.then.i.i:                                      ; preds = %_ZNK4smt26parser2smEv.exit.i
  invoke void @_Z7deallocI10ref_vectorI5sexpr13sexpr_managerEEvPT_(ptr noundef %6)
          to label %.noexc5 unwind label %lpad

.noexc5:                                          ; preds = %if.then.i.i
  store ptr %call2.i3, ptr %m_sexpr_stack.i, align 8
  br label %invoke.cont3

invoke.cont3:                                     ; preds = %.noexc5, %_ZNK4smt26parser2smEv.exit.i, %invoke.cont2
  %7 = phi ptr [ %call2.i3, %.noexc5 ], [ %call2.i3, %_ZNK4smt26parser2smEv.exit.i ], [ %2, %invoke.cont2 ]
  %m_nodes.i = getelementptr inbounds %class.ref_vector_core.177, ptr %7, i64 0, i32 1
  %8 = load ptr, ptr %m_nodes.i, align 8
  %cmp.i.i = icmp eq ptr %8, null
  br i1 %cmp.i.i, label %try.cont, label %invoke.cont4

invoke.cont4:                                     ; preds = %invoke.cont3
  %arrayidx.i.i = getelementptr inbounds i32, ptr %8, i64 -1
  %9 = load i32, ptr %arrayidx.i.i, align 4
  %cmp3.i.i = icmp eq i32 %9, 0
  br i1 %cmp3.i.i, label %try.cont, label %invoke.cont8

invoke.cont8:                                     ; preds = %invoke.cont4
  %10 = add i32 %9, -1
  %11 = zext i32 %10 to i64
  %arrayidx.i1.i.i = getelementptr inbounds ptr, ptr %8, i64 %11
  %12 = load ptr, ptr %arrayidx.i1.i.i, align 8
  %13 = load ptr, ptr %this, align 8
  %m_sexpr_manager.i.i = getelementptr inbounds %class.cmd_context, ptr %13, i64 0, i32 24
  %14 = load ptr, ptr %m_sexpr_manager.i.i, align 8
  %tobool.not.i.i = icmp eq ptr %14, null
  br i1 %tobool.not.i.i, label %if.then.i.i28, label %invoke.cont10

if.then.i.i28:                                    ; preds = %invoke.cont8
  %call.i.i29 = invoke noalias noundef ptr @_ZN6memory8allocateEm(i64 noundef 528)
          to label %call.i.i.noexc unwind label %lpad

call.i.i.noexc:                                   ; preds = %if.then.i.i28
  invoke void @_ZN13sexpr_managerC1Ev(ptr noundef nonnull align 8 dereferenceable(528) %call.i.i29)
          to label %.noexc30 unwind label %lpad

.noexc30:                                         ; preds = %call.i.i.noexc
  store ptr %call.i.i29, ptr %m_sexpr_manager.i.i, align 8
  br label %invoke.cont10

invoke.cont10:                                    ; preds = %.noexc30, %invoke.cont8
  %15 = phi ptr [ %call.i.i29, %.noexc30 ], [ %14, %invoke.cont8 ]
  store ptr %12, ptr %agg.result, align 8
  %m_manager.i = getelementptr inbounds %class.obj_ref.89, ptr %agg.result, i64 0, i32 1
  store ptr %15, ptr %m_manager.i, align 8
  %tobool.not.i.i31 = icmp eq ptr %12, null
  br i1 %tobool.not.i.i31, label %return, label %if.then.i.i32

if.then.i.i32:                                    ; preds = %invoke.cont10
  %m_ref_count.i.i.i.i = getelementptr inbounds %class.sexpr, ptr %12, i64 0, i32 1
  %16 = load i32, ptr %m_ref_count.i.i.i.i, align 4
  %inc.i.i.i.i = add i32 %16, 1
  store i32 %inc.i.i.i.i, ptr %m_ref_count.i.i.i.i, align 4
  br label %return

lpad:                                             ; preds = %call.i.i.noexc, %if.then.i.i28, %if.then.i.i, %call.i.i.i.noexc, %if.then.i.i.i, %if.then.i, %_ZNK4smt27scanner10cache_sizeEv.exit.i, %invoke.cont
  %17 = landingpad { ptr, i32 }
          catch ptr @_ZTI12z3_exception
  %18 = extractvalue { ptr, i32 } %17, 1
  %19 = tail call i32 @llvm.eh.typeid.for(ptr nonnull @_ZTI12z3_exception) #19
  %matches = icmp eq i32 %18, %19
  br i1 %matches, label %catch, label %eh.resume

catch:                                            ; preds = %lpad
  %20 = extractvalue { ptr, i32 } %17, 0
  %21 = tail call ptr @__cxa_begin_catch(ptr %20) #19
  %vtable = load ptr, ptr %21, align 8
  %vfn = getelementptr inbounds ptr, ptr %vtable, i64 2
  %22 = load ptr, ptr %vfn, align 8
  %call15 = invoke noundef ptr %22(ptr noundef nonnull align 8 dereferenceable(8) %21)
          to label %invoke.cont14 unwind label %lpad13

invoke.cont14:                                    ; preds = %catch
  %m_line.i.i = getelementptr inbounds %"class.smt2::parser", ptr %this, i64 0, i32 2, i32 5
  %23 = load i32, ptr %m_line.i.i, align 4
  %m_pos.i.i = getelementptr inbounds %"class.smt2::parser", ptr %this, i64 0, i32 2, i32 6
  %24 = load i32, ptr %m_pos.i.i, align 8
  invoke void @_ZN4smt26parser5errorEjjPKc(ptr noundef nonnull align 8 dereferenceable(2168) %this, i32 noundef %23, i32 noundef %24, ptr noundef %call15)
          to label %invoke.cont16 unwind label %lpad13

invoke.cont16:                                    ; preds = %invoke.cont14
  tail call void @__cxa_end_catch()
  br label %try.cont

try.cont:                                         ; preds = %invoke.cont3, %invoke.cont4, %invoke.cont16
  %25 = load ptr, ptr %this, align 8
  %m_sexpr_manager.i.i34 = getelementptr inbounds %class.cmd_context, ptr %25, i64 0, i32 24
  %26 = load ptr, ptr %m_sexpr_manager.i.i34, align 8
  %tobool.not.i.i35 = icmp eq ptr %26, null
  br i1 %tobool.not.i.i35, label %if.then.i.i36, label %_ZNK4smt26parser2smEv.exit37

if.then.i.i36:                                    ; preds = %try.cont
  %call.i.i = tail call noalias noundef ptr @_ZN6memory8allocateEm(i64 noundef 528)
  tail call void @_ZN13sexpr_managerC1Ev(ptr noundef nonnull align 8 dereferenceable(528) %call.i.i)
  store ptr %call.i.i, ptr %m_sexpr_manager.i.i34, align 8
  br label %_ZNK4smt26parser2smEv.exit37

_ZNK4smt26parser2smEv.exit37:                     ; preds = %try.cont, %if.then.i.i36
  %27 = phi ptr [ %call.i.i, %if.then.i.i36 ], [ %26, %try.cont ]
  store ptr null, ptr %agg.result, align 8
  %m_manager.i38 = getelementptr inbounds %class.obj_ref.89, ptr %agg.result, i64 0, i32 1
  store ptr %27, ptr %m_manager.i38, align 8
  br label %return

lpad13:                                           ; preds = %invoke.cont14, %catch
  %28 = landingpad { ptr, i32 }
          cleanup
  invoke void @__cxa_end_catch()
          to label %eh.resume unwind label %terminate.lpad

return:                                           ; preds = %if.then.i.i32, %invoke.cont10, %_ZNK4smt26parser2smEv.exit37
  ret void

eh.resume:                                        ; preds = %lpad13, %lpad
  %lpad.val21.merged = phi { ptr, i32 } [ %28, %lpad13 ], [ %17, %lpad ]
  resume { ptr, i32 } %lpad.val21.merged

terminate.lpad:                                   ; preds = %lpad13
  %29 = landingpad { ptr, i32 }
          catch ptr null
  %30 = extractvalue { ptr, i32 } %29, 0
  tail call void @__clang_call_terminate(ptr %30) #21
  unreachable
}

declare void @_ZN10params_refC1ERKS_(ptr noundef nonnull align 8 dereferenceable(8), ptr noundef nonnull align 8 dereferenceable(8)) unnamed_addr #0

declare void @_ZN4smt27scannerC1ER11cmd_contextRSib(ptr noundef nonnull align 8 dereferenceable(1408), ptr noundef nonnull align 8 dereferenceable(872), ptr noundef nonnull align 8 dereferenceable(16), i1 noundef zeroext) unnamed_addr #0

declare void @_ZN5stackC1Ev(ptr noundef nonnull align 8 dereferenceable(32)) unnamed_addr #0

declare void @_ZN6symbolC1EPKc(ptr noundef nonnull align 8 dereferenceable(8), ptr noundef) unnamed_addr #0

; Function Attrs: nounwind
declare void @_ZNSt7__cxx1112basic_stringIcSt11char_traitsIcESaIcEEC1Ev(ptr noundef nonnull align 8 dereferenceable(32)) unnamed_addr #1

; Function Attrs: mustprogress uwtable
define linkonce_odr hidden void @_ZN4smt26parser11updt_paramsEv(ptr noundef nonnull align 8 dereferenceable(2168) %this) local_unnamed_addr #3 comdat align 2 personality ptr @__gxx_personality_v0 {
entry:
  %p = alloca %struct.parser_params, align 8
  %m_params = getelementptr inbounds %"class.smt2::parser", ptr %this, i64 0, i32 1
  store ptr %m_params, ptr %p, align 8
  %g.i = getelementptr inbounds %struct.parser_params, ptr %p, i64 0, i32 1
  call void @_ZN7gparams10get_moduleEPKc(ptr nonnull sret(%class.params_ref) align 8 %g.i, ptr noundef nonnull @.str.40)
  %0 = load ptr, ptr %p, align 8
  %call.i2 = invoke noundef zeroext i1 @_ZNK10params_ref8get_boolEPKcRKS_b(ptr noundef nonnull align 8 dereferenceable(8) %0, ptr noundef nonnull @.str.41, ptr noundef nonnull align 8 dereferenceable(8) %g.i, i1 noundef zeroext false)
          to label %invoke.cont unwind label %lpad

invoke.cont:                                      ; preds = %entry
  %m_ignore_user_patterns = getelementptr inbounds %"class.smt2::parser", ptr %this, i64 0, i32 69
  %frombool = zext i1 %call.i2 to i8
  store i8 %frombool, ptr %m_ignore_user_patterns, align 8
  %1 = load ptr, ptr %p, align 8
  %call.i4 = invoke noundef zeroext i1 @_ZNK10params_ref8get_boolEPKcRKS_b(ptr noundef nonnull align 8 dereferenceable(8) %1, ptr noundef nonnull @.str.42, ptr noundef nonnull align 8 dereferenceable(8) %g.i, i1 noundef zeroext true)
          to label %invoke.cont2 unwind label %lpad

invoke.cont2:                                     ; preds = %invoke.cont
  %m_ignore_bad_patterns = getelementptr inbounds %"class.smt2::parser", ptr %this, i64 0, i32 70
  %frombool4 = zext i1 %call.i4 to i8
  store i8 %frombool4, ptr %m_ignore_bad_patterns, align 1
  %2 = load ptr, ptr %p, align 8
  %call.i6 = invoke noundef zeroext i1 @_ZNK10params_ref8get_boolEPKcRKS_b(ptr noundef nonnull align 8 dereferenceable(8) %2, ptr noundef nonnull @.str.43, ptr noundef nonnull align 8 dereferenceable(8) %g.i, i1 noundef zeroext false)
          to label %invoke.cont5 unwind label %lpad

invoke.cont5:                                     ; preds = %invoke.cont2
  %m_display_error_for_vs = getelementptr inbounds %"class.smt2::parser", ptr %this, i64 0, i32 71
  %frombool7 = zext i1 %call.i6 to i8
  store i8 %frombool7, ptr %m_display_error_for_vs, align 2
  call void @_ZN10params_refD1Ev(ptr noundef nonnull align 8 dereferenceable(8) %g.i) #19
  ret void

lpad:                                             ; preds = %invoke.cont2, %invoke.cont, %entry
  %3 = landingpad { ptr, i32 }
          cleanup
  call void @_ZN10params_refD1Ev(ptr noundef nonnull align 8 dereferenceable(8) %g.i) #19
  resume { ptr, i32 } %3
}

; Function Attrs: nounwind
declare void @_ZNSt7__cxx1112basic_stringIcSt11char_traitsIcESaIcEED1Ev(ptr noundef nonnull align 8 dereferenceable(32)) unnamed_addr #1

; Function Attrs: mustprogress nounwind uwtable
define linkonce_odr hidden void @_ZN8rationalD2Ev(ptr noundef nonnull align 8 dereferenceable(32) %this) unnamed_addr #4 comdat align 2 personality ptr @__gxx_personality_v0 {
entry:
  %0 = load ptr, ptr @_ZN8rational13g_mpq_managerE, align 8
  invoke void @_ZN11mpz_managerILb1EE3delEPS0_R3mpz(ptr noundef %0, ptr noundef nonnull align 8 dereferenceable(16) %this)
          to label %.noexc unwind label %terminate.lpad

.noexc:                                           ; preds = %entry
  %m_den.i = getelementptr inbounds %class.mpq, ptr %this, i64 0, i32 1
  invoke void @_ZN11mpz_managerILb1EE3delEPS0_R3mpz(ptr noundef %0, ptr noundef nonnull align 8 dereferenceable(16) %m_den.i)
          to label %invoke.cont unwind label %terminate.lpad

invoke.cont:                                      ; preds = %.noexc
  ret void

terminate.lpad:                                   ; preds = %.noexc, %entry
  %1 = landingpad { ptr, i32 }
          catch ptr null
  %2 = extractvalue { ptr, i32 } %1, 0
  tail call void @__clang_call_terminate(ptr %2) #21
  unreachable
}

; Function Attrs: mustprogress nounwind uwtable
define linkonce_odr hidden void @_ZNSt6vectorINSt7__cxx1112basic_stringIcSt11char_traitsIcESaIcEEESaIS5_EED2Ev(ptr noundef nonnull align 8 dereferenceable(24) %this) unnamed_addr #4 comdat align 2 personality ptr @__gxx_personality_v0 {
entry:
  %0 = load ptr, ptr %this, align 8
  %_M_finish = getelementptr inbounds %"struct.std::_Vector_base<std::__cxx11::basic_string<char>, std::allocator<std::__cxx11::basic_string<char>>>::_Vector_impl_data", ptr %this, i64 0, i32 1
  %1 = load ptr, ptr %_M_finish, align 8
  %cmp.not3.i.i.i = icmp eq ptr %0, %1
  br i1 %cmp.not3.i.i.i, label %invoke.cont, label %for.body.i.i.i

for.body.i.i.i:                                   ; preds = %entry, %for.body.i.i.i
  %__first.addr.04.i.i.i = phi ptr [ %incdec.ptr.i.i.i, %for.body.i.i.i ], [ %0, %entry ]
  tail call void @_ZNSt7__cxx1112basic_stringIcSt11char_traitsIcESaIcEED1Ev(ptr noundef nonnull align 8 dereferenceable(32) %__first.addr.04.i.i.i) #19
  %incdec.ptr.i.i.i = getelementptr inbounds %"class.std::__cxx11::basic_string", ptr %__first.addr.04.i.i.i, i64 1
  %cmp.not.i.i.i = icmp eq ptr %incdec.ptr.i.i.i, %1
  br i1 %cmp.not.i.i.i, label %invoke.contthread-pre-split, label %for.body.i.i.i, !llvm.loop !8

invoke.contthread-pre-split:                      ; preds = %for.body.i.i.i
  %.pr = load ptr, ptr %this, align 8
  br label %invoke.cont

invoke.cont:                                      ; preds = %invoke.contthread-pre-split, %entry
  %2 = phi ptr [ %.pr, %invoke.contthread-pre-split ], [ %0, %entry ]
  %tobool.not.i.i = icmp eq ptr %2, null
  br i1 %tobool.not.i.i, label %_ZNSt12_Vector_baseINSt7__cxx1112basic_stringIcSt11char_traitsIcESaIcEEESaIS5_EED2Ev.exit, label %if.then.i.i

if.then.i.i:                                      ; preds = %invoke.cont
  tail call void @_ZdlPv(ptr noundef nonnull %2) #22
  br label %_ZNSt12_Vector_baseINSt7__cxx1112basic_stringIcSt11char_traitsIcESaIcEEESaIS5_EED2Ev.exit

_ZNSt12_Vector_baseINSt7__cxx1112basic_stringIcSt11char_traitsIcESaIcEEESaIS5_EED2Ev.exit: ; preds = %invoke.cont, %if.then.i.i
  ret void
}

; Function Attrs: mustprogress nounwind uwtable
define linkonce_odr hidden void @_ZN10scoped_ptrI11var_shifterED2Ev(ptr noundef nonnull align 8 dereferenceable(8) %this) unnamed_addr #4 comdat align 2 personality ptr @__gxx_personality_v0 {
entry:
  %0 = load ptr, ptr %this, align 8
  %cmp.i = icmp eq ptr %0, null
  br i1 %cmp.i, label %invoke.cont, label %if.end.i

if.end.i:                                         ; preds = %entry
  %vtable.i = load ptr, ptr %0, align 8
  %1 = load ptr, ptr %vtable.i, align 8
  tail call void %1(ptr noundef nonnull align 8 dereferenceable(156) %0) #19
  invoke void @_ZN6memory10deallocateEPv(ptr noundef nonnull %0)
          to label %invoke.cont unwind label %terminate.lpad

invoke.cont:                                      ; preds = %entry, %if.end.i
  ret void

terminate.lpad:                                   ; preds = %if.end.i
  %2 = landingpad { ptr, i32 }
          catch ptr null
  %3 = extractvalue { ptr, i32 } %2, 0
  tail call void @__clang_call_terminate(ptr %3) #21
  unreachable
}

; Function Attrs: mustprogress nounwind uwtable
define linkonce_odr hidden void @_ZN10scoped_ptrI17pattern_validatorED2Ev(ptr noundef nonnull align 8 dereferenceable(8) %this) unnamed_addr #4 comdat align 2 personality ptr @__gxx_personality_v0 {
entry:
  %0 = load ptr, ptr %this, align 8
  %cmp.i = icmp eq ptr %0, null
  br i1 %cmp.i, label %invoke.cont, label %if.end.i

if.end.i:                                         ; preds = %entry
  invoke void @_ZN6memory10deallocateEPv(ptr noundef nonnull %0)
          to label %invoke.cont unwind label %terminate.lpad

invoke.cont:                                      ; preds = %entry, %if.end.i
  ret void

terminate.lpad:                                   ; preds = %if.end.i
  %1 = landingpad { ptr, i32 }
          catch ptr null
  %2 = extractvalue { ptr, i32 } %1, 0
  tail call void @__clang_call_terminate(ptr %2) #21
  unreachable
}

; Function Attrs: mustprogress nounwind uwtable
define linkonce_odr hidden void @_ZN10scoped_ptrI8seq_utilED2Ev(ptr noundef nonnull align 8 dereferenceable(8) %this) unnamed_addr #4 comdat align 2 personality ptr @__gxx_personality_v0 {
entry:
  %0 = load ptr, ptr %this, align 8
  %cmp.i = icmp eq ptr %0, null
  br i1 %cmp.i, label %invoke.cont, label %if.end.i

if.end.i:                                         ; preds = %entry
  %re.i.i = getelementptr inbounds %class.seq_util, ptr %0, i64 0, i32 6
  tail call void @_ZN8seq_util3rexD2Ev(ptr noundef nonnull align 8 dereferenceable(80) %re.i.i) #19
  invoke void @_ZN6memory10deallocateEPv(ptr noundef nonnull %0)
          to label %invoke.cont unwind label %terminate.lpad

invoke.cont:                                      ; preds = %entry, %if.end.i
  ret void

terminate.lpad:                                   ; preds = %if.end.i
  %1 = landingpad { ptr, i32 }
          catch ptr null
  %2 = extractvalue { ptr, i32 } %1, 0
  tail call void @__clang_call_terminate(ptr %2) #21
  unreachable
}

; Function Attrs: mustprogress nounwind uwtable
define linkonce_odr hidden void @_ZN10scoped_ptrIN8datatype4utilEED2Ev(ptr noundef nonnull align 8 dereferenceable(8) %this) unnamed_addr #4 comdat align 2 personality ptr @__gxx_personality_v0 {
entry:
  %0 = load ptr, ptr %this, align 8
  %cmp.i = icmp eq ptr %0, null
  br i1 %cmp.i, label %invoke.cont, label %if.end.i

if.end.i:                                         ; preds = %entry
  tail call void @_ZN8datatype4utilD1Ev(ptr noundef nonnull align 8 dereferenceable(288) %0) #19
  invoke void @_ZN6memory10deallocateEPv(ptr noundef nonnull %0)
          to label %invoke.cont unwind label %terminate.lpad

invoke.cont:                                      ; preds = %entry, %if.end.i
  ret void

terminate.lpad:                                   ; preds = %if.end.i
  %1 = landingpad { ptr, i32 }
          catch ptr null
  %2 = extractvalue { ptr, i32 } %1, 0
  tail call void @__clang_call_terminate(ptr %2) #21
  unreachable
}

; Function Attrs: mustprogress nounwind uwtable
define linkonce_odr hidden void @_ZN10scoped_ptrI10arith_utilED2Ev(ptr noundef nonnull align 8 dereferenceable(8) %this) unnamed_addr #4 comdat align 2 personality ptr @__gxx_personality_v0 {
entry:
  %0 = load ptr, ptr %this, align 8
  %cmp.i = icmp eq ptr %0, null
  br i1 %cmp.i, label %invoke.cont, label %if.end.i

if.end.i:                                         ; preds = %entry
  invoke void @_ZN6memory10deallocateEPv(ptr noundef nonnull %0)
          to label %invoke.cont unwind label %terminate.lpad

invoke.cont:                                      ; preds = %entry, %if.end.i
  ret void

terminate.lpad:                                   ; preds = %if.end.i
  %1 = landingpad { ptr, i32 }
          catch ptr null
  %2 = extractvalue { ptr, i32 } %1, 0
  tail call void @__clang_call_terminate(ptr %2) #21
  unreachable
}

; Function Attrs: mustprogress nounwind uwtable
define linkonce_odr hidden void @_ZN10scoped_ptrI7bv_utilED2Ev(ptr noundef nonnull align 8 dereferenceable(8) %this) unnamed_addr #4 comdat align 2 personality ptr @__gxx_personality_v0 {
entry:
  %0 = load ptr, ptr %this, align 8
  %cmp.i = icmp eq ptr %0, null
  br i1 %cmp.i, label %invoke.cont, label %if.end.i

if.end.i:                                         ; preds = %entry
  invoke void @_ZN6memory10deallocateEPv(ptr noundef nonnull %0)
          to label %invoke.cont unwind label %terminate.lpad

invoke.cont:                                      ; preds = %entry, %if.end.i
  ret void

terminate.lpad:                                   ; preds = %if.end.i
  %1 = landingpad { ptr, i32 }
          catch ptr null
  %2 = extractvalue { ptr, i32 } %1, 0
  tail call void @__clang_call_terminate(ptr %2) #21
  unreachable
}

; Function Attrs: mustprogress nounwind uwtable
define linkonce_odr hidden void @_ZN10scoped_ptrI10ref_vectorI5sexpr13sexpr_managerEED2Ev(ptr noundef nonnull align 8 dereferenceable(8) %this) unnamed_addr #4 comdat align 2 personality ptr @__gxx_personality_v0 {
entry:
  %0 = load ptr, ptr %this, align 8
  invoke void @_Z7deallocI10ref_vectorI5sexpr13sexpr_managerEEvPT_(ptr noundef %0)
          to label %invoke.cont unwind label %terminate.lpad

invoke.cont:                                      ; preds = %entry
  ret void

terminate.lpad:                                   ; preds = %entry
  %1 = landingpad { ptr, i32 }
          catch ptr null
  %2 = extractvalue { ptr, i32 } %1, 0
  tail call void @__clang_call_terminate(ptr %2) #21
  unreachable
}

; Function Attrs: mustprogress nounwind uwtable
define linkonce_odr hidden void @_ZN6vectorI9parameterLb1EjED2Ev(ptr noundef nonnull align 8 dereferenceable(8) %this) unnamed_addr #4 comdat align 2 personality ptr @__gxx_personality_v0 {
entry:
  %0 = load ptr, ptr %this, align 8
  %tobool.not.i = icmp eq ptr %0, null
  br i1 %tobool.not.i, label %invoke.cont, label %_ZNK6vectorI9parameterLb1EjE4sizeEv.exit.i.i

_ZNK6vectorI9parameterLb1EjE4sizeEv.exit.i.i:     ; preds = %entry
  %arrayidx.i.i.i = getelementptr inbounds i32, ptr %0, i64 -1
  %1 = load i32, ptr %arrayidx.i.i.i, align 4
  %cmp.not4.i.i.i.i.i = icmp eq i32 %1, 0
  br i1 %cmp.not4.i.i.i.i.i, label %_ZN6vectorI9parameterLb1EjE16destroy_elementsEv.exit.i, label %for.body.i.i.i.i.i

for.body.i.i.i.i.i:                               ; preds = %_ZNK6vectorI9parameterLb1EjE4sizeEv.exit.i.i, %for.body.i.i.i.i.i
  %__count.addr.06.i.i.i.i.i = phi i32 [ %dec.i.i.i.i.i, %for.body.i.i.i.i.i ], [ %1, %_ZNK6vectorI9parameterLb1EjE4sizeEv.exit.i.i ]
  %__first.addr.05.i.i.i.i.i = phi ptr [ %incdec.ptr.i.i.i.i.i, %for.body.i.i.i.i.i ], [ %0, %_ZNK6vectorI9parameterLb1EjE4sizeEv.exit.i.i ]
  tail call void @_ZN9parameterD1Ev(ptr noundef nonnull align 8 dereferenceable(16) %__first.addr.05.i.i.i.i.i) #19
  %incdec.ptr.i.i.i.i.i = getelementptr inbounds %class.parameter, ptr %__first.addr.05.i.i.i.i.i, i64 1
  %dec.i.i.i.i.i = add i32 %__count.addr.06.i.i.i.i.i, -1
  %cmp.not.i.i.i.i.i = icmp eq i32 %dec.i.i.i.i.i, 0
  br i1 %cmp.not.i.i.i.i.i, label %_ZN6vectorI9parameterLb1EjE16destroy_elementsEv.exit.loopexit.i, label %for.body.i.i.i.i.i, !llvm.loop !9

_ZN6vectorI9parameterLb1EjE16destroy_elementsEv.exit.loopexit.i: ; preds = %for.body.i.i.i.i.i
  %.pre.i = load ptr, ptr %this, align 8
  br label %_ZN6vectorI9parameterLb1EjE16destroy_elementsEv.exit.i

_ZN6vectorI9parameterLb1EjE16destroy_elementsEv.exit.i: ; preds = %_ZN6vectorI9parameterLb1EjE16destroy_elementsEv.exit.loopexit.i, %_ZNK6vectorI9parameterLb1EjE4sizeEv.exit.i.i
  %2 = phi ptr [ %.pre.i, %_ZN6vectorI9parameterLb1EjE16destroy_elementsEv.exit.loopexit.i ], [ %0, %_ZNK6vectorI9parameterLb1EjE4sizeEv.exit.i.i ]
  %add.ptr.i.i = getelementptr inbounds i32, ptr %2, i64 -2
  invoke void @_ZN6memory10deallocateEPv(ptr noundef nonnull %add.ptr.i.i)
          to label %invoke.cont unwind label %terminate.lpad

invoke.cont:                                      ; preds = %entry, %_ZN6vectorI9parameterLb1EjE16destroy_elementsEv.exit.i
  ret void

terminate.lpad:                                   ; preds = %_ZN6vectorI9parameterLb1EjE16destroy_elementsEv.exit.i
  %3 = landingpad { ptr, i32 }
          catch ptr null
  %4 = extractvalue { ptr, i32 } %3, 0
  tail call void @__clang_call_terminate(ptr %4) #21
  unreachable
}

; Function Attrs: mustprogress nounwind uwtable
define linkonce_odr hidden void @_ZN7svectorI6symboljED2Ev(ptr noundef nonnull align 8 dereferenceable(8) %this) unnamed_addr #4 comdat align 2 personality ptr @__gxx_personality_v0 {
entry:
  %0 = load ptr, ptr %this, align 8
  %tobool.not.i.i = icmp eq ptr %0, null
  br i1 %tobool.not.i.i, label %_ZN6vectorI6symbolLb0EjED2Ev.exit, label %if.then.i.i

if.then.i.i:                                      ; preds = %entry
  %add.ptr.i.i.i = getelementptr inbounds i32, ptr %0, i64 -2
  invoke void @_ZN6memory10deallocateEPv(ptr noundef nonnull %add.ptr.i.i.i)
          to label %_ZN6vectorI6symbolLb0EjED2Ev.exit unwind label %terminate.lpad.i

terminate.lpad.i:                                 ; preds = %if.then.i.i
  %1 = landingpad { ptr, i32 }
          catch ptr null
  %2 = extractvalue { ptr, i32 } %1, 0
  tail call void @__clang_call_terminate(ptr %2) #21
  unreachable

_ZN6vectorI6symbolLb0EjED2Ev.exit:                ; preds = %entry, %if.then.i.i
  ret void
}

; Function Attrs: mustprogress nounwind uwtable
define linkonce_odr hidden void @_ZN10scoped_ptrI10ref_vectorI4expr11ast_managerEED2Ev(ptr noundef nonnull align 8 dereferenceable(8) %this) unnamed_addr #4 comdat align 2 personality ptr @__gxx_personality_v0 {
entry:
  %0 = load ptr, ptr %this, align 8
  invoke void @_Z7deallocI10ref_vectorI4expr11ast_managerEEvPT_(ptr noundef %0)
          to label %invoke.cont unwind label %terminate.lpad

invoke.cont:                                      ; preds = %entry
  ret void

terminate.lpad:                                   ; preds = %entry
  %1 = landingpad { ptr, i32 }
          catch ptr null
  %2 = extractvalue { ptr, i32 } %1, 0
  tail call void @__clang_call_terminate(ptr %2) #21
  unreachable
}

; Function Attrs: mustprogress nounwind uwtable
define linkonce_odr hidden void @_ZN10scoped_ptrI10ref_vectorI4sort11ast_managerEED2Ev(ptr noundef nonnull align 8 dereferenceable(8) %this) unnamed_addr #4 comdat align 2 personality ptr @__gxx_personality_v0 {
entry:
  %0 = load ptr, ptr %this, align 8
  invoke void @_Z7deallocI10ref_vectorI4sort11ast_managerEEvPT_(ptr noundef %0)
          to label %invoke.cont unwind label %terminate.lpad

invoke.cont:                                      ; preds = %entry
  ret void

terminate.lpad:                                   ; preds = %entry
  %1 = landingpad { ptr, i32 }
          catch ptr null
  %2 = extractvalue { ptr, i32 } %1, 0
  tail call void @__clang_call_terminate(ptr %2) #21
  unreachable
}

; Function Attrs: mustprogress nounwind uwtable
define linkonce_odr hidden void @_ZN10scoped_ptrI10ref_vectorI5psort13pdecl_managerEED2Ev(ptr noundef nonnull align 8 dereferenceable(8) %this) unnamed_addr #4 comdat align 2 personality ptr @__gxx_personality_v0 {
entry:
  %0 = load ptr, ptr %this, align 8
  %cmp.i = icmp eq ptr %0, null
  br i1 %cmp.i, label %invoke.cont, label %if.end.i

if.end.i:                                         ; preds = %entry
  tail call void @_ZN15ref_vector_coreI5psort19ref_manager_wrapperIS0_13pdecl_managerEED2Ev(ptr noundef nonnull align 8 dereferenceable(16) %0) #19
  invoke void @_ZN6memory10deallocateEPv(ptr noundef nonnull %0)
          to label %invoke.cont unwind label %terminate.lpad

invoke.cont:                                      ; preds = %entry, %if.end.i
  ret void

terminate.lpad:                                   ; preds = %if.end.i
  %1 = landingpad { ptr, i32 }
          catch ptr null
  %2 = extractvalue { ptr, i32 } %1, 0
  tail call void @__clang_call_terminate(ptr %2) #21
  unreachable
}

; Function Attrs: mustprogress nounwind uwtable
define linkonce_odr hidden void @_ZN3mapI6symbolj16symbol_hash_proc14symbol_eq_procED2Ev(ptr noundef nonnull align 8 dereferenceable(24) %this) unnamed_addr #4 comdat align 2 personality ptr @__gxx_personality_v0 {
entry:
  %0 = load ptr, ptr %this, align 8
  %cmp.i.i.i.i = icmp eq ptr %0, null
  br i1 %cmp.i.i.i.i, label %_ZN9table2mapI17default_map_entryI6symboljE16symbol_hash_proc14symbol_eq_procED2Ev.exit, label %for.cond.preheader.i.i.i.i

for.cond.preheader.i.i.i.i:                       ; preds = %entry
  invoke void @_ZN6memory10deallocateEPv(ptr noundef nonnull %0)
          to label %_ZN9table2mapI17default_map_entryI6symboljE16symbol_hash_proc14symbol_eq_procED2Ev.exit unwind label %terminate.lpad.i.i

terminate.lpad.i.i:                               ; preds = %for.cond.preheader.i.i.i.i
  %1 = landingpad { ptr, i32 }
          catch ptr null
  %2 = extractvalue { ptr, i32 } %1, 0
  tail call void @__clang_call_terminate(ptr %2) #21
  unreachable

_ZN9table2mapI17default_map_entryI6symboljE16symbol_hash_proc14symbol_eq_procED2Ev.exit: ; preds = %entry, %for.cond.preheader.i.i.i.i
  store ptr null, ptr %this, align 8
  ret void
}

; Function Attrs: mustprogress nounwind uwtable
define linkonce_odr hidden void @_ZN3mapI6symboli16symbol_hash_proc14symbol_eq_procED2Ev(ptr noundef nonnull align 8 dereferenceable(24) %this) unnamed_addr #4 comdat align 2 personality ptr @__gxx_personality_v0 {
entry:
  %0 = load ptr, ptr %this, align 8
  %cmp.i.i.i.i = icmp eq ptr %0, null
  br i1 %cmp.i.i.i.i, label %_ZN9table2mapI17default_map_entryI6symboliE16symbol_hash_proc14symbol_eq_procED2Ev.exit, label %for.cond.preheader.i.i.i.i

for.cond.preheader.i.i.i.i:                       ; preds = %entry
  invoke void @_ZN6memory10deallocateEPv(ptr noundef nonnull %0)
          to label %_ZN9table2mapI17default_map_entryI6symboliE16symbol_hash_proc14symbol_eq_procED2Ev.exit unwind label %terminate.lpad.i.i

terminate.lpad.i.i:                               ; preds = %for.cond.preheader.i.i.i.i
  %1 = landingpad { ptr, i32 }
          catch ptr null
  %2 = extractvalue { ptr, i32 } %1, 0
  tail call void @__clang_call_terminate(ptr %2) #21
  unreachable

_ZN9table2mapI17default_map_entryI6symboliE16symbol_hash_proc14symbol_eq_procED2Ev.exit: ; preds = %entry, %for.cond.preheader.i.i.i.i
  store ptr null, ptr %this, align 8
  ret void
}

; Function Attrs: mustprogress nounwind uwtable
define linkonce_odr hidden void @_ZN12symbol_tableIN4smt26parser5localEED2Ev(ptr noundef nonnull align 8 dereferenceable(40) %this) unnamed_addr #4 comdat align 2 personality ptr @__gxx_personality_v0 {
entry:
  %m_trail_lims = getelementptr inbounds %class.symbol_table, ptr %this, i64 0, i32 2
  %0 = load ptr, ptr %m_trail_lims, align 8
  %tobool.not.i.i.i = icmp eq ptr %0, null
  br i1 %tobool.not.i.i.i, label %_ZN7svectorIijED2Ev.exit, label %if.then.i.i.i

if.then.i.i.i:                                    ; preds = %entry
  %add.ptr.i.i.i.i = getelementptr inbounds i32, ptr %0, i64 -2
  invoke void @_ZN6memory10deallocateEPv(ptr noundef nonnull %add.ptr.i.i.i.i)
          to label %_ZN7svectorIijED2Ev.exit unwind label %terminate.lpad.i.i

terminate.lpad.i.i:                               ; preds = %if.then.i.i.i
  %1 = landingpad { ptr, i32 }
          catch ptr null
  %2 = extractvalue { ptr, i32 } %1, 0
  tail call void @__clang_call_terminate(ptr %2) #21
  unreachable

_ZN7svectorIijED2Ev.exit:                         ; preds = %entry, %if.then.i.i.i
  %m_trail_stack = getelementptr inbounds %class.symbol_table, ptr %this, i64 0, i32 1
  %3 = load ptr, ptr %m_trail_stack, align 8
  %tobool.not.i.i = icmp eq ptr %3, null
  br i1 %tobool.not.i.i, label %_ZN6vectorIN12symbol_tableIN4smt26parser5localEE8key_dataELb1EjED2Ev.exit, label %if.then.i.i

if.then.i.i:                                      ; preds = %_ZN7svectorIijED2Ev.exit
  %add.ptr.i.i.i = getelementptr inbounds i32, ptr %3, i64 -2
  invoke void @_ZN6memory10deallocateEPv(ptr noundef nonnull %add.ptr.i.i.i)
          to label %_ZN6vectorIN12symbol_tableIN4smt26parser5localEE8key_dataELb1EjED2Ev.exit unwind label %terminate.lpad.i

terminate.lpad.i:                                 ; preds = %if.then.i.i
  %4 = landingpad { ptr, i32 }
          catch ptr null
  %5 = extractvalue { ptr, i32 } %4, 0
  tail call void @__clang_call_terminate(ptr %5) #21
  unreachable

_ZN6vectorIN12symbol_tableIN4smt26parser5localEE8key_dataELb1EjED2Ev.exit: ; preds = %_ZN7svectorIijED2Ev.exit, %if.then.i.i
  %6 = load ptr, ptr %this, align 8
  %cmp.i.i.i = icmp eq ptr %6, null
  br i1 %cmp.i.i.i, label %_ZN14core_hashtableIN12symbol_tableIN4smt26parser5localEE10hash_entryENS4_18key_data_hash_procENS4_16key_data_eq_procEED2Ev.exit, label %for.cond.preheader.i.i.i

for.cond.preheader.i.i.i:                         ; preds = %_ZN6vectorIN12symbol_tableIN4smt26parser5localEE8key_dataELb1EjED2Ev.exit
  invoke void @_ZN6memory10deallocateEPv(ptr noundef nonnull %6)
          to label %_ZN14core_hashtableIN12symbol_tableIN4smt26parser5localEE10hash_entryENS4_18key_data_hash_procENS4_16key_data_eq_procEED2Ev.exit unwind label %terminate.lpad.i1

terminate.lpad.i1:                                ; preds = %for.cond.preheader.i.i.i
  %7 = landingpad { ptr, i32 }
          catch ptr null
  %8 = extractvalue { ptr, i32 } %7, 0
  tail call void @__clang_call_terminate(ptr %8) #21
  unreachable

_ZN14core_hashtableIN12symbol_tableIN4smt26parser5localEE10hash_entryENS4_18key_data_hash_procENS4_16key_data_eq_procEED2Ev.exit: ; preds = %_ZN6vectorIN12symbol_tableIN4smt26parser5localEE8key_dataELb1EjED2Ev.exit, %for.cond.preheader.i.i.i
  store ptr null, ptr %this, align 8
  ret void
}

; Function Attrs: nounwind
declare void @_ZN5stackD1Ev(ptr noundef nonnull align 8 dereferenceable(32)) unnamed_addr #1

; Function Attrs: mustprogress nounwind uwtable
define linkonce_odr hidden void @_ZN4smt27scannerD2Ev(ptr noundef nonnull align 8 dereferenceable(1408) %this) unnamed_addr #4 comdat align 2 personality ptr @__gxx_personality_v0 {
entry:
  %m_cache_result = getelementptr inbounds %"class.smt2::scanner", ptr %this, i64 0, i32 18
  %0 = load ptr, ptr %m_cache_result, align 8
  %tobool.not.i.i.i = icmp eq ptr %0, null
  br i1 %tobool.not.i.i.i, label %_ZN7svectorIcjED2Ev.exit, label %if.then.i.i.i

if.then.i.i.i:                                    ; preds = %entry
  %add.ptr.i.i.i.i = getelementptr inbounds i32, ptr %0, i64 -2
  invoke void @_ZN6memory10deallocateEPv(ptr noundef nonnull %add.ptr.i.i.i.i)
          to label %_ZN7svectorIcjED2Ev.exit unwind label %terminate.lpad.i.i

terminate.lpad.i.i:                               ; preds = %if.then.i.i.i
  %1 = landingpad { ptr, i32 }
          catch ptr null
  %2 = extractvalue { ptr, i32 } %1, 0
  tail call void @__clang_call_terminate(ptr %2) #21
  unreachable

_ZN7svectorIcjED2Ev.exit:                         ; preds = %entry, %if.then.i.i.i
  %m_cache = getelementptr inbounds %"class.smt2::scanner", ptr %this, i64 0, i32 17
  %3 = load ptr, ptr %m_cache, align 8
  %tobool.not.i.i.i1 = icmp eq ptr %3, null
  br i1 %tobool.not.i.i.i1, label %_ZN7svectorIcjED2Ev.exit5, label %if.then.i.i.i2

if.then.i.i.i2:                                   ; preds = %_ZN7svectorIcjED2Ev.exit
  %add.ptr.i.i.i.i3 = getelementptr inbounds i32, ptr %3, i64 -2
  invoke void @_ZN6memory10deallocateEPv(ptr noundef nonnull %add.ptr.i.i.i.i3)
          to label %_ZN7svectorIcjED2Ev.exit5 unwind label %terminate.lpad.i.i4

terminate.lpad.i.i4:                              ; preds = %if.then.i.i.i2
  %4 = landingpad { ptr, i32 }
          catch ptr null
  %5 = extractvalue { ptr, i32 } %4, 0
  tail call void @__clang_call_terminate(ptr %5) #21
  unreachable

_ZN7svectorIcjED2Ev.exit5:                        ; preds = %_ZN7svectorIcjED2Ev.exit, %if.then.i.i.i2
  %m_string = getelementptr inbounds %"class.smt2::scanner", ptr %this, i64 0, i32 14
  %6 = load ptr, ptr %m_string, align 8
  %tobool.not.i.i.i6 = icmp eq ptr %6, null
  br i1 %tobool.not.i.i.i6, label %_ZN7svectorIcjED2Ev.exit10, label %if.then.i.i.i7

if.then.i.i.i7:                                   ; preds = %_ZN7svectorIcjED2Ev.exit5
  %add.ptr.i.i.i.i8 = getelementptr inbounds i32, ptr %6, i64 -2
  invoke void @_ZN6memory10deallocateEPv(ptr noundef nonnull %add.ptr.i.i.i.i8)
          to label %_ZN7svectorIcjED2Ev.exit10 unwind label %terminate.lpad.i.i9

terminate.lpad.i.i9:                              ; preds = %if.then.i.i.i7
  %7 = landingpad { ptr, i32 }
          catch ptr null
  %8 = extractvalue { ptr, i32 } %7, 0
  tail call void @__clang_call_terminate(ptr %8) #21
  unreachable

_ZN7svectorIcjED2Ev.exit10:                       ; preds = %_ZN7svectorIcjED2Ev.exit5, %if.then.i.i.i7
  %m_number = getelementptr inbounds %"class.smt2::scanner", ptr %this, i64 0, i32 8
  %9 = load ptr, ptr @_ZN8rational13g_mpq_managerE, align 8
  invoke void @_ZN11mpz_managerILb1EE3delEPS0_R3mpz(ptr noundef %9, ptr noundef nonnull align 8 dereferenceable(16) %m_number)
          to label %.noexc.i unwind label %terminate.lpad.i

.noexc.i:                                         ; preds = %_ZN7svectorIcjED2Ev.exit10
  %m_den.i.i = getelementptr inbounds %"class.smt2::scanner", ptr %this, i64 0, i32 8, i32 0, i32 1
  invoke void @_ZN11mpz_managerILb1EE3delEPS0_R3mpz(ptr noundef %9, ptr noundef nonnull align 8 dereferenceable(16) %m_den.i.i)
          to label %_ZN8rationalD2Ev.exit unwind label %terminate.lpad.i

terminate.lpad.i:                                 ; preds = %.noexc.i, %_ZN7svectorIcjED2Ev.exit10
  %10 = landingpad { ptr, i32 }
          catch ptr null
  %11 = extractvalue { ptr, i32 } %10, 0
  tail call void @__clang_call_terminate(ptr %11) #21
  unreachable

_ZN8rationalD2Ev.exit:                            ; preds = %.noexc.i
  ret void
}

; Function Attrs: nounwind
declare void @_ZN10params_refD1Ev(ptr noundef nonnull align 8 dereferenceable(8)) unnamed_addr #1

; Function Attrs: mustprogress nocallback nofree nounwind willreturn memory(argmem: write)
declare void @llvm.memset.p0.i64(ptr nocapture writeonly, i8, i64, i1 immarg) #5

; Function Attrs: noreturn nounwind uwtable
define linkonce_odr hidden void @__clang_call_terminate(ptr noundef %0) local_unnamed_addr #6 comdat {
  %2 = tail call ptr @__cxa_begin_catch(ptr %0) #19
  tail call void @_ZSt9terminatev() #21
  unreachable
}

declare ptr @__cxa_begin_catch(ptr) local_unnamed_addr

declare void @_ZSt9terminatev() local_unnamed_addr

declare void @_ZN6memory10deallocateEPv(ptr noundef) local_unnamed_addr #0

declare void @_ZN7gparams10get_moduleEPKc(ptr sret(%class.params_ref) align 8, ptr noundef) local_unnamed_addr #0

declare noundef zeroext i1 @_ZNK10params_ref8get_boolEPKcRKS_b(ptr noundef nonnull align 8 dereferenceable(8), ptr noundef, ptr noundef nonnull align 8 dereferenceable(8), i1 noundef zeroext) local_unnamed_addr #0

declare void @_ZN11mpz_managerILb1EE3delEPS0_R3mpz(ptr noundef, ptr noundef nonnull align 8 dereferenceable(16)) local_unnamed_addr #0

; Function Attrs: nobuiltin nounwind
declare void @_ZdlPv(ptr noundef) local_unnamed_addr #7

; Function Attrs: mustprogress nounwind uwtable
define linkonce_odr hidden void @_ZN8seq_util3rexD2Ev(ptr noundef nonnull align 8 dereferenceable(80) %this) unnamed_addr #4 comdat align 2 personality ptr @__gxx_personality_v0 {
entry:
  %m_info_pinned = getelementptr inbounds %"class.seq_util::rex", ptr %this, i64 0, i32 4
  %m_nodes.i.i = getelementptr inbounds %"class.seq_util::rex", ptr %this, i64 0, i32 4, i32 0, i32 1
  %0 = load ptr, ptr %m_nodes.i.i, align 8
  %cmp.i.i.i = icmp eq ptr %0, null
  br i1 %cmp.i.i.i, label %_ZN10ref_vectorI4expr11ast_managerED2Ev.exit, label %_ZNK6vectorIP4exprLb0EjE4sizeEv.exit.i.i

_ZNK6vectorIP4exprLb0EjE4sizeEv.exit.i.i:         ; preds = %entry
  %arrayidx.i.i.i = getelementptr inbounds i32, ptr %0, i64 -1
  %1 = load i32, ptr %arrayidx.i.i.i, align 4
  %2 = zext i32 %1 to i64
  %add.ptr.i.i = getelementptr inbounds ptr, ptr %0, i64 %2
  %cmp3.i.not.i.i = icmp eq i32 %1, 0
  br i1 %cmp3.i.not.i.i, label %if.then.i.i.i.i.i, label %for.body.i.i.i

for.body.i.i.i:                                   ; preds = %_ZNK6vectorIP4exprLb0EjE4sizeEv.exit.i.i, %_ZN15ref_vector_coreI4expr19ref_manager_wrapperIS0_11ast_managerEE7dec_refEPS0_.exit.i.i.i
  %it.04.i.i.i = phi ptr [ %incdec.ptr.i.i.i, %_ZN15ref_vector_coreI4expr19ref_manager_wrapperIS0_11ast_managerEE7dec_refEPS0_.exit.i.i.i ], [ %0, %_ZNK6vectorIP4exprLb0EjE4sizeEv.exit.i.i ]
  %3 = load ptr, ptr %it.04.i.i.i, align 8
  %4 = load ptr, ptr %m_info_pinned, align 8
  %tobool.not.i.i.i.i.i.i = icmp eq ptr %3, null
  br i1 %tobool.not.i.i.i.i.i.i, label %_ZN15ref_vector_coreI4expr19ref_manager_wrapperIS0_11ast_managerEE7dec_refEPS0_.exit.i.i.i, label %if.then.i.i.i.i.i.i

if.then.i.i.i.i.i.i:                              ; preds = %for.body.i.i.i
  %m_ref_count.i.i.i.i.i.i.i = getelementptr inbounds %class.ast, ptr %3, i64 0, i32 2
  %5 = load i32, ptr %m_ref_count.i.i.i.i.i.i.i, align 4
  %dec.i.i.i.i.i.i.i = add i32 %5, -1
  store i32 %dec.i.i.i.i.i.i.i, ptr %m_ref_count.i.i.i.i.i.i.i, align 4
  %cmp.i.i.i.i.i.i = icmp eq i32 %dec.i.i.i.i.i.i.i, 0
  br i1 %cmp.i.i.i.i.i.i, label %if.then2.i.i.i.i.i.i, label %_ZN15ref_vector_coreI4expr19ref_manager_wrapperIS0_11ast_managerEE7dec_refEPS0_.exit.i.i.i

if.then2.i.i.i.i.i.i:                             ; preds = %if.then.i.i.i.i.i.i
  invoke void @_ZN11ast_manager11delete_nodeEP3ast(ptr noundef nonnull align 8 dereferenceable(976) %4, ptr noundef nonnull %3)
          to label %_ZN15ref_vector_coreI4expr19ref_manager_wrapperIS0_11ast_managerEE7dec_refEPS0_.exit.i.i.i unwind label %terminate.lpad.i.i

_ZN15ref_vector_coreI4expr19ref_manager_wrapperIS0_11ast_managerEE7dec_refEPS0_.exit.i.i.i: ; preds = %if.then2.i.i.i.i.i.i, %if.then.i.i.i.i.i.i, %for.body.i.i.i
  %incdec.ptr.i.i.i = getelementptr inbounds ptr, ptr %it.04.i.i.i, i64 1
  %cmp.i1.i.i = icmp ult ptr %incdec.ptr.i.i.i, %add.ptr.i.i
  br i1 %cmp.i1.i.i, label %for.body.i.i.i, label %invoke.cont8.i.i, !llvm.loop !10

invoke.cont8.i.i:                                 ; preds = %_ZN15ref_vector_coreI4expr19ref_manager_wrapperIS0_11ast_managerEE7dec_refEPS0_.exit.i.i.i
  %.pre.i.i = load ptr, ptr %m_nodes.i.i, align 8
  %tobool.not.i.i.i.i.i = icmp eq ptr %.pre.i.i, null
  br i1 %tobool.not.i.i.i.i.i, label %_ZN10ref_vectorI4expr11ast_managerED2Ev.exit, label %if.then.i.i.i.i.i

if.then.i.i.i.i.i:                                ; preds = %invoke.cont8.i.i, %_ZNK6vectorIP4exprLb0EjE4sizeEv.exit.i.i
  %6 = phi ptr [ %.pre.i.i, %invoke.cont8.i.i ], [ %0, %_ZNK6vectorIP4exprLb0EjE4sizeEv.exit.i.i ]
  %add.ptr.i.i.i.i.i.i = getelementptr inbounds i32, ptr %6, i64 -2
  invoke void @_ZN6memory10deallocateEPv(ptr noundef nonnull %add.ptr.i.i.i.i.i.i)
          to label %_ZN10ref_vectorI4expr11ast_managerED2Ev.exit unwind label %terminate.lpad.i.i.i.i

terminate.lpad.i.i.i.i:                           ; preds = %if.then.i.i.i.i.i
  %7 = landingpad { ptr, i32 }
          catch ptr null
  %8 = extractvalue { ptr, i32 } %7, 0
  tail call void @__clang_call_terminate(ptr %8) #21
  unreachable

terminate.lpad.i.i:                               ; preds = %if.then2.i.i.i.i.i.i
  %9 = landingpad { ptr, i32 }
          catch ptr null
  %10 = extractvalue { ptr, i32 } %9, 0
  tail call void @__clang_call_terminate(ptr %10) #21
  unreachable

_ZN10ref_vectorI4expr11ast_managerED2Ev.exit:     ; preds = %entry, %invoke.cont8.i.i, %if.then.i.i.i.i.i
  %m_infos = getelementptr inbounds %"class.seq_util::rex", ptr %this, i64 0, i32 3
  %11 = load ptr, ptr %m_infos, align 8
  %tobool.not.i.i = icmp eq ptr %11, null
  br i1 %tobool.not.i.i, label %_ZN6vectorIN8seq_util3rex4infoELb1EjED2Ev.exit, label %if.then.i.i

if.then.i.i:                                      ; preds = %_ZN10ref_vectorI4expr11ast_managerED2Ev.exit
  %add.ptr.i.i.i = getelementptr inbounds i32, ptr %11, i64 -2
  invoke void @_ZN6memory10deallocateEPv(ptr noundef nonnull %add.ptr.i.i.i)
          to label %_ZN6vectorIN8seq_util3rex4infoELb1EjED2Ev.exit unwind label %terminate.lpad.i

terminate.lpad.i:                                 ; preds = %if.then.i.i
  %12 = landingpad { ptr, i32 }
          catch ptr null
  %13 = extractvalue { ptr, i32 } %12, 0
  tail call void @__clang_call_terminate(ptr %13) #21
  unreachable

_ZN6vectorIN8seq_util3rex4infoELb1EjED2Ev.exit:   ; preds = %_ZN10ref_vectorI4expr11ast_managerED2Ev.exit, %if.then.i.i
  ret void
}

; Function Attrs: mustprogress nounwind uwtable
define linkonce_odr hidden void @_ZN10ref_vectorI4expr11ast_managerED2Ev(ptr noundef nonnull align 8 dereferenceable(16) %this) unnamed_addr #4 comdat align 2 personality ptr @__gxx_personality_v0 {
entry:
  %m_nodes.i = getelementptr inbounds %class.ref_vector_core.98, ptr %this, i64 0, i32 1
  %0 = load ptr, ptr %m_nodes.i, align 8
  %cmp.i.i = icmp eq ptr %0, null
  br i1 %cmp.i.i, label %_ZN15ref_vector_coreI4expr19ref_manager_wrapperIS0_11ast_managerEED2Ev.exit, label %_ZNK6vectorIP4exprLb0EjE4sizeEv.exit.i

_ZNK6vectorIP4exprLb0EjE4sizeEv.exit.i:           ; preds = %entry
  %arrayidx.i.i = getelementptr inbounds i32, ptr %0, i64 -1
  %1 = load i32, ptr %arrayidx.i.i, align 4
  %2 = zext i32 %1 to i64
  %add.ptr.i = getelementptr inbounds ptr, ptr %0, i64 %2
  %cmp3.i.not.i = icmp eq i32 %1, 0
  br i1 %cmp3.i.not.i, label %if.then.i.i.i.i, label %for.body.i.i

for.body.i.i:                                     ; preds = %_ZNK6vectorIP4exprLb0EjE4sizeEv.exit.i, %_ZN15ref_vector_coreI4expr19ref_manager_wrapperIS0_11ast_managerEE7dec_refEPS0_.exit.i.i
  %it.04.i.i = phi ptr [ %incdec.ptr.i.i, %_ZN15ref_vector_coreI4expr19ref_manager_wrapperIS0_11ast_managerEE7dec_refEPS0_.exit.i.i ], [ %0, %_ZNK6vectorIP4exprLb0EjE4sizeEv.exit.i ]
  %3 = load ptr, ptr %it.04.i.i, align 8
  %4 = load ptr, ptr %this, align 8
  %tobool.not.i.i.i.i.i = icmp eq ptr %3, null
  br i1 %tobool.not.i.i.i.i.i, label %_ZN15ref_vector_coreI4expr19ref_manager_wrapperIS0_11ast_managerEE7dec_refEPS0_.exit.i.i, label %if.then.i.i.i.i.i

if.then.i.i.i.i.i:                                ; preds = %for.body.i.i
  %m_ref_count.i.i.i.i.i.i = getelementptr inbounds %class.ast, ptr %3, i64 0, i32 2
  %5 = load i32, ptr %m_ref_count.i.i.i.i.i.i, align 4
  %dec.i.i.i.i.i.i = add i32 %5, -1
  store i32 %dec.i.i.i.i.i.i, ptr %m_ref_count.i.i.i.i.i.i, align 4
  %cmp.i.i.i.i.i = icmp eq i32 %dec.i.i.i.i.i.i, 0
  br i1 %cmp.i.i.i.i.i, label %if.then2.i.i.i.i.i, label %_ZN15ref_vector_coreI4expr19ref_manager_wrapperIS0_11ast_managerEE7dec_refEPS0_.exit.i.i

if.then2.i.i.i.i.i:                               ; preds = %if.then.i.i.i.i.i
  invoke void @_ZN11ast_manager11delete_nodeEP3ast(ptr noundef nonnull align 8 dereferenceable(976) %4, ptr noundef nonnull %3)
          to label %_ZN15ref_vector_coreI4expr19ref_manager_wrapperIS0_11ast_managerEE7dec_refEPS0_.exit.i.i unwind label %terminate.lpad.i

_ZN15ref_vector_coreI4expr19ref_manager_wrapperIS0_11ast_managerEE7dec_refEPS0_.exit.i.i: ; preds = %if.then2.i.i.i.i.i, %if.then.i.i.i.i.i, %for.body.i.i
  %incdec.ptr.i.i = getelementptr inbounds ptr, ptr %it.04.i.i, i64 1
  %cmp.i1.i = icmp ult ptr %incdec.ptr.i.i, %add.ptr.i
  br i1 %cmp.i1.i, label %for.body.i.i, label %invoke.cont8.i, !llvm.loop !10

invoke.cont8.i:                                   ; preds = %_ZN15ref_vector_coreI4expr19ref_manager_wrapperIS0_11ast_managerEE7dec_refEPS0_.exit.i.i
  %.pre.i = load ptr, ptr %m_nodes.i, align 8
  %tobool.not.i.i.i.i = icmp eq ptr %.pre.i, null
  br i1 %tobool.not.i.i.i.i, label %_ZN15ref_vector_coreI4expr19ref_manager_wrapperIS0_11ast_managerEED2Ev.exit, label %if.then.i.i.i.i

if.then.i.i.i.i:                                  ; preds = %invoke.cont8.i, %_ZNK6vectorIP4exprLb0EjE4sizeEv.exit.i
  %6 = phi ptr [ %.pre.i, %invoke.cont8.i ], [ %0, %_ZNK6vectorIP4exprLb0EjE4sizeEv.exit.i ]
  %add.ptr.i.i.i.i.i = getelementptr inbounds i32, ptr %6, i64 -2
  invoke void @_ZN6memory10deallocateEPv(ptr noundef nonnull %add.ptr.i.i.i.i.i)
          to label %_ZN15ref_vector_coreI4expr19ref_manager_wrapperIS0_11ast_managerEED2Ev.exit unwind label %terminate.lpad.i.i.i

terminate.lpad.i.i.i:                             ; preds = %if.then.i.i.i.i
  %7 = landingpad { ptr, i32 }
          catch ptr null
  %8 = extractvalue { ptr, i32 } %7, 0
  tail call void @__clang_call_terminate(ptr %8) #21
  unreachable

terminate.lpad.i:                                 ; preds = %if.then2.i.i.i.i.i
  %9 = landingpad { ptr, i32 }
          catch ptr null
  %10 = extractvalue { ptr, i32 } %9, 0
  tail call void @__clang_call_terminate(ptr %10) #21
  unreachable

_ZN15ref_vector_coreI4expr19ref_manager_wrapperIS0_11ast_managerEED2Ev.exit: ; preds = %entry, %invoke.cont8.i, %if.then.i.i.i.i
  ret void
}

; Function Attrs: mustprogress nounwind uwtable
define linkonce_odr hidden void @_ZN15ref_vector_coreI4expr19ref_manager_wrapperIS0_11ast_managerEED2Ev(ptr noundef nonnull align 8 dereferenceable(16) %this) unnamed_addr #4 comdat align 2 personality ptr @__gxx_personality_v0 {
entry:
  %m_nodes = getelementptr inbounds %class.ref_vector_core.98, ptr %this, i64 0, i32 1
  %0 = load ptr, ptr %m_nodes, align 8
  %cmp.i = icmp eq ptr %0, null
  br i1 %cmp.i, label %_ZN10ptr_vectorI4exprED2Ev.exit, label %_ZNK6vectorIP4exprLb0EjE4sizeEv.exit

_ZNK6vectorIP4exprLb0EjE4sizeEv.exit:             ; preds = %entry
  %arrayidx.i = getelementptr inbounds i32, ptr %0, i64 -1
  %1 = load i32, ptr %arrayidx.i, align 4
  %2 = zext i32 %1 to i64
  %add.ptr = getelementptr inbounds ptr, ptr %0, i64 %2
  %cmp3.i.not = icmp eq i32 %1, 0
  br i1 %cmp3.i.not, label %if.then.i.i.i, label %for.body.i

for.body.i:                                       ; preds = %_ZNK6vectorIP4exprLb0EjE4sizeEv.exit, %_ZN15ref_vector_coreI4expr19ref_manager_wrapperIS0_11ast_managerEE7dec_refEPS0_.exit.i
  %it.04.i = phi ptr [ %incdec.ptr.i, %_ZN15ref_vector_coreI4expr19ref_manager_wrapperIS0_11ast_managerEE7dec_refEPS0_.exit.i ], [ %0, %_ZNK6vectorIP4exprLb0EjE4sizeEv.exit ]
  %3 = load ptr, ptr %it.04.i, align 8
  %4 = load ptr, ptr %this, align 8
  %tobool.not.i.i.i.i = icmp eq ptr %3, null
  br i1 %tobool.not.i.i.i.i, label %_ZN15ref_vector_coreI4expr19ref_manager_wrapperIS0_11ast_managerEE7dec_refEPS0_.exit.i, label %if.then.i.i.i.i

if.then.i.i.i.i:                                  ; preds = %for.body.i
  %m_ref_count.i.i.i.i.i = getelementptr inbounds %class.ast, ptr %3, i64 0, i32 2
  %5 = load i32, ptr %m_ref_count.i.i.i.i.i, align 4
  %dec.i.i.i.i.i = add i32 %5, -1
  store i32 %dec.i.i.i.i.i, ptr %m_ref_count.i.i.i.i.i, align 4
  %cmp.i.i.i.i = icmp eq i32 %dec.i.i.i.i.i, 0
  br i1 %cmp.i.i.i.i, label %if.then2.i.i.i.i, label %_ZN15ref_vector_coreI4expr19ref_manager_wrapperIS0_11ast_managerEE7dec_refEPS0_.exit.i

if.then2.i.i.i.i:                                 ; preds = %if.then.i.i.i.i
  invoke void @_ZN11ast_manager11delete_nodeEP3ast(ptr noundef nonnull align 8 dereferenceable(976) %4, ptr noundef nonnull %3)
          to label %_ZN15ref_vector_coreI4expr19ref_manager_wrapperIS0_11ast_managerEE7dec_refEPS0_.exit.i unwind label %terminate.lpad

_ZN15ref_vector_coreI4expr19ref_manager_wrapperIS0_11ast_managerEE7dec_refEPS0_.exit.i: ; preds = %if.then2.i.i.i.i, %if.then.i.i.i.i, %for.body.i
  %incdec.ptr.i = getelementptr inbounds ptr, ptr %it.04.i, i64 1
  %cmp.i1 = icmp ult ptr %incdec.ptr.i, %add.ptr
  br i1 %cmp.i1, label %for.body.i, label %invoke.cont8, !llvm.loop !10

invoke.cont8:                                     ; preds = %_ZN15ref_vector_coreI4expr19ref_manager_wrapperIS0_11ast_managerEE7dec_refEPS0_.exit.i
  %.pre = load ptr, ptr %m_nodes, align 8
  %tobool.not.i.i.i = icmp eq ptr %.pre, null
  br i1 %tobool.not.i.i.i, label %_ZN10ptr_vectorI4exprED2Ev.exit, label %if.then.i.i.i

if.then.i.i.i:                                    ; preds = %_ZNK6vectorIP4exprLb0EjE4sizeEv.exit, %invoke.cont8
  %6 = phi ptr [ %.pre, %invoke.cont8 ], [ %0, %_ZNK6vectorIP4exprLb0EjE4sizeEv.exit ]
  %add.ptr.i.i.i.i = getelementptr inbounds i32, ptr %6, i64 -2
  invoke void @_ZN6memory10deallocateEPv(ptr noundef nonnull %add.ptr.i.i.i.i)
          to label %_ZN10ptr_vectorI4exprED2Ev.exit unwind label %terminate.lpad.i.i

terminate.lpad.i.i:                               ; preds = %if.then.i.i.i
  %7 = landingpad { ptr, i32 }
          catch ptr null
  %8 = extractvalue { ptr, i32 } %7, 0
  tail call void @__clang_call_terminate(ptr %8) #21
  unreachable

_ZN10ptr_vectorI4exprED2Ev.exit:                  ; preds = %entry, %invoke.cont8, %if.then.i.i.i
  ret void

terminate.lpad:                                   ; preds = %if.then2.i.i.i.i
  %9 = landingpad { ptr, i32 }
          catch ptr null
  %10 = extractvalue { ptr, i32 } %9, 0
  tail call void @__clang_call_terminate(ptr %10) #21
  unreachable
}

declare void @_ZN11ast_manager11delete_nodeEP3ast(ptr noundef nonnull align 8 dereferenceable(976), ptr noundef) local_unnamed_addr #0

; Function Attrs: nounwind
declare void @_ZN8datatype4utilD1Ev(ptr noundef nonnull align 8 dereferenceable(288)) unnamed_addr #1

; Function Attrs: mustprogress uwtable
define linkonce_odr hidden void @_Z7deallocI10ref_vectorI5sexpr13sexpr_managerEEvPT_(ptr noundef %ptr) local_unnamed_addr #3 comdat personality ptr @__gxx_personality_v0 {
entry:
  %cmp = icmp eq ptr %ptr, null
  br i1 %cmp, label %return, label %if.end

if.end:                                           ; preds = %entry
  %m_nodes.i.i = getelementptr inbounds %class.ref_vector_core.177, ptr %ptr, i64 0, i32 1
  %0 = load ptr, ptr %m_nodes.i.i, align 8
  %cmp.i.i.i = icmp eq ptr %0, null
  br i1 %cmp.i.i.i, label %_ZN10ref_vectorI5sexpr13sexpr_managerED2Ev.exit, label %_ZNK6vectorIP5sexprLb0EjE4sizeEv.exit.i.i

_ZNK6vectorIP5sexprLb0EjE4sizeEv.exit.i.i:        ; preds = %if.end
  %arrayidx.i.i.i = getelementptr inbounds i32, ptr %0, i64 -1
  %1 = load i32, ptr %arrayidx.i.i.i, align 4
  %2 = zext i32 %1 to i64
  %add.ptr.i.i = getelementptr inbounds ptr, ptr %0, i64 %2
  %cmp3.i.not.i.i = icmp eq i32 %1, 0
  br i1 %cmp3.i.not.i.i, label %if.then.i.i.i.i.i, label %for.body.i.i.i

for.body.i.i.i:                                   ; preds = %_ZNK6vectorIP5sexprLb0EjE4sizeEv.exit.i.i, %_ZN15ref_vector_coreI5sexpr19ref_manager_wrapperIS0_13sexpr_managerEE7dec_refEPS0_.exit.i.i.i
  %it.04.i.i.i = phi ptr [ %incdec.ptr.i.i.i, %_ZN15ref_vector_coreI5sexpr19ref_manager_wrapperIS0_13sexpr_managerEE7dec_refEPS0_.exit.i.i.i ], [ %0, %_ZNK6vectorIP5sexprLb0EjE4sizeEv.exit.i.i ]
  %3 = load ptr, ptr %it.04.i.i.i, align 8
  %4 = load ptr, ptr %ptr, align 8
  %m_ref_count.i.i.i.i.i.i = getelementptr inbounds %class.sexpr, ptr %3, i64 0, i32 1
  %5 = load i32, ptr %m_ref_count.i.i.i.i.i.i, align 4
  %dec.i.i.i.i.i.i = add i32 %5, -1
  store i32 %dec.i.i.i.i.i.i, ptr %m_ref_count.i.i.i.i.i.i, align 4
  %cmp.i.i.i.i.i.i = icmp eq i32 %dec.i.i.i.i.i.i, 0
  br i1 %cmp.i.i.i.i.i.i, label %if.then.i.i.i.i.i.i, label %_ZN15ref_vector_coreI5sexpr19ref_manager_wrapperIS0_13sexpr_managerEE7dec_refEPS0_.exit.i.i.i

if.then.i.i.i.i.i.i:                              ; preds = %for.body.i.i.i
  invoke void @_ZN13sexpr_manager3delEP5sexpr(ptr noundef nonnull align 8 dereferenceable(528) %4, ptr noundef nonnull %3)
          to label %_ZN15ref_vector_coreI5sexpr19ref_manager_wrapperIS0_13sexpr_managerEE7dec_refEPS0_.exit.i.i.i unwind label %terminate.lpad.i.i

_ZN15ref_vector_coreI5sexpr19ref_manager_wrapperIS0_13sexpr_managerEE7dec_refEPS0_.exit.i.i.i: ; preds = %if.then.i.i.i.i.i.i, %for.body.i.i.i
  %incdec.ptr.i.i.i = getelementptr inbounds ptr, ptr %it.04.i.i.i, i64 1
  %cmp.i1.i.i = icmp ult ptr %incdec.ptr.i.i.i, %add.ptr.i.i
  br i1 %cmp.i1.i.i, label %for.body.i.i.i, label %invoke.cont8.i.i, !llvm.loop !11

invoke.cont8.i.i:                                 ; preds = %_ZN15ref_vector_coreI5sexpr19ref_manager_wrapperIS0_13sexpr_managerEE7dec_refEPS0_.exit.i.i.i
  %.pre.i.i = load ptr, ptr %m_nodes.i.i, align 8
  %tobool.not.i.i.i.i.i = icmp eq ptr %.pre.i.i, null
  br i1 %tobool.not.i.i.i.i.i, label %_ZN10ref_vectorI5sexpr13sexpr_managerED2Ev.exit, label %if.then.i.i.i.i.i

if.then.i.i.i.i.i:                                ; preds = %invoke.cont8.i.i, %_ZNK6vectorIP5sexprLb0EjE4sizeEv.exit.i.i
  %6 = phi ptr [ %.pre.i.i, %invoke.cont8.i.i ], [ %0, %_ZNK6vectorIP5sexprLb0EjE4sizeEv.exit.i.i ]
  %add.ptr.i.i.i.i.i.i = getelementptr inbounds i32, ptr %6, i64 -2
  invoke void @_ZN6memory10deallocateEPv(ptr noundef nonnull %add.ptr.i.i.i.i.i.i)
          to label %_ZN10ref_vectorI5sexpr13sexpr_managerED2Ev.exit unwind label %terminate.lpad.i.i.i.i

terminate.lpad.i.i.i.i:                           ; preds = %if.then.i.i.i.i.i
  %7 = landingpad { ptr, i32 }
          catch ptr null
  %8 = extractvalue { ptr, i32 } %7, 0
  tail call void @__clang_call_terminate(ptr %8) #21
  unreachable

terminate.lpad.i.i:                               ; preds = %if.then.i.i.i.i.i.i
  %9 = landingpad { ptr, i32 }
          catch ptr null
  %10 = extractvalue { ptr, i32 } %9, 0
  tail call void @__clang_call_terminate(ptr %10) #21
  unreachable

_ZN10ref_vectorI5sexpr13sexpr_managerED2Ev.exit:  ; preds = %if.end, %invoke.cont8.i.i, %if.then.i.i.i.i.i
  tail call void @_ZN6memory10deallocateEPv(ptr noundef nonnull %ptr)
  br label %return

return:                                           ; preds = %entry, %_ZN10ref_vectorI5sexpr13sexpr_managerED2Ev.exit
  ret void
}

declare void @_ZN13sexpr_manager3delEP5sexpr(ptr noundef nonnull align 8 dereferenceable(528), ptr noundef) local_unnamed_addr #0

; Function Attrs: nounwind
declare void @_ZN9parameterD1Ev(ptr noundef nonnull align 8 dereferenceable(16)) unnamed_addr #1

; Function Attrs: mustprogress uwtable
define linkonce_odr hidden void @_Z7deallocI10ref_vectorI4expr11ast_managerEEvPT_(ptr noundef %ptr) local_unnamed_addr #3 comdat personality ptr @__gxx_personality_v0 {
entry:
  %cmp = icmp eq ptr %ptr, null
  br i1 %cmp, label %return, label %if.end

if.end:                                           ; preds = %entry
  %m_nodes.i.i = getelementptr inbounds %class.ref_vector_core.98, ptr %ptr, i64 0, i32 1
  %0 = load ptr, ptr %m_nodes.i.i, align 8
  %cmp.i.i.i = icmp eq ptr %0, null
  br i1 %cmp.i.i.i, label %_ZN10ref_vectorI4expr11ast_managerED2Ev.exit, label %_ZNK6vectorIP4exprLb0EjE4sizeEv.exit.i.i

_ZNK6vectorIP4exprLb0EjE4sizeEv.exit.i.i:         ; preds = %if.end
  %arrayidx.i.i.i = getelementptr inbounds i32, ptr %0, i64 -1
  %1 = load i32, ptr %arrayidx.i.i.i, align 4
  %2 = zext i32 %1 to i64
  %add.ptr.i.i = getelementptr inbounds ptr, ptr %0, i64 %2
  %cmp3.i.not.i.i = icmp eq i32 %1, 0
  br i1 %cmp3.i.not.i.i, label %if.then.i.i.i.i.i, label %for.body.i.i.i

for.body.i.i.i:                                   ; preds = %_ZNK6vectorIP4exprLb0EjE4sizeEv.exit.i.i, %_ZN15ref_vector_coreI4expr19ref_manager_wrapperIS0_11ast_managerEE7dec_refEPS0_.exit.i.i.i
  %it.04.i.i.i = phi ptr [ %incdec.ptr.i.i.i, %_ZN15ref_vector_coreI4expr19ref_manager_wrapperIS0_11ast_managerEE7dec_refEPS0_.exit.i.i.i ], [ %0, %_ZNK6vectorIP4exprLb0EjE4sizeEv.exit.i.i ]
  %3 = load ptr, ptr %it.04.i.i.i, align 8
  %4 = load ptr, ptr %ptr, align 8
  %tobool.not.i.i.i.i.i.i = icmp eq ptr %3, null
  br i1 %tobool.not.i.i.i.i.i.i, label %_ZN15ref_vector_coreI4expr19ref_manager_wrapperIS0_11ast_managerEE7dec_refEPS0_.exit.i.i.i, label %if.then.i.i.i.i.i.i

if.then.i.i.i.i.i.i:                              ; preds = %for.body.i.i.i
  %m_ref_count.i.i.i.i.i.i.i = getelementptr inbounds %class.ast, ptr %3, i64 0, i32 2
  %5 = load i32, ptr %m_ref_count.i.i.i.i.i.i.i, align 4
  %dec.i.i.i.i.i.i.i = add i32 %5, -1
  store i32 %dec.i.i.i.i.i.i.i, ptr %m_ref_count.i.i.i.i.i.i.i, align 4
  %cmp.i.i.i.i.i.i = icmp eq i32 %dec.i.i.i.i.i.i.i, 0
  br i1 %cmp.i.i.i.i.i.i, label %if.then2.i.i.i.i.i.i, label %_ZN15ref_vector_coreI4expr19ref_manager_wrapperIS0_11ast_managerEE7dec_refEPS0_.exit.i.i.i

if.then2.i.i.i.i.i.i:                             ; preds = %if.then.i.i.i.i.i.i
  invoke void @_ZN11ast_manager11delete_nodeEP3ast(ptr noundef nonnull align 8 dereferenceable(976) %4, ptr noundef nonnull %3)
          to label %_ZN15ref_vector_coreI4expr19ref_manager_wrapperIS0_11ast_managerEE7dec_refEPS0_.exit.i.i.i unwind label %terminate.lpad.i.i

_ZN15ref_vector_coreI4expr19ref_manager_wrapperIS0_11ast_managerEE7dec_refEPS0_.exit.i.i.i: ; preds = %if.then2.i.i.i.i.i.i, %if.then.i.i.i.i.i.i, %for.body.i.i.i
  %incdec.ptr.i.i.i = getelementptr inbounds ptr, ptr %it.04.i.i.i, i64 1
  %cmp.i1.i.i = icmp ult ptr %incdec.ptr.i.i.i, %add.ptr.i.i
  br i1 %cmp.i1.i.i, label %for.body.i.i.i, label %invoke.cont8.i.i, !llvm.loop !10

invoke.cont8.i.i:                                 ; preds = %_ZN15ref_vector_coreI4expr19ref_manager_wrapperIS0_11ast_managerEE7dec_refEPS0_.exit.i.i.i
  %.pre.i.i = load ptr, ptr %m_nodes.i.i, align 8
  %tobool.not.i.i.i.i.i = icmp eq ptr %.pre.i.i, null
  br i1 %tobool.not.i.i.i.i.i, label %_ZN10ref_vectorI4expr11ast_managerED2Ev.exit, label %if.then.i.i.i.i.i

if.then.i.i.i.i.i:                                ; preds = %invoke.cont8.i.i, %_ZNK6vectorIP4exprLb0EjE4sizeEv.exit.i.i
  %6 = phi ptr [ %.pre.i.i, %invoke.cont8.i.i ], [ %0, %_ZNK6vectorIP4exprLb0EjE4sizeEv.exit.i.i ]
  %add.ptr.i.i.i.i.i.i = getelementptr inbounds i32, ptr %6, i64 -2
  invoke void @_ZN6memory10deallocateEPv(ptr noundef nonnull %add.ptr.i.i.i.i.i.i)
          to label %_ZN10ref_vectorI4expr11ast_managerED2Ev.exit unwind label %terminate.lpad.i.i.i.i

terminate.lpad.i.i.i.i:                           ; preds = %if.then.i.i.i.i.i
  %7 = landingpad { ptr, i32 }
          catch ptr null
  %8 = extractvalue { ptr, i32 } %7, 0
  tail call void @__clang_call_terminate(ptr %8) #21
  unreachable

terminate.lpad.i.i:                               ; preds = %if.then2.i.i.i.i.i.i
  %9 = landingpad { ptr, i32 }
          catch ptr null
  %10 = extractvalue { ptr, i32 } %9, 0
  tail call void @__clang_call_terminate(ptr %10) #21
  unreachable

_ZN10ref_vectorI4expr11ast_managerED2Ev.exit:     ; preds = %if.end, %invoke.cont8.i.i, %if.then.i.i.i.i.i
  tail call void @_ZN6memory10deallocateEPv(ptr noundef nonnull %ptr)
  br label %return

return:                                           ; preds = %entry, %_ZN10ref_vectorI4expr11ast_managerED2Ev.exit
  ret void
}

; Function Attrs: mustprogress uwtable
define linkonce_odr hidden void @_Z7deallocI10ref_vectorI4sort11ast_managerEEvPT_(ptr noundef %ptr) local_unnamed_addr #3 comdat personality ptr @__gxx_personality_v0 {
entry:
  %cmp = icmp eq ptr %ptr, null
  br i1 %cmp, label %return, label %if.end

if.end:                                           ; preds = %entry
  %m_nodes.i.i = getelementptr inbounds %class.ref_vector_core.195, ptr %ptr, i64 0, i32 1
  %0 = load ptr, ptr %m_nodes.i.i, align 8
  %cmp.i.i.i = icmp eq ptr %0, null
  br i1 %cmp.i.i.i, label %_ZN10ref_vectorI4sort11ast_managerED2Ev.exit, label %_ZNK6vectorIP4sortLb0EjE4sizeEv.exit.i.i

_ZNK6vectorIP4sortLb0EjE4sizeEv.exit.i.i:         ; preds = %if.end
  %arrayidx.i.i.i = getelementptr inbounds i32, ptr %0, i64 -1
  %1 = load i32, ptr %arrayidx.i.i.i, align 4
  %2 = zext i32 %1 to i64
  %add.ptr.i.i = getelementptr inbounds ptr, ptr %0, i64 %2
  %cmp3.i.not.i.i = icmp eq i32 %1, 0
  br i1 %cmp3.i.not.i.i, label %if.then.i.i.i.i.i, label %for.body.i.i.i

for.body.i.i.i:                                   ; preds = %_ZNK6vectorIP4sortLb0EjE4sizeEv.exit.i.i, %_ZN15ref_vector_coreI4sort19ref_manager_wrapperIS0_11ast_managerEE7dec_refEPS0_.exit.i.i.i
  %it.04.i.i.i = phi ptr [ %incdec.ptr.i.i.i, %_ZN15ref_vector_coreI4sort19ref_manager_wrapperIS0_11ast_managerEE7dec_refEPS0_.exit.i.i.i ], [ %0, %_ZNK6vectorIP4sortLb0EjE4sizeEv.exit.i.i ]
  %3 = load ptr, ptr %it.04.i.i.i, align 8
  %4 = load ptr, ptr %ptr, align 8
  %tobool.not.i.i.i.i.i.i = icmp eq ptr %3, null
  br i1 %tobool.not.i.i.i.i.i.i, label %_ZN15ref_vector_coreI4sort19ref_manager_wrapperIS0_11ast_managerEE7dec_refEPS0_.exit.i.i.i, label %if.then.i.i.i.i.i.i

if.then.i.i.i.i.i.i:                              ; preds = %for.body.i.i.i
  %m_ref_count.i.i.i.i.i.i.i = getelementptr inbounds %class.ast, ptr %3, i64 0, i32 2
  %5 = load i32, ptr %m_ref_count.i.i.i.i.i.i.i, align 4
  %dec.i.i.i.i.i.i.i = add i32 %5, -1
  store i32 %dec.i.i.i.i.i.i.i, ptr %m_ref_count.i.i.i.i.i.i.i, align 4
  %cmp.i.i.i.i.i.i = icmp eq i32 %dec.i.i.i.i.i.i.i, 0
  br i1 %cmp.i.i.i.i.i.i, label %if.then2.i.i.i.i.i.i, label %_ZN15ref_vector_coreI4sort19ref_manager_wrapperIS0_11ast_managerEE7dec_refEPS0_.exit.i.i.i

if.then2.i.i.i.i.i.i:                             ; preds = %if.then.i.i.i.i.i.i
  invoke void @_ZN11ast_manager11delete_nodeEP3ast(ptr noundef nonnull align 8 dereferenceable(976) %4, ptr noundef nonnull %3)
          to label %_ZN15ref_vector_coreI4sort19ref_manager_wrapperIS0_11ast_managerEE7dec_refEPS0_.exit.i.i.i unwind label %terminate.lpad.i.i

_ZN15ref_vector_coreI4sort19ref_manager_wrapperIS0_11ast_managerEE7dec_refEPS0_.exit.i.i.i: ; preds = %if.then2.i.i.i.i.i.i, %if.then.i.i.i.i.i.i, %for.body.i.i.i
  %incdec.ptr.i.i.i = getelementptr inbounds ptr, ptr %it.04.i.i.i, i64 1
  %cmp.i1.i.i = icmp ult ptr %incdec.ptr.i.i.i, %add.ptr.i.i
  br i1 %cmp.i1.i.i, label %for.body.i.i.i, label %invoke.cont8.i.i, !llvm.loop !12

invoke.cont8.i.i:                                 ; preds = %_ZN15ref_vector_coreI4sort19ref_manager_wrapperIS0_11ast_managerEE7dec_refEPS0_.exit.i.i.i
  %.pre.i.i = load ptr, ptr %m_nodes.i.i, align 8
  %tobool.not.i.i.i.i.i = icmp eq ptr %.pre.i.i, null
  br i1 %tobool.not.i.i.i.i.i, label %_ZN10ref_vectorI4sort11ast_managerED2Ev.exit, label %if.then.i.i.i.i.i

if.then.i.i.i.i.i:                                ; preds = %invoke.cont8.i.i, %_ZNK6vectorIP4sortLb0EjE4sizeEv.exit.i.i
  %6 = phi ptr [ %.pre.i.i, %invoke.cont8.i.i ], [ %0, %_ZNK6vectorIP4sortLb0EjE4sizeEv.exit.i.i ]
  %add.ptr.i.i.i.i.i.i = getelementptr inbounds i32, ptr %6, i64 -2
  invoke void @_ZN6memory10deallocateEPv(ptr noundef nonnull %add.ptr.i.i.i.i.i.i)
          to label %_ZN10ref_vectorI4sort11ast_managerED2Ev.exit unwind label %terminate.lpad.i.i.i.i

terminate.lpad.i.i.i.i:                           ; preds = %if.then.i.i.i.i.i
  %7 = landingpad { ptr, i32 }
          catch ptr null
  %8 = extractvalue { ptr, i32 } %7, 0
  tail call void @__clang_call_terminate(ptr %8) #21
  unreachable

terminate.lpad.i.i:                               ; preds = %if.then2.i.i.i.i.i.i
  %9 = landingpad { ptr, i32 }
          catch ptr null
  %10 = extractvalue { ptr, i32 } %9, 0
  tail call void @__clang_call_terminate(ptr %10) #21
  unreachable

_ZN10ref_vectorI4sort11ast_managerED2Ev.exit:     ; preds = %if.end, %invoke.cont8.i.i, %if.then.i.i.i.i.i
  tail call void @_ZN6memory10deallocateEPv(ptr noundef nonnull %ptr)
  br label %return

return:                                           ; preds = %entry, %_ZN10ref_vectorI4sort11ast_managerED2Ev.exit
  ret void
}

; Function Attrs: mustprogress nounwind uwtable
define linkonce_odr hidden void @_ZN15ref_vector_coreI5psort19ref_manager_wrapperIS0_13pdecl_managerEED2Ev(ptr noundef nonnull align 8 dereferenceable(16) %this) unnamed_addr #4 comdat align 2 personality ptr @__gxx_personality_v0 {
entry:
  %m_nodes = getelementptr inbounds %class.ref_vector_core.198, ptr %this, i64 0, i32 1
  %0 = load ptr, ptr %m_nodes, align 8
  %cmp.i = icmp eq ptr %0, null
  br i1 %cmp.i, label %_ZN10ptr_vectorI5psortED2Ev.exit, label %_ZNK6vectorIP5psortLb0EjE4sizeEv.exit

_ZNK6vectorIP5psortLb0EjE4sizeEv.exit:            ; preds = %entry
  %arrayidx.i = getelementptr inbounds i32, ptr %0, i64 -1
  %1 = load i32, ptr %arrayidx.i, align 4
  %2 = zext i32 %1 to i64
  %add.ptr = getelementptr inbounds ptr, ptr %0, i64 %2
  %cmp3.i.not = icmp eq i32 %1, 0
  br i1 %cmp3.i.not, label %if.then.i.i.i, label %for.body.i

for.body.i:                                       ; preds = %_ZNK6vectorIP5psortLb0EjE4sizeEv.exit, %_ZN15ref_vector_coreI5psort19ref_manager_wrapperIS0_13pdecl_managerEE7dec_refEPS0_.exit.i
  %it.04.i = phi ptr [ %incdec.ptr.i, %_ZN15ref_vector_coreI5psort19ref_manager_wrapperIS0_13pdecl_managerEE7dec_refEPS0_.exit.i ], [ %0, %_ZNK6vectorIP5psortLb0EjE4sizeEv.exit ]
  %3 = load ptr, ptr %it.04.i, align 8
  %4 = load ptr, ptr %this, align 8
  %tobool.not.i.i.i.i = icmp eq ptr %3, null
  br i1 %tobool.not.i.i.i.i, label %_ZN15ref_vector_coreI5psort19ref_manager_wrapperIS0_13pdecl_managerEE7dec_refEPS0_.exit.i, label %if.then.i.i.i.i

if.then.i.i.i.i:                                  ; preds = %for.body.i
  %m_ref_count.i.i.i.i.i.i = getelementptr inbounds %class.pdecl, ptr %3, i64 0, i32 3
  %5 = load i32, ptr %m_ref_count.i.i.i.i.i.i, align 8
  %dec.i.i.i.i.i.i = add i32 %5, -1
  store i32 %dec.i.i.i.i.i.i, ptr %m_ref_count.i.i.i.i.i.i, align 8
  %cmp.i.i.i.i.i = icmp eq i32 %dec.i.i.i.i.i.i, 0
  br i1 %cmp.i.i.i.i.i, label %if.then.i.i.i.i.i, label %_ZN13pdecl_manager12lazy_dec_refEP5pdecl.exit.i.i.i.i

if.then.i.i.i.i.i:                                ; preds = %if.then.i.i.i.i
  %m_to_delete.i.i.i.i.i = getelementptr inbounds %class.pdecl_manager, ptr %4, i64 0, i32 5
  %6 = load ptr, ptr %m_to_delete.i.i.i.i.i, align 8
  %cmp.i.i.i.i.i.i = icmp eq ptr %6, null
  br i1 %cmp.i.i.i.i.i.i, label %if.then.i.i.i.i.i.i, label %lor.lhs.false.i.i.i.i.i.i

lor.lhs.false.i.i.i.i.i.i:                        ; preds = %if.then.i.i.i.i.i
  %arrayidx.i.i.i.i.i.i = getelementptr inbounds i32, ptr %6, i64 -1
  %7 = load i32, ptr %arrayidx.i.i.i.i.i.i, align 4
  %arrayidx4.i.i.i.i.i.i = getelementptr inbounds i32, ptr %6, i64 -2
  %8 = load i32, ptr %arrayidx4.i.i.i.i.i.i, align 4
  %cmp5.i.i.i.i.i.i = icmp eq i32 %7, %8
  br i1 %cmp5.i.i.i.i.i.i, label %if.then.i.i.i.i.i.i, label %_ZN6vectorIP5pdeclLb0EjE9push_backERKS1_.exit.i.i.i.i.i

if.then.i.i.i.i.i.i:                              ; preds = %lor.lhs.false.i.i.i.i.i.i, %if.then.i.i.i.i.i
  invoke void @_ZN6vectorIP5pdeclLb0EjE13expand_vectorEv(ptr noundef nonnull align 8 dereferenceable(8) %m_to_delete.i.i.i.i.i)
          to label %.noexc unwind label %terminate.lpad

.noexc:                                           ; preds = %if.then.i.i.i.i.i.i
  %.pre.i.i.i.i.i.i = load ptr, ptr %m_to_delete.i.i.i.i.i, align 8
  %arrayidx8.phi.trans.insert.i.i.i.i.i.i = getelementptr inbounds i32, ptr %.pre.i.i.i.i.i.i, i64 -1
  %.pre1.i.i.i.i.i.i = load i32, ptr %arrayidx8.phi.trans.insert.i.i.i.i.i.i, align 4
  br label %_ZN6vectorIP5pdeclLb0EjE9push_backERKS1_.exit.i.i.i.i.i

_ZN6vectorIP5pdeclLb0EjE9push_backERKS1_.exit.i.i.i.i.i: ; preds = %.noexc, %lor.lhs.false.i.i.i.i.i.i
  %9 = phi i32 [ %.pre1.i.i.i.i.i.i, %.noexc ], [ %7, %lor.lhs.false.i.i.i.i.i.i ]
  %10 = phi ptr [ %.pre.i.i.i.i.i.i, %.noexc ], [ %6, %lor.lhs.false.i.i.i.i.i.i ]
  %idx.ext.i.i.i.i.i.i = zext i32 %9 to i64
  %add.ptr.i.i.i.i.i.i = getelementptr inbounds ptr, ptr %10, i64 %idx.ext.i.i.i.i.i.i
  store ptr %3, ptr %add.ptr.i.i.i.i.i.i, align 8
  %11 = load ptr, ptr %m_to_delete.i.i.i.i.i, align 8
  %arrayidx10.i.i.i.i.i.i = getelementptr inbounds i32, ptr %11, i64 -1
  %12 = load i32, ptr %arrayidx10.i.i.i.i.i.i, align 4
  %inc.i.i.i.i.i.i = add i32 %12, 1
  store i32 %inc.i.i.i.i.i.i, ptr %arrayidx10.i.i.i.i.i.i, align 4
  br label %_ZN13pdecl_manager12lazy_dec_refEP5pdecl.exit.i.i.i.i

_ZN13pdecl_manager12lazy_dec_refEP5pdecl.exit.i.i.i.i: ; preds = %_ZN6vectorIP5pdeclLb0EjE9push_backERKS1_.exit.i.i.i.i.i, %if.then.i.i.i.i
  invoke void @_ZN13pdecl_manager9del_declsEv(ptr noundef nonnull align 8 dereferenceable(192) %4)
          to label %_ZN15ref_vector_coreI5psort19ref_manager_wrapperIS0_13pdecl_managerEE7dec_refEPS0_.exit.i unwind label %terminate.lpad

_ZN15ref_vector_coreI5psort19ref_manager_wrapperIS0_13pdecl_managerEE7dec_refEPS0_.exit.i: ; preds = %_ZN13pdecl_manager12lazy_dec_refEP5pdecl.exit.i.i.i.i, %for.body.i
  %incdec.ptr.i = getelementptr inbounds ptr, ptr %it.04.i, i64 1
  %cmp.i1 = icmp ult ptr %incdec.ptr.i, %add.ptr
  br i1 %cmp.i1, label %for.body.i, label %invoke.cont8, !llvm.loop !13

invoke.cont8:                                     ; preds = %_ZN15ref_vector_coreI5psort19ref_manager_wrapperIS0_13pdecl_managerEE7dec_refEPS0_.exit.i
  %.pre = load ptr, ptr %m_nodes, align 8
  %tobool.not.i.i.i = icmp eq ptr %.pre, null
  br i1 %tobool.not.i.i.i, label %_ZN10ptr_vectorI5psortED2Ev.exit, label %if.then.i.i.i

if.then.i.i.i:                                    ; preds = %_ZNK6vectorIP5psortLb0EjE4sizeEv.exit, %invoke.cont8
  %13 = phi ptr [ %.pre, %invoke.cont8 ], [ %0, %_ZNK6vectorIP5psortLb0EjE4sizeEv.exit ]
  %add.ptr.i.i.i.i = getelementptr inbounds i32, ptr %13, i64 -2
  invoke void @_ZN6memory10deallocateEPv(ptr noundef nonnull %add.ptr.i.i.i.i)
          to label %_ZN10ptr_vectorI5psortED2Ev.exit unwind label %terminate.lpad.i.i

terminate.lpad.i.i:                               ; preds = %if.then.i.i.i
  %14 = landingpad { ptr, i32 }
          catch ptr null
  %15 = extractvalue { ptr, i32 } %14, 0
  tail call void @__clang_call_terminate(ptr %15) #21
  unreachable

_ZN10ptr_vectorI5psortED2Ev.exit:                 ; preds = %entry, %invoke.cont8, %if.then.i.i.i
  ret void

terminate.lpad:                                   ; preds = %_ZN13pdecl_manager12lazy_dec_refEP5pdecl.exit.i.i.i.i, %if.then.i.i.i.i.i.i
  %16 = landingpad { ptr, i32 }
          catch ptr null
  %17 = extractvalue { ptr, i32 } %16, 0
  tail call void @__clang_call_terminate(ptr %17) #21
  unreachable
}

declare void @_ZN13pdecl_manager9del_declsEv(ptr noundef nonnull align 8 dereferenceable(192)) local_unnamed_addr #0

; Function Attrs: mustprogress uwtable
define linkonce_odr hidden void @_ZN6vectorIP5pdeclLb0EjE13expand_vectorEv(ptr noundef nonnull align 8 dereferenceable(8) %this) local_unnamed_addr #3 comdat align 2 personality ptr @__gxx_personality_v0 {
entry:
  %ref.tmp = alloca %"class.std::__cxx11::basic_string", align 8
  %ref.tmp18 = alloca %"class.std::allocator.21", align 1
  %0 = load ptr, ptr %this, align 8
  %cmp = icmp eq ptr %0, null
  br i1 %cmp, label %if.then, label %if.else

if.then:                                          ; preds = %entry
  %call = tail call noalias noundef ptr @_ZN6memory8allocateEm(i64 noundef 24)
  store i32 2, ptr %call, align 4
  %incdec.ptr = getelementptr inbounds i32, ptr %call, i64 1
  store i32 0, ptr %incdec.ptr, align 4
  %incdec.ptr2 = getelementptr inbounds i32, ptr %call, i64 2
  store ptr %incdec.ptr2, ptr %this, align 8
  br label %if.end28

if.else:                                          ; preds = %entry
  %arrayidx = getelementptr inbounds i32, ptr %0, i64 -2
  %1 = load i32, ptr %arrayidx, align 4
  %mul9 = mul i32 %1, 3
  %add10 = add i32 %mul9, 1
  %shr = lshr i32 %add10, 1
  %mul12 = shl i32 %shr, 3
  %add13 = add i32 %mul12, 8
  %cmp15.not = icmp ugt i32 %shr, %1
  br i1 %cmp15.not, label %lor.lhs.false, label %if.then17

lor.lhs.false:                                    ; preds = %if.else
  %mul6 = shl i32 %1, 3
  %add7 = add i32 %mul6, 8
  %cmp16.not = icmp ugt i32 %add13, %add7
  br i1 %cmp16.not, label %if.end, label %if.then17

if.then17:                                        ; preds = %lor.lhs.false, %if.else
  %exception = tail call ptr @__cxa_allocate_exception(i64 40) #19
  call void @_ZNSaIcEC1Ev(ptr noundef nonnull align 1 dereferenceable(1) %ref.tmp18) #19
  invoke void @_ZNSt7__cxx1112basic_stringIcSt11char_traitsIcESaIcEEC2IS3_EEPKcRKS3_(ptr noundef nonnull align 8 dereferenceable(32) %ref.tmp, ptr noundef nonnull @.str.44, ptr noundef nonnull align 1 dereferenceable(1) %ref.tmp18)
          to label %invoke.cont unwind label %cleanup.action

invoke.cont:                                      ; preds = %if.then17
  store ptr getelementptr inbounds ({ [6 x ptr] }, ptr @_ZTV17default_exception, i64 0, inrange i32 0, i64 2), ptr %exception, align 8
  %m_msg.i = getelementptr inbounds %class.default_exception, ptr %exception, i64 0, i32 1
  call void @_ZNSt7__cxx1112basic_stringIcSt11char_traitsIcESaIcEEC1EOS4_(ptr noundef nonnull align 8 dereferenceable(32) %m_msg.i, ptr noundef nonnull align 8 dereferenceable(32) %ref.tmp) #19
  invoke void @__cxa_throw(ptr nonnull %exception, ptr nonnull @_ZTI17default_exception, ptr nonnull @_ZN17default_exceptionD2Ev) #20
          to label %unreachable unwind label %ehcleanup

ehcleanup:                                        ; preds = %invoke.cont
  %2 = landingpad { ptr, i32 }
          cleanup
  call void @_ZNSt7__cxx1112basic_stringIcSt11char_traitsIcESaIcEED1Ev(ptr noundef nonnull align 8 dereferenceable(32) %ref.tmp) #19
  call void @_ZNSaIcED1Ev(ptr noundef nonnull align 1 dereferenceable(1) %ref.tmp18) #19
  br label %eh.resume

cleanup.action:                                   ; preds = %if.then17
  %3 = landingpad { ptr, i32 }
          cleanup
  call void @_ZNSaIcED1Ev(ptr noundef nonnull align 1 dereferenceable(1) %ref.tmp18) #19
  call void @__cxa_free_exception(ptr %exception) #19
  br label %eh.resume

if.end:                                           ; preds = %lor.lhs.false
  %conv24 = zext i32 %add13 to i64
  %call25 = tail call noalias noundef ptr @_ZN6memory10reallocateEPvm(ptr noundef nonnull %arrayidx, i64 noundef %conv24)
  %add.ptr26 = getelementptr inbounds i32, ptr %call25, i64 2
  store ptr %add.ptr26, ptr %this, align 8
  store i32 %shr, ptr %call25, align 4
  br label %if.end28

if.end28:                                         ; preds = %if.end, %if.then
  ret void

eh.resume:                                        ; preds = %ehcleanup, %cleanup.action
  %.pn15 = phi { ptr, i32 } [ %2, %ehcleanup ], [ %3, %cleanup.action ]
  resume { ptr, i32 } %.pn15

unreachable:                                      ; preds = %invoke.cont
  unreachable
}

declare ptr @__cxa_allocate_exception(i64) local_unnamed_addr

; Function Attrs: nounwind
declare void @_ZNSaIcEC1Ev(ptr noundef nonnull align 1 dereferenceable(1)) unnamed_addr #1

; Function Attrs: mustprogress uwtable
define linkonce_odr hidden void @_ZNSt7__cxx1112basic_stringIcSt11char_traitsIcESaIcEEC2IS3_EEPKcRKS3_(ptr noundef nonnull align 8 dereferenceable(32) %this, ptr noundef %__s, ptr noundef nonnull align 1 dereferenceable(1) %__a) unnamed_addr #3 comdat align 2 personality ptr @__gxx_personality_v0 {
entry:
  %call = tail call noundef ptr @_ZNSt7__cxx1112basic_stringIcSt11char_traitsIcESaIcEE13_M_local_dataEv(ptr noundef nonnull align 8 dereferenceable(32) %this)
  tail call void @_ZNSt7__cxx1112basic_stringIcSt11char_traitsIcESaIcEE12_Alloc_hiderC1EPcRKS3_(ptr noundef nonnull align 8 dereferenceable(8) %this, ptr noundef %call, ptr noundef nonnull align 1 dereferenceable(1) %__a)
  %cmp = icmp eq ptr %__s, null
  br i1 %cmp, label %if.then, label %if.end

if.then:                                          ; preds = %entry
  invoke void @_ZSt19__throw_logic_errorPKc(ptr noundef nonnull @.str.45) #20
          to label %invoke.cont unwind label %lpad

invoke.cont:                                      ; preds = %if.then
  unreachable

lpad:                                             ; preds = %if.end, %if.then
  %0 = landingpad { ptr, i32 }
          cleanup
  tail call void @_ZNSaIcED2Ev(ptr noundef nonnull align 1 dereferenceable(1) %this) #19
  resume { ptr, i32 } %0

if.end:                                           ; preds = %entry
  %call.i = tail call noundef i64 @strlen(ptr noundef nonnull dereferenceable(1) %__s) #19
  %add.ptr = getelementptr inbounds i8, ptr %__s, i64 %call.i
  invoke void @_ZNSt7__cxx1112basic_stringIcSt11char_traitsIcESaIcEE12_M_constructIPKcEEvT_S8_St20forward_iterator_tag(ptr noundef nonnull align 8 dereferenceable(32) %this, ptr noundef nonnull %__s, ptr noundef nonnull %add.ptr)
          to label %invoke.cont4 unwind label %lpad

invoke.cont4:                                     ; preds = %if.end
  ret void
}

; Function Attrs: mustprogress nounwind uwtable
define linkonce_odr hidden void @_ZN17default_exceptionD2Ev(ptr noundef nonnull align 8 dereferenceable(40) %this) unnamed_addr #4 comdat align 2 {
entry:
  store ptr getelementptr inbounds ({ [6 x ptr] }, ptr @_ZTV17default_exception, i64 0, inrange i32 0, i64 2), ptr %this, align 8
  %m_msg = getelementptr inbounds %class.default_exception, ptr %this, i64 0, i32 1
  tail call void @_ZNSt7__cxx1112basic_stringIcSt11char_traitsIcESaIcEED1Ev(ptr noundef nonnull align 8 dereferenceable(32) %m_msg) #19
  ret void
}

declare void @__cxa_throw(ptr, ptr, ptr) local_unnamed_addr

; Function Attrs: nounwind
declare void @_ZNSaIcED1Ev(ptr noundef nonnull align 1 dereferenceable(1)) unnamed_addr #1

declare void @__cxa_free_exception(ptr) local_unnamed_addr

declare noalias noundef ptr @_ZN6memory10reallocateEPvm(ptr noundef, i64 noundef) local_unnamed_addr #0

declare noundef ptr @_ZNSt7__cxx1112basic_stringIcSt11char_traitsIcESaIcEE13_M_local_dataEv(ptr noundef nonnull align 8 dereferenceable(32)) local_unnamed_addr #0

declare void @_ZNSt7__cxx1112basic_stringIcSt11char_traitsIcESaIcEE12_Alloc_hiderC1EPcRKS3_(ptr noundef nonnull align 8 dereferenceable(8), ptr noundef, ptr noundef nonnull align 1 dereferenceable(1)) unnamed_addr #0

; Function Attrs: noreturn
declare void @_ZSt19__throw_logic_errorPKc(ptr noundef) local_unnamed_addr #8

; Function Attrs: mustprogress uwtable
define linkonce_odr void @_ZNSt7__cxx1112basic_stringIcSt11char_traitsIcESaIcEE12_M_constructIPKcEEvT_S8_St20forward_iterator_tag(ptr noundef nonnull align 8 dereferenceable(32) %this, ptr noundef %__beg, ptr noundef %__end) local_unnamed_addr #3 comdat align 2 personality ptr @__gxx_personality_v0 {
entry:
  %__dnew = alloca i64, align 8
  %__guard = alloca %struct._Guard, align 8
  %sub.ptr.lhs.cast.i.i = ptrtoint ptr %__end to i64
  %sub.ptr.rhs.cast.i.i = ptrtoint ptr %__beg to i64
  %sub.ptr.sub.i.i = sub i64 %sub.ptr.lhs.cast.i.i, %sub.ptr.rhs.cast.i.i
  store i64 %sub.ptr.sub.i.i, ptr %__dnew, align 8
  %cmp = icmp ugt i64 %sub.ptr.sub.i.i, 15
  br i1 %cmp, label %if.then, label %if.else

if.then:                                          ; preds = %entry
  %call2 = call noundef ptr @_ZNSt7__cxx1112basic_stringIcSt11char_traitsIcESaIcEE9_M_createERmm(ptr noundef nonnull align 8 dereferenceable(32) %this, ptr noundef nonnull align 8 dereferenceable(8) %__dnew, i64 noundef 0)
  call void @_ZNSt7__cxx1112basic_stringIcSt11char_traitsIcESaIcEE7_M_dataEPc(ptr noundef nonnull align 8 dereferenceable(32) %this, ptr noundef %call2)
  %0 = load i64, ptr %__dnew, align 8
  call void @_ZNSt7__cxx1112basic_stringIcSt11char_traitsIcESaIcEE11_M_capacityEm(ptr noundef nonnull align 8 dereferenceable(32) %this, i64 noundef %0)
  br label %if.end

if.else:                                          ; preds = %entry
  %call.i = invoke noundef ptr @_ZNSt7__cxx1112basic_stringIcSt11char_traitsIcESaIcEE13_M_local_dataEv(ptr noundef nonnull align 8 dereferenceable(32) %this)
          to label %if.end unwind label %terminate.lpad.i

terminate.lpad.i:                                 ; preds = %if.else
  %1 = landingpad { ptr, i32 }
          catch ptr null
  %2 = extractvalue { ptr, i32 } %1, 0
  tail call void @__clang_call_terminate(ptr %2) #21
  unreachable

if.end:                                           ; preds = %if.else, %if.then
  store ptr %this, ptr %__guard, align 8
  %call4 = invoke noundef ptr @_ZNKSt7__cxx1112basic_stringIcSt11char_traitsIcESaIcEE7_M_dataEv(ptr noundef nonnull align 8 dereferenceable(32) %this)
          to label %invoke.cont unwind label %lpad

invoke.cont:                                      ; preds = %if.end
  call void @_ZNSt7__cxx1112basic_stringIcSt11char_traitsIcESaIcEE13_S_copy_charsEPcPKcS7_(ptr noundef %call4, ptr noundef %__beg, ptr noundef %__end) #19
  store ptr null, ptr %__guard, align 8
  %3 = load i64, ptr %__dnew, align 8
  invoke void @_ZNSt7__cxx1112basic_stringIcSt11char_traitsIcESaIcEE13_M_set_lengthEm(ptr noundef nonnull align 8 dereferenceable(32) %this, i64 noundef %3)
          to label %_ZZNSt7__cxx1112basic_stringIcSt11char_traitsIcESaIcEE12_M_constructIPKcEEvT_S8_St20forward_iterator_tagEN6_GuardD2Ev.exit unwind label %lpad

_ZZNSt7__cxx1112basic_stringIcSt11char_traitsIcESaIcEE12_M_constructIPKcEEvT_S8_St20forward_iterator_tagEN6_GuardD2Ev.exit: ; preds = %invoke.cont
  ret void

lpad:                                             ; preds = %invoke.cont, %if.end
  %4 = landingpad { ptr, i32 }
          cleanup
  call void @_ZZNSt7__cxx1112basic_stringIcSt11char_traitsIcESaIcEE12_M_constructIPKcEEvT_S8_St20forward_iterator_tagEN6_GuardD2Ev(ptr noundef nonnull align 8 dereferenceable(8) %__guard) #19
  resume { ptr, i32 } %4
}

; Function Attrs: mustprogress nofree nounwind willreturn memory(argmem: read)
declare i64 @strlen(ptr nocapture noundef) local_unnamed_addr #9

declare void @_ZNSt7__cxx1112basic_stringIcSt11char_traitsIcESaIcEE7_M_dataEPc(ptr noundef nonnull align 8 dereferenceable(32), ptr noundef) local_unnamed_addr #0

declare noundef ptr @_ZNSt7__cxx1112basic_stringIcSt11char_traitsIcESaIcEE9_M_createERmm(ptr noundef nonnull align 8 dereferenceable(32), ptr noundef nonnull align 8 dereferenceable(8), i64 noundef) local_unnamed_addr #0

declare void @_ZNSt7__cxx1112basic_stringIcSt11char_traitsIcESaIcEE11_M_capacityEm(ptr noundef nonnull align 8 dereferenceable(32), i64 noundef) local_unnamed_addr #0

; Function Attrs: nounwind
declare void @_ZNSt7__cxx1112basic_stringIcSt11char_traitsIcESaIcEE13_S_copy_charsEPcPKcS7_(ptr noundef, ptr noundef, ptr noundef) local_unnamed_addr #1

declare noundef ptr @_ZNKSt7__cxx1112basic_stringIcSt11char_traitsIcESaIcEE7_M_dataEv(ptr noundef nonnull align 8 dereferenceable(32)) local_unnamed_addr #0

declare void @_ZNSt7__cxx1112basic_stringIcSt11char_traitsIcESaIcEE13_M_set_lengthEm(ptr noundef nonnull align 8 dereferenceable(32), i64 noundef) local_unnamed_addr #0

; Function Attrs: mustprogress nounwind uwtable
define linkonce_odr hidden void @_ZZNSt7__cxx1112basic_stringIcSt11char_traitsIcESaIcEE12_M_constructIPKcEEvT_S8_St20forward_iterator_tagEN6_GuardD2Ev(ptr noundef nonnull align 8 dereferenceable(8) %this) unnamed_addr #4 comdat align 2 personality ptr @__gxx_personality_v0 {
entry:
  %0 = load ptr, ptr %this, align 8
  %tobool.not = icmp eq ptr %0, null
  br i1 %tobool.not, label %if.end, label %if.then

if.then:                                          ; preds = %entry
  invoke void @_ZNSt7__cxx1112basic_stringIcSt11char_traitsIcESaIcEE10_M_disposeEv(ptr noundef nonnull align 8 dereferenceable(32) %0)
          to label %if.end unwind label %terminate.lpad

if.end:                                           ; preds = %if.then, %entry
  ret void

terminate.lpad:                                   ; preds = %if.then
  %1 = landingpad { ptr, i32 }
          catch ptr null
  %2 = extractvalue { ptr, i32 } %1, 0
  tail call void @__clang_call_terminate(ptr %2) #21
  unreachable
}

declare void @_ZNSt7__cxx1112basic_stringIcSt11char_traitsIcESaIcEE10_M_disposeEv(ptr noundef nonnull align 8 dereferenceable(32)) local_unnamed_addr #0

; Function Attrs: nounwind
declare void @_ZNSaIcED2Ev(ptr noundef nonnull align 1 dereferenceable(1)) unnamed_addr #1

; Function Attrs: nounwind
declare void @_ZNSt7__cxx1112basic_stringIcSt11char_traitsIcESaIcEEC1EOS4_(ptr noundef nonnull align 8 dereferenceable(32), ptr noundef nonnull align 8 dereferenceable(32)) unnamed_addr #1

; Function Attrs: nofree nosync nounwind memory(none)
declare i32 @llvm.eh.typeid.for(ptr) #10

; Function Attrs: mustprogress uwtable
define linkonce_odr hidden noundef zeroext i1 @_ZN4smt26parser16sync_after_errorEv(ptr noundef nonnull align 8 dereferenceable(2168) %this) local_unnamed_addr #3 comdat align 2 personality ptr @__gxx_personality_v0 {
entry:
  %m_curr.i.i = getelementptr inbounds %"class.smt2::parser", ptr %this, i64 0, i32 3
  %m_num_open_paren.i.i = getelementptr inbounds %"class.smt2::parser", ptr %this, i64 0, i32 74
  %m_cache.i.i.i.i = getelementptr inbounds %"class.smt2::parser", ptr %this, i64 0, i32 2, i32 17
  %m_scanner.i.i.i = getelementptr inbounds %"class.smt2::parser", ptr %this, i64 0, i32 2
  %m_cache_end.i.i.i = getelementptr inbounds %"class.smt2::parser", ptr %this, i64 0, i32 72
  br label %invoke.cont.preheader

invoke.cont.preheader:                            ; preds = %entry, %if.end43
  %num_errors.041 = phi i32 [ 0, %entry ], [ %inc, %if.end43 ]
  %0 = load i32, ptr %m_curr.i.i, align 8
  %cmp.i39 = icmp eq i32 %0, 2
  br i1 %cmp.i39, label %sw.epilog.i.i, label %while.end

sw.epilog.i.i:                                    ; preds = %invoke.cont.preheader, %_ZN4smt26parser4nextEv.exit
  %1 = load i32, ptr %m_num_open_paren.i.i, align 8
  %dec.i.i = add nsw i32 %1, -1
  store i32 %dec.i.i, ptr %m_num_open_paren.i.i, align 8
  %2 = load ptr, ptr %m_cache.i.i.i.i, align 8
  %cmp.i.i.i.i.i = icmp eq ptr %2, null
  br i1 %cmp.i.i.i.i.i, label %_ZN4smt26parser4scanEv.exit.i, label %if.end.i.i.i.i.i

if.end.i.i.i.i.i:                                 ; preds = %sw.epilog.i.i
  %arrayidx.i.i.i.i.i = getelementptr inbounds i32, ptr %2, i64 -1
