; ModuleID = 'bench/z3/original/spacer_global_generalizer.cpp.ll'
source_filename = "bench/z3/original/spacer_global_generalizer.cpp.ll"
target datalayout = "e-m:e-p270:32:32-p271:32:32-p272:64:64-i64:64-i128:128-f80:128-n8:16:32:64-S128"
target triple = "x86_64-unknown-linux-gnu"

%"class.std::ios_base::Init" = type { i8 }
%class.symbol = type { ptr }
%class.params_ref = type { ptr }
%class.rational = type { %class.mpq }
%class.mpq = type { %class.mpz, %class.mpz }
%class.mpz = type { i32, i8, ptr }
%class.scoped_ptr = type { ptr }
%"struct.spacer::lemma_global_generalizer::subsumer::stats" = type { i32, i32, i32, [4 x i8], %class.stopwatch }
%class.stopwatch = type <{ %"class.std::chrono::time_point", %"class.std::chrono::duration", i8, [7 x i8] }>
%"class.std::chrono::time_point" = type { %"class.std::chrono::duration" }
%"class.std::chrono::duration" = type { i64 }
%"class.spacer::lemma_global_generalizer::subsumer" = type { %"struct.spacer::lemma_global_generalizer::subsumer::stats", ptr, %class.arith_util, %class.bv_util, %class.ref_vector, i32, %class.ref_vector, %class.vector.0, i8, %class.ref }
%class.arith_util = type { ptr, ptr }
%class.bv_util = type { %class.bv_recognizers, ptr, ptr }
%class.bv_recognizers = type { i32 }
%class.ref_vector = type { %class.ref_vector_core }
%class.ref_vector_core = type { %class.ref_manager_wrapper, %class.ptr_vector }
%class.ref_manager_wrapper = type { ptr }
%class.ptr_vector = type { %class.vector }
%class.vector = type { ptr }
%class.vector.0 = type { ptr }
%class.ref = type { ptr }
%class.check_sat_result = type { ptr, ptr, %class.ref_vector.53, %class.obj_ref.96, i32, i32, %class.ref.46, double }
%class.ref_vector.53 = type { %class.ref_vector_core.54 }
%class.ref_vector_core.54 = type { %class.ref_manager_wrapper.55, %class.ptr_vector.56 }
%class.ref_manager_wrapper.55 = type { ptr }
%class.ptr_vector.56 = type { %class.vector.57 }
%class.vector.57 = type { ptr }
%class.obj_ref.96 = type { ptr, ptr }
%class.ref.46 = type { ptr }
%class.ast = type { i32, i24, i32, i32 }
%class.ast_manager = type { %class.reslimit, %class.small_object_allocator, %class.family_manager, %class.parray_manager, %class.dependency_manager, %class.parray_manager.13, %class.ptr_vector.16, i32, i8, %class.ast_table, %class.obj_map, %class.id_gen, %class.id_gen, ptr, ptr, ptr, ptr, ptr, i32, i8, [3 x i8], %class.u_map, ptr, i8, i8, ptr, %class.symbol, %class.obj_map.24, ptr }
%class.reslimit = type { %"struct.std::atomic", i8, i64, i64, %class.svector, %class.ptr_vector.2 }
%"struct.std::atomic" = type { %"struct.std::__atomic_base" }
%"struct.std::__atomic_base" = type { i32 }
%class.svector = type { %class.vector.1 }
%class.vector.1 = type { ptr }
%class.ptr_vector.2 = type { %class.vector.3 }
%class.vector.3 = type { ptr }
%class.small_object_allocator = type { [32 x ptr], [32 x ptr], i64 }
%class.family_manager = type { i32, %class.symbol_table, %class.svector.7 }
%class.symbol_table = type { %class.core_hashtable, %class.vector.4, %class.svector.5 }
%class.core_hashtable = type <{ ptr, i32, i32, i32, [4 x i8] }>
%class.vector.4 = type { ptr }
%class.svector.5 = type { %class.vector.6 }
%class.vector.6 = type { ptr }
%class.svector.7 = type { %class.vector.8 }
%class.vector.8 = type { ptr }
%class.parray_manager = type { ptr, ptr, %class.ptr_vector.9, %class.ptr_vector.9 }
%class.ptr_vector.9 = type { %class.vector.10 }
%class.vector.10 = type { ptr }
%class.dependency_manager = type { ptr, ptr, %class.ptr_vector.11 }
%class.ptr_vector.11 = type { %class.vector.12 }
%class.vector.12 = type { ptr }
%class.parray_manager.13 = type { ptr, ptr, %class.ptr_vector.14, %class.ptr_vector.14 }
%class.ptr_vector.14 = type { %class.vector.15 }
%class.vector.15 = type { ptr }
%class.ptr_vector.16 = type { %class.vector.17 }
%class.vector.17 = type { ptr }
%class.ast_table = type { %class.chashtable }
%class.chashtable = type { ptr, i32, i32, i32, i32, i32, i32, i32, ptr, ptr, ptr }
%class.obj_map = type { %class.core_hashtable.18 }
%class.core_hashtable.18 = type <{ ptr, i32, i32, i32, [4 x i8] }>
%class.id_gen = type { i32, %class.svector.20 }
%class.svector.20 = type { %class.vector.21 }
%class.vector.21 = type { ptr }
%class.u_map = type { %class.map }
%class.map = type { %class.table2map }
%class.table2map = type { %class.core_hashtable.22 }
%class.core_hashtable.22 = type <{ ptr, i32, i32, i32, [4 x i8] }>
%class.obj_map.24 = type { %class.core_hashtable.25 }
%class.core_hashtable.25 = type <{ ptr, i32, i32, i32, [4 x i8] }>
%"class.spacer::lemma_generalizer" = type { ptr, ptr }
%"class.spacer::lemma_global_generalizer" = type <{ %"class.spacer::lemma_generalizer", %"struct.spacer::lemma_global_generalizer::stats", ptr, %"class.spacer::lemma_global_generalizer::subsumer", i8, [7 x i8] }>
%"struct.spacer::lemma_global_generalizer::stats" = type { i32, i32, i32, i32, i32, i32, %class.stopwatch }
%"class.spacer::context" = type { %class.stopwatch, %class.stopwatch, %class.stopwatch, %class.stopwatch, %class.stopwatch, %class.stopwatch, ptr, ptr, ptr, %"class.spacer::manager", %class.scoped_ptr.39, %class.scoped_ptr.39, %class.scoped_ptr.39, %class.random_gen, i32, %class.obj_map.40, %class.obj_ref, ptr, %"class.spacer::pob_queue", i32, i32, i32, %class.ptr_buffer, ptr, ptr, ptr, %"struct.spacer::context::stats", %class.ref.46, %class.ref.47, i8, i8, i8, i8, i8, i8, i8, i8, i8, i8, i8, i8, i8, i8, i8, i8, i8, i8, i8, i8, i8, i8, i8, i8, i8, i8, i8, i8, i8, i8, i8, i8, i8, i8, i8, i32, i32, i32, i32, %class.scoped_ptr_vector, ptr }
%"class.spacer::manager" = type { ptr, %"class.spacer::sym_mux" }
%"class.spacer::sym_mux" = type { ptr, %class.obj_map.29, %class.obj_map.34 }
%class.obj_map.29 = type { %class.core_hashtable.30 }
%class.core_hashtable.30 = type <{ ptr, i32, i32, i32, [4 x i8] }>
%class.obj_map.34 = type { %class.core_hashtable.35 }
%class.core_hashtable.35 = type <{ ptr, i32, i32, i32, [4 x i8] }>
%class.scoped_ptr.39 = type { ptr }
%class.random_gen = type { i32 }
%class.obj_map.40 = type { %class.core_hashtable.41 }
%class.core_hashtable.41 = type <{ ptr, i32, i32, i32, [4 x i8] }>
%class.obj_ref = type { ptr, ptr }
%"class.spacer::pob_queue" = type { %class.ref.45, i32, i32, %"class.std::priority_queue" }
%class.ref.45 = type { ptr }
%"class.std::priority_queue" = type <{ %"class.std::vector", %"struct.spacer::pob_gt_proc", [7 x i8] }>
%"class.std::vector" = type { %"struct.std::_Vector_base" }
%"struct.std::_Vector_base" = type { %"struct.std::_Vector_base<spacer::pob *, std::allocator<spacer::pob *>>::_Vector_impl" }
%"struct.std::_Vector_base<spacer::pob *, std::allocator<spacer::pob *>>::_Vector_impl" = type { %"struct.std::_Vector_base<spacer::pob *, std::allocator<spacer::pob *>>::_Vector_impl_data" }
%"struct.std::_Vector_base<spacer::pob *, std::allocator<spacer::pob *>>::_Vector_impl_data" = type { ptr, ptr, ptr }
%"struct.spacer::pob_gt_proc" = type { i8 }
%class.ptr_buffer = type { %class.buffer }
%class.buffer = type { ptr, i32, i32, [16 x %"union.std::aligned_storage<8, 8>::type"] }
%"union.std::aligned_storage<8, 8>::type" = type { [8 x i8] }
%"struct.spacer::context::stats" = type { i32, i32, i32, i32, i32, i32, i32, i32, i32, i32, i32, i32, i32, i32, i32, i32, i32, i32, i32 }
%class.ref.47 = type { ptr }
%class.scoped_ptr_vector = type { %class.ptr_vector.48 }
%class.ptr_vector.48 = type { %class.vector.49 }
%class.vector.49 = type { ptr }
%struct.scoped_watch = type { ptr }
%"class.spacer::lemma_cluster" = type <{ ptr, %class.arith_util, %class.bv_util, i32, [4 x i8], %class.obj_ref.51, i32, [4 x i8], %class.vector.52, %"class.spacer::sem_matcher", i32, [4 x i8] }>
%class.obj_ref.51 = type { ptr, ptr }
%class.vector.52 = type { ptr }
%"class.spacer::sem_matcher" = type { ptr, %class.arith_util, %class.ref_vector.53, ptr, %class.svector.58 }
%class.svector.58 = type { %class.vector.59 }
%class.vector.59 = type { ptr }
%class.scoped_ptr.114 = type { ptr }
%"class.spacer::lemma" = type <{ i32, [4 x i8], ptr, %class.obj_ref.51, %class.ref_vector.53, %class.ref_vector, %class.ref_vector, %class.ref.45, %class.ref.95, i32, i32, [5 x i8], [3 x i8] }>
%class.ref.95 = type { ptr }
%"class.spacer::pob" = type { i32, %class.ref.45, ptr, %class.obj_ref.51, %class.ref_vector, %class.obj_ref.51, i56, i32, %class.scoped_ptr.109, %class.ptr_vector.110, %class.ptr_vector.112, i32, %class.obj_ref.51, i32, %class.scoped_ptr.114 }
%class.scoped_ptr.109 = type { ptr }
%class.ptr_vector.110 = type { %class.vector.111 }
%class.vector.111 = type { ptr }
%class.ptr_vector.112 = type { %class.vector.113 }
%class.vector.113 = type { ptr }
%"class.spacer::lemma_cluster::lemma_info" = type { %class.ref.50, %class.substitution }
%class.ref.50 = type { ptr }
%class.substitution = type <{ ptr, %class.var_offset_map, %class.svector.62, %class.ref_vector.53, %class.svector.20, %class.svector.64, %class.expr_offset_map, %class.ref_vector.53, %class.expr_offset_map.67, i32, [4 x i8] }>
%class.var_offset_map = type <{ %class.svector.60, i32, i32, i32, [4 x i8] }>
%class.svector.60 = type { %class.vector.61 }
%class.vector.61 = type { ptr }
%class.svector.62 = type { %class.vector.63 }
%class.vector.63 = type { ptr }
%class.svector.64 = type { %class.vector.65 }
%class.vector.65 = type { ptr }
%class.expr_offset_map = type <{ %class.vector.66, i32, [4 x i8] }>
%class.vector.66 = type { ptr }
%class.expr_offset_map.67 = type <{ %class.vector.68, i32, [4 x i8] }>
%class.vector.68 = type { ptr }
%"struct.std::pair" = type { i32, i32 }
%"struct.var_offset_map<expr_offset>::data" = type { %class.expr_offset, i32, [4 x i8] }
%class.expr_offset = type <{ ptr, i32, [4 x i8] }>
%"class.spacer::convex_closure" = type { %"struct.spacer::convex_closure::stats", ptr, %class.arith_util, %class.bv_util, i32, i8, i32, %"class.spacer::spacer_matrix", %class.ref_vector.53, %class.vector.71, %"class.spacer::spacer_arith_kernel", %class.ref_vector.53, %class.ref_vector.53, %class.ref_vector.53 }
%"struct.spacer::convex_closure::stats" = type { i32, i32, %class.stopwatch }
%"class.spacer::spacer_matrix" = type { i32, i32, %class.vector.70 }
%class.vector.70 = type { ptr }
%class.vector.71 = type { ptr }
%"class.spacer::spacer_arith_kernel" = type { ptr, %"struct.spacer::spacer_arith_kernel::stats", ptr, %"class.spacer::spacer_matrix", %class.vector.72, %class.scoped_ptr.73 }
%"struct.spacer::spacer_arith_kernel::stats" = type { i32 }
%class.vector.72 = type { ptr }
%class.scoped_ptr.73 = type { ptr }
%class.decl = type { %class.ast, %class.symbol, ptr }
%class.decl_info = type <{ i32, i32, %class.vector.162, i8, [7 x i8] }>
%class.vector.162 = type { ptr }
%class.app = type { %class.expr, ptr, i32, [0 x ptr] }
%class.expr = type { %class.ast }
%class.model_core = type { ptr, ptr, i32, [4 x i8], %class.obj_map.74, %class.obj_map.79, %class.ptr_vector.84, %class.ptr_vector.84, %class.ptr_vector.84 }
%class.obj_map.74 = type { %class.core_hashtable.75 }
%class.core_hashtable.75 = type <{ ptr, i32, i32, i32, [4 x i8] }>
%class.obj_map.79 = type { %class.core_hashtable.80 }
%class.core_hashtable.80 = type <{ ptr, i32, i32, i32, [4 x i8] }>
%class.ptr_vector.84 = type { %class.vector.85 }
%class.vector.85 = type { ptr }
%"class.obj_map<func_decl, std::pair<unsigned int, expr *>>::obj_map_entry" = type { %"struct.obj_map<func_decl, std::pair<unsigned int, expr *>>::key_data" }
%"struct.obj_map<func_decl, std::pair<unsigned int, expr *>>::key_data" = type { ptr, %"struct.std::pair.163" }
%"struct.std::pair.163" = type { i32, ptr }
%class.expr_safe_replace = type { ptr, %class.ref_vector.53, %class.ref_vector.53, %class.svector.20, %class.ptr_vector.56, %class.ptr_vector.56, %class.ref_vector.53, %"class.std::unordered_map" }
%"class.std::unordered_map" = type { %"class.std::_Hashtable" }
%"class.std::_Hashtable" = type { ptr, i64, %"struct.std::__detail::_Hash_node_base", i64, %"struct.std::__detail::_Prime_rehash_policy", ptr }
%"struct.std::__detail::_Hash_node_base" = type { ptr }
%"struct.std::__detail::_Prime_rehash_policy" = type { float, i64 }
%class.ast_fast_mark = type { %class.ptr_buffer.102 }
%class.ptr_buffer.102 = type { %class.buffer.103 }
%class.buffer.103 = type { ptr, i32, i32, [16 x %"union.std::aligned_storage<8, 8>::type"] }
%"class.solver::scoped_push" = type <{ ptr, i8, [7 x i8] }>
%"class.(anonymous namespace)::to_real_stripper" = type { ptr, %class.arith_util }
%class.var_subst = type { %class.beta_reducer, i8, [7 x i8] }
%class.beta_reducer = type <{ %class.rewriter_tpl, %struct.beta_reducer_cfg, [7 x i8] }>
%class.rewriter_tpl = type { %class.rewriter_core, ptr, i32, %class.ptr_vector.56, %class.var_shifter, %class.inv_var_shifter, %class.obj_ref.51, %class.obj_ref.96, %class.obj_ref.96, %class.svector.20 }
%class.rewriter_core = type { ptr, ptr, i8, i8, %class.ptr_vector.149, ptr, %class.svector.151, %class.ref_vector.53, %class.ptr_vector.149, ptr, %class.ref_vector, %class.obj_hashtable, ptr, i32, %class.svector.156 }
%class.svector.151 = type { %class.vector.152 }
%class.vector.152 = type { ptr }
%class.ptr_vector.149 = type { %class.vector.150 }
%class.vector.150 = type { ptr }
%class.obj_hashtable = type { %class.core_hashtable.base.155, [4 x i8] }
%class.core_hashtable.base.155 = type <{ ptr, i32, i32, i32 }>
%class.svector.156 = type { %class.vector.157 }
%class.vector.157 = type { ptr }
%class.var_shifter = type <{ %class.var_shifter_core, i32, i32, i32, [4 x i8] }>
%class.var_shifter_core = type { %class.rewriter_core }
%class.inv_var_shifter = type <{ %class.var_shifter_core, i32, [4 x i8] }>
%struct.beta_reducer_cfg = type { i8 }
%"class.std::__cxx11::basic_string" = type { %"struct.std::__cxx11::basic_string<char>::_Alloc_hider", i64, %union.anon }
%"struct.std::__cxx11::basic_string<char>::_Alloc_hider" = type { ptr }
%union.anon = type { i64, [8 x i8] }
%"class.std::allocator.104" = type { i8 }
%class.ref_buffer = type { %class.ref_buffer_core }
%class.ref_buffer_core = type { %class.ref_manager_wrapper.55, %class.ptr_buffer.107 }
%class.ptr_buffer.107 = type { %class.buffer.108 }
%class.buffer.108 = type { ptr, i32, i32, [16 x %"union.std::aligned_storage<8, 8>::type"] }
%"class.spacer::pred_transformer" = type { ptr, ptr, ptr, %class.obj_ref, %class.ref_vector.115, %class.ptr_vector.118, %"class.spacer::pred_transformer::pt_rules", %class.ptr_vector.130, %class.scoped_ptr.132, %class.ref, %"class.spacer::pred_transformer::pob_manager", %"class.spacer::pred_transformer::frames", %class.ref_vector_core.141, i32, %class.ref_vector.53, %class.obj_ref.51, %class.obj_ref.51, %class.obj_ref.96, %class.obj_ref.96, i8, %class.ptr_vector.84, %"struct.spacer::pred_transformer::stats", %class.stopwatch, %class.stopwatch, %class.stopwatch, %class.stopwatch, i8, [7 x i8], %"class.spacer::pred_transformer::cluster_db" }
%class.ref_vector.115 = type { %class.ref_vector_core.116 }
%class.ref_vector_core.116 = type { %class.ref_manager_wrapper.117, %class.ptr_vector.84 }
%class.ref_manager_wrapper.117 = type { ptr }
%class.ptr_vector.118 = type { %class.vector.119 }
%class.vector.119 = type { ptr }
%"class.spacer::pred_transformer::pt_rules" = type { %class.obj_map.120, %class.obj_map.125 }
%class.obj_map.120 = type { %class.core_hashtable.121 }
%class.core_hashtable.121 = type <{ ptr, i32, i32, i32, [4 x i8] }>
%class.obj_map.125 = type { %class.core_hashtable.126 }
%class.core_hashtable.126 = type <{ ptr, i32, i32, i32, [4 x i8] }>
%class.ptr_vector.130 = type { %class.vector.131 }
%class.vector.131 = type { ptr }
%class.scoped_ptr.132 = type { ptr }
%"class.spacer::pred_transformer::pob_manager" = type { ptr, %class.obj_map.133, %class.ref_vector_core.138 }
%class.obj_map.133 = type { %class.core_hashtable.134 }
%class.core_hashtable.134 = type <{ ptr, i32, i32, i32, [4 x i8] }>
%class.ref_vector_core.138 = type { %class.ptr_vector.110 }
%"class.spacer::pred_transformer::frames" = type <{ ptr, %class.ref_vector_core.139, %class.ref_vector_core.139, %class.ref_vector_core.139, i32, i8, %"struct.spacer::lemma_lt_proc", [2 x i8] }>
%class.ref_vector_core.139 = type { %class.ptr_vector.112 }
%"struct.spacer::lemma_lt_proc" = type { i8 }
%class.ref_vector_core.141 = type { %class.ptr_vector.143 }
%class.ptr_vector.143 = type { %class.vector.144 }
%class.vector.144 = type { ptr }
%"struct.spacer::pred_transformer::stats" = type { i32, i32, i32, i32, i32, i32 }
%"class.spacer::pred_transformer::cluster_db" = type <{ %class.ref_vector_core.145, i32, [4 x i8] }>
%class.ref_vector_core.145 = type { %class.ptr_vector.147 }
%class.ptr_vector.147 = type { %class.vector.148 }
%class.vector.148 = type { ptr }
%"class.spacer::pob_concretizer" = type { ptr, %class.arith_util, ptr, ptr, %class.ast_fast_mark }
%"class.spacer::derivation" = type { ptr, ptr, %class.vector.171, i32, %class.obj_ref.51, %class.ref_vector }
%class.vector.171 = type { ptr }
%"class.spacer::derivation::premise" = type { ptr, i32, %class.obj_ref.51, i8, %class.ref_vector }
%class.svector.172 = type { %class.vector.173 }
%class.vector.173 = type { ptr }
%class.svector.174 = type { %class.vector.175 }
%class.vector.175 = type { ptr }
%struct._Guard = type { ptr }
%class.default_exception = type { %class.z3_exception, %"class.std::__cxx11::basic_string" }
%class.z3_exception = type { ptr }

$_ZN10scoped_ptrI14solver_factoryED2Ev = comdat any

$_ZN3refI6solverED2Ev = comdat any

$_ZN6vectorI8rationalLb1EjED2Ev = comdat any

$_ZN10ref_vectorI3app11ast_managerED2Ev = comdat any

$_ZN6spacer24lemma_global_generalizer8subsumerD2Ev = comdat any

$_ZN12scoped_watchD2Ev = comdat any

$_ZN6vectorI8rationalLb1EjE7reserveEjRKS0_ = comdat any

$_ZN8rationalD2Ev = comdat any

$_ZN6spacer24lemma_global_generalizer8subsumer10mk_rat_mulE8rationalP4expr = comdat any

$_ZmlRK8rationalS1_ = comdat any

$_ZN7obj_refI4expr11ast_managerEaSEPS0_ = comdat any

$_ZN13ast_fast_markILj2EED2Ev = comdat any

$_ZN10ref_vectorI4expr11ast_managerED2Ev = comdat any

$_ZN17expr_safe_replaceD2Ev = comdat any

$_ZN7obj_refI4expr11ast_managerED2Ev = comdat any

$_ZN7obj_refI3app11ast_managerED2Ev = comdat any

$_ZN10arith_util7mk_realEi = comdat any

$_ZN6solver11scoped_pushD2Ev = comdat any

$_Z6mk_andRK10ref_vectorI4expr11ast_managerE = comdat any

$_ZN3refI5modelED2Ev = comdat any

$_ZN6spacer14convex_closureD2Ev = comdat any

$_ZNSt7__cxx1112basic_stringIcSt11char_traitsIcESaIcEEC2IS3_EEPKcRKS3_ = comdat any

$_ZN10ref_bufferI4expr11ast_managerLj16EED2Ev = comdat any

$_ZN6spacer3pob8set_dataEPS0_ = comdat any

$_ZN10scoped_ptrIN6spacer3pobEED2Ev = comdat any

$_ZN6spacer16pred_transformer11clstr_matchERK3refINS_5lemmaEE = comdat any

$_ZN6spacer13lemma_clusterD2Ev = comdat any

$_ZN6spacer15pob_concretizer5applyEP4exprR10ref_vectorIS1_11ast_managerE = comdat any

$_ZN6spacer15pob_concretizerD2Ev = comdat any

$_ZN6spacer24lemma_global_generalizerD2Ev = comdat any

$_ZN6spacer24lemma_global_generalizerD0Ev = comdat any

$_ZN6spacer24lemma_global_generalizer16reset_statisticsEv = comdat any

$__clang_call_terminate = comdat any

$_ZN15ref_vector_coreI3app19ref_manager_wrapperIS0_11ast_managerEED2Ev = comdat any

$_ZN10arith_util6mk_intERK8rational = comdat any

$_ZN6spacer19spacer_arith_kernelD2Ev = comdat any

$_ZN6spacer19spacer_arith_kernelD0Ev = comdat any

$_ZNK6spacer19spacer_arith_kernel18collect_statisticsER10statistics = comdat any

$_ZN6spacer19spacer_arith_kernel16reset_statisticsEv = comdat any

$_ZN6vectorIS_I8rationalLb1EjELb1EjE16destroy_elementsEv = comdat any

$_ZN6spacer3pobD2Ev = comdat any

$_ZN6vectorIPN6spacer3pobELb0EjE5eraseERKS2_ = comdat any

$_ZN6spacer10derivationD2Ev = comdat any

$_ZN6spacer10derivation7premiseD2Ev = comdat any

$_ZN6spacer11sem_matcherD2Ev = comdat any

$_ZN6vectorIN6spacer13lemma_cluster10lemma_infoELb1EjED2Ev = comdat any

$_ZN12substitutionD2Ev = comdat any

$_ZN6spacer5lemmaD2Ev = comdat any

$_ZN12beta_reducerD2Ev = comdat any

$_ZN12beta_reducerD0Ev = comdat any

$_ZN12rewriter_tplI16beta_reducer_cfgED2Ev = comdat any

$_ZN12rewriter_tplI16beta_reducer_cfgED0Ev = comdat any

$_ZNSt7__cxx1112basic_stringIcSt11char_traitsIcESaIcEE12_M_constructIPKcEEvT_S8_St20forward_iterator_tag = comdat any

$_ZZNSt7__cxx1112basic_stringIcSt11char_traitsIcESaIcEE12_M_constructIPKcEEvT_S8_St20forward_iterator_tagEN6_GuardD2Ev = comdat any

$_ZN6vectorIP4exprLb0EjE13expand_vectorEv = comdat any

$_ZN17default_exceptionD2Ev = comdat any

$_ZN6vectorIP3appLb0EjE13expand_vectorEv = comdat any

$_ZN6vectorI8rationalLb1EjE6resizeIS0_EEvjT_z = comdat any

$_ZN6vectorI8rationalLb1EjE13expand_vectorEv = comdat any

$_ZN6vectorI8rationalLb1EjE6resizeEj = comdat any

$_ZTSN6spacer17lemma_generalizerE = comdat any

$_ZTIN6spacer17lemma_generalizerE = comdat any

$_ZTVN6spacer19spacer_arith_kernelE = comdat any

$_ZTSN6spacer19spacer_arith_kernelE = comdat any

$_ZTIN6spacer19spacer_arith_kernelE = comdat any

$_ZTV12beta_reducer = comdat any

$_ZTS12beta_reducer = comdat any

$_ZTS12rewriter_tplI16beta_reducer_cfgE = comdat any

$_ZTI12rewriter_tplI16beta_reducer_cfgE = comdat any

$_ZTI12beta_reducer = comdat any

$_ZTV12rewriter_tplI16beta_reducer_cfgE = comdat any

@_ZStL8__ioinit = internal global %"class.std::ios_base::Init" zeroinitializer, align 1
@__dso_handle = external hidden global i8
@_ZN6symbol4nullE = external global %class.symbol, align 8
@.str = private unnamed_addr constant [2 x i8] c"t\00", align 1
@_ZTVN6spacer24lemma_global_generalizerE = hidden unnamed_addr constant { [7 x ptr] } { [7 x ptr] [ptr null, ptr @_ZTIN6spacer24lemma_global_generalizerE, ptr @_ZN6spacer24lemma_global_generalizerD2Ev, ptr @_ZN6spacer24lemma_global_generalizerD0Ev, ptr @_ZN6spacer24lemma_global_generalizerclER3refINS_5lemmaEE, ptr @_ZNK6spacer24lemma_global_generalizer18collect_statisticsER10statistics, ptr @_ZN6spacer24lemma_global_generalizer16reset_statisticsEv] }, align 8
@.str.1 = private unnamed_addr constant [10 x i8] c"mrg_cvx!!\00", align 1
@.str.2 = private unnamed_addr constant [128 x i8] c"generated/home/dtcxzyw/WorkSpace/Projects/compilers/llvm-opt-benchmark/bench/z3/z3/src/muz/spacer/spacer_global_generalizer.cpp\00", align 1
@.str.3 = private unnamed_addr constant [49 x i8] c"Failed to verify: is_numeral(r.get_expr(), num)\0A\00", align 1
@.str.4 = private unnamed_addr constant [29 x i8] c"UNEXPECTED CODE WAS REACHED.\00", align 1
@.str.5 = private unnamed_addr constant [2 x i8] c"o\00", align 1
@.str.6 = private unnamed_addr constant [31 x i8] c"SPACER num no over approximate\00", align 1
@.str.7 = private unnamed_addr constant [24 x i8] c"SPACER num sync cvx cls\00", align 1
@.str.8 = private unnamed_addr constant [22 x i8] c"SPACER num mbp failed\00", align 1
@.str.9 = private unnamed_addr constant [35 x i8] c"time.spacer.solve.reach.gen.global\00", align 1
@.str.10 = private unnamed_addr constant [26 x i8] c"SPACER cluster out of gas\00", align 1
@.str.11 = private unnamed_addr constant [19 x i8] c"SPACER num non lin\00", align 1
@.str.12 = private unnamed_addr constant [25 x i8] c"SPACER num cant abstract\00", align 1
@_ZTVN10__cxxabiv120__si_class_type_infoE = external global [0 x ptr]
@_ZTSN6spacer24lemma_global_generalizerE = hidden constant [36 x i8] c"N6spacer24lemma_global_generalizerE\00", align 1
@_ZTVN10__cxxabiv117__class_type_infoE = external global [0 x ptr]
@_ZTSN6spacer17lemma_generalizerE = linkonce_odr hidden constant [29 x i8] c"N6spacer17lemma_generalizerE\00", comdat, align 1
@_ZTIN6spacer17lemma_generalizerE = linkonce_odr hidden constant { ptr, ptr } { ptr getelementptr inbounds (ptr, ptr @_ZTVN10__cxxabiv117__class_type_infoE, i64 2), ptr @_ZTSN6spacer17lemma_generalizerE }, comdat, align 8
@_ZTIN6spacer24lemma_global_generalizerE = hidden constant { ptr, ptr, ptr } { ptr getelementptr inbounds (ptr, ptr @_ZTVN10__cxxabiv120__si_class_type_infoE, i64 2), ptr @_ZTSN6spacer24lemma_global_generalizerE, ptr @_ZTIN6spacer17lemma_generalizerE }, align 8
@_ZN10params_ref18g_empty_params_refE = external global %class.params_ref, align 8
@.str.13 = private unnamed_addr constant [119 x i8] c"generated/home/dtcxzyw/WorkSpace/Projects/compilers/llvm-opt-benchmark/bench/z3/z3/src/ast/substitution/substitution.h\00", align 1
@.str.14 = private unnamed_addr constant [58 x i8] c"Failed to verify: m_subst.find(var.first, var.second, r)\0A\00", align 1
@_ZN8rational5m_oneE = external global %class.rational, align 8
@_ZN8rational13g_mpq_managerE = external local_unnamed_addr global ptr, align 8
@_ZTVN6spacer19spacer_arith_kernelE = linkonce_odr hidden unnamed_addr constant { [6 x ptr] } { [6 x ptr] [ptr null, ptr @_ZTIN6spacer19spacer_arith_kernelE, ptr @_ZN6spacer19spacer_arith_kernelD2Ev, ptr @_ZN6spacer19spacer_arith_kernelD0Ev, ptr @_ZNK6spacer19spacer_arith_kernel18collect_statisticsER10statistics, ptr @_ZN6spacer19spacer_arith_kernel16reset_statisticsEv] }, comdat, align 8
@_ZTSN6spacer19spacer_arith_kernelE = linkonce_odr hidden constant [31 x i8] c"N6spacer19spacer_arith_kernelE\00", comdat, align 1
@_ZTIN6spacer19spacer_arith_kernelE = linkonce_odr hidden constant { ptr, ptr } { ptr getelementptr inbounds (ptr, ptr @_ZTVN10__cxxabiv117__class_type_infoE, i64 2), ptr @_ZTSN6spacer19spacer_arith_kernelE }, comdat, align 8
@.str.15 = private unnamed_addr constant [27 x i8] c"SPACER arith kernel failed\00", align 1
@_ZTV12beta_reducer = linkonce_odr hidden unnamed_addr constant { [4 x ptr] } { [4 x ptr] [ptr null, ptr @_ZTI12beta_reducer, ptr @_ZN12beta_reducerD2Ev, ptr @_ZN12beta_reducerD0Ev] }, comdat, align 8
@_ZTS12beta_reducer = linkonce_odr hidden constant [15 x i8] c"12beta_reducer\00", comdat, align 1
@_ZTS12rewriter_tplI16beta_reducer_cfgE = linkonce_odr hidden constant [35 x i8] c"12rewriter_tplI16beta_reducer_cfgE\00", comdat, align 1
@_ZTI13rewriter_core = external constant ptr
@_ZTI12rewriter_tplI16beta_reducer_cfgE = linkonce_odr hidden constant { ptr, ptr, ptr } { ptr getelementptr inbounds (ptr, ptr @_ZTVN10__cxxabiv120__si_class_type_infoE, i64 2), ptr @_ZTS12rewriter_tplI16beta_reducer_cfgE, ptr @_ZTI13rewriter_core }, comdat, align 8
@_ZTI12beta_reducer = linkonce_odr hidden constant { ptr, ptr, ptr } { ptr getelementptr inbounds (ptr, ptr @_ZTVN10__cxxabiv120__si_class_type_infoE, i64 2), ptr @_ZTS12beta_reducer, ptr @_ZTI12rewriter_tplI16beta_reducer_cfgE }, comdat, align 8
@_ZTV12rewriter_tplI16beta_reducer_cfgE = linkonce_odr hidden unnamed_addr constant { [4 x ptr] } { [4 x ptr] [ptr null, ptr @_ZTI12rewriter_tplI16beta_reducer_cfgE, ptr @_ZN12rewriter_tplI16beta_reducer_cfgED2Ev, ptr @_ZN12rewriter_tplI16beta_reducer_cfgED0Ev] }, comdat, align 8
@.str.16 = private unnamed_addr constant [50 x i8] c"basic_string: construction from null is not valid\00", align 1
@.str.17 = private unnamed_addr constant [43 x i8] c"Overflow encountered when expanding vector\00", align 1
@_ZTI17default_exception = external constant ptr
@_ZTV17default_exception = external unnamed_addr constant { [6 x ptr] }, align 8
@llvm.global_ctors = appending global [1 x { i32, ptr, ptr }] [{ i32, ptr, ptr } { i32 65535, ptr @_GLOBAL__sub_I_spacer_global_generalizer.cpp, ptr null }]

@_ZN6spacer24lemma_global_generalizer8subsumerC1ER11ast_managerb = hidden unnamed_addr alias void (ptr, ptr, i1), ptr @_ZN6spacer24lemma_global_generalizer8subsumerC2ER11ast_managerb
@_ZN6spacer24lemma_global_generalizerC1ERNS_7contextE = hidden unnamed_addr alias void (ptr, ptr), ptr @_ZN6spacer24lemma_global_generalizerC2ERNS_7contextE

declare void @_ZNSt8ios_base4InitC1Ev(ptr noundef nonnull align 1 dereferenceable(1)) unnamed_addr #0

; Function Attrs: nounwind
declare void @_ZNSt8ios_base4InitD1Ev(ptr noundef nonnull align 1 dereferenceable(1)) unnamed_addr #1

; Function Attrs: nofree nounwind
declare i32 @__cxa_atexit(ptr, ptr, ptr) local_unnamed_addr #2

; Function Attrs: mustprogress uwtable
define hidden void @_ZN6spacer24lemma_global_generalizer8subsumerC2ER11ast_managerb(ptr noundef nonnull align 8 dereferenceable(152) %this, ptr noundef nonnull align 8 dereferenceable(976) %a_m, i1 noundef zeroext %ground_pob) unnamed_addr #3 align 2 personality ptr @__gxx_personality_v0 {
invoke.cont:
  %factory = alloca %class.scoped_ptr, align 8
  %watch.i = getelementptr inbounds %"struct.spacer::lemma_global_generalizer::subsumer::stats", ptr %this, i64 0, i32 4
  store i32 0, ptr %this, align 8
  %m_num_mbp_failed.i.i = getelementptr inbounds %"struct.spacer::lemma_global_generalizer::subsumer::stats", ptr %this, i64 0, i32 1
  store i32 0, ptr %m_num_mbp_failed.i.i, align 4
  %m_num_no_ovr_approx.i.i = getelementptr inbounds %"struct.spacer::lemma_global_generalizer::subsumer::stats", ptr %this, i64 0, i32 2
  store i32 0, ptr %m_num_no_ovr_approx.i.i, align 8
  tail call void @llvm.memset.p0.i64(ptr noundef nonnull align 8 dereferenceable(17) %watch.i, i8 0, i64 17, i1 false)
  %m = getelementptr inbounds %"class.spacer::lemma_global_generalizer::subsumer", ptr %this, i64 0, i32 1
  store ptr %a_m, ptr %m, align 8
  %m_arith = getelementptr inbounds %"class.spacer::lemma_global_generalizer::subsumer", ptr %this, i64 0, i32 2
  tail call void @_ZN10arith_utilC1ER11ast_manager(ptr noundef nonnull align 8 dereferenceable(16) %m_arith, ptr noundef nonnull align 8 dereferenceable(976) %a_m)
  %m_bv = getelementptr inbounds %"class.spacer::lemma_global_generalizer::subsumer", ptr %this, i64 0, i32 3
  %0 = load ptr, ptr %m, align 8
  tail call void @_ZN7bv_utilC1ER11ast_manager(ptr noundef nonnull align 8 dereferenceable(24) %m_bv, ptr noundef nonnull align 8 dereferenceable(976) %0)
  %m_tags = getelementptr inbounds %"class.spacer::lemma_global_generalizer::subsumer", ptr %this, i64 0, i32 4
  %1 = load ptr, ptr %m, align 8
  %2 = ptrtoint ptr %1 to i64
  store i64 %2, ptr %m_tags, align 8
  %m_nodes.i.i = getelementptr inbounds %"class.spacer::lemma_global_generalizer::subsumer", ptr %this, i64 0, i32 4, i32 0, i32 1
  store ptr null, ptr %m_nodes.i.i, align 8
  %m_used_tags = getelementptr inbounds %"class.spacer::lemma_global_generalizer::subsumer", ptr %this, i64 0, i32 5
  store i32 0, ptr %m_used_tags, align 8
  %m_col_names = getelementptr inbounds %"class.spacer::lemma_global_generalizer::subsumer", ptr %this, i64 0, i32 6
  store i64 %2, ptr %m_col_names, align 8
  %m_nodes.i.i3 = getelementptr inbounds %"class.spacer::lemma_global_generalizer::subsumer", ptr %this, i64 0, i32 6, i32 0, i32 1
  %frombool = zext i1 %ground_pob to i8
  %m_ground_pob = getelementptr inbounds %"class.spacer::lemma_global_generalizer::subsumer", ptr %this, i64 0, i32 8
  tail call void @llvm.memset.p0.i64(ptr noundef nonnull align 8 dereferenceable(16) %m_nodes.i.i3, i8 0, i64 16, i1 false)
  store i8 %frombool, ptr %m_ground_pob, align 8
  %m_solver = getelementptr inbounds %"class.spacer::lemma_global_generalizer::subsumer", ptr %this, i64 0, i32 9
  store ptr null, ptr %m_solver, align 8
  %call = invoke noundef ptr @_Z31mk_smt_strategic_solver_factoryRK6symbol(ptr noundef nonnull align 8 dereferenceable(8) @_ZN6symbol4nullE)
          to label %invoke.cont10 unwind label %lpad9

invoke.cont10:                                    ; preds = %invoke.cont
  store ptr %call, ptr %factory, align 8
  %3 = load ptr, ptr %m, align 8
  %vtable = load ptr, ptr %call, align 8
  %vfn = getelementptr inbounds ptr, ptr %vtable, i64 2
  %4 = load ptr, ptr %vfn, align 8
  %call19 = invoke noundef ptr %4(ptr noundef nonnull align 8 dereferenceable(8) %call, ptr noundef nonnull align 8 dereferenceable(976) %3, ptr noundef nonnull align 8 dereferenceable(8) @_ZN10params_ref18g_empty_params_refE, i1 noundef zeroext false, i1 noundef zeroext true, i1 noundef zeroext false, ptr noundef nonnull align 8 dereferenceable(8) @_ZN6symbol4nullE)
          to label %invoke.cont18 unwind label %lpad12

invoke.cont18:                                    ; preds = %invoke.cont10
  %tobool.not.i = icmp eq ptr %call19, null
  br i1 %tobool.not.i, label %if.end.i, label %if.then.i

if.then.i:                                        ; preds = %invoke.cont18
  %m_ref_count.i.i = getelementptr inbounds %class.check_sat_result, ptr %call19, i64 0, i32 4
  %5 = load i32, ptr %m_ref_count.i.i, align 8
  %inc.i.i = add i32 %5, 1
  store i32 %inc.i.i, ptr %m_ref_count.i.i, align 8
  br label %if.end.i

if.end.i:                                         ; preds = %if.then.i, %invoke.cont18
  %6 = load ptr, ptr %m_solver, align 8
  %tobool.not.i.i = icmp eq ptr %6, null
  br i1 %tobool.not.i.i, label %if.end.i.i, label %if.then.i.i

if.then.i.i:                                      ; preds = %if.end.i
  %m_ref_count.i.i.i = getelementptr inbounds %class.check_sat_result, ptr %6, i64 0, i32 4
  %7 = load i32, ptr %m_ref_count.i.i.i, align 8
  %dec.i.i.i = add i32 %7, -1
  store i32 %dec.i.i.i, ptr %m_ref_count.i.i.i, align 8
  %cmp.i.i.i = icmp eq i32 %dec.i.i.i, 0
  br i1 %cmp.i.i.i, label %if.then.i.i.i, label %if.end.i.i

if.then.i.i.i:                                    ; preds = %if.then.i.i
  %vtable.i.i.i.i = load ptr, ptr %6, align 8
  %8 = load ptr, ptr %vtable.i.i.i.i, align 8
  tail call void %8(ptr noundef nonnull align 8 dereferenceable(72) %6) #17
  invoke void @_ZN6memory10deallocateEPv(ptr noundef nonnull %6)
          to label %if.end.i.i unwind label %lpad12

if.end.i.i:                                       ; preds = %if.then.i.i.i, %if.end.i, %if.then.i.i
  store ptr %call19, ptr %m_solver, align 8
  %vtable.i.i = load ptr, ptr %call, align 8
  %9 = load ptr, ptr %vtable.i.i, align 8
  tail call void %9(ptr noundef nonnull align 8 dereferenceable(8) %call) #17
  invoke void @_ZN6memory10deallocateEPv(ptr noundef nonnull %call)
          to label %_ZN10scoped_ptrI14solver_factoryED2Ev.exit unwind label %terminate.lpad.i

terminate.lpad.i:                                 ; preds = %if.end.i.i
  %10 = landingpad { ptr, i32 }
          catch ptr null
  %11 = extractvalue { ptr, i32 } %10, 0
  tail call void @__clang_call_terminate(ptr %11) #18
  unreachable

_ZN10scoped_ptrI14solver_factoryED2Ev.exit:       ; preds = %if.end.i.i
  ret void

lpad9:                                            ; preds = %invoke.cont
  %12 = landingpad { ptr, i32 }
          cleanup
  br label %ehcleanup

lpad12:                                           ; preds = %if.then.i.i.i, %invoke.cont10
  %13 = landingpad { ptr, i32 }
          cleanup
  call void @_ZN10scoped_ptrI14solver_factoryED2Ev(ptr noundef nonnull align 8 dereferenceable(8) %factory) #17
  br label %ehcleanup

ehcleanup:                                        ; preds = %lpad12, %lpad9
  %.pn = phi { ptr, i32 } [ %13, %lpad12 ], [ %12, %lpad9 ]
  %m_col_lcm = getelementptr inbounds %"class.spacer::lemma_global_generalizer::subsumer", ptr %this, i64 0, i32 7
  call void @_ZN3refI6solverED2Ev(ptr noundef nonnull align 8 dereferenceable(8) %m_solver) #17
  call void @_ZN6vectorI8rationalLb1EjED2Ev(ptr noundef nonnull align 8 dereferenceable(8) %m_col_lcm) #17
  call void @_ZN10ref_vectorI3app11ast_managerED2Ev(ptr noundef nonnull align 8 dereferenceable(16) %m_col_names) #17
  call void @_ZN10ref_vectorI3app11ast_managerED2Ev(ptr noundef nonnull align 8 dereferenceable(16) %m_tags) #17
  resume { ptr, i32 } %.pn
}

declare void @_ZN10arith_utilC1ER11ast_manager(ptr noundef nonnull align 8 dereferenceable(16), ptr noundef nonnull align 8 dereferenceable(976)) unnamed_addr #0

declare void @_ZN7bv_utilC1ER11ast_manager(ptr noundef nonnull align 8 dereferenceable(24), ptr noundef nonnull align 8 dereferenceable(976)) unnamed_addr #0

declare i32 @__gxx_personality_v0(...)

declare noundef ptr @_Z31mk_smt_strategic_solver_factoryRK6symbol(ptr noundef nonnull align 8 dereferenceable(8)) local_unnamed_addr #0

; Function Attrs: mustprogress nounwind uwtable
define linkonce_odr hidden void @_ZN10scoped_ptrI14solver_factoryED2Ev(ptr noundef nonnull align 8 dereferenceable(8) %this) unnamed_addr #4 comdat align 2 personality ptr @__gxx_personality_v0 {
entry:
  %0 = load ptr, ptr %this, align 8
  %cmp.i = icmp eq ptr %0, null
  br i1 %cmp.i, label %invoke.cont, label %if.end.i

if.end.i:                                         ; preds = %entry
  %vtable.i = load ptr, ptr %0, align 8
  %1 = load ptr, ptr %vtable.i, align 8
  tail call void %1(ptr noundef nonnull align 8 dereferenceable(8) %0) #17
  invoke void @_ZN6memory10deallocateEPv(ptr noundef nonnull %0)
          to label %invoke.cont unwind label %terminate.lpad

invoke.cont:                                      ; preds = %entry, %if.end.i
  ret void

terminate.lpad:                                   ; preds = %if.end.i
  %2 = landingpad { ptr, i32 }
          catch ptr null
  %3 = extractvalue { ptr, i32 } %2, 0
  tail call void @__clang_call_terminate(ptr %3) #18
  unreachable
}

; Function Attrs: mustprogress nounwind uwtable
define linkonce_odr hidden void @_ZN3refI6solverED2Ev(ptr noundef nonnull align 8 dereferenceable(8) %this) unnamed_addr #4 comdat align 2 personality ptr @__gxx_personality_v0 {
entry:
  %0 = load ptr, ptr %this, align 8
  %tobool.not.i = icmp eq ptr %0, null
  br i1 %tobool.not.i, label %invoke.cont, label %if.then.i

if.then.i:                                        ; preds = %entry
  %m_ref_count.i.i = getelementptr inbounds %class.check_sat_result, ptr %0, i64 0, i32 4
  %1 = load i32, ptr %m_ref_count.i.i, align 8
  %dec.i.i = add i32 %1, -1
  store i32 %dec.i.i, ptr %m_ref_count.i.i, align 8
  %cmp.i.i = icmp eq i32 %dec.i.i, 0
  br i1 %cmp.i.i, label %if.then.i.i, label %invoke.cont

if.then.i.i:                                      ; preds = %if.then.i
  %vtable.i.i.i = load ptr, ptr %0, align 8
  %2 = load ptr, ptr %vtable.i.i.i, align 8
  tail call void %2(ptr noundef nonnull align 8 dereferenceable(72) %0) #17
  invoke void @_ZN6memory10deallocateEPv(ptr noundef nonnull %0)
          to label %invoke.cont unwind label %terminate.lpad

invoke.cont:                                      ; preds = %if.then.i, %entry, %if.then.i.i
  ret void

terminate.lpad:                                   ; preds = %if.then.i.i
  %3 = landingpad { ptr, i32 }
          catch ptr null
  %4 = extractvalue { ptr, i32 } %3, 0
  tail call void @__clang_call_terminate(ptr %4) #18
  unreachable
}

; Function Attrs: mustprogress nounwind uwtable
define linkonce_odr hidden void @_ZN6vectorI8rationalLb1EjED2Ev(ptr noundef nonnull align 8 dereferenceable(8) %this) unnamed_addr #4 comdat align 2 personality ptr @__gxx_personality_v0 {
entry:
  %0 = load ptr, ptr %this, align 8
  %tobool.not.i = icmp eq ptr %0, null
  br i1 %tobool.not.i, label %invoke.cont, label %_ZNK6vectorI8rationalLb1EjE4sizeEv.exit.i.i

_ZNK6vectorI8rationalLb1EjE4sizeEv.exit.i.i:      ; preds = %entry
  %arrayidx.i.i.i = getelementptr inbounds i32, ptr %0, i64 -1
  %1 = load i32, ptr %arrayidx.i.i.i, align 4
  %cmp.not5.i.i.i.i.i = icmp eq i32 %1, 0
  br i1 %cmp.not5.i.i.i.i.i, label %_ZN6vectorI8rationalLb1EjE16destroy_elementsEv.exit.i, label %for.body.i.i.i.i.i

for.body.i.i.i.i.i:                               ; preds = %_ZNK6vectorI8rationalLb1EjE4sizeEv.exit.i.i, %_ZSt8_DestroyI8rationalEvPT_.exit.i.i.i.i.i
  %__count.addr.07.i.i.i.i.i = phi i32 [ %dec.i.i.i.i.i, %_ZSt8_DestroyI8rationalEvPT_.exit.i.i.i.i.i ], [ %1, %_ZNK6vectorI8rationalLb1EjE4sizeEv.exit.i.i ]
  %__first.addr.06.i.i.i.i.i = phi ptr [ %incdec.ptr.i.i.i.i.i, %_ZSt8_DestroyI8rationalEvPT_.exit.i.i.i.i.i ], [ %0, %_ZNK6vectorI8rationalLb1EjE4sizeEv.exit.i.i ]
  %2 = load ptr, ptr @_ZN8rational13g_mpq_managerE, align 8
  invoke void @_ZN11mpz_managerILb1EE3delEPS0_R3mpz(ptr noundef %2, ptr noundef nonnull align 8 dereferenceable(16) %__first.addr.06.i.i.i.i.i)
          to label %.noexc.i.i.i.i.i.i.i unwind label %terminate.lpad.i.i.i.i.i.i.i

.noexc.i.i.i.i.i.i.i:                             ; preds = %for.body.i.i.i.i.i
  %m_den.i.i.i.i.i.i.i.i = getelementptr inbounds %class.mpq, ptr %__first.addr.06.i.i.i.i.i, i64 0, i32 1
  invoke void @_ZN11mpz_managerILb1EE3delEPS0_R3mpz(ptr noundef %2, ptr noundef nonnull align 8 dereferenceable(16) %m_den.i.i.i.i.i.i.i.i)
          to label %_ZSt8_DestroyI8rationalEvPT_.exit.i.i.i.i.i unwind label %terminate.lpad.i.i.i.i.i.i.i

terminate.lpad.i.i.i.i.i.i.i:                     ; preds = %.noexc.i.i.i.i.i.i.i, %for.body.i.i.i.i.i
  %3 = landingpad { ptr, i32 }
          catch ptr null
  %4 = extractvalue { ptr, i32 } %3, 0
  tail call void @__clang_call_terminate(ptr %4) #18
  unreachable

_ZSt8_DestroyI8rationalEvPT_.exit.i.i.i.i.i:      ; preds = %.noexc.i.i.i.i.i.i.i
  %incdec.ptr.i.i.i.i.i = getelementptr inbounds %class.rational, ptr %__first.addr.06.i.i.i.i.i, i64 1
  %dec.i.i.i.i.i = add i32 %__count.addr.07.i.i.i.i.i, -1
  %cmp.not.i.i.i.i.i = icmp eq i32 %dec.i.i.i.i.i, 0
  br i1 %cmp.not.i.i.i.i.i, label %_ZN6vectorI8rationalLb1EjE16destroy_elementsEv.exit.loopexit.i, label %for.body.i.i.i.i.i, !llvm.loop !4

_ZN6vectorI8rationalLb1EjE16destroy_elementsEv.exit.loopexit.i: ; preds = %_ZSt8_DestroyI8rationalEvPT_.exit.i.i.i.i.i
  %.pre.i = load ptr, ptr %this, align 8
  br label %_ZN6vectorI8rationalLb1EjE16destroy_elementsEv.exit.i

_ZN6vectorI8rationalLb1EjE16destroy_elementsEv.exit.i: ; preds = %_ZN6vectorI8rationalLb1EjE16destroy_elementsEv.exit.loopexit.i, %_ZNK6vectorI8rationalLb1EjE4sizeEv.exit.i.i
  %5 = phi ptr [ %.pre.i, %_ZN6vectorI8rationalLb1EjE16destroy_elementsEv.exit.loopexit.i ], [ %0, %_ZNK6vectorI8rationalLb1EjE4sizeEv.exit.i.i ]
  %add.ptr.i.i = getelementptr inbounds i32, ptr %5, i64 -2
  invoke void @_ZN6memory10deallocateEPv(ptr noundef nonnull %add.ptr.i.i)
          to label %invoke.cont unwind label %terminate.lpad

invoke.cont:                                      ; preds = %entry, %_ZN6vectorI8rationalLb1EjE16destroy_elementsEv.exit.i
  ret void

terminate.lpad:                                   ; preds = %_ZN6vectorI8rationalLb1EjE16destroy_elementsEv.exit.i
  %6 = landingpad { ptr, i32 }
          catch ptr null
  %7 = extractvalue { ptr, i32 } %6, 0
  tail call void @__clang_call_terminate(ptr %7) #18
  unreachable
}

; Function Attrs: mustprogress nounwind uwtable
define linkonce_odr hidden void @_ZN10ref_vectorI3app11ast_managerED2Ev(ptr noundef nonnull align 8 dereferenceable(16) %this) unnamed_addr #4 comdat align 2 personality ptr @__gxx_personality_v0 {
entry:
  %m_nodes.i = getelementptr inbounds %class.ref_vector_core, ptr %this, i64 0, i32 1
  %0 = load ptr, ptr %m_nodes.i, align 8
  %cmp.i.i = icmp eq ptr %0, null
  br i1 %cmp.i.i, label %_ZN15ref_vector_coreI3app19ref_manager_wrapperIS0_11ast_managerEED2Ev.exit, label %_ZNK6vectorIP3appLb0EjE4sizeEv.exit.i

_ZNK6vectorIP3appLb0EjE4sizeEv.exit.i:            ; preds = %entry
  %arrayidx.i.i = getelementptr inbounds i32, ptr %0, i64 -1
  %1 = load i32, ptr %arrayidx.i.i, align 4
  %2 = zext i32 %1 to i64
  %add.ptr.i = getelementptr inbounds ptr, ptr %0, i64 %2
  %cmp3.i.not.i = icmp eq i32 %1, 0
  br i1 %cmp3.i.not.i, label %if.then.i.i.i.i, label %for.body.i.i

for.body.i.i:                                     ; preds = %_ZNK6vectorIP3appLb0EjE4sizeEv.exit.i, %_ZN15ref_vector_coreI3app19ref_manager_wrapperIS0_11ast_managerEE7dec_refEPS0_.exit.i.i
  %it.04.i.i = phi ptr [ %incdec.ptr.i.i, %_ZN15ref_vector_coreI3app19ref_manager_wrapperIS0_11ast_managerEE7dec_refEPS0_.exit.i.i ], [ %0, %_ZNK6vectorIP3appLb0EjE4sizeEv.exit.i ]
  %3 = load ptr, ptr %it.04.i.i, align 8
  %4 = load ptr, ptr %this, align 8
  %tobool.not.i.i.i.i.i = icmp eq ptr %3, null
  br i1 %tobool.not.i.i.i.i.i, label %_ZN15ref_vector_coreI3app19ref_manager_wrapperIS0_11ast_managerEE7dec_refEPS0_.exit.i.i, label %if.then.i.i.i.i.i

if.then.i.i.i.i.i:                                ; preds = %for.body.i.i
  %m_ref_count.i.i.i.i.i.i = getelementptr inbounds %class.ast, ptr %3, i64 0, i32 2
  %5 = load i32, ptr %m_ref_count.i.i.i.i.i.i, align 4
  %dec.i.i.i.i.i.i = add i32 %5, -1
  store i32 %dec.i.i.i.i.i.i, ptr %m_ref_count.i.i.i.i.i.i, align 4
  %cmp.i.i.i.i.i = icmp eq i32 %dec.i.i.i.i.i.i, 0
  br i1 %cmp.i.i.i.i.i, label %if.then2.i.i.i.i.i, label %_ZN15ref_vector_coreI3app19ref_manager_wrapperIS0_11ast_managerEE7dec_refEPS0_.exit.i.i

if.then2.i.i.i.i.i:                               ; preds = %if.then.i.i.i.i.i
  invoke void @_ZN11ast_manager11delete_nodeEP3ast(ptr noundef nonnull align 8 dereferenceable(976) %4, ptr noundef nonnull %3)
          to label %_ZN15ref_vector_coreI3app19ref_manager_wrapperIS0_11ast_managerEE7dec_refEPS0_.exit.i.i unwind label %terminate.lpad.i

_ZN15ref_vector_coreI3app19ref_manager_wrapperIS0_11ast_managerEE7dec_refEPS0_.exit.i.i: ; preds = %if.then2.i.i.i.i.i, %if.then.i.i.i.i.i, %for.body.i.i
  %incdec.ptr.i.i = getelementptr inbounds ptr, ptr %it.04.i.i, i64 1
  %cmp.i1.i = icmp ult ptr %incdec.ptr.i.i, %add.ptr.i
  br i1 %cmp.i1.i, label %for.body.i.i, label %invoke.cont8.i, !llvm.loop !6

invoke.cont8.i:                                   ; preds = %_ZN15ref_vector_coreI3app19ref_manager_wrapperIS0_11ast_managerEE7dec_refEPS0_.exit.i.i
  %.pre.i = load ptr, ptr %m_nodes.i, align 8
  %tobool.not.i.i.i.i = icmp eq ptr %.pre.i, null
  br i1 %tobool.not.i.i.i.i, label %_ZN15ref_vector_coreI3app19ref_manager_wrapperIS0_11ast_managerEED2Ev.exit, label %if.then.i.i.i.i

if.then.i.i.i.i:                                  ; preds = %invoke.cont8.i, %_ZNK6vectorIP3appLb0EjE4sizeEv.exit.i
  %6 = phi ptr [ %.pre.i, %invoke.cont8.i ], [ %0, %_ZNK6vectorIP3appLb0EjE4sizeEv.exit.i ]
  %add.ptr.i.i.i.i.i = getelementptr inbounds i32, ptr %6, i64 -2
  invoke void @_ZN6memory10deallocateEPv(ptr noundef nonnull %add.ptr.i.i.i.i.i)
          to label %_ZN15ref_vector_coreI3app19ref_manager_wrapperIS0_11ast_managerEED2Ev.exit unwind label %terminate.lpad.i.i.i

terminate.lpad.i.i.i:                             ; preds = %if.then.i.i.i.i
  %7 = landingpad { ptr, i32 }
          catch ptr null
  %8 = extractvalue { ptr, i32 } %7, 0
  tail call void @__clang_call_terminate(ptr %8) #18
  unreachable

terminate.lpad.i:                                 ; preds = %if.then2.i.i.i.i.i
  %9 = landingpad { ptr, i32 }
          catch ptr null
  %10 = extractvalue { ptr, i32 } %9, 0
  tail call void @__clang_call_terminate(ptr %10) #18
  unreachable

_ZN15ref_vector_coreI3app19ref_manager_wrapperIS0_11ast_managerEED2Ev.exit: ; preds = %entry, %invoke.cont8.i, %if.then.i.i.i.i
  ret void
}

; Function Attrs: mustprogress uwtable
define hidden noundef ptr @_ZN6spacer24lemma_global_generalizer8subsumer12mk_fresh_tagEv(ptr noundef nonnull align 8 dereferenceable(152) %this) local_unnamed_addr #3 align 2 {
entry:
  %ref.tmp = alloca %class.symbol, align 8
  %ref.tmp9 = alloca %class.symbol, align 8
  %ref.tmp14 = alloca %class.symbol, align 8
  %ref.tmp19 = alloca %class.symbol, align 8
  %m_used_tags = getelementptr inbounds %"class.spacer::lemma_global_generalizer::subsumer", ptr %this, i64 0, i32 5
  %0 = load i32, ptr %m_used_tags, align 8
  %m_nodes.i = getelementptr inbounds %"class.spacer::lemma_global_generalizer::subsumer", ptr %this, i64 0, i32 4, i32 0, i32 1
  %1 = load ptr, ptr %m_nodes.i, align 8
  %cmp.i.i = icmp eq ptr %1, null
  br i1 %cmp.i.i, label %_ZNK15ref_vector_coreI3app19ref_manager_wrapperIS0_11ast_managerEE4sizeEv.exit, label %if.end.i.i

if.end.i.i:                                       ; preds = %entry
  %arrayidx.i.i = getelementptr inbounds i32, ptr %1, i64 -1
  %2 = load i32, ptr %arrayidx.i.i, align 4
  br label %_ZNK15ref_vector_coreI3app19ref_manager_wrapperIS0_11ast_managerEE4sizeEv.exit

_ZNK15ref_vector_coreI3app19ref_manager_wrapperIS0_11ast_managerEE4sizeEv.exit: ; preds = %entry, %if.end.i.i
  %retval.0.i.i = phi i32 [ %2, %if.end.i.i ], [ 0, %entry ]
  %cmp = icmp eq i32 %0, %retval.0.i.i
  br i1 %cmp, label %if.then, label %if.end

if.then:                                          ; preds = %_ZNK15ref_vector_coreI3app19ref_manager_wrapperIS0_11ast_managerEE4sizeEv.exit
  %m = getelementptr inbounds %"class.spacer::lemma_global_generalizer::subsumer", ptr %this, i64 0, i32 1
  %3 = load ptr, ptr %m, align 8
  %m_bool_sort.i = getelementptr inbounds %class.ast_manager, ptr %3, i64 0, i32 13
  %4 = load ptr, ptr %m_bool_sort.i, align 8
  call void @_ZN6symbolC1EPKc(ptr noundef nonnull align 8 dereferenceable(8) %ref.tmp, ptr noundef nonnull @.str)
  %call.i = call noundef ptr @_ZN11ast_manager18mk_fresh_func_declERK6symbolS2_jPKP4sortS4_b(ptr noundef nonnull align 8 dereferenceable(976) %3, ptr noundef nonnull align 8 dereferenceable(8) %ref.tmp, ptr noundef nonnull align 8 dereferenceable(8) @_ZN6symbol4nullE, i32 noundef 0, ptr noundef null, ptr noundef %4, i1 noundef zeroext true)
  %call.i.i = call noundef ptr @_ZN11ast_manager6mk_appEP9func_decljPKP4expr(ptr noundef nonnull align 8 dereferenceable(976) %3, ptr noundef %call.i, i32 noundef 0, ptr noundef null)
  %tobool.not.i.i.i.i = icmp eq ptr %call.i.i, null
  br i1 %tobool.not.i.i.i.i, label %_ZN15ref_vector_coreI3app19ref_manager_wrapperIS0_11ast_managerEE7inc_refEPS0_.exit.i, label %if.then.i.i.i.i

if.then.i.i.i.i:                                  ; preds = %if.then
  %m_ref_count.i.i.i.i.i = getelementptr inbounds %class.ast, ptr %call.i.i, i64 0, i32 2
  %5 = load i32, ptr %m_ref_count.i.i.i.i.i, align 4
  %inc.i.i.i.i.i = add i32 %5, 1
  store i32 %inc.i.i.i.i.i, ptr %m_ref_count.i.i.i.i.i, align 4
  br label %_ZN15ref_vector_coreI3app19ref_manager_wrapperIS0_11ast_managerEE7inc_refEPS0_.exit.i

_ZN15ref_vector_coreI3app19ref_manager_wrapperIS0_11ast_managerEE7inc_refEPS0_.exit.i: ; preds = %if.then.i.i.i.i, %if.then
  %6 = load ptr, ptr %m_nodes.i, align 8
  %cmp.i.i5 = icmp eq ptr %6, null
  br i1 %cmp.i.i5, label %if.then.i.i, label %lor.lhs.false.i.i

lor.lhs.false.i.i:                                ; preds = %_ZN15ref_vector_coreI3app19ref_manager_wrapperIS0_11ast_managerEE7inc_refEPS0_.exit.i
  %arrayidx.i.i6 = getelementptr inbounds i32, ptr %6, i64 -1
  %7 = load i32, ptr %arrayidx.i.i6, align 4
  %arrayidx4.i.i = getelementptr inbounds i32, ptr %6, i64 -2
  %8 = load i32, ptr %arrayidx4.i.i, align 4
  %cmp5.i.i = icmp eq i32 %7, %8
  br i1 %cmp5.i.i, label %if.then.i.i, label %_ZN15ref_vector_coreI3app19ref_manager_wrapperIS0_11ast_managerEE9push_backEPS0_.exit

if.then.i.i:                                      ; preds = %lor.lhs.false.i.i, %_ZN15ref_vector_coreI3app19ref_manager_wrapperIS0_11ast_managerEE7inc_refEPS0_.exit.i
  call void @_ZN6vectorIP3appLb0EjE13expand_vectorEv(ptr noundef nonnull align 8 dereferenceable(8) %m_nodes.i)
  %.pre.i.i = load ptr, ptr %m_nodes.i, align 8
  %arrayidx8.phi.trans.insert.i.i = getelementptr inbounds i32, ptr %.pre.i.i, i64 -1
  %.pre1.i.i = load i32, ptr %arrayidx8.phi.trans.insert.i.i, align 4
  br label %_ZN15ref_vector_coreI3app19ref_manager_wrapperIS0_11ast_managerEE9push_backEPS0_.exit

_ZN15ref_vector_coreI3app19ref_manager_wrapperIS0_11ast_managerEE9push_backEPS0_.exit: ; preds = %lor.lhs.false.i.i, %if.then.i.i
  %9 = phi i32 [ %.pre1.i.i, %if.then.i.i ], [ %7, %lor.lhs.false.i.i ]
  %10 = phi ptr [ %.pre.i.i, %if.then.i.i ], [ %6, %lor.lhs.false.i.i ]
  %idx.ext.i.i = zext i32 %9 to i64
  %add.ptr.i.i = getelementptr inbounds ptr, ptr %10, i64 %idx.ext.i.i
  store ptr %call.i.i, ptr %add.ptr.i.i, align 8
  %11 = load ptr, ptr %m_nodes.i, align 8
  %arrayidx10.i.i = getelementptr inbounds i32, ptr %11, i64 -1
  %12 = load i32, ptr %arrayidx10.i.i, align 4
  %inc.i.i = add i32 %12, 1
  store i32 %inc.i.i, ptr %arrayidx10.i.i, align 4
  %13 = load ptr, ptr %m, align 8
  call void @_ZN6symbolC1EPKc(ptr noundef nonnull align 8 dereferenceable(8) %ref.tmp9, ptr noundef nonnull @.str)
  %call.i7 = call noundef ptr @_ZN11ast_manager18mk_fresh_func_declERK6symbolS2_jPKP4sortS4_b(ptr noundef nonnull align 8 dereferenceable(976) %13, ptr noundef nonnull align 8 dereferenceable(8) %ref.tmp9, ptr noundef nonnull align 8 dereferenceable(8) @_ZN6symbol4nullE, i32 noundef 0, ptr noundef null, ptr noundef %4, i1 noundef zeroext true)
  %call.i.i8 = call noundef ptr @_ZN11ast_manager6mk_appEP9func_decljPKP4expr(ptr noundef nonnull align 8 dereferenceable(976) %13, ptr noundef %call.i7, i32 noundef 0, ptr noundef null)
  %tobool.not.i.i.i.i9 = icmp eq ptr %call.i.i8, null
  br i1 %tobool.not.i.i.i.i9, label %_ZN15ref_vector_coreI3app19ref_manager_wrapperIS0_11ast_managerEE7inc_refEPS0_.exit.i13, label %if.then.i.i.i.i10

if.then.i.i.i.i10:                                ; preds = %_ZN15ref_vector_coreI3app19ref_manager_wrapperIS0_11ast_managerEE9push_backEPS0_.exit
  %m_ref_count.i.i.i.i.i11 = getelementptr inbounds %class.ast, ptr %call.i.i8, i64 0, i32 2
  %14 = load i32, ptr %m_ref_count.i.i.i.i.i11, align 4
  %inc.i.i.i.i.i12 = add i32 %14, 1
  store i32 %inc.i.i.i.i.i12, ptr %m_ref_count.i.i.i.i.i11, align 4
  br label %_ZN15ref_vector_coreI3app19ref_manager_wrapperIS0_11ast_managerEE7inc_refEPS0_.exit.i13

_ZN15ref_vector_coreI3app19ref_manager_wrapperIS0_11ast_managerEE7inc_refEPS0_.exit.i13: ; preds = %if.then.i.i.i.i10, %_ZN15ref_vector_coreI3app19ref_manager_wrapperIS0_11ast_managerEE9push_backEPS0_.exit
  %15 = load ptr, ptr %m_nodes.i, align 8
  %cmp.i.i15 = icmp eq ptr %15, null
  br i1 %cmp.i.i15, label %if.then.i.i24, label %lor.lhs.false.i.i16

lor.lhs.false.i.i16:                              ; preds = %_ZN15ref_vector_coreI3app19ref_manager_wrapperIS0_11ast_managerEE7inc_refEPS0_.exit.i13
  %arrayidx.i.i17 = getelementptr inbounds i32, ptr %15, i64 -1
  %16 = load i32, ptr %arrayidx.i.i17, align 4
  %arrayidx4.i.i18 = getelementptr inbounds i32, ptr %15, i64 -2
  %17 = load i32, ptr %arrayidx4.i.i18, align 4
  %cmp5.i.i19 = icmp eq i32 %16, %17
  br i1 %cmp5.i.i19, label %if.then.i.i24, label %_ZN15ref_vector_coreI3app19ref_manager_wrapperIS0_11ast_managerEE9push_backEPS0_.exit28

if.then.i.i24:                                    ; preds = %lor.lhs.false.i.i16, %_ZN15ref_vector_coreI3app19ref_manager_wrapperIS0_11ast_managerEE7inc_refEPS0_.exit.i13
  call void @_ZN6vectorIP3appLb0EjE13expand_vectorEv(ptr noundef nonnull align 8 dereferenceable(8) %m_nodes.i)
  %.pre.i.i25 = load ptr, ptr %m_nodes.i, align 8
  %arrayidx8.phi.trans.insert.i.i26 = getelementptr inbounds i32, ptr %.pre.i.i25, i64 -1
  %.pre1.i.i27 = load i32, ptr %arrayidx8.phi.trans.insert.i.i26, align 4
  br label %_ZN15ref_vector_coreI3app19ref_manager_wrapperIS0_11ast_managerEE9push_backEPS0_.exit28

_ZN15ref_vector_coreI3app19ref_manager_wrapperIS0_11ast_managerEE9push_backEPS0_.exit28: ; preds = %lor.lhs.false.i.i16, %if.then.i.i24
  %18 = phi i32 [ %.pre1.i.i27, %if.then.i.i24 ], [ %16, %lor.lhs.false.i.i16 ]
  %19 = phi ptr [ %.pre.i.i25, %if.then.i.i24 ], [ %15, %lor.lhs.false.i.i16 ]
  %idx.ext.i.i20 = zext i32 %18 to i64
  %add.ptr.i.i21 = getelementptr inbounds ptr, ptr %19, i64 %idx.ext.i.i20
  store ptr %call.i.i8, ptr %add.ptr.i.i21, align 8
  %20 = load ptr, ptr %m_nodes.i, align 8
  %arrayidx10.i.i22 = getelementptr inbounds i32, ptr %20, i64 -1
  %21 = load i32, ptr %arrayidx10.i.i22, align 4
  %inc.i.i23 = add i32 %21, 1
  store i32 %inc.i.i23, ptr %arrayidx10.i.i22, align 4
  %22 = load ptr, ptr %m, align 8
  call void @_ZN6symbolC1EPKc(ptr noundef nonnull align 8 dereferenceable(8) %ref.tmp14, ptr noundef nonnull @.str)
  %call.i29 = call noundef ptr @_ZN11ast_manager18mk_fresh_func_declERK6symbolS2_jPKP4sortS4_b(ptr noundef nonnull align 8 dereferenceable(976) %22, ptr noundef nonnull align 8 dereferenceable(8) %ref.tmp14, ptr noundef nonnull align 8 dereferenceable(8) @_ZN6symbol4nullE, i32 noundef 0, ptr noundef null, ptr noundef %4, i1 noundef zeroext true)
  %call.i.i30 = call noundef ptr @_ZN11ast_manager6mk_appEP9func_decljPKP4expr(ptr noundef nonnull align 8 dereferenceable(976) %22, ptr noundef %call.i29, i32 noundef 0, ptr noundef null)
  %tobool.not.i.i.i.i31 = icmp eq ptr %call.i.i30, null
  br i1 %tobool.not.i.i.i.i31, label %_ZN15ref_vector_coreI3app19ref_manager_wrapperIS0_11ast_managerEE7inc_refEPS0_.exit.i35, label %if.then.i.i.i.i32

if.then.i.i.i.i32:                                ; preds = %_ZN15ref_vector_coreI3app19ref_manager_wrapperIS0_11ast_managerEE9push_backEPS0_.exit28
  %m_ref_count.i.i.i.i.i33 = getelementptr inbounds %class.ast, ptr %call.i.i30, i64 0, i32 2
  %23 = load i32, ptr %m_ref_count.i.i.i.i.i33, align 4
  %inc.i.i.i.i.i34 = add i32 %23, 1
  store i32 %inc.i.i.i.i.i34, ptr %m_ref_count.i.i.i.i.i33, align 4
  br label %_ZN15ref_vector_coreI3app19ref_manager_wrapperIS0_11ast_managerEE7inc_refEPS0_.exit.i35

_ZN15ref_vector_coreI3app19ref_manager_wrapperIS0_11ast_managerEE7inc_refEPS0_.exit.i35: ; preds = %if.then.i.i.i.i32, %_ZN15ref_vector_coreI3app19ref_manager_wrapperIS0_11ast_managerEE9push_backEPS0_.exit28
  %24 = load ptr, ptr %m_nodes.i, align 8
  %cmp.i.i37 = icmp eq ptr %24, null
  br i1 %cmp.i.i37, label %if.then.i.i46, label %lor.lhs.false.i.i38

lor.lhs.false.i.i38:                              ; preds = %_ZN15ref_vector_coreI3app19ref_manager_wrapperIS0_11ast_managerEE7inc_refEPS0_.exit.i35
  %arrayidx.i.i39 = getelementptr inbounds i32, ptr %24, i64 -1
  %25 = load i32, ptr %arrayidx.i.i39, align 4
  %arrayidx4.i.i40 = getelementptr inbounds i32, ptr %24, i64 -2
  %26 = load i32, ptr %arrayidx4.i.i40, align 4
  %cmp5.i.i41 = icmp eq i32 %25, %26
  br i1 %cmp5.i.i41, label %if.then.i.i46, label %_ZN15ref_vector_coreI3app19ref_manager_wrapperIS0_11ast_managerEE9push_backEPS0_.exit50

if.then.i.i46:                                    ; preds = %lor.lhs.false.i.i38, %_ZN15ref_vector_coreI3app19ref_manager_wrapperIS0_11ast_managerEE7inc_refEPS0_.exit.i35
  call void @_ZN6vectorIP3appLb0EjE13expand_vectorEv(ptr noundef nonnull align 8 dereferenceable(8) %m_nodes.i)
  %.pre.i.i47 = load ptr, ptr %m_nodes.i, align 8
  %arrayidx8.phi.trans.insert.i.i48 = getelementptr inbounds i32, ptr %.pre.i.i47, i64 -1
  %.pre1.i.i49 = load i32, ptr %arrayidx8.phi.trans.insert.i.i48, align 4
  br label %_ZN15ref_vector_coreI3app19ref_manager_wrapperIS0_11ast_managerEE9push_backEPS0_.exit50

_ZN15ref_vector_coreI3app19ref_manager_wrapperIS0_11ast_managerEE9push_backEPS0_.exit50: ; preds = %lor.lhs.false.i.i38, %if.then.i.i46
  %27 = phi i32 [ %.pre1.i.i49, %if.then.i.i46 ], [ %25, %lor.lhs.false.i.i38 ]
  %28 = phi ptr [ %.pre.i.i47, %if.then.i.i46 ], [ %24, %lor.lhs.false.i.i38 ]
  %idx.ext.i.i42 = zext i32 %27 to i64
  %add.ptr.i.i43 = getelementptr inbounds ptr, ptr %28, i64 %idx.ext.i.i42
  store ptr %call.i.i30, ptr %add.ptr.i.i43, align 8
  %29 = load ptr, ptr %m_nodes.i, align 8
  %arrayidx10.i.i44 = getelementptr inbounds i32, ptr %29, i64 -1
  %30 = load i32, ptr %arrayidx10.i.i44, align 4
  %inc.i.i45 = add i32 %30, 1
  store i32 %inc.i.i45, ptr %arrayidx10.i.i44, align 4
  %31 = load ptr, ptr %m, align 8
  call void @_ZN6symbolC1EPKc(ptr noundef nonnull align 8 dereferenceable(8) %ref.tmp19, ptr noundef nonnull @.str)
  %call.i51 = call noundef ptr @_ZN11ast_manager18mk_fresh_func_declERK6symbolS2_jPKP4sortS4_b(ptr noundef nonnull align 8 dereferenceable(976) %31, ptr noundef nonnull align 8 dereferenceable(8) %ref.tmp19, ptr noundef nonnull align 8 dereferenceable(8) @_ZN6symbol4nullE, i32 noundef 0, ptr noundef null, ptr noundef %4, i1 noundef zeroext true)
  %call.i.i52 = call noundef ptr @_ZN11ast_manager6mk_appEP9func_decljPKP4expr(ptr noundef nonnull align 8 dereferenceable(976) %31, ptr noundef %call.i51, i32 noundef 0, ptr noundef null)
  %tobool.not.i.i.i.i53 = icmp eq ptr %call.i.i52, null
  br i1 %tobool.not.i.i.i.i53, label %_ZN15ref_vector_coreI3app19ref_manager_wrapperIS0_11ast_managerEE7inc_refEPS0_.exit.i57, label %if.then.i.i.i.i54

if.then.i.i.i.i54:                                ; preds = %_ZN15ref_vector_coreI3app19ref_manager_wrapperIS0_11ast_managerEE9push_backEPS0_.exit50
  %m_ref_count.i.i.i.i.i55 = getelementptr inbounds %class.ast, ptr %call.i.i52, i64 0, i32 2
  %32 = load i32, ptr %m_ref_count.i.i.i.i.i55, align 4
  %inc.i.i.i.i.i56 = add i32 %32, 1
  store i32 %inc.i.i.i.i.i56, ptr %m_ref_count.i.i.i.i.i55, align 4
  br label %_ZN15ref_vector_coreI3app19ref_manager_wrapperIS0_11ast_managerEE7inc_refEPS0_.exit.i57

_ZN15ref_vector_coreI3app19ref_manager_wrapperIS0_11ast_managerEE7inc_refEPS0_.exit.i57: ; preds = %if.then.i.i.i.i54, %_ZN15ref_vector_coreI3app19ref_manager_wrapperIS0_11ast_managerEE9push_backEPS0_.exit50
  %33 = load ptr, ptr %m_nodes.i, align 8
  %cmp.i.i59 = icmp eq ptr %33, null
  br i1 %cmp.i.i59, label %if.then.i.i68, label %lor.lhs.false.i.i60

lor.lhs.false.i.i60:                              ; preds = %_ZN15ref_vector_coreI3app19ref_manager_wrapperIS0_11ast_managerEE7inc_refEPS0_.exit.i57
  %arrayidx.i.i61 = getelementptr inbounds i32, ptr %33, i64 -1
  %34 = load i32, ptr %arrayidx.i.i61, align 4
  %arrayidx4.i.i62 = getelementptr inbounds i32, ptr %33, i64 -2
  %35 = load i32, ptr %arrayidx4.i.i62, align 4
  %cmp5.i.i63 = icmp eq i32 %34, %35
  br i1 %cmp5.i.i63, label %if.then.i.i68, label %_ZN15ref_vector_coreI3app19ref_manager_wrapperIS0_11ast_managerEE9push_backEPS0_.exit72

if.then.i.i68:                                    ; preds = %lor.lhs.false.i.i60, %_ZN15ref_vector_coreI3app19ref_manager_wrapperIS0_11ast_managerEE7inc_refEPS0_.exit.i57
  call void @_ZN6vectorIP3appLb0EjE13expand_vectorEv(ptr noundef nonnull align 8 dereferenceable(8) %m_nodes.i)
  %.pre.i.i69 = load ptr, ptr %m_nodes.i, align 8
  %arrayidx8.phi.trans.insert.i.i70 = getelementptr inbounds i32, ptr %.pre.i.i69, i64 -1
  %.pre1.i.i71 = load i32, ptr %arrayidx8.phi.trans.insert.i.i70, align 4
  br label %_ZN15ref_vector_coreI3app19ref_manager_wrapperIS0_11ast_managerEE9push_backEPS0_.exit72

_ZN15ref_vector_coreI3app19ref_manager_wrapperIS0_11ast_managerEE9push_backEPS0_.exit72: ; preds = %lor.lhs.false.i.i60, %if.then.i.i68
  %36 = phi i32 [ %.pre1.i.i71, %if.then.i.i68 ], [ %34, %lor.lhs.false.i.i60 ]
  %37 = phi ptr [ %.pre.i.i69, %if.then.i.i68 ], [ %33, %lor.lhs.false.i.i60 ]
  %idx.ext.i.i64 = zext i32 %36 to i64
  %add.ptr.i.i65 = getelementptr inbounds ptr, ptr %37, i64 %idx.ext.i.i64
  store ptr %call.i.i52, ptr %add.ptr.i.i65, align 8
  %38 = load ptr, ptr %m_nodes.i, align 8
  %arrayidx10.i.i66 = getelementptr inbounds i32, ptr %38, i64 -1
  %39 = load i32, ptr %arrayidx10.i.i66, align 4
  %inc.i.i67 = add i32 %39, 1
  store i32 %inc.i.i67, ptr %arrayidx10.i.i66, align 4
  %.pre = load i32, ptr %m_used_tags, align 8
  %.pre75 = load ptr, ptr %m_nodes.i, align 8
  br label %if.end

if.end:                                           ; preds = %_ZN15ref_vector_coreI3app19ref_manager_wrapperIS0_11ast_managerEE9push_backEPS0_.exit72, %_ZNK15ref_vector_coreI3app19ref_manager_wrapperIS0_11ast_managerEE4sizeEv.exit
  %40 = phi ptr [ %.pre75, %_ZN15ref_vector_coreI3app19ref_manager_wrapperIS0_11ast_managerEE9push_backEPS0_.exit72 ], [ %1, %_ZNK15ref_vector_coreI3app19ref_manager_wrapperIS0_11ast_managerEE4sizeEv.exit ]
  %41 = phi i32 [ %.pre, %_ZN15ref_vector_coreI3app19ref_manager_wrapperIS0_11ast_managerEE9push_backEPS0_.exit72 ], [ %0, %_ZNK15ref_vector_coreI3app19ref_manager_wrapperIS0_11ast_managerEE4sizeEv.exit ]
  %inc = add i32 %41, 1
  store i32 %inc, ptr %m_used_tags, align 8
  %idxprom.i.i = zext i32 %41 to i64
  %arrayidx.i.i74 = getelementptr inbounds ptr, ptr %40, i64 %idxprom.i.i
  %42 = load ptr, ptr %arrayidx.i.i74, align 8
  ret ptr %42
}

declare void @_ZN6symbolC1EPKc(ptr noundef nonnull align 8 dereferenceable(8), ptr noundef) unnamed_addr #0

; Function Attrs: mustprogress uwtable
define hidden void @_ZN6spacer24lemma_global_generalizerC2ERNS_7contextE(ptr noundef nonnull align 8 dereferenceable(225) %this, ptr noundef nonnull align 8 dereferenceable(712) %ctx) unnamed_addr #3 align 2 personality ptr @__gxx_personality_v0 {
invoke.cont:
  %m_ctx.i = getelementptr inbounds %"class.spacer::lemma_generalizer", ptr %this, i64 0, i32 1
  store ptr %ctx, ptr %m_ctx.i, align 8
  store ptr getelementptr inbounds ({ [7 x ptr] }, ptr @_ZTVN6spacer24lemma_global_generalizerE, i64 0, inrange i32 0, i64 2), ptr %this, align 8
  %m_st = getelementptr inbounds %"class.spacer::lemma_global_generalizer", ptr %this, i64 0, i32 1
  tail call void @llvm.memset.p0.i64(ptr noundef nonnull align 8 dereferenceable(41) %m_st, i8 0, i64 41, i1 false)
  %m = getelementptr inbounds %"class.spacer::lemma_global_generalizer", ptr %this, i64 0, i32 2
  %m.i = getelementptr inbounds %"class.spacer::context", ptr %ctx, i64 0, i32 7
  %0 = load ptr, ptr %m.i, align 8
  store ptr %0, ptr %m, align 8
  %m_subsumer = getelementptr inbounds %"class.spacer::lemma_global_generalizer", ptr %this, i64 0, i32 3
  %m_ground_pob.i = getelementptr inbounds %"class.spacer::context", ptr %ctx, i64 0, i32 51
  %1 = load i8, ptr %m_ground_pob.i, align 2
  %2 = and i8 %1, 1
  %tobool.i = icmp ne i8 %2, 0
  tail call void @_ZN6spacer24lemma_global_generalizer8subsumerC2ER11ast_managerb(ptr noundef nonnull align 8 dereferenceable(152) %m_subsumer, ptr noundef nonnull align 8 dereferenceable(976) %0, i1 noundef zeroext %tobool.i)
  %m_do_subsume = getelementptr inbounds %"class.spacer::lemma_global_generalizer", ptr %this, i64 0, i32 4
  %m_gg_subsume.i = getelementptr inbounds %"class.spacer::context", ptr %ctx, i64 0, i32 61
  %3 = load i8, ptr %m_gg_subsume.i, align 8
  %4 = and i8 %3, 1
  store i8 %4, ptr %m_do_subsume, align 8
  ret void
}

; Function Attrs: mustprogress nounwind uwtable
define linkonce_odr hidden void @_ZN6spacer24lemma_global_generalizer8subsumerD2Ev(ptr noundef nonnull align 8 dereferenceable(152) %this) unnamed_addr #4 comdat align 2 personality ptr @__gxx_personality_v0 {
entry:
  %m_solver = getelementptr inbounds %"class.spacer::lemma_global_generalizer::subsumer", ptr %this, i64 0, i32 9
  %0 = load ptr, ptr %m_solver, align 8
  %tobool.not.i.i = icmp eq ptr %0, null
  br i1 %tobool.not.i.i, label %_ZN3refI6solverED2Ev.exit, label %if.then.i.i

if.then.i.i:                                      ; preds = %entry
  %m_ref_count.i.i.i = getelementptr inbounds %class.check_sat_result, ptr %0, i64 0, i32 4
  %1 = load i32, ptr %m_ref_count.i.i.i, align 8
  %dec.i.i.i = add i32 %1, -1
  store i32 %dec.i.i.i, ptr %m_ref_count.i.i.i, align 8
  %cmp.i.i.i = icmp eq i32 %dec.i.i.i, 0
  br i1 %cmp.i.i.i, label %if.then.i.i.i, label %_ZN3refI6solverED2Ev.exit

if.then.i.i.i:                                    ; preds = %if.then.i.i
  %vtable.i.i.i.i = load ptr, ptr %0, align 8
  %2 = load ptr, ptr %vtable.i.i.i.i, align 8
  tail call void %2(ptr noundef nonnull align 8 dereferenceable(72) %0) #17
  invoke void @_ZN6memory10deallocateEPv(ptr noundef nonnull %0)
          to label %_ZN3refI6solverED2Ev.exit unwind label %terminate.lpad.i

terminate.lpad.i:                                 ; preds = %if.then.i.i.i
  %3 = landingpad { ptr, i32 }
          catch ptr null
  %4 = extractvalue { ptr, i32 } %3, 0
  tail call void @__clang_call_terminate(ptr %4) #18
  unreachable

_ZN3refI6solverED2Ev.exit:                        ; preds = %entry, %if.then.i.i, %if.then.i.i.i
  %m_col_lcm = getelementptr inbounds %"class.spacer::lemma_global_generalizer::subsumer", ptr %this, i64 0, i32 7
  %5 = load ptr, ptr %m_col_lcm, align 8
  %tobool.not.i.i1 = icmp eq ptr %5, null
  br i1 %tobool.not.i.i1, label %_ZN6vectorI8rationalLb1EjED2Ev.exit, label %_ZNK6vectorI8rationalLb1EjE4sizeEv.exit.i.i.i

_ZNK6vectorI8rationalLb1EjE4sizeEv.exit.i.i.i:    ; preds = %_ZN3refI6solverED2Ev.exit
  %arrayidx.i.i.i.i = getelementptr inbounds i32, ptr %5, i64 -1
  %6 = load i32, ptr %arrayidx.i.i.i.i, align 4
  %cmp.not5.i.i.i.i.i.i = icmp eq i32 %6, 0
  br i1 %cmp.not5.i.i.i.i.i.i, label %_ZN6vectorI8rationalLb1EjE16destroy_elementsEv.exit.i.i, label %for.body.i.i.i.i.i.i

for.body.i.i.i.i.i.i:                             ; preds = %_ZNK6vectorI8rationalLb1EjE4sizeEv.exit.i.i.i, %_ZSt8_DestroyI8rationalEvPT_.exit.i.i.i.i.i.i
  %__count.addr.07.i.i.i.i.i.i = phi i32 [ %dec.i.i.i.i.i.i, %_ZSt8_DestroyI8rationalEvPT_.exit.i.i.i.i.i.i ], [ %6, %_ZNK6vectorI8rationalLb1EjE4sizeEv.exit.i.i.i ]
  %__first.addr.06.i.i.i.i.i.i = phi ptr [ %incdec.ptr.i.i.i.i.i.i, %_ZSt8_DestroyI8rationalEvPT_.exit.i.i.i.i.i.i ], [ %5, %_ZNK6vectorI8rationalLb1EjE4sizeEv.exit.i.i.i ]
  %7 = load ptr, ptr @_ZN8rational13g_mpq_managerE, align 8
  invoke void @_ZN11mpz_managerILb1EE3delEPS0_R3mpz(ptr noundef %7, ptr noundef nonnull align 8 dereferenceable(16) %__first.addr.06.i.i.i.i.i.i)
          to label %.noexc.i.i.i.i.i.i.i.i unwind label %terminate.lpad.i.i.i.i.i.i.i.i

.noexc.i.i.i.i.i.i.i.i:                           ; preds = %for.body.i.i.i.i.i.i
  %m_den.i.i.i.i.i.i.i.i.i = getelementptr inbounds %class.mpq, ptr %__first.addr.06.i.i.i.i.i.i, i64 0, i32 1
  invoke void @_ZN11mpz_managerILb1EE3delEPS0_R3mpz(ptr noundef %7, ptr noundef nonnull align 8 dereferenceable(16) %m_den.i.i.i.i.i.i.i.i.i)
          to label %_ZSt8_DestroyI8rationalEvPT_.exit.i.i.i.i.i.i unwind label %terminate.lpad.i.i.i.i.i.i.i.i

terminate.lpad.i.i.i.i.i.i.i.i:                   ; preds = %.noexc.i.i.i.i.i.i.i.i, %for.body.i.i.i.i.i.i
  %8 = landingpad { ptr, i32 }
          catch ptr null
  %9 = extractvalue { ptr, i32 } %8, 0
  tail call void @__clang_call_terminate(ptr %9) #18
  unreachable

_ZSt8_DestroyI8rationalEvPT_.exit.i.i.i.i.i.i:    ; preds = %.noexc.i.i.i.i.i.i.i.i
  %incdec.ptr.i.i.i.i.i.i = getelementptr inbounds %class.rational, ptr %__first.addr.06.i.i.i.i.i.i, i64 1
  %dec.i.i.i.i.i.i = add i32 %__count.addr.07.i.i.i.i.i.i, -1
  %cmp.not.i.i.i.i.i.i = icmp eq i32 %dec.i.i.i.i.i.i, 0
  br i1 %cmp.not.i.i.i.i.i.i, label %_ZN6vectorI8rationalLb1EjE16destroy_elementsEv.exit.loopexit.i.i, label %for.body.i.i.i.i.i.i, !llvm.loop !4

_ZN6vectorI8rationalLb1EjE16destroy_elementsEv.exit.loopexit.i.i: ; preds = %_ZSt8_DestroyI8rationalEvPT_.exit.i.i.i.i.i.i
  %.pre.i.i = load ptr, ptr %m_col_lcm, align 8
  br label %_ZN6vectorI8rationalLb1EjE16destroy_elementsEv.exit.i.i

_ZN6vectorI8rationalLb1EjE16destroy_elementsEv.exit.i.i: ; preds = %_ZN6vectorI8rationalLb1EjE16destroy_elementsEv.exit.loopexit.i.i, %_ZNK6vectorI8rationalLb1EjE4sizeEv.exit.i.i.i
  %10 = phi ptr [ %.pre.i.i, %_ZN6vectorI8rationalLb1EjE16destroy_elementsEv.exit.loopexit.i.i ], [ %5, %_ZNK6vectorI8rationalLb1EjE4sizeEv.exit.i.i.i ]
  %add.ptr.i.i.i = getelementptr inbounds i32, ptr %10, i64 -2
  invoke void @_ZN6memory10deallocateEPv(ptr noundef nonnull %add.ptr.i.i.i)
          to label %_ZN6vectorI8rationalLb1EjED2Ev.exit unwind label %terminate.lpad.i2

terminate.lpad.i2:                                ; preds = %_ZN6vectorI8rationalLb1EjE16destroy_elementsEv.exit.i.i
  %11 = landingpad { ptr, i32 }
          catch ptr null
  %12 = extractvalue { ptr, i32 } %11, 0
  tail call void @__clang_call_terminate(ptr %12) #18
  unreachable

_ZN6vectorI8rationalLb1EjED2Ev.exit:              ; preds = %_ZN3refI6solverED2Ev.exit, %_ZN6vectorI8rationalLb1EjE16destroy_elementsEv.exit.i.i
  %m_col_names = getelementptr inbounds %"class.spacer::lemma_global_generalizer::subsumer", ptr %this, i64 0, i32 6
  %m_nodes.i.i = getelementptr inbounds %"class.spacer::lemma_global_generalizer::subsumer", ptr %this, i64 0, i32 6, i32 0, i32 1
  %13 = load ptr, ptr %m_nodes.i.i, align 8
  %cmp.i.i.i3 = icmp eq ptr %13, null
  br i1 %cmp.i.i.i3, label %_ZN10ref_vectorI3app11ast_managerED2Ev.exit, label %_ZNK6vectorIP3appLb0EjE4sizeEv.exit.i.i

_ZNK6vectorIP3appLb0EjE4sizeEv.exit.i.i:          ; preds = %_ZN6vectorI8rationalLb1EjED2Ev.exit
  %arrayidx.i.i.i = getelementptr inbounds i32, ptr %13, i64 -1
  %14 = load i32, ptr %arrayidx.i.i.i, align 4
  %15 = zext i32 %14 to i64
  %add.ptr.i.i = getelementptr inbounds ptr, ptr %13, i64 %15
  %cmp3.i.not.i.i = icmp eq i32 %14, 0
  br i1 %cmp3.i.not.i.i, label %if.then.i.i.i.i.i, label %for.body.i.i.i

for.body.i.i.i:                                   ; preds = %_ZNK6vectorIP3appLb0EjE4sizeEv.exit.i.i, %_ZN15ref_vector_coreI3app19ref_manager_wrapperIS0_11ast_managerEE7dec_refEPS0_.exit.i.i.i
  %it.04.i.i.i = phi ptr [ %incdec.ptr.i.i.i, %_ZN15ref_vector_coreI3app19ref_manager_wrapperIS0_11ast_managerEE7dec_refEPS0_.exit.i.i.i ], [ %13, %_ZNK6vectorIP3appLb0EjE4sizeEv.exit.i.i ]
  %16 = load ptr, ptr %it.04.i.i.i, align 8
  %17 = load ptr, ptr %m_col_names, align 8
  %tobool.not.i.i.i.i.i.i = icmp eq ptr %16, null
  br i1 %tobool.not.i.i.i.i.i.i, label %_ZN15ref_vector_coreI3app19ref_manager_wrapperIS0_11ast_managerEE7dec_refEPS0_.exit.i.i.i, label %if.then.i.i.i.i.i.i

if.then.i.i.i.i.i.i:                              ; preds = %for.body.i.i.i
  %m_ref_count.i.i.i.i.i.i.i = getelementptr inbounds %class.ast, ptr %16, i64 0, i32 2
  %18 = load i32, ptr %m_ref_count.i.i.i.i.i.i.i, align 4
  %dec.i.i.i.i.i.i.i = add i32 %18, -1
  store i32 %dec.i.i.i.i.i.i.i, ptr %m_ref_count.i.i.i.i.i.i.i, align 4
  %cmp.i.i.i.i.i.i = icmp eq i32 %dec.i.i.i.i.i.i.i, 0
  br i1 %cmp.i.i.i.i.i.i, label %if.then2.i.i.i.i.i.i, label %_ZN15ref_vector_coreI3app19ref_manager_wrapperIS0_11ast_managerEE7dec_refEPS0_.exit.i.i.i

if.then2.i.i.i.i.i.i:                             ; preds = %if.then.i.i.i.i.i.i
  invoke void @_ZN11ast_manager11delete_nodeEP3ast(ptr noundef nonnull align 8 dereferenceable(976) %17, ptr noundef nonnull %16)
          to label %_ZN15ref_vector_coreI3app19ref_manager_wrapperIS0_11ast_managerEE7dec_refEPS0_.exit.i.i.i unwind label %terminate.lpad.i.i

_ZN15ref_vector_coreI3app19ref_manager_wrapperIS0_11ast_managerEE7dec_refEPS0_.exit.i.i.i: ; preds = %if.then2.i.i.i.i.i.i, %if.then.i.i.i.i.i.i, %for.body.i.i.i
  %incdec.ptr.i.i.i = getelementptr inbounds ptr, ptr %it.04.i.i.i, i64 1
  %cmp.i1.i.i = icmp ult ptr %incdec.ptr.i.i.i, %add.ptr.i.i
  br i1 %cmp.i1.i.i, label %for.body.i.i.i, label %invoke.cont8.i.i, !llvm.loop !6

invoke.cont8.i.i:                                 ; preds = %_ZN15ref_vector_coreI3app19ref_manager_wrapperIS0_11ast_managerEE7dec_refEPS0_.exit.i.i.i
  %.pre.i.i4 = load ptr, ptr %m_nodes.i.i, align 8
  %tobool.not.i.i.i.i.i = icmp eq ptr %.pre.i.i4, null
  br i1 %tobool.not.i.i.i.i.i, label %_ZN10ref_vectorI3app11ast_managerED2Ev.exit, label %if.then.i.i.i.i.i

if.then.i.i.i.i.i:                                ; preds = %invoke.cont8.i.i, %_ZNK6vectorIP3appLb0EjE4sizeEv.exit.i.i
  %19 = phi ptr [ %.pre.i.i4, %invoke.cont8.i.i ], [ %13, %_ZNK6vectorIP3appLb0EjE4sizeEv.exit.i.i ]
  %add.ptr.i.i.i.i.i.i = getelementptr inbounds i32, ptr %19, i64 -2
  invoke void @_ZN6memory10deallocateEPv(ptr noundef nonnull %add.ptr.i.i.i.i.i.i)
          to label %_ZN10ref_vectorI3app11ast_managerED2Ev.exit unwind label %terminate.lpad.i.i.i.i

terminate.lpad.i.i.i.i:                           ; preds = %if.then.i.i.i.i.i
  %20 = landingpad { ptr, i32 }
          catch ptr null
  %21 = extractvalue { ptr, i32 } %20, 0
  tail call void @__clang_call_terminate(ptr %21) #18
  unreachable

terminate.lpad.i.i:                               ; preds = %if.then2.i.i.i.i.i.i
  %22 = landingpad { ptr, i32 }
          catch ptr null
  %23 = extractvalue { ptr, i32 } %22, 0
  tail call void @__clang_call_terminate(ptr %23) #18
  unreachable

_ZN10ref_vectorI3app11ast_managerED2Ev.exit:      ; preds = %_ZN6vectorI8rationalLb1EjED2Ev.exit, %invoke.cont8.i.i, %if.then.i.i.i.i.i
  %m_tags = getelementptr inbounds %"class.spacer::lemma_global_generalizer::subsumer", ptr %this, i64 0, i32 4
  %m_nodes.i.i5 = getelementptr inbounds %"class.spacer::lemma_global_generalizer::subsumer", ptr %this, i64 0, i32 4, i32 0, i32 1
  %24 = load ptr, ptr %m_nodes.i.i5, align 8
  %cmp.i.i.i6 = icmp eq ptr %24, null
  br i1 %cmp.i.i.i6, label %_ZN10ref_vectorI3app11ast_managerED2Ev.exit29, label %_ZNK6vectorIP3appLb0EjE4sizeEv.exit.i.i7

_ZNK6vectorIP3appLb0EjE4sizeEv.exit.i.i7:         ; preds = %_ZN10ref_vectorI3app11ast_managerED2Ev.exit
  %arrayidx.i.i.i8 = getelementptr inbounds i32, ptr %24, i64 -1
  %25 = load i32, ptr %arrayidx.i.i.i8, align 4
  %26 = zext i32 %25 to i64
  %add.ptr.i.i9 = getelementptr inbounds ptr, ptr %24, i64 %26
  %cmp3.i.not.i.i10 = icmp eq i32 %25, 0
  br i1 %cmp3.i.not.i.i10, label %if.then.i.i.i.i.i24, label %for.body.i.i.i11

for.body.i.i.i11:                                 ; preds = %_ZNK6vectorIP3appLb0EjE4sizeEv.exit.i.i7, %_ZN15ref_vector_coreI3app19ref_manager_wrapperIS0_11ast_managerEE7dec_refEPS0_.exit.i.i.i18
  %it.04.i.i.i12 = phi ptr [ %incdec.ptr.i.i.i19, %_ZN15ref_vector_coreI3app19ref_manager_wrapperIS0_11ast_managerEE7dec_refEPS0_.exit.i.i.i18 ], [ %24, %_ZNK6vectorIP3appLb0EjE4sizeEv.exit.i.i7 ]
  %27 = load ptr, ptr %it.04.i.i.i12, align 8
  %28 = load ptr, ptr %m_tags, align 8
  %tobool.not.i.i.i.i.i.i13 = icmp eq ptr %27, null
  br i1 %tobool.not.i.i.i.i.i.i13, label %_ZN15ref_vector_coreI3app19ref_manager_wrapperIS0_11ast_managerEE7dec_refEPS0_.exit.i.i.i18, label %if.then.i.i.i.i.i.i14

if.then.i.i.i.i.i.i14:                            ; preds = %for.body.i.i.i11
  %m_ref_count.i.i.i.i.i.i.i15 = getelementptr inbounds %class.ast, ptr %27, i64 0, i32 2
  %29 = load i32, ptr %m_ref_count.i.i.i.i.i.i.i15, align 4
  %dec.i.i.i.i.i.i.i16 = add i32 %29, -1
  store i32 %dec.i.i.i.i.i.i.i16, ptr %m_ref_count.i.i.i.i.i.i.i15, align 4
  %cmp.i.i.i.i.i.i17 = icmp eq i32 %dec.i.i.i.i.i.i.i16, 0
  br i1 %cmp.i.i.i.i.i.i17, label %if.then2.i.i.i.i.i.i27, label %_ZN15ref_vector_coreI3app19ref_manager_wrapperIS0_11ast_managerEE7dec_refEPS0_.exit.i.i.i18

if.then2.i.i.i.i.i.i27:                           ; preds = %if.then.i.i.i.i.i.i14
  invoke void @_ZN11ast_manager11delete_nodeEP3ast(ptr noundef nonnull align 8 dereferenceable(976) %28, ptr noundef nonnull %27)
          to label %_ZN15ref_vector_coreI3app19ref_manager_wrapperIS0_11ast_managerEE7dec_refEPS0_.exit.i.i.i18 unwind label %terminate.lpad.i.i28

_ZN15ref_vector_coreI3app19ref_manager_wrapperIS0_11ast_managerEE7dec_refEPS0_.exit.i.i.i18: ; preds = %if.then2.i.i.i.i.i.i27, %if.then.i.i.i.i.i.i14, %for.body.i.i.i11
  %incdec.ptr.i.i.i19 = getelementptr inbounds ptr, ptr %it.04.i.i.i12, i64 1
  %cmp.i1.i.i20 = icmp ult ptr %incdec.ptr.i.i.i19, %add.ptr.i.i9
  br i1 %cmp.i1.i.i20, label %for.body.i.i.i11, label %invoke.cont8.i.i21, !llvm.loop !6

invoke.cont8.i.i21:                               ; preds = %_ZN15ref_vector_coreI3app19ref_manager_wrapperIS0_11ast_managerEE7dec_refEPS0_.exit.i.i.i18
  %.pre.i.i22 = load ptr, ptr %m_nodes.i.i5, align 8
  %tobool.not.i.i.i.i.i23 = icmp eq ptr %.pre.i.i22, null
  br i1 %tobool.not.i.i.i.i.i23, label %_ZN10ref_vectorI3app11ast_managerED2Ev.exit29, label %if.then.i.i.i.i.i24

if.then.i.i.i.i.i24:                              ; preds = %invoke.cont8.i.i21, %_ZNK6vectorIP3appLb0EjE4sizeEv.exit.i.i7
  %30 = phi ptr [ %.pre.i.i22, %invoke.cont8.i.i21 ], [ %24, %_ZNK6vectorIP3appLb0EjE4sizeEv.exit.i.i7 ]
  %add.ptr.i.i.i.i.i.i25 = getelementptr inbounds i32, ptr %30, i64 -2
  invoke void @_ZN6memory10deallocateEPv(ptr noundef nonnull %add.ptr.i.i.i.i.i.i25)
          to label %_ZN10ref_vectorI3app11ast_managerED2Ev.exit29 unwind label %terminate.lpad.i.i.i.i26

terminate.lpad.i.i.i.i26:                         ; preds = %if.then.i.i.i.i.i24
  %31 = landingpad { ptr, i32 }
          catch ptr null
  %32 = extractvalue { ptr, i32 } %31, 0
  tail call void @__clang_call_terminate(ptr %32) #18
  unreachable

terminate.lpad.i.i28:                             ; preds = %if.then2.i.i.i.i.i.i27
  %33 = landingpad { ptr, i32 }
          catch ptr null
  %34 = extractvalue { ptr, i32 } %33, 0
  tail call void @__clang_call_terminate(ptr %34) #18
  unreachable

_ZN10ref_vectorI3app11ast_managerED2Ev.exit29:    ; preds = %_ZN10ref_vectorI3app11ast_managerED2Ev.exit, %invoke.cont8.i.i21, %if.then.i.i.i.i.i24
  ret void
}

; Function Attrs: mustprogress uwtable
define hidden void @_ZN6spacer24lemma_global_generalizerclER3refINS_5lemmaEE(ptr noundef nonnull align 8 dereferenceable(225) %this, ptr noundef nonnull align 8 dereferenceable(8) %lemma) unnamed_addr #3 align 2 personality ptr @__gxx_personality_v0 {
entry:
  %_w_ = alloca %struct.scoped_watch, align 8
  %watch = getelementptr inbounds %"class.spacer::lemma_global_generalizer", ptr %this, i64 0, i32 1, i32 6
  store ptr %watch, ptr %_w_, align 8
  %m_running.i.i = getelementptr inbounds %"class.spacer::lemma_global_generalizer", ptr %this, i64 0, i32 1, i32 6, i32 2
  %0 = load i8, ptr %m_running.i.i, align 8
  %1 = and i8 %0, 1
  %tobool.not.i.i = icmp eq i8 %1, 0
  br i1 %tobool.not.i.i, label %if.then.i.i, label %_ZN12scoped_watchC2ER9stopwatchb.exit

if.then.i.i:                                      ; preds = %entry
  %call.i.i.i = tail call i64 @_ZNSt6chrono3_V212steady_clock3nowEv() #17
  store i64 %call.i.i.i, ptr %watch, align 8
  store i8 1, ptr %m_running.i.i, align 8
  br label %_ZN12scoped_watchC2ER9stopwatchb.exit

_ZN12scoped_watchC2ER9stopwatchb.exit:            ; preds = %entry, %if.then.i.i
  invoke void @_ZN6spacer24lemma_global_generalizer10generalizeER3refINS_5lemmaEE(ptr noundef nonnull align 8 dereferenceable(225) %this, ptr noundef nonnull align 8 dereferenceable(8) %lemma)
          to label %invoke.cont unwind label %lpad

invoke.cont:                                      ; preds = %_ZN12scoped_watchC2ER9stopwatchb.exit
  %m_running.i.i1 = getelementptr inbounds %"class.spacer::lemma_global_generalizer", ptr %this, i64 0, i32 1, i32 6, i32 2
  %2 = load i8, ptr %m_running.i.i1, align 8
  %3 = and i8 %2, 1
  %tobool.not.i.i2 = icmp eq i8 %3, 0
  br i1 %tobool.not.i.i2, label %_ZN12scoped_watchD2Ev.exit, label %if.then.i.i3

if.then.i.i3:                                     ; preds = %invoke.cont
  %call.i.i.i4 = tail call i64 @_ZNSt6chrono3_V212steady_clock3nowEv() #17
  %retval.sroa.0.0.copyload.i1.i.i.i = load i64, ptr %watch, align 8
  %sub.i.i.i.i = sub i64 %call.i.i.i4, %retval.sroa.0.0.copyload.i1.i.i.i
  %m_elapsed.i.i = getelementptr inbounds %"class.spacer::lemma_global_generalizer", ptr %this, i64 0, i32 1, i32 6, i32 1
  %4 = load i64, ptr %m_elapsed.i.i, align 8
  %add.i.i.i = add nsw i64 %sub.i.i.i.i, %4
  store i64 %add.i.i.i, ptr %m_elapsed.i.i, align 8
  store i8 0, ptr %m_running.i.i1, align 8
  br label %_ZN12scoped_watchD2Ev.exit

_ZN12scoped_watchD2Ev.exit:                       ; preds = %invoke.cont, %if.then.i.i3
  ret void

lpad:                                             ; preds = %_ZN12scoped_watchC2ER9stopwatchb.exit
  %5 = landingpad { ptr, i32 }
          cleanup
  call void @_ZN12scoped_watchD2Ev(ptr noundef nonnull align 8 dereferenceable(8) %_w_) #17
  resume { ptr, i32 } %5
}

; Function Attrs: mustprogress uwtable
define hidden void @_ZN6spacer24lemma_global_generalizer10generalizeER3refINS_5lemmaEE(ptr noundef nonnull align 8 dereferenceable(225) %this, ptr noundef nonnull align 8 dereferenceable(8) %lemma) local_unnamed_addr #3 align 2 personality ptr @__gxx_personality_v0 {
entry:
  %lc = alloca %"class.spacer::lemma_cluster", align 8
  %lit = alloca %class.obj_ref.51, align 8
  %new_post = alloca %class.ref_vector.53, align 8
  %bindings = alloca %class.ref_vector, align 8
  %new_pob = alloca %class.scoped_ptr.114, align 8
  %ref.tmp126 = alloca %class.obj_ref.51, align 8
  %0 = load ptr, ptr %lemma, align 8
  %m_pob.i = getelementptr inbounds %"class.spacer::lemma", ptr %0, i64 0, i32 7
  %1 = load ptr, ptr %m_pob.i, align 8
  %m_pt.i = getelementptr inbounds %"class.spacer::pob", ptr %1, i64 0, i32 2
  %2 = load ptr, ptr %m_pt.i, align 8
  %call5 = tail call noundef ptr @_ZN6spacer16pred_transformer11clstr_matchERK3refINS_5lemmaEE(ptr noundef nonnull align 8 dereferenceable(472) %2, ptr noundef nonnull align 8 dereferenceable(8) %lemma)
  %tobool.not = icmp eq ptr %call5, null
  br i1 %tobool.not, label %cleanup.cont161, label %if.end

if.end:                                           ; preds = %entry
  %m_gas.i = getelementptr inbounds %"class.spacer::lemma_cluster", ptr %call5, i64 0, i32 10
  %3 = load i32, ptr %m_gas.i, align 8
  %cmp = icmp eq i32 %3, 0
  br i1 %cmp, label %if.then7, label %if.end9

if.then7:                                         ; preds = %if.end
  %m_st = getelementptr inbounds %"class.spacer::lemma_global_generalizer", ptr %this, i64 0, i32 1
  %4 = load i32, ptr %m_st, align 8
  %inc = add i32 %4, 1
  store i32 %inc, ptr %m_st, align 8
  %5 = load ptr, ptr %m_pob.i, align 8
  %m_enable_local_gen.i = getelementptr inbounds %"class.spacer::pob", ptr %5, i64 0, i32 6
  %bf.load.i = load i64, ptr %m_enable_local_gen.i, align 8
  %bf.clear.i = and i64 %bf.load.i, -4503599627370497
  store i64 %bf.clear.i, ptr %m_enable_local_gen.i, align 8
  br label %cleanup.cont161

if.end9:                                          ; preds = %if.end
  call void @_ZN6spacer13lemma_clusterC1ERKS0_(ptr noundef nonnull align 8 dereferenceable(148) %lc, ptr noundef nonnull align 8 dereferenceable(148) %call5)
  %call10 = invoke noundef zeroext i1 @_ZN6spacer13lemma_cluster9add_lemmaERK3refINS_5lemmaEEb(ptr noundef nonnull align 8 dereferenceable(148) %lc, ptr noundef nonnull align 8 dereferenceable(8) %lemma, i1 noundef zeroext true)
          to label %invoke.cont unwind label %lpad

invoke.cont:                                      ; preds = %if.end9
  %m_pattern.i = getelementptr inbounds %"class.spacer::lemma_cluster", ptr %lc, i64 0, i32 5
  %6 = load ptr, ptr %m_pattern.i, align 8
  %m = getelementptr inbounds %"class.spacer::lemma_global_generalizer", ptr %this, i64 0, i32 2
  %7 = load ptr, ptr %m, align 8
  %call16 = invoke noundef zeroext i1 @_ZN6spacer21has_nonlinear_var_mulEP4exprR11ast_manager(ptr noundef %6, ptr noundef nonnull align 8 dereferenceable(976) %7)
          to label %invoke.cont15 unwind label %lpad

invoke.cont15:                                    ; preds = %invoke.cont
  br i1 %call16, label %if.then17, label %if.end32

if.then17:                                        ; preds = %invoke.cont15
  %m_num_non_lin = getelementptr inbounds %"class.spacer::lemma_global_generalizer", ptr %this, i64 0, i32 1, i32 3
  %8 = load i32, ptr %m_num_non_lin, align 4
  %inc19 = add i32 %8, 1
  store i32 %inc19, ptr %m_num_non_lin, align 4
  %9 = load ptr, ptr %m_pob.i, align 8
  %m_concretize_pat.i = getelementptr inbounds %"class.spacer::pob", ptr %9, i64 0, i32 12
  %10 = load ptr, ptr %m_concretize_pat.i, align 8
  %11 = load ptr, ptr %m_pattern.i, align 8
  %cmp.not.i.i = icmp eq ptr %10, %11
  br i1 %cmp.not.i.i, label %invoke.cont22, label %if.then.i.i

if.then.i.i:                                      ; preds = %if.then17
  %tobool.not.i.i.i = icmp eq ptr %10, null
  br i1 %tobool.not.i.i.i, label %_ZN7obj_refI4expr11ast_managerE7dec_refEv.exit.i.i, label %if.then.i.i.i.i

if.then.i.i.i.i:                                  ; preds = %if.then.i.i
  %m_manager.i.i.i = getelementptr inbounds %"class.spacer::pob", ptr %9, i64 0, i32 12, i32 1
  %12 = load ptr, ptr %m_manager.i.i.i, align 8
  %m_ref_count.i.i.i.i.i = getelementptr inbounds %class.ast, ptr %10, i64 0, i32 2
  %13 = load i32, ptr %m_ref_count.i.i.i.i.i, align 4
  %dec.i.i.i.i.i = add i32 %13, -1
  store i32 %dec.i.i.i.i.i, ptr %m_ref_count.i.i.i.i.i, align 4
  %cmp.i.i.i.i = icmp eq i32 %dec.i.i.i.i.i, 0
  br i1 %cmp.i.i.i.i, label %if.then2.i.i.i.i, label %_ZN7obj_refI4expr11ast_managerE7dec_refEv.exitthread-pre-split.i.i

if.then2.i.i.i.i:                                 ; preds = %if.then.i.i.i.i
  invoke void @_ZN11ast_manager11delete_nodeEP3ast(ptr noundef nonnull align 8 dereferenceable(976) %12, ptr noundef nonnull %10)
          to label %_ZN7obj_refI4expr11ast_managerE7dec_refEv.exitthread-pre-split.i.i unwind label %lpad

_ZN7obj_refI4expr11ast_managerE7dec_refEv.exitthread-pre-split.i.i: ; preds = %if.then2.i.i.i.i, %if.then.i.i.i.i
  %.pr.i.i = load ptr, ptr %m_pattern.i, align 8
  br label %_ZN7obj_refI4expr11ast_managerE7dec_refEv.exit.i.i

_ZN7obj_refI4expr11ast_managerE7dec_refEv.exit.i.i: ; preds = %_ZN7obj_refI4expr11ast_managerE7dec_refEv.exitthread-pre-split.i.i, %if.then.i.i
  %14 = phi ptr [ %.pr.i.i, %_ZN7obj_refI4expr11ast_managerE7dec_refEv.exitthread-pre-split.i.i ], [ %11, %if.then.i.i ]
  store ptr %14, ptr %m_concretize_pat.i, align 8
  %tobool.not.i2.i.i = icmp eq ptr %14, null
  br i1 %tobool.not.i2.i.i, label %invoke.cont22, label %_ZN11ast_manager7inc_refEP3ast.exit.i.i.i

_ZN11ast_manager7inc_refEP3ast.exit.i.i.i:        ; preds = %_ZN7obj_refI4expr11ast_managerE7dec_refEv.exit.i.i
  %m_ref_count.i.i.i3.i.i = getelementptr inbounds %class.ast, ptr %14, i64 0, i32 2
  %15 = load i32, ptr %m_ref_count.i.i.i3.i.i, align 4
  %inc.i.i.i.i.i = add i32 %15, 1
  store i32 %inc.i.i.i.i.i, ptr %m_ref_count.i.i.i3.i.i, align 4
  br label %invoke.cont22

invoke.cont22:                                    ; preds = %_ZN11ast_manager7inc_refEP3ast.exit.i.i.i, %_ZN7obj_refI4expr11ast_managerE7dec_refEv.exit.i.i, %if.then17
  %16 = load ptr, ptr %m_pob.i, align 8
  %m_enable_concretize.i = getelementptr inbounds %"class.spacer::pob", ptr %16, i64 0, i32 6
  %bf.load.i42 = load i64, ptr %m_enable_concretize.i, align 8
  %bf.set.i = or i64 %bf.load.i42, 9007199254740992
  store i64 %bf.set.i, ptr %m_enable_concretize.i, align 8
  %17 = load ptr, ptr %m_pob.i, align 8
  %m_lemma_vec.i = getelementptr inbounds %"class.spacer::lemma_cluster", ptr %call5, i64 0, i32 8
  %18 = load ptr, ptr %m_lemma_vec.i, align 8
  %cmp.i.i = icmp eq ptr %18, null
  br i1 %cmp.i.i, label %invoke.cont28, label %if.end.i.i

if.end.i.i:                                       ; preds = %invoke.cont22
  %arrayidx.i.i = getelementptr inbounds i32, ptr %18, i64 -1
  %19 = load i32, ptr %arrayidx.i.i, align 4
  %20 = mul i32 %19, 5
  br label %invoke.cont28

invoke.cont28:                                    ; preds = %if.end.i.i, %invoke.cont22
  %retval.0.i.i = phi i32 [ %20, %if.end.i.i ], [ 0, %invoke.cont22 ]
  %m_gas.i44 = getelementptr inbounds %"class.spacer::pob", ptr %17, i64 0, i32 13
  store i32 %retval.0.i.i, ptr %m_gas.i44, align 8
  %21 = load i32, ptr %m_gas.i, align 8
  %cmp.not.i = icmp eq i32 %21, 0
  br i1 %cmp.not.i, label %cleanup159, label %if.then.i

if.then.i:                                        ; preds = %invoke.cont28
  %dec.i = add i32 %21, -1
  store i32 %dec.i, ptr %m_gas.i, align 8
  br label %cleanup159

lpad:                                             ; preds = %if.then2.i.i.i.i, %invoke.cont, %if.end9
  %22 = landingpad { ptr, i32 }
          cleanup
  br label %ehcleanup162

if.end32:                                         ; preds = %invoke.cont15
  %23 = load ptr, ptr %m, align 8
  store ptr null, ptr %lit, align 8
  %m_manager.i = getelementptr inbounds %class.obj_ref.51, ptr %lit, i64 0, i32 1
  store ptr %23, ptr %m_manager.i, align 8
  %call37 = invoke noundef zeroext i1 @_ZN6spacer24find_unique_mono_var_litERK7obj_refI4expr11ast_managerERS3_(ptr noundef nonnull align 8 dereferenceable(16) %m_pattern.i, ptr noundef nonnull align 8 dereferenceable(16) %lit)
          to label %invoke.cont36 unwind label %lpad35

invoke.cont36:                                    ; preds = %if.end32
  br i1 %call37, label %if.then38, label %if.end57

if.then38:                                        ; preds = %invoke.cont36
  %m_lemma_vec.i46 = getelementptr inbounds %"class.spacer::lemma_cluster", ptr %call5, i64 0, i32 8
  %24 = load ptr, ptr %m_lemma_vec.i46, align 8
  %cmp.i.i47 = icmp eq ptr %24, null
  br i1 %cmp.i.i47, label %invoke.cont39, label %if.end.i.i48

if.end.i.i48:                                     ; preds = %if.then38
  %arrayidx.i.i49 = getelementptr inbounds i32, ptr %24, i64 -1
  %25 = load i32, ptr %arrayidx.i.i49, align 4
  %26 = mul i32 %25, 5
  br label %invoke.cont39

invoke.cont39:                                    ; preds = %if.end.i.i48, %if.then38
  %retval.0.i.i50 = phi i32 [ %26, %if.end.i.i48 ], [ 0, %if.then38 ]
  %call42 = invoke noundef i32 @_ZN6spacer13lemma_cluster11get_min_lvlEv(ptr noundef nonnull align 8 dereferenceable(148) %lc)
          to label %invoke.cont41 unwind label %lpad35

invoke.cont41:                                    ; preds = %invoke.cont39
  %27 = load ptr, ptr %m_pob.i, align 8
  %cmp.i.not = icmp eq ptr %27, null
  br i1 %cmp.i.not, label %if.end52, label %if.then45

if.then45:                                        ; preds = %invoke.cont41
  %m_level.i = getelementptr inbounds %"class.spacer::pob", ptr %27, i64 0, i32 6
  %bf.load.i52 = load i64, ptr %m_level.i, align 8
  %28 = trunc i64 %bf.load.i52 to i32
  %bf.cast.i = and i32 %28, 65535
  %.sroa.speculated146 = call i32 @llvm.umin.i32(i32 %bf.cast.i, i32 %call42)
  br label %if.end52

lpad35:                                           ; preds = %if.end52, %invoke.cont39, %if.end32
  %29 = landingpad { ptr, i32 }
          cleanup
  br label %ehcleanup158

if.end52:                                         ; preds = %if.then45, %invoke.cont41
  %lvl.0 = phi i32 [ %.sroa.speculated146, %if.then45 ], [ %call42, %invoke.cont41 ]
  %call54 = invoke noundef zeroext i1 @_ZN6spacer24lemma_global_generalizer13do_conjectureER3refINS_3pobEERS1_INS_5lemmaEERK7obj_refI4expr11ast_managerEjj(ptr noundef nonnull align 8 dereferenceable(225) %this, ptr noundef nonnull align 8 dereferenceable(8) %m_pob.i, ptr noundef nonnull align 8 dereferenceable(8) %lemma, ptr noundef nonnull align 8 dereferenceable(16) %lit, i32 noundef %lvl.0, i32 noundef %retval.0.i.i50)
          to label %invoke.cont53 unwind label %lpad35

invoke.cont53:                                    ; preds = %if.end52
  br i1 %call54, label %if.then55, label %cleanup157

if.then55:                                        ; preds = %invoke.cont53
  %30 = load i32, ptr %m_gas.i, align 8
  %cmp.not.i55 = icmp eq i32 %30, 0
  br i1 %cmp.not.i55, label %cleanup157, label %if.then.i56

if.then.i56:                                      ; preds = %if.then55
  %dec.i57 = add i32 %30, -1
  store i32 %dec.i57, ptr %m_gas.i, align 8
  br label %cleanup157

if.end57:                                         ; preds = %invoke.cont36
  %m_lemma_vec.i59 = getelementptr inbounds %"class.spacer::lemma_cluster", ptr %lc, i64 0, i32 8
  %31 = load ptr, ptr %m_lemma_vec.i59, align 8
  %cmp.i.i60 = icmp eq ptr %31, null
  br i1 %cmp.i.i60, label %cleanup157, label %_ZNK6spacer13lemma_cluster8get_sizeEv.exit

_ZNK6spacer13lemma_cluster8get_sizeEv.exit:       ; preds = %if.end57
  %arrayidx.i.i62 = getelementptr inbounds i32, ptr %31, i64 -1
  %32 = load i32, ptr %arrayidx.i.i62, align 4
  %cmp60 = icmp ult i32 %32, 2
  br i1 %cmp60, label %cleanup157, label %if.end62

if.end62:                                         ; preds = %_ZNK6spacer13lemma_cluster8get_sizeEv.exit
  %m_do_subsume = getelementptr inbounds %"class.spacer::lemma_global_generalizer", ptr %this, i64 0, i32 4
  %33 = load i8, ptr %m_do_subsume, align 8
  %34 = and i8 %33, 1
  %tobool63.not = icmp eq i8 %34, 0
  br i1 %tobool63.not, label %cleanup157, label %invoke.cont67

invoke.cont67:                                    ; preds = %if.end62
  %35 = load ptr, ptr %m, align 8
  %36 = ptrtoint ptr %35 to i64
  store i64 %36, ptr %new_post, align 8
  %m_nodes.i.i = getelementptr inbounds %class.ref_vector_core.54, ptr %new_post, i64 0, i32 1
  store ptr null, ptr %m_nodes.i.i, align 8
  %37 = load ptr, ptr %lemma, align 8
  %m_bindings.i = getelementptr inbounds %"class.spacer::lemma", ptr %37, i64 0, i32 6
  %38 = load ptr, ptr %m_bindings.i, align 8
  %39 = ptrtoint ptr %38 to i64
  store i64 %39, ptr %bindings, align 8
  %m_nodes.i.i64 = getelementptr inbounds %class.ref_vector_core, ptr %bindings, i64 0, i32 1
  store ptr null, ptr %m_nodes.i.i64, align 8
  %m_nodes.i.i.i = getelementptr inbounds %"class.spacer::lemma", ptr %37, i64 0, i32 6, i32 0, i32 1
  br label %for.cond.i.i

for.cond.i.i:                                     ; preds = %_ZN15ref_vector_coreI3app19ref_manager_wrapperIS0_11ast_managerEE9push_backEPS0_.exit.i.i, %invoke.cont67
  %indvars.iv.i.i = phi i64 [ %indvars.iv.next.i.i, %_ZN15ref_vector_coreI3app19ref_manager_wrapperIS0_11ast_managerEE9push_backEPS0_.exit.i.i ], [ 0, %invoke.cont67 ]
  %40 = load ptr, ptr %m_nodes.i.i.i, align 8
  %cmp.i.i.i.i65 = icmp eq ptr %40, null
  br i1 %cmp.i.i.i.i65, label %_ZNK15ref_vector_coreI3app19ref_manager_wrapperIS0_11ast_managerEE4sizeEv.exit.i.i, label %if.end.i.i.i.i

if.end.i.i.i.i:                                   ; preds = %for.cond.i.i
  %arrayidx.i.i.i.i = getelementptr inbounds i32, ptr %40, i64 -1
  %41 = load i32, ptr %arrayidx.i.i.i.i, align 4
  br label %_ZNK15ref_vector_coreI3app19ref_manager_wrapperIS0_11ast_managerEE4sizeEv.exit.i.i

_ZNK15ref_vector_coreI3app19ref_manager_wrapperIS0_11ast_managerEE4sizeEv.exit.i.i: ; preds = %if.end.i.i.i.i, %for.cond.i.i
  %retval.0.i.i.i.i = phi i32 [ %41, %if.end.i.i.i.i ], [ 0, %for.cond.i.i ]
  %42 = zext i32 %retval.0.i.i.i.i to i64
  %cmp.i.i66 = icmp ult i64 %indvars.iv.i.i, %42
  br i1 %cmp.i.i66, label %for.body.i.i, label %invoke.cont73

for.body.i.i:                                     ; preds = %_ZNK15ref_vector_coreI3app19ref_manager_wrapperIS0_11ast_managerEE4sizeEv.exit.i.i
  %arrayidx.i.i5.i.i = getelementptr inbounds ptr, ptr %40, i64 %indvars.iv.i.i
  %43 = load ptr, ptr %arrayidx.i.i5.i.i, align 8
  %tobool.not.i.i.i.i.i.i = icmp eq ptr %43, null
  br i1 %tobool.not.i.i.i.i.i.i, label %_ZN15ref_vector_coreI3app19ref_manager_wrapperIS0_11ast_managerEE7inc_refEPS0_.exit.i.i.i, label %if.then.i.i.i.i.i.i

if.then.i.i.i.i.i.i:                              ; preds = %for.body.i.i
  %m_ref_count.i.i.i.i.i.i.i = getelementptr inbounds %class.ast, ptr %43, i64 0, i32 2
  %44 = load i32, ptr %m_ref_count.i.i.i.i.i.i.i, align 4
  %inc.i.i.i.i.i.i.i = add i32 %44, 1
  store i32 %inc.i.i.i.i.i.i.i, ptr %m_ref_count.i.i.i.i.i.i.i, align 4
  br label %_ZN15ref_vector_coreI3app19ref_manager_wrapperIS0_11ast_managerEE7inc_refEPS0_.exit.i.i.i

_ZN15ref_vector_coreI3app19ref_manager_wrapperIS0_11ast_managerEE7inc_refEPS0_.exit.i.i.i: ; preds = %if.then.i.i.i.i.i.i, %for.body.i.i
  %45 = load ptr, ptr %m_nodes.i.i64, align 8
  %cmp.i.i7.i.i = icmp eq ptr %45, null
  br i1 %cmp.i.i7.i.i, label %if.then.i.i.i.i67, label %lor.lhs.false.i.i.i.i

lor.lhs.false.i.i.i.i:                            ; preds = %_ZN15ref_vector_coreI3app19ref_manager_wrapperIS0_11ast_managerEE7inc_refEPS0_.exit.i.i.i
  %arrayidx.i.i8.i.i = getelementptr inbounds i32, ptr %45, i64 -1
  %46 = load i32, ptr %arrayidx.i.i8.i.i, align 4
  %arrayidx4.i.i.i.i = getelementptr inbounds i32, ptr %45, i64 -2
  %47 = load i32, ptr %arrayidx4.i.i.i.i, align 4
  %cmp5.i.i.i.i = icmp eq i32 %46, %47
  br i1 %cmp5.i.i.i.i, label %if.then.i.i.i.i67, label %_ZN15ref_vector_coreI3app19ref_manager_wrapperIS0_11ast_managerEE9push_backEPS0_.exit.i.i

if.then.i.i.i.i67:                                ; preds = %lor.lhs.false.i.i.i.i, %_ZN15ref_vector_coreI3app19ref_manager_wrapperIS0_11ast_managerEE7inc_refEPS0_.exit.i.i.i
  invoke void @_ZN6vectorIP3appLb0EjE13expand_vectorEv(ptr noundef nonnull align 8 dereferenceable(8) %m_nodes.i.i64)
          to label %.noexc.i unwind label %lpad.i

.noexc.i:                                         ; preds = %if.then.i.i.i.i67
  %.pre.i.i.i.i = load ptr, ptr %m_nodes.i.i64, align 8
  %arrayidx8.phi.trans.insert.i.i.i.i = getelementptr inbounds i32, ptr %.pre.i.i.i.i, i64 -1
  %.pre1.i.i.i.i = load i32, ptr %arrayidx8.phi.trans.insert.i.i.i.i, align 4
  br label %_ZN15ref_vector_coreI3app19ref_manager_wrapperIS0_11ast_managerEE9push_backEPS0_.exit.i.i

_ZN15ref_vector_coreI3app19ref_manager_wrapperIS0_11ast_managerEE9push_backEPS0_.exit.i.i: ; preds = %.noexc.i, %lor.lhs.false.i.i.i.i
  %48 = phi i32 [ %.pre1.i.i.i.i, %.noexc.i ], [ %46, %lor.lhs.false.i.i.i.i ]
  %49 = phi ptr [ %.pre.i.i.i.i, %.noexc.i ], [ %45, %lor.lhs.false.i.i.i.i ]
  %idx.ext.i.i.i.i = zext i32 %48 to i64
  %add.ptr.i.i.i.i = getelementptr inbounds ptr, ptr %49, i64 %idx.ext.i.i.i.i
  store ptr %43, ptr %add.ptr.i.i.i.i, align 8
  %50 = load ptr, ptr %m_nodes.i.i64, align 8
  %arrayidx10.i.i.i.i = getelementptr inbounds i32, ptr %50, i64 -1
  %51 = load i32, ptr %arrayidx10.i.i.i.i, align 4
  %inc.i.i.i.i = add i32 %51, 1
  store i32 %inc.i.i.i.i, ptr %arrayidx10.i.i.i.i, align 4
  %indvars.iv.next.i.i = add nuw nsw i64 %indvars.iv.i.i, 1
  br label %for.cond.i.i, !llvm.loop !7

lpad.i:                                           ; preds = %if.then.i.i.i.i67
  %52 = landingpad { ptr, i32 }
          cleanup
  call void @_ZN15ref_vector_coreI3app19ref_manager_wrapperIS0_11ast_managerEED2Ev(ptr noundef nonnull align 8 dereferenceable(16) %bindings) #17
  br label %ehcleanup156

invoke.cont73:                                    ; preds = %_ZNK15ref_vector_coreI3app19ref_manager_wrapperIS0_11ast_managerEE4sizeEv.exit.i.i
  %m_subsumer = getelementptr inbounds %"class.spacer::lemma_global_generalizer", ptr %this, i64 0, i32 3
  %call76 = invoke noundef zeroext i1 @_ZN6spacer24lemma_global_generalizer8subsumer7subsumeERKNS_13lemma_clusterER10ref_vectorI4expr11ast_managerERS5_I3appS7_E(ptr noundef nonnull align 8 dereferenceable(152) %m_subsumer, ptr noundef nonnull align 8 dereferenceable(148) %lc, ptr noundef nonnull align 8 dereferenceable(16) %new_post, ptr nonnull align 8 poison)
          to label %invoke.cont75 unwind label %lpad74

invoke.cont75:                                    ; preds = %invoke.cont73
  br i1 %call76, label %if.then77, label %cleanup153

if.then77:                                        ; preds = %invoke.cont75
  %53 = load ptr, ptr %m_pob.i, align 8
  %m_parent.i = getelementptr inbounds %"class.spacer::pob", ptr %53, i64 0, i32 1
  %54 = load ptr, ptr %m_parent.i, align 8
  br label %invoke.cont82

invoke.cont82:                                    ; preds = %invoke.cont82, %if.then77
  %root.0 = phi ptr [ %54, %if.then77 ], [ %55, %invoke.cont82 ]
  %m_parent.i68 = getelementptr inbounds %"class.spacer::pob", ptr %root.0, i64 0, i32 1
  %55 = load ptr, ptr %m_parent.i68, align 8
  %tobool84.not = icmp eq ptr %55, null
  br i1 %tobool84.not, label %while.end, label %invoke.cont82

lpad74:                                           ; preds = %invoke.cont100, %if.end99, %while.end, %invoke.cont73
  %56 = landingpad { ptr, i32 }
          cleanup
  br label %ehcleanup154

while.end:                                        ; preds = %invoke.cont82
  %call88 = invoke noundef i32 @_ZN6spacer13lemma_cluster11get_min_lvlEv(ptr noundef nonnull align 8 dereferenceable(148) %lc)
          to label %invoke.cont87 unwind label %lpad74

invoke.cont87:                                    ; preds = %while.end
  %57 = load ptr, ptr %m_pob.i, align 8
  %cmp.i70.not = icmp eq ptr %57, null
  br i1 %cmp.i70.not, label %if.end99, label %if.then91

if.then91:                                        ; preds = %invoke.cont87
  %m_level.i71 = getelementptr inbounds %"class.spacer::pob", ptr %57, i64 0, i32 6
  %bf.load.i72 = load i64, ptr %m_level.i71, align 8
  %58 = trunc i64 %bf.load.i72 to i32
  %bf.cast.i73 = and i32 %58, 65535
  %.sroa.speculated = call i32 @llvm.umin.i32(i32 %bf.cast.i73, i32 %call88)
  br label %if.end99

if.end99:                                         ; preds = %if.then91, %invoke.cont87
  %new_lvl.0 = phi i32 [ %.sroa.speculated, %if.then91 ], [ %call88, %invoke.cont87 ]
  %call101 = invoke noalias noundef ptr @_ZN6memory8allocateEm(i64 noundef 152)
          to label %invoke.cont100 unwind label %lpad74

invoke.cont100:                                   ; preds = %if.end99
  %59 = load ptr, ptr %m_pob.i, align 8
  %m_pt.i76 = getelementptr inbounds %"class.spacer::pob", ptr %59, i64 0, i32 2
  %60 = load ptr, ptr %m_pt.i76, align 8
  %m_depth.i = getelementptr inbounds %"class.spacer::pob", ptr %59, i64 0, i32 6
  %bf.load.i77 = load i64, ptr %m_depth.i, align 8
  %61 = trunc i64 %bf.load.i77 to i32
  %62 = lshr i32 %61, 16
  invoke void @_ZN6spacer3pobC1EPS0_RNS_16pred_transformerEjjb(ptr noundef nonnull align 8 dereferenceable(152) %call101, ptr noundef nonnull %root.0, ptr noundef nonnull align 8 dereferenceable(472) %60, i32 noundef %new_lvl.0, i32 noundef %62, i1 noundef zeroext false)
          to label %if.end116 unwind label %lpad74

lpad112:                                          ; preds = %invoke.cont131, %if.end116
  %63 = landingpad { ptr, i32 }
          cleanup
  br label %ehcleanup

if.end116:                                        ; preds = %invoke.cont100
  store ptr %call101, ptr %new_pob, align 8
  %64 = load ptr, ptr %m_pob.i, align 8
  %m_level.i79 = getelementptr inbounds %"class.spacer::pob", ptr %64, i64 0, i32 6
  %bf.load.i80 = load i64, ptr %m_level.i79, align 8
  %m_desired_level.i = getelementptr inbounds %"class.spacer::pob", ptr %call101, i64 0, i32 6
  %bf.load.i82 = load i64, ptr %m_desired_level.i, align 8
  %bf.cast.i81 = shl i64 %bf.load.i80, 32
  %bf.shl.i = and i64 %bf.cast.i81, 281470681743360
  %bf.clear.i83 = and i64 %bf.load.i82, -281470681743361
  %bf.set.i84 = or disjoint i64 %bf.clear.i83, %bf.shl.i
  store i64 %bf.set.i84, ptr %m_desired_level.i, align 8
  invoke void @_Z6mk_andRK10ref_vectorI4expr11ast_managerE(ptr nonnull sret(%class.obj_ref.51) align 8 %ref.tmp126, ptr noundef nonnull align 8 dereferenceable(16) %new_post)
          to label %invoke.cont127 unwind label %lpad112

invoke.cont127:                                   ; preds = %if.end116
  %65 = load ptr, ptr %ref.tmp126, align 8
  invoke void @_ZN6spacer3pob8set_postEP4exprRK10ref_vectorI3app11ast_managerE(ptr noundef nonnull align 8 dereferenceable(152) %call101, ptr noundef %65, ptr noundef nonnull align 8 dereferenceable(16) %bindings)
          to label %invoke.cont131 unwind label %lpad128

invoke.cont131:                                   ; preds = %invoke.cont127
  call void @_ZN7obj_refI4expr11ast_managerED2Ev(ptr noundef nonnull align 8 dereferenceable(16) %ref.tmp126) #17
  %66 = load ptr, ptr %new_pob, align 8
  %m_is_subsume.i = getelementptr inbounds %"class.spacer::pob", ptr %66, i64 0, i32 6
  %bf.load.i85 = load i64, ptr %m_is_subsume.i, align 8
  %bf.set.i87 = or i64 %bf.load.i85, 18014398509481984
  store i64 %bf.set.i87, ptr %m_is_subsume.i, align 8
  %67 = load ptr, ptr %m_pob.i, align 8
  store ptr null, ptr %new_pob, align 8
  invoke void @_ZN6spacer3pob8set_dataEPS0_(ptr noundef nonnull align 8 dereferenceable(152) %67, ptr noundef nonnull %66)
          to label %invoke.cont139 unwind label %lpad112

invoke.cont139:                                   ; preds = %invoke.cont131
  %68 = load ptr, ptr %m_pob.i, align 8
  %m_lemma_vec.i88 = getelementptr inbounds %"class.spacer::lemma_cluster", ptr %call5, i64 0, i32 8
  %69 = load ptr, ptr %m_lemma_vec.i88, align 8
  %cmp.i.i89 = icmp eq ptr %69, null
  br i1 %cmp.i.i89, label %invoke.cont142, label %if.end.i.i90

if.end.i.i90:                                     ; preds = %invoke.cont139
  %arrayidx.i.i91 = getelementptr inbounds i32, ptr %69, i64 -1
  %70 = load i32, ptr %arrayidx.i.i91, align 4
  %71 = mul i32 %70, 5
  %72 = add i32 %71, 1
  br label %invoke.cont142

invoke.cont142:                                   ; preds = %if.end.i.i90, %invoke.cont139
  %retval.0.i.i92 = phi i32 [ %72, %if.end.i.i90 ], [ 1, %invoke.cont139 ]
  %m_gas.i94 = getelementptr inbounds %"class.spacer::pob", ptr %68, i64 0, i32 13
  store i32 %retval.0.i.i92, ptr %m_gas.i94, align 8
  %73 = load ptr, ptr %m_pob.i, align 8
  %m_enable_expand_bnd_gen.i = getelementptr inbounds %"class.spacer::pob", ptr %73, i64 0, i32 6
  %bf.load.i95 = load i64, ptr %m_enable_expand_bnd_gen.i, align 8
  %bf.set.i97 = or i64 %bf.load.i95, 36028797018963968
  store i64 %bf.set.i97, ptr %m_enable_expand_bnd_gen.i, align 8
  %74 = load ptr, ptr %m_pob.i, align 8
  %m_enable_local_gen.i98 = getelementptr inbounds %"class.spacer::pob", ptr %74, i64 0, i32 6
  %bf.load.i99 = load i64, ptr %m_enable_local_gen.i98, align 8
  %bf.clear.i100 = and i64 %bf.load.i99, -4503599627370497
  store i64 %bf.clear.i100, ptr %m_enable_local_gen.i98, align 8
  %75 = load i32, ptr %m_gas.i, align 8
  %cmp.not.i102 = icmp eq i32 %75, 0
  br i1 %cmp.not.i102, label %_ZN6spacer13lemma_cluster7dec_gasEv.exit105, label %if.then.i103

if.then.i103:                                     ; preds = %invoke.cont142
  %dec.i104 = add i32 %75, -1
  store i32 %dec.i104, ptr %m_gas.i, align 8
  br label %_ZN6spacer13lemma_cluster7dec_gasEv.exit105

_ZN6spacer13lemma_cluster7dec_gasEv.exit105:      ; preds = %invoke.cont142, %if.then.i103
  call void @_ZN10scoped_ptrIN6spacer3pobEED2Ev(ptr noundef nonnull align 8 dereferenceable(8) %new_pob) #17
  br label %cleanup153

lpad128:                                          ; preds = %invoke.cont127
  %76 = landingpad { ptr, i32 }
          cleanup
  call void @_ZN7obj_refI4expr11ast_managerED2Ev(ptr noundef nonnull align 8 dereferenceable(16) %ref.tmp126) #17
  br label %ehcleanup

ehcleanup:                                        ; preds = %lpad128, %lpad112
  %.pn = phi { ptr, i32 } [ %63, %lpad112 ], [ %76, %lpad128 ]
  call void @_ZN10scoped_ptrIN6spacer3pobEED2Ev(ptr noundef nonnull align 8 dereferenceable(8) %new_pob) #17
  br label %ehcleanup154

cleanup153:                                       ; preds = %_ZN6spacer13lemma_cluster7dec_gasEv.exit105, %invoke.cont75
  %77 = load ptr, ptr %m_nodes.i.i64, align 8
  %cmp.i.i.i = icmp eq ptr %77, null
  br i1 %cmp.i.i.i, label %_ZN10ref_vectorI3app11ast_managerED2Ev.exit, label %_ZNK6vectorIP3appLb0EjE4sizeEv.exit.i.i

_ZNK6vectorIP3appLb0EjE4sizeEv.exit.i.i:          ; preds = %cleanup153
  %arrayidx.i.i.i = getelementptr inbounds i32, ptr %77, i64 -1
  %78 = load i32, ptr %arrayidx.i.i.i, align 4
  %79 = zext i32 %78 to i64
  %add.ptr.i.i = getelementptr inbounds ptr, ptr %77, i64 %79
  %cmp3.i.not.i.i = icmp eq i32 %78, 0
  br i1 %cmp3.i.not.i.i, label %if.then.i.i.i.i.i, label %for.body.i.i.i

for.body.i.i.i:                                   ; preds = %_ZNK6vectorIP3appLb0EjE4sizeEv.exit.i.i, %_ZN15ref_vector_coreI3app19ref_manager_wrapperIS0_11ast_managerEE7dec_refEPS0_.exit.i.i.i
  %it.04.i.i.i = phi ptr [ %incdec.ptr.i.i.i, %_ZN15ref_vector_coreI3app19ref_manager_wrapperIS0_11ast_managerEE7dec_refEPS0_.exit.i.i.i ], [ %77, %_ZNK6vectorIP3appLb0EjE4sizeEv.exit.i.i ]
  %80 = load ptr, ptr %it.04.i.i.i, align 8
  %81 = load ptr, ptr %bindings, align 8
  %tobool.not.i.i.i.i.i.i107 = icmp eq ptr %80, null
  br i1 %tobool.not.i.i.i.i.i.i107, label %_ZN15ref_vector_coreI3app19ref_manager_wrapperIS0_11ast_managerEE7dec_refEPS0_.exit.i.i.i, label %if.then.i.i.i.i.i.i108

if.then.i.i.i.i.i.i108:                           ; preds = %for.body.i.i.i
  %m_ref_count.i.i.i.i.i.i.i109 = getelementptr inbounds %class.ast, ptr %80, i64 0, i32 2
  %82 = load i32, ptr %m_ref_count.i.i.i.i.i.i.i109, align 4
  %dec.i.i.i.i.i.i.i = add i32 %82, -1
  store i32 %dec.i.i.i.i.i.i.i, ptr %m_ref_count.i.i.i.i.i.i.i109, align 4
  %cmp.i.i.i.i.i.i = icmp eq i32 %dec.i.i.i.i.i.i.i, 0
  br i1 %cmp.i.i.i.i.i.i, label %if.then2.i.i.i.i.i.i, label %_ZN15ref_vector_coreI3app19ref_manager_wrapperIS0_11ast_managerEE7dec_refEPS0_.exit.i.i.i

if.then2.i.i.i.i.i.i:                             ; preds = %if.then.i.i.i.i.i.i108
  invoke void @_ZN11ast_manager11delete_nodeEP3ast(ptr noundef nonnull align 8 dereferenceable(976) %81, ptr noundef nonnull %80)
          to label %_ZN15ref_vector_coreI3app19ref_manager_wrapperIS0_11ast_managerEE7dec_refEPS0_.exit.i.i.i unwind label %terminate.lpad.i.i

_ZN15ref_vector_coreI3app19ref_manager_wrapperIS0_11ast_managerEE7dec_refEPS0_.exit.i.i.i: ; preds = %if.then2.i.i.i.i.i.i, %if.then.i.i.i.i.i.i108, %for.body.i.i.i
  %incdec.ptr.i.i.i = getelementptr inbounds ptr, ptr %it.04.i.i.i, i64 1
  %cmp.i1.i.i = icmp ult ptr %incdec.ptr.i.i.i, %add.ptr.i.i
  br i1 %cmp.i1.i.i, label %for.body.i.i.i, label %invoke.cont8.i.i, !llvm.loop !6

invoke.cont8.i.i:                                 ; preds = %_ZN15ref_vector_coreI3app19ref_manager_wrapperIS0_11ast_managerEE7dec_refEPS0_.exit.i.i.i
  %.pre.i.i = load ptr, ptr %m_nodes.i.i64, align 8
  %tobool.not.i.i.i.i.i = icmp eq ptr %.pre.i.i, null
  br i1 %tobool.not.i.i.i.i.i, label %_ZN10ref_vectorI3app11ast_managerED2Ev.exit, label %if.then.i.i.i.i.i

if.then.i.i.i.i.i:                                ; preds = %invoke.cont8.i.i, %_ZNK6vectorIP3appLb0EjE4sizeEv.exit.i.i
  %83 = phi ptr [ %.pre.i.i, %invoke.cont8.i.i ], [ %77, %_ZNK6vectorIP3appLb0EjE4sizeEv.exit.i.i ]
  %add.ptr.i.i.i.i.i.i = getelementptr inbounds i32, ptr %83, i64 -2
  invoke void @_ZN6memory10deallocateEPv(ptr noundef nonnull %add.ptr.i.i.i.i.i.i)
          to label %_ZN10ref_vectorI3app11ast_managerED2Ev.exit unwind label %terminate.lpad.i.i.i.i

terminate.lpad.i.i.i.i:                           ; preds = %if.then.i.i.i.i.i
  %84 = landingpad { ptr, i32 }
          catch ptr null
  %85 = extractvalue { ptr, i32 } %84, 0
  call void @__clang_call_terminate(ptr %85) #18
  unreachable

terminate.lpad.i.i:                               ; preds = %if.then2.i.i.i.i.i.i
  %86 = landingpad { ptr, i32 }
          catch ptr null
  %87 = extractvalue { ptr, i32 } %86, 0
  call void @__clang_call_terminate(ptr %87) #18
  unreachable

_ZN10ref_vectorI3app11ast_managerED2Ev.exit:      ; preds = %cleanup153, %invoke.cont8.i.i, %if.then.i.i.i.i.i
  %88 = load ptr, ptr %m_nodes.i.i, align 8
  %cmp.i.i.i111 = icmp eq ptr %88, null
  br i1 %cmp.i.i.i111, label %cleanup157, label %_ZNK6vectorIP4exprLb0EjE4sizeEv.exit.i.i

_ZNK6vectorIP4exprLb0EjE4sizeEv.exit.i.i:         ; preds = %_ZN10ref_vectorI3app11ast_managerED2Ev.exit
  %arrayidx.i.i.i112 = getelementptr inbounds i32, ptr %88, i64 -1
  %89 = load i32, ptr %arrayidx.i.i.i112, align 4
  %90 = zext i32 %89 to i64
  %add.ptr.i.i113 = getelementptr inbounds ptr, ptr %88, i64 %90
  %cmp3.i.not.i.i114 = icmp eq i32 %89, 0
  br i1 %cmp3.i.not.i.i114, label %if.then.i.i.i.i.i127, label %for.body.i.i.i115

for.body.i.i.i115:                                ; preds = %_ZNK6vectorIP4exprLb0EjE4sizeEv.exit.i.i, %_ZN15ref_vector_coreI4expr19ref_manager_wrapperIS0_11ast_managerEE7dec_refEPS0_.exit.i.i.i
  %it.04.i.i.i116 = phi ptr [ %incdec.ptr.i.i.i122, %_ZN15ref_vector_coreI4expr19ref_manager_wrapperIS0_11ast_managerEE7dec_refEPS0_.exit.i.i.i ], [ %88, %_ZNK6vectorIP4exprLb0EjE4sizeEv.exit.i.i ]
  %91 = load ptr, ptr %it.04.i.i.i116, align 8
  %92 = load ptr, ptr %new_post, align 8
  %tobool.not.i.i.i.i.i.i117 = icmp eq ptr %91, null
  br i1 %tobool.not.i.i.i.i.i.i117, label %_ZN15ref_vector_coreI4expr19ref_manager_wrapperIS0_11ast_managerEE7dec_refEPS0_.exit.i.i.i, label %if.then.i.i.i.i.i.i118

if.then.i.i.i.i.i.i118:                           ; preds = %for.body.i.i.i115
  %m_ref_count.i.i.i.i.i.i.i119 = getelementptr inbounds %class.ast, ptr %91, i64 0, i32 2
  %93 = load i32, ptr %m_ref_count.i.i.i.i.i.i.i119, align 4
  %dec.i.i.i.i.i.i.i120 = add i32 %93, -1
  store i32 %dec.i.i.i.i.i.i.i120, ptr %m_ref_count.i.i.i.i.i.i.i119, align 4
  %cmp.i.i.i.i.i.i121 = icmp eq i32 %dec.i.i.i.i.i.i.i120, 0
  br i1 %cmp.i.i.i.i.i.i121, label %if.then2.i.i.i.i.i.i130, label %_ZN15ref_vector_coreI4expr19ref_manager_wrapperIS0_11ast_managerEE7dec_refEPS0_.exit.i.i.i

if.then2.i.i.i.i.i.i130:                          ; preds = %if.then.i.i.i.i.i.i118
  invoke void @_ZN11ast_manager11delete_nodeEP3ast(ptr noundef nonnull align 8 dereferenceable(976) %92, ptr noundef nonnull %91)
          to label %_ZN15ref_vector_coreI4expr19ref_manager_wrapperIS0_11ast_managerEE7dec_refEPS0_.exit.i.i.i unwind label %terminate.lpad.i.i131

_ZN15ref_vector_coreI4expr19ref_manager_wrapperIS0_11ast_managerEE7dec_refEPS0_.exit.i.i.i: ; preds = %if.then2.i.i.i.i.i.i130, %if.then.i.i.i.i.i.i118, %for.body.i.i.i115
  %incdec.ptr.i.i.i122 = getelementptr inbounds ptr, ptr %it.04.i.i.i116, i64 1
  %cmp.i1.i.i123 = icmp ult ptr %incdec.ptr.i.i.i122, %add.ptr.i.i113
  br i1 %cmp.i1.i.i123, label %for.body.i.i.i115, label %invoke.cont8.i.i124, !llvm.loop !8

invoke.cont8.i.i124:                              ; preds = %_ZN15ref_vector_coreI4expr19ref_manager_wrapperIS0_11ast_managerEE7dec_refEPS0_.exit.i.i.i
  %.pre.i.i125 = load ptr, ptr %m_nodes.i.i, align 8
  %tobool.not.i.i.i.i.i126 = icmp eq ptr %.pre.i.i125, null
  br i1 %tobool.not.i.i.i.i.i126, label %cleanup157, label %if.then.i.i.i.i.i127

if.then.i.i.i.i.i127:                             ; preds = %invoke.cont8.i.i124, %_ZNK6vectorIP4exprLb0EjE4sizeEv.exit.i.i
  %94 = phi ptr [ %.pre.i.i125, %invoke.cont8.i.i124 ], [ %88, %_ZNK6vectorIP4exprLb0EjE4sizeEv.exit.i.i ]
  %add.ptr.i.i.i.i.i.i128 = getelementptr inbounds i32, ptr %94, i64 -2
  invoke void @_ZN6memory10deallocateEPv(ptr noundef nonnull %add.ptr.i.i.i.i.i.i128)
          to label %cleanup157 unwind label %terminate.lpad.i.i.i.i129

terminate.lpad.i.i.i.i129:                        ; preds = %if.then.i.i.i.i.i127
  %95 = landingpad { ptr, i32 }
          catch ptr null
  %96 = extractvalue { ptr, i32 } %95, 0
  call void @__clang_call_terminate(ptr %96) #18
  unreachable

terminate.lpad.i.i131:                            ; preds = %if.then2.i.i.i.i.i.i130
  %97 = landingpad { ptr, i32 }
          catch ptr null
  %98 = extractvalue { ptr, i32 } %97, 0
  call void @__clang_call_terminate(ptr %98) #18
  unreachable

cleanup157:                                       ; preds = %if.end57, %if.then.i.i.i.i.i127, %invoke.cont8.i.i124, %_ZN10ref_vectorI3app11ast_managerED2Ev.exit, %if.then.i56, %if.then55, %if.end62, %_ZNK6spacer13lemma_cluster8get_sizeEv.exit, %invoke.cont53
  %99 = load ptr, ptr %lit, align 8
  %tobool.not.i.i = icmp eq ptr %99, null
  br i1 %tobool.not.i.i, label %cleanup159, label %if.then.i.i.i

if.then.i.i.i:                                    ; preds = %cleanup157
  %100 = load ptr, ptr %m_manager.i, align 8
  %m_ref_count.i.i.i.i = getelementptr inbounds %class.ast, ptr %99, i64 0, i32 2
  %101 = load i32, ptr %m_ref_count.i.i.i.i, align 4
  %dec.i.i.i.i = add i32 %101, -1
  store i32 %dec.i.i.i.i, ptr %m_ref_count.i.i.i.i, align 4
  %cmp.i.i.i132 = icmp eq i32 %dec.i.i.i.i, 0
  br i1 %cmp.i.i.i132, label %if.then2.i.i.i, label %cleanup159

if.then2.i.i.i:                                   ; preds = %if.then.i.i.i
  invoke void @_ZN11ast_manager11delete_nodeEP3ast(ptr noundef nonnull align 8 dereferenceable(976) %100, ptr noundef nonnull %99)
          to label %cleanup159 unwind label %terminate.lpad.i

terminate.lpad.i:                                 ; preds = %if.then2.i.i.i
  %102 = landingpad { ptr, i32 }
          catch ptr null
  %103 = extractvalue { ptr, i32 } %102, 0
  call void @__clang_call_terminate(ptr %103) #18
  unreachable

cleanup159:                                       ; preds = %if.then2.i.i.i, %if.then.i.i.i, %cleanup157, %if.then.i, %invoke.cont28
  %m_matcher.i = getelementptr inbounds %"class.spacer::lemma_cluster", ptr %lc, i64 0, i32 9
  call void @_ZN6spacer11sem_matcherD2Ev(ptr noundef nonnull align 8 dereferenceable(56) %m_matcher.i) #17
  %m_lemma_vec.i133 = getelementptr inbounds %"class.spacer::lemma_cluster", ptr %lc, i64 0, i32 8
  call void @_ZN6vectorIN6spacer13lemma_cluster10lemma_infoELb1EjED2Ev(ptr noundef nonnull align 8 dereferenceable(8) %m_lemma_vec.i133) #17
  %104 = load ptr, ptr %m_pattern.i, align 8
  %tobool.not.i.i.i135 = icmp eq ptr %104, null
  br i1 %tobool.not.i.i.i135, label %cleanup.cont161, label %if.then.i.i.i.i136

if.then.i.i.i.i136:                               ; preds = %cleanup159
  %m_manager.i.i.i137 = getelementptr inbounds %"class.spacer::lemma_cluster", ptr %lc, i64 0, i32 5, i32 1
  %105 = load ptr, ptr %m_manager.i.i.i137, align 8
  %m_ref_count.i.i.i.i.i138 = getelementptr inbounds %class.ast, ptr %104, i64 0, i32 2
  %106 = load i32, ptr %m_ref_count.i.i.i.i.i138, align 4
  %dec.i.i.i.i.i139 = add i32 %106, -1
  store i32 %dec.i.i.i.i.i139, ptr %m_ref_count.i.i.i.i.i138, align 4
  %cmp.i.i.i.i140 = icmp eq i32 %dec.i.i.i.i.i139, 0
  br i1 %cmp.i.i.i.i140, label %if.then2.i.i.i.i141, label %cleanup.cont161

if.then2.i.i.i.i141:                              ; preds = %if.then.i.i.i.i136
  invoke void @_ZN11ast_manager11delete_nodeEP3ast(ptr noundef nonnull align 8 dereferenceable(976) %105, ptr noundef nonnull %104)
          to label %cleanup.cont161 unwind label %terminate.lpad.i.i142

terminate.lpad.i.i142:                            ; preds = %if.then2.i.i.i.i141
  %107 = landingpad { ptr, i32 }
          catch ptr null
  %108 = extractvalue { ptr, i32 } %107, 0
  call void @__clang_call_terminate(ptr %108) #18
  unreachable

cleanup.cont161:                                  ; preds = %if.then2.i.i.i.i141, %if.then.i.i.i.i136, %cleanup159, %entry, %if.then7
  ret void

ehcleanup154:                                     ; preds = %ehcleanup, %lpad74
  %.pn35 = phi { ptr, i32 } [ %56, %lpad74 ], [ %.pn, %ehcleanup ]
  call void @_ZN10ref_vectorI3app11ast_managerED2Ev(ptr noundef nonnull align 8 dereferenceable(16) %bindings) #17
  br label %ehcleanup156

ehcleanup156:                                     ; preds = %lpad.i, %ehcleanup154
  %.pn35.pn = phi { ptr, i32 } [ %.pn35, %ehcleanup154 ], [ %52, %lpad.i ]
  call void @_ZN10ref_vectorI4expr11ast_managerED2Ev(ptr noundef nonnull align 8 dereferenceable(16) %new_post) #17
  br label %ehcleanup158

ehcleanup158:                                     ; preds = %ehcleanup156, %lpad35
  %.pn38 = phi { ptr, i32 } [ %29, %lpad35 ], [ %.pn35.pn, %ehcleanup156 ]
  call void @_ZN7obj_refI4expr11ast_managerED2Ev(ptr noundef nonnull align 8 dereferenceable(16) %lit) #17
  br label %ehcleanup162

ehcleanup162:                                     ; preds = %ehcleanup158, %lpad
  %.pn40 = phi { ptr, i32 } [ %22, %lpad ], [ %.pn38, %ehcleanup158 ]
  call void @_ZN6spacer13lemma_clusterD2Ev(ptr noundef nonnull align 8 dereferenceable(148) %lc) #17
  resume { ptr, i32 } %.pn40
}

; Function Attrs: mustprogress nounwind uwtable
define linkonce_odr hidden void @_ZN12scoped_watchD2Ev(ptr noundef nonnull align 8 dereferenceable(8) %this) unnamed_addr #4 comdat align 2 personality ptr @__gxx_personality_v0 {
entry:
  %0 = load ptr, ptr %this, align 8
  %m_running.i = getelementptr inbounds %class.stopwatch, ptr %0, i64 0, i32 2
  %1 = load i8, ptr %m_running.i, align 8
  %2 = and i8 %1, 1
  %tobool.not.i = icmp eq i8 %2, 0
  br i1 %tobool.not.i, label %invoke.cont, label %if.then.i

if.then.i:                                        ; preds = %entry
  %call.i.i = tail call i64 @_ZNSt6chrono3_V212steady_clock3nowEv() #17
  %retval.sroa.0.0.copyload.i1.i.i = load i64, ptr %0, align 8
  %sub.i.i.i = sub i64 %call.i.i, %retval.sroa.0.0.copyload.i1.i.i
  %m_elapsed.i = getelementptr inbounds %class.stopwatch, ptr %0, i64 0, i32 1
  %3 = load i64, ptr %m_elapsed.i, align 8
  %add.i.i = add nsw i64 %sub.i.i.i, %3
  store i64 %add.i.i, ptr %m_elapsed.i, align 8
  store i8 0, ptr %m_running.i, align 8
  br label %invoke.cont

invoke.cont:                                      ; preds = %if.then.i, %entry
  ret void
}

; Function Attrs: mustprogress uwtable
define hidden void @_ZN6spacer24lemma_global_generalizer8subsumer12mk_col_namesERKNS_13lemma_clusterE(ptr noundef nonnull align 8 dereferenceable(152) %this, ptr nocapture noundef nonnull readonly align 8 dereferenceable(148) %lc) local_unnamed_addr #3 align 2 personality ptr @__gxx_personality_v0 {
entry:
  %ref.tmp.i.i = alloca %class.symbol, align 8
  %m_lemma_vec.i = getelementptr inbounds %"class.spacer::lemma_cluster", ptr %lc, i64 0, i32 8
  %0 = load ptr, ptr %m_lemma_vec.i, align 8
  %m_col_names = getelementptr inbounds %"class.spacer::lemma_global_generalizer::subsumer", ptr %this, i64 0, i32 6
  %m_vars.i = getelementptr inbounds %"class.spacer::lemma_cluster::lemma_info", ptr %0, i64 0, i32 1, i32 2
  %1 = load ptr, ptr %m_vars.i, align 8
  %cmp.i.i = icmp eq ptr %1, null
  br i1 %cmp.i.i, label %for.end, label %_ZNK12substitution16get_num_bindingsEv.exit

_ZNK12substitution16get_num_bindingsEv.exit:      ; preds = %entry
  %arrayidx.i.i = getelementptr inbounds i32, ptr %1, i64 -1
  %2 = load i32, ptr %arrayidx.i.i, align 4
  %m_nodes.i = getelementptr inbounds %"class.spacer::lemma_global_generalizer::subsumer", ptr %this, i64 0, i32 6, i32 0, i32 1
  %3 = load ptr, ptr %m_nodes.i, align 8
  %cmp.i.i8 = icmp eq ptr %3, null
  br i1 %cmp.i.i8, label %_ZNK6vectorIP3appLb0EjE4sizeEv.exit.i, label %_ZNK6vectorIP3appLb0EjE4sizeEv.exit.thread.i

_ZNK6vectorIP3appLb0EjE4sizeEv.exit.i:            ; preds = %_ZNK12substitution16get_num_bindingsEv.exit
  %cmp.not.not.i = icmp eq i32 %2, 0
  br i1 %cmp.not.not.i, label %_ZN15ref_vector_coreI3app19ref_manager_wrapperIS0_11ast_managerEE7reserveEj.exit, label %while.cond.i.i.preheader

_ZNK6vectorIP3appLb0EjE4sizeEv.exit.thread.i:     ; preds = %_ZNK12substitution16get_num_bindingsEv.exit
  %arrayidx.i.i9 = getelementptr inbounds i32, ptr %3, i64 -1
  %4 = load i32, ptr %arrayidx.i.i9, align 4
  %cmp.not4.i = icmp ult i32 %4, %2
  br i1 %cmp.not4.i, label %while.cond.i.i.preheader, label %_ZN15ref_vector_coreI3app19ref_manager_wrapperIS0_11ast_managerEE7reserveEj.exit

while.cond.i.i.preheader:                         ; preds = %_ZNK6vectorIP3appLb0EjE4sizeEv.exit.i, %_ZNK6vectorIP3appLb0EjE4sizeEv.exit.thread.i
  %.ph = phi ptr [ %3, %_ZNK6vectorIP3appLb0EjE4sizeEv.exit.thread.i ], [ null, %_ZNK6vectorIP3appLb0EjE4sizeEv.exit.i ]
  %retval.0.i16.i.i.ph = phi i32 [ %4, %_ZNK6vectorIP3appLb0EjE4sizeEv.exit.thread.i ], [ 0, %_ZNK6vectorIP3appLb0EjE4sizeEv.exit.i ]
  br label %while.cond.i.i

while.cond.i.i:                                   ; preds = %while.cond.i.i.preheader, %while.body.i.i
  %5 = phi ptr [ %.pr.pre.i.i, %while.body.i.i ], [ %.ph, %while.cond.i.i.preheader ]
  %cmp.i10.i.i = icmp eq ptr %5, null
  br i1 %cmp.i10.i.i, label %_ZNK6vectorIP3appLb0EjE8capacityEv.exit.i.i, label %if.end.i11.i.i

if.end.i11.i.i:                                   ; preds = %while.cond.i.i
  %arrayidx.i12.i.i = getelementptr inbounds i32, ptr %5, i64 -2
  %6 = load i32, ptr %arrayidx.i12.i.i, align 4
  br label %_ZNK6vectorIP3appLb0EjE8capacityEv.exit.i.i

_ZNK6vectorIP3appLb0EjE8capacityEv.exit.i.i:      ; preds = %if.end.i11.i.i, %while.cond.i.i
  %retval.0.i13.i.i = phi i32 [ %6, %if.end.i11.i.i ], [ 0, %while.cond.i.i ]
  %cmp3.i.i = icmp ult i32 %retval.0.i13.i.i, %2
  br i1 %cmp3.i.i, label %while.body.i.i, label %while.end.i.i

while.body.i.i:                                   ; preds = %_ZNK6vectorIP3appLb0EjE8capacityEv.exit.i.i
  tail call void @_ZN6vectorIP3appLb0EjE13expand_vectorEv(ptr noundef nonnull align 8 dereferenceable(8) %m_nodes.i)
  %.pr.pre.i.i = load ptr, ptr %m_nodes.i, align 8
  br label %while.cond.i.i, !llvm.loop !9

while.end.i.i:                                    ; preds = %_ZNK6vectorIP3appLb0EjE8capacityEv.exit.i.i
  %arrayidx.i2.i = getelementptr inbounds i32, ptr %5, i64 -1
  store i32 %2, ptr %arrayidx.i2.i, align 4
  %cmp8.not17.i.i = icmp eq i32 %retval.0.i16.i.i.ph, %2
  br i1 %cmp8.not17.i.i, label %_ZN15ref_vector_coreI3app19ref_manager_wrapperIS0_11ast_managerEE7reserveEj.exit, label %for.body.preheader.i.i

for.body.preheader.i.i:                           ; preds = %while.end.i.i
  %idx.ext6.i.i = zext i32 %2 to i64
  %7 = load ptr, ptr %m_nodes.i, align 8
  %idx.ext.i.i = zext i32 %retval.0.i16.i.i.ph to i64
  %add.ptr.i.i = getelementptr ptr, ptr %7, i64 %idx.ext.i.i
  %8 = sub nsw i64 %idx.ext6.i.i, %idx.ext.i.i
  %9 = shl nsw i64 %8, 3
  tail call void @llvm.memset.p0.i64(ptr align 8 %add.ptr.i.i, i8 0, i64 %9, i1 false)
  br label %_ZN15ref_vector_coreI3app19ref_manager_wrapperIS0_11ast_managerEE7reserveEj.exit

_ZN15ref_vector_coreI3app19ref_manager_wrapperIS0_11ast_managerEE7reserveEj.exit: ; preds = %_ZNK6vectorIP3appLb0EjE4sizeEv.exit.i, %_ZNK6vectorIP3appLb0EjE4sizeEv.exit.thread.i, %while.end.i.i, %for.body.preheader.i.i
  %.pr = load ptr, ptr %m_vars.i, align 8
  %cmp.i.i11 = icmp eq ptr %.pr, null
  br i1 %cmp.i.i11, label %for.end, label %_ZNK12substitution16get_num_bindingsEv.exit15

_ZNK12substitution16get_num_bindingsEv.exit15:    ; preds = %_ZN15ref_vector_coreI3app19ref_manager_wrapperIS0_11ast_managerEE7reserveEj.exit
  %arrayidx.i.i13 = getelementptr inbounds i32, ptr %.pr, i64 -1
  %10 = load i32, ptr %arrayidx.i.i13, align 4
  %cmp50.not = icmp eq i32 %10, 0
  br i1 %cmp50.not, label %for.end, label %for.body.lr.ph

for.body.lr.ph:                                   ; preds = %_ZNK12substitution16get_num_bindingsEv.exit15
  %m_subst.i = getelementptr inbounds %"class.spacer::lemma_cluster::lemma_info", ptr %0, i64 0, i32 1, i32 1
  %m_num_vars.i.i = getelementptr inbounds %"class.spacer::lemma_cluster::lemma_info", ptr %0, i64 0, i32 1, i32 1, i32 2
  %m_timestamp2.i.i = getelementptr inbounds %"class.spacer::lemma_cluster::lemma_info", ptr %0, i64 0, i32 1, i32 1, i32 3
  %m = getelementptr inbounds %"class.spacer::lemma_global_generalizer::subsumer", ptr %this, i64 0, i32 1
  %wide.trip.count = zext i32 %10 to i64
  br label %for.body

for.body:                                         ; preds = %for.body.lr.ph, %for.inc
  %indvars.iv = phi i64 [ 0, %for.body.lr.ph ], [ %indvars.iv.next, %for.inc ]
  %11 = load ptr, ptr %m_vars.i, align 8
  %arrayidx.i.i17 = getelementptr inbounds %"struct.std::pair", ptr %11, i64 %indvars.iv
  %12 = load i32, ptr %arrayidx.i.i17, align 4
  %second.i.i = getelementptr inbounds %"struct.std::pair", ptr %11, i64 %indvars.iv, i32 1
  %13 = load i32, ptr %second.i.i, align 4
  %14 = load i32, ptr %m_num_vars.i.i, align 4
  %mul.i.i = mul i32 %14, %13
  %add.i.i = add i32 %mul.i.i, %12
  %15 = load ptr, ptr %m_subst.i, align 8
  %idxprom.i.i.i = zext i32 %add.i.i to i64
  %m_timestamp.i.i = getelementptr inbounds %"struct.var_offset_map<expr_offset>::data", ptr %15, i64 %idxprom.i.i.i, i32 1
  %16 = load i32, ptr %m_timestamp.i.i, align 8
  %17 = load i32, ptr %m_timestamp2.i.i, align 8
  %cmp.i.i18 = icmp eq i32 %16, %17
  br i1 %cmp.i.i18, label %_ZNK12substitution11get_bindingEjRSt4pairIjjER11expr_offset.exit, label %if.then.i

if.then.i:                                        ; preds = %for.body
  call void @_Z26notify_assertion_violationPKciS0_(ptr noundef nonnull @.str.13, i32 noundef 157, ptr noundef nonnull @.str.14)
  call void @exit(i32 noundef 114) #18
  unreachable

_ZNK12substitution11get_bindingEjRSt4pairIjjER11expr_offset.exit: ; preds = %for.body
  %arrayidx.i.i.i = getelementptr inbounds %"struct.var_offset_map<expr_offset>::data", ptr %15, i64 %idxprom.i.i.i
  %r.sroa.0.0.copyload = load ptr, ptr %arrayidx.i.i.i, align 8
  %call7 = call noundef ptr @_ZNK4expr8get_sortEv(ptr noundef nonnull align 4 dereferenceable(16) %r.sroa.0.0.copyload)
  %18 = load ptr, ptr %m_nodes.i, align 8
  %idxprom.i.i20 = zext i32 %12 to i64
  %arrayidx.i.i21 = getelementptr inbounds ptr, ptr %18, i64 %idxprom.i.i20
  %19 = load ptr, ptr %arrayidx.i.i21, align 8
  %tobool.not = icmp eq ptr %19, null
  br i1 %tobool.not, label %if.then, label %lor.lhs.false

lor.lhs.false:                                    ; preds = %_ZNK12substitution11get_bindingEjRSt4pairIjjER11expr_offset.exit
  %call12 = call noundef ptr @_ZNK4expr8get_sortEv(ptr noundef nonnull align 4 dereferenceable(16) %19)
  %cmp13.not = icmp eq ptr %call12, %call7
  br i1 %cmp13.not, label %for.inc, label %if.then

if.then:                                          ; preds = %lor.lhs.false, %_ZNK12substitution11get_bindingEjRSt4pairIjjER11expr_offset.exit
  %20 = load ptr, ptr %m, align 8
  call void @llvm.lifetime.start.p0(i64 8, ptr nonnull %ref.tmp.i.i)
  call void @_ZN6symbolC1EPKc(ptr noundef nonnull align 8 dereferenceable(8) %ref.tmp.i.i, ptr noundef nonnull @.str.1)
  %call.i.i = call noundef ptr @_ZN11ast_manager18mk_fresh_func_declERK6symbolS2_jPKP4sortS4_b(ptr noundef nonnull align 8 dereferenceable(976) %20, ptr noundef nonnull align 8 dereferenceable(8) %ref.tmp.i.i, ptr noundef nonnull align 8 dereferenceable(8) @_ZN6symbol4nullE, i32 noundef 0, ptr noundef null, ptr noundef %call7, i1 noundef zeroext true)
  call void @llvm.lifetime.end.p0(i64 8, ptr nonnull %ref.tmp.i.i)
  %call.i1.i = call noundef ptr @_ZN11ast_manager6mk_appEP9func_decljPKP4expr(ptr noundef nonnull align 8 dereferenceable(976) %20, ptr noundef %call.i.i, i32 noundef 0, ptr noundef null)
  %21 = load ptr, ptr %m_nodes.i, align 8
  %arrayidx.i.i27 = getelementptr inbounds ptr, ptr %21, i64 %idxprom.i.i20
  %22 = load ptr, ptr %m_col_names, align 8
  %tobool.not.i.i = icmp eq ptr %call.i1.i, null
  br i1 %tobool.not.i.i, label %_ZN11ast_manager7inc_refEP3ast.exit.i, label %if.then.i.i

if.then.i.i:                                      ; preds = %if.then
  %m_ref_count.i.i.i = getelementptr inbounds %class.ast, ptr %call.i1.i, i64 0, i32 2
  %23 = load i32, ptr %m_ref_count.i.i.i, align 4
  %inc.i.i.i = add i32 %23, 1
  store i32 %inc.i.i.i, ptr %m_ref_count.i.i.i, align 4
  br label %_ZN11ast_manager7inc_refEP3ast.exit.i

_ZN11ast_manager7inc_refEP3ast.exit.i:            ; preds = %if.then.i.i, %if.then
  %24 = load ptr, ptr %arrayidx.i.i27, align 8
  %tobool.not.i2.i = icmp eq ptr %24, null
  br i1 %tobool.not.i2.i, label %_ZN10ref_vectorI3app11ast_managerE11element_refaSEPS0_.exit, label %if.then.i3.i

if.then.i3.i:                                     ; preds = %_ZN11ast_manager7inc_refEP3ast.exit.i
  %m_ref_count.i.i4.i = getelementptr inbounds %class.ast, ptr %24, i64 0, i32 2
  %25 = load i32, ptr %m_ref_count.i.i4.i, align 4
  %dec.i.i.i = add i32 %25, -1
  store i32 %dec.i.i.i, ptr %m_ref_count.i.i4.i, align 4
  %cmp.i.i28 = icmp eq i32 %dec.i.i.i, 0
  br i1 %cmp.i.i28, label %if.then2.i.i, label %_ZN10ref_vectorI3app11ast_managerE11element_refaSEPS0_.exit

if.then2.i.i:                                     ; preds = %if.then.i3.i
  call void @_ZN11ast_manager11delete_nodeEP3ast(ptr noundef nonnull align 8 dereferenceable(976) %22, ptr noundef nonnull %24)
  br label %_ZN10ref_vectorI3app11ast_managerE11element_refaSEPS0_.exit

_ZN10ref_vectorI3app11ast_managerE11element_refaSEPS0_.exit: ; preds = %_ZN11ast_manager7inc_refEP3ast.exit.i, %if.then.i3.i, %if.then2.i.i
  store ptr %call.i1.i, ptr %arrayidx.i.i27, align 8
  br label %for.inc

for.inc:                                          ; preds = %lor.lhs.false, %_ZN10ref_vectorI3app11ast_managerE11element_refaSEPS0_.exit
  %indvars.iv.next = add nuw nsw i64 %indvars.iv, 1
  %exitcond.not = icmp eq i64 %indvars.iv.next, %wide.trip.count
  br i1 %exitcond.not, label %for.end, label %for.body, !llvm.loop !10

for.end:                                          ; preds = %for.inc, %entry, %_ZN15ref_vector_coreI3app19ref_manager_wrapperIS0_11ast_managerEE7reserveEj.exit, %_ZNK12substitution16get_num_bindingsEv.exit15
  %m_col_lcm = getelementptr inbounds %"class.spacer::lemma_global_generalizer::subsumer", ptr %this, i64 0, i32 7
  %26 = load ptr, ptr %m_col_lcm, align 8
  %tobool.not.i = icmp eq ptr %26, null
  br i1 %tobool.not.i, label %_ZN6vectorI8rationalLb1EjE5resetEv.exit, label %_ZNK6vectorI8rationalLb1EjE4sizeEv.exit.i.i

_ZNK6vectorI8rationalLb1EjE4sizeEv.exit.i.i:      ; preds = %for.end
  %arrayidx.i.i.i29 = getelementptr inbounds i32, ptr %26, i64 -1
  %27 = load i32, ptr %arrayidx.i.i.i29, align 4
  %cmp.not5.i.i.i.i.i = icmp eq i32 %27, 0
  br i1 %cmp.not5.i.i.i.i.i, label %_ZN6vectorI8rationalLb1EjE16destroy_elementsEv.exit.i, label %for.body.i.i.i.i.i

for.body.i.i.i.i.i:                               ; preds = %_ZNK6vectorI8rationalLb1EjE4sizeEv.exit.i.i, %_ZSt8_DestroyI8rationalEvPT_.exit.i.i.i.i.i
  %__count.addr.07.i.i.i.i.i = phi i32 [ %dec.i.i.i.i.i, %_ZSt8_DestroyI8rationalEvPT_.exit.i.i.i.i.i ], [ %27, %_ZNK6vectorI8rationalLb1EjE4sizeEv.exit.i.i ]
  %__first.addr.06.i.i.i.i.i = phi ptr [ %incdec.ptr.i.i.i.i.i, %_ZSt8_DestroyI8rationalEvPT_.exit.i.i.i.i.i ], [ %26, %_ZNK6vectorI8rationalLb1EjE4sizeEv.exit.i.i ]
  %28 = load ptr, ptr @_ZN8rational13g_mpq_managerE, align 8
  invoke void @_ZN11mpz_managerILb1EE3delEPS0_R3mpz(ptr noundef %28, ptr noundef nonnull align 8 dereferenceable(16) %__first.addr.06.i.i.i.i.i)
          to label %.noexc.i.i.i.i.i.i.i unwind label %terminate.lpad.i.i.i.i.i.i.i

.noexc.i.i.i.i.i.i.i:                             ; preds = %for.body.i.i.i.i.i
  %m_den.i.i.i.i.i.i.i.i = getelementptr inbounds %class.mpq, ptr %__first.addr.06.i.i.i.i.i, i64 0, i32 1
  invoke void @_ZN11mpz_managerILb1EE3delEPS0_R3mpz(ptr noundef %28, ptr noundef nonnull align 8 dereferenceable(16) %m_den.i.i.i.i.i.i.i.i)
          to label %_ZSt8_DestroyI8rationalEvPT_.exit.i.i.i.i.i unwind label %terminate.lpad.i.i.i.i.i.i.i

terminate.lpad.i.i.i.i.i.i.i:                     ; preds = %.noexc.i.i.i.i.i.i.i, %for.body.i.i.i.i.i
  %29 = landingpad { ptr, i32 }
          catch ptr null
  %30 = extractvalue { ptr, i32 } %29, 0
  call void @__clang_call_terminate(ptr %30) #18
  unreachable

_ZSt8_DestroyI8rationalEvPT_.exit.i.i.i.i.i:      ; preds = %.noexc.i.i.i.i.i.i.i
  %incdec.ptr.i.i.i.i.i = getelementptr inbounds %class.rational, ptr %__first.addr.06.i.i.i.i.i, i64 1
  %dec.i.i.i.i.i = add i32 %__count.addr.07.i.i.i.i.i, -1
  %cmp.not.i.i.i.i.i = icmp eq i32 %dec.i.i.i.i.i, 0
  br i1 %cmp.not.i.i.i.i.i, label %_ZN6vectorI8rationalLb1EjE16destroy_elementsEv.exit.loopexit.i, label %for.body.i.i.i.i.i, !llvm.loop !4

_ZN6vectorI8rationalLb1EjE16destroy_elementsEv.exit.loopexit.i: ; preds = %_ZSt8_DestroyI8rationalEvPT_.exit.i.i.i.i.i
  %.pre.i = load ptr, ptr %m_col_lcm, align 8
  br label %_ZN6vectorI8rationalLb1EjE16destroy_elementsEv.exit.i

_ZN6vectorI8rationalLb1EjE16destroy_elementsEv.exit.i: ; preds = %_ZN6vectorI8rationalLb1EjE16destroy_elementsEv.exit.loopexit.i, %_ZNK6vectorI8rationalLb1EjE4sizeEv.exit.i.i
  %31 = phi ptr [ %.pre.i, %_ZN6vectorI8rationalLb1EjE16destroy_elementsEv.exit.loopexit.i ], [ %26, %_ZNK6vectorI8rationalLb1EjE4sizeEv.exit.i.i ]
  %arrayidx.i = getelementptr inbounds i32, ptr %31, i64 -1
  store i32 0, ptr %arrayidx.i, align 4
  br label %_ZN6vectorI8rationalLb1EjE5resetEv.exit

_ZN6vectorI8rationalLb1EjE5resetEv.exit:          ; preds = %for.end, %_ZN6vectorI8rationalLb1EjE16destroy_elementsEv.exit.i
  ret void
}

declare noundef ptr @_ZNK4expr8get_sortEv(ptr noundef nonnull align 4 dereferenceable(16)) local_unnamed_addr #0

; Function Attrs: mustprogress uwtable
define hidden void @_ZN6spacer24lemma_global_generalizer8subsumer17setup_cvx_closureERNS_14convex_closureERKNS_13lemma_clusterE(ptr noundef nonnull align 8 dereferenceable(152) %this, ptr noundef nonnull align 8 dereferenceable(240) %cc, ptr nocapture noundef nonnull readonly align 8 dereferenceable(148) %lc) local_unnamed_addr #3 align 2 personality ptr @__gxx_personality_v0 {
entry:
  %is_int.i.i167 = alloca i8, align 1
  %is_int.i.i = alloca i8, align 1
  %num = alloca %class.rational, align 8
  %ref.tmp = alloca %class.rational, align 8
  %ref.tmp25 = alloca %class.rational, align 8
  %ref.tmp26 = alloca %class.rational, align 8
  %agg.tmp = alloca %class.rational, align 8
  %row = alloca %class.vector.0, align 8
  %ref.tmp104 = alloca %class.rational, align 8
  tail call void @_ZN6spacer24lemma_global_generalizer8subsumer12mk_col_namesERKNS_13lemma_clusterE(ptr noundef nonnull align 8 dereferenceable(152) %this, ptr noundef nonnull align 8 dereferenceable(148) %lc)
  %m_lemma_vec.i = getelementptr inbounds %"class.spacer::lemma_cluster", ptr %lc, i64 0, i32 8
  %m_col_lcm = getelementptr inbounds %"class.spacer::lemma_global_generalizer::subsumer", ptr %this, i64 0, i32 7
  %0 = load ptr, ptr %m_col_lcm, align 8
  %tobool.not.i = icmp eq ptr %0, null
  br i1 %tobool.not.i, label %_ZN6vectorI8rationalLb1EjE5resetEv.exit, label %_ZNK6vectorI8rationalLb1EjE4sizeEv.exit.i.i

_ZNK6vectorI8rationalLb1EjE4sizeEv.exit.i.i:      ; preds = %entry
  %arrayidx.i.i.i = getelementptr inbounds i32, ptr %0, i64 -1
  %1 = load i32, ptr %arrayidx.i.i.i, align 4
  %cmp.not5.i.i.i.i.i = icmp eq i32 %1, 0
  br i1 %cmp.not5.i.i.i.i.i, label %_ZN6vectorI8rationalLb1EjE16destroy_elementsEv.exit.i, label %for.body.i.i.i.i.i

for.body.i.i.i.i.i:                               ; preds = %_ZNK6vectorI8rationalLb1EjE4sizeEv.exit.i.i, %_ZSt8_DestroyI8rationalEvPT_.exit.i.i.i.i.i
  %__count.addr.07.i.i.i.i.i = phi i32 [ %dec.i.i.i.i.i, %_ZSt8_DestroyI8rationalEvPT_.exit.i.i.i.i.i ], [ %1, %_ZNK6vectorI8rationalLb1EjE4sizeEv.exit.i.i ]
  %__first.addr.06.i.i.i.i.i = phi ptr [ %incdec.ptr.i.i.i.i.i, %_ZSt8_DestroyI8rationalEvPT_.exit.i.i.i.i.i ], [ %0, %_ZNK6vectorI8rationalLb1EjE4sizeEv.exit.i.i ]
  %2 = load ptr, ptr @_ZN8rational13g_mpq_managerE, align 8
  invoke void @_ZN11mpz_managerILb1EE3delEPS0_R3mpz(ptr noundef %2, ptr noundef nonnull align 8 dereferenceable(16) %__first.addr.06.i.i.i.i.i)
          to label %.noexc.i.i.i.i.i.i.i unwind label %terminate.lpad.i.i.i.i.i.i.i

.noexc.i.i.i.i.i.i.i:                             ; preds = %for.body.i.i.i.i.i
  %m_den.i.i.i.i.i.i.i.i = getelementptr inbounds %class.mpq, ptr %__first.addr.06.i.i.i.i.i, i64 0, i32 1
  invoke void @_ZN11mpz_managerILb1EE3delEPS0_R3mpz(ptr noundef %2, ptr noundef nonnull align 8 dereferenceable(16) %m_den.i.i.i.i.i.i.i.i)
          to label %_ZSt8_DestroyI8rationalEvPT_.exit.i.i.i.i.i unwind label %terminate.lpad.i.i.i.i.i.i.i

terminate.lpad.i.i.i.i.i.i.i:                     ; preds = %.noexc.i.i.i.i.i.i.i, %for.body.i.i.i.i.i
  %3 = landingpad { ptr, i32 }
          catch ptr null
  %4 = extractvalue { ptr, i32 } %3, 0
  tail call void @__clang_call_terminate(ptr %4) #18
  unreachable

_ZSt8_DestroyI8rationalEvPT_.exit.i.i.i.i.i:      ; preds = %.noexc.i.i.i.i.i.i.i
  %incdec.ptr.i.i.i.i.i = getelementptr inbounds %class.rational, ptr %__first.addr.06.i.i.i.i.i, i64 1
  %dec.i.i.i.i.i = add i32 %__count.addr.07.i.i.i.i.i, -1
  %cmp.not.i.i.i.i.i = icmp eq i32 %dec.i.i.i.i.i, 0
  br i1 %cmp.not.i.i.i.i.i, label %_ZN6vectorI8rationalLb1EjE16destroy_elementsEv.exit.loopexit.i, label %for.body.i.i.i.i.i, !llvm.loop !4

_ZN6vectorI8rationalLb1EjE16destroy_elementsEv.exit.loopexit.i: ; preds = %_ZSt8_DestroyI8rationalEvPT_.exit.i.i.i.i.i
  %.pre.i = load ptr, ptr %m_col_lcm, align 8
  br label %_ZN6vectorI8rationalLb1EjE16destroy_elementsEv.exit.i

_ZN6vectorI8rationalLb1EjE16destroy_elementsEv.exit.i: ; preds = %_ZN6vectorI8rationalLb1EjE16destroy_elementsEv.exit.loopexit.i, %_ZNK6vectorI8rationalLb1EjE4sizeEv.exit.i.i
  %5 = phi ptr [ %.pre.i, %_ZN6vectorI8rationalLb1EjE16destroy_elementsEv.exit.loopexit.i ], [ %0, %_ZNK6vectorI8rationalLb1EjE4sizeEv.exit.i.i ]
  %arrayidx.i = getelementptr inbounds i32, ptr %5, i64 -1
  store i32 0, ptr %arrayidx.i, align 4
  %m_kind.i.i.i.phi.trans.insert = getelementptr inbounds %class.mpz, ptr %num, i64 0, i32 1
  %bf.load.i.i.i.pre = load i8, ptr %m_kind.i.i.i.phi.trans.insert, align 4
  %m_kind.i1.i.i.phi.trans.insert = getelementptr inbounds %class.mpq, ptr %num, i64 0, i32 1, i32 1
  %bf.load.i2.i.i.pre = load i8, ptr %m_kind.i1.i.i.phi.trans.insert, align 4
  br label %_ZN6vectorI8rationalLb1EjE5resetEv.exit

_ZN6vectorI8rationalLb1EjE5resetEv.exit:          ; preds = %entry, %_ZN6vectorI8rationalLb1EjE16destroy_elementsEv.exit.i
  %bf.load.i2.i.i = phi i8 [ undef, %entry ], [ %bf.load.i2.i.i.pre, %_ZN6vectorI8rationalLb1EjE16destroy_elementsEv.exit.i ]
  %bf.load.i.i.i = phi i8 [ undef, %entry ], [ %bf.load.i.i.i.pre, %_ZN6vectorI8rationalLb1EjE16destroy_elementsEv.exit.i ]
  store i32 0, ptr %num, align 8
  %m_kind.i.i.i = getelementptr inbounds %class.mpz, ptr %num, i64 0, i32 1
  %bf.clear3.i.i.i = and i8 %bf.load.i.i.i, -4
  store i8 %bf.clear3.i.i.i, ptr %m_kind.i.i.i, align 4
  %m_ptr.i.i.i = getelementptr inbounds %class.mpz, ptr %num, i64 0, i32 2
  store ptr null, ptr %m_ptr.i.i.i, align 8
  %m_den.i.i = getelementptr inbounds %class.mpq, ptr %num, i64 0, i32 1
  store i32 1, ptr %m_den.i.i, align 8
  %m_kind.i1.i.i = getelementptr inbounds %class.mpq, ptr %num, i64 0, i32 1, i32 1
  %bf.clear3.i3.i.i = and i8 %bf.load.i2.i.i, -4
  store i8 %bf.clear3.i3.i.i, ptr %m_kind.i1.i.i, align 4
  %m_ptr.i4.i.i = getelementptr inbounds %class.mpq, ptr %num, i64 0, i32 1, i32 2
  store ptr null, ptr %m_ptr.i4.i.i, align 8
  %6 = load ptr, ptr %m_lemma_vec.i, align 8
  %cmp.i.i = icmp eq ptr %6, null
  br i1 %cmp.i.i, label %for.end40, label %_ZNK6vectorIN6spacer13lemma_cluster10lemma_infoELb1EjE3endEv.exit

_ZNK6vectorIN6spacer13lemma_cluster10lemma_infoELb1EjE3endEv.exit: ; preds = %_ZN6vectorI8rationalLb1EjE5resetEv.exit
  %arrayidx.i.i = getelementptr inbounds i32, ptr %6, i64 -1
  %7 = load i32, ptr %arrayidx.i.i, align 4
  %8 = zext i32 %7 to i64
  %add.ptr.i = getelementptr inbounds %"class.spacer::lemma_cluster::lemma_info", ptr %6, i64 %8
  %cmp.not264 = icmp eq i32 %7, 0
  br i1 %cmp.not264, label %for.end40, label %for.body.lr.ph

for.body.lr.ph:                                   ; preds = %_ZNK6vectorIN6spacer13lemma_cluster10lemma_infoELb1EjE3endEv.exit
  %m_arith.i = getelementptr inbounds %"class.spacer::lemma_global_generalizer::subsumer", ptr %this, i64 0, i32 2
  %m_bv.i = getelementptr inbounds %"class.spacer::lemma_global_generalizer::subsumer", ptr %this, i64 0, i32 3
  %m_kind.i.i.i.i = getelementptr inbounds %class.mpz, ptr %ref.tmp26, i64 0, i32 1
  %m_ptr.i.i.i.i = getelementptr inbounds %class.mpz, ptr %ref.tmp26, i64 0, i32 2
  %m_den.i.i.i = getelementptr inbounds %class.mpq, ptr %ref.tmp26, i64 0, i32 1
  %m_kind.i1.i.i.i = getelementptr inbounds %class.mpq, ptr %ref.tmp26, i64 0, i32 1, i32 1
  %m_ptr.i4.i.i.i = getelementptr inbounds %class.mpq, ptr %ref.tmp26, i64 0, i32 1, i32 2
  %m_kind.i.i.i.i42 = getelementptr inbounds %class.mpz, ptr %ref.tmp25, i64 0, i32 1
  %m_ptr.i.i.i.i45 = getelementptr inbounds %class.mpz, ptr %ref.tmp25, i64 0, i32 2
  %m_den.i.i.i46 = getelementptr inbounds %class.mpq, ptr %ref.tmp25, i64 0, i32 1
  %m_kind.i1.i.i.i47 = getelementptr inbounds %class.mpq, ptr %ref.tmp25, i64 0, i32 1, i32 1
  %m_ptr.i4.i.i.i50 = getelementptr inbounds %class.mpq, ptr %ref.tmp25, i64 0, i32 1, i32 2
  %m_kind.i.i.i.i61 = getelementptr inbounds %class.mpz, ptr %ref.tmp, i64 0, i32 1
  %m_ptr.i.i.i.i64 = getelementptr inbounds %class.mpz, ptr %ref.tmp, i64 0, i32 2
  %m_den.i.i.i65 = getelementptr inbounds %class.mpq, ptr %ref.tmp, i64 0, i32 1
  %m_kind.i1.i.i.i66 = getelementptr inbounds %class.mpq, ptr %ref.tmp, i64 0, i32 1, i32 1
  %m_ptr.i4.i.i.i69 = getelementptr inbounds %class.mpq, ptr %ref.tmp, i64 0, i32 1, i32 2
  br label %for.body

for.body:                                         ; preds = %for.body.lr.ph, %for.inc39
  %n_vars.0267 = phi i32 [ 0, %for.body.lr.ph ], [ %n_vars.1, %for.inc39 ]
  %is_first.0266 = phi i8 [ 1, %for.body.lr.ph ], [ %is_first.1, %for.inc39 ]
  %__begin1.0265 = phi ptr [ %6, %for.body.lr.ph ], [ %incdec.ptr, %for.inc39 ]
  %9 = and i8 %is_first.0266, 1
  %tobool.not = icmp eq i8 %9, 0
  br i1 %tobool.not, label %if.end, label %if.then

if.then:                                          ; preds = %for.body
  %m_vars.i = getelementptr inbounds %"class.spacer::lemma_cluster::lemma_info", ptr %__begin1.0265, i64 0, i32 1, i32 2
  %10 = load ptr, ptr %m_vars.i, align 8
  %cmp.i.i31 = icmp eq ptr %10, null
  br i1 %cmp.i.i31, label %invoke.cont7, label %if.end.i.i32

if.end.i.i32:                                     ; preds = %if.then
  %arrayidx.i.i33 = getelementptr inbounds i32, ptr %10, i64 -1
  %11 = load i32, ptr %arrayidx.i.i33, align 4
  br label %invoke.cont7

invoke.cont7:                                     ; preds = %if.end.i.i32, %if.then
  %retval.0.i.i34 = phi i32 [ %11, %if.end.i.i32 ], [ 0, %if.then ]
  invoke void @_ZN6vectorI8rationalLb1EjE7reserveEjRKS0_(ptr noundef nonnull align 8 dereferenceable(8) %m_col_lcm, i32 noundef %retval.0.i.i34, ptr noundef nonnull align 8 dereferenceable(32) @_ZN8rational5m_oneE)
          to label %if.end unwind label %lpad.loopexit.split-lp.loopexit.split-lp.loopexit

lpad.loopexit242:                                 ; preds = %if.else.i.i.i.i, %if.else.i.i7.i.i
  %lpad.loopexit243 = landingpad { ptr, i32 }
          cleanup
  br label %ehcleanup122

lpad.loopexit.split-lp.loopexit:                  ; preds = %lor.rhs.i, %invoke.cont16
  %lpad.loopexit246 = landingpad { ptr, i32 }
          cleanup
  br label %ehcleanup122

lpad.loopexit.split-lp.loopexit.split-lp.loopexit: ; preds = %invoke.cont7
  %lpad.loopexit249 = landingpad { ptr, i32 }
          cleanup
  br label %ehcleanup122

lpad.loopexit.split-lp.loopexit.split-lp.loopexit.split-lp: ; preds = %for.end40, %invoke.cont41, %if.then.i
  %lpad.loopexit.split-lp250 = landingpad { ptr, i32 }
          cleanup
  br label %ehcleanup122

if.end:                                           ; preds = %invoke.cont7, %for.body
  %is_first.1 = phi i8 [ %is_first.0266, %for.body ], [ 0, %invoke.cont7 ]
  %n_vars.1 = phi i32 [ %n_vars.0267, %for.body ], [ %retval.0.i.i34, %invoke.cont7 ]
  %cmp14262.not = icmp eq i32 %n_vars.1, 0
  br i1 %cmp14262.not, label %for.inc39, label %for.body15.lr.ph

for.body15.lr.ph:                                 ; preds = %if.end
  %m_vars.i35 = getelementptr inbounds %"class.spacer::lemma_cluster::lemma_info", ptr %__begin1.0265, i64 0, i32 1, i32 2
  %m_subst.i = getelementptr inbounds %"class.spacer::lemma_cluster::lemma_info", ptr %__begin1.0265, i64 0, i32 1, i32 1
  %m_num_vars.i.i = getelementptr inbounds %"class.spacer::lemma_cluster::lemma_info", ptr %__begin1.0265, i64 0, i32 1, i32 1, i32 2
  %m_timestamp2.i.i = getelementptr inbounds %"class.spacer::lemma_cluster::lemma_info", ptr %__begin1.0265, i64 0, i32 1, i32 1, i32 3
  %wide.trip.count = zext i32 %n_vars.1 to i64
  br label %for.body15

for.body15:                                       ; preds = %for.body15.lr.ph, %for.inc
  %indvars.iv = phi i64 [ 0, %for.body15.lr.ph ], [ %indvars.iv.next, %for.inc ]
  %12 = load ptr, ptr %m_vars.i35, align 8
  %arrayidx.i.i36 = getelementptr inbounds %"struct.std::pair", ptr %12, i64 %indvars.iv
  %13 = load i32, ptr %arrayidx.i.i36, align 4
  %second.i.i = getelementptr inbounds %"struct.std::pair", ptr %12, i64 %indvars.iv, i32 1
  %14 = load i32, ptr %second.i.i, align 4
  %15 = load i32, ptr %m_num_vars.i.i, align 4
  %mul.i.i = mul i32 %15, %14
  %add.i.i = add i32 %mul.i.i, %13
  %16 = load ptr, ptr %m_subst.i, align 8
  %idxprom.i.i.i = zext i32 %add.i.i to i64
  %m_timestamp.i.i = getelementptr inbounds %"struct.var_offset_map<expr_offset>::data", ptr %16, i64 %idxprom.i.i.i, i32 1
  %17 = load i32, ptr %m_timestamp.i.i, align 8
  %18 = load i32, ptr %m_timestamp2.i.i, align 8
  %cmp.i.i37 = icmp eq i32 %17, %18
  br i1 %cmp.i.i37, label %invoke.cont16, label %if.then.i

if.then.i:                                        ; preds = %for.body15
  invoke void @_Z26notify_assertion_violationPKciS0_(ptr noundef nonnull @.str.13, i32 noundef 157, ptr noundef nonnull @.str.14)
          to label %.noexc unwind label %lpad.loopexit.split-lp.loopexit.split-lp.loopexit.split-lp

.noexc:                                           ; preds = %if.then.i
  call void @exit(i32 noundef 114) #18
  unreachable

invoke.cont16:                                    ; preds = %for.body15
  %arrayidx.i.i.i38 = getelementptr inbounds %"struct.var_offset_map<expr_offset>::data", ptr %16, i64 %idxprom.i.i.i
  %r.sroa.0.0.copyload = load ptr, ptr %arrayidx.i.i.i38, align 8
  call void @llvm.lifetime.start.p0(i64 1, ptr nonnull %is_int.i.i)
  %call.i.i39 = invoke noundef zeroext i1 @_ZNK10arith_util10is_numeralEPK4exprR8rationalRb(ptr noundef nonnull align 8 dereferenceable(16) %m_arith.i, ptr noundef %r.sroa.0.0.copyload, ptr noundef nonnull align 8 dereferenceable(32) %num, ptr noundef nonnull align 1 dereferenceable(1) %is_int.i.i)
          to label %call.i.i.noexc unwind label %lpad.loopexit.split-lp.loopexit

call.i.i.noexc:                                   ; preds = %invoke.cont16
  call void @llvm.lifetime.end.p0(i64 1, ptr nonnull %is_int.i.i)
  br i1 %call.i.i39, label %if.then21, label %lor.rhs.i

lor.rhs.i:                                        ; preds = %call.i.i.noexc
  %call2.i40 = invoke noundef zeroext i1 @_ZNK14bv_recognizers10is_numeralEPK4exprR8rational(ptr noundef nonnull align 4 dereferenceable(4) %m_bv.i, ptr noundef %r.sroa.0.0.copyload, ptr noundef nonnull align 8 dereferenceable(32) %num)
          to label %invoke.cont19 unwind label %lpad.loopexit.split-lp.loopexit

invoke.cont19:                                    ; preds = %lor.rhs.i
  br i1 %call2.i40, label %if.then21, label %for.inc

if.then21:                                        ; preds = %call.i.i.noexc, %invoke.cont19
  %19 = load ptr, ptr %m_col_lcm, align 8
  %idxprom.i = zext i32 %13 to i64
  %arrayidx.i41 = getelementptr inbounds %class.rational, ptr %19, i64 %idxprom.i
  call void @llvm.experimental.noalias.scope.decl(metadata !11)
  store i32 0, ptr %ref.tmp26, align 8, !alias.scope !11
  %bf.load.i.i.i.i = load i8, ptr %m_kind.i.i.i.i, align 4, !alias.scope !11
  %bf.clear3.i.i.i.i = and i8 %bf.load.i.i.i.i, -4
  store i8 %bf.clear3.i.i.i.i, ptr %m_kind.i.i.i.i, align 4, !alias.scope !11
  store ptr null, ptr %m_ptr.i.i.i.i, align 8, !alias.scope !11
  store i32 1, ptr %m_den.i.i.i, align 8, !alias.scope !11
  %bf.load.i2.i.i.i = load i8, ptr %m_kind.i1.i.i.i, align 4, !alias.scope !11
  %bf.clear3.i3.i.i.i = and i8 %bf.load.i2.i.i.i, -4
  store i8 %bf.clear3.i3.i.i.i, ptr %m_kind.i1.i.i.i, align 4, !alias.scope !11
  store ptr null, ptr %m_ptr.i4.i.i.i, align 8, !alias.scope !11
  %20 = load ptr, ptr @_ZN8rational13g_mpq_managerE, align 8, !noalias !11
  %bf.load.i.i.i.i.i.i = load i8, ptr %m_kind.i1.i.i, align 4, !noalias !11
  %bf.clear.i.i.i.i.i.i = and i8 %bf.load.i.i.i.i.i.i, 1
  %cmp.i.i.i.i.i.i = icmp eq i8 %bf.clear.i.i.i.i.i.i, 0
  br i1 %cmp.i.i.i.i.i.i, label %if.then.i.i.i.i.i, label %if.else.i.i.i.i.i

if.then.i.i.i.i.i:                                ; preds = %if.then21
  %21 = load i32, ptr %m_den.i.i, align 8, !noalias !11
  store i32 %21, ptr %ref.tmp26, align 8, !alias.scope !11
  store i8 %bf.clear3.i.i.i.i, ptr %m_kind.i.i.i.i, align 4, !alias.scope !11
  br label %_ZN11mpq_managerILb1EE15get_denominatorERK3mpqR3mpz.exit.i.i

if.else.i.i.i.i.i:                                ; preds = %if.then21
  invoke void @_ZN11mpz_managerILb1EE7big_setER3mpzRKS1_(ptr noundef nonnull align 8 dereferenceable(600) %20, ptr noundef nonnull align 8 dereferenceable(16) %ref.tmp26, ptr noundef nonnull align 8 dereferenceable(16) %m_den.i.i)
          to label %_ZN11mpq_managerILb1EE15get_denominatorERK3mpqR3mpz.exit.i.i unwind label %lpad.i

_ZN11mpq_managerILb1EE15get_denominatorERK3mpqR3mpz.exit.i.i: ; preds = %if.else.i.i.i.i.i, %if.then.i.i.i.i.i
  invoke void @_ZN11mpz_managerILb1EE3delEPS0_R3mpz(ptr noundef nonnull %20, ptr noundef nonnull align 8 dereferenceable(16) %m_den.i.i.i)
          to label %invoke.cont27 unwind label %lpad.i

lpad.i:                                           ; preds = %_ZN11mpq_managerILb1EE15get_denominatorERK3mpqR3mpz.exit.i.i, %if.else.i.i.i.i.i
  %22 = landingpad { ptr, i32 }
          cleanup
  call void @_ZN8rationalD2Ev(ptr noundef nonnull align 8 dereferenceable(32) %ref.tmp26) #17
  br label %ehcleanup122

invoke.cont27:                                    ; preds = %_ZN11mpq_managerILb1EE15get_denominatorERK3mpqR3mpz.exit.i.i
  store i32 1, ptr %m_den.i.i.i, align 8, !alias.scope !11
  call void @llvm.experimental.noalias.scope.decl(metadata !14)
  store i32 0, ptr %ref.tmp25, align 8, !alias.scope !14
  %bf.load.i.i.i.i43 = load i8, ptr %m_kind.i.i.i.i42, align 4, !alias.scope !14
  %bf.clear3.i.i.i.i44 = and i8 %bf.load.i.i.i.i43, -4
  store i8 %bf.clear3.i.i.i.i44, ptr %m_kind.i.i.i.i42, align 4, !alias.scope !14
  store ptr null, ptr %m_ptr.i.i.i.i45, align 8, !alias.scope !14
  store i32 1, ptr %m_den.i.i.i46, align 8, !alias.scope !14
  %bf.load.i2.i.i.i48 = load i8, ptr %m_kind.i1.i.i.i47, align 4, !alias.scope !14
  %bf.clear3.i3.i.i.i49 = and i8 %bf.load.i2.i.i.i48, -4
  store i8 %bf.clear3.i3.i.i.i49, ptr %m_kind.i1.i.i.i47, align 4, !alias.scope !14
  store ptr null, ptr %m_ptr.i4.i.i.i50, align 8, !alias.scope !14
  %23 = load ptr, ptr @_ZN8rational13g_mpq_managerE, align 8, !noalias !14
  %bf.load.i.i.i.i.i.i52 = load i8, ptr %m_kind.i.i.i.i, align 4, !noalias !14
  %bf.clear.i.i.i.i.i.i53 = and i8 %bf.load.i.i.i.i.i.i52, 1
  %cmp.i.i.i.i.i.i54 = icmp eq i8 %bf.clear.i.i.i.i.i.i53, 0
  br i1 %cmp.i.i.i.i.i.i54, label %if.then.i.i.i.i.i57, label %if.else.i.i.i.i.i55

if.then.i.i.i.i.i57:                              ; preds = %invoke.cont27
  %24 = load i32, ptr %ref.tmp26, align 8, !noalias !14
  store i32 %24, ptr %ref.tmp25, align 8, !alias.scope !14
  store i8 %bf.clear3.i.i.i.i44, ptr %m_kind.i.i.i.i42, align 4, !alias.scope !14
  br label %_ZN11mpq_managerILb1EE3setER3mpzRKS1_.exit.i.i.i

if.else.i.i.i.i.i55:                              ; preds = %invoke.cont27
  invoke void @_ZN11mpz_managerILb1EE7big_setER3mpzRKS1_(ptr noundef nonnull align 8 dereferenceable(600) %23, ptr noundef nonnull align 8 dereferenceable(16) %ref.tmp25, ptr noundef nonnull align 8 dereferenceable(16) %ref.tmp26)
          to label %_ZN11mpq_managerILb1EE3setER3mpzRKS1_.exit.i.i.i unwind label %lpad28

_ZN11mpq_managerILb1EE3setER3mpzRKS1_.exit.i.i.i: ; preds = %if.else.i.i.i.i.i55, %if.then.i.i.i.i.i57
  %bf.load.i.i.i4.i.i.i = load i8, ptr %m_kind.i1.i.i.i, align 4, !noalias !14
  %bf.clear.i.i.i5.i.i.i = and i8 %bf.load.i.i.i4.i.i.i, 1
  %cmp.i.i.i6.i.i.i = icmp eq i8 %bf.clear.i.i.i5.i.i.i, 0
  br i1 %cmp.i.i.i6.i.i.i, label %if.then.i.i8.i.i.i, label %if.else.i.i7.i.i.i

if.then.i.i8.i.i.i:                               ; preds = %_ZN11mpq_managerILb1EE3setER3mpzRKS1_.exit.i.i.i
  %25 = load i32, ptr %m_den.i.i.i, align 8, !noalias !14
  store i32 %25, ptr %m_den.i.i.i46, align 8, !alias.scope !14
  %bf.load.i.i10.i.i.i = load i8, ptr %m_kind.i1.i.i.i47, align 4, !alias.scope !14
  %bf.clear.i.i11.i.i.i = and i8 %bf.load.i.i10.i.i.i, -2
  store i8 %bf.clear.i.i11.i.i.i, ptr %m_kind.i1.i.i.i47, align 4, !alias.scope !14
  br label %_ZN8rationalC2ERKS_.exit.i

if.else.i.i7.i.i.i:                               ; preds = %_ZN11mpq_managerILb1EE3setER3mpzRKS1_.exit.i.i.i
  invoke void @_ZN11mpz_managerILb1EE7big_setER3mpzRKS1_(ptr noundef nonnull align 8 dereferenceable(600) %23, ptr noundef nonnull align 8 dereferenceable(16) %m_den.i.i.i46, ptr noundef nonnull align 8 dereferenceable(16) %m_den.i.i.i)
          to label %_ZN8rationalC2ERKS_.exit.i unwind label %lpad28

_ZN8rationalC2ERKS_.exit.i:                       ; preds = %if.else.i.i7.i.i.i, %if.then.i.i8.i.i.i
  %26 = load ptr, ptr @_ZN8rational13g_mpq_managerE, align 8, !noalias !14
  invoke void @_ZN11mpz_managerILb1EE3absER3mpz(ptr noundef nonnull align 8 dereferenceable(600) %26, ptr noundef nonnull align 8 dereferenceable(16) %ref.tmp25)
          to label %invoke.cont29 unwind label %lpad.i56

lpad.i56:                                         ; preds = %_ZN8rationalC2ERKS_.exit.i
  %27 = landingpad { ptr, i32 }
          cleanup
  call void @_ZN8rationalD2Ev(ptr noundef nonnull align 8 dereferenceable(32) %ref.tmp25) #17
  br label %ehcleanup37

invoke.cont29:                                    ; preds = %_ZN8rationalC2ERKS_.exit.i
  call void @llvm.experimental.noalias.scope.decl(metadata !17)
  store i32 0, ptr %ref.tmp, align 8, !alias.scope !17
  %bf.load.i.i.i.i62 = load i8, ptr %m_kind.i.i.i.i61, align 4, !alias.scope !17
  %bf.clear3.i.i.i.i63 = and i8 %bf.load.i.i.i.i62, -4
  store i8 %bf.clear3.i.i.i.i63, ptr %m_kind.i.i.i.i61, align 4, !alias.scope !17
  store ptr null, ptr %m_ptr.i.i.i.i64, align 8, !alias.scope !17
  store i32 1, ptr %m_den.i.i.i65, align 8, !alias.scope !17
  %bf.load.i2.i.i.i67 = load i8, ptr %m_kind.i1.i.i.i66, align 4, !alias.scope !17
  %bf.clear3.i3.i.i.i68 = and i8 %bf.load.i2.i.i.i67, -4
  store i8 %bf.clear3.i3.i.i.i68, ptr %m_kind.i1.i.i.i66, align 4, !alias.scope !17
  store ptr null, ptr %m_ptr.i4.i.i.i69, align 8, !alias.scope !17
  %28 = load ptr, ptr @_ZN8rational13g_mpq_managerE, align 8, !noalias !17
  invoke void @_ZN11mpz_managerILb1EE3lcmERK3mpzS3_RS1_(ptr noundef nonnull align 8 dereferenceable(600) %28, ptr noundef nonnull align 8 dereferenceable(16) %arrayidx.i41, ptr noundef nonnull align 8 dereferenceable(16) %ref.tmp25, ptr noundef nonnull align 8 dereferenceable(16) %ref.tmp)
          to label %.noexc.i unwind label %lpad.i70

.noexc.i:                                         ; preds = %invoke.cont29
  invoke void @_ZN11mpz_managerILb1EE3delEPS0_R3mpz(ptr noundef nonnull %28, ptr noundef nonnull align 8 dereferenceable(16) %m_den.i.i.i65)
          to label %invoke.cont31 unwind label %lpad.i70

lpad.i70:                                         ; preds = %.noexc.i, %invoke.cont29
  %29 = landingpad { ptr, i32 }
          cleanup
  call void @_ZN8rationalD2Ev(ptr noundef nonnull align 8 dereferenceable(32) %ref.tmp) #17
  call void @_ZN8rationalD2Ev(ptr noundef nonnull align 8 dereferenceable(32) %ref.tmp25) #17
  br label %ehcleanup37

invoke.cont31:                                    ; preds = %.noexc.i
  store i32 1, ptr %m_den.i.i.i65, align 8, !alias.scope !17
  %30 = load ptr, ptr %m_col_lcm, align 8
  %arrayidx.i73 = getelementptr inbounds %class.rational, ptr %30, i64 %idxprom.i
  %31 = load i32, ptr %arrayidx.i73, align 4
  %32 = load i32, ptr %ref.tmp, align 8
  store i32 %32, ptr %arrayidx.i73, align 4
  store i32 %31, ptr %ref.tmp, align 8
  %m_ptr.i.i.i.i74 = getelementptr inbounds %class.mpz, ptr %arrayidx.i73, i64 0, i32 2
  %33 = load ptr, ptr %m_ptr.i.i.i.i74, align 8
  %34 = load ptr, ptr %m_ptr.i.i.i.i64, align 8
  store ptr %34, ptr %m_ptr.i.i.i.i74, align 8
  store ptr %33, ptr %m_ptr.i.i.i.i64, align 8
  %m_owner.i.i.i.i = getelementptr inbounds %class.mpz, ptr %arrayidx.i73, i64 0, i32 1
  %bf.load.i.i.i.i75 = load i8, ptr %m_owner.i.i.i.i, align 4
  %bf.clear.i.i.i.i = and i8 %bf.load.i.i.i.i75, 2
  %bf.load5.i.i.i.i = load i8, ptr %m_kind.i.i.i.i61, align 4
  %bf.clear7.i.i.i.i = and i8 %bf.load5.i.i.i.i, 2
  %bf.clear11.i.i.i.i = and i8 %bf.load.i.i.i.i75, -3
  %bf.set.i.i.i.i = or disjoint i8 %bf.clear7.i.i.i.i, %bf.clear11.i.i.i.i
  store i8 %bf.set.i.i.i.i, ptr %m_owner.i.i.i.i, align 4
  %bf.load13.i.i.i.i = load i8, ptr %m_kind.i.i.i.i61, align 4
  %bf.clear16.i.i.i.i = and i8 %bf.load13.i.i.i.i, -3
  %bf.set17.i.i.i.i = or disjoint i8 %bf.clear16.i.i.i.i, %bf.clear.i.i.i.i
  store i8 %bf.set17.i.i.i.i, ptr %m_kind.i.i.i.i61, align 4
  %bf.load18.i.i.i.i = load i8, ptr %m_owner.i.i.i.i, align 4
  %bf.clear19.i.i.i.i = and i8 %bf.load18.i.i.i.i, 1
  %bf.clear23.i.i.i.i = and i8 %bf.load13.i.i.i.i, 1
  %bf.clear28.i.i.i.i = and i8 %bf.load18.i.i.i.i, -2
  %bf.set29.i.i.i.i = or disjoint i8 %bf.clear28.i.i.i.i, %bf.clear23.i.i.i.i
  store i8 %bf.set29.i.i.i.i, ptr %m_owner.i.i.i.i, align 4
  %bf.load31.i.i.i.i = load i8, ptr %m_kind.i.i.i.i61, align 4
  %bf.clear33.i.i.i.i = and i8 %bf.load31.i.i.i.i, -2
  %bf.set34.i.i.i.i = or disjoint i8 %bf.clear33.i.i.i.i, %bf.clear19.i.i.i.i
  store i8 %bf.set34.i.i.i.i, ptr %m_kind.i.i.i.i61, align 4
  %m_den.i.i76 = getelementptr inbounds %class.mpq, ptr %arrayidx.i73, i64 0, i32 1
  %35 = load i32, ptr %m_den.i.i76, align 4
  %36 = load i32, ptr %m_den.i.i.i65, align 8
  store i32 %36, ptr %m_den.i.i76, align 4
  store i32 %35, ptr %m_den.i.i.i65, align 8
  %m_ptr.i.i2.i.i = getelementptr inbounds %class.mpq, ptr %arrayidx.i73, i64 0, i32 1, i32 2
  %37 = load ptr, ptr %m_ptr.i.i2.i.i, align 8
  %38 = load ptr, ptr %m_ptr.i4.i.i.i69, align 8
  store ptr %38, ptr %m_ptr.i.i2.i.i, align 8
  store ptr %37, ptr %m_ptr.i4.i.i.i69, align 8
  %m_owner.i.i4.i.i = getelementptr inbounds %class.mpq, ptr %arrayidx.i73, i64 0, i32 1, i32 1
  %bf.load.i.i5.i.i = load i8, ptr %m_owner.i.i4.i.i, align 4
  %bf.clear.i.i6.i.i = and i8 %bf.load.i.i5.i.i, 2
  %bf.load5.i.i8.i.i = load i8, ptr %m_kind.i1.i.i.i66, align 4
  %bf.clear7.i.i9.i.i = and i8 %bf.load5.i.i8.i.i, 2
  %bf.clear11.i.i10.i.i = and i8 %bf.load.i.i5.i.i, -3
  %bf.set.i.i11.i.i = or disjoint i8 %bf.clear7.i.i9.i.i, %bf.clear11.i.i10.i.i
  store i8 %bf.set.i.i11.i.i, ptr %m_owner.i.i4.i.i, align 4
  %bf.load13.i.i12.i.i = load i8, ptr %m_kind.i1.i.i.i66, align 4
  %bf.clear16.i.i13.i.i = and i8 %bf.load13.i.i12.i.i, -3
  %bf.set17.i.i14.i.i = or disjoint i8 %bf.clear16.i.i13.i.i, %bf.clear.i.i6.i.i
  store i8 %bf.set17.i.i14.i.i, ptr %m_kind.i1.i.i.i66, align 4
  %bf.load18.i.i15.i.i = load i8, ptr %m_owner.i.i4.i.i, align 4
  %bf.clear19.i.i16.i.i = and i8 %bf.load18.i.i15.i.i, 1
  %bf.clear23.i.i17.i.i = and i8 %bf.load13.i.i12.i.i, 1
  %bf.clear28.i.i18.i.i = and i8 %bf.load18.i.i15.i.i, -2
  %bf.set29.i.i19.i.i = or disjoint i8 %bf.clear28.i.i18.i.i, %bf.clear23.i.i17.i.i
  store i8 %bf.set29.i.i19.i.i, ptr %m_owner.i.i4.i.i, align 4
  %bf.load31.i.i20.i.i = load i8, ptr %m_kind.i1.i.i.i66, align 4
  %bf.clear33.i.i21.i.i = and i8 %bf.load31.i.i20.i.i, -2
  %bf.set34.i.i22.i.i = or disjoint i8 %bf.clear33.i.i21.i.i, %bf.clear19.i.i16.i.i
  store i8 %bf.set34.i.i22.i.i, ptr %m_kind.i1.i.i.i66, align 4
  %39 = load ptr, ptr @_ZN8rational13g_mpq_managerE, align 8
  invoke void @_ZN11mpz_managerILb1EE3delEPS0_R3mpz(ptr noundef %39, ptr noundef nonnull align 8 dereferenceable(16) %ref.tmp)
          to label %.noexc.i77 unwind label %terminate.lpad.i

.noexc.i77:                                       ; preds = %invoke.cont31
  invoke void @_ZN11mpz_managerILb1EE3delEPS0_R3mpz(ptr noundef %39, ptr noundef nonnull align 8 dereferenceable(16) %m_den.i.i.i65)
          to label %_ZN8rationalD2Ev.exit unwind label %terminate.lpad.i

terminate.lpad.i:                                 ; preds = %.noexc.i77, %invoke.cont31
  %40 = landingpad { ptr, i32 }
          catch ptr null
  %41 = extractvalue { ptr, i32 } %40, 0
  call void @__clang_call_terminate(ptr %41) #18
  unreachable

_ZN8rationalD2Ev.exit:                            ; preds = %.noexc.i77
  %42 = load ptr, ptr @_ZN8rational13g_mpq_managerE, align 8
  invoke void @_ZN11mpz_managerILb1EE3delEPS0_R3mpz(ptr noundef %42, ptr noundef nonnull align 8 dereferenceable(16) %ref.tmp25)
          to label %.noexc.i80 unwind label %terminate.lpad.i79

.noexc.i80:                                       ; preds = %_ZN8rationalD2Ev.exit
  invoke void @_ZN11mpz_managerILb1EE3delEPS0_R3mpz(ptr noundef %42, ptr noundef nonnull align 8 dereferenceable(16) %m_den.i.i.i46)
          to label %_ZN8rationalD2Ev.exit82 unwind label %terminate.lpad.i79

terminate.lpad.i79:                               ; preds = %.noexc.i80, %_ZN8rationalD2Ev.exit
  %43 = landingpad { ptr, i32 }
          catch ptr null
  %44 = extractvalue { ptr, i32 } %43, 0
  call void @__clang_call_terminate(ptr %44) #18
  unreachable

_ZN8rationalD2Ev.exit82:                          ; preds = %.noexc.i80
  %45 = load ptr, ptr @_ZN8rational13g_mpq_managerE, align 8
  invoke void @_ZN11mpz_managerILb1EE3delEPS0_R3mpz(ptr noundef %45, ptr noundef nonnull align 8 dereferenceable(16) %ref.tmp26)
          to label %.noexc.i84 unwind label %terminate.lpad.i83

.noexc.i84:                                       ; preds = %_ZN8rationalD2Ev.exit82
  invoke void @_ZN11mpz_managerILb1EE3delEPS0_R3mpz(ptr noundef %45, ptr noundef nonnull align 8 dereferenceable(16) %m_den.i.i.i)
          to label %for.inc unwind label %terminate.lpad.i83

terminate.lpad.i83:                               ; preds = %.noexc.i84, %_ZN8rationalD2Ev.exit82
  %46 = landingpad { ptr, i32 }
          catch ptr null
  %47 = extractvalue { ptr, i32 } %46, 0
  call void @__clang_call_terminate(ptr %47) #18
  unreachable

lpad28:                                           ; preds = %if.else.i.i7.i.i.i, %if.else.i.i.i.i.i55
  %48 = landingpad { ptr, i32 }
          cleanup
  br label %ehcleanup37

ehcleanup37:                                      ; preds = %lpad28, %lpad.i56, %lpad.i70
  %.pn = phi { ptr, i32 } [ %29, %lpad.i70 ], [ %48, %lpad28 ], [ %27, %lpad.i56 ]
  call void @_ZN8rationalD2Ev(ptr noundef nonnull align 8 dereferenceable(32) %ref.tmp26) #17
  br label %ehcleanup122

for.inc:                                          ; preds = %.noexc.i84, %invoke.cont19
  %indvars.iv.next = add nuw nsw i64 %indvars.iv, 1
  %exitcond.not = icmp eq i64 %indvars.iv.next, %wide.trip.count
  br i1 %exitcond.not, label %for.inc39, label %for.body15, !llvm.loop !20

for.inc39:                                        ; preds = %for.inc, %if.end
  %incdec.ptr = getelementptr inbounds %"class.spacer::lemma_cluster::lemma_info", ptr %__begin1.0265, i64 1
  %cmp.not = icmp eq ptr %incdec.ptr, %add.ptr.i
  br i1 %cmp.not, label %for.end40, label %for.body

for.end40:                                        ; preds = %for.inc39, %_ZN6vectorI8rationalLb1EjE5resetEv.exit, %_ZNK6vectorIN6spacer13lemma_cluster10lemma_infoELb1EjE3endEv.exit
  %n_vars.0.lcssa = phi i32 [ 0, %_ZNK6vectorIN6spacer13lemma_cluster10lemma_infoELb1EjE3endEv.exit ], [ 0, %_ZN6vectorI8rationalLb1EjE5resetEv.exit ], [ %n_vars.1, %for.inc39 ]
  invoke void @_ZN6spacer14convex_closure5resetEj(ptr noundef nonnull align 8 dereferenceable(240) %cc, i32 noundef %n_vars.0.lcssa)
          to label %invoke.cont41 unwind label %lpad.loopexit.split-lp.loopexit.split-lp.loopexit.split-lp

invoke.cont41:                                    ; preds = %for.end40
  %m = getelementptr inbounds %"class.spacer::lemma_global_generalizer::subsumer", ptr %this, i64 0, i32 1
  %49 = load ptr, ptr %m, align 8
  %50 = load ptr, ptr %m_lemma_vec.i, align 8
  %m_sub.i88 = getelementptr inbounds %"class.spacer::lemma_cluster::lemma_info", ptr %50, i64 0, i32 1
  %call49 = invoke fastcc noundef zeroext i1 @_ZN12_GLOBAL__N_111contains_bvER11ast_managerRK12substitutionRj(ptr noundef nonnull align 8 dereferenceable(976) %49, ptr noundef nonnull align 8 dereferenceable(124) %m_sub.i88)
          to label %invoke.cont48 unwind label %lpad.loopexit.split-lp.loopexit.split-lp.loopexit.split-lp

invoke.cont48:                                    ; preds = %invoke.cont41
  br i1 %call49, label %if.then50, label %if.end52

if.then50:                                        ; preds = %invoke.cont48
  %m_enable_implicit.i = getelementptr inbounds %"class.spacer::convex_closure", ptr %cc, i64 0, i32 5
  store i8 0, ptr %m_enable_implicit.i, align 4
  br label %if.end52

if.end52:                                         ; preds = %if.then50, %invoke.cont48
  %cmp55268.not = icmp eq i32 %n_vars.0.lcssa, 0
  br i1 %cmp55268.not, label %for.end70, label %for.body56.lr.ph

for.body56.lr.ph:                                 ; preds = %if.end52
  %m_kind.i.i.i91 = getelementptr inbounds %class.mpz, ptr %agg.tmp, i64 0, i32 1
  %m_ptr.i.i.i94 = getelementptr inbounds %class.mpz, ptr %agg.tmp, i64 0, i32 2
  %m_den.i.i95 = getelementptr inbounds %class.mpq, ptr %agg.tmp, i64 0, i32 1
  %m_kind.i1.i.i96 = getelementptr inbounds %class.mpq, ptr %agg.tmp, i64 0, i32 1, i32 1
  %m_ptr.i4.i.i99 = getelementptr inbounds %class.mpq, ptr %agg.tmp, i64 0, i32 1, i32 2
  %m_nodes.i = getelementptr inbounds %"class.spacer::lemma_global_generalizer::subsumer", ptr %this, i64 0, i32 6, i32 0, i32 1
  %m_col_vars.i = getelementptr inbounds %"class.spacer::convex_closure", ptr %cc, i64 0, i32 8
  %m_nodes.i.i = getelementptr inbounds %"class.spacer::convex_closure", ptr %cc, i64 0, i32 8, i32 0, i32 1
  %wide.trip.count287 = zext i32 %n_vars.0.lcssa to i64
  br label %for.body56

for.body56:                                       ; preds = %for.body56.lr.ph, %_ZN8rationalD2Ev.exit111
  %indvars.iv284 = phi i64 [ 0, %for.body56.lr.ph ], [ %indvars.iv.next285, %_ZN8rationalD2Ev.exit111 ]
  %51 = load ptr, ptr %m_col_lcm, align 8
  %arrayidx.i90 = getelementptr inbounds %class.rational, ptr %51, i64 %indvars.iv284
  store i32 0, ptr %agg.tmp, align 8
  %bf.load.i.i.i92 = load i8, ptr %m_kind.i.i.i91, align 4
  %bf.clear3.i.i.i93 = and i8 %bf.load.i.i.i92, -4
  store i8 %bf.clear3.i.i.i93, ptr %m_kind.i.i.i91, align 4
  store ptr null, ptr %m_ptr.i.i.i94, align 8
  store i32 1, ptr %m_den.i.i95, align 8
  %bf.load.i2.i.i97 = load i8, ptr %m_kind.i1.i.i96, align 4
  %bf.clear3.i3.i.i98 = and i8 %bf.load.i2.i.i97, -4
  store i8 %bf.clear3.i3.i.i98, ptr %m_kind.i1.i.i96, align 4
  store ptr null, ptr %m_ptr.i4.i.i99, align 8
  %52 = load ptr, ptr @_ZN8rational13g_mpq_managerE, align 8
  %m_kind.i.i.i.i.i = getelementptr inbounds %class.mpz, ptr %arrayidx.i90, i64 0, i32 1
  %bf.load.i.i.i.i.i = load i8, ptr %m_kind.i.i.i.i.i, align 4
  %bf.clear.i.i.i.i.i = and i8 %bf.load.i.i.i.i.i, 1
  %cmp.i.i.i.i.i = icmp eq i8 %bf.clear.i.i.i.i.i, 0
  br i1 %cmp.i.i.i.i.i, label %if.then.i.i.i.i, label %if.else.i.i.i.i

if.then.i.i.i.i:                                  ; preds = %for.body56
  %53 = load i32, ptr %arrayidx.i90, align 8
  store i32 %53, ptr %agg.tmp, align 8
  store i8 %bf.clear3.i.i.i93, ptr %m_kind.i.i.i91, align 4
  br label %_ZN11mpq_managerILb1EE3setER3mpzRKS1_.exit.i.i

if.else.i.i.i.i:                                  ; preds = %for.body56
  invoke void @_ZN11mpz_managerILb1EE7big_setER3mpzRKS1_(ptr noundef nonnull align 8 dereferenceable(600) %52, ptr noundef nonnull align 8 dereferenceable(16) %agg.tmp, ptr noundef nonnull align 8 dereferenceable(16) %arrayidx.i90)
          to label %_ZN11mpq_managerILb1EE3setER3mpzRKS1_.exit.i.i unwind label %lpad.loopexit242

_ZN11mpq_managerILb1EE3setER3mpzRKS1_.exit.i.i:   ; preds = %if.else.i.i.i.i, %if.then.i.i.i.i
  %m_den3.i.i100 = getelementptr inbounds %class.mpq, ptr %arrayidx.i90, i64 0, i32 1
  %m_kind.i.i.i3.i.i = getelementptr inbounds %class.mpq, ptr %arrayidx.i90, i64 0, i32 1, i32 1
  %bf.load.i.i.i4.i.i = load i8, ptr %m_kind.i.i.i3.i.i, align 4
  %bf.clear.i.i.i5.i.i = and i8 %bf.load.i.i.i4.i.i, 1
  %cmp.i.i.i6.i.i = icmp eq i8 %bf.clear.i.i.i5.i.i, 0
  br i1 %cmp.i.i.i6.i.i, label %if.then.i.i8.i.i, label %if.else.i.i7.i.i

if.then.i.i8.i.i:                                 ; preds = %_ZN11mpq_managerILb1EE3setER3mpzRKS1_.exit.i.i
  %54 = load i32, ptr %m_den3.i.i100, align 8
  store i32 %54, ptr %m_den.i.i95, align 8
  %bf.load.i.i10.i.i = load i8, ptr %m_kind.i1.i.i96, align 4
  %bf.clear.i.i11.i.i = and i8 %bf.load.i.i10.i.i, -2
  store i8 %bf.clear.i.i11.i.i, ptr %m_kind.i1.i.i96, align 4
  br label %invoke.cont62

if.else.i.i7.i.i:                                 ; preds = %_ZN11mpq_managerILb1EE3setER3mpzRKS1_.exit.i.i
  invoke void @_ZN11mpz_managerILb1EE7big_setER3mpzRKS1_(ptr noundef nonnull align 8 dereferenceable(600) %52, ptr noundef nonnull align 8 dereferenceable(16) %m_den.i.i95, ptr noundef nonnull align 8 dereferenceable(16) %m_den3.i.i100)
          to label %invoke.cont62 unwind label %lpad.loopexit242

invoke.cont62:                                    ; preds = %if.else.i.i7.i.i, %if.then.i.i8.i.i
  %55 = load ptr, ptr %m_nodes.i, align 8
  %arrayidx.i.i104 = getelementptr inbounds ptr, ptr %55, i64 %indvars.iv284
  %56 = load ptr, ptr %arrayidx.i.i104, align 8
  %call65 = invoke noundef ptr @_ZN6spacer24lemma_global_generalizer8subsumer10mk_rat_mulE8rationalP4expr(ptr noundef nonnull align 8 dereferenceable(152) %this, ptr noundef nonnull %agg.tmp, ptr noundef %56)
          to label %invoke.cont64 unwind label %lpad61

invoke.cont64:                                    ; preds = %invoke.cont62
  %57 = load ptr, ptr %m_nodes.i.i, align 8
  %arrayidx.i.i.i106 = getelementptr inbounds ptr, ptr %57, i64 %indvars.iv284
  %58 = load ptr, ptr %m_col_vars.i, align 8
  %tobool.not.i.i.i = icmp eq ptr %call65, null
  br i1 %tobool.not.i.i.i, label %_ZN11ast_manager7inc_refEP3ast.exit.i.i, label %if.then.i.i.i

if.then.i.i.i:                                    ; preds = %invoke.cont64
  %m_ref_count.i.i.i.i = getelementptr inbounds %class.ast, ptr %call65, i64 0, i32 2
  %59 = load i32, ptr %m_ref_count.i.i.i.i, align 4
  %inc.i.i.i.i = add i32 %59, 1
  store i32 %inc.i.i.i.i, ptr %m_ref_count.i.i.i.i, align 4
  br label %_ZN11ast_manager7inc_refEP3ast.exit.i.i

_ZN11ast_manager7inc_refEP3ast.exit.i.i:          ; preds = %if.then.i.i.i, %invoke.cont64
  %60 = load ptr, ptr %arrayidx.i.i.i106, align 8
  %tobool.not.i2.i.i = icmp eq ptr %60, null
  br i1 %tobool.not.i2.i.i, label %invoke.cont66, label %if.then.i3.i.i

if.then.i3.i.i:                                   ; preds = %_ZN11ast_manager7inc_refEP3ast.exit.i.i
  %m_ref_count.i.i4.i.i = getelementptr inbounds %class.ast, ptr %60, i64 0, i32 2
  %61 = load i32, ptr %m_ref_count.i.i4.i.i, align 4
  %dec.i.i.i.i = add i32 %61, -1
  store i32 %dec.i.i.i.i, ptr %m_ref_count.i.i4.i.i, align 4
  %cmp.i.i.i = icmp eq i32 %dec.i.i.i.i, 0
  br i1 %cmp.i.i.i, label %if.then2.i.i.i, label %invoke.cont66

if.then2.i.i.i:                                   ; preds = %if.then.i3.i.i
  invoke void @_ZN11ast_manager11delete_nodeEP3ast(ptr noundef nonnull align 8 dereferenceable(976) %58, ptr noundef nonnull %60)
          to label %invoke.cont66 unwind label %lpad61

invoke.cont66:                                    ; preds = %if.then.i3.i.i, %_ZN11ast_manager7inc_refEP3ast.exit.i.i, %if.then2.i.i.i
  store ptr %call65, ptr %arrayidx.i.i.i106, align 8
  %62 = load ptr, ptr @_ZN8rational13g_mpq_managerE, align 8
  invoke void @_ZN11mpz_managerILb1EE3delEPS0_R3mpz(ptr noundef %62, ptr noundef nonnull align 8 dereferenceable(16) %agg.tmp)
          to label %.noexc.i109 unwind label %terminate.lpad.i108

.noexc.i109:                                      ; preds = %invoke.cont66
  invoke void @_ZN11mpz_managerILb1EE3delEPS0_R3mpz(ptr noundef %62, ptr noundef nonnull align 8 dereferenceable(16) %m_den.i.i95)
          to label %_ZN8rationalD2Ev.exit111 unwind label %terminate.lpad.i108

terminate.lpad.i108:                              ; preds = %.noexc.i109, %invoke.cont66
  %63 = landingpad { ptr, i32 }
          catch ptr null
  %64 = extractvalue { ptr, i32 } %63, 0
  call void @__clang_call_terminate(ptr %64) #18
  unreachable

_ZN8rationalD2Ev.exit111:                         ; preds = %.noexc.i109
  %indvars.iv.next285 = add nuw nsw i64 %indvars.iv284, 1
  %exitcond288.not = icmp eq i64 %indvars.iv.next285, %wide.trip.count287
  br i1 %exitcond288.not, label %for.end70, label %for.body56, !llvm.loop !21

lpad61:                                           ; preds = %if.then2.i.i.i, %invoke.cont62
  %65 = landingpad { ptr, i32 }
          cleanup
  call void @_ZN8rationalD2Ev(ptr noundef nonnull align 8 dereferenceable(32) %agg.tmp) #17
  br label %ehcleanup122

for.end70:                                        ; preds = %_ZN8rationalD2Ev.exit111, %if.end52
  store ptr null, ptr %row, align 8
  %66 = load ptr, ptr %m_lemma_vec.i, align 8
  %cmp.i.i112 = icmp eq ptr %66, null
  br i1 %cmp.i.i112, label %_ZN6vectorI8rationalLb1EjED2Ev.exit, label %_ZNK6vectorIN6spacer13lemma_cluster10lemma_infoELb1EjE3endEv.exit117

_ZNK6vectorIN6spacer13lemma_cluster10lemma_infoELb1EjE3endEv.exit117: ; preds = %for.end70
  %arrayidx.i.i114 = getelementptr inbounds i32, ptr %66, i64 -1
  %67 = load i32, ptr %arrayidx.i.i114, align 4
  %68 = zext i32 %67 to i64
  %add.ptr.i116 = getelementptr inbounds %"class.spacer::lemma_cluster::lemma_info", ptr %66, i64 %68
  %cmp81.not272 = icmp eq i32 %67, 0
  br i1 %cmp81.not272, label %_ZN6vectorI8rationalLb1EjED2Ev.exit, label %for.body82.lr.ph

for.body82.lr.ph:                                 ; preds = %_ZNK6vectorIN6spacer13lemma_cluster10lemma_infoELb1EjE3endEv.exit117
  %m_arith.i168 = getelementptr inbounds %"class.spacer::lemma_global_generalizer::subsumer", ptr %this, i64 0, i32 2
  %m_bv.i170 = getelementptr inbounds %"class.spacer::lemma_global_generalizer::subsumer", ptr %this, i64 0, i32 3
  %m_ptr3.i.i.i.i181 = getelementptr inbounds %class.mpz, ptr %ref.tmp104, i64 0, i32 2
  %m_owner4.i.i.i.i185 = getelementptr inbounds %class.mpz, ptr %ref.tmp104, i64 0, i32 1
  %m_den3.i.i202 = getelementptr inbounds %class.mpq, ptr %ref.tmp104, i64 0, i32 1
  %m_ptr3.i.i3.i.i204 = getelementptr inbounds %class.mpq, ptr %ref.tmp104, i64 0, i32 1, i32 2
  %m_owner4.i.i7.i.i208 = getelementptr inbounds %class.mpq, ptr %ref.tmp104, i64 0, i32 1, i32 1
  %m_data.i = getelementptr inbounds %"class.spacer::convex_closure", ptr %cc, i64 0, i32 7
  br label %for.body82

for.body82:                                       ; preds = %for.body82.lr.ph, %for.inc118
  %__begin173.0273 = phi ptr [ %66, %for.body82.lr.ph ], [ %incdec.ptr119, %for.inc118 ]
  %69 = load ptr, ptr %row, align 8
  %tobool.not.i118 = icmp eq ptr %69, null
  br i1 %tobool.not.i118, label %_ZNK6vectorI8rationalLb1EjE4sizeEv.exit.i, label %_ZNK6vectorI8rationalLb1EjE4sizeEv.exit.i.i119

_ZNK6vectorI8rationalLb1EjE4sizeEv.exit.i.i119:   ; preds = %for.body82
  %arrayidx.i.i.i120 = getelementptr inbounds i32, ptr %69, i64 -1
  %70 = load i32, ptr %arrayidx.i.i.i120, align 4
  %cmp.not5.i.i.i.i.i121 = icmp eq i32 %70, 0
  br i1 %cmp.not5.i.i.i.i.i121, label %invoke.cont84, label %for.body.i.i.i.i.i122

for.body.i.i.i.i.i122:                            ; preds = %_ZNK6vectorI8rationalLb1EjE4sizeEv.exit.i.i119, %_ZSt8_DestroyI8rationalEvPT_.exit.i.i.i.i.i128
  %__count.addr.07.i.i.i.i.i123 = phi i32 [ %dec.i.i.i.i.i130, %_ZSt8_DestroyI8rationalEvPT_.exit.i.i.i.i.i128 ], [ %70, %_ZNK6vectorI8rationalLb1EjE4sizeEv.exit.i.i119 ]
  %__first.addr.06.i.i.i.i.i124 = phi ptr [ %incdec.ptr.i.i.i.i.i129, %_ZSt8_DestroyI8rationalEvPT_.exit.i.i.i.i.i128 ], [ %69, %_ZNK6vectorI8rationalLb1EjE4sizeEv.exit.i.i119 ]
  %71 = load ptr, ptr @_ZN8rational13g_mpq_managerE, align 8
  invoke void @_ZN11mpz_managerILb1EE3delEPS0_R3mpz(ptr noundef %71, ptr noundef nonnull align 8 dereferenceable(16) %__first.addr.06.i.i.i.i.i124)
          to label %.noexc.i.i.i.i.i.i.i126 unwind label %terminate.lpad.i.i.i.i.i.i.i125

.noexc.i.i.i.i.i.i.i126:                          ; preds = %for.body.i.i.i.i.i122
  %m_den.i.i.i.i.i.i.i.i127 = getelementptr inbounds %class.mpq, ptr %__first.addr.06.i.i.i.i.i124, i64 0, i32 1
  invoke void @_ZN11mpz_managerILb1EE3delEPS0_R3mpz(ptr noundef %71, ptr noundef nonnull align 8 dereferenceable(16) %m_den.i.i.i.i.i.i.i.i127)
          to label %_ZSt8_DestroyI8rationalEvPT_.exit.i.i.i.i.i128 unwind label %terminate.lpad.i.i.i.i.i.i.i125

terminate.lpad.i.i.i.i.i.i.i125:                  ; preds = %.noexc.i.i.i.i.i.i.i126, %for.body.i.i.i.i.i122
  %72 = landingpad { ptr, i32 }
          catch ptr null
  %73 = extractvalue { ptr, i32 } %72, 0
  call void @__clang_call_terminate(ptr %73) #18
  unreachable

_ZSt8_DestroyI8rationalEvPT_.exit.i.i.i.i.i128:   ; preds = %.noexc.i.i.i.i.i.i.i126
  %incdec.ptr.i.i.i.i.i129 = getelementptr inbounds %class.rational, ptr %__first.addr.06.i.i.i.i.i124, i64 1
  %dec.i.i.i.i.i130 = add i32 %__count.addr.07.i.i.i.i.i123, -1
  %cmp.not.i.i.i.i.i131 = icmp eq i32 %dec.i.i.i.i.i130, 0
  br i1 %cmp.not.i.i.i.i.i131, label %_ZN6vectorI8rationalLb1EjE16destroy_elementsEv.exit.loopexit.i132, label %for.body.i.i.i.i.i122, !llvm.loop !4

_ZN6vectorI8rationalLb1EjE16destroy_elementsEv.exit.loopexit.i132: ; preds = %_ZSt8_DestroyI8rationalEvPT_.exit.i.i.i.i.i128
  %.pre.i133 = load ptr, ptr %row, align 8
  br label %invoke.cont84

invoke.cont84:                                    ; preds = %_ZNK6vectorI8rationalLb1EjE4sizeEv.exit.i.i119, %_ZN6vectorI8rationalLb1EjE16destroy_elementsEv.exit.loopexit.i132
  %74 = phi ptr [ %.pre.i133, %_ZN6vectorI8rationalLb1EjE16destroy_elementsEv.exit.loopexit.i132 ], [ %69, %_ZNK6vectorI8rationalLb1EjE4sizeEv.exit.i.i119 ]
  %arrayidx.i135 = getelementptr inbounds i32, ptr %74, i64 -1
  store i32 0, ptr %arrayidx.i135, align 4
  %.pr = load ptr, ptr %row, align 8
  %cmp.i.i137 = icmp eq ptr %.pr, null
  br i1 %cmp.i.i137, label %_ZNK6vectorI8rationalLb1EjE4sizeEv.exit.i, label %if.end.i.i138

if.end.i.i138:                                    ; preds = %invoke.cont84
  %arrayidx.i.i139 = getelementptr inbounds i32, ptr %.pr, i64 -1
  %75 = load i32, ptr %arrayidx.i.i139, align 4
  br label %_ZNK6vectorI8rationalLb1EjE4sizeEv.exit.i

_ZNK6vectorI8rationalLb1EjE4sizeEv.exit.i:        ; preds = %for.body82, %if.end.i.i138, %invoke.cont84
  %retval.0.i.i140 = phi i32 [ %75, %if.end.i.i138 ], [ 0, %invoke.cont84 ], [ 0, %for.body82 ]
  %cmp.i = icmp ult i32 %retval.0.i.i140, %n_vars.0.lcssa
  br i1 %cmp.i, label %if.then.i141, label %invoke.cont85

if.then.i141:                                     ; preds = %_ZNK6vectorI8rationalLb1EjE4sizeEv.exit.i
  invoke void @_ZN6vectorI8rationalLb1EjE6resizeEj(ptr noundef nonnull align 8 dereferenceable(8) %row, i32 noundef %n_vars.0.lcssa)
          to label %invoke.cont85 unwind label %lpad74.loopexit.split-lp.loopexit

invoke.cont85:                                    ; preds = %_ZNK6vectorI8rationalLb1EjE4sizeEv.exit.i, %if.then.i141
  %m_vars.i144 = getelementptr inbounds %"class.spacer::lemma_cluster::lemma_info", ptr %__begin173.0273, i64 0, i32 1, i32 2
  %76 = load ptr, ptr %m_vars.i144, align 8
  %cmp.i.i145 = icmp eq ptr %76, null
  br i1 %cmp.i.i145, label %for.end116, label %_ZNK12substitution16get_num_bindingsEv.exit149

_ZNK12substitution16get_num_bindingsEv.exit149:   ; preds = %invoke.cont85
  %arrayidx.i.i147 = getelementptr inbounds i32, ptr %76, i64 -1
  %77 = load i32, ptr %arrayidx.i.i147, align 4
  %cmp93270.not = icmp eq i32 %77, 0
  br i1 %cmp93270.not, label %for.end116, label %for.body94.lr.ph

for.body94.lr.ph:                                 ; preds = %_ZNK12substitution16get_num_bindingsEv.exit149
  %m_subst.i155 = getelementptr inbounds %"class.spacer::lemma_cluster::lemma_info", ptr %__begin173.0273, i64 0, i32 1, i32 1
  %m_num_vars.i.i156 = getelementptr inbounds %"class.spacer::lemma_cluster::lemma_info", ptr %__begin173.0273, i64 0, i32 1, i32 1, i32 2
  %m_timestamp2.i.i161 = getelementptr inbounds %"class.spacer::lemma_cluster::lemma_info", ptr %__begin173.0273, i64 0, i32 1, i32 1, i32 3
  %wide.trip.count292 = zext i32 %77 to i64
  br label %for.body94

for.body94:                                       ; preds = %for.body94.lr.ph, %_ZN8rationalD2Ev.exit227
  %indvars.iv289 = phi i64 [ 0, %for.body94.lr.ph ], [ %indvars.iv.next290, %_ZN8rationalD2Ev.exit227 ]
  %78 = load ptr, ptr %m_vars.i144, align 8
  %arrayidx.i.i152 = getelementptr inbounds %"struct.std::pair", ptr %78, i64 %indvars.iv289
  %79 = load i32, ptr %arrayidx.i.i152, align 4
  %second.i.i153 = getelementptr inbounds %"struct.std::pair", ptr %78, i64 %indvars.iv289, i32 1
  %80 = load i32, ptr %second.i.i153, align 4
  %81 = load i32, ptr %m_num_vars.i.i156, align 4
  %mul.i.i157 = mul i32 %81, %80
  %add.i.i158 = add i32 %mul.i.i157, %79
  %82 = load ptr, ptr %m_subst.i155, align 8
  %idxprom.i.i.i159 = zext i32 %add.i.i158 to i64
  %m_timestamp.i.i160 = getelementptr inbounds %"struct.var_offset_map<expr_offset>::data", ptr %82, i64 %idxprom.i.i.i159, i32 1
  %83 = load i32, ptr %m_timestamp.i.i160, align 8
  %84 = load i32, ptr %m_timestamp2.i.i161, align 8
  %cmp.i.i162 = icmp eq i32 %83, %84
  br i1 %cmp.i.i162, label %invoke.cont95, label %if.then.i163

if.then.i163:                                     ; preds = %for.body94
  invoke void @_Z26notify_assertion_violationPKciS0_(ptr noundef nonnull @.str.13, i32 noundef 157, ptr noundef nonnull @.str.14)
          to label %.noexc165 unwind label %lpad74.loopexit.split-lp.loopexit.split-lp

.noexc165:                                        ; preds = %if.then.i163
  call void @exit(i32 noundef 114) #18
  unreachable

invoke.cont95:                                    ; preds = %for.body94
  %arrayidx.i.i.i164 = getelementptr inbounds %"struct.var_offset_map<expr_offset>::data", ptr %82, i64 %idxprom.i.i.i159
  %r.sroa.0.0.copyload236 = load ptr, ptr %arrayidx.i.i.i164, align 8
  call void @llvm.lifetime.start.p0(i64 1, ptr nonnull %is_int.i.i167)
  %call.i.i172 = invoke noundef zeroext i1 @_ZNK10arith_util10is_numeralEPK4exprR8rationalRb(ptr noundef nonnull align 8 dereferenceable(16) %m_arith.i168, ptr noundef %r.sroa.0.0.copyload236, ptr noundef nonnull align 8 dereferenceable(32) %num, ptr noundef nonnull align 1 dereferenceable(1) %is_int.i.i167)
          to label %call.i.i.noexc171 unwind label %lpad74.loopexit

call.i.i.noexc171:                                ; preds = %invoke.cont95
  call void @llvm.lifetime.end.p0(i64 1, ptr nonnull %is_int.i.i167)
  br i1 %call.i.i172, label %if.end103, label %lor.rhs.i169

lor.rhs.i169:                                     ; preds = %call.i.i.noexc171
  %call2.i174 = invoke noundef zeroext i1 @_ZNK14bv_recognizers10is_numeralEPK4exprR8rational(ptr noundef nonnull align 4 dereferenceable(4) %m_bv.i170, ptr noundef %r.sroa.0.0.copyload236, ptr noundef nonnull align 8 dereferenceable(32) %num)
          to label %invoke.cont99 unwind label %lpad74.loopexit

invoke.cont99:                                    ; preds = %lor.rhs.i169
  br i1 %call2.i174, label %if.end103, label %if.then101

if.then101:                                       ; preds = %invoke.cont99
  invoke void @_Z26notify_assertion_violationPKciS0_(ptr noundef nonnull @.str.2, i32 noundef 244, ptr noundef nonnull @.str.3)
          to label %invoke.cont102 unwind label %lpad74.loopexit.split-lp.loopexit.split-lp

invoke.cont102:                                   ; preds = %if.then101
  call void @exit(i32 noundef 114) #18
  unreachable

lpad74.loopexit:                                  ; preds = %if.end103, %invoke.cont95, %lor.rhs.i169
  %lpad.loopexit = landingpad { ptr, i32 }
          cleanup
  br label %lpad74

lpad74.loopexit.split-lp.loopexit:                ; preds = %for.end116, %if.then.i141
  %lpad.loopexit239 = landingpad { ptr, i32 }
          cleanup
  br label %lpad74

lpad74.loopexit.split-lp.loopexit.split-lp:       ; preds = %if.then.i163, %if.then101
  %lpad.loopexit.split-lp240 = landingpad { ptr, i32 }
          cleanup
  br label %lpad74

lpad74:                                           ; preds = %lpad74.loopexit.split-lp.loopexit, %lpad74.loopexit.split-lp.loopexit.split-lp, %lpad74.loopexit
  %lpad.phi = phi { ptr, i32 } [ %lpad.loopexit, %lpad74.loopexit ], [ %lpad.loopexit239, %lpad74.loopexit.split-lp.loopexit ], [ %lpad.loopexit.split-lp240, %lpad74.loopexit.split-lp.loopexit.split-lp ]
  call void @_ZN6vectorI8rationalLb1EjED2Ev(ptr noundef nonnull align 8 dereferenceable(8) %row) #17
  br label %ehcleanup122

if.end103:                                        ; preds = %call.i.i.noexc171, %invoke.cont99
  %85 = load ptr, ptr %m_col_lcm, align 8
  %idxprom.i176 = zext i32 %79 to i64
  %arrayidx.i177 = getelementptr inbounds %class.rational, ptr %85, i64 %idxprom.i176
  invoke void @_ZmlRK8rationalS1_(ptr nonnull sret(%class.rational) align 8 %ref.tmp104, ptr noundef nonnull align 8 dereferenceable(32) %arrayidx.i177, ptr noundef nonnull align 8 dereferenceable(32) %num)
          to label %invoke.cont108 unwind label %lpad74.loopexit

invoke.cont108:                                   ; preds = %if.end103
  %86 = load ptr, ptr %row, align 8
  %arrayidx.i179 = getelementptr inbounds %class.rational, ptr %86, i64 %idxprom.i176
  %87 = load i32, ptr %arrayidx.i179, align 4
  %88 = load i32, ptr %ref.tmp104, align 8
  store i32 %88, ptr %arrayidx.i179, align 4
  store i32 %87, ptr %ref.tmp104, align 8
  %m_ptr.i.i.i.i180 = getelementptr inbounds %class.mpz, ptr %arrayidx.i179, i64 0, i32 2
  %89 = load ptr, ptr %m_ptr.i.i.i.i180, align 8
  %90 = load ptr, ptr %m_ptr3.i.i.i.i181, align 8
  store ptr %90, ptr %m_ptr.i.i.i.i180, align 8
  store ptr %89, ptr %m_ptr3.i.i.i.i181, align 8
  %m_owner.i.i.i.i182 = getelementptr inbounds %class.mpz, ptr %arrayidx.i179, i64 0, i32 1
  %bf.load.i.i.i.i183 = load i8, ptr %m_owner.i.i.i.i182, align 4
  %bf.clear.i.i.i.i184 = and i8 %bf.load.i.i.i.i183, 2
  %bf.load5.i.i.i.i186 = load i8, ptr %m_owner4.i.i.i.i185, align 4
  %bf.clear7.i.i.i.i187 = and i8 %bf.load5.i.i.i.i186, 2
  %bf.clear11.i.i.i.i188 = and i8 %bf.load.i.i.i.i183, -3
  %bf.set.i.i.i.i189 = or disjoint i8 %bf.clear7.i.i.i.i187, %bf.clear11.i.i.i.i188
  store i8 %bf.set.i.i.i.i189, ptr %m_owner.i.i.i.i182, align 4
  %bf.load13.i.i.i.i190 = load i8, ptr %m_owner4.i.i.i.i185, align 4
  %bf.clear16.i.i.i.i191 = and i8 %bf.load13.i.i.i.i190, -3
  %bf.set17.i.i.i.i192 = or disjoint i8 %bf.clear16.i.i.i.i191, %bf.clear.i.i.i.i184
  store i8 %bf.set17.i.i.i.i192, ptr %m_owner4.i.i.i.i185, align 4
  %bf.load18.i.i.i.i193 = load i8, ptr %m_owner.i.i.i.i182, align 4
  %bf.clear19.i.i.i.i194 = and i8 %bf.load18.i.i.i.i193, 1
  %bf.clear23.i.i.i.i195 = and i8 %bf.load13.i.i.i.i190, 1
  %bf.clear28.i.i.i.i196 = and i8 %bf.load18.i.i.i.i193, -2
  %bf.set29.i.i.i.i197 = or disjoint i8 %bf.clear28.i.i.i.i196, %bf.clear23.i.i.i.i195
  store i8 %bf.set29.i.i.i.i197, ptr %m_owner.i.i.i.i182, align 4
  %bf.load31.i.i.i.i198 = load i8, ptr %m_owner4.i.i.i.i185, align 4
  %bf.clear33.i.i.i.i199 = and i8 %bf.load31.i.i.i.i198, -2
  %bf.set34.i.i.i.i200 = or disjoint i8 %bf.clear33.i.i.i.i199, %bf.clear19.i.i.i.i194
  store i8 %bf.set34.i.i.i.i200, ptr %m_owner4.i.i.i.i185, align 4
  %m_den.i.i201 = getelementptr inbounds %class.mpq, ptr %arrayidx.i179, i64 0, i32 1
  %91 = load i32, ptr %m_den.i.i201, align 4
  %92 = load i32, ptr %m_den3.i.i202, align 8
  store i32 %92, ptr %m_den.i.i201, align 4
  store i32 %91, ptr %m_den3.i.i202, align 8
  %m_ptr.i.i2.i.i203 = getelementptr inbounds %class.mpq, ptr %arrayidx.i179, i64 0, i32 1, i32 2
  %93 = load ptr, ptr %m_ptr.i.i2.i.i203, align 8
  %94 = load ptr, ptr %m_ptr3.i.i3.i.i204, align 8
  store ptr %94, ptr %m_ptr.i.i2.i.i203, align 8
  store ptr %93, ptr %m_ptr3.i.i3.i.i204, align 8
  %m_owner.i.i4.i.i205 = getelementptr inbounds %class.mpq, ptr %arrayidx.i179, i64 0, i32 1, i32 1
  %bf.load.i.i5.i.i206 = load i8, ptr %m_owner.i.i4.i.i205, align 4
  %bf.clear.i.i6.i.i207 = and i8 %bf.load.i.i5.i.i206, 2
  %bf.load5.i.i8.i.i209 = load i8, ptr %m_owner4.i.i7.i.i208, align 4
  %bf.clear7.i.i9.i.i210 = and i8 %bf.load5.i.i8.i.i209, 2
  %bf.clear11.i.i10.i.i211 = and i8 %bf.load.i.i5.i.i206, -3
  %bf.set.i.i11.i.i212 = or disjoint i8 %bf.clear7.i.i9.i.i210, %bf.clear11.i.i10.i.i211
  store i8 %bf.set.i.i11.i.i212, ptr %m_owner.i.i4.i.i205, align 4
  %bf.load13.i.i12.i.i213 = load i8, ptr %m_owner4.i.i7.i.i208, align 4
  %bf.clear16.i.i13.i.i214 = and i8 %bf.load13.i.i12.i.i213, -3
  %bf.set17.i.i14.i.i215 = or disjoint i8 %bf.clear16.i.i13.i.i214, %bf.clear.i.i6.i.i207
  store i8 %bf.set17.i.i14.i.i215, ptr %m_owner4.i.i7.i.i208, align 4
  %bf.load18.i.i15.i.i216 = load i8, ptr %m_owner.i.i4.i.i205, align 4
  %bf.clear19.i.i16.i.i217 = and i8 %bf.load18.i.i15.i.i216, 1
  %bf.clear23.i.i17.i.i218 = and i8 %bf.load13.i.i12.i.i213, 1
  %bf.clear28.i.i18.i.i219 = and i8 %bf.load18.i.i15.i.i216, -2
  %bf.set29.i.i19.i.i220 = or disjoint i8 %bf.clear28.i.i18.i.i219, %bf.clear23.i.i17.i.i218
  store i8 %bf.set29.i.i19.i.i220, ptr %m_owner.i.i4.i.i205, align 4
  %bf.load31.i.i20.i.i221 = load i8, ptr %m_owner4.i.i7.i.i208, align 4
  %bf.clear33.i.i21.i.i222 = and i8 %bf.load31.i.i20.i.i221, -2
  %bf.set34.i.i22.i.i223 = or disjoint i8 %bf.clear33.i.i21.i.i222, %bf.clear19.i.i16.i.i217
  store i8 %bf.set34.i.i22.i.i223, ptr %m_owner4.i.i7.i.i208, align 4
  %95 = load ptr, ptr @_ZN8rational13g_mpq_managerE, align 8
  invoke void @_ZN11mpz_managerILb1EE3delEPS0_R3mpz(ptr noundef %95, ptr noundef nonnull align 8 dereferenceable(16) %ref.tmp104)
          to label %.noexc.i225 unwind label %terminate.lpad.i224

.noexc.i225:                                      ; preds = %invoke.cont108
  invoke void @_ZN11mpz_managerILb1EE3delEPS0_R3mpz(ptr noundef %95, ptr noundef nonnull align 8 dereferenceable(16) %m_den3.i.i202)
          to label %_ZN8rationalD2Ev.exit227 unwind label %terminate.lpad.i224

terminate.lpad.i224:                              ; preds = %.noexc.i225, %invoke.cont108
  %96 = landingpad { ptr, i32 }
          catch ptr null
  %97 = extractvalue { ptr, i32 } %96, 0
  call void @__clang_call_terminate(ptr %97) #18
  unreachable

_ZN8rationalD2Ev.exit227:                         ; preds = %.noexc.i225
  %indvars.iv.next290 = add nuw nsw i64 %indvars.iv289, 1
  %exitcond293.not = icmp eq i64 %indvars.iv.next290, %wide.trip.count292
  br i1 %exitcond293.not, label %for.end116, label %for.body94, !llvm.loop !22

for.end116:                                       ; preds = %_ZN8rationalD2Ev.exit227, %invoke.cont85, %_ZNK12substitution16get_num_bindingsEv.exit149
  invoke void @_ZN6spacer13spacer_matrix7add_rowERK6vectorI8rationalLb1EjE(ptr noundef nonnull align 8 dereferenceable(16) %m_data.i, ptr noundef nonnull align 8 dereferenceable(8) %row)
          to label %for.inc118 unwind label %lpad74.loopexit.split-lp.loopexit

for.inc118:                                       ; preds = %for.end116
  %incdec.ptr119 = getelementptr inbounds %"class.spacer::lemma_cluster::lemma_info", ptr %__begin173.0273, i64 1
  %cmp81.not = icmp eq ptr %incdec.ptr119, %add.ptr.i116
  br i1 %cmp81.not, label %for.end120, label %for.body82

for.end120:                                       ; preds = %for.inc118
  %.pre = load ptr, ptr %row, align 8
  %tobool.not.i.i = icmp eq ptr %.pre, null
  br i1 %tobool.not.i.i, label %_ZN6vectorI8rationalLb1EjED2Ev.exit, label %_ZNK6vectorI8rationalLb1EjE4sizeEv.exit.i.i.i

_ZNK6vectorI8rationalLb1EjE4sizeEv.exit.i.i.i:    ; preds = %for.end120
  %arrayidx.i.i.i.i = getelementptr inbounds i32, ptr %.pre, i64 -1
  %98 = load i32, ptr %arrayidx.i.i.i.i, align 4
  %cmp.not5.i.i.i.i.i.i = icmp eq i32 %98, 0
  br i1 %cmp.not5.i.i.i.i.i.i, label %_ZN6vectorI8rationalLb1EjE16destroy_elementsEv.exit.i.i, label %for.body.i.i.i.i.i.i

for.body.i.i.i.i.i.i:                             ; preds = %_ZNK6vectorI8rationalLb1EjE4sizeEv.exit.i.i.i, %_ZSt8_DestroyI8rationalEvPT_.exit.i.i.i.i.i.i
  %__count.addr.07.i.i.i.i.i.i = phi i32 [ %dec.i.i.i.i.i.i, %_ZSt8_DestroyI8rationalEvPT_.exit.i.i.i.i.i.i ], [ %98, %_ZNK6vectorI8rationalLb1EjE4sizeEv.exit.i.i.i ]
  %__first.addr.06.i.i.i.i.i.i = phi ptr [ %incdec.ptr.i.i.i.i.i.i, %_ZSt8_DestroyI8rationalEvPT_.exit.i.i.i.i.i.i ], [ %.pre, %_ZNK6vectorI8rationalLb1EjE4sizeEv.exit.i.i.i ]
  %99 = load ptr, ptr @_ZN8rational13g_mpq_managerE, align 8
  invoke void @_ZN11mpz_managerILb1EE3delEPS0_R3mpz(ptr noundef %99, ptr noundef nonnull align 8 dereferenceable(16) %__first.addr.06.i.i.i.i.i.i)
          to label %.noexc.i.i.i.i.i.i.i.i unwind label %terminate.lpad.i.i.i.i.i.i.i.i

.noexc.i.i.i.i.i.i.i.i:                           ; preds = %for.body.i.i.i.i.i.i
  %m_den.i.i.i.i.i.i.i.i.i = getelementptr inbounds %class.mpq, ptr %__first.addr.06.i.i.i.i.i.i, i64 0, i32 1
  invoke void @_ZN11mpz_managerILb1EE3delEPS0_R3mpz(ptr noundef %99, ptr noundef nonnull align 8 dereferenceable(16) %m_den.i.i.i.i.i.i.i.i.i)
          to label %_ZSt8_DestroyI8rationalEvPT_.exit.i.i.i.i.i.i unwind label %terminate.lpad.i.i.i.i.i.i.i.i

terminate.lpad.i.i.i.i.i.i.i.i:                   ; preds = %.noexc.i.i.i.i.i.i.i.i, %for.body.i.i.i.i.i.i
  %100 = landingpad { ptr, i32 }
          catch ptr null
  %101 = extractvalue { ptr, i32 } %100, 0
  call void @__clang_call_terminate(ptr %101) #18
  unreachable

_ZSt8_DestroyI8rationalEvPT_.exit.i.i.i.i.i.i:    ; preds = %.noexc.i.i.i.i.i.i.i.i
  %incdec.ptr.i.i.i.i.i.i = getelementptr inbounds %class.rational, ptr %__first.addr.06.i.i.i.i.i.i, i64 1
  %dec.i.i.i.i.i.i = add i32 %__count.addr.07.i.i.i.i.i.i, -1
  %cmp.not.i.i.i.i.i.i = icmp eq i32 %dec.i.i.i.i.i.i, 0
  br i1 %cmp.not.i.i.i.i.i.i, label %_ZN6vectorI8rationalLb1EjE16destroy_elementsEv.exit.loopexit.i.i, label %for.body.i.i.i.i.i.i, !llvm.loop !4

_ZN6vectorI8rationalLb1EjE16destroy_elementsEv.exit.loopexit.i.i: ; preds = %_ZSt8_DestroyI8rationalEvPT_.exit.i.i.i.i.i.i
  %.pre.i.i = load ptr, ptr %row, align 8
  br label %_ZN6vectorI8rationalLb1EjE16destroy_elementsEv.exit.i.i

_ZN6vectorI8rationalLb1EjE16destroy_elementsEv.exit.i.i: ; preds = %_ZN6vectorI8rationalLb1EjE16destroy_elementsEv.exit.loopexit.i.i, %_ZNK6vectorI8rationalLb1EjE4sizeEv.exit.i.i.i
  %102 = phi ptr [ %.pre.i.i, %_ZN6vectorI8rationalLb1EjE16destroy_elementsEv.exit.loopexit.i.i ], [ %.pre, %_ZNK6vectorI8rationalLb1EjE4sizeEv.exit.i.i.i ]
  %add.ptr.i.i.i = getelementptr inbounds i32, ptr %102, i64 -2
  invoke void @_ZN6memory10deallocateEPv(ptr noundef nonnull %add.ptr.i.i.i)
          to label %_ZN6vectorI8rationalLb1EjED2Ev.exit unwind label %terminate.lpad.i229

terminate.lpad.i229:                              ; preds = %_ZN6vectorI8rationalLb1EjE16destroy_elementsEv.exit.i.i
  %103 = landingpad { ptr, i32 }
          catch ptr null
  %104 = extractvalue { ptr, i32 } %103, 0
  call void @__clang_call_terminate(ptr %104) #18
  unreachable

_ZN6vectorI8rationalLb1EjED2Ev.exit:              ; preds = %for.end70, %_ZNK6vectorIN6spacer13lemma_cluster10lemma_infoELb1EjE3endEv.exit117, %for.end120, %_ZN6vectorI8rationalLb1EjE16destroy_elementsEv.exit.i.i
  %105 = load ptr, ptr @_ZN8rational13g_mpq_managerE, align 8
  invoke void @_ZN11mpz_managerILb1EE3delEPS0_R3mpz(ptr noundef %105, ptr noundef nonnull align 8 dereferenceable(16) %num)
          to label %.noexc.i231 unwind label %terminate.lpad.i230

.noexc.i231:                                      ; preds = %_ZN6vectorI8rationalLb1EjED2Ev.exit
  invoke void @_ZN11mpz_managerILb1EE3delEPS0_R3mpz(ptr noundef %105, ptr noundef nonnull align 8 dereferenceable(16) %m_den.i.i)
          to label %_ZN8rationalD2Ev.exit233 unwind label %terminate.lpad.i230

terminate.lpad.i230:                              ; preds = %.noexc.i231, %_ZN6vectorI8rationalLb1EjED2Ev.exit
  %106 = landingpad { ptr, i32 }
          catch ptr null
  %107 = extractvalue { ptr, i32 } %106, 0
  call void @__clang_call_terminate(ptr %107) #18
  unreachable

_ZN8rationalD2Ev.exit233:                         ; preds = %.noexc.i231
  ret void

ehcleanup122:                                     ; preds = %lpad.loopexit242, %lpad.loopexit.split-lp.loopexit.split-lp.loopexit, %lpad.loopexit.split-lp.loopexit.split-lp.loopexit.split-lp, %lpad.loopexit.split-lp.loopexit, %lpad.i, %lpad74, %lpad61, %ehcleanup37
  %.pn.pn = phi { ptr, i32 } [ %.pn, %ehcleanup37 ], [ %65, %lpad61 ], [ %lpad.phi, %lpad74 ], [ %22, %lpad.i ], [ %lpad.loopexit243, %lpad.loopexit242 ], [ %lpad.loopexit246, %lpad.loopexit.split-lp.loopexit ], [ %lpad.loopexit249, %lpad.loopexit.split-lp.loopexit.split-lp.loopexit ], [ %lpad.loopexit.split-lp250, %lpad.loopexit.split-lp.loopexit.split-lp.loopexit.split-lp ]
  call void @_ZN8rationalD2Ev(ptr noundef nonnull align 8 dereferenceable(32) %num) #17
  resume { ptr, i32 } %.pn.pn
}

; Function Attrs: mustprogress uwtable
define linkonce_odr hidden void @_ZN6vectorI8rationalLb1EjE7reserveEjRKS0_(ptr noundef nonnull align 8 dereferenceable(8) %this, i32 noundef %s, ptr noundef nonnull align 8 dereferenceable(32) %d) local_unnamed_addr #3 comdat align 2 personality ptr @__gxx_personality_v0 {
entry:
  %agg.tmp = alloca %class.rational, align 8
  %0 = load ptr, ptr %this, align 8
  %cmp.i = icmp eq ptr %0, null
  br i1 %cmp.i, label %_ZNK6vectorI8rationalLb1EjE4sizeEv.exit, label %if.end.i

if.end.i:                                         ; preds = %entry
  %arrayidx.i = getelementptr inbounds i32, ptr %0, i64 -1
  %1 = load i32, ptr %arrayidx.i, align 4
  br label %_ZNK6vectorI8rationalLb1EjE4sizeEv.exit

_ZNK6vectorI8rationalLb1EjE4sizeEv.exit:          ; preds = %entry, %if.end.i
  %retval.0.i = phi i32 [ %1, %if.end.i ], [ 0, %entry ]
  %cmp = icmp ult i32 %retval.0.i, %s
  br i1 %cmp, label %if.then, label %if.end

if.then:                                          ; preds = %_ZNK6vectorI8rationalLb1EjE4sizeEv.exit
  store i32 0, ptr %agg.tmp, align 8
  %m_kind.i.i.i = getelementptr inbounds %class.mpz, ptr %agg.tmp, i64 0, i32 1
  store i8 0, ptr %m_kind.i.i.i, align 4
  %m_ptr.i.i.i = getelementptr inbounds %class.mpz, ptr %agg.tmp, i64 0, i32 2
  store ptr null, ptr %m_ptr.i.i.i, align 8
  %m_den.i.i = getelementptr inbounds %class.mpq, ptr %agg.tmp, i64 0, i32 1
  store i32 1, ptr %m_den.i.i, align 8
  %m_kind.i1.i.i = getelementptr inbounds %class.mpq, ptr %agg.tmp, i64 0, i32 1, i32 1
  store i8 0, ptr %m_kind.i1.i.i, align 4
  %m_ptr.i4.i.i = getelementptr inbounds %class.mpq, ptr %agg.tmp, i64 0, i32 1, i32 2
  store ptr null, ptr %m_ptr.i4.i.i, align 8
  %2 = load ptr, ptr @_ZN8rational13g_mpq_managerE, align 8
  %m_kind.i.i.i.i.i = getelementptr inbounds %class.mpz, ptr %d, i64 0, i32 1
  %bf.load.i.i.i.i.i = load i8, ptr %m_kind.i.i.i.i.i, align 4
  %bf.clear.i.i.i.i.i = and i8 %bf.load.i.i.i.i.i, 1
  %cmp.i.i.i.i.i = icmp eq i8 %bf.clear.i.i.i.i.i, 0
  br i1 %cmp.i.i.i.i.i, label %if.then.i.i.i.i, label %if.else.i.i.i.i

if.then.i.i.i.i:                                  ; preds = %if.then
  %3 = load i32, ptr %d, align 8
  store i32 %3, ptr %agg.tmp, align 8
  store i8 0, ptr %m_kind.i.i.i, align 4
  br label %_ZN11mpq_managerILb1EE3setER3mpzRKS1_.exit.i.i

if.else.i.i.i.i:                                  ; preds = %if.then
  call void @_ZN11mpz_managerILb1EE7big_setER3mpzRKS1_(ptr noundef nonnull align 8 dereferenceable(600) %2, ptr noundef nonnull align 8 dereferenceable(16) %agg.tmp, ptr noundef nonnull align 8 dereferenceable(16) %d)
  br label %_ZN11mpq_managerILb1EE3setER3mpzRKS1_.exit.i.i

_ZN11mpq_managerILb1EE3setER3mpzRKS1_.exit.i.i:   ; preds = %if.else.i.i.i.i, %if.then.i.i.i.i
  %m_den3.i.i = getelementptr inbounds %class.mpq, ptr %d, i64 0, i32 1
  %m_kind.i.i.i3.i.i = getelementptr inbounds %class.mpq, ptr %d, i64 0, i32 1, i32 1
  %bf.load.i.i.i4.i.i = load i8, ptr %m_kind.i.i.i3.i.i, align 4
  %bf.clear.i.i.i5.i.i = and i8 %bf.load.i.i.i4.i.i, 1
  %cmp.i.i.i6.i.i = icmp eq i8 %bf.clear.i.i.i5.i.i, 0
  br i1 %cmp.i.i.i6.i.i, label %if.then.i.i8.i.i, label %if.else.i.i7.i.i

if.then.i.i8.i.i:                                 ; preds = %_ZN11mpq_managerILb1EE3setER3mpzRKS1_.exit.i.i
  %4 = load i32, ptr %m_den3.i.i, align 8
  store i32 %4, ptr %m_den.i.i, align 8
  %bf.load.i.i10.i.i = load i8, ptr %m_kind.i1.i.i, align 4
  %bf.clear.i.i11.i.i = and i8 %bf.load.i.i10.i.i, -2
  store i8 %bf.clear.i.i11.i.i, ptr %m_kind.i1.i.i, align 4
  br label %_ZN8rationalC2ERKS_.exit

if.else.i.i7.i.i:                                 ; preds = %_ZN11mpq_managerILb1EE3setER3mpzRKS1_.exit.i.i
  call void @_ZN11mpz_managerILb1EE7big_setER3mpzRKS1_(ptr noundef nonnull align 8 dereferenceable(600) %2, ptr noundef nonnull align 8 dereferenceable(16) %m_den.i.i, ptr noundef nonnull align 8 dereferenceable(16) %m_den3.i.i)
  br label %_ZN8rationalC2ERKS_.exit

_ZN8rationalC2ERKS_.exit:                         ; preds = %if.then.i.i8.i.i, %if.else.i.i7.i.i
  invoke void (ptr, i32, ptr, ...) @_ZN6vectorI8rationalLb1EjE6resizeIS0_EEvjT_z(ptr noundef nonnull align 8 dereferenceable(8) %this, i32 noundef %s, ptr noundef nonnull %agg.tmp)
          to label %invoke.cont unwind label %lpad

invoke.cont:                                      ; preds = %_ZN8rationalC2ERKS_.exit
  %5 = load ptr, ptr @_ZN8rational13g_mpq_managerE, align 8
  invoke void @_ZN11mpz_managerILb1EE3delEPS0_R3mpz(ptr noundef %5, ptr noundef nonnull align 8 dereferenceable(16) %agg.tmp)
          to label %.noexc.i unwind label %terminate.lpad.i

.noexc.i:                                         ; preds = %invoke.cont
  invoke void @_ZN11mpz_managerILb1EE3delEPS0_R3mpz(ptr noundef %5, ptr noundef nonnull align 8 dereferenceable(16) %m_den.i.i)
          to label %if.end unwind label %terminate.lpad.i

terminate.lpad.i:                                 ; preds = %.noexc.i, %invoke.cont
  %6 = landingpad { ptr, i32 }
          catch ptr null
  %7 = extractvalue { ptr, i32 } %6, 0
  call void @__clang_call_terminate(ptr %7) #18
  unreachable

lpad:                                             ; preds = %_ZN8rationalC2ERKS_.exit
  %8 = landingpad { ptr, i32 }
          cleanup
  call void @_ZN8rationalD2Ev(ptr noundef nonnull align 8 dereferenceable(32) %agg.tmp) #17
  resume { ptr, i32 } %8

if.end:                                           ; preds = %.noexc.i, %_ZNK6vectorI8rationalLb1EjE4sizeEv.exit
  ret void
}

; Function Attrs: mustprogress nounwind uwtable
define linkonce_odr hidden void @_ZN8rationalD2Ev(ptr noundef nonnull align 8 dereferenceable(32) %this) unnamed_addr #4 comdat align 2 personality ptr @__gxx_personality_v0 {
entry:
  %0 = load ptr, ptr @_ZN8rational13g_mpq_managerE, align 8
  invoke void @_ZN11mpz_managerILb1EE3delEPS0_R3mpz(ptr noundef %0, ptr noundef nonnull align 8 dereferenceable(16) %this)
          to label %.noexc unwind label %terminate.lpad

.noexc:                                           ; preds = %entry
  %m_den.i = getelementptr inbounds %class.mpq, ptr %this, i64 0, i32 1
  invoke void @_ZN11mpz_managerILb1EE3delEPS0_R3mpz(ptr noundef %0, ptr noundef nonnull align 8 dereferenceable(16) %m_den.i)
          to label %invoke.cont unwind label %terminate.lpad

invoke.cont:                                      ; preds = %.noexc
  ret void

terminate.lpad:                                   ; preds = %.noexc, %entry
  %1 = landingpad { ptr, i32 }
          catch ptr null
  %2 = extractvalue { ptr, i32 } %1, 0
  tail call void @__clang_call_terminate(ptr %2) #18
  unreachable
}

declare void @_ZN6spacer14convex_closure5resetEj(ptr noundef nonnull align 8 dereferenceable(240), i32 noundef) local_unnamed_addr #0

; Function Attrs: mustprogress uwtable
define internal fastcc noundef zeroext i1 @_ZN12_GLOBAL__N_111contains_bvER11ast_managerRK12substitutionRj(ptr noundef nonnull align 8 dereferenceable(976) %m, ptr nocapture noundef nonnull readonly align 8 dereferenceable(124) %sub) unnamed_addr #3 personality ptr @__gxx_personality_v0 {
entry:
  %m_bv = alloca %class.bv_util, align 8
  %num = alloca %class.rational, align 8
  %sz1 = alloca i32, align 4
  call void @_ZN7bv_utilC1ER11ast_manager(ptr noundef nonnull align 8 dereferenceable(24) %m_bv, ptr noundef nonnull align 8 dereferenceable(976) %m)
  store i32 0, ptr %num, align 8
  %m_kind.i.i.i = getelementptr inbounds %class.mpz, ptr %num, i64 0, i32 1
  store i8 0, ptr %m_kind.i.i.i, align 4
  %m_ptr.i.i.i = getelementptr inbounds %class.mpz, ptr %num, i64 0, i32 2
  store ptr null, ptr %m_ptr.i.i.i, align 8
  %m_den.i.i = getelementptr inbounds %class.mpq, ptr %num, i64 0, i32 1
  store i32 1, ptr %m_den.i.i, align 8
  %m_kind.i1.i.i = getelementptr inbounds %class.mpq, ptr %num, i64 0, i32 1, i32 1
  store i8 0, ptr %m_kind.i1.i.i, align 4
  %m_ptr.i4.i.i = getelementptr inbounds %class.mpq, ptr %num, i64 0, i32 1, i32 2
  store ptr null, ptr %m_ptr.i4.i.i, align 8
  %m_vars.i = getelementptr inbounds %class.substitution, ptr %sub, i64 0, i32 2
  %0 = load ptr, ptr %m_vars.i, align 8
  %cmp.i.i = icmp eq ptr %0, null
  br i1 %cmp.i.i, label %invoke.cont.thread, label %invoke.cont

invoke.cont.thread:                               ; preds = %entry
  store i32 0, ptr %sz1, align 4
  br label %cleanup

invoke.cont:                                      ; preds = %entry
  %arrayidx.i.i = getelementptr inbounds i32, ptr %0, i64 -1
  %1 = load i32, ptr %arrayidx.i.i, align 4
  store i32 %1, ptr %sz1, align 4
  %cmp5.not = icmp eq i32 %1, 0
  br i1 %cmp5.not, label %cleanup, label %for.body.lr.ph

for.body.lr.ph:                                   ; preds = %invoke.cont
  %m_subst.i = getelementptr inbounds %class.substitution, ptr %sub, i64 0, i32 1
  %m_num_vars.i.i = getelementptr inbounds %class.substitution, ptr %sub, i64 0, i32 1, i32 2
  %m_timestamp2.i.i = getelementptr inbounds %class.substitution, ptr %sub, i64 0, i32 1, i32 3
  br label %for.body

for.cond:                                         ; preds = %invoke.cont4
  %indvars.iv.next = add nuw nsw i64 %indvars.iv, 1
  %2 = load i32, ptr %sz1, align 4
  %3 = zext i32 %2 to i64
  %cmp = icmp ult i64 %indvars.iv.next, %3
  br i1 %cmp, label %for.body, label %cleanup, !llvm.loop !23

for.body:                                         ; preds = %for.body.lr.ph, %for.cond
  %indvars.iv = phi i64 [ 0, %for.body.lr.ph ], [ %indvars.iv.next, %for.cond ]
  %4 = load ptr, ptr %m_vars.i, align 8
  %arrayidx.i.i5 = getelementptr inbounds %"struct.std::pair", ptr %4, i64 %indvars.iv
  %5 = load i32, ptr %arrayidx.i.i5, align 4
  %second.i.i = getelementptr inbounds %"struct.std::pair", ptr %4, i64 %indvars.iv, i32 1
  %6 = load i32, ptr %second.i.i, align 4
  %7 = load i32, ptr %m_num_vars.i.i, align 4
  %mul.i.i = mul i32 %7, %6
  %add.i.i = add i32 %mul.i.i, %5
  %8 = load ptr, ptr %m_subst.i, align 8
  %idxprom.i.i.i = zext i32 %add.i.i to i64
  %m_timestamp.i.i = getelementptr inbounds %"struct.var_offset_map<expr_offset>::data", ptr %8, i64 %idxprom.i.i.i, i32 1
  %9 = load i32, ptr %m_timestamp.i.i, align 8
  %10 = load i32, ptr %m_timestamp2.i.i, align 8
  %cmp.i.i6 = icmp eq i32 %9, %10
  br i1 %cmp.i.i6, label %invoke.cont2, label %if.then.i

if.then.i:                                        ; preds = %for.body
  invoke void @_Z26notify_assertion_violationPKciS0_(ptr noundef nonnull @.str.13, i32 noundef 157, ptr noundef nonnull @.str.14)
          to label %.noexc unwind label %lpad.loopexit.split-lp

.noexc:                                           ; preds = %if.then.i
  call void @exit(i32 noundef 114) #18
  unreachable

invoke.cont2:                                     ; preds = %for.body
  %arrayidx.i.i.i = getelementptr inbounds %"struct.var_offset_map<expr_offset>::data", ptr %8, i64 %idxprom.i.i.i
  %r.sroa.0.0.copyload = load ptr, ptr %arrayidx.i.i.i, align 8
  %call5 = invoke noundef zeroext i1 @_ZNK14bv_recognizers10is_numeralEPK4exprR8rationalRj(ptr noundef nonnull align 4 dereferenceable(4) %m_bv, ptr noundef %r.sroa.0.0.copyload, ptr noundef nonnull align 8 dereferenceable(32) %num, ptr noundef nonnull align 4 dereferenceable(4) %sz1)
          to label %invoke.cont4 unwind label %lpad.loopexit

invoke.cont4:                                     ; preds = %invoke.cont2
  br i1 %call5, label %cleanup, label %for.cond

lpad.loopexit:                                    ; preds = %invoke.cont2
  %lpad.loopexit1 = landingpad { ptr, i32 }
          cleanup
  br label %lpad

lpad.loopexit.split-lp:                           ; preds = %if.then.i
  %lpad.loopexit.split-lp2 = landingpad { ptr, i32 }
          cleanup
  br label %lpad

lpad:                                             ; preds = %lpad.loopexit.split-lp, %lpad.loopexit
  %lpad.phi = phi { ptr, i32 } [ %lpad.loopexit1, %lpad.loopexit ], [ %lpad.loopexit.split-lp2, %lpad.loopexit.split-lp ]
  call void @_ZN8rationalD2Ev(ptr noundef nonnull align 8 dereferenceable(32) %num) #17
  resume { ptr, i32 } %lpad.phi

cleanup:                                          ; preds = %invoke.cont4, %for.cond, %invoke.cont.thread, %invoke.cont
  %cmp.lcssa = phi i1 [ false, %invoke.cont ], [ false, %invoke.cont.thread ], [ %call5, %for.cond ], [ %call5, %invoke.cont4 ]
  %11 = load ptr, ptr @_ZN8rational13g_mpq_managerE, align 8
  invoke void @_ZN11mpz_managerILb1EE3delEPS0_R3mpz(ptr noundef %11, ptr noundef nonnull align 8 dereferenceable(16) %num)
          to label %.noexc.i unwind label %terminate.lpad.i

.noexc.i:                                         ; preds = %cleanup
  invoke void @_ZN11mpz_managerILb1EE3delEPS0_R3mpz(ptr noundef %11, ptr noundef nonnull align 8 dereferenceable(16) %m_den.i.i)
          to label %_ZN8rationalD2Ev.exit unwind label %terminate.lpad.i

terminate.lpad.i:                                 ; preds = %.noexc.i, %cleanup
  %12 = landingpad { ptr, i32 }
          catch ptr null
  %13 = extractvalue { ptr, i32 } %12, 0
  call void @__clang_call_terminate(ptr %13) #18
  unreachable

_ZN8rationalD2Ev.exit:                            ; preds = %.noexc.i
  ret i1 %cmp.lcssa
}

; Function Attrs: mustprogress uwtable
define linkonce_odr hidden noundef ptr @_ZN6spacer24lemma_global_generalizer8subsumer10mk_rat_mulE8rationalP4expr(ptr noundef nonnull align 8 dereferenceable(152) %this, ptr noundef %n, ptr noundef %v) local_unnamed_addr #3 comdat align 2 {
entry:
  %m_kind.i.i.i.i.i = getelementptr inbounds %class.mpz, ptr %n, i64 0, i32 1
  %bf.load.i.i.i.i.i = load i8, ptr %m_kind.i.i.i.i.i, align 4
  %bf.clear.i.i.i.i.i = and i8 %bf.load.i.i.i.i.i, 1
  %cmp.i.i.i.i.i = icmp eq i8 %bf.clear.i.i.i.i.i, 0
  %0 = load i32, ptr %n, align 8
  %cmp.i.i.i.i = icmp eq i32 %0, 1
  %1 = select i1 %cmp.i.i.i.i.i, i1 %cmp.i.i.i.i, i1 false
  br i1 %1, label %_ZNK8rational6is_oneEv.exit, label %if.end

_ZNK8rational6is_oneEv.exit:                      ; preds = %entry
  %m_den.i.i = getelementptr inbounds %class.mpq, ptr %n, i64 0, i32 1
  %m_kind.i.i.i2.i.i = getelementptr inbounds %class.mpq, ptr %n, i64 0, i32 1, i32 1
  %bf.load.i.i.i3.i.i = load i8, ptr %m_kind.i.i.i2.i.i, align 4
  %bf.clear.i.i.i4.i.i = and i8 %bf.load.i.i.i3.i.i, 1
  %cmp.i.i.i5.i.i = icmp eq i8 %bf.clear.i.i.i4.i.i, 0
  %2 = load i32, ptr %m_den.i.i, align 8
  %cmp.i.i6.i.i = icmp eq i32 %2, 1
  %3 = select i1 %cmp.i.i.i5.i.i, i1 %cmp.i.i6.i.i, i1 false
  br i1 %3, label %return, label %if.end

if.end:                                           ; preds = %entry, %_ZNK8rational6is_oneEv.exit
  %m_arith = getelementptr inbounds %"class.spacer::lemma_global_generalizer::subsumer", ptr %this, i64 0, i32 2
  %call.i = tail call noundef ptr @_ZNK4expr8get_sortEv(ptr noundef nonnull align 4 dereferenceable(16) %v)
  %m_info.i.i.i.i.i = getelementptr inbounds %class.decl, ptr %call.i, i64 0, i32 2
  %4 = load ptr, ptr %m_info.i.i.i.i.i, align 8
  %cmp.i.i.i.i.i3 = icmp eq ptr %4, null
  br i1 %cmp.i.i.i.i.i3, label %_ZNK17arith_recognizers6is_intEPK4expr.exit, label %_ZNK4decl13get_family_idEv.exit.thread.i.i.i.i

_ZNK4decl13get_family_idEv.exit.thread.i.i.i.i:   ; preds = %if.end
  %5 = load i32, ptr %4, align 8
  %cmp6.i.i.i.i = icmp eq i32 %5, 5
  br i1 %cmp6.i.i.i.i, label %cond.false.i3.i.i.i.i, label %_ZNK17arith_recognizers6is_intEPK4expr.exit

cond.false.i3.i.i.i.i:                            ; preds = %_ZNK4decl13get_family_idEv.exit.thread.i.i.i.i
  %m_kind.i.i.i.i.i.i = getelementptr inbounds %class.decl_info, ptr %4, i64 0, i32 1
  %6 = load i32, ptr %m_kind.i.i.i.i.i.i, align 4
  %cmp3.i.i.i.i = icmp eq i32 %6, 1
  br label %_ZNK17arith_recognizers6is_intEPK4expr.exit

_ZNK17arith_recognizers6is_intEPK4expr.exit:      ; preds = %if.end, %_ZNK4decl13get_family_idEv.exit.thread.i.i.i.i, %cond.false.i3.i.i.i.i
  %7 = phi i1 [ %cmp3.i.i.i.i, %cond.false.i3.i.i.i.i ], [ false, %_ZNK4decl13get_family_idEv.exit.thread.i.i.i.i ], [ false, %if.end ]
  %m_plugin.i.i = getelementptr inbounds %"class.spacer::lemma_global_generalizer::subsumer", ptr %this, i64 0, i32 2, i32 1
  %8 = load ptr, ptr %m_plugin.i.i, align 8
  %tobool.not.i.i = icmp eq ptr %8, null
  br i1 %tobool.not.i.i, label %if.then.i.i, label %_ZNK10arith_util10mk_numeralERK8rationalb.exit

if.then.i.i:                                      ; preds = %_ZNK17arith_recognizers6is_intEPK4expr.exit
  tail call void @_ZN10arith_util11init_pluginEv(ptr noundef nonnull align 8 dereferenceable(16) %m_arith)
  %.pre.i.i = load ptr, ptr %m_plugin.i.i, align 8
  br label %_ZNK10arith_util10mk_numeralERK8rationalb.exit

_ZNK10arith_util10mk_numeralERK8rationalb.exit:   ; preds = %_ZNK17arith_recognizers6is_intEPK4expr.exit, %if.then.i.i
  %9 = phi ptr [ %.pre.i.i, %if.then.i.i ], [ %8, %_ZNK17arith_recognizers6is_intEPK4expr.exit ]
  %call2.i = tail call noundef ptr @_ZN17arith_decl_plugin10mk_numeralERK8rationalb(ptr noundef nonnull align 8 dereferenceable(441) %9, ptr noundef nonnull align 8 dereferenceable(32) %n, i1 noundef zeroext %7)
  %10 = load ptr, ptr %m_arith, align 8
  %call.i4 = tail call noundef ptr @_ZN11ast_manager6mk_appEiiP4exprS1_(ptr noundef nonnull align 8 dereferenceable(976) %10, i32 noundef 5, i32 noundef 9, ptr noundef %call2.i, ptr noundef nonnull %v)
  br label %return

return:                                           ; preds = %_ZNK8rational6is_oneEv.exit, %_ZNK10arith_util10mk_numeralERK8rationalb.exit
  %retval.0 = phi ptr [ %call.i4, %_ZNK10arith_util10mk_numeralERK8rationalb.exit ], [ %v, %_ZNK8rational6is_oneEv.exit ]
  ret ptr %retval.0
}

declare void @_Z26notify_assertion_violationPKciS0_(ptr noundef, i32 noundef, ptr noundef) local_unnamed_addr #0

; Function Attrs: noreturn nounwind
declare void @exit(i32 noundef) local_unnamed_addr #5

; Function Attrs: mustprogress uwtable
define linkonce_odr hidden void @_ZmlRK8rationalS1_(ptr noalias sret(%class.rational) align 8 %agg.result, ptr noundef nonnull align 8 dereferenceable(32) %r1, ptr noundef nonnull align 8 dereferenceable(32) %r2) local_unnamed_addr #3 comdat personality ptr @__gxx_personality_v0 {
entry:
  %ref.tmp = alloca %class.rational, align 8
  store i32 0, ptr %ref.tmp, align 8
  %m_kind.i.i.i = getelementptr inbounds %class.mpz, ptr %ref.tmp, i64 0, i32 1
  store i8 0, ptr %m_kind.i.i.i, align 4
  %m_ptr.i.i.i = getelementptr inbounds %class.mpz, ptr %ref.tmp, i64 0, i32 2
  store ptr null, ptr %m_ptr.i.i.i, align 8
  %m_den.i.i = getelementptr inbounds %class.mpq, ptr %ref.tmp, i64 0, i32 1
  store i32 1, ptr %m_den.i.i, align 8
  %m_kind.i1.i.i = getelementptr inbounds %class.mpq, ptr %ref.tmp, i64 0, i32 1, i32 1
  store i8 0, ptr %m_kind.i1.i.i, align 4
  %m_ptr.i4.i.i = getelementptr inbounds %class.mpq, ptr %ref.tmp, i64 0, i32 1, i32 2
  store ptr null, ptr %m_ptr.i4.i.i, align 8
  %0 = load ptr, ptr @_ZN8rational13g_mpq_managerE, align 8
  %m_kind.i.i.i.i.i = getelementptr inbounds %class.mpz, ptr %r1, i64 0, i32 1
  %bf.load.i.i.i.i.i = load i8, ptr %m_kind.i.i.i.i.i, align 4
  %bf.clear.i.i.i.i.i = and i8 %bf.load.i.i.i.i.i, 1
  %cmp.i.i.i.i.i = icmp eq i8 %bf.clear.i.i.i.i.i, 0
  br i1 %cmp.i.i.i.i.i, label %if.then.i.i.i.i, label %if.else.i.i.i.i

if.then.i.i.i.i:                                  ; preds = %entry
  %1 = load i32, ptr %r1, align 8
  store i32 %1, ptr %ref.tmp, align 8
  store i8 0, ptr %m_kind.i.i.i, align 4
  br label %_ZN11mpq_managerILb1EE3setER3mpzRKS1_.exit.i.i

if.else.i.i.i.i:                                  ; preds = %entry
  call void @_ZN11mpz_managerILb1EE7big_setER3mpzRKS1_(ptr noundef nonnull align 8 dereferenceable(600) %0, ptr noundef nonnull align 8 dereferenceable(16) %ref.tmp, ptr noundef nonnull align 8 dereferenceable(16) %r1)
  br label %_ZN11mpq_managerILb1EE3setER3mpzRKS1_.exit.i.i

_ZN11mpq_managerILb1EE3setER3mpzRKS1_.exit.i.i:   ; preds = %if.else.i.i.i.i, %if.then.i.i.i.i
  %m_den3.i.i = getelementptr inbounds %class.mpq, ptr %r1, i64 0, i32 1
  %m_kind.i.i.i3.i.i = getelementptr inbounds %class.mpq, ptr %r1, i64 0, i32 1, i32 1
  %bf.load.i.i.i4.i.i = load i8, ptr %m_kind.i.i.i3.i.i, align 4
  %bf.clear.i.i.i5.i.i = and i8 %bf.load.i.i.i4.i.i, 1
  %cmp.i.i.i6.i.i = icmp eq i8 %bf.clear.i.i.i5.i.i, 0
  br i1 %cmp.i.i.i6.i.i, label %if.then.i.i8.i.i, label %if.else.i.i7.i.i

if.then.i.i8.i.i:                                 ; preds = %_ZN11mpq_managerILb1EE3setER3mpzRKS1_.exit.i.i
  %2 = load i32, ptr %m_den3.i.i, align 8
  store i32 %2, ptr %m_den.i.i, align 8
  %bf.load.i.i10.i.i = load i8, ptr %m_kind.i1.i.i, align 4
  %bf.clear.i.i11.i.i = and i8 %bf.load.i.i10.i.i, -2
  store i8 %bf.clear.i.i11.i.i, ptr %m_kind.i1.i.i, align 4
  br label %_ZN8rationalC2ERKS_.exit

if.else.i.i7.i.i:                                 ; preds = %_ZN11mpq_managerILb1EE3setER3mpzRKS1_.exit.i.i
  call void @_ZN11mpz_managerILb1EE7big_setER3mpzRKS1_(ptr noundef nonnull align 8 dereferenceable(600) %0, ptr noundef nonnull align 8 dereferenceable(16) %m_den.i.i, ptr noundef nonnull align 8 dereferenceable(16) %m_den3.i.i)
  %bf.load.i.i.i.i.i.i.pre = load i8, ptr %m_kind.i1.i.i, align 4
  %.pre = load i32, ptr %m_den.i.i, align 8
  %3 = and i8 %bf.load.i.i.i.i.i.i.pre, 1
  %4 = icmp eq i8 %3, 0
  br label %_ZN8rationalC2ERKS_.exit

_ZN8rationalC2ERKS_.exit:                         ; preds = %if.then.i.i8.i.i, %if.else.i.i7.i.i
  %5 = phi i32 [ %2, %if.then.i.i8.i.i ], [ %.pre, %if.else.i.i7.i.i ]
  %bf.load.i.i.i.i.i.i = phi i1 [ true, %if.then.i.i8.i.i ], [ %4, %if.else.i.i7.i.i ]
  %6 = load ptr, ptr @_ZN8rational13g_mpq_managerE, align 8
  %cmp.i.i.i.i.i1 = icmp eq i32 %5, 1
  %7 = select i1 %bf.load.i.i.i.i.i.i, i1 %cmp.i.i.i.i.i1, i1 false
  br i1 %7, label %land.lhs.true.i.i, label %if.else.i.i

land.lhs.true.i.i:                                ; preds = %_ZN8rationalC2ERKS_.exit
  %m_den.i7.i.i = getelementptr inbounds %class.mpq, ptr %r2, i64 0, i32 1
  %m_kind.i.i.i.i8.i.i = getelementptr inbounds %class.mpq, ptr %r2, i64 0, i32 1, i32 1
  %bf.load.i.i.i.i9.i.i = load i8, ptr %m_kind.i.i.i.i8.i.i, align 4
  %bf.clear.i.i.i.i10.i.i = and i8 %bf.load.i.i.i.i9.i.i, 1
  %cmp.i.i.i.i11.i.i = icmp eq i8 %bf.clear.i.i.i.i10.i.i, 0
  %8 = load i32, ptr %m_den.i7.i.i, align 8
  %cmp.i.i.i12.i.i = icmp eq i32 %8, 1
  %9 = select i1 %cmp.i.i.i.i11.i.i, i1 %cmp.i.i.i12.i.i, i1 false
  br i1 %9, label %if.then.i.i, label %if.else.i.i

if.then.i.i:                                      ; preds = %land.lhs.true.i.i
  invoke void @_ZN11mpz_managerILb1EE3mulERK3mpzS3_RS1_(ptr noundef nonnull align 8 dereferenceable(600) %6, ptr noundef nonnull align 8 dereferenceable(16) %ref.tmp, ptr noundef nonnull align 8 dereferenceable(16) %r2, ptr noundef nonnull align 8 dereferenceable(16) %ref.tmp)
          to label %.noexc unwind label %lpad

.noexc:                                           ; preds = %if.then.i.i
  invoke void @_ZN11mpz_managerILb1EE3delEPS0_R3mpz(ptr noundef nonnull %6, ptr noundef nonnull align 8 dereferenceable(16) %m_den.i.i)
          to label %.noexc2 unwind label %lpad

.noexc2:                                          ; preds = %.noexc
  store i32 1, ptr %m_den.i.i, align 8
  br label %invoke.cont

if.else.i.i:                                      ; preds = %land.lhs.true.i.i, %_ZN8rationalC2ERKS_.exit
  invoke void @_ZN11mpq_managerILb1EE7rat_mulERK3mpqS3_RS1_(ptr noundef nonnull align 8 dereferenceable(728) %6, ptr noundef nonnull align 8 dereferenceable(32) %ref.tmp, ptr noundef nonnull align 8 dereferenceable(32) %r2, ptr noundef nonnull align 8 dereferenceable(32) %ref.tmp)
          to label %invoke.cont unwind label %lpad

invoke.cont:                                      ; preds = %.noexc2, %if.else.i.i
  store i32 0, ptr %agg.result, align 8
  %m_kind.i.i.i4 = getelementptr inbounds %class.mpz, ptr %agg.result, i64 0, i32 1
  %bf.load.i.i.i5 = load i8, ptr %m_kind.i.i.i4, align 4
  %bf.clear3.i.i.i6 = and i8 %bf.load.i.i.i5, -4
  store i8 %bf.clear3.i.i.i6, ptr %m_kind.i.i.i4, align 4
  %m_ptr.i.i.i7 = getelementptr inbounds %class.mpz, ptr %agg.result, i64 0, i32 2
  store ptr null, ptr %m_ptr.i.i.i7, align 8
  %m_den.i.i8 = getelementptr inbounds %class.mpq, ptr %agg.result, i64 0, i32 1
  store i32 1, ptr %m_den.i.i8, align 8
  %m_kind.i1.i.i9 = getelementptr inbounds %class.mpq, ptr %agg.result, i64 0, i32 1, i32 1
  %bf.load.i2.i.i10 = load i8, ptr %m_kind.i1.i.i9, align 4
  %bf.clear3.i3.i.i11 = and i8 %bf.load.i2.i.i10, -4
  store i8 %bf.clear3.i3.i.i11, ptr %m_kind.i1.i.i9, align 4
  %m_ptr.i4.i.i12 = getelementptr inbounds %class.mpq, ptr %agg.result, i64 0, i32 1, i32 2
  store ptr null, ptr %m_ptr.i4.i.i12, align 8
  %10 = load ptr, ptr @_ZN8rational13g_mpq_managerE, align 8
  %bf.load.i.i.i.i.i14 = load i8, ptr %m_kind.i.i.i, align 4
  %bf.clear.i.i.i.i.i15 = and i8 %bf.load.i.i.i.i.i14, 1
  %cmp.i.i.i.i.i16 = icmp eq i8 %bf.clear.i.i.i.i.i15, 0
  br i1 %cmp.i.i.i.i.i16, label %if.then.i.i.i.i28, label %if.else.i.i.i.i17

if.then.i.i.i.i28:                                ; preds = %invoke.cont
  %11 = load i32, ptr %ref.tmp, align 8
  store i32 %11, ptr %agg.result, align 8
  store i8 %bf.clear3.i.i.i6, ptr %m_kind.i.i.i4, align 4
  br label %_ZN11mpq_managerILb1EE3setER3mpzRKS1_.exit.i.i18

if.else.i.i.i.i17:                                ; preds = %invoke.cont
  invoke void @_ZN11mpz_managerILb1EE7big_setER3mpzRKS1_(ptr noundef nonnull align 8 dereferenceable(600) %10, ptr noundef nonnull align 8 dereferenceable(16) %agg.result, ptr noundef nonnull align 8 dereferenceable(16) %ref.tmp)
          to label %_ZN11mpq_managerILb1EE3setER3mpzRKS1_.exit.i.i18 unwind label %lpad

_ZN11mpq_managerILb1EE3setER3mpzRKS1_.exit.i.i18: ; preds = %if.else.i.i.i.i17, %if.then.i.i.i.i28
  %bf.load.i.i.i4.i.i21 = load i8, ptr %m_kind.i1.i.i, align 4
  %bf.clear.i.i.i5.i.i22 = and i8 %bf.load.i.i.i4.i.i21, 1
  %cmp.i.i.i6.i.i23 = icmp eq i8 %bf.clear.i.i.i5.i.i22, 0
  br i1 %cmp.i.i.i6.i.i23, label %if.then.i.i8.i.i25, label %if.else.i.i7.i.i24

if.then.i.i8.i.i25:                               ; preds = %_ZN11mpq_managerILb1EE3setER3mpzRKS1_.exit.i.i18
  %12 = load i32, ptr %m_den.i.i, align 8
  store i32 %12, ptr %m_den.i.i8, align 8
  %bf.load.i.i10.i.i26 = load i8, ptr %m_kind.i1.i.i9, align 4
  %bf.clear.i.i11.i.i27 = and i8 %bf.load.i.i10.i.i26, -2
  store i8 %bf.clear.i.i11.i.i27, ptr %m_kind.i1.i.i9, align 4
  br label %invoke.cont1

if.else.i.i7.i.i24:                               ; preds = %_ZN11mpq_managerILb1EE3setER3mpzRKS1_.exit.i.i18
  invoke void @_ZN11mpz_managerILb1EE7big_setER3mpzRKS1_(ptr noundef nonnull align 8 dereferenceable(600) %10, ptr noundef nonnull align 8 dereferenceable(16) %m_den.i.i8, ptr noundef nonnull align 8 dereferenceable(16) %m_den.i.i)
          to label %invoke.cont1 unwind label %lpad

invoke.cont1:                                     ; preds = %if.then.i.i8.i.i25, %if.else.i.i7.i.i24
  %13 = load ptr, ptr @_ZN8rational13g_mpq_managerE, align 8
  invoke void @_ZN11mpz_managerILb1EE3delEPS0_R3mpz(ptr noundef %13, ptr noundef nonnull align 8 dereferenceable(16) %ref.tmp)
          to label %.noexc.i unwind label %terminate.lpad.i

.noexc.i:                                         ; preds = %invoke.cont1
  invoke void @_ZN11mpz_managerILb1EE3delEPS0_R3mpz(ptr noundef %13, ptr noundef nonnull align 8 dereferenceable(16) %m_den.i.i)
          to label %_ZN8rationalD2Ev.exit unwind label %terminate.lpad.i

terminate.lpad.i:                                 ; preds = %.noexc.i, %invoke.cont1
  %14 = landingpad { ptr, i32 }
          catch ptr null
  %15 = extractvalue { ptr, i32 } %14, 0
  call void @__clang_call_terminate(ptr %15) #18
  unreachable

_ZN8rationalD2Ev.exit:                            ; preds = %.noexc.i
  ret void

lpad:                                             ; preds = %if.else.i.i7.i.i24, %if.else.i.i.i.i17, %if.else.i.i, %.noexc, %if.then.i.i
  %16 = landingpad { ptr, i32 }
          cleanup
  call void @_ZN8rationalD2Ev(ptr noundef nonnull align 8 dereferenceable(32) %ref.tmp) #17
  resume { ptr, i32 } %16
}

; Function Attrs: mustprogress nofree norecurse nosync nounwind willreturn memory(read, inaccessiblemem: none) uwtable
define hidden noundef ptr @_ZN6spacer24lemma_global_generalizer8subsumer9find_reprERK3refI5modelEPK3app(ptr nocapture noundef nonnull readnone align 8 dereferenceable(152) %this, ptr nocapture noundef nonnull readonly align 8 dereferenceable(8) %mdl, ptr nocapture noundef readonly %c) local_unnamed_addr #6 align 2 {
entry:
  %0 = load ptr, ptr %mdl, align 8
  %m_decl.i = getelementptr inbounds %class.app, ptr %c, i64 0, i32 1
  %1 = load ptr, ptr %m_decl.i, align 8
  %m_interp.i = getelementptr inbounds %class.model_core, ptr %0, i64 0, i32 4
  %m_hash.i.i.i.i.i.i.i.i = getelementptr inbounds %class.ast, ptr %1, i64 0, i32 3
  %2 = load i32, ptr %m_hash.i.i.i.i.i.i.i.i, align 4
  %m_capacity.i.i.i.i = getelementptr inbounds %class.model_core, ptr %0, i64 0, i32 4, i32 0, i32 1
  %3 = load i32, ptr %m_capacity.i.i.i.i, align 8
  %sub.i.i.i.i = add i32 %3, -1
  %and.i.i.i.i = and i32 %sub.i.i.i.i, %2
  %4 = load ptr, ptr %m_interp.i, align 8
  %idx.ext.i.i.i.i = zext i32 %and.i.i.i.i to i64
  %add.ptr.i.i.i.i = getelementptr inbounds %"class.obj_map<func_decl, std::pair<unsigned int, expr *>>::obj_map_entry", ptr %4, i64 %idx.ext.i.i.i.i
  %idx.ext4.i.i.i.i = zext i32 %3 to i64
  %add.ptr5.i.i.i.i = getelementptr inbounds %"class.obj_map<func_decl, std::pair<unsigned int, expr *>>::obj_map_entry", ptr %4, i64 %idx.ext4.i.i.i.i
  %cmp.not30.i.i.i.i = icmp eq i32 %and.i.i.i.i, %3
  br i1 %cmp.not30.i.i.i.i, label %for.cond18.preheader.i.i.i.i, label %for.body.i.i.i.i

for.cond18.preheader.i.i.i.i:                     ; preds = %for.inc.i.i.i.i, %entry
  %cmp19.not32.i.i.i.i = icmp eq i32 %and.i.i.i.i, 0
  br i1 %cmp19.not32.i.i.i.i, label %_ZNK10model_core16get_const_interpEP9func_decl.exit, label %for.body20.i.i.i.i

for.body.i.i.i.i:                                 ; preds = %entry, %for.inc.i.i.i.i
  %curr.031.i.i.i.i = phi ptr [ %incdec.ptr.i.i.i.i, %for.inc.i.i.i.i ], [ %add.ptr.i.i.i.i, %entry ]
  %5 = load ptr, ptr %curr.031.i.i.i.i, align 8
  %magicptr25.i.i.i.i = ptrtoint ptr %5 to i64
  switch i64 %magicptr25.i.i.i.i, label %if.then.i.i.i.i [
    i64 0, label %_ZNK10model_core16get_const_interpEP9func_decl.exit
    i64 1, label %for.inc.i.i.i.i
  ]

if.then.i.i.i.i:                                  ; preds = %for.body.i.i.i.i
  %m_hash.i.i.i.i.i.i.i = getelementptr inbounds %class.ast, ptr %5, i64 0, i32 3
  %6 = load i32, ptr %m_hash.i.i.i.i.i.i.i, align 4
  %cmp8.i.i.i.i = icmp eq i32 %6, %2
  %cmp.i.i.i.i.i.i.i = icmp eq ptr %5, %1
  %or.cond.i.i.i.i = and i1 %cmp.i.i.i.i.i.i.i, %cmp8.i.i.i.i
  br i1 %or.cond.i.i.i.i, label %.loopexit.i, label %for.inc.i.i.i.i

for.inc.i.i.i.i:                                  ; preds = %if.then.i.i.i.i, %for.body.i.i.i.i
  %incdec.ptr.i.i.i.i = getelementptr inbounds %"class.obj_map<func_decl, std::pair<unsigned int, expr *>>::obj_map_entry", ptr %curr.031.i.i.i.i, i64 1
  %cmp.not.i.i.i.i = icmp eq ptr %incdec.ptr.i.i.i.i, %add.ptr5.i.i.i.i
  br i1 %cmp.not.i.i.i.i, label %for.cond18.preheader.i.i.i.i, label %for.body.i.i.i.i, !llvm.loop !24

for.body20.i.i.i.i:                               ; preds = %for.cond18.preheader.i.i.i.i, %for.inc36.i.i.i.i
  %curr.133.i.i.i.i = phi ptr [ %incdec.ptr37.i.i.i.i, %for.inc36.i.i.i.i ], [ %4, %for.cond18.preheader.i.i.i.i ]
  %7 = load ptr, ptr %curr.133.i.i.i.i, align 8
  %magicptr27.i.i.i.i = ptrtoint ptr %7 to i64
  switch i64 %magicptr27.i.i.i.i, label %if.then22.i.i.i.i [
    i64 0, label %_ZNK10model_core16get_const_interpEP9func_decl.exit
    i64 1, label %for.inc36.i.i.i.i
  ]

if.then22.i.i.i.i:                                ; preds = %for.body20.i.i.i.i
  %m_hash.i.i.i22.i.i.i.i = getelementptr inbounds %class.ast, ptr %7, i64 0, i32 3
  %8 = load i32, ptr %m_hash.i.i.i22.i.i.i.i, align 4
  %cmp24.i.i.i.i = icmp eq i32 %8, %2
  %cmp.i.i.i23.i.i.i.i = icmp eq ptr %7, %1
  %or.cond26.i.i.i.i = and i1 %cmp.i.i.i23.i.i.i.i, %cmp24.i.i.i.i
  br i1 %or.cond26.i.i.i.i, label %.loopexit.i, label %for.inc36.i.i.i.i

for.inc36.i.i.i.i:                                ; preds = %if.then22.i.i.i.i, %for.body20.i.i.i.i
  %incdec.ptr37.i.i.i.i = getelementptr inbounds %"class.obj_map<func_decl, std::pair<unsigned int, expr *>>::obj_map_entry", ptr %curr.133.i.i.i.i, i64 1
  %cmp19.not.i.i.i.i = icmp eq ptr %incdec.ptr37.i.i.i.i, %add.ptr.i.i.i.i
  br i1 %cmp19.not.i.i.i.i, label %_ZNK10model_core16get_const_interpEP9func_decl.exit, label %for.body20.i.i.i.i, !llvm.loop !25

.loopexit.i:                                      ; preds = %if.then.i.i.i.i, %if.then22.i.i.i.i
  %retval.0.i.i.i.i = phi ptr [ %curr.133.i.i.i.i, %if.then22.i.i.i.i ], [ %curr.031.i.i.i.i, %if.then.i.i.i.i ]
  %second.i.i.i = getelementptr inbounds %"struct.obj_map<func_decl, std::pair<unsigned int, expr *>>::key_data", ptr %retval.0.i.i.i.i, i64 0, i32 1, i32 1
  %9 = load ptr, ptr %second.i.i.i, align 8
  br label %_ZNK10model_core16get_const_interpEP9func_decl.exit

_ZNK10model_core16get_const_interpEP9func_decl.exit: ; preds = %for.body.i.i.i.i, %for.body20.i.i.i.i, %for.inc36.i.i.i.i, %for.cond18.preheader.i.i.i.i, %.loopexit.i
  %10 = phi ptr [ %9, %.loopexit.i ], [ null, %for.cond18.preheader.i.i.i.i ], [ null, %for.inc36.i.i.i.i ], [ null, %for.body20.i.i.i.i ], [ null, %for.body.i.i.i.i ]
  ret ptr %10
}

; Function Attrs: mustprogress uwtable
define hidden void @_ZN6spacer24lemma_global_generalizer8subsumer19skolemize_for_quic3ER7obj_refI4expr11ast_managerERK3refI5modelER10ref_vectorI3appS4_E(ptr nocapture noundef nonnull readonly align 8 dereferenceable(152) %this, ptr noundef nonnull align 8 dereferenceable(16) %f, ptr nocapture noundef nonnull readonly align 8 dereferenceable(8) %mdl, ptr noundef nonnull align 8 dereferenceable(16) %out) local_unnamed_addr #3 align 2 personality ptr @__gxx_personality_v0 {
entry:
  %sk = alloca %class.obj_ref.96, align 8
  %eval = alloca %class.obj_ref.51, align 8
  %sub = alloca %class.expr_safe_replace, align 8
  %f_cnsts = alloca %class.ref_vector.53, align 8
  %marks = alloca %class.ast_fast_mark, align 8
  %m_nodes.i = getelementptr inbounds %class.ref_vector_core, ptr %out, i64 0, i32 1
  %0 = load ptr, ptr %m_nodes.i, align 8
  %cmp.i.i = icmp eq ptr %0, null
  br i1 %cmp.i.i, label %invoke.cont8, label %if.end.i.i

if.end.i.i:                                       ; preds = %entry
  %arrayidx.i.i = getelementptr inbounds i32, ptr %0, i64 -1
  %1 = load i32, ptr %arrayidx.i.i, align 4
  br label %invoke.cont8

invoke.cont8:                                     ; preds = %entry, %if.end.i.i
  %retval.0.i.i = phi i32 [ %1, %if.end.i.i ], [ 0, %entry ]
  %m = getelementptr inbounds %"class.spacer::lemma_global_generalizer::subsumer", ptr %this, i64 0, i32 1
  %2 = load ptr, ptr %m, align 8
  store ptr null, ptr %sk, align 8
  %m_manager.i = getelementptr inbounds %class.obj_ref.96, ptr %sk, i64 0, i32 1
  store ptr %2, ptr %m_manager.i, align 8
  store ptr null, ptr %eval, align 8
  %m_manager.i16 = getelementptr inbounds %class.obj_ref.51, ptr %eval, i64 0, i32 1
  store ptr %2, ptr %m_manager.i16, align 8
  store ptr %2, ptr %sub, align 8
  %m_src.i = getelementptr inbounds %class.expr_safe_replace, ptr %sub, i64 0, i32 1
  %3 = ptrtoint ptr %2 to i64
  store i64 %3, ptr %m_src.i, align 8
  %m_nodes.i.i.i = getelementptr inbounds %class.expr_safe_replace, ptr %sub, i64 0, i32 1, i32 0, i32 1
  store ptr null, ptr %m_nodes.i.i.i, align 8
  %m_dst.i = getelementptr inbounds %class.expr_safe_replace, ptr %sub, i64 0, i32 2
  store i64 %3, ptr %m_dst.i, align 8
  %m_nodes.i.i6.i = getelementptr inbounds %class.expr_safe_replace, ptr %sub, i64 0, i32 2, i32 0, i32 1
  %m_refs.i = getelementptr inbounds %class.expr_safe_replace, ptr %sub, i64 0, i32 6
  call void @llvm.memset.p0.i64(ptr noundef nonnull align 8 dereferenceable(32) %m_nodes.i.i6.i, i8 0, i64 32, i1 false)
  store i64 %3, ptr %m_refs.i, align 8
  %m_nodes.i.i7.i = getelementptr inbounds %class.expr_safe_replace, ptr %sub, i64 0, i32 6, i32 0, i32 1
  store ptr null, ptr %m_nodes.i.i7.i, align 8
  %m_cache.i = getelementptr inbounds %class.expr_safe_replace, ptr %sub, i64 0, i32 7
  %_M_single_bucket.i.i.i = getelementptr inbounds %class.expr_safe_replace, ptr %sub, i64 0, i32 7, i32 0, i32 5
  store ptr %_M_single_bucket.i.i.i, ptr %m_cache.i, align 8
  %_M_bucket_count.i.i.i = getelementptr inbounds %class.expr_safe_replace, ptr %sub, i64 0, i32 7, i32 0, i32 1
  store i64 1, ptr %_M_bucket_count.i.i.i, align 8
  %_M_before_begin.i.i.i = getelementptr inbounds %class.expr_safe_replace, ptr %sub, i64 0, i32 7, i32 0, i32 2
  %_M_rehash_policy.i.i.i = getelementptr inbounds %class.expr_safe_replace, ptr %sub, i64 0, i32 7, i32 0, i32 4
  call void @llvm.memset.p0.i64(ptr noundef nonnull align 8 dereferenceable(16) %_M_before_begin.i.i.i, i8 0, i64 16, i1 false)
  store float 1.000000e+00, ptr %_M_rehash_policy.i.i.i, align 8
  %_M_next_resize.i.i.i.i = getelementptr inbounds %class.expr_safe_replace, ptr %sub, i64 0, i32 7, i32 0, i32 4, i32 1
  call void @llvm.memset.p0.i64(ptr noundef nonnull align 8 dereferenceable(16) %_M_next_resize.i.i.i.i, i8 0, i64 16, i1 false)
  store i64 %3, ptr %f_cnsts, align 8
  %m_nodes.i.i = getelementptr inbounds %class.ref_vector_core.54, ptr %f_cnsts, i64 0, i32 1
  store ptr null, ptr %m_nodes.i.i, align 8
  %4 = load ptr, ptr %f, align 8
  invoke void @_ZN6spacer23collect_uninterp_constsEP4exprR10ref_vectorIS0_11ast_managerE(ptr noundef %4, ptr noundef nonnull align 8 dereferenceable(16) %f_cnsts)
          to label %invoke.cont14 unwind label %lpad9

invoke.cont14:                                    ; preds = %invoke.cont8
  %m_initial_buffer.i.i.i = getelementptr inbounds %class.buffer.103, ptr %marks, i64 0, i32 3
  store ptr %m_initial_buffer.i.i.i, ptr %marks, align 8
  %m_pos.i.i.i = getelementptr inbounds %class.buffer.103, ptr %marks, i64 0, i32 1
  store i32 0, ptr %m_pos.i.i.i, align 8
  %m_capacity.i.i.i = getelementptr inbounds %class.buffer.103, ptr %marks, i64 0, i32 2
  store i32 16, ptr %m_capacity.i.i.i, align 4
  %5 = load ptr, ptr %m_nodes.i.i, align 8
  %cmp.i.i.i = icmp eq ptr %5, null
  br i1 %cmp.i.i.i, label %for.end, label %_ZNK15ref_vector_coreI4expr19ref_manager_wrapperIS0_11ast_managerEE3endEv.exit

_ZNK15ref_vector_coreI4expr19ref_manager_wrapperIS0_11ast_managerEE3endEv.exit: ; preds = %invoke.cont14
  %arrayidx.i.i.i = getelementptr inbounds i32, ptr %5, i64 -1
  %6 = load i32, ptr %arrayidx.i.i.i, align 4
  %7 = zext i32 %6 to i64
  %add.ptr.i = getelementptr inbounds ptr, ptr %5, i64 %7
  %cmp.not109 = icmp eq i32 %6, 0
  br i1 %cmp.not109, label %for.end, label %for.body

for.body:                                         ; preds = %_ZNK15ref_vector_coreI4expr19ref_manager_wrapperIS0_11ast_managerEE3endEv.exit, %for.inc
  %__begin1.0110 = phi ptr [ %incdec.ptr, %for.inc ], [ %5, %_ZNK15ref_vector_coreI4expr19ref_manager_wrapperIS0_11ast_managerEE3endEv.exit ]
  %8 = load ptr, ptr %__begin1.0110, align 8
  %m_mark2.i.i = getelementptr inbounds %class.ast, ptr %8, i64 0, i32 1
  %bf.load.i.i = load i32, ptr %m_mark2.i.i, align 4
  %9 = and i32 %bf.load.i.i, 131072
  %tobool.i.not.i = icmp eq i32 %9, 0
  br i1 %tobool.i.not.i, label %if.end.i, label %for.inc

if.end.i:                                         ; preds = %for.body
  %bf.set.i.i = or disjoint i32 %bf.load.i.i, 131072
  store i32 %bf.set.i.i, ptr %m_mark2.i.i, align 4
  %10 = load i32, ptr %m_pos.i.i.i, align 8
  %11 = load i32, ptr %m_capacity.i.i.i, align 4
  %cmp.not.i.i = icmp ult i32 %10, %11
  br i1 %cmp.not.i.i, label %entry.if.end_crit_edge.i.i, label %if.then.i.i

entry.if.end_crit_edge.i.i:                       ; preds = %if.end.i
  %.pre.i.i = load ptr, ptr %marks, align 8
  br label %_ZN6bufferIP3astLb0ELj16EE9push_backERKS1_.exit.i

if.then.i.i:                                      ; preds = %if.end.i
  %shl.i.i.i = shl i32 %11, 1
  %conv.i.i.i = zext i32 %shl.i.i.i to i64
  %mul.i.i.i = shl nuw nsw i64 %conv.i.i.i, 3
  %call.i.i.i20 = invoke noalias noundef ptr @_ZN6memory8allocateEm(i64 noundef %mul.i.i.i)
          to label %call.i.i.i.noexc unwind label %lpad13.loopexit.split-lp.loopexit.split-lp.loopexit

call.i.i.i.noexc:                                 ; preds = %if.then.i.i
  %12 = load i32, ptr %m_pos.i.i.i, align 8
  %cmp6.not.i.i.i = icmp eq i32 %12, 0
  %.pre.i.i.i = load ptr, ptr %marks, align 8
  br i1 %cmp6.not.i.i.i, label %for.end.i.i.i, label %for.body.lr.ph.i.i.i

for.body.lr.ph.i.i.i:                             ; preds = %call.i.i.i.noexc
  %wide.trip.count.i.i.i = zext i32 %12 to i64
  br label %for.body.i.i.i

for.body.i.i.i:                                   ; preds = %for.body.i.i.i, %for.body.lr.ph.i.i.i
  %indvars.iv.i.i.i = phi i64 [ 0, %for.body.lr.ph.i.i.i ], [ %indvars.iv.next.i.i.i, %for.body.i.i.i ]
  %arrayidx.i.i.i19 = getelementptr inbounds ptr, ptr %call.i.i.i20, i64 %indvars.iv.i.i.i
  %arrayidx3.i.i.i = getelementptr inbounds ptr, ptr %.pre.i.i.i, i64 %indvars.iv.i.i.i
  %13 = load ptr, ptr %arrayidx3.i.i.i, align 8
  store ptr %13, ptr %arrayidx.i.i.i19, align 8
  %indvars.iv.next.i.i.i = add nuw nsw i64 %indvars.iv.i.i.i, 1
  %exitcond.not.i.i.i = icmp eq i64 %indvars.iv.next.i.i.i, %wide.trip.count.i.i.i
  br i1 %exitcond.not.i.i.i, label %for.end.i.i.i, label %for.body.i.i.i, !llvm.loop !26

for.end.i.i.i:                                    ; preds = %for.body.i.i.i, %call.i.i.i.noexc
  %cmp.not.i.i.i.i = icmp eq ptr %.pre.i.i.i, %m_initial_buffer.i.i.i
  %cmp.i.i.i.i.i = icmp eq ptr %.pre.i.i.i, null
  %or.cond.i.i.i.i = or i1 %cmp.not.i.i.i.i, %cmp.i.i.i.i.i
  br i1 %or.cond.i.i.i.i, label %_ZN6bufferIP3astLb0ELj16EE6expandEv.exit.i.i, label %if.end.i.i.i.i.i

if.end.i.i.i.i.i:                                 ; preds = %for.end.i.i.i
  invoke void @_ZN6memory10deallocateEPv(ptr noundef nonnull %.pre.i.i.i)
          to label %.noexc unwind label %lpad13.loopexit.split-lp.loopexit.split-lp.loopexit

.noexc:                                           ; preds = %if.end.i.i.i.i.i
  %.pre1.pre.i.i = load i32, ptr %m_pos.i.i.i, align 8
  br label %_ZN6bufferIP3astLb0ELj16EE6expandEv.exit.i.i

_ZN6bufferIP3astLb0ELj16EE6expandEv.exit.i.i:     ; preds = %.noexc, %for.end.i.i.i
  %.pre1.i.i = phi i32 [ %12, %for.end.i.i.i ], [ %.pre1.pre.i.i, %.noexc ]
  store ptr %call.i.i.i20, ptr %marks, align 8
  store i32 %shl.i.i.i, ptr %m_capacity.i.i.i, align 4
  br label %_ZN6bufferIP3astLb0ELj16EE9push_backERKS1_.exit.i

_ZN6bufferIP3astLb0ELj16EE9push_backERKS1_.exit.i: ; preds = %_ZN6bufferIP3astLb0ELj16EE6expandEv.exit.i.i, %entry.if.end_crit_edge.i.i
  %14 = phi i32 [ %10, %entry.if.end_crit_edge.i.i ], [ %.pre1.i.i, %_ZN6bufferIP3astLb0ELj16EE6expandEv.exit.i.i ]
  %15 = phi ptr [ %.pre.i.i, %entry.if.end_crit_edge.i.i ], [ %call.i.i.i20, %_ZN6bufferIP3astLb0ELj16EE6expandEv.exit.i.i ]
  %idx.ext.i.i = zext i32 %14 to i64
  %add.ptr.i.i = getelementptr inbounds ptr, ptr %15, i64 %idx.ext.i.i
  store ptr %8, ptr %add.ptr.i.i, align 8
  %16 = load i32, ptr %m_pos.i.i.i, align 8
  %inc.i.i = add i32 %16, 1
  store i32 %inc.i.i, ptr %m_pos.i.i.i, align 8
  br label %for.inc

for.inc:                                          ; preds = %_ZN6bufferIP3astLb0ELj16EE9push_backERKS1_.exit.i, %for.body
  %incdec.ptr = getelementptr inbounds ptr, ptr %__begin1.0110, i64 1
  %cmp.not = icmp eq ptr %incdec.ptr, %add.ptr.i
  br i1 %cmp.not, label %for.end, label %for.body

lpad9:                                            ; preds = %invoke.cont8
  %17 = landingpad { ptr, i32 }
          cleanup
  br label %ehcleanup

lpad13.loopexit:                                  ; preds = %if.then2.i.i.i.i.i
  %lpad.loopexit = landingpad { ptr, i32 }
          cleanup
  br label %lpad13

lpad13.loopexit.split-lp.loopexit:                ; preds = %if.then.i.i53, %if.then2.i.i.i45, %if.then2.i.i.i, %invoke.cont45, %invoke.cont31, %if.end
  %lpad.loopexit101 = landingpad { ptr, i32 }
          cleanup
  br label %lpad13

lpad13.loopexit.split-lp.loopexit.split-lp.loopexit: ; preds = %if.then.i.i, %if.end.i.i.i.i.i
  %lpad.loopexit104 = landingpad { ptr, i32 }
          cleanup
  br label %lpad13

lpad13.loopexit.split-lp.loopexit.split-lp.loopexit.split-lp: ; preds = %for.end51
  %lpad.loopexit.split-lp = landingpad { ptr, i32 }
          cleanup
  br label %lpad13

lpad13:                                           ; preds = %lpad13.loopexit.split-lp.loopexit, %lpad13.loopexit.split-lp.loopexit.split-lp.loopexit.split-lp, %lpad13.loopexit.split-lp.loopexit.split-lp.loopexit, %lpad13.loopexit
  %lpad.phi = phi { ptr, i32 } [ %lpad.loopexit, %lpad13.loopexit ], [ %lpad.loopexit101, %lpad13.loopexit.split-lp.loopexit ], [ %lpad.loopexit104, %lpad13.loopexit.split-lp.loopexit.split-lp.loopexit ], [ %lpad.loopexit.split-lp, %lpad13.loopexit.split-lp.loopexit.split-lp.loopexit.split-lp ]
  call void @_ZN13ast_fast_markILj2EED2Ev(ptr noundef nonnull align 8 dereferenceable(144) %marks) #17
  br label %ehcleanup

for.end:                                          ; preds = %for.inc, %invoke.cont14, %_ZNK15ref_vector_coreI4expr19ref_manager_wrapperIS0_11ast_managerEE3endEv.exit
  %m_col_names = getelementptr inbounds %"class.spacer::lemma_global_generalizer::subsumer", ptr %this, i64 0, i32 6
  %m_nodes.i21 = getelementptr inbounds %"class.spacer::lemma_global_generalizer::subsumer", ptr %this, i64 0, i32 6, i32 0, i32 1
  %18 = load ptr, ptr %m_nodes.i21, align 8
  %cmp.i.i22 = icmp eq ptr %18, null
  br i1 %cmp.i.i22, label %for.end51, label %_ZNK15ref_vector_coreI3app19ref_manager_wrapperIS0_11ast_managerEE4sizeEv.exit26

_ZNK15ref_vector_coreI3app19ref_manager_wrapperIS0_11ast_managerEE4sizeEv.exit26: ; preds = %for.end
  %arrayidx.i.i24 = getelementptr inbounds i32, ptr %18, i64 -1
  %19 = load i32, ptr %arrayidx.i.i24, align 4
  %cmp22111.not = icmp eq i32 %19, 0
  br i1 %cmp22111.not, label %for.end51, label %invoke.cont26.preheader

invoke.cont26.preheader:                          ; preds = %_ZNK15ref_vector_coreI3app19ref_manager_wrapperIS0_11ast_managerEE4sizeEv.exit26
  %wide.trip.count = zext i32 %19 to i64
  br label %invoke.cont26

invoke.cont26:                                    ; preds = %invoke.cont26.preheader, %for.inc50
  %20 = phi ptr [ null, %invoke.cont26.preheader ], [ %53, %for.inc50 ]
  %21 = phi ptr [ null, %invoke.cont26.preheader ], [ %54, %for.inc50 ]
  %indvars.iv = phi i64 [ 0, %invoke.cont26.preheader ], [ %indvars.iv.next, %for.inc50 ]
  %22 = load ptr, ptr %m_nodes.i21, align 8
  %arrayidx.i.i28 = getelementptr inbounds ptr, ptr %22, i64 %indvars.iv
  %23 = load ptr, ptr %arrayidx.i.i28, align 8
  %m_mark2.i.i29 = getelementptr inbounds %class.ast, ptr %23, i64 0, i32 1
  %bf.load.i.i30 = load i32, ptr %m_mark2.i.i29, align 4
  %24 = and i32 %bf.load.i.i30, 131072
  %tobool.i.i.not = icmp eq i32 %24, 0
  br i1 %tobool.i.i.not, label %for.inc50, label %if.end

if.end:                                           ; preds = %invoke.cont26
  %25 = load ptr, ptr %m, align 8
  %call32 = invoke noundef ptr @_ZNK4expr8get_sortEv(ptr noundef nonnull align 4 dereferenceable(16) %23)
          to label %invoke.cont31 unwind label %lpad13.loopexit.split-lp.loopexit

invoke.cont31:                                    ; preds = %if.end
  %26 = trunc i64 %indvars.iv to i32
  %add = add i32 %retval.0.i.i, %26
  %call34 = invoke noundef ptr @_ZN6spacer11mk_zk_constER11ast_managerjP4sort(ptr noundef nonnull align 8 dereferenceable(976) %25, i32 noundef %add, ptr noundef %call32)
          to label %invoke.cont33 unwind label %lpad13.loopexit.split-lp.loopexit

invoke.cont33:                                    ; preds = %invoke.cont31
  %tobool.not.i = icmp eq ptr %call34, null
  br i1 %tobool.not.i, label %if.end.i31, label %_ZN11ast_manager7inc_refEP3ast.exit.i

