target datalayout = "e-m:e-p270:32:32-p271:32:32-p272:64:64-i64:64-i128:128-f80:128-n8:16:32:64-S128"
target triple = "x86_64-unknown-linux-gnu"

%"class.std::ios_base::Init" = type { i8 }
%"class.std::basic_ostream" = type { ptr, %"class.std::basic_ios" }
%"class.std::basic_ios" = type { %"class.std::ios_base", ptr, i8, i8, ptr, ptr, ptr, ptr }
%"class.std::ios_base" = type { ptr, i64, i64, i32, i32, i32, ptr, %"struct.std::ios_base::_Words", [8 x %"struct.std::ios_base::_Words"], i32, ptr, %"class.std::locale" }
%"struct.std::ios_base::_Words" = type { ptr, i64 }
%"class.std::locale" = type { ptr }
%"struct.testing::internal::MatcherBase<const std::__cxx11::basic_string<char> &>::VTable" = type { ptr, ptr, ptr, ptr }
%"struct.testing::internal::CodeLocation" = type <{ %"class.std::__cxx11::basic_string", i32, [4 x i8] }>
%"class.std::__cxx11::basic_string" = type { %"struct.std::__cxx11::basic_string<char>::_Alloc_hider", i64, %union.anon }
%"struct.std::__cxx11::basic_string<char>::_Alloc_hider" = type { ptr }
%union.anon = type { i64, [8 x i8] }
%"class.std::allocator" = type { i8 }
%"class.testing::internal::GTestLog" = type { i32 }
%class.anon = type { i8 }
%struct.RefCounted = type { ptr }
%"class.gsl::not_null" = type { ptr }
%"class.testing::AssertionResult" = type { i8, %"class.std::unique_ptr" }
%"class.std::unique_ptr" = type { %"struct.std::__uniq_ptr_data" }
%"struct.std::__uniq_ptr_data" = type { %"class.std::__uniq_ptr_impl" }
%"class.std::__uniq_ptr_impl" = type { %"class.std::tuple" }
%"class.std::tuple" = type { %"struct.std::_Tuple_impl" }
%"struct.std::_Tuple_impl" = type { %"struct.std::_Head_base.1" }
%"struct.std::_Head_base.1" = type { ptr }
%"class.testing::Message" = type { %"class.std::unique_ptr.2" }
%"class.std::unique_ptr.2" = type { %"struct.std::__uniq_ptr_data.3" }
%"struct.std::__uniq_ptr_data.3" = type { %"class.std::__uniq_ptr_impl.4" }
%"class.std::__uniq_ptr_impl.4" = type { %"class.std::tuple.5" }
%"class.std::tuple.5" = type { %"struct.std::_Tuple_impl.6" }
%"struct.std::_Tuple_impl.6" = type { %"struct.std::_Head_base.9" }
%"struct.std::_Head_base.9" = type { ptr }
%"class.testing::internal::AssertHelper" = type { ptr }
%"class.gsl::not_null.10" = type { %"class.std::shared_ptr" }
%"class.std::shared_ptr" = type { %"class.std::__shared_ptr" }
%"class.std::__shared_ptr" = type { ptr, %"class.std::__shared_count" }
%"class.std::__shared_count" = type { ptr }
%"class.testing::Matcher" = type { %"class.testing::internal::MatcherBase" }
%"class.testing::internal::MatcherBase" = type { %"class.testing::MatcherDescriberInterface", ptr, %"union.testing::internal::MatcherBase<const std::__cxx11::basic_string<char> &>::Buffer" }
%"class.testing::MatcherDescriberInterface" = type { ptr }
%"union.testing::internal::MatcherBase<const std::__cxx11::basic_string<char> &>::Buffer" = type { ptr }
%"class.std::unique_ptr.11" = type { %"struct.std::__uniq_ptr_data.12" }
%"struct.std::__uniq_ptr_data.12" = type { %"class.std::__uniq_ptr_impl.13" }
%"class.std::__uniq_ptr_impl.13" = type { %"class.std::tuple.14" }
%"class.std::tuple.14" = type { %"struct.std::_Tuple_impl.15" }
%"struct.std::_Tuple_impl.15" = type { %"struct.std::_Head_base.18" }
%"struct.std::_Head_base.18" = type { ptr }
%"class.testing::internal::DeathTest::ReturnSentinel" = type { ptr }
%"class.gsl::not_null.19" = type { ptr }
%"class.std::allocator.84" = type { i8 }
%"struct.std::_Sp_alloc_shared_tag" = type { ptr }
%"class.testing::PolymorphicMatcher" = type { %"class.testing::internal::MatchesRegexMatcher" }
%"class.testing::internal::MatchesRegexMatcher" = type <{ %"class.std::shared_ptr.66", i8, [7 x i8] }>
%"class.std::shared_ptr.66" = type { %"class.std::__shared_ptr.67" }
%"class.std::__shared_ptr.67" = type { ptr, %"class.std::__shared_count" }
%"class.std::__cxx11::basic_ostringstream" = type { %"class.std::basic_ostream.base", %"class.std::__cxx11::basic_stringbuf", %"class.std::basic_ios" }
%"class.std::basic_ostream.base" = type { ptr }
%"class.std::__cxx11::basic_stringbuf" = type { %"class.std::basic_streambuf", i32, %"class.std::__cxx11::basic_string" }
%"class.std::basic_streambuf" = type { ptr, ptr, ptr, ptr, ptr, ptr, ptr, %"class.std::locale" }
%"class.gsl::not_null.90" = type { ptr }
%"class.gsl::not_null.91" = type { ptr }
%"class.gsl::not_null.92" = type { ptr }
%"class.gsl::not_null.93" = type { ptr }
%"class.gsl::not_null.94" = type { ptr }
%"class.gsl::not_null.95" = type { ptr }
%struct.MyBase = type { i8 }
%struct.MyDerived = type { i8 }
%struct.Unrelated = type { i8 }
%"class.gsl::not_null.22" = type { ptr }
%"class.gsl::not_null.23" = type { ptr }
%"class.gsl::not_null.24" = type { ptr }
%class.anon.26 = type { i8 }
%"struct.std::less" = type { i8 }
%"struct.std::greater" = type { i8 }
%"struct.std::less_equal" = type { i8 }
%"class.std::shared_ptr.30" = type { %"class.std::__shared_ptr.31" }
%"class.std::__shared_ptr.31" = type { ptr, %"class.std::__shared_count" }
%"class.gsl::not_null.33" = type { %"class.std::shared_ptr.30" }
%struct.CustomPtr = type { ptr }
%"class.gsl::not_null.34" = type { %struct.CustomPtr }
%"class.std::type_info" = type { ptr, ptr }
%"class.std::shared_ptr.36" = type { %"class.std::__shared_ptr.37" }
%"class.std::__shared_ptr.37" = type { ptr, %"class.std::__shared_count" }
%"class.gsl::not_null.39" = type { %"class.std::shared_ptr.36" }
%"struct.std::less.97" = type { i8 }
%"struct.std::greater_equal" = type { i8 }
%struct.CustomPtr.41 = type { ptr }
%"class.gsl::not_null.42" = type { %struct.CustomPtr.41 }
%class.anon.44 = type { i8 }
%class.anon.46 = type { i8 }
%class.anon.48 = type { i8 }
%"struct.std::hash" = type { i8 }
%"struct.std::hash.51" = type { i8 }
%"struct.std::hash.52" = type { i8 }
%"struct.std::hash.54" = type { i8 }
%"class.std::_Sp_counted_base" = type { ptr, i32, i32 }
%"class.std::_Sp_counted_ptr" = type { %"class.std::_Sp_counted_base", ptr }
%"class.testing::PolymorphicMatcher<testing::internal::MatchesRegexMatcher>::MonomorphicImpl" = type { %"class.testing::MatcherInterface", %"class.testing::internal::MatchesRegexMatcher" }
%"class.testing::MatcherInterface" = type { %"class.testing::MatcherDescriberInterface" }
%"class.testing::internal::RE" = type { ptr, i8, %struct.re_pattern_buffer, %struct.re_pattern_buffer }
%struct.re_pattern_buffer = type { ptr, i64, i64, i64, ptr, ptr, i64, i8 }
%"class.std::unique_ptr.69" = type { %"struct.std::__uniq_ptr_data.70" }
%"struct.std::__uniq_ptr_data.70" = type { %"class.std::__uniq_ptr_impl.71" }
%"class.std::__uniq_ptr_impl.71" = type { %"class.std::tuple.72" }
%"class.std::tuple.72" = type { %"struct.std::_Tuple_impl.73" }
%"struct.std::_Tuple_impl.73" = type { %"struct.std::_Head_base.76" }
%"struct.std::_Head_base.76" = type { ptr }
%"class.std::tuple.77" = type { %"struct.std::_Tuple_impl.78" }
%"struct.std::_Tuple_impl.78" = type { %"struct.std::_Tuple_impl.79", %"struct.std::_Head_base.81" }
%"struct.std::_Tuple_impl.79" = type { %"struct.std::_Head_base.80" }
%"struct.std::_Head_base.80" = type { ptr }
%"struct.std::_Head_base.81" = type { ptr }
%"struct.testing::internal::SharedPayload" = type { %"struct.testing::internal::SharedPayloadBase", %"class.std::unique_ptr.69" }
%"struct.testing::internal::SharedPayloadBase" = type { %"struct.std::atomic" }
%"struct.std::atomic" = type { %"struct.std::__atomic_base" }
%"struct.std::__atomic_base" = type { i32 }
%"class.std::allocator.85" = type { i8 }
%"struct.std::__allocated_ptr" = type { ptr, ptr }
%"class.std::_Sp_counted_ptr_inplace" = type <{ %"class.std::_Sp_counted_base", %"class.std::_Sp_counted_ptr_inplace<int, std::allocator<void>, __gnu_cxx::_S_atomic>::_Impl", [4 x i8] }>
%"class.std::_Sp_counted_ptr_inplace<int, std::allocator<void>, __gnu_cxx::_S_atomic>::_Impl" = type { %"struct.__gnu_cxx::__aligned_buffer" }
%"struct.__gnu_cxx::__aligned_buffer" = type { %"union.std::aligned_storage<4, 4>::type" }
%"union.std::aligned_storage<4, 4>::type" = type { [4 x i8] }
%"struct.std::less.96" = type { i8 }
%"struct.std::greater.99" = type { i8 }
%"struct.std::greater.100" = type { i8 }
%"struct.std::less_equal.101" = type { i8 }
%"struct.std::less_equal.102" = type { i8 }
%"class.std::allocator.103" = type { i8 }
%"struct.std::__allocated_ptr.106" = type { ptr, ptr }
%"class.std::_Sp_counted_ptr_inplace.107" = type <{ %"class.std::_Sp_counted_base", %"class.std::_Sp_counted_ptr_inplace<NonCopyableNonMovable, std::allocator<void>, __gnu_cxx::_S_atomic>::_Impl", [7 x i8] }>
%"class.std::_Sp_counted_ptr_inplace<NonCopyableNonMovable, std::allocator<void>, __gnu_cxx::_S_atomic>::_Impl" = type { %"struct.__gnu_cxx::__aligned_buffer.108" }
%"struct.__gnu_cxx::__aligned_buffer.108" = type { %"union.std::aligned_storage<1, 1>::type" }
%"union.std::aligned_storage<1, 1>::type" = type { [1 x i8] }
%"class.std::allocator.112" = type { i8 }
%"struct.std::__allocated_ptr.115" = type { ptr, ptr }
%"class.std::_Sp_counted_ptr_inplace.116" = type <{ %"class.std::_Sp_counted_base", %"class.std::_Sp_counted_ptr_inplace<const int, std::allocator<void>, __gnu_cxx::_S_atomic>::_Impl", [4 x i8] }>
%"class.std::_Sp_counted_ptr_inplace<const int, std::allocator<void>, __gnu_cxx::_S_atomic>::_Impl" = type { %"struct.__gnu_cxx::__aligned_buffer.117" }
%"struct.__gnu_cxx::__aligned_buffer.117" = type { %"union.std::aligned_storage<4, 4>::type" }

$_ZN7testing8internal12CodeLocationC2ERKNSt7__cxx1112basic_stringIcSt11char_traitsIcESaIcEEEi = comdat any

$_ZN7testing8internal16SuiteApiResolverINS_4TestEE19GetSetUpCaseOrSuiteEPKci = comdat any

$_ZN7testing8internal16SuiteApiResolverINS_4TestEE22GetTearDownCaseOrSuiteEPKci = comdat any

$_ZN7testing8internal15TestFactoryImplI42notnull_tests_TestNotNullConstructors_TestEC2Ev = comdat any

$_ZN7testing8internal12CodeLocationD2Ev = comdat any

$_Z22GetExpectedDeathStringPFvvE = comdat any

$_ZN10RefCountedIiEC2EPi = comdat any

$_ZN3gsl8not_nullIPiEC2IR10RefCountedIiEvEEOT_ = comdat any

$_ZNK3gsl8not_nullIPiE3getEv = comdat any

$_ZN7testing15AssertionResultC2IbEERKT_PNSt9enable_ifIXntsr3std14is_convertibleIS2_S0_EE5valueEvE4typeE = comdat any

$_ZNK7testing15AssertionResultcvbEv = comdat any

$_ZN7testing7MessageD2Ev = comdat any

$_ZN7testing15AssertionResultD2Ev = comdat any

$_ZSt11make_sharedIiJiEESt10shared_ptrINSt9enable_ifIXntsr8is_arrayIT_EE5valueES2_E4typeEEDpOT0_ = comdat any

$_ZN3gsl8not_nullISt10shared_ptrIiEEC2IvEES2_ = comdat any

$_ZNSt10shared_ptrIiED2Ev = comdat any

$_ZN7testing8internal20MakeDeathTestMatcherB5cxx11EPKc = comdat any

$_ZN7testing7MatcherIRKNSt7__cxx1112basic_stringIcSt11char_traitsIcESaIcEEEED2Ev = comdat any

$_ZNSt10unique_ptrIN7testing8internal9DeathTestESt14default_deleteIS2_EEC2IS4_vEEPS2_ = comdat any

$_ZN7testing8internal9DeathTest14ReturnSentinelC2EPS1_ = comdat any

$_ZN3gsl8not_nullIPiEC2IvEES1_ = comdat any

$__clang_call_terminate = comdat any

$_ZN7testing8internal9DeathTest14ReturnSentinelD2Ev = comdat any

$_ZNSt10unique_ptrIN7testing8internal9DeathTestESt14default_deleteIS2_EED2Ev = comdat any

$_ZN3gsl8not_nullISt10shared_ptrIiEED2Ev = comdat any

$_ZN3gsl8not_nullIPKiEC2IPivEEOT_ = comdat any

$_ZNK3gsl8not_nullIPiEdeEv = comdat any

$_ZN3gsl8not_nullIPKiEC2IRPivEEOT_ = comdat any

$_ZN3gsl8not_nullIPiEC2IRS2_vEEOT_ = comdat any

$_ZN3gsl8not_nullIPKiEC2IRNS0_IPiEEvEEOT_ = comdat any

$_ZN3gsl8not_nullIPKiEC2IvEES2_ = comdat any

$_ZN3gsl8not_nullIPKiEC2IRS3_vEEOT_ = comdat any

$_ZNK3gsl8not_nullIPKiEdeEv = comdat any

$_ZN3gsl8not_nullIPKiEC2IS3_vEEOT_ = comdat any

$_ZN7testing8internal15TestFactoryImplI37notnull_tests_TestNotNullostream_TestEC2Ev = comdat any

$_Z14ostream_helperIiEvT_ = comdat any

$_Z14ostream_helperIfEvT_ = comdat any

$_Z14ostream_helperIdEvT_ = comdat any

$_Z14ostream_helperIcEvT_ = comdat any

$_Z14ostream_helperItEvT_ = comdat any

$_Z14ostream_helperIPKcEvT_ = comdat any

$_Z14ostream_helperINSt7__cxx1112basic_stringIcSt11char_traitsIcESaIcEEEEvT_ = comdat any

$_ZN7testing8internal15TestFactoryImplI37notnull_tests_TestNotNullCasting_TestEC2Ev = comdat any

$_ZN3gsl8not_nullIP9UnrelatedEC2IvEES2_ = comdat any

$_ZN3gsl8not_nullIP9MyDerivedEC2IvEES2_ = comdat any

$_ZN3gsl8not_nullIP6MyBaseEC2IvEES2_ = comdat any

$_ZN3gsl8not_nullIP6MyBaseEC2IRNS0_IP9MyDerivedEEvEEOT_ = comdat any

$_ZN3gsleqIP6MyBaseP9MyDerivedEEDTeqcldtfp_3getEcldtfp0_3getEERKNS_8not_nullIT_EERKNS6_IT0_EE = comdat any

$_ZNK3gsl8not_nullIP9MyDerivedE3getEv = comdat any

$_ZNK3gsl8not_nullIP9UnrelatedE3getEv = comdat any

$_ZN7testing8internal15TestFactoryImplI40notnull_tests_TestNotNullAssignment_TestEC2Ev = comdat any

$_ZN7testing8internal15TestFactoryImplI50notnull_tests_TestNotNullRawPointerComparison_TestEC2Ev = comdat any

$_ZN3gsleqIPiS1_EEDTeqcldtfp_3getEcldtfp0_3getEERKNS_8not_nullIT_EERKNS3_IT0_EE = comdat any

$_ZN3gsleqIPiPKiEEDTeqcldtfp_3getEcldtfp0_3getEERKNS_8not_nullIT_EERKNS5_IT0_EE = comdat any

$_ZN3gslneIPiS1_EEDTnecldtfp_3getEcldtfp0_3getEERKNS_8not_nullIT_EERKNS3_IT0_EE = comdat any

$_ZN3gslneIPiPKiEEDTnecldtfp_3getEcldtfp0_3getEERKNS_8not_nullIT_EERKNS5_IT0_EE = comdat any

$_ZN3gslltIPiS1_EEDTcltlSt4lessIvEEcldtfp_3getEcldtfp0_3getEEERKNS_8not_nullIT_EERKNS5_IT0_EE = comdat any

$_ZN3gslltIPiPKiEEDTcltlSt4lessIvEEcldtfp_3getEcldtfp0_3getEEERKNS_8not_nullIT_EERKNS7_IT0_EE = comdat any

$_ZN3gslltIPKiPiEEDTcltlSt4lessIvEEcldtfp_3getEcldtfp0_3getEEERKNS_8not_nullIT_EERKNS7_IT0_EE = comdat any

$_ZN3gslgtIPiS1_EEDTcltlSt7greaterIvEEcldtfp_3getEcldtfp0_3getEEERKNS_8not_nullIT_EERKNS5_IT0_EE = comdat any

$_ZN3gslgtIPiPKiEEDTcltlSt7greaterIvEEcldtfp_3getEcldtfp0_3getEEERKNS_8not_nullIT_EERKNS7_IT0_EE = comdat any

$_ZN3gslgtIPKiPiEEDTcltlSt7greaterIvEEcldtfp_3getEcldtfp0_3getEEERKNS_8not_nullIT_EERKNS7_IT0_EE = comdat any

$_ZN3gslleIPiS1_EEDTcltlSt10less_equalIvEEcldtfp_3getEcldtfp0_3getEEERKNS_8not_nullIT_EERKNS5_IT0_EE = comdat any

$_ZN3gslleIPiPKiEEDTcltlSt10less_equalIvEEcldtfp_3getEcldtfp0_3getEEERKNS_8not_nullIT_EERKNS7_IT0_EE = comdat any

$_ZN3gslleIPKiPiEEDTcltlSt10less_equalIvEEcldtfp_3getEcldtfp0_3getEEERKNS_8not_nullIT_EERKNS7_IT0_EE = comdat any

$_ZN7testing8internal15TestFactoryImplI49notnull_tests_TestNotNullDereferenceOperator_TestEC2Ev = comdat any

$_ZSt11make_sharedI21NonCopyableNonMovableJEESt10shared_ptrINSt9enable_ifIXntsr8is_arrayIT_EE5valueES3_E4typeEEDpOT0_ = comdat any

$_ZNKSt9type_infoeqERKS_ = comdat any

$_ZNSt10shared_ptrI21NonCopyableNonMovableEC2ERKS1_ = comdat any

$_ZN3gsl8not_nullISt10shared_ptrI21NonCopyableNonMovableEEC2IvEES3_ = comdat any

$_ZNK3gsl8not_nullISt10shared_ptrI21NonCopyableNonMovableEEdeEv = comdat any

$_ZNKSt19__shared_ptr_accessI21NonCopyableNonMovableLN9__gnu_cxx12_Lock_policyE2ELb0ELb0EEdeEv = comdat any

$_ZN3gsl8not_nullISt10shared_ptrI21NonCopyableNonMovableEED2Ev = comdat any

$_ZNSt10shared_ptrI21NonCopyableNonMovableED2Ev = comdat any

$_ZN9CustomPtrIiEC2EPi = comdat any

$_ZN3gsl8not_nullI9CustomPtrIiEEC2IvEES2_ = comdat any

$_ZNK3gsl8not_nullI9CustomPtrIiEEdeEv = comdat any

$_ZN7testing8internal15TestFactoryImplI49notnull_tests_TestNotNullSharedPtrComparison_TestEC2Ev = comdat any

$_ZSt11make_sharedIKiJiEESt10shared_ptrINSt9enable_ifIXntsr8is_arrayIT_EE5valueES3_E4typeEEDpOT0_ = comdat any

$_ZN3gsleqISt10shared_ptrIiES2_EEDTeqcldtfp_3getEcldtfp0_3getEERKNS_8not_nullIT_EERKNS4_IT0_EE = comdat any

$_ZNSt10shared_ptrIiEC2ERKS0_ = comdat any

$_ZN3gsleqISt10shared_ptrIiES1_IKiEEEDTeqcldtfp_3getEcldtfp0_3getEERKNS_8not_nullIT_EERKNS6_IT0_EE = comdat any

$_ZNSt10shared_ptrIKiEC2ERKS1_ = comdat any

$_ZN3gsl8not_nullISt10shared_ptrIKiEEC2IvEES3_ = comdat any

$_ZN3gsl8not_nullISt10shared_ptrIKiEED2Ev = comdat any

$_ZNSt10shared_ptrIKiED2Ev = comdat any

$_ZN3gslneISt10shared_ptrIiES2_EEDTnecldtfp_3getEcldtfp0_3getEERKNS_8not_nullIT_EERKNS4_IT0_EE = comdat any

$_ZN3gslneISt10shared_ptrIiES1_IKiEEEDTnecldtfp_3getEcldtfp0_3getEERKNS_8not_nullIT_EERKNS6_IT0_EE = comdat any

$_ZN3gslltISt10shared_ptrIiES2_EEDTcltlSt4lessIvEEcldtfp_3getEcldtfp0_3getEEERKNS_8not_nullIT_EERKNS6_IT0_EE = comdat any

$_ZN3gslltISt10shared_ptrIiES1_IKiEEEDTcltlSt4lessIvEEcldtfp_3getEcldtfp0_3getEEERKNS_8not_nullIT_EERKNS8_IT0_EE = comdat any

$_ZStltIiKiEbRKSt10shared_ptrIT_ERKS1_IT0_E = comdat any

$_ZN3gslltISt10shared_ptrIKiES1_IiEEEDTcltlSt4lessIvEEcldtfp_3getEcldtfp0_3getEEERKNS_8not_nullIT_EERKNS8_IT0_EE = comdat any

$_ZStltIKiiEbRKSt10shared_ptrIT_ERKS1_IT0_E = comdat any

$_ZN3gslgtISt10shared_ptrIiES2_EEDTcltlSt7greaterIvEEcldtfp_3getEcldtfp0_3getEEERKNS_8not_nullIT_EERKNS6_IT0_EE = comdat any

$_ZN3gslgtISt10shared_ptrIiES1_IKiEEEDTcltlSt7greaterIvEEcldtfp_3getEcldtfp0_3getEEERKNS_8not_nullIT_EERKNS8_IT0_EE = comdat any

$_ZStgtIiKiEbRKSt10shared_ptrIT_ERKS1_IT0_E = comdat any

$_ZN3gslgtISt10shared_ptrIKiES1_IiEEEDTcltlSt7greaterIvEEcldtfp_3getEcldtfp0_3getEEERKNS_8not_nullIT_EERKNS8_IT0_EE = comdat any

$_ZStgtIKiiEbRKSt10shared_ptrIT_ERKS1_IT0_E = comdat any

$_ZN3gslleISt10shared_ptrIiES2_EEDTcltlSt10less_equalIvEEcldtfp_3getEcldtfp0_3getEEERKNS_8not_nullIT_EERKNS6_IT0_EE = comdat any

$_ZN3gslleISt10shared_ptrIiES1_IKiEEEDTcltlSt10less_equalIvEEcldtfp_3getEcldtfp0_3getEEERKNS_8not_nullIT_EERKNS8_IT0_EE = comdat any

$_ZStleIiKiEbRKSt10shared_ptrIT_ERKS1_IT0_E = comdat any

$_ZN3gslleISt10shared_ptrIKiES1_IiEEEDTcltlSt10less_equalIvEEcldtfp_3getEcldtfp0_3getEEERKNS_8not_nullIT_EERKNS8_IT0_EE = comdat any

$_ZStleIKiiEbRKSt10shared_ptrIT_ERKS1_IT0_E = comdat any

$_ZN3gslgeISt10shared_ptrIiES2_EEDTcltlSt13greater_equalIvEEcldtfp_3getEcldtfp0_3getEEERKNS_8not_nullIT_EERKNS6_IT0_EE = comdat any

$_ZN3gslgeISt10shared_ptrIiES1_IKiEEEDTcltlSt13greater_equalIvEEcldtfp_3getEcldtfp0_3getEEERKNS_8not_nullIT_EERKNS8_IT0_EE = comdat any

$_ZStgeIiKiEbRKSt10shared_ptrIT_ERKS1_IT0_E = comdat any

$_ZN3gslgeISt10shared_ptrIKiES1_IiEEEDTcltlSt13greater_equalIvEEcldtfp_3getEcldtfp0_3getEEERKNS_8not_nullIT_EERKNS8_IT0_EE = comdat any

$_ZStgeIKiiEbRKSt10shared_ptrIT_ERKS1_IT0_E = comdat any

$_ZN7testing8internal15TestFactoryImplI49notnull_tests_TestNotNullCustomPtrComparison_TestEC2Ev = comdat any

$_ZN9CustomPtrIKiEC2EPS0_ = comdat any

$_ZSteqIcSt11char_traitsIcESaIcEEbRKNSt7__cxx1112basic_stringIT_T0_T1_EEPKS5_ = comdat any

$_ZN3gsleqI9CustomPtrIiES2_EEDTeqcldtfp_3getEcldtfp0_3getEERKNS_8not_nullIT_EERKNS4_IT0_EE = comdat any

$_ZN3gsleqI9CustomPtrIiES1_IKiEEEDTeqcldtfp_3getEcldtfp0_3getEERKNS_8not_nullIT_EERKNS6_IT0_EE = comdat any

$_ZN3gsl8not_nullI9CustomPtrIKiEEC2IvEES3_ = comdat any

$_ZN3gslneI9CustomPtrIiES2_EEDTnecldtfp_3getEcldtfp0_3getEERKNS_8not_nullIT_EERKNS4_IT0_EE = comdat any

$_ZN3gslneI9CustomPtrIiES1_IKiEEEDTnecldtfp_3getEcldtfp0_3getEERKNS_8not_nullIT_EERKNS6_IT0_EE = comdat any

$_ZN3gslltI9CustomPtrIiES2_EEDTcltlSt4lessIvEEcldtfp_3getEcldtfp0_3getEEERKNS_8not_nullIT_EERKNS6_IT0_EE = comdat any

$_ZSteqIcEN9__gnu_cxx11__enable_ifIXsr9__is_charIT_EE7__valueEbE6__typeERKNSt7__cxx1112basic_stringIS2_St11char_traitsIS2_ESaIS2_EEESC_ = comdat any

$_ZN3gslltI9CustomPtrIiES1_IKiEEEDTcltlSt4lessIvEEcldtfp_3getEcldtfp0_3getEEERKNS_8not_nullIT_EERKNS8_IT0_EE = comdat any

$_ZltIiKiENSt7__cxx1112basic_stringIcSt11char_traitsIcESaIcEEERK9CustomPtrIT_ERKS7_IT0_E = comdat any

$_ZN3gslltI9CustomPtrIKiES1_IiEEEDTcltlSt4lessIvEEcldtfp_3getEcldtfp0_3getEEERKNS_8not_nullIT_EERKNS8_IT0_EE = comdat any

$_ZltIKiiENSt7__cxx1112basic_stringIcSt11char_traitsIcESaIcEEERK9CustomPtrIT_ERKS7_IT0_E = comdat any

$_ZN3gslgtI9CustomPtrIiES2_EEDTcltlSt7greaterIvEEcldtfp_3getEcldtfp0_3getEEERKNS_8not_nullIT_EERKNS6_IT0_EE = comdat any

$_ZN3gslgtI9CustomPtrIiES1_IKiEEEDTcltlSt7greaterIvEEcldtfp_3getEcldtfp0_3getEEERKNS_8not_nullIT_EERKNS8_IT0_EE = comdat any

$_ZgtIiKiENSt7__cxx1112basic_stringIcSt11char_traitsIcESaIcEEERK9CustomPtrIT_ERKS7_IT0_E = comdat any

$_ZN3gslgtI9CustomPtrIKiES1_IiEEEDTcltlSt7greaterIvEEcldtfp_3getEcldtfp0_3getEEERKNS_8not_nullIT_EERKNS8_IT0_EE = comdat any

$_ZgtIKiiENSt7__cxx1112basic_stringIcSt11char_traitsIcESaIcEEERK9CustomPtrIT_ERKS7_IT0_E = comdat any

$_ZN3gslleI9CustomPtrIiES2_EEDTcltlSt10less_equalIvEEcldtfp_3getEcldtfp0_3getEEERKNS_8not_nullIT_EERKNS6_IT0_EE = comdat any

$_ZN3gslleI9CustomPtrIiES1_IKiEEEDTcltlSt10less_equalIvEEcldtfp_3getEcldtfp0_3getEEERKNS_8not_nullIT_EERKNS8_IT0_EE = comdat any

$_ZleIiKiENSt7__cxx1112basic_stringIcSt11char_traitsIcESaIcEEERK9CustomPtrIT_ERKS7_IT0_E = comdat any

$_ZN3gslleI9CustomPtrIKiES1_IiEEEDTcltlSt10less_equalIvEEcldtfp_3getEcldtfp0_3getEEERKNS_8not_nullIT_EERKNS8_IT0_EE = comdat any

$_ZleIKiiENSt7__cxx1112basic_stringIcSt11char_traitsIcESaIcEEERK9CustomPtrIT_ERKS7_IT0_E = comdat any

$_ZN3gslgeI9CustomPtrIiES2_EEDTcltlSt13greater_equalIvEEcldtfp_3getEcldtfp0_3getEEERKNS_8not_nullIT_EERKNS6_IT0_EE = comdat any

$_ZN3gslgeI9CustomPtrIiES1_IKiEEEDTcltlSt13greater_equalIvEEcldtfp_3getEcldtfp0_3getEEERKNS_8not_nullIT_EERKNS8_IT0_EE = comdat any

$_ZgeIiKiENSt7__cxx1112basic_stringIcSt11char_traitsIcESaIcEEERK9CustomPtrIT_ERKS7_IT0_E = comdat any

$_ZN3gslgeI9CustomPtrIKiES1_IiEEEDTcltlSt13greater_equalIvEEcldtfp_3getEcldtfp0_3getEEERKNS_8not_nullIT_EERKNS8_IT0_EE = comdat any

$_ZgeIKiiENSt7__cxx1112basic_stringIcSt11char_traitsIcESaIcEEERK9CustomPtrIT_ERKS7_IT0_E = comdat any

$_ZN7testing8internal15TestFactoryImplI34notnull_tests_TestMakeNotNull_TestEC2Ev = comdat any

$_ZN3gsl13make_not_nullIPiEEDaOT_ = comdat any

$_ZN3gsl8not_nullIPiEC2IS2_vEEOT_ = comdat any

$_ZN3gsl8not_nullIPKiEC2INS0_IPiEEvEEOT_ = comdat any

$_ZN3gsl13make_not_nullIPKiEEDaOT_ = comdat any

$_ZN3gsl13make_not_nullIRPiEEDaOT_ = comdat any

$_ZN3gsl13make_not_nullIRPKiEEDaOT_ = comdat any

$_ZN7testing8internal15TestFactoryImplI30notnull_tests_TestStdHash_TestEC2Ev = comdat any

$_ZNK3gsl13not_null_hashINS_8not_nullIPiEES2_Lb1EEclERKS3_ = comdat any

$_ZNKSt4hashIPiEclES0_ = comdat any

$_ZNK3gsl13not_null_hashINS_8not_nullIPKiEES3_Lb1EEclERKS4_ = comdat any

$_ZNKSt4hashIPKiEclES1_ = comdat any

$_ZN42notnull_tests_TestNotNullConstructors_TestD2Ev = comdat any

$_ZN42notnull_tests_TestNotNullConstructors_TestD0Ev = comdat any

$_ZN7testing4Test5SetupEv = comdat any

$_ZN37notnull_tests_TestNotNullostream_TestD2Ev = comdat any

$_ZN37notnull_tests_TestNotNullostream_TestD0Ev = comdat any

$_ZN37notnull_tests_TestNotNullCasting_TestD2Ev = comdat any

$_ZN37notnull_tests_TestNotNullCasting_TestD0Ev = comdat any

$_ZN40notnull_tests_TestNotNullAssignment_TestD2Ev = comdat any

$_ZN40notnull_tests_TestNotNullAssignment_TestD0Ev = comdat any

$_ZN50notnull_tests_TestNotNullRawPointerComparison_TestD2Ev = comdat any

$_ZN50notnull_tests_TestNotNullRawPointerComparison_TestD0Ev = comdat any

$_ZN49notnull_tests_TestNotNullDereferenceOperator_TestD2Ev = comdat any

$_ZN49notnull_tests_TestNotNullDereferenceOperator_TestD0Ev = comdat any

$_ZN49notnull_tests_TestNotNullSharedPtrComparison_TestD2Ev = comdat any

$_ZN49notnull_tests_TestNotNullSharedPtrComparison_TestD0Ev = comdat any

$_ZN49notnull_tests_TestNotNullCustomPtrComparison_TestD2Ev = comdat any

$_ZN49notnull_tests_TestNotNullCustomPtrComparison_TestD0Ev = comdat any

$_ZN34notnull_tests_TestMakeNotNull_TestD2Ev = comdat any

$_ZN34notnull_tests_TestMakeNotNull_TestD0Ev = comdat any

$_ZN30notnull_tests_TestStdHash_TestD2Ev = comdat any

$_ZN30notnull_tests_TestStdHash_TestD0Ev = comdat any

$_ZN7testing8internal15TestFactoryBaseC2Ev = comdat any

$_ZN7testing8internal15TestFactoryImplI42notnull_tests_TestNotNullConstructors_TestED2Ev = comdat any

$_ZN7testing8internal15TestFactoryImplI42notnull_tests_TestNotNullConstructors_TestED0Ev = comdat any

$_ZN7testing8internal15TestFactoryImplI42notnull_tests_TestNotNullConstructors_TestE10CreateTestEv = comdat any

$_ZN7testing8internal15TestFactoryBaseD2Ev = comdat any

$_ZN7testing8internal15TestFactoryBaseD0Ev = comdat any

$_ZN42notnull_tests_TestNotNullConstructors_TestC2Ev = comdat any

$_ZN10RefCountedIiEcvPiEv = comdat any

$_ZN3gsl7details9terminateEv = comdat any

$_ZNSt10unique_ptrINSt7__cxx1118basic_stringstreamIcSt11char_traitsIcESaIcEEESt14default_deleteIS5_EED2Ev = comdat any

$_ZNSt15__uniq_ptr_implINSt7__cxx1118basic_stringstreamIcSt11char_traitsIcESaIcEEESt14default_deleteIS5_EE6_M_ptrEv = comdat any

$_ZNSt10unique_ptrINSt7__cxx1118basic_stringstreamIcSt11char_traitsIcESaIcEEESt14default_deleteIS5_EE11get_deleterEv = comdat any

$_ZNKSt14default_deleteINSt7__cxx1118basic_stringstreamIcSt11char_traitsIcESaIcEEEEclEPS5_ = comdat any

$_ZSt3getILm0EJPNSt7__cxx1118basic_stringstreamIcSt11char_traitsIcESaIcEEESt14default_deleteIS5_EEERNSt13tuple_elementIXT_ESt5tupleIJDpT0_EEE4typeERSD_ = comdat any

$_ZSt12__get_helperILm0EPNSt7__cxx1118basic_stringstreamIcSt11char_traitsIcESaIcEEEJSt14default_deleteIS5_EEERT0_RSt11_Tuple_implIXT_EJS9_DpT1_EE = comdat any

$_ZNSt11_Tuple_implILm0EJPNSt7__cxx1118basic_stringstreamIcSt11char_traitsIcESaIcEEESt14default_deleteIS5_EEE7_M_headERS9_ = comdat any

$_ZNSt10_Head_baseILm0EPNSt7__cxx1118basic_stringstreamIcSt11char_traitsIcESaIcEEELb0EE7_M_headERS7_ = comdat any

$_ZNSt15__uniq_ptr_implINSt7__cxx1118basic_stringstreamIcSt11char_traitsIcESaIcEEESt14default_deleteIS5_EE10_M_deleterEv = comdat any

$_ZSt3getILm1EJPNSt7__cxx1118basic_stringstreamIcSt11char_traitsIcESaIcEEESt14default_deleteIS5_EEERNSt13tuple_elementIXT_ESt5tupleIJDpT0_EEE4typeERSD_ = comdat any

$_ZSt12__get_helperILm1ESt14default_deleteINSt7__cxx1118basic_stringstreamIcSt11char_traitsIcESaIcEEEEJEERT0_RSt11_Tuple_implIXT_EJS8_DpT1_EE = comdat any

$_ZNSt11_Tuple_implILm1EJSt14default_deleteINSt7__cxx1118basic_stringstreamIcSt11char_traitsIcESaIcEEEEEE7_M_headERS8_ = comdat any

$_ZNSt10_Head_baseILm1ESt14default_deleteINSt7__cxx1118basic_stringstreamIcSt11char_traitsIcESaIcEEEELb1EE7_M_headERS8_ = comdat any

$_ZNSt10unique_ptrINSt7__cxx1112basic_stringIcSt11char_traitsIcESaIcEEESt14default_deleteIS5_EED2Ev = comdat any

$_ZNSt15__uniq_ptr_implINSt7__cxx1112basic_stringIcSt11char_traitsIcESaIcEEESt14default_deleteIS5_EE6_M_ptrEv = comdat any

$_ZNSt10unique_ptrINSt7__cxx1112basic_stringIcSt11char_traitsIcESaIcEEESt14default_deleteIS5_EE11get_deleterEv = comdat any

$_ZNKSt14default_deleteINSt7__cxx1112basic_stringIcSt11char_traitsIcESaIcEEEEclEPS5_ = comdat any

$_ZSt3getILm0EJPNSt7__cxx1112basic_stringIcSt11char_traitsIcESaIcEEESt14default_deleteIS5_EEERNSt13tuple_elementIXT_ESt5tupleIJDpT0_EEE4typeERSD_ = comdat any

$_ZSt12__get_helperILm0EPNSt7__cxx1112basic_stringIcSt11char_traitsIcESaIcEEEJSt14default_deleteIS5_EEERT0_RSt11_Tuple_implIXT_EJS9_DpT1_EE = comdat any

$_ZNSt11_Tuple_implILm0EJPNSt7__cxx1112basic_stringIcSt11char_traitsIcESaIcEEESt14default_deleteIS5_EEE7_M_headERS9_ = comdat any

$_ZNSt10_Head_baseILm0EPNSt7__cxx1112basic_stringIcSt11char_traitsIcESaIcEEELb0EE7_M_headERS7_ = comdat any

$_ZNSt15__uniq_ptr_implINSt7__cxx1112basic_stringIcSt11char_traitsIcESaIcEEESt14default_deleteIS5_EE10_M_deleterEv = comdat any

$_ZSt3getILm1EJPNSt7__cxx1112basic_stringIcSt11char_traitsIcESaIcEEESt14default_deleteIS5_EEERNSt13tuple_elementIXT_ESt5tupleIJDpT0_EEE4typeERSD_ = comdat any

$_ZSt12__get_helperILm1ESt14default_deleteINSt7__cxx1112basic_stringIcSt11char_traitsIcESaIcEEEEJEERT0_RSt11_Tuple_implIXT_EJS8_DpT1_EE = comdat any

$_ZNSt11_Tuple_implILm1EJSt14default_deleteINSt7__cxx1112basic_stringIcSt11char_traitsIcESaIcEEEEEE7_M_headERS8_ = comdat any

$_ZNSt10_Head_baseILm1ESt14default_deleteINSt7__cxx1112basic_stringIcSt11char_traitsIcESaIcEEEELb1EE7_M_headERS8_ = comdat any

$_ZNSt10shared_ptrIiEC2EOS0_ = comdat any

$_ZStneIiEbRKSt10shared_ptrIT_EDn = comdat any

$_ZNSt12__shared_ptrIiLN9__gnu_cxx12_Lock_policyE2EEC2EOS2_ = comdat any

$_ZNSt14__shared_countILN9__gnu_cxx12_Lock_policyE2EEC2Ev = comdat any

$_ZNSt14__shared_countILN9__gnu_cxx12_Lock_policyE2EE7_M_swapERS2_ = comdat any

$_ZNKSt12__shared_ptrIiLN9__gnu_cxx12_Lock_policyE2EEcvbEv = comdat any

$_ZNSt12__shared_ptrIiLN9__gnu_cxx12_Lock_policyE2EED2Ev = comdat any

$_ZNSt14__shared_countILN9__gnu_cxx12_Lock_policyE2EED2Ev = comdat any

$_ZNSt16_Sp_counted_baseILN9__gnu_cxx12_Lock_policyE2EE10_M_releaseEv = comdat any

$_ZNSt16_Sp_counted_baseILN9__gnu_cxx12_Lock_policyE2EE24_M_release_last_use_coldEv = comdat any

$_ZNSt16_Sp_counted_baseILN9__gnu_cxx12_Lock_policyE2EE19_M_release_last_useEv = comdat any

$_ZN7testing13ContainsRegexIPKcEENS_18PolymorphicMatcherINS_8internal19MatchesRegexMatcherEEERKT_ = comdat any

$_ZNK7testing18PolymorphicMatcherINS_8internal19MatchesRegexMatcherEEcvNS_7MatcherIT_EEIRKNSt7__cxx1112basic_stringIcSt11char_traitsIcESaIcEEEEEv = comdat any

$_ZN7testing18PolymorphicMatcherINS_8internal19MatchesRegexMatcherEED2Ev = comdat any

$_ZN7testing13ContainsRegexEPKNS_8internal2REE = comdat any

$_ZN7testing8internal2REC2ERKNSt7__cxx1112basic_stringIcSt11char_traitsIcESaIcEEE = comdat any

$_ZN7testing22MakePolymorphicMatcherINS_8internal19MatchesRegexMatcherEEENS_18PolymorphicMatcherIT_EERKS4_ = comdat any

$_ZN7testing8internal19MatchesRegexMatcherC2EPKNS0_2REEb = comdat any

$_ZN7testing8internal19MatchesRegexMatcherD2Ev = comdat any

$_ZN7testing18PolymorphicMatcherINS_8internal19MatchesRegexMatcherEEC2ERKS2_ = comdat any

$_ZN7testing8internal19MatchesRegexMatcherC2ERKS1_ = comdat any

$_ZNSt10shared_ptrIKN7testing8internal2REEEC2ERKS4_ = comdat any

$_ZNSt12__shared_ptrIKN7testing8internal2REELN9__gnu_cxx12_Lock_policyE2EEC2ERKS6_ = comdat any

$_ZNSt14__shared_countILN9__gnu_cxx12_Lock_policyE2EEC2ERKS2_ = comdat any

$_ZNSt16_Sp_counted_baseILN9__gnu_cxx12_Lock_policyE2EE15_M_add_ref_copyEv = comdat any

$_ZNSt10shared_ptrIKN7testing8internal2REEEC2IS3_vEEPT_ = comdat any

$_ZNSt12__shared_ptrIKN7testing8internal2REELN9__gnu_cxx12_Lock_policyE2EEC2IS3_vEEPT_ = comdat any

$_ZNSt14__shared_countILN9__gnu_cxx12_Lock_policyE2EEC2IPKN7testing8internal2REEEET_St17integral_constantIbLb0EE = comdat any

$_ZNSt12__shared_ptrIKN7testing8internal2REELN9__gnu_cxx12_Lock_policyE2EE31_M_enable_shared_from_this_withIS3_S2_EENSt9enable_ifIXntsr15__has_esft_baseIT0_EE5valueEvE4typeEPT_ = comdat any

$_ZNSt14__shared_countILN9__gnu_cxx12_Lock_policyE2EEC2IPKN7testing8internal2REEEET_ = comdat any

$_ZNSt15_Sp_counted_ptrIPKN7testing8internal2REELN9__gnu_cxx12_Lock_policyE2EEC2ES4_ = comdat any

$_ZNSt16_Sp_counted_baseILN9__gnu_cxx12_Lock_policyE2EEC2Ev = comdat any

$_ZNSt15_Sp_counted_ptrIPKN7testing8internal2REELN9__gnu_cxx12_Lock_policyE2EED2Ev = comdat any

$_ZNSt15_Sp_counted_ptrIPKN7testing8internal2REELN9__gnu_cxx12_Lock_policyE2EED0Ev = comdat any

$_ZNSt15_Sp_counted_ptrIPKN7testing8internal2REELN9__gnu_cxx12_Lock_policyE2EE10_M_disposeEv = comdat any

$_ZNSt15_Sp_counted_ptrIPKN7testing8internal2REELN9__gnu_cxx12_Lock_policyE2EE10_M_destroyEv = comdat any

$_ZNSt15_Sp_counted_ptrIPKN7testing8internal2REELN9__gnu_cxx12_Lock_policyE2EE14_M_get_deleterERKSt9type_info = comdat any

$_ZNSt16_Sp_counted_baseILN9__gnu_cxx12_Lock_policyE2EED2Ev = comdat any

$_ZNSt16_Sp_counted_baseILN9__gnu_cxx12_Lock_policyE2EED0Ev = comdat any

$_ZNSt16_Sp_counted_baseILN9__gnu_cxx12_Lock_policyE2EE10_M_destroyEv = comdat any

$_ZNSt10shared_ptrIKN7testing8internal2REEED2Ev = comdat any

$_ZNSt12__shared_ptrIKN7testing8internal2REELN9__gnu_cxx12_Lock_policyE2EED2Ev = comdat any

$_ZN7testing18PolymorphicMatcherINS_8internal19MatchesRegexMatcherEE15MonomorphicImplIRKNSt7__cxx1112basic_stringIcSt11char_traitsIcESaIcEEEEC2ERKS2_ = comdat any

$_ZN7testing7MatcherIRKNSt7__cxx1112basic_stringIcSt11char_traitsIcESaIcEEEEC2EPKNS_16MatcherInterfaceIS8_EE = comdat any

$_ZN7testing16MatcherInterfaceIRKNSt7__cxx1112basic_stringIcSt11char_traitsIcESaIcEEEEC2Ev = comdat any

$_ZN7testing18PolymorphicMatcherINS_8internal19MatchesRegexMatcherEE15MonomorphicImplIRKNSt7__cxx1112basic_stringIcSt11char_traitsIcESaIcEEEED2Ev = comdat any

$_ZN7testing18PolymorphicMatcherINS_8internal19MatchesRegexMatcherEE15MonomorphicImplIRKNSt7__cxx1112basic_stringIcSt11char_traitsIcESaIcEEEED0Ev = comdat any

$_ZNK7testing18PolymorphicMatcherINS_8internal19MatchesRegexMatcherEE15MonomorphicImplIRKNSt7__cxx1112basic_stringIcSt11char_traitsIcESaIcEEEE10DescribeToEPSo = comdat any

$_ZNK7testing18PolymorphicMatcherINS_8internal19MatchesRegexMatcherEE15MonomorphicImplIRKNSt7__cxx1112basic_stringIcSt11char_traitsIcESaIcEEEE18DescribeNegationToEPSo = comdat any

$_ZNK7testing18PolymorphicMatcherINS_8internal19MatchesRegexMatcherEE15MonomorphicImplIRKNSt7__cxx1112basic_stringIcSt11char_traitsIcESaIcEEEE15MatchAndExplainESC_PNS_19MatchResultListenerE = comdat any

$_ZN7testing25MatcherDescriberInterfaceC2Ev = comdat any

$_ZN7testing16MatcherInterfaceIRKNSt7__cxx1112basic_stringIcSt11char_traitsIcESaIcEEEED2Ev = comdat any

$_ZN7testing16MatcherInterfaceIRKNSt7__cxx1112basic_stringIcSt11char_traitsIcESaIcEEEED0Ev = comdat any

$_ZNK7testing25MatcherDescriberInterface18DescribeNegationToEPSo = comdat any

$_ZN7testing25MatcherDescriberInterfaceD2Ev = comdat any

$_ZN7testing25MatcherDescriberInterfaceD0Ev = comdat any

$_ZNK7testing8internal19MatchesRegexMatcher10DescribeToEPSo = comdat any

$_ZN7testing8internal16UniversalPrinterINSt7__cxx1112basic_stringIcSt11char_traitsIcESaIcEEEE5PrintERKS7_PSo = comdat any

$_ZNKSt19__shared_ptr_accessIKN7testing8internal2REELN9__gnu_cxx12_Lock_policyE2ELb0ELb0EEptEv = comdat any

$_ZNK7testing8internal2RE7patternEv = comdat any

$_ZN7testing8internal7PrintToERKNSt7__cxx1112basic_stringIcSt11char_traitsIcESaIcEEEPSo = comdat any

$_ZNKSt19__shared_ptr_accessIKN7testing8internal2REELN9__gnu_cxx12_Lock_policyE2ELb0ELb0EE6_M_getEv = comdat any

$_ZNKSt12__shared_ptrIKN7testing8internal2REELN9__gnu_cxx12_Lock_policyE2EE3getEv = comdat any

$_ZNK7testing8internal19MatchesRegexMatcher18DescribeNegationToEPSo = comdat any

$_ZNK7testing8internal19MatchesRegexMatcher15MatchAndExplainINSt7__cxx1112basic_stringIcSt11char_traitsIcESaIcEEEEEbRKT_PNS_19MatchResultListenerE = comdat any

$_ZN7testing8internal2RE9FullMatchERKNSt7__cxx1112basic_stringIcSt11char_traitsIcESaIcEEERKS1_ = comdat any

$_ZNKSt19__shared_ptr_accessIKN7testing8internal2REELN9__gnu_cxx12_Lock_policyE2ELb0ELb0EEdeEv = comdat any

$_ZN7testing8internal2RE12PartialMatchERKNSt7__cxx1112basic_stringIcSt11char_traitsIcESaIcEEERKS1_ = comdat any

$_ZN7testing8internal11MatcherBaseIRKNSt7__cxx1112basic_stringIcSt11char_traitsIcESaIcEEEEC2IS9_EEPKNS_16MatcherInterfaceIT_EE = comdat any

$_ZN7testing7MatcherIRKNSt7__cxx1112basic_stringIcSt11char_traitsIcESaIcEEEED0Ev = comdat any

$_ZNK7testing8internal11MatcherBaseIRKNSt7__cxx1112basic_stringIcSt11char_traitsIcESaIcEEEE10DescribeToEPSo = comdat any

$_ZNK7testing8internal11MatcherBaseIRKNSt7__cxx1112basic_stringIcSt11char_traitsIcESaIcEEEE18DescribeNegationToEPSo = comdat any

$_ZN7testing8internal11MatcherBaseIRKNSt7__cxx1112basic_stringIcSt11char_traitsIcESaIcEEEE4InitIRPKNS_16MatcherInterfaceIS9_EEEEvOT_ = comdat any

$_ZN7testing8internal11MatcherBaseIRKNSt7__cxx1112basic_stringIcSt11char_traitsIcESaIcEEEED2Ev = comdat any

$_ZN7testing8internal11MatcherBaseIRKNSt7__cxx1112basic_stringIcSt11char_traitsIcESaIcEEEED0Ev = comdat any

$_ZN7testing8internal11MatcherBaseIRKNSt7__cxx1112basic_stringIcSt11char_traitsIcESaIcEEEE9GetVTableINSA_11ValuePolicyIPKNS_16MatcherInterfaceIS9_EELb1EEEEEPKNSA_6VTableEv = comdat any

$_ZN7testing8internal11MatcherBaseIRKNSt7__cxx1112basic_stringIcSt11char_traitsIcESaIcEEEE11ValuePolicyIPKNS_16MatcherInterfaceIS9_EELb1EE4InitERSA_SF_ = comdat any

$_ZN7testing8internal11MatcherBaseIRKNSt7__cxx1112basic_stringIcSt11char_traitsIcESaIcEEEE19MatchAndExplainImplINSA_11ValuePolicyIPKNS_16MatcherInterfaceIS9_EELb1EEEEEDTcldtclsrT_3Getfp_E15MatchAndExplainfp0_fp1_EERKSA_S9_PNS_19MatchResultListenerE = comdat any

$_ZN7testing8internal11MatcherBaseIRKNSt7__cxx1112basic_stringIcSt11char_traitsIcESaIcEEEE12DescribeImplINSA_11ValuePolicyIPKNS_16MatcherInterfaceIS9_EELb1EEEEEvRKSA_PSob = comdat any

$_ZN7testing8internal11MatcherBaseIRKNSt7__cxx1112basic_stringIcSt11char_traitsIcESaIcEEEE16GetDescriberImplINSA_11ValuePolicyIPKNS_16MatcherInterfaceIS9_EELb1EEEEEPKNS_25MatcherDescriberInterfaceERKSA_ = comdat any

$_ZN7testing8internal13SharedPayloadISt10unique_ptrIKNS_16MatcherInterfaceIRKNSt7__cxx1112basic_stringIcSt11char_traitsIcESaIcEEEEESt14default_deleteISD_EEE7DestroyEPNS0_17SharedPayloadBaseE = comdat any

$_ZN7testing8internal11MatcherBaseIRKNSt7__cxx1112basic_stringIcSt11char_traitsIcESaIcEEEE11ValuePolicyIPKNS_16MatcherInterfaceIS9_EELb1EE3GetERKSA_ = comdat any

$_ZNKSt10unique_ptrIKN7testing16MatcherInterfaceIRKNSt7__cxx1112basic_stringIcSt11char_traitsIcESaIcEEEEESt14default_deleteISB_EEdeEv = comdat any

$_ZNKSt10unique_ptrIKN7testing16MatcherInterfaceIRKNSt7__cxx1112basic_stringIcSt11char_traitsIcESaIcEEEEESt14default_deleteISB_EE3getEv = comdat any

$_ZNKSt15__uniq_ptr_implIKN7testing16MatcherInterfaceIRKNSt7__cxx1112basic_stringIcSt11char_traitsIcESaIcEEEEESt14default_deleteISB_EE6_M_ptrEv = comdat any

$_ZSt3getILm0EJPKN7testing16MatcherInterfaceIRKNSt7__cxx1112basic_stringIcSt11char_traitsIcESaIcEEEEESt14default_deleteISB_EEERKNSt13tuple_elementIXT_ESt5tupleIJDpT0_EEE4typeERKSJ_ = comdat any

$_ZSt12__get_helperILm0EPKN7testing16MatcherInterfaceIRKNSt7__cxx1112basic_stringIcSt11char_traitsIcESaIcEEEEEJSt14default_deleteISB_EEERKT0_RKSt11_Tuple_implIXT_EJSF_DpT1_EE = comdat any

$_ZNSt11_Tuple_implILm0EJPKN7testing16MatcherInterfaceIRKNSt7__cxx1112basic_stringIcSt11char_traitsIcESaIcEEEEESt14default_deleteISB_EEE7_M_headERKSF_ = comdat any

$_ZNSt10_Head_baseILm0EPKN7testing16MatcherInterfaceIRKNSt7__cxx1112basic_stringIcSt11char_traitsIcESaIcEEEEELb0EE7_M_headERKSD_ = comdat any

$_ZSt3getILm1EJPKN7testing8internal11MatcherBaseIRKNSt7__cxx1112basic_stringIcSt11char_traitsIcESaIcEEEEEPKNS0_16MatcherInterfaceISA_EEEEONSt13tuple_elementIXT_ESt5tupleIJDpT0_EEE4typeEOSM_ = comdat any

$_ZSt10make_tupleIJPKN7testing8internal11MatcherBaseIRKNSt7__cxx1112basic_stringIcSt11char_traitsIcESaIcEEEEEPKNS0_16MatcherInterfaceISA_EEEESt5tupleIJDpNSt25__strip_reference_wrapperINSt5decayIT_E4typeEE6__typeEEEDpOSL_ = comdat any

$_ZSt12__get_helperILm1EPKN7testing16MatcherInterfaceIRKNSt7__cxx1112basic_stringIcSt11char_traitsIcESaIcEEEEEJEERT0_RSt11_Tuple_implIXT_EJSD_DpT1_EE = comdat any

$_ZNSt11_Tuple_implILm1EJPKN7testing16MatcherInterfaceIRKNSt7__cxx1112basic_stringIcSt11char_traitsIcESaIcEEEEEEE7_M_headERSD_ = comdat any

$_ZNSt10_Head_baseILm1EPKN7testing16MatcherInterfaceIRKNSt7__cxx1112basic_stringIcSt11char_traitsIcESaIcEEEEELb0EE7_M_headERSD_ = comdat any

$_ZNSt5tupleIJPKN7testing8internal11MatcherBaseIRKNSt7__cxx1112basic_stringIcSt11char_traitsIcESaIcEEEEEPKNS0_16MatcherInterfaceISA_EEEEC2ISD_SH_TnNSt9enable_ifIXclsr4_TCCIXntcl14__is_alloc_argIT_EEEEE29__is_implicitly_constructibleISL_T0_EEEbE4typeELb1EEEOSL_OSM_ = comdat any

$_ZNSt11_Tuple_implILm0EJPKN7testing8internal11MatcherBaseIRKNSt7__cxx1112basic_stringIcSt11char_traitsIcESaIcEEEEEPKNS0_16MatcherInterfaceISA_EEEEC2ISD_JSH_EvEEOT_DpOT0_ = comdat any

$_ZNSt11_Tuple_implILm1EJPKN7testing16MatcherInterfaceIRKNSt7__cxx1112basic_stringIcSt11char_traitsIcESaIcEEEEEEEC2ISC_EEOT_ = comdat any

$_ZNSt10_Head_baseILm0EPKN7testing8internal11MatcherBaseIRKNSt7__cxx1112basic_stringIcSt11char_traitsIcESaIcEEEEELb0EEC2ISD_EEOT_ = comdat any

$_ZNSt10_Head_baseILm1EPKN7testing16MatcherInterfaceIRKNSt7__cxx1112basic_stringIcSt11char_traitsIcESaIcEEEEELb0EEC2ISC_EEOT_ = comdat any

$_ZN7testing8internal13SharedPayloadISt10unique_ptrIKNS_16MatcherInterfaceIRKNSt7__cxx1112basic_stringIcSt11char_traitsIcESaIcEEEEESt14default_deleteISD_EEED2Ev = comdat any

$_ZNSt10unique_ptrIKN7testing16MatcherInterfaceIRKNSt7__cxx1112basic_stringIcSt11char_traitsIcESaIcEEEEESt14default_deleteISB_EED2Ev = comdat any

$_ZNSt15__uniq_ptr_implIKN7testing16MatcherInterfaceIRKNSt7__cxx1112basic_stringIcSt11char_traitsIcESaIcEEEEESt14default_deleteISB_EE6_M_ptrEv = comdat any

$_ZNSt10unique_ptrIKN7testing16MatcherInterfaceIRKNSt7__cxx1112basic_stringIcSt11char_traitsIcESaIcEEEEESt14default_deleteISB_EE11get_deleterEv = comdat any

$_ZNKSt14default_deleteIKN7testing16MatcherInterfaceIRKNSt7__cxx1112basic_stringIcSt11char_traitsIcESaIcEEEEEEclEPSB_ = comdat any

$_ZSt3getILm0EJPKN7testing16MatcherInterfaceIRKNSt7__cxx1112basic_stringIcSt11char_traitsIcESaIcEEEEESt14default_deleteISB_EEERNSt13tuple_elementIXT_ESt5tupleIJDpT0_EEE4typeERSJ_ = comdat any

$_ZSt12__get_helperILm0EPKN7testing16MatcherInterfaceIRKNSt7__cxx1112basic_stringIcSt11char_traitsIcESaIcEEEEEJSt14default_deleteISB_EEERT0_RSt11_Tuple_implIXT_EJSF_DpT1_EE = comdat any

$_ZNSt11_Tuple_implILm0EJPKN7testing16MatcherInterfaceIRKNSt7__cxx1112basic_stringIcSt11char_traitsIcESaIcEEEEESt14default_deleteISB_EEE7_M_headERSF_ = comdat any

$_ZNSt10_Head_baseILm0EPKN7testing16MatcherInterfaceIRKNSt7__cxx1112basic_stringIcSt11char_traitsIcESaIcEEEEELb0EE7_M_headERSD_ = comdat any

$_ZNSt15__uniq_ptr_implIKN7testing16MatcherInterfaceIRKNSt7__cxx1112basic_stringIcSt11char_traitsIcESaIcEEEEESt14default_deleteISB_EE10_M_deleterEv = comdat any

$_ZSt3getILm1EJPKN7testing16MatcherInterfaceIRKNSt7__cxx1112basic_stringIcSt11char_traitsIcESaIcEEEEESt14default_deleteISB_EEERNSt13tuple_elementIXT_ESt5tupleIJDpT0_EEE4typeERSJ_ = comdat any

$_ZSt12__get_helperILm1ESt14default_deleteIKN7testing16MatcherInterfaceIRKNSt7__cxx1112basic_stringIcSt11char_traitsIcESaIcEEEEEEJEERT0_RSt11_Tuple_implIXT_EJSE_DpT1_EE = comdat any

$_ZNSt11_Tuple_implILm1EJSt14default_deleteIKN7testing16MatcherInterfaceIRKNSt7__cxx1112basic_stringIcSt11char_traitsIcESaIcEEEEEEEE7_M_headERSE_ = comdat any

$_ZNSt10_Head_baseILm1ESt14default_deleteIKN7testing16MatcherInterfaceIRKNSt7__cxx1112basic_stringIcSt11char_traitsIcESaIcEEEEEELb1EE7_M_headERSE_ = comdat any

$_ZNSt10unique_ptrIKN7testing16MatcherInterfaceIRKNSt7__cxx1112basic_stringIcSt11char_traitsIcESaIcEEEEESt14default_deleteISB_EEC2ISD_vEEPSB_ = comdat any

$_ZN7testing8internal13SharedPayloadISt10unique_ptrIKNS_16MatcherInterfaceIRKNSt7__cxx1112basic_stringIcSt11char_traitsIcESaIcEEEEESt14default_deleteISD_EEEC2EOSG_ = comdat any

$_ZNSt15__uniq_ptr_dataIKN7testing16MatcherInterfaceIRKNSt7__cxx1112basic_stringIcSt11char_traitsIcESaIcEEEEESt14default_deleteISB_ELb1ELb1EECI2St15__uniq_ptr_implISB_SD_EEPSB_ = comdat any

$_ZNSt15__uniq_ptr_implIKN7testing16MatcherInterfaceIRKNSt7__cxx1112basic_stringIcSt11char_traitsIcESaIcEEEEESt14default_deleteISB_EEC2EPSB_ = comdat any

$_ZNSt5tupleIJPKN7testing16MatcherInterfaceIRKNSt7__cxx1112basic_stringIcSt11char_traitsIcESaIcEEEEESt14default_deleteISB_EEEC2ILb1ETnNSt9enable_ifIXclsr17_TupleConstraintsIXT_ESC_SE_EE37__is_implicitly_default_constructibleEEbE4typeELb1EEEv = comdat any

$_ZNSt11_Tuple_implILm0EJPKN7testing16MatcherInterfaceIRKNSt7__cxx1112basic_stringIcSt11char_traitsIcESaIcEEEEESt14default_deleteISB_EEEC2Ev = comdat any

$_ZNSt11_Tuple_implILm1EJSt14default_deleteIKN7testing16MatcherInterfaceIRKNSt7__cxx1112basic_stringIcSt11char_traitsIcESaIcEEEEEEEEC2Ev = comdat any

$_ZNSt10_Head_baseILm0EPKN7testing16MatcherInterfaceIRKNSt7__cxx1112basic_stringIcSt11char_traitsIcESaIcEEEEELb0EEC2Ev = comdat any

$_ZNSt10_Head_baseILm1ESt14default_deleteIKN7testing16MatcherInterfaceIRKNSt7__cxx1112basic_stringIcSt11char_traitsIcESaIcEEEEEELb1EEC2Ev = comdat any

$_ZN7testing8internal17SharedPayloadBaseC2Ev = comdat any

$_ZNSt10unique_ptrIKN7testing16MatcherInterfaceIRKNSt7__cxx1112basic_stringIcSt11char_traitsIcESaIcEEEEESt14default_deleteISB_EEC2EOSE_ = comdat any

$_ZNSt6atomicIiEC2Ei = comdat any

$_ZNSt13__atomic_baseIiEC2Ei = comdat any

$_ZNSt15__uniq_ptr_dataIKN7testing16MatcherInterfaceIRKNSt7__cxx1112basic_stringIcSt11char_traitsIcESaIcEEEEESt14default_deleteISB_ELb1ELb1EEC2EOSE_ = comdat any

$_ZNSt15__uniq_ptr_implIKN7testing16MatcherInterfaceIRKNSt7__cxx1112basic_stringIcSt11char_traitsIcESaIcEEEEESt14default_deleteISB_EEC2EOSE_ = comdat any

$_ZNSt5tupleIJPKN7testing16MatcherInterfaceIRKNSt7__cxx1112basic_stringIcSt11char_traitsIcESaIcEEEEESt14default_deleteISB_EEEC2EOSF_ = comdat any

$_ZNSt11_Tuple_implILm0EJPKN7testing16MatcherInterfaceIRKNSt7__cxx1112basic_stringIcSt11char_traitsIcESaIcEEEEESt14default_deleteISB_EEEC2EOSF_ = comdat any

$_ZNSt11_Tuple_implILm1EJSt14default_deleteIKN7testing16MatcherInterfaceIRKNSt7__cxx1112basic_stringIcSt11char_traitsIcESaIcEEEEEEEEC2EOSE_ = comdat any

$_ZN7testing8internal11MatcherBaseIRKNSt7__cxx1112basic_stringIcSt11char_traitsIcESaIcEEEE7DestroyEv = comdat any

$_ZNK7testing8internal11MatcherBaseIRKNSt7__cxx1112basic_stringIcSt11char_traitsIcESaIcEEEE8IsSharedEv = comdat any

$_ZN7testing8internal17SharedPayloadBase5UnrefEv = comdat any

$_ZN7testing8internal8GTestLog9GetStreamEv = comdat any

$_ZNK3gsl8not_nullIPiEcvS1_Ev = comdat any

$_ZNK3gsl8not_nullIPKiEcvS2_Ev = comdat any

$_ZNK3gsl8not_nullIPKiE3getEv = comdat any

$_ZN7testing8internal15TestFactoryImplI37notnull_tests_TestNotNullostream_TestED2Ev = comdat any

$_ZN7testing8internal15TestFactoryImplI37notnull_tests_TestNotNullostream_TestED0Ev = comdat any

$_ZN7testing8internal15TestFactoryImplI37notnull_tests_TestNotNullostream_TestE10CreateTestEv = comdat any

$_ZN37notnull_tests_TestNotNullostream_TestC2Ev = comdat any

$_ZN7testing8internal15TestFactoryImplI37notnull_tests_TestNotNullCasting_TestED2Ev = comdat any

$_ZN7testing8internal15TestFactoryImplI37notnull_tests_TestNotNullCasting_TestED0Ev = comdat any

$_ZN7testing8internal15TestFactoryImplI37notnull_tests_TestNotNullCasting_TestE10CreateTestEv = comdat any

$_ZN37notnull_tests_TestNotNullCasting_TestC2Ev = comdat any

$_ZNK3gsl8not_nullIP9MyDerivedEcvS2_Ev = comdat any

$_ZN7testing8internal15TestFactoryImplI40notnull_tests_TestNotNullAssignment_TestED2Ev = comdat any

$_ZN7testing8internal15TestFactoryImplI40notnull_tests_TestNotNullAssignment_TestED0Ev = comdat any

$_ZN7testing8internal15TestFactoryImplI40notnull_tests_TestNotNullAssignment_TestE10CreateTestEv = comdat any

$_ZN40notnull_tests_TestNotNullAssignment_TestC2Ev = comdat any

$_ZN7testing8internal15TestFactoryImplI50notnull_tests_TestNotNullRawPointerComparison_TestED2Ev = comdat any

$_ZN7testing8internal15TestFactoryImplI50notnull_tests_TestNotNullRawPointerComparison_TestED0Ev = comdat any

$_ZN7testing8internal15TestFactoryImplI50notnull_tests_TestNotNullRawPointerComparison_TestE10CreateTestEv = comdat any

$_ZN50notnull_tests_TestNotNullRawPointerComparison_TestC2Ev = comdat any

$_ZN7testing8internal15TestFactoryImplI49notnull_tests_TestNotNullDereferenceOperator_TestED2Ev = comdat any

$_ZN7testing8internal15TestFactoryImplI49notnull_tests_TestNotNullDereferenceOperator_TestED0Ev = comdat any

$_ZN7testing8internal15TestFactoryImplI49notnull_tests_TestNotNullDereferenceOperator_TestE10CreateTestEv = comdat any

$_ZN49notnull_tests_TestNotNullDereferenceOperator_TestC2Ev = comdat any

$_ZNKSt9type_info4nameEv = comdat any

$_ZNSt12__shared_ptrI21NonCopyableNonMovableLN9__gnu_cxx12_Lock_policyE2EEC2ERKS3_ = comdat any

$_ZNSt10shared_ptrI21NonCopyableNonMovableEC2EOS1_ = comdat any

$_ZStneI21NonCopyableNonMovableEbRKSt10shared_ptrIT_EDn = comdat any

$_ZNSt12__shared_ptrI21NonCopyableNonMovableLN9__gnu_cxx12_Lock_policyE2EEC2EOS3_ = comdat any

$_ZNKSt12__shared_ptrI21NonCopyableNonMovableLN9__gnu_cxx12_Lock_policyE2EEcvbEv = comdat any

$_ZNK3gsl8not_nullISt10shared_ptrI21NonCopyableNonMovableEE3getEv = comdat any

$_ZNSt12__shared_ptrI21NonCopyableNonMovableLN9__gnu_cxx12_Lock_policyE2EED2Ev = comdat any

$_ZNK9CustomPtrIiEneEDn = comdat any

$_ZNK3gsl8not_nullI9CustomPtrIiEE3getEv = comdat any

$_ZNK9CustomPtrIiEcvPiEv = comdat any

$_ZN7testing8internal15TestFactoryImplI49notnull_tests_TestNotNullSharedPtrComparison_TestED2Ev = comdat any

$_ZN7testing8internal15TestFactoryImplI49notnull_tests_TestNotNullSharedPtrComparison_TestED0Ev = comdat any

$_ZN7testing8internal15TestFactoryImplI49notnull_tests_TestNotNullSharedPtrComparison_TestE10CreateTestEv = comdat any

$_ZN49notnull_tests_TestNotNullSharedPtrComparison_TestC2Ev = comdat any

$_ZNSt12__shared_ptrIiLN9__gnu_cxx12_Lock_policyE2EEC2ERKS2_ = comdat any

$_ZNSt12__shared_ptrIKiLN9__gnu_cxx12_Lock_policyE2EEC2ERKS3_ = comdat any

$_ZNSt10shared_ptrIKiEC2EOS1_ = comdat any

$_ZStneIKiEbRKSt10shared_ptrIT_EDn = comdat any

$_ZNSt12__shared_ptrIKiLN9__gnu_cxx12_Lock_policyE2EEC2EOS3_ = comdat any

$_ZNKSt12__shared_ptrIKiLN9__gnu_cxx12_Lock_policyE2EEcvbEv = comdat any

$_ZNSt12__shared_ptrIKiLN9__gnu_cxx12_Lock_policyE2EED2Ev = comdat any

$_ZN7testing8internal15TestFactoryImplI49notnull_tests_TestNotNullCustomPtrComparison_TestED2Ev = comdat any

$_ZN7testing8internal15TestFactoryImplI49notnull_tests_TestNotNullCustomPtrComparison_TestED0Ev = comdat any

$_ZN7testing8internal15TestFactoryImplI49notnull_tests_TestNotNullCustomPtrComparison_TestE10CreateTestEv = comdat any

$_ZN49notnull_tests_TestNotNullCustomPtrComparison_TestC2Ev = comdat any

$_ZNK9CustomPtrIKiEneEDn = comdat any

$_ZN7testing8internal15TestFactoryImplI34notnull_tests_TestMakeNotNull_TestED2Ev = comdat any

$_ZN7testing8internal15TestFactoryImplI34notnull_tests_TestMakeNotNull_TestED0Ev = comdat any

$_ZN7testing8internal15TestFactoryImplI34notnull_tests_TestMakeNotNull_TestE10CreateTestEv = comdat any

$_ZN34notnull_tests_TestMakeNotNull_TestC2Ev = comdat any

$_ZN7testing8internal15TestFactoryImplI30notnull_tests_TestStdHash_TestED2Ev = comdat any

$_ZN7testing8internal15TestFactoryImplI30notnull_tests_TestStdHash_TestED0Ev = comdat any

$_ZN7testing8internal15TestFactoryImplI30notnull_tests_TestStdHash_TestE10CreateTestEv = comdat any

$_ZN30notnull_tests_TestStdHash_TestC2Ev = comdat any

$_ZN7testing8internal19GetNotDefaultOrNullEPFvvES2_ = comdat any

$_ZN7testing4Test13SetUpTestCaseEv = comdat any

$_ZN7testing4Test14SetUpTestSuiteEv = comdat any

$_ZN7testing4Test16TearDownTestCaseEv = comdat any

$_ZN7testing4Test17TearDownTestSuiteEv = comdat any

$_ZNSt10unique_ptrINSt7__cxx1112basic_stringIcSt11char_traitsIcESaIcEEESt14default_deleteIS5_EEC2IS7_vEEv = comdat any

$_ZNSt15__uniq_ptr_dataINSt7__cxx1112basic_stringIcSt11char_traitsIcESaIcEEESt14default_deleteIS5_ELb1ELb1EEC2Ev = comdat any

$_ZNSt15__uniq_ptr_implINSt7__cxx1112basic_stringIcSt11char_traitsIcESaIcEEESt14default_deleteIS5_EEC2Ev = comdat any

$_ZNSt5tupleIJPNSt7__cxx1112basic_stringIcSt11char_traitsIcESaIcEEESt14default_deleteIS5_EEEC2ILb1ETnNSt9enable_ifIXclsr17_TupleConstraintsIXT_ES6_S8_EE37__is_implicitly_default_constructibleEEbE4typeELb1EEEv = comdat any

$_ZNSt11_Tuple_implILm0EJPNSt7__cxx1112basic_stringIcSt11char_traitsIcESaIcEEESt14default_deleteIS5_EEEC2Ev = comdat any

$_ZNSt11_Tuple_implILm1EJSt14default_deleteINSt7__cxx1112basic_stringIcSt11char_traitsIcESaIcEEEEEEC2Ev = comdat any

$_ZNSt10_Head_baseILm0EPNSt7__cxx1112basic_stringIcSt11char_traitsIcESaIcEEELb0EEC2Ev = comdat any

$_ZNSt10_Head_baseILm1ESt14default_deleteINSt7__cxx1112basic_stringIcSt11char_traitsIcESaIcEEEELb1EEC2Ev = comdat any

$_ZNSt10shared_ptrIiEC2ISaIvEJiEEESt20_Sp_alloc_shared_tagIT_EDpOT0_ = comdat any

$_ZNSt12__shared_ptrIiLN9__gnu_cxx12_Lock_policyE2EEC2ISaIvEJiEEESt20_Sp_alloc_shared_tagIT_EDpOT0_ = comdat any

$_ZNSt14__shared_countILN9__gnu_cxx12_Lock_policyE2EEC2IiSaIvEJiEEERPT_St20_Sp_alloc_shared_tagIT0_EDpOT1_ = comdat any

$_ZNSt12__shared_ptrIiLN9__gnu_cxx12_Lock_policyE2EE31_M_enable_shared_from_this_withIiiEENSt9enable_ifIXntsr15__has_esft_baseIT0_EE5valueEvE4typeEPT_ = comdat any

$_ZNSaISt23_Sp_counted_ptr_inplaceIiSaIvELN9__gnu_cxx12_Lock_policyE2EEEC2IvEERKSaIT_E = comdat any

$_ZSt18__allocate_guardedISaISt23_Sp_counted_ptr_inplaceIiSaIvELN9__gnu_cxx12_Lock_policyE2EEEESt15__allocated_ptrIT_ERS7_ = comdat any

$_ZNSt15__allocated_ptrISaISt23_Sp_counted_ptr_inplaceIiSaIvELN9__gnu_cxx12_Lock_policyE2EEEE3getEv = comdat any

$_ZNSt23_Sp_counted_ptr_inplaceIiSaIvELN9__gnu_cxx12_Lock_policyE2EEC2IJiEEES0_DpOT_ = comdat any

$_ZNSt15__allocated_ptrISaISt23_Sp_counted_ptr_inplaceIiSaIvELN9__gnu_cxx12_Lock_policyE2EEEEaSEDn = comdat any

$_ZNSt23_Sp_counted_ptr_inplaceIiSaIvELN9__gnu_cxx12_Lock_policyE2EE6_M_ptrEv = comdat any

$_ZNSt15__allocated_ptrISaISt23_Sp_counted_ptr_inplaceIiSaIvELN9__gnu_cxx12_Lock_policyE2EEEED2Ev = comdat any

$_ZNSaISt23_Sp_counted_ptr_inplaceIiSaIvELN9__gnu_cxx12_Lock_policyE2EEED2Ev = comdat any

$_ZNSt15__new_allocatorISt23_Sp_counted_ptr_inplaceIiSaIvELN9__gnu_cxx12_Lock_policyE2EEEC2Ev = comdat any

$_ZNSt16allocator_traitsISaISt23_Sp_counted_ptr_inplaceIiSaIvELN9__gnu_cxx12_Lock_policyE2EEEE8allocateERS5_m = comdat any

$_ZNSt15__allocated_ptrISaISt23_Sp_counted_ptr_inplaceIiSaIvELN9__gnu_cxx12_Lock_policyE2EEEEC2ERS5_PS4_ = comdat any

$_ZNSt15__new_allocatorISt23_Sp_counted_ptr_inplaceIiSaIvELN9__gnu_cxx12_Lock_policyE2EEE8allocateEmPKv = comdat any

$_ZNKSt15__new_allocatorISt23_Sp_counted_ptr_inplaceIiSaIvELN9__gnu_cxx12_Lock_policyE2EEE11_M_max_sizeEv = comdat any

$_ZSt12__to_addressISt23_Sp_counted_ptr_inplaceIiSaIvELN9__gnu_cxx12_Lock_policyE2EEEPT_S6_ = comdat any

$_ZNSt23_Sp_counted_ptr_inplaceIiSaIvELN9__gnu_cxx12_Lock_policyE2EE5_ImplC2ES0_ = comdat any

$_ZNSt16allocator_traitsISaIvEE9constructIiJiEEEvRS0_PT_DpOT0_ = comdat any

$_ZNSt23_Sp_counted_ptr_inplaceIiSaIvELN9__gnu_cxx12_Lock_policyE2EED2Ev = comdat any

$_ZNSt23_Sp_counted_ptr_inplaceIiSaIvELN9__gnu_cxx12_Lock_policyE2EED0Ev = comdat any

$_ZNSt23_Sp_counted_ptr_inplaceIiSaIvELN9__gnu_cxx12_Lock_policyE2EE10_M_disposeEv = comdat any

$_ZNSt23_Sp_counted_ptr_inplaceIiSaIvELN9__gnu_cxx12_Lock_policyE2EE10_M_destroyEv = comdat any

$_ZNSt23_Sp_counted_ptr_inplaceIiSaIvELN9__gnu_cxx12_Lock_policyE2EE14_M_get_deleterERKSt9type_info = comdat any

$_ZNSt14_Sp_ebo_helperILi0ESaIvELb1EEC2ERKS0_ = comdat any

$_ZSt10_ConstructIiJiEEvPT_DpOT0_ = comdat any

$_ZNSt16allocator_traitsISaIvEE7destroyIiEEvRS0_PT_ = comdat any

$_ZNSt23_Sp_counted_ptr_inplaceIiSaIvELN9__gnu_cxx12_Lock_policyE2EE5_Impl8_M_allocEv = comdat any

$_ZSt8_DestroyIiEvPT_ = comdat any

$_ZNSt14_Sp_ebo_helperILi0ESaIvELb1EE6_S_getERS1_ = comdat any

$_ZNSt19_Sp_make_shared_tag5_S_tiEv = comdat any

$_ZN9__gnu_cxx16__aligned_bufferIiE6_M_ptrEv = comdat any

$_ZN9__gnu_cxx16__aligned_bufferIiE7_M_addrEv = comdat any

$_ZNSt16allocator_traitsISaISt23_Sp_counted_ptr_inplaceIiSaIvELN9__gnu_cxx12_Lock_policyE2EEEE10deallocateERS5_PS4_m = comdat any

$_ZNSt15__new_allocatorISt23_Sp_counted_ptr_inplaceIiSaIvELN9__gnu_cxx12_Lock_policyE2EEE10deallocateEPS4_m = comdat any

$_ZNSt15__new_allocatorISt23_Sp_counted_ptr_inplaceIiSaIvELN9__gnu_cxx12_Lock_policyE2EEED2Ev = comdat any

$_ZNSt15__uniq_ptr_dataIN7testing8internal9DeathTestESt14default_deleteIS2_ELb1ELb1EECI2St15__uniq_ptr_implIS2_S4_EEPS2_ = comdat any

$_ZNSt15__uniq_ptr_implIN7testing8internal9DeathTestESt14default_deleteIS2_EEC2EPS2_ = comdat any

$_ZNSt5tupleIJPN7testing8internal9DeathTestESt14default_deleteIS2_EEEC2ILb1ETnNSt9enable_ifIXclsr17_TupleConstraintsIXT_ES3_S5_EE37__is_implicitly_default_constructibleEEbE4typeELb1EEEv = comdat any

$_ZNSt15__uniq_ptr_implIN7testing8internal9DeathTestESt14default_deleteIS2_EE6_M_ptrEv = comdat any

$_ZNSt11_Tuple_implILm0EJPN7testing8internal9DeathTestESt14default_deleteIS2_EEEC2Ev = comdat any

$_ZNSt11_Tuple_implILm1EJSt14default_deleteIN7testing8internal9DeathTestEEEEC2Ev = comdat any

$_ZNSt10_Head_baseILm0EPN7testing8internal9DeathTestELb0EEC2Ev = comdat any

$_ZNSt10_Head_baseILm1ESt14default_deleteIN7testing8internal9DeathTestEELb1EEC2Ev = comdat any

$_ZSt3getILm0EJPN7testing8internal9DeathTestESt14default_deleteIS2_EEERNSt13tuple_elementIXT_ESt5tupleIJDpT0_EEE4typeERSA_ = comdat any

$_ZSt12__get_helperILm0EPN7testing8internal9DeathTestEJSt14default_deleteIS2_EEERT0_RSt11_Tuple_implIXT_EJS6_DpT1_EE = comdat any

$_ZNSt11_Tuple_implILm0EJPN7testing8internal9DeathTestESt14default_deleteIS2_EEE7_M_headERS6_ = comdat any

$_ZNSt10_Head_baseILm0EPN7testing8internal9DeathTestELb0EE7_M_headERS4_ = comdat any

$_ZNSt10unique_ptrIN7testing8internal9DeathTestESt14default_deleteIS2_EE11get_deleterEv = comdat any

$_ZNKSt14default_deleteIN7testing8internal9DeathTestEEclEPS2_ = comdat any

$_ZNSt15__uniq_ptr_implIN7testing8internal9DeathTestESt14default_deleteIS2_EE10_M_deleterEv = comdat any

$_ZSt3getILm1EJPN7testing8internal9DeathTestESt14default_deleteIS2_EEERNSt13tuple_elementIXT_ESt5tupleIJDpT0_EEE4typeERSA_ = comdat any

$_ZSt12__get_helperILm1ESt14default_deleteIN7testing8internal9DeathTestEEJEERT0_RSt11_Tuple_implIXT_EJS5_DpT1_EE = comdat any

$_ZNSt11_Tuple_implILm1EJSt14default_deleteIN7testing8internal9DeathTestEEEE7_M_headERS5_ = comdat any

$_ZNSt10_Head_baseILm1ESt14default_deleteIN7testing8internal9DeathTestEELb1EE7_M_headERS5_ = comdat any

$_ZN3gsl8not_nullIPfEC2IvEES1_ = comdat any

$_ZNK3gsl8not_nullIPfEcvS1_Ev = comdat any

$_ZNK3gsl8not_nullIPfEdeEv = comdat any

$_ZNK3gsl8not_nullIPfE3getEv = comdat any

$_ZN3gsl8not_nullIPdEC2IvEES1_ = comdat any

$_ZNK3gsl8not_nullIPdEcvS1_Ev = comdat any

$_ZNK3gsl8not_nullIPdEdeEv = comdat any

$_ZNK3gsl8not_nullIPdE3getEv = comdat any

$_ZN3gsl8not_nullIPcEC2IvEES1_ = comdat any

$_ZNK3gsl8not_nullIPcEcvS1_Ev = comdat any

$_ZNK3gsl8not_nullIPcEdeEv = comdat any

$_ZNK3gsl8not_nullIPcE3getEv = comdat any

$_ZN3gsl8not_nullIPtEC2IvEES1_ = comdat any

$_ZNK3gsl8not_nullIPtEcvS1_Ev = comdat any

$_ZNK3gsl8not_nullIPtEdeEv = comdat any

$_ZNK3gsl8not_nullIPtE3getEv = comdat any

$_ZN3gsl8not_nullIPPKcEC2IvEES3_ = comdat any

$_ZNK3gsl8not_nullIPPKcEcvS3_Ev = comdat any

$_ZNK3gsl8not_nullIPPKcEdeEv = comdat any

$_ZNK3gsl8not_nullIPPKcE3getEv = comdat any

$_ZN3gsl8not_nullIPNSt7__cxx1112basic_stringIcSt11char_traitsIcESaIcEEEEC2IvEES7_ = comdat any

$_ZNK3gsl8not_nullIPNSt7__cxx1112basic_stringIcSt11char_traitsIcESaIcEEEEcvS7_Ev = comdat any

$_ZNK3gsl8not_nullIPNSt7__cxx1112basic_stringIcSt11char_traitsIcESaIcEEEEdeEv = comdat any

$_ZNK3gsl8not_nullIPNSt7__cxx1112basic_stringIcSt11char_traitsIcESaIcEEEE3getEv = comdat any

$_ZNK3gsl8not_nullIP6MyBaseE3getEv = comdat any

$_ZNKSt4lessIvEclIiiEEbPT_PT0_ = comdat any

$_ZNKSt4lessIPiEclES0_S0_ = comdat any

$_ZNKSt4lessIvEclIiKiEEbPT_PT0_ = comdat any

$_ZNKSt4lessIPKiEclES1_S1_ = comdat any

$_ZNKSt4lessIvEclIKiiEEbPT_PT0_ = comdat any

$_ZNKSt7greaterIvEclIiiEEbPT_PT0_ = comdat any

$_ZNKSt7greaterIPiEclES0_S0_ = comdat any

$_ZNKSt7greaterIvEclIiKiEEbPT_PT0_ = comdat any

$_ZNKSt7greaterIPKiEclES1_S1_ = comdat any

$_ZNKSt7greaterIvEclIKiiEEbPT_PT0_ = comdat any

$_ZNKSt10less_equalIvEclIiiEEbPT_PT0_ = comdat any

$_ZNKSt10less_equalIPiEclES0_S0_ = comdat any

$_ZNKSt10less_equalIvEclIiKiEEbPT_PT0_ = comdat any

$_ZNKSt10less_equalIPKiEclES1_S1_ = comdat any

$_ZNKSt10less_equalIvEclIKiiEEbPT_PT0_ = comdat any

$_ZNSt10shared_ptrI21NonCopyableNonMovableEC2ISaIvEJEEESt20_Sp_alloc_shared_tagIT_EDpOT0_ = comdat any

$_ZNSt12__shared_ptrI21NonCopyableNonMovableLN9__gnu_cxx12_Lock_policyE2EEC2ISaIvEJEEESt20_Sp_alloc_shared_tagIT_EDpOT0_ = comdat any

$_ZNSt14__shared_countILN9__gnu_cxx12_Lock_policyE2EEC2I21NonCopyableNonMovableSaIvEJEEERPT_St20_Sp_alloc_shared_tagIT0_EDpOT1_ = comdat any

$_ZNSt12__shared_ptrI21NonCopyableNonMovableLN9__gnu_cxx12_Lock_policyE2EE31_M_enable_shared_from_this_withIS0_S0_EENSt9enable_ifIXntsr15__has_esft_baseIT0_EE5valueEvE4typeEPT_ = comdat any

$_ZNSaISt23_Sp_counted_ptr_inplaceI21NonCopyableNonMovableSaIvELN9__gnu_cxx12_Lock_policyE2EEEC2IvEERKSaIT_E = comdat any

$_ZSt18__allocate_guardedISaISt23_Sp_counted_ptr_inplaceI21NonCopyableNonMovableSaIvELN9__gnu_cxx12_Lock_policyE2EEEESt15__allocated_ptrIT_ERS8_ = comdat any

$_ZNSt15__allocated_ptrISaISt23_Sp_counted_ptr_inplaceI21NonCopyableNonMovableSaIvELN9__gnu_cxx12_Lock_policyE2EEEE3getEv = comdat any

$_ZNSt23_Sp_counted_ptr_inplaceI21NonCopyableNonMovableSaIvELN9__gnu_cxx12_Lock_policyE2EEC2IJEEES1_DpOT_ = comdat any

$_ZNSt15__allocated_ptrISaISt23_Sp_counted_ptr_inplaceI21NonCopyableNonMovableSaIvELN9__gnu_cxx12_Lock_policyE2EEEEaSEDn = comdat any

$_ZNSt23_Sp_counted_ptr_inplaceI21NonCopyableNonMovableSaIvELN9__gnu_cxx12_Lock_policyE2EE6_M_ptrEv = comdat any

$_ZNSt15__allocated_ptrISaISt23_Sp_counted_ptr_inplaceI21NonCopyableNonMovableSaIvELN9__gnu_cxx12_Lock_policyE2EEEED2Ev = comdat any

$_ZNSaISt23_Sp_counted_ptr_inplaceI21NonCopyableNonMovableSaIvELN9__gnu_cxx12_Lock_policyE2EEED2Ev = comdat any

$_ZNSt15__new_allocatorISt23_Sp_counted_ptr_inplaceI21NonCopyableNonMovableSaIvELN9__gnu_cxx12_Lock_policyE2EEEC2Ev = comdat any

$_ZNSt16allocator_traitsISaISt23_Sp_counted_ptr_inplaceI21NonCopyableNonMovableSaIvELN9__gnu_cxx12_Lock_policyE2EEEE8allocateERS6_m = comdat any

$_ZNSt15__allocated_ptrISaISt23_Sp_counted_ptr_inplaceI21NonCopyableNonMovableSaIvELN9__gnu_cxx12_Lock_policyE2EEEEC2ERS6_PS5_ = comdat any

$_ZNSt15__new_allocatorISt23_Sp_counted_ptr_inplaceI21NonCopyableNonMovableSaIvELN9__gnu_cxx12_Lock_policyE2EEE8allocateEmPKv = comdat any

$_ZNKSt15__new_allocatorISt23_Sp_counted_ptr_inplaceI21NonCopyableNonMovableSaIvELN9__gnu_cxx12_Lock_policyE2EEE11_M_max_sizeEv = comdat any

$_ZSt12__to_addressISt23_Sp_counted_ptr_inplaceI21NonCopyableNonMovableSaIvELN9__gnu_cxx12_Lock_policyE2EEEPT_S7_ = comdat any

$_ZNSt23_Sp_counted_ptr_inplaceI21NonCopyableNonMovableSaIvELN9__gnu_cxx12_Lock_policyE2EE5_ImplC2ES1_ = comdat any

$_ZNSt16allocator_traitsISaIvEE9constructI21NonCopyableNonMovableJEEEvRS0_PT_DpOT0_ = comdat any

$_ZNSt23_Sp_counted_ptr_inplaceI21NonCopyableNonMovableSaIvELN9__gnu_cxx12_Lock_policyE2EED2Ev = comdat any

$_ZNSt23_Sp_counted_ptr_inplaceI21NonCopyableNonMovableSaIvELN9__gnu_cxx12_Lock_policyE2EED0Ev = comdat any

$_ZNSt23_Sp_counted_ptr_inplaceI21NonCopyableNonMovableSaIvELN9__gnu_cxx12_Lock_policyE2EE10_M_disposeEv = comdat any

$_ZNSt23_Sp_counted_ptr_inplaceI21NonCopyableNonMovableSaIvELN9__gnu_cxx12_Lock_policyE2EE10_M_destroyEv = comdat any

$_ZNSt23_Sp_counted_ptr_inplaceI21NonCopyableNonMovableSaIvELN9__gnu_cxx12_Lock_policyE2EE14_M_get_deleterERKSt9type_info = comdat any

$_ZSt10_ConstructI21NonCopyableNonMovableJEEvPT_DpOT0_ = comdat any

$_ZNSt16allocator_traitsISaIvEE7destroyI21NonCopyableNonMovableEEvRS0_PT_ = comdat any

$_ZNSt23_Sp_counted_ptr_inplaceI21NonCopyableNonMovableSaIvELN9__gnu_cxx12_Lock_policyE2EE5_Impl8_M_allocEv = comdat any

$_ZSt8_DestroyI21NonCopyableNonMovableEvPT_ = comdat any

$_ZN9__gnu_cxx16__aligned_bufferI21NonCopyableNonMovableE6_M_ptrEv = comdat any

$_ZN9__gnu_cxx16__aligned_bufferI21NonCopyableNonMovableE7_M_addrEv = comdat any

$_ZNSt16allocator_traitsISaISt23_Sp_counted_ptr_inplaceI21NonCopyableNonMovableSaIvELN9__gnu_cxx12_Lock_policyE2EEEE10deallocateERS6_PS5_m = comdat any

$_ZNSt15__new_allocatorISt23_Sp_counted_ptr_inplaceI21NonCopyableNonMovableSaIvELN9__gnu_cxx12_Lock_policyE2EEE10deallocateEPS5_m = comdat any

$_ZNSt15__new_allocatorISt23_Sp_counted_ptr_inplaceI21NonCopyableNonMovableSaIvELN9__gnu_cxx12_Lock_policyE2EEED2Ev = comdat any

$_ZNKSt19__shared_ptr_accessI21NonCopyableNonMovableLN9__gnu_cxx12_Lock_policyE2ELb0ELb0EE6_M_getEv = comdat any

$_ZNKSt12__shared_ptrI21NonCopyableNonMovableLN9__gnu_cxx12_Lock_policyE2EE3getEv = comdat any

$_ZNSt10shared_ptrIKiEC2ISaIvEJiEEESt20_Sp_alloc_shared_tagIT_EDpOT0_ = comdat any

$_ZNSt12__shared_ptrIKiLN9__gnu_cxx12_Lock_policyE2EEC2ISaIvEJiEEESt20_Sp_alloc_shared_tagIT_EDpOT0_ = comdat any

$_ZNSt14__shared_countILN9__gnu_cxx12_Lock_policyE2EEC2IKiSaIvEJiEEERPT_St20_Sp_alloc_shared_tagIT0_EDpOT1_ = comdat any

$_ZNSt12__shared_ptrIKiLN9__gnu_cxx12_Lock_policyE2EE31_M_enable_shared_from_this_withIS0_iEENSt9enable_ifIXntsr15__has_esft_baseIT0_EE5valueEvE4typeEPT_ = comdat any

$_ZNSaISt23_Sp_counted_ptr_inplaceIKiSaIvELN9__gnu_cxx12_Lock_policyE2EEEC2IvEERKSaIT_E = comdat any

$_ZSt18__allocate_guardedISaISt23_Sp_counted_ptr_inplaceIKiSaIvELN9__gnu_cxx12_Lock_policyE2EEEESt15__allocated_ptrIT_ERS8_ = comdat any

$_ZNSt15__allocated_ptrISaISt23_Sp_counted_ptr_inplaceIKiSaIvELN9__gnu_cxx12_Lock_policyE2EEEE3getEv = comdat any

$_ZNSt23_Sp_counted_ptr_inplaceIKiSaIvELN9__gnu_cxx12_Lock_policyE2EEC2IJiEEES1_DpOT_ = comdat any

$_ZNSt15__allocated_ptrISaISt23_Sp_counted_ptr_inplaceIKiSaIvELN9__gnu_cxx12_Lock_policyE2EEEEaSEDn = comdat any

$_ZNSt23_Sp_counted_ptr_inplaceIKiSaIvELN9__gnu_cxx12_Lock_policyE2EE6_M_ptrEv = comdat any

$_ZNSt15__allocated_ptrISaISt23_Sp_counted_ptr_inplaceIKiSaIvELN9__gnu_cxx12_Lock_policyE2EEEED2Ev = comdat any

$_ZNSaISt23_Sp_counted_ptr_inplaceIKiSaIvELN9__gnu_cxx12_Lock_policyE2EEED2Ev = comdat any

$_ZNSt15__new_allocatorISt23_Sp_counted_ptr_inplaceIKiSaIvELN9__gnu_cxx12_Lock_policyE2EEEC2Ev = comdat any

$_ZNSt16allocator_traitsISaISt23_Sp_counted_ptr_inplaceIKiSaIvELN9__gnu_cxx12_Lock_policyE2EEEE8allocateERS6_m = comdat any

$_ZNSt15__allocated_ptrISaISt23_Sp_counted_ptr_inplaceIKiSaIvELN9__gnu_cxx12_Lock_policyE2EEEEC2ERS6_PS5_ = comdat any

$_ZNSt15__new_allocatorISt23_Sp_counted_ptr_inplaceIKiSaIvELN9__gnu_cxx12_Lock_policyE2EEE8allocateEmPKv = comdat any

$_ZNKSt15__new_allocatorISt23_Sp_counted_ptr_inplaceIKiSaIvELN9__gnu_cxx12_Lock_policyE2EEE11_M_max_sizeEv = comdat any

$_ZSt12__to_addressISt23_Sp_counted_ptr_inplaceIKiSaIvELN9__gnu_cxx12_Lock_policyE2EEEPT_S7_ = comdat any

$_ZNSt23_Sp_counted_ptr_inplaceIKiSaIvELN9__gnu_cxx12_Lock_policyE2EE5_ImplC2ES1_ = comdat any

$_ZNSt16allocator_traitsISaIvEE9constructIKiJiEEEvRS0_PT_DpOT0_ = comdat any

$_ZNSt23_Sp_counted_ptr_inplaceIKiSaIvELN9__gnu_cxx12_Lock_policyE2EED2Ev = comdat any

$_ZNSt23_Sp_counted_ptr_inplaceIKiSaIvELN9__gnu_cxx12_Lock_policyE2EED0Ev = comdat any

$_ZNSt23_Sp_counted_ptr_inplaceIKiSaIvELN9__gnu_cxx12_Lock_policyE2EE10_M_disposeEv = comdat any

$_ZNSt23_Sp_counted_ptr_inplaceIKiSaIvELN9__gnu_cxx12_Lock_policyE2EE10_M_destroyEv = comdat any

$_ZNSt23_Sp_counted_ptr_inplaceIKiSaIvELN9__gnu_cxx12_Lock_policyE2EE14_M_get_deleterERKSt9type_info = comdat any

$_ZSt10_ConstructIKiJiEEvPT_DpOT0_ = comdat any

$_ZNSt16allocator_traitsISaIvEE7destroyIKiEEvRS0_PT_ = comdat any

$_ZNSt23_Sp_counted_ptr_inplaceIKiSaIvELN9__gnu_cxx12_Lock_policyE2EE5_Impl8_M_allocEv = comdat any

$_ZSt8_DestroyIKiEvPT_ = comdat any

$_ZN9__gnu_cxx16__aligned_bufferIKiE6_M_ptrEv = comdat any

$_ZN9__gnu_cxx16__aligned_bufferIKiE7_M_addrEv = comdat any

$_ZNSt16allocator_traitsISaISt23_Sp_counted_ptr_inplaceIKiSaIvELN9__gnu_cxx12_Lock_policyE2EEEE10deallocateERS6_PS5_m = comdat any

$_ZNSt15__new_allocatorISt23_Sp_counted_ptr_inplaceIKiSaIvELN9__gnu_cxx12_Lock_policyE2EEE10deallocateEPS5_m = comdat any

$_ZNSt15__new_allocatorISt23_Sp_counted_ptr_inplaceIKiSaIvELN9__gnu_cxx12_Lock_policyE2EEED2Ev = comdat any

$_ZSteqIiiEbRKSt10shared_ptrIT_ERKS0_IT0_E = comdat any

$_ZNK3gsl8not_nullISt10shared_ptrIiEE3getEv = comdat any

$_ZNKSt12__shared_ptrIiLN9__gnu_cxx12_Lock_policyE2EE3getEv = comdat any

$_ZSteqIiKiEbRKSt10shared_ptrIT_ERKS1_IT0_E = comdat any

$_ZNK3gsl8not_nullISt10shared_ptrIKiEE3getEv = comdat any

$_ZNKSt12__shared_ptrIKiLN9__gnu_cxx12_Lock_policyE2EE3getEv = comdat any

$_ZStneIiiEbRKSt10shared_ptrIT_ERKS0_IT0_E = comdat any

$_ZStneIiKiEbRKSt10shared_ptrIT_ERKS1_IT0_E = comdat any

$_ZNKSt4lessIvEclIRKSt10shared_ptrIiES5_EEDTltclsr3stdE7forwardIT_Efp_Eclsr3stdE7forwardIT0_Efp0_EEOS6_OS7_ = comdat any

$_ZNSt4lessIvE6_S_cmpIRKSt10shared_ptrIiES5_EEDcOT_OT0_St17integral_constantIbLb0EE = comdat any

$_ZStltIiiEbRKSt10shared_ptrIT_ERKS0_IT0_E = comdat any

$_ZNKSt4lessIvEclIRKSt10shared_ptrIiERKS2_IKiEEEDTltclsr3stdE7forwardIT_Efp_Eclsr3stdE7forwardIT0_Efp0_EEOSA_OSB_ = comdat any

$_ZNSt4lessIvE6_S_cmpIRKSt10shared_ptrIiERKS2_IKiEEEDcOT_OT0_St17integral_constantIbLb0EE = comdat any

$_ZNKSt4lessIvEclIRKSt10shared_ptrIKiERKS2_IiEEEDTltclsr3stdE7forwardIT_Efp_Eclsr3stdE7forwardIT0_Efp0_EEOSA_OSB_ = comdat any

$_ZNSt4lessIvE6_S_cmpIRKSt10shared_ptrIKiERKS2_IiEEEDcOT_OT0_St17integral_constantIbLb0EE = comdat any

$_ZNKSt7greaterIvEclIRKSt10shared_ptrIiES5_EEDTgtclsr3stdE7forwardIT_Efp_Eclsr3stdE7forwardIT0_Efp0_EEOS6_OS7_ = comdat any

$_ZNSt7greaterIvE6_S_cmpIRKSt10shared_ptrIiES5_EEDcOT_OT0_St17integral_constantIbLb0EE = comdat any

$_ZStgtIiiEbRKSt10shared_ptrIT_ERKS0_IT0_E = comdat any

$_ZNKSt7greaterIvEclIRKSt10shared_ptrIiERKS2_IKiEEEDTgtclsr3stdE7forwardIT_Efp_Eclsr3stdE7forwardIT0_Efp0_EEOSA_OSB_ = comdat any

$_ZNSt7greaterIvE6_S_cmpIRKSt10shared_ptrIiERKS2_IKiEEEDcOT_OT0_St17integral_constantIbLb0EE = comdat any

$_ZNKSt7greaterIvEclIRKSt10shared_ptrIKiERKS2_IiEEEDTgtclsr3stdE7forwardIT_Efp_Eclsr3stdE7forwardIT0_Efp0_EEOSA_OSB_ = comdat any

$_ZNSt7greaterIvE6_S_cmpIRKSt10shared_ptrIKiERKS2_IiEEEDcOT_OT0_St17integral_constantIbLb0EE = comdat any

$_ZNKSt10less_equalIvEclIRKSt10shared_ptrIiES5_EEDTleclsr3stdE7forwardIT_Efp_Eclsr3stdE7forwardIT0_Efp0_EEOS6_OS7_ = comdat any

$_ZNSt10less_equalIvE6_S_cmpIRKSt10shared_ptrIiES5_EEDcOT_OT0_St17integral_constantIbLb0EE = comdat any

$_ZStleIiiEbRKSt10shared_ptrIT_ERKS0_IT0_E = comdat any

$_ZNKSt10less_equalIvEclIRKSt10shared_ptrIiERKS2_IKiEEEDTleclsr3stdE7forwardIT_Efp_Eclsr3stdE7forwardIT0_Efp0_EEOSA_OSB_ = comdat any

$_ZNSt10less_equalIvE6_S_cmpIRKSt10shared_ptrIiERKS2_IKiEEEDcOT_OT0_St17integral_constantIbLb0EE = comdat any

$_ZNKSt10less_equalIvEclIRKSt10shared_ptrIKiERKS2_IiEEEDTleclsr3stdE7forwardIT_Efp_Eclsr3stdE7forwardIT0_Efp0_EEOSA_OSB_ = comdat any

$_ZNSt10less_equalIvE6_S_cmpIRKSt10shared_ptrIKiERKS2_IiEEEDcOT_OT0_St17integral_constantIbLb0EE = comdat any

$_ZNKSt13greater_equalIvEclIRKSt10shared_ptrIiES5_EEDTgeclsr3stdE7forwardIT_Efp_Eclsr3stdE7forwardIT0_Efp0_EEOS6_OS7_ = comdat any

$_ZNSt13greater_equalIvE6_S_cmpIRKSt10shared_ptrIiES5_EEDcOT_OT0_St17integral_constantIbLb0EE = comdat any

$_ZStgeIiiEbRKSt10shared_ptrIT_ERKS0_IT0_E = comdat any

$_ZNKSt13greater_equalIvEclIRKSt10shared_ptrIiERKS2_IKiEEEDTgeclsr3stdE7forwardIT_Efp_Eclsr3stdE7forwardIT0_Efp0_EEOSA_OSB_ = comdat any

$_ZNSt13greater_equalIvE6_S_cmpIRKSt10shared_ptrIiERKS2_IKiEEEDcOT_OT0_St17integral_constantIbLb0EE = comdat any

$_ZNKSt13greater_equalIvEclIRKSt10shared_ptrIKiERKS2_IiEEEDTgeclsr3stdE7forwardIT_Efp_Eclsr3stdE7forwardIT0_Efp0_EEOSA_OSB_ = comdat any

$_ZNSt13greater_equalIvE6_S_cmpIRKSt10shared_ptrIKiERKS2_IiEEEDcOT_OT0_St17integral_constantIbLb0EE = comdat any

$_ZeqIiiENSt7__cxx1112basic_stringIcSt11char_traitsIcESaIcEEERK9CustomPtrIT_ERKS6_IT0_E = comdat any

$_ZeqIiKiENSt7__cxx1112basic_stringIcSt11char_traitsIcESaIcEEERK9CustomPtrIT_ERKS7_IT0_E = comdat any

$_ZNK3gsl8not_nullI9CustomPtrIKiEE3getEv = comdat any

$_ZneIiiENSt7__cxx1112basic_stringIcSt11char_traitsIcESaIcEEERK9CustomPtrIT_ERKS6_IT0_E = comdat any

$_ZneIiKiENSt7__cxx1112basic_stringIcSt11char_traitsIcESaIcEEERK9CustomPtrIT_ERKS7_IT0_E = comdat any

$_ZNKSt4lessIvEclIK9CustomPtrIiES4_EEDTltclsr3stdE7forwardIT_Efp_Eclsr3stdE7forwardIT0_Efp0_EEOS5_OS6_ = comdat any

$_ZNSt4lessIvE6_S_cmpIK9CustomPtrIiES4_EEDcOT_OT0_St17integral_constantIbLb0EE = comdat any

$_ZltIiiENSt7__cxx1112basic_stringIcSt11char_traitsIcESaIcEEERK9CustomPtrIT_ERKS6_IT0_E = comdat any

$_ZNKSt4lessIvEclIK9CustomPtrIiEKS2_IKiEEEDTltclsr3stdE7forwardIT_Efp_Eclsr3stdE7forwardIT0_Efp0_EEOS8_OS9_ = comdat any

$_ZNSt4lessIvE6_S_cmpIK9CustomPtrIiEKS2_IKiEEEDcOT_OT0_St17integral_constantIbLb0EE = comdat any

$_ZNSt11char_traitsIcE7compareEPKcS2_m = comdat any

$_ZNKSt4lessIvEclIK9CustomPtrIKiEKS2_IiEEEDTltclsr3stdE7forwardIT_Efp_Eclsr3stdE7forwardIT0_Efp0_EEOS8_OS9_ = comdat any

$_ZNSt4lessIvE6_S_cmpIK9CustomPtrIKiEKS2_IiEEEDcOT_OT0_St17integral_constantIbLb0EE = comdat any

$_ZNKSt7greaterIvEclIK9CustomPtrIiES4_EEDTgtclsr3stdE7forwardIT_Efp_Eclsr3stdE7forwardIT0_Efp0_EEOS5_OS6_ = comdat any

$_ZNSt7greaterIvE6_S_cmpIK9CustomPtrIiES4_EEDcOT_OT0_St17integral_constantIbLb0EE = comdat any

$_ZgtIiiENSt7__cxx1112basic_stringIcSt11char_traitsIcESaIcEEERK9CustomPtrIT_ERKS6_IT0_E = comdat any

$_ZNKSt7greaterIvEclIK9CustomPtrIiEKS2_IKiEEEDTgtclsr3stdE7forwardIT_Efp_Eclsr3stdE7forwardIT0_Efp0_EEOS8_OS9_ = comdat any

$_ZNSt7greaterIvE6_S_cmpIK9CustomPtrIiEKS2_IKiEEEDcOT_OT0_St17integral_constantIbLb0EE = comdat any

$_ZNKSt7greaterIvEclIK9CustomPtrIKiEKS2_IiEEEDTgtclsr3stdE7forwardIT_Efp_Eclsr3stdE7forwardIT0_Efp0_EEOS8_OS9_ = comdat any

$_ZNSt7greaterIvE6_S_cmpIK9CustomPtrIKiEKS2_IiEEEDcOT_OT0_St17integral_constantIbLb0EE = comdat any

$_ZNKSt10less_equalIvEclIK9CustomPtrIiES4_EEDTleclsr3stdE7forwardIT_Efp_Eclsr3stdE7forwardIT0_Efp0_EEOS5_OS6_ = comdat any

$_ZNSt10less_equalIvE6_S_cmpIK9CustomPtrIiES4_EEDcOT_OT0_St17integral_constantIbLb0EE = comdat any

$_ZleIiiENSt7__cxx1112basic_stringIcSt11char_traitsIcESaIcEEERK9CustomPtrIT_ERKS6_IT0_E = comdat any

$_ZNKSt10less_equalIvEclIK9CustomPtrIiEKS2_IKiEEEDTleclsr3stdE7forwardIT_Efp_Eclsr3stdE7forwardIT0_Efp0_EEOS8_OS9_ = comdat any

$_ZNSt10less_equalIvE6_S_cmpIK9CustomPtrIiEKS2_IKiEEEDcOT_OT0_St17integral_constantIbLb0EE = comdat any

$_ZNKSt10less_equalIvEclIK9CustomPtrIKiEKS2_IiEEEDTleclsr3stdE7forwardIT_Efp_Eclsr3stdE7forwardIT0_Efp0_EEOS8_OS9_ = comdat any

$_ZNSt10less_equalIvE6_S_cmpIK9CustomPtrIKiEKS2_IiEEEDcOT_OT0_St17integral_constantIbLb0EE = comdat any

$_ZNKSt13greater_equalIvEclIK9CustomPtrIiES4_EEDTgeclsr3stdE7forwardIT_Efp_Eclsr3stdE7forwardIT0_Efp0_EEOS5_OS6_ = comdat any

$_ZNSt13greater_equalIvE6_S_cmpIK9CustomPtrIiES4_EEDcOT_OT0_St17integral_constantIbLb0EE = comdat any

$_ZgeIiiENSt7__cxx1112basic_stringIcSt11char_traitsIcESaIcEEERK9CustomPtrIT_ERKS6_IT0_E = comdat any

$_ZNKSt13greater_equalIvEclIK9CustomPtrIiEKS2_IKiEEEDTgeclsr3stdE7forwardIT_Efp_Eclsr3stdE7forwardIT0_Efp0_EEOS8_OS9_ = comdat any

$_ZNSt13greater_equalIvE6_S_cmpIK9CustomPtrIiEKS2_IKiEEEDcOT_OT0_St17integral_constantIbLb0EE = comdat any

$_ZNKSt13greater_equalIvEclIK9CustomPtrIKiEKS2_IiEEEDTgeclsr3stdE7forwardIT_Efp_Eclsr3stdE7forwardIT0_Efp0_EEOS8_OS9_ = comdat any

$_ZNSt13greater_equalIvE6_S_cmpIK9CustomPtrIKiEKS2_IiEEEDcOT_OT0_St17integral_constantIbLb0EE = comdat any

$_ZTS21NonCopyableNonMovable = comdat any

$_ZTI21NonCopyableNonMovable = comdat any

$_ZTVN7testing8internal15TestFactoryImplI42notnull_tests_TestNotNullConstructors_TestEE = comdat any

$_ZTSN7testing8internal15TestFactoryImplI42notnull_tests_TestNotNullConstructors_TestEE = comdat any

$_ZTSN7testing8internal15TestFactoryBaseE = comdat any

$_ZTIN7testing8internal15TestFactoryBaseE = comdat any

$_ZTIN7testing8internal15TestFactoryImplI42notnull_tests_TestNotNullConstructors_TestEE = comdat any

$_ZTVN7testing8internal15TestFactoryBaseE = comdat any

$_ZTVSt15_Sp_counted_ptrIPKN7testing8internal2REELN9__gnu_cxx12_Lock_policyE2EE = comdat any

$_ZTSSt15_Sp_counted_ptrIPKN7testing8internal2REELN9__gnu_cxx12_Lock_policyE2EE = comdat any

$_ZTSSt16_Sp_counted_baseILN9__gnu_cxx12_Lock_policyE2EE = comdat any

$_ZTSSt11_Mutex_baseILN9__gnu_cxx12_Lock_policyE2EE = comdat any

$_ZTISt11_Mutex_baseILN9__gnu_cxx12_Lock_policyE2EE = comdat any

$_ZTISt16_Sp_counted_baseILN9__gnu_cxx12_Lock_policyE2EE = comdat any

$_ZTISt15_Sp_counted_ptrIPKN7testing8internal2REELN9__gnu_cxx12_Lock_policyE2EE = comdat any

$_ZTVSt16_Sp_counted_baseILN9__gnu_cxx12_Lock_policyE2EE = comdat any

$_ZTVN7testing18PolymorphicMatcherINS_8internal19MatchesRegexMatcherEE15MonomorphicImplIRKNSt7__cxx1112basic_stringIcSt11char_traitsIcESaIcEEEEE = comdat any

$_ZTSN7testing18PolymorphicMatcherINS_8internal19MatchesRegexMatcherEE15MonomorphicImplIRKNSt7__cxx1112basic_stringIcSt11char_traitsIcESaIcEEEEE = comdat any

$_ZTSN7testing16MatcherInterfaceIRKNSt7__cxx1112basic_stringIcSt11char_traitsIcESaIcEEEEE = comdat any

$_ZTSN7testing25MatcherDescriberInterfaceE = comdat any

$_ZTIN7testing25MatcherDescriberInterfaceE = comdat any

$_ZTIN7testing16MatcherInterfaceIRKNSt7__cxx1112basic_stringIcSt11char_traitsIcESaIcEEEEE = comdat any

$_ZTIN7testing18PolymorphicMatcherINS_8internal19MatchesRegexMatcherEE15MonomorphicImplIRKNSt7__cxx1112basic_stringIcSt11char_traitsIcESaIcEEEEE = comdat any

$_ZTVN7testing16MatcherInterfaceIRKNSt7__cxx1112basic_stringIcSt11char_traitsIcESaIcEEEEE = comdat any

$_ZTVN7testing25MatcherDescriberInterfaceE = comdat any

$_ZTVN7testing7MatcherIRKNSt7__cxx1112basic_stringIcSt11char_traitsIcESaIcEEEEE = comdat any

$_ZTSN7testing7MatcherIRKNSt7__cxx1112basic_stringIcSt11char_traitsIcESaIcEEEEE = comdat any

$_ZTSN7testing8internal11MatcherBaseIRKNSt7__cxx1112basic_stringIcSt11char_traitsIcESaIcEEEEE = comdat any

$_ZTIN7testing8internal11MatcherBaseIRKNSt7__cxx1112basic_stringIcSt11char_traitsIcESaIcEEEEE = comdat any

$_ZTIN7testing7MatcherIRKNSt7__cxx1112basic_stringIcSt11char_traitsIcESaIcEEEEE = comdat any

$_ZTVN7testing8internal11MatcherBaseIRKNSt7__cxx1112basic_stringIcSt11char_traitsIcESaIcEEEEE = comdat any

$_ZZN7testing8internal11MatcherBaseIRKNSt7__cxx1112basic_stringIcSt11char_traitsIcESaIcEEEE9GetVTableINSA_11ValuePolicyIPKNS_16MatcherInterfaceIS9_EELb1EEEEEPKNSA_6VTableEvE7kVTableB5cxx11 = comdat any

$_ZTVN7testing8internal15TestFactoryImplI37notnull_tests_TestNotNullostream_TestEE = comdat any

$_ZTSN7testing8internal15TestFactoryImplI37notnull_tests_TestNotNullostream_TestEE = comdat any

$_ZTIN7testing8internal15TestFactoryImplI37notnull_tests_TestNotNullostream_TestEE = comdat any

$_ZTVN7testing8internal15TestFactoryImplI37notnull_tests_TestNotNullCasting_TestEE = comdat any

$_ZTSN7testing8internal15TestFactoryImplI37notnull_tests_TestNotNullCasting_TestEE = comdat any

$_ZTIN7testing8internal15TestFactoryImplI37notnull_tests_TestNotNullCasting_TestEE = comdat any

$_ZTVN7testing8internal15TestFactoryImplI40notnull_tests_TestNotNullAssignment_TestEE = comdat any

$_ZTSN7testing8internal15TestFactoryImplI40notnull_tests_TestNotNullAssignment_TestEE = comdat any

$_ZTIN7testing8internal15TestFactoryImplI40notnull_tests_TestNotNullAssignment_TestEE = comdat any

$_ZTVN7testing8internal15TestFactoryImplI50notnull_tests_TestNotNullRawPointerComparison_TestEE = comdat any

$_ZTSN7testing8internal15TestFactoryImplI50notnull_tests_TestNotNullRawPointerComparison_TestEE = comdat any

$_ZTIN7testing8internal15TestFactoryImplI50notnull_tests_TestNotNullRawPointerComparison_TestEE = comdat any

$_ZTVN7testing8internal15TestFactoryImplI49notnull_tests_TestNotNullDereferenceOperator_TestEE = comdat any

$_ZTSN7testing8internal15TestFactoryImplI49notnull_tests_TestNotNullDereferenceOperator_TestEE = comdat any

$_ZTIN7testing8internal15TestFactoryImplI49notnull_tests_TestNotNullDereferenceOperator_TestEE = comdat any

$_ZTVN7testing8internal15TestFactoryImplI49notnull_tests_TestNotNullSharedPtrComparison_TestEE = comdat any

$_ZTSN7testing8internal15TestFactoryImplI49notnull_tests_TestNotNullSharedPtrComparison_TestEE = comdat any

$_ZTIN7testing8internal15TestFactoryImplI49notnull_tests_TestNotNullSharedPtrComparison_TestEE = comdat any

$_ZTVN7testing8internal15TestFactoryImplI49notnull_tests_TestNotNullCustomPtrComparison_TestEE = comdat any

$_ZTSN7testing8internal15TestFactoryImplI49notnull_tests_TestNotNullCustomPtrComparison_TestEE = comdat any

$_ZTIN7testing8internal15TestFactoryImplI49notnull_tests_TestNotNullCustomPtrComparison_TestEE = comdat any

$_ZTVN7testing8internal15TestFactoryImplI34notnull_tests_TestMakeNotNull_TestEE = comdat any

$_ZTSN7testing8internal15TestFactoryImplI34notnull_tests_TestMakeNotNull_TestEE = comdat any

$_ZTIN7testing8internal15TestFactoryImplI34notnull_tests_TestMakeNotNull_TestEE = comdat any

$_ZTVN7testing8internal15TestFactoryImplI30notnull_tests_TestStdHash_TestEE = comdat any

$_ZTSN7testing8internal15TestFactoryImplI30notnull_tests_TestStdHash_TestEE = comdat any

$_ZTIN7testing8internal15TestFactoryImplI30notnull_tests_TestStdHash_TestEE = comdat any

$_ZTVSt23_Sp_counted_ptr_inplaceIiSaIvELN9__gnu_cxx12_Lock_policyE2EE = comdat any

$_ZTSSt23_Sp_counted_ptr_inplaceIiSaIvELN9__gnu_cxx12_Lock_policyE2EE = comdat any

$_ZTISt23_Sp_counted_ptr_inplaceIiSaIvELN9__gnu_cxx12_Lock_policyE2EE = comdat any

$_ZTSSt19_Sp_make_shared_tag = comdat any

$_ZTISt19_Sp_make_shared_tag = comdat any

$_ZZNSt19_Sp_make_shared_tag5_S_tiEvE5__tag = comdat any

$_ZTVSt23_Sp_counted_ptr_inplaceI21NonCopyableNonMovableSaIvELN9__gnu_cxx12_Lock_policyE2EE = comdat any

$_ZTSSt23_Sp_counted_ptr_inplaceI21NonCopyableNonMovableSaIvELN9__gnu_cxx12_Lock_policyE2EE = comdat any

$_ZTISt23_Sp_counted_ptr_inplaceI21NonCopyableNonMovableSaIvELN9__gnu_cxx12_Lock_policyE2EE = comdat any

$_ZTVSt23_Sp_counted_ptr_inplaceIKiSaIvELN9__gnu_cxx12_Lock_policyE2EE = comdat any

$_ZTSSt23_Sp_counted_ptr_inplaceIKiSaIvELN9__gnu_cxx12_Lock_policyE2EE = comdat any

$_ZTISt23_Sp_counted_ptr_inplaceIKiSaIvELN9__gnu_cxx12_Lock_policyE2EE = comdat any

@_ZStL8__ioinit = internal global %"class.std::ios_base::Init" zeroinitializer, align 1
@__dso_handle = external hidden global i8
@_ZN42notnull_tests_TestNotNullConstructors_Test10test_info_E = dso_local global ptr null, align 8
@.str = private unnamed_addr constant [14 x i8] c"notnull_tests\00", align 1
@.str.2 = private unnamed_addr constant [24 x i8] c"TestNotNullConstructors\00", align 1
@.str.3 = private unnamed_addr constant [112 x i8] c"generated/home/dtcxzyw/WorkSpace/Projects/compilers/llvm-opt-benchmark/bench/ms-gsl/GSL/tests/notnull_tests.cpp\00", align 1
@.str.4 = private unnamed_addr constant [14 x i8] c"p.get() == &i\00", align 1
@.str.5 = private unnamed_addr constant [6 x i8] c"false\00", align 1
@.str.6 = private unnamed_addr constant [5 x i8] c"true\00", align 1
@.str.7 = private unnamed_addr constant [29 x i8] c"(not_null<decltype(pi)>(pi))\00", align 1
@_ZTISt9exception = external constant ptr
@stderr = external global ptr, align 8
@.str.8 = private unnamed_addr constant [103 x i8] c"\0A%s: Caught std::exception-derived exception escaping the death test statement. Exception message: %s\0A\00", align 1
@.str.9 = private unnamed_addr constant [9 x i8] c"*x == 42\00", align 1
@.str.10 = private unnamed_addr constant [25 x i8] c"helper(return_pointer())\00", align 1
@.str.11 = private unnamed_addr constant [31 x i8] c"helper_const(return_pointer())\00", align 1
@_ZN37notnull_tests_TestNotNullostream_Test10test_info_E = dso_local global ptr null, align 8
@.str.13 = private unnamed_addr constant [19 x i8] c"TestNotNullostream\00", align 1
@.str.14 = private unnamed_addr constant [8 x i8] c"cstring\00", align 1
@.str.15 = private unnamed_addr constant [7 x i8] c"string\00", align 1
@_ZN37notnull_tests_TestNotNullCasting_Test10test_info_E = dso_local global ptr null, align 8
@.str.17 = private unnamed_addr constant [19 x i8] c"TestNotNullCasting\00", align 1
@.str.18 = private unnamed_addr constant [7 x i8] c"q == p\00", align 1
@.str.19 = private unnamed_addr constant [69 x i8] c"reinterpret_cast<void*>(p.get()) == reinterpret_cast<void*>(t.get())\00", align 1
@_ZN40notnull_tests_TestNotNullAssignment_Test10test_info_E = dso_local global ptr null, align 8
@.str.21 = private unnamed_addr constant [22 x i8] c"TestNotNullAssignment\00", align 1
@.str.22 = private unnamed_addr constant [10 x i8] c"helper(p)\00", align 1
@.str.23 = private unnamed_addr constant [22 x i8] c"p = not_null<int*>(q)\00", align 1
@_ZN50notnull_tests_TestNotNullRawPointerComparison_Test10test_info_E = dso_local global ptr null, align 8
@.str.25 = private unnamed_addr constant [32 x i8] c"TestNotNullRawPointerComparison\00", align 1
@__const._ZN50notnull_tests_TestNotNullRawPointerComparison_Test8TestBodyEv.ints = private unnamed_addr constant [2 x i32] [i32 42, i32 43], align 4
@.str.26 = private unnamed_addr constant [39 x i8] c"(NotNull1(p1) == NotNull1(p1)) == true\00", align 1
@.str.27 = private unnamed_addr constant [40 x i8] c"(NotNull1(p1) == NotNull2(p2)) == false\00", align 1
@.str.28 = private unnamed_addr constant [40 x i8] c"(NotNull1(p1) != NotNull1(p1)) == false\00", align 1
@.str.29 = private unnamed_addr constant [39 x i8] c"(NotNull1(p1) != NotNull2(p2)) == true\00", align 1
@.str.30 = private unnamed_addr constant [39 x i8] c"(NotNull1(p1) < NotNull1(p1)) == false\00", align 1
@.str.31 = private unnamed_addr constant [43 x i8] c"(NotNull1(p1) < NotNull2(p2)) == (p1 < p2)\00", align 1
@.str.32 = private unnamed_addr constant [43 x i8] c"(NotNull2(p2) < NotNull1(p1)) == (p2 < p1)\00", align 1
@.str.33 = private unnamed_addr constant [39 x i8] c"(NotNull1(p1) > NotNull1(p1)) == false\00", align 1
@.str.34 = private unnamed_addr constant [43 x i8] c"(NotNull1(p1) > NotNull2(p2)) == (p1 > p2)\00", align 1
@.str.35 = private unnamed_addr constant [43 x i8] c"(NotNull2(p2) > NotNull1(p1)) == (p2 > p1)\00", align 1
@.str.36 = private unnamed_addr constant [39 x i8] c"(NotNull1(p1) <= NotNull1(p1)) == true\00", align 1
@.str.37 = private unnamed_addr constant [45 x i8] c"(NotNull1(p1) <= NotNull2(p2)) == (p1 <= p2)\00", align 1
@.str.38 = private unnamed_addr constant [45 x i8] c"(NotNull2(p2) <= NotNull1(p1)) == (p2 <= p1)\00", align 1
@_ZN49notnull_tests_TestNotNullDereferenceOperator_Test10test_info_E = dso_local global ptr null, align 8
@.str.40 = private unnamed_addr constant [31 x i8] c"TestNotNullDereferenceOperator\00", align 1
@_ZTVN10__cxxabiv117__class_type_infoE = external global [0 x ptr]
@_ZTS21NonCopyableNonMovable = linkonce_odr dso_local constant [24 x i8] c"21NonCopyableNonMovable\00", comdat, align 1
@_ZTI21NonCopyableNonMovable = linkonce_odr dso_local constant { ptr, ptr } { ptr getelementptr inbounds (ptr, ptr @_ZTVN10__cxxabiv117__class_type_infoE, i64 2), ptr @_ZTS21NonCopyableNonMovable }, comdat, align 8
@.str.41 = private unnamed_addr constant [41 x i8] c"typeid(*sp1) == typeid(*NotNullSp1(sp1))\00", align 1
@.str.42 = private unnamed_addr constant [57 x i8] c"std::addressof(*NotNullSp1(sp1)) == std::addressof(*sp1)\00", align 1
@__const._ZN49notnull_tests_TestNotNullDereferenceOperator_Test8TestBodyEv.ints = private unnamed_addr constant [1 x i32] [i32 42], align 4
@_ZTIi = external constant ptr
@.str.43 = private unnamed_addr constant [37 x i8] c"typeid(*NotNull1(p1)) == typeid(*p1)\00", align 1
@.str.44 = private unnamed_addr constant [20 x i8] c"*NotNull1(p1) == 42\00", align 1
@.str.45 = private unnamed_addr constant [14 x i8] c"ints[0] == 43\00", align 1
@.str.46 = private unnamed_addr constant [28 x i8] c"typeid(*p) == typeid(*(&v))\00", align 1
@.str.47 = private unnamed_addr constant [8 x i8] c"v == 43\00", align 1
@_ZN49notnull_tests_TestNotNullSharedPtrComparison_Test10test_info_E = dso_local global ptr null, align 8
@.str.49 = private unnamed_addr constant [31 x i8] c"TestNotNullSharedPtrComparison\00", align 1
@.str.50 = private unnamed_addr constant [45 x i8] c"(NotNullSp1(sp1) == NotNullSp1(sp1)) == true\00", align 1
@.str.51 = private unnamed_addr constant [46 x i8] c"(NotNullSp1(sp1) == NotNullSp2(sp2)) == false\00", align 1
@.str.52 = private unnamed_addr constant [46 x i8] c"(NotNullSp1(sp1) != NotNullSp1(sp1)) == false\00", align 1
@.str.53 = private unnamed_addr constant [45 x i8] c"(NotNullSp1(sp1) != NotNullSp2(sp2)) == true\00", align 1
@.str.54 = private unnamed_addr constant [45 x i8] c"(NotNullSp1(sp1) < NotNullSp1(sp1)) == false\00", align 1
@.str.55 = private unnamed_addr constant [51 x i8] c"(NotNullSp1(sp1) < NotNullSp2(sp2)) == (sp1 < sp2)\00", align 1
@.str.56 = private unnamed_addr constant [51 x i8] c"(NotNullSp2(sp2) < NotNullSp1(sp1)) == (sp2 < sp1)\00", align 1
@.str.57 = private unnamed_addr constant [45 x i8] c"(NotNullSp1(sp1) > NotNullSp1(sp1)) == false\00", align 1
@.str.58 = private unnamed_addr constant [51 x i8] c"(NotNullSp1(sp1) > NotNullSp2(sp2)) == (sp1 > sp2)\00", align 1
@.str.59 = private unnamed_addr constant [51 x i8] c"(NotNullSp2(sp2) > NotNullSp1(sp1)) == (sp2 > sp1)\00", align 1
@.str.60 = private unnamed_addr constant [45 x i8] c"(NotNullSp1(sp1) <= NotNullSp1(sp1)) == true\00", align 1
@.str.61 = private unnamed_addr constant [53 x i8] c"(NotNullSp1(sp1) <= NotNullSp2(sp2)) == (sp1 <= sp2)\00", align 1
@.str.62 = private unnamed_addr constant [53 x i8] c"(NotNullSp2(sp2) <= NotNullSp1(sp1)) == (sp2 <= sp1)\00", align 1
@.str.63 = private unnamed_addr constant [45 x i8] c"(NotNullSp1(sp1) >= NotNullSp1(sp1)) == true\00", align 1
@.str.64 = private unnamed_addr constant [53 x i8] c"(NotNullSp1(sp1) >= NotNullSp2(sp2)) == (sp1 >= sp2)\00", align 1
@.str.65 = private unnamed_addr constant [53 x i8] c"(NotNullSp2(sp2) >= NotNullSp1(sp1)) == (sp2 >= sp1)\00", align 1
@_ZN49notnull_tests_TestNotNullCustomPtrComparison_Test10test_info_E = dso_local global ptr null, align 8
@.str.67 = private unnamed_addr constant [31 x i8] c"TestNotNullCustomPtrComparison\00", align 1
@__const._ZN49notnull_tests_TestNotNullCustomPtrComparison_Test8TestBodyEv.ints = private unnamed_addr constant [2 x i32] [i32 42, i32 43], align 4
@.str.68 = private unnamed_addr constant [41 x i8] c"(NotNull1(p1) == NotNull1(p1)) == \22true\22\00", align 1
@.str.69 = private unnamed_addr constant [42 x i8] c"(NotNull1(p1) == NotNull2(p2)) == \22false\22\00", align 1
@.str.70 = private unnamed_addr constant [42 x i8] c"(NotNull1(p1) != NotNull1(p1)) == \22false\22\00", align 1
@.str.71 = private unnamed_addr constant [41 x i8] c"(NotNull1(p1) != NotNull2(p2)) == \22true\22\00", align 1
@.str.72 = private unnamed_addr constant [41 x i8] c"(NotNull1(p1) < NotNull1(p1)) == \22false\22\00", align 1
@.str.73 = private unnamed_addr constant [41 x i8] c"(NotNull1(p1) > NotNull1(p1)) == \22false\22\00", align 1
@.str.74 = private unnamed_addr constant [41 x i8] c"(NotNull1(p1) <= NotNull1(p1)) == \22true\22\00", align 1
@.str.75 = private unnamed_addr constant [41 x i8] c"(NotNull1(p1) >= NotNull1(p1)) == \22true\22\00", align 1
@.str.76 = private unnamed_addr constant [45 x i8] c"(NotNull1(p1) >= NotNull2(p2)) == (p1 >= p2)\00", align 1
@.str.77 = private unnamed_addr constant [45 x i8] c"(NotNull2(p2) >= NotNull1(p1)) == (p2 >= p1)\00", align 1
@_ZN34notnull_tests_TestMakeNotNull_Test10test_info_E = dso_local global ptr null, align 8
@.str.79 = private unnamed_addr constant [16 x i8] c"TestMakeNotNull\00", align 1
@.str.80 = private unnamed_addr constant [19 x i8] c"workaround_macro()\00", align 1
@.str.81 = private unnamed_addr constant [25 x i8] c"helper(make_not_null(p))\00", align 1
@.str.82 = private unnamed_addr constant [31 x i8] c"helper_const(make_not_null(p))\00", align 1
@_ZN30notnull_tests_TestStdHash_Test10test_info_E = dso_local global ptr null, align 8
@.str.84 = private unnamed_addr constant [12 x i8] c"TestStdHash\00", align 1
@.str.85 = private unnamed_addr constant [31 x i8] c"hash_nn(nn) == hash_intptr(&x)\00", align 1
@.str.86 = private unnamed_addr constant [31 x i8] c"hash_nn(nn) == hash_intptr(&y)\00", align 1
@.str.87 = private unnamed_addr constant [36 x i8] c"hash_nn(nn) == hash_intptr(nullptr)\00", align 1
@_ZTV42notnull_tests_TestNotNullConstructors_Test = dso_local unnamed_addr constant { [8 x ptr] } { [8 x ptr] [ptr null, ptr @_ZTI42notnull_tests_TestNotNullConstructors_Test, ptr @_ZN42notnull_tests_TestNotNullConstructors_TestD2Ev, ptr @_ZN42notnull_tests_TestNotNullConstructors_TestD0Ev, ptr @_ZN7testing4Test5SetUpEv, ptr @_ZN7testing4Test8TearDownEv, ptr @_ZN42notnull_tests_TestNotNullConstructors_Test8TestBodyEv, ptr @_ZN7testing4Test5SetupEv] }, align 8
@_ZTVN10__cxxabiv120__si_class_type_infoE = external global [0 x ptr]
@_ZTS42notnull_tests_TestNotNullConstructors_Test = dso_local constant [45 x i8] c"42notnull_tests_TestNotNullConstructors_Test\00", align 1
@_ZTIN7testing4TestE = external constant ptr
@_ZTI42notnull_tests_TestNotNullConstructors_Test = dso_local constant { ptr, ptr, ptr } { ptr getelementptr inbounds (ptr, ptr @_ZTVN10__cxxabiv120__si_class_type_infoE, i64 2), ptr @_ZTS42notnull_tests_TestNotNullConstructors_Test, ptr @_ZTIN7testing4TestE }, align 8
@_ZTV37notnull_tests_TestNotNullostream_Test = dso_local unnamed_addr constant { [8 x ptr] } { [8 x ptr] [ptr null, ptr @_ZTI37notnull_tests_TestNotNullostream_Test, ptr @_ZN37notnull_tests_TestNotNullostream_TestD2Ev, ptr @_ZN37notnull_tests_TestNotNullostream_TestD0Ev, ptr @_ZN7testing4Test5SetUpEv, ptr @_ZN7testing4Test8TearDownEv, ptr @_ZN37notnull_tests_TestNotNullostream_Test8TestBodyEv, ptr @_ZN7testing4Test5SetupEv] }, align 8
@_ZTS37notnull_tests_TestNotNullostream_Test = dso_local constant [40 x i8] c"37notnull_tests_TestNotNullostream_Test\00", align 1
@_ZTI37notnull_tests_TestNotNullostream_Test = dso_local constant { ptr, ptr, ptr } { ptr getelementptr inbounds (ptr, ptr @_ZTVN10__cxxabiv120__si_class_type_infoE, i64 2), ptr @_ZTS37notnull_tests_TestNotNullostream_Test, ptr @_ZTIN7testing4TestE }, align 8
@_ZTV37notnull_tests_TestNotNullCasting_Test = dso_local unnamed_addr constant { [8 x ptr] } { [8 x ptr] [ptr null, ptr @_ZTI37notnull_tests_TestNotNullCasting_Test, ptr @_ZN37notnull_tests_TestNotNullCasting_TestD2Ev, ptr @_ZN37notnull_tests_TestNotNullCasting_TestD0Ev, ptr @_ZN7testing4Test5SetUpEv, ptr @_ZN7testing4Test8TearDownEv, ptr @_ZN37notnull_tests_TestNotNullCasting_Test8TestBodyEv, ptr @_ZN7testing4Test5SetupEv] }, align 8
@_ZTS37notnull_tests_TestNotNullCasting_Test = dso_local constant [40 x i8] c"37notnull_tests_TestNotNullCasting_Test\00", align 1
@_ZTI37notnull_tests_TestNotNullCasting_Test = dso_local constant { ptr, ptr, ptr } { ptr getelementptr inbounds (ptr, ptr @_ZTVN10__cxxabiv120__si_class_type_infoE, i64 2), ptr @_ZTS37notnull_tests_TestNotNullCasting_Test, ptr @_ZTIN7testing4TestE }, align 8
@_ZTV40notnull_tests_TestNotNullAssignment_Test = dso_local unnamed_addr constant { [8 x ptr] } { [8 x ptr] [ptr null, ptr @_ZTI40notnull_tests_TestNotNullAssignment_Test, ptr @_ZN40notnull_tests_TestNotNullAssignment_TestD2Ev, ptr @_ZN40notnull_tests_TestNotNullAssignment_TestD0Ev, ptr @_ZN7testing4Test5SetUpEv, ptr @_ZN7testing4Test8TearDownEv, ptr @_ZN40notnull_tests_TestNotNullAssignment_Test8TestBodyEv, ptr @_ZN7testing4Test5SetupEv] }, align 8
@_ZTS40notnull_tests_TestNotNullAssignment_Test = dso_local constant [43 x i8] c"40notnull_tests_TestNotNullAssignment_Test\00", align 1
@_ZTI40notnull_tests_TestNotNullAssignment_Test = dso_local constant { ptr, ptr, ptr } { ptr getelementptr inbounds (ptr, ptr @_ZTVN10__cxxabiv120__si_class_type_infoE, i64 2), ptr @_ZTS40notnull_tests_TestNotNullAssignment_Test, ptr @_ZTIN7testing4TestE }, align 8
@_ZTV50notnull_tests_TestNotNullRawPointerComparison_Test = dso_local unnamed_addr constant { [8 x ptr] } { [8 x ptr] [ptr null, ptr @_ZTI50notnull_tests_TestNotNullRawPointerComparison_Test, ptr @_ZN50notnull_tests_TestNotNullRawPointerComparison_TestD2Ev, ptr @_ZN50notnull_tests_TestNotNullRawPointerComparison_TestD0Ev, ptr @_ZN7testing4Test5SetUpEv, ptr @_ZN7testing4Test8TearDownEv, ptr @_ZN50notnull_tests_TestNotNullRawPointerComparison_Test8TestBodyEv, ptr @_ZN7testing4Test5SetupEv] }, align 8
@_ZTS50notnull_tests_TestNotNullRawPointerComparison_Test = dso_local constant [53 x i8] c"50notnull_tests_TestNotNullRawPointerComparison_Test\00", align 1
@_ZTI50notnull_tests_TestNotNullRawPointerComparison_Test = dso_local constant { ptr, ptr, ptr } { ptr getelementptr inbounds (ptr, ptr @_ZTVN10__cxxabiv120__si_class_type_infoE, i64 2), ptr @_ZTS50notnull_tests_TestNotNullRawPointerComparison_Test, ptr @_ZTIN7testing4TestE }, align 8
@_ZTV49notnull_tests_TestNotNullDereferenceOperator_Test = dso_local unnamed_addr constant { [8 x ptr] } { [8 x ptr] [ptr null, ptr @_ZTI49notnull_tests_TestNotNullDereferenceOperator_Test, ptr @_ZN49notnull_tests_TestNotNullDereferenceOperator_TestD2Ev, ptr @_ZN49notnull_tests_TestNotNullDereferenceOperator_TestD0Ev, ptr @_ZN7testing4Test5SetUpEv, ptr @_ZN7testing4Test8TearDownEv, ptr @_ZN49notnull_tests_TestNotNullDereferenceOperator_Test8TestBodyEv, ptr @_ZN7testing4Test5SetupEv] }, align 8
@_ZTS49notnull_tests_TestNotNullDereferenceOperator_Test = dso_local constant [52 x i8] c"49notnull_tests_TestNotNullDereferenceOperator_Test\00", align 1
@_ZTI49notnull_tests_TestNotNullDereferenceOperator_Test = dso_local constant { ptr, ptr, ptr } { ptr getelementptr inbounds (ptr, ptr @_ZTVN10__cxxabiv120__si_class_type_infoE, i64 2), ptr @_ZTS49notnull_tests_TestNotNullDereferenceOperator_Test, ptr @_ZTIN7testing4TestE }, align 8
@_ZTV49notnull_tests_TestNotNullSharedPtrComparison_Test = dso_local unnamed_addr constant { [8 x ptr] } { [8 x ptr] [ptr null, ptr @_ZTI49notnull_tests_TestNotNullSharedPtrComparison_Test, ptr @_ZN49notnull_tests_TestNotNullSharedPtrComparison_TestD2Ev, ptr @_ZN49notnull_tests_TestNotNullSharedPtrComparison_TestD0Ev, ptr @_ZN7testing4Test5SetUpEv, ptr @_ZN7testing4Test8TearDownEv, ptr @_ZN49notnull_tests_TestNotNullSharedPtrComparison_Test8TestBodyEv, ptr @_ZN7testing4Test5SetupEv] }, align 8
@_ZTS49notnull_tests_TestNotNullSharedPtrComparison_Test = dso_local constant [52 x i8] c"49notnull_tests_TestNotNullSharedPtrComparison_Test\00", align 1
@_ZTI49notnull_tests_TestNotNullSharedPtrComparison_Test = dso_local constant { ptr, ptr, ptr } { ptr getelementptr inbounds (ptr, ptr @_ZTVN10__cxxabiv120__si_class_type_infoE, i64 2), ptr @_ZTS49notnull_tests_TestNotNullSharedPtrComparison_Test, ptr @_ZTIN7testing4TestE }, align 8
@_ZTV49notnull_tests_TestNotNullCustomPtrComparison_Test = dso_local unnamed_addr constant { [8 x ptr] } { [8 x ptr] [ptr null, ptr @_ZTI49notnull_tests_TestNotNullCustomPtrComparison_Test, ptr @_ZN49notnull_tests_TestNotNullCustomPtrComparison_TestD2Ev, ptr @_ZN49notnull_tests_TestNotNullCustomPtrComparison_TestD0Ev, ptr @_ZN7testing4Test5SetUpEv, ptr @_ZN7testing4Test8TearDownEv, ptr @_ZN49notnull_tests_TestNotNullCustomPtrComparison_Test8TestBodyEv, ptr @_ZN7testing4Test5SetupEv] }, align 8
@_ZTS49notnull_tests_TestNotNullCustomPtrComparison_Test = dso_local constant [52 x i8] c"49notnull_tests_TestNotNullCustomPtrComparison_Test\00", align 1
@_ZTI49notnull_tests_TestNotNullCustomPtrComparison_Test = dso_local constant { ptr, ptr, ptr } { ptr getelementptr inbounds (ptr, ptr @_ZTVN10__cxxabiv120__si_class_type_infoE, i64 2), ptr @_ZTS49notnull_tests_TestNotNullCustomPtrComparison_Test, ptr @_ZTIN7testing4TestE }, align 8
@_ZTV34notnull_tests_TestMakeNotNull_Test = dso_local unnamed_addr constant { [8 x ptr] } { [8 x ptr] [ptr null, ptr @_ZTI34notnull_tests_TestMakeNotNull_Test, ptr @_ZN34notnull_tests_TestMakeNotNull_TestD2Ev, ptr @_ZN34notnull_tests_TestMakeNotNull_TestD0Ev, ptr @_ZN7testing4Test5SetUpEv, ptr @_ZN7testing4Test8TearDownEv, ptr @_ZN34notnull_tests_TestMakeNotNull_Test8TestBodyEv, ptr @_ZN7testing4Test5SetupEv] }, align 8
@_ZTS34notnull_tests_TestMakeNotNull_Test = dso_local constant [37 x i8] c"34notnull_tests_TestMakeNotNull_Test\00", align 1
@_ZTI34notnull_tests_TestMakeNotNull_Test = dso_local constant { ptr, ptr, ptr } { ptr getelementptr inbounds (ptr, ptr @_ZTVN10__cxxabiv120__si_class_type_infoE, i64 2), ptr @_ZTS34notnull_tests_TestMakeNotNull_Test, ptr @_ZTIN7testing4TestE }, align 8
@_ZTV30notnull_tests_TestStdHash_Test = dso_local unnamed_addr constant { [8 x ptr] } { [8 x ptr] [ptr null, ptr @_ZTI30notnull_tests_TestStdHash_Test, ptr @_ZN30notnull_tests_TestStdHash_TestD2Ev, ptr @_ZN30notnull_tests_TestStdHash_TestD0Ev, ptr @_ZN7testing4Test5SetUpEv, ptr @_ZN7testing4Test8TearDownEv, ptr @_ZN30notnull_tests_TestStdHash_Test8TestBodyEv, ptr @_ZN7testing4Test5SetupEv] }, align 8
@_ZTS30notnull_tests_TestStdHash_Test = dso_local constant [33 x i8] c"30notnull_tests_TestStdHash_Test\00", align 1
@_ZTI30notnull_tests_TestStdHash_Test = dso_local constant { ptr, ptr, ptr } { ptr getelementptr inbounds (ptr, ptr @_ZTVN10__cxxabiv120__si_class_type_infoE, i64 2), ptr @_ZTS30notnull_tests_TestStdHash_Test, ptr @_ZTIN7testing4TestE }, align 8
@_ZTVN7testing8internal15TestFactoryImplI42notnull_tests_TestNotNullConstructors_TestEE = linkonce_odr dso_local unnamed_addr constant { [5 x ptr] } { [5 x ptr] [ptr null, ptr @_ZTIN7testing8internal15TestFactoryImplI42notnull_tests_TestNotNullConstructors_TestEE, ptr @_ZN7testing8internal15TestFactoryImplI42notnull_tests_TestNotNullConstructors_TestED2Ev, ptr @_ZN7testing8internal15TestFactoryImplI42notnull_tests_TestNotNullConstructors_TestED0Ev, ptr @_ZN7testing8internal15TestFactoryImplI42notnull_tests_TestNotNullConstructors_TestE10CreateTestEv] }, comdat, align 8
@_ZTSN7testing8internal15TestFactoryImplI42notnull_tests_TestNotNullConstructors_TestEE = linkonce_odr dso_local constant [83 x i8] c"N7testing8internal15TestFactoryImplI42notnull_tests_TestNotNullConstructors_TestEE\00", comdat, align 1
@_ZTSN7testing8internal15TestFactoryBaseE = linkonce_odr dso_local constant [37 x i8] c"N7testing8internal15TestFactoryBaseE\00", comdat, align 1
@_ZTIN7testing8internal15TestFactoryBaseE = linkonce_odr dso_local constant { ptr, ptr } { ptr getelementptr inbounds (ptr, ptr @_ZTVN10__cxxabiv117__class_type_infoE, i64 2), ptr @_ZTSN7testing8internal15TestFactoryBaseE }, comdat, align 8
@_ZTIN7testing8internal15TestFactoryImplI42notnull_tests_TestNotNullConstructors_TestEE = linkonce_odr dso_local constant { ptr, ptr, ptr } { ptr getelementptr inbounds (ptr, ptr @_ZTVN10__cxxabiv120__si_class_type_infoE, i64 2), ptr @_ZTSN7testing8internal15TestFactoryImplI42notnull_tests_TestNotNullConstructors_TestEE, ptr @_ZTIN7testing8internal15TestFactoryBaseE }, comdat, align 8
@_ZTVN7testing8internal15TestFactoryBaseE = linkonce_odr dso_local unnamed_addr constant { [5 x ptr] } { [5 x ptr] [ptr null, ptr @_ZTIN7testing8internal15TestFactoryBaseE, ptr @_ZN7testing8internal15TestFactoryBaseD2Ev, ptr @_ZN7testing8internal15TestFactoryBaseD0Ev, ptr @__cxa_pure_virtual] }, comdat, align 8
@_ZSt4cerr = external global %"class.std::basic_ostream", align 8
@.str.88 = private unnamed_addr constant [40 x i8] c"Expected Death. TestNotNullConstructors\00", align 1
@_ZL11deathstring = internal constant [15 x i8] c"Expected Death\00", align 1
@_ZL32failed_set_terminate_deathstring = internal constant [3 x i8] c".*\00", align 1
@__libc_single_threaded = external global i8, align 1
@_ZTVSt15_Sp_counted_ptrIPKN7testing8internal2REELN9__gnu_cxx12_Lock_policyE2EE = linkonce_odr dso_local unnamed_addr constant { [7 x ptr] } { [7 x ptr] [ptr null, ptr @_ZTISt15_Sp_counted_ptrIPKN7testing8internal2REELN9__gnu_cxx12_Lock_policyE2EE, ptr @_ZNSt15_Sp_counted_ptrIPKN7testing8internal2REELN9__gnu_cxx12_Lock_policyE2EED2Ev, ptr @_ZNSt15_Sp_counted_ptrIPKN7testing8internal2REELN9__gnu_cxx12_Lock_policyE2EED0Ev, ptr @_ZNSt15_Sp_counted_ptrIPKN7testing8internal2REELN9__gnu_cxx12_Lock_policyE2EE10_M_disposeEv, ptr @_ZNSt15_Sp_counted_ptrIPKN7testing8internal2REELN9__gnu_cxx12_Lock_policyE2EE10_M_destroyEv, ptr @_ZNSt15_Sp_counted_ptrIPKN7testing8internal2REELN9__gnu_cxx12_Lock_policyE2EE14_M_get_deleterERKSt9type_info] }, comdat, align 8
@_ZTSSt15_Sp_counted_ptrIPKN7testing8internal2REELN9__gnu_cxx12_Lock_policyE2EE = linkonce_odr dso_local constant [75 x i8] c"St15_Sp_counted_ptrIPKN7testing8internal2REELN9__gnu_cxx12_Lock_policyE2EE\00", comdat, align 1
@_ZTSSt16_Sp_counted_baseILN9__gnu_cxx12_Lock_policyE2EE = linkonce_odr dso_local constant [52 x i8] c"St16_Sp_counted_baseILN9__gnu_cxx12_Lock_policyE2EE\00", comdat, align 1
@_ZTSSt11_Mutex_baseILN9__gnu_cxx12_Lock_policyE2EE = linkonce_odr dso_local constant [47 x i8] c"St11_Mutex_baseILN9__gnu_cxx12_Lock_policyE2EE\00", comdat, align 1
@_ZTISt11_Mutex_baseILN9__gnu_cxx12_Lock_policyE2EE = linkonce_odr dso_local constant { ptr, ptr } { ptr getelementptr inbounds (ptr, ptr @_ZTVN10__cxxabiv117__class_type_infoE, i64 2), ptr @_ZTSSt11_Mutex_baseILN9__gnu_cxx12_Lock_policyE2EE }, comdat, align 8
@_ZTISt16_Sp_counted_baseILN9__gnu_cxx12_Lock_policyE2EE = linkonce_odr dso_local constant { ptr, ptr, ptr } { ptr getelementptr inbounds (ptr, ptr @_ZTVN10__cxxabiv120__si_class_type_infoE, i64 2), ptr @_ZTSSt16_Sp_counted_baseILN9__gnu_cxx12_Lock_policyE2EE, ptr @_ZTISt11_Mutex_baseILN9__gnu_cxx12_Lock_policyE2EE }, comdat, align 8
@_ZTISt15_Sp_counted_ptrIPKN7testing8internal2REELN9__gnu_cxx12_Lock_policyE2EE = linkonce_odr dso_local constant { ptr, ptr, ptr } { ptr getelementptr inbounds (ptr, ptr @_ZTVN10__cxxabiv120__si_class_type_infoE, i64 2), ptr @_ZTSSt15_Sp_counted_ptrIPKN7testing8internal2REELN9__gnu_cxx12_Lock_policyE2EE, ptr @_ZTISt16_Sp_counted_baseILN9__gnu_cxx12_Lock_policyE2EE }, comdat, align 8
@_ZTVSt16_Sp_counted_baseILN9__gnu_cxx12_Lock_policyE2EE = linkonce_odr dso_local unnamed_addr constant { [7 x ptr] } { [7 x ptr] [ptr null, ptr @_ZTISt16_Sp_counted_baseILN9__gnu_cxx12_Lock_policyE2EE, ptr @_ZNSt16_Sp_counted_baseILN9__gnu_cxx12_Lock_policyE2EED2Ev, ptr @_ZNSt16_Sp_counted_baseILN9__gnu_cxx12_Lock_policyE2EED0Ev, ptr @__cxa_pure_virtual, ptr @_ZNSt16_Sp_counted_baseILN9__gnu_cxx12_Lock_policyE2EE10_M_destroyEv, ptr @__cxa_pure_virtual] }, comdat, align 8
@_ZTVN7testing18PolymorphicMatcherINS_8internal19MatchesRegexMatcherEE15MonomorphicImplIRKNSt7__cxx1112basic_stringIcSt11char_traitsIcESaIcEEEEE = linkonce_odr dso_local unnamed_addr constant { [7 x ptr] } { [7 x ptr] [ptr null, ptr @_ZTIN7testing18PolymorphicMatcherINS_8internal19MatchesRegexMatcherEE15MonomorphicImplIRKNSt7__cxx1112basic_stringIcSt11char_traitsIcESaIcEEEEE, ptr @_ZN7testing18PolymorphicMatcherINS_8internal19MatchesRegexMatcherEE15MonomorphicImplIRKNSt7__cxx1112basic_stringIcSt11char_traitsIcESaIcEEEED2Ev, ptr @_ZN7testing18PolymorphicMatcherINS_8internal19MatchesRegexMatcherEE15MonomorphicImplIRKNSt7__cxx1112basic_stringIcSt11char_traitsIcESaIcEEEED0Ev, ptr @_ZNK7testing18PolymorphicMatcherINS_8internal19MatchesRegexMatcherEE15MonomorphicImplIRKNSt7__cxx1112basic_stringIcSt11char_traitsIcESaIcEEEE10DescribeToEPSo, ptr @_ZNK7testing18PolymorphicMatcherINS_8internal19MatchesRegexMatcherEE15MonomorphicImplIRKNSt7__cxx1112basic_stringIcSt11char_traitsIcESaIcEEEE18DescribeNegationToEPSo, ptr @_ZNK7testing18PolymorphicMatcherINS_8internal19MatchesRegexMatcherEE15MonomorphicImplIRKNSt7__cxx1112basic_stringIcSt11char_traitsIcESaIcEEEE15MatchAndExplainESC_PNS_19MatchResultListenerE] }, comdat, align 8
@_ZTSN7testing18PolymorphicMatcherINS_8internal19MatchesRegexMatcherEE15MonomorphicImplIRKNSt7__cxx1112basic_stringIcSt11char_traitsIcESaIcEEEEE = linkonce_odr dso_local constant [140 x i8] c"N7testing18PolymorphicMatcherINS_8internal19MatchesRegexMatcherEE15MonomorphicImplIRKNSt7__cxx1112basic_stringIcSt11char_traitsIcESaIcEEEEE\00", comdat, align 1
@_ZTSN7testing16MatcherInterfaceIRKNSt7__cxx1112basic_stringIcSt11char_traitsIcESaIcEEEEE = linkonce_odr dso_local constant [85 x i8] c"N7testing16MatcherInterfaceIRKNSt7__cxx1112basic_stringIcSt11char_traitsIcESaIcEEEEE\00", comdat, align 1
@_ZTSN7testing25MatcherDescriberInterfaceE = linkonce_odr dso_local constant [38 x i8] c"N7testing25MatcherDescriberInterfaceE\00", comdat, align 1
@_ZTIN7testing25MatcherDescriberInterfaceE = linkonce_odr dso_local constant { ptr, ptr } { ptr getelementptr inbounds (ptr, ptr @_ZTVN10__cxxabiv117__class_type_infoE, i64 2), ptr @_ZTSN7testing25MatcherDescriberInterfaceE }, comdat, align 8
@_ZTIN7testing16MatcherInterfaceIRKNSt7__cxx1112basic_stringIcSt11char_traitsIcESaIcEEEEE = linkonce_odr dso_local constant { ptr, ptr, ptr } { ptr getelementptr inbounds (ptr, ptr @_ZTVN10__cxxabiv120__si_class_type_infoE, i64 2), ptr @_ZTSN7testing16MatcherInterfaceIRKNSt7__cxx1112basic_stringIcSt11char_traitsIcESaIcEEEEE, ptr @_ZTIN7testing25MatcherDescriberInterfaceE }, comdat, align 8
@_ZTIN7testing18PolymorphicMatcherINS_8internal19MatchesRegexMatcherEE15MonomorphicImplIRKNSt7__cxx1112basic_stringIcSt11char_traitsIcESaIcEEEEE = linkonce_odr dso_local constant { ptr, ptr, ptr } { ptr getelementptr inbounds (ptr, ptr @_ZTVN10__cxxabiv120__si_class_type_infoE, i64 2), ptr @_ZTSN7testing18PolymorphicMatcherINS_8internal19MatchesRegexMatcherEE15MonomorphicImplIRKNSt7__cxx1112basic_stringIcSt11char_traitsIcESaIcEEEEE, ptr @_ZTIN7testing16MatcherInterfaceIRKNSt7__cxx1112basic_stringIcSt11char_traitsIcESaIcEEEEE }, comdat, align 8
@_ZTVN7testing16MatcherInterfaceIRKNSt7__cxx1112basic_stringIcSt11char_traitsIcESaIcEEEEE = linkonce_odr dso_local unnamed_addr constant { [7 x ptr] } { [7 x ptr] [ptr null, ptr @_ZTIN7testing16MatcherInterfaceIRKNSt7__cxx1112basic_stringIcSt11char_traitsIcESaIcEEEEE, ptr @_ZN7testing16MatcherInterfaceIRKNSt7__cxx1112basic_stringIcSt11char_traitsIcESaIcEEEED2Ev, ptr @_ZN7testing16MatcherInterfaceIRKNSt7__cxx1112basic_stringIcSt11char_traitsIcESaIcEEEED0Ev, ptr @__cxa_pure_virtual, ptr @_ZNK7testing25MatcherDescriberInterface18DescribeNegationToEPSo, ptr @__cxa_pure_virtual] }, comdat, align 8
@_ZTVN7testing25MatcherDescriberInterfaceE = linkonce_odr dso_local unnamed_addr constant { [6 x ptr] } { [6 x ptr] [ptr null, ptr @_ZTIN7testing25MatcherDescriberInterfaceE, ptr @_ZN7testing25MatcherDescriberInterfaceD2Ev, ptr @_ZN7testing25MatcherDescriberInterfaceD0Ev, ptr @__cxa_pure_virtual, ptr @_ZNK7testing25MatcherDescriberInterface18DescribeNegationToEPSo] }, comdat, align 8
@.str.89 = private unnamed_addr constant [6 x i8] c"not (\00", align 1
@.str.90 = private unnamed_addr constant [2 x i8] c")\00", align 1
@.str.91 = private unnamed_addr constant [8 x i8] c"matches\00", align 1
@.str.92 = private unnamed_addr constant [9 x i8] c"contains\00", align 1
@.str.93 = private unnamed_addr constant [21 x i8] c" regular expression \00", align 1
@.str.94 = private unnamed_addr constant [9 x i8] c"doesn't \00", align 1
@.str.95 = private unnamed_addr constant [6 x i8] c"match\00", align 1
@.str.96 = private unnamed_addr constant [8 x i8] c"contain\00", align 1
@_ZTVN7testing7MatcherIRKNSt7__cxx1112basic_stringIcSt11char_traitsIcESaIcEEEEE = linkonce_odr dso_local unnamed_addr constant { [6 x ptr] } { [6 x ptr] [ptr null, ptr @_ZTIN7testing7MatcherIRKNSt7__cxx1112basic_stringIcSt11char_traitsIcESaIcEEEEE, ptr @_ZN7testing7MatcherIRKNSt7__cxx1112basic_stringIcSt11char_traitsIcESaIcEEEED2Ev, ptr @_ZN7testing7MatcherIRKNSt7__cxx1112basic_stringIcSt11char_traitsIcESaIcEEEED0Ev, ptr @_ZNK7testing8internal11MatcherBaseIRKNSt7__cxx1112basic_stringIcSt11char_traitsIcESaIcEEEE10DescribeToEPSo, ptr @_ZNK7testing8internal11MatcherBaseIRKNSt7__cxx1112basic_stringIcSt11char_traitsIcESaIcEEEE18DescribeNegationToEPSo] }, comdat, align 8
@_ZTSN7testing7MatcherIRKNSt7__cxx1112basic_stringIcSt11char_traitsIcESaIcEEEEE = linkonce_odr dso_local constant [75 x i8] c"N7testing7MatcherIRKNSt7__cxx1112basic_stringIcSt11char_traitsIcESaIcEEEEE\00", comdat, align 1
@_ZTVN10__cxxabiv121__vmi_class_type_infoE = external global [0 x ptr]
@_ZTSN7testing8internal11MatcherBaseIRKNSt7__cxx1112basic_stringIcSt11char_traitsIcESaIcEEEEE = linkonce_odr dso_local constant [89 x i8] c"N7testing8internal11MatcherBaseIRKNSt7__cxx1112basic_stringIcSt11char_traitsIcESaIcEEEEE\00", comdat, align 1
@_ZTIN7testing8internal11MatcherBaseIRKNSt7__cxx1112basic_stringIcSt11char_traitsIcESaIcEEEEE = linkonce_odr dso_local constant { ptr, ptr, i32, i32, ptr, i64 } { ptr getelementptr inbounds (ptr, ptr @_ZTVN10__cxxabiv121__vmi_class_type_infoE, i64 2), ptr @_ZTSN7testing8internal11MatcherBaseIRKNSt7__cxx1112basic_stringIcSt11char_traitsIcESaIcEEEEE, i32 0, i32 1, ptr @_ZTIN7testing25MatcherDescriberInterfaceE, i64 0 }, comdat, align 8
@_ZTIN7testing7MatcherIRKNSt7__cxx1112basic_stringIcSt11char_traitsIcESaIcEEEEE = linkonce_odr dso_local constant { ptr, ptr, ptr } { ptr getelementptr inbounds (ptr, ptr @_ZTVN10__cxxabiv120__si_class_type_infoE, i64 2), ptr @_ZTSN7testing7MatcherIRKNSt7__cxx1112basic_stringIcSt11char_traitsIcESaIcEEEEE, ptr @_ZTIN7testing8internal11MatcherBaseIRKNSt7__cxx1112basic_stringIcSt11char_traitsIcESaIcEEEEE }, comdat, align 8
@_ZTVN7testing8internal11MatcherBaseIRKNSt7__cxx1112basic_stringIcSt11char_traitsIcESaIcEEEEE = linkonce_odr dso_local unnamed_addr constant { [6 x ptr] } { [6 x ptr] [ptr null, ptr @_ZTIN7testing8internal11MatcherBaseIRKNSt7__cxx1112basic_stringIcSt11char_traitsIcESaIcEEEEE, ptr @_ZN7testing8internal11MatcherBaseIRKNSt7__cxx1112basic_stringIcSt11char_traitsIcESaIcEEEED2Ev, ptr @_ZN7testing8internal11MatcherBaseIRKNSt7__cxx1112basic_stringIcSt11char_traitsIcESaIcEEEED0Ev, ptr @_ZNK7testing8internal11MatcherBaseIRKNSt7__cxx1112basic_stringIcSt11char_traitsIcESaIcEEEE10DescribeToEPSo, ptr @_ZNK7testing8internal11MatcherBaseIRKNSt7__cxx1112basic_stringIcSt11char_traitsIcESaIcEEEE18DescribeNegationToEPSo] }, comdat, align 8
@_ZZN7testing8internal11MatcherBaseIRKNSt7__cxx1112basic_stringIcSt11char_traitsIcESaIcEEEE9GetVTableINSA_11ValuePolicyIPKNS_16MatcherInterfaceIS9_EELb1EEEEEPKNSA_6VTableEvE7kVTableB5cxx11 = linkonce_odr dso_local constant %"struct.testing::internal::MatcherBase<const std::__cxx11::basic_string<char> &>::VTable" { ptr @_ZN7testing8internal11MatcherBaseIRKNSt7__cxx1112basic_stringIcSt11char_traitsIcESaIcEEEE19MatchAndExplainImplINSA_11ValuePolicyIPKNS_16MatcherInterfaceIS9_EELb1EEEEEDTcldtclsrT_3Getfp_E15MatchAndExplainfp0_fp1_EERKSA_S9_PNS_19MatchResultListenerE, ptr @_ZN7testing8internal11MatcherBaseIRKNSt7__cxx1112basic_stringIcSt11char_traitsIcESaIcEEEE12DescribeImplINSA_11ValuePolicyIPKNS_16MatcherInterfaceIS9_EELb1EEEEEvRKSA_PSob, ptr @_ZN7testing8internal11MatcherBaseIRKNSt7__cxx1112basic_stringIcSt11char_traitsIcESaIcEEEE16GetDescriberImplINSA_11ValuePolicyIPKNS_16MatcherInterfaceIS9_EELb1EEEEEPKNS_25MatcherDescriberInterfaceERKSA_, ptr @_ZN7testing8internal13SharedPayloadISt10unique_ptrIKNS_16MatcherInterfaceIRKNSt7__cxx1112basic_stringIcSt11char_traitsIcESaIcEEEEESt14default_deleteISD_EEE7DestroyEPNS0_17SharedPayloadBaseE }, comdat, align 8
@.str.97 = private unnamed_addr constant [45 x i8] c"generated/usr/include/gtest/gtest-matchers.h\00", align 1
@.str.98 = private unnamed_addr constant [38 x i8] c"Condition vtable_ != nullptr failed. \00", align 1
@_ZTVN7testing8internal15TestFactoryImplI37notnull_tests_TestNotNullostream_TestEE = linkonce_odr dso_local unnamed_addr constant { [5 x ptr] } { [5 x ptr] [ptr null, ptr @_ZTIN7testing8internal15TestFactoryImplI37notnull_tests_TestNotNullostream_TestEE, ptr @_ZN7testing8internal15TestFactoryImplI37notnull_tests_TestNotNullostream_TestED2Ev, ptr @_ZN7testing8internal15TestFactoryImplI37notnull_tests_TestNotNullostream_TestED0Ev, ptr @_ZN7testing8internal15TestFactoryImplI37notnull_tests_TestNotNullostream_TestE10CreateTestEv] }, comdat, align 8
@_ZTSN7testing8internal15TestFactoryImplI37notnull_tests_TestNotNullostream_TestEE = linkonce_odr dso_local constant [78 x i8] c"N7testing8internal15TestFactoryImplI37notnull_tests_TestNotNullostream_TestEE\00", comdat, align 1
@_ZTIN7testing8internal15TestFactoryImplI37notnull_tests_TestNotNullostream_TestEE = linkonce_odr dso_local constant { ptr, ptr, ptr } { ptr getelementptr inbounds (ptr, ptr @_ZTVN10__cxxabiv120__si_class_type_infoE, i64 2), ptr @_ZTSN7testing8internal15TestFactoryImplI37notnull_tests_TestNotNullostream_TestEE, ptr @_ZTIN7testing8internal15TestFactoryBaseE }, comdat, align 8
@_ZTVN7testing8internal15TestFactoryImplI37notnull_tests_TestNotNullCasting_TestEE = linkonce_odr dso_local unnamed_addr constant { [5 x ptr] } { [5 x ptr] [ptr null, ptr @_ZTIN7testing8internal15TestFactoryImplI37notnull_tests_TestNotNullCasting_TestEE, ptr @_ZN7testing8internal15TestFactoryImplI37notnull_tests_TestNotNullCasting_TestED2Ev, ptr @_ZN7testing8internal15TestFactoryImplI37notnull_tests_TestNotNullCasting_TestED0Ev, ptr @_ZN7testing8internal15TestFactoryImplI37notnull_tests_TestNotNullCasting_TestE10CreateTestEv] }, comdat, align 8
@_ZTSN7testing8internal15TestFactoryImplI37notnull_tests_TestNotNullCasting_TestEE = linkonce_odr dso_local constant [78 x i8] c"N7testing8internal15TestFactoryImplI37notnull_tests_TestNotNullCasting_TestEE\00", comdat, align 1
@_ZTIN7testing8internal15TestFactoryImplI37notnull_tests_TestNotNullCasting_TestEE = linkonce_odr dso_local constant { ptr, ptr, ptr } { ptr getelementptr inbounds (ptr, ptr @_ZTVN10__cxxabiv120__si_class_type_infoE, i64 2), ptr @_ZTSN7testing8internal15TestFactoryImplI37notnull_tests_TestNotNullCasting_TestEE, ptr @_ZTIN7testing8internal15TestFactoryBaseE }, comdat, align 8
@_ZTVN7testing8internal15TestFactoryImplI40notnull_tests_TestNotNullAssignment_TestEE = linkonce_odr dso_local unnamed_addr constant { [5 x ptr] } { [5 x ptr] [ptr null, ptr @_ZTIN7testing8internal15TestFactoryImplI40notnull_tests_TestNotNullAssignment_TestEE, ptr @_ZN7testing8internal15TestFactoryImplI40notnull_tests_TestNotNullAssignment_TestED2Ev, ptr @_ZN7testing8internal15TestFactoryImplI40notnull_tests_TestNotNullAssignment_TestED0Ev, ptr @_ZN7testing8internal15TestFactoryImplI40notnull_tests_TestNotNullAssignment_TestE10CreateTestEv] }, comdat, align 8
@_ZTSN7testing8internal15TestFactoryImplI40notnull_tests_TestNotNullAssignment_TestEE = linkonce_odr dso_local constant [81 x i8] c"N7testing8internal15TestFactoryImplI40notnull_tests_TestNotNullAssignment_TestEE\00", comdat, align 1
@_ZTIN7testing8internal15TestFactoryImplI40notnull_tests_TestNotNullAssignment_TestEE = linkonce_odr dso_local constant { ptr, ptr, ptr } { ptr getelementptr inbounds (ptr, ptr @_ZTVN10__cxxabiv120__si_class_type_infoE, i64 2), ptr @_ZTSN7testing8internal15TestFactoryImplI40notnull_tests_TestNotNullAssignment_TestEE, ptr @_ZTIN7testing8internal15TestFactoryBaseE }, comdat, align 8
@.str.99 = private unnamed_addr constant [39 x i8] c"Expected Death. TestNotNullAssignmentd\00", align 1
@_ZTVN7testing8internal15TestFactoryImplI50notnull_tests_TestNotNullRawPointerComparison_TestEE = linkonce_odr dso_local unnamed_addr constant { [5 x ptr] } { [5 x ptr] [ptr null, ptr @_ZTIN7testing8internal15TestFactoryImplI50notnull_tests_TestNotNullRawPointerComparison_TestEE, ptr @_ZN7testing8internal15TestFactoryImplI50notnull_tests_TestNotNullRawPointerComparison_TestED2Ev, ptr @_ZN7testing8internal15TestFactoryImplI50notnull_tests_TestNotNullRawPointerComparison_TestED0Ev, ptr @_ZN7testing8internal15TestFactoryImplI50notnull_tests_TestNotNullRawPointerComparison_TestE10CreateTestEv] }, comdat, align 8
@_ZTSN7testing8internal15TestFactoryImplI50notnull_tests_TestNotNullRawPointerComparison_TestEE = linkonce_odr dso_local constant [91 x i8] c"N7testing8internal15TestFactoryImplI50notnull_tests_TestNotNullRawPointerComparison_TestEE\00", comdat, align 1
@_ZTIN7testing8internal15TestFactoryImplI50notnull_tests_TestNotNullRawPointerComparison_TestEE = linkonce_odr dso_local constant { ptr, ptr, ptr } { ptr getelementptr inbounds (ptr, ptr @_ZTVN10__cxxabiv120__si_class_type_infoE, i64 2), ptr @_ZTSN7testing8internal15TestFactoryImplI50notnull_tests_TestNotNullRawPointerComparison_TestEE, ptr @_ZTIN7testing8internal15TestFactoryBaseE }, comdat, align 8
@_ZTVN7testing8internal15TestFactoryImplI49notnull_tests_TestNotNullDereferenceOperator_TestEE = linkonce_odr dso_local unnamed_addr constant { [5 x ptr] } { [5 x ptr] [ptr null, ptr @_ZTIN7testing8internal15TestFactoryImplI49notnull_tests_TestNotNullDereferenceOperator_TestEE, ptr @_ZN7testing8internal15TestFactoryImplI49notnull_tests_TestNotNullDereferenceOperator_TestED2Ev, ptr @_ZN7testing8internal15TestFactoryImplI49notnull_tests_TestNotNullDereferenceOperator_TestED0Ev, ptr @_ZN7testing8internal15TestFactoryImplI49notnull_tests_TestNotNullDereferenceOperator_TestE10CreateTestEv] }, comdat, align 8
@_ZTSN7testing8internal15TestFactoryImplI49notnull_tests_TestNotNullDereferenceOperator_TestEE = linkonce_odr dso_local constant [90 x i8] c"N7testing8internal15TestFactoryImplI49notnull_tests_TestNotNullDereferenceOperator_TestEE\00", comdat, align 1
@_ZTIN7testing8internal15TestFactoryImplI49notnull_tests_TestNotNullDereferenceOperator_TestEE = linkonce_odr dso_local constant { ptr, ptr, ptr } { ptr getelementptr inbounds (ptr, ptr @_ZTVN10__cxxabiv120__si_class_type_infoE, i64 2), ptr @_ZTSN7testing8internal15TestFactoryImplI49notnull_tests_TestNotNullDereferenceOperator_TestEE, ptr @_ZTIN7testing8internal15TestFactoryBaseE }, comdat, align 8
@_ZTVN7testing8internal15TestFactoryImplI49notnull_tests_TestNotNullSharedPtrComparison_TestEE = linkonce_odr dso_local unnamed_addr constant { [5 x ptr] } { [5 x ptr] [ptr null, ptr @_ZTIN7testing8internal15TestFactoryImplI49notnull_tests_TestNotNullSharedPtrComparison_TestEE, ptr @_ZN7testing8internal15TestFactoryImplI49notnull_tests_TestNotNullSharedPtrComparison_TestED2Ev, ptr @_ZN7testing8internal15TestFactoryImplI49notnull_tests_TestNotNullSharedPtrComparison_TestED0Ev, ptr @_ZN7testing8internal15TestFactoryImplI49notnull_tests_TestNotNullSharedPtrComparison_TestE10CreateTestEv] }, comdat, align 8
@_ZTSN7testing8internal15TestFactoryImplI49notnull_tests_TestNotNullSharedPtrComparison_TestEE = linkonce_odr dso_local constant [90 x i8] c"N7testing8internal15TestFactoryImplI49notnull_tests_TestNotNullSharedPtrComparison_TestEE\00", comdat, align 1
@_ZTIN7testing8internal15TestFactoryImplI49notnull_tests_TestNotNullSharedPtrComparison_TestEE = linkonce_odr dso_local constant { ptr, ptr, ptr } { ptr getelementptr inbounds (ptr, ptr @_ZTVN10__cxxabiv120__si_class_type_infoE, i64 2), ptr @_ZTSN7testing8internal15TestFactoryImplI49notnull_tests_TestNotNullSharedPtrComparison_TestEE, ptr @_ZTIN7testing8internal15TestFactoryBaseE }, comdat, align 8
@_ZTVN7testing8internal15TestFactoryImplI49notnull_tests_TestNotNullCustomPtrComparison_TestEE = linkonce_odr dso_local unnamed_addr constant { [5 x ptr] } { [5 x ptr] [ptr null, ptr @_ZTIN7testing8internal15TestFactoryImplI49notnull_tests_TestNotNullCustomPtrComparison_TestEE, ptr @_ZN7testing8internal15TestFactoryImplI49notnull_tests_TestNotNullCustomPtrComparison_TestED2Ev, ptr @_ZN7testing8internal15TestFactoryImplI49notnull_tests_TestNotNullCustomPtrComparison_TestED0Ev, ptr @_ZN7testing8internal15TestFactoryImplI49notnull_tests_TestNotNullCustomPtrComparison_TestE10CreateTestEv] }, comdat, align 8
@_ZTSN7testing8internal15TestFactoryImplI49notnull_tests_TestNotNullCustomPtrComparison_TestEE = linkonce_odr dso_local constant [90 x i8] c"N7testing8internal15TestFactoryImplI49notnull_tests_TestNotNullCustomPtrComparison_TestEE\00", comdat, align 1
@_ZTIN7testing8internal15TestFactoryImplI49notnull_tests_TestNotNullCustomPtrComparison_TestEE = linkonce_odr dso_local constant { ptr, ptr, ptr } { ptr getelementptr inbounds (ptr, ptr @_ZTVN10__cxxabiv120__si_class_type_infoE, i64 2), ptr @_ZTSN7testing8internal15TestFactoryImplI49notnull_tests_TestNotNullCustomPtrComparison_TestEE, ptr @_ZTIN7testing8internal15TestFactoryBaseE }, comdat, align 8
@_ZTVN7testing8internal15TestFactoryImplI34notnull_tests_TestMakeNotNull_TestEE = linkonce_odr dso_local unnamed_addr constant { [5 x ptr] } { [5 x ptr] [ptr null, ptr @_ZTIN7testing8internal15TestFactoryImplI34notnull_tests_TestMakeNotNull_TestEE, ptr @_ZN7testing8internal15TestFactoryImplI34notnull_tests_TestMakeNotNull_TestED2Ev, ptr @_ZN7testing8internal15TestFactoryImplI34notnull_tests_TestMakeNotNull_TestED0Ev, ptr @_ZN7testing8internal15TestFactoryImplI34notnull_tests_TestMakeNotNull_TestE10CreateTestEv] }, comdat, align 8
@_ZTSN7testing8internal15TestFactoryImplI34notnull_tests_TestMakeNotNull_TestEE = linkonce_odr dso_local constant [75 x i8] c"N7testing8internal15TestFactoryImplI34notnull_tests_TestMakeNotNull_TestEE\00", comdat, align 1
@_ZTIN7testing8internal15TestFactoryImplI34notnull_tests_TestMakeNotNull_TestEE = linkonce_odr dso_local constant { ptr, ptr, ptr } { ptr getelementptr inbounds (ptr, ptr @_ZTVN10__cxxabiv120__si_class_type_infoE, i64 2), ptr @_ZTSN7testing8internal15TestFactoryImplI34notnull_tests_TestMakeNotNull_TestEE, ptr @_ZTIN7testing8internal15TestFactoryBaseE }, comdat, align 8
@.str.100 = private unnamed_addr constant [32 x i8] c"Expected Death. TestMakeNotNull\00", align 1
@_ZTVN7testing8internal15TestFactoryImplI30notnull_tests_TestStdHash_TestEE = linkonce_odr dso_local unnamed_addr constant { [5 x ptr] } { [5 x ptr] [ptr null, ptr @_ZTIN7testing8internal15TestFactoryImplI30notnull_tests_TestStdHash_TestEE, ptr @_ZN7testing8internal15TestFactoryImplI30notnull_tests_TestStdHash_TestED2Ev, ptr @_ZN7testing8internal15TestFactoryImplI30notnull_tests_TestStdHash_TestED0Ev, ptr @_ZN7testing8internal15TestFactoryImplI30notnull_tests_TestStdHash_TestE10CreateTestEv] }, comdat, align 8
@_ZTSN7testing8internal15TestFactoryImplI30notnull_tests_TestStdHash_TestEE = linkonce_odr dso_local constant [71 x i8] c"N7testing8internal15TestFactoryImplI30notnull_tests_TestStdHash_TestEE\00", comdat, align 1
@_ZTIN7testing8internal15TestFactoryImplI30notnull_tests_TestStdHash_TestEE = linkonce_odr dso_local constant { ptr, ptr, ptr } { ptr getelementptr inbounds (ptr, ptr @_ZTVN10__cxxabiv120__si_class_type_infoE, i64 2), ptr @_ZTSN7testing8internal15TestFactoryImplI30notnull_tests_TestStdHash_TestEE, ptr @_ZTIN7testing8internal15TestFactoryBaseE }, comdat, align 8
@.str.101 = private unnamed_addr constant [54 x i8] c"generated/usr/include/gtest/internal/gtest-internal.h\00", align 1
@.str.102 = private unnamed_addr constant [51 x i8] c"Condition !test_case_fp || !test_suite_fp failed. \00", align 1
@.str.103 = private unnamed_addr constant [107 x i8] c"Test can not provide both SetUpTestSuite and SetUpTestCase, please make sure there is only one present at \00", align 1
@.str.104 = private unnamed_addr constant [2 x i8] c":\00", align 1
@.str.105 = private unnamed_addr constant [112 x i8] c"Test can not provide both TearDownTestSuite and TearDownTestCase, please make sure there is only one present at\00", align 1
@_ZTVSt23_Sp_counted_ptr_inplaceIiSaIvELN9__gnu_cxx12_Lock_policyE2EE = linkonce_odr dso_local unnamed_addr constant { [7 x ptr] } { [7 x ptr] [ptr null, ptr @_ZTISt23_Sp_counted_ptr_inplaceIiSaIvELN9__gnu_cxx12_Lock_policyE2EE, ptr @_ZNSt23_Sp_counted_ptr_inplaceIiSaIvELN9__gnu_cxx12_Lock_policyE2EED2Ev, ptr @_ZNSt23_Sp_counted_ptr_inplaceIiSaIvELN9__gnu_cxx12_Lock_policyE2EED0Ev, ptr @_ZNSt23_Sp_counted_ptr_inplaceIiSaIvELN9__gnu_cxx12_Lock_policyE2EE10_M_disposeEv, ptr @_ZNSt23_Sp_counted_ptr_inplaceIiSaIvELN9__gnu_cxx12_Lock_policyE2EE10_M_destroyEv, ptr @_ZNSt23_Sp_counted_ptr_inplaceIiSaIvELN9__gnu_cxx12_Lock_policyE2EE14_M_get_deleterERKSt9type_info] }, comdat, align 8
@_ZTSSt23_Sp_counted_ptr_inplaceIiSaIvELN9__gnu_cxx12_Lock_policyE2EE = linkonce_odr dso_local constant [65 x i8] c"St23_Sp_counted_ptr_inplaceIiSaIvELN9__gnu_cxx12_Lock_policyE2EE\00", comdat, align 1
@_ZTISt23_Sp_counted_ptr_inplaceIiSaIvELN9__gnu_cxx12_Lock_policyE2EE = linkonce_odr dso_local constant { ptr, ptr, ptr } { ptr getelementptr inbounds (ptr, ptr @_ZTVN10__cxxabiv120__si_class_type_infoE, i64 2), ptr @_ZTSSt23_Sp_counted_ptr_inplaceIiSaIvELN9__gnu_cxx12_Lock_policyE2EE, ptr @_ZTISt16_Sp_counted_baseILN9__gnu_cxx12_Lock_policyE2EE }, comdat, align 8
@_ZTSSt19_Sp_make_shared_tag = linkonce_odr dso_local constant [24 x i8] c"St19_Sp_make_shared_tag\00", comdat, align 1
@_ZTISt19_Sp_make_shared_tag = linkonce_odr dso_local constant { ptr, ptr } { ptr getelementptr inbounds (ptr, ptr @_ZTVN10__cxxabiv117__class_type_infoE, i64 2), ptr @_ZTSSt19_Sp_make_shared_tag }, comdat, align 8
@_ZZNSt19_Sp_make_shared_tag5_S_tiEvE5__tag = linkonce_odr dso_local constant [16 x i8] zeroinitializer, comdat, align 8
@.str.106 = private unnamed_addr constant [22 x i8] c"os.str() == ref.str()\00", align 1
@_ZTVSt23_Sp_counted_ptr_inplaceI21NonCopyableNonMovableSaIvELN9__gnu_cxx12_Lock_policyE2EE = linkonce_odr dso_local unnamed_addr constant { [7 x ptr] } { [7 x ptr] [ptr null, ptr @_ZTISt23_Sp_counted_ptr_inplaceI21NonCopyableNonMovableSaIvELN9__gnu_cxx12_Lock_policyE2EE, ptr @_ZNSt23_Sp_counted_ptr_inplaceI21NonCopyableNonMovableSaIvELN9__gnu_cxx12_Lock_policyE2EED2Ev, ptr @_ZNSt23_Sp_counted_ptr_inplaceI21NonCopyableNonMovableSaIvELN9__gnu_cxx12_Lock_policyE2EED0Ev, ptr @_ZNSt23_Sp_counted_ptr_inplaceI21NonCopyableNonMovableSaIvELN9__gnu_cxx12_Lock_policyE2EE10_M_disposeEv, ptr @_ZNSt23_Sp_counted_ptr_inplaceI21NonCopyableNonMovableSaIvELN9__gnu_cxx12_Lock_policyE2EE10_M_destroyEv, ptr @_ZNSt23_Sp_counted_ptr_inplaceI21NonCopyableNonMovableSaIvELN9__gnu_cxx12_Lock_policyE2EE14_M_get_deleterERKSt9type_info] }, comdat, align 8
@_ZTSSt23_Sp_counted_ptr_inplaceI21NonCopyableNonMovableSaIvELN9__gnu_cxx12_Lock_policyE2EE = linkonce_odr dso_local constant [87 x i8] c"St23_Sp_counted_ptr_inplaceI21NonCopyableNonMovableSaIvELN9__gnu_cxx12_Lock_policyE2EE\00", comdat, align 1
@_ZTISt23_Sp_counted_ptr_inplaceI21NonCopyableNonMovableSaIvELN9__gnu_cxx12_Lock_policyE2EE = linkonce_odr dso_local constant { ptr, ptr, ptr } { ptr getelementptr inbounds (ptr, ptr @_ZTVN10__cxxabiv120__si_class_type_infoE, i64 2), ptr @_ZTSSt23_Sp_counted_ptr_inplaceI21NonCopyableNonMovableSaIvELN9__gnu_cxx12_Lock_policyE2EE, ptr @_ZTISt16_Sp_counted_baseILN9__gnu_cxx12_Lock_policyE2EE }, comdat, align 8
@_ZTVSt23_Sp_counted_ptr_inplaceIKiSaIvELN9__gnu_cxx12_Lock_policyE2EE = linkonce_odr dso_local unnamed_addr constant { [7 x ptr] } { [7 x ptr] [ptr null, ptr @_ZTISt23_Sp_counted_ptr_inplaceIKiSaIvELN9__gnu_cxx12_Lock_policyE2EE, ptr @_ZNSt23_Sp_counted_ptr_inplaceIKiSaIvELN9__gnu_cxx12_Lock_policyE2EED2Ev, ptr @_ZNSt23_Sp_counted_ptr_inplaceIKiSaIvELN9__gnu_cxx12_Lock_policyE2EED0Ev, ptr @_ZNSt23_Sp_counted_ptr_inplaceIKiSaIvELN9__gnu_cxx12_Lock_policyE2EE10_M_disposeEv, ptr @_ZNSt23_Sp_counted_ptr_inplaceIKiSaIvELN9__gnu_cxx12_Lock_policyE2EE10_M_destroyEv, ptr @_ZNSt23_Sp_counted_ptr_inplaceIKiSaIvELN9__gnu_cxx12_Lock_policyE2EE14_M_get_deleterERKSt9type_info] }, comdat, align 8
@_ZTSSt23_Sp_counted_ptr_inplaceIKiSaIvELN9__gnu_cxx12_Lock_policyE2EE = linkonce_odr dso_local constant [66 x i8] c"St23_Sp_counted_ptr_inplaceIKiSaIvELN9__gnu_cxx12_Lock_policyE2EE\00", comdat, align 1
@_ZTISt23_Sp_counted_ptr_inplaceIKiSaIvELN9__gnu_cxx12_Lock_policyE2EE = linkonce_odr dso_local constant { ptr, ptr, ptr } { ptr getelementptr inbounds (ptr, ptr @_ZTVN10__cxxabiv120__si_class_type_infoE, i64 2), ptr @_ZTSSt23_Sp_counted_ptr_inplaceIKiSaIvELN9__gnu_cxx12_Lock_policyE2EE, ptr @_ZTISt16_Sp_counted_baseILN9__gnu_cxx12_Lock_policyE2EE }, comdat, align 8
@llvm.global_ctors = appending global [1 x { i32, ptr, ptr }] [{ i32, ptr, ptr } { i32 65535, ptr @_GLOBAL__sub_I_notnull_tests.cpp, ptr null }]

; Function Attrs: uwtable
define internal void @__cxx_global_var_init() #0 section ".text.startup" {
entry:
  call void @_ZNSt8ios_base4InitC1Ev(ptr noundef nonnull align 1 dereferenceable(1) @_ZStL8__ioinit)
  %0 = call i32 @__cxa_atexit(ptr @_ZNSt8ios_base4InitD1Ev, ptr @_ZStL8__ioinit, ptr @__dso_handle) #3
  ret void
}

declare void @_ZNSt8ios_base4InitC1Ev(ptr noundef nonnull align 1 dereferenceable(1)) unnamed_addr #1

; Function Attrs: nounwind
declare void @_ZNSt8ios_base4InitD1Ev(ptr noundef nonnull align 1 dereferenceable(1)) unnamed_addr #2

; Function Attrs: nounwind
declare i32 @__cxa_atexit(ptr, ptr, ptr) #3

; Function Attrs: uwtable
define internal void @__cxx_global_var_init.1() #0 section ".text.startup" personality ptr @__gxx_personality_v0 {
entry:
  %agg.tmp = alloca %"struct.testing::internal::CodeLocation", align 8
  %ref.tmp = alloca %"class.std::__cxx11::basic_string", align 8
  %ref.tmp1 = alloca %"class.std::allocator", align 1
  %exn.slot = alloca ptr, align 8
  %ehselector.slot = alloca i32, align 4
  call void @_ZNSaIcEC1Ev(ptr noundef nonnull align 1 dereferenceable(1) %ref.tmp1) #3
  invoke void @_ZNSt7__cxx1112basic_stringIcSt11char_traitsIcESaIcEEC1EPKcRKS3_(ptr noundef nonnull align 8 dereferenceable(32) %ref.tmp, ptr noundef @.str.3, ptr noundef nonnull align 1 dereferenceable(1) %ref.tmp1)
          to label %invoke.cont unwind label %lpad

invoke.cont:                                      ; preds = %entry
  invoke void @_ZN7testing8internal12CodeLocationC2ERKNSt7__cxx1112basic_stringIcSt11char_traitsIcESaIcEEEi(ptr noundef nonnull align 8 dereferenceable(36) %agg.tmp, ptr noundef nonnull align 8 dereferenceable(32) %ref.tmp, i32 noundef 144)
          to label %invoke.cont3 unwind label %lpad2

invoke.cont3:                                     ; preds = %invoke.cont
  %call = invoke noundef ptr @_ZN7testing8internal13GetTestTypeIdEv()
          to label %invoke.cont5 unwind label %lpad4

invoke.cont5:                                     ; preds = %invoke.cont3
  %call7 = invoke noundef ptr @_ZN7testing8internal16SuiteApiResolverINS_4TestEE19GetSetUpCaseOrSuiteEPKci(ptr noundef @.str.3, i32 noundef 144)
          to label %invoke.cont6 unwind label %lpad4

invoke.cont6:                                     ; preds = %invoke.cont5
  %call9 = invoke noundef ptr @_ZN7testing8internal16SuiteApiResolverINS_4TestEE22GetTearDownCaseOrSuiteEPKci(ptr noundef @.str.3, i32 noundef 144)
          to label %invoke.cont8 unwind label %lpad4

invoke.cont8:                                     ; preds = %invoke.cont6
  %call11 = invoke noalias noundef nonnull ptr @_Znwm(i64 noundef 8) #16
          to label %invoke.cont10 unwind label %lpad4

invoke.cont10:                                    ; preds = %invoke.cont8
  invoke void @_ZN7testing8internal15TestFactoryImplI42notnull_tests_TestNotNullConstructors_TestEC2Ev(ptr noundef nonnull align 8 dereferenceable(8) %call11)
          to label %invoke.cont13 unwind label %lpad12

invoke.cont13:                                    ; preds = %invoke.cont10
  %call15 = invoke noundef ptr @_ZN7testing8internal23MakeAndRegisterTestInfoEPKcS2_S2_S2_NS0_12CodeLocationEPKvPFvvES7_PNS0_15TestFactoryBaseE(ptr noundef @.str, ptr noundef @.str.2, ptr noundef null, ptr noundef null, ptr noundef %agg.tmp, ptr noundef %call, ptr noundef %call7, ptr noundef %call9, ptr noundef %call11)
          to label %invoke.cont14 unwind label %lpad4

invoke.cont14:                                    ; preds = %invoke.cont13
  call void @_ZN7testing8internal12CodeLocationD2Ev(ptr noundef nonnull align 8 dereferenceable(36) %agg.tmp) #3
  call void @_ZNSt7__cxx1112basic_stringIcSt11char_traitsIcESaIcEED1Ev(ptr noundef nonnull align 8 dereferenceable(32) %ref.tmp) #3
  call void @_ZNSaIcED1Ev(ptr noundef nonnull align 1 dereferenceable(1) %ref.tmp1) #3
  store ptr %call15, ptr @_ZN42notnull_tests_TestNotNullConstructors_Test10test_info_E, align 8
  ret void

lpad:                                             ; preds = %entry
  %0 = landingpad { ptr, i32 }
          cleanup
  %1 = extractvalue { ptr, i32 } %0, 0
  store ptr %1, ptr %exn.slot, align 8
  %2 = extractvalue { ptr, i32 } %0, 1
  store i32 %2, ptr %ehselector.slot, align 4
  br label %ehcleanup17

lpad2:                                            ; preds = %invoke.cont
  %3 = landingpad { ptr, i32 }
          cleanup
  %4 = extractvalue { ptr, i32 } %3, 0
  store ptr %4, ptr %exn.slot, align 8
  %5 = extractvalue { ptr, i32 } %3, 1
  store i32 %5, ptr %ehselector.slot, align 4
  br label %ehcleanup16

lpad4:                                            ; preds = %invoke.cont13, %invoke.cont8, %invoke.cont6, %invoke.cont5, %invoke.cont3
  %6 = landingpad { ptr, i32 }
          cleanup
  %7 = extractvalue { ptr, i32 } %6, 0
  store ptr %7, ptr %exn.slot, align 8
  %8 = extractvalue { ptr, i32 } %6, 1
  store i32 %8, ptr %ehselector.slot, align 4
  br label %ehcleanup

lpad12:                                           ; preds = %invoke.cont10
  %9 = landingpad { ptr, i32 }
          cleanup
  %10 = extractvalue { ptr, i32 } %9, 0
  store ptr %10, ptr %exn.slot, align 8
  %11 = extractvalue { ptr, i32 } %9, 1
  store i32 %11, ptr %ehselector.slot, align 4
  call void @_ZdlPv(ptr noundef %call11) #17
  br label %ehcleanup

ehcleanup:                                        ; preds = %lpad12, %lpad4
  call void @_ZN7testing8internal12CodeLocationD2Ev(ptr noundef nonnull align 8 dereferenceable(36) %agg.tmp) #3
  br label %ehcleanup16

ehcleanup16:                                      ; preds = %ehcleanup, %lpad2
  call void @_ZNSt7__cxx1112basic_stringIcSt11char_traitsIcESaIcEED1Ev(ptr noundef nonnull align 8 dereferenceable(32) %ref.tmp) #3
  br label %ehcleanup17

ehcleanup17:                                      ; preds = %ehcleanup16, %lpad
  call void @_ZNSaIcED1Ev(ptr noundef nonnull align 1 dereferenceable(1) %ref.tmp1) #3
  br label %eh.resume

eh.resume:                                        ; preds = %ehcleanup17
  %exn = load ptr, ptr %exn.slot, align 8
  %sel = load i32, ptr %ehselector.slot, align 4
  %lpad.val = insertvalue { ptr, i32 } poison, ptr %exn, 0
  %lpad.val18 = insertvalue { ptr, i32 } %lpad.val, i32 %sel, 1
  resume { ptr, i32 } %lpad.val18
}

declare noundef ptr @_ZN7testing8internal23MakeAndRegisterTestInfoEPKcS2_S2_S2_NS0_12CodeLocationEPKvPFvvES7_PNS0_15TestFactoryBaseE(ptr noundef, ptr noundef, ptr noundef, ptr noundef, ptr noundef, ptr noundef, ptr noundef, ptr noundef, ptr noundef) #1

; Function Attrs: nounwind
declare void @_ZNSaIcEC1Ev(ptr noundef nonnull align 1 dereferenceable(1)) unnamed_addr #2

declare void @_ZNSt7__cxx1112basic_stringIcSt11char_traitsIcESaIcEEC1EPKcRKS3_(ptr noundef nonnull align 8 dereferenceable(32), ptr noundef, ptr noundef nonnull align 1 dereferenceable(1)) unnamed_addr #1

declare i32 @__gxx_personality_v0(...)

; Function Attrs: mustprogress uwtable
define linkonce_odr dso_local void @_ZN7testing8internal12CodeLocationC2ERKNSt7__cxx1112basic_stringIcSt11char_traitsIcESaIcEEEi(ptr noundef nonnull align 8 dereferenceable(36) %this, ptr noundef nonnull align 8 dereferenceable(32) %a_file, i32 noundef %a_line) unnamed_addr #4 comdat align 2 {
entry:
  %this.addr = alloca ptr, align 8
  %a_file.addr = alloca ptr, align 8
  %a_line.addr = alloca i32, align 4
  store ptr %this, ptr %this.addr, align 8
  store ptr %a_file, ptr %a_file.addr, align 8
  store i32 %a_line, ptr %a_line.addr, align 4
  %this1 = load ptr, ptr %this.addr, align 8
  %file = getelementptr inbounds %"struct.testing::internal::CodeLocation", ptr %this1, i32 0, i32 0
  %0 = load ptr, ptr %a_file.addr, align 8
  call void @_ZNSt7__cxx1112basic_stringIcSt11char_traitsIcESaIcEEC1ERKS4_(ptr noundef nonnull align 8 dereferenceable(32) %file, ptr noundef nonnull align 8 dereferenceable(32) %0)
  %line = getelementptr inbounds %"struct.testing::internal::CodeLocation", ptr %this1, i32 0, i32 1
  %1 = load i32, ptr %a_line.addr, align 4
  store i32 %1, ptr %line, align 8
  ret void
}

declare noundef ptr @_ZN7testing8internal13GetTestTypeIdEv() #1

; Function Attrs: mustprogress uwtable
define linkonce_odr dso_local noundef ptr @_ZN7testing8internal16SuiteApiResolverINS_4TestEE19GetSetUpCaseOrSuiteEPKci(ptr noundef %filename, i32 noundef %line_num) #4 comdat align 2 personality ptr @__gxx_personality_v0 {
entry:
  %filename.addr = alloca ptr, align 8
  %line_num.addr = alloca i32, align 4
  %test_case_fp = alloca ptr, align 8
  %test_suite_fp = alloca ptr, align 8
  %ref.tmp = alloca %"class.testing::internal::GTestLog", align 4
  %exn.slot = alloca ptr, align 8
  %ehselector.slot = alloca i32, align 4
  store ptr %filename, ptr %filename.addr, align 8
  store i32 %line_num, ptr %line_num.addr, align 4
  %call = call noundef ptr @_ZN7testing8internal19GetNotDefaultOrNullEPFvvES2_(ptr noundef @_ZN7testing4Test13SetUpTestCaseEv, ptr noundef @_ZN7testing4Test13SetUpTestCaseEv)
  store ptr %call, ptr %test_case_fp, align 8
  %call1 = call noundef ptr @_ZN7testing8internal19GetNotDefaultOrNullEPFvvES2_(ptr noundef @_ZN7testing4Test14SetUpTestSuiteEv, ptr noundef @_ZN7testing4Test14SetUpTestSuiteEv)
  store ptr %call1, ptr %test_suite_fp, align 8
  %0 = load ptr, ptr %test_case_fp, align 8
  %tobool = icmp ne ptr %0, null
  br i1 %tobool, label %lor.rhs, label %lor.end

lor.rhs:                                          ; preds = %entry
  %1 = load ptr, ptr %test_suite_fp, align 8
  %tobool2 = icmp ne ptr %1, null
  %lnot = xor i1 %tobool2, true
  br label %lor.end

lor.end:                                          ; preds = %lor.rhs, %entry
  %2 = phi i1 [ true, %entry ], [ %lnot, %lor.rhs ]
  %call3 = call noundef zeroext i1 @_ZN7testing8internal6IsTrueEb(i1 noundef zeroext %2)
  br i1 %call3, label %if.then, label %if.else

if.then:                                          ; preds = %lor.end
  br label %if.end

if.else:                                          ; preds = %lor.end
  call void @_ZN7testing8internal8GTestLogC1ENS0_16GTestLogSeverityEPKci(ptr noundef nonnull align 4 dereferenceable(4) %ref.tmp, i32 noundef 3, ptr noundef @.str.101, i32 noundef 529)
  %call4 = call noundef nonnull align 8 dereferenceable(8) ptr @_ZN7testing8internal8GTestLog9GetStreamEv(ptr noundef nonnull align 4 dereferenceable(4) %ref.tmp)
  %call5 = invoke noundef nonnull align 8 dereferenceable(8) ptr @_ZStlsISt11char_traitsIcEERSt13basic_ostreamIcT_ES5_PKc(ptr noundef nonnull align 8 dereferenceable(8) %call4, ptr noundef @.str.102)
          to label %invoke.cont unwind label %lpad

invoke.cont:                                      ; preds = %if.else
  %call7 = invoke noundef nonnull align 8 dereferenceable(8) ptr @_ZStlsISt11char_traitsIcEERSt13basic_ostreamIcT_ES5_PKc(ptr noundef nonnull align 8 dereferenceable(8) %call5, ptr noundef @.str.103)
          to label %invoke.cont6 unwind label %lpad

invoke.cont6:                                     ; preds = %invoke.cont
  %3 = load ptr, ptr %filename.addr, align 8
  %call9 = invoke noundef nonnull align 8 dereferenceable(8) ptr @_ZStlsISt11char_traitsIcEERSt13basic_ostreamIcT_ES5_PKc(ptr noundef nonnull align 8 dereferenceable(8) %call7, ptr noundef %3)
          to label %invoke.cont8 unwind label %lpad

invoke.cont8:                                     ; preds = %invoke.cont6
  %call11 = invoke noundef nonnull align 8 dereferenceable(8) ptr @_ZStlsISt11char_traitsIcEERSt13basic_ostreamIcT_ES5_PKc(ptr noundef nonnull align 8 dereferenceable(8) %call9, ptr noundef @.str.104)
          to label %invoke.cont10 unwind label %lpad

invoke.cont10:                                    ; preds = %invoke.cont8
  %4 = load i32, ptr %line_num.addr, align 4
  %call13 = invoke noundef nonnull align 8 dereferenceable(8) ptr @_ZNSolsEi(ptr noundef nonnull align 8 dereferenceable(8) %call11, i32 noundef %4)
          to label %invoke.cont12 unwind label %lpad

invoke.cont12:                                    ; preds = %invoke.cont10
  call void @_ZN7testing8internal8GTestLogD1Ev(ptr noundef nonnull align 4 dereferenceable(4) %ref.tmp) #3
  br label %if.end

lpad:                                             ; preds = %invoke.cont10, %invoke.cont8, %invoke.cont6, %invoke.cont, %if.else
  %5 = landingpad { ptr, i32 }
          cleanup
  %6 = extractvalue { ptr, i32 } %5, 0
  store ptr %6, ptr %exn.slot, align 8
  %7 = extractvalue { ptr, i32 } %5, 1
  store i32 %7, ptr %ehselector.slot, align 4
  call void @_ZN7testing8internal8GTestLogD1Ev(ptr noundef nonnull align 4 dereferenceable(4) %ref.tmp) #3
  br label %eh.resume

if.end:                                           ; preds = %invoke.cont12, %if.then
  %8 = load ptr, ptr %test_case_fp, align 8
  %cmp = icmp ne ptr %8, null
  br i1 %cmp, label %cond.true, label %cond.false

cond.true:                                        ; preds = %if.end
  %9 = load ptr, ptr %test_case_fp, align 8
  br label %cond.end

cond.false:                                       ; preds = %if.end
  %10 = load ptr, ptr %test_suite_fp, align 8
  br label %cond.end

cond.end:                                         ; preds = %cond.false, %cond.true
  %cond = phi ptr [ %9, %cond.true ], [ %10, %cond.false ]
  ret ptr %cond

eh.resume:                                        ; preds = %lpad
  %exn = load ptr, ptr %exn.slot, align 8
  %sel = load i32, ptr %ehselector.slot, align 4
  %lpad.val = insertvalue { ptr, i32 } poison, ptr %exn, 0
  %lpad.val14 = insertvalue { ptr, i32 } %lpad.val, i32 %sel, 1
  resume { ptr, i32 } %lpad.val14
}

; Function Attrs: mustprogress uwtable
define linkonce_odr dso_local noundef ptr @_ZN7testing8internal16SuiteApiResolverINS_4TestEE22GetTearDownCaseOrSuiteEPKci(ptr noundef %filename, i32 noundef %line_num) #4 comdat align 2 personality ptr @__gxx_personality_v0 {
entry:
  %filename.addr = alloca ptr, align 8
  %line_num.addr = alloca i32, align 4
  %test_case_fp = alloca ptr, align 8
  %test_suite_fp = alloca ptr, align 8
  %ref.tmp = alloca %"class.testing::internal::GTestLog", align 4
  %exn.slot = alloca ptr, align 8
  %ehselector.slot = alloca i32, align 4
  store ptr %filename, ptr %filename.addr, align 8
  store i32 %line_num, ptr %line_num.addr, align 4
  %call = call noundef ptr @_ZN7testing8internal19GetNotDefaultOrNullEPFvvES2_(ptr noundef @_ZN7testing4Test16TearDownTestCaseEv, ptr noundef @_ZN7testing4Test16TearDownTestCaseEv)
  store ptr %call, ptr %test_case_fp, align 8
  %call1 = call noundef ptr @_ZN7testing8internal19GetNotDefaultOrNullEPFvvES2_(ptr noundef @_ZN7testing4Test17TearDownTestSuiteEv, ptr noundef @_ZN7testing4Test17TearDownTestSuiteEv)
  store ptr %call1, ptr %test_suite_fp, align 8
  %0 = load ptr, ptr %test_case_fp, align 8
  %tobool = icmp ne ptr %0, null
  br i1 %tobool, label %lor.rhs, label %lor.end

lor.rhs:                                          ; preds = %entry
  %1 = load ptr, ptr %test_suite_fp, align 8
  %tobool2 = icmp ne ptr %1, null
  %lnot = xor i1 %tobool2, true
  br label %lor.end

lor.end:                                          ; preds = %lor.rhs, %entry
  %2 = phi i1 [ true, %entry ], [ %lnot, %lor.rhs ]
  %call3 = call noundef zeroext i1 @_ZN7testing8internal6IsTrueEb(i1 noundef zeroext %2)
  br i1 %call3, label %if.then, label %if.else

if.then:                                          ; preds = %lor.end
  br label %if.end

if.else:                                          ; preds = %lor.end
  call void @_ZN7testing8internal8GTestLogC1ENS0_16GTestLogSeverityEPKci(ptr noundef nonnull align 4 dereferenceable(4) %ref.tmp, i32 noundef 3, ptr noundef @.str.101, i32 noundef 550)
  %call4 = call noundef nonnull align 8 dereferenceable(8) ptr @_ZN7testing8internal8GTestLog9GetStreamEv(ptr noundef nonnull align 4 dereferenceable(4) %ref.tmp)
  %call5 = invoke noundef nonnull align 8 dereferenceable(8) ptr @_ZStlsISt11char_traitsIcEERSt13basic_ostreamIcT_ES5_PKc(ptr noundef nonnull align 8 dereferenceable(8) %call4, ptr noundef @.str.102)
          to label %invoke.cont unwind label %lpad

invoke.cont:                                      ; preds = %if.else
  %call7 = invoke noundef nonnull align 8 dereferenceable(8) ptr @_ZStlsISt11char_traitsIcEERSt13basic_ostreamIcT_ES5_PKc(ptr noundef nonnull align 8 dereferenceable(8) %call5, ptr noundef @.str.105)
          to label %invoke.cont6 unwind label %lpad

invoke.cont6:                                     ; preds = %invoke.cont
  %3 = load ptr, ptr %filename.addr, align 8
  %call9 = invoke noundef nonnull align 8 dereferenceable(8) ptr @_ZStlsISt11char_traitsIcEERSt13basic_ostreamIcT_ES5_PKc(ptr noundef nonnull align 8 dereferenceable(8) %call7, ptr noundef %3)
          to label %invoke.cont8 unwind label %lpad

invoke.cont8:                                     ; preds = %invoke.cont6
  %call11 = invoke noundef nonnull align 8 dereferenceable(8) ptr @_ZStlsISt11char_traitsIcEERSt13basic_ostreamIcT_ES5_PKc(ptr noundef nonnull align 8 dereferenceable(8) %call9, ptr noundef @.str.104)
          to label %invoke.cont10 unwind label %lpad

invoke.cont10:                                    ; preds = %invoke.cont8
  %4 = load i32, ptr %line_num.addr, align 4
  %call13 = invoke noundef nonnull align 8 dereferenceable(8) ptr @_ZNSolsEi(ptr noundef nonnull align 8 dereferenceable(8) %call11, i32 noundef %4)
          to label %invoke.cont12 unwind label %lpad

invoke.cont12:                                    ; preds = %invoke.cont10
  call void @_ZN7testing8internal8GTestLogD1Ev(ptr noundef nonnull align 4 dereferenceable(4) %ref.tmp) #3
  br label %if.end

lpad:                                             ; preds = %invoke.cont10, %invoke.cont8, %invoke.cont6, %invoke.cont, %if.else
  %5 = landingpad { ptr, i32 }
          cleanup
  %6 = extractvalue { ptr, i32 } %5, 0
  store ptr %6, ptr %exn.slot, align 8
  %7 = extractvalue { ptr, i32 } %5, 1
  store i32 %7, ptr %ehselector.slot, align 4
  call void @_ZN7testing8internal8GTestLogD1Ev(ptr noundef nonnull align 4 dereferenceable(4) %ref.tmp) #3
  br label %eh.resume

if.end:                                           ; preds = %invoke.cont12, %if.then
  %8 = load ptr, ptr %test_case_fp, align 8
  %cmp = icmp ne ptr %8, null
  br i1 %cmp, label %cond.true, label %cond.false

cond.true:                                        ; preds = %if.end
  %9 = load ptr, ptr %test_case_fp, align 8
  br label %cond.end

cond.false:                                       ; preds = %if.end
  %10 = load ptr, ptr %test_suite_fp, align 8
  br label %cond.end

cond.end:                                         ; preds = %cond.false, %cond.true
  %cond = phi ptr [ %9, %cond.true ], [ %10, %cond.false ]
  ret ptr %cond

eh.resume:                                        ; preds = %lpad
  %exn = load ptr, ptr %exn.slot, align 8
  %sel = load i32, ptr %ehselector.slot, align 4
  %lpad.val = insertvalue { ptr, i32 } poison, ptr %exn, 0
  %lpad.val14 = insertvalue { ptr, i32 } %lpad.val, i32 %sel, 1
  resume { ptr, i32 } %lpad.val14
}

; Function Attrs: nobuiltin allocsize(0)
declare noundef nonnull ptr @_Znwm(i64 noundef) #5

; Function Attrs: mustprogress uwtable
define linkonce_odr dso_local void @_ZN7testing8internal15TestFactoryImplI42notnull_tests_TestNotNullConstructors_TestEC2Ev(ptr noundef nonnull align 8 dereferenceable(8) %this) unnamed_addr #4 comdat align 2 {
entry:
  %this.addr = alloca ptr, align 8
  store ptr %this, ptr %this.addr, align 8
  %this1 = load ptr, ptr %this.addr, align 8
  call void @_ZN7testing8internal15TestFactoryBaseC2Ev(ptr noundef nonnull align 8 dereferenceable(8) %this1)
  store ptr getelementptr inbounds ({ [5 x ptr] }, ptr @_ZTVN7testing8internal15TestFactoryImplI42notnull_tests_TestNotNullConstructors_TestEE, i32 0, inrange i32 0, i32 2), ptr %this1, align 8
  ret void
}

; Function Attrs: nobuiltin nounwind
declare void @_ZdlPv(ptr noundef) #6

; Function Attrs: mustprogress nounwind uwtable
define linkonce_odr dso_local void @_ZN7testing8internal12CodeLocationD2Ev(ptr noundef nonnull align 8 dereferenceable(36) %this) unnamed_addr #7 comdat align 2 {
entry:
  %this.addr = alloca ptr, align 8
  store ptr %this, ptr %this.addr, align 8
  %this1 = load ptr, ptr %this.addr, align 8
  %file = getelementptr inbounds %"struct.testing::internal::CodeLocation", ptr %this1, i32 0, i32 0
  call void @_ZNSt7__cxx1112basic_stringIcSt11char_traitsIcESaIcEED1Ev(ptr noundef nonnull align 8 dereferenceable(32) %file) #3
  ret void
}

; Function Attrs: nounwind
declare void @_ZNSt7__cxx1112basic_stringIcSt11char_traitsIcESaIcEED1Ev(ptr noundef nonnull align 8 dereferenceable(32)) unnamed_addr #2

; Function Attrs: nounwind
declare void @_ZNSaIcED1Ev(ptr noundef nonnull align 1 dereferenceable(1)) unnamed_addr #2

; Function Attrs: mustprogress uwtable
define dso_local void @_ZN42notnull_tests_TestNotNullConstructors_Test8TestBodyEv(ptr noundef nonnull align 8 dereferenceable(16) %this) unnamed_addr #4 align 2 personality ptr @__gxx_personality_v0 {
entry:
  %this.addr = alloca ptr, align 8
  %terminateHandler = alloca ptr, align 8
  %ref.tmp = alloca %class.anon, align 1
  %expected = alloca ptr, align 8
  %i = alloca i32, align 4
  %rp = alloca %struct.RefCounted, align 8
  %p = alloca %"class.gsl::not_null", align 8
  %gtest_ar_ = alloca %"class.testing::AssertionResult", align 8
  %ref.tmp4 = alloca i8, align 1
  %exn.slot = alloca ptr, align 8
  %ehselector.slot = alloca i32, align 4
  %ref.tmp7 = alloca %"class.testing::Message", align 8
  %ref.tmp9 = alloca %"class.testing::internal::AssertHelper", align 8
  %ref.tmp10 = alloca %"class.std::__cxx11::basic_string", align 8
  %x = alloca %"class.gsl::not_null.10", align 8
  %agg.tmp = alloca %"class.std::shared_ptr", align 8
  %ref.tmp20 = alloca i32, align 4
  %pi = alloca ptr, align 8
  %gtest_dt = alloca ptr, align 8
  %agg.tmp25 = alloca %"class.testing::Matcher", align 8
  %gtest_dt_ptr = alloca %"class.std::unique_ptr.11", align 8
  %gtest_sentinel = alloca %"class.testing::internal::DeathTest::ReturnSentinel", align 8
  %agg.tmp.ensured = alloca %"class.gsl::not_null", align 8
  %gtest_exception = alloca ptr, align 8
  %ref.tmp68 = alloca %"class.std::__cxx11::basic_string", align 8
  %cleanup.dest.slot = alloca i32, align 4
  %ref.tmp94 = alloca %"class.testing::Message", align 8
  %ref.tmp96 = alloca %"class.testing::internal::AssertHelper", align 8
  %t = alloca i32, align 4
  %x107 = alloca %"class.gsl::not_null", align 8
  %agg.tmp108 = alloca %"class.gsl::not_null", align 8
  %agg.tmp110 = alloca %"class.gsl::not_null.19", align 8
  %ref.tmp111 = alloca ptr, align 8
  %gtest_ar_114 = alloca %"class.testing::AssertionResult", align 8
  %ref.tmp115 = alloca i8, align 1
  %ref.tmp124 = alloca %"class.testing::Message", align 8
  %ref.tmp126 = alloca %"class.testing::internal::AssertHelper", align 8
  %ref.tmp127 = alloca %"class.std::__cxx11::basic_string", align 8
  %t140 = alloca i32, align 4
  %p141 = alloca ptr, align 8
  %x142 = alloca %"class.gsl::not_null", align 8
  %agg.tmp143 = alloca %"class.gsl::not_null", align 8
  %agg.tmp146 = alloca %"class.gsl::not_null.19", align 8
  %agg.tmp149 = alloca %"class.gsl::not_null", align 8
  %agg.tmp152 = alloca %"class.gsl::not_null.19", align 8
  %gtest_ar_155 = alloca %"class.testing::AssertionResult", align 8
  %ref.tmp156 = alloca i8, align 1
  %ref.tmp165 = alloca %"class.testing::Message", align 8
  %ref.tmp167 = alloca %"class.testing::internal::AssertHelper", align 8
  %ref.tmp168 = alloca %"class.std::__cxx11::basic_string", align 8
  %t181 = alloca i32, align 4
  %cp = alloca ptr, align 8
  %x182 = alloca %"class.gsl::not_null.19", align 8
  %agg.tmp183 = alloca %"class.gsl::not_null.19", align 8
  %agg.tmp186 = alloca %"class.gsl::not_null.19", align 8
  %gtest_ar_189 = alloca %"class.testing::AssertionResult", align 8
  %ref.tmp190 = alloca i8, align 1
  %ref.tmp199 = alloca %"class.testing::Message", align 8
  %ref.tmp201 = alloca %"class.testing::internal::AssertHelper", align 8
  %ref.tmp202 = alloca %"class.std::__cxx11::basic_string", align 8
  %t215 = alloca i32, align 4
  %cp216 = alloca ptr, align 8
  %x217 = alloca %"class.gsl::not_null.19", align 8
  %ref.tmp218 = alloca %"class.gsl::not_null.19", align 8
  %gtest_ar_219 = alloca %"class.testing::AssertionResult", align 8
  %ref.tmp220 = alloca i8, align 1
  %ref.tmp229 = alloca %"class.testing::Message", align 8
  %ref.tmp231 = alloca %"class.testing::internal::AssertHelper", align 8
  %ref.tmp232 = alloca %"class.std::__cxx11::basic_string", align 8
  %gtest_dt247 = alloca ptr, align 8
  %agg.tmp248 = alloca %"class.testing::Matcher", align 8
  %gtest_dt_ptr258 = alloca %"class.std::unique_ptr.11", align 8
  %gtest_sentinel278 = alloca %"class.testing::internal::DeathTest::ReturnSentinel", align 8
  %agg.tmp284 = alloca %"class.gsl::not_null", align 8
  %gtest_exception306 = alloca ptr, align 8
  %ref.tmp308 = alloca %"class.std::__cxx11::basic_string", align 8
  %ref.tmp341 = alloca %"class.testing::Message", align 8
  %ref.tmp342 = alloca %"class.testing::internal::AssertHelper", align 8
  %gtest_dt354 = alloca ptr, align 8
  %agg.tmp355 = alloca %"class.testing::Matcher", align 8
  %gtest_dt_ptr365 = alloca %"class.std::unique_ptr.11", align 8
  %gtest_sentinel385 = alloca %"class.testing::internal::DeathTest::ReturnSentinel", align 8
  %agg.tmp391 = alloca %"class.gsl::not_null.19", align 8
  %ref.tmp392 = alloca ptr, align 8
  %gtest_exception414 = alloca ptr, align 8
  %ref.tmp416 = alloca %"class.std::__cxx11::basic_string", align 8
  %ref.tmp449 = alloca %"class.testing::Message", align 8
  %ref.tmp450 = alloca %"class.testing::internal::AssertHelper", align 8
  store ptr %this, ptr %this.addr, align 8
  %call = call noundef ptr @"_ZZN42notnull_tests_TestNotNullConstructors_Test8TestBodyEvENK3$_0cvPFvvEEv"(ptr noundef nonnull align 1 dereferenceable(1) %ref.tmp) #3
  %call2 = call noundef ptr @_ZSt13set_terminatePFvvE(ptr noundef %call) #3
  store ptr %call2, ptr %terminateHandler, align 8
  %0 = load ptr, ptr %terminateHandler, align 8
  %call3 = call noundef ptr @_Z22GetExpectedDeathStringPFvvE(ptr noundef %0)
  store ptr %call3, ptr %expected, align 8
  store i32 12, ptr %i, align 4
  call void @_ZN10RefCountedIiEC2EPi(ptr noundef nonnull align 8 dereferenceable(8) %rp, ptr noundef %i)
  call void @_ZN3gsl8not_nullIPiEC2IR10RefCountedIiEvEEOT_(ptr noundef nonnull align 8 dereferenceable(8) %p, ptr noundef nonnull align 8 dereferenceable(8) %rp) #3
  %call5 = call noundef ptr @_ZNK3gsl8not_nullIPiE3getEv(ptr noundef nonnull align 8 dereferenceable(8) %p) #3
  %cmp = icmp eq ptr %call5, %i
  %frombool = zext i1 %cmp to i8
  store i8 %frombool, ptr %ref.tmp4, align 1
  call void @_ZN7testing15AssertionResultC2IbEERKT_PNSt9enable_ifIXntsr3std14is_convertibleIS2_S0_EE5valueEvE4typeE(ptr noundef nonnull align 8 dereferenceable(16) %gtest_ar_, ptr noundef nonnull align 1 dereferenceable(1) %ref.tmp4, ptr noundef null)
  %call6 = invoke noundef zeroext i1 @_ZNK7testing15AssertionResultcvbEv(ptr noundef nonnull align 8 dereferenceable(16) %gtest_ar_)
          to label %invoke.cont unwind label %lpad

invoke.cont:                                      ; preds = %entry
  br i1 %call6, label %if.then, label %if.else

if.then:                                          ; preds = %invoke.cont
  br label %if.end

lpad:                                             ; preds = %if.else, %entry
  %1 = landingpad { ptr, i32 }
          cleanup
  %2 = extractvalue { ptr, i32 } %1, 0
  store ptr %2, ptr %exn.slot, align 8
  %3 = extractvalue { ptr, i32 } %1, 1
  store i32 %3, ptr %ehselector.slot, align 4
  br label %ehcleanup19

if.else:                                          ; preds = %invoke.cont
  invoke void @_ZN7testing7MessageC1Ev(ptr noundef nonnull align 8 dereferenceable(8) %ref.tmp7)
          to label %invoke.cont8 unwind label %lpad

invoke.cont8:                                     ; preds = %if.else
  invoke void @_ZN7testing8internal30GetBoolAssertionFailureMessageB5cxx11ERKNS_15AssertionResultEPKcS5_S5_(ptr sret(%"class.std::__cxx11::basic_string") align 8 %ref.tmp10, ptr noundef nonnull align 8 dereferenceable(16) %gtest_ar_, ptr noundef @.str.4, ptr noundef @.str.5, ptr noundef @.str.6)
          to label %invoke.cont12 unwind label %lpad11

invoke.cont12:                                    ; preds = %invoke.cont8
  %call13 = call noundef ptr @_ZNKSt7__cxx1112basic_stringIcSt11char_traitsIcESaIcEE5c_strEv(ptr noundef nonnull align 8 dereferenceable(32) %ref.tmp10) #3
  invoke void @_ZN7testing8internal12AssertHelperC1ENS_14TestPartResult4TypeEPKciS5_(ptr noundef nonnull align 8 dereferenceable(8) %ref.tmp9, i32 noundef 1, ptr noundef @.str.3, i32 noundef 172, ptr noundef %call13)
          to label %invoke.cont15 unwind label %lpad14

invoke.cont15:                                    ; preds = %invoke.cont12
  invoke void @_ZNK7testing8internal12AssertHelperaSERKNS_7MessageE(ptr noundef nonnull align 8 dereferenceable(8) %ref.tmp9, ptr noundef nonnull align 8 dereferenceable(8) %ref.tmp7)
          to label %invoke.cont17 unwind label %lpad16

invoke.cont17:                                    ; preds = %invoke.cont15
  call void @_ZN7testing8internal12AssertHelperD1Ev(ptr noundef nonnull align 8 dereferenceable(8) %ref.tmp9) #3
  call void @_ZNSt7__cxx1112basic_stringIcSt11char_traitsIcESaIcEED1Ev(ptr noundef nonnull align 8 dereferenceable(32) %ref.tmp10) #3
  call void @_ZN7testing7MessageD2Ev(ptr noundef nonnull align 8 dereferenceable(8) %ref.tmp7) #3
  br label %if.end

lpad11:                                           ; preds = %invoke.cont8
  %4 = landingpad { ptr, i32 }
          cleanup
  %5 = extractvalue { ptr, i32 } %4, 0
  store ptr %5, ptr %exn.slot, align 8
  %6 = extractvalue { ptr, i32 } %4, 1
  store i32 %6, ptr %ehselector.slot, align 4
  br label %ehcleanup18

lpad14:                                           ; preds = %invoke.cont12
  %7 = landingpad { ptr, i32 }
          cleanup
  %8 = extractvalue { ptr, i32 } %7, 0
  store ptr %8, ptr %exn.slot, align 8
  %9 = extractvalue { ptr, i32 } %7, 1
  store i32 %9, ptr %ehselector.slot, align 4
  br label %ehcleanup

lpad16:                                           ; preds = %invoke.cont15
  %10 = landingpad { ptr, i32 }
          cleanup
  %11 = extractvalue { ptr, i32 } %10, 0
  store ptr %11, ptr %exn.slot, align 8
  %12 = extractvalue { ptr, i32 } %10, 1
  store i32 %12, ptr %ehselector.slot, align 4
  call void @_ZN7testing8internal12AssertHelperD1Ev(ptr noundef nonnull align 8 dereferenceable(8) %ref.tmp9) #3
  br label %ehcleanup

ehcleanup:                                        ; preds = %lpad16, %lpad14
  call void @_ZNSt7__cxx1112basic_stringIcSt11char_traitsIcESaIcEED1Ev(ptr noundef nonnull align 8 dereferenceable(32) %ref.tmp10) #3
  br label %ehcleanup18

ehcleanup18:                                      ; preds = %ehcleanup, %lpad11
  call void @_ZN7testing7MessageD2Ev(ptr noundef nonnull align 8 dereferenceable(8) %ref.tmp7) #3
  br label %ehcleanup19

if.end:                                           ; preds = %invoke.cont17, %if.then
  call void @_ZN7testing15AssertionResultD2Ev(ptr noundef nonnull align 8 dereferenceable(16) %gtest_ar_) #3
  store i32 10, ptr %ref.tmp20, align 4
  call void @_ZSt11make_sharedIiJiEESt10shared_ptrINSt9enable_ifIXntsr8is_arrayIT_EE5valueES2_E4typeEEDpOT0_(ptr sret(%"class.std::shared_ptr") align 8 %agg.tmp, ptr noundef nonnull align 4 dereferenceable(4) %ref.tmp20)
  call void @_ZN3gsl8not_nullISt10shared_ptrIiEEC2IvEES2_(ptr noundef nonnull align 8 dereferenceable(16) %x, ptr noundef %agg.tmp) #3
  call void @_ZNSt10shared_ptrIiED2Ev(ptr noundef nonnull align 8 dereferenceable(16) %agg.tmp) #3
  store ptr null, ptr %pi, align 8
  %call23 = invoke noundef zeroext i1 @_ZN7testing8internal10AlwaysTrueEv()
          to label %invoke.cont22 unwind label %lpad21

invoke.cont22:                                    ; preds = %if.end
  br i1 %call23, label %if.then24, label %if.else93

if.then24:                                        ; preds = %invoke.cont22
  %13 = load ptr, ptr %expected, align 8
  invoke void @_ZN7testing8internal20MakeDeathTestMatcherB5cxx11EPKc(ptr sret(%"class.testing::Matcher") align 8 %agg.tmp25, ptr noundef %13)
          to label %invoke.cont26 unwind label %lpad21

invoke.cont26:                                    ; preds = %if.then24
  %call29 = invoke noundef zeroext i1 @_ZN7testing8internal9DeathTest6CreateEPKcNS_7MatcherIRKNSt7__cxx1112basic_stringIcSt11char_traitsIcESaIcEEEEES3_iPPS1_(ptr noundef @.str.7, ptr noundef %agg.tmp25, ptr noundef @.str.3, i32 noundef 178, ptr noundef %gtest_dt)
          to label %invoke.cont28 unwind label %lpad27

invoke.cont28:                                    ; preds = %invoke.cont26
  %lnot = xor i1 %call29, true
  call void @_ZN7testing7MatcherIRKNSt7__cxx1112basic_stringIcSt11char_traitsIcESaIcEEEED2Ev(ptr noundef nonnull align 8 dereferenceable(24) %agg.tmp25) #3
  br i1 %lnot, label %if.then31, label %if.end32

if.then31:                                        ; preds = %invoke.cont28
  br label %gtest_label_178

ehcleanup19:                                      ; preds = %ehcleanup18, %lpad
  call void @_ZN7testing15AssertionResultD2Ev(ptr noundef nonnull align 8 dereferenceable(16) %gtest_ar_) #3
  br label %eh.resume

lpad21:                                           ; preds = %gtest_label_178, %if.then24, %if.end
  %14 = landingpad { ptr, i32 }
          cleanup
  %15 = extractvalue { ptr, i32 } %14, 0
  store ptr %15, ptr %exn.slot, align 8
  %16 = extractvalue { ptr, i32 } %14, 1
  store i32 %16, ptr %ehselector.slot, align 4
  br label %ehcleanup106

lpad27:                                           ; preds = %invoke.cont26
  %17 = landingpad { ptr, i32 }
          cleanup
  %18 = extractvalue { ptr, i32 } %17, 0
  store ptr %18, ptr %exn.slot, align 8
  %19 = extractvalue { ptr, i32 } %17, 1
  store i32 %19, ptr %ehselector.slot, align 4
  call void @_ZN7testing7MatcherIRKNSt7__cxx1112basic_stringIcSt11char_traitsIcESaIcEEEED2Ev(ptr noundef nonnull align 8 dereferenceable(24) %agg.tmp25) #3
  br label %ehcleanup106

if.end32:                                         ; preds = %invoke.cont28
  %20 = load ptr, ptr %gtest_dt, align 8
  %cmp33 = icmp ne ptr %20, null
  br i1 %cmp33, label %if.then34, label %if.end92

if.then34:                                        ; preds = %if.end32
  %21 = load ptr, ptr %gtest_dt, align 8
  call void @_ZNSt10unique_ptrIN7testing8internal9DeathTestESt14default_deleteIS2_EEC2IS4_vEEPS2_(ptr noundef nonnull align 8 dereferenceable(8) %gtest_dt_ptr, ptr noundef %21) #3
  %22 = load ptr, ptr %gtest_dt, align 8
  %vtable = load ptr, ptr %22, align 8
  %vfn = getelementptr inbounds ptr, ptr %vtable, i64 2
  %23 = load ptr, ptr %vfn, align 8
  %call37 = invoke noundef i32 %23(ptr noundef nonnull align 8 dereferenceable(8) %22)
          to label %invoke.cont36 unwind label %lpad35

invoke.cont36:                                    ; preds = %if.then34
  switch i32 %call37, label %sw.default [
    i32 0, label %sw.bb
    i32 1, label %sw.bb50
  ]

lpad35:                                           ; preds = %sw.bb50, %invoke.cont42, %invoke.cont40, %sw.bb, %if.then34
  %24 = landingpad { ptr, i32 }
          cleanup
  %25 = extractvalue { ptr, i32 } %24, 0
  store ptr %25, ptr %exn.slot, align 8
  %26 = extractvalue { ptr, i32 } %24, 1
  store i32 %26, ptr %ehselector.slot, align 4
  br label %ehcleanup91

sw.bb:                                            ; preds = %invoke.cont36
  %27 = load ptr, ptr %gtest_dt, align 8
  %28 = load ptr, ptr %gtest_dt, align 8
  %vtable38 = load ptr, ptr %28, align 8
  %vfn39 = getelementptr inbounds ptr, ptr %vtable38, i64 3
  %29 = load ptr, ptr %vfn39, align 8
  %call41 = invoke noundef i32 %29(ptr noundef nonnull align 8 dereferenceable(8) %28)
          to label %invoke.cont40 unwind label %lpad35

invoke.cont40:                                    ; preds = %sw.bb
  %call43 = invoke noundef zeroext i1 @_ZN7testing8internal20ExitedUnsuccessfullyEi(i32 noundef %call41)
          to label %invoke.cont42 unwind label %lpad35

invoke.cont42:                                    ; preds = %invoke.cont40
  %vtable44 = load ptr, ptr %27, align 8
  %vfn45 = getelementptr inbounds ptr, ptr %vtable44, i64 4
  %30 = load ptr, ptr %vfn45, align 8
  %call47 = invoke noundef zeroext i1 %30(ptr noundef nonnull align 8 dereferenceable(8) %27, i1 noundef zeroext %call43)
          to label %invoke.cont46 unwind label %lpad35

invoke.cont46:                                    ; preds = %invoke.cont42
  br i1 %call47, label %if.end49, label %if.then48

if.then48:                                        ; preds = %invoke.cont46
  store i32 2, ptr %cleanup.dest.slot, align 4
  br label %cleanup

if.end49:                                         ; preds = %invoke.cont46
  br label %sw.epilog

sw.bb50:                                          ; preds = %invoke.cont36
  %31 = load ptr, ptr %gtest_dt, align 8
  invoke void @_ZN7testing8internal9DeathTest14ReturnSentinelC2EPS1_(ptr noundef nonnull align 8 dereferenceable(8) %gtest_sentinel, ptr noundef %31)
          to label %invoke.cont51 unwind label %lpad35

invoke.cont51:                                    ; preds = %sw.bb50
  %call54 = invoke noundef zeroext i1 @_ZN7testing8internal10AlwaysTrueEv()
          to label %invoke.cont53 unwind label %lpad52

invoke.cont53:                                    ; preds = %invoke.cont51
  br i1 %call54, label %if.then55, label %if.else56

if.then55:                                        ; preds = %invoke.cont53
  %32 = load ptr, ptr %pi, align 8
  call void @_ZN3gsl8not_nullIPiEC2IvEES1_(ptr noundef nonnull align 8 dereferenceable(8) %agg.tmp.ensured, ptr noundef %32) #3
  br label %if.end57

lpad52:                                           ; preds = %invoke.cont51
  %33 = landingpad { ptr, i32 }
          catch ptr @_ZTISt9exception
          catch ptr null
  %34 = extractvalue { ptr, i32 } %33, 0
  store ptr %34, ptr %exn.slot, align 8
  %35 = extractvalue { ptr, i32 } %33, 1
  store i32 %35, ptr %ehselector.slot, align 4
  br label %catch.dispatch

catch.dispatch:                                   ; preds = %lpad52
  %sel = load i32, ptr %ehselector.slot, align 4
  %36 = call i32 @llvm.eh.typeid.for(ptr @_ZTISt9exception) #3
  %matches = icmp eq i32 %sel, %36
  br i1 %matches, label %catch66, label %catch

catch66:                                          ; preds = %catch.dispatch
  %exn67 = load ptr, ptr %exn.slot, align 8
  %37 = call ptr @__cxa_begin_catch(ptr %exn67) #3
  store ptr %37, ptr %gtest_exception, align 8
  %38 = load ptr, ptr @stderr, align 8
  invoke void @_ZN7testing8internal18FormatFileLocationB5cxx11EPKci(ptr sret(%"class.std::__cxx11::basic_string") align 8 %ref.tmp68, ptr noundef @.str.3, i32 noundef 178)
          to label %invoke.cont70 unwind label %lpad69

invoke.cont70:                                    ; preds = %catch66
  %call71 = call noundef ptr @_ZNKSt7__cxx1112basic_stringIcSt11char_traitsIcESaIcEE5c_strEv(ptr noundef nonnull align 8 dereferenceable(32) %ref.tmp68) #3
  %39 = load ptr, ptr %gtest_exception, align 8
  %vtable72 = load ptr, ptr %39, align 8
  %vfn73 = getelementptr inbounds ptr, ptr %vtable72, i64 2
  %40 = load ptr, ptr %vfn73, align 8
  %call74 = call noundef ptr %40(ptr noundef nonnull align 8 dereferenceable(8) %39) #3
  %call77 = invoke i32 (ptr, ptr, ...) @fprintf(ptr noundef %38, ptr noundef @.str.8, ptr noundef %call71, ptr noundef %call74)
          to label %invoke.cont76 unwind label %lpad75

invoke.cont76:                                    ; preds = %invoke.cont70
  call void @_ZNSt7__cxx1112basic_stringIcSt11char_traitsIcESaIcEED1Ev(ptr noundef nonnull align 8 dereferenceable(32) %ref.tmp68) #3
  %41 = load ptr, ptr @stderr, align 8
  %call80 = invoke i32 @fflush(ptr noundef %41)
          to label %invoke.cont79 unwind label %lpad69

invoke.cont79:                                    ; preds = %invoke.cont76
  %42 = load ptr, ptr %gtest_dt, align 8
  %vtable81 = load ptr, ptr %42, align 8
  %vfn82 = getelementptr inbounds ptr, ptr %vtable81, i64 5
  %43 = load ptr, ptr %vfn82, align 8
  invoke void %43(ptr noundef nonnull align 8 dereferenceable(8) %42, i32 noundef 1)
          to label %invoke.cont83 unwind label %lpad69

invoke.cont83:                                    ; preds = %invoke.cont79
  invoke void @__cxa_end_catch()
          to label %invoke.cont84 unwind label %lpad62

invoke.cont84:                                    ; preds = %invoke.cont83
  br label %try.cont

try.cont:                                         ; preds = %if.end57, %invoke.cont63, %invoke.cont84
  %44 = load ptr, ptr %gtest_dt, align 8
  %vtable87 = load ptr, ptr %44, align 8
  %vfn88 = getelementptr inbounds ptr, ptr %vtable87, i64 5
  %45 = load ptr, ptr %vfn88, align 8
  invoke void %45(ptr noundef nonnull align 8 dereferenceable(8) %44, i32 noundef 2)
          to label %invoke.cont89 unwind label %lpad62

invoke.cont89:                                    ; preds = %try.cont
  call void @_ZN7testing8internal9DeathTest14ReturnSentinelD2Ev(ptr noundef nonnull align 8 dereferenceable(8) %gtest_sentinel) #3
  br label %sw.epilog

catch:                                            ; preds = %catch.dispatch
  %exn = load ptr, ptr %exn.slot, align 8
  %46 = call ptr @__cxa_begin_catch(ptr %exn) #3
  %47 = load ptr, ptr %gtest_dt, align 8
  %vtable58 = load ptr, ptr %47, align 8
  %vfn59 = getelementptr inbounds ptr, ptr %vtable58, i64 5
  %48 = load ptr, ptr %vfn59, align 8
  invoke void %48(ptr noundef nonnull align 8 dereferenceable(8) %47, i32 noundef 1)
          to label %invoke.cont61 unwind label %lpad60

invoke.cont61:                                    ; preds = %catch
  invoke void @__cxa_end_catch()
          to label %invoke.cont63 unwind label %lpad62

invoke.cont63:                                    ; preds = %invoke.cont61
  br label %try.cont

if.else56:                                        ; preds = %invoke.cont53
  br label %if.end57

if.end57:                                         ; preds = %if.else56, %if.then55
  br label %try.cont

lpad60:                                           ; preds = %catch
  %49 = landingpad { ptr, i32 }
          cleanup
  %50 = extractvalue { ptr, i32 } %49, 0
  store ptr %50, ptr %exn.slot, align 8
  %51 = extractvalue { ptr, i32 } %49, 1
  store i32 %51, ptr %ehselector.slot, align 4
  invoke void @__cxa_end_catch()
          to label %invoke.cont65 unwind label %terminate.lpad

lpad62:                                           ; preds = %invoke.cont61, %try.cont, %invoke.cont83
  %52 = landingpad { ptr, i32 }
          cleanup
  %53 = extractvalue { ptr, i32 } %52, 0
  store ptr %53, ptr %exn.slot, align 8
  %54 = extractvalue { ptr, i32 } %52, 1
  store i32 %54, ptr %ehselector.slot, align 4
  br label %ehcleanup90

invoke.cont65:                                    ; preds = %lpad60
  br label %ehcleanup90

lpad69:                                           ; preds = %invoke.cont79, %invoke.cont76, %catch66
  %55 = landingpad { ptr, i32 }
          cleanup
  %56 = extractvalue { ptr, i32 } %55, 0
  store ptr %56, ptr %exn.slot, align 8
  %57 = extractvalue { ptr, i32 } %55, 1
  store i32 %57, ptr %ehselector.slot, align 4
  br label %ehcleanup85

lpad75:                                           ; preds = %invoke.cont70
  %58 = landingpad { ptr, i32 }
          cleanup
  %59 = extractvalue { ptr, i32 } %58, 0
  store ptr %59, ptr %exn.slot, align 8
  %60 = extractvalue { ptr, i32 } %58, 1
  store i32 %60, ptr %ehselector.slot, align 4
  call void @_ZNSt7__cxx1112basic_stringIcSt11char_traitsIcESaIcEED1Ev(ptr noundef nonnull align 8 dereferenceable(32) %ref.tmp68) #3
  br label %ehcleanup85

ehcleanup85:                                      ; preds = %lpad75, %lpad69
  invoke void @__cxa_end_catch()
          to label %invoke.cont86 unwind label %terminate.lpad

invoke.cont86:                                    ; preds = %ehcleanup85
  br label %ehcleanup90

ehcleanup90:                                      ; preds = %invoke.cont86, %invoke.cont65, %lpad62
  call void @_ZN7testing8internal9DeathTest14ReturnSentinelD2Ev(ptr noundef nonnull align 8 dereferenceable(8) %gtest_sentinel) #3
  br label %ehcleanup91

sw.default:                                       ; preds = %invoke.cont36
  br label %sw.epilog

sw.epilog:                                        ; preds = %sw.default, %invoke.cont89, %if.end49
  store i32 0, ptr %cleanup.dest.slot, align 4
  br label %cleanup

cleanup:                                          ; preds = %sw.epilog, %if.then48
  call void @_ZNSt10unique_ptrIN7testing8internal9DeathTestESt14default_deleteIS2_EED2Ev(ptr noundef nonnull align 8 dereferenceable(8) %gtest_dt_ptr) #3
  %cleanup.dest = load i32, ptr %cleanup.dest.slot, align 4
  switch i32 %cleanup.dest, label %unreachable [
    i32 0, label %cleanup.cont
    i32 2, label %gtest_label_178
  ]

cleanup.cont:                                     ; preds = %cleanup
  br label %if.end92

ehcleanup91:                                      ; preds = %ehcleanup90, %lpad35
  call void @_ZNSt10unique_ptrIN7testing8internal9DeathTestESt14default_deleteIS2_EED2Ev(ptr noundef nonnull align 8 dereferenceable(8) %gtest_dt_ptr) #3
  br label %ehcleanup106

if.end92:                                         ; preds = %cleanup.cont, %if.end32
  br label %if.end105

if.else93:                                        ; preds = %invoke.cont22
  br label %gtest_label_178

gtest_label_178:                                  ; preds = %if.else93, %cleanup, %if.then31
  invoke void @_ZN7testing7MessageC1Ev(ptr noundef nonnull align 8 dereferenceable(8) %ref.tmp94)
          to label %invoke.cont95 unwind label %lpad21

invoke.cont95:                                    ; preds = %gtest_label_178
  %call99 = invoke noundef ptr @_ZN7testing8internal9DeathTest11LastMessageEv()
          to label %invoke.cont98 unwind label %lpad97

invoke.cont98:                                    ; preds = %invoke.cont95
  invoke void @_ZN7testing8internal12AssertHelperC1ENS_14TestPartResult4TypeEPKciS5_(ptr noundef nonnull align 8 dereferenceable(8) %ref.tmp96, i32 noundef 1, ptr noundef @.str.3, i32 noundef 178, ptr noundef %call99)
          to label %invoke.cont100 unwind label %lpad97

invoke.cont100:                                   ; preds = %invoke.cont98
  invoke void @_ZNK7testing8internal12AssertHelperaSERKNS_7MessageE(ptr noundef nonnull align 8 dereferenceable(8) %ref.tmp96, ptr noundef nonnull align 8 dereferenceable(8) %ref.tmp94)
          to label %invoke.cont102 unwind label %lpad101

invoke.cont102:                                   ; preds = %invoke.cont100
  call void @_ZN7testing8internal12AssertHelperD1Ev(ptr noundef nonnull align 8 dereferenceable(8) %ref.tmp96) #3
  call void @_ZN7testing7MessageD2Ev(ptr noundef nonnull align 8 dereferenceable(8) %ref.tmp94) #3
  br label %if.end105

lpad97:                                           ; preds = %invoke.cont98, %invoke.cont95
  %61 = landingpad { ptr, i32 }
          cleanup
  %62 = extractvalue { ptr, i32 } %61, 0
  store ptr %62, ptr %exn.slot, align 8
  %63 = extractvalue { ptr, i32 } %61, 1
  store i32 %63, ptr %ehselector.slot, align 4
  br label %ehcleanup104

lpad101:                                          ; preds = %invoke.cont100
  %64 = landingpad { ptr, i32 }
          cleanup
  %65 = extractvalue { ptr, i32 } %64, 0
  store ptr %65, ptr %exn.slot, align 8
  %66 = extractvalue { ptr, i32 } %64, 1
  store i32 %66, ptr %ehselector.slot, align 4
  call void @_ZN7testing8internal12AssertHelperD1Ev(ptr noundef nonnull align 8 dereferenceable(8) %ref.tmp96) #3
  br label %ehcleanup104

ehcleanup104:                                     ; preds = %lpad101, %lpad97
  call void @_ZN7testing7MessageD2Ev(ptr noundef nonnull align 8 dereferenceable(8) %ref.tmp94) #3
  br label %ehcleanup106

if.end105:                                        ; preds = %invoke.cont102, %if.end92
  call void @_ZN3gsl8not_nullISt10shared_ptrIiEED2Ev(ptr noundef nonnull align 8 dereferenceable(16) %x) #3
  store i32 42, ptr %t, align 4
  call void @_ZN3gsl8not_nullIPiEC2IvEES1_(ptr noundef nonnull align 8 dereferenceable(8) %x107, ptr noundef %t) #3
  call void @_ZN3gsl8not_nullIPiEC2IvEES1_(ptr noundef nonnull align 8 dereferenceable(8) %agg.tmp108, ptr noundef %t) #3
  %coerce.dive = getelementptr inbounds %"class.gsl::not_null", ptr %agg.tmp108, i32 0, i32 0
  %67 = load ptr, ptr %coerce.dive, align 8
  %call109 = call noundef zeroext i1 @_ZN12_GLOBAL__N_16helperEN3gsl8not_nullIPiEE(ptr %67)
  store ptr %t, ptr %ref.tmp111, align 8
  call void @_ZN3gsl8not_nullIPKiEC2IPivEEOT_(ptr noundef nonnull align 8 dereferenceable(8) %agg.tmp110, ptr noundef nonnull align 8 dereferenceable(8) %ref.tmp111) #3
  %coerce.dive112 = getelementptr inbounds %"class.gsl::not_null.19", ptr %agg.tmp110, i32 0, i32 0
  %68 = load ptr, ptr %coerce.dive112, align 8
  %call113 = call noundef zeroext i1 @_ZN12_GLOBAL__N_112helper_constEN3gsl8not_nullIPKiEE(ptr %68)
  %call116 = call noundef nonnull align 4 dereferenceable(4) ptr @_ZNK3gsl8not_nullIPiEdeEv(ptr noundef nonnull align 8 dereferenceable(8) %x107)
  %69 = load i32, ptr %call116, align 4
  %cmp117 = icmp eq i32 %69, 42
  %frombool118 = zext i1 %cmp117 to i8
  store i8 %frombool118, ptr %ref.tmp115, align 1
  call void @_ZN7testing15AssertionResultC2IbEERKT_PNSt9enable_ifIXntsr3std14is_convertibleIS2_S0_EE5valueEvE4typeE(ptr noundef nonnull align 8 dereferenceable(16) %gtest_ar_114, ptr noundef nonnull align 1 dereferenceable(1) %ref.tmp115, ptr noundef null)
  %call121 = invoke noundef zeroext i1 @_ZNK7testing15AssertionResultcvbEv(ptr noundef nonnull align 8 dereferenceable(16) %gtest_ar_114)
          to label %invoke.cont120 unwind label %lpad119

invoke.cont120:                                   ; preds = %if.end105
  br i1 %call121, label %if.then122, label %if.else123

if.then122:                                       ; preds = %invoke.cont120
  br label %if.end138

ehcleanup106:                                     ; preds = %ehcleanup104, %ehcleanup91, %lpad27, %lpad21
  call void @_ZN3gsl8not_nullISt10shared_ptrIiEED2Ev(ptr noundef nonnull align 8 dereferenceable(16) %x) #3
  br label %eh.resume

lpad119:                                          ; preds = %if.else123, %if.end105
  %70 = landingpad { ptr, i32 }
          cleanup
  %71 = extractvalue { ptr, i32 } %70, 0
  store ptr %71, ptr %exn.slot, align 8
  %72 = extractvalue { ptr, i32 } %70, 1
  store i32 %72, ptr %ehselector.slot, align 4
  br label %ehcleanup139

if.else123:                                       ; preds = %invoke.cont120
  invoke void @_ZN7testing7MessageC1Ev(ptr noundef nonnull align 8 dereferenceable(8) %ref.tmp124)
          to label %invoke.cont125 unwind label %lpad119

invoke.cont125:                                   ; preds = %if.else123
  invoke void @_ZN7testing8internal30GetBoolAssertionFailureMessageB5cxx11ERKNS_15AssertionResultEPKcS5_S5_(ptr sret(%"class.std::__cxx11::basic_string") align 8 %ref.tmp127, ptr noundef nonnull align 8 dereferenceable(16) %gtest_ar_114, ptr noundef @.str.9, ptr noundef @.str.5, ptr noundef @.str.6)
          to label %invoke.cont129 unwind label %lpad128

invoke.cont129:                                   ; preds = %invoke.cont125
  %call130 = call noundef ptr @_ZNKSt7__cxx1112basic_stringIcSt11char_traitsIcESaIcEE5c_strEv(ptr noundef nonnull align 8 dereferenceable(32) %ref.tmp127) #3
  invoke void @_ZN7testing8internal12AssertHelperC1ENS_14TestPartResult4TypeEPKciS5_(ptr noundef nonnull align 8 dereferenceable(8) %ref.tmp126, i32 noundef 1, ptr noundef @.str.3, i32 noundef 189, ptr noundef %call130)
          to label %invoke.cont132 unwind label %lpad131

invoke.cont132:                                   ; preds = %invoke.cont129
  invoke void @_ZNK7testing8internal12AssertHelperaSERKNS_7MessageE(ptr noundef nonnull align 8 dereferenceable(8) %ref.tmp126, ptr noundef nonnull align 8 dereferenceable(8) %ref.tmp124)
          to label %invoke.cont134 unwind label %lpad133

invoke.cont134:                                   ; preds = %invoke.cont132
  call void @_ZN7testing8internal12AssertHelperD1Ev(ptr noundef nonnull align 8 dereferenceable(8) %ref.tmp126) #3
  call void @_ZNSt7__cxx1112basic_stringIcSt11char_traitsIcESaIcEED1Ev(ptr noundef nonnull align 8 dereferenceable(32) %ref.tmp127) #3
  call void @_ZN7testing7MessageD2Ev(ptr noundef nonnull align 8 dereferenceable(8) %ref.tmp124) #3
  br label %if.end138

lpad128:                                          ; preds = %invoke.cont125
  %73 = landingpad { ptr, i32 }
          cleanup
  %74 = extractvalue { ptr, i32 } %73, 0
  store ptr %74, ptr %exn.slot, align 8
  %75 = extractvalue { ptr, i32 } %73, 1
  store i32 %75, ptr %ehselector.slot, align 4
  br label %ehcleanup137

lpad131:                                          ; preds = %invoke.cont129
  %76 = landingpad { ptr, i32 }
          cleanup
  %77 = extractvalue { ptr, i32 } %76, 0
  store ptr %77, ptr %exn.slot, align 8
  %78 = extractvalue { ptr, i32 } %76, 1
  store i32 %78, ptr %ehselector.slot, align 4
  br label %ehcleanup136

lpad133:                                          ; preds = %invoke.cont132
  %79 = landingpad { ptr, i32 }
          cleanup
  %80 = extractvalue { ptr, i32 } %79, 0
  store ptr %80, ptr %exn.slot, align 8
  %81 = extractvalue { ptr, i32 } %79, 1
  store i32 %81, ptr %ehselector.slot, align 4
  call void @_ZN7testing8internal12AssertHelperD1Ev(ptr noundef nonnull align 8 dereferenceable(8) %ref.tmp126) #3
  br label %ehcleanup136

ehcleanup136:                                     ; preds = %lpad133, %lpad131
  call void @_ZNSt7__cxx1112basic_stringIcSt11char_traitsIcESaIcEED1Ev(ptr noundef nonnull align 8 dereferenceable(32) %ref.tmp127) #3
  br label %ehcleanup137

ehcleanup137:                                     ; preds = %ehcleanup136, %lpad128
  call void @_ZN7testing7MessageD2Ev(ptr noundef nonnull align 8 dereferenceable(8) %ref.tmp124) #3
  br label %ehcleanup139

if.end138:                                        ; preds = %invoke.cont134, %if.then122
  call void @_ZN7testing15AssertionResultD2Ev(ptr noundef nonnull align 8 dereferenceable(16) %gtest_ar_114) #3
  store i32 42, ptr %t140, align 4
  store ptr %t140, ptr %p141, align 8
  %82 = load ptr, ptr %p141, align 8
  call void @_ZN3gsl8not_nullIPiEC2IvEES1_(ptr noundef nonnull align 8 dereferenceable(8) %x142, ptr noundef %82) #3
  %83 = load ptr, ptr %p141, align 8
  call void @_ZN3gsl8not_nullIPiEC2IvEES1_(ptr noundef nonnull align 8 dereferenceable(8) %agg.tmp143, ptr noundef %83) #3
  %coerce.dive144 = getelementptr inbounds %"class.gsl::not_null", ptr %agg.tmp143, i32 0, i32 0
  %84 = load ptr, ptr %coerce.dive144, align 8
  %call145 = call noundef zeroext i1 @_ZN12_GLOBAL__N_16helperEN3gsl8not_nullIPiEE(ptr %84)
  call void @_ZN3gsl8not_nullIPKiEC2IRPivEEOT_(ptr noundef nonnull align 8 dereferenceable(8) %agg.tmp146, ptr noundef nonnull align 8 dereferenceable(8) %p141) #3
  %coerce.dive147 = getelementptr inbounds %"class.gsl::not_null.19", ptr %agg.tmp146, i32 0, i32 0
  %85 = load ptr, ptr %coerce.dive147, align 8
  %call148 = call noundef zeroext i1 @_ZN12_GLOBAL__N_112helper_constEN3gsl8not_nullIPKiEE(ptr %85)
  call void @_ZN3gsl8not_nullIPiEC2IRS2_vEEOT_(ptr noundef nonnull align 8 dereferenceable(8) %agg.tmp149, ptr noundef nonnull align 8 dereferenceable(8) %x142) #3
  %coerce.dive150 = getelementptr inbounds %"class.gsl::not_null", ptr %agg.tmp149, i32 0, i32 0
  %86 = load ptr, ptr %coerce.dive150, align 8
  %call151 = call noundef zeroext i1 @_ZN12_GLOBAL__N_16helperEN3gsl8not_nullIPiEE(ptr %86)
  call void @_ZN3gsl8not_nullIPKiEC2IRNS0_IPiEEvEEOT_(ptr noundef nonnull align 8 dereferenceable(8) %agg.tmp152, ptr noundef nonnull align 8 dereferenceable(8) %x142) #3
  %coerce.dive153 = getelementptr inbounds %"class.gsl::not_null.19", ptr %agg.tmp152, i32 0, i32 0
  %87 = load ptr, ptr %coerce.dive153, align 8
  %call154 = call noundef zeroext i1 @_ZN12_GLOBAL__N_112helper_constEN3gsl8not_nullIPKiEE(ptr %87)
  %call157 = call noundef nonnull align 4 dereferenceable(4) ptr @_ZNK3gsl8not_nullIPiEdeEv(ptr noundef nonnull align 8 dereferenceable(8) %x142)
  %88 = load i32, ptr %call157, align 4
  %cmp158 = icmp eq i32 %88, 42
  %frombool159 = zext i1 %cmp158 to i8
  store i8 %frombool159, ptr %ref.tmp156, align 1
  call void @_ZN7testing15AssertionResultC2IbEERKT_PNSt9enable_ifIXntsr3std14is_convertibleIS2_S0_EE5valueEvE4typeE(ptr noundef nonnull align 8 dereferenceable(16) %gtest_ar_155, ptr noundef nonnull align 1 dereferenceable(1) %ref.tmp156, ptr noundef null)
  %call162 = invoke noundef zeroext i1 @_ZNK7testing15AssertionResultcvbEv(ptr noundef nonnull align 8 dereferenceable(16) %gtest_ar_155)
          to label %invoke.cont161 unwind label %lpad160

invoke.cont161:                                   ; preds = %if.end138
  br i1 %call162, label %if.then163, label %if.else164

if.then163:                                       ; preds = %invoke.cont161
  br label %if.end179

ehcleanup139:                                     ; preds = %ehcleanup137, %lpad119
  call void @_ZN7testing15AssertionResultD2Ev(ptr noundef nonnull align 8 dereferenceable(16) %gtest_ar_114) #3
  br label %eh.resume

lpad160:                                          ; preds = %if.else164, %if.end138
  %89 = landingpad { ptr, i32 }
          cleanup
  %90 = extractvalue { ptr, i32 } %89, 0
  store ptr %90, ptr %exn.slot, align 8
  %91 = extractvalue { ptr, i32 } %89, 1
  store i32 %91, ptr %ehselector.slot, align 4
  br label %ehcleanup180

if.else164:                                       ; preds = %invoke.cont161
  invoke void @_ZN7testing7MessageC1Ev(ptr noundef nonnull align 8 dereferenceable(8) %ref.tmp165)
          to label %invoke.cont166 unwind label %lpad160

invoke.cont166:                                   ; preds = %if.else164
  invoke void @_ZN7testing8internal30GetBoolAssertionFailureMessageB5cxx11ERKNS_15AssertionResultEPKcS5_S5_(ptr sret(%"class.std::__cxx11::basic_string") align 8 %ref.tmp168, ptr noundef nonnull align 8 dereferenceable(16) %gtest_ar_155, ptr noundef @.str.9, ptr noundef @.str.5, ptr noundef @.str.6)
          to label %invoke.cont170 unwind label %lpad169

invoke.cont170:                                   ; preds = %invoke.cont166
  %call171 = call noundef ptr @_ZNKSt7__cxx1112basic_stringIcSt11char_traitsIcESaIcEE5c_strEv(ptr noundef nonnull align 8 dereferenceable(32) %ref.tmp168) #3
  invoke void @_ZN7testing8internal12AssertHelperC1ENS_14TestPartResult4TypeEPKciS5_(ptr noundef nonnull align 8 dereferenceable(8) %ref.tmp167, i32 noundef 1, ptr noundef @.str.3, i32 noundef 205, ptr noundef %call171)
          to label %invoke.cont173 unwind label %lpad172

invoke.cont173:                                   ; preds = %invoke.cont170
  invoke void @_ZNK7testing8internal12AssertHelperaSERKNS_7MessageE(ptr noundef nonnull align 8 dereferenceable(8) %ref.tmp167, ptr noundef nonnull align 8 dereferenceable(8) %ref.tmp165)
          to label %invoke.cont175 unwind label %lpad174

invoke.cont175:                                   ; preds = %invoke.cont173
  call void @_ZN7testing8internal12AssertHelperD1Ev(ptr noundef nonnull align 8 dereferenceable(8) %ref.tmp167) #3
  call void @_ZNSt7__cxx1112basic_stringIcSt11char_traitsIcESaIcEED1Ev(ptr noundef nonnull align 8 dereferenceable(32) %ref.tmp168) #3
  call void @_ZN7testing7MessageD2Ev(ptr noundef nonnull align 8 dereferenceable(8) %ref.tmp165) #3
  br label %if.end179

lpad169:                                          ; preds = %invoke.cont166
  %92 = landingpad { ptr, i32 }
          cleanup
  %93 = extractvalue { ptr, i32 } %92, 0
  store ptr %93, ptr %exn.slot, align 8
  %94 = extractvalue { ptr, i32 } %92, 1
  store i32 %94, ptr %ehselector.slot, align 4
  br label %ehcleanup178

lpad172:                                          ; preds = %invoke.cont170
  %95 = landingpad { ptr, i32 }
          cleanup
  %96 = extractvalue { ptr, i32 } %95, 0
  store ptr %96, ptr %exn.slot, align 8
  %97 = extractvalue { ptr, i32 } %95, 1
  store i32 %97, ptr %ehselector.slot, align 4
  br label %ehcleanup177

lpad174:                                          ; preds = %invoke.cont173
  %98 = landingpad { ptr, i32 }
          cleanup
  %99 = extractvalue { ptr, i32 } %98, 0
  store ptr %99, ptr %exn.slot, align 8
  %100 = extractvalue { ptr, i32 } %98, 1
  store i32 %100, ptr %ehselector.slot, align 4
  call void @_ZN7testing8internal12AssertHelperD1Ev(ptr noundef nonnull align 8 dereferenceable(8) %ref.tmp167) #3
  br label %ehcleanup177

ehcleanup177:                                     ; preds = %lpad174, %lpad172
  call void @_ZNSt7__cxx1112basic_stringIcSt11char_traitsIcESaIcEED1Ev(ptr noundef nonnull align 8 dereferenceable(32) %ref.tmp168) #3
  br label %ehcleanup178

ehcleanup178:                                     ; preds = %ehcleanup177, %lpad169
  call void @_ZN7testing7MessageD2Ev(ptr noundef nonnull align 8 dereferenceable(8) %ref.tmp165) #3
  br label %ehcleanup180

if.end179:                                        ; preds = %invoke.cont175, %if.then163
  call void @_ZN7testing15AssertionResultD2Ev(ptr noundef nonnull align 8 dereferenceable(16) %gtest_ar_155) #3
  store i32 42, ptr %t181, align 4
  store ptr %t181, ptr %cp, align 8
  %101 = load ptr, ptr %cp, align 8
  call void @_ZN3gsl8not_nullIPKiEC2IvEES2_(ptr noundef nonnull align 8 dereferenceable(8) %x182, ptr noundef %101) #3
  %102 = load ptr, ptr %cp, align 8
  call void @_ZN3gsl8not_nullIPKiEC2IvEES2_(ptr noundef nonnull align 8 dereferenceable(8) %agg.tmp183, ptr noundef %102) #3
  %coerce.dive184 = getelementptr inbounds %"class.gsl::not_null.19", ptr %agg.tmp183, i32 0, i32 0
  %103 = load ptr, ptr %coerce.dive184, align 8
  %call185 = call noundef zeroext i1 @_ZN12_GLOBAL__N_112helper_constEN3gsl8not_nullIPKiEE(ptr %103)
  call void @_ZN3gsl8not_nullIPKiEC2IRS3_vEEOT_(ptr noundef nonnull align 8 dereferenceable(8) %agg.tmp186, ptr noundef nonnull align 8 dereferenceable(8) %x182) #3
  %coerce.dive187 = getelementptr inbounds %"class.gsl::not_null.19", ptr %agg.tmp186, i32 0, i32 0
  %104 = load ptr, ptr %coerce.dive187, align 8
  %call188 = call noundef zeroext i1 @_ZN12_GLOBAL__N_112helper_constEN3gsl8not_nullIPKiEE(ptr %104)
  %call191 = call noundef nonnull align 4 dereferenceable(4) ptr @_ZNK3gsl8not_nullIPKiEdeEv(ptr noundef nonnull align 8 dereferenceable(8) %x182)
  %105 = load i32, ptr %call191, align 4
  %cmp192 = icmp eq i32 %105, 42
  %frombool193 = zext i1 %cmp192 to i8
  store i8 %frombool193, ptr %ref.tmp190, align 1
  call void @_ZN7testing15AssertionResultC2IbEERKT_PNSt9enable_ifIXntsr3std14is_convertibleIS2_S0_EE5valueEvE4typeE(ptr noundef nonnull align 8 dereferenceable(16) %gtest_ar_189, ptr noundef nonnull align 1 dereferenceable(1) %ref.tmp190, ptr noundef null)
  %call196 = invoke noundef zeroext i1 @_ZNK7testing15AssertionResultcvbEv(ptr noundef nonnull align 8 dereferenceable(16) %gtest_ar_189)
          to label %invoke.cont195 unwind label %lpad194

invoke.cont195:                                   ; preds = %if.end179
  br i1 %call196, label %if.then197, label %if.else198

if.then197:                                       ; preds = %invoke.cont195
  br label %if.end213

ehcleanup180:                                     ; preds = %ehcleanup178, %lpad160
  call void @_ZN7testing15AssertionResultD2Ev(ptr noundef nonnull align 8 dereferenceable(16) %gtest_ar_155) #3
  br label %eh.resume

lpad194:                                          ; preds = %if.else198, %if.end179
  %106 = landingpad { ptr, i32 }
          cleanup
  %107 = extractvalue { ptr, i32 } %106, 0
  store ptr %107, ptr %exn.slot, align 8
  %108 = extractvalue { ptr, i32 } %106, 1
  store i32 %108, ptr %ehselector.slot, align 4
  br label %ehcleanup214

if.else198:                                       ; preds = %invoke.cont195
  invoke void @_ZN7testing7MessageC1Ev(ptr noundef nonnull align 8 dereferenceable(8) %ref.tmp199)
          to label %invoke.cont200 unwind label %lpad194

invoke.cont200:                                   ; preds = %if.else198
  invoke void @_ZN7testing8internal30GetBoolAssertionFailureMessageB5cxx11ERKNS_15AssertionResultEPKcS5_S5_(ptr sret(%"class.std::__cxx11::basic_string") align 8 %ref.tmp202, ptr noundef nonnull align 8 dereferenceable(16) %gtest_ar_189, ptr noundef @.str.9, ptr noundef @.str.5, ptr noundef @.str.6)
          to label %invoke.cont204 unwind label %lpad203

invoke.cont204:                                   ; preds = %invoke.cont200
  %call205 = call noundef ptr @_ZNKSt7__cxx1112basic_stringIcSt11char_traitsIcESaIcEE5c_strEv(ptr noundef nonnull align 8 dereferenceable(32) %ref.tmp202) #3
  invoke void @_ZN7testing8internal12AssertHelperC1ENS_14TestPartResult4TypeEPKciS5_(ptr noundef nonnull align 8 dereferenceable(8) %ref.tmp201, i32 noundef 1, ptr noundef @.str.3, i32 noundef 219, ptr noundef %call205)
          to label %invoke.cont207 unwind label %lpad206

invoke.cont207:                                   ; preds = %invoke.cont204
  invoke void @_ZNK7testing8internal12AssertHelperaSERKNS_7MessageE(ptr noundef nonnull align 8 dereferenceable(8) %ref.tmp201, ptr noundef nonnull align 8 dereferenceable(8) %ref.tmp199)
          to label %invoke.cont209 unwind label %lpad208

invoke.cont209:                                   ; preds = %invoke.cont207
  call void @_ZN7testing8internal12AssertHelperD1Ev(ptr noundef nonnull align 8 dereferenceable(8) %ref.tmp201) #3
  call void @_ZNSt7__cxx1112basic_stringIcSt11char_traitsIcESaIcEED1Ev(ptr noundef nonnull align 8 dereferenceable(32) %ref.tmp202) #3
  call void @_ZN7testing7MessageD2Ev(ptr noundef nonnull align 8 dereferenceable(8) %ref.tmp199) #3
  br label %if.end213

lpad203:                                          ; preds = %invoke.cont200
  %109 = landingpad { ptr, i32 }
          cleanup
  %110 = extractvalue { ptr, i32 } %109, 0
  store ptr %110, ptr %exn.slot, align 8
  %111 = extractvalue { ptr, i32 } %109, 1
  store i32 %111, ptr %ehselector.slot, align 4
  br label %ehcleanup212

lpad206:                                          ; preds = %invoke.cont204
  %112 = landingpad { ptr, i32 }
          cleanup
  %113 = extractvalue { ptr, i32 } %112, 0
  store ptr %113, ptr %exn.slot, align 8
  %114 = extractvalue { ptr, i32 } %112, 1
  store i32 %114, ptr %ehselector.slot, align 4
  br label %ehcleanup211

lpad208:                                          ; preds = %invoke.cont207
  %115 = landingpad { ptr, i32 }
          cleanup
  %116 = extractvalue { ptr, i32 } %115, 0
  store ptr %116, ptr %exn.slot, align 8
  %117 = extractvalue { ptr, i32 } %115, 1
  store i32 %117, ptr %ehselector.slot, align 4
  call void @_ZN7testing8internal12AssertHelperD1Ev(ptr noundef nonnull align 8 dereferenceable(8) %ref.tmp201) #3
  br label %ehcleanup211

ehcleanup211:                                     ; preds = %lpad208, %lpad206
  call void @_ZNSt7__cxx1112basic_stringIcSt11char_traitsIcESaIcEED1Ev(ptr noundef nonnull align 8 dereferenceable(32) %ref.tmp202) #3
  br label %ehcleanup212

ehcleanup212:                                     ; preds = %ehcleanup211, %lpad203
  call void @_ZN7testing7MessageD2Ev(ptr noundef nonnull align 8 dereferenceable(8) %ref.tmp199) #3
  br label %ehcleanup214

if.end213:                                        ; preds = %invoke.cont209, %if.then197
  call void @_ZN7testing15AssertionResultD2Ev(ptr noundef nonnull align 8 dereferenceable(16) %gtest_ar_189) #3
  store i32 42, ptr %t215, align 4
  store ptr %t215, ptr %cp216, align 8
  %118 = load ptr, ptr %cp216, align 8
  call void @_ZN3gsl8not_nullIPKiEC2IvEES2_(ptr noundef nonnull align 8 dereferenceable(8) %ref.tmp218, ptr noundef %118) #3
  call void @_ZN3gsl8not_nullIPKiEC2IS3_vEEOT_(ptr noundef nonnull align 8 dereferenceable(8) %x217, ptr noundef nonnull align 8 dereferenceable(8) %ref.tmp218) #3
  %call221 = call noundef nonnull align 4 dereferenceable(4) ptr @_ZNK3gsl8not_nullIPKiEdeEv(ptr noundef nonnull align 8 dereferenceable(8) %x217)
  %119 = load i32, ptr %call221, align 4
  %cmp222 = icmp eq i32 %119, 42
  %frombool223 = zext i1 %cmp222 to i8
  store i8 %frombool223, ptr %ref.tmp220, align 1
  call void @_ZN7testing15AssertionResultC2IbEERKT_PNSt9enable_ifIXntsr3std14is_convertibleIS2_S0_EE5valueEvE4typeE(ptr noundef nonnull align 8 dereferenceable(16) %gtest_ar_219, ptr noundef nonnull align 1 dereferenceable(1) %ref.tmp220, ptr noundef null)
  %call226 = invoke noundef zeroext i1 @_ZNK7testing15AssertionResultcvbEv(ptr noundef nonnull align 8 dereferenceable(16) %gtest_ar_219)
          to label %invoke.cont225 unwind label %lpad224

invoke.cont225:                                   ; preds = %if.end213
  br i1 %call226, label %if.then227, label %if.else228

if.then227:                                       ; preds = %invoke.cont225
  br label %if.end243

ehcleanup214:                                     ; preds = %ehcleanup212, %lpad194
  call void @_ZN7testing15AssertionResultD2Ev(ptr noundef nonnull align 8 dereferenceable(16) %gtest_ar_189) #3
  br label %eh.resume

lpad224:                                          ; preds = %if.else228, %if.end213
  %120 = landingpad { ptr, i32 }
          cleanup
  %121 = extractvalue { ptr, i32 } %120, 0
  store ptr %121, ptr %exn.slot, align 8
  %122 = extractvalue { ptr, i32 } %120, 1
  store i32 %122, ptr %ehselector.slot, align 4
  br label %ehcleanup244

if.else228:                                       ; preds = %invoke.cont225
  invoke void @_ZN7testing7MessageC1Ev(ptr noundef nonnull align 8 dereferenceable(8) %ref.tmp229)
          to label %invoke.cont230 unwind label %lpad224

invoke.cont230:                                   ; preds = %if.else228
  invoke void @_ZN7testing8internal30GetBoolAssertionFailureMessageB5cxx11ERKNS_15AssertionResultEPKcS5_S5_(ptr sret(%"class.std::__cxx11::basic_string") align 8 %ref.tmp232, ptr noundef nonnull align 8 dereferenceable(16) %gtest_ar_219, ptr noundef @.str.9, ptr noundef @.str.5, ptr noundef @.str.6)
          to label %invoke.cont234 unwind label %lpad233

invoke.cont234:                                   ; preds = %invoke.cont230
  %call235 = call noundef ptr @_ZNKSt7__cxx1112basic_stringIcSt11char_traitsIcESaIcEE5c_strEv(ptr noundef nonnull align 8 dereferenceable(32) %ref.tmp232) #3
  invoke void @_ZN7testing8internal12AssertHelperC1ENS_14TestPartResult4TypeEPKciS5_(ptr noundef nonnull align 8 dereferenceable(8) %ref.tmp231, i32 noundef 1, ptr noundef @.str.3, i32 noundef 229, ptr noundef %call235)
          to label %invoke.cont237 unwind label %lpad236

invoke.cont237:                                   ; preds = %invoke.cont234
  invoke void @_ZNK7testing8internal12AssertHelperaSERKNS_7MessageE(ptr noundef nonnull align 8 dereferenceable(8) %ref.tmp231, ptr noundef nonnull align 8 dereferenceable(8) %ref.tmp229)
          to label %invoke.cont239 unwind label %lpad238

invoke.cont239:                                   ; preds = %invoke.cont237
  call void @_ZN7testing8internal12AssertHelperD1Ev(ptr noundef nonnull align 8 dereferenceable(8) %ref.tmp231) #3
  call void @_ZNSt7__cxx1112basic_stringIcSt11char_traitsIcESaIcEED1Ev(ptr noundef nonnull align 8 dereferenceable(32) %ref.tmp232) #3
  call void @_ZN7testing7MessageD2Ev(ptr noundef nonnull align 8 dereferenceable(8) %ref.tmp229) #3
  br label %if.end243

lpad233:                                          ; preds = %invoke.cont230
  %123 = landingpad { ptr, i32 }
          cleanup
  %124 = extractvalue { ptr, i32 } %123, 0
  store ptr %124, ptr %exn.slot, align 8
  %125 = extractvalue { ptr, i32 } %123, 1
  store i32 %125, ptr %ehselector.slot, align 4
  br label %ehcleanup242

lpad236:                                          ; preds = %invoke.cont234
  %126 = landingpad { ptr, i32 }
          cleanup
  %127 = extractvalue { ptr, i32 } %126, 0
  store ptr %127, ptr %exn.slot, align 8
  %128 = extractvalue { ptr, i32 } %126, 1
  store i32 %128, ptr %ehselector.slot, align 4
  br label %ehcleanup241

lpad238:                                          ; preds = %invoke.cont237
  %129 = landingpad { ptr, i32 }
          cleanup
  %130 = extractvalue { ptr, i32 } %129, 0
  store ptr %130, ptr %exn.slot, align 8
  %131 = extractvalue { ptr, i32 } %129, 1
  store i32 %131, ptr %ehselector.slot, align 4
  call void @_ZN7testing8internal12AssertHelperD1Ev(ptr noundef nonnull align 8 dereferenceable(8) %ref.tmp231) #3
  br label %ehcleanup241

ehcleanup241:                                     ; preds = %lpad238, %lpad236
  call void @_ZNSt7__cxx1112basic_stringIcSt11char_traitsIcESaIcEED1Ev(ptr noundef nonnull align 8 dereferenceable(32) %ref.tmp232) #3
  br label %ehcleanup242

ehcleanup242:                                     ; preds = %ehcleanup241, %lpad233
  call void @_ZN7testing7MessageD2Ev(ptr noundef nonnull align 8 dereferenceable(8) %ref.tmp229) #3
  br label %ehcleanup244

if.end243:                                        ; preds = %invoke.cont239, %if.then227
  call void @_ZN7testing15AssertionResultD2Ev(ptr noundef nonnull align 8 dereferenceable(16) %gtest_ar_219) #3
  %call245 = call noundef zeroext i1 @_ZN7testing8internal10AlwaysTrueEv()
  br i1 %call245, label %if.then246, label %if.else340

if.then246:                                       ; preds = %if.end243
  %132 = load ptr, ptr %expected, align 8
  call void @_ZN7testing8internal20MakeDeathTestMatcherB5cxx11EPKc(ptr sret(%"class.testing::Matcher") align 8 %agg.tmp248, ptr noundef %132)
  %call251 = invoke noundef zeroext i1 @_ZN7testing8internal9DeathTest6CreateEPKcNS_7MatcherIRKNSt7__cxx1112basic_stringIcSt11char_traitsIcESaIcEEEEES3_iPPS1_(ptr noundef @.str.10, ptr noundef %agg.tmp248, ptr noundef @.str.3, i32 noundef 235, ptr noundef %gtest_dt247)
          to label %invoke.cont250 unwind label %lpad249

invoke.cont250:                                   ; preds = %if.then246
  %lnot252 = xor i1 %call251, true
  call void @_ZN7testing7MatcherIRKNSt7__cxx1112basic_stringIcSt11char_traitsIcESaIcEEEED2Ev(ptr noundef nonnull align 8 dereferenceable(24) %agg.tmp248) #3
  br i1 %lnot252, label %if.then254, label %if.end255

if.then254:                                       ; preds = %invoke.cont250
  br label %gtest_label_235

ehcleanup244:                                     ; preds = %ehcleanup242, %lpad224
  call void @_ZN7testing15AssertionResultD2Ev(ptr noundef nonnull align 8 dereferenceable(16) %gtest_ar_219) #3
  br label %eh.resume

lpad249:                                          ; preds = %if.then246
  %133 = landingpad { ptr, i32 }
          cleanup
  %134 = extractvalue { ptr, i32 } %133, 0
  store ptr %134, ptr %exn.slot, align 8
  %135 = extractvalue { ptr, i32 } %133, 1
  store i32 %135, ptr %ehselector.slot, align 4
  call void @_ZN7testing7MatcherIRKNSt7__cxx1112basic_stringIcSt11char_traitsIcESaIcEEEED2Ev(ptr noundef nonnull align 8 dereferenceable(24) %agg.tmp248) #3
  br label %eh.resume

if.end255:                                        ; preds = %invoke.cont250
  %136 = load ptr, ptr %gtest_dt247, align 8
  %cmp256 = icmp ne ptr %136, null
  br i1 %cmp256, label %if.then257, label %if.end339

if.then257:                                       ; preds = %if.end255
  %137 = load ptr, ptr %gtest_dt247, align 8
  call void @_ZNSt10unique_ptrIN7testing8internal9DeathTestESt14default_deleteIS2_EEC2IS4_vEEPS2_(ptr noundef nonnull align 8 dereferenceable(8) %gtest_dt_ptr258, ptr noundef %137) #3
  %138 = load ptr, ptr %gtest_dt247, align 8
  %vtable259 = load ptr, ptr %138, align 8
  %vfn260 = getelementptr inbounds ptr, ptr %vtable259, i64 2
  %139 = load ptr, ptr %vfn260, align 8
  %call263 = invoke noundef i32 %139(ptr noundef nonnull align 8 dereferenceable(8) %138)
          to label %invoke.cont262 unwind label %lpad261

invoke.cont262:                                   ; preds = %if.then257
  switch i32 %call263, label %sw.default333 [
    i32 0, label %sw.bb264
    i32 1, label %sw.bb277
  ]

lpad261:                                          ; preds = %sw.bb277, %invoke.cont269, %invoke.cont267, %sw.bb264, %if.then257
  %140 = landingpad { ptr, i32 }
          cleanup
  %141 = extractvalue { ptr, i32 } %140, 0
  store ptr %141, ptr %exn.slot, align 8
  %142 = extractvalue { ptr, i32 } %140, 1
  store i32 %142, ptr %ehselector.slot, align 4
  br label %ehcleanup338

sw.bb264:                                         ; preds = %invoke.cont262
  %143 = load ptr, ptr %gtest_dt247, align 8
  %144 = load ptr, ptr %gtest_dt247, align 8
  %vtable265 = load ptr, ptr %144, align 8
  %vfn266 = getelementptr inbounds ptr, ptr %vtable265, i64 3
  %145 = load ptr, ptr %vfn266, align 8
  %call268 = invoke noundef i32 %145(ptr noundef nonnull align 8 dereferenceable(8) %144)
          to label %invoke.cont267 unwind label %lpad261

invoke.cont267:                                   ; preds = %sw.bb264
  %call270 = invoke noundef zeroext i1 @_ZN7testing8internal20ExitedUnsuccessfullyEi(i32 noundef %call268)
          to label %invoke.cont269 unwind label %lpad261

invoke.cont269:                                   ; preds = %invoke.cont267
  %vtable271 = load ptr, ptr %143, align 8
  %vfn272 = getelementptr inbounds ptr, ptr %vtable271, i64 4
  %146 = load ptr, ptr %vfn272, align 8
  %call274 = invoke noundef zeroext i1 %146(ptr noundef nonnull align 8 dereferenceable(8) %143, i1 noundef zeroext %call270)
          to label %invoke.cont273 unwind label %lpad261

invoke.cont273:                                   ; preds = %invoke.cont269
  br i1 %call274, label %if.end276, label %if.then275

if.then275:                                       ; preds = %invoke.cont273
  store i32 4, ptr %cleanup.dest.slot, align 4
  br label %cleanup335

if.end276:                                        ; preds = %invoke.cont273
  br label %sw.epilog334

sw.bb277:                                         ; preds = %invoke.cont262
  %147 = load ptr, ptr %gtest_dt247, align 8
  invoke void @_ZN7testing8internal9DeathTest14ReturnSentinelC2EPS1_(ptr noundef nonnull align 8 dereferenceable(8) %gtest_sentinel278, ptr noundef %147)
          to label %invoke.cont279 unwind label %lpad261

invoke.cont279:                                   ; preds = %sw.bb277
  %call282 = invoke noundef zeroext i1 @_ZN7testing8internal10AlwaysTrueEv()
          to label %invoke.cont281 unwind label %lpad280

invoke.cont281:                                   ; preds = %invoke.cont279
  br i1 %call282, label %if.then283, label %if.else290

if.then283:                                       ; preds = %invoke.cont281
  %call286 = invoke noundef ptr @_ZN12_GLOBAL__N_114return_pointerEv()
          to label %invoke.cont285 unwind label %lpad280

invoke.cont285:                                   ; preds = %if.then283
  call void @_ZN3gsl8not_nullIPiEC2IvEES1_(ptr noundef nonnull align 8 dereferenceable(8) %agg.tmp284, ptr noundef %call286) #3
  %coerce.dive287 = getelementptr inbounds %"class.gsl::not_null", ptr %agg.tmp284, i32 0, i32 0
  %148 = load ptr, ptr %coerce.dive287, align 8
  %call289 = invoke noundef zeroext i1 @_ZN12_GLOBAL__N_16helperEN3gsl8not_nullIPiEE(ptr %148)
          to label %invoke.cont288 unwind label %lpad280

invoke.cont288:                                   ; preds = %invoke.cont285
  br label %if.end291

lpad280:                                          ; preds = %invoke.cont285, %if.then283, %invoke.cont279
  %149 = landingpad { ptr, i32 }
          catch ptr @_ZTISt9exception
          catch ptr null
  %150 = extractvalue { ptr, i32 } %149, 0
  store ptr %150, ptr %exn.slot, align 8
  %151 = extractvalue { ptr, i32 } %149, 1
  store i32 %151, ptr %ehselector.slot, align 4
  br label %catch.dispatch292

catch.dispatch292:                                ; preds = %lpad280
  %sel293 = load i32, ptr %ehselector.slot, align 4
  %152 = call i32 @llvm.eh.typeid.for(ptr @_ZTISt9exception) #3
  %matches294 = icmp eq i32 %sel293, %152
  br i1 %matches294, label %catch305, label %catch295

catch305:                                         ; preds = %catch.dispatch292
  %exn307 = load ptr, ptr %exn.slot, align 8
  %153 = call ptr @__cxa_begin_catch(ptr %exn307) #3
  store ptr %153, ptr %gtest_exception306, align 8
  %154 = load ptr, ptr @stderr, align 8
  invoke void @_ZN7testing8internal18FormatFileLocationB5cxx11EPKci(ptr sret(%"class.std::__cxx11::basic_string") align 8 %ref.tmp308, ptr noundef @.str.3, i32 noundef 235)
          to label %invoke.cont310 unwind label %lpad309

invoke.cont310:                                   ; preds = %catch305
  %call311 = call noundef ptr @_ZNKSt7__cxx1112basic_stringIcSt11char_traitsIcESaIcEE5c_strEv(ptr noundef nonnull align 8 dereferenceable(32) %ref.tmp308) #3
  %155 = load ptr, ptr %gtest_exception306, align 8
  %vtable312 = load ptr, ptr %155, align 8
  %vfn313 = getelementptr inbounds ptr, ptr %vtable312, i64 2
  %156 = load ptr, ptr %vfn313, align 8
  %call314 = call noundef ptr %156(ptr noundef nonnull align 8 dereferenceable(8) %155) #3
  %call317 = invoke i32 (ptr, ptr, ...) @fprintf(ptr noundef %154, ptr noundef @.str.8, ptr noundef %call311, ptr noundef %call314)
          to label %invoke.cont316 unwind label %lpad315

invoke.cont316:                                   ; preds = %invoke.cont310
  call void @_ZNSt7__cxx1112basic_stringIcSt11char_traitsIcESaIcEED1Ev(ptr noundef nonnull align 8 dereferenceable(32) %ref.tmp308) #3
  %157 = load ptr, ptr @stderr, align 8
  %call320 = invoke i32 @fflush(ptr noundef %157)
          to label %invoke.cont319 unwind label %lpad309

invoke.cont319:                                   ; preds = %invoke.cont316
  %158 = load ptr, ptr %gtest_dt247, align 8
  %vtable321 = load ptr, ptr %158, align 8
  %vfn322 = getelementptr inbounds ptr, ptr %vtable321, i64 5
  %159 = load ptr, ptr %vfn322, align 8
  invoke void %159(ptr noundef nonnull align 8 dereferenceable(8) %158, i32 noundef 1)
          to label %invoke.cont323 unwind label %lpad309

invoke.cont323:                                   ; preds = %invoke.cont319
  invoke void @__cxa_end_catch()
          to label %invoke.cont324 unwind label %lpad301

invoke.cont324:                                   ; preds = %invoke.cont323
  br label %try.cont327

try.cont327:                                      ; preds = %if.end291, %invoke.cont302, %invoke.cont324
  %160 = load ptr, ptr %gtest_dt247, align 8
  %vtable328 = load ptr, ptr %160, align 8
  %vfn329 = getelementptr inbounds ptr, ptr %vtable328, i64 5
  %161 = load ptr, ptr %vfn329, align 8
  invoke void %161(ptr noundef nonnull align 8 dereferenceable(8) %160, i32 noundef 2)
          to label %invoke.cont330 unwind label %lpad301

invoke.cont330:                                   ; preds = %try.cont327
  store i32 5, ptr %cleanup.dest.slot, align 4
  call void @_ZN7testing8internal9DeathTest14ReturnSentinelD2Ev(ptr noundef nonnull align 8 dereferenceable(8) %gtest_sentinel278) #3
  br label %sw.epilog334

catch295:                                         ; preds = %catch.dispatch292
  %exn296 = load ptr, ptr %exn.slot, align 8
  %162 = call ptr @__cxa_begin_catch(ptr %exn296) #3
  %163 = load ptr, ptr %gtest_dt247, align 8
  %vtable297 = load ptr, ptr %163, align 8
  %vfn298 = getelementptr inbounds ptr, ptr %vtable297, i64 5
  %164 = load ptr, ptr %vfn298, align 8
  invoke void %164(ptr noundef nonnull align 8 dereferenceable(8) %163, i32 noundef 1)
          to label %invoke.cont300 unwind label %lpad299

invoke.cont300:                                   ; preds = %catch295
  invoke void @__cxa_end_catch()
          to label %invoke.cont302 unwind label %lpad301

invoke.cont302:                                   ; preds = %invoke.cont300
  br label %try.cont327

if.else290:                                       ; preds = %invoke.cont281
  br label %if.end291

if.end291:                                        ; preds = %if.else290, %invoke.cont288
  br label %try.cont327

lpad299:                                          ; preds = %catch295
  %165 = landingpad { ptr, i32 }
          cleanup
  %166 = extractvalue { ptr, i32 } %165, 0
  store ptr %166, ptr %exn.slot, align 8
  %167 = extractvalue { ptr, i32 } %165, 1
  store i32 %167, ptr %ehselector.slot, align 4
  invoke void @__cxa_end_catch()
          to label %invoke.cont304 unwind label %terminate.lpad

lpad301:                                          ; preds = %invoke.cont300, %try.cont327, %invoke.cont323
  %168 = landingpad { ptr, i32 }
          cleanup
  %169 = extractvalue { ptr, i32 } %168, 0
  store ptr %169, ptr %exn.slot, align 8
  %170 = extractvalue { ptr, i32 } %168, 1
  store i32 %170, ptr %ehselector.slot, align 4
  br label %ehcleanup332

invoke.cont304:                                   ; preds = %lpad299
  br label %ehcleanup332

lpad309:                                          ; preds = %invoke.cont319, %invoke.cont316, %catch305
  %171 = landingpad { ptr, i32 }
          cleanup
  %172 = extractvalue { ptr, i32 } %171, 0
  store ptr %172, ptr %exn.slot, align 8
  %173 = extractvalue { ptr, i32 } %171, 1
  store i32 %173, ptr %ehselector.slot, align 4
  br label %ehcleanup325

lpad315:                                          ; preds = %invoke.cont310
  %174 = landingpad { ptr, i32 }
          cleanup
  %175 = extractvalue { ptr, i32 } %174, 0
  store ptr %175, ptr %exn.slot, align 8
  %176 = extractvalue { ptr, i32 } %174, 1
  store i32 %176, ptr %ehselector.slot, align 4
  call void @_ZNSt7__cxx1112basic_stringIcSt11char_traitsIcESaIcEED1Ev(ptr noundef nonnull align 8 dereferenceable(32) %ref.tmp308) #3
  br label %ehcleanup325

ehcleanup325:                                     ; preds = %lpad315, %lpad309
  invoke void @__cxa_end_catch()
          to label %invoke.cont326 unwind label %terminate.lpad

invoke.cont326:                                   ; preds = %ehcleanup325
  br label %ehcleanup332

ehcleanup332:                                     ; preds = %invoke.cont326, %invoke.cont304, %lpad301
  call void @_ZN7testing8internal9DeathTest14ReturnSentinelD2Ev(ptr noundef nonnull align 8 dereferenceable(8) %gtest_sentinel278) #3
  br label %ehcleanup338

sw.default333:                                    ; preds = %invoke.cont262
  br label %sw.epilog334

sw.epilog334:                                     ; preds = %sw.default333, %invoke.cont330, %if.end276
  store i32 0, ptr %cleanup.dest.slot, align 4
  br label %cleanup335

cleanup335:                                       ; preds = %sw.epilog334, %if.then275
  call void @_ZNSt10unique_ptrIN7testing8internal9DeathTestESt14default_deleteIS2_EED2Ev(ptr noundef nonnull align 8 dereferenceable(8) %gtest_dt_ptr258) #3
  %cleanup.dest336 = load i32, ptr %cleanup.dest.slot, align 4
  switch i32 %cleanup.dest336, label %unreachable [
    i32 0, label %cleanup.cont337
    i32 4, label %gtest_label_235
  ]

cleanup.cont337:                                  ; preds = %cleanup335
  br label %if.end339

ehcleanup338:                                     ; preds = %ehcleanup332, %lpad261
  call void @_ZNSt10unique_ptrIN7testing8internal9DeathTestESt14default_deleteIS2_EED2Ev(ptr noundef nonnull align 8 dereferenceable(8) %gtest_dt_ptr258) #3
  br label %eh.resume

if.end339:                                        ; preds = %cleanup.cont337, %if.end255
  br label %if.end351

if.else340:                                       ; preds = %if.end243
  br label %gtest_label_235

gtest_label_235:                                  ; preds = %if.else340, %cleanup335, %if.then254
  call void @_ZN7testing7MessageC1Ev(ptr noundef nonnull align 8 dereferenceable(8) %ref.tmp341)
  %call345 = invoke noundef ptr @_ZN7testing8internal9DeathTest11LastMessageEv()
          to label %invoke.cont344 unwind label %lpad343

invoke.cont344:                                   ; preds = %gtest_label_235
  invoke void @_ZN7testing8internal12AssertHelperC1ENS_14TestPartResult4TypeEPKciS5_(ptr noundef nonnull align 8 dereferenceable(8) %ref.tmp342, i32 noundef 1, ptr noundef @.str.3, i32 noundef 235, ptr noundef %call345)
          to label %invoke.cont346 unwind label %lpad343

invoke.cont346:                                   ; preds = %invoke.cont344
  invoke void @_ZNK7testing8internal12AssertHelperaSERKNS_7MessageE(ptr noundef nonnull align 8 dereferenceable(8) %ref.tmp342, ptr noundef nonnull align 8 dereferenceable(8) %ref.tmp341)
          to label %invoke.cont348 unwind label %lpad347

invoke.cont348:                                   ; preds = %invoke.cont346
  call void @_ZN7testing8internal12AssertHelperD1Ev(ptr noundef nonnull align 8 dereferenceable(8) %ref.tmp342) #3
  call void @_ZN7testing7MessageD2Ev(ptr noundef nonnull align 8 dereferenceable(8) %ref.tmp341) #3
  br label %if.end351

lpad343:                                          ; preds = %invoke.cont344, %gtest_label_235
  %177 = landingpad { ptr, i32 }
          cleanup
  %178 = extractvalue { ptr, i32 } %177, 0
  store ptr %178, ptr %exn.slot, align 8
  %179 = extractvalue { ptr, i32 } %177, 1
  store i32 %179, ptr %ehselector.slot, align 4
  br label %ehcleanup350

lpad347:                                          ; preds = %invoke.cont346
  %180 = landingpad { ptr, i32 }
          cleanup
  %181 = extractvalue { ptr, i32 } %180, 0
  store ptr %181, ptr %exn.slot, align 8
  %182 = extractvalue { ptr, i32 } %180, 1
  store i32 %182, ptr %ehselector.slot, align 4
  call void @_ZN7testing8internal12AssertHelperD1Ev(ptr noundef nonnull align 8 dereferenceable(8) %ref.tmp342) #3
  br label %ehcleanup350

ehcleanup350:                                     ; preds = %lpad347, %lpad343
  call void @_ZN7testing7MessageD2Ev(ptr noundef nonnull align 8 dereferenceable(8) %ref.tmp341) #3
  br label %eh.resume

if.end351:                                        ; preds = %invoke.cont348, %if.end339
  %call352 = call noundef zeroext i1 @_ZN7testing8internal10AlwaysTrueEv()
  br i1 %call352, label %if.then353, label %if.else448

if.then353:                                       ; preds = %if.end351
  %183 = load ptr, ptr %expected, align 8
  call void @_ZN7testing8internal20MakeDeathTestMatcherB5cxx11EPKc(ptr sret(%"class.testing::Matcher") align 8 %agg.tmp355, ptr noundef %183)
  %call358 = invoke noundef zeroext i1 @_ZN7testing8internal9DeathTest6CreateEPKcNS_7MatcherIRKNSt7__cxx1112basic_stringIcSt11char_traitsIcESaIcEEEEES3_iPPS1_(ptr noundef @.str.11, ptr noundef %agg.tmp355, ptr noundef @.str.3, i32 noundef 236, ptr noundef %gtest_dt354)
          to label %invoke.cont357 unwind label %lpad356

invoke.cont357:                                   ; preds = %if.then353
  %lnot359 = xor i1 %call358, true
  call void @_ZN7testing7MatcherIRKNSt7__cxx1112basic_stringIcSt11char_traitsIcESaIcEEEED2Ev(ptr noundef nonnull align 8 dereferenceable(24) %agg.tmp355) #3
  br i1 %lnot359, label %if.then361, label %if.end362

if.then361:                                       ; preds = %invoke.cont357
  br label %gtest_label_236

lpad356:                                          ; preds = %if.then353
  %184 = landingpad { ptr, i32 }
          cleanup
  %185 = extractvalue { ptr, i32 } %184, 0
  store ptr %185, ptr %exn.slot, align 8
  %186 = extractvalue { ptr, i32 } %184, 1
  store i32 %186, ptr %ehselector.slot, align 4
  call void @_ZN7testing7MatcherIRKNSt7__cxx1112basic_stringIcSt11char_traitsIcESaIcEEEED2Ev(ptr noundef nonnull align 8 dereferenceable(24) %agg.tmp355) #3
  br label %eh.resume

if.end362:                                        ; preds = %invoke.cont357
  %187 = load ptr, ptr %gtest_dt354, align 8
  %cmp363 = icmp ne ptr %187, null
  br i1 %cmp363, label %if.then364, label %if.end447

if.then364:                                       ; preds = %if.end362
  %188 = load ptr, ptr %gtest_dt354, align 8
  call void @_ZNSt10unique_ptrIN7testing8internal9DeathTestESt14default_deleteIS2_EEC2IS4_vEEPS2_(ptr noundef nonnull align 8 dereferenceable(8) %gtest_dt_ptr365, ptr noundef %188) #3
  %189 = load ptr, ptr %gtest_dt354, align 8
  %vtable366 = load ptr, ptr %189, align 8
  %vfn367 = getelementptr inbounds ptr, ptr %vtable366, i64 2
  %190 = load ptr, ptr %vfn367, align 8
  %call370 = invoke noundef i32 %190(ptr noundef nonnull align 8 dereferenceable(8) %189)
          to label %invoke.cont369 unwind label %lpad368

invoke.cont369:                                   ; preds = %if.then364
  switch i32 %call370, label %sw.default441 [
    i32 0, label %sw.bb371
    i32 1, label %sw.bb384
  ]

lpad368:                                          ; preds = %sw.bb384, %invoke.cont376, %invoke.cont374, %sw.bb371, %if.then364
  %191 = landingpad { ptr, i32 }
          cleanup
  %192 = extractvalue { ptr, i32 } %191, 0
  store ptr %192, ptr %exn.slot, align 8
  %193 = extractvalue { ptr, i32 } %191, 1
  store i32 %193, ptr %ehselector.slot, align 4
  br label %ehcleanup446

sw.bb371:                                         ; preds = %invoke.cont369
  %194 = load ptr, ptr %gtest_dt354, align 8
  %195 = load ptr, ptr %gtest_dt354, align 8
  %vtable372 = load ptr, ptr %195, align 8
  %vfn373 = getelementptr inbounds ptr, ptr %vtable372, i64 3
  %196 = load ptr, ptr %vfn373, align 8
  %call375 = invoke noundef i32 %196(ptr noundef nonnull align 8 dereferenceable(8) %195)
          to label %invoke.cont374 unwind label %lpad368

invoke.cont374:                                   ; preds = %sw.bb371
  %call377 = invoke noundef zeroext i1 @_ZN7testing8internal20ExitedUnsuccessfullyEi(i32 noundef %call375)
          to label %invoke.cont376 unwind label %lpad368

invoke.cont376:                                   ; preds = %invoke.cont374
  %vtable378 = load ptr, ptr %194, align 8
  %vfn379 = getelementptr inbounds ptr, ptr %vtable378, i64 4
  %197 = load ptr, ptr %vfn379, align 8
  %call381 = invoke noundef zeroext i1 %197(ptr noundef nonnull align 8 dereferenceable(8) %194, i1 noundef zeroext %call377)
          to label %invoke.cont380 unwind label %lpad368

invoke.cont380:                                   ; preds = %invoke.cont376
  br i1 %call381, label %if.end383, label %if.then382

if.then382:                                       ; preds = %invoke.cont380
  store i32 6, ptr %cleanup.dest.slot, align 4
  br label %cleanup443

if.end383:                                        ; preds = %invoke.cont380
  br label %sw.epilog442

sw.bb384:                                         ; preds = %invoke.cont369
  %198 = load ptr, ptr %gtest_dt354, align 8
  invoke void @_ZN7testing8internal9DeathTest14ReturnSentinelC2EPS1_(ptr noundef nonnull align 8 dereferenceable(8) %gtest_sentinel385, ptr noundef %198)
          to label %invoke.cont386 unwind label %lpad368

invoke.cont386:                                   ; preds = %sw.bb384
  %call389 = invoke noundef zeroext i1 @_ZN7testing8internal10AlwaysTrueEv()
          to label %invoke.cont388 unwind label %lpad387

invoke.cont388:                                   ; preds = %invoke.cont386
  br i1 %call389, label %if.then390, label %if.else398

if.then390:                                       ; preds = %invoke.cont388
  %call394 = invoke noundef ptr @_ZN12_GLOBAL__N_114return_pointerEv()
          to label %invoke.cont393 unwind label %lpad387

invoke.cont393:                                   ; preds = %if.then390
  store ptr %call394, ptr %ref.tmp392, align 8
  call void @_ZN3gsl8not_nullIPKiEC2IPivEEOT_(ptr noundef nonnull align 8 dereferenceable(8) %agg.tmp391, ptr noundef nonnull align 8 dereferenceable(8) %ref.tmp392) #3
  %coerce.dive395 = getelementptr inbounds %"class.gsl::not_null.19", ptr %agg.tmp391, i32 0, i32 0
  %199 = load ptr, ptr %coerce.dive395, align 8
  %call397 = invoke noundef zeroext i1 @_ZN12_GLOBAL__N_112helper_constEN3gsl8not_nullIPKiEE(ptr %199)
          to label %invoke.cont396 unwind label %lpad387

invoke.cont396:                                   ; preds = %invoke.cont393
  br label %if.end399

lpad387:                                          ; preds = %invoke.cont393, %if.then390, %invoke.cont386
  %200 = landingpad { ptr, i32 }
          catch ptr @_ZTISt9exception
          catch ptr null
  %201 = extractvalue { ptr, i32 } %200, 0
  store ptr %201, ptr %exn.slot, align 8
  %202 = extractvalue { ptr, i32 } %200, 1
  store i32 %202, ptr %ehselector.slot, align 4
  br label %catch.dispatch400

catch.dispatch400:                                ; preds = %lpad387
  %sel401 = load i32, ptr %ehselector.slot, align 4
  %203 = call i32 @llvm.eh.typeid.for(ptr @_ZTISt9exception) #3
  %matches402 = icmp eq i32 %sel401, %203
  br i1 %matches402, label %catch413, label %catch403

catch413:                                         ; preds = %catch.dispatch400
  %exn415 = load ptr, ptr %exn.slot, align 8
  %204 = call ptr @__cxa_begin_catch(ptr %exn415) #3
  store ptr %204, ptr %gtest_exception414, align 8
  %205 = load ptr, ptr @stderr, align 8
  invoke void @_ZN7testing8internal18FormatFileLocationB5cxx11EPKci(ptr sret(%"class.std::__cxx11::basic_string") align 8 %ref.tmp416, ptr noundef @.str.3, i32 noundef 236)
          to label %invoke.cont418 unwind label %lpad417

invoke.cont418:                                   ; preds = %catch413
  %call419 = call noundef ptr @_ZNKSt7__cxx1112basic_stringIcSt11char_traitsIcESaIcEE5c_strEv(ptr noundef nonnull align 8 dereferenceable(32) %ref.tmp416) #3
  %206 = load ptr, ptr %gtest_exception414, align 8
  %vtable420 = load ptr, ptr %206, align 8
  %vfn421 = getelementptr inbounds ptr, ptr %vtable420, i64 2
  %207 = load ptr, ptr %vfn421, align 8
  %call422 = call noundef ptr %207(ptr noundef nonnull align 8 dereferenceable(8) %206) #3
  %call425 = invoke i32 (ptr, ptr, ...) @fprintf(ptr noundef %205, ptr noundef @.str.8, ptr noundef %call419, ptr noundef %call422)
          to label %invoke.cont424 unwind label %lpad423

invoke.cont424:                                   ; preds = %invoke.cont418
  call void @_ZNSt7__cxx1112basic_stringIcSt11char_traitsIcESaIcEED1Ev(ptr noundef nonnull align 8 dereferenceable(32) %ref.tmp416) #3
  %208 = load ptr, ptr @stderr, align 8
  %call428 = invoke i32 @fflush(ptr noundef %208)
          to label %invoke.cont427 unwind label %lpad417

invoke.cont427:                                   ; preds = %invoke.cont424
  %209 = load ptr, ptr %gtest_dt354, align 8
  %vtable429 = load ptr, ptr %209, align 8
  %vfn430 = getelementptr inbounds ptr, ptr %vtable429, i64 5
  %210 = load ptr, ptr %vfn430, align 8
  invoke void %210(ptr noundef nonnull align 8 dereferenceable(8) %209, i32 noundef 1)
          to label %invoke.cont431 unwind label %lpad417

invoke.cont431:                                   ; preds = %invoke.cont427
  invoke void @__cxa_end_catch()
          to label %invoke.cont432 unwind label %lpad409

invoke.cont432:                                   ; preds = %invoke.cont431
  br label %try.cont435

try.cont435:                                      ; preds = %if.end399, %invoke.cont410, %invoke.cont432
  %211 = load ptr, ptr %gtest_dt354, align 8
  %vtable436 = load ptr, ptr %211, align 8
  %vfn437 = getelementptr inbounds ptr, ptr %vtable436, i64 5
  %212 = load ptr, ptr %vfn437, align 8
  invoke void %212(ptr noundef nonnull align 8 dereferenceable(8) %211, i32 noundef 2)
          to label %invoke.cont438 unwind label %lpad409

invoke.cont438:                                   ; preds = %try.cont435
  store i32 7, ptr %cleanup.dest.slot, align 4
  call void @_ZN7testing8internal9DeathTest14ReturnSentinelD2Ev(ptr noundef nonnull align 8 dereferenceable(8) %gtest_sentinel385) #3
  br label %sw.epilog442

catch403:                                         ; preds = %catch.dispatch400
  %exn404 = load ptr, ptr %exn.slot, align 8
  %213 = call ptr @__cxa_begin_catch(ptr %exn404) #3
  %214 = load ptr, ptr %gtest_dt354, align 8
  %vtable405 = load ptr, ptr %214, align 8
  %vfn406 = getelementptr inbounds ptr, ptr %vtable405, i64 5
  %215 = load ptr, ptr %vfn406, align 8
  invoke void %215(ptr noundef nonnull align 8 dereferenceable(8) %214, i32 noundef 1)
          to label %invoke.cont408 unwind label %lpad407

invoke.cont408:                                   ; preds = %catch403
  invoke void @__cxa_end_catch()
          to label %invoke.cont410 unwind label %lpad409

invoke.cont410:                                   ; preds = %invoke.cont408
  br label %try.cont435

if.else398:                                       ; preds = %invoke.cont388
  br label %if.end399

if.end399:                                        ; preds = %if.else398, %invoke.cont396
  br label %try.cont435

lpad407:                                          ; preds = %catch403
  %216 = landingpad { ptr, i32 }
          cleanup
  %217 = extractvalue { ptr, i32 } %216, 0
  store ptr %217, ptr %exn.slot, align 8
  %218 = extractvalue { ptr, i32 } %216, 1
  store i32 %218, ptr %ehselector.slot, align 4
  invoke void @__cxa_end_catch()
          to label %invoke.cont412 unwind label %terminate.lpad

lpad409:                                          ; preds = %invoke.cont408, %try.cont435, %invoke.cont431
  %219 = landingpad { ptr, i32 }
          cleanup
  %220 = extractvalue { ptr, i32 } %219, 0
  store ptr %220, ptr %exn.slot, align 8
  %221 = extractvalue { ptr, i32 } %219, 1
  store i32 %221, ptr %ehselector.slot, align 4
  br label %ehcleanup440

invoke.cont412:                                   ; preds = %lpad407
  br label %ehcleanup440

lpad417:                                          ; preds = %invoke.cont427, %invoke.cont424, %catch413
  %222 = landingpad { ptr, i32 }
          cleanup
  %223 = extractvalue { ptr, i32 } %222, 0
  store ptr %223, ptr %exn.slot, align 8
  %224 = extractvalue { ptr, i32 } %222, 1
  store i32 %224, ptr %ehselector.slot, align 4
  br label %ehcleanup433

lpad423:                                          ; preds = %invoke.cont418
  %225 = landingpad { ptr, i32 }
          cleanup
  %226 = extractvalue { ptr, i32 } %225, 0
  store ptr %226, ptr %exn.slot, align 8
  %227 = extractvalue { ptr, i32 } %225, 1
  store i32 %227, ptr %ehselector.slot, align 4
  call void @_ZNSt7__cxx1112basic_stringIcSt11char_traitsIcESaIcEED1Ev(ptr noundef nonnull align 8 dereferenceable(32) %ref.tmp416) #3
  br label %ehcleanup433

ehcleanup433:                                     ; preds = %lpad423, %lpad417
  invoke void @__cxa_end_catch()
          to label %invoke.cont434 unwind label %terminate.lpad

invoke.cont434:                                   ; preds = %ehcleanup433
  br label %ehcleanup440

ehcleanup440:                                     ; preds = %invoke.cont434, %invoke.cont412, %lpad409
  call void @_ZN7testing8internal9DeathTest14ReturnSentinelD2Ev(ptr noundef nonnull align 8 dereferenceable(8) %gtest_sentinel385) #3
  br label %ehcleanup446

sw.default441:                                    ; preds = %invoke.cont369
  br label %sw.epilog442

sw.epilog442:                                     ; preds = %sw.default441, %invoke.cont438, %if.end383
  store i32 0, ptr %cleanup.dest.slot, align 4
  br label %cleanup443

cleanup443:                                       ; preds = %sw.epilog442, %if.then382
  call void @_ZNSt10unique_ptrIN7testing8internal9DeathTestESt14default_deleteIS2_EED2Ev(ptr noundef nonnull align 8 dereferenceable(8) %gtest_dt_ptr365) #3
  %cleanup.dest444 = load i32, ptr %cleanup.dest.slot, align 4
  switch i32 %cleanup.dest444, label %unreachable [
    i32 0, label %cleanup.cont445
    i32 6, label %gtest_label_236
  ]

cleanup.cont445:                                  ; preds = %cleanup443
  br label %if.end447

ehcleanup446:                                     ; preds = %ehcleanup440, %lpad368
  call void @_ZNSt10unique_ptrIN7testing8internal9DeathTestESt14default_deleteIS2_EED2Ev(ptr noundef nonnull align 8 dereferenceable(8) %gtest_dt_ptr365) #3
  br label %eh.resume

if.end447:                                        ; preds = %cleanup.cont445, %if.end362
  br label %if.end459

if.else448:                                       ; preds = %if.end351
  br label %gtest_label_236

gtest_label_236:                                  ; preds = %if.else448, %cleanup443, %if.then361
  call void @_ZN7testing7MessageC1Ev(ptr noundef nonnull align 8 dereferenceable(8) %ref.tmp449)
  %call453 = invoke noundef ptr @_ZN7testing8internal9DeathTest11LastMessageEv()
          to label %invoke.cont452 unwind label %lpad451

invoke.cont452:                                   ; preds = %gtest_label_236
  invoke void @_ZN7testing8internal12AssertHelperC1ENS_14TestPartResult4TypeEPKciS5_(ptr noundef nonnull align 8 dereferenceable(8) %ref.tmp450, i32 noundef 1, ptr noundef @.str.3, i32 noundef 236, ptr noundef %call453)
          to label %invoke.cont454 unwind label %lpad451

invoke.cont454:                                   ; preds = %invoke.cont452
  invoke void @_ZNK7testing8internal12AssertHelperaSERKNS_7MessageE(ptr noundef nonnull align 8 dereferenceable(8) %ref.tmp450, ptr noundef nonnull align 8 dereferenceable(8) %ref.tmp449)
          to label %invoke.cont456 unwind label %lpad455

invoke.cont456:                                   ; preds = %invoke.cont454
  call void @_ZN7testing8internal12AssertHelperD1Ev(ptr noundef nonnull align 8 dereferenceable(8) %ref.tmp450) #3
  call void @_ZN7testing7MessageD2Ev(ptr noundef nonnull align 8 dereferenceable(8) %ref.tmp449) #3
  br label %if.end459

lpad451:                                          ; preds = %invoke.cont452, %gtest_label_236
  %228 = landingpad { ptr, i32 }
          cleanup
  %229 = extractvalue { ptr, i32 } %228, 0
  store ptr %229, ptr %exn.slot, align 8
  %230 = extractvalue { ptr, i32 } %228, 1
  store i32 %230, ptr %ehselector.slot, align 4
  br label %ehcleanup458

lpad455:                                          ; preds = %invoke.cont454
  %231 = landingpad { ptr, i32 }
          cleanup
  %232 = extractvalue { ptr, i32 } %231, 0
  store ptr %232, ptr %exn.slot, align 8
  %233 = extractvalue { ptr, i32 } %231, 1
  store i32 %233, ptr %ehselector.slot, align 4
  call void @_ZN7testing8internal12AssertHelperD1Ev(ptr noundef nonnull align 8 dereferenceable(8) %ref.tmp450) #3
  br label %ehcleanup458

ehcleanup458:                                     ; preds = %lpad455, %lpad451
  call void @_ZN7testing7MessageD2Ev(ptr noundef nonnull align 8 dereferenceable(8) %ref.tmp449) #3
  br label %eh.resume

if.end459:                                        ; preds = %invoke.cont456, %if.end447
  ret void

eh.resume:                                        ; preds = %ehcleanup458, %ehcleanup446, %lpad356, %ehcleanup350, %ehcleanup338, %lpad249, %ehcleanup244, %ehcleanup214, %ehcleanup180, %ehcleanup139, %ehcleanup106, %ehcleanup19
  %exn460 = load ptr, ptr %exn.slot, align 8
  %sel461 = load i32, ptr %ehselector.slot, align 4
  %lpad.val = insertvalue { ptr, i32 } poison, ptr %exn460, 0
  %lpad.val462 = insertvalue { ptr, i32 } %lpad.val, i32 %sel461, 1
  resume { ptr, i32 } %lpad.val462

terminate.lpad:                                   ; preds = %ehcleanup433, %lpad407, %ehcleanup325, %lpad299, %ehcleanup85, %lpad60
  %234 = landingpad { ptr, i32 }
          catch ptr null
  %235 = extractvalue { ptr, i32 } %234, 0
  call void @__clang_call_terminate(ptr %235) #18
  unreachable

unreachable:                                      ; preds = %cleanup443, %cleanup335, %cleanup
  unreachable
}

; Function Attrs: nounwind
declare noundef ptr @_ZSt13set_terminatePFvvE(ptr noundef) #2

; Function Attrs: mustprogress nounwind uwtable
define internal noundef ptr @"_ZZN42notnull_tests_TestNotNullConstructors_Test8TestBodyEvENK3$_0cvPFvvEEv"(ptr noundef nonnull align 1 dereferenceable(1) %this) #7 align 2 {
entry:
  %this.addr = alloca ptr, align 8
  store ptr %this, ptr %this.addr, align 8
  ret ptr @"_ZZN42notnull_tests_TestNotNullConstructors_Test8TestBodyEvEN3$_08__invokeEv"
}

; Function Attrs: mustprogress nounwind uwtable
define linkonce_odr dso_local noundef ptr @_Z22GetExpectedDeathStringPFvvE(ptr noundef %handle) #7 comdat {
entry:
  %handle.addr = alloca ptr, align 8
  store ptr %handle, ptr %handle.addr, align 8
  %0 = load ptr, ptr %handle.addr, align 8
  %tobool = icmp ne ptr %0, null
  %cond = select i1 %tobool, ptr @_ZL11deathstring, ptr @_ZL32failed_set_terminate_deathstring
  ret ptr %cond
}

; Function Attrs: mustprogress nounwind uwtable
define linkonce_odr dso_local void @_ZN10RefCountedIiEC2EPi(ptr noundef nonnull align 8 dereferenceable(8) %this, ptr noundef %p) unnamed_addr #7 comdat align 2 {
entry:
  %this.addr = alloca ptr, align 8
  %p.addr = alloca ptr, align 8
  store ptr %this, ptr %this.addr, align 8
  store ptr %p, ptr %p.addr, align 8
  %this1 = load ptr, ptr %this.addr, align 8
  %p_ = getelementptr inbounds %struct.RefCounted, ptr %this1, i32 0, i32 0
  %0 = load ptr, ptr %p.addr, align 8
  store ptr %0, ptr %p_, align 8
  ret void
}

; Function Attrs: mustprogress nounwind uwtable
define linkonce_odr dso_local void @_ZN3gsl8not_nullIPiEC2IR10RefCountedIiEvEEOT_(ptr noundef nonnull align 8 dereferenceable(8) %this, ptr noundef nonnull align 8 dereferenceable(8) %u) unnamed_addr #7 comdat align 2 personality ptr @__gxx_personality_v0 {
entry:
  %this.addr = alloca ptr, align 8
  %u.addr = alloca ptr, align 8
  store ptr %this, ptr %this.addr, align 8
  store ptr %u, ptr %u.addr, align 8
  %this1 = load ptr, ptr %this.addr, align 8
  %ptr_ = getelementptr inbounds %"class.gsl::not_null", ptr %this1, i32 0, i32 0
  %0 = load ptr, ptr %u.addr, align 8
  %call = invoke noundef ptr @_ZN10RefCountedIiEcvPiEv(ptr noundef nonnull align 8 dereferenceable(8) %0)
          to label %invoke.cont unwind label %terminate.lpad

invoke.cont:                                      ; preds = %entry
  store ptr %call, ptr %ptr_, align 8
  %ptr_2 = getelementptr inbounds %"class.gsl::not_null", ptr %this1, i32 0, i32 0
  %1 = load ptr, ptr %ptr_2, align 8
  %cmp = icmp ne ptr %1, null
  %lnot = xor i1 %cmp, true
  %lnot3 = xor i1 %lnot, true
  br i1 %lnot3, label %cond.true, label %cond.false

cond.true:                                        ; preds = %invoke.cont
  br label %cond.end

cond.false:                                       ; preds = %invoke.cont
  call void @_ZN3gsl7details9terminateEv() #18
  unreachable

2:                                                ; No predecessors!
  br label %cond.end

cond.end:                                         ; preds = %2, %cond.true
  ret void

terminate.lpad:                                   ; preds = %entry
  %3 = landingpad { ptr, i32 }
          catch ptr null
  %4 = extractvalue { ptr, i32 } %3, 0
  call void @__clang_call_terminate(ptr %4) #18
  unreachable
}

; Function Attrs: mustprogress nounwind uwtable
define linkonce_odr dso_local noundef ptr @_ZNK3gsl8not_nullIPiE3getEv(ptr noundef nonnull align 8 dereferenceable(8) %this) #7 comdat align 2 {
entry:
  %this.addr = alloca ptr, align 8
  store ptr %this, ptr %this.addr, align 8
  %this1 = load ptr, ptr %this.addr, align 8
  %ptr_ = getelementptr inbounds %"class.gsl::not_null", ptr %this1, i32 0, i32 0
  %0 = load ptr, ptr %ptr_, align 8
  ret ptr %0
}

; Function Attrs: mustprogress nounwind uwtable
define linkonce_odr dso_local void @_ZN7testing15AssertionResultC2IbEERKT_PNSt9enable_ifIXntsr3std14is_convertibleIS2_S0_EE5valueEvE4typeE(ptr noundef nonnull align 8 dereferenceable(16) %this, ptr noundef nonnull align 1 dereferenceable(1) %success, ptr noundef %0) unnamed_addr #7 comdat align 2 {
entry:
  %this.addr = alloca ptr, align 8
  %success.addr = alloca ptr, align 8
  %.addr = alloca ptr, align 8
  store ptr %this, ptr %this.addr, align 8
  store ptr %success, ptr %success.addr, align 8
  store ptr %0, ptr %.addr, align 8
  %this1 = load ptr, ptr %this.addr, align 8
  %success_ = getelementptr inbounds %"class.testing::AssertionResult", ptr %this1, i32 0, i32 0
  %1 = load ptr, ptr %success.addr, align 8
  %2 = load i8, ptr %1, align 1
  %tobool = trunc i8 %2 to i1
  %frombool = zext i1 %tobool to i8
  store i8 %frombool, ptr %success_, align 8
  %message_ = getelementptr inbounds %"class.testing::AssertionResult", ptr %this1, i32 0, i32 1
  call void @_ZNSt10unique_ptrINSt7__cxx1112basic_stringIcSt11char_traitsIcESaIcEEESt14default_deleteIS5_EEC2IS7_vEEv(ptr noundef nonnull align 8 dereferenceable(8) %message_) #3
  ret void
}

; Function Attrs: mustprogress nounwind uwtable
define linkonce_odr dso_local noundef zeroext i1 @_ZNK7testing15AssertionResultcvbEv(ptr noundef nonnull align 8 dereferenceable(16) %this) #7 comdat align 2 {
entry:
  %this.addr = alloca ptr, align 8
  store ptr %this, ptr %this.addr, align 8
  %this1 = load ptr, ptr %this.addr, align 8
  %success_ = getelementptr inbounds %"class.testing::AssertionResult", ptr %this1, i32 0, i32 0
  %0 = load i8, ptr %success_, align 8
  %tobool = trunc i8 %0 to i1
  ret i1 %tobool
}

declare void @_ZN7testing7MessageC1Ev(ptr noundef nonnull align 8 dereferenceable(8)) unnamed_addr #1

declare void @_ZN7testing8internal30GetBoolAssertionFailureMessageB5cxx11ERKNS_15AssertionResultEPKcS5_S5_(ptr sret(%"class.std::__cxx11::basic_string") align 8, ptr noundef nonnull align 8 dereferenceable(16), ptr noundef, ptr noundef, ptr noundef) #1

; Function Attrs: nounwind
declare noundef ptr @_ZNKSt7__cxx1112basic_stringIcSt11char_traitsIcESaIcEE5c_strEv(ptr noundef nonnull align 8 dereferenceable(32)) #2

declare void @_ZN7testing8internal12AssertHelperC1ENS_14TestPartResult4TypeEPKciS5_(ptr noundef nonnull align 8 dereferenceable(8), i32 noundef, ptr noundef, i32 noundef, ptr noundef) unnamed_addr #1

declare void @_ZNK7testing8internal12AssertHelperaSERKNS_7MessageE(ptr noundef nonnull align 8 dereferenceable(8), ptr noundef nonnull align 8 dereferenceable(8)) #1

; Function Attrs: nounwind
declare void @_ZN7testing8internal12AssertHelperD1Ev(ptr noundef nonnull align 8 dereferenceable(8)) unnamed_addr #2

; Function Attrs: mustprogress nounwind uwtable
define linkonce_odr dso_local void @_ZN7testing7MessageD2Ev(ptr noundef nonnull align 8 dereferenceable(8) %this) unnamed_addr #7 comdat align 2 {
entry:
  %this.addr = alloca ptr, align 8
  store ptr %this, ptr %this.addr, align 8
  %this1 = load ptr, ptr %this.addr, align 8
  %ss_ = getelementptr inbounds %"class.testing::Message", ptr %this1, i32 0, i32 0
  call void @_ZNSt10unique_ptrINSt7__cxx1118basic_stringstreamIcSt11char_traitsIcESaIcEEESt14default_deleteIS5_EED2Ev(ptr noundef nonnull align 8 dereferenceable(8) %ss_) #3
  ret void
}

; Function Attrs: mustprogress nounwind uwtable
define linkonce_odr dso_local void @_ZN7testing15AssertionResultD2Ev(ptr noundef nonnull align 8 dereferenceable(16) %this) unnamed_addr #7 comdat align 2 {
entry:
  %this.addr = alloca ptr, align 8
  store ptr %this, ptr %this.addr, align 8
  %this1 = load ptr, ptr %this.addr, align 8
  %message_ = getelementptr inbounds %"class.testing::AssertionResult", ptr %this1, i32 0, i32 1
  call void @_ZNSt10unique_ptrINSt7__cxx1112basic_stringIcSt11char_traitsIcESaIcEEESt14default_deleteIS5_EED2Ev(ptr noundef nonnull align 8 dereferenceable(8) %message_) #3
  ret void
}

; Function Attrs: mustprogress uwtable
define linkonce_odr dso_local void @_ZSt11make_sharedIiJiEESt10shared_ptrINSt9enable_ifIXntsr8is_arrayIT_EE5valueES2_E4typeEEDpOT0_(ptr noalias sret(%"class.std::shared_ptr") align 8 %agg.result, ptr noundef nonnull align 4 dereferenceable(4) %__args) #4 comdat {
entry:
  %result.ptr = alloca ptr, align 8
  %__args.addr = alloca ptr, align 8
  %__a = alloca %"class.std::allocator.84", align 1
  %agg.tmp = alloca %"struct.std::_Sp_alloc_shared_tag", align 8
  store ptr %agg.result, ptr %result.ptr, align 8
  store ptr %__args, ptr %__args.addr, align 8
  %_M_a = getelementptr inbounds %"struct.std::_Sp_alloc_shared_tag", ptr %agg.tmp, i32 0, i32 0
  store ptr %__a, ptr %_M_a, align 8
  %0 = load ptr, ptr %__args.addr, align 8
  %coerce.dive = getelementptr inbounds %"struct.std::_Sp_alloc_shared_tag", ptr %agg.tmp, i32 0, i32 0
  %1 = load ptr, ptr %coerce.dive, align 8
  call void @_ZNSt10shared_ptrIiEC2ISaIvEJiEEESt20_Sp_alloc_shared_tagIT_EDpOT0_(ptr noundef nonnull align 8 dereferenceable(16) %agg.result, ptr %1, ptr noundef nonnull align 4 dereferenceable(4) %0)
  ret void
}

; Function Attrs: mustprogress nounwind uwtable
define linkonce_odr dso_local void @_ZN3gsl8not_nullISt10shared_ptrIiEEC2IvEES2_(ptr noundef nonnull align 8 dereferenceable(16) %this, ptr noundef %u) unnamed_addr #7 comdat align 2 {
entry:
  %this.addr = alloca ptr, align 8
  %u.indirect_addr = alloca ptr, align 8
  store ptr %this, ptr %this.addr, align 8
  store ptr %u, ptr %u.indirect_addr, align 8
  %this1 = load ptr, ptr %this.addr, align 8
  %ptr_ = getelementptr inbounds %"class.gsl::not_null.10", ptr %this1, i32 0, i32 0
  call void @_ZNSt10shared_ptrIiEC2EOS0_(ptr noundef nonnull align 8 dereferenceable(16) %ptr_, ptr noundef nonnull align 8 dereferenceable(16) %u) #3
  %ptr_2 = getelementptr inbounds %"class.gsl::not_null.10", ptr %this1, i32 0, i32 0
  %call = call noundef zeroext i1 @_ZStneIiEbRKSt10shared_ptrIT_EDn(ptr noundef nonnull align 8 dereferenceable(16) %ptr_2, ptr null) #3
  %lnot = xor i1 %call, true
  %lnot3 = xor i1 %lnot, true
  br i1 %lnot3, label %cond.true, label %cond.false

cond.true:                                        ; preds = %entry
  br label %cond.end

cond.false:                                       ; preds = %entry
  call void @_ZN3gsl7details9terminateEv() #18
  unreachable

0:                                                ; No predecessors!
  br label %cond.end

cond.end:                                         ; preds = %0, %cond.true
  ret void
}

; Function Attrs: mustprogress nounwind uwtable
define linkonce_odr dso_local void @_ZNSt10shared_ptrIiED2Ev(ptr noundef nonnull align 8 dereferenceable(16) %this) unnamed_addr #7 comdat align 2 {
entry:
  %this.addr = alloca ptr, align 8
  store ptr %this, ptr %this.addr, align 8
  %this1 = load ptr, ptr %this.addr, align 8
  call void @_ZNSt12__shared_ptrIiLN9__gnu_cxx12_Lock_policyE2EED2Ev(ptr noundef nonnull align 8 dereferenceable(16) %this1) #3
  ret void
}

declare noundef zeroext i1 @_ZN7testing8internal10AlwaysTrueEv() #1

declare noundef zeroext i1 @_ZN7testing8internal9DeathTest6CreateEPKcNS_7MatcherIRKNSt7__cxx1112basic_stringIcSt11char_traitsIcESaIcEEEEES3_iPPS1_(ptr noundef, ptr noundef, ptr noundef, i32 noundef, ptr noundef) #1

; Function Attrs: mustprogress uwtable
define linkonce_odr dso_local void @_ZN7testing8internal20MakeDeathTestMatcherB5cxx11EPKc(ptr noalias sret(%"class.testing::Matcher") align 8 %agg.result, ptr noundef %regex) #4 comdat personality ptr @__gxx_personality_v0 {
entry:
  %result.ptr = alloca ptr, align 8
  %regex.addr = alloca ptr, align 8
  %ref.tmp = alloca %"class.testing::PolymorphicMatcher", align 8
  %exn.slot = alloca ptr, align 8
  %ehselector.slot = alloca i32, align 4
  store ptr %agg.result, ptr %result.ptr, align 8
  store ptr %regex, ptr %regex.addr, align 8
  call void @_ZN7testing13ContainsRegexIPKcEENS_18PolymorphicMatcherINS_8internal19MatchesRegexMatcherEEERKT_(ptr sret(%"class.testing::PolymorphicMatcher") align 8 %ref.tmp, ptr noundef nonnull align 8 dereferenceable(8) %regex.addr)
  invoke void @_ZNK7testing18PolymorphicMatcherINS_8internal19MatchesRegexMatcherEEcvNS_7MatcherIT_EEIRKNSt7__cxx1112basic_stringIcSt11char_traitsIcESaIcEEEEEv(ptr sret(%"class.testing::Matcher") align 8 %agg.result, ptr noundef nonnull align 8 dereferenceable(24) %ref.tmp)
          to label %invoke.cont unwind label %lpad

invoke.cont:                                      ; preds = %entry
  call void @_ZN7testing18PolymorphicMatcherINS_8internal19MatchesRegexMatcherEED2Ev(ptr noundef nonnull align 8 dereferenceable(24) %ref.tmp) #3
  ret void

lpad:                                             ; preds = %entry
  %0 = landingpad { ptr, i32 }
          cleanup
  %1 = extractvalue { ptr, i32 } %0, 0
  store ptr %1, ptr %exn.slot, align 8
  %2 = extractvalue { ptr, i32 } %0, 1
  store i32 %2, ptr %ehselector.slot, align 4
  call void @_ZN7testing18PolymorphicMatcherINS_8internal19MatchesRegexMatcherEED2Ev(ptr noundef nonnull align 8 dereferenceable(24) %ref.tmp) #3
  br label %eh.resume

eh.resume:                                        ; preds = %lpad
  %exn = load ptr, ptr %exn.slot, align 8
  %sel = load i32, ptr %ehselector.slot, align 4
  %lpad.val = insertvalue { ptr, i32 } poison, ptr %exn, 0
  %lpad.val1 = insertvalue { ptr, i32 } %lpad.val, i32 %sel, 1
  resume { ptr, i32 } %lpad.val1
}

; Function Attrs: mustprogress nounwind uwtable
define linkonce_odr dso_local void @_ZN7testing7MatcherIRKNSt7__cxx1112basic_stringIcSt11char_traitsIcESaIcEEEED2Ev(ptr noundef nonnull align 8 dereferenceable(24) %this) unnamed_addr #7 comdat align 2 {
entry:
  %this.addr = alloca ptr, align 8
  store ptr %this, ptr %this.addr, align 8
  %this1 = load ptr, ptr %this.addr, align 8
  call void @_ZN7testing8internal11MatcherBaseIRKNSt7__cxx1112basic_stringIcSt11char_traitsIcESaIcEEEED2Ev(ptr noundef nonnull align 8 dereferenceable(24) %this1) #3
  ret void
}

; Function Attrs: mustprogress nounwind uwtable
define linkonce_odr dso_local void @_ZNSt10unique_ptrIN7testing8internal9DeathTestESt14default_deleteIS2_EEC2IS4_vEEPS2_(ptr noundef nonnull align 8 dereferenceable(8) %this, ptr noundef %__p) unnamed_addr #7 comdat align 2 personality ptr @__gxx_personality_v0 {
entry:
  %this.addr = alloca ptr, align 8
  %__p.addr = alloca ptr, align 8
  store ptr %this, ptr %this.addr, align 8
  store ptr %__p, ptr %__p.addr, align 8
  %this1 = load ptr, ptr %this.addr, align 8
  %_M_t = getelementptr inbounds %"class.std::unique_ptr.11", ptr %this1, i32 0, i32 0
  %0 = load ptr, ptr %__p.addr, align 8
  invoke void @_ZNSt15__uniq_ptr_dataIN7testing8internal9DeathTestESt14default_deleteIS2_ELb1ELb1EECI2St15__uniq_ptr_implIS2_S4_EEPS2_(ptr noundef nonnull align 8 dereferenceable(8) %_M_t, ptr noundef %0)
          to label %invoke.cont unwind label %terminate.lpad

invoke.cont:                                      ; preds = %entry
  ret void

terminate.lpad:                                   ; preds = %entry
  %1 = landingpad { ptr, i32 }
          catch ptr null
  %2 = extractvalue { ptr, i32 } %1, 0
  call void @__clang_call_terminate(ptr %2) #18
  unreachable
}

declare noundef zeroext i1 @_ZN7testing8internal20ExitedUnsuccessfullyEi(i32 noundef) #1

; Function Attrs: mustprogress nounwind uwtable
define linkonce_odr dso_local void @_ZN7testing8internal9DeathTest14ReturnSentinelC2EPS1_(ptr noundef nonnull align 8 dereferenceable(8) %this, ptr noundef %test) unnamed_addr #7 comdat align 2 {
entry:
  %this.addr = alloca ptr, align 8
  %test.addr = alloca ptr, align 8
  store ptr %this, ptr %this.addr, align 8
  store ptr %test, ptr %test.addr, align 8
  %this1 = load ptr, ptr %this.addr, align 8
  %test_ = getelementptr inbounds %"class.testing::internal::DeathTest::ReturnSentinel", ptr %this1, i32 0, i32 0
  %0 = load ptr, ptr %test.addr, align 8
  store ptr %0, ptr %test_, align 8
  ret void
}

; Function Attrs: mustprogress nounwind uwtable
define linkonce_odr dso_local void @_ZN3gsl8not_nullIPiEC2IvEES1_(ptr noundef nonnull align 8 dereferenceable(8) %this, ptr noundef %u) unnamed_addr #7 comdat align 2 {
entry:
  %this.addr = alloca ptr, align 8
  %u.addr = alloca ptr, align 8
  store ptr %this, ptr %this.addr, align 8
  store ptr %u, ptr %u.addr, align 8
  %this1 = load ptr, ptr %this.addr, align 8
  %ptr_ = getelementptr inbounds %"class.gsl::not_null", ptr %this1, i32 0, i32 0
  %0 = load ptr, ptr %u.addr, align 8
  store ptr %0, ptr %ptr_, align 8
  %ptr_2 = getelementptr inbounds %"class.gsl::not_null", ptr %this1, i32 0, i32 0
  %1 = load ptr, ptr %ptr_2, align 8
  %cmp = icmp ne ptr %1, null
  %lnot = xor i1 %cmp, true
  %lnot3 = xor i1 %lnot, true
  br i1 %lnot3, label %cond.true, label %cond.false

cond.true:                                        ; preds = %entry
  br label %cond.end

cond.false:                                       ; preds = %entry
  call void @_ZN3gsl7details9terminateEv() #18
  unreachable

2:                                                ; No predecessors!
  br label %cond.end

cond.end:                                         ; preds = %2, %cond.true
  ret void
}

; Function Attrs: nounwind memory(none)
declare i32 @llvm.eh.typeid.for(ptr) #8

declare ptr @__cxa_begin_catch(ptr)

declare void @__cxa_end_catch()

; Function Attrs: noreturn nounwind uwtable
define linkonce_odr hidden void @__clang_call_terminate(ptr noundef %0) #9 comdat {
  %2 = call ptr @__cxa_begin_catch(ptr %0) #3
  call void @_ZSt9terminatev() #18
  unreachable
}

declare void @_ZSt9terminatev()

declare i32 @fprintf(ptr noundef, ptr noundef, ...) #1

declare void @_ZN7testing8internal18FormatFileLocationB5cxx11EPKci(ptr sret(%"class.std::__cxx11::basic_string") align 8, ptr noundef, i32 noundef) #1

declare i32 @fflush(ptr noundef) #1

; Function Attrs: mustprogress nounwind uwtable
define linkonce_odr dso_local void @_ZN7testing8internal9DeathTest14ReturnSentinelD2Ev(ptr noundef nonnull align 8 dereferenceable(8) %this) unnamed_addr #7 comdat align 2 personality ptr @__gxx_personality_v0 {
entry:
  %this.addr = alloca ptr, align 8
  store ptr %this, ptr %this.addr, align 8
  %this1 = load ptr, ptr %this.addr, align 8
  %test_ = getelementptr inbounds %"class.testing::internal::DeathTest::ReturnSentinel", ptr %this1, i32 0, i32 0
  %0 = load ptr, ptr %test_, align 8
  %vtable = load ptr, ptr %0, align 8
  %vfn = getelementptr inbounds ptr, ptr %vtable, i64 5
  %1 = load ptr, ptr %vfn, align 8
  invoke void %1(ptr noundef nonnull align 8 dereferenceable(8) %0, i32 noundef 0)
          to label %invoke.cont unwind label %terminate.lpad

invoke.cont:                                      ; preds = %entry
  ret void

terminate.lpad:                                   ; preds = %entry
  %2 = landingpad { ptr, i32 }
          catch ptr null
  %3 = extractvalue { ptr, i32 } %2, 0
  call void @__clang_call_terminate(ptr %3) #18
  unreachable
}

; Function Attrs: mustprogress nounwind uwtable
define linkonce_odr dso_local void @_ZNSt10unique_ptrIN7testing8internal9DeathTestESt14default_deleteIS2_EED2Ev(ptr noundef nonnull align 8 dereferenceable(8) %this) unnamed_addr #7 comdat align 2 personality ptr @__gxx_personality_v0 {
entry:
  %this.addr = alloca ptr, align 8
  %__ptr = alloca ptr, align 8
  store ptr %this, ptr %this.addr, align 8
  %this1 = load ptr, ptr %this.addr, align 8
  %_M_t = getelementptr inbounds %"class.std::unique_ptr.11", ptr %this1, i32 0, i32 0
  %call = call noundef nonnull align 8 dereferenceable(8) ptr @_ZNSt15__uniq_ptr_implIN7testing8internal9DeathTestESt14default_deleteIS2_EE6_M_ptrEv(ptr noundef nonnull align 8 dereferenceable(8) %_M_t) #3
  store ptr %call, ptr %__ptr, align 8
  %0 = load ptr, ptr %__ptr, align 8
  %1 = load ptr, ptr %0, align 8
  %cmp = icmp ne ptr %1, null
  br i1 %cmp, label %if.then, label %if.end

if.then:                                          ; preds = %entry
  %call2 = call noundef nonnull align 1 dereferenceable(1) ptr @_ZNSt10unique_ptrIN7testing8internal9DeathTestESt14default_deleteIS2_EE11get_deleterEv(ptr noundef nonnull align 8 dereferenceable(8) %this1) #3
  %2 = load ptr, ptr %__ptr, align 8
  %3 = load ptr, ptr %2, align 8
  invoke void @_ZNKSt14default_deleteIN7testing8internal9DeathTestEEclEPS2_(ptr noundef nonnull align 1 dereferenceable(1) %call2, ptr noundef %3)
          to label %invoke.cont unwind label %terminate.lpad

invoke.cont:                                      ; preds = %if.then
  br label %if.end

if.end:                                           ; preds = %invoke.cont, %entry
  %4 = load ptr, ptr %__ptr, align 8
  store ptr null, ptr %4, align 8
  ret void

terminate.lpad:                                   ; preds = %if.then
  %5 = landingpad { ptr, i32 }
          catch ptr null
  %6 = extractvalue { ptr, i32 } %5, 0
  call void @__clang_call_terminate(ptr %6) #18
  unreachable
}

declare noundef ptr @_ZN7testing8internal9DeathTest11LastMessageEv() #1

; Function Attrs: mustprogress nounwind uwtable
define linkonce_odr dso_local void @_ZN3gsl8not_nullISt10shared_ptrIiEED2Ev(ptr noundef nonnull align 8 dereferenceable(16) %this) unnamed_addr #7 comdat align 2 {
entry:
  %this.addr = alloca ptr, align 8
  store ptr %this, ptr %this.addr, align 8
  %this1 = load ptr, ptr %this.addr, align 8
  %ptr_ = getelementptr inbounds %"class.gsl::not_null.10", ptr %this1, i32 0, i32 0
  call void @_ZNSt10shared_ptrIiED2Ev(ptr noundef nonnull align 8 dereferenceable(16) %ptr_) #3
  ret void
}

; Function Attrs: mustprogress uwtable
define internal noundef zeroext i1 @_ZN12_GLOBAL__N_16helperEN3gsl8not_nullIPiEE(ptr %p.coerce) #4 {
entry:
  %p = alloca %"class.gsl::not_null", align 8
  %coerce.dive = getelementptr inbounds %"class.gsl::not_null", ptr %p, i32 0, i32 0
  store ptr %p.coerce, ptr %coerce.dive, align 8
  %call = call noundef nonnull align 4 dereferenceable(4) ptr @_ZNK3gsl8not_nullIPiEdeEv(ptr noundef nonnull align 8 dereferenceable(8) %p)
  %0 = load i32, ptr %call, align 4
  %cmp = icmp eq i32 %0, 12
  ret i1 %cmp
}

; Function Attrs: mustprogress uwtable
define internal noundef zeroext i1 @_ZN12_GLOBAL__N_112helper_constEN3gsl8not_nullIPKiEE(ptr %p.coerce) #4 {
entry:
  %p = alloca %"class.gsl::not_null.19", align 8
  %coerce.dive = getelementptr inbounds %"class.gsl::not_null.19", ptr %p, i32 0, i32 0
  store ptr %p.coerce, ptr %coerce.dive, align 8
  %call = call noundef nonnull align 4 dereferenceable(4) ptr @_ZNK3gsl8not_nullIPKiEdeEv(ptr noundef nonnull align 8 dereferenceable(8) %p)
  %0 = load i32, ptr %call, align 4
  %cmp = icmp eq i32 %0, 12
  ret i1 %cmp
}

; Function Attrs: mustprogress nounwind uwtable
define linkonce_odr dso_local void @_ZN3gsl8not_nullIPKiEC2IPivEEOT_(ptr noundef nonnull align 8 dereferenceable(8) %this, ptr noundef nonnull align 8 dereferenceable(8) %u) unnamed_addr #7 comdat align 2 {
entry:
  %this.addr = alloca ptr, align 8
  %u.addr = alloca ptr, align 8
  store ptr %this, ptr %this.addr, align 8
  store ptr %u, ptr %u.addr, align 8
  %this1 = load ptr, ptr %this.addr, align 8
  %ptr_ = getelementptr inbounds %"class.gsl::not_null.19", ptr %this1, i32 0, i32 0
  %0 = load ptr, ptr %u.addr, align 8
  %1 = load ptr, ptr %0, align 8
  store ptr %1, ptr %ptr_, align 8
  %ptr_2 = getelementptr inbounds %"class.gsl::not_null.19", ptr %this1, i32 0, i32 0
  %2 = load ptr, ptr %ptr_2, align 8
  %cmp = icmp ne ptr %2, null
  %lnot = xor i1 %cmp, true
  %lnot3 = xor i1 %lnot, true
  br i1 %lnot3, label %cond.true, label %cond.false

cond.true:                                        ; preds = %entry
  br label %cond.end

cond.false:                                       ; preds = %entry
  call void @_ZN3gsl7details9terminateEv() #18
  unreachable

3:                                                ; No predecessors!
  br label %cond.end

cond.end:                                         ; preds = %3, %cond.true
  ret void
}

; Function Attrs: mustprogress nounwind uwtable
define linkonce_odr dso_local noundef nonnull align 4 dereferenceable(4) ptr @_ZNK3gsl8not_nullIPiEdeEv(ptr noundef nonnull align 8 dereferenceable(8) %this) #7 comdat align 2 {
entry:
  %this.addr = alloca ptr, align 8
  store ptr %this, ptr %this.addr, align 8
  %this1 = load ptr, ptr %this.addr, align 8
  %call = call noundef ptr @_ZNK3gsl8not_nullIPiE3getEv(ptr noundef nonnull align 8 dereferenceable(8) %this1) #3
  ret ptr %call
}

; Function Attrs: mustprogress nounwind uwtable
define linkonce_odr dso_local void @_ZN3gsl8not_nullIPKiEC2IRPivEEOT_(ptr noundef nonnull align 8 dereferenceable(8) %this, ptr noundef nonnull align 8 dereferenceable(8) %u) unnamed_addr #7 comdat align 2 {
entry:
  %this.addr = alloca ptr, align 8
  %u.addr = alloca ptr, align 8
  store ptr %this, ptr %this.addr, align 8
  store ptr %u, ptr %u.addr, align 8
  %this1 = load ptr, ptr %this.addr, align 8
  %ptr_ = getelementptr inbounds %"class.gsl::not_null.19", ptr %this1, i32 0, i32 0
  %0 = load ptr, ptr %u.addr, align 8
  %1 = load ptr, ptr %0, align 8
  store ptr %1, ptr %ptr_, align 8
  %ptr_2 = getelementptr inbounds %"class.gsl::not_null.19", ptr %this1, i32 0, i32 0
  %2 = load ptr, ptr %ptr_2, align 8
  %cmp = icmp ne ptr %2, null
  %lnot = xor i1 %cmp, true
  %lnot3 = xor i1 %lnot, true
  br i1 %lnot3, label %cond.true, label %cond.false

cond.true:                                        ; preds = %entry
  br label %cond.end

cond.false:                                       ; preds = %entry
  call void @_ZN3gsl7details9terminateEv() #18
  unreachable

3:                                                ; No predecessors!
  br label %cond.end

cond.end:                                         ; preds = %3, %cond.true
  ret void
}

; Function Attrs: mustprogress nounwind uwtable
define linkonce_odr dso_local void @_ZN3gsl8not_nullIPiEC2IRS2_vEEOT_(ptr noundef nonnull align 8 dereferenceable(8) %this, ptr noundef nonnull align 8 dereferenceable(8) %u) unnamed_addr #7 comdat align 2 personality ptr @__gxx_personality_v0 {
entry:
  %this.addr = alloca ptr, align 8
  %u.addr = alloca ptr, align 8
  store ptr %this, ptr %this.addr, align 8
  store ptr %u, ptr %u.addr, align 8
  %this1 = load ptr, ptr %this.addr, align 8
  %ptr_ = getelementptr inbounds %"class.gsl::not_null", ptr %this1, i32 0, i32 0
  %0 = load ptr, ptr %u.addr, align 8
  %call = invoke noundef ptr @_ZNK3gsl8not_nullIPiEcvS1_Ev(ptr noundef nonnull align 8 dereferenceable(8) %0)
          to label %invoke.cont unwind label %terminate.lpad

invoke.cont:                                      ; preds = %entry
  store ptr %call, ptr %ptr_, align 8
  %ptr_2 = getelementptr inbounds %"class.gsl::not_null", ptr %this1, i32 0, i32 0
  %1 = load ptr, ptr %ptr_2, align 8
  %cmp = icmp ne ptr %1, null
  %lnot = xor i1 %cmp, true
  %lnot3 = xor i1 %lnot, true
  br i1 %lnot3, label %cond.true, label %cond.false

cond.true:                                        ; preds = %invoke.cont
  br label %cond.end

cond.false:                                       ; preds = %invoke.cont
  call void @_ZN3gsl7details9terminateEv() #18
  unreachable

2:                                                ; No predecessors!
  br label %cond.end

cond.end:                                         ; preds = %2, %cond.true
  ret void

terminate.lpad:                                   ; preds = %entry
  %3 = landingpad { ptr, i32 }
          catch ptr null
  %4 = extractvalue { ptr, i32 } %3, 0
  call void @__clang_call_terminate(ptr %4) #18
  unreachable
}

; Function Attrs: mustprogress nounwind uwtable
define linkonce_odr dso_local void @_ZN3gsl8not_nullIPKiEC2IRNS0_IPiEEvEEOT_(ptr noundef nonnull align 8 dereferenceable(8) %this, ptr noundef nonnull align 8 dereferenceable(8) %u) unnamed_addr #7 comdat align 2 {
entry:
  %this.addr = alloca ptr, align 8
  %u.addr = alloca ptr, align 8
  store ptr %this, ptr %this.addr, align 8
  store ptr %u, ptr %u.addr, align 8
  %this1 = load ptr, ptr %this.addr, align 8
  %ptr_ = getelementptr inbounds %"class.gsl::not_null.19", ptr %this1, i32 0, i32 0
  %0 = load ptr, ptr %u.addr, align 8
  %call = call noundef ptr @_ZNK3gsl8not_nullIPiEcvS1_Ev(ptr noundef nonnull align 8 dereferenceable(8) %0)
  store ptr %call, ptr %ptr_, align 8
  %ptr_2 = getelementptr inbounds %"class.gsl::not_null.19", ptr %this1, i32 0, i32 0
  %1 = load ptr, ptr %ptr_2, align 8
  %cmp = icmp ne ptr %1, null
  %lnot = xor i1 %cmp, true
  %lnot3 = xor i1 %lnot, true
  br i1 %lnot3, label %cond.true, label %cond.false

cond.true:                                        ; preds = %entry
  br label %cond.end

cond.false:                                       ; preds = %entry
  call void @_ZN3gsl7details9terminateEv() #18
  unreachable

2:                                                ; No predecessors!
  br label %cond.end

cond.end:                                         ; preds = %2, %cond.true
  ret void
}

; Function Attrs: mustprogress nounwind uwtable
define linkonce_odr dso_local void @_ZN3gsl8not_nullIPKiEC2IvEES2_(ptr noundef nonnull align 8 dereferenceable(8) %this, ptr noundef %u) unnamed_addr #7 comdat align 2 {
entry:
  %this.addr = alloca ptr, align 8
  %u.addr = alloca ptr, align 8
  store ptr %this, ptr %this.addr, align 8
  store ptr %u, ptr %u.addr, align 8
  %this1 = load ptr, ptr %this.addr, align 8
  %ptr_ = getelementptr inbounds %"class.gsl::not_null.19", ptr %this1, i32 0, i32 0
  %0 = load ptr, ptr %u.addr, align 8
  store ptr %0, ptr %ptr_, align 8
  %ptr_2 = getelementptr inbounds %"class.gsl::not_null.19", ptr %this1, i32 0, i32 0
  %1 = load ptr, ptr %ptr_2, align 8
  %cmp = icmp ne ptr %1, null
  %lnot = xor i1 %cmp, true
  %lnot3 = xor i1 %lnot, true
  br i1 %lnot3, label %cond.true, label %cond.false

cond.true:                                        ; preds = %entry
  br label %cond.end

cond.false:                                       ; preds = %entry
  call void @_ZN3gsl7details9terminateEv() #18
  unreachable

2:                                                ; No predecessors!
  br label %cond.end

cond.end:                                         ; preds = %2, %cond.true
  ret void
}

; Function Attrs: mustprogress nounwind uwtable
define linkonce_odr dso_local void @_ZN3gsl8not_nullIPKiEC2IRS3_vEEOT_(ptr noundef nonnull align 8 dereferenceable(8) %this, ptr noundef nonnull align 8 dereferenceable(8) %u) unnamed_addr #7 comdat align 2 personality ptr @__gxx_personality_v0 {
entry:
  %this.addr = alloca ptr, align 8
  %u.addr = alloca ptr, align 8
  store ptr %this, ptr %this.addr, align 8
  store ptr %u, ptr %u.addr, align 8
  %this1 = load ptr, ptr %this.addr, align 8
  %ptr_ = getelementptr inbounds %"class.gsl::not_null.19", ptr %this1, i32 0, i32 0
  %0 = load ptr, ptr %u.addr, align 8
  %call = invoke noundef ptr @_ZNK3gsl8not_nullIPKiEcvS2_Ev(ptr noundef nonnull align 8 dereferenceable(8) %0)
          to label %invoke.cont unwind label %terminate.lpad

invoke.cont:                                      ; preds = %entry
  store ptr %call, ptr %ptr_, align 8
  %ptr_2 = getelementptr inbounds %"class.gsl::not_null.19", ptr %this1, i32 0, i32 0
  %1 = load ptr, ptr %ptr_2, align 8
  %cmp = icmp ne ptr %1, null
  %lnot = xor i1 %cmp, true
  %lnot3 = xor i1 %lnot, true
  br i1 %lnot3, label %cond.true, label %cond.false

cond.true:                                        ; preds = %invoke.cont
  br label %cond.end

cond.false:                                       ; preds = %invoke.cont
  call void @_ZN3gsl7details9terminateEv() #18
  unreachable

2:                                                ; No predecessors!
  br label %cond.end

cond.end:                                         ; preds = %2, %cond.true
  ret void

terminate.lpad:                                   ; preds = %entry
  %3 = landingpad { ptr, i32 }
          catch ptr null
  %4 = extractvalue { ptr, i32 } %3, 0
  call void @__clang_call_terminate(ptr %4) #18
  unreachable
}

; Function Attrs: mustprogress nounwind uwtable
define linkonce_odr dso_local noundef nonnull align 4 dereferenceable(4) ptr @_ZNK3gsl8not_nullIPKiEdeEv(ptr noundef nonnull align 8 dereferenceable(8) %this) #7 comdat align 2 {
entry:
  %this.addr = alloca ptr, align 8
  store ptr %this, ptr %this.addr, align 8
  %this1 = load ptr, ptr %this.addr, align 8
  %call = call noundef ptr @_ZNK3gsl8not_nullIPKiE3getEv(ptr noundef nonnull align 8 dereferenceable(8) %this1) #3
  ret ptr %call
}

; Function Attrs: mustprogress nounwind uwtable
define linkonce_odr dso_local void @_ZN3gsl8not_nullIPKiEC2IS3_vEEOT_(ptr noundef nonnull align 8 dereferenceable(8) %this, ptr noundef nonnull align 8 dereferenceable(8) %u) unnamed_addr #7 comdat align 2 {
entry:
  %this.addr = alloca ptr, align 8
  %u.addr = alloca ptr, align 8
  store ptr %this, ptr %this.addr, align 8
  store ptr %u, ptr %u.addr, align 8
  %this1 = load ptr, ptr %this.addr, align 8
  %ptr_ = getelementptr inbounds %"class.gsl::not_null.19", ptr %this1, i32 0, i32 0
  %0 = load ptr, ptr %u.addr, align 8
  %call = call noundef ptr @_ZNK3gsl8not_nullIPKiEcvS2_Ev(ptr noundef nonnull align 8 dereferenceable(8) %0)
  store ptr %call, ptr %ptr_, align 8
  %ptr_2 = getelementptr inbounds %"class.gsl::not_null.19", ptr %this1, i32 0, i32 0
  %1 = load ptr, ptr %ptr_2, align 8
  %cmp = icmp ne ptr %1, null
  %lnot = xor i1 %cmp, true
  %lnot3 = xor i1 %lnot, true
  br i1 %lnot3, label %cond.true, label %cond.false

cond.true:                                        ; preds = %entry
  br label %cond.end

cond.false:                                       ; preds = %entry
  call void @_ZN3gsl7details9terminateEv() #18
  unreachable

2:                                                ; No predecessors!
  br label %cond.end

cond.end:                                         ; preds = %2, %cond.true
  ret void
}

; Function Attrs: mustprogress nounwind uwtable
define internal noundef ptr @_ZN12_GLOBAL__N_114return_pointerEv() #7 {
entry:
  ret ptr null
}

; Function Attrs: uwtable
define internal void @__cxx_global_var_init.12() #0 section ".text.startup" personality ptr @__gxx_personality_v0 {
entry:
  %agg.tmp = alloca %"struct.testing::internal::CodeLocation", align 8
  %ref.tmp = alloca %"class.std::__cxx11::basic_string", align 8
  %ref.tmp1 = alloca %"class.std::allocator", align 1
  %exn.slot = alloca ptr, align 8
  %ehselector.slot = alloca i32, align 4
  call void @_ZNSaIcEC1Ev(ptr noundef nonnull align 1 dereferenceable(1) %ref.tmp1) #3
  invoke void @_ZNSt7__cxx1112basic_stringIcSt11char_traitsIcESaIcEEC1EPKcRKS3_(ptr noundef nonnull align 8 dereferenceable(32) %ref.tmp, ptr noundef @.str.3, ptr noundef nonnull align 1 dereferenceable(1) %ref.tmp1)
          to label %invoke.cont unwind label %lpad

invoke.cont:                                      ; preds = %entry
  invoke void @_ZN7testing8internal12CodeLocationC2ERKNSt7__cxx1112basic_stringIcSt11char_traitsIcESaIcEEEi(ptr noundef nonnull align 8 dereferenceable(36) %agg.tmp, ptr noundef nonnull align 8 dereferenceable(32) %ref.tmp, i32 noundef 260)
          to label %invoke.cont3 unwind label %lpad2

invoke.cont3:                                     ; preds = %invoke.cont
  %call = invoke noundef ptr @_ZN7testing8internal13GetTestTypeIdEv()
          to label %invoke.cont5 unwind label %lpad4

invoke.cont5:                                     ; preds = %invoke.cont3
  %call7 = invoke noundef ptr @_ZN7testing8internal16SuiteApiResolverINS_4TestEE19GetSetUpCaseOrSuiteEPKci(ptr noundef @.str.3, i32 noundef 260)
          to label %invoke.cont6 unwind label %lpad4

invoke.cont6:                                     ; preds = %invoke.cont5
  %call9 = invoke noundef ptr @_ZN7testing8internal16SuiteApiResolverINS_4TestEE22GetTearDownCaseOrSuiteEPKci(ptr noundef @.str.3, i32 noundef 260)
          to label %invoke.cont8 unwind label %lpad4

invoke.cont8:                                     ; preds = %invoke.cont6
  %call11 = invoke noalias noundef nonnull ptr @_Znwm(i64 noundef 8) #16
          to label %invoke.cont10 unwind label %lpad4

invoke.cont10:                                    ; preds = %invoke.cont8
  invoke void @_ZN7testing8internal15TestFactoryImplI37notnull_tests_TestNotNullostream_TestEC2Ev(ptr noundef nonnull align 8 dereferenceable(8) %call11)
          to label %invoke.cont13 unwind label %lpad12

invoke.cont13:                                    ; preds = %invoke.cont10
  %call15 = invoke noundef ptr @_ZN7testing8internal23MakeAndRegisterTestInfoEPKcS2_S2_S2_NS0_12CodeLocationEPKvPFvvES7_PNS0_15TestFactoryBaseE(ptr noundef @.str, ptr noundef @.str.13, ptr noundef null, ptr noundef null, ptr noundef %agg.tmp, ptr noundef %call, ptr noundef %call7, ptr noundef %call9, ptr noundef %call11)
          to label %invoke.cont14 unwind label %lpad4

invoke.cont14:                                    ; preds = %invoke.cont13
  call void @_ZN7testing8internal12CodeLocationD2Ev(ptr noundef nonnull align 8 dereferenceable(36) %agg.tmp) #3
  call void @_ZNSt7__cxx1112basic_stringIcSt11char_traitsIcESaIcEED1Ev(ptr noundef nonnull align 8 dereferenceable(32) %ref.tmp) #3
  call void @_ZNSaIcED1Ev(ptr noundef nonnull align 1 dereferenceable(1) %ref.tmp1) #3
  store ptr %call15, ptr @_ZN37notnull_tests_TestNotNullostream_Test10test_info_E, align 8
  ret void

lpad:                                             ; preds = %entry
  %0 = landingpad { ptr, i32 }
          cleanup
  %1 = extractvalue { ptr, i32 } %0, 0
  store ptr %1, ptr %exn.slot, align 8
  %2 = extractvalue { ptr, i32 } %0, 1
  store i32 %2, ptr %ehselector.slot, align 4
  br label %ehcleanup17

lpad2:                                            ; preds = %invoke.cont
  %3 = landingpad { ptr, i32 }
          cleanup
  %4 = extractvalue { ptr, i32 } %3, 0
  store ptr %4, ptr %exn.slot, align 8
  %5 = extractvalue { ptr, i32 } %3, 1
  store i32 %5, ptr %ehselector.slot, align 4
  br label %ehcleanup16

lpad4:                                            ; preds = %invoke.cont13, %invoke.cont8, %invoke.cont6, %invoke.cont5, %invoke.cont3
  %6 = landingpad { ptr, i32 }
          cleanup
  %7 = extractvalue { ptr, i32 } %6, 0
  store ptr %7, ptr %exn.slot, align 8
  %8 = extractvalue { ptr, i32 } %6, 1
  store i32 %8, ptr %ehselector.slot, align 4
  br label %ehcleanup

lpad12:                                           ; preds = %invoke.cont10
  %9 = landingpad { ptr, i32 }
          cleanup
  %10 = extractvalue { ptr, i32 } %9, 0
  store ptr %10, ptr %exn.slot, align 8
  %11 = extractvalue { ptr, i32 } %9, 1
  store i32 %11, ptr %ehselector.slot, align 4
  call void @_ZdlPv(ptr noundef %call11) #17
  br label %ehcleanup

ehcleanup:                                        ; preds = %lpad12, %lpad4
  call void @_ZN7testing8internal12CodeLocationD2Ev(ptr noundef nonnull align 8 dereferenceable(36) %agg.tmp) #3
  br label %ehcleanup16

ehcleanup16:                                      ; preds = %ehcleanup, %lpad2
  call void @_ZNSt7__cxx1112basic_stringIcSt11char_traitsIcESaIcEED1Ev(ptr noundef nonnull align 8 dereferenceable(32) %ref.tmp) #3
  br label %ehcleanup17

ehcleanup17:                                      ; preds = %ehcleanup16, %lpad
  call void @_ZNSaIcED1Ev(ptr noundef nonnull align 1 dereferenceable(1) %ref.tmp1) #3
  br label %eh.resume

eh.resume:                                        ; preds = %ehcleanup17
  %exn = load ptr, ptr %exn.slot, align 8
  %sel = load i32, ptr %ehselector.slot, align 4
  %lpad.val = insertvalue { ptr, i32 } poison, ptr %exn, 0
  %lpad.val18 = insertvalue { ptr, i32 } %lpad.val, i32 %sel, 1
  resume { ptr, i32 } %lpad.val18
}

; Function Attrs: mustprogress nounwind uwtable
define linkonce_odr dso_local void @_ZN7testing8internal15TestFactoryImplI37notnull_tests_TestNotNullostream_TestEC2Ev(ptr noundef nonnull align 8 dereferenceable(8) %this) unnamed_addr #7 comdat align 2 {
entry:
  %this.addr = alloca ptr, align 8
  store ptr %this, ptr %this.addr, align 8
  %this1 = load ptr, ptr %this.addr, align 8
  call void @_ZN7testing8internal15TestFactoryBaseC2Ev(ptr noundef nonnull align 8 dereferenceable(8) %this1)
  store ptr getelementptr inbounds ({ [5 x ptr] }, ptr @_ZTVN7testing8internal15TestFactoryImplI37notnull_tests_TestNotNullostream_TestEE, i32 0, inrange i32 0, i32 2), ptr %this1, align 8
  ret void
}

; Function Attrs: mustprogress uwtable
define dso_local void @_ZN37notnull_tests_TestNotNullostream_Test8TestBodyEv(ptr noundef nonnull align 8 dereferenceable(16) %this) unnamed_addr #4 align 2 personality ptr @__gxx_personality_v0 {
entry:
  %this.addr = alloca ptr, align 8
  %agg.tmp = alloca %"class.std::__cxx11::basic_string", align 8
  %ref.tmp = alloca %"class.std::allocator", align 1
  %exn.slot = alloca ptr, align 8
  %ehselector.slot = alloca i32, align 4
  store ptr %this, ptr %this.addr, align 8
  call void @_Z14ostream_helperIiEvT_(i32 noundef 17)
  call void @_Z14ostream_helperIfEvT_(float noundef 2.150000e+01)
  call void @_Z14ostream_helperIdEvT_(double noundef 3.456600e-07)
  call void @_Z14ostream_helperIcEvT_(i8 noundef signext 99)
  call void @_Z14ostream_helperItEvT_(i16 noundef zeroext 291)
  call void @_Z14ostream_helperIPKcEvT_(ptr noundef @.str.14)
  call void @_ZNSaIcEC1Ev(ptr noundef nonnull align 1 dereferenceable(1) %ref.tmp) #3
  invoke void @_ZNSt7__cxx1112basic_stringIcSt11char_traitsIcESaIcEEC1EPKcRKS3_(ptr noundef nonnull align 8 dereferenceable(32) %agg.tmp, ptr noundef @.str.15, ptr noundef nonnull align 1 dereferenceable(1) %ref.tmp)
          to label %invoke.cont unwind label %lpad

invoke.cont:                                      ; preds = %entry
  invoke void @_Z14ostream_helperINSt7__cxx1112basic_stringIcSt11char_traitsIcESaIcEEEEvT_(ptr noundef %agg.tmp)
          to label %invoke.cont3 unwind label %lpad2

invoke.cont3:                                     ; preds = %invoke.cont
  call void @_ZNSt7__cxx1112basic_stringIcSt11char_traitsIcESaIcEED1Ev(ptr noundef nonnull align 8 dereferenceable(32) %agg.tmp) #3
  call void @_ZNSaIcED1Ev(ptr noundef nonnull align 1 dereferenceable(1) %ref.tmp) #3
  ret void

lpad:                                             ; preds = %entry
  %0 = landingpad { ptr, i32 }
          cleanup
  %1 = extractvalue { ptr, i32 } %0, 0
  store ptr %1, ptr %exn.slot, align 8
  %2 = extractvalue { ptr, i32 } %0, 1
  store i32 %2, ptr %ehselector.slot, align 4
  br label %ehcleanup

lpad2:                                            ; preds = %invoke.cont
  %3 = landingpad { ptr, i32 }
          cleanup
  %4 = extractvalue { ptr, i32 } %3, 0
  store ptr %4, ptr %exn.slot, align 8
  %5 = extractvalue { ptr, i32 } %3, 1
  store i32 %5, ptr %ehselector.slot, align 4
  call void @_ZNSt7__cxx1112basic_stringIcSt11char_traitsIcESaIcEED1Ev(ptr noundef nonnull align 8 dereferenceable(32) %agg.tmp) #3
  br label %ehcleanup

ehcleanup:                                        ; preds = %lpad2, %lpad
  call void @_ZNSaIcED1Ev(ptr noundef nonnull align 1 dereferenceable(1) %ref.tmp) #3
  br label %eh.resume

eh.resume:                                        ; preds = %ehcleanup
  %exn = load ptr, ptr %exn.slot, align 8
  %sel = load i32, ptr %ehselector.slot, align 4
  %lpad.val = insertvalue { ptr, i32 } poison, ptr %exn, 0
  %lpad.val4 = insertvalue { ptr, i32 } %lpad.val, i32 %sel, 1
  resume { ptr, i32 } %lpad.val4
}

; Function Attrs: mustprogress uwtable
define linkonce_odr dso_local void @_Z14ostream_helperIiEvT_(i32 noundef %v) #4 comdat personality ptr @__gxx_personality_v0 {
entry:
  %v.addr = alloca i32, align 4
  %p = alloca %"class.gsl::not_null", align 8
  %os = alloca %"class.std::__cxx11::basic_ostringstream", align 8
  %ref = alloca %"class.std::__cxx11::basic_ostringstream", align 8
  %exn.slot = alloca ptr, align 8
  %ehselector.slot = alloca i32, align 4
  %gtest_ar_ = alloca %"class.testing::AssertionResult", align 8
  %ref.tmp = alloca i8, align 1
  %ref.tmp6 = alloca %"class.std::__cxx11::basic_string", align 8
  %ref.tmp8 = alloca %"class.std::__cxx11::basic_string", align 8
  %ref.tmp15 = alloca %"class.testing::Message", align 8
  %ref.tmp18 = alloca %"class.testing::internal::AssertHelper", align 8
  %ref.tmp19 = alloca %"class.std::__cxx11::basic_string", align 8
  %os33 = alloca %"class.std::__cxx11::basic_ostringstream", align 8
  %ref34 = alloca %"class.std::__cxx11::basic_ostringstream", align 8
  %gtest_ar_43 = alloca %"class.testing::AssertionResult", align 8
  %ref.tmp44 = alloca i8, align 1
  %ref.tmp45 = alloca %"class.std::__cxx11::basic_string", align 8
  %ref.tmp47 = alloca %"class.std::__cxx11::basic_string", align 8
  %ref.tmp59 = alloca %"class.testing::Message", align 8
  %ref.tmp62 = alloca %"class.testing::internal::AssertHelper", align 8
  %ref.tmp63 = alloca %"class.std::__cxx11::basic_string", align 8
  store i32 %v, ptr %v.addr, align 4
  call void @_ZN3gsl8not_nullIPiEC2IvEES1_(ptr noundef nonnull align 8 dereferenceable(8) %p, ptr noundef %v.addr) #3
  call void @_ZNSt7__cxx1119basic_ostringstreamIcSt11char_traitsIcESaIcEEC1Ev(ptr noundef nonnull align 8 dereferenceable(112) %os)
  invoke void @_ZNSt7__cxx1119basic_ostringstreamIcSt11char_traitsIcESaIcEEC1Ev(ptr noundef nonnull align 8 dereferenceable(112) %ref)
          to label %invoke.cont unwind label %lpad

invoke.cont:                                      ; preds = %entry
  %call = call noundef ptr @_ZNK3gsl8not_nullIPiEcvS1_Ev(ptr noundef nonnull align 8 dereferenceable(8) %p)
  %call3 = invoke noundef nonnull align 8 dereferenceable(8) ptr @_ZNSolsEPKv(ptr noundef nonnull align 8 dereferenceable(8) %os, ptr noundef %call)
          to label %invoke.cont2 unwind label %lpad1

invoke.cont2:                                     ; preds = %invoke.cont
  %call5 = invoke noundef nonnull align 8 dereferenceable(8) ptr @_ZNSolsEPKv(ptr noundef nonnull align 8 dereferenceable(8) %ref, ptr noundef %v.addr)
          to label %invoke.cont4 unwind label %lpad1

invoke.cont4:                                     ; preds = %invoke.cont2
  invoke void @_ZNKSt7__cxx1119basic_ostringstreamIcSt11char_traitsIcESaIcEE3strEv(ptr sret(%"class.std::__cxx11::basic_string") align 8 %ref.tmp6, ptr noundef nonnull align 8 dereferenceable(112) %os)
          to label %invoke.cont7 unwind label %lpad1

invoke.cont7:                                     ; preds = %invoke.cont4
  invoke void @_ZNKSt7__cxx1119basic_ostringstreamIcSt11char_traitsIcESaIcEE3strEv(ptr sret(%"class.std::__cxx11::basic_string") align 8 %ref.tmp8, ptr noundef nonnull align 8 dereferenceable(112) %ref)
          to label %invoke.cont10 unwind label %lpad9

invoke.cont10:                                    ; preds = %invoke.cont7
  %call11 = call noundef zeroext i1 @_ZSteqIcEN9__gnu_cxx11__enable_ifIXsr9__is_charIT_EE7__valueEbE6__typeERKNSt7__cxx1112basic_stringIS2_St11char_traitsIS2_ESaIS2_EEESC_(ptr noundef nonnull align 8 dereferenceable(32) %ref.tmp6, ptr noundef nonnull align 8 dereferenceable(32) %ref.tmp8) #3
  %frombool = zext i1 %call11 to i8
  store i8 %frombool, ptr %ref.tmp, align 1
  invoke void @_ZN7testing15AssertionResultC2IbEERKT_PNSt9enable_ifIXntsr3std14is_convertibleIS2_S0_EE5valueEvE4typeE(ptr noundef nonnull align 8 dereferenceable(16) %gtest_ar_, ptr noundef nonnull align 1 dereferenceable(1) %ref.tmp, ptr noundef null)
          to label %invoke.cont13 unwind label %lpad12

invoke.cont13:                                    ; preds = %invoke.cont10
  call void @_ZNSt7__cxx1112basic_stringIcSt11char_traitsIcESaIcEED1Ev(ptr noundef nonnull align 8 dereferenceable(32) %ref.tmp8) #3
  call void @_ZNSt7__cxx1112basic_stringIcSt11char_traitsIcESaIcEED1Ev(ptr noundef nonnull align 8 dereferenceable(32) %ref.tmp6) #3
  %call14 = call noundef zeroext i1 @_ZNK7testing15AssertionResultcvbEv(ptr noundef nonnull align 8 dereferenceable(16) %gtest_ar_)
  br i1 %call14, label %if.then, label %if.else

if.then:                                          ; preds = %invoke.cont13
  br label %if.end

lpad:                                             ; preds = %entry
  %0 = landingpad { ptr, i32 }
          cleanup
  %1 = extractvalue { ptr, i32 } %0, 0
  store ptr %1, ptr %exn.slot, align 8
  %2 = extractvalue { ptr, i32 } %0, 1
  store i32 %2, ptr %ehselector.slot, align 4
  br label %ehcleanup32

lpad1:                                            ; preds = %invoke.cont4, %invoke.cont2, %invoke.cont
  %3 = landingpad { ptr, i32 }
          cleanup
  %4 = extractvalue { ptr, i32 } %3, 0
  store ptr %4, ptr %exn.slot, align 8
  %5 = extractvalue { ptr, i32 } %3, 1
  store i32 %5, ptr %ehselector.slot, align 4
  br label %ehcleanup31

lpad9:                                            ; preds = %invoke.cont7
  %6 = landingpad { ptr, i32 }
          cleanup
  %7 = extractvalue { ptr, i32 } %6, 0
  store ptr %7, ptr %exn.slot, align 8
  %8 = extractvalue { ptr, i32 } %6, 1
  store i32 %8, ptr %ehselector.slot, align 4
  br label %ehcleanup

lpad12:                                           ; preds = %invoke.cont10
  %9 = landingpad { ptr, i32 }
          cleanup
  %10 = extractvalue { ptr, i32 } %9, 0
  store ptr %10, ptr %exn.slot, align 8
  %11 = extractvalue { ptr, i32 } %9, 1
  store i32 %11, ptr %ehselector.slot, align 4
  call void @_ZNSt7__cxx1112basic_stringIcSt11char_traitsIcESaIcEED1Ev(ptr noundef nonnull align 8 dereferenceable(32) %ref.tmp8) #3
  br label %ehcleanup

ehcleanup:                                        ; preds = %lpad12, %lpad9
  call void @_ZNSt7__cxx1112basic_stringIcSt11char_traitsIcESaIcEED1Ev(ptr noundef nonnull align 8 dereferenceable(32) %ref.tmp6) #3
  br label %ehcleanup31

if.else:                                          ; preds = %invoke.cont13
  invoke void @_ZN7testing7MessageC1Ev(ptr noundef nonnull align 8 dereferenceable(8) %ref.tmp15)
          to label %invoke.cont17 unwind label %lpad16

invoke.cont17:                                    ; preds = %if.else
  invoke void @_ZN7testing8internal30GetBoolAssertionFailureMessageB5cxx11ERKNS_15AssertionResultEPKcS5_S5_(ptr sret(%"class.std::__cxx11::basic_string") align 8 %ref.tmp19, ptr noundef nonnull align 8 dereferenceable(16) %gtest_ar_, ptr noundef @.str.106, ptr noundef @.str.5, ptr noundef @.str.6)
          to label %invoke.cont21 unwind label %lpad20

invoke.cont21:                                    ; preds = %invoke.cont17
  %call22 = call noundef ptr @_ZNKSt7__cxx1112basic_stringIcSt11char_traitsIcESaIcEE5c_strEv(ptr noundef nonnull align 8 dereferenceable(32) %ref.tmp19) #3
  invoke void @_ZN7testing8internal12AssertHelperC1ENS_14TestPartResult4TypeEPKciS5_(ptr noundef nonnull align 8 dereferenceable(8) %ref.tmp18, i32 noundef 1, ptr noundef @.str.3, i32 noundef 249, ptr noundef %call22)
          to label %invoke.cont24 unwind label %lpad23

invoke.cont24:                                    ; preds = %invoke.cont21
  invoke void @_ZNK7testing8internal12AssertHelperaSERKNS_7MessageE(ptr noundef nonnull align 8 dereferenceable(8) %ref.tmp18, ptr noundef nonnull align 8 dereferenceable(8) %ref.tmp15)
          to label %invoke.cont26 unwind label %lpad25

invoke.cont26:                                    ; preds = %invoke.cont24
  call void @_ZN7testing8internal12AssertHelperD1Ev(ptr noundef nonnull align 8 dereferenceable(8) %ref.tmp18) #3
  call void @_ZNSt7__cxx1112basic_stringIcSt11char_traitsIcESaIcEED1Ev(ptr noundef nonnull align 8 dereferenceable(32) %ref.tmp19) #3
  call void @_ZN7testing7MessageD2Ev(ptr noundef nonnull align 8 dereferenceable(8) %ref.tmp15) #3
  br label %if.end

lpad16:                                           ; preds = %if.else
  %12 = landingpad { ptr, i32 }
          cleanup
  %13 = extractvalue { ptr, i32 } %12, 0
  store ptr %13, ptr %exn.slot, align 8
  %14 = extractvalue { ptr, i32 } %12, 1
  store i32 %14, ptr %ehselector.slot, align 4
  br label %ehcleanup30

lpad20:                                           ; preds = %invoke.cont17
  %15 = landingpad { ptr, i32 }
          cleanup
  %16 = extractvalue { ptr, i32 } %15, 0
  store ptr %16, ptr %exn.slot, align 8
  %17 = extractvalue { ptr, i32 } %15, 1
  store i32 %17, ptr %ehselector.slot, align 4
  br label %ehcleanup29

lpad23:                                           ; preds = %invoke.cont21
  %18 = landingpad { ptr, i32 }
          cleanup
  %19 = extractvalue { ptr, i32 } %18, 0
  store ptr %19, ptr %exn.slot, align 8
  %20 = extractvalue { ptr, i32 } %18, 1
  store i32 %20, ptr %ehselector.slot, align 4
  br label %ehcleanup28

lpad25:                                           ; preds = %invoke.cont24
  %21 = landingpad { ptr, i32 }
          cleanup
  %22 = extractvalue { ptr, i32 } %21, 0
  store ptr %22, ptr %exn.slot, align 8
  %23 = extractvalue { ptr, i32 } %21, 1
  store i32 %23, ptr %ehselector.slot, align 4
  call void @_ZN7testing8internal12AssertHelperD1Ev(ptr noundef nonnull align 8 dereferenceable(8) %ref.tmp18) #3
  br label %ehcleanup28

ehcleanup28:                                      ; preds = %lpad25, %lpad23
  call void @_ZNSt7__cxx1112basic_stringIcSt11char_traitsIcESaIcEED1Ev(ptr noundef nonnull align 8 dereferenceable(32) %ref.tmp19) #3
  br label %ehcleanup29

ehcleanup29:                                      ; preds = %ehcleanup28, %lpad20
  call void @_ZN7testing7MessageD2Ev(ptr noundef nonnull align 8 dereferenceable(8) %ref.tmp15) #3
  br label %ehcleanup30

if.end:                                           ; preds = %invoke.cont26, %if.then
  call void @_ZN7testing15AssertionResultD2Ev(ptr noundef nonnull align 8 dereferenceable(16) %gtest_ar_) #3
  call void @_ZNSt7__cxx1119basic_ostringstreamIcSt11char_traitsIcESaIcEED1Ev(ptr noundef nonnull align 8 dereferenceable(112) %ref) #3
  call void @_ZNSt7__cxx1119basic_ostringstreamIcSt11char_traitsIcESaIcEED1Ev(ptr noundef nonnull align 8 dereferenceable(112) %os) #3
  call void @_ZNSt7__cxx1119basic_ostringstreamIcSt11char_traitsIcESaIcEEC1Ev(ptr noundef nonnull align 8 dereferenceable(112) %os33)
  invoke void @_ZNSt7__cxx1119basic_ostringstreamIcSt11char_traitsIcESaIcEEC1Ev(ptr noundef nonnull align 8 dereferenceable(112) %ref34)
          to label %invoke.cont36 unwind label %lpad35

invoke.cont36:                                    ; preds = %if.end
  %call37 = call noundef nonnull align 4 dereferenceable(4) ptr @_ZNK3gsl8not_nullIPiEdeEv(ptr noundef nonnull align 8 dereferenceable(8) %p)
  %24 = load i32, ptr %call37, align 4
  %call40 = invoke noundef nonnull align 8 dereferenceable(8) ptr @_ZNSolsEi(ptr noundef nonnull align 8 dereferenceable(8) %os33, i32 noundef %24)
          to label %invoke.cont39 unwind label %lpad38

invoke.cont39:                                    ; preds = %invoke.cont36
  %25 = load i32, ptr %v.addr, align 4
  %call42 = invoke noundef nonnull align 8 dereferenceable(8) ptr @_ZNSolsEi(ptr noundef nonnull align 8 dereferenceable(8) %ref34, i32 noundef %25)
          to label %invoke.cont41 unwind label %lpad38

invoke.cont41:                                    ; preds = %invoke.cont39
  invoke void @_ZNKSt7__cxx1119basic_ostringstreamIcSt11char_traitsIcESaIcEE3strEv(ptr sret(%"class.std::__cxx11::basic_string") align 8 %ref.tmp45, ptr noundef nonnull align 8 dereferenceable(112) %os33)
          to label %invoke.cont46 unwind label %lpad38

invoke.cont46:                                    ; preds = %invoke.cont41
  invoke void @_ZNKSt7__cxx1119basic_ostringstreamIcSt11char_traitsIcESaIcEE3strEv(ptr sret(%"class.std::__cxx11::basic_string") align 8 %ref.tmp47, ptr noundef nonnull align 8 dereferenceable(112) %ref34)
          to label %invoke.cont49 unwind label %lpad48

invoke.cont49:                                    ; preds = %invoke.cont46
  %call50 = call noundef zeroext i1 @_ZSteqIcEN9__gnu_cxx11__enable_ifIXsr9__is_charIT_EE7__valueEbE6__typeERKNSt7__cxx1112basic_stringIS2_St11char_traitsIS2_ESaIS2_EEESC_(ptr noundef nonnull align 8 dereferenceable(32) %ref.tmp45, ptr noundef nonnull align 8 dereferenceable(32) %ref.tmp47) #3
  %frombool51 = zext i1 %call50 to i8
  store i8 %frombool51, ptr %ref.tmp44, align 1
  invoke void @_ZN7testing15AssertionResultC2IbEERKT_PNSt9enable_ifIXntsr3std14is_convertibleIS2_S0_EE5valueEvE4typeE(ptr noundef nonnull align 8 dereferenceable(16) %gtest_ar_43, ptr noundef nonnull align 1 dereferenceable(1) %ref.tmp44, ptr noundef null)
          to label %invoke.cont53 unwind label %lpad52

invoke.cont53:                                    ; preds = %invoke.cont49
  call void @_ZNSt7__cxx1112basic_stringIcSt11char_traitsIcESaIcEED1Ev(ptr noundef nonnull align 8 dereferenceable(32) %ref.tmp47) #3
  call void @_ZNSt7__cxx1112basic_stringIcSt11char_traitsIcESaIcEED1Ev(ptr noundef nonnull align 8 dereferenceable(32) %ref.tmp45) #3
  %call56 = call noundef zeroext i1 @_ZNK7testing15AssertionResultcvbEv(ptr noundef nonnull align 8 dereferenceable(16) %gtest_ar_43)
  br i1 %call56, label %if.then57, label %if.else58

if.then57:                                        ; preds = %invoke.cont53
  br label %if.end74

ehcleanup30:                                      ; preds = %ehcleanup29, %lpad16
  call void @_ZN7testing15AssertionResultD2Ev(ptr noundef nonnull align 8 dereferenceable(16) %gtest_ar_) #3
  br label %ehcleanup31

ehcleanup31:                                      ; preds = %ehcleanup30, %ehcleanup, %lpad1
  call void @_ZNSt7__cxx1119basic_ostringstreamIcSt11char_traitsIcESaIcEED1Ev(ptr noundef nonnull align 8 dereferenceable(112) %ref) #3
  br label %ehcleanup32

ehcleanup32:                                      ; preds = %ehcleanup31, %lpad
  call void @_ZNSt7__cxx1119basic_ostringstreamIcSt11char_traitsIcESaIcEED1Ev(ptr noundef nonnull align 8 dereferenceable(112) %os) #3
  br label %eh.resume

lpad35:                                           ; preds = %if.end
  %26 = landingpad { ptr, i32 }
          cleanup
  %27 = extractvalue { ptr, i32 } %26, 0
  store ptr %27, ptr %exn.slot, align 8
  %28 = extractvalue { ptr, i32 } %26, 1
  store i32 %28, ptr %ehselector.slot, align 4
  br label %ehcleanup77

lpad38:                                           ; preds = %invoke.cont41, %invoke.cont39, %invoke.cont36
  %29 = landingpad { ptr, i32 }
          cleanup
  %30 = extractvalue { ptr, i32 } %29, 0
  store ptr %30, ptr %exn.slot, align 8
  %31 = extractvalue { ptr, i32 } %29, 1
  store i32 %31, ptr %ehselector.slot, align 4
  br label %ehcleanup76

lpad48:                                           ; preds = %invoke.cont46
  %32 = landingpad { ptr, i32 }
          cleanup
  %33 = extractvalue { ptr, i32 } %32, 0
  store ptr %33, ptr %exn.slot, align 8
  %34 = extractvalue { ptr, i32 } %32, 1
  store i32 %34, ptr %ehselector.slot, align 4
  br label %ehcleanup55

lpad52:                                           ; preds = %invoke.cont49
  %35 = landingpad { ptr, i32 }
          cleanup
  %36 = extractvalue { ptr, i32 } %35, 0
  store ptr %36, ptr %exn.slot, align 8
  %37 = extractvalue { ptr, i32 } %35, 1
  store i32 %37, ptr %ehselector.slot, align 4
  call void @_ZNSt7__cxx1112basic_stringIcSt11char_traitsIcESaIcEED1Ev(ptr noundef nonnull align 8 dereferenceable(32) %ref.tmp47) #3
  br label %ehcleanup55

ehcleanup55:                                      ; preds = %lpad52, %lpad48
  call void @_ZNSt7__cxx1112basic_stringIcSt11char_traitsIcESaIcEED1Ev(ptr noundef nonnull align 8 dereferenceable(32) %ref.tmp45) #3
  br label %ehcleanup76

if.else58:                                        ; preds = %invoke.cont53
  invoke void @_ZN7testing7MessageC1Ev(ptr noundef nonnull align 8 dereferenceable(8) %ref.tmp59)
          to label %invoke.cont61 unwind label %lpad60

invoke.cont61:                                    ; preds = %if.else58
  invoke void @_ZN7testing8internal30GetBoolAssertionFailureMessageB5cxx11ERKNS_15AssertionResultEPKcS5_S5_(ptr sret(%"class.std::__cxx11::basic_string") align 8 %ref.tmp63, ptr noundef nonnull align 8 dereferenceable(16) %gtest_ar_43, ptr noundef @.str.106, ptr noundef @.str.5, ptr noundef @.str.6)
          to label %invoke.cont65 unwind label %lpad64

invoke.cont65:                                    ; preds = %invoke.cont61
  %call66 = call noundef ptr @_ZNKSt7__cxx1112basic_stringIcSt11char_traitsIcESaIcEE5c_strEv(ptr noundef nonnull align 8 dereferenceable(32) %ref.tmp63) #3
  invoke void @_ZN7testing8internal12AssertHelperC1ENS_14TestPartResult4TypeEPKciS5_(ptr noundef nonnull align 8 dereferenceable(8) %ref.tmp62, i32 noundef 1, ptr noundef @.str.3, i32 noundef 256, ptr noundef %call66)
          to label %invoke.cont68 unwind label %lpad67

invoke.cont68:                                    ; preds = %invoke.cont65
  invoke void @_ZNK7testing8internal12AssertHelperaSERKNS_7MessageE(ptr noundef nonnull align 8 dereferenceable(8) %ref.tmp62, ptr noundef nonnull align 8 dereferenceable(8) %ref.tmp59)
          to label %invoke.cont70 unwind label %lpad69

invoke.cont70:                                    ; preds = %invoke.cont68
  call void @_ZN7testing8internal12AssertHelperD1Ev(ptr noundef nonnull align 8 dereferenceable(8) %ref.tmp62) #3
  call void @_ZNSt7__cxx1112basic_stringIcSt11char_traitsIcESaIcEED1Ev(ptr noundef nonnull align 8 dereferenceable(32) %ref.tmp63) #3
  call void @_ZN7testing7MessageD2Ev(ptr noundef nonnull align 8 dereferenceable(8) %ref.tmp59) #3
  br label %if.end74

lpad60:                                           ; preds = %if.else58
  %38 = landingpad { ptr, i32 }
          cleanup
  %39 = extractvalue { ptr, i32 } %38, 0
  store ptr %39, ptr %exn.slot, align 8
  %40 = extractvalue { ptr, i32 } %38, 1
  store i32 %40, ptr %ehselector.slot, align 4
  br label %ehcleanup75

lpad64:                                           ; preds = %invoke.cont61
  %41 = landingpad { ptr, i32 }
          cleanup
  %42 = extractvalue { ptr, i32 } %41, 0
  store ptr %42, ptr %exn.slot, align 8
  %43 = extractvalue { ptr, i32 } %41, 1
  store i32 %43, ptr %ehselector.slot, align 4
  br label %ehcleanup73

lpad67:                                           ; preds = %invoke.cont65
  %44 = landingpad { ptr, i32 }
          cleanup
  %45 = extractvalue { ptr, i32 } %44, 0
  store ptr %45, ptr %exn.slot, align 8
  %46 = extractvalue { ptr, i32 } %44, 1
  store i32 %46, ptr %ehselector.slot, align 4
  br label %ehcleanup72

lpad69:                                           ; preds = %invoke.cont68
  %47 = landingpad { ptr, i32 }
          cleanup
  %48 = extractvalue { ptr, i32 } %47, 0
  store ptr %48, ptr %exn.slot, align 8
  %49 = extractvalue { ptr, i32 } %47, 1
  store i32 %49, ptr %ehselector.slot, align 4
  call void @_ZN7testing8internal12AssertHelperD1Ev(ptr noundef nonnull align 8 dereferenceable(8) %ref.tmp62) #3
  br label %ehcleanup72

ehcleanup72:                                      ; preds = %lpad69, %lpad67
  call void @_ZNSt7__cxx1112basic_stringIcSt11char_traitsIcESaIcEED1Ev(ptr noundef nonnull align 8 dereferenceable(32) %ref.tmp63) #3
  br label %ehcleanup73

ehcleanup73:                                      ; preds = %ehcleanup72, %lpad64
  call void @_ZN7testing7MessageD2Ev(ptr noundef nonnull align 8 dereferenceable(8) %ref.tmp59) #3
  br label %ehcleanup75

if.end74:                                         ; preds = %invoke.cont70, %if.then57
  call void @_ZN7testing15AssertionResultD2Ev(ptr noundef nonnull align 8 dereferenceable(16) %gtest_ar_43) #3
  call void @_ZNSt7__cxx1119basic_ostringstreamIcSt11char_traitsIcESaIcEED1Ev(ptr noundef nonnull align 8 dereferenceable(112) %ref34) #3
  call void @_ZNSt7__cxx1119basic_ostringstreamIcSt11char_traitsIcESaIcEED1Ev(ptr noundef nonnull align 8 dereferenceable(112) %os33) #3
  ret void

ehcleanup75:                                      ; preds = %ehcleanup73, %lpad60
  call void @_ZN7testing15AssertionResultD2Ev(ptr noundef nonnull align 8 dereferenceable(16) %gtest_ar_43) #3
  br label %ehcleanup76

ehcleanup76:                                      ; preds = %ehcleanup75, %ehcleanup55, %lpad38
  call void @_ZNSt7__cxx1119basic_ostringstreamIcSt11char_traitsIcESaIcEED1Ev(ptr noundef nonnull align 8 dereferenceable(112) %ref34) #3
  br label %ehcleanup77

ehcleanup77:                                      ; preds = %ehcleanup76, %lpad35
  call void @_ZNSt7__cxx1119basic_ostringstreamIcSt11char_traitsIcESaIcEED1Ev(ptr noundef nonnull align 8 dereferenceable(112) %os33) #3
  br label %eh.resume

eh.resume:                                        ; preds = %ehcleanup77, %ehcleanup32
  %exn = load ptr, ptr %exn.slot, align 8
  %sel = load i32, ptr %ehselector.slot, align 4
  %lpad.val = insertvalue { ptr, i32 } poison, ptr %exn, 0
  %lpad.val78 = insertvalue { ptr, i32 } %lpad.val, i32 %sel, 1
  resume { ptr, i32 } %lpad.val78
}

; Function Attrs: mustprogress uwtable
define linkonce_odr dso_local void @_Z14ostream_helperIfEvT_(float noundef %v) #4 comdat personality ptr @__gxx_personality_v0 {
entry:
  %v.addr = alloca float, align 4
  %p = alloca %"class.gsl::not_null.90", align 8
  %os = alloca %"class.std::__cxx11::basic_ostringstream", align 8
  %ref = alloca %"class.std::__cxx11::basic_ostringstream", align 8
  %exn.slot = alloca ptr, align 8
  %ehselector.slot = alloca i32, align 4
  %gtest_ar_ = alloca %"class.testing::AssertionResult", align 8
  %ref.tmp = alloca i8, align 1
  %ref.tmp7 = alloca %"class.std::__cxx11::basic_string", align 8
  %ref.tmp9 = alloca %"class.std::__cxx11::basic_string", align 8
  %ref.tmp16 = alloca %"class.testing::Message", align 8
  %ref.tmp19 = alloca %"class.testing::internal::AssertHelper", align 8
  %ref.tmp20 = alloca %"class.std::__cxx11::basic_string", align 8
  %os34 = alloca %"class.std::__cxx11::basic_ostringstream", align 8
  %ref35 = alloca %"class.std::__cxx11::basic_ostringstream", align 8
  %gtest_ar_45 = alloca %"class.testing::AssertionResult", align 8
  %ref.tmp46 = alloca i8, align 1
  %ref.tmp47 = alloca %"class.std::__cxx11::basic_string", align 8
  %ref.tmp49 = alloca %"class.std::__cxx11::basic_string", align 8
  %ref.tmp61 = alloca %"class.testing::Message", align 8
  %ref.tmp64 = alloca %"class.testing::internal::AssertHelper", align 8
  %ref.tmp65 = alloca %"class.std::__cxx11::basic_string", align 8
  store float %v, ptr %v.addr, align 4
  call void @_ZN3gsl8not_nullIPfEC2IvEES1_(ptr noundef nonnull align 8 dereferenceable(8) %p, ptr noundef %v.addr) #3
  call void @_ZNSt7__cxx1119basic_ostringstreamIcSt11char_traitsIcESaIcEEC1Ev(ptr noundef nonnull align 8 dereferenceable(112) %os)
  invoke void @_ZNSt7__cxx1119basic_ostringstreamIcSt11char_traitsIcESaIcEEC1Ev(ptr noundef nonnull align 8 dereferenceable(112) %ref)
          to label %invoke.cont unwind label %lpad

invoke.cont:                                      ; preds = %entry
  %call = invoke noundef ptr @_ZNK3gsl8not_nullIPfEcvS1_Ev(ptr noundef nonnull align 8 dereferenceable(8) %p)
          to label %invoke.cont2 unwind label %lpad1

invoke.cont2:                                     ; preds = %invoke.cont
  %call4 = invoke noundef nonnull align 8 dereferenceable(8) ptr @_ZNSolsEPKv(ptr noundef nonnull align 8 dereferenceable(8) %os, ptr noundef %call)
          to label %invoke.cont3 unwind label %lpad1

invoke.cont3:                                     ; preds = %invoke.cont2
  %call6 = invoke noundef nonnull align 8 dereferenceable(8) ptr @_ZNSolsEPKv(ptr noundef nonnull align 8 dereferenceable(8) %ref, ptr noundef %v.addr)
          to label %invoke.cont5 unwind label %lpad1

invoke.cont5:                                     ; preds = %invoke.cont3
  invoke void @_ZNKSt7__cxx1119basic_ostringstreamIcSt11char_traitsIcESaIcEE3strEv(ptr sret(%"class.std::__cxx11::basic_string") align 8 %ref.tmp7, ptr noundef nonnull align 8 dereferenceable(112) %os)
          to label %invoke.cont8 unwind label %lpad1

invoke.cont8:                                     ; preds = %invoke.cont5
  invoke void @_ZNKSt7__cxx1119basic_ostringstreamIcSt11char_traitsIcESaIcEE3strEv(ptr sret(%"class.std::__cxx11::basic_string") align 8 %ref.tmp9, ptr noundef nonnull align 8 dereferenceable(112) %ref)
          to label %invoke.cont11 unwind label %lpad10

invoke.cont11:                                    ; preds = %invoke.cont8
  %call12 = call noundef zeroext i1 @_ZSteqIcEN9__gnu_cxx11__enable_ifIXsr9__is_charIT_EE7__valueEbE6__typeERKNSt7__cxx1112basic_stringIS2_St11char_traitsIS2_ESaIS2_EEESC_(ptr noundef nonnull align 8 dereferenceable(32) %ref.tmp7, ptr noundef nonnull align 8 dereferenceable(32) %ref.tmp9) #3
  %frombool = zext i1 %call12 to i8
  store i8 %frombool, ptr %ref.tmp, align 1
  invoke void @_ZN7testing15AssertionResultC2IbEERKT_PNSt9enable_ifIXntsr3std14is_convertibleIS2_S0_EE5valueEvE4typeE(ptr noundef nonnull align 8 dereferenceable(16) %gtest_ar_, ptr noundef nonnull align 1 dereferenceable(1) %ref.tmp, ptr noundef null)
          to label %invoke.cont14 unwind label %lpad13

invoke.cont14:                                    ; preds = %invoke.cont11
  call void @_ZNSt7__cxx1112basic_stringIcSt11char_traitsIcESaIcEED1Ev(ptr noundef nonnull align 8 dereferenceable(32) %ref.tmp9) #3
  call void @_ZNSt7__cxx1112basic_stringIcSt11char_traitsIcESaIcEED1Ev(ptr noundef nonnull align 8 dereferenceable(32) %ref.tmp7) #3
  %call15 = call noundef zeroext i1 @_ZNK7testing15AssertionResultcvbEv(ptr noundef nonnull align 8 dereferenceable(16) %gtest_ar_)
  br i1 %call15, label %if.then, label %if.else

if.then:                                          ; preds = %invoke.cont14
  br label %if.end

lpad:                                             ; preds = %entry
  %0 = landingpad { ptr, i32 }
          cleanup
  %1 = extractvalue { ptr, i32 } %0, 0
  store ptr %1, ptr %exn.slot, align 8
  %2 = extractvalue { ptr, i32 } %0, 1
  store i32 %2, ptr %ehselector.slot, align 4
  br label %ehcleanup33

lpad1:                                            ; preds = %invoke.cont5, %invoke.cont3, %invoke.cont2, %invoke.cont
  %3 = landingpad { ptr, i32 }
          cleanup
  %4 = extractvalue { ptr, i32 } %3, 0
  store ptr %4, ptr %exn.slot, align 8
  %5 = extractvalue { ptr, i32 } %3, 1
  store i32 %5, ptr %ehselector.slot, align 4
  br label %ehcleanup32

lpad10:                                           ; preds = %invoke.cont8
  %6 = landingpad { ptr, i32 }
          cleanup
  %7 = extractvalue { ptr, i32 } %6, 0
  store ptr %7, ptr %exn.slot, align 8
  %8 = extractvalue { ptr, i32 } %6, 1
  store i32 %8, ptr %ehselector.slot, align 4
  br label %ehcleanup

lpad13:                                           ; preds = %invoke.cont11
  %9 = landingpad { ptr, i32 }
          cleanup
  %10 = extractvalue { ptr, i32 } %9, 0
  store ptr %10, ptr %exn.slot, align 8
  %11 = extractvalue { ptr, i32 } %9, 1
  store i32 %11, ptr %ehselector.slot, align 4
  call void @_ZNSt7__cxx1112basic_stringIcSt11char_traitsIcESaIcEED1Ev(ptr noundef nonnull align 8 dereferenceable(32) %ref.tmp9) #3
  br label %ehcleanup

ehcleanup:                                        ; preds = %lpad13, %lpad10
  call void @_ZNSt7__cxx1112basic_stringIcSt11char_traitsIcESaIcEED1Ev(ptr noundef nonnull align 8 dereferenceable(32) %ref.tmp7) #3
  br label %ehcleanup32

if.else:                                          ; preds = %invoke.cont14
  invoke void @_ZN7testing7MessageC1Ev(ptr noundef nonnull align 8 dereferenceable(8) %ref.tmp16)
          to label %invoke.cont18 unwind label %lpad17

invoke.cont18:                                    ; preds = %if.else
  invoke void @_ZN7testing8internal30GetBoolAssertionFailureMessageB5cxx11ERKNS_15AssertionResultEPKcS5_S5_(ptr sret(%"class.std::__cxx11::basic_string") align 8 %ref.tmp20, ptr noundef nonnull align 8 dereferenceable(16) %gtest_ar_, ptr noundef @.str.106, ptr noundef @.str.5, ptr noundef @.str.6)
          to label %invoke.cont22 unwind label %lpad21

invoke.cont22:                                    ; preds = %invoke.cont18
  %call23 = call noundef ptr @_ZNKSt7__cxx1112basic_stringIcSt11char_traitsIcESaIcEE5c_strEv(ptr noundef nonnull align 8 dereferenceable(32) %ref.tmp20) #3
  invoke void @_ZN7testing8internal12AssertHelperC1ENS_14TestPartResult4TypeEPKciS5_(ptr noundef nonnull align 8 dereferenceable(8) %ref.tmp19, i32 noundef 1, ptr noundef @.str.3, i32 noundef 249, ptr noundef %call23)
          to label %invoke.cont25 unwind label %lpad24

invoke.cont25:                                    ; preds = %invoke.cont22
  invoke void @_ZNK7testing8internal12AssertHelperaSERKNS_7MessageE(ptr noundef nonnull align 8 dereferenceable(8) %ref.tmp19, ptr noundef nonnull align 8 dereferenceable(8) %ref.tmp16)
          to label %invoke.cont27 unwind label %lpad26

invoke.cont27:                                    ; preds = %invoke.cont25
  call void @_ZN7testing8internal12AssertHelperD1Ev(ptr noundef nonnull align 8 dereferenceable(8) %ref.tmp19) #3
  call void @_ZNSt7__cxx1112basic_stringIcSt11char_traitsIcESaIcEED1Ev(ptr noundef nonnull align 8 dereferenceable(32) %ref.tmp20) #3
  call void @_ZN7testing7MessageD2Ev(ptr noundef nonnull align 8 dereferenceable(8) %ref.tmp16) #3
  br label %if.end

lpad17:                                           ; preds = %if.else
  %12 = landingpad { ptr, i32 }
          cleanup
  %13 = extractvalue { ptr, i32 } %12, 0
  store ptr %13, ptr %exn.slot, align 8
  %14 = extractvalue { ptr, i32 } %12, 1
  store i32 %14, ptr %ehselector.slot, align 4
  br label %ehcleanup31

lpad21:                                           ; preds = %invoke.cont18
  %15 = landingpad { ptr, i32 }
          cleanup
  %16 = extractvalue { ptr, i32 } %15, 0
  store ptr %16, ptr %exn.slot, align 8
  %17 = extractvalue { ptr, i32 } %15, 1
  store i32 %17, ptr %ehselector.slot, align 4
  br label %ehcleanup30

lpad24:                                           ; preds = %invoke.cont22
  %18 = landingpad { ptr, i32 }
          cleanup
  %19 = extractvalue { ptr, i32 } %18, 0
  store ptr %19, ptr %exn.slot, align 8
  %20 = extractvalue { ptr, i32 } %18, 1
  store i32 %20, ptr %ehselector.slot, align 4
  br label %ehcleanup29

lpad26:                                           ; preds = %invoke.cont25
  %21 = landingpad { ptr, i32 }
          cleanup
  %22 = extractvalue { ptr, i32 } %21, 0
  store ptr %22, ptr %exn.slot, align 8
  %23 = extractvalue { ptr, i32 } %21, 1
  store i32 %23, ptr %ehselector.slot, align 4
  call void @_ZN7testing8internal12AssertHelperD1Ev(ptr noundef nonnull align 8 dereferenceable(8) %ref.tmp19) #3
  br label %ehcleanup29

ehcleanup29:                                      ; preds = %lpad26, %lpad24
  call void @_ZNSt7__cxx1112basic_stringIcSt11char_traitsIcESaIcEED1Ev(ptr noundef nonnull align 8 dereferenceable(32) %ref.tmp20) #3
  br label %ehcleanup30

ehcleanup30:                                      ; preds = %ehcleanup29, %lpad21
  call void @_ZN7testing7MessageD2Ev(ptr noundef nonnull align 8 dereferenceable(8) %ref.tmp16) #3
  br label %ehcleanup31

if.end:                                           ; preds = %invoke.cont27, %if.then
  call void @_ZN7testing15AssertionResultD2Ev(ptr noundef nonnull align 8 dereferenceable(16) %gtest_ar_) #3
  call void @_ZNSt7__cxx1119basic_ostringstreamIcSt11char_traitsIcESaIcEED1Ev(ptr noundef nonnull align 8 dereferenceable(112) %ref) #3
  call void @_ZNSt7__cxx1119basic_ostringstreamIcSt11char_traitsIcESaIcEED1Ev(ptr noundef nonnull align 8 dereferenceable(112) %os) #3
  call void @_ZNSt7__cxx1119basic_ostringstreamIcSt11char_traitsIcESaIcEEC1Ev(ptr noundef nonnull align 8 dereferenceable(112) %os34)
  invoke void @_ZNSt7__cxx1119basic_ostringstreamIcSt11char_traitsIcESaIcEEC1Ev(ptr noundef nonnull align 8 dereferenceable(112) %ref35)
          to label %invoke.cont37 unwind label %lpad36

invoke.cont37:                                    ; preds = %if.end
  %call40 = invoke noundef nonnull align 4 dereferenceable(4) ptr @_ZNK3gsl8not_nullIPfEdeEv(ptr noundef nonnull align 8 dereferenceable(8) %p)
          to label %invoke.cont39 unwind label %lpad38

invoke.cont39:                                    ; preds = %invoke.cont37
  %24 = load float, ptr %call40, align 4
  %call42 = invoke noundef nonnull align 8 dereferenceable(8) ptr @_ZNSolsEf(ptr noundef nonnull align 8 dereferenceable(8) %os34, float noundef %24)
          to label %invoke.cont41 unwind label %lpad38

invoke.cont41:                                    ; preds = %invoke.cont39
  %25 = load float, ptr %v.addr, align 4
  %call44 = invoke noundef nonnull align 8 dereferenceable(8) ptr @_ZNSolsEf(ptr noundef nonnull align 8 dereferenceable(8) %ref35, float noundef %25)
          to label %invoke.cont43 unwind label %lpad38

invoke.cont43:                                    ; preds = %invoke.cont41
  invoke void @_ZNKSt7__cxx1119basic_ostringstreamIcSt11char_traitsIcESaIcEE3strEv(ptr sret(%"class.std::__cxx11::basic_string") align 8 %ref.tmp47, ptr noundef nonnull align 8 dereferenceable(112) %os34)
          to label %invoke.cont48 unwind label %lpad38

invoke.cont48:                                    ; preds = %invoke.cont43
  invoke void @_ZNKSt7__cxx1119basic_ostringstreamIcSt11char_traitsIcESaIcEE3strEv(ptr sret(%"class.std::__cxx11::basic_string") align 8 %ref.tmp49, ptr noundef nonnull align 8 dereferenceable(112) %ref35)
          to label %invoke.cont51 unwind label %lpad50

invoke.cont51:                                    ; preds = %invoke.cont48
  %call52 = call noundef zeroext i1 @_ZSteqIcEN9__gnu_cxx11__enable_ifIXsr9__is_charIT_EE7__valueEbE6__typeERKNSt7__cxx1112basic_stringIS2_St11char_traitsIS2_ESaIS2_EEESC_(ptr noundef nonnull align 8 dereferenceable(32) %ref.tmp47, ptr noundef nonnull align 8 dereferenceable(32) %ref.tmp49) #3
  %frombool53 = zext i1 %call52 to i8
  store i8 %frombool53, ptr %ref.tmp46, align 1
  invoke void @_ZN7testing15AssertionResultC2IbEERKT_PNSt9enable_ifIXntsr3std14is_convertibleIS2_S0_EE5valueEvE4typeE(ptr noundef nonnull align 8 dereferenceable(16) %gtest_ar_45, ptr noundef nonnull align 1 dereferenceable(1) %ref.tmp46, ptr noundef null)
          to label %invoke.cont55 unwind label %lpad54

invoke.cont55:                                    ; preds = %invoke.cont51
  call void @_ZNSt7__cxx1112basic_stringIcSt11char_traitsIcESaIcEED1Ev(ptr noundef nonnull align 8 dereferenceable(32) %ref.tmp49) #3
  call void @_ZNSt7__cxx1112basic_stringIcSt11char_traitsIcESaIcEED1Ev(ptr noundef nonnull align 8 dereferenceable(32) %ref.tmp47) #3
  %call58 = call noundef zeroext i1 @_ZNK7testing15AssertionResultcvbEv(ptr noundef nonnull align 8 dereferenceable(16) %gtest_ar_45)
  br i1 %call58, label %if.then59, label %if.else60

if.then59:                                        ; preds = %invoke.cont55
  br label %if.end76

ehcleanup31:                                      ; preds = %ehcleanup30, %lpad17
  call void @_ZN7testing15AssertionResultD2Ev(ptr noundef nonnull align 8 dereferenceable(16) %gtest_ar_) #3
  br label %ehcleanup32

ehcleanup32:                                      ; preds = %ehcleanup31, %ehcleanup, %lpad1
  call void @_ZNSt7__cxx1119basic_ostringstreamIcSt11char_traitsIcESaIcEED1Ev(ptr noundef nonnull align 8 dereferenceable(112) %ref) #3
  br label %ehcleanup33

ehcleanup33:                                      ; preds = %ehcleanup32, %lpad
  call void @_ZNSt7__cxx1119basic_ostringstreamIcSt11char_traitsIcESaIcEED1Ev(ptr noundef nonnull align 8 dereferenceable(112) %os) #3
  br label %eh.resume

lpad36:                                           ; preds = %if.end
  %26 = landingpad { ptr, i32 }
          cleanup
  %27 = extractvalue { ptr, i32 } %26, 0
  store ptr %27, ptr %exn.slot, align 8
  %28 = extractvalue { ptr, i32 } %26, 1
  store i32 %28, ptr %ehselector.slot, align 4
  br label %ehcleanup79

lpad38:                                           ; preds = %invoke.cont43, %invoke.cont41, %invoke.cont39, %invoke.cont37
  %29 = landingpad { ptr, i32 }
          cleanup
  %30 = extractvalue { ptr, i32 } %29, 0
  store ptr %30, ptr %exn.slot, align 8
  %31 = extractvalue { ptr, i32 } %29, 1
  store i32 %31, ptr %ehselector.slot, align 4
  br label %ehcleanup78

lpad50:                                           ; preds = %invoke.cont48
  %32 = landingpad { ptr, i32 }
          cleanup
  %33 = extractvalue { ptr, i32 } %32, 0
  store ptr %33, ptr %exn.slot, align 8
  %34 = extractvalue { ptr, i32 } %32, 1
  store i32 %34, ptr %ehselector.slot, align 4
  br label %ehcleanup57

lpad54:                                           ; preds = %invoke.cont51
  %35 = landingpad { ptr, i32 }
          cleanup
  %36 = extractvalue { ptr, i32 } %35, 0
  store ptr %36, ptr %exn.slot, align 8
  %37 = extractvalue { ptr, i32 } %35, 1
  store i32 %37, ptr %ehselector.slot, align 4
  call void @_ZNSt7__cxx1112basic_stringIcSt11char_traitsIcESaIcEED1Ev(ptr noundef nonnull align 8 dereferenceable(32) %ref.tmp49) #3
  br label %ehcleanup57

ehcleanup57:                                      ; preds = %lpad54, %lpad50
  call void @_ZNSt7__cxx1112basic_stringIcSt11char_traitsIcESaIcEED1Ev(ptr noundef nonnull align 8 dereferenceable(32) %ref.tmp47) #3
  br label %ehcleanup78

if.else60:                                        ; preds = %invoke.cont55
  invoke void @_ZN7testing7MessageC1Ev(ptr noundef nonnull align 8 dereferenceable(8) %ref.tmp61)
          to label %invoke.cont63 unwind label %lpad62

invoke.cont63:                                    ; preds = %if.else60
  invoke void @_ZN7testing8internal30GetBoolAssertionFailureMessageB5cxx11ERKNS_15AssertionResultEPKcS5_S5_(ptr sret(%"class.std::__cxx11::basic_string") align 8 %ref.tmp65, ptr noundef nonnull align 8 dereferenceable(16) %gtest_ar_45, ptr noundef @.str.106, ptr noundef @.str.5, ptr noundef @.str.6)
          to label %invoke.cont67 unwind label %lpad66

invoke.cont67:                                    ; preds = %invoke.cont63
  %call68 = call noundef ptr @_ZNKSt7__cxx1112basic_stringIcSt11char_traitsIcESaIcEE5c_strEv(ptr noundef nonnull align 8 dereferenceable(32) %ref.tmp65) #3
  invoke void @_ZN7testing8internal12AssertHelperC1ENS_14TestPartResult4TypeEPKciS5_(ptr noundef nonnull align 8 dereferenceable(8) %ref.tmp64, i32 noundef 1, ptr noundef @.str.3, i32 noundef 256, ptr noundef %call68)
          to label %invoke.cont70 unwind label %lpad69

invoke.cont70:                                    ; preds = %invoke.cont67
  invoke void @_ZNK7testing8internal12AssertHelperaSERKNS_7MessageE(ptr noundef nonnull align 8 dereferenceable(8) %ref.tmp64, ptr noundef nonnull align 8 dereferenceable(8) %ref.tmp61)
          to label %invoke.cont72 unwind label %lpad71

invoke.cont72:                                    ; preds = %invoke.cont70
  call void @_ZN7testing8internal12AssertHelperD1Ev(ptr noundef nonnull align 8 dereferenceable(8) %ref.tmp64) #3
  call void @_ZNSt7__cxx1112basic_stringIcSt11char_traitsIcESaIcEED1Ev(ptr noundef nonnull align 8 dereferenceable(32) %ref.tmp65) #3
  call void @_ZN7testing7MessageD2Ev(ptr noundef nonnull align 8 dereferenceable(8) %ref.tmp61) #3
  br label %if.end76

lpad62:                                           ; preds = %if.else60
  %38 = landingpad { ptr, i32 }
          cleanup
  %39 = extractvalue { ptr, i32 } %38, 0
  store ptr %39, ptr %exn.slot, align 8
  %40 = extractvalue { ptr, i32 } %38, 1
  store i32 %40, ptr %ehselector.slot, align 4
  br label %ehcleanup77

lpad66:                                           ; preds = %invoke.cont63
  %41 = landingpad { ptr, i32 }
          cleanup
  %42 = extractvalue { ptr, i32 } %41, 0
  store ptr %42, ptr %exn.slot, align 8
  %43 = extractvalue { ptr, i32 } %41, 1
  store i32 %43, ptr %ehselector.slot, align 4
  br label %ehcleanup75

lpad69:                                           ; preds = %invoke.cont67
  %44 = landingpad { ptr, i32 }
          cleanup
  %45 = extractvalue { ptr, i32 } %44, 0
  store ptr %45, ptr %exn.slot, align 8
  %46 = extractvalue { ptr, i32 } %44, 1
  store i32 %46, ptr %ehselector.slot, align 4
  br label %ehcleanup74

lpad71:                                           ; preds = %invoke.cont70
  %47 = landingpad { ptr, i32 }
          cleanup
  %48 = extractvalue { ptr, i32 } %47, 0
  store ptr %48, ptr %exn.slot, align 8
  %49 = extractvalue { ptr, i32 } %47, 1
  store i32 %49, ptr %ehselector.slot, align 4
  call void @_ZN7testing8internal12AssertHelperD1Ev(ptr noundef nonnull align 8 dereferenceable(8) %ref.tmp64) #3
  br label %ehcleanup74

ehcleanup74:                                      ; preds = %lpad71, %lpad69
  call void @_ZNSt7__cxx1112basic_stringIcSt11char_traitsIcESaIcEED1Ev(ptr noundef nonnull align 8 dereferenceable(32) %ref.tmp65) #3
  br label %ehcleanup75

ehcleanup75:                                      ; preds = %ehcleanup74, %lpad66
  call void @_ZN7testing7MessageD2Ev(ptr noundef nonnull align 8 dereferenceable(8) %ref.tmp61) #3
  br label %ehcleanup77

if.end76:                                         ; preds = %invoke.cont72, %if.then59
  call void @_ZN7testing15AssertionResultD2Ev(ptr noundef nonnull align 8 dereferenceable(16) %gtest_ar_45) #3
  call void @_ZNSt7__cxx1119basic_ostringstreamIcSt11char_traitsIcESaIcEED1Ev(ptr noundef nonnull align 8 dereferenceable(112) %ref35) #3
  call void @_ZNSt7__cxx1119basic_ostringstreamIcSt11char_traitsIcESaIcEED1Ev(ptr noundef nonnull align 8 dereferenceable(112) %os34) #3
  ret void

ehcleanup77:                                      ; preds = %ehcleanup75, %lpad62
  call void @_ZN7testing15AssertionResultD2Ev(ptr noundef nonnull align 8 dereferenceable(16) %gtest_ar_45) #3
  br label %ehcleanup78

ehcleanup78:                                      ; preds = %ehcleanup77, %ehcleanup57, %lpad38
  call void @_ZNSt7__cxx1119basic_ostringstreamIcSt11char_traitsIcESaIcEED1Ev(ptr noundef nonnull align 8 dereferenceable(112) %ref35) #3
  br label %ehcleanup79

ehcleanup79:                                      ; preds = %ehcleanup78, %lpad36
  call void @_ZNSt7__cxx1119basic_ostringstreamIcSt11char_traitsIcESaIcEED1Ev(ptr noundef nonnull align 8 dereferenceable(112) %os34) #3
  br label %eh.resume

eh.resume:                                        ; preds = %ehcleanup79, %ehcleanup33
  %exn = load ptr, ptr %exn.slot, align 8
  %sel = load i32, ptr %ehselector.slot, align 4
  %lpad.val = insertvalue { ptr, i32 } poison, ptr %exn, 0
  %lpad.val80 = insertvalue { ptr, i32 } %lpad.val, i32 %sel, 1
  resume { ptr, i32 } %lpad.val80
}

; Function Attrs: mustprogress uwtable
define linkonce_odr dso_local void @_Z14ostream_helperIdEvT_(double noundef %v) #4 comdat personality ptr @__gxx_personality_v0 {
entry:
  %v.addr = alloca double, align 8
  %p = alloca %"class.gsl::not_null.91", align 8
  %os = alloca %"class.std::__cxx11::basic_ostringstream", align 8
  %ref = alloca %"class.std::__cxx11::basic_ostringstream", align 8
  %exn.slot = alloca ptr, align 8
  %ehselector.slot = alloca i32, align 4
  %gtest_ar_ = alloca %"class.testing::AssertionResult", align 8
  %ref.tmp = alloca i8, align 1
  %ref.tmp7 = alloca %"class.std::__cxx11::basic_string", align 8
  %ref.tmp9 = alloca %"class.std::__cxx11::basic_string", align 8
  %ref.tmp16 = alloca %"class.testing::Message", align 8
  %ref.tmp19 = alloca %"class.testing::internal::AssertHelper", align 8
  %ref.tmp20 = alloca %"class.std::__cxx11::basic_string", align 8
  %os34 = alloca %"class.std::__cxx11::basic_ostringstream", align 8
  %ref35 = alloca %"class.std::__cxx11::basic_ostringstream", align 8
  %gtest_ar_45 = alloca %"class.testing::AssertionResult", align 8
  %ref.tmp46 = alloca i8, align 1
  %ref.tmp47 = alloca %"class.std::__cxx11::basic_string", align 8
  %ref.tmp49 = alloca %"class.std::__cxx11::basic_string", align 8
  %ref.tmp61 = alloca %"class.testing::Message", align 8
  %ref.tmp64 = alloca %"class.testing::internal::AssertHelper", align 8
  %ref.tmp65 = alloca %"class.std::__cxx11::basic_string", align 8
  store double %v, ptr %v.addr, align 8
  call void @_ZN3gsl8not_nullIPdEC2IvEES1_(ptr noundef nonnull align 8 dereferenceable(8) %p, ptr noundef %v.addr) #3
  call void @_ZNSt7__cxx1119basic_ostringstreamIcSt11char_traitsIcESaIcEEC1Ev(ptr noundef nonnull align 8 dereferenceable(112) %os)
  invoke void @_ZNSt7__cxx1119basic_ostringstreamIcSt11char_traitsIcESaIcEEC1Ev(ptr noundef nonnull align 8 dereferenceable(112) %ref)
          to label %invoke.cont unwind label %lpad

invoke.cont:                                      ; preds = %entry
  %call = invoke noundef ptr @_ZNK3gsl8not_nullIPdEcvS1_Ev(ptr noundef nonnull align 8 dereferenceable(8) %p)
          to label %invoke.cont2 unwind label %lpad1

invoke.cont2:                                     ; preds = %invoke.cont
  %call4 = invoke noundef nonnull align 8 dereferenceable(8) ptr @_ZNSolsEPKv(ptr noundef nonnull align 8 dereferenceable(8) %os, ptr noundef %call)
          to label %invoke.cont3 unwind label %lpad1

invoke.cont3:                                     ; preds = %invoke.cont2
  %call6 = invoke noundef nonnull align 8 dereferenceable(8) ptr @_ZNSolsEPKv(ptr noundef nonnull align 8 dereferenceable(8) %ref, ptr noundef %v.addr)
          to label %invoke.cont5 unwind label %lpad1

invoke.cont5:                                     ; preds = %invoke.cont3
  invoke void @_ZNKSt7__cxx1119basic_ostringstreamIcSt11char_traitsIcESaIcEE3strEv(ptr sret(%"class.std::__cxx11::basic_string") align 8 %ref.tmp7, ptr noundef nonnull align 8 dereferenceable(112) %os)
          to label %invoke.cont8 unwind label %lpad1

invoke.cont8:                                     ; preds = %invoke.cont5
  invoke void @_ZNKSt7__cxx1119basic_ostringstreamIcSt11char_traitsIcESaIcEE3strEv(ptr sret(%"class.std::__cxx11::basic_string") align 8 %ref.tmp9, ptr noundef nonnull align 8 dereferenceable(112) %ref)
          to label %invoke.cont11 unwind label %lpad10

invoke.cont11:                                    ; preds = %invoke.cont8
  %call12 = call noundef zeroext i1 @_ZSteqIcEN9__gnu_cxx11__enable_ifIXsr9__is_charIT_EE7__valueEbE6__typeERKNSt7__cxx1112basic_stringIS2_St11char_traitsIS2_ESaIS2_EEESC_(ptr noundef nonnull align 8 dereferenceable(32) %ref.tmp7, ptr noundef nonnull align 8 dereferenceable(32) %ref.tmp9) #3
  %frombool = zext i1 %call12 to i8
  store i8 %frombool, ptr %ref.tmp, align 1
  invoke void @_ZN7testing15AssertionResultC2IbEERKT_PNSt9enable_ifIXntsr3std14is_convertibleIS2_S0_EE5valueEvE4typeE(ptr noundef nonnull align 8 dereferenceable(16) %gtest_ar_, ptr noundef nonnull align 1 dereferenceable(1) %ref.tmp, ptr noundef null)
          to label %invoke.cont14 unwind label %lpad13

invoke.cont14:                                    ; preds = %invoke.cont11
  call void @_ZNSt7__cxx1112basic_stringIcSt11char_traitsIcESaIcEED1Ev(ptr noundef nonnull align 8 dereferenceable(32) %ref.tmp9) #3
  call void @_ZNSt7__cxx1112basic_stringIcSt11char_traitsIcESaIcEED1Ev(ptr noundef nonnull align 8 dereferenceable(32) %ref.tmp7) #3
  %call15 = call noundef zeroext i1 @_ZNK7testing15AssertionResultcvbEv(ptr noundef nonnull align 8 dereferenceable(16) %gtest_ar_)
  br i1 %call15, label %if.then, label %if.else

if.then:                                          ; preds = %invoke.cont14
  br label %if.end

lpad:                                             ; preds = %entry
  %0 = landingpad { ptr, i32 }
          cleanup
  %1 = extractvalue { ptr, i32 } %0, 0
  store ptr %1, ptr %exn.slot, align 8
  %2 = extractvalue { ptr, i32 } %0, 1
  store i32 %2, ptr %ehselector.slot, align 4
  br label %ehcleanup33

lpad1:                                            ; preds = %invoke.cont5, %invoke.cont3, %invoke.cont2, %invoke.cont
  %3 = landingpad { ptr, i32 }
          cleanup
  %4 = extractvalue { ptr, i32 } %3, 0
  store ptr %4, ptr %exn.slot, align 8
  %5 = extractvalue { ptr, i32 } %3, 1
  store i32 %5, ptr %ehselector.slot, align 4
  br label %ehcleanup32

lpad10:                                           ; preds = %invoke.cont8
  %6 = landingpad { ptr, i32 }
          cleanup
  %7 = extractvalue { ptr, i32 } %6, 0
  store ptr %7, ptr %exn.slot, align 8
  %8 = extractvalue { ptr, i32 } %6, 1
  store i32 %8, ptr %ehselector.slot, align 4
  br label %ehcleanup

lpad13:                                           ; preds = %invoke.cont11
  %9 = landingpad { ptr, i32 }
          cleanup
  %10 = extractvalue { ptr, i32 } %9, 0
  store ptr %10, ptr %exn.slot, align 8
  %11 = extractvalue { ptr, i32 } %9, 1
  store i32 %11, ptr %ehselector.slot, align 4
  call void @_ZNSt7__cxx1112basic_stringIcSt11char_traitsIcESaIcEED1Ev(ptr noundef nonnull align 8 dereferenceable(32) %ref.tmp9) #3
  br label %ehcleanup

ehcleanup:                                        ; preds = %lpad13, %lpad10
  call void @_ZNSt7__cxx1112basic_stringIcSt11char_traitsIcESaIcEED1Ev(ptr noundef nonnull align 8 dereferenceable(32) %ref.tmp7) #3
  br label %ehcleanup32

if.else:                                          ; preds = %invoke.cont14
  invoke void @_ZN7testing7MessageC1Ev(ptr noundef nonnull align 8 dereferenceable(8) %ref.tmp16)
          to label %invoke.cont18 unwind label %lpad17

invoke.cont18:                                    ; preds = %if.else
  invoke void @_ZN7testing8internal30GetBoolAssertionFailureMessageB5cxx11ERKNS_15AssertionResultEPKcS5_S5_(ptr sret(%"class.std::__cxx11::basic_string") align 8 %ref.tmp20, ptr noundef nonnull align 8 dereferenceable(16) %gtest_ar_, ptr noundef @.str.106, ptr noundef @.str.5, ptr noundef @.str.6)
          to label %invoke.cont22 unwind label %lpad21

invoke.cont22:                                    ; preds = %invoke.cont18
  %call23 = call noundef ptr @_ZNKSt7__cxx1112basic_stringIcSt11char_traitsIcESaIcEE5c_strEv(ptr noundef nonnull align 8 dereferenceable(32) %ref.tmp20) #3
  invoke void @_ZN7testing8internal12AssertHelperC1ENS_14TestPartResult4TypeEPKciS5_(ptr noundef nonnull align 8 dereferenceable(8) %ref.tmp19, i32 noundef 1, ptr noundef @.str.3, i32 noundef 249, ptr noundef %call23)
          to label %invoke.cont25 unwind label %lpad24

invoke.cont25:                                    ; preds = %invoke.cont22
  invoke void @_ZNK7testing8internal12AssertHelperaSERKNS_7MessageE(ptr noundef nonnull align 8 dereferenceable(8) %ref.tmp19, ptr noundef nonnull align 8 dereferenceable(8) %ref.tmp16)
          to label %invoke.cont27 unwind label %lpad26

invoke.cont27:                                    ; preds = %invoke.cont25
  call void @_ZN7testing8internal12AssertHelperD1Ev(ptr noundef nonnull align 8 dereferenceable(8) %ref.tmp19) #3
  call void @_ZNSt7__cxx1112basic_stringIcSt11char_traitsIcESaIcEED1Ev(ptr noundef nonnull align 8 dereferenceable(32) %ref.tmp20) #3
  call void @_ZN7testing7MessageD2Ev(ptr noundef nonnull align 8 dereferenceable(8) %ref.tmp16) #3
  br label %if.end

lpad17:                                           ; preds = %if.else
  %12 = landingpad { ptr, i32 }
          cleanup
  %13 = extractvalue { ptr, i32 } %12, 0
  store ptr %13, ptr %exn.slot, align 8
  %14 = extractvalue { ptr, i32 } %12, 1
  store i32 %14, ptr %ehselector.slot, align 4
  br label %ehcleanup31

lpad21:                                           ; preds = %invoke.cont18
  %15 = landingpad { ptr, i32 }
          cleanup
  %16 = extractvalue { ptr, i32 } %15, 0
  store ptr %16, ptr %exn.slot, align 8
  %17 = extractvalue { ptr, i32 } %15, 1
  store i32 %17, ptr %ehselector.slot, align 4
  br label %ehcleanup30

lpad24:                                           ; preds = %invoke.cont22
  %18 = landingpad { ptr, i32 }
          cleanup
  %19 = extractvalue { ptr, i32 } %18, 0
  store ptr %19, ptr %exn.slot, align 8
  %20 = extractvalue { ptr, i32 } %18, 1
  store i32 %20, ptr %ehselector.slot, align 4
  br label %ehcleanup29

lpad26:                                           ; preds = %invoke.cont25
  %21 = landingpad { ptr, i32 }
          cleanup
  %22 = extractvalue { ptr, i32 } %21, 0
  store ptr %22, ptr %exn.slot, align 8
  %23 = extractvalue { ptr, i32 } %21, 1
  store i32 %23, ptr %ehselector.slot, align 4
  call void @_ZN7testing8internal12AssertHelperD1Ev(ptr noundef nonnull align 8 dereferenceable(8) %ref.tmp19) #3
  br label %ehcleanup29

ehcleanup29:                                      ; preds = %lpad26, %lpad24
  call void @_ZNSt7__cxx1112basic_stringIcSt11char_traitsIcESaIcEED1Ev(ptr noundef nonnull align 8 dereferenceable(32) %ref.tmp20) #3
  br label %ehcleanup30

ehcleanup30:                                      ; preds = %ehcleanup29, %lpad21
  call void @_ZN7testing7MessageD2Ev(ptr noundef nonnull align 8 dereferenceable(8) %ref.tmp16) #3
  br label %ehcleanup31

if.end:                                           ; preds = %invoke.cont27, %if.then
  call void @_ZN7testing15AssertionResultD2Ev(ptr noundef nonnull align 8 dereferenceable(16) %gtest_ar_) #3
  call void @_ZNSt7__cxx1119basic_ostringstreamIcSt11char_traitsIcESaIcEED1Ev(ptr noundef nonnull align 8 dereferenceable(112) %ref) #3
  call void @_ZNSt7__cxx1119basic_ostringstreamIcSt11char_traitsIcESaIcEED1Ev(ptr noundef nonnull align 8 dereferenceable(112) %os) #3
  call void @_ZNSt7__cxx1119basic_ostringstreamIcSt11char_traitsIcESaIcEEC1Ev(ptr noundef nonnull align 8 dereferenceable(112) %os34)
  invoke void @_ZNSt7__cxx1119basic_ostringstreamIcSt11char_traitsIcESaIcEEC1Ev(ptr noundef nonnull align 8 dereferenceable(112) %ref35)
          to label %invoke.cont37 unwind label %lpad36

invoke.cont37:                                    ; preds = %if.end
  %call40 = invoke noundef nonnull align 8 dereferenceable(8) ptr @_ZNK3gsl8not_nullIPdEdeEv(ptr noundef nonnull align 8 dereferenceable(8) %p)
          to label %invoke.cont39 unwind label %lpad38

invoke.cont39:                                    ; preds = %invoke.cont37
  %24 = load double, ptr %call40, align 8
  %call42 = invoke noundef nonnull align 8 dereferenceable(8) ptr @_ZNSolsEd(ptr noundef nonnull align 8 dereferenceable(8) %os34, double noundef %24)
          to label %invoke.cont41 unwind label %lpad38

invoke.cont41:                                    ; preds = %invoke.cont39
  %25 = load double, ptr %v.addr, align 8
  %call44 = invoke noundef nonnull align 8 dereferenceable(8) ptr @_ZNSolsEd(ptr noundef nonnull align 8 dereferenceable(8) %ref35, double noundef %25)
          to label %invoke.cont43 unwind label %lpad38

invoke.cont43:                                    ; preds = %invoke.cont41
  invoke void @_ZNKSt7__cxx1119basic_ostringstreamIcSt11char_traitsIcESaIcEE3strEv(ptr sret(%"class.std::__cxx11::basic_string") align 8 %ref.tmp47, ptr noundef nonnull align 8 dereferenceable(112) %os34)
          to label %invoke.cont48 unwind label %lpad38

invoke.cont48:                                    ; preds = %invoke.cont43
  invoke void @_ZNKSt7__cxx1119basic_ostringstreamIcSt11char_traitsIcESaIcEE3strEv(ptr sret(%"class.std::__cxx11::basic_string") align 8 %ref.tmp49, ptr noundef nonnull align 8 dereferenceable(112) %ref35)
          to label %invoke.cont51 unwind label %lpad50

invoke.cont51:                                    ; preds = %invoke.cont48
  %call52 = call noundef zeroext i1 @_ZSteqIcEN9__gnu_cxx11__enable_ifIXsr9__is_charIT_EE7__valueEbE6__typeERKNSt7__cxx1112basic_stringIS2_St11char_traitsIS2_ESaIS2_EEESC_(ptr noundef nonnull align 8 dereferenceable(32) %ref.tmp47, ptr noundef nonnull align 8 dereferenceable(32) %ref.tmp49) #3
  %frombool53 = zext i1 %call52 to i8
  store i8 %frombool53, ptr %ref.tmp46, align 1
  invoke void @_ZN7testing15AssertionResultC2IbEERKT_PNSt9enable_ifIXntsr3std14is_convertibleIS2_S0_EE5valueEvE4typeE(ptr noundef nonnull align 8 dereferenceable(16) %gtest_ar_45, ptr noundef nonnull align 1 dereferenceable(1) %ref.tmp46, ptr noundef null)
          to label %invoke.cont55 unwind label %lpad54

invoke.cont55:                                    ; preds = %invoke.cont51
  call void @_ZNSt7__cxx1112basic_stringIcSt11char_traitsIcESaIcEED1Ev(ptr noundef nonnull align 8 dereferenceable(32) %ref.tmp49) #3
  call void @_ZNSt7__cxx1112basic_stringIcSt11char_traitsIcESaIcEED1Ev(ptr noundef nonnull align 8 dereferenceable(32) %ref.tmp47) #3
  %call58 = call noundef zeroext i1 @_ZNK7testing15AssertionResultcvbEv(ptr noundef nonnull align 8 dereferenceable(16) %gtest_ar_45)
  br i1 %call58, label %if.then59, label %if.else60

if.then59:                                        ; preds = %invoke.cont55
  br label %if.end76

ehcleanup31:                                      ; preds = %ehcleanup30, %lpad17
  call void @_ZN7testing15AssertionResultD2Ev(ptr noundef nonnull align 8 dereferenceable(16) %gtest_ar_) #3
  br label %ehcleanup32

ehcleanup32:                                      ; preds = %ehcleanup31, %ehcleanup, %lpad1
  call void @_ZNSt7__cxx1119basic_ostringstreamIcSt11char_traitsIcESaIcEED1Ev(ptr noundef nonnull align 8 dereferenceable(112) %ref) #3
  br label %ehcleanup33

ehcleanup33:                                      ; preds = %ehcleanup32, %lpad
  call void @_ZNSt7__cxx1119basic_ostringstreamIcSt11char_traitsIcESaIcEED1Ev(ptr noundef nonnull align 8 dereferenceable(112) %os) #3
  br label %eh.resume

lpad36:                                           ; preds = %if.end
  %26 = landingpad { ptr, i32 }
          cleanup
  %27 = extractvalue { ptr, i32 } %26, 0
  store ptr %27, ptr %exn.slot, align 8
  %28 = extractvalue { ptr, i32 } %26, 1
  store i32 %28, ptr %ehselector.slot, align 4
  br label %ehcleanup79

lpad38:                                           ; preds = %invoke.cont43, %invoke.cont41, %invoke.cont39, %invoke.cont37
  %29 = landingpad { ptr, i32 }
          cleanup
  %30 = extractvalue { ptr, i32 } %29, 0
  store ptr %30, ptr %exn.slot, align 8
  %31 = extractvalue { ptr, i32 } %29, 1
  store i32 %31, ptr %ehselector.slot, align 4
  br label %ehcleanup78

lpad50:                                           ; preds = %invoke.cont48
  %32 = landingpad { ptr, i32 }
          cleanup
  %33 = extractvalue { ptr, i32 } %32, 0
  store ptr %33, ptr %exn.slot, align 8
  %34 = extractvalue { ptr, i32 } %32, 1
  store i32 %34, ptr %ehselector.slot, align 4
  br label %ehcleanup57

lpad54:                                           ; preds = %invoke.cont51
  %35 = landingpad { ptr, i32 }
          cleanup
  %36 = extractvalue { ptr, i32 } %35, 0
  store ptr %36, ptr %exn.slot, align 8
  %37 = extractvalue { ptr, i32 } %35, 1
  store i32 %37, ptr %ehselector.slot, align 4
  call void @_ZNSt7__cxx1112basic_stringIcSt11char_traitsIcESaIcEED1Ev(ptr noundef nonnull align 8 dereferenceable(32) %ref.tmp49) #3
  br label %ehcleanup57

ehcleanup57:                                      ; preds = %lpad54, %lpad50
  call void @_ZNSt7__cxx1112basic_stringIcSt11char_traitsIcESaIcEED1Ev(ptr noundef nonnull align 8 dereferenceable(32) %ref.tmp47) #3
  br label %ehcleanup78

if.else60:                                        ; preds = %invoke.cont55
  invoke void @_ZN7testing7MessageC1Ev(ptr noundef nonnull align 8 dereferenceable(8) %ref.tmp61)
          to label %invoke.cont63 unwind label %lpad62

invoke.cont63:                                    ; preds = %if.else60
  invoke void @_ZN7testing8internal30GetBoolAssertionFailureMessageB5cxx11ERKNS_15AssertionResultEPKcS5_S5_(ptr sret(%"class.std::__cxx11::basic_string") align 8 %ref.tmp65, ptr noundef nonnull align 8 dereferenceable(16) %gtest_ar_45, ptr noundef @.str.106, ptr noundef @.str.5, ptr noundef @.str.6)
          to label %invoke.cont67 unwind label %lpad66

invoke.cont67:                                    ; preds = %invoke.cont63
  %call68 = call noundef ptr @_ZNKSt7__cxx1112basic_stringIcSt11char_traitsIcESaIcEE5c_strEv(ptr noundef nonnull align 8 dereferenceable(32) %ref.tmp65) #3
  invoke void @_ZN7testing8internal12AssertHelperC1ENS_14TestPartResult4TypeEPKciS5_(ptr noundef nonnull align 8 dereferenceable(8) %ref.tmp64, i32 noundef 1, ptr noundef @.str.3, i32 noundef 256, ptr noundef %call68)
          to label %invoke.cont70 unwind label %lpad69

invoke.cont70:                                    ; preds = %invoke.cont67
  invoke void @_ZNK7testing8internal12AssertHelperaSERKNS_7MessageE(ptr noundef nonnull align 8 dereferenceable(8) %ref.tmp64, ptr noundef nonnull align 8 dereferenceable(8) %ref.tmp61)
          to label %invoke.cont72 unwind label %lpad71

invoke.cont72:                                    ; preds = %invoke.cont70
  call void @_ZN7testing8internal12AssertHelperD1Ev(ptr noundef nonnull align 8 dereferenceable(8) %ref.tmp64) #3
  call void @_ZNSt7__cxx1112basic_stringIcSt11char_traitsIcESaIcEED1Ev(ptr noundef nonnull align 8 dereferenceable(32) %ref.tmp65) #3
  call void @_ZN7testing7MessageD2Ev(ptr noundef nonnull align 8 dereferenceable(8) %ref.tmp61) #3
  br label %if.end76

lpad62:                                           ; preds = %if.else60
  %38 = landingpad { ptr, i32 }
          cleanup
  %39 = extractvalue { ptr, i32 } %38, 0
  store ptr %39, ptr %exn.slot, align 8
  %40 = extractvalue { ptr, i32 } %38, 1
  store i32 %40, ptr %ehselector.slot, align 4
  br label %ehcleanup77

lpad66:                                           ; preds = %invoke.cont63
  %41 = landingpad { ptr, i32 }
          cleanup
  %42 = extractvalue { ptr, i32 } %41, 0
  store ptr %42, ptr %exn.slot, align 8
  %43 = extractvalue { ptr, i32 } %41, 1
  store i32 %43, ptr %ehselector.slot, align 4
  br label %ehcleanup75

lpad69:                                           ; preds = %invoke.cont67
  %44 = landingpad { ptr, i32 }
          cleanup
  %45 = extractvalue { ptr, i32 } %44, 0
  store ptr %45, ptr %exn.slot, align 8
  %46 = extractvalue { ptr, i32 } %44, 1
  store i32 %46, ptr %ehselector.slot, align 4
  br label %ehcleanup74

lpad71:                                           ; preds = %invoke.cont70
  %47 = landingpad { ptr, i32 }
          cleanup
  %48 = extractvalue { ptr, i32 } %47, 0
  store ptr %48, ptr %exn.slot, align 8
  %49 = extractvalue { ptr, i32 } %47, 1
  store i32 %49, ptr %ehselector.slot, align 4
  call void @_ZN7testing8internal12AssertHelperD1Ev(ptr noundef nonnull align 8 dereferenceable(8) %ref.tmp64) #3
  br label %ehcleanup74

ehcleanup74:                                      ; preds = %lpad71, %lpad69
  call void @_ZNSt7__cxx1112basic_stringIcSt11char_traitsIcESaIcEED1Ev(ptr noundef nonnull align 8 dereferenceable(32) %ref.tmp65) #3
  br label %ehcleanup75

ehcleanup75:                                      ; preds = %ehcleanup74, %lpad66
  call void @_ZN7testing7MessageD2Ev(ptr noundef nonnull align 8 dereferenceable(8) %ref.tmp61) #3
  br label %ehcleanup77

if.end76:                                         ; preds = %invoke.cont72, %if.then59
  call void @_ZN7testing15AssertionResultD2Ev(ptr noundef nonnull align 8 dereferenceable(16) %gtest_ar_45) #3
  call void @_ZNSt7__cxx1119basic_ostringstreamIcSt11char_traitsIcESaIcEED1Ev(ptr noundef nonnull align 8 dereferenceable(112) %ref35) #3
  call void @_ZNSt7__cxx1119basic_ostringstreamIcSt11char_traitsIcESaIcEED1Ev(ptr noundef nonnull align 8 dereferenceable(112) %os34) #3
  ret void

ehcleanup77:                                      ; preds = %ehcleanup75, %lpad62
  call void @_ZN7testing15AssertionResultD2Ev(ptr noundef nonnull align 8 dereferenceable(16) %gtest_ar_45) #3
  br label %ehcleanup78

ehcleanup78:                                      ; preds = %ehcleanup77, %ehcleanup57, %lpad38
  call void @_ZNSt7__cxx1119basic_ostringstreamIcSt11char_traitsIcESaIcEED1Ev(ptr noundef nonnull align 8 dereferenceable(112) %ref35) #3
  br label %ehcleanup79

ehcleanup79:                                      ; preds = %ehcleanup78, %lpad36
  call void @_ZNSt7__cxx1119basic_ostringstreamIcSt11char_traitsIcESaIcEED1Ev(ptr noundef nonnull align 8 dereferenceable(112) %os34) #3
  br label %eh.resume

eh.resume:                                        ; preds = %ehcleanup79, %ehcleanup33
  %exn = load ptr, ptr %exn.slot, align 8
  %sel = load i32, ptr %ehselector.slot, align 4
  %lpad.val = insertvalue { ptr, i32 } poison, ptr %exn, 0
  %lpad.val80 = insertvalue { ptr, i32 } %lpad.val, i32 %sel, 1
  resume { ptr, i32 } %lpad.val80
}

; Function Attrs: mustprogress uwtable
define linkonce_odr dso_local void @_Z14ostream_helperIcEvT_(i8 noundef signext %v) #4 comdat personality ptr @__gxx_personality_v0 {
entry:
  %v.addr = alloca i8, align 1
  %p = alloca %"class.gsl::not_null.92", align 8
  %os = alloca %"class.std::__cxx11::basic_ostringstream", align 8
  %ref = alloca %"class.std::__cxx11::basic_ostringstream", align 8
  %exn.slot = alloca ptr, align 8
  %ehselector.slot = alloca i32, align 4
  %gtest_ar_ = alloca %"class.testing::AssertionResult", align 8
  %ref.tmp = alloca i8, align 1
  %ref.tmp7 = alloca %"class.std::__cxx11::basic_string", align 8
  %ref.tmp9 = alloca %"class.std::__cxx11::basic_string", align 8
  %ref.tmp16 = alloca %"class.testing::Message", align 8
  %ref.tmp19 = alloca %"class.testing::internal::AssertHelper", align 8
  %ref.tmp20 = alloca %"class.std::__cxx11::basic_string", align 8
  %os34 = alloca %"class.std::__cxx11::basic_ostringstream", align 8
  %ref35 = alloca %"class.std::__cxx11::basic_ostringstream", align 8
  %gtest_ar_45 = alloca %"class.testing::AssertionResult", align 8
  %ref.tmp46 = alloca i8, align 1
  %ref.tmp47 = alloca %"class.std::__cxx11::basic_string", align 8
  %ref.tmp49 = alloca %"class.std::__cxx11::basic_string", align 8
  %ref.tmp61 = alloca %"class.testing::Message", align 8
  %ref.tmp64 = alloca %"class.testing::internal::AssertHelper", align 8
  %ref.tmp65 = alloca %"class.std::__cxx11::basic_string", align 8
  store i8 %v, ptr %v.addr, align 1
  call void @_ZN3gsl8not_nullIPcEC2IvEES1_(ptr noundef nonnull align 8 dereferenceable(8) %p, ptr noundef %v.addr) #3
  call void @_ZNSt7__cxx1119basic_ostringstreamIcSt11char_traitsIcESaIcEEC1Ev(ptr noundef nonnull align 8 dereferenceable(112) %os)
  invoke void @_ZNSt7__cxx1119basic_ostringstreamIcSt11char_traitsIcESaIcEEC1Ev(ptr noundef nonnull align 8 dereferenceable(112) %ref)
          to label %invoke.cont unwind label %lpad

invoke.cont:                                      ; preds = %entry
  %call = invoke noundef ptr @_ZNK3gsl8not_nullIPcEcvS1_Ev(ptr noundef nonnull align 8 dereferenceable(8) %p)
          to label %invoke.cont2 unwind label %lpad1

invoke.cont2:                                     ; preds = %invoke.cont
  %call4 = invoke noundef nonnull align 8 dereferenceable(8) ptr @_ZNSolsEPKv(ptr noundef nonnull align 8 dereferenceable(8) %os, ptr noundef %call)
          to label %invoke.cont3 unwind label %lpad1

invoke.cont3:                                     ; preds = %invoke.cont2
  %call6 = invoke noundef nonnull align 8 dereferenceable(8) ptr @_ZNSolsEPKv(ptr noundef nonnull align 8 dereferenceable(8) %ref, ptr noundef %v.addr)
          to label %invoke.cont5 unwind label %lpad1

invoke.cont5:                                     ; preds = %invoke.cont3
  invoke void @_ZNKSt7__cxx1119basic_ostringstreamIcSt11char_traitsIcESaIcEE3strEv(ptr sret(%"class.std::__cxx11::basic_string") align 8 %ref.tmp7, ptr noundef nonnull align 8 dereferenceable(112) %os)
          to label %invoke.cont8 unwind label %lpad1

invoke.cont8:                                     ; preds = %invoke.cont5
  invoke void @_ZNKSt7__cxx1119basic_ostringstreamIcSt11char_traitsIcESaIcEE3strEv(ptr sret(%"class.std::__cxx11::basic_string") align 8 %ref.tmp9, ptr noundef nonnull align 8 dereferenceable(112) %ref)
          to label %invoke.cont11 unwind label %lpad10

invoke.cont11:                                    ; preds = %invoke.cont8
  %call12 = call noundef zeroext i1 @_ZSteqIcEN9__gnu_cxx11__enable_ifIXsr9__is_charIT_EE7__valueEbE6__typeERKNSt7__cxx1112basic_stringIS2_St11char_traitsIS2_ESaIS2_EEESC_(ptr noundef nonnull align 8 dereferenceable(32) %ref.tmp7, ptr noundef nonnull align 8 dereferenceable(32) %ref.tmp9) #3
  %frombool = zext i1 %call12 to i8
  store i8 %frombool, ptr %ref.tmp, align 1
  invoke void @_ZN7testing15AssertionResultC2IbEERKT_PNSt9enable_ifIXntsr3std14is_convertibleIS2_S0_EE5valueEvE4typeE(ptr noundef nonnull align 8 dereferenceable(16) %gtest_ar_, ptr noundef nonnull align 1 dereferenceable(1) %ref.tmp, ptr noundef null)
          to label %invoke.cont14 unwind label %lpad13

invoke.cont14:                                    ; preds = %invoke.cont11
  call void @_ZNSt7__cxx1112basic_stringIcSt11char_traitsIcESaIcEED1Ev(ptr noundef nonnull align 8 dereferenceable(32) %ref.tmp9) #3
  call void @_ZNSt7__cxx1112basic_stringIcSt11char_traitsIcESaIcEED1Ev(ptr noundef nonnull align 8 dereferenceable(32) %ref.tmp7) #3
  %call15 = call noundef zeroext i1 @_ZNK7testing15AssertionResultcvbEv(ptr noundef nonnull align 8 dereferenceable(16) %gtest_ar_)
  br i1 %call15, label %if.then, label %if.else

if.then:                                          ; preds = %invoke.cont14
  br label %if.end

lpad:                                             ; preds = %entry
  %0 = landingpad { ptr, i32 }
          cleanup
  %1 = extractvalue { ptr, i32 } %0, 0
  store ptr %1, ptr %exn.slot, align 8
  %2 = extractvalue { ptr, i32 } %0, 1
  store i32 %2, ptr %ehselector.slot, align 4
  br label %ehcleanup33

lpad1:                                            ; preds = %invoke.cont5, %invoke.cont3, %invoke.cont2, %invoke.cont
  %3 = landingpad { ptr, i32 }
          cleanup
  %4 = extractvalue { ptr, i32 } %3, 0
  store ptr %4, ptr %exn.slot, align 8
  %5 = extractvalue { ptr, i32 } %3, 1
  store i32 %5, ptr %ehselector.slot, align 4
  br label %ehcleanup32

lpad10:                                           ; preds = %invoke.cont8
  %6 = landingpad { ptr, i32 }
          cleanup
  %7 = extractvalue { ptr, i32 } %6, 0
  store ptr %7, ptr %exn.slot, align 8
  %8 = extractvalue { ptr, i32 } %6, 1
  store i32 %8, ptr %ehselector.slot, align 4
  br label %ehcleanup

lpad13:                                           ; preds = %invoke.cont11
  %9 = landingpad { ptr, i32 }
          cleanup
  %10 = extractvalue { ptr, i32 } %9, 0
  store ptr %10, ptr %exn.slot, align 8
  %11 = extractvalue { ptr, i32 } %9, 1
  store i32 %11, ptr %ehselector.slot, align 4
  call void @_ZNSt7__cxx1112basic_stringIcSt11char_traitsIcESaIcEED1Ev(ptr noundef nonnull align 8 dereferenceable(32) %ref.tmp9) #3
  br label %ehcleanup

ehcleanup:                                        ; preds = %lpad13, %lpad10
  call void @_ZNSt7__cxx1112basic_stringIcSt11char_traitsIcESaIcEED1Ev(ptr noundef nonnull align 8 dereferenceable(32) %ref.tmp7) #3
  br label %ehcleanup32

if.else:                                          ; preds = %invoke.cont14
  invoke void @_ZN7testing7MessageC1Ev(ptr noundef nonnull align 8 dereferenceable(8) %ref.tmp16)
          to label %invoke.cont18 unwind label %lpad17

invoke.cont18:                                    ; preds = %if.else
  invoke void @_ZN7testing8internal30GetBoolAssertionFailureMessageB5cxx11ERKNS_15AssertionResultEPKcS5_S5_(ptr sret(%"class.std::__cxx11::basic_string") align 8 %ref.tmp20, ptr noundef nonnull align 8 dereferenceable(16) %gtest_ar_, ptr noundef @.str.106, ptr noundef @.str.5, ptr noundef @.str.6)
          to label %invoke.cont22 unwind label %lpad21

invoke.cont22:                                    ; preds = %invoke.cont18
  %call23 = call noundef ptr @_ZNKSt7__cxx1112basic_stringIcSt11char_traitsIcESaIcEE5c_strEv(ptr noundef nonnull align 8 dereferenceable(32) %ref.tmp20) #3
  invoke void @_ZN7testing8internal12AssertHelperC1ENS_14TestPartResult4TypeEPKciS5_(ptr noundef nonnull align 8 dereferenceable(8) %ref.tmp19, i32 noundef 1, ptr noundef @.str.3, i32 noundef 249, ptr noundef %call23)
          to label %invoke.cont25 unwind label %lpad24

invoke.cont25:                                    ; preds = %invoke.cont22
  invoke void @_ZNK7testing8internal12AssertHelperaSERKNS_7MessageE(ptr noundef nonnull align 8 dereferenceable(8) %ref.tmp19, ptr noundef nonnull align 8 dereferenceable(8) %ref.tmp16)
          to label %invoke.cont27 unwind label %lpad26

invoke.cont27:                                    ; preds = %invoke.cont25
  call void @_ZN7testing8internal12AssertHelperD1Ev(ptr noundef nonnull align 8 dereferenceable(8) %ref.tmp19) #3
  call void @_ZNSt7__cxx1112basic_stringIcSt11char_traitsIcESaIcEED1Ev(ptr noundef nonnull align 8 dereferenceable(32) %ref.tmp20) #3
  call void @_ZN7testing7MessageD2Ev(ptr noundef nonnull align 8 dereferenceable(8) %ref.tmp16) #3
  br label %if.end

lpad17:                                           ; preds = %if.else
  %12 = landingpad { ptr, i32 }
          cleanup
  %13 = extractvalue { ptr, i32 } %12, 0
  store ptr %13, ptr %exn.slot, align 8
  %14 = extractvalue { ptr, i32 } %12, 1
  store i32 %14, ptr %ehselector.slot, align 4
  br label %ehcleanup31

lpad21:                                           ; preds = %invoke.cont18
  %15 = landingpad { ptr, i32 }
          cleanup
  %16 = extractvalue { ptr, i32 } %15, 0
  store ptr %16, ptr %exn.slot, align 8
  %17 = extractvalue { ptr, i32 } %15, 1
  store i32 %17, ptr %ehselector.slot, align 4
  br label %ehcleanup30

lpad24:                                           ; preds = %invoke.cont22
  %18 = landingpad { ptr, i32 }
          cleanup
  %19 = extractvalue { ptr, i32 } %18, 0
  store ptr %19, ptr %exn.slot, align 8
  %20 = extractvalue { ptr, i32 } %18, 1
  store i32 %20, ptr %ehselector.slot, align 4
  br label %ehcleanup29

lpad26:                                           ; preds = %invoke.cont25
  %21 = landingpad { ptr, i32 }
          cleanup
  %22 = extractvalue { ptr, i32 } %21, 0
  store ptr %22, ptr %exn.slot, align 8
  %23 = extractvalue { ptr, i32 } %21, 1
  store i32 %23, ptr %ehselector.slot, align 4
  call void @_ZN7testing8internal12AssertHelperD1Ev(ptr noundef nonnull align 8 dereferenceable(8) %ref.tmp19) #3
  br label %ehcleanup29

ehcleanup29:                                      ; preds = %lpad26, %lpad24
  call void @_ZNSt7__cxx1112basic_stringIcSt11char_traitsIcESaIcEED1Ev(ptr noundef nonnull align 8 dereferenceable(32) %ref.tmp20) #3
  br label %ehcleanup30

ehcleanup30:                                      ; preds = %ehcleanup29, %lpad21
  call void @_ZN7testing7MessageD2Ev(ptr noundef nonnull align 8 dereferenceable(8) %ref.tmp16) #3
  br label %ehcleanup31

if.end:                                           ; preds = %invoke.cont27, %if.then
  call void @_ZN7testing15AssertionResultD2Ev(ptr noundef nonnull align 8 dereferenceable(16) %gtest_ar_) #3
  call void @_ZNSt7__cxx1119basic_ostringstreamIcSt11char_traitsIcESaIcEED1Ev(ptr noundef nonnull align 8 dereferenceable(112) %ref) #3
  call void @_ZNSt7__cxx1119basic_ostringstreamIcSt11char_traitsIcESaIcEED1Ev(ptr noundef nonnull align 8 dereferenceable(112) %os) #3
  call void @_ZNSt7__cxx1119basic_ostringstreamIcSt11char_traitsIcESaIcEEC1Ev(ptr noundef nonnull align 8 dereferenceable(112) %os34)
  invoke void @_ZNSt7__cxx1119basic_ostringstreamIcSt11char_traitsIcESaIcEEC1Ev(ptr noundef nonnull align 8 dereferenceable(112) %ref35)
          to label %invoke.cont37 unwind label %lpad36

invoke.cont37:                                    ; preds = %if.end
  %call40 = invoke noundef nonnull align 1 dereferenceable(1) ptr @_ZNK3gsl8not_nullIPcEdeEv(ptr noundef nonnull align 8 dereferenceable(8) %p)
          to label %invoke.cont39 unwind label %lpad38

invoke.cont39:                                    ; preds = %invoke.cont37
  %24 = load i8, ptr %call40, align 1
  %call42 = invoke noundef nonnull align 8 dereferenceable(8) ptr @_ZStlsISt11char_traitsIcEERSt13basic_ostreamIcT_ES5_c(ptr noundef nonnull align 8 dereferenceable(8) %os34, i8 noundef signext %24)
          to label %invoke.cont41 unwind label %lpad38

invoke.cont41:                                    ; preds = %invoke.cont39
  %25 = load i8, ptr %v.addr, align 1
  %call44 = invoke noundef nonnull align 8 dereferenceable(8) ptr @_ZStlsISt11char_traitsIcEERSt13basic_ostreamIcT_ES5_c(ptr noundef nonnull align 8 dereferenceable(8) %ref35, i8 noundef signext %25)
          to label %invoke.cont43 unwind label %lpad38

invoke.cont43:                                    ; preds = %invoke.cont41
  invoke void @_ZNKSt7__cxx1119basic_ostringstreamIcSt11char_traitsIcESaIcEE3strEv(ptr sret(%"class.std::__cxx11::basic_string") align 8 %ref.tmp47, ptr noundef nonnull align 8 dereferenceable(112) %os34)
          to label %invoke.cont48 unwind label %lpad38

invoke.cont48:                                    ; preds = %invoke.cont43
  invoke void @_ZNKSt7__cxx1119basic_ostringstreamIcSt11char_traitsIcESaIcEE3strEv(ptr sret(%"class.std::__cxx11::basic_string") align 8 %ref.tmp49, ptr noundef nonnull align 8 dereferenceable(112) %ref35)
          to label %invoke.cont51 unwind label %lpad50

invoke.cont51:                                    ; preds = %invoke.cont48
  %call52 = call noundef zeroext i1 @_ZSteqIcEN9__gnu_cxx11__enable_ifIXsr9__is_charIT_EE7__valueEbE6__typeERKNSt7__cxx1112basic_stringIS2_St11char_traitsIS2_ESaIS2_EEESC_(ptr noundef nonnull align 8 dereferenceable(32) %ref.tmp47, ptr noundef nonnull align 8 dereferenceable(32) %ref.tmp49) #3
  %frombool53 = zext i1 %call52 to i8
  store i8 %frombool53, ptr %ref.tmp46, align 1
  invoke void @_ZN7testing15AssertionResultC2IbEERKT_PNSt9enable_ifIXntsr3std14is_convertibleIS2_S0_EE5valueEvE4typeE(ptr noundef nonnull align 8 dereferenceable(16) %gtest_ar_45, ptr noundef nonnull align 1 dereferenceable(1) %ref.tmp46, ptr noundef null)
          to label %invoke.cont55 unwind label %lpad54

invoke.cont55:                                    ; preds = %invoke.cont51
  call void @_ZNSt7__cxx1112basic_stringIcSt11char_traitsIcESaIcEED1Ev(ptr noundef nonnull align 8 dereferenceable(32) %ref.tmp49) #3
  call void @_ZNSt7__cxx1112basic_stringIcSt11char_traitsIcESaIcEED1Ev(ptr noundef nonnull align 8 dereferenceable(32) %ref.tmp47) #3
  %call58 = call noundef zeroext i1 @_ZNK7testing15AssertionResultcvbEv(ptr noundef nonnull align 8 dereferenceable(16) %gtest_ar_45)
  br i1 %call58, label %if.then59, label %if.else60

if.then59:                                        ; preds = %invoke.cont55
  br label %if.end76

ehcleanup31:                                      ; preds = %ehcleanup30, %lpad17
  call void @_ZN7testing15AssertionResultD2Ev(ptr noundef nonnull align 8 dereferenceable(16) %gtest_ar_) #3
  br label %ehcleanup32

ehcleanup32:                                      ; preds = %ehcleanup31, %ehcleanup, %lpad1
  call void @_ZNSt7__cxx1119basic_ostringstreamIcSt11char_traitsIcESaIcEED1Ev(ptr noundef nonnull align 8 dereferenceable(112) %ref) #3
  br label %ehcleanup33

ehcleanup33:                                      ; preds = %ehcleanup32, %lpad
  call void @_ZNSt7__cxx1119basic_ostringstreamIcSt11char_traitsIcESaIcEED1Ev(ptr noundef nonnull align 8 dereferenceable(112) %os) #3
  br label %eh.resume

lpad36:                                           ; preds = %if.end
  %26 = landingpad { ptr, i32 }
          cleanup
  %27 = extractvalue { ptr, i32 } %26, 0
  store ptr %27, ptr %exn.slot, align 8
  %28 = extractvalue { ptr, i32 } %26, 1
  store i32 %28, ptr %ehselector.slot, align 4
  br label %ehcleanup79

lpad38:                                           ; preds = %invoke.cont43, %invoke.cont41, %invoke.cont39, %invoke.cont37
  %29 = landingpad { ptr, i32 }
          cleanup
  %30 = extractvalue { ptr, i32 } %29, 0
  store ptr %30, ptr %exn.slot, align 8
  %31 = extractvalue { ptr, i32 } %29, 1
  store i32 %31, ptr %ehselector.slot, align 4
  br label %ehcleanup78

lpad50:                                           ; preds = %invoke.cont48
  %32 = landingpad { ptr, i32 }
          cleanup
  %33 = extractvalue { ptr, i32 } %32, 0
  store ptr %33, ptr %exn.slot, align 8
  %34 = extractvalue { ptr, i32 } %32, 1
  store i32 %34, ptr %ehselector.slot, align 4
  br label %ehcleanup57

lpad54:                                           ; preds = %invoke.cont51
  %35 = landingpad { ptr, i32 }
          cleanup
  %36 = extractvalue { ptr, i32 } %35, 0
  store ptr %36, ptr %exn.slot, align 8
  %37 = extractvalue { ptr, i32 } %35, 1
  store i32 %37, ptr %ehselector.slot, align 4
  call void @_ZNSt7__cxx1112basic_stringIcSt11char_traitsIcESaIcEED1Ev(ptr noundef nonnull align 8 dereferenceable(32) %ref.tmp49) #3
  br label %ehcleanup57

ehcleanup57:                                      ; preds = %lpad54, %lpad50
  call void @_ZNSt7__cxx1112basic_stringIcSt11char_traitsIcESaIcEED1Ev(ptr noundef nonnull align 8 dereferenceable(32) %ref.tmp47) #3
  br label %ehcleanup78

if.else60:                                        ; preds = %invoke.cont55
  invoke void @_ZN7testing7MessageC1Ev(ptr noundef nonnull align 8 dereferenceable(8) %ref.tmp61)
          to label %invoke.cont63 unwind label %lpad62

invoke.cont63:                                    ; preds = %if.else60
  invoke void @_ZN7testing8internal30GetBoolAssertionFailureMessageB5cxx11ERKNS_15AssertionResultEPKcS5_S5_(ptr sret(%"class.std::__cxx11::basic_string") align 8 %ref.tmp65, ptr noundef nonnull align 8 dereferenceable(16) %gtest_ar_45, ptr noundef @.str.106, ptr noundef @.str.5, ptr noundef @.str.6)
          to label %invoke.cont67 unwind label %lpad66

invoke.cont67:                                    ; preds = %invoke.cont63
  %call68 = call noundef ptr @_ZNKSt7__cxx1112basic_stringIcSt11char_traitsIcESaIcEE5c_strEv(ptr noundef nonnull align 8 dereferenceable(32) %ref.tmp65) #3
  invoke void @_ZN7testing8internal12AssertHelperC1ENS_14TestPartResult4TypeEPKciS5_(ptr noundef nonnull align 8 dereferenceable(8) %ref.tmp64, i32 noundef 1, ptr noundef @.str.3, i32 noundef 256, ptr noundef %call68)
          to label %invoke.cont70 unwind label %lpad69

invoke.cont70:                                    ; preds = %invoke.cont67
  invoke void @_ZNK7testing8internal12AssertHelperaSERKNS_7MessageE(ptr noundef nonnull align 8 dereferenceable(8) %ref.tmp64, ptr noundef nonnull align 8 dereferenceable(8) %ref.tmp61)
          to label %invoke.cont72 unwind label %lpad71

invoke.cont72:                                    ; preds = %invoke.cont70
  call void @_ZN7testing8internal12AssertHelperD1Ev(ptr noundef nonnull align 8 dereferenceable(8) %ref.tmp64) #3
  call void @_ZNSt7__cxx1112basic_stringIcSt11char_traitsIcESaIcEED1Ev(ptr noundef nonnull align 8 dereferenceable(32) %ref.tmp65) #3
  call void @_ZN7testing7MessageD2Ev(ptr noundef nonnull align 8 dereferenceable(8) %ref.tmp61) #3
  br label %if.end76

lpad62:                                           ; preds = %if.else60
  %38 = landingpad { ptr, i32 }
          cleanup
  %39 = extractvalue { ptr, i32 } %38, 0
  store ptr %39, ptr %exn.slot, align 8
  %40 = extractvalue { ptr, i32 } %38, 1
  store i32 %40, ptr %ehselector.slot, align 4
  br label %ehcleanup77

lpad66:                                           ; preds = %invoke.cont63
  %41 = landingpad { ptr, i32 }
          cleanup
  %42 = extractvalue { ptr, i32 } %41, 0
  store ptr %42, ptr %exn.slot, align 8
  %43 = extractvalue { ptr, i32 } %41, 1
  store i32 %43, ptr %ehselector.slot, align 4
  br label %ehcleanup75

lpad69:                                           ; preds = %invoke.cont67
  %44 = landingpad { ptr, i32 }
          cleanup
  %45 = extractvalue { ptr, i32 } %44, 0
  store ptr %45, ptr %exn.slot, align 8
  %46 = extractvalue { ptr, i32 } %44, 1
  store i32 %46, ptr %ehselector.slot, align 4
  br label %ehcleanup74

lpad71:                                           ; preds = %invoke.cont70
  %47 = landingpad { ptr, i32 }
          cleanup
  %48 = extractvalue { ptr, i32 } %47, 0
  store ptr %48, ptr %exn.slot, align 8
  %49 = extractvalue { ptr, i32 } %47, 1
  store i32 %49, ptr %ehselector.slot, align 4
  call void @_ZN7testing8internal12AssertHelperD1Ev(ptr noundef nonnull align 8 dereferenceable(8) %ref.tmp64) #3
  br label %ehcleanup74

ehcleanup74:                                      ; preds = %lpad71, %lpad69
  call void @_ZNSt7__cxx1112basic_stringIcSt11char_traitsIcESaIcEED1Ev(ptr noundef nonnull align 8 dereferenceable(32) %ref.tmp65) #3
  br label %ehcleanup75

ehcleanup75:                                      ; preds = %ehcleanup74, %lpad66
  call void @_ZN7testing7MessageD2Ev(ptr noundef nonnull align 8 dereferenceable(8) %ref.tmp61) #3
  br label %ehcleanup77

if.end76:                                         ; preds = %invoke.cont72, %if.then59
  call void @_ZN7testing15AssertionResultD2Ev(ptr noundef nonnull align 8 dereferenceable(16) %gtest_ar_45) #3
  call void @_ZNSt7__cxx1119basic_ostringstreamIcSt11char_traitsIcESaIcEED1Ev(ptr noundef nonnull align 8 dereferenceable(112) %ref35) #3
  call void @_ZNSt7__cxx1119basic_ostringstreamIcSt11char_traitsIcESaIcEED1Ev(ptr noundef nonnull align 8 dereferenceable(112) %os34) #3
  ret void

ehcleanup77:                                      ; preds = %ehcleanup75, %lpad62
  call void @_ZN7testing15AssertionResultD2Ev(ptr noundef nonnull align 8 dereferenceable(16) %gtest_ar_45) #3
  br label %ehcleanup78

ehcleanup78:                                      ; preds = %ehcleanup77, %ehcleanup57, %lpad38
  call void @_ZNSt7__cxx1119basic_ostringstreamIcSt11char_traitsIcESaIcEED1Ev(ptr noundef nonnull align 8 dereferenceable(112) %ref35) #3
  br label %ehcleanup79

ehcleanup79:                                      ; preds = %ehcleanup78, %lpad36
  call void @_ZNSt7__cxx1119basic_ostringstreamIcSt11char_traitsIcESaIcEED1Ev(ptr noundef nonnull align 8 dereferenceable(112) %os34) #3
  br label %eh.resume

eh.resume:                                        ; preds = %ehcleanup79, %ehcleanup33
  %exn = load ptr, ptr %exn.slot, align 8
  %sel = load i32, ptr %ehselector.slot, align 4
  %lpad.val = insertvalue { ptr, i32 } poison, ptr %exn, 0
  %lpad.val80 = insertvalue { ptr, i32 } %lpad.val, i32 %sel, 1
  resume { ptr, i32 } %lpad.val80
}

; Function Attrs: mustprogress uwtable
define linkonce_odr dso_local void @_Z14ostream_helperItEvT_(i16 noundef zeroext %v) #4 comdat personality ptr @__gxx_personality_v0 {
entry:
  %v.addr = alloca i16, align 2
  %p = alloca %"class.gsl::not_null.93", align 8
  %os = alloca %"class.std::__cxx11::basic_ostringstream", align 8
  %ref = alloca %"class.std::__cxx11::basic_ostringstream", align 8
  %exn.slot = alloca ptr, align 8
  %ehselector.slot = alloca i32, align 4
  %gtest_ar_ = alloca %"class.testing::AssertionResult", align 8
  %ref.tmp = alloca i8, align 1
  %ref.tmp7 = alloca %"class.std::__cxx11::basic_string", align 8
  %ref.tmp9 = alloca %"class.std::__cxx11::basic_string", align 8
  %ref.tmp16 = alloca %"class.testing::Message", align 8
  %ref.tmp19 = alloca %"class.testing::internal::AssertHelper", align 8
  %ref.tmp20 = alloca %"class.std::__cxx11::basic_string", align 8
  %os34 = alloca %"class.std::__cxx11::basic_ostringstream", align 8
  %ref35 = alloca %"class.std::__cxx11::basic_ostringstream", align 8
  %gtest_ar_45 = alloca %"class.testing::AssertionResult", align 8
  %ref.tmp46 = alloca i8, align 1
  %ref.tmp47 = alloca %"class.std::__cxx11::basic_string", align 8
  %ref.tmp49 = alloca %"class.std::__cxx11::basic_string", align 8
  %ref.tmp61 = alloca %"class.testing::Message", align 8
  %ref.tmp64 = alloca %"class.testing::internal::AssertHelper", align 8
  %ref.tmp65 = alloca %"class.std::__cxx11::basic_string", align 8
  store i16 %v, ptr %v.addr, align 2
  call void @_ZN3gsl8not_nullIPtEC2IvEES1_(ptr noundef nonnull align 8 dereferenceable(8) %p, ptr noundef %v.addr) #3
  call void @_ZNSt7__cxx1119basic_ostringstreamIcSt11char_traitsIcESaIcEEC1Ev(ptr noundef nonnull align 8 dereferenceable(112) %os)
  invoke void @_ZNSt7__cxx1119basic_ostringstreamIcSt11char_traitsIcESaIcEEC1Ev(ptr noundef nonnull align 8 dereferenceable(112) %ref)
          to label %invoke.cont unwind label %lpad

invoke.cont:                                      ; preds = %entry
  %call = invoke noundef ptr @_ZNK3gsl8not_nullIPtEcvS1_Ev(ptr noundef nonnull align 8 dereferenceable(8) %p)
          to label %invoke.cont2 unwind label %lpad1

invoke.cont2:                                     ; preds = %invoke.cont
  %call4 = invoke noundef nonnull align 8 dereferenceable(8) ptr @_ZNSolsEPKv(ptr noundef nonnull align 8 dereferenceable(8) %os, ptr noundef %call)
          to label %invoke.cont3 unwind label %lpad1

invoke.cont3:                                     ; preds = %invoke.cont2
  %call6 = invoke noundef nonnull align 8 dereferenceable(8) ptr @_ZNSolsEPKv(ptr noundef nonnull align 8 dereferenceable(8) %ref, ptr noundef %v.addr)
          to label %invoke.cont5 unwind label %lpad1

invoke.cont5:                                     ; preds = %invoke.cont3
  invoke void @_ZNKSt7__cxx1119basic_ostringstreamIcSt11char_traitsIcESaIcEE3strEv(ptr sret(%"class.std::__cxx11::basic_string") align 8 %ref.tmp7, ptr noundef nonnull align 8 dereferenceable(112) %os)
          to label %invoke.cont8 unwind label %lpad1

invoke.cont8:                                     ; preds = %invoke.cont5
  invoke void @_ZNKSt7__cxx1119basic_ostringstreamIcSt11char_traitsIcESaIcEE3strEv(ptr sret(%"class.std::__cxx11::basic_string") align 8 %ref.tmp9, ptr noundef nonnull align 8 dereferenceable(112) %ref)
          to label %invoke.cont11 unwind label %lpad10

invoke.cont11:                                    ; preds = %invoke.cont8
  %call12 = call noundef zeroext i1 @_ZSteqIcEN9__gnu_cxx11__enable_ifIXsr9__is_charIT_EE7__valueEbE6__typeERKNSt7__cxx1112basic_stringIS2_St11char_traitsIS2_ESaIS2_EEESC_(ptr noundef nonnull align 8 dereferenceable(32) %ref.tmp7, ptr noundef nonnull align 8 dereferenceable(32) %ref.tmp9) #3
  %frombool = zext i1 %call12 to i8
  store i8 %frombool, ptr %ref.tmp, align 1
  invoke void @_ZN7testing15AssertionResultC2IbEERKT_PNSt9enable_ifIXntsr3std14is_convertibleIS2_S0_EE5valueEvE4typeE(ptr noundef nonnull align 8 dereferenceable(16) %gtest_ar_, ptr noundef nonnull align 1 dereferenceable(1) %ref.tmp, ptr noundef null)
          to label %invoke.cont14 unwind label %lpad13

invoke.cont14:                                    ; preds = %invoke.cont11
  call void @_ZNSt7__cxx1112basic_stringIcSt11char_traitsIcESaIcEED1Ev(ptr noundef nonnull align 8 dereferenceable(32) %ref.tmp9) #3
  call void @_ZNSt7__cxx1112basic_stringIcSt11char_traitsIcESaIcEED1Ev(ptr noundef nonnull align 8 dereferenceable(32) %ref.tmp7) #3
  %call15 = call noundef zeroext i1 @_ZNK7testing15AssertionResultcvbEv(ptr noundef nonnull align 8 dereferenceable(16) %gtest_ar_)
  br i1 %call15, label %if.then, label %if.else

if.then:                                          ; preds = %invoke.cont14
  br label %if.end

lpad:                                             ; preds = %entry
  %0 = landingpad { ptr, i32 }
          cleanup
  %1 = extractvalue { ptr, i32 } %0, 0
  store ptr %1, ptr %exn.slot, align 8
  %2 = extractvalue { ptr, i32 } %0, 1
  store i32 %2, ptr %ehselector.slot, align 4
  br label %ehcleanup33

lpad1:                                            ; preds = %invoke.cont5, %invoke.cont3, %invoke.cont2, %invoke.cont
  %3 = landingpad { ptr, i32 }
          cleanup
  %4 = extractvalue { ptr, i32 } %3, 0
  store ptr %4, ptr %exn.slot, align 8
  %5 = extractvalue { ptr, i32 } %3, 1
  store i32 %5, ptr %ehselector.slot, align 4
  br label %ehcleanup32

lpad10:                                           ; preds = %invoke.cont8
  %6 = landingpad { ptr, i32 }
          cleanup
  %7 = extractvalue { ptr, i32 } %6, 0
  store ptr %7, ptr %exn.slot, align 8
  %8 = extractvalue { ptr, i32 } %6, 1
  store i32 %8, ptr %ehselector.slot, align 4
  br label %ehcleanup

lpad13:                                           ; preds = %invoke.cont11
  %9 = landingpad { ptr, i32 }
          cleanup
  %10 = extractvalue { ptr, i32 } %9, 0
  store ptr %10, ptr %exn.slot, align 8
  %11 = extractvalue { ptr, i32 } %9, 1
  store i32 %11, ptr %ehselector.slot, align 4
  call void @_ZNSt7__cxx1112basic_stringIcSt11char_traitsIcESaIcEED1Ev(ptr noundef nonnull align 8 dereferenceable(32) %ref.tmp9) #3
  br label %ehcleanup

ehcleanup:                                        ; preds = %lpad13, %lpad10
  call void @_ZNSt7__cxx1112basic_stringIcSt11char_traitsIcESaIcEED1Ev(ptr noundef nonnull align 8 dereferenceable(32) %ref.tmp7) #3
  br label %ehcleanup32

if.else:                                          ; preds = %invoke.cont14
  invoke void @_ZN7testing7MessageC1Ev(ptr noundef nonnull align 8 dereferenceable(8) %ref.tmp16)
          to label %invoke.cont18 unwind label %lpad17

invoke.cont18:                                    ; preds = %if.else
  invoke void @_ZN7testing8internal30GetBoolAssertionFailureMessageB5cxx11ERKNS_15AssertionResultEPKcS5_S5_(ptr sret(%"class.std::__cxx11::basic_string") align 8 %ref.tmp20, ptr noundef nonnull align 8 dereferenceable(16) %gtest_ar_, ptr noundef @.str.106, ptr noundef @.str.5, ptr noundef @.str.6)
          to label %invoke.cont22 unwind label %lpad21

invoke.cont22:                                    ; preds = %invoke.cont18
  %call23 = call noundef ptr @_ZNKSt7__cxx1112basic_stringIcSt11char_traitsIcESaIcEE5c_strEv(ptr noundef nonnull align 8 dereferenceable(32) %ref.tmp20) #3
  invoke void @_ZN7testing8internal12AssertHelperC1ENS_14TestPartResult4TypeEPKciS5_(ptr noundef nonnull align 8 dereferenceable(8) %ref.tmp19, i32 noundef 1, ptr noundef @.str.3, i32 noundef 249, ptr noundef %call23)
          to label %invoke.cont25 unwind label %lpad24

invoke.cont25:                                    ; preds = %invoke.cont22
  invoke void @_ZNK7testing8internal12AssertHelperaSERKNS_7MessageE(ptr noundef nonnull align 8 dereferenceable(8) %ref.tmp19, ptr noundef nonnull align 8 dereferenceable(8) %ref.tmp16)
          to label %invoke.cont27 unwind label %lpad26

invoke.cont27:                                    ; preds = %invoke.cont25
  call void @_ZN7testing8internal12AssertHelperD1Ev(ptr noundef nonnull align 8 dereferenceable(8) %ref.tmp19) #3
  call void @_ZNSt7__cxx1112basic_stringIcSt11char_traitsIcESaIcEED1Ev(ptr noundef nonnull align 8 dereferenceable(32) %ref.tmp20) #3
  call void @_ZN7testing7MessageD2Ev(ptr noundef nonnull align 8 dereferenceable(8) %ref.tmp16) #3
  br label %if.end

lpad17:                                           ; preds = %if.else
  %12 = landingpad { ptr, i32 }
          cleanup
  %13 = extractvalue { ptr, i32 } %12, 0
  store ptr %13, ptr %exn.slot, align 8
  %14 = extractvalue { ptr, i32 } %12, 1
  store i32 %14, ptr %ehselector.slot, align 4
  br label %ehcleanup31

lpad21:                                           ; preds = %invoke.cont18
  %15 = landingpad { ptr, i32 }
          cleanup
  %16 = extractvalue { ptr, i32 } %15, 0
  store ptr %16, ptr %exn.slot, align 8
  %17 = extractvalue { ptr, i32 } %15, 1
  store i32 %17, ptr %ehselector.slot, align 4
  br label %ehcleanup30

lpad24:                                           ; preds = %invoke.cont22
  %18 = landingpad { ptr, i32 }
          cleanup
  %19 = extractvalue { ptr, i32 } %18, 0
  store ptr %19, ptr %exn.slot, align 8
  %20 = extractvalue { ptr, i32 } %18, 1
  store i32 %20, ptr %ehselector.slot, align 4
  br label %ehcleanup29

lpad26:                                           ; preds = %invoke.cont25
  %21 = landingpad { ptr, i32 }
          cleanup
  %22 = extractvalue { ptr, i32 } %21, 0
  store ptr %22, ptr %exn.slot, align 8
  %23 = extractvalue { ptr, i32 } %21, 1
  store i32 %23, ptr %ehselector.slot, align 4
  call void @_ZN7testing8internal12AssertHelperD1Ev(ptr noundef nonnull align 8 dereferenceable(8) %ref.tmp19) #3
  br label %ehcleanup29

ehcleanup29:                                      ; preds = %lpad26, %lpad24
  call void @_ZNSt7__cxx1112basic_stringIcSt11char_traitsIcESaIcEED1Ev(ptr noundef nonnull align 8 dereferenceable(32) %ref.tmp20) #3
  br label %ehcleanup30

ehcleanup30:                                      ; preds = %ehcleanup29, %lpad21
  call void @_ZN7testing7MessageD2Ev(ptr noundef nonnull align 8 dereferenceable(8) %ref.tmp16) #3
  br label %ehcleanup31

if.end:                                           ; preds = %invoke.cont27, %if.then
  call void @_ZN7testing15AssertionResultD2Ev(ptr noundef nonnull align 8 dereferenceable(16) %gtest_ar_) #3
  call void @_ZNSt7__cxx1119basic_ostringstreamIcSt11char_traitsIcESaIcEED1Ev(ptr noundef nonnull align 8 dereferenceable(112) %ref) #3
  call void @_ZNSt7__cxx1119basic_ostringstreamIcSt11char_traitsIcESaIcEED1Ev(ptr noundef nonnull align 8 dereferenceable(112) %os) #3
  call void @_ZNSt7__cxx1119basic_ostringstreamIcSt11char_traitsIcESaIcEEC1Ev(ptr noundef nonnull align 8 dereferenceable(112) %os34)
  invoke void @_ZNSt7__cxx1119basic_ostringstreamIcSt11char_traitsIcESaIcEEC1Ev(ptr noundef nonnull align 8 dereferenceable(112) %ref35)
          to label %invoke.cont37 unwind label %lpad36

invoke.cont37:                                    ; preds = %if.end
  %call40 = invoke noundef nonnull align 2 dereferenceable(2) ptr @_ZNK3gsl8not_nullIPtEdeEv(ptr noundef nonnull align 8 dereferenceable(8) %p)
          to label %invoke.cont39 unwind label %lpad38

invoke.cont39:                                    ; preds = %invoke.cont37
  %24 = load i16, ptr %call40, align 2
  %call42 = invoke noundef nonnull align 8 dereferenceable(8) ptr @_ZNSolsEt(ptr noundef nonnull align 8 dereferenceable(8) %os34, i16 noundef zeroext %24)
          to label %invoke.cont41 unwind label %lpad38

invoke.cont41:                                    ; preds = %invoke.cont39
  %25 = load i16, ptr %v.addr, align 2
  %call44 = invoke noundef nonnull align 8 dereferenceable(8) ptr @_ZNSolsEt(ptr noundef nonnull align 8 dereferenceable(8) %ref35, i16 noundef zeroext %25)
          to label %invoke.cont43 unwind label %lpad38

invoke.cont43:                                    ; preds = %invoke.cont41
  invoke void @_ZNKSt7__cxx1119basic_ostringstreamIcSt11char_traitsIcESaIcEE3strEv(ptr sret(%"class.std::__cxx11::basic_string") align 8 %ref.tmp47, ptr noundef nonnull align 8 dereferenceable(112) %os34)
          to label %invoke.cont48 unwind label %lpad38

invoke.cont48:                                    ; preds = %invoke.cont43
  invoke void @_ZNKSt7__cxx1119basic_ostringstreamIcSt11char_traitsIcESaIcEE3strEv(ptr sret(%"class.std::__cxx11::basic_string") align 8 %ref.tmp49, ptr noundef nonnull align 8 dereferenceable(112) %ref35)
          to label %invoke.cont51 unwind label %lpad50

invoke.cont51:                                    ; preds = %invoke.cont48
  %call52 = call noundef zeroext i1 @_ZSteqIcEN9__gnu_cxx11__enable_ifIXsr9__is_charIT_EE7__valueEbE6__typeERKNSt7__cxx1112basic_stringIS2_St11char_traitsIS2_ESaIS2_EEESC_(ptr noundef nonnull align 8 dereferenceable(32) %ref.tmp47, ptr noundef nonnull align 8 dereferenceable(32) %ref.tmp49) #3
  %frombool53 = zext i1 %call52 to i8
  store i8 %frombool53, ptr %ref.tmp46, align 1
  invoke void @_ZN7testing15AssertionResultC2IbEERKT_PNSt9enable_ifIXntsr3std14is_convertibleIS2_S0_EE5valueEvE4typeE(ptr noundef nonnull align 8 dereferenceable(16) %gtest_ar_45, ptr noundef nonnull align 1 dereferenceable(1) %ref.tmp46, ptr noundef null)
          to label %invoke.cont55 unwind label %lpad54

invoke.cont55:                                    ; preds = %invoke.cont51
  call void @_ZNSt7__cxx1112basic_stringIcSt11char_traitsIcESaIcEED1Ev(ptr noundef nonnull align 8 dereferenceable(32) %ref.tmp49) #3
  call void @_ZNSt7__cxx1112basic_stringIcSt11char_traitsIcESaIcEED1Ev(ptr noundef nonnull align 8 dereferenceable(32) %ref.tmp47) #3
  %call58 = call noundef zeroext i1 @_ZNK7testing15AssertionResultcvbEv(ptr noundef nonnull align 8 dereferenceable(16) %gtest_ar_45)
  br i1 %call58, label %if.then59, label %if.else60

if.then59:                                        ; preds = %invoke.cont55
  br label %if.end76

ehcleanup31:                                      ; preds = %ehcleanup30, %lpad17
  call void @_ZN7testing15AssertionResultD2Ev(ptr noundef nonnull align 8 dereferenceable(16) %gtest_ar_) #3
  br label %ehcleanup32

ehcleanup32:                                      ; preds = %ehcleanup31, %ehcleanup, %lpad1
  call void @_ZNSt7__cxx1119basic_ostringstreamIcSt11char_traitsIcESaIcEED1Ev(ptr noundef nonnull align 8 dereferenceable(112) %ref) #3
  br label %ehcleanup33

ehcleanup33:                                      ; preds = %ehcleanup32, %lpad
  call void @_ZNSt7__cxx1119basic_ostringstreamIcSt11char_traitsIcESaIcEED1Ev(ptr noundef nonnull align 8 dereferenceable(112) %os) #3
  br label %eh.resume

lpad36:                                           ; preds = %if.end
  %26 = landingpad { ptr, i32 }
          cleanup
  %27 = extractvalue { ptr, i32 } %26, 0
  store ptr %27, ptr %exn.slot, align 8
  %28 = extractvalue { ptr, i32 } %26, 1
  store i32 %28, ptr %ehselector.slot, align 4
  br label %ehcleanup79

lpad38:                                           ; preds = %invoke.cont43, %invoke.cont41, %invoke.cont39, %invoke.cont37
  %29 = landingpad { ptr, i32 }
          cleanup
  %30 = extractvalue { ptr, i32 } %29, 0
  store ptr %30, ptr %exn.slot, align 8
  %31 = extractvalue { ptr, i32 } %29, 1
  store i32 %31, ptr %ehselector.slot, align 4
  br label %ehcleanup78

lpad50:                                           ; preds = %invoke.cont48
  %32 = landingpad { ptr, i32 }
          cleanup
  %33 = extractvalue { ptr, i32 } %32, 0
  store ptr %33, ptr %exn.slot, align 8
  %34 = extractvalue { ptr, i32 } %32, 1
  store i32 %34, ptr %ehselector.slot, align 4
  br label %ehcleanup57

lpad54:                                           ; preds = %invoke.cont51
  %35 = landingpad { ptr, i32 }
          cleanup
  %36 = extractvalue { ptr, i32 } %35, 0
  store ptr %36, ptr %exn.slot, align 8
  %37 = extractvalue { ptr, i32 } %35, 1
  store i32 %37, ptr %ehselector.slot, align 4
  call void @_ZNSt7__cxx1112basic_stringIcSt11char_traitsIcESaIcEED1Ev(ptr noundef nonnull align 8 dereferenceable(32) %ref.tmp49) #3
  br label %ehcleanup57

ehcleanup57:                                      ; preds = %lpad54, %lpad50
  call void @_ZNSt7__cxx1112basic_stringIcSt11char_traitsIcESaIcEED1Ev(ptr noundef nonnull align 8 dereferenceable(32) %ref.tmp47) #3
  br label %ehcleanup78

if.else60:                                        ; preds = %invoke.cont55
  invoke void @_ZN7testing7MessageC1Ev(ptr noundef nonnull align 8 dereferenceable(8) %ref.tmp61)
          to label %invoke.cont63 unwind label %lpad62

invoke.cont63:                                    ; preds = %if.else60
  invoke void @_ZN7testing8internal30GetBoolAssertionFailureMessageB5cxx11ERKNS_15AssertionResultEPKcS5_S5_(ptr sret(%"class.std::__cxx11::basic_string") align 8 %ref.tmp65, ptr noundef nonnull align 8 dereferenceable(16) %gtest_ar_45, ptr noundef @.str.106, ptr noundef @.str.5, ptr noundef @.str.6)
          to label %invoke.cont67 unwind label %lpad66

invoke.cont67:                                    ; preds = %invoke.cont63
  %call68 = call noundef ptr @_ZNKSt7__cxx1112basic_stringIcSt11char_traitsIcESaIcEE5c_strEv(ptr noundef nonnull align 8 dereferenceable(32) %ref.tmp65) #3
  invoke void @_ZN7testing8internal12AssertHelperC1ENS_14TestPartResult4TypeEPKciS5_(ptr noundef nonnull align 8 dereferenceable(8) %ref.tmp64, i32 noundef 1, ptr noundef @.str.3, i32 noundef 256, ptr noundef %call68)
          to label %invoke.cont70 unwind label %lpad69

invoke.cont70:                                    ; preds = %invoke.cont67
  invoke void @_ZNK7testing8internal12AssertHelperaSERKNS_7MessageE(ptr noundef nonnull align 8 dereferenceable(8) %ref.tmp64, ptr noundef nonnull align 8 dereferenceable(8) %ref.tmp61)
          to label %invoke.cont72 unwind label %lpad71

invoke.cont72:                                    ; preds = %invoke.cont70
  call void @_ZN7testing8internal12AssertHelperD1Ev(ptr noundef nonnull align 8 dereferenceable(8) %ref.tmp64) #3
  call void @_ZNSt7__cxx1112basic_stringIcSt11char_traitsIcESaIcEED1Ev(ptr noundef nonnull align 8 dereferenceable(32) %ref.tmp65) #3
  call void @_ZN7testing7MessageD2Ev(ptr noundef nonnull align 8 dereferenceable(8) %ref.tmp61) #3
  br label %if.end76

lpad62:                                           ; preds = %if.else60
  %38 = landingpad { ptr, i32 }
          cleanup
  %39 = extractvalue { ptr, i32 } %38, 0
  store ptr %39, ptr %exn.slot, align 8
  %40 = extractvalue { ptr, i32 } %38, 1
  store i32 %40, ptr %ehselector.slot, align 4
  br label %ehcleanup77

lpad66:                                           ; preds = %invoke.cont63
  %41 = landingpad { ptr, i32 }
          cleanup
  %42 = extractvalue { ptr, i32 } %41, 0
  store ptr %42, ptr %exn.slot, align 8
  %43 = extractvalue { ptr, i32 } %41, 1
  store i32 %43, ptr %ehselector.slot, align 4
  br label %ehcleanup75

lpad69:                                           ; preds = %invoke.cont67
  %44 = landingpad { ptr, i32 }
          cleanup
  %45 = extractvalue { ptr, i32 } %44, 0
  store ptr %45, ptr %exn.slot, align 8
  %46 = extractvalue { ptr, i32 } %44, 1
  store i32 %46, ptr %ehselector.slot, align 4
  br label %ehcleanup74

lpad71:                                           ; preds = %invoke.cont70
  %47 = landingpad { ptr, i32 }
          cleanup
  %48 = extractvalue { ptr, i32 } %47, 0
  store ptr %48, ptr %exn.slot, align 8
  %49 = extractvalue { ptr, i32 } %47, 1
  store i32 %49, ptr %ehselector.slot, align 4
  call void @_ZN7testing8internal12AssertHelperD1Ev(ptr noundef nonnull align 8 dereferenceable(8) %ref.tmp64) #3
  br label %ehcleanup74

ehcleanup74:                                      ; preds = %lpad71, %lpad69
  call void @_ZNSt7__cxx1112basic_stringIcSt11char_traitsIcESaIcEED1Ev(ptr noundef nonnull align 8 dereferenceable(32) %ref.tmp65) #3
  br label %ehcleanup75

ehcleanup75:                                      ; preds = %ehcleanup74, %lpad66
  call void @_ZN7testing7MessageD2Ev(ptr noundef nonnull align 8 dereferenceable(8) %ref.tmp61) #3
  br label %ehcleanup77

if.end76:                                         ; preds = %invoke.cont72, %if.then59
  call void @_ZN7testing15AssertionResultD2Ev(ptr noundef nonnull align 8 dereferenceable(16) %gtest_ar_45) #3
  call void @_ZNSt7__cxx1119basic_ostringstreamIcSt11char_traitsIcESaIcEED1Ev(ptr noundef nonnull align 8 dereferenceable(112) %ref35) #3
  call void @_ZNSt7__cxx1119basic_ostringstreamIcSt11char_traitsIcESaIcEED1Ev(ptr noundef nonnull align 8 dereferenceable(112) %os34) #3
  ret void

ehcleanup77:                                      ; preds = %ehcleanup75, %lpad62
  call void @_ZN7testing15AssertionResultD2Ev(ptr noundef nonnull align 8 dereferenceable(16) %gtest_ar_45) #3
  br label %ehcleanup78

ehcleanup78:                                      ; preds = %ehcleanup77, %ehcleanup57, %lpad38
  call void @_ZNSt7__cxx1119basic_ostringstreamIcSt11char_traitsIcESaIcEED1Ev(ptr noundef nonnull align 8 dereferenceable(112) %ref35) #3
  br label %ehcleanup79

ehcleanup79:                                      ; preds = %ehcleanup78, %lpad36
  call void @_ZNSt7__cxx1119basic_ostringstreamIcSt11char_traitsIcESaIcEED1Ev(ptr noundef nonnull align 8 dereferenceable(112) %os34) #3
  br label %eh.resume

eh.resume:                                        ; preds = %ehcleanup79, %ehcleanup33
  %exn = load ptr, ptr %exn.slot, align 8
  %sel = load i32, ptr %ehselector.slot, align 4
  %lpad.val = insertvalue { ptr, i32 } poison, ptr %exn, 0
  %lpad.val80 = insertvalue { ptr, i32 } %lpad.val, i32 %sel, 1
  resume { ptr, i32 } %lpad.val80
}

; Function Attrs: mustprogress uwtable
define linkonce_odr dso_local void @_Z14ostream_helperIPKcEvT_(ptr noundef %v) #4 comdat personality ptr @__gxx_personality_v0 {
entry:
  %v.addr = alloca ptr, align 8
  %p = alloca %"class.gsl::not_null.94", align 8
  %os = alloca %"class.std::__cxx11::basic_ostringstream", align 8
  %ref = alloca %"class.std::__cxx11::basic_ostringstream", align 8
  %exn.slot = alloca ptr, align 8
  %ehselector.slot = alloca i32, align 4
  %gtest_ar_ = alloca %"class.testing::AssertionResult", align 8
  %ref.tmp = alloca i8, align 1
  %ref.tmp7 = alloca %"class.std::__cxx11::basic_string", align 8
  %ref.tmp9 = alloca %"class.std::__cxx11::basic_string", align 8
  %ref.tmp16 = alloca %"class.testing::Message", align 8
  %ref.tmp19 = alloca %"class.testing::internal::AssertHelper", align 8
  %ref.tmp20 = alloca %"class.std::__cxx11::basic_string", align 8
  %os34 = alloca %"class.std::__cxx11::basic_ostringstream", align 8
  %ref35 = alloca %"class.std::__cxx11::basic_ostringstream", align 8
  %gtest_ar_45 = alloca %"class.testing::AssertionResult", align 8
  %ref.tmp46 = alloca i8, align 1
  %ref.tmp47 = alloca %"class.std::__cxx11::basic_string", align 8
  %ref.tmp49 = alloca %"class.std::__cxx11::basic_string", align 8
  %ref.tmp61 = alloca %"class.testing::Message", align 8
  %ref.tmp64 = alloca %"class.testing::internal::AssertHelper", align 8
  %ref.tmp65 = alloca %"class.std::__cxx11::basic_string", align 8
  store ptr %v, ptr %v.addr, align 8
  call void @_ZN3gsl8not_nullIPPKcEC2IvEES3_(ptr noundef nonnull align 8 dereferenceable(8) %p, ptr noundef %v.addr) #3
  call void @_ZNSt7__cxx1119basic_ostringstreamIcSt11char_traitsIcESaIcEEC1Ev(ptr noundef nonnull align 8 dereferenceable(112) %os)
  invoke void @_ZNSt7__cxx1119basic_ostringstreamIcSt11char_traitsIcESaIcEEC1Ev(ptr noundef nonnull align 8 dereferenceable(112) %ref)
          to label %invoke.cont unwind label %lpad

invoke.cont:                                      ; preds = %entry
  %call = invoke noundef ptr @_ZNK3gsl8not_nullIPPKcEcvS3_Ev(ptr noundef nonnull align 8 dereferenceable(8) %p)
          to label %invoke.cont2 unwind label %lpad1

invoke.cont2:                                     ; preds = %invoke.cont
  %call4 = invoke noundef nonnull align 8 dereferenceable(8) ptr @_ZNSolsEPKv(ptr noundef nonnull align 8 dereferenceable(8) %os, ptr noundef %call)
          to label %invoke.cont3 unwind label %lpad1

invoke.cont3:                                     ; preds = %invoke.cont2
  %call6 = invoke noundef nonnull align 8 dereferenceable(8) ptr @_ZNSolsEPKv(ptr noundef nonnull align 8 dereferenceable(8) %ref, ptr noundef %v.addr)
          to label %invoke.cont5 unwind label %lpad1

invoke.cont5:                                     ; preds = %invoke.cont3
  invoke void @_ZNKSt7__cxx1119basic_ostringstreamIcSt11char_traitsIcESaIcEE3strEv(ptr sret(%"class.std::__cxx11::basic_string") align 8 %ref.tmp7, ptr noundef nonnull align 8 dereferenceable(112) %os)
          to label %invoke.cont8 unwind label %lpad1

invoke.cont8:                                     ; preds = %invoke.cont5
  invoke void @_ZNKSt7__cxx1119basic_ostringstreamIcSt11char_traitsIcESaIcEE3strEv(ptr sret(%"class.std::__cxx11::basic_string") align 8 %ref.tmp9, ptr noundef nonnull align 8 dereferenceable(112) %ref)
          to label %invoke.cont11 unwind label %lpad10

invoke.cont11:                                    ; preds = %invoke.cont8
  %call12 = call noundef zeroext i1 @_ZSteqIcEN9__gnu_cxx11__enable_ifIXsr9__is_charIT_EE7__valueEbE6__typeERKNSt7__cxx1112basic_stringIS2_St11char_traitsIS2_ESaIS2_EEESC_(ptr noundef nonnull align 8 dereferenceable(32) %ref.tmp7, ptr noundef nonnull align 8 dereferenceable(32) %ref.tmp9) #3
  %frombool = zext i1 %call12 to i8
  store i8 %frombool, ptr %ref.tmp, align 1
  invoke void @_ZN7testing15AssertionResultC2IbEERKT_PNSt9enable_ifIXntsr3std14is_convertibleIS2_S0_EE5valueEvE4typeE(ptr noundef nonnull align 8 dereferenceable(16) %gtest_ar_, ptr noundef nonnull align 1 dereferenceable(1) %ref.tmp, ptr noundef null)
          to label %invoke.cont14 unwind label %lpad13

invoke.cont14:                                    ; preds = %invoke.cont11
  call void @_ZNSt7__cxx1112basic_stringIcSt11char_traitsIcESaIcEED1Ev(ptr noundef nonnull align 8 dereferenceable(32) %ref.tmp9) #3
  call void @_ZNSt7__cxx1112basic_stringIcSt11char_traitsIcESaIcEED1Ev(ptr noundef nonnull align 8 dereferenceable(32) %ref.tmp7) #3
  %call15 = call noundef zeroext i1 @_ZNK7testing15AssertionResultcvbEv(ptr noundef nonnull align 8 dereferenceable(16) %gtest_ar_)
  br i1 %call15, label %if.then, label %if.else

if.then:                                          ; preds = %invoke.cont14
  br label %if.end

lpad:                                             ; preds = %entry
  %0 = landingpad { ptr, i32 }
          cleanup
  %1 = extractvalue { ptr, i32 } %0, 0
  store ptr %1, ptr %exn.slot, align 8
  %2 = extractvalue { ptr, i32 } %0, 1
  store i32 %2, ptr %ehselector.slot, align 4
  br label %ehcleanup33

lpad1:                                            ; preds = %invoke.cont5, %invoke.cont3, %invoke.cont2, %invoke.cont
  %3 = landingpad { ptr, i32 }
          cleanup
  %4 = extractvalue { ptr, i32 } %3, 0
  store ptr %4, ptr %exn.slot, align 8
  %5 = extractvalue { ptr, i32 } %3, 1
  store i32 %5, ptr %ehselector.slot, align 4
  br label %ehcleanup32

lpad10:                                           ; preds = %invoke.cont8
  %6 = landingpad { ptr, i32 }
          cleanup
  %7 = extractvalue { ptr, i32 } %6, 0
  store ptr %7, ptr %exn.slot, align 8
  %8 = extractvalue { ptr, i32 } %6, 1
  store i32 %8, ptr %ehselector.slot, align 4
  br label %ehcleanup

lpad13:                                           ; preds = %invoke.cont11
  %9 = landingpad { ptr, i32 }
          cleanup
  %10 = extractvalue { ptr, i32 } %9, 0
  store ptr %10, ptr %exn.slot, align 8
  %11 = extractvalue { ptr, i32 } %9, 1
  store i32 %11, ptr %ehselector.slot, align 4
  call void @_ZNSt7__cxx1112basic_stringIcSt11char_traitsIcESaIcEED1Ev(ptr noundef nonnull align 8 dereferenceable(32) %ref.tmp9) #3
  br label %ehcleanup

ehcleanup:                                        ; preds = %lpad13, %lpad10
  call void @_ZNSt7__cxx1112basic_stringIcSt11char_traitsIcESaIcEED1Ev(ptr noundef nonnull align 8 dereferenceable(32) %ref.tmp7) #3
  br label %ehcleanup32

if.else:                                          ; preds = %invoke.cont14
  invoke void @_ZN7testing7MessageC1Ev(ptr noundef nonnull align 8 dereferenceable(8) %ref.tmp16)
          to label %invoke.cont18 unwind label %lpad17

invoke.cont18:                                    ; preds = %if.else
  invoke void @_ZN7testing8internal30GetBoolAssertionFailureMessageB5cxx11ERKNS_15AssertionResultEPKcS5_S5_(ptr sret(%"class.std::__cxx11::basic_string") align 8 %ref.tmp20, ptr noundef nonnull align 8 dereferenceable(16) %gtest_ar_, ptr noundef @.str.106, ptr noundef @.str.5, ptr noundef @.str.6)
          to label %invoke.cont22 unwind label %lpad21

invoke.cont22:                                    ; preds = %invoke.cont18
  %call23 = call noundef ptr @_ZNKSt7__cxx1112basic_stringIcSt11char_traitsIcESaIcEE5c_strEv(ptr noundef nonnull align 8 dereferenceable(32) %ref.tmp20) #3
  invoke void @_ZN7testing8internal12AssertHelperC1ENS_14TestPartResult4TypeEPKciS5_(ptr noundef nonnull align 8 dereferenceable(8) %ref.tmp19, i32 noundef 1, ptr noundef @.str.3, i32 noundef 249, ptr noundef %call23)
          to label %invoke.cont25 unwind label %lpad24

invoke.cont25:                                    ; preds = %invoke.cont22
  invoke void @_ZNK7testing8internal12AssertHelperaSERKNS_7MessageE(ptr noundef nonnull align 8 dereferenceable(8) %ref.tmp19, ptr noundef nonnull align 8 dereferenceable(8) %ref.tmp16)
          to label %invoke.cont27 unwind label %lpad26

invoke.cont27:                                    ; preds = %invoke.cont25
  call void @_ZN7testing8internal12AssertHelperD1Ev(ptr noundef nonnull align 8 dereferenceable(8) %ref.tmp19) #3
  call void @_ZNSt7__cxx1112basic_stringIcSt11char_traitsIcESaIcEED1Ev(ptr noundef nonnull align 8 dereferenceable(32) %ref.tmp20) #3
  call void @_ZN7testing7MessageD2Ev(ptr noundef nonnull align 8 dereferenceable(8) %ref.tmp16) #3
  br label %if.end

lpad17:                                           ; preds = %if.else
  %12 = landingpad { ptr, i32 }
          cleanup
  %13 = extractvalue { ptr, i32 } %12, 0
  store ptr %13, ptr %exn.slot, align 8
  %14 = extractvalue { ptr, i32 } %12, 1
  store i32 %14, ptr %ehselector.slot, align 4
  br label %ehcleanup31

lpad21:                                           ; preds = %invoke.cont18
  %15 = landingpad { ptr, i32 }
          cleanup
  %16 = extractvalue { ptr, i32 } %15, 0
  store ptr %16, ptr %exn.slot, align 8
  %17 = extractvalue { ptr, i32 } %15, 1
  store i32 %17, ptr %ehselector.slot, align 4
  br label %ehcleanup30

lpad24:                                           ; preds = %invoke.cont22
  %18 = landingpad { ptr, i32 }
          cleanup
  %19 = extractvalue { ptr, i32 } %18, 0
  store ptr %19, ptr %exn.slot, align 8
  %20 = extractvalue { ptr, i32 } %18, 1
  store i32 %20, ptr %ehselector.slot, align 4
  br label %ehcleanup29

lpad26:                                           ; preds = %invoke.cont25
  %21 = landingpad { ptr, i32 }
          cleanup
  %22 = extractvalue { ptr, i32 } %21, 0
  store ptr %22, ptr %exn.slot, align 8
  %23 = extractvalue { ptr, i32 } %21, 1
  store i32 %23, ptr %ehselector.slot, align 4
  call void @_ZN7testing8internal12AssertHelperD1Ev(ptr noundef nonnull align 8 dereferenceable(8) %ref.tmp19) #3
  br label %ehcleanup29

ehcleanup29:                                      ; preds = %lpad26, %lpad24
  call void @_ZNSt7__cxx1112basic_stringIcSt11char_traitsIcESaIcEED1Ev(ptr noundef nonnull align 8 dereferenceable(32) %ref.tmp20) #3
  br label %ehcleanup30

ehcleanup30:                                      ; preds = %ehcleanup29, %lpad21
  call void @_ZN7testing7MessageD2Ev(ptr noundef nonnull align 8 dereferenceable(8) %ref.tmp16) #3
  br label %ehcleanup31

if.end:                                           ; preds = %invoke.cont27, %if.then
  call void @_ZN7testing15AssertionResultD2Ev(ptr noundef nonnull align 8 dereferenceable(16) %gtest_ar_) #3
  call void @_ZNSt7__cxx1119basic_ostringstreamIcSt11char_traitsIcESaIcEED1Ev(ptr noundef nonnull align 8 dereferenceable(112) %ref) #3
  call void @_ZNSt7__cxx1119basic_ostringstreamIcSt11char_traitsIcESaIcEED1Ev(ptr noundef nonnull align 8 dereferenceable(112) %os) #3
  call void @_ZNSt7__cxx1119basic_ostringstreamIcSt11char_traitsIcESaIcEEC1Ev(ptr noundef nonnull align 8 dereferenceable(112) %os34)
  invoke void @_ZNSt7__cxx1119basic_ostringstreamIcSt11char_traitsIcESaIcEEC1Ev(ptr noundef nonnull align 8 dereferenceable(112) %ref35)
          to label %invoke.cont37 unwind label %lpad36

invoke.cont37:                                    ; preds = %if.end
  %call40 = invoke noundef nonnull align 8 dereferenceable(8) ptr @_ZNK3gsl8not_nullIPPKcEdeEv(ptr noundef nonnull align 8 dereferenceable(8) %p)
          to label %invoke.cont39 unwind label %lpad38

invoke.cont39:                                    ; preds = %invoke.cont37
  %24 = load ptr, ptr %call40, align 8
  %call42 = invoke noundef nonnull align 8 dereferenceable(8) ptr @_ZStlsISt11char_traitsIcEERSt13basic_ostreamIcT_ES5_PKc(ptr noundef nonnull align 8 dereferenceable(8) %os34, ptr noundef %24)
          to label %invoke.cont41 unwind label %lpad38

invoke.cont41:                                    ; preds = %invoke.cont39
  %25 = load ptr, ptr %v.addr, align 8
  %call44 = invoke noundef nonnull align 8 dereferenceable(8) ptr @_ZStlsISt11char_traitsIcEERSt13basic_ostreamIcT_ES5_PKc(ptr noundef nonnull align 8 dereferenceable(8) %ref35, ptr noundef %25)
          to label %invoke.cont43 unwind label %lpad38

invoke.cont43:                                    ; preds = %invoke.cont41
  invoke void @_ZNKSt7__cxx1119basic_ostringstreamIcSt11char_traitsIcESaIcEE3strEv(ptr sret(%"class.std::__cxx11::basic_string") align 8 %ref.tmp47, ptr noundef nonnull align 8 dereferenceable(112) %os34)
          to label %invoke.cont48 unwind label %lpad38

invoke.cont48:                                    ; preds = %invoke.cont43
  invoke void @_ZNKSt7__cxx1119basic_ostringstreamIcSt11char_traitsIcESaIcEE3strEv(ptr sret(%"class.std::__cxx11::basic_string") align 8 %ref.tmp49, ptr noundef nonnull align 8 dereferenceable(112) %ref35)
          to label %invoke.cont51 unwind label %lpad50

invoke.cont51:                                    ; preds = %invoke.cont48
  %call52 = call noundef zeroext i1 @_ZSteqIcEN9__gnu_cxx11__enable_ifIXsr9__is_charIT_EE7__valueEbE6__typeERKNSt7__cxx1112basic_stringIS2_St11char_traitsIS2_ESaIS2_EEESC_(ptr noundef nonnull align 8 dereferenceable(32) %ref.tmp47, ptr noundef nonnull align 8 dereferenceable(32) %ref.tmp49) #3
  %frombool53 = zext i1 %call52 to i8
  store i8 %frombool53, ptr %ref.tmp46, align 1
  invoke void @_ZN7testing15AssertionResultC2IbEERKT_PNSt9enable_ifIXntsr3std14is_convertibleIS2_S0_EE5valueEvE4typeE(ptr noundef nonnull align 8 dereferenceable(16) %gtest_ar_45, ptr noundef nonnull align 1 dereferenceable(1) %ref.tmp46, ptr noundef null)
          to label %invoke.cont55 unwind label %lpad54

invoke.cont55:                                    ; preds = %invoke.cont51
  call void @_ZNSt7__cxx1112basic_stringIcSt11char_traitsIcESaIcEED1Ev(ptr noundef nonnull align 8 dereferenceable(32) %ref.tmp49) #3
  call void @_ZNSt7__cxx1112basic_stringIcSt11char_traitsIcESaIcEED1Ev(ptr noundef nonnull align 8 dereferenceable(32) %ref.tmp47) #3
  %call58 = call noundef zeroext i1 @_ZNK7testing15AssertionResultcvbEv(ptr noundef nonnull align 8 dereferenceable(16) %gtest_ar_45)
  br i1 %call58, label %if.then59, label %if.else60

if.then59:                                        ; preds = %invoke.cont55
  br label %if.end76

ehcleanup31:                                      ; preds = %ehcleanup30, %lpad17
  call void @_ZN7testing15AssertionResultD2Ev(ptr noundef nonnull align 8 dereferenceable(16) %gtest_ar_) #3
  br label %ehcleanup32

ehcleanup32:                                      ; preds = %ehcleanup31, %ehcleanup, %lpad1
  call void @_ZNSt7__cxx1119basic_ostringstreamIcSt11char_traitsIcESaIcEED1Ev(ptr noundef nonnull align 8 dereferenceable(112) %ref) #3
  br label %ehcleanup33

ehcleanup33:                                      ; preds = %ehcleanup32, %lpad
  call void @_ZNSt7__cxx1119basic_ostringstreamIcSt11char_traitsIcESaIcEED1Ev(ptr noundef nonnull align 8 dereferenceable(112) %os) #3
  br label %eh.resume

lpad36:                                           ; preds = %if.end
  %26 = landingpad { ptr, i32 }
          cleanup
  %27 = extractvalue { ptr, i32 } %26, 0
  store ptr %27, ptr %exn.slot, align 8
  %28 = extractvalue { ptr, i32 } %26, 1
  store i32 %28, ptr %ehselector.slot, align 4
  br label %ehcleanup79

lpad38:                                           ; preds = %invoke.cont43, %invoke.cont41, %invoke.cont39, %invoke.cont37
  %29 = landingpad { ptr, i32 }
          cleanup
  %30 = extractvalue { ptr, i32 } %29, 0
  store ptr %30, ptr %exn.slot, align 8
  %31 = extractvalue { ptr, i32 } %29, 1
  store i32 %31, ptr %ehselector.slot, align 4
  br label %ehcleanup78

lpad50:                                           ; preds = %invoke.cont48
  %32 = landingpad { ptr, i32 }
          cleanup
  %33 = extractvalue { ptr, i32 } %32, 0
  store ptr %33, ptr %exn.slot, align 8
  %34 = extractvalue { ptr, i32 } %32, 1
  store i32 %34, ptr %ehselector.slot, align 4
  br label %ehcleanup57

lpad54:                                           ; preds = %invoke.cont51
  %35 = landingpad { ptr, i32 }
          cleanup
  %36 = extractvalue { ptr, i32 } %35, 0
  store ptr %36, ptr %exn.slot, align 8
  %37 = extractvalue { ptr, i32 } %35, 1
  store i32 %37, ptr %ehselector.slot, align 4
  call void @_ZNSt7__cxx1112basic_stringIcSt11char_traitsIcESaIcEED1Ev(ptr noundef nonnull align 8 dereferenceable(32) %ref.tmp49) #3
  br label %ehcleanup57

ehcleanup57:                                      ; preds = %lpad54, %lpad50
  call void @_ZNSt7__cxx1112basic_stringIcSt11char_traitsIcESaIcEED1Ev(ptr noundef nonnull align 8 dereferenceable(32) %ref.tmp47) #3
  br label %ehcleanup78

if.else60:                                        ; preds = %invoke.cont55
  invoke void @_ZN7testing7MessageC1Ev(ptr noundef nonnull align 8 dereferenceable(8) %ref.tmp61)
          to label %invoke.cont63 unwind label %lpad62

invoke.cont63:                                    ; preds = %if.else60
  invoke void @_ZN7testing8internal30GetBoolAssertionFailureMessageB5cxx11ERKNS_15AssertionResultEPKcS5_S5_(ptr sret(%"class.std::__cxx11::basic_string") align 8 %ref.tmp65, ptr noundef nonnull align 8 dereferenceable(16) %gtest_ar_45, ptr noundef @.str.106, ptr noundef @.str.5, ptr noundef @.str.6)
          to label %invoke.cont67 unwind label %lpad66

invoke.cont67:                                    ; preds = %invoke.cont63
  %call68 = call noundef ptr @_ZNKSt7__cxx1112basic_stringIcSt11char_traitsIcESaIcEE5c_strEv(ptr noundef nonnull align 8 dereferenceable(32) %ref.tmp65) #3
  invoke void @_ZN7testing8internal12AssertHelperC1ENS_14TestPartResult4TypeEPKciS5_(ptr noundef nonnull align 8 dereferenceable(8) %ref.tmp64, i32 noundef 1, ptr noundef @.str.3, i32 noundef 256, ptr noundef %call68)
          to label %invoke.cont70 unwind label %lpad69

invoke.cont70:                                    ; preds = %invoke.cont67
  invoke void @_ZNK7testing8internal12AssertHelperaSERKNS_7MessageE(ptr noundef nonnull align 8 dereferenceable(8) %ref.tmp64, ptr noundef nonnull align 8 dereferenceable(8) %ref.tmp61)
          to label %invoke.cont72 unwind label %lpad71

invoke.cont72:                                    ; preds = %invoke.cont70
  call void @_ZN7testing8internal12AssertHelperD1Ev(ptr noundef nonnull align 8 dereferenceable(8) %ref.tmp64) #3
  call void @_ZNSt7__cxx1112basic_stringIcSt11char_traitsIcESaIcEED1Ev(ptr noundef nonnull align 8 dereferenceable(32) %ref.tmp65) #3
  call void @_ZN7testing7MessageD2Ev(ptr noundef nonnull align 8 dereferenceable(8) %ref.tmp61) #3
  br label %if.end76

lpad62:                                           ; preds = %if.else60
  %38 = landingpad { ptr, i32 }
          cleanup
  %39 = extractvalue { ptr, i32 } %38, 0
  store ptr %39, ptr %exn.slot, align 8
  %40 = extractvalue { ptr, i32 } %38, 1
  store i32 %40, ptr %ehselector.slot, align 4
  br label %ehcleanup77

lpad66:                                           ; preds = %invoke.cont63
  %41 = landingpad { ptr, i32 }
          cleanup
  %42 = extractvalue { ptr, i32 } %41, 0
  store ptr %42, ptr %exn.slot, align 8
  %43 = extractvalue { ptr, i32 } %41, 1
  store i32 %43, ptr %ehselector.slot, align 4
  br label %ehcleanup75

lpad69:                                           ; preds = %invoke.cont67
  %44 = landingpad { ptr, i32 }
          cleanup
  %45 = extractvalue { ptr, i32 } %44, 0
  store ptr %45, ptr %exn.slot, align 8
  %46 = extractvalue { ptr, i32 } %44, 1
  store i32 %46, ptr %ehselector.slot, align 4
  br label %ehcleanup74

lpad71:                                           ; preds = %invoke.cont70
  %47 = landingpad { ptr, i32 }
          cleanup
  %48 = extractvalue { ptr, i32 } %47, 0
  store ptr %48, ptr %exn.slot, align 8
  %49 = extractvalue { ptr, i32 } %47, 1
  store i32 %49, ptr %ehselector.slot, align 4
  call void @_ZN7testing8internal12AssertHelperD1Ev(ptr noundef nonnull align 8 dereferenceable(8) %ref.tmp64) #3
  br label %ehcleanup74

ehcleanup74:                                      ; preds = %lpad71, %lpad69
  call void @_ZNSt7__cxx1112basic_stringIcSt11char_traitsIcESaIcEED1Ev(ptr noundef nonnull align 8 dereferenceable(32) %ref.tmp65) #3
  br label %ehcleanup75

ehcleanup75:                                      ; preds = %ehcleanup74, %lpad66
  call void @_ZN7testing7MessageD2Ev(ptr noundef nonnull align 8 dereferenceable(8) %ref.tmp61) #3
  br label %ehcleanup77

if.end76:                                         ; preds = %invoke.cont72, %if.then59
  call void @_ZN7testing15AssertionResultD2Ev(ptr noundef nonnull align 8 dereferenceable(16) %gtest_ar_45) #3
  call void @_ZNSt7__cxx1119basic_ostringstreamIcSt11char_traitsIcESaIcEED1Ev(ptr noundef nonnull align 8 dereferenceable(112) %ref35) #3
  call void @_ZNSt7__cxx1119basic_ostringstreamIcSt11char_traitsIcESaIcEED1Ev(ptr noundef nonnull align 8 dereferenceable(112) %os34) #3
  ret void

ehcleanup77:                                      ; preds = %ehcleanup75, %lpad62
  call void @_ZN7testing15AssertionResultD2Ev(ptr noundef nonnull align 8 dereferenceable(16) %gtest_ar_45) #3
  br label %ehcleanup78

ehcleanup78:                                      ; preds = %ehcleanup77, %ehcleanup57, %lpad38
  call void @_ZNSt7__cxx1119basic_ostringstreamIcSt11char_traitsIcESaIcEED1Ev(ptr noundef nonnull align 8 dereferenceable(112) %ref35) #3
  br label %ehcleanup79

ehcleanup79:                                      ; preds = %ehcleanup78, %lpad36
  call void @_ZNSt7__cxx1119basic_ostringstreamIcSt11char_traitsIcESaIcEED1Ev(ptr noundef nonnull align 8 dereferenceable(112) %os34) #3
  br label %eh.resume

eh.resume:                                        ; preds = %ehcleanup79, %ehcleanup33
  %exn = load ptr, ptr %exn.slot, align 8
  %sel = load i32, ptr %ehselector.slot, align 4
  %lpad.val = insertvalue { ptr, i32 } poison, ptr %exn, 0
  %lpad.val80 = insertvalue { ptr, i32 } %lpad.val, i32 %sel, 1
  resume { ptr, i32 } %lpad.val80
}

; Function Attrs: mustprogress uwtable
define linkonce_odr dso_local void @_Z14ostream_helperINSt7__cxx1112basic_stringIcSt11char_traitsIcESaIcEEEEvT_(ptr noundef %v) #4 comdat personality ptr @__gxx_personality_v0 {
entry:
  %v.indirect_addr = alloca ptr, align 8
  %p = alloca %"class.gsl::not_null.95", align 8
  %os = alloca %"class.std::__cxx11::basic_ostringstream", align 8
  %ref = alloca %"class.std::__cxx11::basic_ostringstream", align 8
  %exn.slot = alloca ptr, align 8
  %ehselector.slot = alloca i32, align 4
  %gtest_ar_ = alloca %"class.testing::AssertionResult", align 8
  %ref.tmp = alloca i8, align 1
  %ref.tmp7 = alloca %"class.std::__cxx11::basic_string", align 8
  %ref.tmp9 = alloca %"class.std::__cxx11::basic_string", align 8
  %ref.tmp16 = alloca %"class.testing::Message", align 8
  %ref.tmp19 = alloca %"class.testing::internal::AssertHelper", align 8
  %ref.tmp20 = alloca %"class.std::__cxx11::basic_string", align 8
  %os34 = alloca %"class.std::__cxx11::basic_ostringstream", align 8
  %ref35 = alloca %"class.std::__cxx11::basic_ostringstream", align 8
  %gtest_ar_45 = alloca %"class.testing::AssertionResult", align 8
  %ref.tmp46 = alloca i8, align 1
  %ref.tmp47 = alloca %"class.std::__cxx11::basic_string", align 8
  %ref.tmp49 = alloca %"class.std::__cxx11::basic_string", align 8
  %ref.tmp61 = alloca %"class.testing::Message", align 8
  %ref.tmp64 = alloca %"class.testing::internal::AssertHelper", align 8
  %ref.tmp65 = alloca %"class.std::__cxx11::basic_string", align 8
  store ptr %v, ptr %v.indirect_addr, align 8
  call void @_ZN3gsl8not_nullIPNSt7__cxx1112basic_stringIcSt11char_traitsIcESaIcEEEEC2IvEES7_(ptr noundef nonnull align 8 dereferenceable(8) %p, ptr noundef %v) #3
  call void @_ZNSt7__cxx1119basic_ostringstreamIcSt11char_traitsIcESaIcEEC1Ev(ptr noundef nonnull align 8 dereferenceable(112) %os)
  invoke void @_ZNSt7__cxx1119basic_ostringstreamIcSt11char_traitsIcESaIcEEC1Ev(ptr noundef nonnull align 8 dereferenceable(112) %ref)
          to label %invoke.cont unwind label %lpad

invoke.cont:                                      ; preds = %entry
  %call = invoke noundef ptr @_ZNK3gsl8not_nullIPNSt7__cxx1112basic_stringIcSt11char_traitsIcESaIcEEEEcvS7_Ev(ptr noundef nonnull align 8 dereferenceable(8) %p)
          to label %invoke.cont2 unwind label %lpad1

invoke.cont2:                                     ; preds = %invoke.cont
  %call4 = invoke noundef nonnull align 8 dereferenceable(8) ptr @_ZNSolsEPKv(ptr noundef nonnull align 8 dereferenceable(8) %os, ptr noundef %call)
          to label %invoke.cont3 unwind label %lpad1

invoke.cont3:                                     ; preds = %invoke.cont2
  %call6 = invoke noundef nonnull align 8 dereferenceable(8) ptr @_ZNSolsEPKv(ptr noundef nonnull align 8 dereferenceable(8) %ref, ptr noundef %v)
          to label %invoke.cont5 unwind label %lpad1

invoke.cont5:                                     ; preds = %invoke.cont3
  invoke void @_ZNKSt7__cxx1119basic_ostringstreamIcSt11char_traitsIcESaIcEE3strEv(ptr sret(%"class.std::__cxx11::basic_string") align 8 %ref.tmp7, ptr noundef nonnull align 8 dereferenceable(112) %os)
          to label %invoke.cont8 unwind label %lpad1

invoke.cont8:                                     ; preds = %invoke.cont5
  invoke void @_ZNKSt7__cxx1119basic_ostringstreamIcSt11char_traitsIcESaIcEE3strEv(ptr sret(%"class.std::__cxx11::basic_string") align 8 %ref.tmp9, ptr noundef nonnull align 8 dereferenceable(112) %ref)
          to label %invoke.cont11 unwind label %lpad10

invoke.cont11:                                    ; preds = %invoke.cont8
  %call12 = call noundef zeroext i1 @_ZSteqIcEN9__gnu_cxx11__enable_ifIXsr9__is_charIT_EE7__valueEbE6__typeERKNSt7__cxx1112basic_stringIS2_St11char_traitsIS2_ESaIS2_EEESC_(ptr noundef nonnull align 8 dereferenceable(32) %ref.tmp7, ptr noundef nonnull align 8 dereferenceable(32) %ref.tmp9) #3
  %frombool = zext i1 %call12 to i8
  store i8 %frombool, ptr %ref.tmp, align 1
  invoke void @_ZN7testing15AssertionResultC2IbEERKT_PNSt9enable_ifIXntsr3std14is_convertibleIS2_S0_EE5valueEvE4typeE(ptr noundef nonnull align 8 dereferenceable(16) %gtest_ar_, ptr noundef nonnull align 1 dereferenceable(1) %ref.tmp, ptr noundef null)
          to label %invoke.cont14 unwind label %lpad13

invoke.cont14:                                    ; preds = %invoke.cont11
  call void @_ZNSt7__cxx1112basic_stringIcSt11char_traitsIcESaIcEED1Ev(ptr noundef nonnull align 8 dereferenceable(32) %ref.tmp9) #3
  call void @_ZNSt7__cxx1112basic_stringIcSt11char_traitsIcESaIcEED1Ev(ptr noundef nonnull align 8 dereferenceable(32) %ref.tmp7) #3
  %call15 = call noundef zeroext i1 @_ZNK7testing15AssertionResultcvbEv(ptr noundef nonnull align 8 dereferenceable(16) %gtest_ar_)
  br i1 %call15, label %if.then, label %if.else

if.then:                                          ; preds = %invoke.cont14
  br label %if.end

lpad:                                             ; preds = %entry
  %0 = landingpad { ptr, i32 }
          cleanup
  %1 = extractvalue { ptr, i32 } %0, 0
  store ptr %1, ptr %exn.slot, align 8
  %2 = extractvalue { ptr, i32 } %0, 1
  store i32 %2, ptr %ehselector.slot, align 4
  br label %ehcleanup33

lpad1:                                            ; preds = %invoke.cont5, %invoke.cont3, %invoke.cont2, %invoke.cont
  %3 = landingpad { ptr, i32 }
          cleanup
  %4 = extractvalue { ptr, i32 } %3, 0
  store ptr %4, ptr %exn.slot, align 8
  %5 = extractvalue { ptr, i32 } %3, 1
  store i32 %5, ptr %ehselector.slot, align 4
  br label %ehcleanup32

lpad10:                                           ; preds = %invoke.cont8
  %6 = landingpad { ptr, i32 }
          cleanup
  %7 = extractvalue { ptr, i32 } %6, 0
  store ptr %7, ptr %exn.slot, align 8
  %8 = extractvalue { ptr, i32 } %6, 1
  store i32 %8, ptr %ehselector.slot, align 4
  br label %ehcleanup

lpad13:                                           ; preds = %invoke.cont11
  %9 = landingpad { ptr, i32 }
          cleanup
  %10 = extractvalue { ptr, i32 } %9, 0
  store ptr %10, ptr %exn.slot, align 8
  %11 = extractvalue { ptr, i32 } %9, 1
  store i32 %11, ptr %ehselector.slot, align 4
  call void @_ZNSt7__cxx1112basic_stringIcSt11char_traitsIcESaIcEED1Ev(ptr noundef nonnull align 8 dereferenceable(32) %ref.tmp9) #3
  br label %ehcleanup

ehcleanup:                                        ; preds = %lpad13, %lpad10
  call void @_ZNSt7__cxx1112basic_stringIcSt11char_traitsIcESaIcEED1Ev(ptr noundef nonnull align 8 dereferenceable(32) %ref.tmp7) #3
  br label %ehcleanup32

if.else:                                          ; preds = %invoke.cont14
  invoke void @_ZN7testing7MessageC1Ev(ptr noundef nonnull align 8 dereferenceable(8) %ref.tmp16)
          to label %invoke.cont18 unwind label %lpad17

invoke.cont18:                                    ; preds = %if.else
  invoke void @_ZN7testing8internal30GetBoolAssertionFailureMessageB5cxx11ERKNS_15AssertionResultEPKcS5_S5_(ptr sret(%"class.std::__cxx11::basic_string") align 8 %ref.tmp20, ptr noundef nonnull align 8 dereferenceable(16) %gtest_ar_, ptr noundef @.str.106, ptr noundef @.str.5, ptr noundef @.str.6)
          to label %invoke.cont22 unwind label %lpad21

invoke.cont22:                                    ; preds = %invoke.cont18
  %call23 = call noundef ptr @_ZNKSt7__cxx1112basic_stringIcSt11char_traitsIcESaIcEE5c_strEv(ptr noundef nonnull align 8 dereferenceable(32) %ref.tmp20) #3
  invoke void @_ZN7testing8internal12AssertHelperC1ENS_14TestPartResult4TypeEPKciS5_(ptr noundef nonnull align 8 dereferenceable(8) %ref.tmp19, i32 noundef 1, ptr noundef @.str.3, i32 noundef 249, ptr noundef %call23)
          to label %invoke.cont25 unwind label %lpad24

invoke.cont25:                                    ; preds = %invoke.cont22
  invoke void @_ZNK7testing8internal12AssertHelperaSERKNS_7MessageE(ptr noundef nonnull align 8 dereferenceable(8) %ref.tmp19, ptr noundef nonnull align 8 dereferenceable(8) %ref.tmp16)
          to label %invoke.cont27 unwind label %lpad26

invoke.cont27:                                    ; preds = %invoke.cont25
  call void @_ZN7testing8internal12AssertHelperD1Ev(ptr noundef nonnull align 8 dereferenceable(8) %ref.tmp19) #3
  call void @_ZNSt7__cxx1112basic_stringIcSt11char_traitsIcESaIcEED1Ev(ptr noundef nonnull align 8 dereferenceable(32) %ref.tmp20) #3
  call void @_ZN7testing7MessageD2Ev(ptr noundef nonnull align 8 dereferenceable(8) %ref.tmp16) #3
  br label %if.end

lpad17:                                           ; preds = %if.else
  %12 = landingpad { ptr, i32 }
          cleanup
  %13 = extractvalue { ptr, i32 } %12, 0
  store ptr %13, ptr %exn.slot, align 8
  %14 = extractvalue { ptr, i32 } %12, 1
  store i32 %14, ptr %ehselector.slot, align 4
  br label %ehcleanup31

lpad21:                                           ; preds = %invoke.cont18
  %15 = landingpad { ptr, i32 }
          cleanup
  %16 = extractvalue { ptr, i32 } %15, 0
  store ptr %16, ptr %exn.slot, align 8
  %17 = extractvalue { ptr, i32 } %15, 1
  store i32 %17, ptr %ehselector.slot, align 4
  br label %ehcleanup30

lpad24:                                           ; preds = %invoke.cont22
  %18 = landingpad { ptr, i32 }
          cleanup
  %19 = extractvalue { ptr, i32 } %18, 0
  store ptr %19, ptr %exn.slot, align 8
  %20 = extractvalue { ptr, i32 } %18, 1
  store i32 %20, ptr %ehselector.slot, align 4
  br label %ehcleanup29

lpad26:                                           ; preds = %invoke.cont25
  %21 = landingpad { ptr, i32 }
          cleanup
  %22 = extractvalue { ptr, i32 } %21, 0
  store ptr %22, ptr %exn.slot, align 8
  %23 = extractvalue { ptr, i32 } %21, 1
  store i32 %23, ptr %ehselector.slot, align 4
  call void @_ZN7testing8internal12AssertHelperD1Ev(ptr noundef nonnull align 8 dereferenceable(8) %ref.tmp19) #3
  br label %ehcleanup29

ehcleanup29:                                      ; preds = %lpad26, %lpad24
  call void @_ZNSt7__cxx1112basic_stringIcSt11char_traitsIcESaIcEED1Ev(ptr noundef nonnull align 8 dereferenceable(32) %ref.tmp20) #3
  br label %ehcleanup30

ehcleanup30:                                      ; preds = %ehcleanup29, %lpad21
  call void @_ZN7testing7MessageD2Ev(ptr noundef nonnull align 8 dereferenceable(8) %ref.tmp16) #3
  br label %ehcleanup31

if.end:                                           ; preds = %invoke.cont27, %if.then
  call void @_ZN7testing15AssertionResultD2Ev(ptr noundef nonnull align 8 dereferenceable(16) %gtest_ar_) #3
  call void @_ZNSt7__cxx1119basic_ostringstreamIcSt11char_traitsIcESaIcEED1Ev(ptr noundef nonnull align 8 dereferenceable(112) %ref) #3
  call void @_ZNSt7__cxx1119basic_ostringstreamIcSt11char_traitsIcESaIcEED1Ev(ptr noundef nonnull align 8 dereferenceable(112) %os) #3
  call void @_ZNSt7__cxx1119basic_ostringstreamIcSt11char_traitsIcESaIcEEC1Ev(ptr noundef nonnull align 8 dereferenceable(112) %os34)
  invoke void @_ZNSt7__cxx1119basic_ostringstreamIcSt11char_traitsIcESaIcEEC1Ev(ptr noundef nonnull align 8 dereferenceable(112) %ref35)
          to label %invoke.cont37 unwind label %lpad36

invoke.cont37:                                    ; preds = %if.end
  %call40 = invoke noundef nonnull align 8 dereferenceable(32) ptr @_ZNK3gsl8not_nullIPNSt7__cxx1112basic_stringIcSt11char_traitsIcESaIcEEEEdeEv(ptr noundef nonnull align 8 dereferenceable(8) %p)
          to label %invoke.cont39 unwind label %lpad38

invoke.cont39:                                    ; preds = %invoke.cont37
  %call42 = invoke noundef nonnull align 8 dereferenceable(8) ptr @_ZStlsIcSt11char_traitsIcESaIcEERSt13basic_ostreamIT_T0_ES7_RKNSt7__cxx1112basic_stringIS4_S5_T1_EE(ptr noundef nonnull align 8 dereferenceable(8) %os34, ptr noundef nonnull align 8 dereferenceable(32) %call40)
          to label %invoke.cont41 unwind label %lpad38

invoke.cont41:                                    ; preds = %invoke.cont39
  %call44 = invoke noundef nonnull align 8 dereferenceable(8) ptr @_ZStlsIcSt11char_traitsIcESaIcEERSt13basic_ostreamIT_T0_ES7_RKNSt7__cxx1112basic_stringIS4_S5_T1_EE(ptr noundef nonnull align 8 dereferenceable(8) %ref35, ptr noundef nonnull align 8 dereferenceable(32) %v)
          to label %invoke.cont43 unwind label %lpad38

invoke.cont43:                                    ; preds = %invoke.cont41
  invoke void @_ZNKSt7__cxx1119basic_ostringstreamIcSt11char_traitsIcESaIcEE3strEv(ptr sret(%"class.std::__cxx11::basic_string") align 8 %ref.tmp47, ptr noundef nonnull align 8 dereferenceable(112) %os34)
          to label %invoke.cont48 unwind label %lpad38

invoke.cont48:                                    ; preds = %invoke.cont43
  invoke void @_ZNKSt7__cxx1119basic_ostringstreamIcSt11char_traitsIcESaIcEE3strEv(ptr sret(%"class.std::__cxx11::basic_string") align 8 %ref.tmp49, ptr noundef nonnull align 8 dereferenceable(112) %ref35)
          to label %invoke.cont51 unwind label %lpad50

invoke.cont51:                                    ; preds = %invoke.cont48
  %call52 = call noundef zeroext i1 @_ZSteqIcEN9__gnu_cxx11__enable_ifIXsr9__is_charIT_EE7__valueEbE6__typeERKNSt7__cxx1112basic_stringIS2_St11char_traitsIS2_ESaIS2_EEESC_(ptr noundef nonnull align 8 dereferenceable(32) %ref.tmp47, ptr noundef nonnull align 8 dereferenceable(32) %ref.tmp49) #3
  %frombool53 = zext i1 %call52 to i8
  store i8 %frombool53, ptr %ref.tmp46, align 1
  invoke void @_ZN7testing15AssertionResultC2IbEERKT_PNSt9enable_ifIXntsr3std14is_convertibleIS2_S0_EE5valueEvE4typeE(ptr noundef nonnull align 8 dereferenceable(16) %gtest_ar_45, ptr noundef nonnull align 1 dereferenceable(1) %ref.tmp46, ptr noundef null)
          to label %invoke.cont55 unwind label %lpad54

invoke.cont55:                                    ; preds = %invoke.cont51
  call void @_ZNSt7__cxx1112basic_stringIcSt11char_traitsIcESaIcEED1Ev(ptr noundef nonnull align 8 dereferenceable(32) %ref.tmp49) #3
  call void @_ZNSt7__cxx1112basic_stringIcSt11char_traitsIcESaIcEED1Ev(ptr noundef nonnull align 8 dereferenceable(32) %ref.tmp47) #3
  %call58 = call noundef zeroext i1 @_ZNK7testing15AssertionResultcvbEv(ptr noundef nonnull align 8 dereferenceable(16) %gtest_ar_45)
  br i1 %call58, label %if.then59, label %if.else60

if.then59:                                        ; preds = %invoke.cont55
  br label %if.end76

ehcleanup31:                                      ; preds = %ehcleanup30, %lpad17
  call void @_ZN7testing15AssertionResultD2Ev(ptr noundef nonnull align 8 dereferenceable(16) %gtest_ar_) #3
  br label %ehcleanup32

ehcleanup32:                                      ; preds = %ehcleanup31, %ehcleanup, %lpad1
  call void @_ZNSt7__cxx1119basic_ostringstreamIcSt11char_traitsIcESaIcEED1Ev(ptr noundef nonnull align 8 dereferenceable(112) %ref) #3
  br label %ehcleanup33

ehcleanup33:                                      ; preds = %ehcleanup32, %lpad
  call void @_ZNSt7__cxx1119basic_ostringstreamIcSt11char_traitsIcESaIcEED1Ev(ptr noundef nonnull align 8 dereferenceable(112) %os) #3
  br label %eh.resume

lpad36:                                           ; preds = %if.end
  %24 = landingpad { ptr, i32 }
          cleanup
  %25 = extractvalue { ptr, i32 } %24, 0
  store ptr %25, ptr %exn.slot, align 8
  %26 = extractvalue { ptr, i32 } %24, 1
  store i32 %26, ptr %ehselector.slot, align 4
  br label %ehcleanup79

lpad38:                                           ; preds = %invoke.cont43, %invoke.cont41, %invoke.cont39, %invoke.cont37
  %27 = landingpad { ptr, i32 }
          cleanup
  %28 = extractvalue { ptr, i32 } %27, 0
  store ptr %28, ptr %exn.slot, align 8
  %29 = extractvalue { ptr, i32 } %27, 1
  store i32 %29, ptr %ehselector.slot, align 4
  br label %ehcleanup78

lpad50:                                           ; preds = %invoke.cont48
  %30 = landingpad { ptr, i32 }
          cleanup
  %31 = extractvalue { ptr, i32 } %30, 0
  store ptr %31, ptr %exn.slot, align 8
  %32 = extractvalue { ptr, i32 } %30, 1
  store i32 %32, ptr %ehselector.slot, align 4
  br label %ehcleanup57

lpad54:                                           ; preds = %invoke.cont51
  %33 = landingpad { ptr, i32 }
          cleanup
  %34 = extractvalue { ptr, i32 } %33, 0
  store ptr %34, ptr %exn.slot, align 8
  %35 = extractvalue { ptr, i32 } %33, 1
  store i32 %35, ptr %ehselector.slot, align 4
  call void @_ZNSt7__cxx1112basic_stringIcSt11char_traitsIcESaIcEED1Ev(ptr noundef nonnull align 8 dereferenceable(32) %ref.tmp49) #3
  br label %ehcleanup57

ehcleanup57:                                      ; preds = %lpad54, %lpad50
  call void @_ZNSt7__cxx1112basic_stringIcSt11char_traitsIcESaIcEED1Ev(ptr noundef nonnull align 8 dereferenceable(32) %ref.tmp47) #3
  br label %ehcleanup78

if.else60:                                        ; preds = %invoke.cont55
  invoke void @_ZN7testing7MessageC1Ev(ptr noundef nonnull align 8 dereferenceable(8) %ref.tmp61)
          to label %invoke.cont63 unwind label %lpad62

invoke.cont63:                                    ; preds = %if.else60
  invoke void @_ZN7testing8internal30GetBoolAssertionFailureMessageB5cxx11ERKNS_15AssertionResultEPKcS5_S5_(ptr sret(%"class.std::__cxx11::basic_string") align 8 %ref.tmp65, ptr noundef nonnull align 8 dereferenceable(16) %gtest_ar_45, ptr noundef @.str.106, ptr noundef @.str.5, ptr noundef @.str.6)
          to label %invoke.cont67 unwind label %lpad66

invoke.cont67:                                    ; preds = %invoke.cont63
  %call68 = call noundef ptr @_ZNKSt7__cxx1112basic_stringIcSt11char_traitsIcESaIcEE5c_strEv(ptr noundef nonnull align 8 dereferenceable(32) %ref.tmp65) #3
  invoke void @_ZN7testing8internal12AssertHelperC1ENS_14TestPartResult4TypeEPKciS5_(ptr noundef nonnull align 8 dereferenceable(8) %ref.tmp64, i32 noundef 1, ptr noundef @.str.3, i32 noundef 256, ptr noundef %call68)
          to label %invoke.cont70 unwind label %lpad69

invoke.cont70:                                    ; preds = %invoke.cont67
  invoke void @_ZNK7testing8internal12AssertHelperaSERKNS_7MessageE(ptr noundef nonnull align 8 dereferenceable(8) %ref.tmp64, ptr noundef nonnull align 8 dereferenceable(8) %ref.tmp61)
          to label %invoke.cont72 unwind label %lpad71

invoke.cont72:                                    ; preds = %invoke.cont70
  call void @_ZN7testing8internal12AssertHelperD1Ev(ptr noundef nonnull align 8 dereferenceable(8) %ref.tmp64) #3
  call void @_ZNSt7__cxx1112basic_stringIcSt11char_traitsIcESaIcEED1Ev(ptr noundef nonnull align 8 dereferenceable(32) %ref.tmp65) #3
  call void @_ZN7testing7MessageD2Ev(ptr noundef nonnull align 8 dereferenceable(8) %ref.tmp61) #3
  br label %if.end76

lpad62:                                           ; preds = %if.else60
  %36 = landingpad { ptr, i32 }
          cleanup
  %37 = extractvalue { ptr, i32 } %36, 0
  store ptr %37, ptr %exn.slot, align 8
  %38 = extractvalue { ptr, i32 } %36, 1
  store i32 %38, ptr %ehselector.slot, align 4
  br label %ehcleanup77

lpad66:                                           ; preds = %invoke.cont63
  %39 = landingpad { ptr, i32 }
          cleanup
  %40 = extractvalue { ptr, i32 } %39, 0
  store ptr %40, ptr %exn.slot, align 8
  %41 = extractvalue { ptr, i32 } %39, 1
  store i32 %41, ptr %ehselector.slot, align 4
  br label %ehcleanup75

lpad69:                                           ; preds = %invoke.cont67
  %42 = landingpad { ptr, i32 }
          cleanup
  %43 = extractvalue { ptr, i32 } %42, 0
  store ptr %43, ptr %exn.slot, align 8
  %44 = extractvalue { ptr, i32 } %42, 1
  store i32 %44, ptr %ehselector.slot, align 4
  br label %ehcleanup74

lpad71:                                           ; preds = %invoke.cont70
  %45 = landingpad { ptr, i32 }
          cleanup
  %46 = extractvalue { ptr, i32 } %45, 0
  store ptr %46, ptr %exn.slot, align 8
  %47 = extractvalue { ptr, i32 } %45, 1
  store i32 %47, ptr %ehselector.slot, align 4
  call void @_ZN7testing8internal12AssertHelperD1Ev(ptr noundef nonnull align 8 dereferenceable(8) %ref.tmp64) #3
  br label %ehcleanup74

ehcleanup74:                                      ; preds = %lpad71, %lpad69
  call void @_ZNSt7__cxx1112basic_stringIcSt11char_traitsIcESaIcEED1Ev(ptr noundef nonnull align 8 dereferenceable(32) %ref.tmp65) #3
  br label %ehcleanup75

ehcleanup75:                                      ; preds = %ehcleanup74, %lpad66
  call void @_ZN7testing7MessageD2Ev(ptr noundef nonnull align 8 dereferenceable(8) %ref.tmp61) #3
  br label %ehcleanup77

if.end76:                                         ; preds = %invoke.cont72, %if.then59
  call void @_ZN7testing15AssertionResultD2Ev(ptr noundef nonnull align 8 dereferenceable(16) %gtest_ar_45) #3
  call void @_ZNSt7__cxx1119basic_ostringstreamIcSt11char_traitsIcESaIcEED1Ev(ptr noundef nonnull align 8 dereferenceable(112) %ref35) #3
  call void @_ZNSt7__cxx1119basic_ostringstreamIcSt11char_traitsIcESaIcEED1Ev(ptr noundef nonnull align 8 dereferenceable(112) %os34) #3
  ret void

ehcleanup77:                                      ; preds = %ehcleanup75, %lpad62
  call void @_ZN7testing15AssertionResultD2Ev(ptr noundef nonnull align 8 dereferenceable(16) %gtest_ar_45) #3
  br label %ehcleanup78

ehcleanup78:                                      ; preds = %ehcleanup77, %ehcleanup57, %lpad38
  call void @_ZNSt7__cxx1119basic_ostringstreamIcSt11char_traitsIcESaIcEED1Ev(ptr noundef nonnull align 8 dereferenceable(112) %ref35) #3
  br label %ehcleanup79

ehcleanup79:                                      ; preds = %ehcleanup78, %lpad36
  call void @_ZNSt7__cxx1119basic_ostringstreamIcSt11char_traitsIcESaIcEED1Ev(ptr noundef nonnull align 8 dereferenceable(112) %os34) #3
  br label %eh.resume

eh.resume:                                        ; preds = %ehcleanup79, %ehcleanup33
  %exn = load ptr, ptr %exn.slot, align 8
  %sel = load i32, ptr %ehselector.slot, align 4
  %lpad.val = insertvalue { ptr, i32 } poison, ptr %exn, 0
  %lpad.val80 = insertvalue { ptr, i32 } %lpad.val, i32 %sel, 1
  resume { ptr, i32 } %lpad.val80
}

; Function Attrs: uwtable
define internal void @__cxx_global_var_init.16() #0 section ".text.startup" personality ptr @__gxx_personality_v0 {
entry:
  %agg.tmp = alloca %"struct.testing::internal::CodeLocation", align 8
  %ref.tmp = alloca %"class.std::__cxx11::basic_string", align 8
  %ref.tmp1 = alloca %"class.std::allocator", align 1
  %exn.slot = alloca ptr, align 8
  %ehselector.slot = alloca i32, align 4
  call void @_ZNSaIcEC1Ev(ptr noundef nonnull align 1 dereferenceable(1) %ref.tmp1) #3
  invoke void @_ZNSt7__cxx1112basic_stringIcSt11char_traitsIcESaIcEEC1EPKcRKS3_(ptr noundef nonnull align 8 dereferenceable(32) %ref.tmp, ptr noundef @.str.3, ptr noundef nonnull align 1 dereferenceable(1) %ref.tmp1)
          to label %invoke.cont unwind label %lpad

invoke.cont:                                      ; preds = %entry
  invoke void @_ZN7testing8internal12CodeLocationC2ERKNSt7__cxx1112basic_stringIcSt11char_traitsIcESaIcEEEi(ptr noundef nonnull align 8 dereferenceable(36) %agg.tmp, ptr noundef nonnull align 8 dereferenceable(32) %ref.tmp, i32 noundef 271)
          to label %invoke.cont3 unwind label %lpad2

invoke.cont3:                                     ; preds = %invoke.cont
  %call = invoke noundef ptr @_ZN7testing8internal13GetTestTypeIdEv()
          to label %invoke.cont5 unwind label %lpad4

invoke.cont5:                                     ; preds = %invoke.cont3
  %call7 = invoke noundef ptr @_ZN7testing8internal16SuiteApiResolverINS_4TestEE19GetSetUpCaseOrSuiteEPKci(ptr noundef @.str.3, i32 noundef 271)
          to label %invoke.cont6 unwind label %lpad4

invoke.cont6:                                     ; preds = %invoke.cont5
  %call9 = invoke noundef ptr @_ZN7testing8internal16SuiteApiResolverINS_4TestEE22GetTearDownCaseOrSuiteEPKci(ptr noundef @.str.3, i32 noundef 271)
          to label %invoke.cont8 unwind label %lpad4

invoke.cont8:                                     ; preds = %invoke.cont6
  %call11 = invoke noalias noundef nonnull ptr @_Znwm(i64 noundef 8) #16
          to label %invoke.cont10 unwind label %lpad4

invoke.cont10:                                    ; preds = %invoke.cont8
  invoke void @_ZN7testing8internal15TestFactoryImplI37notnull_tests_TestNotNullCasting_TestEC2Ev(ptr noundef nonnull align 8 dereferenceable(8) %call11)
          to label %invoke.cont13 unwind label %lpad12

invoke.cont13:                                    ; preds = %invoke.cont10
  %call15 = invoke noundef ptr @_ZN7testing8internal23MakeAndRegisterTestInfoEPKcS2_S2_S2_NS0_12CodeLocationEPKvPFvvES7_PNS0_15TestFactoryBaseE(ptr noundef @.str, ptr noundef @.str.17, ptr noundef null, ptr noundef null, ptr noundef %agg.tmp, ptr noundef %call, ptr noundef %call7, ptr noundef %call9, ptr noundef %call11)
          to label %invoke.cont14 unwind label %lpad4

invoke.cont14:                                    ; preds = %invoke.cont13
  call void @_ZN7testing8internal12CodeLocationD2Ev(ptr noundef nonnull align 8 dereferenceable(36) %agg.tmp) #3
  call void @_ZNSt7__cxx1112basic_stringIcSt11char_traitsIcESaIcEED1Ev(ptr noundef nonnull align 8 dereferenceable(32) %ref.tmp) #3
  call void @_ZNSaIcED1Ev(ptr noundef nonnull align 1 dereferenceable(1) %ref.tmp1) #3
  store ptr %call15, ptr @_ZN37notnull_tests_TestNotNullCasting_Test10test_info_E, align 8
  ret void

lpad:                                             ; preds = %entry
  %0 = landingpad { ptr, i32 }
          cleanup
  %1 = extractvalue { ptr, i32 } %0, 0
  store ptr %1, ptr %exn.slot, align 8
  %2 = extractvalue { ptr, i32 } %0, 1
  store i32 %2, ptr %ehselector.slot, align 4
  br label %ehcleanup17

lpad2:                                            ; preds = %invoke.cont
  %3 = landingpad { ptr, i32 }
          cleanup
  %4 = extractvalue { ptr, i32 } %3, 0
  store ptr %4, ptr %exn.slot, align 8
  %5 = extractvalue { ptr, i32 } %3, 1
  store i32 %5, ptr %ehselector.slot, align 4
  br label %ehcleanup16

lpad4:                                            ; preds = %invoke.cont13, %invoke.cont8, %invoke.cont6, %invoke.cont5, %invoke.cont3
  %6 = landingpad { ptr, i32 }
          cleanup
  %7 = extractvalue { ptr, i32 } %6, 0
  store ptr %7, ptr %exn.slot, align 8
  %8 = extractvalue { ptr, i32 } %6, 1
  store i32 %8, ptr %ehselector.slot, align 4
  br label %ehcleanup

lpad12:                                           ; preds = %invoke.cont10
  %9 = landingpad { ptr, i32 }
          cleanup
  %10 = extractvalue { ptr, i32 } %9, 0
  store ptr %10, ptr %exn.slot, align 8
  %11 = extractvalue { ptr, i32 } %9, 1
  store i32 %11, ptr %ehselector.slot, align 4
  call void @_ZdlPv(ptr noundef %call11) #17
  br label %ehcleanup

ehcleanup:                                        ; preds = %lpad12, %lpad4
  call void @_ZN7testing8internal12CodeLocationD2Ev(ptr noundef nonnull align 8 dereferenceable(36) %agg.tmp) #3
  br label %ehcleanup16

ehcleanup16:                                      ; preds = %ehcleanup, %lpad2
  call void @_ZNSt7__cxx1112basic_stringIcSt11char_traitsIcESaIcEED1Ev(ptr noundef nonnull align 8 dereferenceable(32) %ref.tmp) #3
  br label %ehcleanup17

ehcleanup17:                                      ; preds = %ehcleanup16, %lpad
  call void @_ZNSaIcED1Ev(ptr noundef nonnull align 1 dereferenceable(1) %ref.tmp1) #3
  br label %eh.resume

eh.resume:                                        ; preds = %ehcleanup17
  %exn = load ptr, ptr %exn.slot, align 8
  %sel = load i32, ptr %ehselector.slot, align 4
  %lpad.val = insertvalue { ptr, i32 } poison, ptr %exn, 0
  %lpad.val18 = insertvalue { ptr, i32 } %lpad.val, i32 %sel, 1
  resume { ptr, i32 } %lpad.val18
}

; Function Attrs: mustprogress nounwind uwtable
define linkonce_odr dso_local void @_ZN7testing8internal15TestFactoryImplI37notnull_tests_TestNotNullCasting_TestEC2Ev(ptr noundef nonnull align 8 dereferenceable(8) %this) unnamed_addr #7 comdat align 2 {
entry:
  %this.addr = alloca ptr, align 8
  store ptr %this, ptr %this.addr, align 8
  %this1 = load ptr, ptr %this.addr, align 8
  call void @_ZN7testing8internal15TestFactoryBaseC2Ev(ptr noundef nonnull align 8 dereferenceable(8) %this1)
  store ptr getelementptr inbounds ({ [5 x ptr] }, ptr @_ZTVN7testing8internal15TestFactoryImplI37notnull_tests_TestNotNullCasting_TestEE, i32 0, inrange i32 0, i32 2), ptr %this1, align 8
  ret void
}

; Function Attrs: mustprogress uwtable
define dso_local void @_ZN37notnull_tests_TestNotNullCasting_Test8TestBodyEv(ptr noundef nonnull align 8 dereferenceable(16) %this) unnamed_addr #4 align 2 personality ptr @__gxx_personality_v0 {
entry:
  %this.addr = alloca ptr, align 8
  %base = alloca %struct.MyBase, align 1
  %derived = alloca %struct.MyDerived, align 1
  %unrelated = alloca %struct.Unrelated, align 1
  %u = alloca %"class.gsl::not_null.22", align 8
  %p = alloca %"class.gsl::not_null.23", align 8
  %q = alloca %"class.gsl::not_null.24", align 8
  %ref.tmp = alloca %"class.gsl::not_null.24", align 8
  %gtest_ar_ = alloca %"class.testing::AssertionResult", align 8
  %ref.tmp2 = alloca i8, align 1
  %exn.slot = alloca ptr, align 8
  %ehselector.slot = alloca i32, align 4
  %ref.tmp4 = alloca %"class.testing::Message", align 8
  %ref.tmp6 = alloca %"class.testing::internal::AssertHelper", align 8
  %ref.tmp7 = alloca %"class.std::__cxx11::basic_string", align 8
  %t = alloca %"class.gsl::not_null.22", align 8
  %gtest_ar_18 = alloca %"class.testing::AssertionResult", align 8
  %ref.tmp19 = alloca i8, align 1
  %ref.tmp28 = alloca %"class.testing::Message", align 8
  %ref.tmp30 = alloca %"class.testing::internal::AssertHelper", align 8
  %ref.tmp31 = alloca %"class.std::__cxx11::basic_string", align 8
  store ptr %this, ptr %this.addr, align 8
  call void @_ZN3gsl8not_nullIP9UnrelatedEC2IvEES2_(ptr noundef nonnull align 8 dereferenceable(8) %u, ptr noundef %unrelated) #3
  call void @_ZN3gsl8not_nullIP9MyDerivedEC2IvEES2_(ptr noundef nonnull align 8 dereferenceable(8) %p, ptr noundef %derived) #3
  call void @_ZN3gsl8not_nullIP6MyBaseEC2IvEES2_(ptr noundef nonnull align 8 dereferenceable(8) %q, ptr noundef %base) #3
  call void @_ZN3gsl8not_nullIP6MyBaseEC2IRNS0_IP9MyDerivedEEvEEOT_(ptr noundef nonnull align 8 dereferenceable(8) %ref.tmp, ptr noundef nonnull align 8 dereferenceable(8) %p) #3
  call void @llvm.memcpy.p0.p0.i64(ptr align 8 %q, ptr align 8 %ref.tmp, i64 8, i1 false)
  %call = call noundef zeroext i1 @_ZN3gsleqIP6MyBaseP9MyDerivedEEDTeqcldtfp_3getEcldtfp0_3getEERKNS_8not_nullIT_EERKNS6_IT0_EE(ptr noundef nonnull align 8 dereferenceable(8) %q, ptr noundef nonnull align 8 dereferenceable(8) %p) #3
  %frombool = zext i1 %call to i8
  store i8 %frombool, ptr %ref.tmp2, align 1
  call void @_ZN7testing15AssertionResultC2IbEERKT_PNSt9enable_ifIXntsr3std14is_convertibleIS2_S0_EE5valueEvE4typeE(ptr noundef nonnull align 8 dereferenceable(16) %gtest_ar_, ptr noundef nonnull align 1 dereferenceable(1) %ref.tmp2, ptr noundef null)
  %call3 = invoke noundef zeroext i1 @_ZNK7testing15AssertionResultcvbEv(ptr noundef nonnull align 8 dereferenceable(16) %gtest_ar_)
          to label %invoke.cont unwind label %lpad

invoke.cont:                                      ; preds = %entry
  br i1 %call3, label %if.then, label %if.else

if.then:                                          ; preds = %invoke.cont
  br label %if.end

lpad:                                             ; preds = %if.else, %entry
  %0 = landingpad { ptr, i32 }
          cleanup
  %1 = extractvalue { ptr, i32 } %0, 0
  store ptr %1, ptr %exn.slot, align 8
  %2 = extractvalue { ptr, i32 } %0, 1
  store i32 %2, ptr %ehselector.slot, align 4
  br label %ehcleanup16

if.else:                                          ; preds = %invoke.cont
  invoke void @_ZN7testing7MessageC1Ev(ptr noundef nonnull align 8 dereferenceable(8) %ref.tmp4)
          to label %invoke.cont5 unwind label %lpad

invoke.cont5:                                     ; preds = %if.else
  invoke void @_ZN7testing8internal30GetBoolAssertionFailureMessageB5cxx11ERKNS_15AssertionResultEPKcS5_S5_(ptr sret(%"class.std::__cxx11::basic_string") align 8 %ref.tmp7, ptr noundef nonnull align 8 dereferenceable(16) %gtest_ar_, ptr noundef @.str.18, ptr noundef @.str.5, ptr noundef @.str.6)
          to label %invoke.cont9 unwind label %lpad8

invoke.cont9:                                     ; preds = %invoke.cont5
  %call10 = call noundef ptr @_ZNKSt7__cxx1112basic_stringIcSt11char_traitsIcESaIcEE5c_strEv(ptr noundef nonnull align 8 dereferenceable(32) %ref.tmp7) #3
  invoke void @_ZN7testing8internal12AssertHelperC1ENS_14TestPartResult4TypeEPKciS5_(ptr noundef nonnull align 8 dereferenceable(8) %ref.tmp6, i32 noundef 1, ptr noundef @.str.3, i32 noundef 281, ptr noundef %call10)
          to label %invoke.cont12 unwind label %lpad11

invoke.cont12:                                    ; preds = %invoke.cont9
  invoke void @_ZNK7testing8internal12AssertHelperaSERKNS_7MessageE(ptr noundef nonnull align 8 dereferenceable(8) %ref.tmp6, ptr noundef nonnull align 8 dereferenceable(8) %ref.tmp4)
          to label %invoke.cont14 unwind label %lpad13

invoke.cont14:                                    ; preds = %invoke.cont12
  call void @_ZN7testing8internal12AssertHelperD1Ev(ptr noundef nonnull align 8 dereferenceable(8) %ref.tmp6) #3
  call void @_ZNSt7__cxx1112basic_stringIcSt11char_traitsIcESaIcEED1Ev(ptr noundef nonnull align 8 dereferenceable(32) %ref.tmp7) #3
  call void @_ZN7testing7MessageD2Ev(ptr noundef nonnull align 8 dereferenceable(8) %ref.tmp4) #3
  br label %if.end

lpad8:                                            ; preds = %invoke.cont5
  %3 = landingpad { ptr, i32 }
          cleanup
  %4 = extractvalue { ptr, i32 } %3, 0
  store ptr %4, ptr %exn.slot, align 8
  %5 = extractvalue { ptr, i32 } %3, 1
  store i32 %5, ptr %ehselector.slot, align 4
  br label %ehcleanup15

lpad11:                                           ; preds = %invoke.cont9
  %6 = landingpad { ptr, i32 }
          cleanup
  %7 = extractvalue { ptr, i32 } %6, 0
  store ptr %7, ptr %exn.slot, align 8
  %8 = extractvalue { ptr, i32 } %6, 1
  store i32 %8, ptr %ehselector.slot, align 4
  br label %ehcleanup

lpad13:                                           ; preds = %invoke.cont12
  %9 = landingpad { ptr, i32 }
          cleanup
  %10 = extractvalue { ptr, i32 } %9, 0
  store ptr %10, ptr %exn.slot, align 8
  %11 = extractvalue { ptr, i32 } %9, 1
  store i32 %11, ptr %ehselector.slot, align 4
  call void @_ZN7testing8internal12AssertHelperD1Ev(ptr noundef nonnull align 8 dereferenceable(8) %ref.tmp6) #3
  br label %ehcleanup

ehcleanup:                                        ; preds = %lpad13, %lpad11
  call void @_ZNSt7__cxx1112basic_stringIcSt11char_traitsIcESaIcEED1Ev(ptr noundef nonnull align 8 dereferenceable(32) %ref.tmp7) #3
  br label %ehcleanup15

ehcleanup15:                                      ; preds = %ehcleanup, %lpad8
  call void @_ZN7testing7MessageD2Ev(ptr noundef nonnull align 8 dereferenceable(8) %ref.tmp4) #3
  br label %ehcleanup16

if.end:                                           ; preds = %invoke.cont14, %if.then
  call void @_ZN7testing15AssertionResultD2Ev(ptr noundef nonnull align 8 dereferenceable(16) %gtest_ar_) #3
  %call17 = call noundef ptr @_ZNK3gsl8not_nullIP9MyDerivedE3getEv(ptr noundef nonnull align 8 dereferenceable(8) %p) #3
  call void @_ZN3gsl8not_nullIP9UnrelatedEC2IvEES2_(ptr noundef nonnull align 8 dereferenceable(8) %t, ptr noundef %call17) #3
  %call20 = call noundef ptr @_ZNK3gsl8not_nullIP9MyDerivedE3getEv(ptr noundef nonnull align 8 dereferenceable(8) %p) #3
  %call21 = call noundef ptr @_ZNK3gsl8not_nullIP9UnrelatedE3getEv(ptr noundef nonnull align 8 dereferenceable(8) %t) #3
  %cmp = icmp eq ptr %call20, %call21
  %frombool22 = zext i1 %cmp to i8
  store i8 %frombool22, ptr %ref.tmp19, align 1
  call void @_ZN7testing15AssertionResultC2IbEERKT_PNSt9enable_ifIXntsr3std14is_convertibleIS2_S0_EE5valueEvE4typeE(ptr noundef nonnull align 8 dereferenceable(16) %gtest_ar_18, ptr noundef nonnull align 1 dereferenceable(1) %ref.tmp19, ptr noundef null)
  %call25 = invoke noundef zeroext i1 @_ZNK7testing15AssertionResultcvbEv(ptr noundef nonnull align 8 dereferenceable(16) %gtest_ar_18)
          to label %invoke.cont24 unwind label %lpad23

invoke.cont24:                                    ; preds = %if.end
  br i1 %call25, label %if.then26, label %if.else27

if.then26:                                        ; preds = %invoke.cont24
  br label %if.end42

ehcleanup16:                                      ; preds = %ehcleanup15, %lpad
  call void @_ZN7testing15AssertionResultD2Ev(ptr noundef nonnull align 8 dereferenceable(16) %gtest_ar_) #3
  br label %eh.resume

lpad23:                                           ; preds = %if.else27, %if.end
  %12 = landingpad { ptr, i32 }
          cleanup
  %13 = extractvalue { ptr, i32 } %12, 0
  store ptr %13, ptr %exn.slot, align 8
  %14 = extractvalue { ptr, i32 } %12, 1
  store i32 %14, ptr %ehselector.slot, align 4
  br label %ehcleanup43

if.else27:                                        ; preds = %invoke.cont24
  invoke void @_ZN7testing7MessageC1Ev(ptr noundef nonnull align 8 dereferenceable(8) %ref.tmp28)
          to label %invoke.cont29 unwind label %lpad23

invoke.cont29:                                    ; preds = %if.else27
  invoke void @_ZN7testing8internal30GetBoolAssertionFailureMessageB5cxx11ERKNS_15AssertionResultEPKcS5_S5_(ptr sret(%"class.std::__cxx11::basic_string") align 8 %ref.tmp31, ptr noundef nonnull align 8 dereferenceable(16) %gtest_ar_18, ptr noundef @.str.19, ptr noundef @.str.5, ptr noundef @.str.6)
          to label %invoke.cont33 unwind label %lpad32

invoke.cont33:                                    ; preds = %invoke.cont29
  %call34 = call noundef ptr @_ZNKSt7__cxx1112basic_stringIcSt11char_traitsIcESaIcEE5c_strEv(ptr noundef nonnull align 8 dereferenceable(32) %ref.tmp31) #3
  invoke void @_ZN7testing8internal12AssertHelperC1ENS_14TestPartResult4TypeEPKciS5_(ptr noundef nonnull align 8 dereferenceable(8) %ref.tmp30, i32 noundef 1, ptr noundef @.str.3, i32 noundef 291, ptr noundef %call34)
          to label %invoke.cont36 unwind label %lpad35

invoke.cont36:                                    ; preds = %invoke.cont33
  invoke void @_ZNK7testing8internal12AssertHelperaSERKNS_7MessageE(ptr noundef nonnull align 8 dereferenceable(8) %ref.tmp30, ptr noundef nonnull align 8 dereferenceable(8) %ref.tmp28)
          to label %invoke.cont38 unwind label %lpad37

invoke.cont38:                                    ; preds = %invoke.cont36
  call void @_ZN7testing8internal12AssertHelperD1Ev(ptr noundef nonnull align 8 dereferenceable(8) %ref.tmp30) #3
  call void @_ZNSt7__cxx1112basic_stringIcSt11char_traitsIcESaIcEED1Ev(ptr noundef nonnull align 8 dereferenceable(32) %ref.tmp31) #3
  call void @_ZN7testing7MessageD2Ev(ptr noundef nonnull align 8 dereferenceable(8) %ref.tmp28) #3
  br label %if.end42

lpad32:                                           ; preds = %invoke.cont29
  %15 = landingpad { ptr, i32 }
          cleanup
  %16 = extractvalue { ptr, i32 } %15, 0
  store ptr %16, ptr %exn.slot, align 8
  %17 = extractvalue { ptr, i32 } %15, 1
  store i32 %17, ptr %ehselector.slot, align 4
  br label %ehcleanup41

lpad35:                                           ; preds = %invoke.cont33
  %18 = landingpad { ptr, i32 }
          cleanup
  %19 = extractvalue { ptr, i32 } %18, 0
  store ptr %19, ptr %exn.slot, align 8
  %20 = extractvalue { ptr, i32 } %18, 1
  store i32 %20, ptr %ehselector.slot, align 4
  br label %ehcleanup40

lpad37:                                           ; preds = %invoke.cont36
  %21 = landingpad { ptr, i32 }
          cleanup
  %22 = extractvalue { ptr, i32 } %21, 0
  store ptr %22, ptr %exn.slot, align 8
  %23 = extractvalue { ptr, i32 } %21, 1
  store i32 %23, ptr %ehselector.slot, align 4
  call void @_ZN7testing8internal12AssertHelperD1Ev(ptr noundef nonnull align 8 dereferenceable(8) %ref.tmp30) #3
  br label %ehcleanup40

ehcleanup40:                                      ; preds = %lpad37, %lpad35
  call void @_ZNSt7__cxx1112basic_stringIcSt11char_traitsIcESaIcEED1Ev(ptr noundef nonnull align 8 dereferenceable(32) %ref.tmp31) #3
  br label %ehcleanup41

ehcleanup41:                                      ; preds = %ehcleanup40, %lpad32
  call void @_ZN7testing7MessageD2Ev(ptr noundef nonnull align 8 dereferenceable(8) %ref.tmp28) #3
  br label %ehcleanup43

if.end42:                                         ; preds = %invoke.cont38, %if.then26
  call void @_ZN7testing15AssertionResultD2Ev(ptr noundef nonnull align 8 dereferenceable(16) %gtest_ar_18) #3
  ret void

ehcleanup43:                                      ; preds = %ehcleanup41, %lpad23
  call void @_ZN7testing15AssertionResultD2Ev(ptr noundef nonnull align 8 dereferenceable(16) %gtest_ar_18) #3
  br label %eh.resume

eh.resume:                                        ; preds = %ehcleanup43, %ehcleanup16
  %exn = load ptr, ptr %exn.slot, align 8
  %sel = load i32, ptr %ehselector.slot, align 4
  %lpad.val = insertvalue { ptr, i32 } poison, ptr %exn, 0
  %lpad.val44 = insertvalue { ptr, i32 } %lpad.val, i32 %sel, 1
  resume { ptr, i32 } %lpad.val44
}

; Function Attrs: mustprogress nounwind uwtable
define linkonce_odr dso_local void @_ZN3gsl8not_nullIP9UnrelatedEC2IvEES2_(ptr noundef nonnull align 8 dereferenceable(8) %this, ptr noundef %u) unnamed_addr #7 comdat align 2 {
entry:
  %this.addr = alloca ptr, align 8
  %u.addr = alloca ptr, align 8
  store ptr %this, ptr %this.addr, align 8
  store ptr %u, ptr %u.addr, align 8
  %this1 = load ptr, ptr %this.addr, align 8
  %ptr_ = getelementptr inbounds %"class.gsl::not_null.22", ptr %this1, i32 0, i32 0
  %0 = load ptr, ptr %u.addr, align 8
  store ptr %0, ptr %ptr_, align 8
  %ptr_2 = getelementptr inbounds %"class.gsl::not_null.22", ptr %this1, i32 0, i32 0
  %1 = load ptr, ptr %ptr_2, align 8
  %cmp = icmp ne ptr %1, null
  %lnot = xor i1 %cmp, true
  %lnot3 = xor i1 %lnot, true
  br i1 %lnot3, label %cond.true, label %cond.false

cond.true:                                        ; preds = %entry
  br label %cond.end

cond.false:                                       ; preds = %entry
  call void @_ZN3gsl7details9terminateEv() #18
  unreachable

2:                                                ; No predecessors!
  br label %cond.end

cond.end:                                         ; preds = %2, %cond.true
  ret void
}

; Function Attrs: mustprogress nounwind uwtable
define linkonce_odr dso_local void @_ZN3gsl8not_nullIP9MyDerivedEC2IvEES2_(ptr noundef nonnull align 8 dereferenceable(8) %this, ptr noundef %u) unnamed_addr #7 comdat align 2 {
entry:
  %this.addr = alloca ptr, align 8
  %u.addr = alloca ptr, align 8
  store ptr %this, ptr %this.addr, align 8
  store ptr %u, ptr %u.addr, align 8
  %this1 = load ptr, ptr %this.addr, align 8
  %ptr_ = getelementptr inbounds %"class.gsl::not_null.23", ptr %this1, i32 0, i32 0
  %0 = load ptr, ptr %u.addr, align 8
  store ptr %0, ptr %ptr_, align 8
  %ptr_2 = getelementptr inbounds %"class.gsl::not_null.23", ptr %this1, i32 0, i32 0
  %1 = load ptr, ptr %ptr_2, align 8
  %cmp = icmp ne ptr %1, null
  %lnot = xor i1 %cmp, true
  %lnot3 = xor i1 %lnot, true
  br i1 %lnot3, label %cond.true, label %cond.false

cond.true:                                        ; preds = %entry
  br label %cond.end

cond.false:                                       ; preds = %entry
  call void @_ZN3gsl7details9terminateEv() #18
  unreachable

2:                                                ; No predecessors!
  br label %cond.end

cond.end:                                         ; preds = %2, %cond.true
  ret void
}

; Function Attrs: mustprogress nounwind uwtable
define linkonce_odr dso_local void @_ZN3gsl8not_nullIP6MyBaseEC2IvEES2_(ptr noundef nonnull align 8 dereferenceable(8) %this, ptr noundef %u) unnamed_addr #7 comdat align 2 {
entry:
  %this.addr = alloca ptr, align 8
  %u.addr = alloca ptr, align 8
  store ptr %this, ptr %this.addr, align 8
  store ptr %u, ptr %u.addr, align 8
  %this1 = load ptr, ptr %this.addr, align 8
  %ptr_ = getelementptr inbounds %"class.gsl::not_null.24", ptr %this1, i32 0, i32 0
  %0 = load ptr, ptr %u.addr, align 8
  store ptr %0, ptr %ptr_, align 8
  %ptr_2 = getelementptr inbounds %"class.gsl::not_null.24", ptr %this1, i32 0, i32 0
  %1 = load ptr, ptr %ptr_2, align 8
  %cmp = icmp ne ptr %1, null
  %lnot = xor i1 %cmp, true
  %lnot3 = xor i1 %lnot, true
  br i1 %lnot3, label %cond.true, label %cond.false

cond.true:                                        ; preds = %entry
  br label %cond.end

cond.false:                                       ; preds = %entry
  call void @_ZN3gsl7details9terminateEv() #18
  unreachable

2:                                                ; No predecessors!
  br label %cond.end

cond.end:                                         ; preds = %2, %cond.true
  ret void
}

; Function Attrs: mustprogress nounwind uwtable
define linkonce_odr dso_local void @_ZN3gsl8not_nullIP6MyBaseEC2IRNS0_IP9MyDerivedEEvEEOT_(ptr noundef nonnull align 8 dereferenceable(8) %this, ptr noundef nonnull align 8 dereferenceable(8) %u) unnamed_addr #7 comdat align 2 personality ptr @__gxx_personality_v0 {
entry:
  %this.addr = alloca ptr, align 8
  %u.addr = alloca ptr, align 8
  store ptr %this, ptr %this.addr, align 8
  store ptr %u, ptr %u.addr, align 8
  %this1 = load ptr, ptr %this.addr, align 8
  %ptr_ = getelementptr inbounds %"class.gsl::not_null.24", ptr %this1, i32 0, i32 0
  %0 = load ptr, ptr %u.addr, align 8
  %call = invoke noundef ptr @_ZNK3gsl8not_nullIP9MyDerivedEcvS2_Ev(ptr noundef nonnull align 8 dereferenceable(8) %0)
          to label %invoke.cont unwind label %terminate.lpad

invoke.cont:                                      ; preds = %entry
  store ptr %call, ptr %ptr_, align 8
  %ptr_2 = getelementptr inbounds %"class.gsl::not_null.24", ptr %this1, i32 0, i32 0
  %1 = load ptr, ptr %ptr_2, align 8
  %cmp = icmp ne ptr %1, null
  %lnot = xor i1 %cmp, true
  %lnot3 = xor i1 %lnot, true
  br i1 %lnot3, label %cond.true, label %cond.false

cond.true:                                        ; preds = %invoke.cont
  br label %cond.end

cond.false:                                       ; preds = %invoke.cont
  call void @_ZN3gsl7details9terminateEv() #18
  unreachable

2:                                                ; No predecessors!
  br label %cond.end

cond.end:                                         ; preds = %2, %cond.true
  ret void

terminate.lpad:                                   ; preds = %entry
  %3 = landingpad { ptr, i32 }
          catch ptr null
  %4 = extractvalue { ptr, i32 } %3, 0
  call void @__clang_call_terminate(ptr %4) #18
  unreachable
}

; Function Attrs: nocallback nofree nounwind willreturn memory(argmem: readwrite)
declare void @llvm.memcpy.p0.p0.i64(ptr noalias nocapture writeonly, ptr noalias nocapture readonly, i64, i1 immarg) #10

; Function Attrs: mustprogress nounwind uwtable
define linkonce_odr dso_local noundef zeroext i1 @_ZN3gsleqIP6MyBaseP9MyDerivedEEDTeqcldtfp_3getEcldtfp0_3getEERKNS_8not_nullIT_EERKNS6_IT0_EE(ptr noundef nonnull align 8 dereferenceable(8) %lhs, ptr noundef nonnull align 8 dereferenceable(8) %rhs) #7 comdat {
entry:
  %lhs.addr = alloca ptr, align 8
  %rhs.addr = alloca ptr, align 8
  store ptr %lhs, ptr %lhs.addr, align 8
  store ptr %rhs, ptr %rhs.addr, align 8
  %0 = load ptr, ptr %lhs.addr, align 8
  %call = call noundef ptr @_ZNK3gsl8not_nullIP6MyBaseE3getEv(ptr noundef nonnull align 8 dereferenceable(8) %0) #3
  %1 = load ptr, ptr %rhs.addr, align 8
  %call1 = call noundef ptr @_ZNK3gsl8not_nullIP9MyDerivedE3getEv(ptr noundef nonnull align 8 dereferenceable(8) %1) #3
  %cmp = icmp eq ptr %call, %call1
  ret i1 %cmp
}

; Function Attrs: mustprogress nounwind uwtable
define linkonce_odr dso_local noundef ptr @_ZNK3gsl8not_nullIP9MyDerivedE3getEv(ptr noundef nonnull align 8 dereferenceable(8) %this) #7 comdat align 2 {
entry:
  %this.addr = alloca ptr, align 8
  store ptr %this, ptr %this.addr, align 8
  %this1 = load ptr, ptr %this.addr, align 8
  %ptr_ = getelementptr inbounds %"class.gsl::not_null.23", ptr %this1, i32 0, i32 0
  %0 = load ptr, ptr %ptr_, align 8
  ret ptr %0
}

; Function Attrs: mustprogress nounwind uwtable
define linkonce_odr dso_local noundef ptr @_ZNK3gsl8not_nullIP9UnrelatedE3getEv(ptr noundef nonnull align 8 dereferenceable(8) %this) #7 comdat align 2 {
entry:
  %this.addr = alloca ptr, align 8
  store ptr %this, ptr %this.addr, align 8
  %this1 = load ptr, ptr %this.addr, align 8
  %ptr_ = getelementptr inbounds %"class.gsl::not_null.22", ptr %this1, i32 0, i32 0
  %0 = load ptr, ptr %ptr_, align 8
  ret ptr %0
}

; Function Attrs: uwtable
define internal void @__cxx_global_var_init.20() #0 section ".text.startup" personality ptr @__gxx_personality_v0 {
entry:
  %agg.tmp = alloca %"struct.testing::internal::CodeLocation", align 8
  %ref.tmp = alloca %"class.std::__cxx11::basic_string", align 8
  %ref.tmp1 = alloca %"class.std::allocator", align 1
  %exn.slot = alloca ptr, align 8
  %ehselector.slot = alloca i32, align 4
  call void @_ZNSaIcEC1Ev(ptr noundef nonnull align 1 dereferenceable(1) %ref.tmp1) #3
  invoke void @_ZNSt7__cxx1112basic_stringIcSt11char_traitsIcESaIcEEC1EPKcRKS3_(ptr noundef nonnull align 8 dereferenceable(32) %ref.tmp, ptr noundef @.str.3, ptr noundef nonnull align 1 dereferenceable(1) %ref.tmp1)
          to label %invoke.cont unwind label %lpad

invoke.cont:                                      ; preds = %entry
  invoke void @_ZN7testing8internal12CodeLocationC2ERKNSt7__cxx1112basic_stringIcSt11char_traitsIcESaIcEEEi(ptr noundef nonnull align 8 dereferenceable(36) %agg.tmp, ptr noundef nonnull align 8 dereferenceable(32) %ref.tmp, i32 noundef 294)
          to label %invoke.cont3 unwind label %lpad2

invoke.cont3:                                     ; preds = %invoke.cont
  %call = invoke noundef ptr @_ZN7testing8internal13GetTestTypeIdEv()
          to label %invoke.cont5 unwind label %lpad4

invoke.cont5:                                     ; preds = %invoke.cont3
  %call7 = invoke noundef ptr @_ZN7testing8internal16SuiteApiResolverINS_4TestEE19GetSetUpCaseOrSuiteEPKci(ptr noundef @.str.3, i32 noundef 294)
          to label %invoke.cont6 unwind label %lpad4

invoke.cont6:                                     ; preds = %invoke.cont5
  %call9 = invoke noundef ptr @_ZN7testing8internal16SuiteApiResolverINS_4TestEE22GetTearDownCaseOrSuiteEPKci(ptr noundef @.str.3, i32 noundef 294)
          to label %invoke.cont8 unwind label %lpad4

invoke.cont8:                                     ; preds = %invoke.cont6
  %call11 = invoke noalias noundef nonnull ptr @_Znwm(i64 noundef 8) #16
          to label %invoke.cont10 unwind label %lpad4

invoke.cont10:                                    ; preds = %invoke.cont8
  invoke void @_ZN7testing8internal15TestFactoryImplI40notnull_tests_TestNotNullAssignment_TestEC2Ev(ptr noundef nonnull align 8 dereferenceable(8) %call11)
          to label %invoke.cont13 unwind label %lpad12

invoke.cont13:                                    ; preds = %invoke.cont10
  %call15 = invoke noundef ptr @_ZN7testing8internal23MakeAndRegisterTestInfoEPKcS2_S2_S2_NS0_12CodeLocationEPKvPFvvES7_PNS0_15TestFactoryBaseE(ptr noundef @.str, ptr noundef @.str.21, ptr noundef null, ptr noundef null, ptr noundef %agg.tmp, ptr noundef %call, ptr noundef %call7, ptr noundef %call9, ptr noundef %call11)
          to label %invoke.cont14 unwind label %lpad4

invoke.cont14:                                    ; preds = %invoke.cont13
  call void @_ZN7testing8internal12CodeLocationD2Ev(ptr noundef nonnull align 8 dereferenceable(36) %agg.tmp) #3
  call void @_ZNSt7__cxx1112basic_stringIcSt11char_traitsIcESaIcEED1Ev(ptr noundef nonnull align 8 dereferenceable(32) %ref.tmp) #3
  call void @_ZNSaIcED1Ev(ptr noundef nonnull align 1 dereferenceable(1) %ref.tmp1) #3
  store ptr %call15, ptr @_ZN40notnull_tests_TestNotNullAssignment_Test10test_info_E, align 8
  ret void

lpad:                                             ; preds = %entry
  %0 = landingpad { ptr, i32 }
          cleanup
  %1 = extractvalue { ptr, i32 } %0, 0
  store ptr %1, ptr %exn.slot, align 8
  %2 = extractvalue { ptr, i32 } %0, 1
  store i32 %2, ptr %ehselector.slot, align 4
  br label %ehcleanup17

lpad2:                                            ; preds = %invoke.cont
  %3 = landingpad { ptr, i32 }
          cleanup
  %4 = extractvalue { ptr, i32 } %3, 0
  store ptr %4, ptr %exn.slot, align 8
  %5 = extractvalue { ptr, i32 } %3, 1
  store i32 %5, ptr %ehselector.slot, align 4
  br label %ehcleanup16

lpad4:                                            ; preds = %invoke.cont13, %invoke.cont8, %invoke.cont6, %invoke.cont5, %invoke.cont3
  %6 = landingpad { ptr, i32 }
          cleanup
  %7 = extractvalue { ptr, i32 } %6, 0
  store ptr %7, ptr %exn.slot, align 8
  %8 = extractvalue { ptr, i32 } %6, 1
  store i32 %8, ptr %ehselector.slot, align 4
  br label %ehcleanup

lpad12:                                           ; preds = %invoke.cont10
  %9 = landingpad { ptr, i32 }
          cleanup
  %10 = extractvalue { ptr, i32 } %9, 0
  store ptr %10, ptr %exn.slot, align 8
  %11 = extractvalue { ptr, i32 } %9, 1
  store i32 %11, ptr %ehselector.slot, align 4
  call void @_ZdlPv(ptr noundef %call11) #17
  br label %ehcleanup

ehcleanup:                                        ; preds = %lpad12, %lpad4
  call void @_ZN7testing8internal12CodeLocationD2Ev(ptr noundef nonnull align 8 dereferenceable(36) %agg.tmp) #3
  br label %ehcleanup16

ehcleanup16:                                      ; preds = %ehcleanup, %lpad2
  call void @_ZNSt7__cxx1112basic_stringIcSt11char_traitsIcESaIcEED1Ev(ptr noundef nonnull align 8 dereferenceable(32) %ref.tmp) #3
  br label %ehcleanup17

ehcleanup17:                                      ; preds = %ehcleanup16, %lpad
  call void @_ZNSaIcED1Ev(ptr noundef nonnull align 1 dereferenceable(1) %ref.tmp1) #3
  br label %eh.resume

eh.resume:                                        ; preds = %ehcleanup17
  %exn = load ptr, ptr %exn.slot, align 8
  %sel = load i32, ptr %ehselector.slot, align 4
  %lpad.val = insertvalue { ptr, i32 } poison, ptr %exn, 0
  %lpad.val18 = insertvalue { ptr, i32 } %lpad.val, i32 %sel, 1
  resume { ptr, i32 } %lpad.val18
}

; Function Attrs: mustprogress nounwind uwtable
define linkonce_odr dso_local void @_ZN7testing8internal15TestFactoryImplI40notnull_tests_TestNotNullAssignment_TestEC2Ev(ptr noundef nonnull align 8 dereferenceable(8) %this) unnamed_addr #7 comdat align 2 {
entry:
  %this.addr = alloca ptr, align 8
  store ptr %this, ptr %this.addr, align 8
  %this1 = load ptr, ptr %this.addr, align 8
  call void @_ZN7testing8internal15TestFactoryBaseC2Ev(ptr noundef nonnull align 8 dereferenceable(8) %this1)
  store ptr getelementptr inbounds ({ [5 x ptr] }, ptr @_ZTVN7testing8internal15TestFactoryImplI40notnull_tests_TestNotNullAssignment_TestEE, i32 0, inrange i32 0, i32 2), ptr %this1, align 8
  ret void
}

; Function Attrs: mustprogress uwtable
define dso_local void @_ZN40notnull_tests_TestNotNullAssignment_Test8TestBodyEv(ptr noundef nonnull align 8 dereferenceable(16) %this) unnamed_addr #4 align 2 personality ptr @__gxx_personality_v0 {
entry:
  %this.addr = alloca ptr, align 8
  %terminateHandler = alloca ptr, align 8
  %ref.tmp = alloca %class.anon.26, align 1
  %expected = alloca ptr, align 8
  %i = alloca i32, align 4
  %p = alloca %"class.gsl::not_null", align 8
  %gtest_ar_ = alloca %"class.testing::AssertionResult", align 8
  %ref.tmp4 = alloca i8, align 1
  %agg.tmp = alloca %"class.gsl::not_null", align 8
  %exn.slot = alloca ptr, align 8
  %ehselector.slot = alloca i32, align 4
  %ref.tmp7 = alloca %"class.testing::Message", align 8
  %ref.tmp9 = alloca %"class.testing::internal::AssertHelper", align 8
  %ref.tmp10 = alloca %"class.std::__cxx11::basic_string", align 8
  %q = alloca ptr, align 8
  %gtest_dt = alloca ptr, align 8
  %agg.tmp22 = alloca %"class.testing::Matcher", align 8
  %gtest_dt_ptr = alloca %"class.std::unique_ptr.11", align 8
  %gtest_sentinel = alloca %"class.testing::internal::DeathTest::ReturnSentinel", align 8
  %ref.tmp51 = alloca %"class.gsl::not_null", align 8
  %gtest_exception = alloca ptr, align 8
  %ref.tmp64 = alloca %"class.std::__cxx11::basic_string", align 8
  %cleanup.dest.slot = alloca i32, align 4
  %ref.tmp90 = alloca %"class.testing::Message", align 8
  %ref.tmp91 = alloca %"class.testing::internal::AssertHelper", align 8
  store ptr %this, ptr %this.addr, align 8
  %call = call noundef ptr @"_ZZN40notnull_tests_TestNotNullAssignment_Test8TestBodyEvENK3$_0cvPFvvEEv"(ptr noundef nonnull align 1 dereferenceable(1) %ref.tmp) #3
  %call2 = call noundef ptr @_ZSt13set_terminatePFvvE(ptr noundef %call) #3
  store ptr %call2, ptr %terminateHandler, align 8
  %0 = load ptr, ptr %terminateHandler, align 8
  %call3 = call noundef ptr @_Z22GetExpectedDeathStringPFvvE(ptr noundef %0)
  store ptr %call3, ptr %expected, align 8
  store i32 12, ptr %i, align 4
  call void @_ZN3gsl8not_nullIPiEC2IvEES1_(ptr noundef nonnull align 8 dereferenceable(8) %p, ptr noundef %i) #3
  call void @_ZN3gsl8not_nullIPiEC2IRS2_vEEOT_(ptr noundef nonnull align 8 dereferenceable(8) %agg.tmp, ptr noundef nonnull align 8 dereferenceable(8) %p) #3
  %coerce.dive = getelementptr inbounds %"class.gsl::not_null", ptr %agg.tmp, i32 0, i32 0
  %1 = load ptr, ptr %coerce.dive, align 8
  %call5 = call noundef zeroext i1 @_ZN12_GLOBAL__N_16helperEN3gsl8not_nullIPiEE(ptr %1)
  %frombool = zext i1 %call5 to i8
  store i8 %frombool, ptr %ref.tmp4, align 1
  call void @_ZN7testing15AssertionResultC2IbEERKT_PNSt9enable_ifIXntsr3std14is_convertibleIS2_S0_EE5valueEvE4typeE(ptr noundef nonnull align 8 dereferenceable(16) %gtest_ar_, ptr noundef nonnull align 1 dereferenceable(1) %ref.tmp4, ptr noundef null)
  %call6 = invoke noundef zeroext i1 @_ZNK7testing15AssertionResultcvbEv(ptr noundef nonnull align 8 dereferenceable(16) %gtest_ar_)
          to label %invoke.cont unwind label %lpad

invoke.cont:                                      ; preds = %entry
  br i1 %call6, label %if.then, label %if.else

if.then:                                          ; preds = %invoke.cont
  br label %if.end

lpad:                                             ; preds = %if.else, %entry
  %2 = landingpad { ptr, i32 }
          cleanup
  %3 = extractvalue { ptr, i32 } %2, 0
  store ptr %3, ptr %exn.slot, align 8
  %4 = extractvalue { ptr, i32 } %2, 1
  store i32 %4, ptr %ehselector.slot, align 4
  br label %ehcleanup19

if.else:                                          ; preds = %invoke.cont
  invoke void @_ZN7testing7MessageC1Ev(ptr noundef nonnull align 8 dereferenceable(8) %ref.tmp7)
          to label %invoke.cont8 unwind label %lpad

invoke.cont8:                                     ; preds = %if.else
  invoke void @_ZN7testing8internal30GetBoolAssertionFailureMessageB5cxx11ERKNS_15AssertionResultEPKcS5_S5_(ptr sret(%"class.std::__cxx11::basic_string") align 8 %ref.tmp10, ptr noundef nonnull align 8 dereferenceable(16) %gtest_ar_, ptr noundef @.str.22, ptr noundef @.str.5, ptr noundef @.str.6)
          to label %invoke.cont12 unwind label %lpad11

invoke.cont12:                                    ; preds = %invoke.cont8
  %call13 = call noundef ptr @_ZNKSt7__cxx1112basic_stringIcSt11char_traitsIcESaIcEE5c_strEv(ptr noundef nonnull align 8 dereferenceable(32) %ref.tmp10) #3
  invoke void @_ZN7testing8internal12AssertHelperC1ENS_14TestPartResult4TypeEPKciS5_(ptr noundef nonnull align 8 dereferenceable(8) %ref.tmp9, i32 noundef 1, ptr noundef @.str.3, i32 noundef 304, ptr noundef %call13)
          to label %invoke.cont15 unwind label %lpad14

invoke.cont15:                                    ; preds = %invoke.cont12
  invoke void @_ZNK7testing8internal12AssertHelperaSERKNS_7MessageE(ptr noundef nonnull align 8 dereferenceable(8) %ref.tmp9, ptr noundef nonnull align 8 dereferenceable(8) %ref.tmp7)
          to label %invoke.cont17 unwind label %lpad16

invoke.cont17:                                    ; preds = %invoke.cont15
  call void @_ZN7testing8internal12AssertHelperD1Ev(ptr noundef nonnull align 8 dereferenceable(8) %ref.tmp9) #3
  call void @_ZNSt7__cxx1112basic_stringIcSt11char_traitsIcESaIcEED1Ev(ptr noundef nonnull align 8 dereferenceable(32) %ref.tmp10) #3
  call void @_ZN7testing7MessageD2Ev(ptr noundef nonnull align 8 dereferenceable(8) %ref.tmp7) #3
  br label %if.end

lpad11:                                           ; preds = %invoke.cont8
  %5 = landingpad { ptr, i32 }
          cleanup
  %6 = extractvalue { ptr, i32 } %5, 0
  store ptr %6, ptr %exn.slot, align 8
  %7 = extractvalue { ptr, i32 } %5, 1
  store i32 %7, ptr %ehselector.slot, align 4
  br label %ehcleanup18

lpad14:                                           ; preds = %invoke.cont12
  %8 = landingpad { ptr, i32 }
          cleanup
  %9 = extractvalue { ptr, i32 } %8, 0
  store ptr %9, ptr %exn.slot, align 8
  %10 = extractvalue { ptr, i32 } %8, 1
  store i32 %10, ptr %ehselector.slot, align 4
  br label %ehcleanup

lpad16:                                           ; preds = %invoke.cont15
  %11 = landingpad { ptr, i32 }
          cleanup
  %12 = extractvalue { ptr, i32 } %11, 0
  store ptr %12, ptr %exn.slot, align 8
  %13 = extractvalue { ptr, i32 } %11, 1
  store i32 %13, ptr %ehselector.slot, align 4
  call void @_ZN7testing8internal12AssertHelperD1Ev(ptr noundef nonnull align 8 dereferenceable(8) %ref.tmp9) #3
  br label %ehcleanup

ehcleanup:                                        ; preds = %lpad16, %lpad14
  call void @_ZNSt7__cxx1112basic_stringIcSt11char_traitsIcESaIcEED1Ev(ptr noundef nonnull align 8 dereferenceable(32) %ref.tmp10) #3
  br label %ehcleanup18

ehcleanup18:                                      ; preds = %ehcleanup, %lpad11
  call void @_ZN7testing7MessageD2Ev(ptr noundef nonnull align 8 dereferenceable(8) %ref.tmp7) #3
  br label %ehcleanup19

if.end:                                           ; preds = %invoke.cont17, %if.then
  call void @_ZN7testing15AssertionResultD2Ev(ptr noundef nonnull align 8 dereferenceable(16) %gtest_ar_) #3
  store ptr null, ptr %q, align 8
  %call20 = call noundef zeroext i1 @_ZN7testing8internal10AlwaysTrueEv()
  br i1 %call20, label %if.then21, label %if.else89

if.then21:                                        ; preds = %if.end
  %14 = load ptr, ptr %expected, align 8
  call void @_ZN7testing8internal20MakeDeathTestMatcherB5cxx11EPKc(ptr sret(%"class.testing::Matcher") align 8 %agg.tmp22, ptr noundef %14)
  %call25 = invoke noundef zeroext i1 @_ZN7testing8internal9DeathTest6CreateEPKcNS_7MatcherIRKNSt7__cxx1112basic_stringIcSt11char_traitsIcESaIcEEEEES3_iPPS1_(ptr noundef @.str.23, ptr noundef %agg.tmp22, ptr noundef @.str.3, i32 noundef 307, ptr noundef %gtest_dt)
          to label %invoke.cont24 unwind label %lpad23

invoke.cont24:                                    ; preds = %if.then21
  %lnot = xor i1 %call25, true
  call void @_ZN7testing7MatcherIRKNSt7__cxx1112basic_stringIcSt11char_traitsIcESaIcEEEED2Ev(ptr noundef nonnull align 8 dereferenceable(24) %agg.tmp22) #3
  br i1 %lnot, label %if.then27, label %if.end28

if.then27:                                        ; preds = %invoke.cont24
  br label %gtest_label_307

ehcleanup19:                                      ; preds = %ehcleanup18, %lpad
  call void @_ZN7testing15AssertionResultD2Ev(ptr noundef nonnull align 8 dereferenceable(16) %gtest_ar_) #3
  br label %eh.resume

lpad23:                                           ; preds = %if.then21
  %15 = landingpad { ptr, i32 }
          cleanup
  %16 = extractvalue { ptr, i32 } %15, 0
  store ptr %16, ptr %exn.slot, align 8
  %17 = extractvalue { ptr, i32 } %15, 1
  store i32 %17, ptr %ehselector.slot, align 4
  call void @_ZN7testing7MatcherIRKNSt7__cxx1112basic_stringIcSt11char_traitsIcESaIcEEEED2Ev(ptr noundef nonnull align 8 dereferenceable(24) %agg.tmp22) #3
  br label %eh.resume

if.end28:                                         ; preds = %invoke.cont24
  %18 = load ptr, ptr %gtest_dt, align 8
  %cmp = icmp ne ptr %18, null
  br i1 %cmp, label %if.then29, label %if.end88

if.then29:                                        ; preds = %if.end28
  %19 = load ptr, ptr %gtest_dt, align 8
  call void @_ZNSt10unique_ptrIN7testing8internal9DeathTestESt14default_deleteIS2_EEC2IS4_vEEPS2_(ptr noundef nonnull align 8 dereferenceable(8) %gtest_dt_ptr, ptr noundef %19) #3
  %20 = load ptr, ptr %gtest_dt, align 8
  %vtable = load ptr, ptr %20, align 8
  %vfn = getelementptr inbounds ptr, ptr %vtable, i64 2
  %21 = load ptr, ptr %vfn, align 8
  %call32 = invoke noundef i32 %21(ptr noundef nonnull align 8 dereferenceable(8) %20)
          to label %invoke.cont31 unwind label %lpad30

invoke.cont31:                                    ; preds = %if.then29
  switch i32 %call32, label %sw.default [
    i32 0, label %sw.bb
    i32 1, label %sw.bb45
  ]

lpad30:                                           ; preds = %sw.bb45, %invoke.cont37, %invoke.cont35, %sw.bb, %if.then29
  %22 = landingpad { ptr, i32 }
          cleanup
  %23 = extractvalue { ptr, i32 } %22, 0
  store ptr %23, ptr %exn.slot, align 8
  %24 = extractvalue { ptr, i32 } %22, 1
  store i32 %24, ptr %ehselector.slot, align 4
  br label %ehcleanup87

sw.bb:                                            ; preds = %invoke.cont31
  %25 = load ptr, ptr %gtest_dt, align 8
  %26 = load ptr, ptr %gtest_dt, align 8
  %vtable33 = load ptr, ptr %26, align 8
  %vfn34 = getelementptr inbounds ptr, ptr %vtable33, i64 3
  %27 = load ptr, ptr %vfn34, align 8
  %call36 = invoke noundef i32 %27(ptr noundef nonnull align 8 dereferenceable(8) %26)
          to label %invoke.cont35 unwind label %lpad30

invoke.cont35:                                    ; preds = %sw.bb
  %call38 = invoke noundef zeroext i1 @_ZN7testing8internal20ExitedUnsuccessfullyEi(i32 noundef %call36)
          to label %invoke.cont37 unwind label %lpad30

invoke.cont37:                                    ; preds = %invoke.cont35
  %vtable39 = load ptr, ptr %25, align 8
  %vfn40 = getelementptr inbounds ptr, ptr %vtable39, i64 4
  %28 = load ptr, ptr %vfn40, align 8
  %call42 = invoke noundef zeroext i1 %28(ptr noundef nonnull align 8 dereferenceable(8) %25, i1 noundef zeroext %call38)
          to label %invoke.cont41 unwind label %lpad30

invoke.cont41:                                    ; preds = %invoke.cont37
  br i1 %call42, label %if.end44, label %if.then43

if.then43:                                        ; preds = %invoke.cont41
  store i32 2, ptr %cleanup.dest.slot, align 4
  br label %cleanup

if.end44:                                         ; preds = %invoke.cont41
  br label %sw.epilog

sw.bb45:                                          ; preds = %invoke.cont31
  %29 = load ptr, ptr %gtest_dt, align 8
  invoke void @_ZN7testing8internal9DeathTest14ReturnSentinelC2EPS1_(ptr noundef nonnull align 8 dereferenceable(8) %gtest_sentinel, ptr noundef %29)
          to label %invoke.cont46 unwind label %lpad30

invoke.cont46:                                    ; preds = %sw.bb45
  %call49 = invoke noundef zeroext i1 @_ZN7testing8internal10AlwaysTrueEv()
          to label %invoke.cont48 unwind label %lpad47

invoke.cont48:                                    ; preds = %invoke.cont46
  br i1 %call49, label %if.then50, label %if.else52

if.then50:                                        ; preds = %invoke.cont48
  %30 = load ptr, ptr %q, align 8
  call void @_ZN3gsl8not_nullIPiEC2IvEES1_(ptr noundef nonnull align 8 dereferenceable(8) %ref.tmp51, ptr noundef %30) #3
  call void @llvm.memcpy.p0.p0.i64(ptr align 8 %p, ptr align 8 %ref.tmp51, i64 8, i1 false)
  br label %if.end53

lpad47:                                           ; preds = %invoke.cont46
  %31 = landingpad { ptr, i32 }
          catch ptr @_ZTISt9exception
          catch ptr null
  %32 = extractvalue { ptr, i32 } %31, 0
  store ptr %32, ptr %exn.slot, align 8
  %33 = extractvalue { ptr, i32 } %31, 1
  store i32 %33, ptr %ehselector.slot, align 4
  br label %catch.dispatch

catch.dispatch:                                   ; preds = %lpad47
  %sel = load i32, ptr %ehselector.slot, align 4
  %34 = call i32 @llvm.eh.typeid.for(ptr @_ZTISt9exception) #3
  %matches = icmp eq i32 %sel, %34
  br i1 %matches, label %catch62, label %catch

catch62:                                          ; preds = %catch.dispatch
  %exn63 = load ptr, ptr %exn.slot, align 8
  %35 = call ptr @__cxa_begin_catch(ptr %exn63) #3
  store ptr %35, ptr %gtest_exception, align 8
  %36 = load ptr, ptr @stderr, align 8
  invoke void @_ZN7testing8internal18FormatFileLocationB5cxx11EPKci(ptr sret(%"class.std::__cxx11::basic_string") align 8 %ref.tmp64, ptr noundef @.str.3, i32 noundef 307)
          to label %invoke.cont66 unwind label %lpad65

invoke.cont66:                                    ; preds = %catch62
  %call67 = call noundef ptr @_ZNKSt7__cxx1112basic_stringIcSt11char_traitsIcESaIcEE5c_strEv(ptr noundef nonnull align 8 dereferenceable(32) %ref.tmp64) #3
  %37 = load ptr, ptr %gtest_exception, align 8
  %vtable68 = load ptr, ptr %37, align 8
  %vfn69 = getelementptr inbounds ptr, ptr %vtable68, i64 2
  %38 = load ptr, ptr %vfn69, align 8
  %call70 = call noundef ptr %38(ptr noundef nonnull align 8 dereferenceable(8) %37) #3
  %call73 = invoke i32 (ptr, ptr, ...) @fprintf(ptr noundef %36, ptr noundef @.str.8, ptr noundef %call67, ptr noundef %call70)
          to label %invoke.cont72 unwind label %lpad71

invoke.cont72:                                    ; preds = %invoke.cont66
  call void @_ZNSt7__cxx1112basic_stringIcSt11char_traitsIcESaIcEED1Ev(ptr noundef nonnull align 8 dereferenceable(32) %ref.tmp64) #3
  %39 = load ptr, ptr @stderr, align 8
  %call76 = invoke i32 @fflush(ptr noundef %39)
          to label %invoke.cont75 unwind label %lpad65

invoke.cont75:                                    ; preds = %invoke.cont72
  %40 = load ptr, ptr %gtest_dt, align 8
  %vtable77 = load ptr, ptr %40, align 8
  %vfn78 = getelementptr inbounds ptr, ptr %vtable77, i64 5
  %41 = load ptr, ptr %vfn78, align 8
  invoke void %41(ptr noundef nonnull align 8 dereferenceable(8) %40, i32 noundef 1)
          to label %invoke.cont79 unwind label %lpad65

invoke.cont79:                                    ; preds = %invoke.cont75
  invoke void @__cxa_end_catch()
          to label %invoke.cont80 unwind label %lpad58

invoke.cont80:                                    ; preds = %invoke.cont79
  br label %try.cont

try.cont:                                         ; preds = %if.end53, %invoke.cont59, %invoke.cont80
  %42 = load ptr, ptr %gtest_dt, align 8
  %vtable83 = load ptr, ptr %42, align 8
  %vfn84 = getelementptr inbounds ptr, ptr %vtable83, i64 5
  %43 = load ptr, ptr %vfn84, align 8
  invoke void %43(ptr noundef nonnull align 8 dereferenceable(8) %42, i32 noundef 2)
          to label %invoke.cont85 unwind label %lpad58

invoke.cont85:                                    ; preds = %try.cont
  call void @_ZN7testing8internal9DeathTest14ReturnSentinelD2Ev(ptr noundef nonnull align 8 dereferenceable(8) %gtest_sentinel) #3
  br label %sw.epilog

catch:                                            ; preds = %catch.dispatch
  %exn = load ptr, ptr %exn.slot, align 8
  %44 = call ptr @__cxa_begin_catch(ptr %exn) #3
  %45 = load ptr, ptr %gtest_dt, align 8
  %vtable54 = load ptr, ptr %45, align 8
  %vfn55 = getelementptr inbounds ptr, ptr %vtable54, i64 5
  %46 = load ptr, ptr %vfn55, align 8
  invoke void %46(ptr noundef nonnull align 8 dereferenceable(8) %45, i32 noundef 1)
          to label %invoke.cont57 unwind label %lpad56

invoke.cont57:                                    ; preds = %catch
  invoke void @__cxa_end_catch()
          to label %invoke.cont59 unwind label %lpad58

invoke.cont59:                                    ; preds = %invoke.cont57
  br label %try.cont

if.else52:                                        ; preds = %invoke.cont48
  br label %if.end53

if.end53:                                         ; preds = %if.else52, %if.then50
  br label %try.cont

lpad56:                                           ; preds = %catch
  %47 = landingpad { ptr, i32 }
          cleanup
  %48 = extractvalue { ptr, i32 } %47, 0
  store ptr %48, ptr %exn.slot, align 8
  %49 = extractvalue { ptr, i32 } %47, 1
  store i32 %49, ptr %ehselector.slot, align 4
  invoke void @__cxa_end_catch()
          to label %invoke.cont61 unwind label %terminate.lpad

lpad58:                                           ; preds = %invoke.cont57, %try.cont, %invoke.cont79
  %50 = landingpad { ptr, i32 }
          cleanup
  %51 = extractvalue { ptr, i32 } %50, 0
  store ptr %51, ptr %exn.slot, align 8
  %52 = extractvalue { ptr, i32 } %50, 1
  store i32 %52, ptr %ehselector.slot, align 4
  br label %ehcleanup86

invoke.cont61:                                    ; preds = %lpad56
  br label %ehcleanup86

lpad65:                                           ; preds = %invoke.cont75, %invoke.cont72, %catch62
  %53 = landingpad { ptr, i32 }
          cleanup
  %54 = extractvalue { ptr, i32 } %53, 0
  store ptr %54, ptr %exn.slot, align 8
  %55 = extractvalue { ptr, i32 } %53, 1
  store i32 %55, ptr %ehselector.slot, align 4
  br label %ehcleanup81

lpad71:                                           ; preds = %invoke.cont66
  %56 = landingpad { ptr, i32 }
          cleanup
  %57 = extractvalue { ptr, i32 } %56, 0
  store ptr %57, ptr %exn.slot, align 8
  %58 = extractvalue { ptr, i32 } %56, 1
  store i32 %58, ptr %ehselector.slot, align 4
  call void @_ZNSt7__cxx1112basic_stringIcSt11char_traitsIcESaIcEED1Ev(ptr noundef nonnull align 8 dereferenceable(32) %ref.tmp64) #3
  br label %ehcleanup81

ehcleanup81:                                      ; preds = %lpad71, %lpad65
  invoke void @__cxa_end_catch()
          to label %invoke.cont82 unwind label %terminate.lpad

invoke.cont82:                                    ; preds = %ehcleanup81
  br label %ehcleanup86

ehcleanup86:                                      ; preds = %invoke.cont82, %invoke.cont61, %lpad58
  call void @_ZN7testing8internal9DeathTest14ReturnSentinelD2Ev(ptr noundef nonnull align 8 dereferenceable(8) %gtest_sentinel) #3
  br label %ehcleanup87

sw.default:                                       ; preds = %invoke.cont31
  br label %sw.epilog

sw.epilog:                                        ; preds = %sw.default, %invoke.cont85, %if.end44
  store i32 0, ptr %cleanup.dest.slot, align 4
  br label %cleanup

cleanup:                                          ; preds = %sw.epilog, %if.then43
  call void @_ZNSt10unique_ptrIN7testing8internal9DeathTestESt14default_deleteIS2_EED2Ev(ptr noundef nonnull align 8 dereferenceable(8) %gtest_dt_ptr) #3
  %cleanup.dest = load i32, ptr %cleanup.dest.slot, align 4
  switch i32 %cleanup.dest, label %unreachable [
    i32 0, label %cleanup.cont
    i32 2, label %gtest_label_307
  ]

cleanup.cont:                                     ; preds = %cleanup
  br label %if.end88

ehcleanup87:                                      ; preds = %ehcleanup86, %lpad30
  call void @_ZNSt10unique_ptrIN7testing8internal9DeathTestESt14default_deleteIS2_EED2Ev(ptr noundef nonnull align 8 dereferenceable(8) %gtest_dt_ptr) #3
  br label %eh.resume

if.end88:                                         ; preds = %cleanup.cont, %if.end28
  br label %if.end100

if.else89:                                        ; preds = %if.end
  br label %gtest_label_307

gtest_label_307:                                  ; preds = %if.else89, %cleanup, %if.then27
  call void @_ZN7testing7MessageC1Ev(ptr noundef nonnull align 8 dereferenceable(8) %ref.tmp90)
  %call94 = invoke noundef ptr @_ZN7testing8internal9DeathTest11LastMessageEv()
          to label %invoke.cont93 unwind label %lpad92

invoke.cont93:                                    ; preds = %gtest_label_307
  invoke void @_ZN7testing8internal12AssertHelperC1ENS_14TestPartResult4TypeEPKciS5_(ptr noundef nonnull align 8 dereferenceable(8) %ref.tmp91, i32 noundef 1, ptr noundef @.str.3, i32 noundef 307, ptr noundef %call94)
          to label %invoke.cont95 unwind label %lpad92

invoke.cont95:                                    ; preds = %invoke.cont93
  invoke void @_ZNK7testing8internal12AssertHelperaSERKNS_7MessageE(ptr noundef nonnull align 8 dereferenceable(8) %ref.tmp91, ptr noundef nonnull align 8 dereferenceable(8) %ref.tmp90)
          to label %invoke.cont97 unwind label %lpad96

invoke.cont97:                                    ; preds = %invoke.cont95
  call void @_ZN7testing8internal12AssertHelperD1Ev(ptr noundef nonnull align 8 dereferenceable(8) %ref.tmp91) #3
  call void @_ZN7testing7MessageD2Ev(ptr noundef nonnull align 8 dereferenceable(8) %ref.tmp90) #3
  br label %if.end100

lpad92:                                           ; preds = %invoke.cont93, %gtest_label_307
  %59 = landingpad { ptr, i32 }
          cleanup
  %60 = extractvalue { ptr, i32 } %59, 0
  store ptr %60, ptr %exn.slot, align 8
  %61 = extractvalue { ptr, i32 } %59, 1
  store i32 %61, ptr %ehselector.slot, align 4
  br label %ehcleanup99

lpad96:                                           ; preds = %invoke.cont95
  %62 = landingpad { ptr, i32 }
          cleanup
  %63 = extractvalue { ptr, i32 } %62, 0
  store ptr %63, ptr %exn.slot, align 8
  %64 = extractvalue { ptr, i32 } %62, 1
  store i32 %64, ptr %ehselector.slot, align 4
  call void @_ZN7testing8internal12AssertHelperD1Ev(ptr noundef nonnull align 8 dereferenceable(8) %ref.tmp91) #3
  br label %ehcleanup99

ehcleanup99:                                      ; preds = %lpad96, %lpad92
  call void @_ZN7testing7MessageD2Ev(ptr noundef nonnull align 8 dereferenceable(8) %ref.tmp90) #3
  br label %eh.resume

if.end100:                                        ; preds = %invoke.cont97, %if.end88
  ret void

eh.resume:                                        ; preds = %ehcleanup99, %ehcleanup87, %lpad23, %ehcleanup19
  %exn101 = load ptr, ptr %exn.slot, align 8
  %sel102 = load i32, ptr %ehselector.slot, align 4
  %lpad.val = insertvalue { ptr, i32 } poison, ptr %exn101, 0
  %lpad.val103 = insertvalue { ptr, i32 } %lpad.val, i32 %sel102, 1
  resume { ptr, i32 } %lpad.val103

terminate.lpad:                                   ; preds = %ehcleanup81, %lpad56
  %65 = landingpad { ptr, i32 }
          catch ptr null
  %66 = extractvalue { ptr, i32 } %65, 0
  call void @__clang_call_terminate(ptr %66) #18
  unreachable

unreachable:                                      ; preds = %cleanup
  unreachable
}

; Function Attrs: mustprogress nounwind uwtable
define internal noundef ptr @"_ZZN40notnull_tests_TestNotNullAssignment_Test8TestBodyEvENK3$_0cvPFvvEEv"(ptr noundef nonnull align 1 dereferenceable(1) %this) #7 align 2 {
entry:
  %this.addr = alloca ptr, align 8
  store ptr %this, ptr %this.addr, align 8
  ret ptr @"_ZZN40notnull_tests_TestNotNullAssignment_Test8TestBodyEvEN3$_08__invokeEv"
}

; Function Attrs: uwtable
define internal void @__cxx_global_var_init.24() #0 section ".text.startup" personality ptr @__gxx_personality_v0 {
entry:
  %agg.tmp = alloca %"struct.testing::internal::CodeLocation", align 8
  %ref.tmp = alloca %"class.std::__cxx11::basic_string", align 8
  %ref.tmp1 = alloca %"class.std::allocator", align 1
  %exn.slot = alloca ptr, align 8
  %ehselector.slot = alloca i32, align 4
  call void @_ZNSaIcEC1Ev(ptr noundef nonnull align 1 dereferenceable(1) %ref.tmp1) #3
  invoke void @_ZNSt7__cxx1112basic_stringIcSt11char_traitsIcESaIcEEC1EPKcRKS3_(ptr noundef nonnull align 8 dereferenceable(32) %ref.tmp, ptr noundef @.str.3, ptr noundef nonnull align 1 dereferenceable(1) %ref.tmp1)
          to label %invoke.cont unwind label %lpad

invoke.cont:                                      ; preds = %entry
  invoke void @_ZN7testing8internal12CodeLocationC2ERKNSt7__cxx1112basic_stringIcSt11char_traitsIcESaIcEEEi(ptr noundef nonnull align 8 dereferenceable(36) %agg.tmp, ptr noundef nonnull align 8 dereferenceable(32) %ref.tmp, i32 noundef 310)
          to label %invoke.cont3 unwind label %lpad2

invoke.cont3:                                     ; preds = %invoke.cont
  %call = invoke noundef ptr @_ZN7testing8internal13GetTestTypeIdEv()
          to label %invoke.cont5 unwind label %lpad4

invoke.cont5:                                     ; preds = %invoke.cont3
  %call7 = invoke noundef ptr @_ZN7testing8internal16SuiteApiResolverINS_4TestEE19GetSetUpCaseOrSuiteEPKci(ptr noundef @.str.3, i32 noundef 310)
          to label %invoke.cont6 unwind label %lpad4

invoke.cont6:                                     ; preds = %invoke.cont5
  %call9 = invoke noundef ptr @_ZN7testing8internal16SuiteApiResolverINS_4TestEE22GetTearDownCaseOrSuiteEPKci(ptr noundef @.str.3, i32 noundef 310)
          to label %invoke.cont8 unwind label %lpad4

invoke.cont8:                                     ; preds = %invoke.cont6
  %call11 = invoke noalias noundef nonnull ptr @_Znwm(i64 noundef 8) #16
          to label %invoke.cont10 unwind label %lpad4

invoke.cont10:                                    ; preds = %invoke.cont8
  invoke void @_ZN7testing8internal15TestFactoryImplI50notnull_tests_TestNotNullRawPointerComparison_TestEC2Ev(ptr noundef nonnull align 8 dereferenceable(8) %call11)
          to label %invoke.cont13 unwind label %lpad12

invoke.cont13:                                    ; preds = %invoke.cont10
  %call15 = invoke noundef ptr @_ZN7testing8internal23MakeAndRegisterTestInfoEPKcS2_S2_S2_NS0_12CodeLocationEPKvPFvvES7_PNS0_15TestFactoryBaseE(ptr noundef @.str, ptr noundef @.str.25, ptr noundef null, ptr noundef null, ptr noundef %agg.tmp, ptr noundef %call, ptr noundef %call7, ptr noundef %call9, ptr noundef %call11)
          to label %invoke.cont14 unwind label %lpad4

invoke.cont14:                                    ; preds = %invoke.cont13
  call void @_ZN7testing8internal12CodeLocationD2Ev(ptr noundef nonnull align 8 dereferenceable(36) %agg.tmp) #3
  call void @_ZNSt7__cxx1112basic_stringIcSt11char_traitsIcESaIcEED1Ev(ptr noundef nonnull align 8 dereferenceable(32) %ref.tmp) #3
  call void @_ZNSaIcED1Ev(ptr noundef nonnull align 1 dereferenceable(1) %ref.tmp1) #3
  store ptr %call15, ptr @_ZN50notnull_tests_TestNotNullRawPointerComparison_Test10test_info_E, align 8
  ret void

lpad:                                             ; preds = %entry
  %0 = landingpad { ptr, i32 }
          cleanup
  %1 = extractvalue { ptr, i32 } %0, 0
  store ptr %1, ptr %exn.slot, align 8
  %2 = extractvalue { ptr, i32 } %0, 1
  store i32 %2, ptr %ehselector.slot, align 4
  br label %ehcleanup17

lpad2:                                            ; preds = %invoke.cont
  %3 = landingpad { ptr, i32 }
          cleanup
  %4 = extractvalue { ptr, i32 } %3, 0
  store ptr %4, ptr %exn.slot, align 8
  %5 = extractvalue { ptr, i32 } %3, 1
  store i32 %5, ptr %ehselector.slot, align 4
  br label %ehcleanup16

lpad4:                                            ; preds = %invoke.cont13, %invoke.cont8, %invoke.cont6, %invoke.cont5, %invoke.cont3
  %6 = landingpad { ptr, i32 }
          cleanup
  %7 = extractvalue { ptr, i32 } %6, 0
  store ptr %7, ptr %exn.slot, align 8
  %8 = extractvalue { ptr, i32 } %6, 1
  store i32 %8, ptr %ehselector.slot, align 4
  br label %ehcleanup

lpad12:                                           ; preds = %invoke.cont10
  %9 = landingpad { ptr, i32 }
          cleanup
  %10 = extractvalue { ptr, i32 } %9, 0
  store ptr %10, ptr %exn.slot, align 8
  %11 = extractvalue { ptr, i32 } %9, 1
  store i32 %11, ptr %ehselector.slot, align 4
  call void @_ZdlPv(ptr noundef %call11) #17
  br label %ehcleanup

ehcleanup:                                        ; preds = %lpad12, %lpad4
  call void @_ZN7testing8internal12CodeLocationD2Ev(ptr noundef nonnull align 8 dereferenceable(36) %agg.tmp) #3
  br label %ehcleanup16

ehcleanup16:                                      ; preds = %ehcleanup, %lpad2
  call void @_ZNSt7__cxx1112basic_stringIcSt11char_traitsIcESaIcEED1Ev(ptr noundef nonnull align 8 dereferenceable(32) %ref.tmp) #3
  br label %ehcleanup17

ehcleanup17:                                      ; preds = %ehcleanup16, %lpad
  call void @_ZNSaIcED1Ev(ptr noundef nonnull align 1 dereferenceable(1) %ref.tmp1) #3
  br label %eh.resume

eh.resume:                                        ; preds = %ehcleanup17
  %exn = load ptr, ptr %exn.slot, align 8
  %sel = load i32, ptr %ehselector.slot, align 4
  %lpad.val = insertvalue { ptr, i32 } poison, ptr %exn, 0
  %lpad.val18 = insertvalue { ptr, i32 } %lpad.val, i32 %sel, 1
  resume { ptr, i32 } %lpad.val18
}

; Function Attrs: mustprogress nounwind uwtable
define linkonce_odr dso_local void @_ZN7testing8internal15TestFactoryImplI50notnull_tests_TestNotNullRawPointerComparison_TestEC2Ev(ptr noundef nonnull align 8 dereferenceable(8) %this) unnamed_addr #7 comdat align 2 {
entry:
  %this.addr = alloca ptr, align 8
  store ptr %this, ptr %this.addr, align 8
  %this1 = load ptr, ptr %this.addr, align 8
  call void @_ZN7testing8internal15TestFactoryBaseC2Ev(ptr noundef nonnull align 8 dereferenceable(8) %this1)
  store ptr getelementptr inbounds ({ [5 x ptr] }, ptr @_ZTVN7testing8internal15TestFactoryImplI50notnull_tests_TestNotNullRawPointerComparison_TestEE, i32 0, inrange i32 0, i32 2), ptr %this1, align 8
  ret void
}

; Function Attrs: mustprogress uwtable
define dso_local void @_ZN50notnull_tests_TestNotNullRawPointerComparison_Test8TestBodyEv(ptr noundef nonnull align 8 dereferenceable(16) %this) unnamed_addr #4 align 2 personality ptr @__gxx_personality_v0 {
entry:
  %this.addr = alloca ptr, align 8
  %ints = alloca [2 x i32], align 4
  %p1 = alloca ptr, align 8
  %p2 = alloca ptr, align 8
  %gtest_ar_ = alloca %"class.testing::AssertionResult", align 8
  %ref.tmp = alloca i8, align 1
  %ref.tmp3 = alloca %"class.gsl::not_null", align 8
  %ref.tmp4 = alloca %"class.gsl::not_null", align 8
  %exn.slot = alloca ptr, align 8
  %ehselector.slot = alloca i32, align 4
  %ref.tmp6 = alloca %"class.testing::Message", align 8
  %ref.tmp8 = alloca %"class.testing::internal::AssertHelper", align 8
  %ref.tmp9 = alloca %"class.std::__cxx11::basic_string", align 8
  %gtest_ar_19 = alloca %"class.testing::AssertionResult", align 8
  %ref.tmp20 = alloca i8, align 1
  %ref.tmp21 = alloca %"class.gsl::not_null", align 8
  %ref.tmp22 = alloca %"class.gsl::not_null.19", align 8
  %ref.tmp32 = alloca %"class.testing::Message", align 8
  %ref.tmp34 = alloca %"class.testing::internal::AssertHelper", align 8
  %ref.tmp35 = alloca %"class.std::__cxx11::basic_string", align 8
  %gtest_ar_48 = alloca %"class.testing::AssertionResult", align 8
  %ref.tmp49 = alloca i8, align 1
  %ref.tmp50 = alloca %"class.gsl::not_null", align 8
  %ref.tmp51 = alloca %"class.gsl::not_null", align 8
  %ref.tmp61 = alloca %"class.testing::Message", align 8
  %ref.tmp63 = alloca %"class.testing::internal::AssertHelper", align 8
  %ref.tmp64 = alloca %"class.std::__cxx11::basic_string", align 8
  %gtest_ar_77 = alloca %"class.testing::AssertionResult", align 8
  %ref.tmp78 = alloca i8, align 1
  %ref.tmp79 = alloca %"class.gsl::not_null", align 8
  %ref.tmp80 = alloca %"class.gsl::not_null.19", align 8
  %ref.tmp90 = alloca %"class.testing::Message", align 8
  %ref.tmp92 = alloca %"class.testing::internal::AssertHelper", align 8
  %ref.tmp93 = alloca %"class.std::__cxx11::basic_string", align 8
  %gtest_ar_106 = alloca %"class.testing::AssertionResult", align 8
  %ref.tmp107 = alloca i8, align 1
  %ref.tmp108 = alloca %"class.gsl::not_null", align 8
  %ref.tmp109 = alloca %"class.gsl::not_null", align 8
  %ref.tmp119 = alloca %"class.testing::Message", align 8
  %ref.tmp121 = alloca %"class.testing::internal::AssertHelper", align 8
  %ref.tmp122 = alloca %"class.std::__cxx11::basic_string", align 8
  %gtest_ar_135 = alloca %"class.testing::AssertionResult", align 8
  %ref.tmp136 = alloca i8, align 1
  %ref.tmp137 = alloca %"class.gsl::not_null", align 8
  %ref.tmp138 = alloca %"class.gsl::not_null.19", align 8
  %ref.tmp150 = alloca %"class.testing::Message", align 8
  %ref.tmp152 = alloca %"class.testing::internal::AssertHelper", align 8
  %ref.tmp153 = alloca %"class.std::__cxx11::basic_string", align 8
  %gtest_ar_166 = alloca %"class.testing::AssertionResult", align 8
  %ref.tmp167 = alloca i8, align 1
  %ref.tmp168 = alloca %"class.gsl::not_null.19", align 8
  %ref.tmp169 = alloca %"class.gsl::not_null", align 8
  %ref.tmp181 = alloca %"class.testing::Message", align 8
  %ref.tmp183 = alloca %"class.testing::internal::AssertHelper", align 8
  %ref.tmp184 = alloca %"class.std::__cxx11::basic_string", align 8
  %gtest_ar_197 = alloca %"class.testing::AssertionResult", align 8
  %ref.tmp198 = alloca i8, align 1
  %ref.tmp199 = alloca %"class.gsl::not_null", align 8
  %ref.tmp200 = alloca %"class.gsl::not_null", align 8
  %ref.tmp210 = alloca %"class.testing::Message", align 8
  %ref.tmp212 = alloca %"class.testing::internal::AssertHelper", align 8
  %ref.tmp213 = alloca %"class.std::__cxx11::basic_string", align 8
  %gtest_ar_226 = alloca %"class.testing::AssertionResult", align 8
  %ref.tmp227 = alloca i8, align 1
  %ref.tmp228 = alloca %"class.gsl::not_null", align 8
  %ref.tmp229 = alloca %"class.gsl::not_null.19", align 8
  %ref.tmp241 = alloca %"class.testing::Message", align 8
  %ref.tmp243 = alloca %"class.testing::internal::AssertHelper", align 8
  %ref.tmp244 = alloca %"class.std::__cxx11::basic_string", align 8
  %gtest_ar_257 = alloca %"class.testing::AssertionResult", align 8
  %ref.tmp258 = alloca i8, align 1
  %ref.tmp259 = alloca %"class.gsl::not_null.19", align 8
  %ref.tmp260 = alloca %"class.gsl::not_null", align 8
  %ref.tmp272 = alloca %"class.testing::Message", align 8
  %ref.tmp274 = alloca %"class.testing::internal::AssertHelper", align 8
  %ref.tmp275 = alloca %"class.std::__cxx11::basic_string", align 8
  %gtest_ar_288 = alloca %"class.testing::AssertionResult", align 8
  %ref.tmp289 = alloca i8, align 1
  %ref.tmp290 = alloca %"class.gsl::not_null", align 8
  %ref.tmp291 = alloca %"class.gsl::not_null", align 8
