target datalayout = "e-m:e-p270:32:32-p271:32:32-p272:64:64-i64:64-i128:128-f80:128-n8:16:32:64-S128"
target triple = "x86_64-unknown-linux-gnu"

%"class.std::ios_base::Init" = type { i8 }
%"struct.std::piecewise_construct_t" = type { i8 }
%"class.Imf_3_2::FlatImageLevel" = type { %"class.Imf_3_2::ImageLevel", %"class.std::map" }
%"class.Imf_3_2::ImageLevel" = type { ptr, ptr, i32, i32, %"class.Imath_3_2::Box" }
%"class.Imath_3_2::Box" = type { %"class.Imath_3_2::Vec2", %"class.Imath_3_2::Vec2" }
%"class.Imath_3_2::Vec2" = type { i32, i32 }
%"class.std::map" = type { %"class.std::_Rb_tree" }
%"class.std::_Rb_tree" = type { %"struct.std::_Rb_tree<std::__cxx11::basic_string<char>, std::pair<const std::__cxx11::basic_string<char>, Imf_3_2::FlatImageChannel *>, std::_Select1st<std::pair<const std::__cxx11::basic_string<char>, Imf_3_2::FlatImageChannel *>>, std::less<std::__cxx11::basic_string<char>>>::_Rb_tree_impl" }
%"struct.std::_Rb_tree<std::__cxx11::basic_string<char>, std::pair<const std::__cxx11::basic_string<char>, Imf_3_2::FlatImageChannel *>, std::_Select1st<std::pair<const std::__cxx11::basic_string<char>, Imf_3_2::FlatImageChannel *>>, std::less<std::__cxx11::basic_string<char>>>::_Rb_tree_impl" = type { %"struct.std::_Rb_tree_key_compare", %"struct.std::_Rb_tree_header" }
%"struct.std::_Rb_tree_key_compare" = type { %"struct.std::less" }
%"struct.std::less" = type { i8 }
%"struct.std::_Rb_tree_header" = type { %"struct.std::_Rb_tree_node_base", i64 }
%"struct.std::_Rb_tree_node_base" = type { i32, ptr, ptr, ptr }
%"struct.std::_Rb_tree_iterator" = type { ptr }
%"struct.std::pair" = type { %"class.std::__cxx11::basic_string", ptr }
%"class.std::__cxx11::basic_string" = type { %"struct.std::__cxx11::basic_string<char>::_Alloc_hider", i64, %union.anon }
%"struct.std::__cxx11::basic_string<char>::_Alloc_hider" = type { ptr }
%union.anon = type { i64, [8 x i8] }
%"struct.std::_Rb_tree_const_iterator" = type { ptr }
%"class.std::tuple" = type { %"struct.std::_Tuple_impl" }
%"struct.std::_Tuple_impl" = type { %"struct.std::_Head_base" }
%"struct.std::_Head_base" = type { ptr }
%"class.std::tuple.15" = type { i8 }
%"struct.std::_Rb_tree_const_iterator.19" = type { ptr }
%"struct.std::pair.20" = type { %"class.std::__cxx11::basic_string", %"class.std::__cxx11::basic_string" }
%"class.Imf_3_2::FlatImageLevel::Iterator" = type { %"struct.std::_Rb_tree_iterator" }
%"class.Imf_3_2::FlatImageLevel::ConstIterator" = type { %"struct.std::_Rb_tree_const_iterator" }
%"struct.std::_Rb_tree_node" = type { %"struct.std::_Rb_tree_node_base", %"struct.__gnu_cxx::__aligned_membuf" }
%"struct.__gnu_cxx::__aligned_membuf" = type { [40 x i8] }
%"struct.std::_Select1st" = type { i8 }
%"struct.std::_Rb_tree<std::__cxx11::basic_string<char>, std::pair<const std::__cxx11::basic_string<char>, Imf_3_2::FlatImageChannel *>, std::_Select1st<std::pair<const std::__cxx11::basic_string<char>, Imf_3_2::FlatImageChannel *>>, std::less<std::__cxx11::basic_string<char>>>::_Auto_node" = type { ptr, ptr }
%"struct.std::pair.16" = type { ptr, ptr }
%"class.std::map.10" = type { %"class.std::_Rb_tree.11" }
%"class.std::_Rb_tree.11" = type { %"struct.std::_Rb_tree<std::__cxx11::basic_string<char>, std::pair<const std::__cxx11::basic_string<char>, std::__cxx11::basic_string<char>>, std::_Select1st<std::pair<const std::__cxx11::basic_string<char>, std::__cxx11::basic_string<char>>>, std::less<std::__cxx11::basic_string<char>>>::_Rb_tree_impl" }
%"struct.std::_Rb_tree<std::__cxx11::basic_string<char>, std::pair<const std::__cxx11::basic_string<char>, std::__cxx11::basic_string<char>>, std::_Select1st<std::pair<const std::__cxx11::basic_string<char>, std::__cxx11::basic_string<char>>>, std::less<std::__cxx11::basic_string<char>>>::_Rb_tree_impl" = type { %"struct.std::_Rb_tree_key_compare", %"struct.std::_Rb_tree_header" }
%"struct.std::_Select1st.24" = type { i8 }
%"struct.std::_Rb_tree_node.22" = type { %"struct.std::_Rb_tree_node_base", %"struct.__gnu_cxx::__aligned_membuf.23" }
%"struct.__gnu_cxx::__aligned_membuf.23" = type { [64 x i8] }
%"struct.std::_Rb_tree<std::__cxx11::basic_string<char>, std::pair<const std::__cxx11::basic_string<char>, Imf_3_2::FlatImageChannel *>, std::_Select1st<std::pair<const std::__cxx11::basic_string<char>, Imf_3_2::FlatImageChannel *>>, std::less<std::__cxx11::basic_string<char>>>::_Reuse_or_alloc_node" = type { ptr, ptr, ptr }

$_ZNSt3mapINSt7__cxx1112basic_stringIcSt11char_traitsIcESaIcEEEPN7Imf_3_216FlatImageChannelESt4lessIS5_ESaISt4pairIKS5_S8_EEEC2Ev = comdat any

$_ZNSt3mapINSt7__cxx1112basic_stringIcSt11char_traitsIcESaIcEEEPN7Imf_3_216FlatImageChannelESt4lessIS5_ESaISt4pairIKS5_S8_EEED2Ev = comdat any

$_ZN7Imf_3_210ImageLevel5imageEv = comdat any

$_ZNK7Imf_3_210ImageLevel5imageEv = comdat any

$__clang_call_terminate = comdat any

$_ZNSt3mapINSt7__cxx1112basic_stringIcSt11char_traitsIcESaIcEEEPN7Imf_3_216FlatImageChannelESt4lessIS5_ESaISt4pairIKS5_S8_EEE5beginEv = comdat any

$_ZStneRKSt17_Rb_tree_iteratorISt4pairIKNSt7__cxx1112basic_stringIcSt11char_traitsIcESaIcEEEPN7Imf_3_216FlatImageChannelEEESE_ = comdat any

$_ZNSt3mapINSt7__cxx1112basic_stringIcSt11char_traitsIcESaIcEEEPN7Imf_3_216FlatImageChannelESt4lessIS5_ESaISt4pairIKS5_S8_EEE3endEv = comdat any

$_ZNKSt17_Rb_tree_iteratorISt4pairIKNSt7__cxx1112basic_stringIcSt11char_traitsIcESaIcEEEPN7Imf_3_216FlatImageChannelEEEptEv = comdat any

$_ZNSt17_Rb_tree_iteratorISt4pairIKNSt7__cxx1112basic_stringIcSt11char_traitsIcESaIcEEEPN7Imf_3_216FlatImageChannelEEEppEv = comdat any

$_ZNSt3mapINSt7__cxx1112basic_stringIcSt11char_traitsIcESaIcEEEPN7Imf_3_216FlatImageChannelESt4lessIS5_ESaISt4pairIKS5_S8_EEE4findERSC_ = comdat any

$_ZNSt3mapINSt7__cxx1112basic_stringIcSt11char_traitsIcESaIcEEEPN7Imf_3_216FlatImageChannelESt4lessIS5_ESaISt4pairIKS5_S8_EEEixERSC_ = comdat any

$_ZNSt3mapINSt7__cxx1112basic_stringIcSt11char_traitsIcESaIcEEEPN7Imf_3_216FlatImageChannelESt4lessIS5_ESaISt4pairIKS5_S8_EEE5eraseB5cxx11ESt17_Rb_tree_iteratorISD_E = comdat any

$_ZNSt3mapINSt7__cxx1112basic_stringIcSt11char_traitsIcESaIcEEEPN7Imf_3_216FlatImageChannelESt4lessIS5_ESaISt4pairIKS5_S8_EEE5clearEv = comdat any

$_ZN7Imf_3_219renameChannelsInMapISt3mapINSt7__cxx1112basic_stringIcSt11char_traitsIcESaIcEEEPNS_16FlatImageChannelESt4lessIS7_ESaISt4pairIKS7_S9_EEEEEvRKS1_IS7_S7_SB_SaISC_ISD_S7_EEERT_ = comdat any

$_ZNKSt3mapINSt7__cxx1112basic_stringIcSt11char_traitsIcESaIcEEEPN7Imf_3_216FlatImageChannelESt4lessIS5_ESaISt4pairIKS5_S8_EEE4findERSC_ = comdat any

$_ZStneRKSt23_Rb_tree_const_iteratorISt4pairIKNSt7__cxx1112basic_stringIcSt11char_traitsIcESaIcEEEPN7Imf_3_216FlatImageChannelEEESE_ = comdat any

$_ZNKSt3mapINSt7__cxx1112basic_stringIcSt11char_traitsIcESaIcEEEPN7Imf_3_216FlatImageChannelESt4lessIS5_ESaISt4pairIKS5_S8_EEE3endEv = comdat any

$_ZNKSt23_Rb_tree_const_iteratorISt4pairIKNSt7__cxx1112basic_stringIcSt11char_traitsIcESaIcEEEPN7Imf_3_216FlatImageChannelEEEptEv = comdat any

$_ZSteqRKSt17_Rb_tree_iteratorISt4pairIKNSt7__cxx1112basic_stringIcSt11char_traitsIcESaIcEEEPN7Imf_3_216FlatImageChannelEEESE_ = comdat any

$_ZSteqRKSt23_Rb_tree_const_iteratorISt4pairIKNSt7__cxx1112basic_stringIcSt11char_traitsIcESaIcEEEPN7Imf_3_216FlatImageChannelEEESE_ = comdat any

$_ZN7Imf_3_214FlatImageLevel8IteratorC2ERKSt17_Rb_tree_iteratorISt4pairIKNSt7__cxx1112basic_stringIcSt11char_traitsIcESaIcEEEPNS_16FlatImageChannelEEE = comdat any

$_ZNKSt3mapINSt7__cxx1112basic_stringIcSt11char_traitsIcESaIcEEEPN7Imf_3_216FlatImageChannelESt4lessIS5_ESaISt4pairIKS5_S8_EEE5beginEv = comdat any

$_ZN7Imf_3_214FlatImageLevel13ConstIteratorC2ERKSt23_Rb_tree_const_iteratorISt4pairIKNSt7__cxx1112basic_stringIcSt11char_traitsIcESaIcEEEPNS_16FlatImageChannelEEE = comdat any

$_ZNSt8_Rb_treeINSt7__cxx1112basic_stringIcSt11char_traitsIcESaIcEEESt4pairIKS5_PN7Imf_3_216FlatImageChannelEESt10_Select1stISB_ESt4lessIS5_ESaISB_EEC2Ev = comdat any

$_ZNSt8_Rb_treeINSt7__cxx1112basic_stringIcSt11char_traitsIcESaIcEEESt4pairIKS5_PN7Imf_3_216FlatImageChannelEESt10_Select1stISB_ESt4lessIS5_ESaISB_EE13_Rb_tree_implISF_Lb1EEC2Ev = comdat any

$_ZNSaISt13_Rb_tree_nodeISt4pairIKNSt7__cxx1112basic_stringIcSt11char_traitsIcESaIcEEEPN7Imf_3_216FlatImageChannelEEEEC2Ev = comdat any

$_ZNSt20_Rb_tree_key_compareISt4lessINSt7__cxx1112basic_stringIcSt11char_traitsIcESaIcEEEEEC2Ev = comdat any

$_ZNSt15_Rb_tree_headerC2Ev = comdat any

$_ZNSt15__new_allocatorISt13_Rb_tree_nodeISt4pairIKNSt7__cxx1112basic_stringIcSt11char_traitsIcESaIcEEEPN7Imf_3_216FlatImageChannelEEEEC2Ev = comdat any

$_ZNSt15_Rb_tree_header8_M_resetEv = comdat any

$_ZNSt8_Rb_treeINSt7__cxx1112basic_stringIcSt11char_traitsIcESaIcEEESt4pairIKS5_PN7Imf_3_216FlatImageChannelEESt10_Select1stISB_ESt4lessIS5_ESaISB_EED2Ev = comdat any

$_ZNSt8_Rb_treeINSt7__cxx1112basic_stringIcSt11char_traitsIcESaIcEEESt4pairIKS5_PN7Imf_3_216FlatImageChannelEESt10_Select1stISB_ESt4lessIS5_ESaISB_EE8_M_eraseEPSt13_Rb_tree_nodeISB_E = comdat any

$_ZNSt8_Rb_treeINSt7__cxx1112basic_stringIcSt11char_traitsIcESaIcEEESt4pairIKS5_PN7Imf_3_216FlatImageChannelEESt10_Select1stISB_ESt4lessIS5_ESaISB_EE8_M_beginEv = comdat any

$_ZNSt8_Rb_treeINSt7__cxx1112basic_stringIcSt11char_traitsIcESaIcEEESt4pairIKS5_PN7Imf_3_216FlatImageChannelEESt10_Select1stISB_ESt4lessIS5_ESaISB_EE13_Rb_tree_implISF_Lb1EED2Ev = comdat any

$_ZNSt8_Rb_treeINSt7__cxx1112basic_stringIcSt11char_traitsIcESaIcEEESt4pairIKS5_PN7Imf_3_216FlatImageChannelEESt10_Select1stISB_ESt4lessIS5_ESaISB_EE8_S_rightEPSt18_Rb_tree_node_base = comdat any

$_ZNSt8_Rb_treeINSt7__cxx1112basic_stringIcSt11char_traitsIcESaIcEEESt4pairIKS5_PN7Imf_3_216FlatImageChannelEESt10_Select1stISB_ESt4lessIS5_ESaISB_EE7_S_leftEPSt18_Rb_tree_node_base = comdat any

$_ZNSt8_Rb_treeINSt7__cxx1112basic_stringIcSt11char_traitsIcESaIcEEESt4pairIKS5_PN7Imf_3_216FlatImageChannelEESt10_Select1stISB_ESt4lessIS5_ESaISB_EE12_M_drop_nodeEPSt13_Rb_tree_nodeISB_E = comdat any

$_ZNSt8_Rb_treeINSt7__cxx1112basic_stringIcSt11char_traitsIcESaIcEEESt4pairIKS5_PN7Imf_3_216FlatImageChannelEESt10_Select1stISB_ESt4lessIS5_ESaISB_EE15_M_destroy_nodeEPSt13_Rb_tree_nodeISB_E = comdat any

$_ZNSt8_Rb_treeINSt7__cxx1112basic_stringIcSt11char_traitsIcESaIcEEESt4pairIKS5_PN7Imf_3_216FlatImageChannelEESt10_Select1stISB_ESt4lessIS5_ESaISB_EE11_M_put_nodeEPSt13_Rb_tree_nodeISB_E = comdat any

$_ZNSt16allocator_traitsISaISt13_Rb_tree_nodeISt4pairIKNSt7__cxx1112basic_stringIcSt11char_traitsIcESaIcEEEPN7Imf_3_216FlatImageChannelEEEEE7destroyISC_EEvRSE_PT_ = comdat any

$_ZNSt8_Rb_treeINSt7__cxx1112basic_stringIcSt11char_traitsIcESaIcEEESt4pairIKS5_PN7Imf_3_216FlatImageChannelEESt10_Select1stISB_ESt4lessIS5_ESaISB_EE21_M_get_Node_allocatorEv = comdat any

$_ZNSt13_Rb_tree_nodeISt4pairIKNSt7__cxx1112basic_stringIcSt11char_traitsIcESaIcEEEPN7Imf_3_216FlatImageChannelEEE9_M_valptrEv = comdat any

$_ZNSt15__new_allocatorISt13_Rb_tree_nodeISt4pairIKNSt7__cxx1112basic_stringIcSt11char_traitsIcESaIcEEEPN7Imf_3_216FlatImageChannelEEEE7destroyISC_EEvPT_ = comdat any

$_ZNSt4pairIKNSt7__cxx1112basic_stringIcSt11char_traitsIcESaIcEEEPN7Imf_3_216FlatImageChannelEED2Ev = comdat any

$_ZN9__gnu_cxx16__aligned_membufISt4pairIKNSt7__cxx1112basic_stringIcSt11char_traitsIcESaIcEEEPN7Imf_3_216FlatImageChannelEEE6_M_ptrEv = comdat any

$_ZN9__gnu_cxx16__aligned_membufISt4pairIKNSt7__cxx1112basic_stringIcSt11char_traitsIcESaIcEEEPN7Imf_3_216FlatImageChannelEEE7_M_addrEv = comdat any

$_ZNSt16allocator_traitsISaISt13_Rb_tree_nodeISt4pairIKNSt7__cxx1112basic_stringIcSt11char_traitsIcESaIcEEEPN7Imf_3_216FlatImageChannelEEEEE10deallocateERSE_PSD_m = comdat any

$_ZNSt15__new_allocatorISt13_Rb_tree_nodeISt4pairIKNSt7__cxx1112basic_stringIcSt11char_traitsIcESaIcEEEPN7Imf_3_216FlatImageChannelEEEE10deallocateEPSD_m = comdat any

$_ZNKSt8_Rb_treeINSt7__cxx1112basic_stringIcSt11char_traitsIcESaIcEEESt4pairIKS5_PN7Imf_3_216FlatImageChannelEESt10_Select1stISB_ESt4lessIS5_ESaISB_EE9_M_mbeginEv = comdat any

$_ZNSaISt13_Rb_tree_nodeISt4pairIKNSt7__cxx1112basic_stringIcSt11char_traitsIcESaIcEEEPN7Imf_3_216FlatImageChannelEEEED2Ev = comdat any

$_ZNSt15__new_allocatorISt13_Rb_tree_nodeISt4pairIKNSt7__cxx1112basic_stringIcSt11char_traitsIcESaIcEEEPN7Imf_3_216FlatImageChannelEEEED2Ev = comdat any

$_ZNKSt13_Rb_tree_nodeISt4pairIKNSt7__cxx1112basic_stringIcSt11char_traitsIcESaIcEEEPN7Imf_3_216FlatImageChannelEEE9_M_valptrEv = comdat any

$_ZNK9__gnu_cxx16__aligned_membufISt4pairIKNSt7__cxx1112basic_stringIcSt11char_traitsIcESaIcEEEPN7Imf_3_216FlatImageChannelEEE6_M_ptrEv = comdat any

$_ZNK9__gnu_cxx16__aligned_membufISt4pairIKNSt7__cxx1112basic_stringIcSt11char_traitsIcESaIcEEEPN7Imf_3_216FlatImageChannelEEE7_M_addrEv = comdat any

$_ZNSt8_Rb_treeINSt7__cxx1112basic_stringIcSt11char_traitsIcESaIcEEESt4pairIKS5_PN7Imf_3_216FlatImageChannelEESt10_Select1stISB_ESt4lessIS5_ESaISB_EE5beginEv = comdat any

$_ZNSt17_Rb_tree_iteratorISt4pairIKNSt7__cxx1112basic_stringIcSt11char_traitsIcESaIcEEEPN7Imf_3_216FlatImageChannelEEEC2EPSt18_Rb_tree_node_base = comdat any

$_ZNSt8_Rb_treeINSt7__cxx1112basic_stringIcSt11char_traitsIcESaIcEEESt4pairIKS5_PN7Imf_3_216FlatImageChannelEESt10_Select1stISB_ESt4lessIS5_ESaISB_EE3endEv = comdat any

$_ZNSt8_Rb_treeINSt7__cxx1112basic_stringIcSt11char_traitsIcESaIcEEESt4pairIKS5_PN7Imf_3_216FlatImageChannelEESt10_Select1stISB_ESt4lessIS5_ESaISB_EE4findERS7_ = comdat any

$_ZNSt8_Rb_treeINSt7__cxx1112basic_stringIcSt11char_traitsIcESaIcEEESt4pairIKS5_PN7Imf_3_216FlatImageChannelEESt10_Select1stISB_ESt4lessIS5_ESaISB_EE14_M_lower_boundEPSt13_Rb_tree_nodeISB_EPSt18_Rb_tree_node_baseRS7_ = comdat any

$_ZNSt8_Rb_treeINSt7__cxx1112basic_stringIcSt11char_traitsIcESaIcEEESt4pairIKS5_PN7Imf_3_216FlatImageChannelEESt10_Select1stISB_ESt4lessIS5_ESaISB_EE6_M_endEv = comdat any

$_ZNKSt4lessINSt7__cxx1112basic_stringIcSt11char_traitsIcESaIcEEEEclERKS5_S8_ = comdat any

$_ZNSt8_Rb_treeINSt7__cxx1112basic_stringIcSt11char_traitsIcESaIcEEESt4pairIKS5_PN7Imf_3_216FlatImageChannelEESt10_Select1stISB_ESt4lessIS5_ESaISB_EE6_S_keyEPKSt18_Rb_tree_node_base = comdat any

$_ZNSt8_Rb_treeINSt7__cxx1112basic_stringIcSt11char_traitsIcESaIcEEESt4pairIKS5_PN7Imf_3_216FlatImageChannelEESt10_Select1stISB_ESt4lessIS5_ESaISB_EE6_S_keyEPKSt13_Rb_tree_nodeISB_E = comdat any

$_ZNKSt10_Select1stISt4pairIKNSt7__cxx1112basic_stringIcSt11char_traitsIcESaIcEEEPN7Imf_3_216FlatImageChannelEEEclERKSB_ = comdat any

$_ZStltIcSt11char_traitsIcESaIcEEbRKNSt7__cxx1112basic_stringIT_T0_T1_EESA_ = comdat any

$_ZNSt3mapINSt7__cxx1112basic_stringIcSt11char_traitsIcESaIcEEEPN7Imf_3_216FlatImageChannelESt4lessIS5_ESaISt4pairIKS5_S8_EEE11lower_boundERSC_ = comdat any

$_ZNKSt3mapINSt7__cxx1112basic_stringIcSt11char_traitsIcESaIcEEEPN7Imf_3_216FlatImageChannelESt4lessIS5_ESaISt4pairIKS5_S8_EEE8key_compEv = comdat any

$_ZNKSt17_Rb_tree_iteratorISt4pairIKNSt7__cxx1112basic_stringIcSt11char_traitsIcESaIcEEEPN7Imf_3_216FlatImageChannelEEEdeEv = comdat any

$_ZNSt8_Rb_treeINSt7__cxx1112basic_stringIcSt11char_traitsIcESaIcEEESt4pairIKS5_PN7Imf_3_216FlatImageChannelEESt10_Select1stISB_ESt4lessIS5_ESaISB_EE22_M_emplace_hint_uniqueIJRKSt21piecewise_construct_tSt5tupleIJRS7_EESM_IJEEEEESt17_Rb_tree_iteratorISB_ESt23_Rb_tree_const_iteratorISB_EDpOT_ = comdat any

$_ZNSt23_Rb_tree_const_iteratorISt4pairIKNSt7__cxx1112basic_stringIcSt11char_traitsIcESaIcEEEPN7Imf_3_216FlatImageChannelEEEC2ERKSt17_Rb_tree_iteratorISB_E = comdat any

$_ZNSt5tupleIJRKNSt7__cxx1112basic_stringIcSt11char_traitsIcESaIcEEEEEC2ILb1ETnNSt9enable_ifIXclsr4_TCCIXT_EEE29__is_implicitly_constructibleIS7_EEEbE4typeELb1EEES7_ = comdat any

$_ZNSt8_Rb_treeINSt7__cxx1112basic_stringIcSt11char_traitsIcESaIcEEESt4pairIKS5_PN7Imf_3_216FlatImageChannelEESt10_Select1stISB_ESt4lessIS5_ESaISB_EE11lower_boundERS7_ = comdat any

$_ZNKSt8_Rb_treeINSt7__cxx1112basic_stringIcSt11char_traitsIcESaIcEEESt4pairIKS5_PN7Imf_3_216FlatImageChannelEESt10_Select1stISB_ESt4lessIS5_ESaISB_EE8key_compEv = comdat any

$_ZNSt8_Rb_treeINSt7__cxx1112basic_stringIcSt11char_traitsIcESaIcEEESt4pairIKS5_PN7Imf_3_216FlatImageChannelEESt10_Select1stISB_ESt4lessIS5_ESaISB_EE10_Auto_nodeC2IJRKSt21piecewise_construct_tSt5tupleIJRS7_EESN_IJEEEEERSH_DpOT_ = comdat any

$_ZNSt8_Rb_treeINSt7__cxx1112basic_stringIcSt11char_traitsIcESaIcEEESt4pairIKS5_PN7Imf_3_216FlatImageChannelEESt10_Select1stISB_ESt4lessIS5_ESaISB_EE29_M_get_insert_hint_unique_posESt23_Rb_tree_const_iteratorISB_ERS7_ = comdat any

$_ZNKSt8_Rb_treeINSt7__cxx1112basic_stringIcSt11char_traitsIcESaIcEEESt4pairIKS5_PN7Imf_3_216FlatImageChannelEESt10_Select1stISB_ESt4lessIS5_ESaISB_EE10_Auto_node6_M_keyEv = comdat any

$_ZNSt8_Rb_treeINSt7__cxx1112basic_stringIcSt11char_traitsIcESaIcEEESt4pairIKS5_PN7Imf_3_216FlatImageChannelEESt10_Select1stISB_ESt4lessIS5_ESaISB_EE10_Auto_node9_M_insertES6_IPSt18_Rb_tree_node_baseSK_E = comdat any

$_ZNSt8_Rb_treeINSt7__cxx1112basic_stringIcSt11char_traitsIcESaIcEEESt4pairIKS5_PN7Imf_3_216FlatImageChannelEESt10_Select1stISB_ESt4lessIS5_ESaISB_EE10_Auto_nodeD2Ev = comdat any

$_ZNSt8_Rb_treeINSt7__cxx1112basic_stringIcSt11char_traitsIcESaIcEEESt4pairIKS5_PN7Imf_3_216FlatImageChannelEESt10_Select1stISB_ESt4lessIS5_ESaISB_EE14_M_create_nodeIJRKSt21piecewise_construct_tSt5tupleIJRS7_EESM_IJEEEEEPSt13_Rb_tree_nodeISB_EDpOT_ = comdat any

$_ZNSt8_Rb_treeINSt7__cxx1112basic_stringIcSt11char_traitsIcESaIcEEESt4pairIKS5_PN7Imf_3_216FlatImageChannelEESt10_Select1stISB_ESt4lessIS5_ESaISB_EE11_M_get_nodeEv = comdat any

$_ZNSt8_Rb_treeINSt7__cxx1112basic_stringIcSt11char_traitsIcESaIcEEESt4pairIKS5_PN7Imf_3_216FlatImageChannelEESt10_Select1stISB_ESt4lessIS5_ESaISB_EE17_M_construct_nodeIJRKSt21piecewise_construct_tSt5tupleIJRS7_EESM_IJEEEEEvPSt13_Rb_tree_nodeISB_EDpOT_ = comdat any

$_ZNSt16allocator_traitsISaISt13_Rb_tree_nodeISt4pairIKNSt7__cxx1112basic_stringIcSt11char_traitsIcESaIcEEEPN7Imf_3_216FlatImageChannelEEEEE8allocateERSE_m = comdat any

$_ZNSt15__new_allocatorISt13_Rb_tree_nodeISt4pairIKNSt7__cxx1112basic_stringIcSt11char_traitsIcESaIcEEEPN7Imf_3_216FlatImageChannelEEEE8allocateEmPKv = comdat any

$_ZNKSt15__new_allocatorISt13_Rb_tree_nodeISt4pairIKNSt7__cxx1112basic_stringIcSt11char_traitsIcESaIcEEEPN7Imf_3_216FlatImageChannelEEEE11_M_max_sizeEv = comdat any

$_ZNSt16allocator_traitsISaISt13_Rb_tree_nodeISt4pairIKNSt7__cxx1112basic_stringIcSt11char_traitsIcESaIcEEEPN7Imf_3_216FlatImageChannelEEEEE9constructISC_JRKSt21piecewise_construct_tSt5tupleIJRS8_EESK_IJEEEEEvRSE_PT_DpOT0_ = comdat any

$_ZNSt15__new_allocatorISt13_Rb_tree_nodeISt4pairIKNSt7__cxx1112basic_stringIcSt11char_traitsIcESaIcEEEPN7Imf_3_216FlatImageChannelEEEE9constructISC_JRKSt21piecewise_construct_tSt5tupleIJRS8_EESJ_IJEEEEEvPT_DpOT0_ = comdat any

$_ZNSt5tupleIJRKNSt7__cxx1112basic_stringIcSt11char_traitsIcESaIcEEEEEC2EOS8_ = comdat any

$_ZNSt4pairIKNSt7__cxx1112basic_stringIcSt11char_traitsIcESaIcEEEPN7Imf_3_216FlatImageChannelEEC2IJRS6_EJEEESt21piecewise_construct_tSt5tupleIJDpT_EESE_IJDpT0_EE = comdat any

$_ZNSt11_Tuple_implILm0EJRKNSt7__cxx1112basic_stringIcSt11char_traitsIcESaIcEEEEEC2EOS8_ = comdat any

$_ZNSt4pairIKNSt7__cxx1112basic_stringIcSt11char_traitsIcESaIcEEEPN7Imf_3_216FlatImageChannelEEC2IJRS6_EJLm0EEJETpTnmJEEERSt5tupleIJDpT_EERSD_IJDpT1_EESt12_Index_tupleIJXspT0_EEESM_IJXspT2_EEE = comdat any

$_ZSt3getILm0EJRKNSt7__cxx1112basic_stringIcSt11char_traitsIcESaIcEEEEERNSt13tuple_elementIXT_ESt5tupleIJDpT0_EEE4typeERSC_ = comdat any

$_ZSt12__get_helperILm0ERKNSt7__cxx1112basic_stringIcSt11char_traitsIcESaIcEEEJEERT0_RSt11_Tuple_implIXT_EJS8_DpT1_EE = comdat any

$_ZNSt11_Tuple_implILm0EJRKNSt7__cxx1112basic_stringIcSt11char_traitsIcESaIcEEEEE7_M_headERS8_ = comdat any

$_ZNSt10_Head_baseILm0ERKNSt7__cxx1112basic_stringIcSt11char_traitsIcESaIcEEELb0EE7_M_headERS8_ = comdat any

$_ZNKSt23_Rb_tree_const_iteratorISt4pairIKNSt7__cxx1112basic_stringIcSt11char_traitsIcESaIcEEEPN7Imf_3_216FlatImageChannelEEE13_M_const_castEv = comdat any

$_ZNKSt8_Rb_treeINSt7__cxx1112basic_stringIcSt11char_traitsIcESaIcEEESt4pairIKS5_PN7Imf_3_216FlatImageChannelEESt10_Select1stISB_ESt4lessIS5_ESaISB_EE4sizeEv = comdat any

$_ZNSt8_Rb_treeINSt7__cxx1112basic_stringIcSt11char_traitsIcESaIcEEESt4pairIKS5_PN7Imf_3_216FlatImageChannelEESt10_Select1stISB_ESt4lessIS5_ESaISB_EE12_M_rightmostEv = comdat any

$_ZNSt4pairIPSt18_Rb_tree_node_baseS1_EC2IS1_S1_TnNSt9enable_ifIXaaclsr5_PCCPE18_ConstructiblePairIT_T0_EEclsr5_PCCPE26_ImplicitlyConvertiblePairIS5_S6_EEEbE4typeELb1EEERKS1_SA_ = comdat any

$_ZNSt8_Rb_treeINSt7__cxx1112basic_stringIcSt11char_traitsIcESaIcEEESt4pairIKS5_PN7Imf_3_216FlatImageChannelEESt10_Select1stISB_ESt4lessIS5_ESaISB_EE24_M_get_insert_unique_posERS7_ = comdat any

$_ZNSt8_Rb_treeINSt7__cxx1112basic_stringIcSt11char_traitsIcESaIcEEESt4pairIKS5_PN7Imf_3_216FlatImageChannelEESt10_Select1stISB_ESt4lessIS5_ESaISB_EE11_M_leftmostEv = comdat any

$_ZNSt4pairIPSt18_Rb_tree_node_baseS1_EC2IRS1_S4_TnNSt9enable_ifIXaaclsr5_PCCPE22_MoveConstructiblePairIT_T0_EEclsr5_PCCPE30_ImplicitlyMoveConvertiblePairIS6_S7_EEEbE4typeELb1EEEOS6_OS7_ = comdat any

$_ZNSt17_Rb_tree_iteratorISt4pairIKNSt7__cxx1112basic_stringIcSt11char_traitsIcESaIcEEEPN7Imf_3_216FlatImageChannelEEEmmEv = comdat any

$_ZNSt4pairIPSt18_Rb_tree_node_baseS1_EC2IRPSt13_Rb_tree_nodeIS_IKNSt7__cxx1112basic_stringIcSt11char_traitsIcESaIcEEEPN7Imf_3_216FlatImageChannelEEERS1_TnNSt9enable_ifIXaaclsr5_PCCPE22_MoveConstructiblePairIT_T0_EEclsr5_PCCPE30_ImplicitlyMoveConvertiblePairISL_SM_EEEbE4typeELb1EEEOSL_OSM_ = comdat any

$_ZNSt8_Rb_treeINSt7__cxx1112basic_stringIcSt11char_traitsIcESaIcEEESt4pairIKS5_PN7Imf_3_216FlatImageChannelEESt10_Select1stISB_ESt4lessIS5_ESaISB_EE14_M_insert_nodeEPSt18_Rb_tree_node_baseSJ_PSt13_Rb_tree_nodeISB_E = comdat any

$_ZNSt11_Tuple_implILm0EJRKNSt7__cxx1112basic_stringIcSt11char_traitsIcESaIcEEEEEC2ES7_ = comdat any

$_ZNSt10_Head_baseILm0ERKNSt7__cxx1112basic_stringIcSt11char_traitsIcESaIcEEELb0EEC2ES7_ = comdat any

$_ZNSt8_Rb_treeINSt7__cxx1112basic_stringIcSt11char_traitsIcESaIcEEESt4pairIKS5_PN7Imf_3_216FlatImageChannelEESt10_Select1stISB_ESt4lessIS5_ESaISB_EE5eraseB5cxx11ESt17_Rb_tree_iteratorISB_E = comdat any

$_ZNSt8_Rb_treeINSt7__cxx1112basic_stringIcSt11char_traitsIcESaIcEEESt4pairIKS5_PN7Imf_3_216FlatImageChannelEESt10_Select1stISB_ESt4lessIS5_ESaISB_EE12_M_erase_auxESt23_Rb_tree_const_iteratorISB_E = comdat any

$_ZNSt8_Rb_treeINSt7__cxx1112basic_stringIcSt11char_traitsIcESaIcEEESt4pairIKS5_PN7Imf_3_216FlatImageChannelEESt10_Select1stISB_ESt4lessIS5_ESaISB_EE5clearEv = comdat any

$_ZNKSt3mapINSt7__cxx1112basic_stringIcSt11char_traitsIcESaIcEEES5_St4lessIS5_ESaISt4pairIKS5_S5_EEE4findERS9_ = comdat any

$_ZSteqRKSt23_Rb_tree_const_iteratorISt4pairIKNSt7__cxx1112basic_stringIcSt11char_traitsIcESaIcEEES6_EESB_ = comdat any

$_ZNKSt3mapINSt7__cxx1112basic_stringIcSt11char_traitsIcESaIcEEES5_St4lessIS5_ESaISt4pairIKS5_S5_EEE3endEv = comdat any

$_ZNKSt23_Rb_tree_const_iteratorISt4pairIKNSt7__cxx1112basic_stringIcSt11char_traitsIcESaIcEEES6_EEptEv = comdat any

$_ZNSt23_Rb_tree_const_iteratorISt4pairIKNSt7__cxx1112basic_stringIcSt11char_traitsIcESaIcEEEPN7Imf_3_216FlatImageChannelEEEppEv = comdat any

$_ZNSt3mapINSt7__cxx1112basic_stringIcSt11char_traitsIcESaIcEEEPN7Imf_3_216FlatImageChannelESt4lessIS5_ESaISt4pairIKS5_S8_EEEaSERKSF_ = comdat any

$_ZNKSt8_Rb_treeINSt7__cxx1112basic_stringIcSt11char_traitsIcESaIcEEESt4pairIKS5_S5_ESt10_Select1stIS8_ESt4lessIS5_ESaIS8_EE4findERS7_ = comdat any

$_ZNKSt8_Rb_treeINSt7__cxx1112basic_stringIcSt11char_traitsIcESaIcEEESt4pairIKS5_S5_ESt10_Select1stIS8_ESt4lessIS5_ESaIS8_EE14_M_lower_boundEPKSt13_Rb_tree_nodeIS8_EPKSt18_Rb_tree_node_baseRS7_ = comdat any

$_ZNKSt8_Rb_treeINSt7__cxx1112basic_stringIcSt11char_traitsIcESaIcEEESt4pairIKS5_S5_ESt10_Select1stIS8_ESt4lessIS5_ESaIS8_EE8_M_beginEv = comdat any

$_ZNKSt8_Rb_treeINSt7__cxx1112basic_stringIcSt11char_traitsIcESaIcEEESt4pairIKS5_S5_ESt10_Select1stIS8_ESt4lessIS5_ESaIS8_EE6_M_endEv = comdat any

$_ZNKSt8_Rb_treeINSt7__cxx1112basic_stringIcSt11char_traitsIcESaIcEEESt4pairIKS5_S5_ESt10_Select1stIS8_ESt4lessIS5_ESaIS8_EE3endEv = comdat any

$_ZNSt8_Rb_treeINSt7__cxx1112basic_stringIcSt11char_traitsIcESaIcEEESt4pairIKS5_S5_ESt10_Select1stIS8_ESt4lessIS5_ESaIS8_EE6_S_keyEPKSt18_Rb_tree_node_base = comdat any

$_ZNSt8_Rb_treeINSt7__cxx1112basic_stringIcSt11char_traitsIcESaIcEEESt4pairIKS5_S5_ESt10_Select1stIS8_ESt4lessIS5_ESaIS8_EE6_S_keyEPKSt13_Rb_tree_nodeIS8_E = comdat any

$_ZNSt8_Rb_treeINSt7__cxx1112basic_stringIcSt11char_traitsIcESaIcEEESt4pairIKS5_S5_ESt10_Select1stIS8_ESt4lessIS5_ESaIS8_EE7_S_leftEPKSt18_Rb_tree_node_base = comdat any

$_ZNSt8_Rb_treeINSt7__cxx1112basic_stringIcSt11char_traitsIcESaIcEEESt4pairIKS5_S5_ESt10_Select1stIS8_ESt4lessIS5_ESaIS8_EE8_S_rightEPKSt18_Rb_tree_node_base = comdat any

$_ZNSt23_Rb_tree_const_iteratorISt4pairIKNSt7__cxx1112basic_stringIcSt11char_traitsIcESaIcEEES6_EEC2EPKSt18_Rb_tree_node_base = comdat any

$_ZNKSt10_Select1stISt4pairIKNSt7__cxx1112basic_stringIcSt11char_traitsIcESaIcEEES6_EEclERKS8_ = comdat any

$_ZNKSt13_Rb_tree_nodeISt4pairIKNSt7__cxx1112basic_stringIcSt11char_traitsIcESaIcEEES6_EE9_M_valptrEv = comdat any

$_ZNK9__gnu_cxx16__aligned_membufISt4pairIKNSt7__cxx1112basic_stringIcSt11char_traitsIcESaIcEEES7_EE6_M_ptrEv = comdat any

$_ZNK9__gnu_cxx16__aligned_membufISt4pairIKNSt7__cxx1112basic_stringIcSt11char_traitsIcESaIcEEES7_EE7_M_addrEv = comdat any

$_ZNSt8_Rb_treeINSt7__cxx1112basic_stringIcSt11char_traitsIcESaIcEEESt4pairIKS5_PN7Imf_3_216FlatImageChannelEESt10_Select1stISB_ESt4lessIS5_ESaISB_EEaSERKSH_ = comdat any

$_ZNSt8_Rb_treeINSt7__cxx1112basic_stringIcSt11char_traitsIcESaIcEEESt4pairIKS5_PN7Imf_3_216FlatImageChannelEESt10_Select1stISB_ESt4lessIS5_ESaISB_EE20_Reuse_or_alloc_nodeC2ERSH_ = comdat any

$_ZNKSt8_Rb_treeINSt7__cxx1112basic_stringIcSt11char_traitsIcESaIcEEESt4pairIKS5_PN7Imf_3_216FlatImageChannelEESt10_Select1stISB_ESt4lessIS5_ESaISB_EE7_M_rootEv = comdat any

$_ZNSt8_Rb_treeINSt7__cxx1112basic_stringIcSt11char_traitsIcESaIcEEESt4pairIKS5_PN7Imf_3_216FlatImageChannelEESt10_Select1stISB_ESt4lessIS5_ESaISB_EE7_M_copyILb0ENSH_20_Reuse_or_alloc_nodeEEEPSt13_Rb_tree_nodeISB_ERKSH_RT0_ = comdat any

$_ZNSt8_Rb_treeINSt7__cxx1112basic_stringIcSt11char_traitsIcESaIcEEESt4pairIKS5_PN7Imf_3_216FlatImageChannelEESt10_Select1stISB_ESt4lessIS5_ESaISB_EE7_M_rootEv = comdat any

$_ZNSt8_Rb_treeINSt7__cxx1112basic_stringIcSt11char_traitsIcESaIcEEESt4pairIKS5_PN7Imf_3_216FlatImageChannelEESt10_Select1stISB_ESt4lessIS5_ESaISB_EE20_Reuse_or_alloc_nodeD2Ev = comdat any

$_ZNSt8_Rb_treeINSt7__cxx1112basic_stringIcSt11char_traitsIcESaIcEEESt4pairIKS5_PN7Imf_3_216FlatImageChannelEESt10_Select1stISB_ESt4lessIS5_ESaISB_EE7_M_copyILb0ENSH_20_Reuse_or_alloc_nodeEEEPSt13_Rb_tree_nodeISB_ESM_PSt18_Rb_tree_node_baseRT0_ = comdat any

$_ZNSt8_Rb_treeINSt7__cxx1112basic_stringIcSt11char_traitsIcESaIcEEESt4pairIKS5_PN7Imf_3_216FlatImageChannelEESt10_Select1stISB_ESt4lessIS5_ESaISB_EE10_S_minimumEPSt18_Rb_tree_node_base = comdat any

$_ZNSt8_Rb_treeINSt7__cxx1112basic_stringIcSt11char_traitsIcESaIcEEESt4pairIKS5_PN7Imf_3_216FlatImageChannelEESt10_Select1stISB_ESt4lessIS5_ESaISB_EE10_S_maximumEPSt18_Rb_tree_node_base = comdat any

$_ZNSt8_Rb_treeINSt7__cxx1112basic_stringIcSt11char_traitsIcESaIcEEESt4pairIKS5_PN7Imf_3_216FlatImageChannelEESt10_Select1stISB_ESt4lessIS5_ESaISB_EE13_M_clone_nodeILb0ENSH_20_Reuse_or_alloc_nodeEEEPSt13_Rb_tree_nodeISB_ESM_RT0_ = comdat any

$_ZNSt8_Rb_treeINSt7__cxx1112basic_stringIcSt11char_traitsIcESaIcEEESt4pairIKS5_PN7Imf_3_216FlatImageChannelEESt10_Select1stISB_ESt4lessIS5_ESaISB_EE20_Reuse_or_alloc_nodeclIRKSB_EEPSt13_Rb_tree_nodeISB_EOT_ = comdat any

$_ZNSt8_Rb_treeINSt7__cxx1112basic_stringIcSt11char_traitsIcESaIcEEESt4pairIKS5_PN7Imf_3_216FlatImageChannelEESt10_Select1stISB_ESt4lessIS5_ESaISB_EE20_Reuse_or_alloc_node10_M_extractEv = comdat any

$_ZNSt8_Rb_treeINSt7__cxx1112basic_stringIcSt11char_traitsIcESaIcEEESt4pairIKS5_PN7Imf_3_216FlatImageChannelEESt10_Select1stISB_ESt4lessIS5_ESaISB_EE17_M_construct_nodeIJRKSB_EEEvPSt13_Rb_tree_nodeISB_EDpOT_ = comdat any

$_ZNSt8_Rb_treeINSt7__cxx1112basic_stringIcSt11char_traitsIcESaIcEEESt4pairIKS5_PN7Imf_3_216FlatImageChannelEESt10_Select1stISB_ESt4lessIS5_ESaISB_EE14_M_create_nodeIJRKSB_EEEPSt13_Rb_tree_nodeISB_EDpOT_ = comdat any

$_ZNSt16allocator_traitsISaISt13_Rb_tree_nodeISt4pairIKNSt7__cxx1112basic_stringIcSt11char_traitsIcESaIcEEEPN7Imf_3_216FlatImageChannelEEEEE9constructISC_JRKSC_EEEvRSE_PT_DpOT0_ = comdat any

$_ZNSt15__new_allocatorISt13_Rb_tree_nodeISt4pairIKNSt7__cxx1112basic_stringIcSt11char_traitsIcESaIcEEEPN7Imf_3_216FlatImageChannelEEEE9constructISC_JRKSC_EEEvPT_DpOT0_ = comdat any

$_ZNSt4pairIKNSt7__cxx1112basic_stringIcSt11char_traitsIcESaIcEEEPN7Imf_3_216FlatImageChannelEEC2ERKSA_ = comdat any

$_ZNSt18_Rb_tree_node_base10_S_minimumEPS_ = comdat any

$_ZNSt18_Rb_tree_node_base10_S_maximumEPS_ = comdat any

$_ZNKSt8_Rb_treeINSt7__cxx1112basic_stringIcSt11char_traitsIcESaIcEEESt4pairIKS5_PN7Imf_3_216FlatImageChannelEESt10_Select1stISB_ESt4lessIS5_ESaISB_EE4findERS7_ = comdat any

$_ZNKSt8_Rb_treeINSt7__cxx1112basic_stringIcSt11char_traitsIcESaIcEEESt4pairIKS5_PN7Imf_3_216FlatImageChannelEESt10_Select1stISB_ESt4lessIS5_ESaISB_EE14_M_lower_boundEPKSt13_Rb_tree_nodeISB_EPKSt18_Rb_tree_node_baseRS7_ = comdat any

$_ZNKSt8_Rb_treeINSt7__cxx1112basic_stringIcSt11char_traitsIcESaIcEEESt4pairIKS5_PN7Imf_3_216FlatImageChannelEESt10_Select1stISB_ESt4lessIS5_ESaISB_EE8_M_beginEv = comdat any

$_ZNKSt8_Rb_treeINSt7__cxx1112basic_stringIcSt11char_traitsIcESaIcEEESt4pairIKS5_PN7Imf_3_216FlatImageChannelEESt10_Select1stISB_ESt4lessIS5_ESaISB_EE6_M_endEv = comdat any

$_ZNKSt8_Rb_treeINSt7__cxx1112basic_stringIcSt11char_traitsIcESaIcEEESt4pairIKS5_PN7Imf_3_216FlatImageChannelEESt10_Select1stISB_ESt4lessIS5_ESaISB_EE3endEv = comdat any

$_ZNSt8_Rb_treeINSt7__cxx1112basic_stringIcSt11char_traitsIcESaIcEEESt4pairIKS5_PN7Imf_3_216FlatImageChannelEESt10_Select1stISB_ESt4lessIS5_ESaISB_EE7_S_leftEPKSt18_Rb_tree_node_base = comdat any

$_ZNSt8_Rb_treeINSt7__cxx1112basic_stringIcSt11char_traitsIcESaIcEEESt4pairIKS5_PN7Imf_3_216FlatImageChannelEESt10_Select1stISB_ESt4lessIS5_ESaISB_EE8_S_rightEPKSt18_Rb_tree_node_base = comdat any

$_ZNSt23_Rb_tree_const_iteratorISt4pairIKNSt7__cxx1112basic_stringIcSt11char_traitsIcESaIcEEEPN7Imf_3_216FlatImageChannelEEEC2EPKSt18_Rb_tree_node_base = comdat any

$_ZNKSt8_Rb_treeINSt7__cxx1112basic_stringIcSt11char_traitsIcESaIcEEESt4pairIKS5_PN7Imf_3_216FlatImageChannelEESt10_Select1stISB_ESt4lessIS5_ESaISB_EE5beginEv = comdat any

$_ZSt19piecewise_construct = comdat any

@_ZStL8__ioinit = internal global %"class.std::ios_base::Init" zeroinitializer, align 1
@__dso_handle = external hidden global i8
@_ZTVN7Imf_3_214FlatImageLevelE = unnamed_addr constant { [11 x ptr] } { [11 x ptr] [ptr null, ptr @_ZTIN7Imf_3_214FlatImageLevelE, ptr @_ZN7Imf_3_214FlatImageLevelD1Ev, ptr @_ZN7Imf_3_214FlatImageLevelD0Ev, ptr @_ZN7Imf_3_214FlatImageLevel6resizeERKN9Imath_3_23BoxINS1_4Vec2IiEEEE, ptr @_ZN7Imf_3_214FlatImageLevel11shiftPixelsEii, ptr @_ZN7Imf_3_214FlatImageLevel13insertChannelERKNSt7__cxx1112basic_stringIcSt11char_traitsIcESaIcEEENS_9PixelTypeEiib, ptr @_ZN7Imf_3_214FlatImageLevel12eraseChannelERKNSt7__cxx1112basic_stringIcSt11char_traitsIcESaIcEEE, ptr @_ZN7Imf_3_214FlatImageLevel13clearChannelsEv, ptr @_ZN7Imf_3_214FlatImageLevel13renameChannelERKNSt7__cxx1112basic_stringIcSt11char_traitsIcESaIcEEES8_, ptr @_ZN7Imf_3_214FlatImageLevel14renameChannelsERKSt3mapINSt7__cxx1112basic_stringIcSt11char_traitsIcESaIcEEES7_St4lessIS7_ESaISt4pairIKS7_S7_EEE] }, align 8
@_ZTVN10__cxxabiv120__si_class_type_infoE = external global [0 x ptr]
@_ZTSN7Imf_3_214FlatImageLevelE = constant [27 x i8] c"N7Imf_3_214FlatImageLevelE\00", align 1
@_ZTIN7Imf_3_210ImageLevelE = external constant ptr
@_ZTIN7Imf_3_214FlatImageLevelE = constant { ptr, ptr, ptr } { ptr getelementptr inbounds (ptr, ptr @_ZTVN10__cxxabiv120__si_class_type_infoE, i64 2), ptr @_ZTSN7Imf_3_214FlatImageLevelE, ptr @_ZTIN7Imf_3_210ImageLevelE }, align 8
@_ZSt19piecewise_construct = linkonce_odr constant %"struct.std::piecewise_construct_t" zeroinitializer, comdat, align 1
@llvm.global_ctors = appending global [1 x { i32, ptr, ptr }] [{ i32, ptr, ptr } { i32 65535, ptr @_GLOBAL__sub_I_ImfFlatImageLevel.cpp, ptr null }]

@_ZN7Imf_3_214FlatImageLevelC1ERNS_9FlatImageEiiRKN9Imath_3_23BoxINS3_4Vec2IiEEEE = hidden unnamed_addr alias void (ptr, ptr, i32, i32, ptr), ptr @_ZN7Imf_3_214FlatImageLevelC2ERNS_9FlatImageEiiRKN9Imath_3_23BoxINS3_4Vec2IiEEEE
@_ZN7Imf_3_214FlatImageLevelD1Ev = hidden unnamed_addr alias void (ptr), ptr @_ZN7Imf_3_214FlatImageLevelD2Ev

; Function Attrs: uwtable
define internal void @__cxx_global_var_init() #0 section ".text.startup" {
entry:
  call void @_ZNSt8ios_base4InitC1Ev(ptr noundef nonnull align 1 dereferenceable(1) @_ZStL8__ioinit)
  %0 = call i32 @__cxa_atexit(ptr @_ZNSt8ios_base4InitD1Ev, ptr @_ZStL8__ioinit, ptr @__dso_handle) #3
  ret void
}

declare void @_ZNSt8ios_base4InitC1Ev(ptr noundef nonnull align 1 dereferenceable(1)) unnamed_addr #1

; Function Attrs: nounwind
declare void @_ZNSt8ios_base4InitD1Ev(ptr noundef nonnull align 1 dereferenceable(1)) unnamed_addr #2

; Function Attrs: nounwind
declare i32 @__cxa_atexit(ptr, ptr, ptr) #3

; Function Attrs: mustprogress uwtable
define hidden void @_ZN7Imf_3_214FlatImageLevelC2ERNS_9FlatImageEiiRKN9Imath_3_23BoxINS3_4Vec2IiEEEE(ptr noundef nonnull align 8 dereferenceable(88) %this, ptr noundef nonnull align 8 dereferenceable(104) %image, i32 noundef %xLevelNumber, i32 noundef %yLevelNumber, ptr noundef nonnull align 4 dereferenceable(16) %dataWindow) unnamed_addr #4 align 2 personality ptr @__gxx_personality_v0 {
entry:
  %this.addr = alloca ptr, align 8
  %image.addr = alloca ptr, align 8
  %xLevelNumber.addr = alloca i32, align 4
  %yLevelNumber.addr = alloca i32, align 4
  %dataWindow.addr = alloca ptr, align 8
  %exn.slot = alloca ptr, align 8
  %ehselector.slot = alloca i32, align 4
  store ptr %this, ptr %this.addr, align 8
  store ptr %image, ptr %image.addr, align 8
  store i32 %xLevelNumber, ptr %xLevelNumber.addr, align 4
  store i32 %yLevelNumber, ptr %yLevelNumber.addr, align 4
  store ptr %dataWindow, ptr %dataWindow.addr, align 8
  %this1 = load ptr, ptr %this.addr, align 8
  %0 = load ptr, ptr %image.addr, align 8
  %1 = load i32, ptr %xLevelNumber.addr, align 4
  %2 = load i32, ptr %yLevelNumber.addr, align 4
  call void @_ZN7Imf_3_210ImageLevelC2ERNS_5ImageEii(ptr noundef nonnull align 8 dereferenceable(40) %this1, ptr noundef nonnull align 8 dereferenceable(104) %0, i32 noundef %1, i32 noundef %2)
  store ptr getelementptr inbounds ({ [11 x ptr] }, ptr @_ZTVN7Imf_3_214FlatImageLevelE, i32 0, inrange i32 0, i32 2), ptr %this1, align 8
  %_channels = getelementptr inbounds %"class.Imf_3_2::FlatImageLevel", ptr %this1, i32 0, i32 1
  call void @_ZNSt3mapINSt7__cxx1112basic_stringIcSt11char_traitsIcESaIcEEEPN7Imf_3_216FlatImageChannelESt4lessIS5_ESaISt4pairIKS5_S8_EEEC2Ev(ptr noundef nonnull align 8 dereferenceable(48) %_channels) #3
  %3 = load ptr, ptr %dataWindow.addr, align 8
  %vtable = load ptr, ptr %this1, align 8
  %vfn = getelementptr inbounds ptr, ptr %vtable, i64 2
  %4 = load ptr, ptr %vfn, align 8
  invoke void %4(ptr noundef nonnull align 8 dereferenceable(88) %this1, ptr noundef nonnull align 4 dereferenceable(16) %3)
          to label %invoke.cont unwind label %lpad

invoke.cont:                                      ; preds = %entry
  ret void

lpad:                                             ; preds = %entry
  %5 = landingpad { ptr, i32 }
          cleanup
  %6 = extractvalue { ptr, i32 } %5, 0
  store ptr %6, ptr %exn.slot, align 8
  %7 = extractvalue { ptr, i32 } %5, 1
  store i32 %7, ptr %ehselector.slot, align 4
  call void @_ZNSt3mapINSt7__cxx1112basic_stringIcSt11char_traitsIcESaIcEEEPN7Imf_3_216FlatImageChannelESt4lessIS5_ESaISt4pairIKS5_S8_EEED2Ev(ptr noundef nonnull align 8 dereferenceable(48) %_channels) #3
  call void @_ZN7Imf_3_210ImageLevelD2Ev(ptr noundef nonnull align 8 dereferenceable(40) %this1) #3
  br label %eh.resume

eh.resume:                                        ; preds = %lpad
  %exn = load ptr, ptr %exn.slot, align 8
  %sel = load i32, ptr %ehselector.slot, align 4
  %lpad.val = insertvalue { ptr, i32 } poison, ptr %exn, 0
  %lpad.val2 = insertvalue { ptr, i32 } %lpad.val, i32 %sel, 1
  resume { ptr, i32 } %lpad.val2
}

declare void @_ZN7Imf_3_210ImageLevelC2ERNS_5ImageEii(ptr noundef nonnull align 8 dereferenceable(40), ptr noundef nonnull align 8 dereferenceable(104), i32 noundef, i32 noundef) unnamed_addr #1

; Function Attrs: mustprogress nounwind uwtable
define linkonce_odr hidden void @_ZNSt3mapINSt7__cxx1112basic_stringIcSt11char_traitsIcESaIcEEEPN7Imf_3_216FlatImageChannelESt4lessIS5_ESaISt4pairIKS5_S8_EEEC2Ev(ptr noundef nonnull align 8 dereferenceable(48) %this) unnamed_addr #5 comdat align 2 {
entry:
  %this.addr = alloca ptr, align 8
  store ptr %this, ptr %this.addr, align 8
  %this1 = load ptr, ptr %this.addr, align 8
  %_M_t = getelementptr inbounds %"class.std::map", ptr %this1, i32 0, i32 0
  call void @_ZNSt8_Rb_treeINSt7__cxx1112basic_stringIcSt11char_traitsIcESaIcEEESt4pairIKS5_PN7Imf_3_216FlatImageChannelEESt10_Select1stISB_ESt4lessIS5_ESaISB_EEC2Ev(ptr noundef nonnull align 8 dereferenceable(48) %_M_t) #3
  ret void
}

declare i32 @__gxx_personality_v0(...)

; Function Attrs: mustprogress nounwind uwtable
define linkonce_odr hidden void @_ZNSt3mapINSt7__cxx1112basic_stringIcSt11char_traitsIcESaIcEEEPN7Imf_3_216FlatImageChannelESt4lessIS5_ESaISt4pairIKS5_S8_EEED2Ev(ptr noundef nonnull align 8 dereferenceable(48) %this) unnamed_addr #5 comdat align 2 {
entry:
  %this.addr = alloca ptr, align 8
  store ptr %this, ptr %this.addr, align 8
  %this1 = load ptr, ptr %this.addr, align 8
  %_M_t = getelementptr inbounds %"class.std::map", ptr %this1, i32 0, i32 0
  call void @_ZNSt8_Rb_treeINSt7__cxx1112basic_stringIcSt11char_traitsIcESaIcEEESt4pairIKS5_PN7Imf_3_216FlatImageChannelEESt10_Select1stISB_ESt4lessIS5_ESaISB_EED2Ev(ptr noundef nonnull align 8 dereferenceable(48) %_M_t) #3
  ret void
}

; Function Attrs: nounwind
declare void @_ZN7Imf_3_210ImageLevelD2Ev(ptr noundef nonnull align 8 dereferenceable(40)) unnamed_addr #2

; Function Attrs: mustprogress uwtable
define noundef nonnull align 8 dereferenceable(104) ptr @_ZN7Imf_3_214FlatImageLevel9flatImageEv(ptr noundef nonnull align 8 dereferenceable(88) %this) #4 align 2 {
entry:
  %this.addr = alloca ptr, align 8
  store ptr %this, ptr %this.addr, align 8
  %this1 = load ptr, ptr %this.addr, align 8
  %call = call noundef nonnull align 8 dereferenceable(104) ptr @_ZN7Imf_3_210ImageLevel5imageEv(ptr noundef nonnull align 8 dereferenceable(40) %this1)
  ret ptr %call
}

; Function Attrs: mustprogress nounwind uwtable
define linkonce_odr hidden noundef nonnull align 8 dereferenceable(104) ptr @_ZN7Imf_3_210ImageLevel5imageEv(ptr noundef nonnull align 8 dereferenceable(40) %this) #5 comdat align 2 {
entry:
  %this.addr = alloca ptr, align 8
  store ptr %this, ptr %this.addr, align 8
  %this1 = load ptr, ptr %this.addr, align 8
  %_image = getelementptr inbounds %"class.Imf_3_2::ImageLevel", ptr %this1, i32 0, i32 1
  %0 = load ptr, ptr %_image, align 8
  ret ptr %0
}

; Function Attrs: mustprogress uwtable
define noundef nonnull align 8 dereferenceable(104) ptr @_ZNK7Imf_3_214FlatImageLevel9flatImageEv(ptr noundef nonnull align 8 dereferenceable(88) %this) #4 align 2 {
entry:
  %this.addr = alloca ptr, align 8
  store ptr %this, ptr %this.addr, align 8
  %this1 = load ptr, ptr %this.addr, align 8
  %call = call noundef nonnull align 8 dereferenceable(104) ptr @_ZNK7Imf_3_210ImageLevel5imageEv(ptr noundef nonnull align 8 dereferenceable(40) %this1)
  ret ptr %call
}

; Function Attrs: mustprogress nounwind uwtable
define linkonce_odr hidden noundef nonnull align 8 dereferenceable(104) ptr @_ZNK7Imf_3_210ImageLevel5imageEv(ptr noundef nonnull align 8 dereferenceable(40) %this) #5 comdat align 2 {
entry:
  %this.addr = alloca ptr, align 8
  store ptr %this, ptr %this.addr, align 8
  %this1 = load ptr, ptr %this.addr, align 8
  %_image = getelementptr inbounds %"class.Imf_3_2::ImageLevel", ptr %this1, i32 0, i32 1
  %0 = load ptr, ptr %_image, align 8
  ret ptr %0
}

; Function Attrs: mustprogress nounwind uwtable
define hidden void @_ZN7Imf_3_214FlatImageLevelD2Ev(ptr noundef nonnull align 8 dereferenceable(88) %this) unnamed_addr #5 align 2 personality ptr @__gxx_personality_v0 {
entry:
  %this.addr = alloca ptr, align 8
  store ptr %this, ptr %this.addr, align 8
  %this1 = load ptr, ptr %this.addr, align 8
  store ptr getelementptr inbounds ({ [11 x ptr] }, ptr @_ZTVN7Imf_3_214FlatImageLevelE, i32 0, inrange i32 0, i32 2), ptr %this1, align 8
  %vtable = load ptr, ptr %this1, align 8
  %vfn = getelementptr inbounds ptr, ptr %vtable, i64 6
  %0 = load ptr, ptr %vfn, align 8
  invoke void %0(ptr noundef nonnull align 8 dereferenceable(88) %this1)
          to label %invoke.cont unwind label %terminate.lpad

invoke.cont:                                      ; preds = %entry
  %_channels = getelementptr inbounds %"class.Imf_3_2::FlatImageLevel", ptr %this1, i32 0, i32 1
  call void @_ZNSt3mapINSt7__cxx1112basic_stringIcSt11char_traitsIcESaIcEEEPN7Imf_3_216FlatImageChannelESt4lessIS5_ESaISt4pairIKS5_S8_EEED2Ev(ptr noundef nonnull align 8 dereferenceable(48) %_channels) #3
  call void @_ZN7Imf_3_210ImageLevelD2Ev(ptr noundef nonnull align 8 dereferenceable(40) %this1) #3
  ret void

terminate.lpad:                                   ; preds = %entry
  %1 = landingpad { ptr, i32 }
          catch ptr null
  %2 = extractvalue { ptr, i32 } %1, 0
  call void @__clang_call_terminate(ptr %2) #12
  unreachable
}

; Function Attrs: noreturn nounwind uwtable
define linkonce_odr hidden void @__clang_call_terminate(ptr noundef %0) #6 comdat {
  %2 = call ptr @__cxa_begin_catch(ptr %0) #3
  call void @_ZSt9terminatev() #12
  unreachable
}

declare ptr @__cxa_begin_catch(ptr)

declare void @_ZSt9terminatev()

; Function Attrs: mustprogress nounwind uwtable
define hidden void @_ZN7Imf_3_214FlatImageLevelD0Ev(ptr noundef nonnull align 8 dereferenceable(88) %this) unnamed_addr #5 align 2 {
entry:
  %this.addr = alloca ptr, align 8
  store ptr %this, ptr %this.addr, align 8
  %this1 = load ptr, ptr %this.addr, align 8
  call void @_ZN7Imf_3_214FlatImageLevelD1Ev(ptr noundef nonnull align 8 dereferenceable(88) %this1) #3
  call void @_ZdlPv(ptr noundef %this1) #13
  ret void
}

; Function Attrs: nobuiltin nounwind
declare void @_ZdlPv(ptr noundef) #7

; Function Attrs: mustprogress uwtable
define hidden void @_ZN7Imf_3_214FlatImageLevel6resizeERKN9Imath_3_23BoxINS1_4Vec2IiEEEE(ptr noundef nonnull align 8 dereferenceable(88) %this, ptr noundef nonnull align 4 dereferenceable(16) %dataWindow) unnamed_addr #4 align 2 {
entry:
  %this.addr = alloca ptr, align 8
  %dataWindow.addr = alloca ptr, align 8
  %i = alloca %"struct.std::_Rb_tree_iterator", align 8
  %ref.tmp = alloca %"struct.std::_Rb_tree_iterator", align 8
  store ptr %this, ptr %this.addr, align 8
  store ptr %dataWindow, ptr %dataWindow.addr, align 8
  %this1 = load ptr, ptr %this.addr, align 8
  %0 = load ptr, ptr %dataWindow.addr, align 8
  call void @_ZN7Imf_3_210ImageLevel6resizeERKN9Imath_3_23BoxINS1_4Vec2IiEEEE(ptr noundef nonnull align 8 dereferenceable(40) %this1, ptr noundef nonnull align 4 dereferenceable(16) %0)
  %_channels = getelementptr inbounds %"class.Imf_3_2::FlatImageLevel", ptr %this1, i32 0, i32 1
  %call = call ptr @_ZNSt3mapINSt7__cxx1112basic_stringIcSt11char_traitsIcESaIcEEEPN7Imf_3_216FlatImageChannelESt4lessIS5_ESaISt4pairIKS5_S8_EEE5beginEv(ptr noundef nonnull align 8 dereferenceable(48) %_channels) #3
  %coerce.dive = getelementptr inbounds %"struct.std::_Rb_tree_iterator", ptr %i, i32 0, i32 0
  store ptr %call, ptr %coerce.dive, align 8
  br label %for.cond

for.cond:                                         ; preds = %for.inc, %entry
  %_channels2 = getelementptr inbounds %"class.Imf_3_2::FlatImageLevel", ptr %this1, i32 0, i32 1
  %call3 = call ptr @_ZNSt3mapINSt7__cxx1112basic_stringIcSt11char_traitsIcESaIcEEEPN7Imf_3_216FlatImageChannelESt4lessIS5_ESaISt4pairIKS5_S8_EEE3endEv(ptr noundef nonnull align 8 dereferenceable(48) %_channels2) #3
  %coerce.dive4 = getelementptr inbounds %"struct.std::_Rb_tree_iterator", ptr %ref.tmp, i32 0, i32 0
  store ptr %call3, ptr %coerce.dive4, align 8
  %call5 = call noundef zeroext i1 @_ZStneRKSt17_Rb_tree_iteratorISt4pairIKNSt7__cxx1112basic_stringIcSt11char_traitsIcESaIcEEEPN7Imf_3_216FlatImageChannelEEESE_(ptr noundef nonnull align 8 dereferenceable(8) %i, ptr noundef nonnull align 8 dereferenceable(8) %ref.tmp) #3
  br i1 %call5, label %for.body, label %for.end

for.body:                                         ; preds = %for.cond
  %call6 = call noundef ptr @_ZNKSt17_Rb_tree_iteratorISt4pairIKNSt7__cxx1112basic_stringIcSt11char_traitsIcESaIcEEEPN7Imf_3_216FlatImageChannelEEEptEv(ptr noundef nonnull align 8 dereferenceable(8) %i) #3
  %second = getelementptr inbounds %"struct.std::pair", ptr %call6, i32 0, i32 1
  %1 = load ptr, ptr %second, align 8
  %vtable = load ptr, ptr %1, align 8
  %vfn = getelementptr inbounds ptr, ptr %vtable, i64 3
  %2 = load ptr, ptr %vfn, align 8
  call void %2(ptr noundef nonnull align 8 dereferenceable(48) %1)
  br label %for.inc

for.inc:                                          ; preds = %for.body
  %call7 = call noundef nonnull align 8 dereferenceable(8) ptr @_ZNSt17_Rb_tree_iteratorISt4pairIKNSt7__cxx1112basic_stringIcSt11char_traitsIcESaIcEEEPN7Imf_3_216FlatImageChannelEEEppEv(ptr noundef nonnull align 8 dereferenceable(8) %i) #3
  br label %for.cond, !llvm.loop !4

for.end:                                          ; preds = %for.cond
  ret void
}

declare void @_ZN7Imf_3_210ImageLevel6resizeERKN9Imath_3_23BoxINS1_4Vec2IiEEEE(ptr noundef nonnull align 8 dereferenceable(40), ptr noundef nonnull align 4 dereferenceable(16)) unnamed_addr #1

; Function Attrs: mustprogress nounwind uwtable
define linkonce_odr hidden ptr @_ZNSt3mapINSt7__cxx1112basic_stringIcSt11char_traitsIcESaIcEEEPN7Imf_3_216FlatImageChannelESt4lessIS5_ESaISt4pairIKS5_S8_EEE5beginEv(ptr noundef nonnull align 8 dereferenceable(48) %this) #5 comdat align 2 {
entry:
  %retval = alloca %"struct.std::_Rb_tree_iterator", align 8
  %this.addr = alloca ptr, align 8
  store ptr %this, ptr %this.addr, align 8
  %this1 = load ptr, ptr %this.addr, align 8
  %_M_t = getelementptr inbounds %"class.std::map", ptr %this1, i32 0, i32 0
  %call = call ptr @_ZNSt8_Rb_treeINSt7__cxx1112basic_stringIcSt11char_traitsIcESaIcEEESt4pairIKS5_PN7Imf_3_216FlatImageChannelEESt10_Select1stISB_ESt4lessIS5_ESaISB_EE5beginEv(ptr noundef nonnull align 8 dereferenceable(48) %_M_t) #3
  %coerce.dive = getelementptr inbounds %"struct.std::_Rb_tree_iterator", ptr %retval, i32 0, i32 0
  store ptr %call, ptr %coerce.dive, align 8
  %coerce.dive2 = getelementptr inbounds %"struct.std::_Rb_tree_iterator", ptr %retval, i32 0, i32 0
  %0 = load ptr, ptr %coerce.dive2, align 8
  ret ptr %0
}

; Function Attrs: mustprogress nounwind uwtable
define linkonce_odr noundef zeroext i1 @_ZStneRKSt17_Rb_tree_iteratorISt4pairIKNSt7__cxx1112basic_stringIcSt11char_traitsIcESaIcEEEPN7Imf_3_216FlatImageChannelEEESE_(ptr noundef nonnull align 8 dereferenceable(8) %__x, ptr noundef nonnull align 8 dereferenceable(8) %__y) #5 comdat {
entry:
  %__x.addr = alloca ptr, align 8
  %__y.addr = alloca ptr, align 8
  store ptr %__x, ptr %__x.addr, align 8
  store ptr %__y, ptr %__y.addr, align 8
  %0 = load ptr, ptr %__x.addr, align 8
  %_M_node = getelementptr inbounds %"struct.std::_Rb_tree_iterator", ptr %0, i32 0, i32 0
  %1 = load ptr, ptr %_M_node, align 8
  %2 = load ptr, ptr %__y.addr, align 8
  %_M_node1 = getelementptr inbounds %"struct.std::_Rb_tree_iterator", ptr %2, i32 0, i32 0
  %3 = load ptr, ptr %_M_node1, align 8
  %cmp = icmp ne ptr %1, %3
  ret i1 %cmp
}

; Function Attrs: mustprogress nounwind uwtable
define linkonce_odr hidden ptr @_ZNSt3mapINSt7__cxx1112basic_stringIcSt11char_traitsIcESaIcEEEPN7Imf_3_216FlatImageChannelESt4lessIS5_ESaISt4pairIKS5_S8_EEE3endEv(ptr noundef nonnull align 8 dereferenceable(48) %this) #5 comdat align 2 {
entry:
  %retval = alloca %"struct.std::_Rb_tree_iterator", align 8
  %this.addr = alloca ptr, align 8
  store ptr %this, ptr %this.addr, align 8
  %this1 = load ptr, ptr %this.addr, align 8
  %_M_t = getelementptr inbounds %"class.std::map", ptr %this1, i32 0, i32 0
  %call = call ptr @_ZNSt8_Rb_treeINSt7__cxx1112basic_stringIcSt11char_traitsIcESaIcEEESt4pairIKS5_PN7Imf_3_216FlatImageChannelEESt10_Select1stISB_ESt4lessIS5_ESaISB_EE3endEv(ptr noundef nonnull align 8 dereferenceable(48) %_M_t) #3
  %coerce.dive = getelementptr inbounds %"struct.std::_Rb_tree_iterator", ptr %retval, i32 0, i32 0
  store ptr %call, ptr %coerce.dive, align 8
  %coerce.dive2 = getelementptr inbounds %"struct.std::_Rb_tree_iterator", ptr %retval, i32 0, i32 0
  %0 = load ptr, ptr %coerce.dive2, align 8
  ret ptr %0
}

; Function Attrs: mustprogress nounwind uwtable
define linkonce_odr hidden noundef ptr @_ZNKSt17_Rb_tree_iteratorISt4pairIKNSt7__cxx1112basic_stringIcSt11char_traitsIcESaIcEEEPN7Imf_3_216FlatImageChannelEEEptEv(ptr noundef nonnull align 8 dereferenceable(8) %this) #5 comdat align 2 {
entry:
  %this.addr = alloca ptr, align 8
  store ptr %this, ptr %this.addr, align 8
  %this1 = load ptr, ptr %this.addr, align 8
  %_M_node = getelementptr inbounds %"struct.std::_Rb_tree_iterator", ptr %this1, i32 0, i32 0
  %0 = load ptr, ptr %_M_node, align 8
  %call = call noundef ptr @_ZNSt13_Rb_tree_nodeISt4pairIKNSt7__cxx1112basic_stringIcSt11char_traitsIcESaIcEEEPN7Imf_3_216FlatImageChannelEEE9_M_valptrEv(ptr noundef nonnull align 8 dereferenceable(72) %0)
  ret ptr %call
}

; Function Attrs: mustprogress nounwind uwtable
define linkonce_odr hidden noundef nonnull align 8 dereferenceable(8) ptr @_ZNSt17_Rb_tree_iteratorISt4pairIKNSt7__cxx1112basic_stringIcSt11char_traitsIcESaIcEEEPN7Imf_3_216FlatImageChannelEEEppEv(ptr noundef nonnull align 8 dereferenceable(8) %this) #5 comdat align 2 {
entry:
  %this.addr = alloca ptr, align 8
  store ptr %this, ptr %this.addr, align 8
  %this1 = load ptr, ptr %this.addr, align 8
  %_M_node = getelementptr inbounds %"struct.std::_Rb_tree_iterator", ptr %this1, i32 0, i32 0
  %0 = load ptr, ptr %_M_node, align 8
  %call = call noundef ptr @_ZSt18_Rb_tree_incrementPSt18_Rb_tree_node_base(ptr noundef %0) #14
  %_M_node2 = getelementptr inbounds %"struct.std::_Rb_tree_iterator", ptr %this1, i32 0, i32 0
  store ptr %call, ptr %_M_node2, align 8
  ret ptr %this1
}

; Function Attrs: mustprogress uwtable
define hidden void @_ZN7Imf_3_214FlatImageLevel11shiftPixelsEii(ptr noundef nonnull align 8 dereferenceable(88) %this, i32 noundef %dx, i32 noundef %dy) unnamed_addr #4 align 2 {
entry:
  %this.addr = alloca ptr, align 8
  %dx.addr = alloca i32, align 4
  %dy.addr = alloca i32, align 4
  %i = alloca %"struct.std::_Rb_tree_iterator", align 8
  %ref.tmp = alloca %"struct.std::_Rb_tree_iterator", align 8
  store ptr %this, ptr %this.addr, align 8
  store i32 %dx, ptr %dx.addr, align 4
  store i32 %dy, ptr %dy.addr, align 4
  %this1 = load ptr, ptr %this.addr, align 8
  %0 = load i32, ptr %dx.addr, align 4
  %1 = load i32, ptr %dy.addr, align 4
  call void @_ZN7Imf_3_210ImageLevel11shiftPixelsEii(ptr noundef nonnull align 8 dereferenceable(40) %this1, i32 noundef %0, i32 noundef %1)
  %_channels = getelementptr inbounds %"class.Imf_3_2::FlatImageLevel", ptr %this1, i32 0, i32 1
  %call = call ptr @_ZNSt3mapINSt7__cxx1112basic_stringIcSt11char_traitsIcESaIcEEEPN7Imf_3_216FlatImageChannelESt4lessIS5_ESaISt4pairIKS5_S8_EEE5beginEv(ptr noundef nonnull align 8 dereferenceable(48) %_channels) #3
  %coerce.dive = getelementptr inbounds %"struct.std::_Rb_tree_iterator", ptr %i, i32 0, i32 0
  store ptr %call, ptr %coerce.dive, align 8
  br label %for.cond

for.cond:                                         ; preds = %for.inc, %entry
  %_channels2 = getelementptr inbounds %"class.Imf_3_2::FlatImageLevel", ptr %this1, i32 0, i32 1
  %call3 = call ptr @_ZNSt3mapINSt7__cxx1112basic_stringIcSt11char_traitsIcESaIcEEEPN7Imf_3_216FlatImageChannelESt4lessIS5_ESaISt4pairIKS5_S8_EEE3endEv(ptr noundef nonnull align 8 dereferenceable(48) %_channels2) #3
  %coerce.dive4 = getelementptr inbounds %"struct.std::_Rb_tree_iterator", ptr %ref.tmp, i32 0, i32 0
  store ptr %call3, ptr %coerce.dive4, align 8
  %call5 = call noundef zeroext i1 @_ZStneRKSt17_Rb_tree_iteratorISt4pairIKNSt7__cxx1112basic_stringIcSt11char_traitsIcESaIcEEEPN7Imf_3_216FlatImageChannelEEESE_(ptr noundef nonnull align 8 dereferenceable(8) %i, ptr noundef nonnull align 8 dereferenceable(8) %ref.tmp) #3
  br i1 %call5, label %for.body, label %for.end

for.body:                                         ; preds = %for.cond
  %call6 = call noundef ptr @_ZNKSt17_Rb_tree_iteratorISt4pairIKNSt7__cxx1112basic_stringIcSt11char_traitsIcESaIcEEEPN7Imf_3_216FlatImageChannelEEEptEv(ptr noundef nonnull align 8 dereferenceable(8) %i) #3
  %second = getelementptr inbounds %"struct.std::pair", ptr %call6, i32 0, i32 1
  %2 = load ptr, ptr %second, align 8
  %vtable = load ptr, ptr %2, align 8
  %vfn = getelementptr inbounds ptr, ptr %vtable, i64 5
  %3 = load ptr, ptr %vfn, align 8
  call void %3(ptr noundef nonnull align 8 dereferenceable(48) %2)
  br label %for.inc

for.inc:                                          ; preds = %for.body
  %call7 = call noundef nonnull align 8 dereferenceable(8) ptr @_ZNSt17_Rb_tree_iteratorISt4pairIKNSt7__cxx1112basic_stringIcSt11char_traitsIcESaIcEEEPN7Imf_3_216FlatImageChannelEEEppEv(ptr noundef nonnull align 8 dereferenceable(8) %i) #3
  br label %for.cond, !llvm.loop !6

for.end:                                          ; preds = %for.cond
  ret void
}

declare void @_ZN7Imf_3_210ImageLevel11shiftPixelsEii(ptr noundef nonnull align 8 dereferenceable(40), i32 noundef, i32 noundef) unnamed_addr #1

; Function Attrs: mustprogress uwtable
define hidden void @_ZN7Imf_3_214FlatImageLevel13insertChannelERKNSt7__cxx1112basic_stringIcSt11char_traitsIcESaIcEEENS_9PixelTypeEiib(ptr noundef nonnull align 8 dereferenceable(88) %this, ptr noundef nonnull align 8 dereferenceable(32) %name, i32 noundef %type, i32 noundef %xSampling, i32 noundef %ySampling, i1 noundef zeroext %pLinear) unnamed_addr #4 align 2 personality ptr @__gxx_personality_v0 {
entry:
  %this.addr = alloca ptr, align 8
  %name.addr = alloca ptr, align 8
  %type.addr = alloca i32, align 4
  %xSampling.addr = alloca i32, align 4
  %ySampling.addr = alloca i32, align 4
  %pLinear.addr = alloca i8, align 1
  %ref.tmp = alloca %"struct.std::_Rb_tree_iterator", align 8
  %ref.tmp2 = alloca %"struct.std::_Rb_tree_iterator", align 8
  %exn.slot = alloca ptr, align 8
  %ehselector.slot = alloca i32, align 4
  store ptr %this, ptr %this.addr, align 8
  store ptr %name, ptr %name.addr, align 8
  store i32 %type, ptr %type.addr, align 4
  store i32 %xSampling, ptr %xSampling.addr, align 4
  store i32 %ySampling, ptr %ySampling.addr, align 4
  %frombool = zext i1 %pLinear to i8
  store i8 %frombool, ptr %pLinear.addr, align 1
  %this1 = load ptr, ptr %this.addr, align 8
  %_channels = getelementptr inbounds %"class.Imf_3_2::FlatImageLevel", ptr %this1, i32 0, i32 1
  %0 = load ptr, ptr %name.addr, align 8
  %call = call ptr @_ZNSt3mapINSt7__cxx1112basic_stringIcSt11char_traitsIcESaIcEEEPN7Imf_3_216FlatImageChannelESt4lessIS5_ESaISt4pairIKS5_S8_EEE4findERSC_(ptr noundef nonnull align 8 dereferenceable(48) %_channels, ptr noundef nonnull align 8 dereferenceable(32) %0)
  %coerce.dive = getelementptr inbounds %"struct.std::_Rb_tree_iterator", ptr %ref.tmp, i32 0, i32 0
  store ptr %call, ptr %coerce.dive, align 8
  %_channels3 = getelementptr inbounds %"class.Imf_3_2::FlatImageLevel", ptr %this1, i32 0, i32 1
  %call4 = call ptr @_ZNSt3mapINSt7__cxx1112basic_stringIcSt11char_traitsIcESaIcEEEPN7Imf_3_216FlatImageChannelESt4lessIS5_ESaISt4pairIKS5_S8_EEE3endEv(ptr noundef nonnull align 8 dereferenceable(48) %_channels3) #3
  %coerce.dive5 = getelementptr inbounds %"struct.std::_Rb_tree_iterator", ptr %ref.tmp2, i32 0, i32 0
  store ptr %call4, ptr %coerce.dive5, align 8
  %call6 = call noundef zeroext i1 @_ZStneRKSt17_Rb_tree_iteratorISt4pairIKNSt7__cxx1112basic_stringIcSt11char_traitsIcESaIcEEEPN7Imf_3_216FlatImageChannelEEESE_(ptr noundef nonnull align 8 dereferenceable(8) %ref.tmp, ptr noundef nonnull align 8 dereferenceable(8) %ref.tmp2) #3
  br i1 %call6, label %if.then, label %if.end

if.then:                                          ; preds = %entry
  %1 = load ptr, ptr %name.addr, align 8
  call void @_ZNK7Imf_3_210ImageLevel18throwChannelExistsERKNSt7__cxx1112basic_stringIcSt11char_traitsIcESaIcEEE(ptr noundef nonnull align 8 dereferenceable(40) %this1, ptr noundef nonnull align 8 dereferenceable(32) %1)
  br label %if.end

if.end:                                           ; preds = %if.then, %entry
  %2 = load i32, ptr %type.addr, align 4
  switch i32 %2, label %sw.default [
    i32 1, label %sw.bb
    i32 2, label %sw.bb10
    i32 0, label %sw.bb17
  ]

sw.bb:                                            ; preds = %if.end
  %call7 = call noalias noundef nonnull ptr @_Znwm(i64 noundef 64) #15
  %3 = load i32, ptr %xSampling.addr, align 4
  %4 = load i32, ptr %ySampling.addr, align 4
  %5 = load i8, ptr %pLinear.addr, align 1
  %tobool = trunc i8 %5 to i1
  invoke void @_ZN7Imf_3_221TypedFlatImageChannelIN9Imath_3_24halfEEC1ERNS_14FlatImageLevelEiib(ptr noundef nonnull align 8 dereferenceable(64) %call7, ptr noundef nonnull align 8 dereferenceable(88) %this1, i32 noundef %3, i32 noundef %4, i1 noundef zeroext %tobool)
          to label %invoke.cont unwind label %lpad

invoke.cont:                                      ; preds = %sw.bb
  %_channels8 = getelementptr inbounds %"class.Imf_3_2::FlatImageLevel", ptr %this1, i32 0, i32 1
  %6 = load ptr, ptr %name.addr, align 8
  %call9 = call noundef nonnull align 8 dereferenceable(8) ptr @_ZNSt3mapINSt7__cxx1112basic_stringIcSt11char_traitsIcESaIcEEEPN7Imf_3_216FlatImageChannelESt4lessIS5_ESaISt4pairIKS5_S8_EEEixERSC_(ptr noundef nonnull align 8 dereferenceable(48) %_channels8, ptr noundef nonnull align 8 dereferenceable(32) %6)
  store ptr %call7, ptr %call9, align 8
  br label %sw.epilog

lpad:                                             ; preds = %sw.bb
  %7 = landingpad { ptr, i32 }
          cleanup
  %8 = extractvalue { ptr, i32 } %7, 0
  store ptr %8, ptr %exn.slot, align 8
  %9 = extractvalue { ptr, i32 } %7, 1
  store i32 %9, ptr %ehselector.slot, align 4
  call void @_ZdlPv(ptr noundef %call7) #13
  br label %eh.resume

sw.bb10:                                          ; preds = %if.end
  %call11 = call noalias noundef nonnull ptr @_Znwm(i64 noundef 64) #15
  %10 = load i32, ptr %xSampling.addr, align 4
  %11 = load i32, ptr %ySampling.addr, align 4
  %12 = load i8, ptr %pLinear.addr, align 1
  %tobool12 = trunc i8 %12 to i1
  invoke void @_ZN7Imf_3_221TypedFlatImageChannelIfEC1ERNS_14FlatImageLevelEiib(ptr noundef nonnull align 8 dereferenceable(64) %call11, ptr noundef nonnull align 8 dereferenceable(88) %this1, i32 noundef %10, i32 noundef %11, i1 noundef zeroext %tobool12)
          to label %invoke.cont14 unwind label %lpad13

invoke.cont14:                                    ; preds = %sw.bb10
  %_channels15 = getelementptr inbounds %"class.Imf_3_2::FlatImageLevel", ptr %this1, i32 0, i32 1
  %13 = load ptr, ptr %name.addr, align 8
  %call16 = call noundef nonnull align 8 dereferenceable(8) ptr @_ZNSt3mapINSt7__cxx1112basic_stringIcSt11char_traitsIcESaIcEEEPN7Imf_3_216FlatImageChannelESt4lessIS5_ESaISt4pairIKS5_S8_EEEixERSC_(ptr noundef nonnull align 8 dereferenceable(48) %_channels15, ptr noundef nonnull align 8 dereferenceable(32) %13)
  store ptr %call11, ptr %call16, align 8
  br label %sw.epilog

lpad13:                                           ; preds = %sw.bb10
  %14 = landingpad { ptr, i32 }
          cleanup
  %15 = extractvalue { ptr, i32 } %14, 0
  store ptr %15, ptr %exn.slot, align 8
  %16 = extractvalue { ptr, i32 } %14, 1
  store i32 %16, ptr %ehselector.slot, align 4
  call void @_ZdlPv(ptr noundef %call11) #13
  br label %eh.resume

sw.bb17:                                          ; preds = %if.end
  %call18 = call noalias noundef nonnull ptr @_Znwm(i64 noundef 64) #15
  %17 = load i32, ptr %xSampling.addr, align 4
  %18 = load i32, ptr %ySampling.addr, align 4
  %19 = load i8, ptr %pLinear.addr, align 1
  %tobool19 = trunc i8 %19 to i1
  invoke void @_ZN7Imf_3_221TypedFlatImageChannelIjEC1ERNS_14FlatImageLevelEiib(ptr noundef nonnull align 8 dereferenceable(64) %call18, ptr noundef nonnull align 8 dereferenceable(88) %this1, i32 noundef %17, i32 noundef %18, i1 noundef zeroext %tobool19)
          to label %invoke.cont21 unwind label %lpad20

invoke.cont21:                                    ; preds = %sw.bb17
  %_channels22 = getelementptr inbounds %"class.Imf_3_2::FlatImageLevel", ptr %this1, i32 0, i32 1
  %20 = load ptr, ptr %name.addr, align 8
  %call23 = call noundef nonnull align 8 dereferenceable(8) ptr @_ZNSt3mapINSt7__cxx1112basic_stringIcSt11char_traitsIcESaIcEEEPN7Imf_3_216FlatImageChannelESt4lessIS5_ESaISt4pairIKS5_S8_EEEixERSC_(ptr noundef nonnull align 8 dereferenceable(48) %_channels22, ptr noundef nonnull align 8 dereferenceable(32) %20)
  store ptr %call18, ptr %call23, align 8
  br label %sw.epilog

lpad20:                                           ; preds = %sw.bb17
  %21 = landingpad { ptr, i32 }
          cleanup
  %22 = extractvalue { ptr, i32 } %21, 0
  store ptr %22, ptr %exn.slot, align 8
  %23 = extractvalue { ptr, i32 } %21, 1
  store i32 %23, ptr %ehselector.slot, align 4
  call void @_ZdlPv(ptr noundef %call18) #13
  br label %eh.resume

sw.default:                                       ; preds = %if.end
  br label %sw.epilog

sw.epilog:                                        ; preds = %sw.default, %invoke.cont21, %invoke.cont14, %invoke.cont
  ret void

eh.resume:                                        ; preds = %lpad20, %lpad13, %lpad
  %exn = load ptr, ptr %exn.slot, align 8
  %sel = load i32, ptr %ehselector.slot, align 4
  %lpad.val = insertvalue { ptr, i32 } poison, ptr %exn, 0
  %lpad.val24 = insertvalue { ptr, i32 } %lpad.val, i32 %sel, 1
  resume { ptr, i32 } %lpad.val24
}

; Function Attrs: mustprogress uwtable
define linkonce_odr hidden ptr @_ZNSt3mapINSt7__cxx1112basic_stringIcSt11char_traitsIcESaIcEEEPN7Imf_3_216FlatImageChannelESt4lessIS5_ESaISt4pairIKS5_S8_EEE4findERSC_(ptr noundef nonnull align 8 dereferenceable(48) %this, ptr noundef nonnull align 8 dereferenceable(32) %__x) #4 comdat align 2 {
entry:
  %retval = alloca %"struct.std::_Rb_tree_iterator", align 8
  %this.addr = alloca ptr, align 8
  %__x.addr = alloca ptr, align 8
  store ptr %this, ptr %this.addr, align 8
  store ptr %__x, ptr %__x.addr, align 8
  %this1 = load ptr, ptr %this.addr, align 8
  %_M_t = getelementptr inbounds %"class.std::map", ptr %this1, i32 0, i32 0
  %0 = load ptr, ptr %__x.addr, align 8
  %call = call ptr @_ZNSt8_Rb_treeINSt7__cxx1112basic_stringIcSt11char_traitsIcESaIcEEESt4pairIKS5_PN7Imf_3_216FlatImageChannelEESt10_Select1stISB_ESt4lessIS5_ESaISB_EE4findERS7_(ptr noundef nonnull align 8 dereferenceable(48) %_M_t, ptr noundef nonnull align 8 dereferenceable(32) %0)
  %coerce.dive = getelementptr inbounds %"struct.std::_Rb_tree_iterator", ptr %retval, i32 0, i32 0
  store ptr %call, ptr %coerce.dive, align 8
  %coerce.dive2 = getelementptr inbounds %"struct.std::_Rb_tree_iterator", ptr %retval, i32 0, i32 0
  %1 = load ptr, ptr %coerce.dive2, align 8
  ret ptr %1
}

declare void @_ZNK7Imf_3_210ImageLevel18throwChannelExistsERKNSt7__cxx1112basic_stringIcSt11char_traitsIcESaIcEEE(ptr noundef nonnull align 8 dereferenceable(40), ptr noundef nonnull align 8 dereferenceable(32)) #1

; Function Attrs: nobuiltin allocsize(0)
declare noundef nonnull ptr @_Znwm(i64 noundef) #8

declare hidden void @_ZN7Imf_3_221TypedFlatImageChannelIN9Imath_3_24halfEEC1ERNS_14FlatImageLevelEiib(ptr noundef nonnull align 8 dereferenceable(64), ptr noundef nonnull align 8 dereferenceable(88), i32 noundef, i32 noundef, i1 noundef zeroext) unnamed_addr #1

; Function Attrs: mustprogress uwtable
define linkonce_odr hidden noundef nonnull align 8 dereferenceable(8) ptr @_ZNSt3mapINSt7__cxx1112basic_stringIcSt11char_traitsIcESaIcEEEPN7Imf_3_216FlatImageChannelESt4lessIS5_ESaISt4pairIKS5_S8_EEEixERSC_(ptr noundef nonnull align 8 dereferenceable(48) %this, ptr noundef nonnull align 8 dereferenceable(32) %__k) #4 comdat align 2 {
entry:
  %this.addr = alloca ptr, align 8
  %__k.addr = alloca ptr, align 8
  %__i = alloca %"struct.std::_Rb_tree_iterator", align 8
  %ref.tmp = alloca %"struct.std::_Rb_tree_iterator", align 8
  %ref.tmp5 = alloca %"struct.std::less", align 1
  %ref.tmp8 = alloca %"struct.std::_Rb_tree_iterator", align 8
  %agg.tmp = alloca %"struct.std::_Rb_tree_const_iterator", align 8
  %ref.tmp9 = alloca %"class.std::tuple", align 8
  %ref.tmp10 = alloca %"class.std::tuple.15", align 1
  store ptr %this, ptr %this.addr, align 8
  store ptr %__k, ptr %__k.addr, align 8
  %this1 = load ptr, ptr %this.addr, align 8
  %0 = load ptr, ptr %__k.addr, align 8
  %call = call ptr @_ZNSt3mapINSt7__cxx1112basic_stringIcSt11char_traitsIcESaIcEEEPN7Imf_3_216FlatImageChannelESt4lessIS5_ESaISt4pairIKS5_S8_EEE11lower_boundERSC_(ptr noundef nonnull align 8 dereferenceable(48) %this1, ptr noundef nonnull align 8 dereferenceable(32) %0)
  %coerce.dive = getelementptr inbounds %"struct.std::_Rb_tree_iterator", ptr %__i, i32 0, i32 0
  store ptr %call, ptr %coerce.dive, align 8
  %call2 = call ptr @_ZNSt3mapINSt7__cxx1112basic_stringIcSt11char_traitsIcESaIcEEEPN7Imf_3_216FlatImageChannelESt4lessIS5_ESaISt4pairIKS5_S8_EEE3endEv(ptr noundef nonnull align 8 dereferenceable(48) %this1) #3
  %coerce.dive3 = getelementptr inbounds %"struct.std::_Rb_tree_iterator", ptr %ref.tmp, i32 0, i32 0
  store ptr %call2, ptr %coerce.dive3, align 8
  %call4 = call noundef zeroext i1 @_ZSteqRKSt17_Rb_tree_iteratorISt4pairIKNSt7__cxx1112basic_stringIcSt11char_traitsIcESaIcEEEPN7Imf_3_216FlatImageChannelEEESE_(ptr noundef nonnull align 8 dereferenceable(8) %__i, ptr noundef nonnull align 8 dereferenceable(8) %ref.tmp) #3
  br i1 %call4, label %lor.end, label %lor.rhs

lor.rhs:                                          ; preds = %entry
  call void @_ZNKSt3mapINSt7__cxx1112basic_stringIcSt11char_traitsIcESaIcEEEPN7Imf_3_216FlatImageChannelESt4lessIS5_ESaISt4pairIKS5_S8_EEE8key_compEv(ptr noundef nonnull align 8 dereferenceable(48) %this1)
  %1 = load ptr, ptr %__k.addr, align 8
  %call6 = call noundef nonnull align 8 dereferenceable(40) ptr @_ZNKSt17_Rb_tree_iteratorISt4pairIKNSt7__cxx1112basic_stringIcSt11char_traitsIcESaIcEEEPN7Imf_3_216FlatImageChannelEEEdeEv(ptr noundef nonnull align 8 dereferenceable(8) %__i) #3
  %first = getelementptr inbounds %"struct.std::pair", ptr %call6, i32 0, i32 0
  %call7 = call noundef zeroext i1 @_ZNKSt4lessINSt7__cxx1112basic_stringIcSt11char_traitsIcESaIcEEEEclERKS5_S8_(ptr noundef nonnull align 1 dereferenceable(1) %ref.tmp5, ptr noundef nonnull align 8 dereferenceable(32) %1, ptr noundef nonnull align 8 dereferenceable(32) %first)
  br label %lor.end

lor.end:                                          ; preds = %lor.rhs, %entry
  %2 = phi i1 [ true, %entry ], [ %call7, %lor.rhs ]
  br i1 %2, label %if.then, label %if.end

if.then:                                          ; preds = %lor.end
  %_M_t = getelementptr inbounds %"class.std::map", ptr %this1, i32 0, i32 0
  call void @_ZNSt23_Rb_tree_const_iteratorISt4pairIKNSt7__cxx1112basic_stringIcSt11char_traitsIcESaIcEEEPN7Imf_3_216FlatImageChannelEEEC2ERKSt17_Rb_tree_iteratorISB_E(ptr noundef nonnull align 8 dereferenceable(8) %agg.tmp, ptr noundef nonnull align 8 dereferenceable(8) %__i) #3
  %3 = load ptr, ptr %__k.addr, align 8
  call void @_ZNSt5tupleIJRKNSt7__cxx1112basic_stringIcSt11char_traitsIcESaIcEEEEEC2ILb1ETnNSt9enable_ifIXclsr4_TCCIXT_EEE29__is_implicitly_constructibleIS7_EEEbE4typeELb1EEES7_(ptr noundef nonnull align 8 dereferenceable(8) %ref.tmp9, ptr noundef nonnull align 8 dereferenceable(32) %3) #3
  %coerce.dive11 = getelementptr inbounds %"struct.std::_Rb_tree_const_iterator", ptr %agg.tmp, i32 0, i32 0
  %4 = load ptr, ptr %coerce.dive11, align 8
  %call12 = call ptr @_ZNSt8_Rb_treeINSt7__cxx1112basic_stringIcSt11char_traitsIcESaIcEEESt4pairIKS5_PN7Imf_3_216FlatImageChannelEESt10_Select1stISB_ESt4lessIS5_ESaISB_EE22_M_emplace_hint_uniqueIJRKSt21piecewise_construct_tSt5tupleIJRS7_EESM_IJEEEEESt17_Rb_tree_iteratorISB_ESt23_Rb_tree_const_iteratorISB_EDpOT_(ptr noundef nonnull align 8 dereferenceable(48) %_M_t, ptr %4, ptr noundef nonnull align 1 dereferenceable(1) @_ZSt19piecewise_construct, ptr noundef nonnull align 8 dereferenceable(8) %ref.tmp9, ptr noundef nonnull align 1 dereferenceable(1) %ref.tmp10)
  %coerce.dive13 = getelementptr inbounds %"struct.std::_Rb_tree_iterator", ptr %ref.tmp8, i32 0, i32 0
  store ptr %call12, ptr %coerce.dive13, align 8
  call void @llvm.memcpy.p0.p0.i64(ptr align 8 %__i, ptr align 8 %ref.tmp8, i64 8, i1 false)
  br label %if.end

if.end:                                           ; preds = %if.then, %lor.end
  %call14 = call noundef nonnull align 8 dereferenceable(40) ptr @_ZNKSt17_Rb_tree_iteratorISt4pairIKNSt7__cxx1112basic_stringIcSt11char_traitsIcESaIcEEEPN7Imf_3_216FlatImageChannelEEEdeEv(ptr noundef nonnull align 8 dereferenceable(8) %__i) #3
  %second = getelementptr inbounds %"struct.std::pair", ptr %call14, i32 0, i32 1
  ret ptr %second
}

declare hidden void @_ZN7Imf_3_221TypedFlatImageChannelIfEC1ERNS_14FlatImageLevelEiib(ptr noundef nonnull align 8 dereferenceable(64), ptr noundef nonnull align 8 dereferenceable(88), i32 noundef, i32 noundef, i1 noundef zeroext) unnamed_addr #1

declare hidden void @_ZN7Imf_3_221TypedFlatImageChannelIjEC1ERNS_14FlatImageLevelEiib(ptr noundef nonnull align 8 dereferenceable(64), ptr noundef nonnull align 8 dereferenceable(88), i32 noundef, i32 noundef, i1 noundef zeroext) unnamed_addr #1

; Function Attrs: mustprogress uwtable
define hidden void @_ZN7Imf_3_214FlatImageLevel12eraseChannelERKNSt7__cxx1112basic_stringIcSt11char_traitsIcESaIcEEE(ptr noundef nonnull align 8 dereferenceable(88) %this, ptr noundef nonnull align 8 dereferenceable(32) %name) unnamed_addr #4 align 2 {
entry:
  %this.addr = alloca ptr, align 8
  %name.addr = alloca ptr, align 8
  %i = alloca %"struct.std::_Rb_tree_iterator", align 8
  %ref.tmp = alloca %"struct.std::_Rb_tree_iterator", align 8
  %agg.tmp = alloca %"struct.std::_Rb_tree_iterator", align 8
  %coerce = alloca %"struct.std::_Rb_tree_iterator", align 8
  store ptr %this, ptr %this.addr, align 8
  store ptr %name, ptr %name.addr, align 8
  %this1 = load ptr, ptr %this.addr, align 8
  %_channels = getelementptr inbounds %"class.Imf_3_2::FlatImageLevel", ptr %this1, i32 0, i32 1
  %0 = load ptr, ptr %name.addr, align 8
  %call = call ptr @_ZNSt3mapINSt7__cxx1112basic_stringIcSt11char_traitsIcESaIcEEEPN7Imf_3_216FlatImageChannelESt4lessIS5_ESaISt4pairIKS5_S8_EEE4findERSC_(ptr noundef nonnull align 8 dereferenceable(48) %_channels, ptr noundef nonnull align 8 dereferenceable(32) %0)
  %coerce.dive = getelementptr inbounds %"struct.std::_Rb_tree_iterator", ptr %i, i32 0, i32 0
  store ptr %call, ptr %coerce.dive, align 8
  %_channels2 = getelementptr inbounds %"class.Imf_3_2::FlatImageLevel", ptr %this1, i32 0, i32 1
  %call3 = call ptr @_ZNSt3mapINSt7__cxx1112basic_stringIcSt11char_traitsIcESaIcEEEPN7Imf_3_216FlatImageChannelESt4lessIS5_ESaISt4pairIKS5_S8_EEE3endEv(ptr noundef nonnull align 8 dereferenceable(48) %_channels2) #3
  %coerce.dive4 = getelementptr inbounds %"struct.std::_Rb_tree_iterator", ptr %ref.tmp, i32 0, i32 0
  store ptr %call3, ptr %coerce.dive4, align 8
  %call5 = call noundef zeroext i1 @_ZStneRKSt17_Rb_tree_iteratorISt4pairIKNSt7__cxx1112basic_stringIcSt11char_traitsIcESaIcEEEPN7Imf_3_216FlatImageChannelEEESE_(ptr noundef nonnull align 8 dereferenceable(8) %i, ptr noundef nonnull align 8 dereferenceable(8) %ref.tmp) #3
  br i1 %call5, label %if.then, label %if.end

if.then:                                          ; preds = %entry
  %call6 = call noundef ptr @_ZNKSt17_Rb_tree_iteratorISt4pairIKNSt7__cxx1112basic_stringIcSt11char_traitsIcESaIcEEEPN7Imf_3_216FlatImageChannelEEEptEv(ptr noundef nonnull align 8 dereferenceable(8) %i) #3
  %second = getelementptr inbounds %"struct.std::pair", ptr %call6, i32 0, i32 1
  %1 = load ptr, ptr %second, align 8
  %isnull = icmp eq ptr %1, null
  br i1 %isnull, label %delete.end, label %delete.notnull

delete.notnull:                                   ; preds = %if.then
  %vtable = load ptr, ptr %1, align 8
  %vfn = getelementptr inbounds ptr, ptr %vtable, i64 2
  %2 = load ptr, ptr %vfn, align 8
  call void %2(ptr noundef nonnull align 8 dereferenceable(48) %1) #3
  br label %delete.end

delete.end:                                       ; preds = %delete.notnull, %if.then
  %_channels7 = getelementptr inbounds %"class.Imf_3_2::FlatImageLevel", ptr %this1, i32 0, i32 1
  call void @llvm.memcpy.p0.p0.i64(ptr align 8 %agg.tmp, ptr align 8 %i, i64 8, i1 false)
  %coerce.dive8 = getelementptr inbounds %"struct.std::_Rb_tree_iterator", ptr %agg.tmp, i32 0, i32 0
  %3 = load ptr, ptr %coerce.dive8, align 8
  %call9 = call ptr @_ZNSt3mapINSt7__cxx1112basic_stringIcSt11char_traitsIcESaIcEEEPN7Imf_3_216FlatImageChannelESt4lessIS5_ESaISt4pairIKS5_S8_EEE5eraseB5cxx11ESt17_Rb_tree_iteratorISD_E(ptr noundef nonnull align 8 dereferenceable(48) %_channels7, ptr %3)
  %coerce.dive10 = getelementptr inbounds %"struct.std::_Rb_tree_iterator", ptr %coerce, i32 0, i32 0
  store ptr %call9, ptr %coerce.dive10, align 8
  br label %if.end

if.end:                                           ; preds = %delete.end, %entry
  ret void
}

; Function Attrs: mustprogress uwtable
define linkonce_odr hidden ptr @_ZNSt3mapINSt7__cxx1112basic_stringIcSt11char_traitsIcESaIcEEEPN7Imf_3_216FlatImageChannelESt4lessIS5_ESaISt4pairIKS5_S8_EEE5eraseB5cxx11ESt17_Rb_tree_iteratorISD_E(ptr noundef nonnull align 8 dereferenceable(48) %this, ptr %__position.coerce) #4 comdat align 2 {
entry:
  %retval = alloca %"struct.std::_Rb_tree_iterator", align 8
  %__position = alloca %"struct.std::_Rb_tree_iterator", align 8
  %this.addr = alloca ptr, align 8
  %agg.tmp = alloca %"struct.std::_Rb_tree_iterator", align 8
  %coerce.dive = getelementptr inbounds %"struct.std::_Rb_tree_iterator", ptr %__position, i32 0, i32 0
  store ptr %__position.coerce, ptr %coerce.dive, align 8
  store ptr %this, ptr %this.addr, align 8
  %this1 = load ptr, ptr %this.addr, align 8
  %_M_t = getelementptr inbounds %"class.std::map", ptr %this1, i32 0, i32 0
  call void @llvm.memcpy.p0.p0.i64(ptr align 8 %agg.tmp, ptr align 8 %__position, i64 8, i1 false)
  %coerce.dive2 = getelementptr inbounds %"struct.std::_Rb_tree_iterator", ptr %agg.tmp, i32 0, i32 0
  %0 = load ptr, ptr %coerce.dive2, align 8
  %call = call ptr @_ZNSt8_Rb_treeINSt7__cxx1112basic_stringIcSt11char_traitsIcESaIcEEESt4pairIKS5_PN7Imf_3_216FlatImageChannelEESt10_Select1stISB_ESt4lessIS5_ESaISB_EE5eraseB5cxx11ESt17_Rb_tree_iteratorISB_E(ptr noundef nonnull align 8 dereferenceable(48) %_M_t, ptr %0)
  %coerce.dive3 = getelementptr inbounds %"struct.std::_Rb_tree_iterator", ptr %retval, i32 0, i32 0
  store ptr %call, ptr %coerce.dive3, align 8
  %coerce.dive4 = getelementptr inbounds %"struct.std::_Rb_tree_iterator", ptr %retval, i32 0, i32 0
  %1 = load ptr, ptr %coerce.dive4, align 8
  ret ptr %1
}

; Function Attrs: nocallback nofree nounwind willreturn memory(argmem: readwrite)
declare void @llvm.memcpy.p0.p0.i64(ptr noalias nocapture writeonly, ptr noalias nocapture readonly, i64, i1 immarg) #9

; Function Attrs: mustprogress nounwind uwtable
define hidden void @_ZN7Imf_3_214FlatImageLevel13clearChannelsEv(ptr noundef nonnull align 8 dereferenceable(88) %this) unnamed_addr #5 align 2 {
entry:
  %this.addr = alloca ptr, align 8
  %i = alloca %"struct.std::_Rb_tree_iterator", align 8
  %ref.tmp = alloca %"struct.std::_Rb_tree_iterator", align 8
  store ptr %this, ptr %this.addr, align 8
  %this1 = load ptr, ptr %this.addr, align 8
  %_channels = getelementptr inbounds %"class.Imf_3_2::FlatImageLevel", ptr %this1, i32 0, i32 1
  %call = call ptr @_ZNSt3mapINSt7__cxx1112basic_stringIcSt11char_traitsIcESaIcEEEPN7Imf_3_216FlatImageChannelESt4lessIS5_ESaISt4pairIKS5_S8_EEE5beginEv(ptr noundef nonnull align 8 dereferenceable(48) %_channels) #3
  %coerce.dive = getelementptr inbounds %"struct.std::_Rb_tree_iterator", ptr %i, i32 0, i32 0
  store ptr %call, ptr %coerce.dive, align 8
  br label %for.cond

for.cond:                                         ; preds = %for.inc, %entry
  %_channels2 = getelementptr inbounds %"class.Imf_3_2::FlatImageLevel", ptr %this1, i32 0, i32 1
  %call3 = call ptr @_ZNSt3mapINSt7__cxx1112basic_stringIcSt11char_traitsIcESaIcEEEPN7Imf_3_216FlatImageChannelESt4lessIS5_ESaISt4pairIKS5_S8_EEE3endEv(ptr noundef nonnull align 8 dereferenceable(48) %_channels2) #3
  %coerce.dive4 = getelementptr inbounds %"struct.std::_Rb_tree_iterator", ptr %ref.tmp, i32 0, i32 0
  store ptr %call3, ptr %coerce.dive4, align 8
  %call5 = call noundef zeroext i1 @_ZStneRKSt17_Rb_tree_iteratorISt4pairIKNSt7__cxx1112basic_stringIcSt11char_traitsIcESaIcEEEPN7Imf_3_216FlatImageChannelEEESE_(ptr noundef nonnull align 8 dereferenceable(8) %i, ptr noundef nonnull align 8 dereferenceable(8) %ref.tmp) #3
  br i1 %call5, label %for.body, label %for.end

for.body:                                         ; preds = %for.cond
  %call6 = call noundef ptr @_ZNKSt17_Rb_tree_iteratorISt4pairIKNSt7__cxx1112basic_stringIcSt11char_traitsIcESaIcEEEPN7Imf_3_216FlatImageChannelEEEptEv(ptr noundef nonnull align 8 dereferenceable(8) %i) #3
  %second = getelementptr inbounds %"struct.std::pair", ptr %call6, i32 0, i32 1
  %0 = load ptr, ptr %second, align 8
  %isnull = icmp eq ptr %0, null
  br i1 %isnull, label %delete.end, label %delete.notnull

delete.notnull:                                   ; preds = %for.body
  %vtable = load ptr, ptr %0, align 8
  %vfn = getelementptr inbounds ptr, ptr %vtable, i64 2
  %1 = load ptr, ptr %vfn, align 8
  call void %1(ptr noundef nonnull align 8 dereferenceable(48) %0) #3
  br label %delete.end

delete.end:                                       ; preds = %delete.notnull, %for.body
  br label %for.inc

for.inc:                                          ; preds = %delete.end
  %call7 = call noundef nonnull align 8 dereferenceable(8) ptr @_ZNSt17_Rb_tree_iteratorISt4pairIKNSt7__cxx1112basic_stringIcSt11char_traitsIcESaIcEEEPN7Imf_3_216FlatImageChannelEEEppEv(ptr noundef nonnull align 8 dereferenceable(8) %i) #3
  br label %for.cond, !llvm.loop !7

for.end:                                          ; preds = %for.cond
  %_channels8 = getelementptr inbounds %"class.Imf_3_2::FlatImageLevel", ptr %this1, i32 0, i32 1
  call void @_ZNSt3mapINSt7__cxx1112basic_stringIcSt11char_traitsIcESaIcEEEPN7Imf_3_216FlatImageChannelESt4lessIS5_ESaISt4pairIKS5_S8_EEE5clearEv(ptr noundef nonnull align 8 dereferenceable(48) %_channels8) #3
  ret void
}

; Function Attrs: mustprogress nounwind uwtable
define linkonce_odr hidden void @_ZNSt3mapINSt7__cxx1112basic_stringIcSt11char_traitsIcESaIcEEEPN7Imf_3_216FlatImageChannelESt4lessIS5_ESaISt4pairIKS5_S8_EEE5clearEv(ptr noundef nonnull align 8 dereferenceable(48) %this) #5 comdat align 2 {
entry:
  %this.addr = alloca ptr, align 8
  store ptr %this, ptr %this.addr, align 8
  %this1 = load ptr, ptr %this.addr, align 8
  %_M_t = getelementptr inbounds %"class.std::map", ptr %this1, i32 0, i32 0
  call void @_ZNSt8_Rb_treeINSt7__cxx1112basic_stringIcSt11char_traitsIcESaIcEEESt4pairIKS5_PN7Imf_3_216FlatImageChannelEESt10_Select1stISB_ESt4lessIS5_ESaISB_EE5clearEv(ptr noundef nonnull align 8 dereferenceable(48) %_M_t) #3
  ret void
}

; Function Attrs: mustprogress uwtable
define hidden void @_ZN7Imf_3_214FlatImageLevel13renameChannelERKNSt7__cxx1112basic_stringIcSt11char_traitsIcESaIcEEES8_(ptr noundef nonnull align 8 dereferenceable(88) %this, ptr noundef nonnull align 8 dereferenceable(32) %oldName, ptr noundef nonnull align 8 dereferenceable(32) %newName) unnamed_addr #4 align 2 {
entry:
  %this.addr = alloca ptr, align 8
  %oldName.addr = alloca ptr, align 8
  %newName.addr = alloca ptr, align 8
  %oldChannel = alloca %"struct.std::_Rb_tree_iterator", align 8
  %agg.tmp = alloca %"struct.std::_Rb_tree_iterator", align 8
  %coerce = alloca %"struct.std::_Rb_tree_iterator", align 8
  store ptr %this, ptr %this.addr, align 8
  store ptr %oldName, ptr %oldName.addr, align 8
  store ptr %newName, ptr %newName.addr, align 8
  %this1 = load ptr, ptr %this.addr, align 8
  %_channels = getelementptr inbounds %"class.Imf_3_2::FlatImageLevel", ptr %this1, i32 0, i32 1
  %0 = load ptr, ptr %oldName.addr, align 8
  %call = call ptr @_ZNSt3mapINSt7__cxx1112basic_stringIcSt11char_traitsIcESaIcEEEPN7Imf_3_216FlatImageChannelESt4lessIS5_ESaISt4pairIKS5_S8_EEE4findERSC_(ptr noundef nonnull align 8 dereferenceable(48) %_channels, ptr noundef nonnull align 8 dereferenceable(32) %0)
  %coerce.dive = getelementptr inbounds %"struct.std::_Rb_tree_iterator", ptr %oldChannel, i32 0, i32 0
  store ptr %call, ptr %coerce.dive, align 8
  %call2 = call noundef ptr @_ZNKSt17_Rb_tree_iteratorISt4pairIKNSt7__cxx1112basic_stringIcSt11char_traitsIcESaIcEEEPN7Imf_3_216FlatImageChannelEEEptEv(ptr noundef nonnull align 8 dereferenceable(8) %oldChannel) #3
  %second = getelementptr inbounds %"struct.std::pair", ptr %call2, i32 0, i32 1
  %1 = load ptr, ptr %second, align 8
  %_channels3 = getelementptr inbounds %"class.Imf_3_2::FlatImageLevel", ptr %this1, i32 0, i32 1
  %2 = load ptr, ptr %newName.addr, align 8
  %call4 = call noundef nonnull align 8 dereferenceable(8) ptr @_ZNSt3mapINSt7__cxx1112basic_stringIcSt11char_traitsIcESaIcEEEPN7Imf_3_216FlatImageChannelESt4lessIS5_ESaISt4pairIKS5_S8_EEEixERSC_(ptr noundef nonnull align 8 dereferenceable(48) %_channels3, ptr noundef nonnull align 8 dereferenceable(32) %2)
  store ptr %1, ptr %call4, align 8
  %_channels5 = getelementptr inbounds %"class.Imf_3_2::FlatImageLevel", ptr %this1, i32 0, i32 1
  call void @llvm.memcpy.p0.p0.i64(ptr align 8 %agg.tmp, ptr align 8 %oldChannel, i64 8, i1 false)
  %coerce.dive6 = getelementptr inbounds %"struct.std::_Rb_tree_iterator", ptr %agg.tmp, i32 0, i32 0
  %3 = load ptr, ptr %coerce.dive6, align 8
  %call7 = call ptr @_ZNSt3mapINSt7__cxx1112basic_stringIcSt11char_traitsIcESaIcEEEPN7Imf_3_216FlatImageChannelESt4lessIS5_ESaISt4pairIKS5_S8_EEE5eraseB5cxx11ESt17_Rb_tree_iteratorISD_E(ptr noundef nonnull align 8 dereferenceable(48) %_channels5, ptr %3)
  %coerce.dive8 = getelementptr inbounds %"struct.std::_Rb_tree_iterator", ptr %coerce, i32 0, i32 0
  store ptr %call7, ptr %coerce.dive8, align 8
  ret void
}

; Function Attrs: mustprogress uwtable
define hidden void @_ZN7Imf_3_214FlatImageLevel14renameChannelsERKSt3mapINSt7__cxx1112basic_stringIcSt11char_traitsIcESaIcEEES7_St4lessIS7_ESaISt4pairIKS7_S7_EEE(ptr noundef nonnull align 8 dereferenceable(88) %this, ptr noundef nonnull align 8 dereferenceable(48) %oldToNewNames) unnamed_addr #4 align 2 {
entry:
  %this.addr = alloca ptr, align 8
  %oldToNewNames.addr = alloca ptr, align 8
  store ptr %this, ptr %this.addr, align 8
  store ptr %oldToNewNames, ptr %oldToNewNames.addr, align 8
  %this1 = load ptr, ptr %this.addr, align 8
  %0 = load ptr, ptr %oldToNewNames.addr, align 8
  %_channels = getelementptr inbounds %"class.Imf_3_2::FlatImageLevel", ptr %this1, i32 0, i32 1
  call void @_ZN7Imf_3_219renameChannelsInMapISt3mapINSt7__cxx1112basic_stringIcSt11char_traitsIcESaIcEEEPNS_16FlatImageChannelESt4lessIS7_ESaISt4pairIKS7_S9_EEEEEvRKS1_IS7_S7_SB_SaISC_ISD_S7_EEERT_(ptr noundef nonnull align 8 dereferenceable(48) %0, ptr noundef nonnull align 8 dereferenceable(48) %_channels)
  ret void
}

; Function Attrs: mustprogress uwtable
define linkonce_odr hidden void @_ZN7Imf_3_219renameChannelsInMapISt3mapINSt7__cxx1112basic_stringIcSt11char_traitsIcESaIcEEEPNS_16FlatImageChannelESt4lessIS7_ESaISt4pairIKS7_S9_EEEEEvRKS1_IS7_S7_SB_SaISC_ISD_S7_EEERT_(ptr noundef nonnull align 8 dereferenceable(48) %oldToNewNames, ptr noundef nonnull align 8 dereferenceable(48) %channels) #4 comdat personality ptr @__gxx_personality_v0 {
entry:
  %oldToNewNames.addr = alloca ptr, align 8
  %channels.addr = alloca ptr, align 8
  %renamedChannels = alloca %"class.std::map", align 8
  %i = alloca %"struct.std::_Rb_tree_const_iterator", align 8
  %ref.tmp = alloca %"struct.std::_Rb_tree_iterator", align 8
  %ref.tmp1 = alloca %"struct.std::_Rb_tree_const_iterator", align 8
  %ref.tmp2 = alloca %"struct.std::_Rb_tree_iterator", align 8
  %j = alloca %"struct.std::_Rb_tree_const_iterator.19", align 8
  %exn.slot = alloca ptr, align 8
  %ehselector.slot = alloca i32, align 4
  %newName = alloca %"class.std::__cxx11::basic_string", align 8
  %ref.tmp9 = alloca %"struct.std::_Rb_tree_const_iterator.19", align 8
  store ptr %oldToNewNames, ptr %oldToNewNames.addr, align 8
  store ptr %channels, ptr %channels.addr, align 8
  call void @_ZNSt3mapINSt7__cxx1112basic_stringIcSt11char_traitsIcESaIcEEEPN7Imf_3_216FlatImageChannelESt4lessIS5_ESaISt4pairIKS5_S8_EEEC2Ev(ptr noundef nonnull align 8 dereferenceable(48) %renamedChannels) #3
  %0 = load ptr, ptr %channels.addr, align 8
  %call = call ptr @_ZNSt3mapINSt7__cxx1112basic_stringIcSt11char_traitsIcESaIcEEEPN7Imf_3_216FlatImageChannelESt4lessIS5_ESaISt4pairIKS5_S8_EEE5beginEv(ptr noundef nonnull align 8 dereferenceable(48) %0) #3
  %coerce.dive = getelementptr inbounds %"struct.std::_Rb_tree_iterator", ptr %ref.tmp, i32 0, i32 0
  store ptr %call, ptr %coerce.dive, align 8
  call void @_ZNSt23_Rb_tree_const_iteratorISt4pairIKNSt7__cxx1112basic_stringIcSt11char_traitsIcESaIcEEEPN7Imf_3_216FlatImageChannelEEEC2ERKSt17_Rb_tree_iteratorISB_E(ptr noundef nonnull align 8 dereferenceable(8) %i, ptr noundef nonnull align 8 dereferenceable(8) %ref.tmp) #3
  br label %for.cond

for.cond:                                         ; preds = %for.inc, %entry
  %1 = load ptr, ptr %channels.addr, align 8
  %call3 = call ptr @_ZNSt3mapINSt7__cxx1112basic_stringIcSt11char_traitsIcESaIcEEEPN7Imf_3_216FlatImageChannelESt4lessIS5_ESaISt4pairIKS5_S8_EEE3endEv(ptr noundef nonnull align 8 dereferenceable(48) %1) #3
  %coerce.dive4 = getelementptr inbounds %"struct.std::_Rb_tree_iterator", ptr %ref.tmp2, i32 0, i32 0
  store ptr %call3, ptr %coerce.dive4, align 8
  call void @_ZNSt23_Rb_tree_const_iteratorISt4pairIKNSt7__cxx1112basic_stringIcSt11char_traitsIcESaIcEEEPN7Imf_3_216FlatImageChannelEEEC2ERKSt17_Rb_tree_iteratorISB_E(ptr noundef nonnull align 8 dereferenceable(8) %ref.tmp1, ptr noundef nonnull align 8 dereferenceable(8) %ref.tmp2) #3
  %call5 = call noundef zeroext i1 @_ZStneRKSt23_Rb_tree_const_iteratorISt4pairIKNSt7__cxx1112basic_stringIcSt11char_traitsIcESaIcEEEPN7Imf_3_216FlatImageChannelEEESE_(ptr noundef nonnull align 8 dereferenceable(8) %i, ptr noundef nonnull align 8 dereferenceable(8) %ref.tmp1) #3
  br i1 %call5, label %for.body, label %for.end

for.body:                                         ; preds = %for.cond
  %2 = load ptr, ptr %oldToNewNames.addr, align 8
  %call6 = call noundef ptr @_ZNKSt23_Rb_tree_const_iteratorISt4pairIKNSt7__cxx1112basic_stringIcSt11char_traitsIcESaIcEEEPN7Imf_3_216FlatImageChannelEEEptEv(ptr noundef nonnull align 8 dereferenceable(8) %i) #3
  %first = getelementptr inbounds %"struct.std::pair", ptr %call6, i32 0, i32 0
  %call7 = invoke ptr @_ZNKSt3mapINSt7__cxx1112basic_stringIcSt11char_traitsIcESaIcEEES5_St4lessIS5_ESaISt4pairIKS5_S5_EEE4findERS9_(ptr noundef nonnull align 8 dereferenceable(48) %2, ptr noundef nonnull align 8 dereferenceable(32) %first)
          to label %invoke.cont unwind label %lpad

invoke.cont:                                      ; preds = %for.body
  %coerce.dive8 = getelementptr inbounds %"struct.std::_Rb_tree_const_iterator.19", ptr %j, i32 0, i32 0
  store ptr %call7, ptr %coerce.dive8, align 8
  %3 = load ptr, ptr %oldToNewNames.addr, align 8
  %call10 = call ptr @_ZNKSt3mapINSt7__cxx1112basic_stringIcSt11char_traitsIcESaIcEEES5_St4lessIS5_ESaISt4pairIKS5_S5_EEE3endEv(ptr noundef nonnull align 8 dereferenceable(48) %3) #3
  %coerce.dive11 = getelementptr inbounds %"struct.std::_Rb_tree_const_iterator.19", ptr %ref.tmp9, i32 0, i32 0
  store ptr %call10, ptr %coerce.dive11, align 8
  %call12 = call noundef zeroext i1 @_ZSteqRKSt23_Rb_tree_const_iteratorISt4pairIKNSt7__cxx1112basic_stringIcSt11char_traitsIcESaIcEEES6_EESB_(ptr noundef nonnull align 8 dereferenceable(8) %j, ptr noundef nonnull align 8 dereferenceable(8) %ref.tmp9) #3
  br i1 %call12, label %cond.true, label %cond.false

cond.true:                                        ; preds = %invoke.cont
  %call13 = call noundef ptr @_ZNKSt23_Rb_tree_const_iteratorISt4pairIKNSt7__cxx1112basic_stringIcSt11char_traitsIcESaIcEEEPN7Imf_3_216FlatImageChannelEEEptEv(ptr noundef nonnull align 8 dereferenceable(8) %i) #3
  %first14 = getelementptr inbounds %"struct.std::pair", ptr %call13, i32 0, i32 0
  br label %cond.end

cond.false:                                       ; preds = %invoke.cont
  %call15 = call noundef ptr @_ZNKSt23_Rb_tree_const_iteratorISt4pairIKNSt7__cxx1112basic_stringIcSt11char_traitsIcESaIcEEES6_EEptEv(ptr noundef nonnull align 8 dereferenceable(8) %j) #3
  %second = getelementptr inbounds %"struct.std::pair.20", ptr %call15, i32 0, i32 1
  br label %cond.end

cond.end:                                         ; preds = %cond.false, %cond.true
  %cond-lvalue = phi ptr [ %first14, %cond.true ], [ %second, %cond.false ]
  invoke void @_ZNSt7__cxx1112basic_stringIcSt11char_traitsIcESaIcEEC1ERKS4_(ptr noundef nonnull align 8 dereferenceable(32) %newName, ptr noundef nonnull align 8 dereferenceable(32) %cond-lvalue)
          to label %invoke.cont16 unwind label %lpad

invoke.cont16:                                    ; preds = %cond.end
  %call17 = call noundef ptr @_ZNKSt23_Rb_tree_const_iteratorISt4pairIKNSt7__cxx1112basic_stringIcSt11char_traitsIcESaIcEEEPN7Imf_3_216FlatImageChannelEEEptEv(ptr noundef nonnull align 8 dereferenceable(8) %i) #3
  %second18 = getelementptr inbounds %"struct.std::pair", ptr %call17, i32 0, i32 1
  %4 = load ptr, ptr %second18, align 8
  %call21 = invoke noundef nonnull align 8 dereferenceable(8) ptr @_ZNSt3mapINSt7__cxx1112basic_stringIcSt11char_traitsIcESaIcEEEPN7Imf_3_216FlatImageChannelESt4lessIS5_ESaISt4pairIKS5_S8_EEEixERSC_(ptr noundef nonnull align 8 dereferenceable(48) %renamedChannels, ptr noundef nonnull align 8 dereferenceable(32) %newName)
          to label %invoke.cont20 unwind label %lpad19

invoke.cont20:                                    ; preds = %invoke.cont16
  store ptr %4, ptr %call21, align 8
  call void @_ZNSt7__cxx1112basic_stringIcSt11char_traitsIcESaIcEED1Ev(ptr noundef nonnull align 8 dereferenceable(32) %newName) #3
  br label %for.inc

for.inc:                                          ; preds = %invoke.cont20
  %call22 = call noundef nonnull align 8 dereferenceable(8) ptr @_ZNSt23_Rb_tree_const_iteratorISt4pairIKNSt7__cxx1112basic_stringIcSt11char_traitsIcESaIcEEEPN7Imf_3_216FlatImageChannelEEEppEv(ptr noundef nonnull align 8 dereferenceable(8) %i) #3
  br label %for.cond, !llvm.loop !8

lpad:                                             ; preds = %for.end, %cond.end, %for.body
  %5 = landingpad { ptr, i32 }
          cleanup
  %6 = extractvalue { ptr, i32 } %5, 0
  store ptr %6, ptr %exn.slot, align 8
  %7 = extractvalue { ptr, i32 } %5, 1
  store i32 %7, ptr %ehselector.slot, align 4
  br label %ehcleanup

lpad19:                                           ; preds = %invoke.cont16
  %8 = landingpad { ptr, i32 }
          cleanup
  %9 = extractvalue { ptr, i32 } %8, 0
  store ptr %9, ptr %exn.slot, align 8
  %10 = extractvalue { ptr, i32 } %8, 1
  store i32 %10, ptr %ehselector.slot, align 4
  call void @_ZNSt7__cxx1112basic_stringIcSt11char_traitsIcESaIcEED1Ev(ptr noundef nonnull align 8 dereferenceable(32) %newName) #3
  br label %ehcleanup

for.end:                                          ; preds = %for.cond
  %11 = load ptr, ptr %channels.addr, align 8
  %call24 = invoke noundef nonnull align 8 dereferenceable(48) ptr @_ZNSt3mapINSt7__cxx1112basic_stringIcSt11char_traitsIcESaIcEEEPN7Imf_3_216FlatImageChannelESt4lessIS5_ESaISt4pairIKS5_S8_EEEaSERKSF_(ptr noundef nonnull align 8 dereferenceable(48) %11, ptr noundef nonnull align 8 dereferenceable(48) %renamedChannels)
          to label %invoke.cont23 unwind label %lpad

invoke.cont23:                                    ; preds = %for.end
  call void @_ZNSt3mapINSt7__cxx1112basic_stringIcSt11char_traitsIcESaIcEEEPN7Imf_3_216FlatImageChannelESt4lessIS5_ESaISt4pairIKS5_S8_EEED2Ev(ptr noundef nonnull align 8 dereferenceable(48) %renamedChannels) #3
  ret void

ehcleanup:                                        ; preds = %lpad19, %lpad
  call void @_ZNSt3mapINSt7__cxx1112basic_stringIcSt11char_traitsIcESaIcEEEPN7Imf_3_216FlatImageChannelESt4lessIS5_ESaISt4pairIKS5_S8_EEED2Ev(ptr noundef nonnull align 8 dereferenceable(48) %renamedChannels) #3
  br label %eh.resume

eh.resume:                                        ; preds = %ehcleanup
  %exn = load ptr, ptr %exn.slot, align 8
  %sel = load i32, ptr %ehselector.slot, align 4
  %lpad.val = insertvalue { ptr, i32 } poison, ptr %exn, 0
  %lpad.val25 = insertvalue { ptr, i32 } %lpad.val, i32 %sel, 1
  resume { ptr, i32 } %lpad.val25
}

; Function Attrs: mustprogress uwtable
define noundef ptr @_ZN7Imf_3_214FlatImageLevel11findChannelERKNSt7__cxx1112basic_stringIcSt11char_traitsIcESaIcEEE(ptr noundef nonnull align 8 dereferenceable(88) %this, ptr noundef nonnull align 8 dereferenceable(32) %name) #4 align 2 {
entry:
  %retval = alloca ptr, align 8
  %this.addr = alloca ptr, align 8
  %name.addr = alloca ptr, align 8
  %i = alloca %"struct.std::_Rb_tree_iterator", align 8
  %ref.tmp = alloca %"struct.std::_Rb_tree_iterator", align 8
  store ptr %this, ptr %this.addr, align 8
  store ptr %name, ptr %name.addr, align 8
  %this1 = load ptr, ptr %this.addr, align 8
  %_channels = getelementptr inbounds %"class.Imf_3_2::FlatImageLevel", ptr %this1, i32 0, i32 1
  %0 = load ptr, ptr %name.addr, align 8
  %call = call ptr @_ZNSt3mapINSt7__cxx1112basic_stringIcSt11char_traitsIcESaIcEEEPN7Imf_3_216FlatImageChannelESt4lessIS5_ESaISt4pairIKS5_S8_EEE4findERSC_(ptr noundef nonnull align 8 dereferenceable(48) %_channels, ptr noundef nonnull align 8 dereferenceable(32) %0)
  %coerce.dive = getelementptr inbounds %"struct.std::_Rb_tree_iterator", ptr %i, i32 0, i32 0
  store ptr %call, ptr %coerce.dive, align 8
  %_channels2 = getelementptr inbounds %"class.Imf_3_2::FlatImageLevel", ptr %this1, i32 0, i32 1
  %call3 = call ptr @_ZNSt3mapINSt7__cxx1112basic_stringIcSt11char_traitsIcESaIcEEEPN7Imf_3_216FlatImageChannelESt4lessIS5_ESaISt4pairIKS5_S8_EEE3endEv(ptr noundef nonnull align 8 dereferenceable(48) %_channels2) #3
  %coerce.dive4 = getelementptr inbounds %"struct.std::_Rb_tree_iterator", ptr %ref.tmp, i32 0, i32 0
  store ptr %call3, ptr %coerce.dive4, align 8
  %call5 = call noundef zeroext i1 @_ZStneRKSt17_Rb_tree_iteratorISt4pairIKNSt7__cxx1112basic_stringIcSt11char_traitsIcESaIcEEEPN7Imf_3_216FlatImageChannelEEESE_(ptr noundef nonnull align 8 dereferenceable(8) %i, ptr noundef nonnull align 8 dereferenceable(8) %ref.tmp) #3
  br i1 %call5, label %if.then, label %if.else

if.then:                                          ; preds = %entry
  %call6 = call noundef ptr @_ZNKSt17_Rb_tree_iteratorISt4pairIKNSt7__cxx1112basic_stringIcSt11char_traitsIcESaIcEEEPN7Imf_3_216FlatImageChannelEEEptEv(ptr noundef nonnull align 8 dereferenceable(8) %i) #3
  %second = getelementptr inbounds %"struct.std::pair", ptr %call6, i32 0, i32 1
  %1 = load ptr, ptr %second, align 8
  store ptr %1, ptr %retval, align 8
  br label %return

if.else:                                          ; preds = %entry
  store ptr null, ptr %retval, align 8
  br label %return

return:                                           ; preds = %if.else, %if.then
  %2 = load ptr, ptr %retval, align 8
  ret ptr %2
}

; Function Attrs: mustprogress uwtable
define noundef ptr @_ZNK7Imf_3_214FlatImageLevel11findChannelERKNSt7__cxx1112basic_stringIcSt11char_traitsIcESaIcEEE(ptr noundef nonnull align 8 dereferenceable(88) %this, ptr noundef nonnull align 8 dereferenceable(32) %name) #4 align 2 {
entry:
  %retval = alloca ptr, align 8
  %this.addr = alloca ptr, align 8
  %name.addr = alloca ptr, align 8
  %i = alloca %"struct.std::_Rb_tree_const_iterator", align 8
  %ref.tmp = alloca %"struct.std::_Rb_tree_const_iterator", align 8
  store ptr %this, ptr %this.addr, align 8
  store ptr %name, ptr %name.addr, align 8
  %this1 = load ptr, ptr %this.addr, align 8
  %_channels = getelementptr inbounds %"class.Imf_3_2::FlatImageLevel", ptr %this1, i32 0, i32 1
  %0 = load ptr, ptr %name.addr, align 8
  %call = call ptr @_ZNKSt3mapINSt7__cxx1112basic_stringIcSt11char_traitsIcESaIcEEEPN7Imf_3_216FlatImageChannelESt4lessIS5_ESaISt4pairIKS5_S8_EEE4findERSC_(ptr noundef nonnull align 8 dereferenceable(48) %_channels, ptr noundef nonnull align 8 dereferenceable(32) %0)
  %coerce.dive = getelementptr inbounds %"struct.std::_Rb_tree_const_iterator", ptr %i, i32 0, i32 0
  store ptr %call, ptr %coerce.dive, align 8
  %_channels2 = getelementptr inbounds %"class.Imf_3_2::FlatImageLevel", ptr %this1, i32 0, i32 1
  %call3 = call ptr @_ZNKSt3mapINSt7__cxx1112basic_stringIcSt11char_traitsIcESaIcEEEPN7Imf_3_216FlatImageChannelESt4lessIS5_ESaISt4pairIKS5_S8_EEE3endEv(ptr noundef nonnull align 8 dereferenceable(48) %_channels2) #3
  %coerce.dive4 = getelementptr inbounds %"struct.std::_Rb_tree_const_iterator", ptr %ref.tmp, i32 0, i32 0
  store ptr %call3, ptr %coerce.dive4, align 8
  %call5 = call noundef zeroext i1 @_ZStneRKSt23_Rb_tree_const_iteratorISt4pairIKNSt7__cxx1112basic_stringIcSt11char_traitsIcESaIcEEEPN7Imf_3_216FlatImageChannelEEESE_(ptr noundef nonnull align 8 dereferenceable(8) %i, ptr noundef nonnull align 8 dereferenceable(8) %ref.tmp) #3
  br i1 %call5, label %if.then, label %if.else

if.then:                                          ; preds = %entry
  %call6 = call noundef ptr @_ZNKSt23_Rb_tree_const_iteratorISt4pairIKNSt7__cxx1112basic_stringIcSt11char_traitsIcESaIcEEEPN7Imf_3_216FlatImageChannelEEEptEv(ptr noundef nonnull align 8 dereferenceable(8) %i) #3
  %second = getelementptr inbounds %"struct.std::pair", ptr %call6, i32 0, i32 1
  %1 = load ptr, ptr %second, align 8
  store ptr %1, ptr %retval, align 8
  br label %return

if.else:                                          ; preds = %entry
  store ptr null, ptr %retval, align 8
  br label %return

return:                                           ; preds = %if.else, %if.then
  %2 = load ptr, ptr %retval, align 8
  ret ptr %2
}

; Function Attrs: mustprogress uwtable
define linkonce_odr hidden ptr @_ZNKSt3mapINSt7__cxx1112basic_stringIcSt11char_traitsIcESaIcEEEPN7Imf_3_216FlatImageChannelESt4lessIS5_ESaISt4pairIKS5_S8_EEE4findERSC_(ptr noundef nonnull align 8 dereferenceable(48) %this, ptr noundef nonnull align 8 dereferenceable(32) %__x) #4 comdat align 2 {
entry:
  %retval = alloca %"struct.std::_Rb_tree_const_iterator", align 8
  %this.addr = alloca ptr, align 8
  %__x.addr = alloca ptr, align 8
  store ptr %this, ptr %this.addr, align 8
  store ptr %__x, ptr %__x.addr, align 8
  %this1 = load ptr, ptr %this.addr, align 8
  %_M_t = getelementptr inbounds %"class.std::map", ptr %this1, i32 0, i32 0
  %0 = load ptr, ptr %__x.addr, align 8
  %call = call ptr @_ZNKSt8_Rb_treeINSt7__cxx1112basic_stringIcSt11char_traitsIcESaIcEEESt4pairIKS5_PN7Imf_3_216FlatImageChannelEESt10_Select1stISB_ESt4lessIS5_ESaISB_EE4findERS7_(ptr noundef nonnull align 8 dereferenceable(48) %_M_t, ptr noundef nonnull align 8 dereferenceable(32) %0)
  %coerce.dive = getelementptr inbounds %"struct.std::_Rb_tree_const_iterator", ptr %retval, i32 0, i32 0
  store ptr %call, ptr %coerce.dive, align 8
  %coerce.dive2 = getelementptr inbounds %"struct.std::_Rb_tree_const_iterator", ptr %retval, i32 0, i32 0
  %1 = load ptr, ptr %coerce.dive2, align 8
  ret ptr %1
}

; Function Attrs: mustprogress nounwind uwtable
define linkonce_odr noundef zeroext i1 @_ZStneRKSt23_Rb_tree_const_iteratorISt4pairIKNSt7__cxx1112basic_stringIcSt11char_traitsIcESaIcEEEPN7Imf_3_216FlatImageChannelEEESE_(ptr noundef nonnull align 8 dereferenceable(8) %__x, ptr noundef nonnull align 8 dereferenceable(8) %__y) #5 comdat {
entry:
  %__x.addr = alloca ptr, align 8
  %__y.addr = alloca ptr, align 8
  store ptr %__x, ptr %__x.addr, align 8
  store ptr %__y, ptr %__y.addr, align 8
  %0 = load ptr, ptr %__x.addr, align 8
  %_M_node = getelementptr inbounds %"struct.std::_Rb_tree_const_iterator", ptr %0, i32 0, i32 0
  %1 = load ptr, ptr %_M_node, align 8
  %2 = load ptr, ptr %__y.addr, align 8
  %_M_node1 = getelementptr inbounds %"struct.std::_Rb_tree_const_iterator", ptr %2, i32 0, i32 0
  %3 = load ptr, ptr %_M_node1, align 8
  %cmp = icmp ne ptr %1, %3
  ret i1 %cmp
}

; Function Attrs: mustprogress nounwind uwtable
define linkonce_odr hidden ptr @_ZNKSt3mapINSt7__cxx1112basic_stringIcSt11char_traitsIcESaIcEEEPN7Imf_3_216FlatImageChannelESt4lessIS5_ESaISt4pairIKS5_S8_EEE3endEv(ptr noundef nonnull align 8 dereferenceable(48) %this) #5 comdat align 2 {
entry:
  %retval = alloca %"struct.std::_Rb_tree_const_iterator", align 8
  %this.addr = alloca ptr, align 8
  store ptr %this, ptr %this.addr, align 8
  %this1 = load ptr, ptr %this.addr, align 8
  %_M_t = getelementptr inbounds %"class.std::map", ptr %this1, i32 0, i32 0
  %call = call ptr @_ZNKSt8_Rb_treeINSt7__cxx1112basic_stringIcSt11char_traitsIcESaIcEEESt4pairIKS5_PN7Imf_3_216FlatImageChannelEESt10_Select1stISB_ESt4lessIS5_ESaISB_EE3endEv(ptr noundef nonnull align 8 dereferenceable(48) %_M_t) #3
  %coerce.dive = getelementptr inbounds %"struct.std::_Rb_tree_const_iterator", ptr %retval, i32 0, i32 0
  store ptr %call, ptr %coerce.dive, align 8
  %coerce.dive2 = getelementptr inbounds %"struct.std::_Rb_tree_const_iterator", ptr %retval, i32 0, i32 0
  %0 = load ptr, ptr %coerce.dive2, align 8
  ret ptr %0
}

; Function Attrs: mustprogress nounwind uwtable
define linkonce_odr hidden noundef ptr @_ZNKSt23_Rb_tree_const_iteratorISt4pairIKNSt7__cxx1112basic_stringIcSt11char_traitsIcESaIcEEEPN7Imf_3_216FlatImageChannelEEEptEv(ptr noundef nonnull align 8 dereferenceable(8) %this) #5 comdat align 2 personality ptr @__gxx_personality_v0 {
entry:
  %this.addr = alloca ptr, align 8
  store ptr %this, ptr %this.addr, align 8
  %this1 = load ptr, ptr %this.addr, align 8
  %_M_node = getelementptr inbounds %"struct.std::_Rb_tree_const_iterator", ptr %this1, i32 0, i32 0
  %0 = load ptr, ptr %_M_node, align 8
  %call = invoke noundef ptr @_ZNKSt13_Rb_tree_nodeISt4pairIKNSt7__cxx1112basic_stringIcSt11char_traitsIcESaIcEEEPN7Imf_3_216FlatImageChannelEEE9_M_valptrEv(ptr noundef nonnull align 8 dereferenceable(72) %0)
          to label %invoke.cont unwind label %terminate.lpad

invoke.cont:                                      ; preds = %entry
  ret ptr %call

terminate.lpad:                                   ; preds = %entry
  %1 = landingpad { ptr, i32 }
          catch ptr null
  %2 = extractvalue { ptr, i32 } %1, 0
  call void @__clang_call_terminate(ptr %2) #12
  unreachable
}

; Function Attrs: mustprogress uwtable
define noundef nonnull align 8 dereferenceable(48) ptr @_ZN7Imf_3_214FlatImageLevel7channelERKNSt7__cxx1112basic_stringIcSt11char_traitsIcESaIcEEE(ptr noundef nonnull align 8 dereferenceable(88) %this, ptr noundef nonnull align 8 dereferenceable(32) %name) #4 align 2 {
entry:
  %this.addr = alloca ptr, align 8
  %name.addr = alloca ptr, align 8
  %i = alloca %"struct.std::_Rb_tree_iterator", align 8
  %ref.tmp = alloca %"struct.std::_Rb_tree_iterator", align 8
  store ptr %this, ptr %this.addr, align 8
  store ptr %name, ptr %name.addr, align 8
  %this1 = load ptr, ptr %this.addr, align 8
  %_channels = getelementptr inbounds %"class.Imf_3_2::FlatImageLevel", ptr %this1, i32 0, i32 1
  %0 = load ptr, ptr %name.addr, align 8
  %call = call ptr @_ZNSt3mapINSt7__cxx1112basic_stringIcSt11char_traitsIcESaIcEEEPN7Imf_3_216FlatImageChannelESt4lessIS5_ESaISt4pairIKS5_S8_EEE4findERSC_(ptr noundef nonnull align 8 dereferenceable(48) %_channels, ptr noundef nonnull align 8 dereferenceable(32) %0)
  %coerce.dive = getelementptr inbounds %"struct.std::_Rb_tree_iterator", ptr %i, i32 0, i32 0
  store ptr %call, ptr %coerce.dive, align 8
  %_channels2 = getelementptr inbounds %"class.Imf_3_2::FlatImageLevel", ptr %this1, i32 0, i32 1
  %call3 = call ptr @_ZNSt3mapINSt7__cxx1112basic_stringIcSt11char_traitsIcESaIcEEEPN7Imf_3_216FlatImageChannelESt4lessIS5_ESaISt4pairIKS5_S8_EEE3endEv(ptr noundef nonnull align 8 dereferenceable(48) %_channels2) #3
  %coerce.dive4 = getelementptr inbounds %"struct.std::_Rb_tree_iterator", ptr %ref.tmp, i32 0, i32 0
  store ptr %call3, ptr %coerce.dive4, align 8
  %call5 = call noundef zeroext i1 @_ZSteqRKSt17_Rb_tree_iteratorISt4pairIKNSt7__cxx1112basic_stringIcSt11char_traitsIcESaIcEEEPN7Imf_3_216FlatImageChannelEEESE_(ptr noundef nonnull align 8 dereferenceable(8) %i, ptr noundef nonnull align 8 dereferenceable(8) %ref.tmp) #3
  br i1 %call5, label %if.then, label %if.end

if.then:                                          ; preds = %entry
  %1 = load ptr, ptr %name.addr, align 8
  call void @_ZNK7Imf_3_210ImageLevel19throwBadChannelNameERKNSt7__cxx1112basic_stringIcSt11char_traitsIcESaIcEEE(ptr noundef nonnull align 8 dereferenceable(40) %this1, ptr noundef nonnull align 8 dereferenceable(32) %1)
  br label %if.end

if.end:                                           ; preds = %if.then, %entry
  %call6 = call noundef ptr @_ZNKSt17_Rb_tree_iteratorISt4pairIKNSt7__cxx1112basic_stringIcSt11char_traitsIcESaIcEEEPN7Imf_3_216FlatImageChannelEEEptEv(ptr noundef nonnull align 8 dereferenceable(8) %i) #3
  %second = getelementptr inbounds %"struct.std::pair", ptr %call6, i32 0, i32 1
  %2 = load ptr, ptr %second, align 8
  ret ptr %2
}

; Function Attrs: mustprogress nounwind uwtable
define linkonce_odr noundef zeroext i1 @_ZSteqRKSt17_Rb_tree_iteratorISt4pairIKNSt7__cxx1112basic_stringIcSt11char_traitsIcESaIcEEEPN7Imf_3_216FlatImageChannelEEESE_(ptr noundef nonnull align 8 dereferenceable(8) %__x, ptr noundef nonnull align 8 dereferenceable(8) %__y) #5 comdat {
entry:
  %__x.addr = alloca ptr, align 8
  %__y.addr = alloca ptr, align 8
  store ptr %__x, ptr %__x.addr, align 8
  store ptr %__y, ptr %__y.addr, align 8
  %0 = load ptr, ptr %__x.addr, align 8
  %_M_node = getelementptr inbounds %"struct.std::_Rb_tree_iterator", ptr %0, i32 0, i32 0
  %1 = load ptr, ptr %_M_node, align 8
  %2 = load ptr, ptr %__y.addr, align 8
  %_M_node1 = getelementptr inbounds %"struct.std::_Rb_tree_iterator", ptr %2, i32 0, i32 0
  %3 = load ptr, ptr %_M_node1, align 8
  %cmp = icmp eq ptr %1, %3
  ret i1 %cmp
}

declare void @_ZNK7Imf_3_210ImageLevel19throwBadChannelNameERKNSt7__cxx1112basic_stringIcSt11char_traitsIcESaIcEEE(ptr noundef nonnull align 8 dereferenceable(40), ptr noundef nonnull align 8 dereferenceable(32)) #1

; Function Attrs: mustprogress uwtable
define noundef nonnull align 8 dereferenceable(48) ptr @_ZNK7Imf_3_214FlatImageLevel7channelERKNSt7__cxx1112basic_stringIcSt11char_traitsIcESaIcEEE(ptr noundef nonnull align 8 dereferenceable(88) %this, ptr noundef nonnull align 8 dereferenceable(32) %name) #4 align 2 {
entry:
  %this.addr = alloca ptr, align 8
  %name.addr = alloca ptr, align 8
  %i = alloca %"struct.std::_Rb_tree_const_iterator", align 8
  %ref.tmp = alloca %"struct.std::_Rb_tree_const_iterator", align 8
  store ptr %this, ptr %this.addr, align 8
  store ptr %name, ptr %name.addr, align 8
  %this1 = load ptr, ptr %this.addr, align 8
  %_channels = getelementptr inbounds %"class.Imf_3_2::FlatImageLevel", ptr %this1, i32 0, i32 1
  %0 = load ptr, ptr %name.addr, align 8
  %call = call ptr @_ZNKSt3mapINSt7__cxx1112basic_stringIcSt11char_traitsIcESaIcEEEPN7Imf_3_216FlatImageChannelESt4lessIS5_ESaISt4pairIKS5_S8_EEE4findERSC_(ptr noundef nonnull align 8 dereferenceable(48) %_channels, ptr noundef nonnull align 8 dereferenceable(32) %0)
  %coerce.dive = getelementptr inbounds %"struct.std::_Rb_tree_const_iterator", ptr %i, i32 0, i32 0
  store ptr %call, ptr %coerce.dive, align 8
  %_channels2 = getelementptr inbounds %"class.Imf_3_2::FlatImageLevel", ptr %this1, i32 0, i32 1
  %call3 = call ptr @_ZNKSt3mapINSt7__cxx1112basic_stringIcSt11char_traitsIcESaIcEEEPN7Imf_3_216FlatImageChannelESt4lessIS5_ESaISt4pairIKS5_S8_EEE3endEv(ptr noundef nonnull align 8 dereferenceable(48) %_channels2) #3
  %coerce.dive4 = getelementptr inbounds %"struct.std::_Rb_tree_const_iterator", ptr %ref.tmp, i32 0, i32 0
  store ptr %call3, ptr %coerce.dive4, align 8
  %call5 = call noundef zeroext i1 @_ZSteqRKSt23_Rb_tree_const_iteratorISt4pairIKNSt7__cxx1112basic_stringIcSt11char_traitsIcESaIcEEEPN7Imf_3_216FlatImageChannelEEESE_(ptr noundef nonnull align 8 dereferenceable(8) %i, ptr noundef nonnull align 8 dereferenceable(8) %ref.tmp) #3
  br i1 %call5, label %if.then, label %if.end

if.then:                                          ; preds = %entry
  %1 = load ptr, ptr %name.addr, align 8
  call void @_ZNK7Imf_3_210ImageLevel19throwBadChannelNameERKNSt7__cxx1112basic_stringIcSt11char_traitsIcESaIcEEE(ptr noundef nonnull align 8 dereferenceable(40) %this1, ptr noundef nonnull align 8 dereferenceable(32) %1)
  br label %if.end

if.end:                                           ; preds = %if.then, %entry
  %call6 = call noundef ptr @_ZNKSt23_Rb_tree_const_iteratorISt4pairIKNSt7__cxx1112basic_stringIcSt11char_traitsIcESaIcEEEPN7Imf_3_216FlatImageChannelEEEptEv(ptr noundef nonnull align 8 dereferenceable(8) %i) #3
  %second = getelementptr inbounds %"struct.std::pair", ptr %call6, i32 0, i32 1
  %2 = load ptr, ptr %second, align 8
  ret ptr %2
}

; Function Attrs: mustprogress nounwind uwtable
define linkonce_odr noundef zeroext i1 @_ZSteqRKSt23_Rb_tree_const_iteratorISt4pairIKNSt7__cxx1112basic_stringIcSt11char_traitsIcESaIcEEEPN7Imf_3_216FlatImageChannelEEESE_(ptr noundef nonnull align 8 dereferenceable(8) %__x, ptr noundef nonnull align 8 dereferenceable(8) %__y) #5 comdat {
entry:
  %__x.addr = alloca ptr, align 8
  %__y.addr = alloca ptr, align 8
  store ptr %__x, ptr %__x.addr, align 8
  store ptr %__y, ptr %__y.addr, align 8
  %0 = load ptr, ptr %__x.addr, align 8
  %_M_node = getelementptr inbounds %"struct.std::_Rb_tree_const_iterator", ptr %0, i32 0, i32 0
  %1 = load ptr, ptr %_M_node, align 8
  %2 = load ptr, ptr %__y.addr, align 8
  %_M_node1 = getelementptr inbounds %"struct.std::_Rb_tree_const_iterator", ptr %2, i32 0, i32 0
  %3 = load ptr, ptr %_M_node1, align 8
  %cmp = icmp eq ptr %1, %3
  ret i1 %cmp
}

; Function Attrs: mustprogress uwtable
define ptr @_ZN7Imf_3_214FlatImageLevel5beginEv(ptr noundef nonnull align 8 dereferenceable(88) %this) #4 align 2 {
entry:
  %retval = alloca %"class.Imf_3_2::FlatImageLevel::Iterator", align 8
  %this.addr = alloca ptr, align 8
  %ref.tmp = alloca %"struct.std::_Rb_tree_iterator", align 8
  store ptr %this, ptr %this.addr, align 8
  %this1 = load ptr, ptr %this.addr, align 8
  %_channels = getelementptr inbounds %"class.Imf_3_2::FlatImageLevel", ptr %this1, i32 0, i32 1
  %call = call ptr @_ZNSt3mapINSt7__cxx1112basic_stringIcSt11char_traitsIcESaIcEEEPN7Imf_3_216FlatImageChannelESt4lessIS5_ESaISt4pairIKS5_S8_EEE5beginEv(ptr noundef nonnull align 8 dereferenceable(48) %_channels) #3
  %coerce.dive = getelementptr inbounds %"struct.std::_Rb_tree_iterator", ptr %ref.tmp, i32 0, i32 0
  store ptr %call, ptr %coerce.dive, align 8
  call void @_ZN7Imf_3_214FlatImageLevel8IteratorC2ERKSt17_Rb_tree_iteratorISt4pairIKNSt7__cxx1112basic_stringIcSt11char_traitsIcESaIcEEEPNS_16FlatImageChannelEEE(ptr noundef nonnull align 8 dereferenceable(8) %retval, ptr noundef nonnull align 8 dereferenceable(8) %ref.tmp)
  %coerce.dive2 = getelementptr inbounds %"class.Imf_3_2::FlatImageLevel::Iterator", ptr %retval, i32 0, i32 0
  %coerce.dive3 = getelementptr inbounds %"struct.std::_Rb_tree_iterator", ptr %coerce.dive2, i32 0, i32 0
  %0 = load ptr, ptr %coerce.dive3, align 8
  ret ptr %0
}

; Function Attrs: mustprogress nounwind uwtable
define linkonce_odr void @_ZN7Imf_3_214FlatImageLevel8IteratorC2ERKSt17_Rb_tree_iteratorISt4pairIKNSt7__cxx1112basic_stringIcSt11char_traitsIcESaIcEEEPNS_16FlatImageChannelEEE(ptr noundef nonnull align 8 dereferenceable(8) %this, ptr noundef nonnull align 8 dereferenceable(8) %i) unnamed_addr #5 comdat align 2 {
entry:
  %this.addr = alloca ptr, align 8
  %i.addr = alloca ptr, align 8
  store ptr %this, ptr %this.addr, align 8
  store ptr %i, ptr %i.addr, align 8
  %this1 = load ptr, ptr %this.addr, align 8
  %_i = getelementptr inbounds %"class.Imf_3_2::FlatImageLevel::Iterator", ptr %this1, i32 0, i32 0
  %0 = load ptr, ptr %i.addr, align 8
  call void @llvm.memcpy.p0.p0.i64(ptr align 8 %_i, ptr align 8 %0, i64 8, i1 false)
  ret void
}

; Function Attrs: mustprogress uwtable
define ptr @_ZNK7Imf_3_214FlatImageLevel5beginEv(ptr noundef nonnull align 8 dereferenceable(88) %this) #4 align 2 {
entry:
  %retval = alloca %"class.Imf_3_2::FlatImageLevel::ConstIterator", align 8
  %this.addr = alloca ptr, align 8
  %ref.tmp = alloca %"struct.std::_Rb_tree_const_iterator", align 8
  store ptr %this, ptr %this.addr, align 8
  %this1 = load ptr, ptr %this.addr, align 8
  %_channels = getelementptr inbounds %"class.Imf_3_2::FlatImageLevel", ptr %this1, i32 0, i32 1
  %call = call ptr @_ZNKSt3mapINSt7__cxx1112basic_stringIcSt11char_traitsIcESaIcEEEPN7Imf_3_216FlatImageChannelESt4lessIS5_ESaISt4pairIKS5_S8_EEE5beginEv(ptr noundef nonnull align 8 dereferenceable(48) %_channels) #3
  %coerce.dive = getelementptr inbounds %"struct.std::_Rb_tree_const_iterator", ptr %ref.tmp, i32 0, i32 0
  store ptr %call, ptr %coerce.dive, align 8
  call void @_ZN7Imf_3_214FlatImageLevel13ConstIteratorC2ERKSt23_Rb_tree_const_iteratorISt4pairIKNSt7__cxx1112basic_stringIcSt11char_traitsIcESaIcEEEPNS_16FlatImageChannelEEE(ptr noundef nonnull align 8 dereferenceable(8) %retval, ptr noundef nonnull align 8 dereferenceable(8) %ref.tmp)
  %coerce.dive2 = getelementptr inbounds %"class.Imf_3_2::FlatImageLevel::ConstIterator", ptr %retval, i32 0, i32 0
  %coerce.dive3 = getelementptr inbounds %"struct.std::_Rb_tree_const_iterator", ptr %coerce.dive2, i32 0, i32 0
  %0 = load ptr, ptr %coerce.dive3, align 8
  ret ptr %0
}

; Function Attrs: mustprogress nounwind uwtable
define linkonce_odr hidden ptr @_ZNKSt3mapINSt7__cxx1112basic_stringIcSt11char_traitsIcESaIcEEEPN7Imf_3_216FlatImageChannelESt4lessIS5_ESaISt4pairIKS5_S8_EEE5beginEv(ptr noundef nonnull align 8 dereferenceable(48) %this) #5 comdat align 2 {
entry:
  %retval = alloca %"struct.std::_Rb_tree_const_iterator", align 8
  %this.addr = alloca ptr, align 8
  store ptr %this, ptr %this.addr, align 8
  %this1 = load ptr, ptr %this.addr, align 8
  %_M_t = getelementptr inbounds %"class.std::map", ptr %this1, i32 0, i32 0
  %call = call ptr @_ZNKSt8_Rb_treeINSt7__cxx1112basic_stringIcSt11char_traitsIcESaIcEEESt4pairIKS5_PN7Imf_3_216FlatImageChannelEESt10_Select1stISB_ESt4lessIS5_ESaISB_EE5beginEv(ptr noundef nonnull align 8 dereferenceable(48) %_M_t) #3
  %coerce.dive = getelementptr inbounds %"struct.std::_Rb_tree_const_iterator", ptr %retval, i32 0, i32 0
  store ptr %call, ptr %coerce.dive, align 8
  %coerce.dive2 = getelementptr inbounds %"struct.std::_Rb_tree_const_iterator", ptr %retval, i32 0, i32 0
  %0 = load ptr, ptr %coerce.dive2, align 8
  ret ptr %0
}

; Function Attrs: mustprogress nounwind uwtable
define linkonce_odr void @_ZN7Imf_3_214FlatImageLevel13ConstIteratorC2ERKSt23_Rb_tree_const_iteratorISt4pairIKNSt7__cxx1112basic_stringIcSt11char_traitsIcESaIcEEEPNS_16FlatImageChannelEEE(ptr noundef nonnull align 8 dereferenceable(8) %this, ptr noundef nonnull align 8 dereferenceable(8) %i) unnamed_addr #5 comdat align 2 {
entry:
  %this.addr = alloca ptr, align 8
  %i.addr = alloca ptr, align 8
  store ptr %this, ptr %this.addr, align 8
  store ptr %i, ptr %i.addr, align 8
  %this1 = load ptr, ptr %this.addr, align 8
  %_i = getelementptr inbounds %"class.Imf_3_2::FlatImageLevel::ConstIterator", ptr %this1, i32 0, i32 0
  %0 = load ptr, ptr %i.addr, align 8
  call void @llvm.memcpy.p0.p0.i64(ptr align 8 %_i, ptr align 8 %0, i64 8, i1 false)
  ret void
}

; Function Attrs: mustprogress uwtable
define ptr @_ZN7Imf_3_214FlatImageLevel3endEv(ptr noundef nonnull align 8 dereferenceable(88) %this) #4 align 2 {
entry:
  %retval = alloca %"class.Imf_3_2::FlatImageLevel::Iterator", align 8
  %this.addr = alloca ptr, align 8
  %ref.tmp = alloca %"struct.std::_Rb_tree_iterator", align 8
  store ptr %this, ptr %this.addr, align 8
  %this1 = load ptr, ptr %this.addr, align 8
  %_channels = getelementptr inbounds %"class.Imf_3_2::FlatImageLevel", ptr %this1, i32 0, i32 1
  %call = call ptr @_ZNSt3mapINSt7__cxx1112basic_stringIcSt11char_traitsIcESaIcEEEPN7Imf_3_216FlatImageChannelESt4lessIS5_ESaISt4pairIKS5_S8_EEE3endEv(ptr noundef nonnull align 8 dereferenceable(48) %_channels) #3
  %coerce.dive = getelementptr inbounds %"struct.std::_Rb_tree_iterator", ptr %ref.tmp, i32 0, i32 0
  store ptr %call, ptr %coerce.dive, align 8
  call void @_ZN7Imf_3_214FlatImageLevel8IteratorC2ERKSt17_Rb_tree_iteratorISt4pairIKNSt7__cxx1112basic_stringIcSt11char_traitsIcESaIcEEEPNS_16FlatImageChannelEEE(ptr noundef nonnull align 8 dereferenceable(8) %retval, ptr noundef nonnull align 8 dereferenceable(8) %ref.tmp)
  %coerce.dive2 = getelementptr inbounds %"class.Imf_3_2::FlatImageLevel::Iterator", ptr %retval, i32 0, i32 0
  %coerce.dive3 = getelementptr inbounds %"struct.std::_Rb_tree_iterator", ptr %coerce.dive2, i32 0, i32 0
  %0 = load ptr, ptr %coerce.dive3, align 8
  ret ptr %0
}

; Function Attrs: mustprogress uwtable
define ptr @_ZNK7Imf_3_214FlatImageLevel3endEv(ptr noundef nonnull align 8 dereferenceable(88) %this) #4 align 2 {
entry:
  %retval = alloca %"class.Imf_3_2::FlatImageLevel::ConstIterator", align 8
  %this.addr = alloca ptr, align 8
  %ref.tmp = alloca %"struct.std::_Rb_tree_const_iterator", align 8
  store ptr %this, ptr %this.addr, align 8
  %this1 = load ptr, ptr %this.addr, align 8
  %_channels = getelementptr inbounds %"class.Imf_3_2::FlatImageLevel", ptr %this1, i32 0, i32 1
  %call = call ptr @_ZNKSt3mapINSt7__cxx1112basic_stringIcSt11char_traitsIcESaIcEEEPN7Imf_3_216FlatImageChannelESt4lessIS5_ESaISt4pairIKS5_S8_EEE3endEv(ptr noundef nonnull align 8 dereferenceable(48) %_channels) #3
  %coerce.dive = getelementptr inbounds %"struct.std::_Rb_tree_const_iterator", ptr %ref.tmp, i32 0, i32 0
  store ptr %call, ptr %coerce.dive, align 8
  call void @_ZN7Imf_3_214FlatImageLevel13ConstIteratorC2ERKSt23_Rb_tree_const_iteratorISt4pairIKNSt7__cxx1112basic_stringIcSt11char_traitsIcESaIcEEEPNS_16FlatImageChannelEEE(ptr noundef nonnull align 8 dereferenceable(8) %retval, ptr noundef nonnull align 8 dereferenceable(8) %ref.tmp)
  %coerce.dive2 = getelementptr inbounds %"class.Imf_3_2::FlatImageLevel::ConstIterator", ptr %retval, i32 0, i32 0
  %coerce.dive3 = getelementptr inbounds %"struct.std::_Rb_tree_const_iterator", ptr %coerce.dive2, i32 0, i32 0
  %0 = load ptr, ptr %coerce.dive3, align 8
  ret ptr %0
}

; Function Attrs: mustprogress nounwind uwtable
define linkonce_odr hidden void @_ZNSt8_Rb_treeINSt7__cxx1112basic_stringIcSt11char_traitsIcESaIcEEESt4pairIKS5_PN7Imf_3_216FlatImageChannelEESt10_Select1stISB_ESt4lessIS5_ESaISB_EEC2Ev(ptr noundef nonnull align 8 dereferenceable(48) %this) unnamed_addr #5 comdat align 2 {
entry:
  %this.addr = alloca ptr, align 8
  store ptr %this, ptr %this.addr, align 8
  %this1 = load ptr, ptr %this.addr, align 8
  %_M_impl = getelementptr inbounds %"class.std::_Rb_tree", ptr %this1, i32 0, i32 0
  call void @_ZNSt8_Rb_treeINSt7__cxx1112basic_stringIcSt11char_traitsIcESaIcEEESt4pairIKS5_PN7Imf_3_216FlatImageChannelEESt10_Select1stISB_ESt4lessIS5_ESaISB_EE13_Rb_tree_implISF_Lb1EEC2Ev(ptr noundef nonnull align 8 dereferenceable(48) %_M_impl) #3
  ret void
}

; Function Attrs: mustprogress nounwind uwtable
define linkonce_odr hidden void @_ZNSt8_Rb_treeINSt7__cxx1112basic_stringIcSt11char_traitsIcESaIcEEESt4pairIKS5_PN7Imf_3_216FlatImageChannelEESt10_Select1stISB_ESt4lessIS5_ESaISB_EE13_Rb_tree_implISF_Lb1EEC2Ev(ptr noundef nonnull align 8 dereferenceable(48) %this) unnamed_addr #5 comdat align 2 {
entry:
  %this.addr = alloca ptr, align 8
  store ptr %this, ptr %this.addr, align 8
  %this1 = load ptr, ptr %this.addr, align 8
  call void @_ZNSaISt13_Rb_tree_nodeISt4pairIKNSt7__cxx1112basic_stringIcSt11char_traitsIcESaIcEEEPN7Imf_3_216FlatImageChannelEEEEC2Ev(ptr noundef nonnull align 1 dereferenceable(1) %this1) #3
  call void @_ZNSt20_Rb_tree_key_compareISt4lessINSt7__cxx1112basic_stringIcSt11char_traitsIcESaIcEEEEEC2Ev(ptr noundef nonnull align 1 dereferenceable(1) %this1) #3
  %0 = getelementptr inbounds i8, ptr %this1, i64 8
  call void @_ZNSt15_Rb_tree_headerC2Ev(ptr noundef nonnull align 8 dereferenceable(40) %0) #3
  ret void
}

; Function Attrs: mustprogress nounwind uwtable
define linkonce_odr hidden void @_ZNSaISt13_Rb_tree_nodeISt4pairIKNSt7__cxx1112basic_stringIcSt11char_traitsIcESaIcEEEPN7Imf_3_216FlatImageChannelEEEEC2Ev(ptr noundef nonnull align 1 dereferenceable(1) %this) unnamed_addr #5 comdat align 2 {
entry:
  %this.addr = alloca ptr, align 8
  store ptr %this, ptr %this.addr, align 8
  %this1 = load ptr, ptr %this.addr, align 8
  call void @_ZNSt15__new_allocatorISt13_Rb_tree_nodeISt4pairIKNSt7__cxx1112basic_stringIcSt11char_traitsIcESaIcEEEPN7Imf_3_216FlatImageChannelEEEEC2Ev(ptr noundef nonnull align 1 dereferenceable(1) %this1) #3
  ret void
}

; Function Attrs: mustprogress nounwind uwtable
define linkonce_odr hidden void @_ZNSt20_Rb_tree_key_compareISt4lessINSt7__cxx1112basic_stringIcSt11char_traitsIcESaIcEEEEEC2Ev(ptr noundef nonnull align 1 dereferenceable(1) %this) unnamed_addr #5 comdat align 2 {
entry:
  %this.addr = alloca ptr, align 8
  store ptr %this, ptr %this.addr, align 8
  ret void
}

; Function Attrs: mustprogress nounwind uwtable
define linkonce_odr hidden void @_ZNSt15_Rb_tree_headerC2Ev(ptr noundef nonnull align 8 dereferenceable(40) %this) unnamed_addr #5 comdat align 2 personality ptr @__gxx_personality_v0 {
entry:
  %this.addr = alloca ptr, align 8
  store ptr %this, ptr %this.addr, align 8
  %this1 = load ptr, ptr %this.addr, align 8
  %_M_header2 = getelementptr inbounds %"struct.std::_Rb_tree_header", ptr %this1, i32 0, i32 0
  %_M_color = getelementptr inbounds %"struct.std::_Rb_tree_node_base", ptr %_M_header2, i32 0, i32 0
  store i32 0, ptr %_M_color, align 8
  invoke void @_ZNSt15_Rb_tree_header8_M_resetEv(ptr noundef nonnull align 8 dereferenceable(40) %this1)
          to label %invoke.cont unwind label %terminate.lpad

invoke.cont:                                      ; preds = %entry
  ret void

terminate.lpad:                                   ; preds = %entry
  %0 = landingpad { ptr, i32 }
          catch ptr null
  %1 = extractvalue { ptr, i32 } %0, 0
  call void @__clang_call_terminate(ptr %1) #12
  unreachable
}

; Function Attrs: mustprogress nounwind uwtable
define linkonce_odr hidden void @_ZNSt15__new_allocatorISt13_Rb_tree_nodeISt4pairIKNSt7__cxx1112basic_stringIcSt11char_traitsIcESaIcEEEPN7Imf_3_216FlatImageChannelEEEEC2Ev(ptr noundef nonnull align 1 dereferenceable(1) %this) unnamed_addr #5 comdat align 2 {
entry:
  %this.addr = alloca ptr, align 8
  store ptr %this, ptr %this.addr, align 8
  ret void
}

; Function Attrs: mustprogress nounwind uwtable
define linkonce_odr hidden void @_ZNSt15_Rb_tree_header8_M_resetEv(ptr noundef nonnull align 8 dereferenceable(40) %this) #5 comdat align 2 {
entry:
  %this.addr = alloca ptr, align 8
  store ptr %this, ptr %this.addr, align 8
  %this1 = load ptr, ptr %this.addr, align 8
  %_M_header = getelementptr inbounds %"struct.std::_Rb_tree_header", ptr %this1, i32 0, i32 0
  %_M_parent = getelementptr inbounds %"struct.std::_Rb_tree_node_base", ptr %_M_header, i32 0, i32 1
  store ptr null, ptr %_M_parent, align 8
  %_M_header2 = getelementptr inbounds %"struct.std::_Rb_tree_header", ptr %this1, i32 0, i32 0
  %_M_header3 = getelementptr inbounds %"struct.std::_Rb_tree_header", ptr %this1, i32 0, i32 0
  %_M_left = getelementptr inbounds %"struct.std::_Rb_tree_node_base", ptr %_M_header3, i32 0, i32 2
  store ptr %_M_header2, ptr %_M_left, align 8
  %_M_header4 = getelementptr inbounds %"struct.std::_Rb_tree_header", ptr %this1, i32 0, i32 0
  %_M_header5 = getelementptr inbounds %"struct.std::_Rb_tree_header", ptr %this1, i32 0, i32 0
  %_M_right = getelementptr inbounds %"struct.std::_Rb_tree_node_base", ptr %_M_header5, i32 0, i32 3
  store ptr %_M_header4, ptr %_M_right, align 8
  %_M_node_count = getelementptr inbounds %"struct.std::_Rb_tree_header", ptr %this1, i32 0, i32 1
  store i64 0, ptr %_M_node_count, align 8
  ret void
}

; Function Attrs: mustprogress nounwind uwtable
define linkonce_odr hidden void @_ZNSt8_Rb_treeINSt7__cxx1112basic_stringIcSt11char_traitsIcESaIcEEESt4pairIKS5_PN7Imf_3_216FlatImageChannelEESt10_Select1stISB_ESt4lessIS5_ESaISB_EED2Ev(ptr noundef nonnull align 8 dereferenceable(48) %this) unnamed_addr #5 comdat align 2 personality ptr @__gxx_personality_v0 {
entry:
  %this.addr = alloca ptr, align 8
  store ptr %this, ptr %this.addr, align 8
  %this1 = load ptr, ptr %this.addr, align 8
  %call = call noundef ptr @_ZNSt8_Rb_treeINSt7__cxx1112basic_stringIcSt11char_traitsIcESaIcEEESt4pairIKS5_PN7Imf_3_216FlatImageChannelEESt10_Select1stISB_ESt4lessIS5_ESaISB_EE8_M_beginEv(ptr noundef nonnull align 8 dereferenceable(48) %this1) #3
  invoke void @_ZNSt8_Rb_treeINSt7__cxx1112basic_stringIcSt11char_traitsIcESaIcEEESt4pairIKS5_PN7Imf_3_216FlatImageChannelEESt10_Select1stISB_ESt4lessIS5_ESaISB_EE8_M_eraseEPSt13_Rb_tree_nodeISB_E(ptr noundef nonnull align 8 dereferenceable(48) %this1, ptr noundef %call)
          to label %invoke.cont unwind label %terminate.lpad

invoke.cont:                                      ; preds = %entry
  %_M_impl = getelementptr inbounds %"class.std::_Rb_tree", ptr %this1, i32 0, i32 0
  call void @_ZNSt8_Rb_treeINSt7__cxx1112basic_stringIcSt11char_traitsIcESaIcEEESt4pairIKS5_PN7Imf_3_216FlatImageChannelEESt10_Select1stISB_ESt4lessIS5_ESaISB_EE13_Rb_tree_implISF_Lb1EED2Ev(ptr noundef nonnull align 8 dereferenceable(48) %_M_impl) #3
  ret void

terminate.lpad:                                   ; preds = %entry
  %0 = landingpad { ptr, i32 }
          catch ptr null
  %1 = extractvalue { ptr, i32 } %0, 0
  call void @__clang_call_terminate(ptr %1) #12
  unreachable
}

; Function Attrs: mustprogress uwtable
define linkonce_odr void @_ZNSt8_Rb_treeINSt7__cxx1112basic_stringIcSt11char_traitsIcESaIcEEESt4pairIKS5_PN7Imf_3_216FlatImageChannelEESt10_Select1stISB_ESt4lessIS5_ESaISB_EE8_M_eraseEPSt13_Rb_tree_nodeISB_E(ptr noundef nonnull align 8 dereferenceable(48) %this, ptr noundef %__x) #4 comdat align 2 {
entry:
  %this.addr = alloca ptr, align 8
  %__x.addr = alloca ptr, align 8
  %__y = alloca ptr, align 8
  store ptr %this, ptr %this.addr, align 8
  store ptr %__x, ptr %__x.addr, align 8
  %this1 = load ptr, ptr %this.addr, align 8
  br label %while.cond

while.cond:                                       ; preds = %while.body, %entry
  %0 = load ptr, ptr %__x.addr, align 8
  %cmp = icmp ne ptr %0, null
  br i1 %cmp, label %while.body, label %while.end

while.body:                                       ; preds = %while.cond
  %1 = load ptr, ptr %__x.addr, align 8
  %call = call noundef ptr @_ZNSt8_Rb_treeINSt7__cxx1112basic_stringIcSt11char_traitsIcESaIcEEESt4pairIKS5_PN7Imf_3_216FlatImageChannelEESt10_Select1stISB_ESt4lessIS5_ESaISB_EE8_S_rightEPSt18_Rb_tree_node_base(ptr noundef %1) #3
  call void @_ZNSt8_Rb_treeINSt7__cxx1112basic_stringIcSt11char_traitsIcESaIcEEESt4pairIKS5_PN7Imf_3_216FlatImageChannelEESt10_Select1stISB_ESt4lessIS5_ESaISB_EE8_M_eraseEPSt13_Rb_tree_nodeISB_E(ptr noundef nonnull align 8 dereferenceable(48) %this1, ptr noundef %call)
  %2 = load ptr, ptr %__x.addr, align 8
  %call2 = call noundef ptr @_ZNSt8_Rb_treeINSt7__cxx1112basic_stringIcSt11char_traitsIcESaIcEEESt4pairIKS5_PN7Imf_3_216FlatImageChannelEESt10_Select1stISB_ESt4lessIS5_ESaISB_EE7_S_leftEPSt18_Rb_tree_node_base(ptr noundef %2) #3
  store ptr %call2, ptr %__y, align 8
  %3 = load ptr, ptr %__x.addr, align 8
  call void @_ZNSt8_Rb_treeINSt7__cxx1112basic_stringIcSt11char_traitsIcESaIcEEESt4pairIKS5_PN7Imf_3_216FlatImageChannelEESt10_Select1stISB_ESt4lessIS5_ESaISB_EE12_M_drop_nodeEPSt13_Rb_tree_nodeISB_E(ptr noundef nonnull align 8 dereferenceable(48) %this1, ptr noundef %3) #3
  %4 = load ptr, ptr %__y, align 8
  store ptr %4, ptr %__x.addr, align 8
  br label %while.cond, !llvm.loop !9

while.end:                                        ; preds = %while.cond
  ret void
}

; Function Attrs: mustprogress nounwind uwtable
define linkonce_odr hidden noundef ptr @_ZNSt8_Rb_treeINSt7__cxx1112basic_stringIcSt11char_traitsIcESaIcEEESt4pairIKS5_PN7Imf_3_216FlatImageChannelEESt10_Select1stISB_ESt4lessIS5_ESaISB_EE8_M_beginEv(ptr noundef nonnull align 8 dereferenceable(48) %this) #5 comdat align 2 {
entry:
  %this.addr = alloca ptr, align 8
  store ptr %this, ptr %this.addr, align 8
  %this1 = load ptr, ptr %this.addr, align 8
  %call = call noundef ptr @_ZNKSt8_Rb_treeINSt7__cxx1112basic_stringIcSt11char_traitsIcESaIcEEESt4pairIKS5_PN7Imf_3_216FlatImageChannelEESt10_Select1stISB_ESt4lessIS5_ESaISB_EE9_M_mbeginEv(ptr noundef nonnull align 8 dereferenceable(48) %this1) #3
  ret ptr %call
}

; Function Attrs: mustprogress nounwind uwtable
define linkonce_odr hidden void @_ZNSt8_Rb_treeINSt7__cxx1112basic_stringIcSt11char_traitsIcESaIcEEESt4pairIKS5_PN7Imf_3_216FlatImageChannelEESt10_Select1stISB_ESt4lessIS5_ESaISB_EE13_Rb_tree_implISF_Lb1EED2Ev(ptr noundef nonnull align 8 dereferenceable(48) %this) unnamed_addr #5 comdat align 2 {
entry:
  %this.addr = alloca ptr, align 8
  store ptr %this, ptr %this.addr, align 8
  %this1 = load ptr, ptr %this.addr, align 8
  call void @_ZNSaISt13_Rb_tree_nodeISt4pairIKNSt7__cxx1112basic_stringIcSt11char_traitsIcESaIcEEEPN7Imf_3_216FlatImageChannelEEEED2Ev(ptr noundef nonnull align 1 dereferenceable(1) %this1) #3
  ret void
}

; Function Attrs: mustprogress nounwind uwtable
define linkonce_odr hidden noundef ptr @_ZNSt8_Rb_treeINSt7__cxx1112basic_stringIcSt11char_traitsIcESaIcEEESt4pairIKS5_PN7Imf_3_216FlatImageChannelEESt10_Select1stISB_ESt4lessIS5_ESaISB_EE8_S_rightEPSt18_Rb_tree_node_base(ptr noundef %__x) #5 comdat align 2 {
entry:
  %__x.addr = alloca ptr, align 8
  store ptr %__x, ptr %__x.addr, align 8
  %0 = load ptr, ptr %__x.addr, align 8
  %_M_right = getelementptr inbounds %"struct.std::_Rb_tree_node_base", ptr %0, i32 0, i32 3
  %1 = load ptr, ptr %_M_right, align 8
  ret ptr %1
}

; Function Attrs: mustprogress nounwind uwtable
define linkonce_odr hidden noundef ptr @_ZNSt8_Rb_treeINSt7__cxx1112basic_stringIcSt11char_traitsIcESaIcEEESt4pairIKS5_PN7Imf_3_216FlatImageChannelEESt10_Select1stISB_ESt4lessIS5_ESaISB_EE7_S_leftEPSt18_Rb_tree_node_base(ptr noundef %__x) #5 comdat align 2 {
entry:
  %__x.addr = alloca ptr, align 8
  store ptr %__x, ptr %__x.addr, align 8
  %0 = load ptr, ptr %__x.addr, align 8
  %_M_left = getelementptr inbounds %"struct.std::_Rb_tree_node_base", ptr %0, i32 0, i32 2
  %1 = load ptr, ptr %_M_left, align 8
  ret ptr %1
}

; Function Attrs: mustprogress nounwind uwtable
define linkonce_odr hidden void @_ZNSt8_Rb_treeINSt7__cxx1112basic_stringIcSt11char_traitsIcESaIcEEESt4pairIKS5_PN7Imf_3_216FlatImageChannelEESt10_Select1stISB_ESt4lessIS5_ESaISB_EE12_M_drop_nodeEPSt13_Rb_tree_nodeISB_E(ptr noundef nonnull align 8 dereferenceable(48) %this, ptr noundef %__p) #5 comdat align 2 {
entry:
  %this.addr = alloca ptr, align 8
  %__p.addr = alloca ptr, align 8
  store ptr %this, ptr %this.addr, align 8
  store ptr %__p, ptr %__p.addr, align 8
  %this1 = load ptr, ptr %this.addr, align 8
  %0 = load ptr, ptr %__p.addr, align 8
  call void @_ZNSt8_Rb_treeINSt7__cxx1112basic_stringIcSt11char_traitsIcESaIcEEESt4pairIKS5_PN7Imf_3_216FlatImageChannelEESt10_Select1stISB_ESt4lessIS5_ESaISB_EE15_M_destroy_nodeEPSt13_Rb_tree_nodeISB_E(ptr noundef nonnull align 8 dereferenceable(48) %this1, ptr noundef %0) #3
  %1 = load ptr, ptr %__p.addr, align 8
  call void @_ZNSt8_Rb_treeINSt7__cxx1112basic_stringIcSt11char_traitsIcESaIcEEESt4pairIKS5_PN7Imf_3_216FlatImageChannelEESt10_Select1stISB_ESt4lessIS5_ESaISB_EE11_M_put_nodeEPSt13_Rb_tree_nodeISB_E(ptr noundef nonnull align 8 dereferenceable(48) %this1, ptr noundef %1) #3
  ret void
}

; Function Attrs: mustprogress nounwind uwtable
define linkonce_odr hidden void @_ZNSt8_Rb_treeINSt7__cxx1112basic_stringIcSt11char_traitsIcESaIcEEESt4pairIKS5_PN7Imf_3_216FlatImageChannelEESt10_Select1stISB_ESt4lessIS5_ESaISB_EE15_M_destroy_nodeEPSt13_Rb_tree_nodeISB_E(ptr noundef nonnull align 8 dereferenceable(48) %this, ptr noundef %__p) #5 comdat align 2 personality ptr @__gxx_personality_v0 {
entry:
  %this.addr = alloca ptr, align 8
  %__p.addr = alloca ptr, align 8
  store ptr %this, ptr %this.addr, align 8
  store ptr %__p, ptr %__p.addr, align 8
  %this1 = load ptr, ptr %this.addr, align 8
  %call = call noundef nonnull align 1 dereferenceable(1) ptr @_ZNSt8_Rb_treeINSt7__cxx1112basic_stringIcSt11char_traitsIcESaIcEEESt4pairIKS5_PN7Imf_3_216FlatImageChannelEESt10_Select1stISB_ESt4lessIS5_ESaISB_EE21_M_get_Node_allocatorEv(ptr noundef nonnull align 8 dereferenceable(48) %this1) #3
  %0 = load ptr, ptr %__p.addr, align 8
  %call2 = invoke noundef ptr @_ZNSt13_Rb_tree_nodeISt4pairIKNSt7__cxx1112basic_stringIcSt11char_traitsIcESaIcEEEPN7Imf_3_216FlatImageChannelEEE9_M_valptrEv(ptr noundef nonnull align 8 dereferenceable(72) %0)
          to label %invoke.cont unwind label %terminate.lpad

invoke.cont:                                      ; preds = %entry
  call void @_ZNSt16allocator_traitsISaISt13_Rb_tree_nodeISt4pairIKNSt7__cxx1112basic_stringIcSt11char_traitsIcESaIcEEEPN7Imf_3_216FlatImageChannelEEEEE7destroyISC_EEvRSE_PT_(ptr noundef nonnull align 1 dereferenceable(1) %call, ptr noundef %call2) #3
  ret void

terminate.lpad:                                   ; preds = %entry
  %1 = landingpad { ptr, i32 }
          catch ptr null
  %2 = extractvalue { ptr, i32 } %1, 0
  call void @__clang_call_terminate(ptr %2) #12
  unreachable
}

; Function Attrs: mustprogress nounwind uwtable
define linkonce_odr hidden void @_ZNSt8_Rb_treeINSt7__cxx1112basic_stringIcSt11char_traitsIcESaIcEEESt4pairIKS5_PN7Imf_3_216FlatImageChannelEESt10_Select1stISB_ESt4lessIS5_ESaISB_EE11_M_put_nodeEPSt13_Rb_tree_nodeISB_E(ptr noundef nonnull align 8 dereferenceable(48) %this, ptr noundef %__p) #5 comdat align 2 personality ptr @__gxx_personality_v0 {
entry:
  %this.addr = alloca ptr, align 8
  %__p.addr = alloca ptr, align 8
  store ptr %this, ptr %this.addr, align 8
  store ptr %__p, ptr %__p.addr, align 8
  %this1 = load ptr, ptr %this.addr, align 8
  %call = call noundef nonnull align 1 dereferenceable(1) ptr @_ZNSt8_Rb_treeINSt7__cxx1112basic_stringIcSt11char_traitsIcESaIcEEESt4pairIKS5_PN7Imf_3_216FlatImageChannelEESt10_Select1stISB_ESt4lessIS5_ESaISB_EE21_M_get_Node_allocatorEv(ptr noundef nonnull align 8 dereferenceable(48) %this1) #3
  %0 = load ptr, ptr %__p.addr, align 8
  invoke void @_ZNSt16allocator_traitsISaISt13_Rb_tree_nodeISt4pairIKNSt7__cxx1112basic_stringIcSt11char_traitsIcESaIcEEEPN7Imf_3_216FlatImageChannelEEEEE10deallocateERSE_PSD_m(ptr noundef nonnull align 1 dereferenceable(1) %call, ptr noundef %0, i64 noundef 1)
          to label %invoke.cont unwind label %terminate.lpad

invoke.cont:                                      ; preds = %entry
  ret void

terminate.lpad:                                   ; preds = %entry
  %1 = landingpad { ptr, i32 }
          catch ptr null
  %2 = extractvalue { ptr, i32 } %1, 0
  call void @__clang_call_terminate(ptr %2) #12
  unreachable
}

; Function Attrs: mustprogress nounwind uwtable
define linkonce_odr hidden void @_ZNSt16allocator_traitsISaISt13_Rb_tree_nodeISt4pairIKNSt7__cxx1112basic_stringIcSt11char_traitsIcESaIcEEEPN7Imf_3_216FlatImageChannelEEEEE7destroyISC_EEvRSE_PT_(ptr noundef nonnull align 1 dereferenceable(1) %__a, ptr noundef %__p) #5 comdat align 2 {
entry:
  %__a.addr = alloca ptr, align 8
  %__p.addr = alloca ptr, align 8
  store ptr %__a, ptr %__a.addr, align 8
  store ptr %__p, ptr %__p.addr, align 8
  %0 = load ptr, ptr %__a.addr, align 8
  %1 = load ptr, ptr %__p.addr, align 8
  call void @_ZNSt15__new_allocatorISt13_Rb_tree_nodeISt4pairIKNSt7__cxx1112basic_stringIcSt11char_traitsIcESaIcEEEPN7Imf_3_216FlatImageChannelEEEE7destroyISC_EEvPT_(ptr noundef nonnull align 1 dereferenceable(1) %0, ptr noundef %1) #3
  ret void
}

; Function Attrs: mustprogress nounwind uwtable
define linkonce_odr hidden noundef nonnull align 1 dereferenceable(1) ptr @_ZNSt8_Rb_treeINSt7__cxx1112basic_stringIcSt11char_traitsIcESaIcEEESt4pairIKS5_PN7Imf_3_216FlatImageChannelEESt10_Select1stISB_ESt4lessIS5_ESaISB_EE21_M_get_Node_allocatorEv(ptr noundef nonnull align 8 dereferenceable(48) %this) #5 comdat align 2 {
entry:
  %this.addr = alloca ptr, align 8
  store ptr %this, ptr %this.addr, align 8
  %this1 = load ptr, ptr %this.addr, align 8
  %_M_impl = getelementptr inbounds %"class.std::_Rb_tree", ptr %this1, i32 0, i32 0
  ret ptr %_M_impl
}

; Function Attrs: mustprogress nounwind uwtable
define linkonce_odr hidden noundef ptr @_ZNSt13_Rb_tree_nodeISt4pairIKNSt7__cxx1112basic_stringIcSt11char_traitsIcESaIcEEEPN7Imf_3_216FlatImageChannelEEE9_M_valptrEv(ptr noundef nonnull align 8 dereferenceable(72) %this) #5 comdat align 2 {
entry:
  %this.addr = alloca ptr, align 8
  store ptr %this, ptr %this.addr, align 8
  %this1 = load ptr, ptr %this.addr, align 8
  %_M_storage = getelementptr inbounds %"struct.std::_Rb_tree_node", ptr %this1, i32 0, i32 1
  %call = call noundef ptr @_ZN9__gnu_cxx16__aligned_membufISt4pairIKNSt7__cxx1112basic_stringIcSt11char_traitsIcESaIcEEEPN7Imf_3_216FlatImageChannelEEE6_M_ptrEv(ptr noundef nonnull align 8 dereferenceable(40) %_M_storage) #3
  ret ptr %call
}

; Function Attrs: mustprogress nounwind uwtable
define linkonce_odr hidden void @_ZNSt15__new_allocatorISt13_Rb_tree_nodeISt4pairIKNSt7__cxx1112basic_stringIcSt11char_traitsIcESaIcEEEPN7Imf_3_216FlatImageChannelEEEE7destroyISC_EEvPT_(ptr noundef nonnull align 1 dereferenceable(1) %this, ptr noundef %__p) #5 comdat align 2 {
entry:
  %this.addr = alloca ptr, align 8
  %__p.addr = alloca ptr, align 8
  store ptr %this, ptr %this.addr, align 8
  store ptr %__p, ptr %__p.addr, align 8
  %0 = load ptr, ptr %__p.addr, align 8
  call void @_ZNSt4pairIKNSt7__cxx1112basic_stringIcSt11char_traitsIcESaIcEEEPN7Imf_3_216FlatImageChannelEED2Ev(ptr noundef nonnull align 8 dereferenceable(40) %0) #3
  ret void
}

; Function Attrs: mustprogress nounwind uwtable
define linkonce_odr hidden void @_ZNSt4pairIKNSt7__cxx1112basic_stringIcSt11char_traitsIcESaIcEEEPN7Imf_3_216FlatImageChannelEED2Ev(ptr noundef nonnull align 8 dereferenceable(40) %this) unnamed_addr #5 comdat align 2 {
entry:
  %this.addr = alloca ptr, align 8
  store ptr %this, ptr %this.addr, align 8
  %this1 = load ptr, ptr %this.addr, align 8
  %first = getelementptr inbounds %"struct.std::pair", ptr %this1, i32 0, i32 0
  call void @_ZNSt7__cxx1112basic_stringIcSt11char_traitsIcESaIcEED1Ev(ptr noundef nonnull align 8 dereferenceable(32) %first) #3
  ret void
}

; Function Attrs: nounwind
declare void @_ZNSt7__cxx1112basic_stringIcSt11char_traitsIcESaIcEED1Ev(ptr noundef nonnull align 8 dereferenceable(32)) unnamed_addr #2

; Function Attrs: mustprogress nounwind uwtable
define linkonce_odr hidden noundef ptr @_ZN9__gnu_cxx16__aligned_membufISt4pairIKNSt7__cxx1112basic_stringIcSt11char_traitsIcESaIcEEEPN7Imf_3_216FlatImageChannelEEE6_M_ptrEv(ptr noundef nonnull align 8 dereferenceable(40) %this) #5 comdat align 2 {
entry:
  %this.addr = alloca ptr, align 8
  store ptr %this, ptr %this.addr, align 8
  %this1 = load ptr, ptr %this.addr, align 8
  %call = call noundef ptr @_ZN9__gnu_cxx16__aligned_membufISt4pairIKNSt7__cxx1112basic_stringIcSt11char_traitsIcESaIcEEEPN7Imf_3_216FlatImageChannelEEE7_M_addrEv(ptr noundef nonnull align 8 dereferenceable(40) %this1) #3
  ret ptr %call
}

; Function Attrs: mustprogress nounwind uwtable
define linkonce_odr hidden noundef ptr @_ZN9__gnu_cxx16__aligned_membufISt4pairIKNSt7__cxx1112basic_stringIcSt11char_traitsIcESaIcEEEPN7Imf_3_216FlatImageChannelEEE7_M_addrEv(ptr noundef nonnull align 8 dereferenceable(40) %this) #5 comdat align 2 {
entry:
  %this.addr = alloca ptr, align 8
  store ptr %this, ptr %this.addr, align 8
  %this1 = load ptr, ptr %this.addr, align 8
  %_M_storage = getelementptr inbounds %"struct.__gnu_cxx::__aligned_membuf", ptr %this1, i32 0, i32 0
  ret ptr %_M_storage
}

; Function Attrs: mustprogress uwtable
define linkonce_odr hidden void @_ZNSt16allocator_traitsISaISt13_Rb_tree_nodeISt4pairIKNSt7__cxx1112basic_stringIcSt11char_traitsIcESaIcEEEPN7Imf_3_216FlatImageChannelEEEEE10deallocateERSE_PSD_m(ptr noundef nonnull align 1 dereferenceable(1) %__a, ptr noundef %__p, i64 noundef %__n) #4 comdat align 2 {
entry:
  %__a.addr = alloca ptr, align 8
  %__p.addr = alloca ptr, align 8
  %__n.addr = alloca i64, align 8
  store ptr %__a, ptr %__a.addr, align 8
  store ptr %__p, ptr %__p.addr, align 8
  store i64 %__n, ptr %__n.addr, align 8
  %0 = load ptr, ptr %__a.addr, align 8
  %1 = load ptr, ptr %__p.addr, align 8
  %2 = load i64, ptr %__n.addr, align 8
  call void @_ZNSt15__new_allocatorISt13_Rb_tree_nodeISt4pairIKNSt7__cxx1112basic_stringIcSt11char_traitsIcESaIcEEEPN7Imf_3_216FlatImageChannelEEEE10deallocateEPSD_m(ptr noundef nonnull align 1 dereferenceable(1) %0, ptr noundef %1, i64 noundef %2)
  ret void
}

; Function Attrs: mustprogress nounwind uwtable
define linkonce_odr hidden void @_ZNSt15__new_allocatorISt13_Rb_tree_nodeISt4pairIKNSt7__cxx1112basic_stringIcSt11char_traitsIcESaIcEEEPN7Imf_3_216FlatImageChannelEEEE10deallocateEPSD_m(ptr noundef nonnull align 1 dereferenceable(1) %this, ptr noundef %__p, i64 noundef %__n) #5 comdat align 2 {
entry:
  %this.addr = alloca ptr, align 8
  %__p.addr = alloca ptr, align 8
  %__n.addr = alloca i64, align 8
  store ptr %this, ptr %this.addr, align 8
  store ptr %__p, ptr %__p.addr, align 8
  store i64 %__n, ptr %__n.addr, align 8
  %0 = load ptr, ptr %__p.addr, align 8
  call void @_ZdlPv(ptr noundef %0) #13
  ret void
}

; Function Attrs: mustprogress nounwind uwtable
define linkonce_odr hidden noundef ptr @_ZNKSt8_Rb_treeINSt7__cxx1112basic_stringIcSt11char_traitsIcESaIcEEESt4pairIKS5_PN7Imf_3_216FlatImageChannelEESt10_Select1stISB_ESt4lessIS5_ESaISB_EE9_M_mbeginEv(ptr noundef nonnull align 8 dereferenceable(48) %this) #5 comdat align 2 {
entry:
  %this.addr = alloca ptr, align 8
  store ptr %this, ptr %this.addr, align 8
  %this1 = load ptr, ptr %this.addr, align 8
  %_M_impl = getelementptr inbounds %"class.std::_Rb_tree", ptr %this1, i32 0, i32 0
  %add.ptr = getelementptr inbounds i8, ptr %_M_impl, i64 8
  %_M_header = getelementptr inbounds %"struct.std::_Rb_tree_header", ptr %add.ptr, i32 0, i32 0
  %_M_parent = getelementptr inbounds %"struct.std::_Rb_tree_node_base", ptr %_M_header, i32 0, i32 1
  %0 = load ptr, ptr %_M_parent, align 8
  ret ptr %0
}

; Function Attrs: mustprogress nounwind uwtable
define linkonce_odr hidden void @_ZNSaISt13_Rb_tree_nodeISt4pairIKNSt7__cxx1112basic_stringIcSt11char_traitsIcESaIcEEEPN7Imf_3_216FlatImageChannelEEEED2Ev(ptr noundef nonnull align 1 dereferenceable(1) %this) unnamed_addr #5 comdat align 2 {
entry:
  %this.addr = alloca ptr, align 8
  store ptr %this, ptr %this.addr, align 8
  %this1 = load ptr, ptr %this.addr, align 8
  call void @_ZNSt15__new_allocatorISt13_Rb_tree_nodeISt4pairIKNSt7__cxx1112basic_stringIcSt11char_traitsIcESaIcEEEPN7Imf_3_216FlatImageChannelEEEED2Ev(ptr noundef nonnull align 1 dereferenceable(1) %this1) #3
  ret void
}

; Function Attrs: mustprogress nounwind uwtable
define linkonce_odr hidden void @_ZNSt15__new_allocatorISt13_Rb_tree_nodeISt4pairIKNSt7__cxx1112basic_stringIcSt11char_traitsIcESaIcEEEPN7Imf_3_216FlatImageChannelEEEED2Ev(ptr noundef nonnull align 1 dereferenceable(1) %this) unnamed_addr #5 comdat align 2 {
entry:
  %this.addr = alloca ptr, align 8
  store ptr %this, ptr %this.addr, align 8
  ret void
}

; Function Attrs: nounwind willreturn memory(read)
declare noundef ptr @_ZSt18_Rb_tree_incrementPSt18_Rb_tree_node_base(ptr noundef) #10

; Function Attrs: mustprogress nounwind uwtable
define linkonce_odr hidden noundef ptr @_ZNKSt13_Rb_tree_nodeISt4pairIKNSt7__cxx1112basic_stringIcSt11char_traitsIcESaIcEEEPN7Imf_3_216FlatImageChannelEEE9_M_valptrEv(ptr noundef nonnull align 8 dereferenceable(72) %this) #5 comdat align 2 {
entry:
  %this.addr = alloca ptr, align 8
  store ptr %this, ptr %this.addr, align 8
  %this1 = load ptr, ptr %this.addr, align 8
  %_M_storage = getelementptr inbounds %"struct.std::_Rb_tree_node", ptr %this1, i32 0, i32 1
  %call = call noundef ptr @_ZNK9__gnu_cxx16__aligned_membufISt4pairIKNSt7__cxx1112basic_stringIcSt11char_traitsIcESaIcEEEPN7Imf_3_216FlatImageChannelEEE6_M_ptrEv(ptr noundef nonnull align 8 dereferenceable(40) %_M_storage) #3
  ret ptr %call
}

; Function Attrs: mustprogress nounwind uwtable
define linkonce_odr hidden noundef ptr @_ZNK9__gnu_cxx16__aligned_membufISt4pairIKNSt7__cxx1112basic_stringIcSt11char_traitsIcESaIcEEEPN7Imf_3_216FlatImageChannelEEE6_M_ptrEv(ptr noundef nonnull align 8 dereferenceable(40) %this) #5 comdat align 2 {
entry:
  %this.addr = alloca ptr, align 8
  store ptr %this, ptr %this.addr, align 8
  %this1 = load ptr, ptr %this.addr, align 8
  %call = call noundef ptr @_ZNK9__gnu_cxx16__aligned_membufISt4pairIKNSt7__cxx1112basic_stringIcSt11char_traitsIcESaIcEEEPN7Imf_3_216FlatImageChannelEEE7_M_addrEv(ptr noundef nonnull align 8 dereferenceable(40) %this1) #3
  ret ptr %call
}

; Function Attrs: mustprogress nounwind uwtable
define linkonce_odr hidden noundef ptr @_ZNK9__gnu_cxx16__aligned_membufISt4pairIKNSt7__cxx1112basic_stringIcSt11char_traitsIcESaIcEEEPN7Imf_3_216FlatImageChannelEEE7_M_addrEv(ptr noundef nonnull align 8 dereferenceable(40) %this) #5 comdat align 2 {
entry:
  %this.addr = alloca ptr, align 8
  store ptr %this, ptr %this.addr, align 8
  %this1 = load ptr, ptr %this.addr, align 8
  %_M_storage = getelementptr inbounds %"struct.__gnu_cxx::__aligned_membuf", ptr %this1, i32 0, i32 0
  ret ptr %_M_storage
}

; Function Attrs: mustprogress nounwind uwtable
define linkonce_odr hidden ptr @_ZNSt8_Rb_treeINSt7__cxx1112basic_stringIcSt11char_traitsIcESaIcEEESt4pairIKS5_PN7Imf_3_216FlatImageChannelEESt10_Select1stISB_ESt4lessIS5_ESaISB_EE5beginEv(ptr noundef nonnull align 8 dereferenceable(48) %this) #5 comdat align 2 {
entry:
  %retval = alloca %"struct.std::_Rb_tree_iterator", align 8
  %this.addr = alloca ptr, align 8
  store ptr %this, ptr %this.addr, align 8
  %this1 = load ptr, ptr %this.addr, align 8
  %_M_impl = getelementptr inbounds %"class.std::_Rb_tree", ptr %this1, i32 0, i32 0
  %add.ptr = getelementptr inbounds i8, ptr %_M_impl, i64 8
  %_M_header = getelementptr inbounds %"struct.std::_Rb_tree_header", ptr %add.ptr, i32 0, i32 0
  %_M_left = getelementptr inbounds %"struct.std::_Rb_tree_node_base", ptr %_M_header, i32 0, i32 2
  %0 = load ptr, ptr %_M_left, align 8
  call void @_ZNSt17_Rb_tree_iteratorISt4pairIKNSt7__cxx1112basic_stringIcSt11char_traitsIcESaIcEEEPN7Imf_3_216FlatImageChannelEEEC2EPSt18_Rb_tree_node_base(ptr noundef nonnull align 8 dereferenceable(8) %retval, ptr noundef %0) #3
  %coerce.dive = getelementptr inbounds %"struct.std::_Rb_tree_iterator", ptr %retval, i32 0, i32 0
  %1 = load ptr, ptr %coerce.dive, align 8
  ret ptr %1
}

; Function Attrs: mustprogress nounwind uwtable
define linkonce_odr hidden void @_ZNSt17_Rb_tree_iteratorISt4pairIKNSt7__cxx1112basic_stringIcSt11char_traitsIcESaIcEEEPN7Imf_3_216FlatImageChannelEEEC2EPSt18_Rb_tree_node_base(ptr noundef nonnull align 8 dereferenceable(8) %this, ptr noundef %__x) unnamed_addr #5 comdat align 2 {
entry:
  %this.addr = alloca ptr, align 8
  %__x.addr = alloca ptr, align 8
  store ptr %this, ptr %this.addr, align 8
  store ptr %__x, ptr %__x.addr, align 8
  %this1 = load ptr, ptr %this.addr, align 8
  %_M_node = getelementptr inbounds %"struct.std::_Rb_tree_iterator", ptr %this1, i32 0, i32 0
  %0 = load ptr, ptr %__x.addr, align 8
  store ptr %0, ptr %_M_node, align 8
  ret void
}

; Function Attrs: mustprogress nounwind uwtable
define linkonce_odr hidden ptr @_ZNSt8_Rb_treeINSt7__cxx1112basic_stringIcSt11char_traitsIcESaIcEEESt4pairIKS5_PN7Imf_3_216FlatImageChannelEESt10_Select1stISB_ESt4lessIS5_ESaISB_EE3endEv(ptr noundef nonnull align 8 dereferenceable(48) %this) #5 comdat align 2 {
entry:
  %retval = alloca %"struct.std::_Rb_tree_iterator", align 8
  %this.addr = alloca ptr, align 8
  store ptr %this, ptr %this.addr, align 8
  %this1 = load ptr, ptr %this.addr, align 8
  %_M_impl = getelementptr inbounds %"class.std::_Rb_tree", ptr %this1, i32 0, i32 0
  %add.ptr = getelementptr inbounds i8, ptr %_M_impl, i64 8
  %_M_header = getelementptr inbounds %"struct.std::_Rb_tree_header", ptr %add.ptr, i32 0, i32 0
  call void @_ZNSt17_Rb_tree_iteratorISt4pairIKNSt7__cxx1112basic_stringIcSt11char_traitsIcESaIcEEEPN7Imf_3_216FlatImageChannelEEEC2EPSt18_Rb_tree_node_base(ptr noundef nonnull align 8 dereferenceable(8) %retval, ptr noundef %_M_header) #3
  %coerce.dive = getelementptr inbounds %"struct.std::_Rb_tree_iterator", ptr %retval, i32 0, i32 0
  %0 = load ptr, ptr %coerce.dive, align 8
  ret ptr %0
}

; Function Attrs: mustprogress uwtable
define linkonce_odr ptr @_ZNSt8_Rb_treeINSt7__cxx1112basic_stringIcSt11char_traitsIcESaIcEEESt4pairIKS5_PN7Imf_3_216FlatImageChannelEESt10_Select1stISB_ESt4lessIS5_ESaISB_EE4findERS7_(ptr noundef nonnull align 8 dereferenceable(48) %this, ptr noundef nonnull align 8 dereferenceable(32) %__k) #4 comdat align 2 {
entry:
  %retval = alloca %"struct.std::_Rb_tree_iterator", align 8
  %this.addr = alloca ptr, align 8
  %__k.addr = alloca ptr, align 8
  %__j = alloca %"struct.std::_Rb_tree_iterator", align 8
  %ref.tmp = alloca %"struct.std::_Rb_tree_iterator", align 8
  store ptr %this, ptr %this.addr, align 8
  store ptr %__k, ptr %__k.addr, align 8
  %this1 = load ptr, ptr %this.addr, align 8
  %call = call noundef ptr @_ZNSt8_Rb_treeINSt7__cxx1112basic_stringIcSt11char_traitsIcESaIcEEESt4pairIKS5_PN7Imf_3_216FlatImageChannelEESt10_Select1stISB_ESt4lessIS5_ESaISB_EE8_M_beginEv(ptr noundef nonnull align 8 dereferenceable(48) %this1) #3
  %call2 = call noundef ptr @_ZNSt8_Rb_treeINSt7__cxx1112basic_stringIcSt11char_traitsIcESaIcEEESt4pairIKS5_PN7Imf_3_216FlatImageChannelEESt10_Select1stISB_ESt4lessIS5_ESaISB_EE6_M_endEv(ptr noundef nonnull align 8 dereferenceable(48) %this1) #3
  %0 = load ptr, ptr %__k.addr, align 8
  %call3 = call ptr @_ZNSt8_Rb_treeINSt7__cxx1112basic_stringIcSt11char_traitsIcESaIcEEESt4pairIKS5_PN7Imf_3_216FlatImageChannelEESt10_Select1stISB_ESt4lessIS5_ESaISB_EE14_M_lower_boundEPSt13_Rb_tree_nodeISB_EPSt18_Rb_tree_node_baseRS7_(ptr noundef nonnull align 8 dereferenceable(48) %this1, ptr noundef %call, ptr noundef %call2, ptr noundef nonnull align 8 dereferenceable(32) %0)
  %coerce.dive = getelementptr inbounds %"struct.std::_Rb_tree_iterator", ptr %__j, i32 0, i32 0
  store ptr %call3, ptr %coerce.dive, align 8
  %call4 = call ptr @_ZNSt8_Rb_treeINSt7__cxx1112basic_stringIcSt11char_traitsIcESaIcEEESt4pairIKS5_PN7Imf_3_216FlatImageChannelEESt10_Select1stISB_ESt4lessIS5_ESaISB_EE3endEv(ptr noundef nonnull align 8 dereferenceable(48) %this1) #3
  %coerce.dive5 = getelementptr inbounds %"struct.std::_Rb_tree_iterator", ptr %ref.tmp, i32 0, i32 0
  store ptr %call4, ptr %coerce.dive5, align 8
  %call6 = call noundef zeroext i1 @_ZSteqRKSt17_Rb_tree_iteratorISt4pairIKNSt7__cxx1112basic_stringIcSt11char_traitsIcESaIcEEEPN7Imf_3_216FlatImageChannelEEESE_(ptr noundef nonnull align 8 dereferenceable(8) %__j, ptr noundef nonnull align 8 dereferenceable(8) %ref.tmp) #3
  br i1 %call6, label %cond.true, label %lor.lhs.false

lor.lhs.false:                                    ; preds = %entry
  %_M_impl = getelementptr inbounds %"class.std::_Rb_tree", ptr %this1, i32 0, i32 0
  %_M_key_compare = getelementptr inbounds %"struct.std::_Rb_tree_key_compare", ptr %_M_impl, i32 0, i32 0
  %1 = load ptr, ptr %__k.addr, align 8
  %_M_node = getelementptr inbounds %"struct.std::_Rb_tree_iterator", ptr %__j, i32 0, i32 0
  %2 = load ptr, ptr %_M_node, align 8
  %call7 = call noundef nonnull align 8 dereferenceable(32) ptr @_ZNSt8_Rb_treeINSt7__cxx1112basic_stringIcSt11char_traitsIcESaIcEEESt4pairIKS5_PN7Imf_3_216FlatImageChannelEESt10_Select1stISB_ESt4lessIS5_ESaISB_EE6_S_keyEPKSt18_Rb_tree_node_base(ptr noundef %2)
  %call8 = call noundef zeroext i1 @_ZNKSt4lessINSt7__cxx1112basic_stringIcSt11char_traitsIcESaIcEEEEclERKS5_S8_(ptr noundef nonnull align 1 dereferenceable(1) %_M_key_compare, ptr noundef nonnull align 8 dereferenceable(32) %1, ptr noundef nonnull align 8 dereferenceable(32) %call7)
  br i1 %call8, label %cond.true, label %cond.false

cond.true:                                        ; preds = %lor.lhs.false, %entry
  %call9 = call ptr @_ZNSt8_Rb_treeINSt7__cxx1112basic_stringIcSt11char_traitsIcESaIcEEESt4pairIKS5_PN7Imf_3_216FlatImageChannelEESt10_Select1stISB_ESt4lessIS5_ESaISB_EE3endEv(ptr noundef nonnull align 8 dereferenceable(48) %this1) #3
  %coerce.dive10 = getelementptr inbounds %"struct.std::_Rb_tree_iterator", ptr %retval, i32 0, i32 0
  store ptr %call9, ptr %coerce.dive10, align 8
  br label %cond.end

cond.false:                                       ; preds = %lor.lhs.false
  call void @llvm.memcpy.p0.p0.i64(ptr align 8 %retval, ptr align 8 %__j, i64 8, i1 false)
  br label %cond.end

cond.end:                                         ; preds = %cond.false, %cond.true
  %coerce.dive11 = getelementptr inbounds %"struct.std::_Rb_tree_iterator", ptr %retval, i32 0, i32 0
  %3 = load ptr, ptr %coerce.dive11, align 8
  ret ptr %3
}

; Function Attrs: mustprogress uwtable
define linkonce_odr ptr @_ZNSt8_Rb_treeINSt7__cxx1112basic_stringIcSt11char_traitsIcESaIcEEESt4pairIKS5_PN7Imf_3_216FlatImageChannelEESt10_Select1stISB_ESt4lessIS5_ESaISB_EE14_M_lower_boundEPSt13_Rb_tree_nodeISB_EPSt18_Rb_tree_node_baseRS7_(ptr noundef nonnull align 8 dereferenceable(48) %this, ptr noundef %__x, ptr noundef %__y, ptr noundef nonnull align 8 dereferenceable(32) %__k) #4 comdat align 2 {
entry:
  %retval = alloca %"struct.std::_Rb_tree_iterator", align 8
  %this.addr = alloca ptr, align 8
  %__x.addr = alloca ptr, align 8
  %__y.addr = alloca ptr, align 8
  %__k.addr = alloca ptr, align 8
  store ptr %this, ptr %this.addr, align 8
  store ptr %__x, ptr %__x.addr, align 8
  store ptr %__y, ptr %__y.addr, align 8
  store ptr %__k, ptr %__k.addr, align 8
  %this1 = load ptr, ptr %this.addr, align 8
  br label %while.cond

while.cond:                                       ; preds = %if.end, %entry
  %0 = load ptr, ptr %__x.addr, align 8
  %cmp = icmp ne ptr %0, null
  br i1 %cmp, label %while.body, label %while.end

while.body:                                       ; preds = %while.cond
  %_M_impl = getelementptr inbounds %"class.std::_Rb_tree", ptr %this1, i32 0, i32 0
  %_M_key_compare = getelementptr inbounds %"struct.std::_Rb_tree_key_compare", ptr %_M_impl, i32 0, i32 0
  %1 = load ptr, ptr %__x.addr, align 8
  %call = call noundef nonnull align 8 dereferenceable(32) ptr @_ZNSt8_Rb_treeINSt7__cxx1112basic_stringIcSt11char_traitsIcESaIcEEESt4pairIKS5_PN7Imf_3_216FlatImageChannelEESt10_Select1stISB_ESt4lessIS5_ESaISB_EE6_S_keyEPKSt13_Rb_tree_nodeISB_E(ptr noundef %1)
  %2 = load ptr, ptr %__k.addr, align 8
  %call2 = call noundef zeroext i1 @_ZNKSt4lessINSt7__cxx1112basic_stringIcSt11char_traitsIcESaIcEEEEclERKS5_S8_(ptr noundef nonnull align 1 dereferenceable(1) %_M_key_compare, ptr noundef nonnull align 8 dereferenceable(32) %call, ptr noundef nonnull align 8 dereferenceable(32) %2)
  br i1 %call2, label %if.else, label %if.then

if.then:                                          ; preds = %while.body
  %3 = load ptr, ptr %__x.addr, align 8
  store ptr %3, ptr %__y.addr, align 8
  %4 = load ptr, ptr %__x.addr, align 8
  %call3 = call noundef ptr @_ZNSt8_Rb_treeINSt7__cxx1112basic_stringIcSt11char_traitsIcESaIcEEESt4pairIKS5_PN7Imf_3_216FlatImageChannelEESt10_Select1stISB_ESt4lessIS5_ESaISB_EE7_S_leftEPSt18_Rb_tree_node_base(ptr noundef %4) #3
  store ptr %call3, ptr %__x.addr, align 8
  br label %if.end

if.else:                                          ; preds = %while.body
  %5 = load ptr, ptr %__x.addr, align 8
  %call4 = call noundef ptr @_ZNSt8_Rb_treeINSt7__cxx1112basic_stringIcSt11char_traitsIcESaIcEEESt4pairIKS5_PN7Imf_3_216FlatImageChannelEESt10_Select1stISB_ESt4lessIS5_ESaISB_EE8_S_rightEPSt18_Rb_tree_node_base(ptr noundef %5) #3
  store ptr %call4, ptr %__x.addr, align 8
  br label %if.end

if.end:                                           ; preds = %if.else, %if.then
  br label %while.cond, !llvm.loop !10

while.end:                                        ; preds = %while.cond
  %6 = load ptr, ptr %__y.addr, align 8
  call void @_ZNSt17_Rb_tree_iteratorISt4pairIKNSt7__cxx1112basic_stringIcSt11char_traitsIcESaIcEEEPN7Imf_3_216FlatImageChannelEEEC2EPSt18_Rb_tree_node_base(ptr noundef nonnull align 8 dereferenceable(8) %retval, ptr noundef %6) #3
  %coerce.dive = getelementptr inbounds %"struct.std::_Rb_tree_iterator", ptr %retval, i32 0, i32 0
  %7 = load ptr, ptr %coerce.dive, align 8
  ret ptr %7
}

; Function Attrs: mustprogress nounwind uwtable
define linkonce_odr hidden noundef ptr @_ZNSt8_Rb_treeINSt7__cxx1112basic_stringIcSt11char_traitsIcESaIcEEESt4pairIKS5_PN7Imf_3_216FlatImageChannelEESt10_Select1stISB_ESt4lessIS5_ESaISB_EE6_M_endEv(ptr noundef nonnull align 8 dereferenceable(48) %this) #5 comdat align 2 {
entry:
  %this.addr = alloca ptr, align 8
  store ptr %this, ptr %this.addr, align 8
  %this1 = load ptr, ptr %this.addr, align 8
  %_M_impl = getelementptr inbounds %"class.std::_Rb_tree", ptr %this1, i32 0, i32 0
  %add.ptr = getelementptr inbounds i8, ptr %_M_impl, i64 8
  %_M_header = getelementptr inbounds %"struct.std::_Rb_tree_header", ptr %add.ptr, i32 0, i32 0
  ret ptr %_M_header
}

; Function Attrs: mustprogress nounwind uwtable
define linkonce_odr hidden noundef zeroext i1 @_ZNKSt4lessINSt7__cxx1112basic_stringIcSt11char_traitsIcESaIcEEEEclERKS5_S8_(ptr noundef nonnull align 1 dereferenceable(1) %this, ptr noundef nonnull align 8 dereferenceable(32) %__x, ptr noundef nonnull align 8 dereferenceable(32) %__y) #5 comdat align 2 {
entry:
  %this.addr = alloca ptr, align 8
  %__x.addr = alloca ptr, align 8
  %__y.addr = alloca ptr, align 8
  store ptr %this, ptr %this.addr, align 8
  store ptr %__x, ptr %__x.addr, align 8
  store ptr %__y, ptr %__y.addr, align 8
  %0 = load ptr, ptr %__x.addr, align 8
  %1 = load ptr, ptr %__y.addr, align 8
  %call = call noundef zeroext i1 @_ZStltIcSt11char_traitsIcESaIcEEbRKNSt7__cxx1112basic_stringIT_T0_T1_EESA_(ptr noundef nonnull align 8 dereferenceable(32) %0, ptr noundef nonnull align 8 dereferenceable(32) %1) #3
  ret i1 %call
}

; Function Attrs: mustprogress uwtable
define linkonce_odr hidden noundef nonnull align 8 dereferenceable(32) ptr @_ZNSt8_Rb_treeINSt7__cxx1112basic_stringIcSt11char_traitsIcESaIcEEESt4pairIKS5_PN7Imf_3_216FlatImageChannelEESt10_Select1stISB_ESt4lessIS5_ESaISB_EE6_S_keyEPKSt18_Rb_tree_node_base(ptr noundef %__x) #4 comdat align 2 {
entry:
  %__x.addr = alloca ptr, align 8
  store ptr %__x, ptr %__x.addr, align 8
  %0 = load ptr, ptr %__x.addr, align 8
  %call = call noundef nonnull align 8 dereferenceable(32) ptr @_ZNSt8_Rb_treeINSt7__cxx1112basic_stringIcSt11char_traitsIcESaIcEEESt4pairIKS5_PN7Imf_3_216FlatImageChannelEESt10_Select1stISB_ESt4lessIS5_ESaISB_EE6_S_keyEPKSt13_Rb_tree_nodeISB_E(ptr noundef %0)
  ret ptr %call
}

; Function Attrs: mustprogress uwtable
define linkonce_odr hidden noundef nonnull align 8 dereferenceable(32) ptr @_ZNSt8_Rb_treeINSt7__cxx1112basic_stringIcSt11char_traitsIcESaIcEEESt4pairIKS5_PN7Imf_3_216FlatImageChannelEESt10_Select1stISB_ESt4lessIS5_ESaISB_EE6_S_keyEPKSt13_Rb_tree_nodeISB_E(ptr noundef %__x) #4 comdat align 2 {
entry:
  %__x.addr = alloca ptr, align 8
  %ref.tmp = alloca %"struct.std::_Select1st", align 1
  store ptr %__x, ptr %__x.addr, align 8
  %0 = load ptr, ptr %__x.addr, align 8
  %call = call noundef ptr @_ZNKSt13_Rb_tree_nodeISt4pairIKNSt7__cxx1112basic_stringIcSt11char_traitsIcESaIcEEEPN7Imf_3_216FlatImageChannelEEE9_M_valptrEv(ptr noundef nonnull align 8 dereferenceable(72) %0)
  %call1 = call noundef nonnull align 8 dereferenceable(32) ptr @_ZNKSt10_Select1stISt4pairIKNSt7__cxx1112basic_stringIcSt11char_traitsIcESaIcEEEPN7Imf_3_216FlatImageChannelEEEclERKSB_(ptr noundef nonnull align 1 dereferenceable(1) %ref.tmp, ptr noundef nonnull align 8 dereferenceable(40) %call)
  ret ptr %call1
}

; Function Attrs: mustprogress nounwind uwtable
define linkonce_odr hidden noundef nonnull align 8 dereferenceable(32) ptr @_ZNKSt10_Select1stISt4pairIKNSt7__cxx1112basic_stringIcSt11char_traitsIcESaIcEEEPN7Imf_3_216FlatImageChannelEEEclERKSB_(ptr noundef nonnull align 1 dereferenceable(1) %this, ptr noundef nonnull align 8 dereferenceable(40) %__x) #5 comdat align 2 {
entry:
  %this.addr = alloca ptr, align 8
  %__x.addr = alloca ptr, align 8
  store ptr %this, ptr %this.addr, align 8
  store ptr %__x, ptr %__x.addr, align 8
  %0 = load ptr, ptr %__x.addr, align 8
  %first = getelementptr inbounds %"struct.std::pair", ptr %0, i32 0, i32 0
  ret ptr %first
}

; Function Attrs: mustprogress nounwind uwtable
define linkonce_odr noundef zeroext i1 @_ZStltIcSt11char_traitsIcESaIcEEbRKNSt7__cxx1112basic_stringIT_T0_T1_EESA_(ptr noundef nonnull align 8 dereferenceable(32) %__lhs, ptr noundef nonnull align 8 dereferenceable(32) %__rhs) #5 comdat personality ptr @__gxx_personality_v0 {
entry:
  %__lhs.addr = alloca ptr, align 8
  %__rhs.addr = alloca ptr, align 8
  store ptr %__lhs, ptr %__lhs.addr, align 8
  store ptr %__rhs, ptr %__rhs.addr, align 8
  %0 = load ptr, ptr %__lhs.addr, align 8
  %1 = load ptr, ptr %__rhs.addr, align 8
  %call = invoke noundef i32 @_ZNKSt7__cxx1112basic_stringIcSt11char_traitsIcESaIcEE7compareERKS4_(ptr noundef nonnull align 8 dereferenceable(32) %0, ptr noundef nonnull align 8 dereferenceable(32) %1)
          to label %invoke.cont unwind label %terminate.lpad

invoke.cont:                                      ; preds = %entry
  %cmp = icmp slt i32 %call, 0
  ret i1 %cmp

terminate.lpad:                                   ; preds = %entry
  %2 = landingpad { ptr, i32 }
          catch ptr null
  %3 = extractvalue { ptr, i32 } %2, 0
  call void @__clang_call_terminate(ptr %3) #12
  unreachable
}

declare noundef i32 @_ZNKSt7__cxx1112basic_stringIcSt11char_traitsIcESaIcEE7compareERKS4_(ptr noundef nonnull align 8 dereferenceable(32), ptr noundef nonnull align 8 dereferenceable(32)) #1

; Function Attrs: mustprogress uwtable
define linkonce_odr hidden ptr @_ZNSt3mapINSt7__cxx1112basic_stringIcSt11char_traitsIcESaIcEEEPN7Imf_3_216FlatImageChannelESt4lessIS5_ESaISt4pairIKS5_S8_EEE11lower_boundERSC_(ptr noundef nonnull align 8 dereferenceable(48) %this, ptr noundef nonnull align 8 dereferenceable(32) %__x) #4 comdat align 2 {
entry:
  %retval = alloca %"struct.std::_Rb_tree_iterator", align 8
  %this.addr = alloca ptr, align 8
  %__x.addr = alloca ptr, align 8
  store ptr %this, ptr %this.addr, align 8
  store ptr %__x, ptr %__x.addr, align 8
  %this1 = load ptr, ptr %this.addr, align 8
  %_M_t = getelementptr inbounds %"class.std::map", ptr %this1, i32 0, i32 0
  %0 = load ptr, ptr %__x.addr, align 8
  %call = call ptr @_ZNSt8_Rb_treeINSt7__cxx1112basic_stringIcSt11char_traitsIcESaIcEEESt4pairIKS5_PN7Imf_3_216FlatImageChannelEESt10_Select1stISB_ESt4lessIS5_ESaISB_EE11lower_boundERS7_(ptr noundef nonnull align 8 dereferenceable(48) %_M_t, ptr noundef nonnull align 8 dereferenceable(32) %0)
  %coerce.dive = getelementptr inbounds %"struct.std::_Rb_tree_iterator", ptr %retval, i32 0, i32 0
  store ptr %call, ptr %coerce.dive, align 8
  %coerce.dive2 = getelementptr inbounds %"struct.std::_Rb_tree_iterator", ptr %retval, i32 0, i32 0
  %1 = load ptr, ptr %coerce.dive2, align 8
  ret ptr %1
}

; Function Attrs: mustprogress uwtable
define linkonce_odr hidden void @_ZNKSt3mapINSt7__cxx1112basic_stringIcSt11char_traitsIcESaIcEEEPN7Imf_3_216FlatImageChannelESt4lessIS5_ESaISt4pairIKS5_S8_EEE8key_compEv(ptr noundef nonnull align 8 dereferenceable(48) %this) #4 comdat align 2 {
entry:
  %this.addr = alloca ptr, align 8
  store ptr %this, ptr %this.addr, align 8
  %this1 = load ptr, ptr %this.addr, align 8
  %_M_t = getelementptr inbounds %"class.std::map", ptr %this1, i32 0, i32 0
  call void @_ZNKSt8_Rb_treeINSt7__cxx1112basic_stringIcSt11char_traitsIcESaIcEEESt4pairIKS5_PN7Imf_3_216FlatImageChannelEESt10_Select1stISB_ESt4lessIS5_ESaISB_EE8key_compEv(ptr noundef nonnull align 8 dereferenceable(48) %_M_t)
  ret void
}

; Function Attrs: mustprogress nounwind uwtable
define linkonce_odr hidden noundef nonnull align 8 dereferenceable(40) ptr @_ZNKSt17_Rb_tree_iteratorISt4pairIKNSt7__cxx1112basic_stringIcSt11char_traitsIcESaIcEEEPN7Imf_3_216FlatImageChannelEEEdeEv(ptr noundef nonnull align 8 dereferenceable(8) %this) #5 comdat align 2 {
entry:
  %this.addr = alloca ptr, align 8
  store ptr %this, ptr %this.addr, align 8
  %this1 = load ptr, ptr %this.addr, align 8
  %_M_node = getelementptr inbounds %"struct.std::_Rb_tree_iterator", ptr %this1, i32 0, i32 0
  %0 = load ptr, ptr %_M_node, align 8
  %call = call noundef ptr @_ZNSt13_Rb_tree_nodeISt4pairIKNSt7__cxx1112basic_stringIcSt11char_traitsIcESaIcEEEPN7Imf_3_216FlatImageChannelEEE9_M_valptrEv(ptr noundef nonnull align 8 dereferenceable(72) %0)
  ret ptr %call
}

; Function Attrs: mustprogress uwtable
define linkonce_odr ptr @_ZNSt8_Rb_treeINSt7__cxx1112basic_stringIcSt11char_traitsIcESaIcEEESt4pairIKS5_PN7Imf_3_216FlatImageChannelEESt10_Select1stISB_ESt4lessIS5_ESaISB_EE22_M_emplace_hint_uniqueIJRKSt21piecewise_construct_tSt5tupleIJRS7_EESM_IJEEEEESt17_Rb_tree_iteratorISB_ESt23_Rb_tree_const_iteratorISB_EDpOT_(ptr noundef nonnull align 8 dereferenceable(48) %this, ptr %__pos.coerce, ptr noundef nonnull align 1 dereferenceable(1) %__args, ptr noundef nonnull align 8 dereferenceable(8) %__args1, ptr noundef nonnull align 1 dereferenceable(1) %__args3) #4 comdat align 2 personality ptr @__gxx_personality_v0 {
entry:
  %retval = alloca %"struct.std::_Rb_tree_iterator", align 8
  %__pos = alloca %"struct.std::_Rb_tree_const_iterator", align 8
  %this.addr = alloca ptr, align 8
  %__args.addr = alloca ptr, align 8
  %__args.addr2 = alloca ptr, align 8
  %__args.addr4 = alloca ptr, align 8
  %__z = alloca %"struct.std::_Rb_tree<std::__cxx11::basic_string<char>, std::pair<const std::__cxx11::basic_string<char>, Imf_3_2::FlatImageChannel *>, std::_Select1st<std::pair<const std::__cxx11::basic_string<char>, Imf_3_2::FlatImageChannel *>>, std::less<std::__cxx11::basic_string<char>>>::_Auto_node", align 8
  %__res = alloca %"struct.std::pair.16", align 8
  %agg.tmp = alloca %"struct.std::_Rb_tree_const_iterator", align 8
  %exn.slot = alloca ptr, align 8
  %ehselector.slot = alloca i32, align 4
  %agg.tmp9 = alloca %"struct.std::pair.16", align 8
  %cleanup.dest.slot = alloca i32, align 4
  %coerce.dive = getelementptr inbounds %"struct.std::_Rb_tree_const_iterator", ptr %__pos, i32 0, i32 0
  store ptr %__pos.coerce, ptr %coerce.dive, align 8
  store ptr %this, ptr %this.addr, align 8
  store ptr %__args, ptr %__args.addr, align 8
  store ptr %__args1, ptr %__args.addr2, align 8
  store ptr %__args3, ptr %__args.addr4, align 8
  %this5 = load ptr, ptr %this.addr, align 8
  %0 = load ptr, ptr %__args.addr, align 8
  %1 = load ptr, ptr %__args.addr2, align 8
  %2 = load ptr, ptr %__args.addr4, align 8
  call void @_ZNSt8_Rb_treeINSt7__cxx1112basic_stringIcSt11char_traitsIcESaIcEEESt4pairIKS5_PN7Imf_3_216FlatImageChannelEESt10_Select1stISB_ESt4lessIS5_ESaISB_EE10_Auto_nodeC2IJRKSt21piecewise_construct_tSt5tupleIJRS7_EESN_IJEEEEERSH_DpOT_(ptr noundef nonnull align 8 dereferenceable(16) %__z, ptr noundef nonnull align 8 dereferenceable(48) %this5, ptr noundef nonnull align 1 dereferenceable(1) %0, ptr noundef nonnull align 8 dereferenceable(8) %1, ptr noundef nonnull align 1 dereferenceable(1) %2)
  call void @llvm.memcpy.p0.p0.i64(ptr align 8 %agg.tmp, ptr align 8 %__pos, i64 8, i1 false)
  %call = invoke noundef nonnull align 8 dereferenceable(32) ptr @_ZNKSt8_Rb_treeINSt7__cxx1112basic_stringIcSt11char_traitsIcESaIcEEESt4pairIKS5_PN7Imf_3_216FlatImageChannelEESt10_Select1stISB_ESt4lessIS5_ESaISB_EE10_Auto_node6_M_keyEv(ptr noundef nonnull align 8 dereferenceable(16) %__z)
          to label %invoke.cont unwind label %lpad

invoke.cont:                                      ; preds = %entry
  %coerce.dive6 = getelementptr inbounds %"struct.std::_Rb_tree_const_iterator", ptr %agg.tmp, i32 0, i32 0
  %3 = load ptr, ptr %coerce.dive6, align 8
  %call8 = invoke { ptr, ptr } @_ZNSt8_Rb_treeINSt7__cxx1112basic_stringIcSt11char_traitsIcESaIcEEESt4pairIKS5_PN7Imf_3_216FlatImageChannelEESt10_Select1stISB_ESt4lessIS5_ESaISB_EE29_M_get_insert_hint_unique_posESt23_Rb_tree_const_iteratorISB_ERS7_(ptr noundef nonnull align 8 dereferenceable(48) %this5, ptr %3, ptr noundef nonnull align 8 dereferenceable(32) %call)
          to label %invoke.cont7 unwind label %lpad

invoke.cont7:                                     ; preds = %invoke.cont
  %4 = getelementptr inbounds { ptr, ptr }, ptr %__res, i32 0, i32 0
  %5 = extractvalue { ptr, ptr } %call8, 0
  store ptr %5, ptr %4, align 8
  %6 = getelementptr inbounds { ptr, ptr }, ptr %__res, i32 0, i32 1
  %7 = extractvalue { ptr, ptr } %call8, 1
  store ptr %7, ptr %6, align 8
  %second = getelementptr inbounds %"struct.std::pair.16", ptr %__res, i32 0, i32 1
  %8 = load ptr, ptr %second, align 8
  %tobool = icmp ne ptr %8, null
  br i1 %tobool, label %if.then, label %if.end

if.then:                                          ; preds = %invoke.cont7
  call void @llvm.memcpy.p0.p0.i64(ptr align 8 %agg.tmp9, ptr align 8 %__res, i64 16, i1 false)
  %9 = getelementptr inbounds { ptr, ptr }, ptr %agg.tmp9, i32 0, i32 0
  %10 = load ptr, ptr %9, align 8
  %11 = getelementptr inbounds { ptr, ptr }, ptr %agg.tmp9, i32 0, i32 1
  %12 = load ptr, ptr %11, align 8
  %call11 = invoke ptr @_ZNSt8_Rb_treeINSt7__cxx1112basic_stringIcSt11char_traitsIcESaIcEEESt4pairIKS5_PN7Imf_3_216FlatImageChannelEESt10_Select1stISB_ESt4lessIS5_ESaISB_EE10_Auto_node9_M_insertES6_IPSt18_Rb_tree_node_baseSK_E(ptr noundef nonnull align 8 dereferenceable(16) %__z, ptr %10, ptr %12)
          to label %invoke.cont10 unwind label %lpad

invoke.cont10:                                    ; preds = %if.then
  %coerce.dive12 = getelementptr inbounds %"struct.std::_Rb_tree_iterator", ptr %retval, i32 0, i32 0
  store ptr %call11, ptr %coerce.dive12, align 8
  store i32 1, ptr %cleanup.dest.slot, align 4
  br label %cleanup

lpad:                                             ; preds = %if.then, %invoke.cont, %entry
  %13 = landingpad { ptr, i32 }
          cleanup
  %14 = extractvalue { ptr, i32 } %13, 0
  store ptr %14, ptr %exn.slot, align 8
  %15 = extractvalue { ptr, i32 } %13, 1
  store i32 %15, ptr %ehselector.slot, align 4
  call void @_ZNSt8_Rb_treeINSt7__cxx1112basic_stringIcSt11char_traitsIcESaIcEEESt4pairIKS5_PN7Imf_3_216FlatImageChannelEESt10_Select1stISB_ESt4lessIS5_ESaISB_EE10_Auto_nodeD2Ev(ptr noundef nonnull align 8 dereferenceable(16) %__z) #3
  br label %eh.resume

if.end:                                           ; preds = %invoke.cont7
  %first = getelementptr inbounds %"struct.std::pair.16", ptr %__res, i32 0, i32 0
  %16 = load ptr, ptr %first, align 8
  call void @_ZNSt17_Rb_tree_iteratorISt4pairIKNSt7__cxx1112basic_stringIcSt11char_traitsIcESaIcEEEPN7Imf_3_216FlatImageChannelEEEC2EPSt18_Rb_tree_node_base(ptr noundef nonnull align 8 dereferenceable(8) %retval, ptr noundef %16) #3
  store i32 1, ptr %cleanup.dest.slot, align 4
  br label %cleanup

cleanup:                                          ; preds = %if.end, %invoke.cont10
  call void @_ZNSt8_Rb_treeINSt7__cxx1112basic_stringIcSt11char_traitsIcESaIcEEESt4pairIKS5_PN7Imf_3_216FlatImageChannelEESt10_Select1stISB_ESt4lessIS5_ESaISB_EE10_Auto_nodeD2Ev(ptr noundef nonnull align 8 dereferenceable(16) %__z) #3
  %coerce.dive13 = getelementptr inbounds %"struct.std::_Rb_tree_iterator", ptr %retval, i32 0, i32 0
  %17 = load ptr, ptr %coerce.dive13, align 8
  ret ptr %17

eh.resume:                                        ; preds = %lpad
  %exn = load ptr, ptr %exn.slot, align 8
  %sel = load i32, ptr %ehselector.slot, align 4
  %lpad.val = insertvalue { ptr, i32 } poison, ptr %exn, 0
  %lpad.val14 = insertvalue { ptr, i32 } %lpad.val, i32 %sel, 1
  resume { ptr, i32 } %lpad.val14
}

; Function Attrs: mustprogress nounwind uwtable
define linkonce_odr hidden void @_ZNSt23_Rb_tree_const_iteratorISt4pairIKNSt7__cxx1112basic_stringIcSt11char_traitsIcESaIcEEEPN7Imf_3_216FlatImageChannelEEEC2ERKSt17_Rb_tree_iteratorISB_E(ptr noundef nonnull align 8 dereferenceable(8) %this, ptr noundef nonnull align 8 dereferenceable(8) %__it) unnamed_addr #5 comdat align 2 {
entry:
  %this.addr = alloca ptr, align 8
  %__it.addr = alloca ptr, align 8
  store ptr %this, ptr %this.addr, align 8
  store ptr %__it, ptr %__it.addr, align 8
  %this1 = load ptr, ptr %this.addr, align 8
  %_M_node = getelementptr inbounds %"struct.std::_Rb_tree_const_iterator", ptr %this1, i32 0, i32 0
  %0 = load ptr, ptr %__it.addr, align 8
  %_M_node2 = getelementptr inbounds %"struct.std::_Rb_tree_iterator", ptr %0, i32 0, i32 0
  %1 = load ptr, ptr %_M_node2, align 8
  store ptr %1, ptr %_M_node, align 8
  ret void
}

; Function Attrs: mustprogress nounwind uwtable
define linkonce_odr hidden void @_ZNSt5tupleIJRKNSt7__cxx1112basic_stringIcSt11char_traitsIcESaIcEEEEEC2ILb1ETnNSt9enable_ifIXclsr4_TCCIXT_EEE29__is_implicitly_constructibleIS7_EEEbE4typeELb1EEES7_(ptr noundef nonnull align 8 dereferenceable(8) %this, ptr noundef nonnull align 8 dereferenceable(32) %__elements) unnamed_addr #5 comdat align 2 personality ptr @__gxx_personality_v0 {
entry:
  %this.addr = alloca ptr, align 8
  %__elements.addr = alloca ptr, align 8
  store ptr %this, ptr %this.addr, align 8
  store ptr %__elements, ptr %__elements.addr, align 8
  %this1 = load ptr, ptr %this.addr, align 8
  %0 = load ptr, ptr %__elements.addr, align 8
  invoke void @_ZNSt11_Tuple_implILm0EJRKNSt7__cxx1112basic_stringIcSt11char_traitsIcESaIcEEEEEC2ES7_(ptr noundef nonnull align 8 dereferenceable(8) %this1, ptr noundef nonnull align 8 dereferenceable(32) %0)
          to label %invoke.cont unwind label %terminate.lpad

invoke.cont:                                      ; preds = %entry
  ret void

terminate.lpad:                                   ; preds = %entry
  %1 = landingpad { ptr, i32 }
          catch ptr null
  %2 = extractvalue { ptr, i32 } %1, 0
  call void @__clang_call_terminate(ptr %2) #12
  unreachable
}

; Function Attrs: mustprogress uwtable
define linkonce_odr hidden ptr @_ZNSt8_Rb_treeINSt7__cxx1112basic_stringIcSt11char_traitsIcESaIcEEESt4pairIKS5_PN7Imf_3_216FlatImageChannelEESt10_Select1stISB_ESt4lessIS5_ESaISB_EE11lower_boundERS7_(ptr noundef nonnull align 8 dereferenceable(48) %this, ptr noundef nonnull align 8 dereferenceable(32) %__k) #4 comdat align 2 {
entry:
  %retval = alloca %"struct.std::_Rb_tree_iterator", align 8
  %this.addr = alloca ptr, align 8
  %__k.addr = alloca ptr, align 8
  store ptr %this, ptr %this.addr, align 8
  store ptr %__k, ptr %__k.addr, align 8
  %this1 = load ptr, ptr %this.addr, align 8
  %call = call noundef ptr @_ZNSt8_Rb_treeINSt7__cxx1112basic_stringIcSt11char_traitsIcESaIcEEESt4pairIKS5_PN7Imf_3_216FlatImageChannelEESt10_Select1stISB_ESt4lessIS5_ESaISB_EE8_M_beginEv(ptr noundef nonnull align 8 dereferenceable(48) %this1) #3
  %call2 = call noundef ptr @_ZNSt8_Rb_treeINSt7__cxx1112basic_stringIcSt11char_traitsIcESaIcEEESt4pairIKS5_PN7Imf_3_216FlatImageChannelEESt10_Select1stISB_ESt4lessIS5_ESaISB_EE6_M_endEv(ptr noundef nonnull align 8 dereferenceable(48) %this1) #3
  %0 = load ptr, ptr %__k.addr, align 8
  %call3 = call ptr @_ZNSt8_Rb_treeINSt7__cxx1112basic_stringIcSt11char_traitsIcESaIcEEESt4pairIKS5_PN7Imf_3_216FlatImageChannelEESt10_Select1stISB_ESt4lessIS5_ESaISB_EE14_M_lower_boundEPSt13_Rb_tree_nodeISB_EPSt18_Rb_tree_node_baseRS7_(ptr noundef nonnull align 8 dereferenceable(48) %this1, ptr noundef %call, ptr noundef %call2, ptr noundef nonnull align 8 dereferenceable(32) %0)
  %coerce.dive = getelementptr inbounds %"struct.std::_Rb_tree_iterator", ptr %retval, i32 0, i32 0
  store ptr %call3, ptr %coerce.dive, align 8
  %coerce.dive4 = getelementptr inbounds %"struct.std::_Rb_tree_iterator", ptr %retval, i32 0, i32 0
  %1 = load ptr, ptr %coerce.dive4, align 8
  ret ptr %1
}

; Function Attrs: mustprogress nounwind uwtable
define linkonce_odr hidden void @_ZNKSt8_Rb_treeINSt7__cxx1112basic_stringIcSt11char_traitsIcESaIcEEESt4pairIKS5_PN7Imf_3_216FlatImageChannelEESt10_Select1stISB_ESt4lessIS5_ESaISB_EE8key_compEv(ptr noundef nonnull align 8 dereferenceable(48) %this) #5 comdat align 2 {
entry:
  %this.addr = alloca ptr, align 8
  store ptr %this, ptr %this.addr, align 8
  ret void
}

; Function Attrs: mustprogress uwtable
define linkonce_odr hidden void @_ZNSt8_Rb_treeINSt7__cxx1112basic_stringIcSt11char_traitsIcESaIcEEESt4pairIKS5_PN7Imf_3_216FlatImageChannelEESt10_Select1stISB_ESt4lessIS5_ESaISB_EE10_Auto_nodeC2IJRKSt21piecewise_construct_tSt5tupleIJRS7_EESN_IJEEEEERSH_DpOT_(ptr noundef nonnull align 8 dereferenceable(16) %this, ptr noundef nonnull align 8 dereferenceable(48) %__t, ptr noundef nonnull align 1 dereferenceable(1) %__args, ptr noundef nonnull align 8 dereferenceable(8) %__args1, ptr noundef nonnull align 1 dereferenceable(1) %__args3) unnamed_addr #4 comdat align 2 {
entry:
  %this.addr = alloca ptr, align 8
  %__t.addr = alloca ptr, align 8
  %__args.addr = alloca ptr, align 8
  %__args.addr2 = alloca ptr, align 8
  %__args.addr4 = alloca ptr, align 8
  store ptr %this, ptr %this.addr, align 8
  store ptr %__t, ptr %__t.addr, align 8
  store ptr %__args, ptr %__args.addr, align 8
  store ptr %__args1, ptr %__args.addr2, align 8
  store ptr %__args3, ptr %__args.addr4, align 8
  %this5 = load ptr, ptr %this.addr, align 8
  %_M_t = getelementptr inbounds %"struct.std::_Rb_tree<std::__cxx11::basic_string<char>, std::pair<const std::__cxx11::basic_string<char>, Imf_3_2::FlatImageChannel *>, std::_Select1st<std::pair<const std::__cxx11::basic_string<char>, Imf_3_2::FlatImageChannel *>>, std::less<std::__cxx11::basic_string<char>>>::_Auto_node", ptr %this5, i32 0, i32 0
  %0 = load ptr, ptr %__t.addr, align 8
  store ptr %0, ptr %_M_t, align 8
  %_M_node = getelementptr inbounds %"struct.std::_Rb_tree<std::__cxx11::basic_string<char>, std::pair<const std::__cxx11::basic_string<char>, Imf_3_2::FlatImageChannel *>, std::_Select1st<std::pair<const std::__cxx11::basic_string<char>, Imf_3_2::FlatImageChannel *>>, std::less<std::__cxx11::basic_string<char>>>::_Auto_node", ptr %this5, i32 0, i32 1
  %1 = load ptr, ptr %__t.addr, align 8
  %2 = load ptr, ptr %__args.addr, align 8
  %3 = load ptr, ptr %__args.addr2, align 8
  %4 = load ptr, ptr %__args.addr4, align 8
  %call = call noundef ptr @_ZNSt8_Rb_treeINSt7__cxx1112basic_stringIcSt11char_traitsIcESaIcEEESt4pairIKS5_PN7Imf_3_216FlatImageChannelEESt10_Select1stISB_ESt4lessIS5_ESaISB_EE14_M_create_nodeIJRKSt21piecewise_construct_tSt5tupleIJRS7_EESM_IJEEEEEPSt13_Rb_tree_nodeISB_EDpOT_(ptr noundef nonnull align 8 dereferenceable(48) %1, ptr noundef nonnull align 1 dereferenceable(1) %2, ptr noundef nonnull align 8 dereferenceable(8) %3, ptr noundef nonnull align 1 dereferenceable(1) %4)
  store ptr %call, ptr %_M_node, align 8
  ret void
}

; Function Attrs: mustprogress uwtable
define linkonce_odr { ptr, ptr } @_ZNSt8_Rb_treeINSt7__cxx1112basic_stringIcSt11char_traitsIcESaIcEEESt4pairIKS5_PN7Imf_3_216FlatImageChannelEESt10_Select1stISB_ESt4lessIS5_ESaISB_EE29_M_get_insert_hint_unique_posESt23_Rb_tree_const_iteratorISB_ERS7_(ptr noundef nonnull align 8 dereferenceable(48) %this, ptr %__position.coerce, ptr noundef nonnull align 8 dereferenceable(32) %__k) #4 comdat align 2 {
entry:
  %retval = alloca %"struct.std::pair.16", align 8
  %__position = alloca %"struct.std::_Rb_tree_const_iterator", align 8
  %this.addr = alloca ptr, align 8
  %__k.addr = alloca ptr, align 8
  %__pos = alloca %"struct.std::_Rb_tree_iterator", align 8
  %ref.tmp = alloca ptr, align 8
  %__before = alloca %"struct.std::_Rb_tree_iterator", align 8
  %ref.tmp37 = alloca ptr, align 8
  %__after = alloca %"struct.std::_Rb_tree_iterator", align 8
  %ref.tmp55 = alloca ptr, align 8
  %ref.tmp69 = alloca ptr, align 8
  %ref.tmp78 = alloca ptr, align 8
  %coerce.dive = getelementptr inbounds %"struct.std::_Rb_tree_const_iterator", ptr %__position, i32 0, i32 0
  store ptr %__position.coerce, ptr %coerce.dive, align 8
  store ptr %this, ptr %this.addr, align 8
  store ptr %__k, ptr %__k.addr, align 8
  %this1 = load ptr, ptr %this.addr, align 8
  %call = call ptr @_ZNKSt23_Rb_tree_const_iteratorISt4pairIKNSt7__cxx1112basic_stringIcSt11char_traitsIcESaIcEEEPN7Imf_3_216FlatImageChannelEEE13_M_const_castEv(ptr noundef nonnull align 8 dereferenceable(8) %__position) #3
  %coerce.dive2 = getelementptr inbounds %"struct.std::_Rb_tree_iterator", ptr %__pos, i32 0, i32 0
  store ptr %call, ptr %coerce.dive2, align 8
  %_M_node = getelementptr inbounds %"struct.std::_Rb_tree_iterator", ptr %__pos, i32 0, i32 0
  %0 = load ptr, ptr %_M_node, align 8
  %call3 = call noundef ptr @_ZNSt8_Rb_treeINSt7__cxx1112basic_stringIcSt11char_traitsIcESaIcEEESt4pairIKS5_PN7Imf_3_216FlatImageChannelEESt10_Select1stISB_ESt4lessIS5_ESaISB_EE6_M_endEv(ptr noundef nonnull align 8 dereferenceable(48) %this1) #3
  %cmp = icmp eq ptr %0, %call3
  br i1 %cmp, label %if.then, label %if.else12

if.then:                                          ; preds = %entry
  %call4 = call noundef i64 @_ZNKSt8_Rb_treeINSt7__cxx1112basic_stringIcSt11char_traitsIcESaIcEEESt4pairIKS5_PN7Imf_3_216FlatImageChannelEESt10_Select1stISB_ESt4lessIS5_ESaISB_EE4sizeEv(ptr noundef nonnull align 8 dereferenceable(48) %this1) #3
  %cmp5 = icmp ugt i64 %call4, 0
  br i1 %cmp5, label %land.lhs.true, label %if.else

land.lhs.true:                                    ; preds = %if.then
  %_M_impl = getelementptr inbounds %"class.std::_Rb_tree", ptr %this1, i32 0, i32 0
  %_M_key_compare = getelementptr inbounds %"struct.std::_Rb_tree_key_compare", ptr %_M_impl, i32 0, i32 0
  %call6 = call noundef nonnull align 8 dereferenceable(8) ptr @_ZNSt8_Rb_treeINSt7__cxx1112basic_stringIcSt11char_traitsIcESaIcEEESt4pairIKS5_PN7Imf_3_216FlatImageChannelEESt10_Select1stISB_ESt4lessIS5_ESaISB_EE12_M_rightmostEv(ptr noundef nonnull align 8 dereferenceable(48) %this1) #3
  %1 = load ptr, ptr %call6, align 8
  %call7 = call noundef nonnull align 8 dereferenceable(32) ptr @_ZNSt8_Rb_treeINSt7__cxx1112basic_stringIcSt11char_traitsIcESaIcEEESt4pairIKS5_PN7Imf_3_216FlatImageChannelEESt10_Select1stISB_ESt4lessIS5_ESaISB_EE6_S_keyEPKSt18_Rb_tree_node_base(ptr noundef %1)
  %2 = load ptr, ptr %__k.addr, align 8
  %call8 = call noundef zeroext i1 @_ZNKSt4lessINSt7__cxx1112basic_stringIcSt11char_traitsIcESaIcEEEEclERKS5_S8_(ptr noundef nonnull align 1 dereferenceable(1) %_M_key_compare, ptr noundef nonnull align 8 dereferenceable(32) %call7, ptr noundef nonnull align 8 dereferenceable(32) %2)
  br i1 %call8, label %if.then9, label %if.else

if.then9:                                         ; preds = %land.lhs.true
  store ptr null, ptr %ref.tmp, align 8
  %call10 = call noundef nonnull align 8 dereferenceable(8) ptr @_ZNSt8_Rb_treeINSt7__cxx1112basic_stringIcSt11char_traitsIcESaIcEEESt4pairIKS5_PN7Imf_3_216FlatImageChannelEESt10_Select1stISB_ESt4lessIS5_ESaISB_EE12_M_rightmostEv(ptr noundef nonnull align 8 dereferenceable(48) %this1) #3
  call void @_ZNSt4pairIPSt18_Rb_tree_node_baseS1_EC2IS1_S1_TnNSt9enable_ifIXaaclsr5_PCCPE18_ConstructiblePairIT_T0_EEclsr5_PCCPE26_ImplicitlyConvertiblePairIS5_S6_EEEbE4typeELb1EEERKS1_SA_(ptr noundef nonnull align 8 dereferenceable(16) %retval, ptr noundef nonnull align 8 dereferenceable(8) %ref.tmp, ptr noundef nonnull align 8 dereferenceable(8) %call10)
  br label %return

if.else:                                          ; preds = %land.lhs.true, %if.then
  %3 = load ptr, ptr %__k.addr, align 8
  %call11 = call { ptr, ptr } @_ZNSt8_Rb_treeINSt7__cxx1112basic_stringIcSt11char_traitsIcESaIcEEESt4pairIKS5_PN7Imf_3_216FlatImageChannelEESt10_Select1stISB_ESt4lessIS5_ESaISB_EE24_M_get_insert_unique_posERS7_(ptr noundef nonnull align 8 dereferenceable(48) %this1, ptr noundef nonnull align 8 dereferenceable(32) %3)
  %4 = getelementptr inbounds { ptr, ptr }, ptr %retval, i32 0, i32 0
  %5 = extractvalue { ptr, ptr } %call11, 0
  store ptr %5, ptr %4, align 8
  %6 = getelementptr inbounds { ptr, ptr }, ptr %retval, i32 0, i32 1
  %7 = extractvalue { ptr, ptr } %call11, 1
  store ptr %7, ptr %6, align 8
  br label %return

if.else12:                                        ; preds = %entry
  %_M_impl13 = getelementptr inbounds %"class.std::_Rb_tree", ptr %this1, i32 0, i32 0
  %_M_key_compare14 = getelementptr inbounds %"struct.std::_Rb_tree_key_compare", ptr %_M_impl13, i32 0, i32 0
  %8 = load ptr, ptr %__k.addr, align 8
  %_M_node15 = getelementptr inbounds %"struct.std::_Rb_tree_iterator", ptr %__pos, i32 0, i32 0
  %9 = load ptr, ptr %_M_node15, align 8
  %call16 = call noundef nonnull align 8 dereferenceable(32) ptr @_ZNSt8_Rb_treeINSt7__cxx1112basic_stringIcSt11char_traitsIcESaIcEEESt4pairIKS5_PN7Imf_3_216FlatImageChannelEESt10_Select1stISB_ESt4lessIS5_ESaISB_EE6_S_keyEPKSt18_Rb_tree_node_base(ptr noundef %9)
  %call17 = call noundef zeroext i1 @_ZNKSt4lessINSt7__cxx1112basic_stringIcSt11char_traitsIcESaIcEEEEclERKS5_S8_(ptr noundef nonnull align 1 dereferenceable(1) %_M_key_compare14, ptr noundef nonnull align 8 dereferenceable(32) %8, ptr noundef nonnull align 8 dereferenceable(32) %call16)
  br i1 %call17, label %if.then18, label %if.else44

if.then18:                                        ; preds = %if.else12
  call void @llvm.memcpy.p0.p0.i64(ptr align 8 %__before, ptr align 8 %__pos, i64 8, i1 false)
  %_M_node19 = getelementptr inbounds %"struct.std::_Rb_tree_iterator", ptr %__pos, i32 0, i32 0
  %10 = load ptr, ptr %_M_node19, align 8
  %call20 = call noundef nonnull align 8 dereferenceable(8) ptr @_ZNSt8_Rb_treeINSt7__cxx1112basic_stringIcSt11char_traitsIcESaIcEEESt4pairIKS5_PN7Imf_3_216FlatImageChannelEESt10_Select1stISB_ESt4lessIS5_ESaISB_EE11_M_leftmostEv(ptr noundef nonnull align 8 dereferenceable(48) %this1) #3
  %11 = load ptr, ptr %call20, align 8
  %cmp21 = icmp eq ptr %10, %11
  br i1 %cmp21, label %if.then22, label %if.else25

if.then22:                                        ; preds = %if.then18
  %call23 = call noundef nonnull align 8 dereferenceable(8) ptr @_ZNSt8_Rb_treeINSt7__cxx1112basic_stringIcSt11char_traitsIcESaIcEEESt4pairIKS5_PN7Imf_3_216FlatImageChannelEESt10_Select1stISB_ESt4lessIS5_ESaISB_EE11_M_leftmostEv(ptr noundef nonnull align 8 dereferenceable(48) %this1) #3
  %call24 = call noundef nonnull align 8 dereferenceable(8) ptr @_ZNSt8_Rb_treeINSt7__cxx1112basic_stringIcSt11char_traitsIcESaIcEEESt4pairIKS5_PN7Imf_3_216FlatImageChannelEESt10_Select1stISB_ESt4lessIS5_ESaISB_EE11_M_leftmostEv(ptr noundef nonnull align 8 dereferenceable(48) %this1) #3
  call void @_ZNSt4pairIPSt18_Rb_tree_node_baseS1_EC2IRS1_S4_TnNSt9enable_ifIXaaclsr5_PCCPE22_MoveConstructiblePairIT_T0_EEclsr5_PCCPE30_ImplicitlyMoveConvertiblePairIS6_S7_EEEbE4typeELb1EEEOS6_OS7_(ptr noundef nonnull align 8 dereferenceable(16) %retval, ptr noundef nonnull align 8 dereferenceable(8) %call23, ptr noundef nonnull align 8 dereferenceable(8) %call24)
  br label %return

if.else25:                                        ; preds = %if.then18
  %_M_impl26 = getelementptr inbounds %"class.std::_Rb_tree", ptr %this1, i32 0, i32 0
  %_M_key_compare27 = getelementptr inbounds %"struct.std::_Rb_tree_key_compare", ptr %_M_impl26, i32 0, i32 0
  %call28 = call noundef nonnull align 8 dereferenceable(8) ptr @_ZNSt17_Rb_tree_iteratorISt4pairIKNSt7__cxx1112basic_stringIcSt11char_traitsIcESaIcEEEPN7Imf_3_216FlatImageChannelEEEmmEv(ptr noundef nonnull align 8 dereferenceable(8) %__before) #3
  %_M_node29 = getelementptr inbounds %"struct.std::_Rb_tree_iterator", ptr %call28, i32 0, i32 0
  %12 = load ptr, ptr %_M_node29, align 8
  %call30 = call noundef nonnull align 8 dereferenceable(32) ptr @_ZNSt8_Rb_treeINSt7__cxx1112basic_stringIcSt11char_traitsIcESaIcEEESt4pairIKS5_PN7Imf_3_216FlatImageChannelEESt10_Select1stISB_ESt4lessIS5_ESaISB_EE6_S_keyEPKSt18_Rb_tree_node_base(ptr noundef %12)
  %13 = load ptr, ptr %__k.addr, align 8
  %call31 = call noundef zeroext i1 @_ZNKSt4lessINSt7__cxx1112basic_stringIcSt11char_traitsIcESaIcEEEEclERKS5_S8_(ptr noundef nonnull align 1 dereferenceable(1) %_M_key_compare27, ptr noundef nonnull align 8 dereferenceable(32) %call30, ptr noundef nonnull align 8 dereferenceable(32) %13)
  br i1 %call31, label %if.then32, label %if.else42

if.then32:                                        ; preds = %if.else25
  %_M_node33 = getelementptr inbounds %"struct.std::_Rb_tree_iterator", ptr %__before, i32 0, i32 0
  %14 = load ptr, ptr %_M_node33, align 8
  %call34 = call noundef ptr @_ZNSt8_Rb_treeINSt7__cxx1112basic_stringIcSt11char_traitsIcESaIcEEESt4pairIKS5_PN7Imf_3_216FlatImageChannelEESt10_Select1stISB_ESt4lessIS5_ESaISB_EE8_S_rightEPSt18_Rb_tree_node_base(ptr noundef %14) #3
  %cmp35 = icmp eq ptr %call34, null
  br i1 %cmp35, label %if.then36, label %if.else39

if.then36:                                        ; preds = %if.then32
  store ptr null, ptr %ref.tmp37, align 8
  %_M_node38 = getelementptr inbounds %"struct.std::_Rb_tree_iterator", ptr %__before, i32 0, i32 0
  call void @_ZNSt4pairIPSt18_Rb_tree_node_baseS1_EC2IS1_S1_TnNSt9enable_ifIXaaclsr5_PCCPE18_ConstructiblePairIT_T0_EEclsr5_PCCPE26_ImplicitlyConvertiblePairIS5_S6_EEEbE4typeELb1EEERKS1_SA_(ptr noundef nonnull align 8 dereferenceable(16) %retval, ptr noundef nonnull align 8 dereferenceable(8) %ref.tmp37, ptr noundef nonnull align 8 dereferenceable(8) %_M_node38)
  br label %return

if.else39:                                        ; preds = %if.then32
  %_M_node40 = getelementptr inbounds %"struct.std::_Rb_tree_iterator", ptr %__pos, i32 0, i32 0
  %_M_node41 = getelementptr inbounds %"struct.std::_Rb_tree_iterator", ptr %__pos, i32 0, i32 0
  call void @_ZNSt4pairIPSt18_Rb_tree_node_baseS1_EC2IRS1_S4_TnNSt9enable_ifIXaaclsr5_PCCPE22_MoveConstructiblePairIT_T0_EEclsr5_PCCPE30_ImplicitlyMoveConvertiblePairIS6_S7_EEEbE4typeELb1EEEOS6_OS7_(ptr noundef nonnull align 8 dereferenceable(16) %retval, ptr noundef nonnull align 8 dereferenceable(8) %_M_node40, ptr noundef nonnull align 8 dereferenceable(8) %_M_node41)
  br label %return

if.else42:                                        ; preds = %if.else25
  %15 = load ptr, ptr %__k.addr, align 8
  %call43 = call { ptr, ptr } @_ZNSt8_Rb_treeINSt7__cxx1112basic_stringIcSt11char_traitsIcESaIcEEESt4pairIKS5_PN7Imf_3_216FlatImageChannelEESt10_Select1stISB_ESt4lessIS5_ESaISB_EE24_M_get_insert_unique_posERS7_(ptr noundef nonnull align 8 dereferenceable(48) %this1, ptr noundef nonnull align 8 dereferenceable(32) %15)
  %16 = getelementptr inbounds { ptr, ptr }, ptr %retval, i32 0, i32 0
  %17 = extractvalue { ptr, ptr } %call43, 0
  store ptr %17, ptr %16, align 8
  %18 = getelementptr inbounds { ptr, ptr }, ptr %retval, i32 0, i32 1
  %19 = extractvalue { ptr, ptr } %call43, 1
  store ptr %19, ptr %18, align 8
  br label %return

if.else44:                                        ; preds = %if.else12
  %_M_impl45 = getelementptr inbounds %"class.std::_Rb_tree", ptr %this1, i32 0, i32 0
  %_M_key_compare46 = getelementptr inbounds %"struct.std::_Rb_tree_key_compare", ptr %_M_impl45, i32 0, i32 0
  %_M_node47 = getelementptr inbounds %"struct.std::_Rb_tree_iterator", ptr %__pos, i32 0, i32 0
  %20 = load ptr, ptr %_M_node47, align 8
  %call48 = call noundef nonnull align 8 dereferenceable(32) ptr @_ZNSt8_Rb_treeINSt7__cxx1112basic_stringIcSt11char_traitsIcESaIcEEESt4pairIKS5_PN7Imf_3_216FlatImageChannelEESt10_Select1stISB_ESt4lessIS5_ESaISB_EE6_S_keyEPKSt18_Rb_tree_node_base(ptr noundef %20)
  %21 = load ptr, ptr %__k.addr, align 8
  %call49 = call noundef zeroext i1 @_ZNKSt4lessINSt7__cxx1112basic_stringIcSt11char_traitsIcESaIcEEEEclERKS5_S8_(ptr noundef nonnull align 1 dereferenceable(1) %_M_key_compare46, ptr noundef nonnull align 8 dereferenceable(32) %call48, ptr noundef nonnull align 8 dereferenceable(32) %21)
  br i1 %call49, label %if.then50, label %if.else76

if.then50:                                        ; preds = %if.else44
  call void @llvm.memcpy.p0.p0.i64(ptr align 8 %__after, ptr align 8 %__pos, i64 8, i1 false)
  %_M_node51 = getelementptr inbounds %"struct.std::_Rb_tree_iterator", ptr %__pos, i32 0, i32 0
  %22 = load ptr, ptr %_M_node51, align 8
  %call52 = call noundef nonnull align 8 dereferenceable(8) ptr @_ZNSt8_Rb_treeINSt7__cxx1112basic_stringIcSt11char_traitsIcESaIcEEESt4pairIKS5_PN7Imf_3_216FlatImageChannelEESt10_Select1stISB_ESt4lessIS5_ESaISB_EE12_M_rightmostEv(ptr noundef nonnull align 8 dereferenceable(48) %this1) #3
  %23 = load ptr, ptr %call52, align 8
  %cmp53 = icmp eq ptr %22, %23
  br i1 %cmp53, label %if.then54, label %if.else57

if.then54:                                        ; preds = %if.then50
  store ptr null, ptr %ref.tmp55, align 8
  %call56 = call noundef nonnull align 8 dereferenceable(8) ptr @_ZNSt8_Rb_treeINSt7__cxx1112basic_stringIcSt11char_traitsIcESaIcEEESt4pairIKS5_PN7Imf_3_216FlatImageChannelEESt10_Select1stISB_ESt4lessIS5_ESaISB_EE12_M_rightmostEv(ptr noundef nonnull align 8 dereferenceable(48) %this1) #3
  call void @_ZNSt4pairIPSt18_Rb_tree_node_baseS1_EC2IS1_S1_TnNSt9enable_ifIXaaclsr5_PCCPE18_ConstructiblePairIT_T0_EEclsr5_PCCPE26_ImplicitlyConvertiblePairIS5_S6_EEEbE4typeELb1EEERKS1_SA_(ptr noundef nonnull align 8 dereferenceable(16) %retval, ptr noundef nonnull align 8 dereferenceable(8) %ref.tmp55, ptr noundef nonnull align 8 dereferenceable(8) %call56)
  br label %return

if.else57:                                        ; preds = %if.then50
  %_M_impl58 = getelementptr inbounds %"class.std::_Rb_tree", ptr %this1, i32 0, i32 0
  %_M_key_compare59 = getelementptr inbounds %"struct.std::_Rb_tree_key_compare", ptr %_M_impl58, i32 0, i32 0
  %24 = load ptr, ptr %__k.addr, align 8
  %call60 = call noundef nonnull align 8 dereferenceable(8) ptr @_ZNSt17_Rb_tree_iteratorISt4pairIKNSt7__cxx1112basic_stringIcSt11char_traitsIcESaIcEEEPN7Imf_3_216FlatImageChannelEEEppEv(ptr noundef nonnull align 8 dereferenceable(8) %__after) #3
  %_M_node61 = getelementptr inbounds %"struct.std::_Rb_tree_iterator", ptr %call60, i32 0, i32 0
  %25 = load ptr, ptr %_M_node61, align 8
  %call62 = call noundef nonnull align 8 dereferenceable(32) ptr @_ZNSt8_Rb_treeINSt7__cxx1112basic_stringIcSt11char_traitsIcESaIcEEESt4pairIKS5_PN7Imf_3_216FlatImageChannelEESt10_Select1stISB_ESt4lessIS5_ESaISB_EE6_S_keyEPKSt18_Rb_tree_node_base(ptr noundef %25)
  %call63 = call noundef zeroext i1 @_ZNKSt4lessINSt7__cxx1112basic_stringIcSt11char_traitsIcESaIcEEEEclERKS5_S8_(ptr noundef nonnull align 1 dereferenceable(1) %_M_key_compare59, ptr noundef nonnull align 8 dereferenceable(32) %24, ptr noundef nonnull align 8 dereferenceable(32) %call62)
  br i1 %call63, label %if.then64, label %if.else74

if.then64:                                        ; preds = %if.else57
  %_M_node65 = getelementptr inbounds %"struct.std::_Rb_tree_iterator", ptr %__pos, i32 0, i32 0
  %26 = load ptr, ptr %_M_node65, align 8
  %call66 = call noundef ptr @_ZNSt8_Rb_treeINSt7__cxx1112basic_stringIcSt11char_traitsIcESaIcEEESt4pairIKS5_PN7Imf_3_216FlatImageChannelEESt10_Select1stISB_ESt4lessIS5_ESaISB_EE8_S_rightEPSt18_Rb_tree_node_base(ptr noundef %26) #3
  %cmp67 = icmp eq ptr %call66, null
  br i1 %cmp67, label %if.then68, label %if.else71

if.then68:                                        ; preds = %if.then64
  store ptr null, ptr %ref.tmp69, align 8
  %_M_node70 = getelementptr inbounds %"struct.std::_Rb_tree_iterator", ptr %__pos, i32 0, i32 0
  call void @_ZNSt4pairIPSt18_Rb_tree_node_baseS1_EC2IS1_S1_TnNSt9enable_ifIXaaclsr5_PCCPE18_ConstructiblePairIT_T0_EEclsr5_PCCPE26_ImplicitlyConvertiblePairIS5_S6_EEEbE4typeELb1EEERKS1_SA_(ptr noundef nonnull align 8 dereferenceable(16) %retval, ptr noundef nonnull align 8 dereferenceable(8) %ref.tmp69, ptr noundef nonnull align 8 dereferenceable(8) %_M_node70)
  br label %return

if.else71:                                        ; preds = %if.then64
  %_M_node72 = getelementptr inbounds %"struct.std::_Rb_tree_iterator", ptr %__after, i32 0, i32 0
  %_M_node73 = getelementptr inbounds %"struct.std::_Rb_tree_iterator", ptr %__after, i32 0, i32 0
  call void @_ZNSt4pairIPSt18_Rb_tree_node_baseS1_EC2IRS1_S4_TnNSt9enable_ifIXaaclsr5_PCCPE22_MoveConstructiblePairIT_T0_EEclsr5_PCCPE30_ImplicitlyMoveConvertiblePairIS6_S7_EEEbE4typeELb1EEEOS6_OS7_(ptr noundef nonnull align 8 dereferenceable(16) %retval, ptr noundef nonnull align 8 dereferenceable(8) %_M_node72, ptr noundef nonnull align 8 dereferenceable(8) %_M_node73)
  br label %return

if.else74:                                        ; preds = %if.else57
  %27 = load ptr, ptr %__k.addr, align 8
  %call75 = call { ptr, ptr } @_ZNSt8_Rb_treeINSt7__cxx1112basic_stringIcSt11char_traitsIcESaIcEEESt4pairIKS5_PN7Imf_3_216FlatImageChannelEESt10_Select1stISB_ESt4lessIS5_ESaISB_EE24_M_get_insert_unique_posERS7_(ptr noundef nonnull align 8 dereferenceable(48) %this1, ptr noundef nonnull align 8 dereferenceable(32) %27)
  %28 = getelementptr inbounds { ptr, ptr }, ptr %retval, i32 0, i32 0
  %29 = extractvalue { ptr, ptr } %call75, 0
  store ptr %29, ptr %28, align 8
  %30 = getelementptr inbounds { ptr, ptr }, ptr %retval, i32 0, i32 1
  %31 = extractvalue { ptr, ptr } %call75, 1
  store ptr %31, ptr %30, align 8
  br label %return

if.else76:                                        ; preds = %if.else44
  %_M_node77 = getelementptr inbounds %"struct.std::_Rb_tree_iterator", ptr %__pos, i32 0, i32 0
  store ptr null, ptr %ref.tmp78, align 8
  call void @_ZNSt4pairIPSt18_Rb_tree_node_baseS1_EC2IS1_S1_TnNSt9enable_ifIXaaclsr5_PCCPE18_ConstructiblePairIT_T0_EEclsr5_PCCPE26_ImplicitlyConvertiblePairIS5_S6_EEEbE4typeELb1EEERKS1_SA_(ptr noundef nonnull align 8 dereferenceable(16) %retval, ptr noundef nonnull align 8 dereferenceable(8) %_M_node77, ptr noundef nonnull align 8 dereferenceable(8) %ref.tmp78)
  br label %return

return:                                           ; preds = %if.else76, %if.else74, %if.else71, %if.then68, %if.then54, %if.else42, %if.else39, %if.then36, %if.then22, %if.else, %if.then9
  %32 = load { ptr, ptr }, ptr %retval, align 8
  ret { ptr, ptr } %32
}

; Function Attrs: mustprogress uwtable
define linkonce_odr hidden noundef nonnull align 8 dereferenceable(32) ptr @_ZNKSt8_Rb_treeINSt7__cxx1112basic_stringIcSt11char_traitsIcESaIcEEESt4pairIKS5_PN7Imf_3_216FlatImageChannelEESt10_Select1stISB_ESt4lessIS5_ESaISB_EE10_Auto_node6_M_keyEv(ptr noundef nonnull align 8 dereferenceable(16) %this) #4 comdat align 2 {
entry:
  %this.addr = alloca ptr, align 8
  store ptr %this, ptr %this.addr, align 8
  %this1 = load ptr, ptr %this.addr, align 8
  %_M_node = getelementptr inbounds %"struct.std::_Rb_tree<std::__cxx11::basic_string<char>, std::pair<const std::__cxx11::basic_string<char>, Imf_3_2::FlatImageChannel *>, std::_Select1st<std::pair<const std::__cxx11::basic_string<char>, Imf_3_2::FlatImageChannel *>>, std::less<std::__cxx11::basic_string<char>>>::_Auto_node", ptr %this1, i32 0, i32 1
  %0 = load ptr, ptr %_M_node, align 8
  %call = call noundef nonnull align 8 dereferenceable(32) ptr @_ZNSt8_Rb_treeINSt7__cxx1112basic_stringIcSt11char_traitsIcESaIcEEESt4pairIKS5_PN7Imf_3_216FlatImageChannelEESt10_Select1stISB_ESt4lessIS5_ESaISB_EE6_S_keyEPKSt13_Rb_tree_nodeISB_E(ptr noundef %0)
  ret ptr %call
}

; Function Attrs: mustprogress uwtable
define linkonce_odr hidden ptr @_ZNSt8_Rb_treeINSt7__cxx1112basic_stringIcSt11char_traitsIcESaIcEEESt4pairIKS5_PN7Imf_3_216FlatImageChannelEESt10_Select1stISB_ESt4lessIS5_ESaISB_EE10_Auto_node9_M_insertES6_IPSt18_Rb_tree_node_baseSK_E(ptr noundef nonnull align 8 dereferenceable(16) %this, ptr %__p.coerce0, ptr %__p.coerce1) #4 comdat align 2 {
entry:
  %retval = alloca %"struct.std::_Rb_tree_iterator", align 8
  %__p = alloca %"struct.std::pair.16", align 8
  %this.addr = alloca ptr, align 8
  %0 = getelementptr inbounds { ptr, ptr }, ptr %__p, i32 0, i32 0
  store ptr %__p.coerce0, ptr %0, align 8
  %1 = getelementptr inbounds { ptr, ptr }, ptr %__p, i32 0, i32 1
  store ptr %__p.coerce1, ptr %1, align 8
  store ptr %this, ptr %this.addr, align 8
  %this1 = load ptr, ptr %this.addr, align 8
  %_M_t = getelementptr inbounds %"struct.std::_Rb_tree<std::__cxx11::basic_string<char>, std::pair<const std::__cxx11::basic_string<char>, Imf_3_2::FlatImageChannel *>, std::_Select1st<std::pair<const std::__cxx11::basic_string<char>, Imf_3_2::FlatImageChannel *>>, std::less<std::__cxx11::basic_string<char>>>::_Auto_node", ptr %this1, i32 0, i32 0
  %2 = load ptr, ptr %_M_t, align 8
  %first = getelementptr inbounds %"struct.std::pair.16", ptr %__p, i32 0, i32 0
  %3 = load ptr, ptr %first, align 8
  %second = getelementptr inbounds %"struct.std::pair.16", ptr %__p, i32 0, i32 1
  %4 = load ptr, ptr %second, align 8
  %_M_node = getelementptr inbounds %"struct.std::_Rb_tree<std::__cxx11::basic_string<char>, std::pair<const std::__cxx11::basic_string<char>, Imf_3_2::FlatImageChannel *>, std::_Select1st<std::pair<const std::__cxx11::basic_string<char>, Imf_3_2::FlatImageChannel *>>, std::less<std::__cxx11::basic_string<char>>>::_Auto_node", ptr %this1, i32 0, i32 1
  %5 = load ptr, ptr %_M_node, align 8
  %call = call ptr @_ZNSt8_Rb_treeINSt7__cxx1112basic_stringIcSt11char_traitsIcESaIcEEESt4pairIKS5_PN7Imf_3_216FlatImageChannelEESt10_Select1stISB_ESt4lessIS5_ESaISB_EE14_M_insert_nodeEPSt18_Rb_tree_node_baseSJ_PSt13_Rb_tree_nodeISB_E(ptr noundef nonnull align 8 dereferenceable(48) %2, ptr noundef %3, ptr noundef %4, ptr noundef %5)
  %coerce.dive = getelementptr inbounds %"struct.std::_Rb_tree_iterator", ptr %retval, i32 0, i32 0
  store ptr %call, ptr %coerce.dive, align 8
  %_M_node2 = getelementptr inbounds %"struct.std::_Rb_tree<std::__cxx11::basic_string<char>, std::pair<const std::__cxx11::basic_string<char>, Imf_3_2::FlatImageChannel *>, std::_Select1st<std::pair<const std::__cxx11::basic_string<char>, Imf_3_2::FlatImageChannel *>>, std::less<std::__cxx11::basic_string<char>>>::_Auto_node", ptr %this1, i32 0, i32 1
  store ptr null, ptr %_M_node2, align 8
  %coerce.dive3 = getelementptr inbounds %"struct.std::_Rb_tree_iterator", ptr %retval, i32 0, i32 0
  %6 = load ptr, ptr %coerce.dive3, align 8
  ret ptr %6
}

; Function Attrs: mustprogress nounwind uwtable
define linkonce_odr hidden void @_ZNSt8_Rb_treeINSt7__cxx1112basic_stringIcSt11char_traitsIcESaIcEEESt4pairIKS5_PN7Imf_3_216FlatImageChannelEESt10_Select1stISB_ESt4lessIS5_ESaISB_EE10_Auto_nodeD2Ev(ptr noundef nonnull align 8 dereferenceable(16) %this) unnamed_addr #5 comdat align 2 {
entry:
  %this.addr = alloca ptr, align 8
  store ptr %this, ptr %this.addr, align 8
  %this1 = load ptr, ptr %this.addr, align 8
  %_M_node = getelementptr inbounds %"struct.std::_Rb_tree<std::__cxx11::basic_string<char>, std::pair<const std::__cxx11::basic_string<char>, Imf_3_2::FlatImageChannel *>, std::_Select1st<std::pair<const std::__cxx11::basic_string<char>, Imf_3_2::FlatImageChannel *>>, std::less<std::__cxx11::basic_string<char>>>::_Auto_node", ptr %this1, i32 0, i32 1
  %0 = load ptr, ptr %_M_node, align 8
  %tobool = icmp ne ptr %0, null
  br i1 %tobool, label %if.then, label %if.end

if.then:                                          ; preds = %entry
  %_M_t = getelementptr inbounds %"struct.std::_Rb_tree<std::__cxx11::basic_string<char>, std::pair<const std::__cxx11::basic_string<char>, Imf_3_2::FlatImageChannel *>, std::_Select1st<std::pair<const std::__cxx11::basic_string<char>, Imf_3_2::FlatImageChannel *>>, std::less<std::__cxx11::basic_string<char>>>::_Auto_node", ptr %this1, i32 0, i32 0
  %1 = load ptr, ptr %_M_t, align 8
  %_M_node2 = getelementptr inbounds %"struct.std::_Rb_tree<std::__cxx11::basic_string<char>, std::pair<const std::__cxx11::basic_string<char>, Imf_3_2::FlatImageChannel *>, std::_Select1st<std::pair<const std::__cxx11::basic_string<char>, Imf_3_2::FlatImageChannel *>>, std::less<std::__cxx11::basic_string<char>>>::_Auto_node", ptr %this1, i32 0, i32 1
  %2 = load ptr, ptr %_M_node2, align 8
  call void @_ZNSt8_Rb_treeINSt7__cxx1112basic_stringIcSt11char_traitsIcESaIcEEESt4pairIKS5_PN7Imf_3_216FlatImageChannelEESt10_Select1stISB_ESt4lessIS5_ESaISB_EE12_M_drop_nodeEPSt13_Rb_tree_nodeISB_E(ptr noundef nonnull align 8 dereferenceable(48) %1, ptr noundef %2) #3
  br label %if.end

if.end:                                           ; preds = %if.then, %entry
  ret void
}

; Function Attrs: mustprogress uwtable
define linkonce_odr hidden noundef ptr @_ZNSt8_Rb_treeINSt7__cxx1112basic_stringIcSt11char_traitsIcESaIcEEESt4pairIKS5_PN7Imf_3_216FlatImageChannelEESt10_Select1stISB_ESt4lessIS5_ESaISB_EE14_M_create_nodeIJRKSt21piecewise_construct_tSt5tupleIJRS7_EESM_IJEEEEEPSt13_Rb_tree_nodeISB_EDpOT_(ptr noundef nonnull align 8 dereferenceable(48) %this, ptr noundef nonnull align 1 dereferenceable(1) %__args, ptr noundef nonnull align 8 dereferenceable(8) %__args1, ptr noundef nonnull align 1 dereferenceable(1) %__args3) #4 comdat align 2 {
entry:
  %this.addr = alloca ptr, align 8
  %__args.addr = alloca ptr, align 8
  %__args.addr2 = alloca ptr, align 8
  %__args.addr4 = alloca ptr, align 8
  %__tmp = alloca ptr, align 8
  store ptr %this, ptr %this.addr, align 8
  store ptr %__args, ptr %__args.addr, align 8
  store ptr %__args1, ptr %__args.addr2, align 8
  store ptr %__args3, ptr %__args.addr4, align 8
  %this5 = load ptr, ptr %this.addr, align 8
  %call = call noundef ptr @_ZNSt8_Rb_treeINSt7__cxx1112basic_stringIcSt11char_traitsIcESaIcEEESt4pairIKS5_PN7Imf_3_216FlatImageChannelEESt10_Select1stISB_ESt4lessIS5_ESaISB_EE11_M_get_nodeEv(ptr noundef nonnull align 8 dereferenceable(48) %this5)
  store ptr %call, ptr %__tmp, align 8
  %0 = load ptr, ptr %__tmp, align 8
  %1 = load ptr, ptr %__args.addr, align 8
  %2 = load ptr, ptr %__args.addr2, align 8
  %3 = load ptr, ptr %__args.addr4, align 8
  call void @_ZNSt8_Rb_treeINSt7__cxx1112basic_stringIcSt11char_traitsIcESaIcEEESt4pairIKS5_PN7Imf_3_216FlatImageChannelEESt10_Select1stISB_ESt4lessIS5_ESaISB_EE17_M_construct_nodeIJRKSt21piecewise_construct_tSt5tupleIJRS7_EESM_IJEEEEEvPSt13_Rb_tree_nodeISB_EDpOT_(ptr noundef nonnull align 8 dereferenceable(48) %this5, ptr noundef %0, ptr noundef nonnull align 1 dereferenceable(1) %1, ptr noundef nonnull align 8 dereferenceable(8) %2, ptr noundef nonnull align 1 dereferenceable(1) %3)
  %4 = load ptr, ptr %__tmp, align 8
  ret ptr %4
}

; Function Attrs: mustprogress uwtable
define linkonce_odr hidden noundef ptr @_ZNSt8_Rb_treeINSt7__cxx1112basic_stringIcSt11char_traitsIcESaIcEEESt4pairIKS5_PN7Imf_3_216FlatImageChannelEESt10_Select1stISB_ESt4lessIS5_ESaISB_EE11_M_get_nodeEv(ptr noundef nonnull align 8 dereferenceable(48) %this) #4 comdat align 2 {
entry:
  %this.addr = alloca ptr, align 8
  store ptr %this, ptr %this.addr, align 8
  %this1 = load ptr, ptr %this.addr, align 8
  %call = call noundef nonnull align 1 dereferenceable(1) ptr @_ZNSt8_Rb_treeINSt7__cxx1112basic_stringIcSt11char_traitsIcESaIcEEESt4pairIKS5_PN7Imf_3_216FlatImageChannelEESt10_Select1stISB_ESt4lessIS5_ESaISB_EE21_M_get_Node_allocatorEv(ptr noundef nonnull align 8 dereferenceable(48) %this1) #3
  %call2 = call noundef ptr @_ZNSt16allocator_traitsISaISt13_Rb_tree_nodeISt4pairIKNSt7__cxx1112basic_stringIcSt11char_traitsIcESaIcEEEPN7Imf_3_216FlatImageChannelEEEEE8allocateERSE_m(ptr noundef nonnull align 1 dereferenceable(1) %call, i64 noundef 1)
  ret ptr %call2
}

; Function Attrs: mustprogress uwtable
define linkonce_odr hidden void @_ZNSt8_Rb_treeINSt7__cxx1112basic_stringIcSt11char_traitsIcESaIcEEESt4pairIKS5_PN7Imf_3_216FlatImageChannelEESt10_Select1stISB_ESt4lessIS5_ESaISB_EE17_M_construct_nodeIJRKSt21piecewise_construct_tSt5tupleIJRS7_EESM_IJEEEEEvPSt13_Rb_tree_nodeISB_EDpOT_(ptr noundef nonnull align 8 dereferenceable(48) %this, ptr noundef %__node, ptr noundef nonnull align 1 dereferenceable(1) %__args, ptr noundef nonnull align 8 dereferenceable(8) %__args1, ptr noundef nonnull align 1 dereferenceable(1) %__args3) #4 comdat align 2 personality ptr @__gxx_personality_v0 {
entry:
  %this.addr = alloca ptr, align 8
  %__node.addr = alloca ptr, align 8
  %__args.addr = alloca ptr, align 8
  %__args.addr2 = alloca ptr, align 8
  %__args.addr4 = alloca ptr, align 8
  %exn.slot = alloca ptr, align 8
  %ehselector.slot = alloca i32, align 4
  store ptr %this, ptr %this.addr, align 8
  store ptr %__node, ptr %__node.addr, align 8
  store ptr %__args, ptr %__args.addr, align 8
  store ptr %__args1, ptr %__args.addr2, align 8
  store ptr %__args3, ptr %__args.addr4, align 8
  %this5 = load ptr, ptr %this.addr, align 8
  %call = call noundef nonnull align 1 dereferenceable(1) ptr @_ZNSt8_Rb_treeINSt7__cxx1112basic_stringIcSt11char_traitsIcESaIcEEESt4pairIKS5_PN7Imf_3_216FlatImageChannelEESt10_Select1stISB_ESt4lessIS5_ESaISB_EE21_M_get_Node_allocatorEv(ptr noundef nonnull align 8 dereferenceable(48) %this5) #3
  %0 = load ptr, ptr %__node.addr, align 8
  %call6 = call noundef ptr @_ZNSt13_Rb_tree_nodeISt4pairIKNSt7__cxx1112basic_stringIcSt11char_traitsIcESaIcEEEPN7Imf_3_216FlatImageChannelEEE9_M_valptrEv(ptr noundef nonnull align 8 dereferenceable(72) %0)
  %1 = load ptr, ptr %__args.addr, align 8
  %2 = load ptr, ptr %__args.addr2, align 8
  %3 = load ptr, ptr %__args.addr4, align 8
  invoke void @_ZNSt16allocator_traitsISaISt13_Rb_tree_nodeISt4pairIKNSt7__cxx1112basic_stringIcSt11char_traitsIcESaIcEEEPN7Imf_3_216FlatImageChannelEEEEE9constructISC_JRKSt21piecewise_construct_tSt5tupleIJRS8_EESK_IJEEEEEvRSE_PT_DpOT0_(ptr noundef nonnull align 1 dereferenceable(1) %call, ptr noundef %call6, ptr noundef nonnull align 1 dereferenceable(1) %1, ptr noundef nonnull align 8 dereferenceable(8) %2, ptr noundef nonnull align 1 dereferenceable(1) %3)
          to label %invoke.cont unwind label %lpad

invoke.cont:                                      ; preds = %entry
  br label %try.cont

lpad:                                             ; preds = %entry
  %4 = landingpad { ptr, i32 }
          catch ptr null
  %5 = extractvalue { ptr, i32 } %4, 0
  store ptr %5, ptr %exn.slot, align 8
  %6 = extractvalue { ptr, i32 } %4, 1
  store i32 %6, ptr %ehselector.slot, align 4
  br label %catch

catch:                                            ; preds = %lpad
  %exn = load ptr, ptr %exn.slot, align 8
  %7 = call ptr @__cxa_begin_catch(ptr %exn) #3
  %8 = load ptr, ptr %__node.addr, align 8
  call void @_ZNSt8_Rb_treeINSt7__cxx1112basic_stringIcSt11char_traitsIcESaIcEEESt4pairIKS5_PN7Imf_3_216FlatImageChannelEESt10_Select1stISB_ESt4lessIS5_ESaISB_EE11_M_put_nodeEPSt13_Rb_tree_nodeISB_E(ptr noundef nonnull align 8 dereferenceable(48) %this5, ptr noundef %8) #3
  invoke void @__cxa_rethrow() #16
          to label %unreachable unwind label %lpad7

lpad7:                                            ; preds = %catch
  %9 = landingpad { ptr, i32 }
          cleanup
  %10 = extractvalue { ptr, i32 } %9, 0
  store ptr %10, ptr %exn.slot, align 8
  %11 = extractvalue { ptr, i32 } %9, 1
  store i32 %11, ptr %ehselector.slot, align 4
  invoke void @__cxa_end_catch()
          to label %invoke.cont8 unwind label %terminate.lpad

invoke.cont8:                                     ; preds = %lpad7
  br label %eh.resume

try.cont:                                         ; preds = %invoke.cont
  ret void

eh.resume:                                        ; preds = %invoke.cont8
  %exn9 = load ptr, ptr %exn.slot, align 8
  %sel = load i32, ptr %ehselector.slot, align 4
  %lpad.val = insertvalue { ptr, i32 } poison, ptr %exn9, 0
  %lpad.val10 = insertvalue { ptr, i32 } %lpad.val, i32 %sel, 1
  resume { ptr, i32 } %lpad.val10

terminate.lpad:                                   ; preds = %lpad7
  %12 = landingpad { ptr, i32 }
          catch ptr null
  %13 = extractvalue { ptr, i32 } %12, 0
  call void @__clang_call_terminate(ptr %13) #12
  unreachable

unreachable:                                      ; preds = %catch
  unreachable
}

; Function Attrs: mustprogress uwtable
define linkonce_odr hidden noundef ptr @_ZNSt16allocator_traitsISaISt13_Rb_tree_nodeISt4pairIKNSt7__cxx1112basic_stringIcSt11char_traitsIcESaIcEEEPN7Imf_3_216FlatImageChannelEEEEE8allocateERSE_m(ptr noundef nonnull align 1 dereferenceable(1) %__a, i64 noundef %__n) #4 comdat align 2 {
entry:
  %__a.addr = alloca ptr, align 8
  %__n.addr = alloca i64, align 8
  store ptr %__a, ptr %__a.addr, align 8
  store i64 %__n, ptr %__n.addr, align 8
  %0 = load ptr, ptr %__a.addr, align 8
  %1 = load i64, ptr %__n.addr, align 8
  %call = call noundef ptr @_ZNSt15__new_allocatorISt13_Rb_tree_nodeISt4pairIKNSt7__cxx1112basic_stringIcSt11char_traitsIcESaIcEEEPN7Imf_3_216FlatImageChannelEEEE8allocateEmPKv(ptr noundef nonnull align 1 dereferenceable(1) %0, i64 noundef %1, ptr noundef null)
  ret ptr %call
}

; Function Attrs: mustprogress uwtable
define linkonce_odr hidden noundef ptr @_ZNSt15__new_allocatorISt13_Rb_tree_nodeISt4pairIKNSt7__cxx1112basic_stringIcSt11char_traitsIcESaIcEEEPN7Imf_3_216FlatImageChannelEEEE8allocateEmPKv(ptr noundef nonnull align 1 dereferenceable(1) %this, i64 noundef %__n, ptr noundef %0) #4 comdat align 2 {
entry:
  %this.addr = alloca ptr, align 8
  %__n.addr = alloca i64, align 8
  %.addr = alloca ptr, align 8
  store ptr %this, ptr %this.addr, align 8
  store i64 %__n, ptr %__n.addr, align 8
  store ptr %0, ptr %.addr, align 8
  %this1 = load ptr, ptr %this.addr, align 8
  %1 = load i64, ptr %__n.addr, align 8
  %call = call noundef i64 @_ZNKSt15__new_allocatorISt13_Rb_tree_nodeISt4pairIKNSt7__cxx1112basic_stringIcSt11char_traitsIcESaIcEEEPN7Imf_3_216FlatImageChannelEEEE11_M_max_sizeEv(ptr noundef nonnull align 1 dereferenceable(1) %this1) #3
  %cmp = icmp ugt i64 %1, %call
  br i1 %cmp, label %if.then, label %if.end4

if.then:                                          ; preds = %entry
  %2 = load i64, ptr %__n.addr, align 8
  %cmp2 = icmp ugt i64 %2, 256204778801521550
  br i1 %cmp2, label %if.then3, label %if.end

if.then3:                                         ; preds = %if.then
  call void @_ZSt28__throw_bad_array_new_lengthv() #16
  unreachable

if.end:                                           ; preds = %if.then
  call void @_ZSt17__throw_bad_allocv() #16
  unreachable

if.end4:                                          ; preds = %entry
  %3 = load i64, ptr %__n.addr, align 8
  %mul = mul i64 %3, 72
  %call5 = call noalias noundef nonnull ptr @_Znwm(i64 noundef %mul) #15
  ret ptr %call5
}

; Function Attrs: mustprogress nounwind uwtable
define linkonce_odr hidden noundef i64 @_ZNKSt15__new_allocatorISt13_Rb_tree_nodeISt4pairIKNSt7__cxx1112basic_stringIcSt11char_traitsIcESaIcEEEPN7Imf_3_216FlatImageChannelEEEE11_M_max_sizeEv(ptr noundef nonnull align 1 dereferenceable(1) %this) #5 comdat align 2 {
entry:
  %this.addr = alloca ptr, align 8
  store ptr %this, ptr %this.addr, align 8
  ret i64 128102389400760775
}

; Function Attrs: noreturn
declare void @_ZSt28__throw_bad_array_new_lengthv() #11

; Function Attrs: noreturn
declare void @_ZSt17__throw_bad_allocv() #11

; Function Attrs: mustprogress uwtable
define linkonce_odr hidden void @_ZNSt16allocator_traitsISaISt13_Rb_tree_nodeISt4pairIKNSt7__cxx1112basic_stringIcSt11char_traitsIcESaIcEEEPN7Imf_3_216FlatImageChannelEEEEE9constructISC_JRKSt21piecewise_construct_tSt5tupleIJRS8_EESK_IJEEEEEvRSE_PT_DpOT0_(ptr noundef nonnull align 1 dereferenceable(1) %__a, ptr noundef %__p, ptr noundef nonnull align 1 dereferenceable(1) %__args, ptr noundef nonnull align 8 dereferenceable(8) %__args1, ptr noundef nonnull align 1 dereferenceable(1) %__args3) #4 comdat align 2 {
entry:
  %__a.addr = alloca ptr, align 8
  %__p.addr = alloca ptr, align 8
  %__args.addr = alloca ptr, align 8
  %__args.addr2 = alloca ptr, align 8
  %__args.addr4 = alloca ptr, align 8
  store ptr %__a, ptr %__a.addr, align 8
  store ptr %__p, ptr %__p.addr, align 8
  store ptr %__args, ptr %__args.addr, align 8
  store ptr %__args1, ptr %__args.addr2, align 8
  store ptr %__args3, ptr %__args.addr4, align 8
  %0 = load ptr, ptr %__a.addr, align 8
  %1 = load ptr, ptr %__p.addr, align 8
  %2 = load ptr, ptr %__args.addr, align 8
  %3 = load ptr, ptr %__args.addr2, align 8
  %4 = load ptr, ptr %__args.addr4, align 8
  call void @_ZNSt15__new_allocatorISt13_Rb_tree_nodeISt4pairIKNSt7__cxx1112basic_stringIcSt11char_traitsIcESaIcEEEPN7Imf_3_216FlatImageChannelEEEE9constructISC_JRKSt21piecewise_construct_tSt5tupleIJRS8_EESJ_IJEEEEEvPT_DpOT0_(ptr noundef nonnull align 1 dereferenceable(1) %0, ptr noundef %1, ptr noundef nonnull align 1 dereferenceable(1) %2, ptr noundef nonnull align 8 dereferenceable(8) %3, ptr noundef nonnull align 1 dereferenceable(1) %4)
  ret void
}

declare void @__cxa_rethrow()

declare void @__cxa_end_catch()

; Function Attrs: mustprogress uwtable
define linkonce_odr hidden void @_ZNSt15__new_allocatorISt13_Rb_tree_nodeISt4pairIKNSt7__cxx1112basic_stringIcSt11char_traitsIcESaIcEEEPN7Imf_3_216FlatImageChannelEEEE9constructISC_JRKSt21piecewise_construct_tSt5tupleIJRS8_EESJ_IJEEEEEvPT_DpOT0_(ptr noundef nonnull align 1 dereferenceable(1) %this, ptr noundef %__p, ptr noundef nonnull align 1 dereferenceable(1) %__args, ptr noundef nonnull align 8 dereferenceable(8) %__args1, ptr noundef nonnull align 1 dereferenceable(1) %__args3) #4 comdat align 2 {
entry:
  %this.addr = alloca ptr, align 8
  %__p.addr = alloca ptr, align 8
  %__args.addr = alloca ptr, align 8
  %__args.addr2 = alloca ptr, align 8
  %__args.addr4 = alloca ptr, align 8
  %agg.tmp6 = alloca %"class.std::tuple", align 8
  store ptr %this, ptr %this.addr, align 8
  store ptr %__p, ptr %__p.addr, align 8
  store ptr %__args, ptr %__args.addr, align 8
  store ptr %__args1, ptr %__args.addr2, align 8
  store ptr %__args3, ptr %__args.addr4, align 8
  %0 = load ptr, ptr %__p.addr, align 8
  %1 = load ptr, ptr %__args.addr2, align 8
  call void @_ZNSt5tupleIJRKNSt7__cxx1112basic_stringIcSt11char_traitsIcESaIcEEEEEC2EOS8_(ptr noundef nonnull align 8 dereferenceable(8) %agg.tmp6, ptr noundef nonnull align 8 dereferenceable(8) %1) #3
  call void @_ZNSt4pairIKNSt7__cxx1112basic_stringIcSt11char_traitsIcESaIcEEEPN7Imf_3_216FlatImageChannelEEC2IJRS6_EJEEESt21piecewise_construct_tSt5tupleIJDpT_EESE_IJDpT0_EE(ptr noundef nonnull align 8 dereferenceable(40) %0, ptr noundef %agg.tmp6)
  ret void
}

; Function Attrs: mustprogress nounwind uwtable
define linkonce_odr hidden void @_ZNSt5tupleIJRKNSt7__cxx1112basic_stringIcSt11char_traitsIcESaIcEEEEEC2EOS8_(ptr noundef nonnull align 8 dereferenceable(8) %this, ptr noundef nonnull align 8 dereferenceable(8) %0) unnamed_addr #5 comdat align 2 {
entry:
  %this.addr = alloca ptr, align 8
  %.addr = alloca ptr, align 8
  store ptr %this, ptr %this.addr, align 8
  store ptr %0, ptr %.addr, align 8
  %this1 = load ptr, ptr %this.addr, align 8
  %1 = load ptr, ptr %.addr, align 8
  call void @_ZNSt11_Tuple_implILm0EJRKNSt7__cxx1112basic_stringIcSt11char_traitsIcESaIcEEEEEC2EOS8_(ptr noundef nonnull align 8 dereferenceable(8) %this1, ptr noundef nonnull align 8 dereferenceable(8) %1) #3
  ret void
}

; Function Attrs: mustprogress uwtable
define linkonce_odr hidden void @_ZNSt4pairIKNSt7__cxx1112basic_stringIcSt11char_traitsIcESaIcEEEPN7Imf_3_216FlatImageChannelEEC2IJRS6_EJEEESt21piecewise_construct_tSt5tupleIJDpT_EESE_IJDpT0_EE(ptr noundef nonnull align 8 dereferenceable(40) %this, ptr noundef %__first) unnamed_addr #4 comdat align 2 {
entry:
  %__second = alloca %"class.std::tuple.15", align 1
  %this.addr = alloca ptr, align 8
  %__first.indirect_addr = alloca ptr, align 8
  store ptr %this, ptr %this.addr, align 8
  store ptr %__first, ptr %__first.indirect_addr, align 8
  %this2 = load ptr, ptr %this.addr, align 8
  call void @_ZNSt4pairIKNSt7__cxx1112basic_stringIcSt11char_traitsIcESaIcEEEPN7Imf_3_216FlatImageChannelEEC2IJRS6_EJLm0EEJETpTnmJEEERSt5tupleIJDpT_EERSD_IJDpT1_EESt12_Index_tupleIJXspT0_EEESM_IJXspT2_EEE(ptr noundef nonnull align 8 dereferenceable(40) %this2, ptr noundef nonnull align 8 dereferenceable(8) %__first, ptr noundef nonnull align 1 dereferenceable(1) %__second)
  ret void
}

; Function Attrs: mustprogress nounwind uwtable
define linkonce_odr hidden void @_ZNSt11_Tuple_implILm0EJRKNSt7__cxx1112basic_stringIcSt11char_traitsIcESaIcEEEEEC2EOS8_(ptr noundef nonnull align 8 dereferenceable(8) %this, ptr noundef nonnull align 8 dereferenceable(8) %__in) unnamed_addr #5 comdat align 2 {
entry:
  %this.addr = alloca ptr, align 8
  %__in.addr = alloca ptr, align 8
  store ptr %this, ptr %this.addr, align 8
  store ptr %__in, ptr %__in.addr, align 8
  %this1 = load ptr, ptr %this.addr, align 8
  %0 = load ptr, ptr %__in.addr, align 8
  call void @llvm.memcpy.p0.p0.i64(ptr align 8 %this1, ptr align 8 %0, i64 8, i1 false)
  ret void
}

; Function Attrs: mustprogress uwtable
define linkonce_odr hidden void @_ZNSt4pairIKNSt7__cxx1112basic_stringIcSt11char_traitsIcESaIcEEEPN7Imf_3_216FlatImageChannelEEC2IJRS6_EJLm0EEJETpTnmJEEERSt5tupleIJDpT_EERSD_IJDpT1_EESt12_Index_tupleIJXspT0_EEESM_IJXspT2_EEE(ptr noundef nonnull align 8 dereferenceable(40) %this, ptr noundef nonnull align 8 dereferenceable(8) %__tuple1, ptr noundef nonnull align 1 dereferenceable(1) %__tuple2) unnamed_addr #4 comdat align 2 {
entry:
  %this.addr = alloca ptr, align 8
  %__tuple1.addr = alloca ptr, align 8
  %__tuple2.addr = alloca ptr, align 8
  store ptr %this, ptr %this.addr, align 8
  store ptr %__tuple1, ptr %__tuple1.addr, align 8
  store ptr %__tuple2, ptr %__tuple2.addr, align 8
  %this2 = load ptr, ptr %this.addr, align 8
  %first = getelementptr inbounds %"struct.std::pair", ptr %this2, i32 0, i32 0
  %0 = load ptr, ptr %__tuple1.addr, align 8
  %call = call noundef nonnull align 8 dereferenceable(32) ptr @_ZSt3getILm0EJRKNSt7__cxx1112basic_stringIcSt11char_traitsIcESaIcEEEEERNSt13tuple_elementIXT_ESt5tupleIJDpT0_EEE4typeERSC_(ptr noundef nonnull align 8 dereferenceable(8) %0) #3
  call void @_ZNSt7__cxx1112basic_stringIcSt11char_traitsIcESaIcEEC1ERKS4_(ptr noundef nonnull align 8 dereferenceable(32) %first, ptr noundef nonnull align 8 dereferenceable(32) %call)
  %second = getelementptr inbounds %"struct.std::pair", ptr %this2, i32 0, i32 1
  store ptr null, ptr %second, align 8
  ret void
}

; Function Attrs: mustprogress nounwind uwtable
define linkonce_odr noundef nonnull align 8 dereferenceable(32) ptr @_ZSt3getILm0EJRKNSt7__cxx1112basic_stringIcSt11char_traitsIcESaIcEEEEERNSt13tuple_elementIXT_ESt5tupleIJDpT0_EEE4typeERSC_(ptr noundef nonnull align 8 dereferenceable(8) %__t) #5 comdat {
entry:
  %__t.addr = alloca ptr, align 8
  store ptr %__t, ptr %__t.addr, align 8
  %0 = load ptr, ptr %__t.addr, align 8
  %call = call noundef nonnull align 8 dereferenceable(32) ptr @_ZSt12__get_helperILm0ERKNSt7__cxx1112basic_stringIcSt11char_traitsIcESaIcEEEJEERT0_RSt11_Tuple_implIXT_EJS8_DpT1_EE(ptr noundef nonnull align 8 dereferenceable(8) %0) #3
  ret ptr %call
}

declare void @_ZNSt7__cxx1112basic_stringIcSt11char_traitsIcESaIcEEC1ERKS4_(ptr noundef nonnull align 8 dereferenceable(32), ptr noundef nonnull align 8 dereferenceable(32)) unnamed_addr #1

; Function Attrs: mustprogress nounwind uwtable
define linkonce_odr noundef nonnull align 8 dereferenceable(32) ptr @_ZSt12__get_helperILm0ERKNSt7__cxx1112basic_stringIcSt11char_traitsIcESaIcEEEJEERT0_RSt11_Tuple_implIXT_EJS8_DpT1_EE(ptr noundef nonnull align 8 dereferenceable(8) %__t) #5 comdat {
entry:
  %__t.addr = alloca ptr, align 8
  store ptr %__t, ptr %__t.addr, align 8
  %0 = load ptr, ptr %__t.addr, align 8
  %call = call noundef nonnull align 8 dereferenceable(32) ptr @_ZNSt11_Tuple_implILm0EJRKNSt7__cxx1112basic_stringIcSt11char_traitsIcESaIcEEEEE7_M_headERS8_(ptr noundef nonnull align 8 dereferenceable(8) %0) #3
  ret ptr %call
}

; Function Attrs: mustprogress nounwind uwtable
define linkonce_odr hidden noundef nonnull align 8 dereferenceable(32) ptr @_ZNSt11_Tuple_implILm0EJRKNSt7__cxx1112basic_stringIcSt11char_traitsIcESaIcEEEEE7_M_headERS8_(ptr noundef nonnull align 8 dereferenceable(8) %__t) #5 comdat align 2 {
entry:
  %__t.addr = alloca ptr, align 8
  store ptr %__t, ptr %__t.addr, align 8
  %0 = load ptr, ptr %__t.addr, align 8
  %call = call noundef nonnull align 8 dereferenceable(32) ptr @_ZNSt10_Head_baseILm0ERKNSt7__cxx1112basic_stringIcSt11char_traitsIcESaIcEEELb0EE7_M_headERS8_(ptr noundef nonnull align 8 dereferenceable(8) %0) #3
  ret ptr %call
}

; Function Attrs: mustprogress nounwind uwtable
define linkonce_odr hidden noundef nonnull align 8 dereferenceable(32) ptr @_ZNSt10_Head_baseILm0ERKNSt7__cxx1112basic_stringIcSt11char_traitsIcESaIcEEELb0EE7_M_headERS8_(ptr noundef nonnull align 8 dereferenceable(8) %__b) #5 comdat align 2 {
entry:
  %__b.addr = alloca ptr, align 8
  store ptr %__b, ptr %__b.addr, align 8
  %0 = load ptr, ptr %__b.addr, align 8
  %_M_head_impl = getelementptr inbounds %"struct.std::_Head_base", ptr %0, i32 0, i32 0
  %1 = load ptr, ptr %_M_head_impl, align 8
  ret ptr %1
}

; Function Attrs: mustprogress nounwind uwtable
define linkonce_odr hidden ptr @_ZNKSt23_Rb_tree_const_iteratorISt4pairIKNSt7__cxx1112basic_stringIcSt11char_traitsIcESaIcEEEPN7Imf_3_216FlatImageChannelEEE13_M_const_castEv(ptr noundef nonnull align 8 dereferenceable(8) %this) #5 comdat align 2 {
entry:
  %retval = alloca %"struct.std::_Rb_tree_iterator", align 8
  %this.addr = alloca ptr, align 8
  store ptr %this, ptr %this.addr, align 8
  %this1 = load ptr, ptr %this.addr, align 8
  %_M_node = getelementptr inbounds %"struct.std::_Rb_tree_const_iterator", ptr %this1, i32 0, i32 0
  %0 = load ptr, ptr %_M_node, align 8
  call void @_ZNSt17_Rb_tree_iteratorISt4pairIKNSt7__cxx1112basic_stringIcSt11char_traitsIcESaIcEEEPN7Imf_3_216FlatImageChannelEEEC2EPSt18_Rb_tree_node_base(ptr noundef nonnull align 8 dereferenceable(8) %retval, ptr noundef %0) #3
  %coerce.dive = getelementptr inbounds %"struct.std::_Rb_tree_iterator", ptr %retval, i32 0, i32 0
  %1 = load ptr, ptr %coerce.dive, align 8
  ret ptr %1
}

; Function Attrs: mustprogress nounwind uwtable
define linkonce_odr hidden noundef i64 @_ZNKSt8_Rb_treeINSt7__cxx1112basic_stringIcSt11char_traitsIcESaIcEEESt4pairIKS5_PN7Imf_3_216FlatImageChannelEESt10_Select1stISB_ESt4lessIS5_ESaISB_EE4sizeEv(ptr noundef nonnull align 8 dereferenceable(48) %this) #5 comdat align 2 {
entry:
  %this.addr = alloca ptr, align 8
  store ptr %this, ptr %this.addr, align 8
  %this1 = load ptr, ptr %this.addr, align 8
  %_M_impl = getelementptr inbounds %"class.std::_Rb_tree", ptr %this1, i32 0, i32 0
  %add.ptr = getelementptr inbounds i8, ptr %_M_impl, i64 8
  %_M_node_count = getelementptr inbounds %"struct.std::_Rb_tree_header", ptr %add.ptr, i32 0, i32 1
  %0 = load i64, ptr %_M_node_count, align 8
  ret i64 %0
}

; Function Attrs: mustprogress nounwind uwtable
define linkonce_odr hidden noundef nonnull align 8 dereferenceable(8) ptr @_ZNSt8_Rb_treeINSt7__cxx1112basic_stringIcSt11char_traitsIcESaIcEEESt4pairIKS5_PN7Imf_3_216FlatImageChannelEESt10_Select1stISB_ESt4lessIS5_ESaISB_EE12_M_rightmostEv(ptr noundef nonnull align 8 dereferenceable(48) %this) #5 comdat align 2 {
entry:
  %this.addr = alloca ptr, align 8
  store ptr %this, ptr %this.addr, align 8
  %this1 = load ptr, ptr %this.addr, align 8
  %_M_impl = getelementptr inbounds %"class.std::_Rb_tree", ptr %this1, i32 0, i32 0
  %add.ptr = getelementptr inbounds i8, ptr %_M_impl, i64 8
  %_M_header = getelementptr inbounds %"struct.std::_Rb_tree_header", ptr %add.ptr, i32 0, i32 0
  %_M_right = getelementptr inbounds %"struct.std::_Rb_tree_node_base", ptr %_M_header, i32 0, i32 3
  ret ptr %_M_right
}

; Function Attrs: mustprogress nounwind uwtable
define linkonce_odr hidden void @_ZNSt4pairIPSt18_Rb_tree_node_baseS1_EC2IS1_S1_TnNSt9enable_ifIXaaclsr5_PCCPE18_ConstructiblePairIT_T0_EEclsr5_PCCPE26_ImplicitlyConvertiblePairIS5_S6_EEEbE4typeELb1EEERKS1_SA_(ptr noundef nonnull align 8 dereferenceable(16) %this, ptr noundef nonnull align 8 dereferenceable(8) %__a, ptr noundef nonnull align 8 dereferenceable(8) %__b) unnamed_addr #5 comdat align 2 {
entry:
  %this.addr = alloca ptr, align 8
  %__a.addr = alloca ptr, align 8
  %__b.addr = alloca ptr, align 8
  store ptr %this, ptr %this.addr, align 8
  store ptr %__a, ptr %__a.addr, align 8
  store ptr %__b, ptr %__b.addr, align 8
  %this1 = load ptr, ptr %this.addr, align 8
  %first = getelementptr inbounds %"struct.std::pair.16", ptr %this1, i32 0, i32 0
  %0 = load ptr, ptr %__a.addr, align 8
  %1 = load ptr, ptr %0, align 8
  store ptr %1, ptr %first, align 8
  %second = getelementptr inbounds %"struct.std::pair.16", ptr %this1, i32 0, i32 1
  %2 = load ptr, ptr %__b.addr, align 8
  %3 = load ptr, ptr %2, align 8
  store ptr %3, ptr %second, align 8
  ret void
}

; Function Attrs: mustprogress uwtable
define linkonce_odr { ptr, ptr } @_ZNSt8_Rb_treeINSt7__cxx1112basic_stringIcSt11char_traitsIcESaIcEEESt4pairIKS5_PN7Imf_3_216FlatImageChannelEESt10_Select1stISB_ESt4lessIS5_ESaISB_EE24_M_get_insert_unique_posERS7_(ptr noundef nonnull align 8 dereferenceable(48) %this, ptr noundef nonnull align 8 dereferenceable(32) %__k) #4 comdat align 2 {
entry:
  %retval = alloca %"struct.std::pair.16", align 8
  %this.addr = alloca ptr, align 8
  %__k.addr = alloca ptr, align 8
  %__x = alloca ptr, align 8
  %__y = alloca ptr, align 8
  %__comp = alloca i8, align 1
  %__j = alloca %"struct.std::_Rb_tree_iterator", align 8
  %ref.tmp = alloca %"struct.std::_Rb_tree_iterator", align 8
  %ref.tmp20 = alloca ptr, align 8
  store ptr %this, ptr %this.addr, align 8
  store ptr %__k, ptr %__k.addr, align 8
  %this1 = load ptr, ptr %this.addr, align 8
  %call = call noundef ptr @_ZNSt8_Rb_treeINSt7__cxx1112basic_stringIcSt11char_traitsIcESaIcEEESt4pairIKS5_PN7Imf_3_216FlatImageChannelEESt10_Select1stISB_ESt4lessIS5_ESaISB_EE8_M_beginEv(ptr noundef nonnull align 8 dereferenceable(48) %this1) #3
  store ptr %call, ptr %__x, align 8
  %call2 = call noundef ptr @_ZNSt8_Rb_treeINSt7__cxx1112basic_stringIcSt11char_traitsIcESaIcEEESt4pairIKS5_PN7Imf_3_216FlatImageChannelEESt10_Select1stISB_ESt4lessIS5_ESaISB_EE6_M_endEv(ptr noundef nonnull align 8 dereferenceable(48) %this1) #3
  store ptr %call2, ptr %__y, align 8
  store i8 1, ptr %__comp, align 1
  br label %while.cond

while.cond:                                       ; preds = %cond.end, %entry
  %0 = load ptr, ptr %__x, align 8
  %cmp = icmp ne ptr %0, null
  br i1 %cmp, label %while.body, label %while.end

while.body:                                       ; preds = %while.cond
  %1 = load ptr, ptr %__x, align 8
  store ptr %1, ptr %__y, align 8
  %_M_impl = getelementptr inbounds %"class.std::_Rb_tree", ptr %this1, i32 0, i32 0
  %_M_key_compare = getelementptr inbounds %"struct.std::_Rb_tree_key_compare", ptr %_M_impl, i32 0, i32 0
  %2 = load ptr, ptr %__k.addr, align 8
  %3 = load ptr, ptr %__x, align 8
  %call3 = call noundef nonnull align 8 dereferenceable(32) ptr @_ZNSt8_Rb_treeINSt7__cxx1112basic_stringIcSt11char_traitsIcESaIcEEESt4pairIKS5_PN7Imf_3_216FlatImageChannelEESt10_Select1stISB_ESt4lessIS5_ESaISB_EE6_S_keyEPKSt13_Rb_tree_nodeISB_E(ptr noundef %3)
  %call4 = call noundef zeroext i1 @_ZNKSt4lessINSt7__cxx1112basic_stringIcSt11char_traitsIcESaIcEEEEclERKS5_S8_(ptr noundef nonnull align 1 dereferenceable(1) %_M_key_compare, ptr noundef nonnull align 8 dereferenceable(32) %2, ptr noundef nonnull align 8 dereferenceable(32) %call3)
  %frombool = zext i1 %call4 to i8
  store i8 %frombool, ptr %__comp, align 1
  %4 = load i8, ptr %__comp, align 1
  %tobool = trunc i8 %4 to i1
  br i1 %tobool, label %cond.true, label %cond.false

cond.true:                                        ; preds = %while.body
  %5 = load ptr, ptr %__x, align 8
  %call5 = call noundef ptr @_ZNSt8_Rb_treeINSt7__cxx1112basic_stringIcSt11char_traitsIcESaIcEEESt4pairIKS5_PN7Imf_3_216FlatImageChannelEESt10_Select1stISB_ESt4lessIS5_ESaISB_EE7_S_leftEPSt18_Rb_tree_node_base(ptr noundef %5) #3
  br label %cond.end

cond.false:                                       ; preds = %while.body
  %6 = load ptr, ptr %__x, align 8
  %call6 = call noundef ptr @_ZNSt8_Rb_treeINSt7__cxx1112basic_stringIcSt11char_traitsIcESaIcEEESt4pairIKS5_PN7Imf_3_216FlatImageChannelEESt10_Select1stISB_ESt4lessIS5_ESaISB_EE8_S_rightEPSt18_Rb_tree_node_base(ptr noundef %6) #3
  br label %cond.end

cond.end:                                         ; preds = %cond.false, %cond.true
  %cond = phi ptr [ %call5, %cond.true ], [ %call6, %cond.false ]
  store ptr %cond, ptr %__x, align 8
  br label %while.cond, !llvm.loop !11

while.end:                                        ; preds = %while.cond
  %7 = load ptr, ptr %__y, align 8
  call void @_ZNSt17_Rb_tree_iteratorISt4pairIKNSt7__cxx1112basic_stringIcSt11char_traitsIcESaIcEEEPN7Imf_3_216FlatImageChannelEEEC2EPSt18_Rb_tree_node_base(ptr noundef nonnull align 8 dereferenceable(8) %__j, ptr noundef %7) #3
  %8 = load i8, ptr %__comp, align 1
  %tobool7 = trunc i8 %8 to i1
  br i1 %tobool7, label %if.then, label %if.end12

if.then:                                          ; preds = %while.end
  %call8 = call ptr @_ZNSt8_Rb_treeINSt7__cxx1112basic_stringIcSt11char_traitsIcESaIcEEESt4pairIKS5_PN7Imf_3_216FlatImageChannelEESt10_Select1stISB_ESt4lessIS5_ESaISB_EE5beginEv(ptr noundef nonnull align 8 dereferenceable(48) %this1) #3
  %coerce.dive = getelementptr inbounds %"struct.std::_Rb_tree_iterator", ptr %ref.tmp, i32 0, i32 0
  store ptr %call8, ptr %coerce.dive, align 8
  %call9 = call noundef zeroext i1 @_ZSteqRKSt17_Rb_tree_iteratorISt4pairIKNSt7__cxx1112basic_stringIcSt11char_traitsIcESaIcEEEPN7Imf_3_216FlatImageChannelEEESE_(ptr noundef nonnull align 8 dereferenceable(8) %__j, ptr noundef nonnull align 8 dereferenceable(8) %ref.tmp) #3
  br i1 %call9, label %if.then10, label %if.else

if.then10:                                        ; preds = %if.then
  call void @_ZNSt4pairIPSt18_Rb_tree_node_baseS1_EC2IRPSt13_Rb_tree_nodeIS_IKNSt7__cxx1112basic_stringIcSt11char_traitsIcESaIcEEEPN7Imf_3_216FlatImageChannelEEERS1_TnNSt9enable_ifIXaaclsr5_PCCPE22_MoveConstructiblePairIT_T0_EEclsr5_PCCPE30_ImplicitlyMoveConvertiblePairISL_SM_EEEbE4typeELb1EEEOSL_OSM_(ptr noundef nonnull align 8 dereferenceable(16) %retval, ptr noundef nonnull align 8 dereferenceable(8) %__x, ptr noundef nonnull align 8 dereferenceable(8) %__y)
  br label %return

if.else:                                          ; preds = %if.then
  %call11 = call noundef nonnull align 8 dereferenceable(8) ptr @_ZNSt17_Rb_tree_iteratorISt4pairIKNSt7__cxx1112basic_stringIcSt11char_traitsIcESaIcEEEPN7Imf_3_216FlatImageChannelEEEmmEv(ptr noundef nonnull align 8 dereferenceable(8) %__j) #3
  br label %if.end

if.end:                                           ; preds = %if.else
  br label %if.end12

if.end12:                                         ; preds = %if.end, %while.end
  %_M_impl13 = getelementptr inbounds %"class.std::_Rb_tree", ptr %this1, i32 0, i32 0
  %_M_key_compare14 = getelementptr inbounds %"struct.std::_Rb_tree_key_compare", ptr %_M_impl13, i32 0, i32 0
  %_M_node = getelementptr inbounds %"struct.std::_Rb_tree_iterator", ptr %__j, i32 0, i32 0
  %9 = load ptr, ptr %_M_node, align 8
  %call15 = call noundef nonnull align 8 dereferenceable(32) ptr @_ZNSt8_Rb_treeINSt7__cxx1112basic_stringIcSt11char_traitsIcESaIcEEESt4pairIKS5_PN7Imf_3_216FlatImageChannelEESt10_Select1stISB_ESt4lessIS5_ESaISB_EE6_S_keyEPKSt18_Rb_tree_node_base(ptr noundef %9)
  %10 = load ptr, ptr %__k.addr, align 8
  %call16 = call noundef zeroext i1 @_ZNKSt4lessINSt7__cxx1112basic_stringIcSt11char_traitsIcESaIcEEEEclERKS5_S8_(ptr noundef nonnull align 1 dereferenceable(1) %_M_key_compare14, ptr noundef nonnull align 8 dereferenceable(32) %call15, ptr noundef nonnull align 8 dereferenceable(32) %10)
  br i1 %call16, label %if.then17, label %if.end18

if.then17:                                        ; preds = %if.end12
  call void @_ZNSt4pairIPSt18_Rb_tree_node_baseS1_EC2IRPSt13_Rb_tree_nodeIS_IKNSt7__cxx1112basic_stringIcSt11char_traitsIcESaIcEEEPN7Imf_3_216FlatImageChannelEEERS1_TnNSt9enable_ifIXaaclsr5_PCCPE22_MoveConstructiblePairIT_T0_EEclsr5_PCCPE30_ImplicitlyMoveConvertiblePairISL_SM_EEEbE4typeELb1EEEOSL_OSM_(ptr noundef nonnull align 8 dereferenceable(16) %retval, ptr noundef nonnull align 8 dereferenceable(8) %__x, ptr noundef nonnull align 8 dereferenceable(8) %__y)
  br label %return

if.end18:                                         ; preds = %if.end12
  %_M_node19 = getelementptr inbounds %"struct.std::_Rb_tree_iterator", ptr %__j, i32 0, i32 0
  store ptr null, ptr %ref.tmp20, align 8
  call void @_ZNSt4pairIPSt18_Rb_tree_node_baseS1_EC2IS1_S1_TnNSt9enable_ifIXaaclsr5_PCCPE18_ConstructiblePairIT_T0_EEclsr5_PCCPE26_ImplicitlyConvertiblePairIS5_S6_EEEbE4typeELb1EEERKS1_SA_(ptr noundef nonnull align 8 dereferenceable(16) %retval, ptr noundef nonnull align 8 dereferenceable(8) %_M_node19, ptr noundef nonnull align 8 dereferenceable(8) %ref.tmp20)
  br label %return

return:                                           ; preds = %if.end18, %if.then17, %if.then10
  %11 = load { ptr, ptr }, ptr %retval, align 8
  ret { ptr, ptr } %11
}

; Function Attrs: mustprogress nounwind uwtable
define linkonce_odr hidden noundef nonnull align 8 dereferenceable(8) ptr @_ZNSt8_Rb_treeINSt7__cxx1112basic_stringIcSt11char_traitsIcESaIcEEESt4pairIKS5_PN7Imf_3_216FlatImageChannelEESt10_Select1stISB_ESt4lessIS5_ESaISB_EE11_M_leftmostEv(ptr noundef nonnull align 8 dereferenceable(48) %this) #5 comdat align 2 {
entry:
  %this.addr = alloca ptr, align 8
  store ptr %this, ptr %this.addr, align 8
  %this1 = load ptr, ptr %this.addr, align 8
  %_M_impl = getelementptr inbounds %"class.std::_Rb_tree", ptr %this1, i32 0, i32 0
  %add.ptr = getelementptr inbounds i8, ptr %_M_impl, i64 8
  %_M_header = getelementptr inbounds %"struct.std::_Rb_tree_header", ptr %add.ptr, i32 0, i32 0
  %_M_left = getelementptr inbounds %"struct.std::_Rb_tree_node_base", ptr %_M_header, i32 0, i32 2
  ret ptr %_M_left
}

; Function Attrs: mustprogress nounwind uwtable
define linkonce_odr hidden void @_ZNSt4pairIPSt18_Rb_tree_node_baseS1_EC2IRS1_S4_TnNSt9enable_ifIXaaclsr5_PCCPE22_MoveConstructiblePairIT_T0_EEclsr5_PCCPE30_ImplicitlyMoveConvertiblePairIS6_S7_EEEbE4typeELb1EEEOS6_OS7_(ptr noundef nonnull align 8 dereferenceable(16) %this, ptr noundef nonnull align 8 dereferenceable(8) %__x, ptr noundef nonnull align 8 dereferenceable(8) %__y) unnamed_addr #5 comdat align 2 {
entry:
  %this.addr = alloca ptr, align 8
  %__x.addr = alloca ptr, align 8
  %__y.addr = alloca ptr, align 8
  store ptr %this, ptr %this.addr, align 8
  store ptr %__x, ptr %__x.addr, align 8
  store ptr %__y, ptr %__y.addr, align 8
  %this1 = load ptr, ptr %this.addr, align 8
  %first = getelementptr inbounds %"struct.std::pair.16", ptr %this1, i32 0, i32 0
  %0 = load ptr, ptr %__x.addr, align 8
  %1 = load ptr, ptr %0, align 8
  store ptr %1, ptr %first, align 8
  %second = getelementptr inbounds %"struct.std::pair.16", ptr %this1, i32 0, i32 1
  %2 = load ptr, ptr %__y.addr, align 8
  %3 = load ptr, ptr %2, align 8
  store ptr %3, ptr %second, align 8
  ret void
}

; Function Attrs: mustprogress nounwind uwtable
define linkonce_odr hidden noundef nonnull align 8 dereferenceable(8) ptr @_ZNSt17_Rb_tree_iteratorISt4pairIKNSt7__cxx1112basic_stringIcSt11char_traitsIcESaIcEEEPN7Imf_3_216FlatImageChannelEEEmmEv(ptr noundef nonnull align 8 dereferenceable(8) %this) #5 comdat align 2 {
entry:
  %this.addr = alloca ptr, align 8
  store ptr %this, ptr %this.addr, align 8
  %this1 = load ptr, ptr %this.addr, align 8
  %_M_node = getelementptr inbounds %"struct.std::_Rb_tree_iterator", ptr %this1, i32 0, i32 0
  %0 = load ptr, ptr %_M_node, align 8
  %call = call noundef ptr @_ZSt18_Rb_tree_decrementPSt18_Rb_tree_node_base(ptr noundef %0) #14
  %_M_node2 = getelementptr inbounds %"struct.std::_Rb_tree_iterator", ptr %this1, i32 0, i32 0
  store ptr %call, ptr %_M_node2, align 8
  ret ptr %this1
}

; Function Attrs: mustprogress nounwind uwtable
define linkonce_odr hidden void @_ZNSt4pairIPSt18_Rb_tree_node_baseS1_EC2IRPSt13_Rb_tree_nodeIS_IKNSt7__cxx1112basic_stringIcSt11char_traitsIcESaIcEEEPN7Imf_3_216FlatImageChannelEEERS1_TnNSt9enable_ifIXaaclsr5_PCCPE22_MoveConstructiblePairIT_T0_EEclsr5_PCCPE30_ImplicitlyMoveConvertiblePairISL_SM_EEEbE4typeELb1EEEOSL_OSM_(ptr noundef nonnull align 8 dereferenceable(16) %this, ptr noundef nonnull align 8 dereferenceable(8) %__x, ptr noundef nonnull align 8 dereferenceable(8) %__y) unnamed_addr #5 comdat align 2 {
entry:
  %this.addr = alloca ptr, align 8
  %__x.addr = alloca ptr, align 8
  %__y.addr = alloca ptr, align 8
  store ptr %this, ptr %this.addr, align 8
  store ptr %__x, ptr %__x.addr, align 8
  store ptr %__y, ptr %__y.addr, align 8
  %this1 = load ptr, ptr %this.addr, align 8
  %first = getelementptr inbounds %"struct.std::pair.16", ptr %this1, i32 0, i32 0
  %0 = load ptr, ptr %__x.addr, align 8
  %1 = load ptr, ptr %0, align 8
  store ptr %1, ptr %first, align 8
  %second = getelementptr inbounds %"struct.std::pair.16", ptr %this1, i32 0, i32 1
  %2 = load ptr, ptr %__y.addr, align 8
  %3 = load ptr, ptr %2, align 8
  store ptr %3, ptr %second, align 8
  ret void
}

; Function Attrs: nounwind willreturn memory(read)
declare noundef ptr @_ZSt18_Rb_tree_decrementPSt18_Rb_tree_node_base(ptr noundef) #10

; Function Attrs: mustprogress uwtable
define linkonce_odr ptr @_ZNSt8_Rb_treeINSt7__cxx1112basic_stringIcSt11char_traitsIcESaIcEEESt4pairIKS5_PN7Imf_3_216FlatImageChannelEESt10_Select1stISB_ESt4lessIS5_ESaISB_EE14_M_insert_nodeEPSt18_Rb_tree_node_baseSJ_PSt13_Rb_tree_nodeISB_E(ptr noundef nonnull align 8 dereferenceable(48) %this, ptr noundef %__x, ptr noundef %__p, ptr noundef %__z) #4 comdat align 2 {
entry:
  %retval = alloca %"struct.std::_Rb_tree_iterator", align 8
  %this.addr = alloca ptr, align 8
  %__x.addr = alloca ptr, align 8
  %__p.addr = alloca ptr, align 8
  %__z.addr = alloca ptr, align 8
  %__insert_left = alloca i8, align 1
  store ptr %this, ptr %this.addr, align 8
  store ptr %__x, ptr %__x.addr, align 8
  store ptr %__p, ptr %__p.addr, align 8
  store ptr %__z, ptr %__z.addr, align 8
  %this1 = load ptr, ptr %this.addr, align 8
  %0 = load ptr, ptr %__x.addr, align 8
  %cmp = icmp ne ptr %0, null
  br i1 %cmp, label %lor.end, label %lor.lhs.false

lor.lhs.false:                                    ; preds = %entry
  %1 = load ptr, ptr %__p.addr, align 8
  %call = call noundef ptr @_ZNSt8_Rb_treeINSt7__cxx1112basic_stringIcSt11char_traitsIcESaIcEEESt4pairIKS5_PN7Imf_3_216FlatImageChannelEESt10_Select1stISB_ESt4lessIS5_ESaISB_EE6_M_endEv(ptr noundef nonnull align 8 dereferenceable(48) %this1) #3
  %cmp2 = icmp eq ptr %1, %call
  br i1 %cmp2, label %lor.end, label %lor.rhs

lor.rhs:                                          ; preds = %lor.lhs.false
  %_M_impl = getelementptr inbounds %"class.std::_Rb_tree", ptr %this1, i32 0, i32 0
  %_M_key_compare = getelementptr inbounds %"struct.std::_Rb_tree_key_compare", ptr %_M_impl, i32 0, i32 0
  %2 = load ptr, ptr %__z.addr, align 8
  %call3 = call noundef nonnull align 8 dereferenceable(32) ptr @_ZNSt8_Rb_treeINSt7__cxx1112basic_stringIcSt11char_traitsIcESaIcEEESt4pairIKS5_PN7Imf_3_216FlatImageChannelEESt10_Select1stISB_ESt4lessIS5_ESaISB_EE6_S_keyEPKSt13_Rb_tree_nodeISB_E(ptr noundef %2)
  %3 = load ptr, ptr %__p.addr, align 8
  %call4 = call noundef nonnull align 8 dereferenceable(32) ptr @_ZNSt8_Rb_treeINSt7__cxx1112basic_stringIcSt11char_traitsIcESaIcEEESt4pairIKS5_PN7Imf_3_216FlatImageChannelEESt10_Select1stISB_ESt4lessIS5_ESaISB_EE6_S_keyEPKSt18_Rb_tree_node_base(ptr noundef %3)
  %call5 = call noundef zeroext i1 @_ZNKSt4lessINSt7__cxx1112basic_stringIcSt11char_traitsIcESaIcEEEEclERKS5_S8_(ptr noundef nonnull align 1 dereferenceable(1) %_M_key_compare, ptr noundef nonnull align 8 dereferenceable(32) %call3, ptr noundef nonnull align 8 dereferenceable(32) %call4)
  br label %lor.end

lor.end:                                          ; preds = %lor.rhs, %lor.lhs.false, %entry
  %4 = phi i1 [ true, %lor.lhs.false ], [ true, %entry ], [ %call5, %lor.rhs ]
  %frombool = zext i1 %4 to i8
  store i8 %frombool, ptr %__insert_left, align 1
  %5 = load i8, ptr %__insert_left, align 1
  %tobool = trunc i8 %5 to i1
  %6 = load ptr, ptr %__z.addr, align 8
  %7 = load ptr, ptr %__p.addr, align 8
  %_M_impl6 = getelementptr inbounds %"class.std::_Rb_tree", ptr %this1, i32 0, i32 0
  %add.ptr = getelementptr inbounds i8, ptr %_M_impl6, i64 8
  %_M_header = getelementptr inbounds %"struct.std::_Rb_tree_header", ptr %add.ptr, i32 0, i32 0
  call void @_ZSt29_Rb_tree_insert_and_rebalancebPSt18_Rb_tree_node_baseS0_RS_(i1 noundef zeroext %tobool, ptr noundef %6, ptr noundef %7, ptr noundef nonnull align 8 dereferenceable(32) %_M_header) #3
  %_M_impl7 = getelementptr inbounds %"class.std::_Rb_tree", ptr %this1, i32 0, i32 0
  %add.ptr8 = getelementptr inbounds i8, ptr %_M_impl7, i64 8
  %_M_node_count = getelementptr inbounds %"struct.std::_Rb_tree_header", ptr %add.ptr8, i32 0, i32 1
  %8 = load i64, ptr %_M_node_count, align 8
  %inc = add i64 %8, 1
  store i64 %inc, ptr %_M_node_count, align 8
  %9 = load ptr, ptr %__z.addr, align 8
  call void @_ZNSt17_Rb_tree_iteratorISt4pairIKNSt7__cxx1112basic_stringIcSt11char_traitsIcESaIcEEEPN7Imf_3_216FlatImageChannelEEEC2EPSt18_Rb_tree_node_base(ptr noundef nonnull align 8 dereferenceable(8) %retval, ptr noundef %9) #3
  %coerce.dive = getelementptr inbounds %"struct.std::_Rb_tree_iterator", ptr %retval, i32 0, i32 0
  %10 = load ptr, ptr %coerce.dive, align 8
  ret ptr %10
}

; Function Attrs: nounwind
declare void @_ZSt29_Rb_tree_insert_and_rebalancebPSt18_Rb_tree_node_baseS0_RS_(i1 noundef zeroext, ptr noundef, ptr noundef, ptr noundef nonnull align 8 dereferenceable(32)) #2

; Function Attrs: mustprogress uwtable
define linkonce_odr hidden void @_ZNSt11_Tuple_implILm0EJRKNSt7__cxx1112basic_stringIcSt11char_traitsIcESaIcEEEEEC2ES7_(ptr noundef nonnull align 8 dereferenceable(8) %this, ptr noundef nonnull align 8 dereferenceable(32) %__head) unnamed_addr #4 comdat align 2 {
entry:
  %this.addr = alloca ptr, align 8
  %__head.addr = alloca ptr, align 8
  store ptr %this, ptr %this.addr, align 8
  store ptr %__head, ptr %__head.addr, align 8
  %this1 = load ptr, ptr %this.addr, align 8
  %0 = load ptr, ptr %__head.addr, align 8
  call void @_ZNSt10_Head_baseILm0ERKNSt7__cxx1112basic_stringIcSt11char_traitsIcESaIcEEELb0EEC2ES7_(ptr noundef nonnull align 8 dereferenceable(8) %this1, ptr noundef nonnull align 8 dereferenceable(32) %0)
  ret void
}

; Function Attrs: mustprogress nounwind uwtable
define linkonce_odr hidden void @_ZNSt10_Head_baseILm0ERKNSt7__cxx1112basic_stringIcSt11char_traitsIcESaIcEEELb0EEC2ES7_(ptr noundef nonnull align 8 dereferenceable(8) %this, ptr noundef nonnull align 8 dereferenceable(32) %__h) unnamed_addr #5 comdat align 2 {
entry:
  %this.addr = alloca ptr, align 8
  %__h.addr = alloca ptr, align 8
  store ptr %this, ptr %this.addr, align 8
  store ptr %__h, ptr %__h.addr, align 8
  %this1 = load ptr, ptr %this.addr, align 8
  %_M_head_impl = getelementptr inbounds %"struct.std::_Head_base", ptr %this1, i32 0, i32 0
  %0 = load ptr, ptr %__h.addr, align 8
  store ptr %0, ptr %_M_head_impl, align 8
  ret void
}

; Function Attrs: mustprogress uwtable
define linkonce_odr hidden ptr @_ZNSt8_Rb_treeINSt7__cxx1112basic_stringIcSt11char_traitsIcESaIcEEESt4pairIKS5_PN7Imf_3_216FlatImageChannelEESt10_Select1stISB_ESt4lessIS5_ESaISB_EE5eraseB5cxx11ESt17_Rb_tree_iteratorISB_E(ptr noundef nonnull align 8 dereferenceable(48) %this, ptr %__position.coerce) #4 comdat align 2 {
entry:
  %retval = alloca %"struct.std::_Rb_tree_iterator", align 8
  %__position = alloca %"struct.std::_Rb_tree_iterator", align 8
  %this.addr = alloca ptr, align 8
  %agg.tmp = alloca %"struct.std::_Rb_tree_const_iterator", align 8
  %coerce.dive = getelementptr inbounds %"struct.std::_Rb_tree_iterator", ptr %__position, i32 0, i32 0
  store ptr %__position.coerce, ptr %coerce.dive, align 8
  store ptr %this, ptr %this.addr, align 8
  %this1 = load ptr, ptr %this.addr, align 8
  br label %do.body

do.body:                                          ; preds = %entry
  br label %do.end

do.end:                                           ; preds = %do.body
  call void @llvm.memcpy.p0.p0.i64(ptr align 8 %retval, ptr align 8 %__position, i64 8, i1 false)
