; ModuleID = 'bench/assimp/original/FBXMeshGeometry.cpp.ll'
source_filename = "bench/assimp/original/FBXMeshGeometry.cpp.ll"
target datalayout = "e-m:e-p270:32:32-p271:32:32-p272:64:64-i64:64-i128:128-f80:128-n8:16:32:64-S128"
target triple = "x86_64-unknown-linux-gnu"

%"class.std::vector.76" = type { %"struct.std::_Vector_base.77" }
%"struct.std::_Vector_base.77" = type { %"struct.std::_Vector_base<aiVector2t<float>, std::allocator<aiVector2t<float>>>::_Vector_impl" }
%"struct.std::_Vector_base<aiVector2t<float>, std::allocator<aiVector2t<float>>>::_Vector_impl" = type { %"struct.std::_Vector_base<aiVector2t<float>, std::allocator<aiVector2t<float>>>::_Vector_impl_data" }
%"struct.std::_Vector_base<aiVector2t<float>, std::allocator<aiVector2t<float>>>::_Vector_impl_data" = type { ptr, ptr, ptr }
%"class.std::vector.81" = type { %"struct.std::_Vector_base.82" }
%"struct.std::_Vector_base.82" = type { %"struct.std::_Vector_base<aiColor4t<float>, std::allocator<aiColor4t<float>>>::_Vector_impl" }
%"struct.std::_Vector_base<aiColor4t<float>, std::allocator<aiColor4t<float>>>::_Vector_impl" = type { %"struct.std::_Vector_base<aiColor4t<float>, std::allocator<aiColor4t<float>>>::_Vector_impl_data" }
%"struct.std::_Vector_base<aiColor4t<float>, std::allocator<aiColor4t<float>>>::_Vector_impl_data" = type { ptr, ptr, ptr }
%"struct.std::__detail::_AllocNode" = type { ptr }
%"class.std::vector.8" = type { %"struct.std::_Vector_base.9" }
%"struct.std::_Vector_base.9" = type { %"struct.std::_Vector_base<const Assimp::FBX::Connection *, std::allocator<const Assimp::FBX::Connection *>>::_Vector_impl" }
%"struct.std::_Vector_base<const Assimp::FBX::Connection *, std::allocator<const Assimp::FBX::Connection *>>::_Vector_impl" = type { %"struct.std::_Vector_base<const Assimp::FBX::Connection *, std::allocator<const Assimp::FBX::Connection *>>::_Vector_impl_data" }
%"struct.std::_Vector_base<const Assimp::FBX::Connection *, std::allocator<const Assimp::FBX::Connection *>>::_Vector_impl_data" = type { ptr, ptr, ptr }
%"class.Assimp::FBX::Geometry" = type { %"class.Assimp::FBX::Object", ptr, %"class.std::unordered_set" }
%"class.Assimp::FBX::Object" = type { ptr, ptr, %"class.std::__cxx11::basic_string", i64 }
%"class.std::__cxx11::basic_string" = type { %"struct.std::__cxx11::basic_string<char>::_Alloc_hider", i64, %union.anon }
%"struct.std::__cxx11::basic_string<char>::_Alloc_hider" = type { ptr }
%union.anon = type { i64, [8 x i8] }
%"class.std::unordered_set" = type { %"class.std::_Hashtable" }
%"class.std::_Hashtable" = type { ptr, i64, %"struct.std::__detail::_Hash_node_base", i64, %"struct.std::__detail::_Prime_rehash_policy", ptr }
%"struct.std::__detail::_Hash_node_base" = type { ptr }
%"struct.std::__detail::_Prime_rehash_policy" = type { float, i64 }
%"class.std::allocator" = type { i8 }
%"class.Assimp::FBX::Connection" = type { i64, %"class.std::__cxx11::basic_string", i64, i64, ptr }
%"class.std::vector.66" = type { %"struct.std::_Vector_base.67" }
%"struct.std::_Vector_base.67" = type { %"struct.std::_Vector_base<aiVector3t<float>, std::allocator<aiVector3t<float>>>::_Vector_impl" }
%"struct.std::_Vector_base<aiVector3t<float>, std::allocator<aiVector3t<float>>>::_Vector_impl" = type { %"struct.std::_Vector_base<aiVector3t<float>, std::allocator<aiVector3t<float>>>::_Vector_impl_data" }
%"struct.std::_Vector_base<aiVector3t<float>, std::allocator<aiVector3t<float>>>::_Vector_impl_data" = type { ptr, ptr, ptr }
%"class.std::vector.61" = type { %"struct.std::_Vector_base.62" }
%"struct.std::_Vector_base.62" = type { %"struct.std::_Vector_base<int, std::allocator<int>>::_Vector_impl" }
%"struct.std::_Vector_base<int, std::allocator<int>>::_Vector_impl" = type { %"struct.std::_Vector_base<int, std::allocator<int>>::_Vector_impl_data" }
%"struct.std::_Vector_base<int, std::allocator<int>>::_Vector_impl_data" = type { ptr, ptr, ptr }
%"class.Assimp::FBX::MeshGeometry" = type { %"class.Assimp::FBX::Geometry", %"class.std::vector.61", %"class.std::vector.66", %"class.std::vector.71", %"class.std::vector.71", %"class.std::vector.66", %"class.std::vector.66", %"class.std::vector.66", [8 x %"class.std::__cxx11::basic_string"], [8 x %"class.std::vector.76"], [8 x %"class.std::vector.81"], %"class.std::vector.71", %"class.std::vector.71", %"class.std::vector.71" }
%"class.std::vector.71" = type { %"struct.std::_Vector_base.72" }
%"struct.std::_Vector_base.72" = type { %"struct.std::_Vector_base<unsigned int, std::allocator<unsigned int>>::_Vector_impl" }
%"struct.std::_Vector_base<unsigned int, std::allocator<unsigned int>>::_Vector_impl" = type { %"struct.std::_Vector_base<unsigned int, std::allocator<unsigned int>>::_Vector_impl_data" }
%"struct.std::_Vector_base<unsigned int, std::allocator<unsigned int>>::_Vector_impl_data" = type { ptr, ptr, ptr }
%"class.Assimp::FBX::Element" = type { ptr, %"class.std::vector", ptr }
%"class.std::vector" = type { %"struct.std::_Vector_base" }
%"struct.std::_Vector_base" = type { %"struct.std::_Vector_base<const Assimp::FBX::Token *, std::allocator<const Assimp::FBX::Token *>>::_Vector_impl" }
%"struct.std::_Vector_base<const Assimp::FBX::Token *, std::allocator<const Assimp::FBX::Token *>>::_Vector_impl" = type { %"struct.std::_Vector_base<const Assimp::FBX::Token *, std::allocator<const Assimp::FBX::Token *>>::_Vector_impl_data" }
%"struct.std::_Vector_base<const Assimp::FBX::Token *, std::allocator<const Assimp::FBX::Token *>>::_Vector_impl_data" = type { ptr, ptr, ptr }
%class.aiVector3t = type { float, float, float }
%"struct.std::_Rb_tree_node" = type { %"struct.std::_Rb_tree_node_base", %"struct.__gnu_cxx::__aligned_membuf" }
%"struct.std::_Rb_tree_node_base" = type { i32, ptr, ptr, ptr }
%"struct.__gnu_cxx::__aligned_membuf" = type { [40 x i8] }
%"struct.Assimp::FBX::ImportSettings" = type { i8, i8, i8, i8, i8, i8, i8, i8, i8, i8, i8, i8, i8, i8, i8 }
%class.aiVector2t = type { float, float }
%class.aiColor4t = type { float, float, float, float }
%"class.Assimp::FBX::ShapeGeometry" = type { %"class.Assimp::FBX::Geometry", %"class.std::vector.66", %"class.std::vector.66", %"class.std::vector.71" }
%"class.Assimp::FBX::LineGeometry" = type { %"class.Assimp::FBX::Geometry", %"class.std::vector.66", %"class.std::vector.61" }
%struct._Guard = type { ptr }
%"class.Assimp::Formatter::basic_formatter" = type { %"class.std::__cxx11::basic_ostringstream" }
%"class.std::__cxx11::basic_ostringstream" = type { %"class.std::basic_ostream.base", %"class.std::__cxx11::basic_stringbuf", %"class.std::basic_ios" }
%"class.std::basic_ostream.base" = type { ptr }
%"class.std::__cxx11::basic_stringbuf" = type { %"class.std::basic_streambuf", i32, %"class.std::__cxx11::basic_string" }
%"class.std::basic_streambuf" = type { ptr, ptr, ptr, ptr, ptr, ptr, ptr, %"class.std::locale" }
%"class.std::locale" = type { ptr }
%"class.std::basic_ios" = type { %"class.std::ios_base", ptr, i8, i8, ptr, ptr, ptr, ptr }
%"class.std::ios_base" = type { ptr, i64, i64, i32, i32, i32, ptr, %"struct.std::ios_base::_Words", [8 x %"struct.std::ios_base::_Words"], i32, ptr, %"class.std::locale" }
%"struct.std::ios_base::_Words" = type { ptr, i64 }

$_ZN6Assimp3FBX4Util23ProcessSimpleConnectionINS0_4SkinEEEPKT_RKNS0_10ConnectionEbPKcRKNS0_7ElementEPSB_ = comdat any

$_ZN6Assimp3FBX4Util23ProcessSimpleConnectionINS0_10BlendShapeEEEPKT_RKNS0_10ConnectionEbPKcRKNS0_7ElementEPSB_ = comdat any

$_ZNSt13unordered_setIPKN6Assimp3FBX10BlendShapeESt4hashIS4_ESt8equal_toIS4_ESaIS4_EED2Ev = comdat any

$_ZNSt7__cxx1112basic_stringIcSt11char_traitsIcESaIcEEC2IS3_EEPKcRKS3_ = comdat any

$_ZNSt6vectorI9aiColor4tIfESaIS1_EED2Ev = comdat any

$_ZNSt6vectorI10aiVector2tIfESaIS1_EED2Ev = comdat any

$_ZN6Assimp12LogFunctionsINS_11FBXImporterEE8LogErrorIJRA35_KcEEEvDpOT_ = comdat any

$_ZN6Assimp12LogFunctionsINS_11FBXImporterEE8LogErrorIJRA69_KcRiRA12_S4_iRA2_S4_EEEvDpOT_ = comdat any

$_ZN6Assimp3FBX22ResolveVertexDataArrayI10aiVector3tIfEEEvRSt6vectorIT_SaIS5_EERKNS0_5ScopeERKNSt7__cxx1112basic_stringIcSt11char_traitsIcESaIcEEESJ_PKcSL_mRKS4_IjSaIjEESP_SP_ = comdat any

$_ZN6Assimp3FBX22ResolveVertexDataArrayI10aiVector2tIfEEEvRSt6vectorIT_SaIS5_EERKNS0_5ScopeERKNSt7__cxx1112basic_stringIcSt11char_traitsIcESaIcEEESJ_PKcSL_mRKS4_IjSaIjEESP_SP_ = comdat any

$_ZN6Assimp3FBX22ResolveVertexDataArrayI9aiColor4tIfEEEvRSt6vectorIT_SaIS5_EERKNS0_5ScopeERKNSt7__cxx1112basic_stringIcSt11char_traitsIcESaIcEEESJ_PKcSL_mRKS4_IjSaIjEESP_SP_ = comdat any

$_ZNSt6vectorIiSaIiEE6resizeEm = comdat any

$_ZN6Assimp3FBX8GeometryD2Ev = comdat any

$_ZN6Assimp3FBX8GeometryD0Ev = comdat any

$_ZN6Assimp3FBX12MeshGeometryD2Ev = comdat any

$_ZN6Assimp3FBX12MeshGeometryD0Ev = comdat any

$__clang_call_terminate = comdat any

$_ZN6Assimp3FBX6ObjectD2Ev = comdat any

$_ZN6Assimp3FBX6ObjectD0Ev = comdat any

$_ZNKSt8_Rb_treeINSt7__cxx1112basic_stringIcSt11char_traitsIcESaIcEEESt4pairIKS5_PN6Assimp3FBX7ElementEESt10_Select1stISC_ESt4lessIS5_ESaISC_EE11equal_rangeERS7_ = comdat any

$_ZNSt7__cxx1112basic_stringIcSt11char_traitsIcESaIcEE12_M_constructIPKcEEvT_S8_St20forward_iterator_tag = comdat any

$_ZZNSt7__cxx1112basic_stringIcSt11char_traitsIcESaIcEE12_M_constructIPKcEEvT_S8_St20forward_iterator_tagEN6_GuardD2Ev = comdat any

$_ZNSt10_HashtableIPKN6Assimp3FBX10BlendShapeES4_SaIS4_ENSt8__detail9_IdentityESt8equal_toIS4_ESt4hashIS4_ENS6_18_Mod_range_hashingENS6_20_Default_ranged_hashENS6_20_Prime_rehash_policyENS6_17_Hashtable_traitsILb0ELb1ELb1EEEE16_M_insert_uniqueIRKS4_SK_NS6_10_AllocNodeISaINS6_10_Hash_nodeIS4_Lb0EEEEEEEESt4pairINS6_14_Node_iteratorIS4_Lb1ELb0EEEbEOT_OT0_RKT1_ = comdat any

$_ZNSt10_HashtableIPKN6Assimp3FBX10BlendShapeES4_SaIS4_ENSt8__detail9_IdentityESt8equal_toIS4_ESt4hashIS4_ENS6_18_Mod_range_hashingENS6_20_Default_ranged_hashENS6_20_Prime_rehash_policyENS6_17_Hashtable_traitsILb0ELb1ELb1EEEE21_M_insert_unique_nodeEmmPNS6_10_Hash_nodeIS4_Lb0EEEm = comdat any

$_ZNSt10_HashtableIPKN6Assimp3FBX10BlendShapeES4_SaIS4_ENSt8__detail9_IdentityESt8equal_toIS4_ESt4hashIS4_ENS6_18_Mod_range_hashingENS6_20_Default_ranged_hashENS6_20_Prime_rehash_policyENS6_17_Hashtable_traitsILb0ELb1ELb1EEEE13_M_rehash_auxEmSt17integral_constantIbLb1EE = comdat any

$_ZN6Assimp6Logger4warnIJPKcRA33_S2_mEEEvDpOT_ = comdat any

$_ZN6Assimp6Logger13formatMessageIJmERA33_KcEENSt7__cxx1112basic_stringIcSt11char_traitsIcESaIcEEENS_9Formatter15basic_formatterIcS8_S9_EEOT0_DpOT_ = comdat any

$_ZN6Assimp6Logger13formatMessageIJEmEENSt7__cxx1112basic_stringIcSt11char_traitsIcESaIcEEENS_9Formatter15basic_formatterIcS5_S6_EEOT0_DpOT_ = comdat any

$_ZN6Assimp6Logger4warnIJPKcRA34_S2_EEEvDpOT_ = comdat any

$_ZN6Assimp6Logger13formatMessageIJERA34_KcEENSt7__cxx1112basic_stringIcSt11char_traitsIcESaIcEEENS_9Formatter15basic_formatterIcS8_S9_EEOT0_DpOT_ = comdat any

$_ZN6Assimp6Logger4warnIJPKcRA31_S2_EEEvDpOT_ = comdat any

$_ZN6Assimp6Logger13formatMessageIJERA31_KcEENSt7__cxx1112basic_stringIcSt11char_traitsIcESaIcEEENS_9Formatter15basic_formatterIcS8_S9_EEOT0_DpOT_ = comdat any

$_ZNSt6vectorIjSaIjEE17_M_default_appendEm = comdat any

$_ZNSt6vectorIjSaIjEE14_M_fill_insertEN9__gnu_cxx17__normal_iteratorIPjS1_EEmRKj = comdat any

$_ZN6Assimp6Logger4warnIJPKcRA36_S2_EEEvDpOT_ = comdat any

$_ZN6Assimp6Logger13formatMessageIJERA36_KcEENSt7__cxx1112basic_stringIcSt11char_traitsIcESaIcEEENS_9Formatter15basic_formatterIcS8_S9_EEOT0_DpOT_ = comdat any

$_ZN6Assimp6Logger5errorIJPKcRA41_S2_RKNSt7__cxx1112basic_stringIcSt11char_traitsIcESaIcEEERA10_S2_RKiEEEvDpOT_ = comdat any

$_ZN6Assimp6Logger13formatMessageIJRKNSt7__cxx1112basic_stringIcSt11char_traitsIcESaIcEEERA10_KcRKiERA41_SA_EES7_NS_9Formatter15basic_formatterIcS5_S6_EEOT0_DpOT_ = comdat any

$_ZN6Assimp6Logger13formatMessageIJRA10_KcRKiERKNSt7__cxx1112basic_stringIcSt11char_traitsIcESaIcEEEEESC_NS_9Formatter15basic_formatterIcSA_SB_EEOT0_DpOT_ = comdat any

$_ZN6Assimp6Logger13formatMessageIJRKiERA10_KcEENSt7__cxx1112basic_stringIcSt11char_traitsIcESaIcEEENS_9Formatter15basic_formatterIcSA_SB_EEOT0_DpOT_ = comdat any

$_ZN6Assimp6Logger13formatMessageIJERKiEENSt7__cxx1112basic_stringIcSt11char_traitsIcESaIcEEENS_9Formatter15basic_formatterIcS7_S8_EEOT0_DpOT_ = comdat any

$_ZN6Assimp6Logger5errorIJPKcRA60_S2_RiRA12_S2_iRA2_S2_EEEvDpOT_ = comdat any

$_ZN6Assimp6Logger13formatMessageIJRiRA12_KciRA2_S3_ERA60_S3_EENSt7__cxx1112basic_stringIcSt11char_traitsIcESaIcEEENS_9Formatter15basic_formatterIcSD_SE_EEOT0_DpOT_ = comdat any

$_ZN6Assimp6Logger13formatMessageIJRA12_KciRA2_S2_ERiEENSt7__cxx1112basic_stringIcSt11char_traitsIcESaIcEEENS_9Formatter15basic_formatterIcSB_SC_EEOT0_DpOT_ = comdat any

$_ZN6Assimp6Logger13formatMessageIJiRA2_KcERA12_S2_EENSt7__cxx1112basic_stringIcSt11char_traitsIcESaIcEEENS_9Formatter15basic_formatterIcSA_SB_EEOT0_DpOT_ = comdat any

$_ZN6Assimp6Logger13formatMessageIJRA2_KcEiEENSt7__cxx1112basic_stringIcSt11char_traitsIcESaIcEEENS_9Formatter15basic_formatterIcS8_S9_EEOT0_DpOT_ = comdat any

$_ZN6Assimp6Logger13formatMessageIJERA2_KcEENSt7__cxx1112basic_stringIcSt11char_traitsIcESaIcEEENS_9Formatter15basic_formatterIcS8_S9_EEOT0_DpOT_ = comdat any

$_ZN6Assimp6Logger5errorIJPKcRA35_S2_EEEvDpOT_ = comdat any

$_ZN6Assimp6Logger13formatMessageIJERA35_KcEENSt7__cxx1112basic_stringIcSt11char_traitsIcESaIcEEENS_9Formatter15basic_formatterIcS8_S9_EEOT0_DpOT_ = comdat any

$_ZN6Assimp6Logger4warnIJPKcRA47_S2_EEEvDpOT_ = comdat any

$_ZN6Assimp6Logger13formatMessageIJERA47_KcEENSt7__cxx1112basic_stringIcSt11char_traitsIcESaIcEEENS_9Formatter15basic_formatterIcS8_S9_EEOT0_DpOT_ = comdat any

$_ZN6Assimp6Logger5errorIJPKcRA33_S2_EEEvDpOT_ = comdat any

$_ZN6Assimp6Logger13formatMessageIJERA33_KcEENSt7__cxx1112basic_stringIcSt11char_traitsIcESaIcEEENS_9Formatter15basic_formatterIcS8_S9_EEOT0_DpOT_ = comdat any

$_ZN6Assimp6Logger5errorIJPKcRA34_S2_EEEvDpOT_ = comdat any

$_ZN6Assimp6Logger5errorIJPKcRA69_S2_RiRA12_S2_iRA2_S2_EEEvDpOT_ = comdat any

$_ZN6Assimp6Logger13formatMessageIJRiRA12_KciRA2_S3_ERA69_S3_EENSt7__cxx1112basic_stringIcSt11char_traitsIcESaIcEEENS_9Formatter15basic_formatterIcSD_SE_EEOT0_DpOT_ = comdat any

$_ZN6Assimp12LogFunctionsINS_11FBXImporterEE7LogWarnIJRA23_KcRPS4_EEEvDpOT_ = comdat any

$_ZNSt6vectorI10aiVector3tIfESaIS1_EE6resizeEm = comdat any

$_ZN6Assimp12LogFunctionsINS_11FBXImporterEE7LogWarnIJRA61_KcmRA12_S4_RmEEEvDpOT_ = comdat any

$_ZN6Assimp12LogFunctionsINS_11FBXImporterEE8LogErrorIJRA62_KcmRA12_S4_RmEEEvDpOT_ = comdat any

$_ZN6Assimp6Logger4warnIJPKcRA23_S2_RS3_EEEvDpOT_ = comdat any

$_ZN6Assimp6Logger13formatMessageIJRPKcERA23_S2_EENSt7__cxx1112basic_stringIcSt11char_traitsIcESaIcEEENS_9Formatter15basic_formatterIcSA_SB_EEOT0_DpOT_ = comdat any

$_ZN6Assimp6Logger13formatMessageIJERPKcEENSt7__cxx1112basic_stringIcSt11char_traitsIcESaIcEEENS_9Formatter15basic_formatterIcS8_S9_EEOT0_DpOT_ = comdat any

$_ZN6Assimp6Logger5errorIJPKcRA56_S2_mRA12_S2_mEEEvDpOT_ = comdat any

$_ZN6Assimp6Logger13formatMessageIJmRA12_KcmERA56_S2_EENSt7__cxx1112basic_stringIcSt11char_traitsIcESaIcEEENS_9Formatter15basic_formatterIcSA_SB_EEOT0_DpOT_ = comdat any

$_ZN6Assimp6Logger13formatMessageIJRA12_KcmEmEENSt7__cxx1112basic_stringIcSt11char_traitsIcESaIcEEENS_9Formatter15basic_formatterIcS8_S9_EEOT0_DpOT_ = comdat any

$_ZN6Assimp6Logger13formatMessageIJmERA12_KcEENSt7__cxx1112basic_stringIcSt11char_traitsIcESaIcEEENS_9Formatter15basic_formatterIcS8_S9_EEOT0_DpOT_ = comdat any

$_ZNSt6vectorI10aiVector3tIfESaIS1_EE17_M_default_appendEm = comdat any

$_ZN6Assimp6Logger5errorIJPKcRA56_S2_mRA12_S2_RmEEEvDpOT_ = comdat any

$_ZN6Assimp6Logger13formatMessageIJmRA12_KcRmERA56_S2_EENSt7__cxx1112basic_stringIcSt11char_traitsIcESaIcEEENS_9Formatter15basic_formatterIcSB_SC_EEOT0_DpOT_ = comdat any

$_ZN6Assimp6Logger13formatMessageIJRA12_KcRmEmEENSt7__cxx1112basic_stringIcSt11char_traitsIcESaIcEEENS_9Formatter15basic_formatterIcS9_SA_EEOT0_DpOT_ = comdat any

$_ZN6Assimp6Logger13formatMessageIJRmERA12_KcEENSt7__cxx1112basic_stringIcSt11char_traitsIcESaIcEEENS_9Formatter15basic_formatterIcS9_SA_EEOT0_DpOT_ = comdat any

$_ZN6Assimp6Logger13formatMessageIJERmEENSt7__cxx1112basic_stringIcSt11char_traitsIcESaIcEEENS_9Formatter15basic_formatterIcS6_S7_EEOT0_DpOT_ = comdat any

$_ZN6Assimp6Logger4warnIJPKcRA61_S2_mRA12_S2_RmEEEvDpOT_ = comdat any

$_ZN6Assimp6Logger13formatMessageIJmRA12_KcRmERA61_S2_EENSt7__cxx1112basic_stringIcSt11char_traitsIcESaIcEEENS_9Formatter15basic_formatterIcSB_SC_EEOT0_DpOT_ = comdat any

$_ZN6Assimp6Logger5errorIJPKcRA62_S2_mRA12_S2_RmEEEvDpOT_ = comdat any

$_ZN6Assimp6Logger13formatMessageIJmRA12_KcRmERA62_S2_EENSt7__cxx1112basic_stringIcSt11char_traitsIcESaIcEEENS_9Formatter15basic_formatterIcSB_SC_EEOT0_DpOT_ = comdat any

$_ZN6Assimp6Logger5errorIJPKcRA60_S2_RKNSt7__cxx1112basic_stringIcSt11char_traitsIcESaIcEEERA2_S2_SD_EEEvDpOT_ = comdat any

$_ZN6Assimp6Logger13formatMessageIJRKNSt7__cxx1112basic_stringIcSt11char_traitsIcESaIcEEERA2_KcS9_ERA60_SA_EES7_NS_9Formatter15basic_formatterIcS5_S6_EEOT0_DpOT_ = comdat any

$_ZN6Assimp6Logger13formatMessageIJRA2_KcRKNSt7__cxx1112basic_stringIcSt11char_traitsIcESaIcEEEESC_EESA_NS_9Formatter15basic_formatterIcS8_S9_EEOT0_DpOT_ = comdat any

$_ZN6Assimp6Logger13formatMessageIJRKNSt7__cxx1112basic_stringIcSt11char_traitsIcESaIcEEEERA2_KcEES7_NS_9Formatter15basic_formatterIcS5_S6_EEOT0_DpOT_ = comdat any

$_ZN6Assimp6Logger13formatMessageIJERKNSt7__cxx1112basic_stringIcSt11char_traitsIcESaIcEEEEES7_NS_9Formatter15basic_formatterIcS5_S6_EEOT0_DpOT_ = comdat any

$_ZNSt6vectorI10aiVector2tIfESaIS1_EE6resizeEm = comdat any

$_ZNSt6vectorI10aiVector2tIfESaIS1_EE17_M_default_appendEm = comdat any

$_ZNSt6vectorI9aiColor4tIfESaIS1_EE6resizeEm = comdat any

$_ZNSt6vectorI9aiColor4tIfESaIS1_EE17_M_default_appendEm = comdat any

$_ZN6Assimp6Logger4warnIJPKcRA73_S2_EEEvDpOT_ = comdat any

$_ZN6Assimp6Logger13formatMessageIJERA73_KcEENSt7__cxx1112basic_stringIcSt11char_traitsIcESaIcEEENS_9Formatter15basic_formatterIcS8_S9_EEOT0_DpOT_ = comdat any

$_ZNSt6vectorIiSaIiEE17_M_default_appendEm = comdat any

$_ZN6Assimp6Logger5errorIJPKcRA56_S2_mRA12_S2_RKmEEEvDpOT_ = comdat any

$_ZN6Assimp6Logger13formatMessageIJmRA12_KcRKmERA56_S2_EENSt7__cxx1112basic_stringIcSt11char_traitsIcESaIcEEENS_9Formatter15basic_formatterIcSC_SD_EEOT0_DpOT_ = comdat any

$_ZN6Assimp6Logger13formatMessageIJRA12_KcRKmEmEENSt7__cxx1112basic_stringIcSt11char_traitsIcESaIcEEENS_9Formatter15basic_formatterIcSA_SB_EEOT0_DpOT_ = comdat any

$_ZN6Assimp6Logger13formatMessageIJRKmERA12_KcEENSt7__cxx1112basic_stringIcSt11char_traitsIcESaIcEEENS_9Formatter15basic_formatterIcSA_SB_EEOT0_DpOT_ = comdat any

$_ZN6Assimp6Logger13formatMessageIJERKmEENSt7__cxx1112basic_stringIcSt11char_traitsIcESaIcEEENS_9Formatter15basic_formatterIcS7_S8_EEOT0_DpOT_ = comdat any

$_ZN6Assimp6Logger5errorIJPKcRA61_S2_RKNSt7__cxx1112basic_stringIcSt11char_traitsIcESaIcEEERA2_S2_SD_EEEvDpOT_ = comdat any

$_ZN6Assimp6Logger13formatMessageIJRKNSt7__cxx1112basic_stringIcSt11char_traitsIcESaIcEEERA2_KcS9_ERA61_SA_EES7_NS_9Formatter15basic_formatterIcS5_S6_EEOT0_DpOT_ = comdat any

$_ZTVN6Assimp3FBX8GeometryE = comdat any

$_ZTVN6Assimp3FBX12MeshGeometryE = comdat any

$_ZTSN6Assimp3FBX8GeometryE = comdat any

$_ZTSN6Assimp3FBX6ObjectE = comdat any

$_ZTIN6Assimp3FBX6ObjectE = comdat any

$_ZTIN6Assimp3FBX8GeometryE = comdat any

$_ZTSN6Assimp3FBX12MeshGeometryE = comdat any

$_ZTIN6Assimp3FBX12MeshGeometryE = comdat any

$_ZTVN6Assimp3FBX6ObjectE = comdat any

@_ZTVN6Assimp3FBX8GeometryE = linkonce_odr hidden unnamed_addr constant { [4 x ptr] } { [4 x ptr] [ptr null, ptr @_ZTIN6Assimp3FBX8GeometryE, ptr @_ZN6Assimp3FBX8GeometryD2Ev, ptr @_ZN6Assimp3FBX8GeometryD0Ev] }, comdat, align 8
@.str = private unnamed_addr constant [9 x i8] c"Deformer\00", align 1
@.str.1 = private unnamed_addr constant [17 x i8] c"Skin -> Geometry\00", align 1
@.str.2 = private unnamed_addr constant [23 x i8] c"BlendShape -> Geometry\00", align 1
@.str.3 = private unnamed_addr constant [33 x i8] c"there is the same blendShape id \00", align 1
@_ZTVN6Assimp3FBX12MeshGeometryE = linkonce_odr hidden unnamed_addr constant { [4 x ptr] } { [4 x ptr] [ptr null, ptr @_ZTIN6Assimp3FBX12MeshGeometryE, ptr @_ZN6Assimp3FBX12MeshGeometryD2Ev, ptr @_ZN6Assimp3FBX12MeshGeometryD0Ev] }, comdat, align 8
@.str.4 = private unnamed_addr constant [66 x i8] c"failed to read Geometry object (class: Mesh), no data scope found\00", align 1
@.str.5 = private unnamed_addr constant [9 x i8] c"Vertices\00", align 1
@.str.6 = private unnamed_addr constant [19 x i8] c"PolygonVertexIndex\00", align 1
@.str.7 = private unnamed_addr constant [6 x i8] c"Layer\00", align 1
@.str.8 = private unnamed_addr constant [34 x i8] c"encountered mesh with no vertices\00", align 1
@.str.9 = private unnamed_addr constant [31 x i8] c"encountered mesh with no faces\00", align 1
@.str.10 = private unnamed_addr constant [34 x i8] c"polygon vertex index out of range\00", align 1
@.str.11 = private unnamed_addr constant [36 x i8] c"ignoring additional geometry layers\00", align 1
@_ZZNK6Assimp3FBX12MeshGeometry16GetTextureCoordsEjE5empty = internal global %"class.std::vector.76" zeroinitializer, align 8
@_ZGVZNK6Assimp3FBX12MeshGeometry16GetTextureCoordsEjE5empty = internal global i64 0, align 8
@__dso_handle = external hidden global i8
@.str.12 = private unnamed_addr constant [1 x i8] zeroinitializer, align 1
@_ZZNK6Assimp3FBX12MeshGeometry15GetVertexColorsEjE5empty = internal global %"class.std::vector.81" zeroinitializer, align 8
@_ZGVZNK6Assimp3FBX12MeshGeometry15GetVertexColorsEjE5empty = internal global i64 0, align 8
@.str.13 = private unnamed_addr constant [13 x i8] c"LayerElement\00", align 1
@.str.14 = private unnamed_addr constant [5 x i8] c"Type\00", align 1
@.str.15 = private unnamed_addr constant [11 x i8] c"TypedIndex\00", align 1
@.str.16 = private unnamed_addr constant [41 x i8] c"failed to resolve vertex layer element: \00", align 1
@.str.17 = private unnamed_addr constant [10 x i8] c", index: \00", align 1
@.str.18 = private unnamed_addr constant [23 x i8] c"MappingInformationType\00", align 1
@.str.19 = private unnamed_addr constant [25 x i8] c"ReferenceInformationType\00", align 1
@.str.20 = private unnamed_addr constant [15 x i8] c"LayerElementUV\00", align 1
@.str.21 = private unnamed_addr constant [60 x i8] c"ignoring UV layer, maximum number of UV channels exceeded: \00", align 1
@.str.22 = private unnamed_addr constant [12 x i8] c" (limit is \00", align 1
@.str.23 = private unnamed_addr constant [2 x i8] c")\00", align 1
@.str.24 = private unnamed_addr constant [5 x i8] c"Name\00", align 1
@.str.25 = private unnamed_addr constant [21 x i8] c"LayerElementMaterial\00", align 1
@.str.26 = private unnamed_addr constant [35 x i8] c"ignoring additional material layer\00", align 1
@.str.27 = private unnamed_addr constant [47 x i8] c"ignoring dummy material layer (all entries -1)\00", align 1
@.str.28 = private unnamed_addr constant [19 x i8] c"LayerElementNormal\00", align 1
@.str.29 = private unnamed_addr constant [33 x i8] c"ignoring additional normal layer\00", align 1
@.str.30 = private unnamed_addr constant [20 x i8] c"LayerElementTangent\00", align 1
@.str.31 = private unnamed_addr constant [34 x i8] c"ignoring additional tangent layer\00", align 1
@.str.32 = private unnamed_addr constant [21 x i8] c"LayerElementBinormal\00", align 1
@.str.33 = private unnamed_addr constant [35 x i8] c"ignoring additional binormal layer\00", align 1
@.str.34 = private unnamed_addr constant [18 x i8] c"LayerElementColor\00", align 1
@.str.35 = private unnamed_addr constant [69 x i8] c"ignoring vertex color layer, maximum number of color sets exceeded: \00", align 1
@.str.36 = private unnamed_addr constant [8 x i8] c"Normals\00", align 1
@.str.37 = private unnamed_addr constant [13 x i8] c"NormalsIndex\00", align 1
@.str.38 = private unnamed_addr constant [3 x i8] c"UV\00", align 1
@.str.39 = private unnamed_addr constant [8 x i8] c"UVIndex\00", align 1
@.str.40 = private unnamed_addr constant [7 x i8] c"Colors\00", align 1
@.str.41 = private unnamed_addr constant [11 x i8] c"ColorIndex\00", align 1
@.str.42 = private unnamed_addr constant [9 x i8] c"Tangents\00", align 1
@.str.43 = private unnamed_addr constant [8 x i8] c"Tangent\00", align 1
@.str.44 = private unnamed_addr constant [10 x i8] c"Binormals\00", align 1
@.str.45 = private unnamed_addr constant [9 x i8] c"Binormal\00", align 1
@.str.46 = private unnamed_addr constant [10 x i8] c"Materials\00", align 1
@.str.47 = private unnamed_addr constant [8 x i8] c"AllSame\00", align 1
@.str.48 = private unnamed_addr constant [34 x i8] c"expected material index, ignoring\00", align 1
@.str.49 = private unnamed_addr constant [73 x i8] c"expected only a single material index, ignoring all except the first one\00", align 1
@.str.50 = private unnamed_addr constant [10 x i8] c"ByPolygon\00", align 1
@.str.51 = private unnamed_addr constant [14 x i8] c"IndexToDirect\00", align 1
@.str.52 = private unnamed_addr constant [56 x i8] c"length of input data unexpected for ByPolygon mapping: \00", align 1
@.str.53 = private unnamed_addr constant [12 x i8] c", expected \00", align 1
@.str.54 = private unnamed_addr constant [61 x i8] c"ignoring material assignments, access type not implemented: \00", align 1
@.str.55 = private unnamed_addr constant [2 x i8] c",\00", align 1
@_ZTVN6Assimp3FBX13ShapeGeometryE = hidden unnamed_addr constant { [4 x ptr] } { [4 x ptr] [ptr null, ptr @_ZTIN6Assimp3FBX13ShapeGeometryE, ptr @_ZN6Assimp3FBX13ShapeGeometryD2Ev, ptr @_ZN6Assimp3FBX13ShapeGeometryD0Ev] }, align 8
@.str.56 = private unnamed_addr constant [67 x i8] c"failed to read Geometry object (class: Shape), no data scope found\00", align 1
@.str.57 = private unnamed_addr constant [8 x i8] c"Indexes\00", align 1
@_ZTVN6Assimp3FBX12LineGeometryE = hidden unnamed_addr constant { [4 x ptr] } { [4 x ptr] [ptr null, ptr @_ZTIN6Assimp3FBX12LineGeometryE, ptr @_ZN6Assimp3FBX12LineGeometryD2Ev, ptr @_ZN6Assimp3FBX12LineGeometryD0Ev] }, align 8
@.str.58 = private unnamed_addr constant [66 x i8] c"failed to read Geometry object (class: Line), no data scope found\00", align 1
@.str.59 = private unnamed_addr constant [7 x i8] c"Points\00", align 1
@.str.60 = private unnamed_addr constant [12 x i8] c"PointsIndex\00", align 1
@_ZTVN10__cxxabiv120__si_class_type_infoE = external global [0 x ptr]
@_ZTVN10__cxxabiv117__class_type_infoE = external global [0 x ptr]
@_ZTSN6Assimp3FBX13ShapeGeometryE = hidden constant [29 x i8] c"N6Assimp3FBX13ShapeGeometryE\00", align 1
@_ZTSN6Assimp3FBX8GeometryE = linkonce_odr hidden constant [23 x i8] c"N6Assimp3FBX8GeometryE\00", comdat, align 1
@_ZTSN6Assimp3FBX6ObjectE = linkonce_odr hidden constant [21 x i8] c"N6Assimp3FBX6ObjectE\00", comdat, align 1
@_ZTIN6Assimp3FBX6ObjectE = linkonce_odr hidden constant { ptr, ptr } { ptr getelementptr inbounds (ptr, ptr @_ZTVN10__cxxabiv117__class_type_infoE, i64 2), ptr @_ZTSN6Assimp3FBX6ObjectE }, comdat, align 8
@_ZTIN6Assimp3FBX8GeometryE = linkonce_odr hidden constant { ptr, ptr, ptr } { ptr getelementptr inbounds (ptr, ptr @_ZTVN10__cxxabiv120__si_class_type_infoE, i64 2), ptr @_ZTSN6Assimp3FBX8GeometryE, ptr @_ZTIN6Assimp3FBX6ObjectE }, comdat, align 8
@_ZTIN6Assimp3FBX13ShapeGeometryE = hidden constant { ptr, ptr, ptr } { ptr getelementptr inbounds (ptr, ptr @_ZTVN10__cxxabiv120__si_class_type_infoE, i64 2), ptr @_ZTSN6Assimp3FBX13ShapeGeometryE, ptr @_ZTIN6Assimp3FBX8GeometryE }, align 8
@_ZTSN6Assimp3FBX12LineGeometryE = hidden constant [28 x i8] c"N6Assimp3FBX12LineGeometryE\00", align 1
@_ZTIN6Assimp3FBX12LineGeometryE = hidden constant { ptr, ptr, ptr } { ptr getelementptr inbounds (ptr, ptr @_ZTVN10__cxxabiv120__si_class_type_infoE, i64 2), ptr @_ZTSN6Assimp3FBX12LineGeometryE, ptr @_ZTIN6Assimp3FBX8GeometryE }, align 8
@_ZTSN6Assimp3FBX12MeshGeometryE = linkonce_odr hidden constant [28 x i8] c"N6Assimp3FBX12MeshGeometryE\00", comdat, align 1
@_ZTIN6Assimp3FBX12MeshGeometryE = linkonce_odr hidden constant { ptr, ptr, ptr } { ptr getelementptr inbounds (ptr, ptr @_ZTVN10__cxxabiv120__si_class_type_infoE, i64 2), ptr @_ZTSN6Assimp3FBX12MeshGeometryE, ptr @_ZTIN6Assimp3FBX8GeometryE }, comdat, align 8
@_ZTVN6Assimp3FBX6ObjectE = linkonce_odr hidden unnamed_addr constant { [4 x ptr] } { [4 x ptr] [ptr null, ptr @_ZTIN6Assimp3FBX6ObjectE, ptr @_ZN6Assimp3FBX6ObjectD2Ev, ptr @_ZN6Assimp3FBX6ObjectD0Ev] }, comdat, align 8
@.str.61 = private unnamed_addr constant [14 x i8] c"TangentsIndex\00", align 1
@.str.62 = private unnamed_addr constant [13 x i8] c"TangentIndex\00", align 1
@.str.63 = private unnamed_addr constant [15 x i8] c"BinormalsIndex\00", align 1
@.str.64 = private unnamed_addr constant [14 x i8] c"BinormalIndex\00", align 1
@.str.65 = private unnamed_addr constant [50 x i8] c"basic_string: construction from null is not valid\00", align 1
@.str.66 = private unnamed_addr constant [19 x i8] c"expected incoming \00", align 1
@.str.67 = private unnamed_addr constant [50 x i8] c" link to be an object-object connection, ignoring\00", align 1
@.str.68 = private unnamed_addr constant [52 x i8] c" link to be an object-property connection, ignoring\00", align 1
@.str.69 = private unnamed_addr constant [43 x i8] c"failed to read source object for incoming \00", align 1
@.str.70 = private unnamed_addr constant [16 x i8] c" link, ignoring\00", align 1
@_ZTIN6Assimp3FBX4SkinE = external constant ptr
@_ZTIN6Assimp3FBX10BlendShapeE = external constant ptr
@.str.71 = private unnamed_addr constant [16 x i8] c"vector::reserve\00", align 1
@.str.72 = private unnamed_addr constant [26 x i8] c"vector::_M_default_append\00", align 1
@.str.73 = private unnamed_addr constant [23 x i8] c"vector::_M_fill_insert\00", align 1
@.str.74 = private unnamed_addr constant [26 x i8] c"vector::_M_realloc_insert\00", align 1
@.str.75 = private unnamed_addr constant [7 x i8] c"Direct\00", align 1
@.str.76 = private unnamed_addr constant [10 x i8] c"ByVertice\00", align 1
@.str.77 = private unnamed_addr constant [23 x i8] c"missing data element: \00", align 1
@.str.78 = private unnamed_addr constant [56 x i8] c"length of input data unexpected for ByVertice mapping: \00", align 1
@.str.80 = private unnamed_addr constant [19 x i8] c"index out of range\00", align 1
@.str.81 = private unnamed_addr constant [16 x i8] c"ByPolygonVertex\00", align 1
@.str.82 = private unnamed_addr constant [61 x i8] c"trimming length of input array for ByPolygonVertex mapping: \00", align 1
@.str.83 = private unnamed_addr constant [62 x i8] c"length of input data unexpected for ByPolygonVertex mapping: \00", align 1
@.str.84 = private unnamed_addr constant [60 x i8] c"ignoring vertex data channel, access type not implemented: \00", align 1
@.str.85 = private unnamed_addr constant [74 x i8] c"vector::_M_range_check: __n (which is %zu) >= this->size() (which is %zu)\00", align 1

@_ZN6Assimp3FBX8GeometryC1EmRKNS0_7ElementERKNSt7__cxx1112basic_stringIcSt11char_traitsIcESaIcEEERKNS0_8DocumentE = hidden unnamed_addr alias void (ptr, i64, ptr, ptr, ptr), ptr @_ZN6Assimp3FBX8GeometryC2EmRKNS0_7ElementERKNSt7__cxx1112basic_stringIcSt11char_traitsIcESaIcEEERKNS0_8DocumentE
@_ZN6Assimp3FBX12MeshGeometryC1EmRKNS0_7ElementERKNSt7__cxx1112basic_stringIcSt11char_traitsIcESaIcEEERKNS0_8DocumentE = hidden unnamed_addr alias void (ptr, i64, ptr, ptr, ptr), ptr @_ZN6Assimp3FBX12MeshGeometryC2EmRKNS0_7ElementERKNSt7__cxx1112basic_stringIcSt11char_traitsIcESaIcEEERKNS0_8DocumentE
@_ZN6Assimp3FBX13ShapeGeometryC1EmRKNS0_7ElementERKNSt7__cxx1112basic_stringIcSt11char_traitsIcESaIcEEERKNS0_8DocumentE = hidden unnamed_addr alias void (ptr, i64, ptr, ptr, ptr), ptr @_ZN6Assimp3FBX13ShapeGeometryC2EmRKNS0_7ElementERKNSt7__cxx1112basic_stringIcSt11char_traitsIcESaIcEEERKNS0_8DocumentE
@_ZN6Assimp3FBX13ShapeGeometryD1Ev = hidden unnamed_addr alias void (ptr), ptr @_ZN6Assimp3FBX13ShapeGeometryD2Ev
@_ZN6Assimp3FBX12LineGeometryC1EmRKNS0_7ElementERKNSt7__cxx1112basic_stringIcSt11char_traitsIcESaIcEEERKNS0_8DocumentE = hidden unnamed_addr alias void (ptr, i64, ptr, ptr, ptr), ptr @_ZN6Assimp3FBX12LineGeometryC2EmRKNS0_7ElementERKNSt7__cxx1112basic_stringIcSt11char_traitsIcESaIcEEERKNS0_8DocumentE
@_ZN6Assimp3FBX12LineGeometryD1Ev = hidden unnamed_addr alias void (ptr), ptr @_ZN6Assimp3FBX12LineGeometryD2Ev

; Function Attrs: mustprogress uwtable
define hidden void @_ZN6Assimp3FBX8GeometryC2EmRKNS0_7ElementERKNSt7__cxx1112basic_stringIcSt11char_traitsIcESaIcEEERKNS0_8DocumentE(ptr noundef nonnull align 8 dereferenceable(120) %this, i64 noundef %id, ptr noundef nonnull align 8 dereferenceable(40) %element, ptr noundef nonnull align 8 dereferenceable(32) %name, ptr noundef nonnull align 8 dereferenceable(336) %doc) unnamed_addr #0 align 2 personality ptr @__gxx_personality_v0 {
entry:
  %ref.tmp.i = alloca ptr, align 8
  %__node_gen.i.i = alloca %"struct.std::__detail::_AllocNode", align 8
  %ref.tmp = alloca %"class.std::vector.8", align 8
  %bsp = alloca ptr, align 8
  %ref.tmp21 = alloca i64, align 8
  tail call void @_ZN6Assimp3FBX6ObjectC2EmRKNS0_7ElementERKNSt7__cxx1112basic_stringIcSt11char_traitsIcESaIcEEE(ptr noundef nonnull align 8 dereferenceable(56) %this, i64 noundef %id, ptr noundef nonnull align 8 dereferenceable(40) %element, ptr noundef nonnull align 8 dereferenceable(32) %name)
  store ptr getelementptr inbounds ({ [4 x ptr] }, ptr @_ZTVN6Assimp3FBX8GeometryE, i64 0, inrange i32 0, i64 2), ptr %this, align 8
  %skin = getelementptr inbounds %"class.Assimp::FBX::Geometry", ptr %this, i64 0, i32 1
  store ptr null, ptr %skin, align 8
  %blendShapes = getelementptr inbounds %"class.Assimp::FBX::Geometry", ptr %this, i64 0, i32 2
  %_M_single_bucket.i.i = getelementptr inbounds %"class.Assimp::FBX::Geometry", ptr %this, i64 0, i32 2, i32 0, i32 5
  store ptr %_M_single_bucket.i.i, ptr %blendShapes, align 8
  %_M_bucket_count.i.i = getelementptr inbounds %"class.Assimp::FBX::Geometry", ptr %this, i64 0, i32 2, i32 0, i32 1
  store i64 1, ptr %_M_bucket_count.i.i, align 8
  %_M_before_begin.i.i = getelementptr inbounds %"class.Assimp::FBX::Geometry", ptr %this, i64 0, i32 2, i32 0, i32 2
  %_M_rehash_policy.i.i = getelementptr inbounds %"class.Assimp::FBX::Geometry", ptr %this, i64 0, i32 2, i32 0, i32 4
  tail call void @llvm.memset.p0.i64(ptr noundef nonnull align 8 dereferenceable(16) %_M_before_begin.i.i, i8 0, i64 16, i1 false)
  store float 1.000000e+00, ptr %_M_rehash_policy.i.i, align 8
  %_M_next_resize.i.i.i = getelementptr inbounds %"class.Assimp::FBX::Geometry", ptr %this, i64 0, i32 2, i32 0, i32 4, i32 1
  tail call void @llvm.memset.p0.i64(ptr noundef nonnull align 8 dereferenceable(16) %_M_next_resize.i.i.i, i8 0, i64 16, i1 false)
  %id.i = getelementptr inbounds %"class.Assimp::FBX::Object", ptr %this, i64 0, i32 3
  %0 = load i64, ptr %id.i, align 8
  invoke void @_ZNK6Assimp3FBX8Document36GetConnectionsByDestinationSequencedEmPKc(ptr nonnull sret(%"class.std::vector.8") align 8 %ref.tmp, ptr noundef nonnull align 8 dereferenceable(336) %doc, i64 noundef %0, ptr noundef nonnull @.str)
          to label %invoke.cont2 unwind label %lpad

invoke.cont2:                                     ; preds = %entry
  %1 = load ptr, ptr %ref.tmp, align 8
  %_M_finish.i = getelementptr inbounds %"struct.std::_Vector_base<const Assimp::FBX::Connection *, std::allocator<const Assimp::FBX::Connection *>>::_Vector_impl_data", ptr %ref.tmp, i64 0, i32 1
  %2 = load ptr, ptr %_M_finish.i, align 8
  %cmp.i.not17 = icmp eq ptr %1, %2
  br i1 %cmp.i.not17, label %for.end, label %for.body

for.body:                                         ; preds = %invoke.cont2, %for.inc
  %__begin2.sroa.0.018 = phi ptr [ %incdec.ptr.i, %for.inc ], [ %1, %invoke.cont2 ]
  %3 = load ptr, ptr %__begin2.sroa.0.018, align 8
  %call10 = invoke noundef ptr @_ZN6Assimp3FBX4Util23ProcessSimpleConnectionINS0_4SkinEEEPKT_RKNS0_10ConnectionEbPKcRKNS0_7ElementEPSB_(ptr noundef nonnull align 8 dereferenceable(64) %3, i1 noundef zeroext false, ptr noundef nonnull @.str.1, ptr noundef nonnull align 8 dereferenceable(40) %element, ptr noundef null)
          to label %invoke.cont9 unwind label %lpad8

invoke.cont9:                                     ; preds = %for.body
  %tobool.not = icmp eq ptr %call10, null
  br i1 %tobool.not, label %if.end, label %if.then

if.then:                                          ; preds = %invoke.cont9
  store ptr %call10, ptr %skin, align 8
  br label %if.end

lpad:                                             ; preds = %entry
  %4 = landingpad { ptr, i32 }
          cleanup
  br label %ehcleanup

lpad8:                                            ; preds = %call4.i.noexc, %call3.i.noexc, %if.then.i, %if.then20, %if.then15, %if.end, %for.body
  %5 = landingpad { ptr, i32 }
          cleanup
  %6 = load ptr, ptr %ref.tmp, align 8
  %tobool.not.i.i.i = icmp eq ptr %6, null
  br i1 %tobool.not.i.i.i, label %ehcleanup, label %if.then.i.i.i

if.then.i.i.i:                                    ; preds = %lpad8
  call void @_ZdlPv(ptr noundef nonnull %6) #22
  br label %ehcleanup

if.end:                                           ; preds = %if.then, %invoke.cont9
  %call13 = invoke noundef ptr @_ZN6Assimp3FBX4Util23ProcessSimpleConnectionINS0_10BlendShapeEEEPKT_RKNS0_10ConnectionEbPKcRKNS0_7ElementEPSB_(ptr noundef nonnull align 8 dereferenceable(64) %3, i1 noundef zeroext false, ptr noundef nonnull @.str.2, ptr noundef nonnull align 8 dereferenceable(40) %element, ptr noundef null)
          to label %invoke.cont12 unwind label %lpad8

invoke.cont12:                                    ; preds = %if.end
  store ptr %call13, ptr %bsp, align 8
  %tobool14.not = icmp eq ptr %call13, null
  br i1 %tobool14.not, label %for.inc, label %if.then15

if.then15:                                        ; preds = %invoke.cont12
  call void @llvm.lifetime.start.p0(i64 8, ptr nonnull %__node_gen.i.i)
  store ptr %blendShapes, ptr %__node_gen.i.i, align 8
  %call3.i.i.i7 = invoke { ptr, i8 } @_ZNSt10_HashtableIPKN6Assimp3FBX10BlendShapeES4_SaIS4_ENSt8__detail9_IdentityESt8equal_toIS4_ESt4hashIS4_ENS6_18_Mod_range_hashingENS6_20_Default_ranged_hashENS6_20_Prime_rehash_policyENS6_17_Hashtable_traitsILb0ELb1ELb1EEEE16_M_insert_uniqueIRKS4_SK_NS6_10_AllocNodeISaINS6_10_Hash_nodeIS4_Lb0EEEEEEEESt4pairINS6_14_Node_iteratorIS4_Lb1ELb0EEEbEOT_OT0_RKT1_(ptr noundef nonnull align 8 dereferenceable(56) %blendShapes, ptr noundef nonnull align 8 dereferenceable(8) %bsp, ptr noundef nonnull align 8 dereferenceable(8) %bsp, ptr noundef nonnull align 8 dereferenceable(8) %__node_gen.i.i)
          to label %invoke.cont17 unwind label %lpad8

invoke.cont17:                                    ; preds = %if.then15
  call void @llvm.lifetime.end.p0(i64 8, ptr nonnull %__node_gen.i.i)
  %7 = extractvalue { ptr, i8 } %call3.i.i.i7, 1
  %8 = and i8 %7, 1
  %tobool19.not = icmp eq i8 %8, 0
  br i1 %tobool19.not, label %if.then20, label %for.inc

if.then20:                                        ; preds = %invoke.cont17
  %9 = load ptr, ptr %bsp, align 8
  %id.i8 = getelementptr inbounds %"class.Assimp::FBX::Object", ptr %9, i64 0, i32 3
  %10 = load i64, ptr %id.i8, align 8
  store i64 %10, ptr %ref.tmp21, align 8
  call void @llvm.lifetime.start.p0(i64 8, ptr nonnull %ref.tmp.i)
  %call.i9 = invoke noundef zeroext i1 @_ZN6Assimp13DefaultLogger12isNullLoggerEv()
          to label %call.i.noexc unwind label %lpad8

call.i.noexc:                                     ; preds = %if.then20
  br i1 %call.i9, label %_ZN6Assimp12LogFunctionsINS_11FBXImporterEE7LogWarnIJRA33_KcmEEEvDpOT_.exit, label %if.then.i

if.then.i:                                        ; preds = %call.i.noexc
  %call3.i10 = invoke noundef ptr @_ZN6Assimp13DefaultLogger3getEv()
          to label %call3.i.noexc unwind label %lpad8

call3.i.noexc:                                    ; preds = %if.then.i
  %call4.i11 = invoke noundef ptr @_ZN6Assimp12LogFunctionsINS_11FBXImporterEE6PrefixEv()
          to label %call4.i.noexc unwind label %lpad8

call4.i.noexc:                                    ; preds = %call3.i.noexc
  store ptr %call4.i11, ptr %ref.tmp.i, align 8
  invoke void @_ZN6Assimp6Logger4warnIJPKcRA33_S2_mEEEvDpOT_(ptr noundef nonnull align 8 dereferenceable(12) %call3.i10, ptr noundef nonnull align 8 dereferenceable(8) %ref.tmp.i, ptr noundef nonnull align 1 dereferenceable(33) @.str.3, ptr noundef nonnull align 8 dereferenceable(8) %ref.tmp21)
          to label %_ZN6Assimp12LogFunctionsINS_11FBXImporterEE7LogWarnIJRA33_KcmEEEvDpOT_.exit unwind label %lpad8

_ZN6Assimp12LogFunctionsINS_11FBXImporterEE7LogWarnIJRA33_KcmEEEvDpOT_.exit: ; preds = %call4.i.noexc, %call.i.noexc
  call void @llvm.lifetime.end.p0(i64 8, ptr nonnull %ref.tmp.i)
  br label %for.inc

for.inc:                                          ; preds = %_ZN6Assimp12LogFunctionsINS_11FBXImporterEE7LogWarnIJRA33_KcmEEEvDpOT_.exit, %invoke.cont12, %invoke.cont17
  %incdec.ptr.i = getelementptr inbounds ptr, ptr %__begin2.sroa.0.018, i64 1
  %cmp.i.not = icmp eq ptr %incdec.ptr.i, %2
  br i1 %cmp.i.not, label %for.end.loopexit, label %for.body

for.end.loopexit:                                 ; preds = %for.inc
  %.pre = load ptr, ptr %ref.tmp, align 8
  br label %for.end

for.end:                                          ; preds = %for.end.loopexit, %invoke.cont2
  %11 = phi ptr [ %.pre, %for.end.loopexit ], [ %1, %invoke.cont2 ]
  %tobool.not.i.i.i12 = icmp eq ptr %11, null
  br i1 %tobool.not.i.i.i12, label %_ZNSt6vectorIPKN6Assimp3FBX10ConnectionESaIS4_EED2Ev.exit14, label %if.then.i.i.i13

if.then.i.i.i13:                                  ; preds = %for.end
  call void @_ZdlPv(ptr noundef nonnull %11) #22
  br label %_ZNSt6vectorIPKN6Assimp3FBX10ConnectionESaIS4_EED2Ev.exit14

_ZNSt6vectorIPKN6Assimp3FBX10ConnectionESaIS4_EED2Ev.exit14: ; preds = %for.end, %if.then.i.i.i13
  ret void

ehcleanup:                                        ; preds = %if.then.i.i.i, %lpad8, %lpad
  %.pn = phi { ptr, i32 } [ %4, %lpad ], [ %5, %lpad8 ], [ %5, %if.then.i.i.i ]
  call void @_ZNSt13unordered_setIPKN6Assimp3FBX10BlendShapeESt4hashIS4_ESt8equal_toIS4_ESaIS4_EED2Ev(ptr noundef nonnull align 8 dereferenceable(56) %blendShapes) #23
  store ptr getelementptr inbounds ({ [4 x ptr] }, ptr @_ZTVN6Assimp3FBX6ObjectE, i64 0, inrange i32 0, i64 2), ptr %this, align 8
  %name.i = getelementptr inbounds %"class.Assimp::FBX::Object", ptr %this, i64 0, i32 2
  call void @_ZNSt7__cxx1112basic_stringIcSt11char_traitsIcESaIcEED1Ev(ptr noundef nonnull align 8 dereferenceable(32) %name.i) #23
  resume { ptr, i32 } %.pn
}

declare void @_ZN6Assimp3FBX6ObjectC2EmRKNS0_7ElementERKNSt7__cxx1112basic_stringIcSt11char_traitsIcESaIcEEE(ptr noundef nonnull align 8 dereferenceable(56), i64 noundef, ptr noundef nonnull align 8 dereferenceable(40), ptr noundef nonnull align 8 dereferenceable(32)) unnamed_addr #1

declare void @_ZNK6Assimp3FBX8Document36GetConnectionsByDestinationSequencedEmPKc(ptr sret(%"class.std::vector.8") align 8, ptr noundef nonnull align 8 dereferenceable(336), i64 noundef, ptr noundef) local_unnamed_addr #1

declare i32 @__gxx_personality_v0(...)

; Function Attrs: mustprogress uwtable
define linkonce_odr hidden noundef ptr @_ZN6Assimp3FBX4Util23ProcessSimpleConnectionINS0_4SkinEEEPKT_RKNS0_10ConnectionEbPKcRKNS0_7ElementEPSB_(ptr noundef nonnull align 8 dereferenceable(64) %con, i1 noundef zeroext %is_object_property_conn, ptr noundef %name, ptr noundef nonnull align 8 dereferenceable(40) %element, ptr noundef %propNameOut) local_unnamed_addr #0 comdat personality ptr @__gxx_personality_v0 {
entry:
  %ref.tmp = alloca %"class.std::__cxx11::basic_string", align 8
  %ref.tmp3 = alloca %"class.std::__cxx11::basic_string", align 8
  %ref.tmp4 = alloca %"class.std::__cxx11::basic_string", align 8
  %ref.tmp5 = alloca %"class.std::allocator", align 1
  %ref.tmp20 = alloca %"class.std::__cxx11::basic_string", align 8
  %ref.tmp21 = alloca %"class.std::__cxx11::basic_string", align 8
  %ref.tmp22 = alloca %"class.std::__cxx11::basic_string", align 8
  %ref.tmp23 = alloca %"class.std::allocator", align 1
  %ref.tmp47 = alloca %"class.std::__cxx11::basic_string", align 8
  %ref.tmp48 = alloca %"class.std::__cxx11::basic_string", align 8
  %ref.tmp49 = alloca %"class.std::__cxx11::basic_string", align 8
  %ref.tmp50 = alloca %"class.std::allocator", align 1
  %prop.i = getelementptr inbounds %"class.Assimp::FBX::Connection", ptr %con, i64 0, i32 1
  %call1 = tail call noundef i64 @_ZNKSt7__cxx1112basic_stringIcSt11char_traitsIcESaIcEE6lengthEv(ptr noundef nonnull align 8 dereferenceable(32) %prop.i) #23
  %tobool2.not = icmp eq i64 %call1, 0
  br i1 %is_object_property_conn, label %land.lhs.true, label %land.lhs.true15

land.lhs.true:                                    ; preds = %entry
  br i1 %tobool2.not, label %if.then, label %if.end36

if.then:                                          ; preds = %land.lhs.true
  call void @_ZNSaIcEC1Ev(ptr noundef nonnull align 1 dereferenceable(1) %ref.tmp5) #23
  %call.i24 = invoke noundef ptr @_ZNSt7__cxx1112basic_stringIcSt11char_traitsIcESaIcEE13_M_local_dataEv(ptr noundef nonnull align 8 dereferenceable(32) %ref.tmp4)
          to label %call.i.noexc unwind label %lpad

call.i.noexc:                                     ; preds = %if.then
  invoke void @_ZNSt7__cxx1112basic_stringIcSt11char_traitsIcESaIcEE12_Alloc_hiderC1EPcRKS3_(ptr noundef nonnull align 8 dereferenceable(8) %ref.tmp4, ptr noundef %call.i24, ptr noundef nonnull align 1 dereferenceable(1) %ref.tmp5)
          to label %.noexc unwind label %lpad

.noexc:                                           ; preds = %call.i.noexc
  %cmp.i = icmp eq ptr %name, null
  br i1 %cmp.i, label %if.then.i, label %if.end.i

if.then.i:                                        ; preds = %.noexc
  invoke void @_ZSt19__throw_logic_errorPKc(ptr noundef nonnull @.str.65) #24
          to label %invoke.cont.i unwind label %lpad.i

invoke.cont.i:                                    ; preds = %if.then.i
  unreachable

lpad.i:                                           ; preds = %if.end.i, %if.then.i
  %0 = landingpad { ptr, i32 }
          cleanup
  call void @_ZNSaIcED2Ev(ptr noundef nonnull align 1 dereferenceable(1) %ref.tmp4) #23
  br label %eh.resume

if.end.i:                                         ; preds = %.noexc
  %call.i.i = call noundef i64 @strlen(ptr noundef nonnull dereferenceable(1) %name) #23
  %add.ptr.i = getelementptr inbounds i8, ptr %name, i64 %call.i.i
  invoke void @_ZNSt7__cxx1112basic_stringIcSt11char_traitsIcESaIcEE12_M_constructIPKcEEvT_S8_St20forward_iterator_tag(ptr noundef nonnull align 8 dereferenceable(32) %ref.tmp4, ptr noundef nonnull %name, ptr noundef nonnull %add.ptr.i)
          to label %invoke.cont unwind label %lpad.i

invoke.cont:                                      ; preds = %if.end.i
  %call.i26 = invoke noundef nonnull align 8 dereferenceable(32) ptr @_ZNSt7__cxx1112basic_stringIcSt11char_traitsIcESaIcEE6insertEmPKc(ptr noundef nonnull align 8 dereferenceable(32) %ref.tmp4, i64 noundef 0, ptr noundef nonnull @.str.66)
          to label %invoke.cont7 unwind label %lpad6

invoke.cont7:                                     ; preds = %invoke.cont
  call void @_ZNSt7__cxx1112basic_stringIcSt11char_traitsIcESaIcEEC1EOS4_(ptr noundef nonnull align 8 dereferenceable(32) %ref.tmp3, ptr noundef nonnull align 8 dereferenceable(32) %call.i26) #23
  %call.i28 = invoke noundef nonnull align 8 dereferenceable(32) ptr @_ZNSt7__cxx1112basic_stringIcSt11char_traitsIcESaIcEE6appendEPKc(ptr noundef nonnull align 8 dereferenceable(32) %ref.tmp3, ptr noundef nonnull @.str.67)
          to label %invoke.cont9 unwind label %lpad8

invoke.cont9:                                     ; preds = %invoke.cont7
  call void @_ZNSt7__cxx1112basic_stringIcSt11char_traitsIcESaIcEEC1EOS4_(ptr noundef nonnull align 8 dereferenceable(32) %ref.tmp, ptr noundef nonnull align 8 dereferenceable(32) %call.i28) #23
  invoke void @_ZN6Assimp3FBX4Util10DOMWarningERKNSt7__cxx1112basic_stringIcSt11char_traitsIcESaIcEEEPKNS0_7ElementE(ptr noundef nonnull align 8 dereferenceable(32) %ref.tmp, ptr noundef nonnull %element)
          to label %invoke.cont11 unwind label %lpad10

invoke.cont11:                                    ; preds = %invoke.cont9
  call void @_ZNSt7__cxx1112basic_stringIcSt11char_traitsIcESaIcEED1Ev(ptr noundef nonnull align 8 dereferenceable(32) %ref.tmp) #23
  call void @_ZNSt7__cxx1112basic_stringIcSt11char_traitsIcESaIcEED1Ev(ptr noundef nonnull align 8 dereferenceable(32) %ref.tmp3) #23
  call void @_ZNSt7__cxx1112basic_stringIcSt11char_traitsIcESaIcEED1Ev(ptr noundef nonnull align 8 dereferenceable(32) %ref.tmp4) #23
  call void @_ZNSaIcED1Ev(ptr noundef nonnull align 1 dereferenceable(1) %ref.tmp5) #23
  br label %return

lpad:                                             ; preds = %call.i.noexc, %if.then
  %1 = landingpad { ptr, i32 }
          cleanup
  br label %eh.resume

lpad6:                                            ; preds = %invoke.cont
  %2 = landingpad { ptr, i32 }
          cleanup
  br label %ehcleanup12

lpad8:                                            ; preds = %invoke.cont7
  %3 = landingpad { ptr, i32 }
          cleanup
  br label %ehcleanup

lpad10:                                           ; preds = %invoke.cont9
  %4 = landingpad { ptr, i32 }
          cleanup
  call void @_ZNSt7__cxx1112basic_stringIcSt11char_traitsIcESaIcEED1Ev(ptr noundef nonnull align 8 dereferenceable(32) %ref.tmp) #23
  br label %ehcleanup

ehcleanup:                                        ; preds = %lpad10, %lpad8
  %.pn = phi { ptr, i32 } [ %4, %lpad10 ], [ %3, %lpad8 ]
  call void @_ZNSt7__cxx1112basic_stringIcSt11char_traitsIcESaIcEED1Ev(ptr noundef nonnull align 8 dereferenceable(32) %ref.tmp3) #23
  br label %ehcleanup12

ehcleanup12:                                      ; preds = %ehcleanup, %lpad6
  %.pn.pn = phi { ptr, i32 } [ %.pn, %ehcleanup ], [ %2, %lpad6 ]
  call void @_ZNSt7__cxx1112basic_stringIcSt11char_traitsIcESaIcEED1Ev(ptr noundef nonnull align 8 dereferenceable(32) %ref.tmp4) #23
  br label %eh.resume

land.lhs.true15:                                  ; preds = %entry
  br i1 %tobool2.not, label %if.end43, label %if.then19

if.then19:                                        ; preds = %land.lhs.true15
  call void @_ZNSaIcEC1Ev(ptr noundef nonnull align 1 dereferenceable(1) %ref.tmp23) #23
  %call.i38 = invoke noundef ptr @_ZNSt7__cxx1112basic_stringIcSt11char_traitsIcESaIcEE13_M_local_dataEv(ptr noundef nonnull align 8 dereferenceable(32) %ref.tmp22)
          to label %call.i.noexc37 unwind label %lpad24

call.i.noexc37:                                   ; preds = %if.then19
  invoke void @_ZNSt7__cxx1112basic_stringIcSt11char_traitsIcESaIcEE12_Alloc_hiderC1EPcRKS3_(ptr noundef nonnull align 8 dereferenceable(8) %ref.tmp22, ptr noundef %call.i38, ptr noundef nonnull align 1 dereferenceable(1) %ref.tmp23)
          to label %.noexc39 unwind label %lpad24

.noexc39:                                         ; preds = %call.i.noexc37
  %cmp.i30 = icmp eq ptr %name, null
  br i1 %cmp.i30, label %if.then.i35, label %if.end.i31

if.then.i35:                                      ; preds = %.noexc39
  invoke void @_ZSt19__throw_logic_errorPKc(ptr noundef nonnull @.str.65) #24
          to label %invoke.cont.i36 unwind label %lpad.i34

invoke.cont.i36:                                  ; preds = %if.then.i35
  unreachable

lpad.i34:                                         ; preds = %if.end.i31, %if.then.i35
  %5 = landingpad { ptr, i32 }
          cleanup
  call void @_ZNSaIcED2Ev(ptr noundef nonnull align 1 dereferenceable(1) %ref.tmp22) #23
  br label %eh.resume

if.end.i31:                                       ; preds = %.noexc39
  %call.i.i32 = call noundef i64 @strlen(ptr noundef nonnull dereferenceable(1) %name) #23
  %add.ptr.i33 = getelementptr inbounds i8, ptr %name, i64 %call.i.i32
  invoke void @_ZNSt7__cxx1112basic_stringIcSt11char_traitsIcESaIcEE12_M_constructIPKcEEvT_S8_St20forward_iterator_tag(ptr noundef nonnull align 8 dereferenceable(32) %ref.tmp22, ptr noundef nonnull %name, ptr noundef nonnull %add.ptr.i33)
          to label %invoke.cont25 unwind label %lpad.i34

invoke.cont25:                                    ; preds = %if.end.i31
  %call.i43 = invoke noundef nonnull align 8 dereferenceable(32) ptr @_ZNSt7__cxx1112basic_stringIcSt11char_traitsIcESaIcEE6insertEmPKc(ptr noundef nonnull align 8 dereferenceable(32) %ref.tmp22, i64 noundef 0, ptr noundef nonnull @.str.66)
          to label %invoke.cont27 unwind label %lpad26

invoke.cont27:                                    ; preds = %invoke.cont25
  call void @_ZNSt7__cxx1112basic_stringIcSt11char_traitsIcESaIcEEC1EOS4_(ptr noundef nonnull align 8 dereferenceable(32) %ref.tmp21, ptr noundef nonnull align 8 dereferenceable(32) %call.i43) #23
  %call.i46 = invoke noundef nonnull align 8 dereferenceable(32) ptr @_ZNSt7__cxx1112basic_stringIcSt11char_traitsIcESaIcEE6appendEPKc(ptr noundef nonnull align 8 dereferenceable(32) %ref.tmp21, ptr noundef nonnull @.str.68)
          to label %invoke.cont29 unwind label %lpad28

invoke.cont29:                                    ; preds = %invoke.cont27
  call void @_ZNSt7__cxx1112basic_stringIcSt11char_traitsIcESaIcEEC1EOS4_(ptr noundef nonnull align 8 dereferenceable(32) %ref.tmp20, ptr noundef nonnull align 8 dereferenceable(32) %call.i46) #23
  invoke void @_ZN6Assimp3FBX4Util10DOMWarningERKNSt7__cxx1112basic_stringIcSt11char_traitsIcESaIcEEEPKNS0_7ElementE(ptr noundef nonnull align 8 dereferenceable(32) %ref.tmp20, ptr noundef nonnull %element)
          to label %invoke.cont31 unwind label %lpad30

invoke.cont31:                                    ; preds = %invoke.cont29
  call void @_ZNSt7__cxx1112basic_stringIcSt11char_traitsIcESaIcEED1Ev(ptr noundef nonnull align 8 dereferenceable(32) %ref.tmp20) #23
  call void @_ZNSt7__cxx1112basic_stringIcSt11char_traitsIcESaIcEED1Ev(ptr noundef nonnull align 8 dereferenceable(32) %ref.tmp21) #23
  call void @_ZNSt7__cxx1112basic_stringIcSt11char_traitsIcESaIcEED1Ev(ptr noundef nonnull align 8 dereferenceable(32) %ref.tmp22) #23
  call void @_ZNSaIcED1Ev(ptr noundef nonnull align 1 dereferenceable(1) %ref.tmp23) #23
  br label %return

lpad24:                                           ; preds = %call.i.noexc37, %if.then19
  %6 = landingpad { ptr, i32 }
          cleanup
  br label %eh.resume

lpad26:                                           ; preds = %invoke.cont25
  %7 = landingpad { ptr, i32 }
          cleanup
  br label %ehcleanup34

lpad28:                                           ; preds = %invoke.cont27
  %8 = landingpad { ptr, i32 }
          cleanup
  br label %ehcleanup33

lpad30:                                           ; preds = %invoke.cont29
  %9 = landingpad { ptr, i32 }
          cleanup
  call void @_ZNSt7__cxx1112basic_stringIcSt11char_traitsIcESaIcEED1Ev(ptr noundef nonnull align 8 dereferenceable(32) %ref.tmp20) #23
  br label %ehcleanup33

ehcleanup33:                                      ; preds = %lpad30, %lpad28
  %.pn15 = phi { ptr, i32 } [ %9, %lpad30 ], [ %8, %lpad28 ]
  call void @_ZNSt7__cxx1112basic_stringIcSt11char_traitsIcESaIcEED1Ev(ptr noundef nonnull align 8 dereferenceable(32) %ref.tmp21) #23
  br label %ehcleanup34

ehcleanup34:                                      ; preds = %ehcleanup33, %lpad26
  %.pn15.pn = phi { ptr, i32 } [ %.pn15, %ehcleanup33 ], [ %7, %lpad26 ]
  call void @_ZNSt7__cxx1112basic_stringIcSt11char_traitsIcESaIcEED1Ev(ptr noundef nonnull align 8 dereferenceable(32) %ref.tmp22) #23
  br label %eh.resume

if.end36:                                         ; preds = %land.lhs.true
  %tobool39.not = icmp eq ptr %propNameOut, null
  br i1 %tobool39.not, label %if.end43, label %if.then40

if.then40:                                        ; preds = %if.end36
  %call42 = tail call noundef ptr @_ZNKSt7__cxx1112basic_stringIcSt11char_traitsIcESaIcEE5c_strEv(ptr noundef nonnull align 8 dereferenceable(32) %prop.i) #23
  store ptr %call42, ptr %propNameOut, align 8
  br label %if.end43

if.end43:                                         ; preds = %land.lhs.true15, %if.then40, %if.end36
  %call44 = tail call noundef ptr @_ZNK6Assimp3FBX10Connection12SourceObjectEv(ptr noundef nonnull align 8 dereferenceable(64) %con)
  %tobool45.not = icmp eq ptr %call44, null
  br i1 %tobool45.not, label %if.then46, label %dynamic_cast.notnull

if.then46:                                        ; preds = %if.end43
  call void @_ZNSaIcEC1Ev(ptr noundef nonnull align 1 dereferenceable(1) %ref.tmp50) #23
  %call.i57 = invoke noundef ptr @_ZNSt7__cxx1112basic_stringIcSt11char_traitsIcESaIcEE13_M_local_dataEv(ptr noundef nonnull align 8 dereferenceable(32) %ref.tmp49)
          to label %call.i.noexc56 unwind label %lpad51

call.i.noexc56:                                   ; preds = %if.then46
  invoke void @_ZNSt7__cxx1112basic_stringIcSt11char_traitsIcESaIcEE12_Alloc_hiderC1EPcRKS3_(ptr noundef nonnull align 8 dereferenceable(8) %ref.tmp49, ptr noundef %call.i57, ptr noundef nonnull align 1 dereferenceable(1) %ref.tmp50)
          to label %.noexc58 unwind label %lpad51

.noexc58:                                         ; preds = %call.i.noexc56
  %cmp.i49 = icmp eq ptr %name, null
  br i1 %cmp.i49, label %if.then.i54, label %if.end.i50

if.then.i54:                                      ; preds = %.noexc58
  invoke void @_ZSt19__throw_logic_errorPKc(ptr noundef nonnull @.str.65) #24
          to label %invoke.cont.i55 unwind label %lpad.i53

invoke.cont.i55:                                  ; preds = %if.then.i54
  unreachable

lpad.i53:                                         ; preds = %if.end.i50, %if.then.i54
  %10 = landingpad { ptr, i32 }
          cleanup
  call void @_ZNSaIcED2Ev(ptr noundef nonnull align 1 dereferenceable(1) %ref.tmp49) #23
  br label %eh.resume

if.end.i50:                                       ; preds = %.noexc58
  %call.i.i51 = call noundef i64 @strlen(ptr noundef nonnull dereferenceable(1) %name) #23
  %add.ptr.i52 = getelementptr inbounds i8, ptr %name, i64 %call.i.i51
  invoke void @_ZNSt7__cxx1112basic_stringIcSt11char_traitsIcESaIcEE12_M_constructIPKcEEvT_S8_St20forward_iterator_tag(ptr noundef nonnull align 8 dereferenceable(32) %ref.tmp49, ptr noundef nonnull %name, ptr noundef nonnull %add.ptr.i52)
          to label %invoke.cont52 unwind label %lpad.i53

invoke.cont52:                                    ; preds = %if.end.i50
  %call.i62 = invoke noundef nonnull align 8 dereferenceable(32) ptr @_ZNSt7__cxx1112basic_stringIcSt11char_traitsIcESaIcEE6insertEmPKc(ptr noundef nonnull align 8 dereferenceable(32) %ref.tmp49, i64 noundef 0, ptr noundef nonnull @.str.69)
          to label %invoke.cont54 unwind label %lpad53

invoke.cont54:                                    ; preds = %invoke.cont52
  call void @_ZNSt7__cxx1112basic_stringIcSt11char_traitsIcESaIcEEC1EOS4_(ptr noundef nonnull align 8 dereferenceable(32) %ref.tmp48, ptr noundef nonnull align 8 dereferenceable(32) %call.i62) #23
  %call.i65 = invoke noundef nonnull align 8 dereferenceable(32) ptr @_ZNSt7__cxx1112basic_stringIcSt11char_traitsIcESaIcEE6appendEPKc(ptr noundef nonnull align 8 dereferenceable(32) %ref.tmp48, ptr noundef nonnull @.str.70)
          to label %invoke.cont56 unwind label %lpad55

invoke.cont56:                                    ; preds = %invoke.cont54
  call void @_ZNSt7__cxx1112basic_stringIcSt11char_traitsIcESaIcEEC1EOS4_(ptr noundef nonnull align 8 dereferenceable(32) %ref.tmp47, ptr noundef nonnull align 8 dereferenceable(32) %call.i65) #23
  invoke void @_ZN6Assimp3FBX4Util10DOMWarningERKNSt7__cxx1112basic_stringIcSt11char_traitsIcESaIcEEEPKNS0_7ElementE(ptr noundef nonnull align 8 dereferenceable(32) %ref.tmp47, ptr noundef nonnull %element)
          to label %invoke.cont58 unwind label %lpad57

invoke.cont58:                                    ; preds = %invoke.cont56
  call void @_ZNSt7__cxx1112basic_stringIcSt11char_traitsIcESaIcEED1Ev(ptr noundef nonnull align 8 dereferenceable(32) %ref.tmp47) #23
  call void @_ZNSt7__cxx1112basic_stringIcSt11char_traitsIcESaIcEED1Ev(ptr noundef nonnull align 8 dereferenceable(32) %ref.tmp48) #23
  call void @_ZNSt7__cxx1112basic_stringIcSt11char_traitsIcESaIcEED1Ev(ptr noundef nonnull align 8 dereferenceable(32) %ref.tmp49) #23
  call void @_ZNSaIcED1Ev(ptr noundef nonnull align 1 dereferenceable(1) %ref.tmp50) #23
  br label %return

lpad51:                                           ; preds = %call.i.noexc56, %if.then46
  %11 = landingpad { ptr, i32 }
          cleanup
  br label %eh.resume

lpad53:                                           ; preds = %invoke.cont52
  %12 = landingpad { ptr, i32 }
          cleanup
  br label %ehcleanup61

lpad55:                                           ; preds = %invoke.cont54
  %13 = landingpad { ptr, i32 }
          cleanup
  br label %ehcleanup60

lpad57:                                           ; preds = %invoke.cont56
  %14 = landingpad { ptr, i32 }
          cleanup
  call void @_ZNSt7__cxx1112basic_stringIcSt11char_traitsIcESaIcEED1Ev(ptr noundef nonnull align 8 dereferenceable(32) %ref.tmp47) #23
  br label %ehcleanup60

ehcleanup60:                                      ; preds = %lpad57, %lpad55
  %.pn19 = phi { ptr, i32 } [ %14, %lpad57 ], [ %13, %lpad55 ]
  call void @_ZNSt7__cxx1112basic_stringIcSt11char_traitsIcESaIcEED1Ev(ptr noundef nonnull align 8 dereferenceable(32) %ref.tmp48) #23
  br label %ehcleanup61

ehcleanup61:                                      ; preds = %ehcleanup60, %lpad53
  %.pn19.pn = phi { ptr, i32 } [ %.pn19, %ehcleanup60 ], [ %12, %lpad53 ]
  call void @_ZNSt7__cxx1112basic_stringIcSt11char_traitsIcESaIcEED1Ev(ptr noundef nonnull align 8 dereferenceable(32) %ref.tmp49) #23
  br label %eh.resume

dynamic_cast.notnull:                             ; preds = %if.end43
  %15 = tail call ptr @__dynamic_cast(ptr nonnull %call44, ptr nonnull @_ZTIN6Assimp3FBX6ObjectE, ptr nonnull @_ZTIN6Assimp3FBX4SkinE, i64 0) #23
  br label %return

return:                                           ; preds = %dynamic_cast.notnull, %invoke.cont58, %invoke.cont31, %invoke.cont11
  %retval.0 = phi ptr [ %15, %dynamic_cast.notnull ], [ null, %invoke.cont58 ], [ null, %invoke.cont31 ], [ null, %invoke.cont11 ]
  ret ptr %retval.0

eh.resume:                                        ; preds = %ehcleanup61, %lpad.i53, %lpad51, %ehcleanup34, %lpad.i34, %lpad24, %ehcleanup12, %lpad.i, %lpad
  %ref.tmp50.sink = phi ptr [ %ref.tmp5, %lpad ], [ %ref.tmp5, %lpad.i ], [ %ref.tmp5, %ehcleanup12 ], [ %ref.tmp23, %lpad24 ], [ %ref.tmp23, %lpad.i34 ], [ %ref.tmp23, %ehcleanup34 ], [ %ref.tmp50, %lpad51 ], [ %ref.tmp50, %lpad.i53 ], [ %ref.tmp50, %ehcleanup61 ]
  %.pn19.pn.pn.pn = phi { ptr, i32 } [ %1, %lpad ], [ %0, %lpad.i ], [ %.pn.pn, %ehcleanup12 ], [ %6, %lpad24 ], [ %5, %lpad.i34 ], [ %.pn15.pn, %ehcleanup34 ], [ %11, %lpad51 ], [ %10, %lpad.i53 ], [ %.pn19.pn, %ehcleanup61 ]
  call void @_ZNSaIcED1Ev(ptr noundef nonnull align 1 dereferenceable(1) %ref.tmp50.sink) #23
  resume { ptr, i32 } %.pn19.pn.pn.pn
}

; Function Attrs: mustprogress uwtable
define linkonce_odr hidden noundef ptr @_ZN6Assimp3FBX4Util23ProcessSimpleConnectionINS0_10BlendShapeEEEPKT_RKNS0_10ConnectionEbPKcRKNS0_7ElementEPSB_(ptr noundef nonnull align 8 dereferenceable(64) %con, i1 noundef zeroext %is_object_property_conn, ptr noundef %name, ptr noundef nonnull align 8 dereferenceable(40) %element, ptr noundef %propNameOut) local_unnamed_addr #0 comdat personality ptr @__gxx_personality_v0 {
entry:
  %ref.tmp = alloca %"class.std::__cxx11::basic_string", align 8
  %ref.tmp3 = alloca %"class.std::__cxx11::basic_string", align 8
  %ref.tmp4 = alloca %"class.std::__cxx11::basic_string", align 8
  %ref.tmp5 = alloca %"class.std::allocator", align 1
  %ref.tmp20 = alloca %"class.std::__cxx11::basic_string", align 8
  %ref.tmp21 = alloca %"class.std::__cxx11::basic_string", align 8
  %ref.tmp22 = alloca %"class.std::__cxx11::basic_string", align 8
  %ref.tmp23 = alloca %"class.std::allocator", align 1
  %ref.tmp47 = alloca %"class.std::__cxx11::basic_string", align 8
  %ref.tmp48 = alloca %"class.std::__cxx11::basic_string", align 8
  %ref.tmp49 = alloca %"class.std::__cxx11::basic_string", align 8
  %ref.tmp50 = alloca %"class.std::allocator", align 1
  %prop.i = getelementptr inbounds %"class.Assimp::FBX::Connection", ptr %con, i64 0, i32 1
  %call1 = tail call noundef i64 @_ZNKSt7__cxx1112basic_stringIcSt11char_traitsIcESaIcEE6lengthEv(ptr noundef nonnull align 8 dereferenceable(32) %prop.i) #23
  %tobool2.not = icmp eq i64 %call1, 0
  br i1 %is_object_property_conn, label %land.lhs.true, label %land.lhs.true15

land.lhs.true:                                    ; preds = %entry
  br i1 %tobool2.not, label %if.then, label %if.end36

if.then:                                          ; preds = %land.lhs.true
  call void @_ZNSaIcEC1Ev(ptr noundef nonnull align 1 dereferenceable(1) %ref.tmp5) #23
  %call.i24 = invoke noundef ptr @_ZNSt7__cxx1112basic_stringIcSt11char_traitsIcESaIcEE13_M_local_dataEv(ptr noundef nonnull align 8 dereferenceable(32) %ref.tmp4)
          to label %call.i.noexc unwind label %lpad

call.i.noexc:                                     ; preds = %if.then
  invoke void @_ZNSt7__cxx1112basic_stringIcSt11char_traitsIcESaIcEE12_Alloc_hiderC1EPcRKS3_(ptr noundef nonnull align 8 dereferenceable(8) %ref.tmp4, ptr noundef %call.i24, ptr noundef nonnull align 1 dereferenceable(1) %ref.tmp5)
          to label %.noexc unwind label %lpad

.noexc:                                           ; preds = %call.i.noexc
  %cmp.i = icmp eq ptr %name, null
  br i1 %cmp.i, label %if.then.i, label %if.end.i

if.then.i:                                        ; preds = %.noexc
  invoke void @_ZSt19__throw_logic_errorPKc(ptr noundef nonnull @.str.65) #24
          to label %invoke.cont.i unwind label %lpad.i

invoke.cont.i:                                    ; preds = %if.then.i
  unreachable

lpad.i:                                           ; preds = %if.end.i, %if.then.i
  %0 = landingpad { ptr, i32 }
          cleanup
  call void @_ZNSaIcED2Ev(ptr noundef nonnull align 1 dereferenceable(1) %ref.tmp4) #23
  br label %eh.resume

if.end.i:                                         ; preds = %.noexc
  %call.i.i = call noundef i64 @strlen(ptr noundef nonnull dereferenceable(1) %name) #23
  %add.ptr.i = getelementptr inbounds i8, ptr %name, i64 %call.i.i
  invoke void @_ZNSt7__cxx1112basic_stringIcSt11char_traitsIcESaIcEE12_M_constructIPKcEEvT_S8_St20forward_iterator_tag(ptr noundef nonnull align 8 dereferenceable(32) %ref.tmp4, ptr noundef nonnull %name, ptr noundef nonnull %add.ptr.i)
          to label %invoke.cont unwind label %lpad.i

invoke.cont:                                      ; preds = %if.end.i
  %call.i26 = invoke noundef nonnull align 8 dereferenceable(32) ptr @_ZNSt7__cxx1112basic_stringIcSt11char_traitsIcESaIcEE6insertEmPKc(ptr noundef nonnull align 8 dereferenceable(32) %ref.tmp4, i64 noundef 0, ptr noundef nonnull @.str.66)
          to label %invoke.cont7 unwind label %lpad6

invoke.cont7:                                     ; preds = %invoke.cont
  call void @_ZNSt7__cxx1112basic_stringIcSt11char_traitsIcESaIcEEC1EOS4_(ptr noundef nonnull align 8 dereferenceable(32) %ref.tmp3, ptr noundef nonnull align 8 dereferenceable(32) %call.i26) #23
  %call.i28 = invoke noundef nonnull align 8 dereferenceable(32) ptr @_ZNSt7__cxx1112basic_stringIcSt11char_traitsIcESaIcEE6appendEPKc(ptr noundef nonnull align 8 dereferenceable(32) %ref.tmp3, ptr noundef nonnull @.str.67)
          to label %invoke.cont9 unwind label %lpad8

invoke.cont9:                                     ; preds = %invoke.cont7
  call void @_ZNSt7__cxx1112basic_stringIcSt11char_traitsIcESaIcEEC1EOS4_(ptr noundef nonnull align 8 dereferenceable(32) %ref.tmp, ptr noundef nonnull align 8 dereferenceable(32) %call.i28) #23
  invoke void @_ZN6Assimp3FBX4Util10DOMWarningERKNSt7__cxx1112basic_stringIcSt11char_traitsIcESaIcEEEPKNS0_7ElementE(ptr noundef nonnull align 8 dereferenceable(32) %ref.tmp, ptr noundef nonnull %element)
          to label %invoke.cont11 unwind label %lpad10

invoke.cont11:                                    ; preds = %invoke.cont9
  call void @_ZNSt7__cxx1112basic_stringIcSt11char_traitsIcESaIcEED1Ev(ptr noundef nonnull align 8 dereferenceable(32) %ref.tmp) #23
  call void @_ZNSt7__cxx1112basic_stringIcSt11char_traitsIcESaIcEED1Ev(ptr noundef nonnull align 8 dereferenceable(32) %ref.tmp3) #23
  call void @_ZNSt7__cxx1112basic_stringIcSt11char_traitsIcESaIcEED1Ev(ptr noundef nonnull align 8 dereferenceable(32) %ref.tmp4) #23
  call void @_ZNSaIcED1Ev(ptr noundef nonnull align 1 dereferenceable(1) %ref.tmp5) #23
  br label %return

lpad:                                             ; preds = %call.i.noexc, %if.then
  %1 = landingpad { ptr, i32 }
          cleanup
  br label %eh.resume

lpad6:                                            ; preds = %invoke.cont
  %2 = landingpad { ptr, i32 }
          cleanup
  br label %ehcleanup12

lpad8:                                            ; preds = %invoke.cont7
  %3 = landingpad { ptr, i32 }
          cleanup
  br label %ehcleanup

lpad10:                                           ; preds = %invoke.cont9
  %4 = landingpad { ptr, i32 }
          cleanup
  call void @_ZNSt7__cxx1112basic_stringIcSt11char_traitsIcESaIcEED1Ev(ptr noundef nonnull align 8 dereferenceable(32) %ref.tmp) #23
  br label %ehcleanup

ehcleanup:                                        ; preds = %lpad10, %lpad8
  %.pn = phi { ptr, i32 } [ %4, %lpad10 ], [ %3, %lpad8 ]
  call void @_ZNSt7__cxx1112basic_stringIcSt11char_traitsIcESaIcEED1Ev(ptr noundef nonnull align 8 dereferenceable(32) %ref.tmp3) #23
  br label %ehcleanup12

ehcleanup12:                                      ; preds = %ehcleanup, %lpad6
  %.pn.pn = phi { ptr, i32 } [ %.pn, %ehcleanup ], [ %2, %lpad6 ]
  call void @_ZNSt7__cxx1112basic_stringIcSt11char_traitsIcESaIcEED1Ev(ptr noundef nonnull align 8 dereferenceable(32) %ref.tmp4) #23
  br label %eh.resume

land.lhs.true15:                                  ; preds = %entry
  br i1 %tobool2.not, label %if.end43, label %if.then19

if.then19:                                        ; preds = %land.lhs.true15
  call void @_ZNSaIcEC1Ev(ptr noundef nonnull align 1 dereferenceable(1) %ref.tmp23) #23
  %call.i38 = invoke noundef ptr @_ZNSt7__cxx1112basic_stringIcSt11char_traitsIcESaIcEE13_M_local_dataEv(ptr noundef nonnull align 8 dereferenceable(32) %ref.tmp22)
          to label %call.i.noexc37 unwind label %lpad24

call.i.noexc37:                                   ; preds = %if.then19
  invoke void @_ZNSt7__cxx1112basic_stringIcSt11char_traitsIcESaIcEE12_Alloc_hiderC1EPcRKS3_(ptr noundef nonnull align 8 dereferenceable(8) %ref.tmp22, ptr noundef %call.i38, ptr noundef nonnull align 1 dereferenceable(1) %ref.tmp23)
          to label %.noexc39 unwind label %lpad24

.noexc39:                                         ; preds = %call.i.noexc37
  %cmp.i30 = icmp eq ptr %name, null
  br i1 %cmp.i30, label %if.then.i35, label %if.end.i31

if.then.i35:                                      ; preds = %.noexc39
  invoke void @_ZSt19__throw_logic_errorPKc(ptr noundef nonnull @.str.65) #24
          to label %invoke.cont.i36 unwind label %lpad.i34

invoke.cont.i36:                                  ; preds = %if.then.i35
  unreachable

lpad.i34:                                         ; preds = %if.end.i31, %if.then.i35
  %5 = landingpad { ptr, i32 }
          cleanup
  call void @_ZNSaIcED2Ev(ptr noundef nonnull align 1 dereferenceable(1) %ref.tmp22) #23
  br label %eh.resume

if.end.i31:                                       ; preds = %.noexc39
  %call.i.i32 = call noundef i64 @strlen(ptr noundef nonnull dereferenceable(1) %name) #23
  %add.ptr.i33 = getelementptr inbounds i8, ptr %name, i64 %call.i.i32
  invoke void @_ZNSt7__cxx1112basic_stringIcSt11char_traitsIcESaIcEE12_M_constructIPKcEEvT_S8_St20forward_iterator_tag(ptr noundef nonnull align 8 dereferenceable(32) %ref.tmp22, ptr noundef nonnull %name, ptr noundef nonnull %add.ptr.i33)
          to label %invoke.cont25 unwind label %lpad.i34

invoke.cont25:                                    ; preds = %if.end.i31
  %call.i43 = invoke noundef nonnull align 8 dereferenceable(32) ptr @_ZNSt7__cxx1112basic_stringIcSt11char_traitsIcESaIcEE6insertEmPKc(ptr noundef nonnull align 8 dereferenceable(32) %ref.tmp22, i64 noundef 0, ptr noundef nonnull @.str.66)
          to label %invoke.cont27 unwind label %lpad26

invoke.cont27:                                    ; preds = %invoke.cont25
  call void @_ZNSt7__cxx1112basic_stringIcSt11char_traitsIcESaIcEEC1EOS4_(ptr noundef nonnull align 8 dereferenceable(32) %ref.tmp21, ptr noundef nonnull align 8 dereferenceable(32) %call.i43) #23
  %call.i46 = invoke noundef nonnull align 8 dereferenceable(32) ptr @_ZNSt7__cxx1112basic_stringIcSt11char_traitsIcESaIcEE6appendEPKc(ptr noundef nonnull align 8 dereferenceable(32) %ref.tmp21, ptr noundef nonnull @.str.68)
          to label %invoke.cont29 unwind label %lpad28

invoke.cont29:                                    ; preds = %invoke.cont27
  call void @_ZNSt7__cxx1112basic_stringIcSt11char_traitsIcESaIcEEC1EOS4_(ptr noundef nonnull align 8 dereferenceable(32) %ref.tmp20, ptr noundef nonnull align 8 dereferenceable(32) %call.i46) #23
  invoke void @_ZN6Assimp3FBX4Util10DOMWarningERKNSt7__cxx1112basic_stringIcSt11char_traitsIcESaIcEEEPKNS0_7ElementE(ptr noundef nonnull align 8 dereferenceable(32) %ref.tmp20, ptr noundef nonnull %element)
          to label %invoke.cont31 unwind label %lpad30

invoke.cont31:                                    ; preds = %invoke.cont29
  call void @_ZNSt7__cxx1112basic_stringIcSt11char_traitsIcESaIcEED1Ev(ptr noundef nonnull align 8 dereferenceable(32) %ref.tmp20) #23
  call void @_ZNSt7__cxx1112basic_stringIcSt11char_traitsIcESaIcEED1Ev(ptr noundef nonnull align 8 dereferenceable(32) %ref.tmp21) #23
  call void @_ZNSt7__cxx1112basic_stringIcSt11char_traitsIcESaIcEED1Ev(ptr noundef nonnull align 8 dereferenceable(32) %ref.tmp22) #23
  call void @_ZNSaIcED1Ev(ptr noundef nonnull align 1 dereferenceable(1) %ref.tmp23) #23
  br label %return

lpad24:                                           ; preds = %call.i.noexc37, %if.then19
  %6 = landingpad { ptr, i32 }
          cleanup
  br label %eh.resume

lpad26:                                           ; preds = %invoke.cont25
  %7 = landingpad { ptr, i32 }
          cleanup
  br label %ehcleanup34

lpad28:                                           ; preds = %invoke.cont27
  %8 = landingpad { ptr, i32 }
          cleanup
  br label %ehcleanup33

lpad30:                                           ; preds = %invoke.cont29
  %9 = landingpad { ptr, i32 }
          cleanup
  call void @_ZNSt7__cxx1112basic_stringIcSt11char_traitsIcESaIcEED1Ev(ptr noundef nonnull align 8 dereferenceable(32) %ref.tmp20) #23
  br label %ehcleanup33

ehcleanup33:                                      ; preds = %lpad30, %lpad28
  %.pn15 = phi { ptr, i32 } [ %9, %lpad30 ], [ %8, %lpad28 ]
  call void @_ZNSt7__cxx1112basic_stringIcSt11char_traitsIcESaIcEED1Ev(ptr noundef nonnull align 8 dereferenceable(32) %ref.tmp21) #23
  br label %ehcleanup34

ehcleanup34:                                      ; preds = %ehcleanup33, %lpad26
  %.pn15.pn = phi { ptr, i32 } [ %.pn15, %ehcleanup33 ], [ %7, %lpad26 ]
  call void @_ZNSt7__cxx1112basic_stringIcSt11char_traitsIcESaIcEED1Ev(ptr noundef nonnull align 8 dereferenceable(32) %ref.tmp22) #23
  br label %eh.resume

if.end36:                                         ; preds = %land.lhs.true
  %tobool39.not = icmp eq ptr %propNameOut, null
  br i1 %tobool39.not, label %if.end43, label %if.then40

if.then40:                                        ; preds = %if.end36
  %call42 = tail call noundef ptr @_ZNKSt7__cxx1112basic_stringIcSt11char_traitsIcESaIcEE5c_strEv(ptr noundef nonnull align 8 dereferenceable(32) %prop.i) #23
  store ptr %call42, ptr %propNameOut, align 8
  br label %if.end43

if.end43:                                         ; preds = %land.lhs.true15, %if.then40, %if.end36
  %call44 = tail call noundef ptr @_ZNK6Assimp3FBX10Connection12SourceObjectEv(ptr noundef nonnull align 8 dereferenceable(64) %con)
  %tobool45.not = icmp eq ptr %call44, null
  br i1 %tobool45.not, label %if.then46, label %dynamic_cast.notnull

if.then46:                                        ; preds = %if.end43
  call void @_ZNSaIcEC1Ev(ptr noundef nonnull align 1 dereferenceable(1) %ref.tmp50) #23
  %call.i57 = invoke noundef ptr @_ZNSt7__cxx1112basic_stringIcSt11char_traitsIcESaIcEE13_M_local_dataEv(ptr noundef nonnull align 8 dereferenceable(32) %ref.tmp49)
          to label %call.i.noexc56 unwind label %lpad51

call.i.noexc56:                                   ; preds = %if.then46
  invoke void @_ZNSt7__cxx1112basic_stringIcSt11char_traitsIcESaIcEE12_Alloc_hiderC1EPcRKS3_(ptr noundef nonnull align 8 dereferenceable(8) %ref.tmp49, ptr noundef %call.i57, ptr noundef nonnull align 1 dereferenceable(1) %ref.tmp50)
          to label %.noexc58 unwind label %lpad51

.noexc58:                                         ; preds = %call.i.noexc56
  %cmp.i49 = icmp eq ptr %name, null
  br i1 %cmp.i49, label %if.then.i54, label %if.end.i50

if.then.i54:                                      ; preds = %.noexc58
  invoke void @_ZSt19__throw_logic_errorPKc(ptr noundef nonnull @.str.65) #24
          to label %invoke.cont.i55 unwind label %lpad.i53

invoke.cont.i55:                                  ; preds = %if.then.i54
  unreachable

lpad.i53:                                         ; preds = %if.end.i50, %if.then.i54
  %10 = landingpad { ptr, i32 }
          cleanup
  call void @_ZNSaIcED2Ev(ptr noundef nonnull align 1 dereferenceable(1) %ref.tmp49) #23
  br label %eh.resume

if.end.i50:                                       ; preds = %.noexc58
  %call.i.i51 = call noundef i64 @strlen(ptr noundef nonnull dereferenceable(1) %name) #23
  %add.ptr.i52 = getelementptr inbounds i8, ptr %name, i64 %call.i.i51
  invoke void @_ZNSt7__cxx1112basic_stringIcSt11char_traitsIcESaIcEE12_M_constructIPKcEEvT_S8_St20forward_iterator_tag(ptr noundef nonnull align 8 dereferenceable(32) %ref.tmp49, ptr noundef nonnull %name, ptr noundef nonnull %add.ptr.i52)
          to label %invoke.cont52 unwind label %lpad.i53

invoke.cont52:                                    ; preds = %if.end.i50
  %call.i62 = invoke noundef nonnull align 8 dereferenceable(32) ptr @_ZNSt7__cxx1112basic_stringIcSt11char_traitsIcESaIcEE6insertEmPKc(ptr noundef nonnull align 8 dereferenceable(32) %ref.tmp49, i64 noundef 0, ptr noundef nonnull @.str.69)
          to label %invoke.cont54 unwind label %lpad53

invoke.cont54:                                    ; preds = %invoke.cont52
  call void @_ZNSt7__cxx1112basic_stringIcSt11char_traitsIcESaIcEEC1EOS4_(ptr noundef nonnull align 8 dereferenceable(32) %ref.tmp48, ptr noundef nonnull align 8 dereferenceable(32) %call.i62) #23
  %call.i65 = invoke noundef nonnull align 8 dereferenceable(32) ptr @_ZNSt7__cxx1112basic_stringIcSt11char_traitsIcESaIcEE6appendEPKc(ptr noundef nonnull align 8 dereferenceable(32) %ref.tmp48, ptr noundef nonnull @.str.70)
          to label %invoke.cont56 unwind label %lpad55

invoke.cont56:                                    ; preds = %invoke.cont54
  call void @_ZNSt7__cxx1112basic_stringIcSt11char_traitsIcESaIcEEC1EOS4_(ptr noundef nonnull align 8 dereferenceable(32) %ref.tmp47, ptr noundef nonnull align 8 dereferenceable(32) %call.i65) #23
  invoke void @_ZN6Assimp3FBX4Util10DOMWarningERKNSt7__cxx1112basic_stringIcSt11char_traitsIcESaIcEEEPKNS0_7ElementE(ptr noundef nonnull align 8 dereferenceable(32) %ref.tmp47, ptr noundef nonnull %element)
          to label %invoke.cont58 unwind label %lpad57

invoke.cont58:                                    ; preds = %invoke.cont56
  call void @_ZNSt7__cxx1112basic_stringIcSt11char_traitsIcESaIcEED1Ev(ptr noundef nonnull align 8 dereferenceable(32) %ref.tmp47) #23
  call void @_ZNSt7__cxx1112basic_stringIcSt11char_traitsIcESaIcEED1Ev(ptr noundef nonnull align 8 dereferenceable(32) %ref.tmp48) #23
  call void @_ZNSt7__cxx1112basic_stringIcSt11char_traitsIcESaIcEED1Ev(ptr noundef nonnull align 8 dereferenceable(32) %ref.tmp49) #23
  call void @_ZNSaIcED1Ev(ptr noundef nonnull align 1 dereferenceable(1) %ref.tmp50) #23
  br label %return

lpad51:                                           ; preds = %call.i.noexc56, %if.then46
  %11 = landingpad { ptr, i32 }
          cleanup
  br label %eh.resume

lpad53:                                           ; preds = %invoke.cont52
  %12 = landingpad { ptr, i32 }
          cleanup
  br label %ehcleanup61

lpad55:                                           ; preds = %invoke.cont54
  %13 = landingpad { ptr, i32 }
          cleanup
  br label %ehcleanup60

lpad57:                                           ; preds = %invoke.cont56
  %14 = landingpad { ptr, i32 }
          cleanup
  call void @_ZNSt7__cxx1112basic_stringIcSt11char_traitsIcESaIcEED1Ev(ptr noundef nonnull align 8 dereferenceable(32) %ref.tmp47) #23
  br label %ehcleanup60

ehcleanup60:                                      ; preds = %lpad57, %lpad55
  %.pn19 = phi { ptr, i32 } [ %14, %lpad57 ], [ %13, %lpad55 ]
  call void @_ZNSt7__cxx1112basic_stringIcSt11char_traitsIcESaIcEED1Ev(ptr noundef nonnull align 8 dereferenceable(32) %ref.tmp48) #23
  br label %ehcleanup61

ehcleanup61:                                      ; preds = %ehcleanup60, %lpad53
  %.pn19.pn = phi { ptr, i32 } [ %.pn19, %ehcleanup60 ], [ %12, %lpad53 ]
  call void @_ZNSt7__cxx1112basic_stringIcSt11char_traitsIcESaIcEED1Ev(ptr noundef nonnull align 8 dereferenceable(32) %ref.tmp49) #23
  br label %eh.resume

dynamic_cast.notnull:                             ; preds = %if.end43
  %15 = tail call ptr @__dynamic_cast(ptr nonnull %call44, ptr nonnull @_ZTIN6Assimp3FBX6ObjectE, ptr nonnull @_ZTIN6Assimp3FBX10BlendShapeE, i64 0) #23
  br label %return

return:                                           ; preds = %dynamic_cast.notnull, %invoke.cont58, %invoke.cont31, %invoke.cont11
  %retval.0 = phi ptr [ %15, %dynamic_cast.notnull ], [ null, %invoke.cont58 ], [ null, %invoke.cont31 ], [ null, %invoke.cont11 ]
  ret ptr %retval.0

eh.resume:                                        ; preds = %ehcleanup61, %lpad.i53, %lpad51, %ehcleanup34, %lpad.i34, %lpad24, %ehcleanup12, %lpad.i, %lpad
  %ref.tmp50.sink = phi ptr [ %ref.tmp5, %lpad ], [ %ref.tmp5, %lpad.i ], [ %ref.tmp5, %ehcleanup12 ], [ %ref.tmp23, %lpad24 ], [ %ref.tmp23, %lpad.i34 ], [ %ref.tmp23, %ehcleanup34 ], [ %ref.tmp50, %lpad51 ], [ %ref.tmp50, %lpad.i53 ], [ %ref.tmp50, %ehcleanup61 ]
  %.pn19.pn.pn.pn = phi { ptr, i32 } [ %1, %lpad ], [ %0, %lpad.i ], [ %.pn.pn, %ehcleanup12 ], [ %6, %lpad24 ], [ %5, %lpad.i34 ], [ %.pn15.pn, %ehcleanup34 ], [ %11, %lpad51 ], [ %10, %lpad.i53 ], [ %.pn19.pn, %ehcleanup61 ]
  call void @_ZNSaIcED1Ev(ptr noundef nonnull align 1 dereferenceable(1) %ref.tmp50.sink) #23
  resume { ptr, i32 } %.pn19.pn.pn.pn
}

; Function Attrs: mustprogress nounwind uwtable
define linkonce_odr hidden void @_ZNSt13unordered_setIPKN6Assimp3FBX10BlendShapeESt4hashIS4_ESt8equal_toIS4_ESaIS4_EED2Ev(ptr noundef nonnull align 8 dereferenceable(56) %this) unnamed_addr #2 comdat align 2 personality ptr @__gxx_personality_v0 {
entry:
  %_M_before_begin.i.i.i = getelementptr inbounds %"class.std::_Hashtable", ptr %this, i64 0, i32 2
  %0 = load ptr, ptr %_M_before_begin.i.i.i, align 8
  %tobool.not3.i.i.i = icmp eq ptr %0, null
  br i1 %tobool.not3.i.i.i, label %_ZNSt10_HashtableIPKN6Assimp3FBX10BlendShapeES4_SaIS4_ENSt8__detail9_IdentityESt8equal_toIS4_ESt4hashIS4_ENS6_18_Mod_range_hashingENS6_20_Default_ranged_hashENS6_20_Prime_rehash_policyENS6_17_Hashtable_traitsILb0ELb1ELb1EEEE5clearEv.exit.i, label %while.body.i.i.i

while.body.i.i.i:                                 ; preds = %entry, %while.body.i.i.i
  %__n.addr.04.i.i.i = phi ptr [ %1, %while.body.i.i.i ], [ %0, %entry ]
  %1 = load ptr, ptr %__n.addr.04.i.i.i, align 8
  tail call void @_ZdlPv(ptr noundef nonnull %__n.addr.04.i.i.i) #22
  %tobool.not.i.i.i = icmp eq ptr %1, null
  br i1 %tobool.not.i.i.i, label %_ZNSt10_HashtableIPKN6Assimp3FBX10BlendShapeES4_SaIS4_ENSt8__detail9_IdentityESt8equal_toIS4_ESt4hashIS4_ENS6_18_Mod_range_hashingENS6_20_Default_ranged_hashENS6_20_Prime_rehash_policyENS6_17_Hashtable_traitsILb0ELb1ELb1EEEE5clearEv.exit.i, label %while.body.i.i.i, !llvm.loop !4

_ZNSt10_HashtableIPKN6Assimp3FBX10BlendShapeES4_SaIS4_ENSt8__detail9_IdentityESt8equal_toIS4_ESt4hashIS4_ENS6_18_Mod_range_hashingENS6_20_Default_ranged_hashENS6_20_Prime_rehash_policyENS6_17_Hashtable_traitsILb0ELb1ELb1EEEE5clearEv.exit.i: ; preds = %while.body.i.i.i, %entry
  %2 = load ptr, ptr %this, align 8
  %_M_bucket_count.i.i = getelementptr inbounds %"class.std::_Hashtable", ptr %this, i64 0, i32 1
  %3 = load i64, ptr %_M_bucket_count.i.i, align 8
  %mul.i.i = shl i64 %3, 3
  tail call void @llvm.memset.p0.i64(ptr align 8 %2, i8 0, i64 %mul.i.i, i1 false)
  tail call void @llvm.memset.p0.i64(ptr noundef nonnull align 8 dereferenceable(16) %_M_before_begin.i.i.i, i8 0, i64 16, i1 false)
  %4 = load ptr, ptr %this, align 8
  %_M_single_bucket.i.i.i.i = getelementptr inbounds %"class.std::_Hashtable", ptr %this, i64 0, i32 5
  %cmp.i.i.i.i = icmp eq ptr %_M_single_bucket.i.i.i.i, %4
  br i1 %cmp.i.i.i.i, label %_ZNSt10_HashtableIPKN6Assimp3FBX10BlendShapeES4_SaIS4_ENSt8__detail9_IdentityESt8equal_toIS4_ESt4hashIS4_ENS6_18_Mod_range_hashingENS6_20_Default_ranged_hashENS6_20_Prime_rehash_policyENS6_17_Hashtable_traitsILb0ELb1ELb1EEEED2Ev.exit, label %if.end.i.i.i

if.end.i.i.i:                                     ; preds = %_ZNSt10_HashtableIPKN6Assimp3FBX10BlendShapeES4_SaIS4_ENSt8__detail9_IdentityESt8equal_toIS4_ESt4hashIS4_ENS6_18_Mod_range_hashingENS6_20_Default_ranged_hashENS6_20_Prime_rehash_policyENS6_17_Hashtable_traitsILb0ELb1ELb1EEEE5clearEv.exit.i
  tail call void @_ZdlPv(ptr noundef %4) #22
  br label %_ZNSt10_HashtableIPKN6Assimp3FBX10BlendShapeES4_SaIS4_ENSt8__detail9_IdentityESt8equal_toIS4_ESt4hashIS4_ENS6_18_Mod_range_hashingENS6_20_Default_ranged_hashENS6_20_Prime_rehash_policyENS6_17_Hashtable_traitsILb0ELb1ELb1EEEED2Ev.exit

_ZNSt10_HashtableIPKN6Assimp3FBX10BlendShapeES4_SaIS4_ENSt8__detail9_IdentityESt8equal_toIS4_ESt4hashIS4_ENS6_18_Mod_range_hashingENS6_20_Default_ranged_hashENS6_20_Prime_rehash_policyENS6_17_Hashtable_traitsILb0ELb1ELb1EEEED2Ev.exit: ; preds = %_ZNSt10_HashtableIPKN6Assimp3FBX10BlendShapeES4_SaIS4_ENSt8__detail9_IdentityESt8equal_toIS4_ESt4hashIS4_ENS6_18_Mod_range_hashingENS6_20_Default_ranged_hashENS6_20_Prime_rehash_policyENS6_17_Hashtable_traitsILb0ELb1ELb1EEEE5clearEv.exit.i, %if.end.i.i.i
  ret void
}

; Function Attrs: mustprogress nofree norecurse nosync nounwind willreturn memory(none) uwtable
define hidden noundef nonnull align 8 dereferenceable(56) ptr @_ZNK6Assimp3FBX8Geometry14GetBlendShapesEv(ptr noundef nonnull readnone align 8 dereferenceable(120) %this) local_unnamed_addr #3 align 2 {
entry:
  %blendShapes = getelementptr inbounds %"class.Assimp::FBX::Geometry", ptr %this, i64 0, i32 2
  ret ptr %blendShapes
}

; Function Attrs: mustprogress nofree norecurse nosync nounwind willreturn memory(argmem: read) uwtable
define hidden noundef ptr @_ZNK6Assimp3FBX8Geometry12DeformerSkinEv(ptr nocapture noundef nonnull readonly align 8 dereferenceable(120) %this) local_unnamed_addr #4 align 2 {
entry:
  %skin = getelementptr inbounds %"class.Assimp::FBX::Geometry", ptr %this, i64 0, i32 1
  %0 = load ptr, ptr %skin, align 8
  ret ptr %0
}

; Function Attrs: mustprogress uwtable
define hidden void @_ZN6Assimp3FBX12MeshGeometryC2EmRKNS0_7ElementERKNSt7__cxx1112basic_stringIcSt11char_traitsIcESaIcEEERKNS0_8DocumentE(ptr noundef nonnull align 8 dereferenceable(1000) %this, i64 noundef %id, ptr noundef nonnull align 8 dereferenceable(40) %element, ptr noundef nonnull align 8 dereferenceable(32) %name, ptr noundef nonnull align 8 dereferenceable(336) %doc) unnamed_addr #0 align 2 personality ptr @__gxx_personality_v0 {
entry:
  %ref.tmp.i223 = alloca ptr, align 8
  %ref.tmp.i68 = alloca ptr, align 8
  %ref.tmp.i = alloca ptr, align 8
  %ref.tmp = alloca %"class.std::__cxx11::basic_string", align 8
  %ref.tmp16 = alloca %"class.std::allocator", align 1
  %ref.tmp21 = alloca %"class.std::__cxx11::basic_string", align 8
  %ref.tmp22 = alloca %"class.std::allocator", align 1
  %ref.tmp30 = alloca %"class.std::__cxx11::basic_string", align 8
  %ref.tmp31 = alloca %"class.std::allocator", align 1
  %ref.tmp40 = alloca %"class.std::__cxx11::basic_string", align 8
  %ref.tmp41 = alloca %"class.std::allocator", align 1
  %tempVerts = alloca %"class.std::vector.66", align 8
  %tempFaces = alloca %"class.std::vector.61", align 8
  %ref.tmp72 = alloca i32, align 4
  %ref.tmp86 = alloca %"class.std::__cxx11::basic_string", align 8
  %ref.tmp87 = alloca %"class.std::allocator", align 1
  %err = alloca ptr, align 8
  %ref.tmp170 = alloca %"class.std::__cxx11::basic_string", align 8
  %ref.tmp171 = alloca %"class.std::allocator", align 1
  tail call void @_ZN6Assimp3FBX8GeometryC2EmRKNS0_7ElementERKNSt7__cxx1112basic_stringIcSt11char_traitsIcESaIcEEERKNS0_8DocumentE(ptr noundef nonnull align 8 dereferenceable(120) %this, i64 noundef %id, ptr noundef nonnull align 8 dereferenceable(40) %element, ptr noundef nonnull align 8 dereferenceable(32) %name, ptr noundef nonnull align 8 dereferenceable(336) %doc)
  store ptr getelementptr inbounds ({ [4 x ptr] }, ptr @_ZTVN6Assimp3FBX12MeshGeometryE, i64 0, inrange i32 0, i64 2), ptr %this, align 8
  %m_materials = getelementptr inbounds %"class.Assimp::FBX::MeshGeometry", ptr %this, i64 0, i32 1
  %m_vertices = getelementptr inbounds %"class.Assimp::FBX::MeshGeometry", ptr %this, i64 0, i32 2
  %m_faces = getelementptr inbounds %"class.Assimp::FBX::MeshGeometry", ptr %this, i64 0, i32 3
  %m_facesVertexStartIndices = getelementptr inbounds %"class.Assimp::FBX::MeshGeometry", ptr %this, i64 0, i32 4
  %m_tangents = getelementptr inbounds %"class.Assimp::FBX::MeshGeometry", ptr %this, i64 0, i32 5
  %m_binormals = getelementptr inbounds %"class.Assimp::FBX::MeshGeometry", ptr %this, i64 0, i32 6
  %m_normals = getelementptr inbounds %"class.Assimp::FBX::MeshGeometry", ptr %this, i64 0, i32 7
  tail call void @llvm.memset.p0.i64(ptr noundef nonnull align 8 dereferenceable(168) %m_materials, i8 0, i64 168, i1 false)
  br label %arrayctor.loop

arrayctor.loop:                                   ; preds = %arrayctor.loop, %entry
  %arrayctor.cur.idx = phi i64 [ 288, %entry ], [ %arrayctor.cur.add, %arrayctor.loop ]
  %arrayctor.cur.ptr = getelementptr inbounds i8, ptr %this, i64 %arrayctor.cur.idx
  tail call void @_ZNSt7__cxx1112basic_stringIcSt11char_traitsIcESaIcEEC1Ev(ptr noundef nonnull align 8 dereferenceable(32) %arrayctor.cur.ptr) #23
  %arrayctor.cur.add = add nuw nsw i64 %arrayctor.cur.idx, 32
  %arrayctor.done = icmp eq i64 %arrayctor.cur.add, 544
  br i1 %arrayctor.done, label %arrayctor.loop4.preheader, label %arrayctor.loop

arrayctor.loop4.preheader:                        ; preds = %arrayctor.loop
  %scevgep = getelementptr inbounds i8, ptr %this, i64 544
  %m_mapping_counts = getelementptr inbounds %"class.Assimp::FBX::MeshGeometry", ptr %this, i64 0, i32 11
  %m_mapping_offsets = getelementptr inbounds %"class.Assimp::FBX::MeshGeometry", ptr %this, i64 0, i32 12
  %m_mappings = getelementptr inbounds %"class.Assimp::FBX::MeshGeometry", ptr %this, i64 0, i32 13
  %compound.i = getelementptr inbounds %"class.Assimp::FBX::Element", ptr %element, i64 0, i32 2
  tail call void @llvm.memset.p0.i64(ptr noundef nonnull align 8 dereferenceable(456) %scevgep, i8 0, i64 456, i1 false)
  %0 = load ptr, ptr %compound.i, align 8
  %tobool.not = icmp eq ptr %0, null
  br i1 %tobool.not, label %if.then, label %if.end

if.then:                                          ; preds = %arrayctor.loop4.preheader
  call void @_ZNSaIcEC1Ev(ptr noundef nonnull align 1 dereferenceable(1) %ref.tmp16) #23
  invoke void @_ZNSt7__cxx1112basic_stringIcSt11char_traitsIcESaIcEEC2IS3_EEPKcRKS3_(ptr noundef nonnull align 8 dereferenceable(32) %ref.tmp, ptr noundef nonnull @.str.4, ptr noundef nonnull align 1 dereferenceable(1) %ref.tmp16)
          to label %invoke.cont18 unwind label %lpad17

invoke.cont18:                                    ; preds = %if.then
  invoke void @_ZN6Assimp3FBX4Util8DOMErrorERKNSt7__cxx1112basic_stringIcSt11char_traitsIcESaIcEEEPKNS0_7ElementE(ptr noundef nonnull align 8 dereferenceable(32) %ref.tmp, ptr noundef null) #24
          to label %invoke.cont20 unwind label %lpad19

invoke.cont20:                                    ; preds = %invoke.cont18
  unreachable

lpad17:                                           ; preds = %if.then
  %1 = landingpad { ptr, i32 }
          cleanup
  br label %ehcleanup

lpad19:                                           ; preds = %invoke.cont18
  %2 = landingpad { ptr, i32 }
          cleanup
  call void @_ZNSt7__cxx1112basic_stringIcSt11char_traitsIcESaIcEED1Ev(ptr noundef nonnull align 8 dereferenceable(32) %ref.tmp) #23
  br label %ehcleanup

ehcleanup:                                        ; preds = %lpad19, %lpad17
  %.pn = phi { ptr, i32 } [ %2, %lpad19 ], [ %1, %lpad17 ]
  call void @_ZNSaIcED1Ev(ptr noundef nonnull align 1 dereferenceable(1) %ref.tmp16) #23
  br label %ehcleanup196

if.end:                                           ; preds = %arrayctor.loop4.preheader
  call void @_ZNSaIcEC1Ev(ptr noundef nonnull align 1 dereferenceable(1) %ref.tmp22) #23
  %call.i42 = invoke noundef ptr @_ZNSt7__cxx1112basic_stringIcSt11char_traitsIcESaIcEE13_M_local_dataEv(ptr noundef nonnull align 8 dereferenceable(32) %ref.tmp21)
          to label %call.i.noexc unwind label %lpad23

call.i.noexc:                                     ; preds = %if.end
  invoke void @_ZNSt7__cxx1112basic_stringIcSt11char_traitsIcESaIcEE12_Alloc_hiderC1EPcRKS3_(ptr noundef nonnull align 8 dereferenceable(8) %ref.tmp21, ptr noundef %call.i42, ptr noundef nonnull align 1 dereferenceable(1) %ref.tmp22)
          to label %.noexc unwind label %lpad23

.noexc:                                           ; preds = %call.i.noexc
  invoke void @_ZNSt7__cxx1112basic_stringIcSt11char_traitsIcESaIcEE12_M_constructIPKcEEvT_S8_St20forward_iterator_tag(ptr noundef nonnull align 8 dereferenceable(32) %ref.tmp21, ptr noundef nonnull @.str.5, ptr noundef nonnull getelementptr inbounds ([9 x i8], ptr @.str.5, i64 0, i64 8))
          to label %invoke.cont24 unwind label %lpad.i

lpad.i:                                           ; preds = %.noexc
  %3 = landingpad { ptr, i32 }
          cleanup
  call void @_ZNSaIcED2Ev(ptr noundef nonnull align 1 dereferenceable(1) %ref.tmp21) #23
  br label %ehcleanup29

invoke.cont24:                                    ; preds = %.noexc
  %call27 = invoke noundef nonnull align 8 dereferenceable(40) ptr @_ZN6Assimp3FBX18GetRequiredElementERKNS0_5ScopeERKNSt7__cxx1112basic_stringIcSt11char_traitsIcESaIcEEEPKNS0_7ElementE(ptr noundef nonnull align 8 dereferenceable(48) %0, ptr noundef nonnull align 8 dereferenceable(32) %ref.tmp21, ptr noundef nonnull %element)
          to label %invoke.cont26 unwind label %lpad25

invoke.cont26:                                    ; preds = %invoke.cont24
  call void @_ZNSt7__cxx1112basic_stringIcSt11char_traitsIcESaIcEED1Ev(ptr noundef nonnull align 8 dereferenceable(32) %ref.tmp21) #23
  call void @_ZNSaIcED1Ev(ptr noundef nonnull align 1 dereferenceable(1) %ref.tmp22) #23
  call void @_ZNSaIcEC1Ev(ptr noundef nonnull align 1 dereferenceable(1) %ref.tmp31) #23
  %call.i47 = invoke noundef ptr @_ZNSt7__cxx1112basic_stringIcSt11char_traitsIcESaIcEE13_M_local_dataEv(ptr noundef nonnull align 8 dereferenceable(32) %ref.tmp30)
          to label %call.i.noexc46 unwind label %lpad32

call.i.noexc46:                                   ; preds = %invoke.cont26
  invoke void @_ZNSt7__cxx1112basic_stringIcSt11char_traitsIcESaIcEE12_Alloc_hiderC1EPcRKS3_(ptr noundef nonnull align 8 dereferenceable(8) %ref.tmp30, ptr noundef %call.i47, ptr noundef nonnull align 1 dereferenceable(1) %ref.tmp31)
          to label %.noexc48 unwind label %lpad32

.noexc48:                                         ; preds = %call.i.noexc46
  invoke void @_ZNSt7__cxx1112basic_stringIcSt11char_traitsIcESaIcEE12_M_constructIPKcEEvT_S8_St20forward_iterator_tag(ptr noundef nonnull align 8 dereferenceable(32) %ref.tmp30, ptr noundef nonnull @.str.6, ptr noundef nonnull getelementptr inbounds ([19 x i8], ptr @.str.6, i64 0, i64 18))
          to label %invoke.cont33 unwind label %lpad.i45

lpad.i45:                                         ; preds = %.noexc48
  %4 = landingpad { ptr, i32 }
          cleanup
  call void @_ZNSaIcED2Ev(ptr noundef nonnull align 1 dereferenceable(1) %ref.tmp30) #23
  br label %ehcleanup38

invoke.cont33:                                    ; preds = %.noexc48
  %call36 = invoke noundef nonnull align 8 dereferenceable(40) ptr @_ZN6Assimp3FBX18GetRequiredElementERKNS0_5ScopeERKNSt7__cxx1112basic_stringIcSt11char_traitsIcESaIcEEEPKNS0_7ElementE(ptr noundef nonnull align 8 dereferenceable(48) %0, ptr noundef nonnull align 8 dereferenceable(32) %ref.tmp30, ptr noundef nonnull %element)
          to label %invoke.cont35 unwind label %lpad34

invoke.cont35:                                    ; preds = %invoke.cont33
  call void @_ZNSt7__cxx1112basic_stringIcSt11char_traitsIcESaIcEED1Ev(ptr noundef nonnull align 8 dereferenceable(32) %ref.tmp30) #23
  call void @_ZNSaIcED1Ev(ptr noundef nonnull align 1 dereferenceable(1) %ref.tmp31) #23
  call void @_ZNSaIcEC1Ev(ptr noundef nonnull align 1 dereferenceable(1) %ref.tmp41) #23
  %call.i55 = invoke noundef ptr @_ZNSt7__cxx1112basic_stringIcSt11char_traitsIcESaIcEE13_M_local_dataEv(ptr noundef nonnull align 8 dereferenceable(32) %ref.tmp40)
          to label %call.i.noexc54 unwind label %lpad42

call.i.noexc54:                                   ; preds = %invoke.cont35
  invoke void @_ZNSt7__cxx1112basic_stringIcSt11char_traitsIcESaIcEE12_Alloc_hiderC1EPcRKS3_(ptr noundef nonnull align 8 dereferenceable(8) %ref.tmp40, ptr noundef %call.i55, ptr noundef nonnull align 1 dereferenceable(1) %ref.tmp41)
          to label %.noexc56 unwind label %lpad42

.noexc56:                                         ; preds = %call.i.noexc54
  invoke void @_ZNSt7__cxx1112basic_stringIcSt11char_traitsIcESaIcEE12_M_constructIPKcEEvT_S8_St20forward_iterator_tag(ptr noundef nonnull align 8 dereferenceable(32) %ref.tmp40, ptr noundef nonnull @.str.7, ptr noundef nonnull getelementptr inbounds ([6 x i8], ptr @.str.7, i64 0, i64 5))
          to label %invoke.cont43 unwind label %lpad.i53

lpad.i53:                                         ; preds = %.noexc56
  %5 = landingpad { ptr, i32 }
          cleanup
  call void @_ZNSaIcED2Ev(ptr noundef nonnull align 1 dereferenceable(1) %ref.tmp40) #23
  br label %ehcleanup48

invoke.cont43:                                    ; preds = %.noexc56
  %call.i.i5960 = invoke { ptr, ptr } @_ZNKSt8_Rb_treeINSt7__cxx1112basic_stringIcSt11char_traitsIcESaIcEEESt4pairIKS5_PN6Assimp3FBX7ElementEESt10_Select1stISC_ESt4lessIS5_ESaISC_EE11equal_rangeERS7_(ptr noundef nonnull align 8 dereferenceable(48) %0, ptr noundef nonnull align 8 dereferenceable(32) %ref.tmp40)
          to label %invoke.cont45 unwind label %lpad44

invoke.cont45:                                    ; preds = %invoke.cont43
  %6 = extractvalue { ptr, ptr } %call.i.i5960, 0
  %7 = extractvalue { ptr, ptr } %call.i.i5960, 1
  call void @_ZNSt7__cxx1112basic_stringIcSt11char_traitsIcESaIcEED1Ev(ptr noundef nonnull align 8 dereferenceable(32) %ref.tmp40) #23
  call void @_ZNSaIcED1Ev(ptr noundef nonnull align 1 dereferenceable(1) %ref.tmp41) #23
  call void @llvm.memset.p0.i64(ptr noundef nonnull align 8 dereferenceable(24) %tempVerts, i8 0, i64 24, i1 false)
  invoke void @_ZN6Assimp3FBX20ParseVectorDataArrayERSt6vectorI10aiVector3tIfESaIS3_EERKNS0_7ElementE(ptr noundef nonnull align 8 dereferenceable(24) %tempVerts, ptr noundef nonnull align 8 dereferenceable(40) %call27)
          to label %invoke.cont50 unwind label %lpad49

invoke.cont50:                                    ; preds = %invoke.cont45
  %8 = load ptr, ptr %tempVerts, align 8
  %_M_finish.i.i = getelementptr inbounds %"struct.std::_Vector_base<aiVector3t<float>, std::allocator<aiVector3t<float>>>::_Vector_impl_data", ptr %tempVerts, i64 0, i32 1
  %9 = load ptr, ptr %_M_finish.i.i, align 8
  %cmp.i.i = icmp eq ptr %8, %9
  br i1 %cmp.i.i, label %if.then52, label %if.end54

if.then52:                                        ; preds = %invoke.cont50
  call void @llvm.lifetime.start.p0(i64 8, ptr nonnull %ref.tmp.i)
  %call.i62 = invoke noundef zeroext i1 @_ZN6Assimp13DefaultLogger12isNullLoggerEv()
          to label %call.i.noexc61 unwind label %lpad49

call.i.noexc61:                                   ; preds = %if.then52
  br i1 %call.i62, label %_ZN6Assimp12LogFunctionsINS_11FBXImporterEE7LogWarnIJRA34_KcEEEvDpOT_.exit, label %if.then.i

if.then.i:                                        ; preds = %call.i.noexc61
  %call1.i63 = invoke noundef ptr @_ZN6Assimp13DefaultLogger3getEv()
          to label %call1.i.noexc unwind label %lpad49

call1.i.noexc:                                    ; preds = %if.then.i
  %call2.i64 = invoke noundef ptr @_ZN6Assimp12LogFunctionsINS_11FBXImporterEE6PrefixEv()
          to label %call2.i.noexc unwind label %lpad49

call2.i.noexc:                                    ; preds = %call1.i.noexc
  store ptr %call2.i64, ptr %ref.tmp.i, align 8
  invoke void @_ZN6Assimp6Logger4warnIJPKcRA34_S2_EEEvDpOT_(ptr noundef nonnull align 8 dereferenceable(12) %call1.i63, ptr noundef nonnull align 8 dereferenceable(8) %ref.tmp.i, ptr noundef nonnull align 1 dereferenceable(34) @.str.8)
          to label %_ZN6Assimp12LogFunctionsINS_11FBXImporterEE7LogWarnIJRA34_KcEEEvDpOT_.exit unwind label %lpad49

_ZN6Assimp12LogFunctionsINS_11FBXImporterEE7LogWarnIJRA34_KcEEEvDpOT_.exit: ; preds = %call2.i.noexc, %call.i.noexc61
  call void @llvm.lifetime.end.p0(i64 8, ptr nonnull %ref.tmp.i)
  br label %if.end54

lpad23:                                           ; preds = %call.i.noexc, %if.end
  %10 = landingpad { ptr, i32 }
          cleanup
  br label %ehcleanup29

lpad25:                                           ; preds = %invoke.cont24
  %11 = landingpad { ptr, i32 }
          cleanup
  call void @_ZNSt7__cxx1112basic_stringIcSt11char_traitsIcESaIcEED1Ev(ptr noundef nonnull align 8 dereferenceable(32) %ref.tmp21) #23
  br label %ehcleanup29

ehcleanup29:                                      ; preds = %lpad23, %lpad.i, %lpad25
  %.pn28 = phi { ptr, i32 } [ %11, %lpad25 ], [ %10, %lpad23 ], [ %3, %lpad.i ]
  call void @_ZNSaIcED1Ev(ptr noundef nonnull align 1 dereferenceable(1) %ref.tmp22) #23
  br label %ehcleanup196

lpad32:                                           ; preds = %call.i.noexc46, %invoke.cont26
  %12 = landingpad { ptr, i32 }
          cleanup
  br label %ehcleanup38

lpad34:                                           ; preds = %invoke.cont33
  %13 = landingpad { ptr, i32 }
          cleanup
  call void @_ZNSt7__cxx1112basic_stringIcSt11char_traitsIcESaIcEED1Ev(ptr noundef nonnull align 8 dereferenceable(32) %ref.tmp30) #23
  br label %ehcleanup38

ehcleanup38:                                      ; preds = %lpad32, %lpad.i45, %lpad34
  %.pn30 = phi { ptr, i32 } [ %13, %lpad34 ], [ %12, %lpad32 ], [ %4, %lpad.i45 ]
  call void @_ZNSaIcED1Ev(ptr noundef nonnull align 1 dereferenceable(1) %ref.tmp31) #23
  br label %ehcleanup196

lpad42:                                           ; preds = %call.i.noexc54, %invoke.cont35
  %14 = landingpad { ptr, i32 }
          cleanup
  br label %ehcleanup48

lpad44:                                           ; preds = %invoke.cont43
  %15 = landingpad { ptr, i32 }
          cleanup
  call void @_ZNSt7__cxx1112basic_stringIcSt11char_traitsIcESaIcEED1Ev(ptr noundef nonnull align 8 dereferenceable(32) %ref.tmp40) #23
  br label %ehcleanup48

ehcleanup48:                                      ; preds = %lpad42, %lpad.i53, %lpad44
  %.pn32 = phi { ptr, i32 } [ %15, %lpad44 ], [ %14, %lpad42 ], [ %5, %lpad.i53 ]
  call void @_ZNSaIcED1Ev(ptr noundef nonnull align 1 dereferenceable(1) %ref.tmp41) #23
  br label %ehcleanup196

lpad49:                                           ; preds = %call2.i.noexc, %call1.i.noexc, %if.then.i, %if.then52, %invoke.cont45
  %16 = landingpad { ptr, i32 }
          cleanup
  br label %ehcleanup195

if.end54:                                         ; preds = %_ZN6Assimp12LogFunctionsINS_11FBXImporterEE7LogWarnIJRA34_KcEEEvDpOT_.exit, %invoke.cont50
  call void @llvm.memset.p0.i64(ptr noundef nonnull align 8 dereferenceable(24) %tempFaces, i8 0, i64 24, i1 false)
  invoke void @_ZN6Assimp3FBX20ParseVectorDataArrayERSt6vectorIiSaIiEERKNS0_7ElementE(ptr noundef nonnull align 8 dereferenceable(24) %tempFaces, ptr noundef nonnull align 8 dereferenceable(40) %call36)
          to label %invoke.cont56 unwind label %lpad55.loopexit.split-lp.loopexit.split-lp

invoke.cont56:                                    ; preds = %if.end54
  %17 = load ptr, ptr %tempFaces, align 8
  %_M_finish.i.i66 = getelementptr inbounds %"struct.std::_Vector_base<int, std::allocator<int>>::_Vector_impl_data", ptr %tempFaces, i64 0, i32 1
  %18 = load ptr, ptr %_M_finish.i.i66, align 8
  %cmp.i.i67 = icmp eq ptr %17, %18
  br i1 %cmp.i.i67, label %if.then58, label %if.end60

if.then58:                                        ; preds = %invoke.cont56
  call void @llvm.lifetime.start.p0(i64 8, ptr nonnull %ref.tmp.i68)
  %call.i71 = invoke noundef zeroext i1 @_ZN6Assimp13DefaultLogger12isNullLoggerEv()
          to label %call.i.noexc70 unwind label %lpad55.loopexit.split-lp.loopexit.split-lp

call.i.noexc70:                                   ; preds = %if.then58
  br i1 %call.i71, label %_ZN6Assimp12LogFunctionsINS_11FBXImporterEE7LogWarnIJRA31_KcEEEvDpOT_.exit, label %if.then.i69

if.then.i69:                                      ; preds = %call.i.noexc70
  %call1.i73 = invoke noundef ptr @_ZN6Assimp13DefaultLogger3getEv()
          to label %call1.i.noexc72 unwind label %lpad55.loopexit.split-lp.loopexit.split-lp

call1.i.noexc72:                                  ; preds = %if.then.i69
  %call2.i75 = invoke noundef ptr @_ZN6Assimp12LogFunctionsINS_11FBXImporterEE6PrefixEv()
          to label %call2.i.noexc74 unwind label %lpad55.loopexit.split-lp.loopexit.split-lp

call2.i.noexc74:                                  ; preds = %call1.i.noexc72
  store ptr %call2.i75, ptr %ref.tmp.i68, align 8
  invoke void @_ZN6Assimp6Logger4warnIJPKcRA31_S2_EEEvDpOT_(ptr noundef nonnull align 8 dereferenceable(12) %call1.i73, ptr noundef nonnull align 8 dereferenceable(8) %ref.tmp.i68, ptr noundef nonnull align 1 dereferenceable(31) @.str.9)
          to label %_ZN6Assimp12LogFunctionsINS_11FBXImporterEE7LogWarnIJRA31_KcEEEvDpOT_.exit unwind label %lpad55.loopexit.split-lp.loopexit.split-lp

_ZN6Assimp12LogFunctionsINS_11FBXImporterEE7LogWarnIJRA31_KcEEEvDpOT_.exit: ; preds = %call2.i.noexc74, %call.i.noexc70
  call void @llvm.lifetime.end.p0(i64 8, ptr nonnull %ref.tmp.i68)
  %.pre = load ptr, ptr %_M_finish.i.i66, align 8
  %.pre301 = load ptr, ptr %tempFaces, align 8
  br label %if.end60

lpad55.loopexit:                                  ; preds = %for.body159, %if.then183, %invoke.cont186, %if.else, %if.then.i224, %call1.i.noexc228, %call2.i.noexc230
  %lpad.loopexit = landingpad { ptr, i32 }
          cleanup
  br label %ehcleanup194

lpad55.loopexit.split-lp.loopexit:                ; preds = %_ZNSt16allocator_traitsISaIjEE8allocateERS0_m.exit.i.i.i, %_ZNSt16allocator_traitsISaI10aiVector3tIfEEE8allocateERS2_m.exit.i.i.i
  %lpad.loopexit285 = landingpad { ptr, i32 }
          cleanup
  br label %ehcleanup194

lpad55.loopexit.split-lp.loopexit.split-lp:       ; preds = %if.then.i.i.i202.invoke, %if.then.i158, %if.then.i138, %if.then.i121, %_ZNSt12_Vector_baseIjSaIjEE11_M_allocateEm.exit.i, %_ZNSt12_Vector_baseI10aiVector3tIfESaIS1_EE11_M_allocateEm.exit.i, %call2.i.noexc74, %call1.i.noexc72, %if.then.i69, %if.then58, %if.end54
  %lpad.loopexit.split-lp286 = landingpad { ptr, i32 }
          cleanup
  br label %ehcleanup194

if.end60:                                         ; preds = %_ZN6Assimp12LogFunctionsINS_11FBXImporterEE7LogWarnIJRA31_KcEEEvDpOT_.exit, %invoke.cont56
  %19 = phi ptr [ %.pre301, %_ZN6Assimp12LogFunctionsINS_11FBXImporterEE7LogWarnIJRA31_KcEEEvDpOT_.exit ], [ %17, %invoke.cont56 ]
  %20 = phi ptr [ %.pre, %_ZN6Assimp12LogFunctionsINS_11FBXImporterEE7LogWarnIJRA31_KcEEEvDpOT_.exit ], [ %18, %invoke.cont56 ]
  %sub.ptr.lhs.cast.i = ptrtoint ptr %20 to i64
  %sub.ptr.rhs.cast.i = ptrtoint ptr %19 to i64
  %sub.ptr.sub.i = sub i64 %sub.ptr.lhs.cast.i, %sub.ptr.rhs.cast.i
  %sub.ptr.div.i = ashr exact i64 %sub.ptr.sub.i, 2
  %cmp.i = icmp ugt i64 %sub.ptr.div.i, 768614336404564650
  br i1 %cmp.i, label %if.then.i.i.i202.invoke, label %if.end.i

if.end.i:                                         ; preds = %if.end60
  %_M_end_of_storage.i.i = getelementptr inbounds %"class.Assimp::FBX::MeshGeometry", ptr %this, i64 0, i32 2, i32 0, i32 0, i32 0, i32 2
  %21 = load ptr, ptr %_M_end_of_storage.i.i, align 8
  %22 = load ptr, ptr %m_vertices, align 8
  %sub.ptr.lhs.cast.i.i = ptrtoint ptr %21 to i64
  %sub.ptr.rhs.cast.i.i = ptrtoint ptr %22 to i64
  %sub.ptr.sub.i.i = sub i64 %sub.ptr.lhs.cast.i.i, %sub.ptr.rhs.cast.i.i
  %sub.ptr.div.i.i = sdiv exact i64 %sub.ptr.sub.i.i, 12
  %cmp3.i = icmp ult i64 %sub.ptr.div.i.i, %sub.ptr.div.i
  br i1 %cmp3.i, label %_ZNSt12_Vector_baseI10aiVector3tIfESaIS1_EE11_M_allocateEm.exit.i, label %if.end.i88

_ZNSt12_Vector_baseI10aiVector3tIfESaIS1_EE11_M_allocateEm.exit.i: ; preds = %if.end.i
  %_M_finish.i.i77 = getelementptr inbounds %"class.Assimp::FBX::MeshGeometry", ptr %this, i64 0, i32 2, i32 0, i32 0, i32 0, i32 1
  %23 = load ptr, ptr %_M_finish.i.i77, align 8
  %sub.ptr.lhs.cast.i6.i = ptrtoint ptr %23 to i64
  %sub.ptr.sub.i8.i = sub i64 %sub.ptr.lhs.cast.i6.i, %sub.ptr.rhs.cast.i.i
  %sub.ptr.div.i9.i = sdiv exact i64 %sub.ptr.sub.i8.i, 12
  %mul.i.i.i.i = mul nuw nsw i64 %sub.ptr.div.i, 12
  %call5.i.i.i.i81 = invoke noalias noundef nonnull ptr @_Znwm(i64 noundef %mul.i.i.i.i) #25
          to label %call5.i.i.i.i.noexc unwind label %lpad55.loopexit.split-lp.loopexit.split-lp

call5.i.i.i.i.noexc:                              ; preds = %_ZNSt12_Vector_baseI10aiVector3tIfESaIS1_EE11_M_allocateEm.exit.i
  %cmp.not5.i.i.i.i = icmp eq ptr %22, %23
  br i1 %cmp.not5.i.i.i.i, label %_ZNSt6vectorI10aiVector3tIfESaIS1_EE11_S_relocateEPS1_S4_S4_RS2_.exit.i, label %for.body.i.i.i.i

for.body.i.i.i.i:                                 ; preds = %call5.i.i.i.i.noexc, %for.body.i.i.i.i
  %__cur.07.i.i.i.i = phi ptr [ %incdec.ptr1.i.i.i.i, %for.body.i.i.i.i ], [ %call5.i.i.i.i81, %call5.i.i.i.i.noexc ]
  %__first.addr.06.i.i.i.i = phi ptr [ %incdec.ptr.i.i.i.i, %for.body.i.i.i.i ], [ %22, %call5.i.i.i.i.noexc ]
  call void @llvm.memcpy.p0.p0.i64(ptr noundef nonnull align 4 dereferenceable(12) %__cur.07.i.i.i.i, ptr noundef nonnull align 4 dereferenceable(12) %__first.addr.06.i.i.i.i, i64 12, i1 false), !alias.scope !6
  %incdec.ptr.i.i.i.i = getelementptr inbounds %class.aiVector3t, ptr %__first.addr.06.i.i.i.i, i64 1
  %incdec.ptr1.i.i.i.i = getelementptr inbounds %class.aiVector3t, ptr %__cur.07.i.i.i.i, i64 1
  %cmp.not.i.i.i.i = icmp eq ptr %incdec.ptr.i.i.i.i, %23
  br i1 %cmp.not.i.i.i.i, label %_ZNSt6vectorI10aiVector3tIfESaIS1_EE11_S_relocateEPS1_S4_S4_RS2_.exit.i, label %for.body.i.i.i.i, !llvm.loop !10

_ZNSt6vectorI10aiVector3tIfESaIS1_EE11_S_relocateEPS1_S4_S4_RS2_.exit.i: ; preds = %for.body.i.i.i.i, %call5.i.i.i.i.noexc
  %tobool.not.i.i = icmp eq ptr %22, null
  br i1 %tobool.not.i.i, label %invoke.cont63, label %if.then.i.i

if.then.i.i:                                      ; preds = %_ZNSt6vectorI10aiVector3tIfESaIS1_EE11_S_relocateEPS1_S4_S4_RS2_.exit.i
  call void @_ZdlPv(ptr noundef nonnull %22) #22
  %.pre302.pre = load ptr, ptr %_M_finish.i.i66, align 8
  %.pre303.pre = load ptr, ptr %tempFaces, align 8
  %.pre324 = ptrtoint ptr %.pre302.pre to i64
  %.pre325 = ptrtoint ptr %.pre303.pre to i64
  %.pre326 = sub i64 %.pre324, %.pre325
  %.pre327 = ashr exact i64 %.pre326, 2
  br label %invoke.cont63

invoke.cont63:                                    ; preds = %_ZNSt6vectorI10aiVector3tIfESaIS1_EE11_S_relocateEPS1_S4_S4_RS2_.exit.i, %if.then.i.i
  %.pre315.pre-phi = phi i64 [ %.pre327, %if.then.i.i ], [ %sub.ptr.div.i, %_ZNSt6vectorI10aiVector3tIfESaIS1_EE11_S_relocateEPS1_S4_S4_RS2_.exit.i ]
  store ptr %call5.i.i.i.i81, ptr %m_vertices, align 8
  %add.ptr.i78 = getelementptr inbounds %class.aiVector3t, ptr %call5.i.i.i.i81, i64 %sub.ptr.div.i9.i
  store ptr %add.ptr.i78, ptr %_M_finish.i.i77, align 8
  %add.ptr21.i = getelementptr inbounds %class.aiVector3t, ptr %call5.i.i.i.i81, i64 %sub.ptr.div.i
  store ptr %add.ptr21.i, ptr %_M_end_of_storage.i.i, align 8
  %cmp.i87 = icmp ugt i64 %.pre315.pre-phi, 6917529027641081855
  br i1 %cmp.i87, label %if.then.i.i.i202.invoke, label %if.end.i88

if.end.i88:                                       ; preds = %if.end.i, %invoke.cont63
  %div331.in = phi i64 [ %.pre315.pre-phi, %invoke.cont63 ], [ %sub.ptr.div.i, %if.end.i ]
  %div331 = udiv i64 %div331.in, 3
  %_M_end_of_storage.i.i89 = getelementptr inbounds %"class.Assimp::FBX::MeshGeometry", ptr %this, i64 0, i32 3, i32 0, i32 0, i32 0, i32 2
  %24 = load ptr, ptr %_M_end_of_storage.i.i89, align 8
  %25 = load ptr, ptr %m_faces, align 8
  %sub.ptr.lhs.cast.i.i90 = ptrtoint ptr %24 to i64
  %sub.ptr.rhs.cast.i.i91 = ptrtoint ptr %25 to i64
  %sub.ptr.sub.i.i92 = sub i64 %sub.ptr.lhs.cast.i.i90, %sub.ptr.rhs.cast.i.i91
  %sub.ptr.div.i.i93 = ashr exact i64 %sub.ptr.sub.i.i92, 2
  %cmp3.i94 = icmp ult i64 %sub.ptr.div.i.i93, %div331
  br i1 %cmp3.i94, label %_ZNSt12_Vector_baseIjSaIjEE11_M_allocateEm.exit.i, label %invoke.cont66

_ZNSt12_Vector_baseIjSaIjEE11_M_allocateEm.exit.i: ; preds = %if.end.i88
  %_M_finish.i.i95 = getelementptr inbounds %"class.Assimp::FBX::MeshGeometry", ptr %this, i64 0, i32 3, i32 0, i32 0, i32 0, i32 1
  %26 = load ptr, ptr %_M_finish.i.i95, align 8
  %sub.ptr.lhs.cast.i6.i96 = ptrtoint ptr %26 to i64
  %sub.ptr.sub.i8.i97 = sub i64 %sub.ptr.lhs.cast.i6.i96, %sub.ptr.rhs.cast.i.i91
  %sub.ptr.div.i9.i98 = ashr exact i64 %sub.ptr.sub.i8.i97, 2
  %mul.i.i.i.i99 = shl nuw nsw i64 %div331, 2
  %call5.i.i.i.i107 = invoke noalias noundef nonnull ptr @_Znwm(i64 noundef %mul.i.i.i.i99) #25
          to label %call5.i.i.i.i.noexc106 unwind label %lpad55.loopexit.split-lp.loopexit.split-lp

call5.i.i.i.i.noexc106:                           ; preds = %_ZNSt12_Vector_baseIjSaIjEE11_M_allocateEm.exit.i
  %cmp.i.i.i10.i = icmp sgt i64 %sub.ptr.div.i9.i98, 0
  br i1 %cmp.i.i.i10.i, label %if.then.i.i.i11.i, label %_ZNSt6vectorIjSaIjEE11_S_relocateEPjS2_S2_RS0_.exit.i

if.then.i.i.i11.i:                                ; preds = %call5.i.i.i.i.noexc106
  call void @llvm.memmove.p0.p0.i64(ptr nonnull align 4 %call5.i.i.i.i107, ptr align 4 %25, i64 %sub.ptr.sub.i8.i97, i1 false)
  br label %_ZNSt6vectorIjSaIjEE11_S_relocateEPjS2_S2_RS0_.exit.i

_ZNSt6vectorIjSaIjEE11_S_relocateEPjS2_S2_RS0_.exit.i: ; preds = %if.then.i.i.i11.i, %call5.i.i.i.i.noexc106
  %tobool.not.i.i100 = icmp eq ptr %25, null
  br i1 %tobool.not.i.i100, label %_ZNSt12_Vector_baseIjSaIjEE13_M_deallocateEPjm.exit.i, label %if.then.i.i101

if.then.i.i101:                                   ; preds = %_ZNSt6vectorIjSaIjEE11_S_relocateEPjS2_S2_RS0_.exit.i
  call void @_ZdlPv(ptr noundef nonnull %25) #22
  br label %_ZNSt12_Vector_baseIjSaIjEE13_M_deallocateEPjm.exit.i

_ZNSt12_Vector_baseIjSaIjEE13_M_deallocateEPjm.exit.i: ; preds = %if.then.i.i101, %_ZNSt6vectorIjSaIjEE11_S_relocateEPjS2_S2_RS0_.exit.i
  store ptr %call5.i.i.i.i107, ptr %m_faces, align 8
  %add.ptr.i102 = getelementptr inbounds i32, ptr %call5.i.i.i.i107, i64 %sub.ptr.div.i9.i98
  store ptr %add.ptr.i102, ptr %_M_finish.i.i95, align 8
  %add.ptr21.i103 = getelementptr inbounds i32, ptr %call5.i.i.i.i107, i64 %div331
  store ptr %add.ptr21.i103, ptr %_M_end_of_storage.i.i89, align 8
  br label %invoke.cont66

invoke.cont66:                                    ; preds = %_ZNSt12_Vector_baseIjSaIjEE13_M_deallocateEPjm.exit.i, %if.end.i88
  %27 = load ptr, ptr %_M_finish.i.i, align 8
  %28 = load ptr, ptr %tempVerts, align 8
  %sub.ptr.lhs.cast.i109 = ptrtoint ptr %27 to i64
  %sub.ptr.rhs.cast.i110 = ptrtoint ptr %28 to i64
  %sub.ptr.sub.i111 = sub i64 %sub.ptr.lhs.cast.i109, %sub.ptr.rhs.cast.i110
  %sub.ptr.div.i112 = sdiv exact i64 %sub.ptr.sub.i111, 12
  %_M_finish.i.i113 = getelementptr inbounds %"class.Assimp::FBX::MeshGeometry", ptr %this, i64 0, i32 12, i32 0, i32 0, i32 0, i32 1
  %29 = load ptr, ptr %_M_finish.i.i113, align 8
  %30 = load ptr, ptr %m_mapping_offsets, align 8
  %sub.ptr.lhs.cast.i.i114 = ptrtoint ptr %29 to i64
  %sub.ptr.rhs.cast.i.i115 = ptrtoint ptr %30 to i64
  %sub.ptr.sub.i.i116 = sub i64 %sub.ptr.lhs.cast.i.i114, %sub.ptr.rhs.cast.i.i115
  %sub.ptr.div.i.i117 = ashr exact i64 %sub.ptr.sub.i.i116, 2
  %cmp.i118 = icmp ult i64 %sub.ptr.div.i.i117, %sub.ptr.div.i112
  br i1 %cmp.i118, label %if.then.i121, label %if.else.i

if.then.i121:                                     ; preds = %invoke.cont66
  %sub.i = sub nsw i64 %sub.ptr.div.i112, %sub.ptr.div.i.i117
  invoke void @_ZNSt6vectorIjSaIjEE17_M_default_appendEm(ptr noundef nonnull align 8 dereferenceable(24) %m_mapping_offsets, i64 noundef %sub.i)
          to label %if.then.i121.invoke.cont69_crit_edge unwind label %lpad55.loopexit.split-lp.loopexit.split-lp

if.then.i121.invoke.cont69_crit_edge:             ; preds = %if.then.i121
  %.pre304 = load ptr, ptr %_M_finish.i.i, align 8
  %.pre305 = load ptr, ptr %tempVerts, align 8
  %.pre316 = ptrtoint ptr %.pre304 to i64
  %.pre317 = ptrtoint ptr %.pre305 to i64
  %.pre318 = sub i64 %.pre316, %.pre317
  %.pre319 = sdiv exact i64 %.pre318, 12
  br label %invoke.cont69

if.else.i:                                        ; preds = %invoke.cont66
  %cmp4.i = icmp ugt i64 %sub.ptr.div.i.i117, %sub.ptr.div.i112
  br i1 %cmp4.i, label %if.then5.i, label %invoke.cont69

if.then5.i:                                       ; preds = %if.else.i
  %add.ptr.i119 = getelementptr inbounds i32, ptr %30, i64 %sub.ptr.div.i112
  %tobool.not.i.i120 = icmp eq ptr %29, %add.ptr.i119
  br i1 %tobool.not.i.i120, label %invoke.cont69, label %invoke.cont.i.i

invoke.cont.i.i:                                  ; preds = %if.then5.i
  store ptr %add.ptr.i119, ptr %_M_finish.i.i113, align 8
  br label %invoke.cont69

invoke.cont69:                                    ; preds = %if.then.i121.invoke.cont69_crit_edge, %invoke.cont.i.i, %if.then5.i, %if.else.i
  %sub.ptr.div.i127.pre-phi = phi i64 [ %.pre319, %if.then.i121.invoke.cont69_crit_edge ], [ %sub.ptr.div.i112, %invoke.cont.i.i ], [ %sub.ptr.div.i112, %if.then5.i ], [ %sub.ptr.div.i112, %if.else.i ]
  store i32 0, ptr %ref.tmp72, align 4
  %_M_finish.i.i128 = getelementptr inbounds %"class.Assimp::FBX::MeshGeometry", ptr %this, i64 0, i32 11, i32 0, i32 0, i32 0, i32 1
  %31 = load ptr, ptr %_M_finish.i.i128, align 8
  %32 = load ptr, ptr %m_mapping_counts, align 8
  %sub.ptr.lhs.cast.i.i129 = ptrtoint ptr %31 to i64
  %sub.ptr.rhs.cast.i.i130 = ptrtoint ptr %32 to i64
  %sub.ptr.sub.i.i131 = sub i64 %sub.ptr.lhs.cast.i.i129, %sub.ptr.rhs.cast.i.i130
  %sub.ptr.div.i.i132 = ashr exact i64 %sub.ptr.sub.i.i131, 2
  %cmp.i133 = icmp ult i64 %sub.ptr.div.i.i132, %sub.ptr.div.i127.pre-phi
  br i1 %cmp.i133, label %if.then.i138, label %if.else.i134

if.then.i138:                                     ; preds = %invoke.cont69
  %sub.i139 = sub nsw i64 %sub.ptr.div.i127.pre-phi, %sub.ptr.div.i.i132
  invoke void @_ZNSt6vectorIjSaIjEE14_M_fill_insertEN9__gnu_cxx17__normal_iteratorIPjS1_EEmRKj(ptr noundef nonnull align 8 dereferenceable(24) %m_mapping_counts, ptr %31, i64 noundef %sub.i139, ptr noundef nonnull align 4 dereferenceable(4) %ref.tmp72)
          to label %invoke.cont73 unwind label %lpad55.loopexit.split-lp.loopexit.split-lp

if.else.i134:                                     ; preds = %invoke.cont69
  %cmp6.i = icmp ugt i64 %sub.ptr.div.i.i132, %sub.ptr.div.i127.pre-phi
  br i1 %cmp6.i, label %if.then7.i, label %invoke.cont73

if.then7.i:                                       ; preds = %if.else.i134
  %add.ptr.i135 = getelementptr inbounds i32, ptr %32, i64 %sub.ptr.div.i127.pre-phi
  %tobool.not.i.i136 = icmp eq ptr %31, %add.ptr.i135
  br i1 %tobool.not.i.i136, label %invoke.cont73, label %invoke.cont.i.i137

invoke.cont.i.i137:                               ; preds = %if.then7.i
  store ptr %add.ptr.i135, ptr %_M_finish.i.i128, align 8
  br label %invoke.cont73

invoke.cont73:                                    ; preds = %invoke.cont.i.i137, %if.then7.i, %if.else.i134, %if.then.i138
  %33 = load ptr, ptr %_M_finish.i.i66, align 8
  %34 = load ptr, ptr %tempFaces, align 8
  %sub.ptr.lhs.cast.i142 = ptrtoint ptr %33 to i64
  %sub.ptr.rhs.cast.i143 = ptrtoint ptr %34 to i64
  %sub.ptr.sub.i144 = sub i64 %sub.ptr.lhs.cast.i142, %sub.ptr.rhs.cast.i143
  %sub.ptr.div.i145 = ashr exact i64 %sub.ptr.sub.i144, 2
  %_M_finish.i.i146 = getelementptr inbounds %"class.Assimp::FBX::MeshGeometry", ptr %this, i64 0, i32 13, i32 0, i32 0, i32 0, i32 1
  %35 = load ptr, ptr %_M_finish.i.i146, align 8
  %36 = load ptr, ptr %m_mappings, align 8
  %sub.ptr.lhs.cast.i.i147 = ptrtoint ptr %35 to i64
  %sub.ptr.rhs.cast.i.i148 = ptrtoint ptr %36 to i64
  %sub.ptr.sub.i.i149 = sub i64 %sub.ptr.lhs.cast.i.i147, %sub.ptr.rhs.cast.i.i148
  %cmp.i151 = icmp ult i64 %sub.ptr.sub.i.i149, %sub.ptr.sub.i144
  br i1 %cmp.i151, label %if.then.i158, label %if.else.i152

if.then.i158:                                     ; preds = %invoke.cont73
  %sub.ptr.div.i.i150 = ashr exact i64 %sub.ptr.sub.i.i149, 2
  %sub.i159 = sub nsw i64 %sub.ptr.div.i145, %sub.ptr.div.i.i150
  invoke void @_ZNSt6vectorIjSaIjEE17_M_default_appendEm(ptr noundef nonnull align 8 dereferenceable(24) %m_mappings, i64 noundef %sub.i159)
          to label %if.then.i158.invoke.cont76_crit_edge unwind label %lpad55.loopexit.split-lp.loopexit.split-lp

if.then.i158.invoke.cont76_crit_edge:             ; preds = %if.then.i158
  %.pre306 = load ptr, ptr %tempFaces, align 8
  %.pre307 = load ptr, ptr %_M_finish.i.i66, align 8
  br label %invoke.cont76

if.else.i152:                                     ; preds = %invoke.cont73
  %cmp4.i153 = icmp ugt i64 %sub.ptr.sub.i.i149, %sub.ptr.sub.i144
  br i1 %cmp4.i153, label %if.then5.i154, label %invoke.cont76

if.then5.i154:                                    ; preds = %if.else.i152
  %add.ptr.i155 = getelementptr inbounds i32, ptr %36, i64 %sub.ptr.div.i145
  %tobool.not.i.i156 = icmp eq ptr %35, %add.ptr.i155
  br i1 %tobool.not.i.i156, label %invoke.cont76, label %invoke.cont.i.i157

invoke.cont.i.i157:                               ; preds = %if.then5.i154
  store ptr %add.ptr.i155, ptr %_M_finish.i.i146, align 8
  br label %invoke.cont76

invoke.cont76:                                    ; preds = %if.then.i158.invoke.cont76_crit_edge, %invoke.cont.i.i157, %if.then5.i154, %if.else.i152
  %37 = phi ptr [ %.pre307, %if.then.i158.invoke.cont76_crit_edge ], [ %33, %invoke.cont.i.i157 ], [ %33, %if.then5.i154 ], [ %33, %if.else.i152 ]
  %38 = phi ptr [ %.pre306, %if.then.i158.invoke.cont76_crit_edge ], [ %34, %invoke.cont.i.i157 ], [ %34, %if.then5.i154 ], [ %34, %if.else.i152 ]
  %39 = load ptr, ptr %_M_finish.i.i, align 8
  %40 = load ptr, ptr %tempVerts, align 8
  %sub.ptr.lhs.cast.i163 = ptrtoint ptr %39 to i64
  %sub.ptr.rhs.cast.i164 = ptrtoint ptr %40 to i64
  %sub.ptr.sub.i165 = sub i64 %sub.ptr.lhs.cast.i163, %sub.ptr.rhs.cast.i164
  %sub.ptr.div.i166 = sdiv exact i64 %sub.ptr.sub.i165, 12
  %cmp.i168.not288 = icmp eq ptr %38, %37
  br i1 %cmp.i168.not288, label %for.end, label %for.body.lr.ph

for.body.lr.ph:                                   ; preds = %invoke.cont76
  %_M_finish.i170 = getelementptr inbounds %"class.Assimp::FBX::MeshGeometry", ptr %this, i64 0, i32 2, i32 0, i32 0, i32 0, i32 1
  %_M_finish.i177 = getelementptr inbounds %"class.Assimp::FBX::MeshGeometry", ptr %this, i64 0, i32 3, i32 0, i32 0, i32 0, i32 1
  br label %for.body

for.body:                                         ; preds = %for.body.lr.ph, %for.inc
  %count.0290 = phi i32 [ 0, %for.body.lr.ph ], [ %count.1, %for.inc ]
  %__begin2.sroa.0.0289 = phi ptr [ %38, %for.body.lr.ph ], [ %incdec.ptr.i206, %for.inc ]
  %41 = load i32, ptr %__begin2.sroa.0.0289, align 4
  %cmp = icmp slt i32 %41, 0
  %.lobit36 = ashr i32 %41, 31
  %cond = xor i32 %.lobit36, %41
  %conv = sext i32 %cond to i64
  %cmp84.not = icmp ugt i64 %sub.ptr.div.i166, %conv
  br i1 %cmp84.not, label %if.end94, label %if.then85

if.then85:                                        ; preds = %for.body
  call void @_ZNSaIcEC1Ev(ptr noundef nonnull align 1 dereferenceable(1) %ref.tmp87) #23
  invoke void @_ZNSt7__cxx1112basic_stringIcSt11char_traitsIcESaIcEEC2IS3_EEPKcRKS3_(ptr noundef nonnull align 8 dereferenceable(32) %ref.tmp86, ptr noundef nonnull @.str.10, ptr noundef nonnull align 1 dereferenceable(1) %ref.tmp87)
          to label %invoke.cont89 unwind label %lpad88

invoke.cont89:                                    ; preds = %if.then85
  invoke void @_ZN6Assimp3FBX4Util8DOMErrorERKNSt7__cxx1112basic_stringIcSt11char_traitsIcESaIcEEEPKNS0_7ElementE(ptr noundef nonnull align 8 dereferenceable(32) %ref.tmp86, ptr noundef nonnull %call36) #24
          to label %invoke.cont91 unwind label %lpad90

invoke.cont91:                                    ; preds = %invoke.cont89
  unreachable

lpad88:                                           ; preds = %if.then85
  %42 = landingpad { ptr, i32 }
          cleanup
  br label %ehcleanup93

lpad90:                                           ; preds = %invoke.cont89
  %43 = landingpad { ptr, i32 }
          cleanup
  call void @_ZNSt7__cxx1112basic_stringIcSt11char_traitsIcESaIcEED1Ev(ptr noundef nonnull align 8 dereferenceable(32) %ref.tmp86) #23
  br label %ehcleanup93

ehcleanup93:                                      ; preds = %lpad90, %lpad88
  %.pn37 = phi { ptr, i32 } [ %43, %lpad90 ], [ %42, %lpad88 ]
  call void @_ZNSaIcED1Ev(ptr noundef nonnull align 1 dereferenceable(1) %ref.tmp87) #23
  br label %ehcleanup194

if.end94:                                         ; preds = %for.body
  %44 = load ptr, ptr %tempVerts, align 8
  %add.ptr.i169 = getelementptr inbounds %class.aiVector3t, ptr %44, i64 %conv
  %45 = load ptr, ptr %_M_finish.i170, align 8
  %46 = load ptr, ptr %_M_end_of_storage.i.i, align 8
  %cmp.not.i = icmp eq ptr %45, %46
  br i1 %cmp.not.i, label %if.else.i173, label %if.then.i171

if.then.i171:                                     ; preds = %if.end94
  call void @llvm.memcpy.p0.p0.i64(ptr noundef nonnull align 4 dereferenceable(12) %45, ptr noundef nonnull align 4 dereferenceable(12) %add.ptr.i169, i64 12, i1 false)
  %47 = load ptr, ptr %_M_finish.i170, align 8
  %incdec.ptr.i = getelementptr inbounds %class.aiVector3t, ptr %47, i64 1
  store ptr %incdec.ptr.i, ptr %_M_finish.i170, align 8
  br label %invoke.cont98

if.else.i173:                                     ; preds = %if.end94
  %48 = load ptr, ptr %m_vertices, align 8
  %sub.ptr.lhs.cast.i.i.i.i = ptrtoint ptr %45 to i64
  %sub.ptr.rhs.cast.i.i.i.i = ptrtoint ptr %48 to i64
  %sub.ptr.sub.i.i.i.i = sub i64 %sub.ptr.lhs.cast.i.i.i.i, %sub.ptr.rhs.cast.i.i.i.i
  %cmp.i.i.i = icmp eq i64 %sub.ptr.sub.i.i.i.i, 9223372036854775800
  br i1 %cmp.i.i.i, label %if.then.i.i.i202.invoke, label %_ZNKSt6vectorI10aiVector3tIfESaIS1_EE12_M_check_lenEmPKc.exit.i.i

_ZNKSt6vectorI10aiVector3tIfESaIS1_EE12_M_check_lenEmPKc.exit.i.i: ; preds = %if.else.i173
  %sub.ptr.div.i.i.i.i = sdiv exact i64 %sub.ptr.sub.i.i.i.i, 12
  %.sroa.speculated.i.i.i = call i64 @llvm.umax.i64(i64 %sub.ptr.div.i.i.i.i, i64 1)
  %add.i.i.i = add i64 %.sroa.speculated.i.i.i, %sub.ptr.div.i.i.i.i
  %cmp7.i.i.i = icmp ult i64 %add.i.i.i, %sub.ptr.div.i.i.i.i
  %cmp9.i.i.i = icmp ugt i64 %add.i.i.i, 768614336404564650
  %or.cond.i.i.i = or i1 %cmp7.i.i.i, %cmp9.i.i.i
  %cond.i.i.i = select i1 %or.cond.i.i.i, i64 768614336404564650, i64 %add.i.i.i
  %cmp.not.i.i.i = icmp eq i64 %cond.i.i.i, 0
  br i1 %cmp.not.i.i.i, label %_ZNSt12_Vector_baseI10aiVector3tIfESaIS1_EE11_M_allocateEm.exit.i.i, label %_ZNSt16allocator_traitsISaI10aiVector3tIfEEE8allocateERS2_m.exit.i.i.i

_ZNSt16allocator_traitsISaI10aiVector3tIfEEE8allocateERS2_m.exit.i.i.i: ; preds = %_ZNKSt6vectorI10aiVector3tIfESaIS1_EE12_M_check_lenEmPKc.exit.i.i
  %mul.i.i.i.i.i = mul nuw nsw i64 %cond.i.i.i, 12
  %call5.i.i.i.i.i175 = invoke noalias noundef nonnull ptr @_Znwm(i64 noundef %mul.i.i.i.i.i) #25
          to label %_ZNSt12_Vector_baseI10aiVector3tIfESaIS1_EE11_M_allocateEm.exit.i.i unwind label %lpad55.loopexit.split-lp.loopexit

_ZNSt12_Vector_baseI10aiVector3tIfESaIS1_EE11_M_allocateEm.exit.i.i: ; preds = %_ZNSt16allocator_traitsISaI10aiVector3tIfEEE8allocateERS2_m.exit.i.i.i, %_ZNKSt6vectorI10aiVector3tIfESaIS1_EE12_M_check_lenEmPKc.exit.i.i
  %cond.i10.i.i = phi ptr [ null, %_ZNKSt6vectorI10aiVector3tIfESaIS1_EE12_M_check_lenEmPKc.exit.i.i ], [ %call5.i.i.i.i.i175, %_ZNSt16allocator_traitsISaI10aiVector3tIfEEE8allocateERS2_m.exit.i.i.i ]
  %add.ptr.i.i = getelementptr inbounds %class.aiVector3t, ptr %cond.i10.i.i, i64 %sub.ptr.div.i.i.i.i
  call void @llvm.memcpy.p0.p0.i64(ptr noundef nonnull align 4 dereferenceable(12) %add.ptr.i.i, ptr noundef nonnull align 4 dereferenceable(12) %add.ptr.i169, i64 12, i1 false)
  %cmp.not5.i.i.i.i.i = icmp eq ptr %48, %45
  br i1 %cmp.not5.i.i.i.i.i, label %_ZNSt6vectorI10aiVector3tIfESaIS1_EE11_S_relocateEPS1_S4_S4_RS2_.exit19.i.i, label %for.body.i.i.i.i.i

for.body.i.i.i.i.i:                               ; preds = %_ZNSt12_Vector_baseI10aiVector3tIfESaIS1_EE11_M_allocateEm.exit.i.i, %for.body.i.i.i.i.i
  %__cur.07.i.i.i.i.i = phi ptr [ %incdec.ptr1.i.i.i.i.i, %for.body.i.i.i.i.i ], [ %cond.i10.i.i, %_ZNSt12_Vector_baseI10aiVector3tIfESaIS1_EE11_M_allocateEm.exit.i.i ]
  %__first.addr.06.i.i.i.i.i = phi ptr [ %incdec.ptr.i.i.i.i.i, %for.body.i.i.i.i.i ], [ %48, %_ZNSt12_Vector_baseI10aiVector3tIfESaIS1_EE11_M_allocateEm.exit.i.i ]
  call void @llvm.memcpy.p0.p0.i64(ptr noundef nonnull align 4 dereferenceable(12) %__cur.07.i.i.i.i.i, ptr noundef nonnull align 4 dereferenceable(12) %__first.addr.06.i.i.i.i.i, i64 12, i1 false), !alias.scope !11
  %incdec.ptr.i.i.i.i.i = getelementptr inbounds %class.aiVector3t, ptr %__first.addr.06.i.i.i.i.i, i64 1
  %incdec.ptr1.i.i.i.i.i = getelementptr inbounds %class.aiVector3t, ptr %__cur.07.i.i.i.i.i, i64 1
  %cmp.not.i.i.i.i.i = icmp eq ptr %incdec.ptr.i.i.i.i.i, %45
  br i1 %cmp.not.i.i.i.i.i, label %_ZNSt6vectorI10aiVector3tIfESaIS1_EE11_S_relocateEPS1_S4_S4_RS2_.exit19.i.i, label %for.body.i.i.i.i.i, !llvm.loop !10

_ZNSt6vectorI10aiVector3tIfESaIS1_EE11_S_relocateEPS1_S4_S4_RS2_.exit19.i.i: ; preds = %for.body.i.i.i.i.i, %_ZNSt12_Vector_baseI10aiVector3tIfESaIS1_EE11_M_allocateEm.exit.i.i
  %__cur.0.lcssa.i.i.i.i.i = phi ptr [ %cond.i10.i.i, %_ZNSt12_Vector_baseI10aiVector3tIfESaIS1_EE11_M_allocateEm.exit.i.i ], [ %incdec.ptr1.i.i.i.i.i, %for.body.i.i.i.i.i ]
  %incdec.ptr.i.i = getelementptr %class.aiVector3t, ptr %__cur.0.lcssa.i.i.i.i.i, i64 1
  %tobool.not.i.i.i = icmp eq ptr %48, null
  br i1 %tobool.not.i.i.i, label %_ZNSt6vectorI10aiVector3tIfESaIS1_EE17_M_realloc_insertIJRKS1_EEEvN9__gnu_cxx17__normal_iteratorIPS1_S3_EEDpOT_.exit.i, label %if.then.i20.i.i

if.then.i20.i.i:                                  ; preds = %_ZNSt6vectorI10aiVector3tIfESaIS1_EE11_S_relocateEPS1_S4_S4_RS2_.exit19.i.i
  call void @_ZdlPv(ptr noundef nonnull %48) #22
  br label %_ZNSt6vectorI10aiVector3tIfESaIS1_EE17_M_realloc_insertIJRKS1_EEEvN9__gnu_cxx17__normal_iteratorIPS1_S3_EEDpOT_.exit.i

_ZNSt6vectorI10aiVector3tIfESaIS1_EE17_M_realloc_insertIJRKS1_EEEvN9__gnu_cxx17__normal_iteratorIPS1_S3_EEDpOT_.exit.i: ; preds = %if.then.i20.i.i, %_ZNSt6vectorI10aiVector3tIfESaIS1_EE11_S_relocateEPS1_S4_S4_RS2_.exit19.i.i
  store ptr %cond.i10.i.i, ptr %m_vertices, align 8
  store ptr %incdec.ptr.i.i, ptr %_M_finish.i170, align 8
  %add.ptr19.i.i = getelementptr inbounds %class.aiVector3t, ptr %cond.i10.i.i, i64 %cond.i.i.i
  store ptr %add.ptr19.i.i, ptr %_M_end_of_storage.i.i, align 8
  br label %invoke.cont98

invoke.cont98:                                    ; preds = %_ZNSt6vectorI10aiVector3tIfESaIS1_EE17_M_realloc_insertIJRKS1_EEEvN9__gnu_cxx17__normal_iteratorIPS1_S3_EEDpOT_.exit.i, %if.then.i171
  %inc = add i32 %count.0290, 1
  %49 = load ptr, ptr %m_mapping_counts, align 8
  %add.ptr.i176 = getelementptr inbounds i32, ptr %49, i64 %conv
  %50 = load i32, ptr %add.ptr.i176, align 4
  %inc102 = add i32 %50, 1
  store i32 %inc102, ptr %add.ptr.i176, align 4
  br i1 %cmp, label %if.then104, label %for.inc

if.then104:                                       ; preds = %invoke.cont98
  %51 = load ptr, ptr %_M_finish.i177, align 8
  %52 = load ptr, ptr %_M_end_of_storage.i.i89, align 8
  %cmp.not.i179 = icmp eq ptr %51, %52
  br i1 %cmp.not.i179, label %if.else.i183, label %if.then.i180

if.then.i180:                                     ; preds = %if.then104
  store i32 %inc, ptr %51, align 4
  %53 = load ptr, ptr %_M_finish.i177, align 8
  %incdec.ptr.i181 = getelementptr inbounds i32, ptr %53, i64 1
  store ptr %incdec.ptr.i181, ptr %_M_finish.i177, align 8
  br label %for.inc

if.else.i183:                                     ; preds = %if.then104
  %54 = load ptr, ptr %m_faces, align 8
  %sub.ptr.lhs.cast.i.i.i.i184 = ptrtoint ptr %51 to i64
  %sub.ptr.rhs.cast.i.i.i.i185 = ptrtoint ptr %54 to i64
  %sub.ptr.sub.i.i.i.i186 = sub i64 %sub.ptr.lhs.cast.i.i.i.i184, %sub.ptr.rhs.cast.i.i.i.i185
  %cmp.i.i.i187 = icmp eq i64 %sub.ptr.sub.i.i.i.i186, 9223372036854775804
  br i1 %cmp.i.i.i187, label %if.then.i.i.i202.invoke, label %_ZNKSt6vectorIjSaIjEE12_M_check_lenEmPKc.exit.i.i

if.then.i.i.i202.invoke:                          ; preds = %if.else.i183, %if.else.i173, %invoke.cont63, %if.end60
  %55 = phi ptr [ @.str.71, %if.end60 ], [ @.str.71, %invoke.cont63 ], [ @.str.74, %if.else.i173 ], [ @.str.74, %if.else.i183 ]
  invoke void @_ZSt20__throw_length_errorPKc(ptr noundef nonnull %55) #24
          to label %if.then.i.i.i202.cont unwind label %lpad55.loopexit.split-lp.loopexit.split-lp

if.then.i.i.i202.cont:                            ; preds = %if.then.i.i.i202.invoke
  unreachable

_ZNKSt6vectorIjSaIjEE12_M_check_lenEmPKc.exit.i.i: ; preds = %if.else.i183
  %sub.ptr.div.i.i.i.i188 = ashr exact i64 %sub.ptr.sub.i.i.i.i186, 2
  %.sroa.speculated.i.i.i189 = call i64 @llvm.umax.i64(i64 %sub.ptr.div.i.i.i.i188, i64 1)
  %add.i.i.i190 = add i64 %.sroa.speculated.i.i.i189, %sub.ptr.div.i.i.i.i188
  %cmp7.i.i.i191 = icmp ult i64 %add.i.i.i190, %sub.ptr.div.i.i.i.i188
  %cmp9.i.i.i192 = icmp ugt i64 %add.i.i.i190, 2305843009213693951
  %or.cond.i.i.i193 = or i1 %cmp7.i.i.i191, %cmp9.i.i.i192
  %cond.i.i.i194 = select i1 %or.cond.i.i.i193, i64 2305843009213693951, i64 %add.i.i.i190
  %cmp.not.i.i.i195 = icmp eq i64 %cond.i.i.i194, 0
  br i1 %cmp.not.i.i.i195, label %_ZNSt12_Vector_baseIjSaIjEE11_M_allocateEm.exit.i.i, label %_ZNSt16allocator_traitsISaIjEE8allocateERS0_m.exit.i.i.i

_ZNSt16allocator_traitsISaIjEE8allocateERS0_m.exit.i.i.i: ; preds = %_ZNKSt6vectorIjSaIjEE12_M_check_lenEmPKc.exit.i.i
  %mul.i.i.i.i.i196 = shl nuw nsw i64 %cond.i.i.i194, 2
  %call5.i.i.i.i.i205 = invoke noalias noundef nonnull ptr @_Znwm(i64 noundef %mul.i.i.i.i.i196) #25
          to label %_ZNSt12_Vector_baseIjSaIjEE11_M_allocateEm.exit.i.i unwind label %lpad55.loopexit.split-lp.loopexit

_ZNSt12_Vector_baseIjSaIjEE11_M_allocateEm.exit.i.i: ; preds = %_ZNSt16allocator_traitsISaIjEE8allocateERS0_m.exit.i.i.i, %_ZNKSt6vectorIjSaIjEE12_M_check_lenEmPKc.exit.i.i
  %cond.i10.i.i197 = phi ptr [ null, %_ZNKSt6vectorIjSaIjEE12_M_check_lenEmPKc.exit.i.i ], [ %call5.i.i.i.i.i205, %_ZNSt16allocator_traitsISaIjEE8allocateERS0_m.exit.i.i.i ]
  %add.ptr.i.i198 = getelementptr inbounds i32, ptr %cond.i10.i.i197, i64 %sub.ptr.div.i.i.i.i188
  store i32 %inc, ptr %add.ptr.i.i198, align 4
  %cmp.i.i.i11.i.i = icmp sgt i64 %sub.ptr.div.i.i.i.i188, 0
  br i1 %cmp.i.i.i11.i.i, label %if.then.i.i.i12.i.i, label %_ZNSt6vectorIjSaIjEE11_S_relocateEPjS2_S2_RS0_.exit20.i.i

if.then.i.i.i12.i.i:                              ; preds = %_ZNSt12_Vector_baseIjSaIjEE11_M_allocateEm.exit.i.i
  call void @llvm.memmove.p0.p0.i64(ptr nonnull align 4 %cond.i10.i.i197, ptr align 4 %54, i64 %sub.ptr.sub.i.i.i.i186, i1 false)
  br label %_ZNSt6vectorIjSaIjEE11_S_relocateEPjS2_S2_RS0_.exit20.i.i

_ZNSt6vectorIjSaIjEE11_S_relocateEPjS2_S2_RS0_.exit20.i.i: ; preds = %if.then.i.i.i12.i.i, %_ZNSt12_Vector_baseIjSaIjEE11_M_allocateEm.exit.i.i
  %incdec.ptr.i.i199 = getelementptr inbounds i32, ptr %add.ptr.i.i198, i64 1
  %tobool.not.i.i.i200 = icmp eq ptr %54, null
  br i1 %tobool.not.i.i.i200, label %_ZNSt6vectorIjSaIjEE17_M_realloc_insertIJRKjEEEvN9__gnu_cxx17__normal_iteratorIPjS1_EEDpOT_.exit.i, label %if.then.i21.i.i

if.then.i21.i.i:                                  ; preds = %_ZNSt6vectorIjSaIjEE11_S_relocateEPjS2_S2_RS0_.exit20.i.i
  call void @_ZdlPv(ptr noundef nonnull %54) #22
  br label %_ZNSt6vectorIjSaIjEE17_M_realloc_insertIJRKjEEEvN9__gnu_cxx17__normal_iteratorIPjS1_EEDpOT_.exit.i

_ZNSt6vectorIjSaIjEE17_M_realloc_insertIJRKjEEEvN9__gnu_cxx17__normal_iteratorIPjS1_EEDpOT_.exit.i: ; preds = %if.then.i21.i.i, %_ZNSt6vectorIjSaIjEE11_S_relocateEPjS2_S2_RS0_.exit20.i.i
  store ptr %cond.i10.i.i197, ptr %m_faces, align 8
  store ptr %incdec.ptr.i.i199, ptr %_M_finish.i177, align 8
  %add.ptr19.i.i201 = getelementptr inbounds i32, ptr %cond.i10.i.i197, i64 %cond.i.i.i194
  store ptr %add.ptr19.i.i201, ptr %_M_end_of_storage.i.i89, align 8
  br label %for.inc

for.inc:                                          ; preds = %if.then.i180, %_ZNSt6vectorIjSaIjEE17_M_realloc_insertIJRKjEEEvN9__gnu_cxx17__normal_iteratorIPjS1_EEDpOT_.exit.i, %invoke.cont98
  %count.1 = phi i32 [ %inc, %invoke.cont98 ], [ 0, %_ZNSt6vectorIjSaIjEE17_M_realloc_insertIJRKjEEEvN9__gnu_cxx17__normal_iteratorIPjS1_EEDpOT_.exit.i ], [ 0, %if.then.i180 ]
  %incdec.ptr.i206 = getelementptr inbounds i32, ptr %__begin2.sroa.0.0289, i64 1
  %cmp.i168.not = icmp eq ptr %incdec.ptr.i206, %37
  br i1 %cmp.i168.not, label %for.end.loopexit, label %for.body

for.end.loopexit:                                 ; preds = %for.inc
  %.pre308 = load ptr, ptr %_M_finish.i.i, align 8
  %.pre309 = load ptr, ptr %tempVerts, align 8
  %.pre320 = ptrtoint ptr %.pre308 to i64
  %.pre321 = ptrtoint ptr %.pre309 to i64
  %.pre322 = sub i64 %.pre320, %.pre321
  %.pre323 = sdiv exact i64 %.pre322, 12
  br label %for.end

for.end:                                          ; preds = %for.end.loopexit, %invoke.cont76
  %sub.ptr.div.i211.pre-phi = phi i64 [ %.pre323, %for.end.loopexit ], [ %sub.ptr.div.i166, %invoke.cont76 ]
  %56 = phi ptr [ %.pre309, %for.end.loopexit ], [ %40, %invoke.cont76 ]
  %57 = phi ptr [ %.pre308, %for.end.loopexit ], [ %39, %invoke.cont76 ]
  %cmp111291.not = icmp eq ptr %57, %56
  br i1 %cmp111291.not, label %for.end121, label %for.body112.preheader

for.body112.preheader:                            ; preds = %for.end
  %umax = call i64 @llvm.umax.i64(i64 %sub.ptr.div.i211.pre-phi, i64 1)
  br label %for.body112

for.body112:                                      ; preds = %for.body112.preheader, %for.body112
  %cursor.0293 = phi i32 [ %add, %for.body112 ], [ 0, %for.body112.preheader ]
  %i.0292 = phi i64 [ %inc120, %for.body112 ], [ 0, %for.body112.preheader ]
  %58 = load ptr, ptr %m_mapping_offsets, align 8
  %add.ptr.i212 = getelementptr inbounds i32, ptr %58, i64 %i.0292
  store i32 %cursor.0293, ptr %add.ptr.i212, align 4
  %59 = load ptr, ptr %m_mapping_counts, align 8
  %add.ptr.i213 = getelementptr inbounds i32, ptr %59, i64 %i.0292
  %60 = load i32, ptr %add.ptr.i213, align 4
  %add = add i32 %60, %cursor.0293
  store i32 0, ptr %add.ptr.i213, align 4
  %inc120 = add nuw i64 %i.0292, 1
  %exitcond.not = icmp eq i64 %inc120, %umax
  br i1 %exitcond.not, label %for.end121, label %for.body112, !llvm.loop !15

for.end121:                                       ; preds = %for.body112, %for.end
  %61 = load ptr, ptr %tempFaces, align 8
  %62 = load ptr, ptr %_M_finish.i.i66, align 8
  %cmp.i216.not294 = icmp eq ptr %61, %62
  br i1 %cmp.i216.not294, label %for.cond157.preheader, label %for.body131

for.cond157.preheader:                            ; preds = %for.body131, %for.end121
  %cmp.i221.not297 = icmp eq ptr %6, %7
  br i1 %cmp.i221.not297, label %for.end193, label %for.body159

for.body131:                                      ; preds = %for.end121, %for.body131
  %cursor.1296 = phi i32 [ %inc142, %for.body131 ], [ 0, %for.end121 ]
  %__begin2123.sroa.0.0295 = phi ptr [ %incdec.ptr.i220, %for.body131 ], [ %61, %for.end121 ]
  %63 = load i32, ptr %__begin2123.sroa.0.0295, align 4
  %.lobit = ashr i32 %63, 31
  %cond141 = xor i32 %.lobit, %63
  %inc142 = add i32 %cursor.1296, 1
  %conv145 = sext i32 %cond141 to i64
  %64 = load ptr, ptr %m_mapping_offsets, align 8
  %add.ptr.i217 = getelementptr inbounds i32, ptr %64, i64 %conv145
  %65 = load i32, ptr %add.ptr.i217, align 4
  %66 = load ptr, ptr %m_mapping_counts, align 8
  %add.ptr.i218 = getelementptr inbounds i32, ptr %66, i64 %conv145
  %67 = load i32, ptr %add.ptr.i218, align 4
  %inc150 = add i32 %67, 1
  store i32 %inc150, ptr %add.ptr.i218, align 4
  %add151 = add i32 %67, %65
  %conv152 = zext i32 %add151 to i64
  %68 = load ptr, ptr %m_mappings, align 8
  %add.ptr.i219 = getelementptr inbounds i32, ptr %68, i64 %conv152
  store i32 %cursor.1296, ptr %add.ptr.i219, align 4
  %incdec.ptr.i220 = getelementptr inbounds i32, ptr %__begin2123.sroa.0.0295, i64 1
  %cmp.i216.not = icmp eq ptr %incdec.ptr.i220, %62
  br i1 %cmp.i216.not, label %for.cond157.preheader, label %for.body131

for.body159:                                      ; preds = %for.cond157.preheader, %for.inc191
  %it.sroa.0.0298 = phi ptr [ %call.i, %for.inc191 ], [ %6, %for.cond157.preheader ]
  %second161 = getelementptr inbounds %"struct.std::_Rb_tree_node", ptr %it.sroa.0.0298, i64 0, i32 1, i32 0, i64 32
  %69 = load ptr, ptr %second161, align 8
  %tokens.i = getelementptr inbounds %"class.Assimp::FBX::Element", ptr %69, i64 0, i32 1
  %70 = load ptr, ptr %tokens.i, align 8
  %71 = load ptr, ptr %70, align 8
  %call167 = invoke noundef i32 @_ZN6Assimp3FBX15ParseTokenAsIntERKNS0_5TokenERPKc(ptr noundef nonnull align 8 dereferenceable(36) %71, ptr noundef nonnull align 8 dereferenceable(8) %err)
          to label %invoke.cont166 unwind label %lpad55.loopexit

invoke.cont166:                                   ; preds = %for.body159
  %72 = load ptr, ptr %err, align 8
  %tobool168.not = icmp eq ptr %72, null
  br i1 %tobool168.not, label %if.end178, label %if.then169

if.then169:                                       ; preds = %invoke.cont166
  call void @_ZNSaIcEC1Ev(ptr noundef nonnull align 1 dereferenceable(1) %ref.tmp171) #23
  invoke void @_ZNSt7__cxx1112basic_stringIcSt11char_traitsIcESaIcEEC2IS3_EEPKcRKS3_(ptr noundef nonnull align 8 dereferenceable(32) %ref.tmp170, ptr noundef nonnull %72, ptr noundef nonnull align 1 dereferenceable(1) %ref.tmp171)
          to label %invoke.cont173 unwind label %lpad172

invoke.cont173:                                   ; preds = %if.then169
  invoke void @_ZN6Assimp3FBX4Util8DOMErrorERKNSt7__cxx1112basic_stringIcSt11char_traitsIcESaIcEEEPKNS0_7ElementE(ptr noundef nonnull align 8 dereferenceable(32) %ref.tmp170, ptr noundef nonnull %element) #24
          to label %invoke.cont175 unwind label %lpad174

invoke.cont175:                                   ; preds = %invoke.cont173
  unreachable

lpad172:                                          ; preds = %if.then169
  %73 = landingpad { ptr, i32 }
          cleanup
  br label %ehcleanup177

lpad174:                                          ; preds = %invoke.cont173
  %74 = landingpad { ptr, i32 }
          cleanup
  call void @_ZNSt7__cxx1112basic_stringIcSt11char_traitsIcESaIcEED1Ev(ptr noundef nonnull align 8 dereferenceable(32) %ref.tmp170) #23
  br label %ehcleanup177

ehcleanup177:                                     ; preds = %lpad174, %lpad172
  %.pn34 = phi { ptr, i32 } [ %74, %lpad174 ], [ %73, %lpad172 ]
  call void @_ZNSaIcED1Ev(ptr noundef nonnull align 1 dereferenceable(1) %ref.tmp171) #23
  br label %ehcleanup194

if.end178:                                        ; preds = %invoke.cont166
  %75 = load ptr, ptr %doc, align 8
  %readAllLayers = getelementptr inbounds %"struct.Assimp::FBX::ImportSettings", ptr %75, i64 0, i32 1
  %76 = load i8, ptr %readAllLayers, align 1
  %77 = and i8 %76, 1
  %tobool181 = icmp ne i8 %77, 0
  %cmp182 = icmp eq i32 %call167, 0
  %or.cond = or i1 %cmp182, %tobool181
  br i1 %or.cond, label %if.then183, label %if.else

if.then183:                                       ; preds = %if.end178
  %78 = load ptr, ptr %second161, align 8
  %call187 = invoke noundef nonnull align 8 dereferenceable(48) ptr @_ZN6Assimp3FBX16GetRequiredScopeERKNS0_7ElementE(ptr noundef nonnull align 8 dereferenceable(40) %78)
          to label %invoke.cont186 unwind label %lpad55.loopexit

invoke.cont186:                                   ; preds = %if.then183
  invoke void @_ZN6Assimp3FBX12MeshGeometry9ReadLayerERKNS0_5ScopeE(ptr noundef nonnull align 8 dereferenceable(1000) %this, ptr noundef nonnull align 8 dereferenceable(48) %call187)
          to label %for.inc191 unwind label %lpad55.loopexit

if.else:                                          ; preds = %if.end178
  call void @llvm.lifetime.start.p0(i64 8, ptr nonnull %ref.tmp.i223)
  %call.i227 = invoke noundef zeroext i1 @_ZN6Assimp13DefaultLogger12isNullLoggerEv()
          to label %call.i.noexc226 unwind label %lpad55.loopexit

call.i.noexc226:                                  ; preds = %if.else
  br i1 %call.i227, label %_ZN6Assimp12LogFunctionsINS_11FBXImporterEE7LogWarnIJRA36_KcEEEvDpOT_.exit, label %if.then.i224

if.then.i224:                                     ; preds = %call.i.noexc226
  %call1.i229 = invoke noundef ptr @_ZN6Assimp13DefaultLogger3getEv()
          to label %call1.i.noexc228 unwind label %lpad55.loopexit

call1.i.noexc228:                                 ; preds = %if.then.i224
  %call2.i231 = invoke noundef ptr @_ZN6Assimp12LogFunctionsINS_11FBXImporterEE6PrefixEv()
          to label %call2.i.noexc230 unwind label %lpad55.loopexit

call2.i.noexc230:                                 ; preds = %call1.i.noexc228
  store ptr %call2.i231, ptr %ref.tmp.i223, align 8
  invoke void @_ZN6Assimp6Logger4warnIJPKcRA36_S2_EEEvDpOT_(ptr noundef nonnull align 8 dereferenceable(12) %call1.i229, ptr noundef nonnull align 8 dereferenceable(8) %ref.tmp.i223, ptr noundef nonnull align 1 dereferenceable(36) @.str.11)
          to label %_ZN6Assimp12LogFunctionsINS_11FBXImporterEE7LogWarnIJRA36_KcEEEvDpOT_.exit unwind label %lpad55.loopexit

_ZN6Assimp12LogFunctionsINS_11FBXImporterEE7LogWarnIJRA36_KcEEEvDpOT_.exit: ; preds = %call2.i.noexc230, %call.i.noexc226
  call void @llvm.lifetime.end.p0(i64 8, ptr nonnull %ref.tmp.i223)
  br label %for.inc191

for.inc191:                                       ; preds = %_ZN6Assimp12LogFunctionsINS_11FBXImporterEE7LogWarnIJRA36_KcEEEvDpOT_.exit, %invoke.cont186
  %call.i = call noundef ptr @_ZSt18_Rb_tree_incrementPKSt18_Rb_tree_node_base(ptr noundef nonnull %it.sroa.0.0298) #26
  %cmp.i221.not = icmp eq ptr %call.i, %7
  br i1 %cmp.i221.not, label %for.end193, label %for.body159, !llvm.loop !16

for.end193:                                       ; preds = %for.inc191, %for.cond157.preheader
  %79 = load ptr, ptr %tempFaces, align 8
  %tobool.not.i.i.i233 = icmp eq ptr %79, null
  br i1 %tobool.not.i.i.i233, label %_ZNSt6vectorIiSaIiEED2Ev.exit, label %if.then.i.i.i234

if.then.i.i.i234:                                 ; preds = %for.end193
  call void @_ZdlPv(ptr noundef nonnull %79) #22
  br label %_ZNSt6vectorIiSaIiEED2Ev.exit

_ZNSt6vectorIiSaIiEED2Ev.exit:                    ; preds = %for.end193, %if.then.i.i.i234
  %80 = load ptr, ptr %tempVerts, align 8
  %tobool.not.i.i.i235 = icmp eq ptr %80, null
  br i1 %tobool.not.i.i.i235, label %_ZNSt6vectorI10aiVector3tIfESaIS1_EED2Ev.exit, label %if.then.i.i.i236

if.then.i.i.i236:                                 ; preds = %_ZNSt6vectorIiSaIiEED2Ev.exit
  call void @_ZdlPv(ptr noundef nonnull %80) #22
  br label %_ZNSt6vectorI10aiVector3tIfESaIS1_EED2Ev.exit

_ZNSt6vectorI10aiVector3tIfESaIS1_EED2Ev.exit:    ; preds = %_ZNSt6vectorIiSaIiEED2Ev.exit, %if.then.i.i.i236
  ret void

ehcleanup194:                                     ; preds = %lpad55.loopexit, %lpad55.loopexit.split-lp.loopexit.split-lp, %lpad55.loopexit.split-lp.loopexit, %ehcleanup177, %ehcleanup93
  %.pn37.pn = phi { ptr, i32 } [ %.pn37, %ehcleanup93 ], [ %.pn34, %ehcleanup177 ], [ %lpad.loopexit, %lpad55.loopexit ], [ %lpad.loopexit285, %lpad55.loopexit.split-lp.loopexit ], [ %lpad.loopexit.split-lp286, %lpad55.loopexit.split-lp.loopexit.split-lp ]
  %81 = load ptr, ptr %tempFaces, align 8
  %tobool.not.i.i.i237 = icmp eq ptr %81, null
  br i1 %tobool.not.i.i.i237, label %ehcleanup195, label %if.then.i.i.i238

if.then.i.i.i238:                                 ; preds = %ehcleanup194
  call void @_ZdlPv(ptr noundef nonnull %81) #22
  br label %ehcleanup195

ehcleanup195:                                     ; preds = %if.then.i.i.i238, %ehcleanup194, %lpad49
  %.pn37.pn.pn = phi { ptr, i32 } [ %16, %lpad49 ], [ %.pn37.pn, %ehcleanup194 ], [ %.pn37.pn, %if.then.i.i.i238 ]
  %82 = load ptr, ptr %tempVerts, align 8
  %tobool.not.i.i.i240 = icmp eq ptr %82, null
  br i1 %tobool.not.i.i.i240, label %ehcleanup196, label %if.then.i.i.i241

if.then.i.i.i241:                                 ; preds = %ehcleanup195
  call void @_ZdlPv(ptr noundef nonnull %82) #22
  br label %ehcleanup196

ehcleanup196:                                     ; preds = %if.then.i.i.i241, %ehcleanup195, %ehcleanup48, %ehcleanup38, %ehcleanup29, %ehcleanup
  %.pn37.pn.pn.pn = phi { ptr, i32 } [ %.pn32, %ehcleanup48 ], [ %.pn30, %ehcleanup38 ], [ %.pn28, %ehcleanup29 ], [ %.pn, %ehcleanup ], [ %.pn37.pn.pn, %ehcleanup195 ], [ %.pn37.pn.pn, %if.then.i.i.i241 ]
  %83 = load ptr, ptr %m_mappings, align 8
  %tobool.not.i.i.i243 = icmp eq ptr %83, null
  br i1 %tobool.not.i.i.i243, label %_ZNSt6vectorIjSaIjEED2Ev.exit, label %if.then.i.i.i244

if.then.i.i.i244:                                 ; preds = %ehcleanup196
  call void @_ZdlPv(ptr noundef nonnull %83) #22
  br label %_ZNSt6vectorIjSaIjEED2Ev.exit

_ZNSt6vectorIjSaIjEED2Ev.exit:                    ; preds = %ehcleanup196, %if.then.i.i.i244
  %84 = load ptr, ptr %m_mapping_offsets, align 8
  %tobool.not.i.i.i245 = icmp eq ptr %84, null
  br i1 %tobool.not.i.i.i245, label %_ZNSt6vectorIjSaIjEED2Ev.exit247, label %if.then.i.i.i246

if.then.i.i.i246:                                 ; preds = %_ZNSt6vectorIjSaIjEED2Ev.exit
  call void @_ZdlPv(ptr noundef nonnull %84) #22
  br label %_ZNSt6vectorIjSaIjEED2Ev.exit247

_ZNSt6vectorIjSaIjEED2Ev.exit247:                 ; preds = %_ZNSt6vectorIjSaIjEED2Ev.exit, %if.then.i.i.i246
  %85 = load ptr, ptr %m_mapping_counts, align 8
  %tobool.not.i.i.i248 = icmp eq ptr %85, null
  br i1 %tobool.not.i.i.i248, label %arraydestroy.body.preheader, label %if.then.i.i.i249

if.then.i.i.i249:                                 ; preds = %_ZNSt6vectorIjSaIjEED2Ev.exit247
  call void @_ZdlPv(ptr noundef nonnull %85) #22
  br label %arraydestroy.body.preheader

arraydestroy.body.preheader:                      ; preds = %_ZNSt6vectorIjSaIjEED2Ev.exit247, %if.then.i.i.i249
  br label %arraydestroy.body

arraydestroy.body:                                ; preds = %arraydestroy.body.preheader, %_ZNSt6vectorI9aiColor4tIfESaIS1_EED2Ev.exit
  %arraydestroy.elementPast.idx = phi i64 [ %arraydestroy.elementPast.add, %_ZNSt6vectorI9aiColor4tIfESaIS1_EED2Ev.exit ], [ 928, %arraydestroy.body.preheader ]
  %arraydestroy.elementPast.add = add nsw i64 %arraydestroy.elementPast.idx, -24
  %arraydestroy.element.ptr = getelementptr inbounds i8, ptr %this, i64 %arraydestroy.elementPast.add
  %86 = load ptr, ptr %arraydestroy.element.ptr, align 8
  %tobool.not.i.i.i251 = icmp eq ptr %86, null
  br i1 %tobool.not.i.i.i251, label %_ZNSt6vectorI9aiColor4tIfESaIS1_EED2Ev.exit, label %if.then.i.i.i252

if.then.i.i.i252:                                 ; preds = %arraydestroy.body
  call void @_ZdlPv(ptr noundef nonnull %86) #22
  br label %_ZNSt6vectorI9aiColor4tIfESaIS1_EED2Ev.exit

_ZNSt6vectorI9aiColor4tIfESaIS1_EED2Ev.exit:      ; preds = %arraydestroy.body, %if.then.i.i.i252
  %arraydestroy.done = icmp eq i64 %arraydestroy.elementPast.add, 736
  br i1 %arraydestroy.done, label %arraydestroy.body204, label %arraydestroy.body

arraydestroy.body204:                             ; preds = %_ZNSt6vectorI9aiColor4tIfESaIS1_EED2Ev.exit, %_ZNSt6vectorI10aiVector2tIfESaIS1_EED2Ev.exit
  %arraydestroy.elementPast205.idx = phi i64 [ %arraydestroy.elementPast205.add, %_ZNSt6vectorI10aiVector2tIfESaIS1_EED2Ev.exit ], [ 736, %_ZNSt6vectorI9aiColor4tIfESaIS1_EED2Ev.exit ]
  %arraydestroy.elementPast205.add = add nsw i64 %arraydestroy.elementPast205.idx, -24
  %arraydestroy.element206.ptr = getelementptr inbounds i8, ptr %this, i64 %arraydestroy.elementPast205.add
  %87 = load ptr, ptr %arraydestroy.element206.ptr, align 8
  %tobool.not.i.i.i253 = icmp eq ptr %87, null
  br i1 %tobool.not.i.i.i253, label %_ZNSt6vectorI10aiVector2tIfESaIS1_EED2Ev.exit, label %if.then.i.i.i254

if.then.i.i.i254:                                 ; preds = %arraydestroy.body204
  call void @_ZdlPv(ptr noundef nonnull %87) #22
  br label %_ZNSt6vectorI10aiVector2tIfESaIS1_EED2Ev.exit

_ZNSt6vectorI10aiVector2tIfESaIS1_EED2Ev.exit:    ; preds = %arraydestroy.body204, %if.then.i.i.i254
  %arraydestroy.done207 = icmp eq i64 %arraydestroy.elementPast205.add, 544
  br i1 %arraydestroy.done207, label %arraydestroy.body211, label %arraydestroy.body204

arraydestroy.body211:                             ; preds = %_ZNSt6vectorI10aiVector2tIfESaIS1_EED2Ev.exit, %arraydestroy.body211
  %arraydestroy.elementPast212.idx = phi i64 [ %arraydestroy.elementPast212.add, %arraydestroy.body211 ], [ 544, %_ZNSt6vectorI10aiVector2tIfESaIS1_EED2Ev.exit ]
  %arraydestroy.elementPast212.add = add nsw i64 %arraydestroy.elementPast212.idx, -32
  %arraydestroy.element213.ptr = getelementptr inbounds i8, ptr %this, i64 %arraydestroy.elementPast212.add
  call void @_ZNSt7__cxx1112basic_stringIcSt11char_traitsIcESaIcEED1Ev(ptr noundef nonnull align 8 dereferenceable(32) %arraydestroy.element213.ptr) #23
  %arraydestroy.done214 = icmp eq i64 %arraydestroy.elementPast212.add, 288
  br i1 %arraydestroy.done214, label %arraydestroy.done215, label %arraydestroy.body211

arraydestroy.done215:                             ; preds = %arraydestroy.body211
  %88 = load ptr, ptr %m_normals, align 8
  %tobool.not.i.i.i255 = icmp eq ptr %88, null
  br i1 %tobool.not.i.i.i255, label %_ZNSt6vectorI10aiVector3tIfESaIS1_EED2Ev.exit257, label %if.then.i.i.i256

if.then.i.i.i256:                                 ; preds = %arraydestroy.done215
  call void @_ZdlPv(ptr noundef nonnull %88) #22
  br label %_ZNSt6vectorI10aiVector3tIfESaIS1_EED2Ev.exit257

_ZNSt6vectorI10aiVector3tIfESaIS1_EED2Ev.exit257: ; preds = %arraydestroy.done215, %if.then.i.i.i256
  %89 = load ptr, ptr %m_binormals, align 8
  %tobool.not.i.i.i258 = icmp eq ptr %89, null
  br i1 %tobool.not.i.i.i258, label %_ZNSt6vectorI10aiVector3tIfESaIS1_EED2Ev.exit260, label %if.then.i.i.i259

if.then.i.i.i259:                                 ; preds = %_ZNSt6vectorI10aiVector3tIfESaIS1_EED2Ev.exit257
  call void @_ZdlPv(ptr noundef nonnull %89) #22
  br label %_ZNSt6vectorI10aiVector3tIfESaIS1_EED2Ev.exit260

_ZNSt6vectorI10aiVector3tIfESaIS1_EED2Ev.exit260: ; preds = %_ZNSt6vectorI10aiVector3tIfESaIS1_EED2Ev.exit257, %if.then.i.i.i259
  %90 = load ptr, ptr %m_tangents, align 8
  %tobool.not.i.i.i261 = icmp eq ptr %90, null
  br i1 %tobool.not.i.i.i261, label %_ZNSt6vectorI10aiVector3tIfESaIS1_EED2Ev.exit263, label %if.then.i.i.i262

if.then.i.i.i262:                                 ; preds = %_ZNSt6vectorI10aiVector3tIfESaIS1_EED2Ev.exit260
  call void @_ZdlPv(ptr noundef nonnull %90) #22
  br label %_ZNSt6vectorI10aiVector3tIfESaIS1_EED2Ev.exit263

_ZNSt6vectorI10aiVector3tIfESaIS1_EED2Ev.exit263: ; preds = %_ZNSt6vectorI10aiVector3tIfESaIS1_EED2Ev.exit260, %if.then.i.i.i262
  %91 = load ptr, ptr %m_facesVertexStartIndices, align 8
  %tobool.not.i.i.i264 = icmp eq ptr %91, null
  br i1 %tobool.not.i.i.i264, label %_ZNSt6vectorIjSaIjEED2Ev.exit266, label %if.then.i.i.i265

if.then.i.i.i265:                                 ; preds = %_ZNSt6vectorI10aiVector3tIfESaIS1_EED2Ev.exit263
  call void @_ZdlPv(ptr noundef nonnull %91) #22
  br label %_ZNSt6vectorIjSaIjEED2Ev.exit266

_ZNSt6vectorIjSaIjEED2Ev.exit266:                 ; preds = %_ZNSt6vectorI10aiVector3tIfESaIS1_EED2Ev.exit263, %if.then.i.i.i265
  %92 = load ptr, ptr %m_faces, align 8
  %tobool.not.i.i.i267 = icmp eq ptr %92, null
  br i1 %tobool.not.i.i.i267, label %_ZNSt6vectorIjSaIjEED2Ev.exit269, label %if.then.i.i.i268

if.then.i.i.i268:                                 ; preds = %_ZNSt6vectorIjSaIjEED2Ev.exit266
  call void @_ZdlPv(ptr noundef nonnull %92) #22
  br label %_ZNSt6vectorIjSaIjEED2Ev.exit269

_ZNSt6vectorIjSaIjEED2Ev.exit269:                 ; preds = %_ZNSt6vectorIjSaIjEED2Ev.exit266, %if.then.i.i.i268
  %93 = load ptr, ptr %m_vertices, align 8
  %tobool.not.i.i.i270 = icmp eq ptr %93, null
  br i1 %tobool.not.i.i.i270, label %_ZNSt6vectorI10aiVector3tIfESaIS1_EED2Ev.exit272, label %if.then.i.i.i271

if.then.i.i.i271:                                 ; preds = %_ZNSt6vectorIjSaIjEED2Ev.exit269
  call void @_ZdlPv(ptr noundef nonnull %93) #22
  br label %_ZNSt6vectorI10aiVector3tIfESaIS1_EED2Ev.exit272

_ZNSt6vectorI10aiVector3tIfESaIS1_EED2Ev.exit272: ; preds = %_ZNSt6vectorIjSaIjEED2Ev.exit269, %if.then.i.i.i271
  %94 = load ptr, ptr %m_materials, align 8
  %tobool.not.i.i.i273 = icmp eq ptr %94, null
  br i1 %tobool.not.i.i.i273, label %_ZNSt6vectorIiSaIiEED2Ev.exit275, label %if.then.i.i.i274

if.then.i.i.i274:                                 ; preds = %_ZNSt6vectorI10aiVector3tIfESaIS1_EED2Ev.exit272
  call void @_ZdlPv(ptr noundef nonnull %94) #22
  br label %_ZNSt6vectorIiSaIiEED2Ev.exit275

_ZNSt6vectorIiSaIiEED2Ev.exit275:                 ; preds = %_ZNSt6vectorI10aiVector3tIfESaIS1_EED2Ev.exit272, %if.then.i.i.i274
  call void @_ZN6Assimp3FBX8GeometryD2Ev(ptr noundef nonnull align 8 dereferenceable(120) %this) #23
  resume { ptr, i32 } %.pn37.pn.pn.pn
}

; Function Attrs: nounwind
declare void @_ZNSt7__cxx1112basic_stringIcSt11char_traitsIcESaIcEEC1Ev(ptr noundef nonnull align 8 dereferenceable(32)) unnamed_addr #5

; Function Attrs: noreturn
declare void @_ZN6Assimp3FBX4Util8DOMErrorERKNSt7__cxx1112basic_stringIcSt11char_traitsIcESaIcEEEPKNS0_7ElementE(ptr noundef nonnull align 8 dereferenceable(32), ptr noundef) local_unnamed_addr #6

; Function Attrs: nounwind
declare void @_ZNSaIcEC1Ev(ptr noundef nonnull align 1 dereferenceable(1)) unnamed_addr #5

; Function Attrs: mustprogress uwtable
define linkonce_odr void @_ZNSt7__cxx1112basic_stringIcSt11char_traitsIcESaIcEEC2IS3_EEPKcRKS3_(ptr noundef nonnull align 8 dereferenceable(32) %this, ptr noundef %__s, ptr noundef nonnull align 1 dereferenceable(1) %__a) unnamed_addr #0 comdat align 2 personality ptr @__gxx_personality_v0 {
entry:
  %call = tail call noundef ptr @_ZNSt7__cxx1112basic_stringIcSt11char_traitsIcESaIcEE13_M_local_dataEv(ptr noundef nonnull align 8 dereferenceable(32) %this)
  tail call void @_ZNSt7__cxx1112basic_stringIcSt11char_traitsIcESaIcEE12_Alloc_hiderC1EPcRKS3_(ptr noundef nonnull align 8 dereferenceable(8) %this, ptr noundef %call, ptr noundef nonnull align 1 dereferenceable(1) %__a)
  %cmp = icmp eq ptr %__s, null
  br i1 %cmp, label %if.then, label %if.end

if.then:                                          ; preds = %entry
  invoke void @_ZSt19__throw_logic_errorPKc(ptr noundef nonnull @.str.65) #24
          to label %invoke.cont unwind label %lpad

invoke.cont:                                      ; preds = %if.then
  unreachable

lpad:                                             ; preds = %if.end, %if.then
  %0 = landingpad { ptr, i32 }
          cleanup
  tail call void @_ZNSaIcED2Ev(ptr noundef nonnull align 1 dereferenceable(1) %this) #23
  resume { ptr, i32 } %0

if.end:                                           ; preds = %entry
  %call.i = tail call noundef i64 @strlen(ptr noundef nonnull dereferenceable(1) %__s) #23
  %add.ptr = getelementptr inbounds i8, ptr %__s, i64 %call.i
  invoke void @_ZNSt7__cxx1112basic_stringIcSt11char_traitsIcESaIcEE12_M_constructIPKcEEvT_S8_St20forward_iterator_tag(ptr noundef nonnull align 8 dereferenceable(32) %this, ptr noundef nonnull %__s, ptr noundef nonnull %add.ptr)
          to label %invoke.cont4 unwind label %lpad

invoke.cont4:                                     ; preds = %if.end
  ret void
}

; Function Attrs: nounwind
declare void @_ZNSt7__cxx1112basic_stringIcSt11char_traitsIcESaIcEED1Ev(ptr noundef nonnull align 8 dereferenceable(32)) unnamed_addr #5

; Function Attrs: nounwind
declare void @_ZNSaIcED1Ev(ptr noundef nonnull align 1 dereferenceable(1)) unnamed_addr #5

declare noundef nonnull align 8 dereferenceable(40) ptr @_ZN6Assimp3FBX18GetRequiredElementERKNS0_5ScopeERKNSt7__cxx1112basic_stringIcSt11char_traitsIcESaIcEEEPKNS0_7ElementE(ptr noundef nonnull align 8 dereferenceable(48), ptr noundef nonnull align 8 dereferenceable(32), ptr noundef) local_unnamed_addr #1

declare void @_ZN6Assimp3FBX20ParseVectorDataArrayERSt6vectorI10aiVector3tIfESaIS3_EERKNS0_7ElementE(ptr noundef nonnull align 8 dereferenceable(24), ptr noundef nonnull align 8 dereferenceable(40)) local_unnamed_addr #1

declare void @_ZN6Assimp3FBX20ParseVectorDataArrayERSt6vectorIiSaIiEERKNS0_7ElementE(ptr noundef nonnull align 8 dereferenceable(24), ptr noundef nonnull align 8 dereferenceable(40)) local_unnamed_addr #1

; Function Attrs: mustprogress nocallback nofree nounwind willreturn memory(argmem: readwrite)
declare void @llvm.memcpy.p0.p0.i64(ptr noalias nocapture writeonly, ptr noalias nocapture readonly, i64, i1 immarg) #7

declare noundef i32 @_ZN6Assimp3FBX15ParseTokenAsIntERKNS0_5TokenERPKc(ptr noundef nonnull align 8 dereferenceable(36), ptr noundef nonnull align 8 dereferenceable(8)) local_unnamed_addr #1

declare noundef nonnull align 8 dereferenceable(48) ptr @_ZN6Assimp3FBX16GetRequiredScopeERKNS0_7ElementE(ptr noundef nonnull align 8 dereferenceable(40)) local_unnamed_addr #1

; Function Attrs: mustprogress uwtable
define hidden void @_ZN6Assimp3FBX12MeshGeometry9ReadLayerERKNS0_5ScopeE(ptr noundef nonnull align 8 dereferenceable(1000) %this, ptr noundef nonnull align 8 dereferenceable(48) %layer) local_unnamed_addr #0 align 2 personality ptr @__gxx_personality_v0 {
entry:
  %ref.tmp2 = alloca %"class.std::__cxx11::basic_string", align 8
  %ref.tmp3 = alloca %"class.std::allocator", align 1
  call void @_ZNSaIcEC1Ev(ptr noundef nonnull align 1 dereferenceable(1) %ref.tmp3) #23
  %call.i3 = invoke noundef ptr @_ZNSt7__cxx1112basic_stringIcSt11char_traitsIcESaIcEE13_M_local_dataEv(ptr noundef nonnull align 8 dereferenceable(32) %ref.tmp2)
          to label %call.i.noexc unwind label %lpad

call.i.noexc:                                     ; preds = %entry
  invoke void @_ZNSt7__cxx1112basic_stringIcSt11char_traitsIcESaIcEE12_Alloc_hiderC1EPcRKS3_(ptr noundef nonnull align 8 dereferenceable(8) %ref.tmp2, ptr noundef %call.i3, ptr noundef nonnull align 1 dereferenceable(1) %ref.tmp3)
          to label %.noexc unwind label %lpad

.noexc:                                           ; preds = %call.i.noexc
  invoke void @_ZNSt7__cxx1112basic_stringIcSt11char_traitsIcESaIcEE12_M_constructIPKcEEvT_S8_St20forward_iterator_tag(ptr noundef nonnull align 8 dereferenceable(32) %ref.tmp2, ptr noundef nonnull @.str.13, ptr noundef nonnull getelementptr inbounds ([13 x i8], ptr @.str.13, i64 0, i64 12))
          to label %invoke.cont unwind label %lpad.i

lpad.i:                                           ; preds = %.noexc
  %0 = landingpad { ptr, i32 }
          cleanup
  call void @_ZNSaIcED2Ev(ptr noundef nonnull align 1 dereferenceable(1) %ref.tmp2) #23
  br label %ehcleanup

invoke.cont:                                      ; preds = %.noexc
  %call.i.i45 = invoke { ptr, ptr } @_ZNKSt8_Rb_treeINSt7__cxx1112basic_stringIcSt11char_traitsIcESaIcEEESt4pairIKS5_PN6Assimp3FBX7ElementEESt10_Select1stISC_ESt4lessIS5_ESaISC_EE11equal_rangeERS7_(ptr noundef nonnull align 8 dereferenceable(48) %layer, ptr noundef nonnull align 8 dereferenceable(32) %ref.tmp2)
          to label %invoke.cont5 unwind label %lpad4

invoke.cont5:                                     ; preds = %invoke.cont
  %1 = extractvalue { ptr, ptr } %call.i.i45, 0
  %2 = extractvalue { ptr, ptr } %call.i.i45, 1
  call void @_ZNSt7__cxx1112basic_stringIcSt11char_traitsIcESaIcEED1Ev(ptr noundef nonnull align 8 dereferenceable(32) %ref.tmp2) #23
  call void @_ZNSaIcED1Ev(ptr noundef nonnull align 1 dereferenceable(1) %ref.tmp3) #23
  %cmp.i.not8 = icmp eq ptr %1, %2
  br i1 %cmp.i.not8, label %for.end, label %for.body

for.body:                                         ; preds = %invoke.cont5, %for.body
  %eit.sroa.0.09 = phi ptr [ %call.i, %for.body ], [ %1, %invoke.cont5 ]
  %second8 = getelementptr inbounds %"struct.std::_Rb_tree_node", ptr %eit.sroa.0.09, i64 0, i32 1, i32 0, i64 32
  %3 = load ptr, ptr %second8, align 8
  %call9 = call noundef nonnull align 8 dereferenceable(48) ptr @_ZN6Assimp3FBX16GetRequiredScopeERKNS0_7ElementE(ptr noundef nonnull align 8 dereferenceable(40) %3)
  call void @_ZN6Assimp3FBX12MeshGeometry16ReadLayerElementERKNS0_5ScopeE(ptr noundef nonnull align 8 dereferenceable(1000) %this, ptr noundef nonnull align 8 dereferenceable(48) %call9)
  %call.i = call noundef ptr @_ZSt18_Rb_tree_incrementPKSt18_Rb_tree_node_base(ptr noundef %eit.sroa.0.09) #26
  %cmp.i.not = icmp eq ptr %call.i, %2
  br i1 %cmp.i.not, label %for.end, label %for.body, !llvm.loop !17

lpad:                                             ; preds = %call.i.noexc, %entry
  %4 = landingpad { ptr, i32 }
          cleanup
  br label %ehcleanup

lpad4:                                            ; preds = %invoke.cont
  %5 = landingpad { ptr, i32 }
          cleanup
  call void @_ZNSt7__cxx1112basic_stringIcSt11char_traitsIcESaIcEED1Ev(ptr noundef nonnull align 8 dereferenceable(32) %ref.tmp2) #23
  br label %ehcleanup

ehcleanup:                                        ; preds = %lpad, %lpad.i, %lpad4
  %.pn = phi { ptr, i32 } [ %5, %lpad4 ], [ %4, %lpad ], [ %0, %lpad.i ]
  call void @_ZNSaIcED1Ev(ptr noundef nonnull align 1 dereferenceable(1) %ref.tmp3) #23
  resume { ptr, i32 } %.pn

for.end:                                          ; preds = %for.body, %invoke.cont5
  ret void
}

; Function Attrs: mustprogress nounwind uwtable
define linkonce_odr hidden void @_ZNSt6vectorI9aiColor4tIfESaIS1_EED2Ev(ptr noundef nonnull align 8 dereferenceable(24) %this) unnamed_addr #2 comdat align 2 personality ptr @__gxx_personality_v0 {
invoke.cont:
  %0 = load ptr, ptr %this, align 8
  %tobool.not.i.i = icmp eq ptr %0, null
  br i1 %tobool.not.i.i, label %_ZNSt12_Vector_baseI9aiColor4tIfESaIS1_EED2Ev.exit, label %if.then.i.i

if.then.i.i:                                      ; preds = %invoke.cont
  tail call void @_ZdlPv(ptr noundef nonnull %0) #22
  br label %_ZNSt12_Vector_baseI9aiColor4tIfESaIS1_EED2Ev.exit

_ZNSt12_Vector_baseI9aiColor4tIfESaIS1_EED2Ev.exit: ; preds = %invoke.cont, %if.then.i.i
  ret void
}

; Function Attrs: mustprogress nounwind uwtable
define linkonce_odr hidden void @_ZNSt6vectorI10aiVector2tIfESaIS1_EED2Ev(ptr noundef nonnull align 8 dereferenceable(24) %this) unnamed_addr #2 comdat align 2 personality ptr @__gxx_personality_v0 {
invoke.cont:
  %0 = load ptr, ptr %this, align 8
  %tobool.not.i.i = icmp eq ptr %0, null
  br i1 %tobool.not.i.i, label %_ZNSt12_Vector_baseI10aiVector2tIfESaIS1_EED2Ev.exit, label %if.then.i.i

if.then.i.i:                                      ; preds = %invoke.cont
  tail call void @_ZdlPv(ptr noundef nonnull %0) #22
  br label %_ZNSt12_Vector_baseI10aiVector2tIfESaIS1_EED2Ev.exit

_ZNSt12_Vector_baseI10aiVector2tIfESaIS1_EED2Ev.exit: ; preds = %invoke.cont, %if.then.i.i
  ret void
}

; Function Attrs: mustprogress nofree norecurse nosync nounwind willreturn memory(none) uwtable
define hidden noundef nonnull align 8 dereferenceable(24) ptr @_ZNK6Assimp3FBX12MeshGeometry11GetVerticesEv(ptr noundef nonnull readnone align 8 dereferenceable(1000) %this) local_unnamed_addr #3 align 2 {
entry:
  %m_vertices = getelementptr inbounds %"class.Assimp::FBX::MeshGeometry", ptr %this, i64 0, i32 2
  ret ptr %m_vertices
}

; Function Attrs: mustprogress nofree norecurse nosync nounwind willreturn memory(none) uwtable
define hidden noundef nonnull align 8 dereferenceable(24) ptr @_ZNK6Assimp3FBX12MeshGeometry10GetNormalsEv(ptr noundef nonnull readnone align 8 dereferenceable(1000) %this) local_unnamed_addr #3 align 2 {
entry:
  %m_normals = getelementptr inbounds %"class.Assimp::FBX::MeshGeometry", ptr %this, i64 0, i32 7
  ret ptr %m_normals
}

; Function Attrs: mustprogress nofree norecurse nosync nounwind willreturn memory(none) uwtable
define hidden noundef nonnull align 8 dereferenceable(24) ptr @_ZNK6Assimp3FBX12MeshGeometry11GetTangentsEv(ptr noundef nonnull readnone align 8 dereferenceable(1000) %this) local_unnamed_addr #3 align 2 {
entry:
  %m_tangents = getelementptr inbounds %"class.Assimp::FBX::MeshGeometry", ptr %this, i64 0, i32 5
  ret ptr %m_tangents
}

; Function Attrs: mustprogress nofree norecurse nosync nounwind willreturn memory(none) uwtable
define hidden noundef nonnull align 8 dereferenceable(24) ptr @_ZNK6Assimp3FBX12MeshGeometry12GetBinormalsEv(ptr noundef nonnull readnone align 8 dereferenceable(1000) %this) local_unnamed_addr #3 align 2 {
entry:
  %m_binormals = getelementptr inbounds %"class.Assimp::FBX::MeshGeometry", ptr %this, i64 0, i32 6
  ret ptr %m_binormals
}

; Function Attrs: mustprogress nofree norecurse nosync nounwind willreturn memory(none) uwtable
define hidden noundef nonnull align 8 dereferenceable(24) ptr @_ZNK6Assimp3FBX12MeshGeometry18GetFaceIndexCountsEv(ptr noundef nonnull readnone align 8 dereferenceable(1000) %this) local_unnamed_addr #3 align 2 {
entry:
  %m_faces = getelementptr inbounds %"class.Assimp::FBX::MeshGeometry", ptr %this, i64 0, i32 3
  ret ptr %m_faces
}

; Function Attrs: mustprogress nofree nounwind uwtable
define hidden noundef nonnull align 8 dereferenceable(24) ptr @_ZNK6Assimp3FBX12MeshGeometry16GetTextureCoordsEj(ptr noundef nonnull readnone align 8 dereferenceable(1000) %this, i32 noundef %index) local_unnamed_addr #8 align 2 {
entry:
  %0 = load atomic i8, ptr @_ZGVZNK6Assimp3FBX12MeshGeometry16GetTextureCoordsEjE5empty acquire, align 8
  %guard.uninitialized = icmp eq i8 %0, 0
  br i1 %guard.uninitialized, label %init.check, label %init.end, !prof !18

init.check:                                       ; preds = %entry
  %1 = tail call i32 @__cxa_guard_acquire(ptr nonnull @_ZGVZNK6Assimp3FBX12MeshGeometry16GetTextureCoordsEjE5empty) #23
  %tobool.not = icmp eq i32 %1, 0
  br i1 %tobool.not, label %init.end, label %init

init:                                             ; preds = %init.check
  tail call void @llvm.memset.p0.i64(ptr noundef nonnull align 8 dereferenceable(24) @_ZZNK6Assimp3FBX12MeshGeometry16GetTextureCoordsEjE5empty, i8 0, i64 24, i1 false)
  %2 = tail call i32 @__cxa_atexit(ptr nonnull @_ZNSt6vectorI10aiVector2tIfESaIS1_EED2Ev, ptr nonnull @_ZZNK6Assimp3FBX12MeshGeometry16GetTextureCoordsEjE5empty, ptr nonnull @__dso_handle) #23
  tail call void @__cxa_guard_release(ptr nonnull @_ZGVZNK6Assimp3FBX12MeshGeometry16GetTextureCoordsEjE5empty) #23
  br label %init.end

init.end:                                         ; preds = %init, %init.check, %entry
  %cmp = icmp ugt i32 %index, 7
  %idxprom = zext nneg i32 %index to i64
  %arrayidx = getelementptr inbounds %"class.Assimp::FBX::MeshGeometry", ptr %this, i64 0, i32 9, i64 %idxprom
  %cond-lvalue = select i1 %cmp, ptr @_ZZNK6Assimp3FBX12MeshGeometry16GetTextureCoordsEjE5empty, ptr %arrayidx
  ret ptr %cond-lvalue
}

; Function Attrs: nofree nounwind
declare i32 @__cxa_guard_acquire(ptr) local_unnamed_addr #9

; Function Attrs: nofree nounwind
declare i32 @__cxa_atexit(ptr, ptr, ptr) local_unnamed_addr #9

; Function Attrs: nofree nounwind
declare void @__cxa_guard_release(ptr) local_unnamed_addr #9

; Function Attrs: mustprogress uwtable
define hidden void @_ZNK6Assimp3FBX12MeshGeometry26GetTextureCoordChannelNameB5cxx11Ej(ptr noalias sret(%"class.std::__cxx11::basic_string") align 8 %agg.result, ptr noundef nonnull align 8 dereferenceable(1000) %this, i32 noundef %index) local_unnamed_addr #0 align 2 personality ptr @__gxx_personality_v0 {
entry:
  %ref.tmp = alloca %"class.std::allocator", align 1
  %cmp = icmp ugt i32 %index, 7
  br i1 %cmp, label %cond.true, label %cond.false

cond.true:                                        ; preds = %entry
  call void @_ZNSaIcEC1Ev(ptr noundef nonnull align 1 dereferenceable(1) %ref.tmp) #23
  %call.i2 = invoke noundef ptr @_ZNSt7__cxx1112basic_stringIcSt11char_traitsIcESaIcEE13_M_local_dataEv(ptr noundef nonnull align 8 dereferenceable(32) %agg.result)
          to label %call.i.noexc unwind label %lpad.body.thread6

call.i.noexc:                                     ; preds = %cond.true
  invoke void @_ZNSt7__cxx1112basic_stringIcSt11char_traitsIcESaIcEE12_Alloc_hiderC1EPcRKS3_(ptr noundef nonnull align 8 dereferenceable(8) %agg.result, ptr noundef %call.i2, ptr noundef nonnull align 1 dereferenceable(1) %ref.tmp)
          to label %.noexc unwind label %lpad.body.thread6

.noexc:                                           ; preds = %call.i.noexc
  invoke void @_ZNSt7__cxx1112basic_stringIcSt11char_traitsIcESaIcEE12_M_constructIPKcEEvT_S8_St20forward_iterator_tag(ptr noundef nonnull align 8 dereferenceable(32) %agg.result, ptr noundef nonnull @.str.12, ptr noundef nonnull @.str.12)
          to label %cleanup.action unwind label %lpad.body.thread

lpad.body.thread:                                 ; preds = %.noexc
  %0 = landingpad { ptr, i32 }
          cleanup
  call void @_ZNSaIcED2Ev(ptr noundef nonnull align 1 dereferenceable(1) %agg.result) #23
  br label %cleanup.action4

cond.false:                                       ; preds = %entry
  %idxprom = zext nneg i32 %index to i64
  %arrayidx = getelementptr inbounds %"class.Assimp::FBX::MeshGeometry", ptr %this, i64 0, i32 8, i64 %idxprom
  tail call void @_ZNSt7__cxx1112basic_stringIcSt11char_traitsIcESaIcEEC1ERKS4_(ptr noundef nonnull align 8 dereferenceable(32) %agg.result, ptr noundef nonnull align 8 dereferenceable(32) %arrayidx)
  br label %cleanup.done

cleanup.action:                                   ; preds = %.noexc
  call void @_ZNSaIcED1Ev(ptr noundef nonnull align 1 dereferenceable(1) %ref.tmp) #23
  br label %cleanup.done

cleanup.done:                                     ; preds = %cond.false, %cleanup.action
  ret void

lpad.body.thread6:                                ; preds = %cond.true, %call.i.noexc
  %lpad.thr_comm = landingpad { ptr, i32 }
          cleanup
  br label %cleanup.action4

cleanup.action4:                                  ; preds = %lpad.body.thread6, %lpad.body.thread
  %eh.lpad-body5 = phi { ptr, i32 } [ %0, %lpad.body.thread ], [ %lpad.thr_comm, %lpad.body.thread6 ]
  call void @_ZNSaIcED1Ev(ptr noundef nonnull align 1 dereferenceable(1) %ref.tmp) #23
  resume { ptr, i32 } %eh.lpad-body5
}

declare void @_ZNSt7__cxx1112basic_stringIcSt11char_traitsIcESaIcEEC1ERKS4_(ptr noundef nonnull align 8 dereferenceable(32), ptr noundef nonnull align 8 dereferenceable(32)) unnamed_addr #1

; Function Attrs: mustprogress nofree nounwind uwtable
define hidden noundef nonnull align 8 dereferenceable(24) ptr @_ZNK6Assimp3FBX12MeshGeometry15GetVertexColorsEj(ptr noundef nonnull readnone align 8 dereferenceable(1000) %this, i32 noundef %index) local_unnamed_addr #8 align 2 {
entry:
  %0 = load atomic i8, ptr @_ZGVZNK6Assimp3FBX12MeshGeometry15GetVertexColorsEjE5empty acquire, align 8
  %guard.uninitialized = icmp eq i8 %0, 0
  br i1 %guard.uninitialized, label %init.check, label %init.end, !prof !18

init.check:                                       ; preds = %entry
  %1 = tail call i32 @__cxa_guard_acquire(ptr nonnull @_ZGVZNK6Assimp3FBX12MeshGeometry15GetVertexColorsEjE5empty) #23
  %tobool.not = icmp eq i32 %1, 0
  br i1 %tobool.not, label %init.end, label %init

init:                                             ; preds = %init.check
  tail call void @llvm.memset.p0.i64(ptr noundef nonnull align 8 dereferenceable(24) @_ZZNK6Assimp3FBX12MeshGeometry15GetVertexColorsEjE5empty, i8 0, i64 24, i1 false)
  %2 = tail call i32 @__cxa_atexit(ptr nonnull @_ZNSt6vectorI9aiColor4tIfESaIS1_EED2Ev, ptr nonnull @_ZZNK6Assimp3FBX12MeshGeometry15GetVertexColorsEjE5empty, ptr nonnull @__dso_handle) #23
  tail call void @__cxa_guard_release(ptr nonnull @_ZGVZNK6Assimp3FBX12MeshGeometry15GetVertexColorsEjE5empty) #23
  br label %init.end

init.end:                                         ; preds = %init, %init.check, %entry
  %cmp = icmp ugt i32 %index, 7
  %idxprom = zext nneg i32 %index to i64
  %arrayidx = getelementptr inbounds %"class.Assimp::FBX::MeshGeometry", ptr %this, i64 0, i32 10, i64 %idxprom
  %cond-lvalue = select i1 %cmp, ptr @_ZZNK6Assimp3FBX12MeshGeometry15GetVertexColorsEjE5empty, ptr %arrayidx
  ret ptr %cond-lvalue
}

; Function Attrs: mustprogress nofree norecurse nosync nounwind willreturn memory(none) uwtable
define hidden noundef nonnull align 8 dereferenceable(24) ptr @_ZNK6Assimp3FBX12MeshGeometry18GetMaterialIndicesEv(ptr noundef nonnull readnone align 8 dereferenceable(1000) %this) local_unnamed_addr #3 align 2 {
entry:
  %m_materials = getelementptr inbounds %"class.Assimp::FBX::MeshGeometry", ptr %this, i64 0, i32 1
  ret ptr %m_materials
}

; Function Attrs: mustprogress nofree norecurse nosync nounwind willreturn memory(read, argmem: readwrite, inaccessiblemem: none) uwtable
define hidden noundef ptr @_ZNK6Assimp3FBX12MeshGeometry19ToOutputVertexIndexEjRj(ptr nocapture noundef nonnull readonly align 8 dereferenceable(1000) %this, i32 noundef %in_index, ptr nocapture noundef nonnull writeonly align 4 dereferenceable(4) %count) local_unnamed_addr #10 align 2 {
entry:
  %conv = zext i32 %in_index to i64
  %m_mapping_counts = getelementptr inbounds %"class.Assimp::FBX::MeshGeometry", ptr %this, i64 0, i32 11
  %_M_finish.i = getelementptr inbounds %"class.Assimp::FBX::MeshGeometry", ptr %this, i64 0, i32 11, i32 0, i32 0, i32 0, i32 1
  %0 = load ptr, ptr %_M_finish.i, align 8
  %1 = load ptr, ptr %m_mapping_counts, align 8
  %sub.ptr.lhs.cast.i = ptrtoint ptr %0 to i64
  %sub.ptr.rhs.cast.i = ptrtoint ptr %1 to i64
  %sub.ptr.sub.i = sub i64 %sub.ptr.lhs.cast.i, %sub.ptr.rhs.cast.i
  %sub.ptr.div.i = ashr exact i64 %sub.ptr.sub.i, 2
  %cmp.not = icmp ugt i64 %sub.ptr.div.i, %conv
  br i1 %cmp.not, label %if.end, label %return

if.end:                                           ; preds = %entry
  %add.ptr.i = getelementptr inbounds i32, ptr %1, i64 %conv
  %2 = load i32, ptr %add.ptr.i, align 4
  store i32 %2, ptr %count, align 4
  %m_mappings = getelementptr inbounds %"class.Assimp::FBX::MeshGeometry", ptr %this, i64 0, i32 13
  %m_mapping_offsets = getelementptr inbounds %"class.Assimp::FBX::MeshGeometry", ptr %this, i64 0, i32 12
  %3 = load ptr, ptr %m_mapping_offsets, align 8
  %add.ptr.i3 = getelementptr inbounds i32, ptr %3, i64 %conv
  %4 = load i32, ptr %add.ptr.i3, align 4
  %conv7 = zext i32 %4 to i64
  %5 = load ptr, ptr %m_mappings, align 8
  %add.ptr.i4 = getelementptr inbounds i32, ptr %5, i64 %conv7
  br label %return

return:                                           ; preds = %entry, %if.end
  %retval.0 = phi ptr [ %add.ptr.i4, %if.end ], [ null, %entry ]
  ret ptr %retval.0
}

; Function Attrs: mustprogress uwtable
define hidden noundef i32 @_ZNK6Assimp3FBX12MeshGeometry18FaceForVertexIndexEj(ptr noundef nonnull align 8 dereferenceable(1000) %this, i32 noundef %in_index) local_unnamed_addr #0 align 2 personality ptr @__gxx_personality_v0 {
entry:
  %ref.tmp = alloca i32, align 4
  %m_facesVertexStartIndices = getelementptr inbounds %"class.Assimp::FBX::MeshGeometry", ptr %this, i64 0, i32 4
  %0 = load ptr, ptr %m_facesVertexStartIndices, align 8
  %_M_finish.i.i = getelementptr inbounds %"class.Assimp::FBX::MeshGeometry", ptr %this, i64 0, i32 4, i32 0, i32 0, i32 0, i32 1
  %1 = load ptr, ptr %_M_finish.i.i, align 8
  %cmp.i.i = icmp eq ptr %0, %1
  br i1 %cmp.i.i, label %if.then, label %if.end

if.then:                                          ; preds = %entry
  %m_faces = getelementptr inbounds %"class.Assimp::FBX::MeshGeometry", ptr %this, i64 0, i32 3
  %_M_finish.i = getelementptr inbounds %"class.Assimp::FBX::MeshGeometry", ptr %this, i64 0, i32 3, i32 0, i32 0, i32 0, i32 1
  %2 = load ptr, ptr %_M_finish.i, align 8
  %3 = load ptr, ptr %m_faces, align 8
  %sub.ptr.lhs.cast.i = ptrtoint ptr %2 to i64
  %sub.ptr.rhs.cast.i = ptrtoint ptr %3 to i64
  %sub.ptr.sub.i = sub i64 %sub.ptr.lhs.cast.i, %sub.ptr.rhs.cast.i
  %sub.ptr.div.i = ashr exact i64 %sub.ptr.sub.i, 2
  %add = add nsw i64 %sub.ptr.div.i, 1
  store i32 0, ptr %ref.tmp, align 4
  %cmp.i.not = icmp eq i64 %add, 0
  br i1 %cmp.i.not, label %_ZNSt6vectorIjSaIjEE6resizeEmRKj.exit, label %if.then.i

if.then.i:                                        ; preds = %if.then
  call void @_ZNSt6vectorIjSaIjEE14_M_fill_insertEN9__gnu_cxx17__normal_iteratorIPjS1_EEmRKj(ptr noundef nonnull align 8 dereferenceable(24) %m_facesVertexStartIndices, ptr %0, i64 noundef %add, ptr noundef nonnull align 4 dereferenceable(4) %ref.tmp)
  %.pre = load ptr, ptr %m_faces, align 8
  %.pre9 = load ptr, ptr %_M_finish.i, align 8
  br label %_ZNSt6vectorIjSaIjEE6resizeEmRKj.exit

_ZNSt6vectorIjSaIjEE6resizeEmRKj.exit:            ; preds = %if.then, %if.then.i
  %4 = phi ptr [ %.pre9, %if.then.i ], [ %2, %if.then ]
  %5 = phi ptr [ %.pre, %if.then.i ], [ %3, %if.then ]
  %cmp.i.i4 = icmp eq ptr %5, %4
  br i1 %cmp.i.i4, label %_ZSt11partial_sumIN9__gnu_cxx17__normal_iteratorIPKjSt6vectorIjSaIjEEEENS1_IPjS6_EEET0_T_SB_SA_.exit, label %if.end.i

if.end.i:                                         ; preds = %_ZNSt6vectorIjSaIjEE6resizeEmRKj.exit
  %6 = load ptr, ptr %m_facesVertexStartIndices, align 8
  %add.ptr.i3 = getelementptr inbounds i32, ptr %6, i64 1
  %7 = load i32, ptr %5, align 4
  store i32 %7, ptr %add.ptr.i3, align 4
  %incdec.ptr.i15.i = getelementptr inbounds i32, ptr %5, i64 1
  %cmp.i4.not16.i = icmp eq ptr %incdec.ptr.i15.i, %4
  br i1 %cmp.i4.not16.i, label %_ZSt11partial_sumIN9__gnu_cxx17__normal_iteratorIPKjSt6vectorIjSaIjEEEENS1_IPjS6_EEET0_T_SB_SA_.exit, label %while.body.i

while.body.i:                                     ; preds = %if.end.i, %while.body.i
  %incdec.ptr.i19.i = phi ptr [ %incdec.ptr.i.i, %while.body.i ], [ %incdec.ptr.i15.i, %if.end.i ]
  %__value.018.i = phi i32 [ %add.i, %while.body.i ], [ %7, %if.end.i ]
  %__result.sroa.0.017.i = phi ptr [ %incdec.ptr.i5.i, %while.body.i ], [ %add.ptr.i3, %if.end.i ]
  %8 = load i32, ptr %incdec.ptr.i19.i, align 4
  %add.i = add i32 %8, %__value.018.i
  %incdec.ptr.i5.i = getelementptr inbounds i32, ptr %__result.sroa.0.017.i, i64 1
  store i32 %add.i, ptr %incdec.ptr.i5.i, align 4
  %incdec.ptr.i.i = getelementptr inbounds i32, ptr %incdec.ptr.i19.i, i64 1
  %cmp.i4.not.i = icmp eq ptr %incdec.ptr.i.i, %4
  br i1 %cmp.i4.not.i, label %_ZSt11partial_sumIN9__gnu_cxx17__normal_iteratorIPKjSt6vectorIjSaIjEEEENS1_IPjS6_EEET0_T_SB_SA_.exit, label %while.body.i, !llvm.loop !19

_ZSt11partial_sumIN9__gnu_cxx17__normal_iteratorIPKjSt6vectorIjSaIjEEEENS1_IPjS6_EEET0_T_SB_SA_.exit: ; preds = %while.body.i, %if.end.i, %_ZNSt6vectorIjSaIjEE6resizeEmRKj.exit
  %9 = load ptr, ptr %_M_finish.i.i, align 8
  %incdec.ptr.i = getelementptr inbounds i32, ptr %9, i64 -1
  store ptr %incdec.ptr.i, ptr %_M_finish.i.i, align 8
  %.pre10 = load ptr, ptr %m_facesVertexStartIndices, align 8
  br label %if.end

if.end:                                           ; preds = %_ZSt11partial_sumIN9__gnu_cxx17__normal_iteratorIPKjSt6vectorIjSaIjEEEENS1_IPjS6_EEET0_T_SB_SA_.exit, %entry
  %10 = phi ptr [ %incdec.ptr.i, %_ZSt11partial_sumIN9__gnu_cxx17__normal_iteratorIPKjSt6vectorIjSaIjEEEENS1_IPjS6_EEET0_T_SB_SA_.exit ], [ %1, %entry ]
  %11 = phi ptr [ %.pre10, %_ZSt11partial_sumIN9__gnu_cxx17__normal_iteratorIPKjSt6vectorIjSaIjEEEENS1_IPjS6_EEET0_T_SB_SA_.exit ], [ %0, %entry ]
  %sub.ptr.lhs.cast.i.i.i.i.i = ptrtoint ptr %10 to i64
  %sub.ptr.rhs.cast.i.i.i.i.i = ptrtoint ptr %11 to i64
  %sub.ptr.sub.i.i.i.i.i = sub i64 %sub.ptr.lhs.cast.i.i.i.i.i, %sub.ptr.rhs.cast.i.i.i.i.i
  %sub.ptr.div.i.i.i.i.i = ashr exact i64 %sub.ptr.sub.i.i.i.i.i, 2
  %cmp6.i.i = icmp sgt i64 %sub.ptr.div.i.i.i.i.i, 0
  br i1 %cmp6.i.i, label %while.body.i.i, label %_ZSt11upper_boundIN9__gnu_cxx17__normal_iteratorIPjSt6vectorIjSaIjEEEEjET_S7_S7_RKT0_.exit

while.body.i.i:                                   ; preds = %if.end, %while.body.i.i
  %__len.08.i.i = phi i64 [ %__len.1.i.i, %while.body.i.i ], [ %sub.ptr.div.i.i.i.i.i, %if.end ]
  %__first.sroa.0.07.i.i = phi ptr [ %__first.sroa.0.1.i.i, %while.body.i.i ], [ %11, %if.end ]
  %shr.i.i = lshr i64 %__len.08.i.i, 1
  %incdec.ptr.i8.sink.i.i.i.i = getelementptr inbounds i32, ptr %__first.sroa.0.07.i.i, i64 %shr.i.i
  %12 = load i32, ptr %incdec.ptr.i8.sink.i.i.i.i, align 4
  %cmp.i.i.i = icmp ugt i32 %12, %in_index
  %incdec.ptr.i.i.i = getelementptr inbounds i32, ptr %incdec.ptr.i8.sink.i.i.i.i, i64 1
  %13 = xor i64 %shr.i.i, -1
  %sub9.i.i = add nsw i64 %__len.08.i.i, %13
  %__first.sroa.0.1.i.i = select i1 %cmp.i.i.i, ptr %__first.sroa.0.07.i.i, ptr %incdec.ptr.i.i.i
  %__len.1.i.i = select i1 %cmp.i.i.i, i64 %shr.i.i, i64 %sub9.i.i
  %cmp.i.i7 = icmp sgt i64 %__len.1.i.i, 0
  br i1 %cmp.i.i7, label %while.body.i.i, label %_ZSt11upper_boundIN9__gnu_cxx17__normal_iteratorIPjSt6vectorIjSaIjEEEEjET_S7_S7_RKT0_.exit, !llvm.loop !20

_ZSt11upper_boundIN9__gnu_cxx17__normal_iteratorIPjSt6vectorIjSaIjEEEEjET_S7_S7_RKT0_.exit: ; preds = %while.body.i.i, %if.end
  %__first.sroa.0.0.lcssa.i.i = phi ptr [ %11, %if.end ], [ %__first.sroa.0.1.i.i, %while.body.i.i ]
  %add.ptr.i8 = getelementptr inbounds i32, ptr %__first.sroa.0.0.lcssa.i.i, i64 -1
  %sub.ptr.lhs.cast.i.i.i = ptrtoint ptr %add.ptr.i8 to i64
  %sub.ptr.sub.i.i.i = sub i64 %sub.ptr.lhs.cast.i.i.i, %sub.ptr.rhs.cast.i.i.i.i.i
  %sub.ptr.div.i.i.i = lshr exact i64 %sub.ptr.sub.i.i.i, 2
  %conv = trunc i64 %sub.ptr.div.i.i.i to i32
  ret i32 %conv
}

; Function Attrs: mustprogress uwtable
define hidden void @_ZN6Assimp3FBX12MeshGeometry16ReadLayerElementERKNS0_5ScopeE(ptr noundef nonnull align 8 dereferenceable(1000) %this, ptr noundef nonnull align 8 dereferenceable(48) %layerElement) local_unnamed_addr #0 align 2 personality ptr @__gxx_personality_v0 {
entry:
  %ref.tmp.i = alloca ptr, align 8
  %ref.tmp = alloca %"class.std::__cxx11::basic_string", align 8
  %ref.tmp2 = alloca %"class.std::allocator", align 1
  %ref.tmp5 = alloca %"class.std::__cxx11::basic_string", align 8
  %ref.tmp6 = alloca %"class.std::allocator", align 1
  %ref.tmp14 = alloca %"class.std::__cxx11::basic_string", align 8
  %typedIndex = alloca i32, align 4
  call void @_ZNSaIcEC1Ev(ptr noundef nonnull align 1 dereferenceable(1) %ref.tmp2) #23
  %call.i9 = invoke noundef ptr @_ZNSt7__cxx1112basic_stringIcSt11char_traitsIcESaIcEE13_M_local_dataEv(ptr noundef nonnull align 8 dereferenceable(32) %ref.tmp)
          to label %call.i.noexc unwind label %lpad

call.i.noexc:                                     ; preds = %entry
  invoke void @_ZNSt7__cxx1112basic_stringIcSt11char_traitsIcESaIcEE12_Alloc_hiderC1EPcRKS3_(ptr noundef nonnull align 8 dereferenceable(8) %ref.tmp, ptr noundef %call.i9, ptr noundef nonnull align 1 dereferenceable(1) %ref.tmp2)
          to label %.noexc unwind label %lpad

.noexc:                                           ; preds = %call.i.noexc
  invoke void @_ZNSt7__cxx1112basic_stringIcSt11char_traitsIcESaIcEE12_M_constructIPKcEEvT_S8_St20forward_iterator_tag(ptr noundef nonnull align 8 dereferenceable(32) %ref.tmp, ptr noundef nonnull @.str.14, ptr noundef nonnull getelementptr inbounds ([5 x i8], ptr @.str.14, i64 0, i64 4))
          to label %invoke.cont unwind label %lpad.i

lpad.i:                                           ; preds = %.noexc
  %0 = landingpad { ptr, i32 }
          cleanup
  call void @_ZNSaIcED2Ev(ptr noundef nonnull align 1 dereferenceable(1) %ref.tmp) #23
  br label %ehcleanup

invoke.cont:                                      ; preds = %.noexc
  %call = invoke noundef nonnull align 8 dereferenceable(40) ptr @_ZN6Assimp3FBX18GetRequiredElementERKNS0_5ScopeERKNSt7__cxx1112basic_stringIcSt11char_traitsIcESaIcEEEPKNS0_7ElementE(ptr noundef nonnull align 8 dereferenceable(48) %layerElement, ptr noundef nonnull align 8 dereferenceable(32) %ref.tmp, ptr noundef null)
          to label %invoke.cont4 unwind label %lpad3

invoke.cont4:                                     ; preds = %invoke.cont
  call void @_ZNSt7__cxx1112basic_stringIcSt11char_traitsIcESaIcEED1Ev(ptr noundef nonnull align 8 dereferenceable(32) %ref.tmp) #23
  call void @_ZNSaIcED1Ev(ptr noundef nonnull align 1 dereferenceable(1) %ref.tmp2) #23
  call void @_ZNSaIcEC1Ev(ptr noundef nonnull align 1 dereferenceable(1) %ref.tmp6) #23
  %call.i14 = invoke noundef ptr @_ZNSt7__cxx1112basic_stringIcSt11char_traitsIcESaIcEE13_M_local_dataEv(ptr noundef nonnull align 8 dereferenceable(32) %ref.tmp5)
          to label %call.i.noexc13 unwind label %lpad7

call.i.noexc13:                                   ; preds = %invoke.cont4
  invoke void @_ZNSt7__cxx1112basic_stringIcSt11char_traitsIcESaIcEE12_Alloc_hiderC1EPcRKS3_(ptr noundef nonnull align 8 dereferenceable(8) %ref.tmp5, ptr noundef %call.i14, ptr noundef nonnull align 1 dereferenceable(1) %ref.tmp6)
          to label %.noexc15 unwind label %lpad7

.noexc15:                                         ; preds = %call.i.noexc13
  invoke void @_ZNSt7__cxx1112basic_stringIcSt11char_traitsIcESaIcEE12_M_constructIPKcEEvT_S8_St20forward_iterator_tag(ptr noundef nonnull align 8 dereferenceable(32) %ref.tmp5, ptr noundef nonnull @.str.15, ptr noundef nonnull getelementptr inbounds ([11 x i8], ptr @.str.15, i64 0, i64 10))
          to label %invoke.cont8 unwind label %lpad.i12

lpad.i12:                                         ; preds = %.noexc15
  %1 = landingpad { ptr, i32 }
          cleanup
  call void @_ZNSaIcED2Ev(ptr noundef nonnull align 1 dereferenceable(1) %ref.tmp5) #23
  br label %ehcleanup13

invoke.cont8:                                     ; preds = %.noexc15
  %call11 = invoke noundef nonnull align 8 dereferenceable(40) ptr @_ZN6Assimp3FBX18GetRequiredElementERKNS0_5ScopeERKNSt7__cxx1112basic_stringIcSt11char_traitsIcESaIcEEEPKNS0_7ElementE(ptr noundef nonnull align 8 dereferenceable(48) %layerElement, ptr noundef nonnull align 8 dereferenceable(32) %ref.tmp5, ptr noundef null)
          to label %invoke.cont10 unwind label %lpad9

invoke.cont10:                                    ; preds = %invoke.cont8
  call void @_ZNSt7__cxx1112basic_stringIcSt11char_traitsIcESaIcEED1Ev(ptr noundef nonnull align 8 dereferenceable(32) %ref.tmp5) #23
  call void @_ZNSaIcED1Ev(ptr noundef nonnull align 1 dereferenceable(1) %ref.tmp6) #23
  %call15 = call noundef nonnull align 8 dereferenceable(36) ptr @_ZN6Assimp3FBX16GetRequiredTokenERKNS0_7ElementEj(ptr noundef nonnull align 8 dereferenceable(40) %call, i32 noundef 0)
  call void @_ZN6Assimp3FBX18ParseTokenAsStringB5cxx11ERKNS0_5TokenE(ptr nonnull sret(%"class.std::__cxx11::basic_string") align 8 %ref.tmp14, ptr noundef nonnull align 8 dereferenceable(36) %call15)
  %call18 = invoke noundef nonnull align 8 dereferenceable(36) ptr @_ZN6Assimp3FBX16GetRequiredTokenERKNS0_7ElementEj(ptr noundef nonnull align 8 dereferenceable(40) %call11, i32 noundef 0)
          to label %invoke.cont17 unwind label %lpad16.loopexit.split-lp

invoke.cont17:                                    ; preds = %invoke.cont10
  %call20 = invoke noundef i32 @_ZN6Assimp3FBX15ParseTokenAsIntERKNS0_5TokenE(ptr noundef nonnull align 8 dereferenceable(36) %call18)
          to label %invoke.cont19 unwind label %lpad16.loopexit.split-lp

invoke.cont19:                                    ; preds = %invoke.cont17
  store i32 %call20, ptr %typedIndex, align 4
  %element = getelementptr inbounds %"class.Assimp::FBX::Object", ptr %this, i64 0, i32 1
  %2 = load ptr, ptr %element, align 8
  %call22 = invoke noundef nonnull align 8 dereferenceable(48) ptr @_ZN6Assimp3FBX16GetRequiredScopeERKNS0_7ElementE(ptr noundef nonnull align 8 dereferenceable(40) %2)
          to label %invoke.cont21 unwind label %lpad16.loopexit.split-lp

invoke.cont21:                                    ; preds = %invoke.cont19
  %call.i.i1819 = invoke { ptr, ptr } @_ZNKSt8_Rb_treeINSt7__cxx1112basic_stringIcSt11char_traitsIcESaIcEEESt4pairIKS5_PN6Assimp3FBX7ElementEESt10_Select1stISC_ESt4lessIS5_ESaISC_EE11equal_rangeERS7_(ptr noundef nonnull align 8 dereferenceable(48) %call22, ptr noundef nonnull align 8 dereferenceable(32) %ref.tmp14)
          to label %invoke.cont23 unwind label %lpad16.loopexit.split-lp

invoke.cont23:                                    ; preds = %invoke.cont21
  %3 = extractvalue { ptr, ptr } %call.i.i1819, 0
  %4 = extractvalue { ptr, ptr } %call.i.i1819, 1
  %cmp.i.not30 = icmp eq ptr %3, %4
  br i1 %cmp.i.not30, label %for.end, label %for.body

for.body:                                         ; preds = %invoke.cont23, %for.inc
  %it.sroa.0.031 = phi ptr [ %call.i, %for.inc ], [ %3, %invoke.cont23 ]
  %second27 = getelementptr inbounds %"struct.std::_Rb_tree_node", ptr %it.sroa.0.031, i64 0, i32 1, i32 0, i64 32
  %5 = load ptr, ptr %second27, align 8
  %call29 = invoke noundef nonnull align 8 dereferenceable(36) ptr @_ZN6Assimp3FBX16GetRequiredTokenERKNS0_7ElementEj(ptr noundef nonnull align 8 dereferenceable(40) %5, i32 noundef 0)
          to label %invoke.cont28 unwind label %lpad16.loopexit

invoke.cont28:                                    ; preds = %for.body
  %call31 = invoke noundef i32 @_ZN6Assimp3FBX15ParseTokenAsIntERKNS0_5TokenE(ptr noundef nonnull align 8 dereferenceable(36) %call29)
          to label %invoke.cont30 unwind label %lpad16.loopexit

invoke.cont30:                                    ; preds = %invoke.cont28
  %cmp = icmp eq i32 %call31, %call20
  br i1 %cmp, label %if.then, label %for.inc

if.then:                                          ; preds = %invoke.cont30
  %second27.le = getelementptr inbounds %"struct.std::_Rb_tree_node", ptr %it.sroa.0.031, i64 0, i32 1, i32 0, i64 32
  %6 = load ptr, ptr %second27.le, align 8
  %call35 = invoke noundef nonnull align 8 dereferenceable(48) ptr @_ZN6Assimp3FBX16GetRequiredScopeERKNS0_7ElementE(ptr noundef nonnull align 8 dereferenceable(40) %6)
          to label %invoke.cont34 unwind label %lpad16.loopexit.split-lp

invoke.cont34:                                    ; preds = %if.then
  invoke void @_ZN6Assimp3FBX12MeshGeometry14ReadVertexDataERKNSt7__cxx1112basic_stringIcSt11char_traitsIcESaIcEEEiRKNS0_5ScopeE(ptr noundef nonnull align 8 dereferenceable(1000) %this, ptr noundef nonnull align 8 dereferenceable(32) %ref.tmp14, i32 noundef %call20, ptr noundef nonnull align 8 dereferenceable(48) %call35)
          to label %cleanup unwind label %lpad16.loopexit.split-lp

lpad:                                             ; preds = %call.i.noexc, %entry
  %7 = landingpad { ptr, i32 }
          cleanup
  br label %ehcleanup

lpad3:                                            ; preds = %invoke.cont
  %8 = landingpad { ptr, i32 }
          cleanup
  call void @_ZNSt7__cxx1112basic_stringIcSt11char_traitsIcESaIcEED1Ev(ptr noundef nonnull align 8 dereferenceable(32) %ref.tmp) #23
  br label %ehcleanup

ehcleanup:                                        ; preds = %lpad, %lpad.i, %lpad3
  %.pn = phi { ptr, i32 } [ %8, %lpad3 ], [ %7, %lpad ], [ %0, %lpad.i ]
  call void @_ZNSaIcED1Ev(ptr noundef nonnull align 1 dereferenceable(1) %ref.tmp2) #23
  br label %eh.resume

lpad7:                                            ; preds = %call.i.noexc13, %invoke.cont4
  %9 = landingpad { ptr, i32 }
          cleanup
  br label %ehcleanup13

lpad9:                                            ; preds = %invoke.cont8
  %10 = landingpad { ptr, i32 }
          cleanup
  call void @_ZNSt7__cxx1112basic_stringIcSt11char_traitsIcESaIcEED1Ev(ptr noundef nonnull align 8 dereferenceable(32) %ref.tmp5) #23
  br label %ehcleanup13

ehcleanup13:                                      ; preds = %lpad7, %lpad.i12, %lpad9
  %.pn5 = phi { ptr, i32 } [ %10, %lpad9 ], [ %9, %lpad7 ], [ %1, %lpad.i12 ]
  call void @_ZNSaIcED1Ev(ptr noundef nonnull align 1 dereferenceable(1) %ref.tmp6) #23
  br label %eh.resume

lpad16.loopexit:                                  ; preds = %for.body, %invoke.cont28
  %lpad.loopexit = landingpad { ptr, i32 }
          cleanup
  br label %lpad16

lpad16.loopexit.split-lp:                         ; preds = %invoke.cont10, %invoke.cont17, %invoke.cont19, %if.then, %invoke.cont34, %invoke.cont21, %for.end, %if.then.i, %call7.i.noexc, %call8.i.noexc
  %lpad.loopexit.split-lp = landingpad { ptr, i32 }
          cleanup
  br label %lpad16

lpad16:                                           ; preds = %lpad16.loopexit.split-lp, %lpad16.loopexit
  %lpad.phi = phi { ptr, i32 } [ %lpad.loopexit, %lpad16.loopexit ], [ %lpad.loopexit.split-lp, %lpad16.loopexit.split-lp ]
  call void @_ZNSt7__cxx1112basic_stringIcSt11char_traitsIcESaIcEED1Ev(ptr noundef nonnull align 8 dereferenceable(32) %ref.tmp14) #23
  br label %eh.resume

for.inc:                                          ; preds = %invoke.cont30
  %call.i = call noundef ptr @_ZSt18_Rb_tree_incrementPKSt18_Rb_tree_node_base(ptr noundef nonnull %it.sroa.0.031) #26
  %cmp.i.not = icmp eq ptr %call.i, %4
  br i1 %cmp.i.not, label %for.end, label %for.body, !llvm.loop !21

for.end:                                          ; preds = %for.inc, %invoke.cont23
  call void @llvm.lifetime.start.p0(i64 8, ptr nonnull %ref.tmp.i)
  %call.i2122 = invoke noundef zeroext i1 @_ZN6Assimp13DefaultLogger12isNullLoggerEv()
          to label %call.i21.noexc unwind label %lpad16.loopexit.split-lp

call.i21.noexc:                                   ; preds = %for.end
  br i1 %call.i2122, label %_ZN6Assimp12LogFunctionsINS_11FBXImporterEE8LogErrorIJRA41_KcRKNSt7__cxx1112basic_stringIcSt11char_traitsIcESaIcEEERA10_S4_RKiEEEvDpOT_.exit, label %if.then.i

if.then.i:                                        ; preds = %call.i21.noexc
  %call7.i23 = invoke noundef ptr @_ZN6Assimp13DefaultLogger3getEv()
          to label %call7.i.noexc unwind label %lpad16.loopexit.split-lp

call7.i.noexc:                                    ; preds = %if.then.i
  %call8.i24 = invoke noundef ptr @_ZN6Assimp12LogFunctionsINS_11FBXImporterEE6PrefixEv()
          to label %call8.i.noexc unwind label %lpad16.loopexit.split-lp

call8.i.noexc:                                    ; preds = %call7.i.noexc
  store ptr %call8.i24, ptr %ref.tmp.i, align 8
  invoke void @_ZN6Assimp6Logger5errorIJPKcRA41_S2_RKNSt7__cxx1112basic_stringIcSt11char_traitsIcESaIcEEERA10_S2_RKiEEEvDpOT_(ptr noundef nonnull align 8 dereferenceable(12) %call7.i23, ptr noundef nonnull align 8 dereferenceable(8) %ref.tmp.i, ptr noundef nonnull align 1 dereferenceable(41) @.str.16, ptr noundef nonnull align 8 dereferenceable(32) %ref.tmp14, ptr noundef nonnull align 1 dereferenceable(10) @.str.17, ptr noundef nonnull align 4 dereferenceable(4) %typedIndex)
          to label %_ZN6Assimp12LogFunctionsINS_11FBXImporterEE8LogErrorIJRA41_KcRKNSt7__cxx1112basic_stringIcSt11char_traitsIcESaIcEEERA10_S4_RKiEEEvDpOT_.exit unwind label %lpad16.loopexit.split-lp

_ZN6Assimp12LogFunctionsINS_11FBXImporterEE8LogErrorIJRA41_KcRKNSt7__cxx1112basic_stringIcSt11char_traitsIcESaIcEEERA10_S4_RKiEEEvDpOT_.exit: ; preds = %call8.i.noexc, %call.i21.noexc
  call void @llvm.lifetime.end.p0(i64 8, ptr nonnull %ref.tmp.i)
  br label %cleanup

cleanup:                                          ; preds = %_ZN6Assimp12LogFunctionsINS_11FBXImporterEE8LogErrorIJRA41_KcRKNSt7__cxx1112basic_stringIcSt11char_traitsIcESaIcEEERA10_S4_RKiEEEvDpOT_.exit, %invoke.cont34
  call void @_ZNSt7__cxx1112basic_stringIcSt11char_traitsIcESaIcEED1Ev(ptr noundef nonnull align 8 dereferenceable(32) %ref.tmp14) #23
  ret void

eh.resume:                                        ; preds = %lpad16, %ehcleanup13, %ehcleanup
  %.pn7 = phi { ptr, i32 } [ %lpad.phi, %lpad16 ], [ %.pn5, %ehcleanup13 ], [ %.pn, %ehcleanup ]
  resume { ptr, i32 } %.pn7
}

declare void @_ZN6Assimp3FBX18ParseTokenAsStringB5cxx11ERKNS0_5TokenE(ptr sret(%"class.std::__cxx11::basic_string") align 8, ptr noundef nonnull align 8 dereferenceable(36)) local_unnamed_addr #1

declare noundef nonnull align 8 dereferenceable(36) ptr @_ZN6Assimp3FBX16GetRequiredTokenERKNS0_7ElementEj(ptr noundef nonnull align 8 dereferenceable(40), i32 noundef) local_unnamed_addr #1

declare noundef i32 @_ZN6Assimp3FBX15ParseTokenAsIntERKNS0_5TokenE(ptr noundef nonnull align 8 dereferenceable(36)) local_unnamed_addr #1

; Function Attrs: mustprogress uwtable
define hidden void @_ZN6Assimp3FBX12MeshGeometry14ReadVertexDataERKNSt7__cxx1112basic_stringIcSt11char_traitsIcESaIcEEEiRKNS0_5ScopeE(ptr noundef nonnull align 8 dereferenceable(1000) %this, ptr noundef nonnull align 8 dereferenceable(32) %type, i32 noundef %index, ptr noundef nonnull align 8 dereferenceable(48) %source) local_unnamed_addr #0 align 2 personality ptr @__gxx_personality_v0 {
entry:
  %ref.tmp.i117 = alloca ptr, align 8
  %ref.tmp.i91 = alloca ptr, align 8
  %ref.tmp.i72 = alloca ptr, align 8
  %ref.tmp.i59 = alloca ptr, align 8
  %ref.tmp.i = alloca ptr, align 8
  %index.addr = alloca i32, align 4
  %ref.tmp = alloca %"class.std::__cxx11::basic_string", align 8
  %ref.tmp2 = alloca %"class.std::__cxx11::basic_string", align 8
  %ref.tmp3 = alloca %"class.std::allocator", align 1
  %ref.tmp9 = alloca %"class.std::__cxx11::basic_string", align 8
  %ref.tmp10 = alloca %"class.std::__cxx11::basic_string", align 8
  %ref.tmp11 = alloca %"class.std::allocator", align 1
  %ref.tmp26 = alloca i32, align 4
  %ref.tmp28 = alloca %"class.std::__cxx11::basic_string", align 8
  %ref.tmp29 = alloca %"class.std::allocator", align 1
  %ref.tmp37 = alloca %"class.std::__cxx11::basic_string", align 8
  %ref.tmp40 = alloca %"class.std::__cxx11::basic_string", align 8
  %temp_materials = alloca %"class.std::vector.61", align 8
  %ref.tmp117 = alloca i32, align 4
  store i32 %index, ptr %index.addr, align 4
  call void @_ZNSaIcEC1Ev(ptr noundef nonnull align 1 dereferenceable(1) %ref.tmp3) #23
  %call.i34 = invoke noundef ptr @_ZNSt7__cxx1112basic_stringIcSt11char_traitsIcESaIcEE13_M_local_dataEv(ptr noundef nonnull align 8 dereferenceable(32) %ref.tmp2)
          to label %call.i.noexc unwind label %lpad

call.i.noexc:                                     ; preds = %entry
  invoke void @_ZNSt7__cxx1112basic_stringIcSt11char_traitsIcESaIcEE12_Alloc_hiderC1EPcRKS3_(ptr noundef nonnull align 8 dereferenceable(8) %ref.tmp2, ptr noundef %call.i34, ptr noundef nonnull align 1 dereferenceable(1) %ref.tmp3)
          to label %.noexc unwind label %lpad

.noexc:                                           ; preds = %call.i.noexc
  invoke void @_ZNSt7__cxx1112basic_stringIcSt11char_traitsIcESaIcEE12_M_constructIPKcEEvT_S8_St20forward_iterator_tag(ptr noundef nonnull align 8 dereferenceable(32) %ref.tmp2, ptr noundef nonnull @.str.18, ptr noundef nonnull getelementptr inbounds ([23 x i8], ptr @.str.18, i64 0, i64 22))
          to label %invoke.cont unwind label %lpad.i

lpad.i:                                           ; preds = %.noexc
  %0 = landingpad { ptr, i32 }
          cleanup
  call void @_ZNSaIcED2Ev(ptr noundef nonnull align 1 dereferenceable(1) %ref.tmp2) #23
  br label %ehcleanup

invoke.cont:                                      ; preds = %.noexc
  %call = invoke noundef nonnull align 8 dereferenceable(40) ptr @_ZN6Assimp3FBX18GetRequiredElementERKNS0_5ScopeERKNSt7__cxx1112basic_stringIcSt11char_traitsIcESaIcEEEPKNS0_7ElementE(ptr noundef nonnull align 8 dereferenceable(48) %source, ptr noundef nonnull align 8 dereferenceable(32) %ref.tmp2, ptr noundef null)
          to label %invoke.cont5 unwind label %lpad4

invoke.cont5:                                     ; preds = %invoke.cont
  %call7 = invoke noundef nonnull align 8 dereferenceable(36) ptr @_ZN6Assimp3FBX16GetRequiredTokenERKNS0_7ElementEj(ptr noundef nonnull align 8 dereferenceable(40) %call, i32 noundef 0)
          to label %invoke.cont6 unwind label %lpad4

invoke.cont6:                                     ; preds = %invoke.cont5
  invoke void @_ZN6Assimp3FBX18ParseTokenAsStringB5cxx11ERKNS0_5TokenE(ptr nonnull sret(%"class.std::__cxx11::basic_string") align 8 %ref.tmp, ptr noundef nonnull align 8 dereferenceable(36) %call7)
          to label %invoke.cont8 unwind label %lpad4

invoke.cont8:                                     ; preds = %invoke.cont6
  call void @_ZNSt7__cxx1112basic_stringIcSt11char_traitsIcESaIcEED1Ev(ptr noundef nonnull align 8 dereferenceable(32) %ref.tmp2) #23
  call void @_ZNSaIcED1Ev(ptr noundef nonnull align 1 dereferenceable(1) %ref.tmp3) #23
  call void @_ZNSaIcEC1Ev(ptr noundef nonnull align 1 dereferenceable(1) %ref.tmp11) #23
  %call.i39 = invoke noundef ptr @_ZNSt7__cxx1112basic_stringIcSt11char_traitsIcESaIcEE13_M_local_dataEv(ptr noundef nonnull align 8 dereferenceable(32) %ref.tmp10)
          to label %call.i.noexc38 unwind label %lpad12

call.i.noexc38:                                   ; preds = %invoke.cont8
  invoke void @_ZNSt7__cxx1112basic_stringIcSt11char_traitsIcESaIcEE12_Alloc_hiderC1EPcRKS3_(ptr noundef nonnull align 8 dereferenceable(8) %ref.tmp10, ptr noundef %call.i39, ptr noundef nonnull align 1 dereferenceable(1) %ref.tmp11)
          to label %.noexc40 unwind label %lpad12

.noexc40:                                         ; preds = %call.i.noexc38
  invoke void @_ZNSt7__cxx1112basic_stringIcSt11char_traitsIcESaIcEE12_M_constructIPKcEEvT_S8_St20forward_iterator_tag(ptr noundef nonnull align 8 dereferenceable(32) %ref.tmp10, ptr noundef nonnull @.str.19, ptr noundef nonnull getelementptr inbounds ([25 x i8], ptr @.str.19, i64 0, i64 24))
          to label %invoke.cont13 unwind label %lpad.i37

lpad.i37:                                         ; preds = %.noexc40
  %1 = landingpad { ptr, i32 }
          cleanup
  call void @_ZNSaIcED2Ev(ptr noundef nonnull align 1 dereferenceable(1) %ref.tmp10) #23
  br label %ehcleanup21

invoke.cont13:                                    ; preds = %.noexc40
  %call16 = invoke noundef nonnull align 8 dereferenceable(40) ptr @_ZN6Assimp3FBX18GetRequiredElementERKNS0_5ScopeERKNSt7__cxx1112basic_stringIcSt11char_traitsIcESaIcEEEPKNS0_7ElementE(ptr noundef nonnull align 8 dereferenceable(48) %source, ptr noundef nonnull align 8 dereferenceable(32) %ref.tmp10, ptr noundef null)
          to label %invoke.cont15 unwind label %lpad14

invoke.cont15:                                    ; preds = %invoke.cont13
  %call18 = invoke noundef nonnull align 8 dereferenceable(36) ptr @_ZN6Assimp3FBX16GetRequiredTokenERKNS0_7ElementEj(ptr noundef nonnull align 8 dereferenceable(40) %call16, i32 noundef 0)
          to label %invoke.cont17 unwind label %lpad14

invoke.cont17:                                    ; preds = %invoke.cont15
  invoke void @_ZN6Assimp3FBX18ParseTokenAsStringB5cxx11ERKNS0_5TokenE(ptr nonnull sret(%"class.std::__cxx11::basic_string") align 8 %ref.tmp9, ptr noundef nonnull align 8 dereferenceable(36) %call18)
          to label %invoke.cont19 unwind label %lpad14

invoke.cont19:                                    ; preds = %invoke.cont17
  call void @_ZNSt7__cxx1112basic_stringIcSt11char_traitsIcESaIcEED1Ev(ptr noundef nonnull align 8 dereferenceable(32) %ref.tmp10) #23
  call void @_ZNSaIcED1Ev(ptr noundef nonnull align 1 dereferenceable(1) %ref.tmp11) #23
  %call.i = call noundef i32 @_ZNKSt7__cxx1112basic_stringIcSt11char_traitsIcESaIcEE7compareEPKc(ptr noundef nonnull align 8 dereferenceable(32) %type, ptr noundef nonnull @.str.20) #23
  %cmp.i = icmp eq i32 %call.i, 0
  br i1 %cmp.i, label %if.then, label %if.else

if.then:                                          ; preds = %invoke.cont19
  %2 = load i32, ptr %index.addr, align 4
  %cmp = icmp sgt i32 %2, 7
  br i1 %cmp, label %if.then25, label %if.end

if.then25:                                        ; preds = %if.then
  store i32 8, ptr %ref.tmp26, align 4
  call void @llvm.lifetime.start.p0(i64 8, ptr nonnull %ref.tmp.i)
  %call.i4344 = invoke noundef zeroext i1 @_ZN6Assimp13DefaultLogger12isNullLoggerEv()
          to label %call.i43.noexc unwind label %lpad22

call.i43.noexc:                                   ; preds = %if.then25
  br i1 %call.i4344, label %_ZN6Assimp12LogFunctionsINS_11FBXImporterEE8LogErrorIJRA60_KcRiRA12_S4_iRA2_S4_EEEvDpOT_.exit, label %if.then.i

if.then.i:                                        ; preds = %call.i43.noexc
  %call9.i45 = invoke noundef ptr @_ZN6Assimp13DefaultLogger3getEv()
          to label %call9.i.noexc unwind label %lpad22

call9.i.noexc:                                    ; preds = %if.then.i
  %call10.i46 = invoke noundef ptr @_ZN6Assimp12LogFunctionsINS_11FBXImporterEE6PrefixEv()
          to label %call10.i.noexc unwind label %lpad22

call10.i.noexc:                                   ; preds = %call9.i.noexc
  store ptr %call10.i46, ptr %ref.tmp.i, align 8
  invoke void @_ZN6Assimp6Logger5errorIJPKcRA60_S2_RiRA12_S2_iRA2_S2_EEEvDpOT_(ptr noundef nonnull align 8 dereferenceable(12) %call9.i45, ptr noundef nonnull align 8 dereferenceable(8) %ref.tmp.i, ptr noundef nonnull align 1 dereferenceable(60) @.str.21, ptr noundef nonnull align 4 dereferenceable(4) %index.addr, ptr noundef nonnull align 1 dereferenceable(12) @.str.22, ptr noundef nonnull align 4 dereferenceable(4) %ref.tmp26, ptr noundef nonnull align 1 dereferenceable(2) @.str.23)
          to label %_ZN6Assimp12LogFunctionsINS_11FBXImporterEE8LogErrorIJRA60_KcRiRA12_S4_iRA2_S4_EEEvDpOT_.exit unwind label %lpad22

_ZN6Assimp12LogFunctionsINS_11FBXImporterEE8LogErrorIJRA60_KcRiRA12_S4_iRA2_S4_EEEvDpOT_.exit: ; preds = %call10.i.noexc, %call.i43.noexc
  call void @llvm.lifetime.end.p0(i64 8, ptr nonnull %ref.tmp.i)
  br label %cleanup129

lpad:                                             ; preds = %call.i.noexc, %entry
  %3 = landingpad { ptr, i32 }
          cleanup
  br label %ehcleanup

lpad4:                                            ; preds = %invoke.cont6, %invoke.cont5, %invoke.cont
  %4 = landingpad { ptr, i32 }
          cleanup
  call void @_ZNSt7__cxx1112basic_stringIcSt11char_traitsIcESaIcEED1Ev(ptr noundef nonnull align 8 dereferenceable(32) %ref.tmp2) #23
  br label %ehcleanup

ehcleanup:                                        ; preds = %lpad, %lpad.i, %lpad4
  %.pn = phi { ptr, i32 } [ %4, %lpad4 ], [ %3, %lpad ], [ %0, %lpad.i ]
  call void @_ZNSaIcED1Ev(ptr noundef nonnull align 1 dereferenceable(1) %ref.tmp3) #23
  br label %eh.resume

lpad12:                                           ; preds = %call.i.noexc38, %invoke.cont8
  %5 = landingpad { ptr, i32 }
          cleanup
  br label %ehcleanup21

lpad14:                                           ; preds = %invoke.cont17, %invoke.cont15, %invoke.cont13
  %6 = landingpad { ptr, i32 }
          cleanup
  call void @_ZNSt7__cxx1112basic_stringIcSt11char_traitsIcESaIcEED1Ev(ptr noundef nonnull align 8 dereferenceable(32) %ref.tmp10) #23
  br label %ehcleanup21

ehcleanup21:                                      ; preds = %lpad12, %lpad.i37, %lpad14
  %.pn26 = phi { ptr, i32 } [ %6, %lpad14 ], [ %5, %lpad12 ], [ %1, %lpad.i37 ]
  call void @_ZNSaIcED1Ev(ptr noundef nonnull align 1 dereferenceable(1) %ref.tmp11) #23
  br label %ehcleanup134

lpad22:                                           ; preds = %call2.i.noexc123, %call1.i.noexc121, %if.then.i119, %if.then95, %if.end86, %call2.i.noexc97, %call1.i.noexc95, %if.then.i93, %if.then84, %call2.i.noexc, %call1.i.noexc, %if.then.i61, %if.then57, %if.end48, %call10.i.noexc, %call9.i.noexc, %if.then.i, %if.then25, %if.end119, %if.then116, %if.end108, %if.then106, %if.end97, %invoke.cont41, %if.then39
  %7 = landingpad { ptr, i32 }
          cleanup
  br label %ehcleanup130

if.end:                                           ; preds = %if.then
  call void @_ZNSaIcEC1Ev(ptr noundef nonnull align 1 dereferenceable(1) %ref.tmp29) #23
  %call.i4852 = invoke noundef ptr @_ZNSt7__cxx1112basic_stringIcSt11char_traitsIcESaIcEE13_M_local_dataEv(ptr noundef nonnull align 8 dereferenceable(32) %ref.tmp28)
          to label %call.i48.noexc unwind label %lpad30

call.i48.noexc:                                   ; preds = %if.end
  invoke void @_ZNSt7__cxx1112basic_stringIcSt11char_traitsIcESaIcEE12_Alloc_hiderC1EPcRKS3_(ptr noundef nonnull align 8 dereferenceable(8) %ref.tmp28, ptr noundef %call.i4852, ptr noundef nonnull align 1 dereferenceable(1) %ref.tmp29)
          to label %.noexc53 unwind label %lpad30

.noexc53:                                         ; preds = %call.i48.noexc
  invoke void @_ZNSt7__cxx1112basic_stringIcSt11char_traitsIcESaIcEE12_M_constructIPKcEEvT_S8_St20forward_iterator_tag(ptr noundef nonnull align 8 dereferenceable(32) %ref.tmp28, ptr noundef nonnull @.str.24, ptr noundef nonnull getelementptr inbounds ([5 x i8], ptr @.str.24, i64 0, i64 4))
          to label %invoke.cont31 unwind label %lpad.i51

lpad.i51:                                         ; preds = %.noexc53
  %8 = landingpad { ptr, i32 }
          cleanup
  call void @_ZNSaIcED2Ev(ptr noundef nonnull align 1 dereferenceable(1) %ref.tmp28) #23
  br label %ehcleanup36

invoke.cont31:                                    ; preds = %.noexc53
  %_M_parent.i.i.i.i = getelementptr inbounds i8, ptr %source, i64 16
  %9 = load ptr, ptr %_M_parent.i.i.i.i, align 8
  %add.ptr.i.i.i.i = getelementptr inbounds i8, ptr %source, i64 8
  %cmp.not6.i.i.i.i = icmp eq ptr %9, null
  br i1 %cmp.not6.i.i.i.i, label %invoke.cont33, label %while.body.i.i.i.i

while.body.i.i.i.i:                               ; preds = %invoke.cont31, %_ZNKSt4lessINSt7__cxx1112basic_stringIcSt11char_traitsIcESaIcEEEEclERKS5_S8_.exit.i.i.i.i
  %__x.addr.08.i.i.i.i = phi ptr [ %__x.addr.1.i.i.i.i, %_ZNKSt4lessINSt7__cxx1112basic_stringIcSt11char_traitsIcESaIcEEEEclERKS5_S8_.exit.i.i.i.i ], [ %9, %invoke.cont31 ]
  %__y.addr.07.i.i.i.i = phi ptr [ %__y.addr.1.i.i.i.i, %_ZNKSt4lessINSt7__cxx1112basic_stringIcSt11char_traitsIcESaIcEEEEclERKS5_S8_.exit.i.i.i.i ], [ %add.ptr.i.i.i.i, %invoke.cont31 ]
  %_M_storage.i.i.i.i.i.i = getelementptr inbounds %"struct.std::_Rb_tree_node", ptr %__x.addr.08.i.i.i.i, i64 0, i32 1
  %call.i.i.i.i.i.i = invoke noundef i32 @_ZNKSt7__cxx1112basic_stringIcSt11char_traitsIcESaIcEE7compareERKS4_(ptr noundef nonnull align 8 dereferenceable(32) %_M_storage.i.i.i.i.i.i, ptr noundef nonnull align 8 dereferenceable(32) %ref.tmp28)
          to label %_ZNKSt4lessINSt7__cxx1112basic_stringIcSt11char_traitsIcESaIcEEEEclERKS5_S8_.exit.i.i.i.i unwind label %terminate.lpad.i.i.i.i.i.i

terminate.lpad.i.i.i.i.i.i:                       ; preds = %while.body.i.i.i.i
  %10 = landingpad { ptr, i32 }
          catch ptr null
  %11 = extractvalue { ptr, i32 } %10, 0
  call void @__clang_call_terminate(ptr %11) #27
  unreachable

_ZNKSt4lessINSt7__cxx1112basic_stringIcSt11char_traitsIcESaIcEEEEclERKS5_S8_.exit.i.i.i.i: ; preds = %while.body.i.i.i.i
  %cmp.i.i.i.i.i.i = icmp slt i32 %call.i.i.i.i.i.i, 0
  %_M_right.i.i.i.i.i = getelementptr inbounds %"struct.std::_Rb_tree_node_base", ptr %__x.addr.08.i.i.i.i, i64 0, i32 3
  %_M_left.i.i.i.i.i = getelementptr inbounds %"struct.std::_Rb_tree_node_base", ptr %__x.addr.08.i.i.i.i, i64 0, i32 2
  %__y.addr.1.i.i.i.i = select i1 %cmp.i.i.i.i.i.i, ptr %__y.addr.07.i.i.i.i, ptr %__x.addr.08.i.i.i.i
  %__x.addr.1.in.i.i.i.i = select i1 %cmp.i.i.i.i.i.i, ptr %_M_right.i.i.i.i.i, ptr %_M_left.i.i.i.i.i
  %__x.addr.1.i.i.i.i = load ptr, ptr %__x.addr.1.in.i.i.i.i, align 8
  %cmp.not.i.i.i.i = icmp eq ptr %__x.addr.1.i.i.i.i, null
  br i1 %cmp.not.i.i.i.i, label %_ZNKSt8_Rb_treeINSt7__cxx1112basic_stringIcSt11char_traitsIcESaIcEEESt4pairIKS5_PN6Assimp3FBX7ElementEESt10_Select1stISC_ESt4lessIS5_ESaISC_EE14_M_lower_boundEPKSt13_Rb_tree_nodeISC_EPKSt18_Rb_tree_node_baseRS7_.exit.i.i.i, label %while.body.i.i.i.i, !llvm.loop !22

_ZNKSt8_Rb_treeINSt7__cxx1112basic_stringIcSt11char_traitsIcESaIcEEESt4pairIKS5_PN6Assimp3FBX7ElementEESt10_Select1stISC_ESt4lessIS5_ESaISC_EE14_M_lower_boundEPKSt13_Rb_tree_nodeISC_EPKSt18_Rb_tree_node_baseRS7_.exit.i.i.i: ; preds = %_ZNKSt4lessINSt7__cxx1112basic_stringIcSt11char_traitsIcESaIcEEEEclERKS5_S8_.exit.i.i.i.i
  %cmp.i.i.i.i = icmp eq ptr %__y.addr.1.i.i.i.i, %add.ptr.i.i.i.i
  br i1 %cmp.i.i.i.i, label %invoke.cont33, label %lor.lhs.false.i.i.i

lor.lhs.false.i.i.i:                              ; preds = %_ZNKSt8_Rb_treeINSt7__cxx1112basic_stringIcSt11char_traitsIcESaIcEEESt4pairIKS5_PN6Assimp3FBX7ElementEESt10_Select1stISC_ESt4lessIS5_ESaISC_EE14_M_lower_boundEPKSt13_Rb_tree_nodeISC_EPKSt18_Rb_tree_node_baseRS7_.exit.i.i.i
  %_M_storage.i.i.i3.i.i.i = getelementptr inbounds %"struct.std::_Rb_tree_node", ptr %__y.addr.1.i.i.i.i, i64 0, i32 1
  %call.i.i.i.i.i = invoke noundef i32 @_ZNKSt7__cxx1112basic_stringIcSt11char_traitsIcESaIcEE7compareERKS4_(ptr noundef nonnull align 8 dereferenceable(32) %ref.tmp28, ptr noundef nonnull align 8 dereferenceable(32) %_M_storage.i.i.i3.i.i.i)
          to label %_ZNKSt8multimapINSt7__cxx1112basic_stringIcSt11char_traitsIcESaIcEEEPN6Assimp3FBX7ElementESt4lessIS5_ESaISt4pairIKS5_S9_EEE4findERSD_.exit.i unwind label %terminate.lpad.i.i.i.i.i

terminate.lpad.i.i.i.i.i:                         ; preds = %lor.lhs.false.i.i.i
  %12 = landingpad { ptr, i32 }
          catch ptr null
  %13 = extractvalue { ptr, i32 } %12, 0
  call void @__clang_call_terminate(ptr %13) #27
  unreachable

_ZNKSt8multimapINSt7__cxx1112basic_stringIcSt11char_traitsIcESaIcEEEPN6Assimp3FBX7ElementESt4lessIS5_ESaISt4pairIKS5_S9_EEE4findERSD_.exit.i: ; preds = %lor.lhs.false.i.i.i
  %cmp.i.i.i.i.i = icmp slt i32 %call.i.i.i.i.i, 0
  br i1 %cmp.i.i.i.i.i, label %invoke.cont33, label %cond.false.i

cond.false.i:                                     ; preds = %_ZNKSt8multimapINSt7__cxx1112basic_stringIcSt11char_traitsIcESaIcEEEPN6Assimp3FBX7ElementESt4lessIS5_ESaISt4pairIKS5_S9_EEE4findERSD_.exit.i
  %second.i = getelementptr inbounds %"struct.std::_Rb_tree_node", ptr %__y.addr.1.i.i.i.i, i64 0, i32 1, i32 0, i64 32
  %14 = load ptr, ptr %second.i, align 8
  br label %invoke.cont33

invoke.cont33:                                    ; preds = %cond.false.i, %_ZNKSt8multimapINSt7__cxx1112basic_stringIcSt11char_traitsIcESaIcEEEPN6Assimp3FBX7ElementESt4lessIS5_ESaISt4pairIKS5_S9_EEE4findERSD_.exit.i, %_ZNKSt8_Rb_treeINSt7__cxx1112basic_stringIcSt11char_traitsIcESaIcEEESt4pairIKS5_PN6Assimp3FBX7ElementEESt10_Select1stISC_ESt4lessIS5_ESaISC_EE14_M_lower_boundEPKSt13_Rb_tree_nodeISC_EPKSt18_Rb_tree_node_baseRS7_.exit.i.i.i, %invoke.cont31
  %cond.i = phi ptr [ %14, %cond.false.i ], [ null, %_ZNKSt8multimapINSt7__cxx1112basic_stringIcSt11char_traitsIcESaIcEEEPN6Assimp3FBX7ElementESt4lessIS5_ESaISt4pairIKS5_S9_EEE4findERSD_.exit.i ], [ null, %_ZNKSt8_Rb_treeINSt7__cxx1112basic_stringIcSt11char_traitsIcESaIcEEESt4pairIKS5_PN6Assimp3FBX7ElementEESt10_Select1stISC_ESt4lessIS5_ESaISC_EE14_M_lower_boundEPKSt13_Rb_tree_nodeISC_EPKSt18_Rb_tree_node_baseRS7_.exit.i.i.i ], [ null, %invoke.cont31 ]
  call void @_ZNSt7__cxx1112basic_stringIcSt11char_traitsIcESaIcEED1Ev(ptr noundef nonnull align 8 dereferenceable(32) %ref.tmp28) #23
  call void @_ZNSaIcED1Ev(ptr noundef nonnull align 1 dereferenceable(1) %ref.tmp29) #23
  call void @_ZNSt7__cxx1112basic_stringIcSt11char_traitsIcESaIcEEC1Ev(ptr noundef nonnull align 8 dereferenceable(32) %ref.tmp37) #23
  %15 = load i32, ptr %index.addr, align 4
  %idxprom = sext i32 %15 to i64
  %arrayidx = getelementptr inbounds %"class.Assimp::FBX::MeshGeometry", ptr %this, i64 0, i32 8, i64 %idxprom
  %call38 = call noundef nonnull align 8 dereferenceable(32) ptr @_ZNSt7__cxx1112basic_stringIcSt11char_traitsIcESaIcEEaSEOS4_(ptr noundef nonnull align 8 dereferenceable(32) %arrayidx, ptr noundef nonnull align 8 dereferenceable(32) %ref.tmp37) #23
  call void @_ZNSt7__cxx1112basic_stringIcSt11char_traitsIcESaIcEED1Ev(ptr noundef nonnull align 8 dereferenceable(32) %ref.tmp37) #23
  %tobool.not = icmp eq ptr %cond.i, null
  br i1 %tobool.not, label %if.end48, label %if.then39

if.then39:                                        ; preds = %invoke.cont33
  %call42 = invoke noundef nonnull align 8 dereferenceable(36) ptr @_ZN6Assimp3FBX16GetRequiredTokenERKNS0_7ElementEj(ptr noundef nonnull align 8 dereferenceable(40) %cond.i, i32 noundef 0)
          to label %invoke.cont41 unwind label %lpad22

invoke.cont41:                                    ; preds = %if.then39
  invoke void @_ZN6Assimp3FBX18ParseTokenAsStringB5cxx11ERKNS0_5TokenE(ptr nonnull sret(%"class.std::__cxx11::basic_string") align 8 %ref.tmp40, ptr noundef nonnull align 8 dereferenceable(36) %call42)
          to label %invoke.cont43 unwind label %lpad22

invoke.cont43:                                    ; preds = %invoke.cont41
  %16 = load i32, ptr %index.addr, align 4
  %idxprom45 = sext i32 %16 to i64
  %arrayidx46 = getelementptr inbounds %"class.Assimp::FBX::MeshGeometry", ptr %this, i64 0, i32 8, i64 %idxprom45
  %call47 = call noundef nonnull align 8 dereferenceable(32) ptr @_ZNSt7__cxx1112basic_stringIcSt11char_traitsIcESaIcEEaSEOS4_(ptr noundef nonnull align 8 dereferenceable(32) %arrayidx46, ptr noundef nonnull align 8 dereferenceable(32) %ref.tmp40) #23
  call void @_ZNSt7__cxx1112basic_stringIcSt11char_traitsIcESaIcEED1Ev(ptr noundef nonnull align 8 dereferenceable(32) %ref.tmp40) #23
  br label %if.end48

lpad30:                                           ; preds = %call.i48.noexc, %if.end
  %17 = landingpad { ptr, i32 }
          cleanup
  br label %ehcleanup36

ehcleanup36:                                      ; preds = %lpad30, %lpad.i51
  %.pn28 = phi { ptr, i32 } [ %17, %lpad30 ], [ %8, %lpad.i51 ]
  call void @_ZNSaIcED1Ev(ptr noundef nonnull align 1 dereferenceable(1) %ref.tmp29) #23
  br label %ehcleanup130

if.end48:                                         ; preds = %invoke.cont43, %invoke.cont33
  %18 = load i32, ptr %index.addr, align 4
  %idxprom49 = sext i32 %18 to i64
  %arrayidx50 = getelementptr inbounds %"class.Assimp::FBX::MeshGeometry", ptr %this, i64 0, i32 9, i64 %idxprom49
  %m_vertices.i = getelementptr inbounds %"class.Assimp::FBX::MeshGeometry", ptr %this, i64 0, i32 2
  %_M_finish.i.i = getelementptr inbounds %"class.Assimp::FBX::MeshGeometry", ptr %this, i64 0, i32 2, i32 0, i32 0, i32 0, i32 1
  %19 = load ptr, ptr %_M_finish.i.i, align 8
  %20 = load ptr, ptr %m_vertices.i, align 8
  %sub.ptr.lhs.cast.i.i = ptrtoint ptr %19 to i64
  %sub.ptr.rhs.cast.i.i = ptrtoint ptr %20 to i64
  %sub.ptr.sub.i.i = sub i64 %sub.ptr.lhs.cast.i.i, %sub.ptr.rhs.cast.i.i
  %sub.ptr.div.i.i = sdiv exact i64 %sub.ptr.sub.i.i, 12
  %m_mapping_counts.i = getelementptr inbounds %"class.Assimp::FBX::MeshGeometry", ptr %this, i64 0, i32 11
  %m_mapping_offsets.i = getelementptr inbounds %"class.Assimp::FBX::MeshGeometry", ptr %this, i64 0, i32 12
  %m_mappings.i = getelementptr inbounds %"class.Assimp::FBX::MeshGeometry", ptr %this, i64 0, i32 13
  invoke void @_ZN6Assimp3FBX22ResolveVertexDataArrayI10aiVector2tIfEEEvRSt6vectorIT_SaIS5_EERKNS0_5ScopeERKNSt7__cxx1112basic_stringIcSt11char_traitsIcESaIcEEESJ_PKcSL_mRKS4_IjSaIjEESP_SP_(ptr noundef nonnull align 8 dereferenceable(24) %arrayidx50, ptr noundef nonnull align 8 dereferenceable(48) %source, ptr noundef nonnull align 8 dereferenceable(32) %ref.tmp, ptr noundef nonnull align 8 dereferenceable(32) %ref.tmp9, ptr noundef nonnull @.str.38, ptr noundef nonnull @.str.39, i64 noundef %sub.ptr.div.i.i, ptr noundef nonnull align 8 dereferenceable(24) %m_mapping_counts.i, ptr noundef nonnull align 8 dereferenceable(24) %m_mapping_offsets.i, ptr noundef nonnull align 8 dereferenceable(24) %m_mappings.i)
          to label %cleanup129 unwind label %lpad22

if.else:                                          ; preds = %invoke.cont19
  %call.i57 = call noundef i32 @_ZNKSt7__cxx1112basic_stringIcSt11char_traitsIcESaIcEE7compareEPKc(ptr noundef nonnull align 8 dereferenceable(32) %type, ptr noundef nonnull @.str.25) #23
  %cmp.i58 = icmp eq i32 %call.i57, 0
  br i1 %cmp.i58, label %if.then54, label %if.else78

if.then54:                                        ; preds = %if.else
  %m_materials = getelementptr inbounds %"class.Assimp::FBX::MeshGeometry", ptr %this, i64 0, i32 1
  %_M_finish.i = getelementptr inbounds %"class.Assimp::FBX::MeshGeometry", ptr %this, i64 0, i32 1, i32 0, i32 0, i32 0, i32 1
  %21 = load ptr, ptr %_M_finish.i, align 8
  %22 = load ptr, ptr %m_materials, align 8
  %cmp56.not = icmp eq ptr %21, %22
  br i1 %cmp56.not, label %if.end59, label %if.then57

if.then57:                                        ; preds = %if.then54
  call void @llvm.lifetime.start.p0(i64 8, ptr nonnull %ref.tmp.i59)
  %call.i6062 = invoke noundef zeroext i1 @_ZN6Assimp13DefaultLogger12isNullLoggerEv()
          to label %call.i60.noexc unwind label %lpad22

call.i60.noexc:                                   ; preds = %if.then57
  br i1 %call.i6062, label %_ZN6Assimp12LogFunctionsINS_11FBXImporterEE8LogErrorIJRA35_KcEEEvDpOT_.exit, label %if.then.i61

if.then.i61:                                      ; preds = %call.i60.noexc
  %call1.i63 = invoke noundef ptr @_ZN6Assimp13DefaultLogger3getEv()
          to label %call1.i.noexc unwind label %lpad22

call1.i.noexc:                                    ; preds = %if.then.i61
  %call2.i64 = invoke noundef ptr @_ZN6Assimp12LogFunctionsINS_11FBXImporterEE6PrefixEv()
          to label %call2.i.noexc unwind label %lpad22

call2.i.noexc:                                    ; preds = %call1.i.noexc
  store ptr %call2.i64, ptr %ref.tmp.i59, align 8
  invoke void @_ZN6Assimp6Logger5errorIJPKcRA35_S2_EEEvDpOT_(ptr noundef nonnull align 8 dereferenceable(12) %call1.i63, ptr noundef nonnull align 8 dereferenceable(8) %ref.tmp.i59, ptr noundef nonnull align 1 dereferenceable(35) @.str.26)
          to label %_ZN6Assimp12LogFunctionsINS_11FBXImporterEE8LogErrorIJRA35_KcEEEvDpOT_.exit unwind label %lpad22

_ZN6Assimp12LogFunctionsINS_11FBXImporterEE8LogErrorIJRA35_KcEEEvDpOT_.exit: ; preds = %call2.i.noexc, %call.i60.noexc
  call void @llvm.lifetime.end.p0(i64 8, ptr nonnull %ref.tmp.i59)
  br label %cleanup129

if.end59:                                         ; preds = %if.then54
  call void @llvm.memset.p0.i64(ptr noundef nonnull align 8 dereferenceable(24) %temp_materials, i8 0, i64 24, i1 false)
  invoke void @_ZN6Assimp3FBX12MeshGeometry23ReadVertexDataMaterialsERSt6vectorIiSaIiEERKNS0_5ScopeERKNSt7__cxx1112basic_stringIcSt11char_traitsIcESaIcEEESG_(ptr noundef nonnull align 8 dereferenceable(1000) %this, ptr noundef nonnull align 8 dereferenceable(24) %temp_materials, ptr noundef nonnull align 8 dereferenceable(48) %source, ptr noundef nonnull align 8 dereferenceable(32) %ref.tmp, ptr noundef nonnull align 8 dereferenceable(32) %ref.tmp9)
          to label %invoke.cont61 unwind label %lpad60

invoke.cont61:                                    ; preds = %if.end59
  %23 = load ptr, ptr %temp_materials, align 8
  %_M_finish.i66 = getelementptr inbounds %"struct.std::_Vector_base<int, std::allocator<int>>::_Vector_impl_data", ptr %temp_materials, i64 0, i32 1
  %24 = load ptr, ptr %_M_finish.i66, align 8
  %cmp.i.not3.i.i = icmp eq ptr %23, %24
  br i1 %cmp.i.not3.i.i, label %invoke.cont69, label %for.body.i.i

for.body.i.i:                                     ; preds = %invoke.cont61, %for.body.i.i
  %__n.05.i.i = phi i64 [ %spec.select.i.i, %for.body.i.i ], [ 0, %invoke.cont61 ]
  %__first.sroa.0.04.i.i = phi ptr [ %incdec.ptr.i.i.i, %for.body.i.i ], [ %23, %invoke.cont61 ]
  %25 = load i32, ptr %__first.sroa.0.04.i.i, align 4
  %.lobit.i.i = lshr i32 %25, 31
  %inc.i.i = zext nneg i32 %.lobit.i.i to i64
  %spec.select.i.i = add nuw nsw i64 %__n.05.i.i, %inc.i.i
  %incdec.ptr.i.i.i = getelementptr inbounds i32, ptr %__first.sroa.0.04.i.i, i64 1
  %cmp.i.not.i.i = icmp eq ptr %incdec.ptr.i.i.i, %24
  br i1 %cmp.i.not.i.i, label %invoke.cont69, label %for.body.i.i, !llvm.loop !23

invoke.cont69:                                    ; preds = %for.body.i.i, %invoke.cont61
  %__n.0.lcssa.i.i = phi i64 [ 0, %invoke.cont61 ], [ %spec.select.i.i, %for.body.i.i ]
  %sub.ptr.lhs.cast.i68 = ptrtoint ptr %24 to i64
  %sub.ptr.rhs.cast.i69 = ptrtoint ptr %23 to i64
  %sub.ptr.sub.i70 = sub i64 %sub.ptr.lhs.cast.i68, %sub.ptr.rhs.cast.i69
  %sub.ptr.div.i71 = ashr exact i64 %sub.ptr.sub.i70, 2
  %cmp72.not = icmp eq i64 %__n.0.lcssa.i.i, %sub.ptr.div.i71
  br i1 %cmp72.not, label %if.then73, label %if.end75

if.then73:                                        ; preds = %invoke.cont69
  call void @llvm.lifetime.start.p0(i64 8, ptr nonnull %ref.tmp.i72)
  %call.i7375 = invoke noundef zeroext i1 @_ZN6Assimp13DefaultLogger12isNullLoggerEv()
          to label %call.i73.noexc unwind label %lpad60

call.i73.noexc:                                   ; preds = %if.then73
  br i1 %call.i7375, label %_ZN6Assimp12LogFunctionsINS_11FBXImporterEE7LogWarnIJRA47_KcEEEvDpOT_.exit, label %if.then.i74

if.then.i74:                                      ; preds = %call.i73.noexc
  %call1.i77 = invoke noundef ptr @_ZN6Assimp13DefaultLogger3getEv()
          to label %call1.i.noexc76 unwind label %lpad60

call1.i.noexc76:                                  ; preds = %if.then.i74
  %call2.i79 = invoke noundef ptr @_ZN6Assimp12LogFunctionsINS_11FBXImporterEE6PrefixEv()
          to label %call2.i.noexc78 unwind label %lpad60

call2.i.noexc78:                                  ; preds = %call1.i.noexc76
  store ptr %call2.i79, ptr %ref.tmp.i72, align 8
  invoke void @_ZN6Assimp6Logger4warnIJPKcRA47_S2_EEEvDpOT_(ptr noundef nonnull align 8 dereferenceable(12) %call1.i77, ptr noundef nonnull align 8 dereferenceable(8) %ref.tmp.i72, ptr noundef nonnull align 1 dereferenceable(47) @.str.27)
          to label %_ZN6Assimp12LogFunctionsINS_11FBXImporterEE7LogWarnIJRA47_KcEEEvDpOT_.exit unwind label %lpad60

_ZN6Assimp12LogFunctionsINS_11FBXImporterEE7LogWarnIJRA47_KcEEEvDpOT_.exit: ; preds = %call2.i.noexc78, %call.i73.noexc
  call void @llvm.lifetime.end.p0(i64 8, ptr nonnull %ref.tmp.i72)
  %.pre = load ptr, ptr %temp_materials, align 8
  br label %cleanup

lpad60:                                           ; preds = %call2.i.noexc78, %call1.i.noexc76, %if.then.i74, %if.then73, %if.end59
  %26 = landingpad { ptr, i32 }
          cleanup
  %27 = load ptr, ptr %temp_materials, align 8
  %tobool.not.i.i.i = icmp eq ptr %27, null
  br i1 %tobool.not.i.i.i, label %ehcleanup130, label %if.then.i.i.i

if.then.i.i.i:                                    ; preds = %lpad60
  call void @_ZdlPv(ptr noundef nonnull %27) #22
  br label %ehcleanup130

if.end75:                                         ; preds = %invoke.cont69
  %_M_end_of_storage.i.i.i.i = getelementptr inbounds %"struct.std::_Vector_base<int, std::allocator<int>>::_Vector_impl_data", ptr %temp_materials, i64 0, i32 2
  %28 = load ptr, ptr %_M_end_of_storage.i.i.i.i, align 8
  %29 = load ptr, ptr %m_materials, align 8
  store ptr %29, ptr %temp_materials, align 8
  %_M_end_of_storage.i4.i.i.i = getelementptr inbounds %"class.Assimp::FBX::MeshGeometry", ptr %this, i64 0, i32 1, i32 0, i32 0, i32 0, i32 2
  %30 = load <2 x ptr>, ptr %_M_finish.i, align 8
  store <2 x ptr> %30, ptr %_M_finish.i66, align 8
  store ptr %23, ptr %m_materials, align 8
  store ptr %24, ptr %_M_finish.i, align 8
  store ptr %28, ptr %_M_end_of_storage.i4.i.i.i, align 8
  br label %cleanup

cleanup:                                          ; preds = %_ZN6Assimp12LogFunctionsINS_11FBXImporterEE7LogWarnIJRA47_KcEEEvDpOT_.exit, %if.end75
  %31 = phi ptr [ %.pre, %_ZN6Assimp12LogFunctionsINS_11FBXImporterEE7LogWarnIJRA47_KcEEEvDpOT_.exit ], [ %29, %if.end75 ]
  %tobool.not.i.i.i81 = icmp eq ptr %31, null
  br i1 %tobool.not.i.i.i81, label %cleanup129, label %if.then.i.i.i82

if.then.i.i.i82:                                  ; preds = %cleanup
  call void @_ZdlPv(ptr noundef nonnull %31) #22
  br label %cleanup129

if.else78:                                        ; preds = %if.else
  %call.i84 = call noundef i32 @_ZNKSt7__cxx1112basic_stringIcSt11char_traitsIcESaIcEE7compareEPKc(ptr noundef nonnull align 8 dereferenceable(32) %type, ptr noundef nonnull @.str.28) #23
  %cmp.i85 = icmp eq i32 %call.i84, 0
  br i1 %cmp.i85, label %if.then81, label %if.else89

if.then81:                                        ; preds = %if.else78
  %m_normals = getelementptr inbounds %"class.Assimp::FBX::MeshGeometry", ptr %this, i64 0, i32 7
  %_M_finish.i86 = getelementptr inbounds %"class.Assimp::FBX::MeshGeometry", ptr %this, i64 0, i32 7, i32 0, i32 0, i32 0, i32 1
  %32 = load ptr, ptr %_M_finish.i86, align 8
  %33 = load ptr, ptr %m_normals, align 8
  %cmp83.not = icmp eq ptr %32, %33
  br i1 %cmp83.not, label %if.end86, label %if.then84

if.then84:                                        ; preds = %if.then81
  call void @llvm.lifetime.start.p0(i64 8, ptr nonnull %ref.tmp.i91)
  %call.i9294 = invoke noundef zeroext i1 @_ZN6Assimp13DefaultLogger12isNullLoggerEv()
          to label %call.i92.noexc unwind label %lpad22

call.i92.noexc:                                   ; preds = %if.then84
  br i1 %call.i9294, label %_ZN6Assimp12LogFunctionsINS_11FBXImporterEE8LogErrorIJRA33_KcEEEvDpOT_.exit, label %if.then.i93

if.then.i93:                                      ; preds = %call.i92.noexc
  %call1.i96 = invoke noundef ptr @_ZN6Assimp13DefaultLogger3getEv()
          to label %call1.i.noexc95 unwind label %lpad22

call1.i.noexc95:                                  ; preds = %if.then.i93
  %call2.i98 = invoke noundef ptr @_ZN6Assimp12LogFunctionsINS_11FBXImporterEE6PrefixEv()
          to label %call2.i.noexc97 unwind label %lpad22

call2.i.noexc97:                                  ; preds = %call1.i.noexc95
  store ptr %call2.i98, ptr %ref.tmp.i91, align 8
  invoke void @_ZN6Assimp6Logger5errorIJPKcRA33_S2_EEEvDpOT_(ptr noundef nonnull align 8 dereferenceable(12) %call1.i96, ptr noundef nonnull align 8 dereferenceable(8) %ref.tmp.i91, ptr noundef nonnull align 1 dereferenceable(33) @.str.29)
          to label %_ZN6Assimp12LogFunctionsINS_11FBXImporterEE8LogErrorIJRA33_KcEEEvDpOT_.exit unwind label %lpad22

_ZN6Assimp12LogFunctionsINS_11FBXImporterEE8LogErrorIJRA33_KcEEEvDpOT_.exit: ; preds = %call2.i.noexc97, %call.i92.noexc
  call void @llvm.lifetime.end.p0(i64 8, ptr nonnull %ref.tmp.i91)
  br label %cleanup129

if.end86:                                         ; preds = %if.then81
  %m_vertices.i100 = getelementptr inbounds %"class.Assimp::FBX::MeshGeometry", ptr %this, i64 0, i32 2
  %_M_finish.i.i101 = getelementptr inbounds %"class.Assimp::FBX::MeshGeometry", ptr %this, i64 0, i32 2, i32 0, i32 0, i32 0, i32 1
  %34 = load ptr, ptr %_M_finish.i.i101, align 8
  %35 = load ptr, ptr %m_vertices.i100, align 8
  %sub.ptr.lhs.cast.i.i102 = ptrtoint ptr %34 to i64
  %sub.ptr.rhs.cast.i.i103 = ptrtoint ptr %35 to i64
  %sub.ptr.sub.i.i104 = sub i64 %sub.ptr.lhs.cast.i.i102, %sub.ptr.rhs.cast.i.i103
  %sub.ptr.div.i.i105 = sdiv exact i64 %sub.ptr.sub.i.i104, 12
  %m_mapping_counts.i106 = getelementptr inbounds %"class.Assimp::FBX::MeshGeometry", ptr %this, i64 0, i32 11
  %m_mapping_offsets.i107 = getelementptr inbounds %"class.Assimp::FBX::MeshGeometry", ptr %this, i64 0, i32 12
  %m_mappings.i108 = getelementptr inbounds %"class.Assimp::FBX::MeshGeometry", ptr %this, i64 0, i32 13
  invoke void @_ZN6Assimp3FBX22ResolveVertexDataArrayI10aiVector3tIfEEEvRSt6vectorIT_SaIS5_EERKNS0_5ScopeERKNSt7__cxx1112basic_stringIcSt11char_traitsIcESaIcEEESJ_PKcSL_mRKS4_IjSaIjEESP_SP_(ptr noundef nonnull align 8 dereferenceable(24) %m_normals, ptr noundef nonnull align 8 dereferenceable(48) %source, ptr noundef nonnull align 8 dereferenceable(32) %ref.tmp, ptr noundef nonnull align 8 dereferenceable(32) %ref.tmp9, ptr noundef nonnull @.str.36, ptr noundef nonnull @.str.37, i64 noundef %sub.ptr.div.i.i105, ptr noundef nonnull align 8 dereferenceable(24) %m_mapping_counts.i106, ptr noundef nonnull align 8 dereferenceable(24) %m_mapping_offsets.i107, ptr noundef nonnull align 8 dereferenceable(24) %m_mappings.i108)
          to label %cleanup129 unwind label %lpad22

if.else89:                                        ; preds = %if.else78
  %call.i110 = call noundef i32 @_ZNKSt7__cxx1112basic_stringIcSt11char_traitsIcESaIcEE7compareEPKc(ptr noundef nonnull align 8 dereferenceable(32) %type, ptr noundef nonnull @.str.30) #23
  %cmp.i111 = icmp eq i32 %call.i110, 0
  br i1 %cmp.i111, label %if.then92, label %if.else100

if.then92:                                        ; preds = %if.else89
  %m_tangents = getelementptr inbounds %"class.Assimp::FBX::MeshGeometry", ptr %this, i64 0, i32 5
  %_M_finish.i112 = getelementptr inbounds %"class.Assimp::FBX::MeshGeometry", ptr %this, i64 0, i32 5, i32 0, i32 0, i32 0, i32 1
  %36 = load ptr, ptr %_M_finish.i112, align 8
  %37 = load ptr, ptr %m_tangents, align 8
  %cmp94.not = icmp eq ptr %36, %37
  br i1 %cmp94.not, label %if.end97, label %if.then95

if.then95:                                        ; preds = %if.then92
  call void @llvm.lifetime.start.p0(i64 8, ptr nonnull %ref.tmp.i117)
  %call.i118120 = invoke noundef zeroext i1 @_ZN6Assimp13DefaultLogger12isNullLoggerEv()
          to label %call.i118.noexc unwind label %lpad22

call.i118.noexc:                                  ; preds = %if.then95
  br i1 %call.i118120, label %_ZN6Assimp12LogFunctionsINS_11FBXImporterEE8LogErrorIJRA34_KcEEEvDpOT_.exit, label %if.then.i119

if.then.i119:                                     ; preds = %call.i118.noexc
  %call1.i122 = invoke noundef ptr @_ZN6Assimp13DefaultLogger3getEv()
          to label %call1.i.noexc121 unwind label %lpad22

call1.i.noexc121:                                 ; preds = %if.then.i119
  %call2.i124 = invoke noundef ptr @_ZN6Assimp12LogFunctionsINS_11FBXImporterEE6PrefixEv()
          to label %call2.i.noexc123 unwind label %lpad22

call2.i.noexc123:                                 ; preds = %call1.i.noexc121
  store ptr %call2.i124, ptr %ref.tmp.i117, align 8
  invoke void @_ZN6Assimp6Logger5errorIJPKcRA34_S2_EEEvDpOT_(ptr noundef nonnull align 8 dereferenceable(12) %call1.i122, ptr noundef nonnull align 8 dereferenceable(8) %ref.tmp.i117, ptr noundef nonnull align 1 dereferenceable(34) @.str.31)
          to label %_ZN6Assimp12LogFunctionsINS_11FBXImporterEE8LogErrorIJRA34_KcEEEvDpOT_.exit unwind label %lpad22

_ZN6Assimp12LogFunctionsINS_11FBXImporterEE8LogErrorIJRA34_KcEEEvDpOT_.exit: ; preds = %call2.i.noexc123, %call.i118.noexc
  call void @llvm.lifetime.end.p0(i64 8, ptr nonnull %ref.tmp.i117)
  br label %cleanup129

if.end97:                                         ; preds = %if.then92
  invoke void @_ZN6Assimp3FBX12MeshGeometry22ReadVertexDataTangentsERSt6vectorI10aiVector3tIfESaIS4_EERKNS0_5ScopeERKNSt7__cxx1112basic_stringIcSt11char_traitsIcESaIcEEESI_(ptr noundef nonnull align 8 dereferenceable(1000) %this, ptr noundef nonnull align 8 dereferenceable(24) %m_tangents, ptr noundef nonnull align 8 dereferenceable(48) %source, ptr noundef nonnull align 8 dereferenceable(32) %ref.tmp, ptr noundef nonnull align 8 dereferenceable(32) %ref.tmp9)
          to label %cleanup129 unwind label %lpad22

if.else100:                                       ; preds = %if.else89
  %call.i126 = call noundef i32 @_ZNKSt7__cxx1112basic_stringIcSt11char_traitsIcESaIcEE7compareEPKc(ptr noundef nonnull align 8 dereferenceable(32) %type, ptr noundef nonnull @.str.32) #23
  %cmp.i127 = icmp eq i32 %call.i126, 0
  br i1 %cmp.i127, label %if.then103, label %if.else111

if.then103:                                       ; preds = %if.else100
  %m_binormals = getelementptr inbounds %"class.Assimp::FBX::MeshGeometry", ptr %this, i64 0, i32 6
  %_M_finish.i128 = getelementptr inbounds %"class.Assimp::FBX::MeshGeometry", ptr %this, i64 0, i32 6, i32 0, i32 0, i32 0, i32 1
  %38 = load ptr, ptr %_M_finish.i128, align 8
  %39 = load ptr, ptr %m_binormals, align 8
  %cmp105.not = icmp eq ptr %38, %39
  br i1 %cmp105.not, label %if.end108, label %if.then106

if.then106:                                       ; preds = %if.then103
  invoke void @_ZN6Assimp12LogFunctionsINS_11FBXImporterEE8LogErrorIJRA35_KcEEEvDpOT_(ptr noundef nonnull align 1 dereferenceable(35) @.str.33)
          to label %cleanup129 unwind label %lpad22

if.end108:                                        ; preds = %if.then103
  invoke void @_ZN6Assimp3FBX12MeshGeometry23ReadVertexDataBinormalsERSt6vectorI10aiVector3tIfESaIS4_EERKNS0_5ScopeERKNSt7__cxx1112basic_stringIcSt11char_traitsIcESaIcEEESI_(ptr noundef nonnull align 8 dereferenceable(1000) %this, ptr noundef nonnull align 8 dereferenceable(24) %m_binormals, ptr noundef nonnull align 8 dereferenceable(48) %source, ptr noundef nonnull align 8 dereferenceable(32) %ref.tmp, ptr noundef nonnull align 8 dereferenceable(32) %ref.tmp9)
          to label %cleanup129 unwind label %lpad22

if.else111:                                       ; preds = %if.else100
  %call.i133 = call noundef i32 @_ZNKSt7__cxx1112basic_stringIcSt11char_traitsIcESaIcEE7compareEPKc(ptr noundef nonnull align 8 dereferenceable(32) %type, ptr noundef nonnull @.str.34) #23
  %cmp.i134 = icmp eq i32 %call.i133, 0
  br i1 %cmp.i134, label %if.then114, label %cleanup129

if.then114:                                       ; preds = %if.else111
  %40 = load i32, ptr %index.addr, align 4
  %cmp115 = icmp sgt i32 %40, 7
  br i1 %cmp115, label %if.then116, label %if.end119

if.then116:                                       ; preds = %if.then114
  store i32 8, ptr %ref.tmp117, align 4
  invoke void @_ZN6Assimp12LogFunctionsINS_11FBXImporterEE8LogErrorIJRA69_KcRiRA12_S4_iRA2_S4_EEEvDpOT_(ptr noundef nonnull align 1 dereferenceable(69) @.str.35, ptr noundef nonnull align 4 dereferenceable(4) %index.addr, ptr noundef nonnull align 1 dereferenceable(12) @.str.22, ptr noundef nonnull align 4 dereferenceable(4) %ref.tmp117, ptr noundef nonnull align 1 dereferenceable(2) @.str.23)
          to label %cleanup129 unwind label %lpad22

if.end119:                                        ; preds = %if.then114
  %idxprom120 = sext i32 %40 to i64
  %arrayidx121 = getelementptr inbounds %"class.Assimp::FBX::MeshGeometry", ptr %this, i64 0, i32 10, i64 %idxprom120
  invoke void @_ZN6Assimp3FBX12MeshGeometry20ReadVertexDataColorsERSt6vectorI9aiColor4tIfESaIS4_EERKNS0_5ScopeERKNSt7__cxx1112basic_stringIcSt11char_traitsIcESaIcEEESI_(ptr noundef nonnull align 8 dereferenceable(1000) %this, ptr noundef nonnull align 8 dereferenceable(24) %arrayidx121, ptr noundef nonnull align 8 dereferenceable(48) %source, ptr noundef nonnull align 8 dereferenceable(32) %ref.tmp, ptr noundef nonnull align 8 dereferenceable(32) %ref.tmp9)
          to label %cleanup129 unwind label %lpad22

cleanup129:                                       ; preds = %if.end86, %if.then.i.i.i82, %cleanup, %if.end48, %_ZN6Assimp12LogFunctionsINS_11FBXImporterEE8LogErrorIJRA34_KcEEEvDpOT_.exit, %_ZN6Assimp12LogFunctionsINS_11FBXImporterEE8LogErrorIJRA33_KcEEEvDpOT_.exit, %_ZN6Assimp12LogFunctionsINS_11FBXImporterEE8LogErrorIJRA35_KcEEEvDpOT_.exit, %_ZN6Assimp12LogFunctionsINS_11FBXImporterEE8LogErrorIJRA60_KcRiRA12_S4_iRA2_S4_EEEvDpOT_.exit, %if.end108, %if.end119, %if.else111, %if.end97, %if.then116, %if.then106
  call void @_ZNSt7__cxx1112basic_stringIcSt11char_traitsIcESaIcEED1Ev(ptr noundef nonnull align 8 dereferenceable(32) %ref.tmp9) #23
  call void @_ZNSt7__cxx1112basic_stringIcSt11char_traitsIcESaIcEED1Ev(ptr noundef nonnull align 8 dereferenceable(32) %ref.tmp) #23
  ret void

ehcleanup130:                                     ; preds = %if.then.i.i.i, %lpad60, %ehcleanup36, %lpad22
  %.pn30 = phi { ptr, i32 } [ %7, %lpad22 ], [ %.pn28, %ehcleanup36 ], [ %26, %lpad60 ], [ %26, %if.then.i.i.i ]
  call void @_ZNSt7__cxx1112basic_stringIcSt11char_traitsIcESaIcEED1Ev(ptr noundef nonnull align 8 dereferenceable(32) %ref.tmp9) #23
  br label %ehcleanup134

ehcleanup134:                                     ; preds = %ehcleanup130, %ehcleanup21
  %.pn30.pn = phi { ptr, i32 } [ %.pn30, %ehcleanup130 ], [ %.pn26, %ehcleanup21 ]
  call void @_ZNSt7__cxx1112basic_stringIcSt11char_traitsIcESaIcEED1Ev(ptr noundef nonnull align 8 dereferenceable(32) %ref.tmp) #23
  br label %eh.resume

eh.resume:                                        ; preds = %ehcleanup134, %ehcleanup
  %.pn30.pn.pn = phi { ptr, i32 } [ %.pn30.pn, %ehcleanup134 ], [ %.pn, %ehcleanup ]
  resume { ptr, i32 } %.pn30.pn.pn
}

; Function Attrs: nounwind
declare noundef nonnull align 8 dereferenceable(32) ptr @_ZNSt7__cxx1112basic_stringIcSt11char_traitsIcESaIcEEaSEOS4_(ptr noundef nonnull align 8 dereferenceable(32), ptr noundef nonnull align 8 dereferenceable(32)) local_unnamed_addr #5

; Function Attrs: mustprogress uwtable
define hidden void @_ZN6Assimp3FBX12MeshGeometry16ReadVertexDataUVERSt6vectorI10aiVector2tIfESaIS4_EERKNS0_5ScopeERKNSt7__cxx1112basic_stringIcSt11char_traitsIcESaIcEEESI_(ptr noundef nonnull align 8 dereferenceable(1000) %this, ptr noundef nonnull align 8 dereferenceable(24) %uv_out, ptr noundef nonnull align 8 dereferenceable(48) %source, ptr noundef nonnull align 8 dereferenceable(32) %MappingInformationType, ptr noundef nonnull align 8 dereferenceable(32) %ReferenceInformationType) local_unnamed_addr #0 align 2 {
entry:
  %m_vertices = getelementptr inbounds %"class.Assimp::FBX::MeshGeometry", ptr %this, i64 0, i32 2
  %_M_finish.i = getelementptr inbounds %"class.Assimp::FBX::MeshGeometry", ptr %this, i64 0, i32 2, i32 0, i32 0, i32 0, i32 1
  %0 = load ptr, ptr %_M_finish.i, align 8
  %1 = load ptr, ptr %m_vertices, align 8
  %sub.ptr.lhs.cast.i = ptrtoint ptr %0 to i64
  %sub.ptr.rhs.cast.i = ptrtoint ptr %1 to i64
  %sub.ptr.sub.i = sub i64 %sub.ptr.lhs.cast.i, %sub.ptr.rhs.cast.i
  %sub.ptr.div.i = sdiv exact i64 %sub.ptr.sub.i, 12
  %m_mapping_counts = getelementptr inbounds %"class.Assimp::FBX::MeshGeometry", ptr %this, i64 0, i32 11
  %m_mapping_offsets = getelementptr inbounds %"class.Assimp::FBX::MeshGeometry", ptr %this, i64 0, i32 12
  %m_mappings = getelementptr inbounds %"class.Assimp::FBX::MeshGeometry", ptr %this, i64 0, i32 13
  tail call void @_ZN6Assimp3FBX22ResolveVertexDataArrayI10aiVector2tIfEEEvRSt6vectorIT_SaIS5_EERKNS0_5ScopeERKNSt7__cxx1112basic_stringIcSt11char_traitsIcESaIcEEESJ_PKcSL_mRKS4_IjSaIjEESP_SP_(ptr noundef nonnull align 8 dereferenceable(24) %uv_out, ptr noundef nonnull align 8 dereferenceable(48) %source, ptr noundef nonnull align 8 dereferenceable(32) %MappingInformationType, ptr noundef nonnull align 8 dereferenceable(32) %ReferenceInformationType, ptr noundef nonnull @.str.38, ptr noundef nonnull @.str.39, i64 noundef %sub.ptr.div.i, ptr noundef nonnull align 8 dereferenceable(24) %m_mapping_counts, ptr noundef nonnull align 8 dereferenceable(24) %m_mapping_offsets, ptr noundef nonnull align 8 dereferenceable(24) %m_mappings)
  ret void
}

; Function Attrs: mustprogress uwtable
define linkonce_odr hidden void @_ZN6Assimp12LogFunctionsINS_11FBXImporterEE8LogErrorIJRA35_KcEEEvDpOT_(ptr noundef nonnull align 1 dereferenceable(35) %args) local_unnamed_addr #0 comdat align 2 {
entry:
  %ref.tmp = alloca ptr, align 8
  %call = tail call noundef zeroext i1 @_ZN6Assimp13DefaultLogger12isNullLoggerEv()
  br i1 %call, label %if.end, label %if.then

if.then:                                          ; preds = %entry
  %call1 = tail call noundef ptr @_ZN6Assimp13DefaultLogger3getEv()
  %call2 = tail call noundef ptr @_ZN6Assimp12LogFunctionsINS_11FBXImporterEE6PrefixEv()
  store ptr %call2, ptr %ref.tmp, align 8
  call void @_ZN6Assimp6Logger5errorIJPKcRA35_S2_EEEvDpOT_(ptr noundef nonnull align 8 dereferenceable(12) %call1, ptr noundef nonnull align 8 dereferenceable(8) %ref.tmp, ptr noundef nonnull align 1 dereferenceable(35) %args)
  br label %if.end

if.end:                                           ; preds = %if.then, %entry
  ret void
}

; Function Attrs: mustprogress uwtable
